ARM GAS  /tmp/cc5XbSDB.s 			page 1


   1              		.cpu cortex-m4
   2              		.eabi_attribute 27, 1
   3              		.eabi_attribute 28, 1
   4              		.eabi_attribute 20, 1
   5              		.eabi_attribute 21, 1
   6              		.eabi_attribute 23, 3
   7              		.eabi_attribute 24, 1
   8              		.eabi_attribute 25, 1
   9              		.eabi_attribute 26, 1
  10              		.eabi_attribute 30, 1
  11              		.eabi_attribute 34, 1
  12              		.eabi_attribute 18, 4
  13              		.file	"lv_example_scroll_1.c"
  14              		.text
  15              	.Ltext0:
  16              		.cfi_sections	.debug_frame
  17              		.section	.rodata.lv_example_scroll_1.str1.4,"aMS",%progbits,1
  18              		.align	2
  19              	.LC0:
  20 0000 5A65726F 		.ascii	"Zero\000"
  20      00
  21 0005 000000   		.align	2
  22              	.LC1:
  23 0008 52696768 		.ascii	"Right\000"
  23      7400
  24 000e 0000     		.align	2
  25              	.LC2:
  26 0010 426F7474 		.ascii	"Bottom\000"
  26      6F6D00
  27              		.section	.text.lv_example_scroll_1,"ax",%progbits
  28              		.align	1
  29              		.global	lv_example_scroll_1
  30              		.arch armv7e-m
  31              		.syntax unified
  32              		.thumb
  33              		.thumb_func
  34              		.fpu fpv4-sp-d16
  36              	lv_example_scroll_1:
  37              	.LFB184:
  38              		.file 1 "Middlewares/lvgl/examples/scroll/lv_example_scroll_1.c"
   1:Middlewares/lvgl/examples/scroll/lv_example_scroll_1.c **** #include "../lv_examples.h"
   2:Middlewares/lvgl/examples/scroll/lv_example_scroll_1.c **** #if LV_BUILD_EXAMPLES
   3:Middlewares/lvgl/examples/scroll/lv_example_scroll_1.c **** 
   4:Middlewares/lvgl/examples/scroll/lv_example_scroll_1.c **** /**
   5:Middlewares/lvgl/examples/scroll/lv_example_scroll_1.c ****  * Demonstrate how scrolling appears automatically
   6:Middlewares/lvgl/examples/scroll/lv_example_scroll_1.c ****  */
   7:Middlewares/lvgl/examples/scroll/lv_example_scroll_1.c **** void lv_example_scroll_1(void)
   8:Middlewares/lvgl/examples/scroll/lv_example_scroll_1.c **** {
  39              		.loc 1 8 1 view -0
  40              		.cfi_startproc
  41              		@ args = 0, pretend = 0, frame = 0
  42              		@ frame_needed = 0, uses_anonymous_args = 0
  43 0000 38B5     		push	{r3, r4, r5, lr}
  44              	.LCFI0:
  45              		.cfi_def_cfa_offset 16
  46              		.cfi_offset 3, -16
  47              		.cfi_offset 4, -12
ARM GAS  /tmp/cc5XbSDB.s 			page 2


  48              		.cfi_offset 5, -8
  49              		.cfi_offset 14, -4
   9:Middlewares/lvgl/examples/scroll/lv_example_scroll_1.c ****     /*Create an object with the new style*/
  10:Middlewares/lvgl/examples/scroll/lv_example_scroll_1.c ****     lv_obj_t * panel = lv_obj_create(lv_scr_act());
  50              		.loc 1 10 5 view .LVU1
  51              	.LBB20:
  52              	.LBI20:
  53              		.file 2 "Middlewares/lvgl/examples/scroll/../../src/core/lv_disp.h"
   1:Middlewares/lvgl/examples/scroll/../../src/core/lv_disp.h **** /**
   2:Middlewares/lvgl/examples/scroll/../../src/core/lv_disp.h ****  * @file lv_disp.h
   3:Middlewares/lvgl/examples/scroll/../../src/core/lv_disp.h ****  *
   4:Middlewares/lvgl/examples/scroll/../../src/core/lv_disp.h ****  */
   5:Middlewares/lvgl/examples/scroll/../../src/core/lv_disp.h **** 
   6:Middlewares/lvgl/examples/scroll/../../src/core/lv_disp.h **** #ifndef LV_DISP_H
   7:Middlewares/lvgl/examples/scroll/../../src/core/lv_disp.h **** #define LV_DISP_H
   8:Middlewares/lvgl/examples/scroll/../../src/core/lv_disp.h **** 
   9:Middlewares/lvgl/examples/scroll/../../src/core/lv_disp.h **** #ifdef __cplusplus
  10:Middlewares/lvgl/examples/scroll/../../src/core/lv_disp.h **** extern "C" {
  11:Middlewares/lvgl/examples/scroll/../../src/core/lv_disp.h **** #endif
  12:Middlewares/lvgl/examples/scroll/../../src/core/lv_disp.h **** 
  13:Middlewares/lvgl/examples/scroll/../../src/core/lv_disp.h **** /*********************
  14:Middlewares/lvgl/examples/scroll/../../src/core/lv_disp.h ****  *      INCLUDES
  15:Middlewares/lvgl/examples/scroll/../../src/core/lv_disp.h ****  *********************/
  16:Middlewares/lvgl/examples/scroll/../../src/core/lv_disp.h **** #include "../hal/lv_hal.h"
  17:Middlewares/lvgl/examples/scroll/../../src/core/lv_disp.h **** #include "lv_obj.h"
  18:Middlewares/lvgl/examples/scroll/../../src/core/lv_disp.h **** #include "lv_theme.h"
  19:Middlewares/lvgl/examples/scroll/../../src/core/lv_disp.h **** 
  20:Middlewares/lvgl/examples/scroll/../../src/core/lv_disp.h **** /*********************
  21:Middlewares/lvgl/examples/scroll/../../src/core/lv_disp.h ****  *      DEFINES
  22:Middlewares/lvgl/examples/scroll/../../src/core/lv_disp.h ****  *********************/
  23:Middlewares/lvgl/examples/scroll/../../src/core/lv_disp.h **** 
  24:Middlewares/lvgl/examples/scroll/../../src/core/lv_disp.h **** /**********************
  25:Middlewares/lvgl/examples/scroll/../../src/core/lv_disp.h ****  *      TYPEDEFS
  26:Middlewares/lvgl/examples/scroll/../../src/core/lv_disp.h ****  **********************/
  27:Middlewares/lvgl/examples/scroll/../../src/core/lv_disp.h **** 
  28:Middlewares/lvgl/examples/scroll/../../src/core/lv_disp.h **** typedef enum {
  29:Middlewares/lvgl/examples/scroll/../../src/core/lv_disp.h ****     LV_SCR_LOAD_ANIM_NONE,
  30:Middlewares/lvgl/examples/scroll/../../src/core/lv_disp.h ****     LV_SCR_LOAD_ANIM_OVER_LEFT,
  31:Middlewares/lvgl/examples/scroll/../../src/core/lv_disp.h ****     LV_SCR_LOAD_ANIM_OVER_RIGHT,
  32:Middlewares/lvgl/examples/scroll/../../src/core/lv_disp.h ****     LV_SCR_LOAD_ANIM_OVER_TOP,
  33:Middlewares/lvgl/examples/scroll/../../src/core/lv_disp.h ****     LV_SCR_LOAD_ANIM_OVER_BOTTOM,
  34:Middlewares/lvgl/examples/scroll/../../src/core/lv_disp.h ****     LV_SCR_LOAD_ANIM_MOVE_LEFT,
  35:Middlewares/lvgl/examples/scroll/../../src/core/lv_disp.h ****     LV_SCR_LOAD_ANIM_MOVE_RIGHT,
  36:Middlewares/lvgl/examples/scroll/../../src/core/lv_disp.h ****     LV_SCR_LOAD_ANIM_MOVE_TOP,
  37:Middlewares/lvgl/examples/scroll/../../src/core/lv_disp.h ****     LV_SCR_LOAD_ANIM_MOVE_BOTTOM,
  38:Middlewares/lvgl/examples/scroll/../../src/core/lv_disp.h ****     LV_SCR_LOAD_ANIM_FADE_ON,
  39:Middlewares/lvgl/examples/scroll/../../src/core/lv_disp.h **** } lv_scr_load_anim_t;
  40:Middlewares/lvgl/examples/scroll/../../src/core/lv_disp.h **** 
  41:Middlewares/lvgl/examples/scroll/../../src/core/lv_disp.h **** /**********************
  42:Middlewares/lvgl/examples/scroll/../../src/core/lv_disp.h ****  * GLOBAL PROTOTYPES
  43:Middlewares/lvgl/examples/scroll/../../src/core/lv_disp.h ****  **********************/
  44:Middlewares/lvgl/examples/scroll/../../src/core/lv_disp.h **** 
  45:Middlewares/lvgl/examples/scroll/../../src/core/lv_disp.h **** /**
  46:Middlewares/lvgl/examples/scroll/../../src/core/lv_disp.h ****  * Return with a pointer to the active screen
  47:Middlewares/lvgl/examples/scroll/../../src/core/lv_disp.h ****  * @param disp pointer to display which active screen should be get. (NULL to use the default
  48:Middlewares/lvgl/examples/scroll/../../src/core/lv_disp.h ****  * screen)
  49:Middlewares/lvgl/examples/scroll/../../src/core/lv_disp.h ****  * @return pointer to the active screen object (loaded by 'lv_scr_load()')
ARM GAS  /tmp/cc5XbSDB.s 			page 3


  50:Middlewares/lvgl/examples/scroll/../../src/core/lv_disp.h ****  */
  51:Middlewares/lvgl/examples/scroll/../../src/core/lv_disp.h **** lv_obj_t * lv_disp_get_scr_act(lv_disp_t * disp);
  52:Middlewares/lvgl/examples/scroll/../../src/core/lv_disp.h **** 
  53:Middlewares/lvgl/examples/scroll/../../src/core/lv_disp.h **** /**
  54:Middlewares/lvgl/examples/scroll/../../src/core/lv_disp.h ****  * Return with a pointer to the previous screen. Only used during screen transitions.
  55:Middlewares/lvgl/examples/scroll/../../src/core/lv_disp.h ****  * @param disp pointer to display which previous screen should be get. (NULL to use the default
  56:Middlewares/lvgl/examples/scroll/../../src/core/lv_disp.h ****  * screen)
  57:Middlewares/lvgl/examples/scroll/../../src/core/lv_disp.h ****  * @return pointer to the previous screen object or NULL if not used now
  58:Middlewares/lvgl/examples/scroll/../../src/core/lv_disp.h ****  */
  59:Middlewares/lvgl/examples/scroll/../../src/core/lv_disp.h **** lv_obj_t * lv_disp_get_scr_prev(lv_disp_t * disp);
  60:Middlewares/lvgl/examples/scroll/../../src/core/lv_disp.h **** 
  61:Middlewares/lvgl/examples/scroll/../../src/core/lv_disp.h **** /**
  62:Middlewares/lvgl/examples/scroll/../../src/core/lv_disp.h ****  * Make a screen active
  63:Middlewares/lvgl/examples/scroll/../../src/core/lv_disp.h ****  * @param scr pointer to a screen
  64:Middlewares/lvgl/examples/scroll/../../src/core/lv_disp.h ****  */
  65:Middlewares/lvgl/examples/scroll/../../src/core/lv_disp.h **** void lv_disp_load_scr(lv_obj_t * scr);
  66:Middlewares/lvgl/examples/scroll/../../src/core/lv_disp.h **** 
  67:Middlewares/lvgl/examples/scroll/../../src/core/lv_disp.h **** /**
  68:Middlewares/lvgl/examples/scroll/../../src/core/lv_disp.h ****  * Return with the top layer. (Same on every screen and it is above the normal screen layer)
  69:Middlewares/lvgl/examples/scroll/../../src/core/lv_disp.h ****  * @param disp pointer to display which top layer should be get. (NULL to use the default screen)
  70:Middlewares/lvgl/examples/scroll/../../src/core/lv_disp.h ****  * @return pointer to the top layer object  (transparent screen sized lv_obj)
  71:Middlewares/lvgl/examples/scroll/../../src/core/lv_disp.h ****  */
  72:Middlewares/lvgl/examples/scroll/../../src/core/lv_disp.h **** lv_obj_t * lv_disp_get_layer_top(lv_disp_t * disp);
  73:Middlewares/lvgl/examples/scroll/../../src/core/lv_disp.h **** 
  74:Middlewares/lvgl/examples/scroll/../../src/core/lv_disp.h **** /**
  75:Middlewares/lvgl/examples/scroll/../../src/core/lv_disp.h ****  * Return with the sys. layer. (Same on every screen and it is above the normal screen and the top
  76:Middlewares/lvgl/examples/scroll/../../src/core/lv_disp.h ****  * layer)
  77:Middlewares/lvgl/examples/scroll/../../src/core/lv_disp.h ****  * @param disp pointer to display which sys. layer  should be get. (NULL to use the default screen)
  78:Middlewares/lvgl/examples/scroll/../../src/core/lv_disp.h ****  * @return pointer to the sys layer object  (transparent screen sized lv_obj)
  79:Middlewares/lvgl/examples/scroll/../../src/core/lv_disp.h ****  */
  80:Middlewares/lvgl/examples/scroll/../../src/core/lv_disp.h **** lv_obj_t * lv_disp_get_layer_sys(lv_disp_t * disp);
  81:Middlewares/lvgl/examples/scroll/../../src/core/lv_disp.h **** 
  82:Middlewares/lvgl/examples/scroll/../../src/core/lv_disp.h **** /**
  83:Middlewares/lvgl/examples/scroll/../../src/core/lv_disp.h ****  * Get the theme of a display
  84:Middlewares/lvgl/examples/scroll/../../src/core/lv_disp.h ****  * @param disp pointer to a display
  85:Middlewares/lvgl/examples/scroll/../../src/core/lv_disp.h ****  * @return the display's theme (can be NULL)
  86:Middlewares/lvgl/examples/scroll/../../src/core/lv_disp.h ****  */
  87:Middlewares/lvgl/examples/scroll/../../src/core/lv_disp.h **** void lv_disp_set_theme(lv_disp_t * disp, lv_theme_t * th);
  88:Middlewares/lvgl/examples/scroll/../../src/core/lv_disp.h **** 
  89:Middlewares/lvgl/examples/scroll/../../src/core/lv_disp.h **** /**
  90:Middlewares/lvgl/examples/scroll/../../src/core/lv_disp.h ****  * Get the theme of a display
  91:Middlewares/lvgl/examples/scroll/../../src/core/lv_disp.h ****  * @param disp pointer to a display
  92:Middlewares/lvgl/examples/scroll/../../src/core/lv_disp.h ****  * @return the display's theme (can be NULL)
  93:Middlewares/lvgl/examples/scroll/../../src/core/lv_disp.h ****  */
  94:Middlewares/lvgl/examples/scroll/../../src/core/lv_disp.h **** lv_theme_t * lv_disp_get_theme(lv_disp_t * disp);
  95:Middlewares/lvgl/examples/scroll/../../src/core/lv_disp.h **** 
  96:Middlewares/lvgl/examples/scroll/../../src/core/lv_disp.h **** /**
  97:Middlewares/lvgl/examples/scroll/../../src/core/lv_disp.h ****  * Set the background color of a display
  98:Middlewares/lvgl/examples/scroll/../../src/core/lv_disp.h ****  * @param disp pointer to a display
  99:Middlewares/lvgl/examples/scroll/../../src/core/lv_disp.h ****  * @param color color of the background
 100:Middlewares/lvgl/examples/scroll/../../src/core/lv_disp.h ****  */
 101:Middlewares/lvgl/examples/scroll/../../src/core/lv_disp.h **** void lv_disp_set_bg_color(lv_disp_t * disp, lv_color_t color);
 102:Middlewares/lvgl/examples/scroll/../../src/core/lv_disp.h **** 
 103:Middlewares/lvgl/examples/scroll/../../src/core/lv_disp.h **** /**
 104:Middlewares/lvgl/examples/scroll/../../src/core/lv_disp.h ****  * Set the background image of a display
 105:Middlewares/lvgl/examples/scroll/../../src/core/lv_disp.h ****  * @param disp pointer to a display
 106:Middlewares/lvgl/examples/scroll/../../src/core/lv_disp.h ****  * @param img_src path to file or pointer to an `lv_img_dsc_t` variable
ARM GAS  /tmp/cc5XbSDB.s 			page 4


 107:Middlewares/lvgl/examples/scroll/../../src/core/lv_disp.h ****  */
 108:Middlewares/lvgl/examples/scroll/../../src/core/lv_disp.h **** void lv_disp_set_bg_image(lv_disp_t * disp, const void  * img_src);
 109:Middlewares/lvgl/examples/scroll/../../src/core/lv_disp.h **** 
 110:Middlewares/lvgl/examples/scroll/../../src/core/lv_disp.h **** /**
 111:Middlewares/lvgl/examples/scroll/../../src/core/lv_disp.h ****  * Opacity of the background
 112:Middlewares/lvgl/examples/scroll/../../src/core/lv_disp.h ****  * @param disp pointer to a display
 113:Middlewares/lvgl/examples/scroll/../../src/core/lv_disp.h ****  * @param opa opacity (0..255)
 114:Middlewares/lvgl/examples/scroll/../../src/core/lv_disp.h ****  */
 115:Middlewares/lvgl/examples/scroll/../../src/core/lv_disp.h **** void lv_disp_set_bg_opa(lv_disp_t * disp, lv_opa_t opa);
 116:Middlewares/lvgl/examples/scroll/../../src/core/lv_disp.h **** 
 117:Middlewares/lvgl/examples/scroll/../../src/core/lv_disp.h **** /**
 118:Middlewares/lvgl/examples/scroll/../../src/core/lv_disp.h ****  * Switch screen with animation
 119:Middlewares/lvgl/examples/scroll/../../src/core/lv_disp.h ****  * @param scr pointer to the new screen to load
 120:Middlewares/lvgl/examples/scroll/../../src/core/lv_disp.h ****  * @param anim_type type of the animation from `lv_scr_load_anim_t`. E.g.  `LV_SCR_LOAD_ANIM_MOVE_L
 121:Middlewares/lvgl/examples/scroll/../../src/core/lv_disp.h ****  * @param time time of the animation
 122:Middlewares/lvgl/examples/scroll/../../src/core/lv_disp.h ****  * @param delay delay before the transition
 123:Middlewares/lvgl/examples/scroll/../../src/core/lv_disp.h ****  * @param auto_del true: automatically delete the old screen
 124:Middlewares/lvgl/examples/scroll/../../src/core/lv_disp.h ****  */
 125:Middlewares/lvgl/examples/scroll/../../src/core/lv_disp.h **** void lv_scr_load_anim(lv_obj_t * scr, lv_scr_load_anim_t anim_type, uint32_t time, uint32_t delay, 
 126:Middlewares/lvgl/examples/scroll/../../src/core/lv_disp.h **** 
 127:Middlewares/lvgl/examples/scroll/../../src/core/lv_disp.h **** /**
 128:Middlewares/lvgl/examples/scroll/../../src/core/lv_disp.h ****  * Get elapsed time since last user activity on a display (e.g. click)
 129:Middlewares/lvgl/examples/scroll/../../src/core/lv_disp.h ****  * @param disp pointer to an display (NULL to get the overall smallest inactivity)
 130:Middlewares/lvgl/examples/scroll/../../src/core/lv_disp.h ****  * @return elapsed ticks (milliseconds) since the last activity
 131:Middlewares/lvgl/examples/scroll/../../src/core/lv_disp.h ****  */
 132:Middlewares/lvgl/examples/scroll/../../src/core/lv_disp.h **** uint32_t lv_disp_get_inactive_time(const lv_disp_t * disp);
 133:Middlewares/lvgl/examples/scroll/../../src/core/lv_disp.h **** 
 134:Middlewares/lvgl/examples/scroll/../../src/core/lv_disp.h **** /**
 135:Middlewares/lvgl/examples/scroll/../../src/core/lv_disp.h ****  * Manually trigger an activity on a display
 136:Middlewares/lvgl/examples/scroll/../../src/core/lv_disp.h ****  * @param disp pointer to an display (NULL to use the default display)
 137:Middlewares/lvgl/examples/scroll/../../src/core/lv_disp.h ****  */
 138:Middlewares/lvgl/examples/scroll/../../src/core/lv_disp.h **** void lv_disp_trig_activity(lv_disp_t * disp);
 139:Middlewares/lvgl/examples/scroll/../../src/core/lv_disp.h **** 
 140:Middlewares/lvgl/examples/scroll/../../src/core/lv_disp.h **** /**
 141:Middlewares/lvgl/examples/scroll/../../src/core/lv_disp.h ****  * Clean any CPU cache that is related to the display.
 142:Middlewares/lvgl/examples/scroll/../../src/core/lv_disp.h ****  * @param disp pointer to an display (NULL to use the default display)
 143:Middlewares/lvgl/examples/scroll/../../src/core/lv_disp.h ****  */
 144:Middlewares/lvgl/examples/scroll/../../src/core/lv_disp.h **** void lv_disp_clean_dcache(lv_disp_t * disp);
 145:Middlewares/lvgl/examples/scroll/../../src/core/lv_disp.h **** 
 146:Middlewares/lvgl/examples/scroll/../../src/core/lv_disp.h **** /**
 147:Middlewares/lvgl/examples/scroll/../../src/core/lv_disp.h ****  * Get a pointer to the screen refresher timer to
 148:Middlewares/lvgl/examples/scroll/../../src/core/lv_disp.h ****  * modify its parameters with `lv_timer_...` functions.
 149:Middlewares/lvgl/examples/scroll/../../src/core/lv_disp.h ****  * @param disp pointer to a display
 150:Middlewares/lvgl/examples/scroll/../../src/core/lv_disp.h ****  * @return pointer to the display refresher timer. (NULL on error)
 151:Middlewares/lvgl/examples/scroll/../../src/core/lv_disp.h ****  */
 152:Middlewares/lvgl/examples/scroll/../../src/core/lv_disp.h **** lv_timer_t * _lv_disp_get_refr_timer(lv_disp_t * disp);
 153:Middlewares/lvgl/examples/scroll/../../src/core/lv_disp.h **** 
 154:Middlewares/lvgl/examples/scroll/../../src/core/lv_disp.h **** /*------------------------------------------------
 155:Middlewares/lvgl/examples/scroll/../../src/core/lv_disp.h ****  * To improve backward compatibility
 156:Middlewares/lvgl/examples/scroll/../../src/core/lv_disp.h ****  * Recommended only if you have one display
 157:Middlewares/lvgl/examples/scroll/../../src/core/lv_disp.h ****  *------------------------------------------------*/
 158:Middlewares/lvgl/examples/scroll/../../src/core/lv_disp.h **** 
 159:Middlewares/lvgl/examples/scroll/../../src/core/lv_disp.h **** /**
 160:Middlewares/lvgl/examples/scroll/../../src/core/lv_disp.h ****  * Get the active screen of the default display
 161:Middlewares/lvgl/examples/scroll/../../src/core/lv_disp.h ****  * @return pointer to the active screen
 162:Middlewares/lvgl/examples/scroll/../../src/core/lv_disp.h ****  */
 163:Middlewares/lvgl/examples/scroll/../../src/core/lv_disp.h **** static inline lv_obj_t * lv_scr_act(void)
ARM GAS  /tmp/cc5XbSDB.s 			page 5


  54              		.loc 2 163 26 view .LVU2
  55              	.LBB21:
 164:Middlewares/lvgl/examples/scroll/../../src/core/lv_disp.h **** {
 165:Middlewares/lvgl/examples/scroll/../../src/core/lv_disp.h ****     return lv_disp_get_scr_act(lv_disp_get_default());
  56              		.loc 2 165 5 view .LVU3
  57              		.loc 2 165 12 is_stmt 0 view .LVU4
  58 0002 FFF7FEFF 		bl	lv_disp_get_default
  59              	.LVL0:
  60 0006 FFF7FEFF 		bl	lv_disp_get_scr_act
  61              	.LVL1:
  62              	.LBE21:
  63              	.LBE20:
  64              		.loc 1 10 24 view .LVU5
  65 000a FFF7FEFF 		bl	lv_obj_create
  66              	.LVL2:
  67 000e 0446     		mov	r4, r0
  68              	.LVL3:
  11:Middlewares/lvgl/examples/scroll/lv_example_scroll_1.c ****     lv_obj_set_size(panel, 200, 200);
  69              		.loc 1 11 5 is_stmt 1 view .LVU6
  70 0010 C822     		movs	r2, #200
  71 0012 1146     		mov	r1, r2
  72 0014 FFF7FEFF 		bl	lv_obj_set_size
  73              	.LVL4:
  12:Middlewares/lvgl/examples/scroll/lv_example_scroll_1.c ****     lv_obj_center(panel);
  74              		.loc 1 12 5 view .LVU7
  75              	.LBB22:
  76              	.LBI22:
  77              		.file 3 "Middlewares/lvgl/examples/scroll/../../src/core/lv_obj_pos.h"
   1:Middlewares/lvgl/examples/scroll/../../src/core/lv_obj_pos.h **** /**
   2:Middlewares/lvgl/examples/scroll/../../src/core/lv_obj_pos.h ****  * @file lv_obj_pos.h
   3:Middlewares/lvgl/examples/scroll/../../src/core/lv_obj_pos.h ****  *
   4:Middlewares/lvgl/examples/scroll/../../src/core/lv_obj_pos.h ****  */
   5:Middlewares/lvgl/examples/scroll/../../src/core/lv_obj_pos.h **** 
   6:Middlewares/lvgl/examples/scroll/../../src/core/lv_obj_pos.h **** #ifndef LV_OBJ_POS_H
   7:Middlewares/lvgl/examples/scroll/../../src/core/lv_obj_pos.h **** #define LV_OBJ_POS_H
   8:Middlewares/lvgl/examples/scroll/../../src/core/lv_obj_pos.h **** 
   9:Middlewares/lvgl/examples/scroll/../../src/core/lv_obj_pos.h **** #ifdef __cplusplus
  10:Middlewares/lvgl/examples/scroll/../../src/core/lv_obj_pos.h **** extern "C" {
  11:Middlewares/lvgl/examples/scroll/../../src/core/lv_obj_pos.h **** #endif
  12:Middlewares/lvgl/examples/scroll/../../src/core/lv_obj_pos.h **** 
  13:Middlewares/lvgl/examples/scroll/../../src/core/lv_obj_pos.h **** /*********************
  14:Middlewares/lvgl/examples/scroll/../../src/core/lv_obj_pos.h ****  *      INCLUDES
  15:Middlewares/lvgl/examples/scroll/../../src/core/lv_obj_pos.h ****  *********************/
  16:Middlewares/lvgl/examples/scroll/../../src/core/lv_obj_pos.h **** #include "../misc/lv_area.h"
  17:Middlewares/lvgl/examples/scroll/../../src/core/lv_obj_pos.h **** 
  18:Middlewares/lvgl/examples/scroll/../../src/core/lv_obj_pos.h **** /*********************
  19:Middlewares/lvgl/examples/scroll/../../src/core/lv_obj_pos.h ****  *      DEFINES
  20:Middlewares/lvgl/examples/scroll/../../src/core/lv_obj_pos.h ****  *********************/
  21:Middlewares/lvgl/examples/scroll/../../src/core/lv_obj_pos.h **** 
  22:Middlewares/lvgl/examples/scroll/../../src/core/lv_obj_pos.h **** /**********************
  23:Middlewares/lvgl/examples/scroll/../../src/core/lv_obj_pos.h ****  *      TYPEDEFS
  24:Middlewares/lvgl/examples/scroll/../../src/core/lv_obj_pos.h ****  **********************/
  25:Middlewares/lvgl/examples/scroll/../../src/core/lv_obj_pos.h **** struct _lv_obj_t;
  26:Middlewares/lvgl/examples/scroll/../../src/core/lv_obj_pos.h **** 
  27:Middlewares/lvgl/examples/scroll/../../src/core/lv_obj_pos.h **** typedef void (*lv_layout_update_cb_t)(struct _lv_obj_t *, void * user_data);
  28:Middlewares/lvgl/examples/scroll/../../src/core/lv_obj_pos.h **** typedef struct {
  29:Middlewares/lvgl/examples/scroll/../../src/core/lv_obj_pos.h ****     lv_layout_update_cb_t cb;
ARM GAS  /tmp/cc5XbSDB.s 			page 6


  30:Middlewares/lvgl/examples/scroll/../../src/core/lv_obj_pos.h ****     void * user_data;
  31:Middlewares/lvgl/examples/scroll/../../src/core/lv_obj_pos.h **** }lv_layout_dsc_t;
  32:Middlewares/lvgl/examples/scroll/../../src/core/lv_obj_pos.h **** 
  33:Middlewares/lvgl/examples/scroll/../../src/core/lv_obj_pos.h **** /**********************
  34:Middlewares/lvgl/examples/scroll/../../src/core/lv_obj_pos.h ****  * GLOBAL PROTOTYPES
  35:Middlewares/lvgl/examples/scroll/../../src/core/lv_obj_pos.h ****  **********************/
  36:Middlewares/lvgl/examples/scroll/../../src/core/lv_obj_pos.h **** 
  37:Middlewares/lvgl/examples/scroll/../../src/core/lv_obj_pos.h **** /**
  38:Middlewares/lvgl/examples/scroll/../../src/core/lv_obj_pos.h ****  * Set the relative the position of an object (relative to the parent's top left corner)
  39:Middlewares/lvgl/examples/scroll/../../src/core/lv_obj_pos.h ****  * @param obj       pointer to an object
  40:Middlewares/lvgl/examples/scroll/../../src/core/lv_obj_pos.h ****  * @param x         new distance from the left side of the parent plus the parent's left padding
  41:Middlewares/lvgl/examples/scroll/../../src/core/lv_obj_pos.h ****  * @param y         new distance from the top side of the parent  plus the parent's right padding
  42:Middlewares/lvgl/examples/scroll/../../src/core/lv_obj_pos.h ****  */
  43:Middlewares/lvgl/examples/scroll/../../src/core/lv_obj_pos.h **** void lv_obj_set_pos(struct _lv_obj_t * obj, lv_coord_t x, lv_coord_t y);
  44:Middlewares/lvgl/examples/scroll/../../src/core/lv_obj_pos.h **** 
  45:Middlewares/lvgl/examples/scroll/../../src/core/lv_obj_pos.h **** /**
  46:Middlewares/lvgl/examples/scroll/../../src/core/lv_obj_pos.h ****  * Set the x coordinate of a object
  47:Middlewares/lvgl/examples/scroll/../../src/core/lv_obj_pos.h ****  * @param obj       pointer to an object
  48:Middlewares/lvgl/examples/scroll/../../src/core/lv_obj_pos.h ****  * @param x         new distance from the left side from the parent plus the parent's left padding
  49:Middlewares/lvgl/examples/scroll/../../src/core/lv_obj_pos.h ****  */
  50:Middlewares/lvgl/examples/scroll/../../src/core/lv_obj_pos.h **** void lv_obj_set_x(struct _lv_obj_t * obj, lv_coord_t x);
  51:Middlewares/lvgl/examples/scroll/../../src/core/lv_obj_pos.h **** 
  52:Middlewares/lvgl/examples/scroll/../../src/core/lv_obj_pos.h **** /**
  53:Middlewares/lvgl/examples/scroll/../../src/core/lv_obj_pos.h ****  * Set the y coordinate of a object
  54:Middlewares/lvgl/examples/scroll/../../src/core/lv_obj_pos.h ****  * @param obj       pointer to an object
  55:Middlewares/lvgl/examples/scroll/../../src/core/lv_obj_pos.h ****  * @param y         new distance from the top of the parent  plus the parent's top padding
  56:Middlewares/lvgl/examples/scroll/../../src/core/lv_obj_pos.h ****  */
  57:Middlewares/lvgl/examples/scroll/../../src/core/lv_obj_pos.h **** void lv_obj_set_y(struct _lv_obj_t * obj, lv_coord_t y);
  58:Middlewares/lvgl/examples/scroll/../../src/core/lv_obj_pos.h **** 
  59:Middlewares/lvgl/examples/scroll/../../src/core/lv_obj_pos.h **** /**
  60:Middlewares/lvgl/examples/scroll/../../src/core/lv_obj_pos.h ****  * Set the size of an object.
  61:Middlewares/lvgl/examples/scroll/../../src/core/lv_obj_pos.h ****  * @param obj       pointer to an object
  62:Middlewares/lvgl/examples/scroll/../../src/core/lv_obj_pos.h ****  * @param w         the new width
  63:Middlewares/lvgl/examples/scroll/../../src/core/lv_obj_pos.h ****  * @param h         the new height
  64:Middlewares/lvgl/examples/scroll/../../src/core/lv_obj_pos.h ****  * @note            possible values are:
  65:Middlewares/lvgl/examples/scroll/../../src/core/lv_obj_pos.h ****  *                  pixel               simple set the size accordingly
  66:Middlewares/lvgl/examples/scroll/../../src/core/lv_obj_pos.h ****  *                  LV_SIZE_CONTENT     set the size to involve all children in the given direction
  67:Middlewares/lvgl/examples/scroll/../../src/core/lv_obj_pos.h ****  *                  LV_SIZE_PCT(x)     to set size in percentage of the parent's content area size 
  68:Middlewares/lvgl/examples/scroll/../../src/core/lv_obj_pos.h ****  *                                      x should be in [0..1000]% range
  69:Middlewares/lvgl/examples/scroll/../../src/core/lv_obj_pos.h ****  */
  70:Middlewares/lvgl/examples/scroll/../../src/core/lv_obj_pos.h **** void lv_obj_set_size(struct _lv_obj_t * obj, lv_coord_t w, lv_coord_t h);
  71:Middlewares/lvgl/examples/scroll/../../src/core/lv_obj_pos.h **** 
  72:Middlewares/lvgl/examples/scroll/../../src/core/lv_obj_pos.h **** /**
  73:Middlewares/lvgl/examples/scroll/../../src/core/lv_obj_pos.h ****  * Recalculate the size of the object
  74:Middlewares/lvgl/examples/scroll/../../src/core/lv_obj_pos.h ****  * @param obj       pointer to an object
  75:Middlewares/lvgl/examples/scroll/../../src/core/lv_obj_pos.h ****  * @return          true: the size has been changed
  76:Middlewares/lvgl/examples/scroll/../../src/core/lv_obj_pos.h ****  */
  77:Middlewares/lvgl/examples/scroll/../../src/core/lv_obj_pos.h **** bool lv_obj_refr_size(struct _lv_obj_t * obj);
  78:Middlewares/lvgl/examples/scroll/../../src/core/lv_obj_pos.h **** 
  79:Middlewares/lvgl/examples/scroll/../../src/core/lv_obj_pos.h **** /**
  80:Middlewares/lvgl/examples/scroll/../../src/core/lv_obj_pos.h ****  * Set the width of an object
  81:Middlewares/lvgl/examples/scroll/../../src/core/lv_obj_pos.h ****  * @param obj       pointer to an object
  82:Middlewares/lvgl/examples/scroll/../../src/core/lv_obj_pos.h ****  * @param w         the new width
  83:Middlewares/lvgl/examples/scroll/../../src/core/lv_obj_pos.h ****  * @note            possible values are:
  84:Middlewares/lvgl/examples/scroll/../../src/core/lv_obj_pos.h ****  *                  pixel               simple set the size accordingly
  85:Middlewares/lvgl/examples/scroll/../../src/core/lv_obj_pos.h ****  *                  LV_SIZE_CONTENT     set the size to involve all children in the given direction
  86:Middlewares/lvgl/examples/scroll/../../src/core/lv_obj_pos.h ****  *                  lv_pct(x)           to set size in percentage of the parent's content area size
ARM GAS  /tmp/cc5XbSDB.s 			page 7


  87:Middlewares/lvgl/examples/scroll/../../src/core/lv_obj_pos.h ****  *                                      x should be in [0..1000]% range
  88:Middlewares/lvgl/examples/scroll/../../src/core/lv_obj_pos.h ****  */
  89:Middlewares/lvgl/examples/scroll/../../src/core/lv_obj_pos.h **** void lv_obj_set_width(struct _lv_obj_t * obj, lv_coord_t w);
  90:Middlewares/lvgl/examples/scroll/../../src/core/lv_obj_pos.h **** 
  91:Middlewares/lvgl/examples/scroll/../../src/core/lv_obj_pos.h **** /**
  92:Middlewares/lvgl/examples/scroll/../../src/core/lv_obj_pos.h ****  * Set the height of an object
  93:Middlewares/lvgl/examples/scroll/../../src/core/lv_obj_pos.h ****  * @param obj       pointer to an object
  94:Middlewares/lvgl/examples/scroll/../../src/core/lv_obj_pos.h ****  * @param h         the new height
  95:Middlewares/lvgl/examples/scroll/../../src/core/lv_obj_pos.h ****  * @note            possible values are:
  96:Middlewares/lvgl/examples/scroll/../../src/core/lv_obj_pos.h ****  *                  pixel               simple set the size accordingly
  97:Middlewares/lvgl/examples/scroll/../../src/core/lv_obj_pos.h ****  *                  LV_SIZE_CONTENT     set the size to involve all children in the given direction
  98:Middlewares/lvgl/examples/scroll/../../src/core/lv_obj_pos.h ****  *                  lv_pct(x)           to set size in percentage of the parent's content area size
  99:Middlewares/lvgl/examples/scroll/../../src/core/lv_obj_pos.h ****  *                                      x should be in [0..1000]% range
 100:Middlewares/lvgl/examples/scroll/../../src/core/lv_obj_pos.h ****  */
 101:Middlewares/lvgl/examples/scroll/../../src/core/lv_obj_pos.h **** void lv_obj_set_height(struct _lv_obj_t * obj, lv_coord_t h);
 102:Middlewares/lvgl/examples/scroll/../../src/core/lv_obj_pos.h **** 
 103:Middlewares/lvgl/examples/scroll/../../src/core/lv_obj_pos.h **** /**
 104:Middlewares/lvgl/examples/scroll/../../src/core/lv_obj_pos.h ****  * Set the width reduced by the left and right padding and the border width.
 105:Middlewares/lvgl/examples/scroll/../../src/core/lv_obj_pos.h ****  * @param obj       pointer to an object
 106:Middlewares/lvgl/examples/scroll/../../src/core/lv_obj_pos.h ****  * @param w         the width without paddings in pixels
 107:Middlewares/lvgl/examples/scroll/../../src/core/lv_obj_pos.h ****  */
 108:Middlewares/lvgl/examples/scroll/../../src/core/lv_obj_pos.h **** void lv_obj_set_content_width(struct _lv_obj_t * obj, lv_coord_t w);
 109:Middlewares/lvgl/examples/scroll/../../src/core/lv_obj_pos.h **** 
 110:Middlewares/lvgl/examples/scroll/../../src/core/lv_obj_pos.h **** /**
 111:Middlewares/lvgl/examples/scroll/../../src/core/lv_obj_pos.h ****  * Set the height reduced by the top and bottom padding and the border width.
 112:Middlewares/lvgl/examples/scroll/../../src/core/lv_obj_pos.h ****  * @param obj       pointer to an object
 113:Middlewares/lvgl/examples/scroll/../../src/core/lv_obj_pos.h ****  * @param h         the height without paddings in pixels
 114:Middlewares/lvgl/examples/scroll/../../src/core/lv_obj_pos.h ****  */
 115:Middlewares/lvgl/examples/scroll/../../src/core/lv_obj_pos.h **** void lv_obj_set_content_height(struct _lv_obj_t * obj, lv_coord_t h);
 116:Middlewares/lvgl/examples/scroll/../../src/core/lv_obj_pos.h **** 
 117:Middlewares/lvgl/examples/scroll/../../src/core/lv_obj_pos.h **** /**
 118:Middlewares/lvgl/examples/scroll/../../src/core/lv_obj_pos.h ****  * Set a layout for an object
 119:Middlewares/lvgl/examples/scroll/../../src/core/lv_obj_pos.h ****  * @param obj       pointer to an object
 120:Middlewares/lvgl/examples/scroll/../../src/core/lv_obj_pos.h ****  * @param layout    pointer to a layout descriptor to set
 121:Middlewares/lvgl/examples/scroll/../../src/core/lv_obj_pos.h ****  */
 122:Middlewares/lvgl/examples/scroll/../../src/core/lv_obj_pos.h **** void lv_obj_set_layout(struct _lv_obj_t * obj, uint32_t layout);
 123:Middlewares/lvgl/examples/scroll/../../src/core/lv_obj_pos.h **** 
 124:Middlewares/lvgl/examples/scroll/../../src/core/lv_obj_pos.h **** /**
 125:Middlewares/lvgl/examples/scroll/../../src/core/lv_obj_pos.h ****  * Test whether the and object is positioned by a layout or not
 126:Middlewares/lvgl/examples/scroll/../../src/core/lv_obj_pos.h ****  * @param obj       pointer to an object to test
 127:Middlewares/lvgl/examples/scroll/../../src/core/lv_obj_pos.h ****  * @return true:    positioned by a layout; false: not positioned by a layout
 128:Middlewares/lvgl/examples/scroll/../../src/core/lv_obj_pos.h ****  */
 129:Middlewares/lvgl/examples/scroll/../../src/core/lv_obj_pos.h **** bool lv_obj_is_layout_positioned(const struct _lv_obj_t * obj);
 130:Middlewares/lvgl/examples/scroll/../../src/core/lv_obj_pos.h **** 
 131:Middlewares/lvgl/examples/scroll/../../src/core/lv_obj_pos.h **** /**
 132:Middlewares/lvgl/examples/scroll/../../src/core/lv_obj_pos.h ****  * Mark the object for layout update.
 133:Middlewares/lvgl/examples/scroll/../../src/core/lv_obj_pos.h ****  * @param obj      pointer to an object whose children needs to be updated
 134:Middlewares/lvgl/examples/scroll/../../src/core/lv_obj_pos.h ****  */
 135:Middlewares/lvgl/examples/scroll/../../src/core/lv_obj_pos.h **** void lv_obj_mark_layout_as_dirty(struct _lv_obj_t * obj);
 136:Middlewares/lvgl/examples/scroll/../../src/core/lv_obj_pos.h **** 
 137:Middlewares/lvgl/examples/scroll/../../src/core/lv_obj_pos.h **** /**
 138:Middlewares/lvgl/examples/scroll/../../src/core/lv_obj_pos.h ****  * Update the layout of an object.
 139:Middlewares/lvgl/examples/scroll/../../src/core/lv_obj_pos.h ****  * @param obj      pointer to an object whose children needs to be updated
 140:Middlewares/lvgl/examples/scroll/../../src/core/lv_obj_pos.h ****  */
 141:Middlewares/lvgl/examples/scroll/../../src/core/lv_obj_pos.h **** void lv_obj_update_layout(const struct _lv_obj_t * obj);
 142:Middlewares/lvgl/examples/scroll/../../src/core/lv_obj_pos.h **** 
 143:Middlewares/lvgl/examples/scroll/../../src/core/lv_obj_pos.h **** /**
ARM GAS  /tmp/cc5XbSDB.s 			page 8


 144:Middlewares/lvgl/examples/scroll/../../src/core/lv_obj_pos.h ****  * Regsiter a new layout
 145:Middlewares/lvgl/examples/scroll/../../src/core/lv_obj_pos.h ****  * @param cb        the layout update callback
 146:Middlewares/lvgl/examples/scroll/../../src/core/lv_obj_pos.h ****  * @param user_data custom data that will be passed to `cb`
 147:Middlewares/lvgl/examples/scroll/../../src/core/lv_obj_pos.h ****  * @return          the ID of the new layout
 148:Middlewares/lvgl/examples/scroll/../../src/core/lv_obj_pos.h ****  */
 149:Middlewares/lvgl/examples/scroll/../../src/core/lv_obj_pos.h **** uint32_t lv_layout_register(lv_layout_update_cb_t cb, void * user_data);
 150:Middlewares/lvgl/examples/scroll/../../src/core/lv_obj_pos.h **** 
 151:Middlewares/lvgl/examples/scroll/../../src/core/lv_obj_pos.h **** /**
 152:Middlewares/lvgl/examples/scroll/../../src/core/lv_obj_pos.h ****  * Change the alignment of an object.
 153:Middlewares/lvgl/examples/scroll/../../src/core/lv_obj_pos.h ****  * @param obj       pointer to an object to align
 154:Middlewares/lvgl/examples/scroll/../../src/core/lv_obj_pos.h ****  * @param align     type of alignment (see 'lv_align_t' enum) `LV_ALIGN_OUT_...` can't be used.
 155:Middlewares/lvgl/examples/scroll/../../src/core/lv_obj_pos.h ****  */
 156:Middlewares/lvgl/examples/scroll/../../src/core/lv_obj_pos.h **** void lv_obj_set_align(struct _lv_obj_t * obj, lv_align_t align);
 157:Middlewares/lvgl/examples/scroll/../../src/core/lv_obj_pos.h **** 
 158:Middlewares/lvgl/examples/scroll/../../src/core/lv_obj_pos.h **** /**
 159:Middlewares/lvgl/examples/scroll/../../src/core/lv_obj_pos.h ****  * Change the alignment of an object and set new coordinates.
 160:Middlewares/lvgl/examples/scroll/../../src/core/lv_obj_pos.h ****  * Equivalent to:
 161:Middlewares/lvgl/examples/scroll/../../src/core/lv_obj_pos.h ****  * lv_obj_set_align(obj, align);
 162:Middlewares/lvgl/examples/scroll/../../src/core/lv_obj_pos.h ****  * lv_obj_set_pos(obj, x_ofs, y_ofs);
 163:Middlewares/lvgl/examples/scroll/../../src/core/lv_obj_pos.h ****  * @param obj       pointer to an object to align
 164:Middlewares/lvgl/examples/scroll/../../src/core/lv_obj_pos.h ****  * @param align     type of alignment (see 'lv_align_t' enum) `LV_ALIGN_OUT_...` can't be used.
 165:Middlewares/lvgl/examples/scroll/../../src/core/lv_obj_pos.h ****  * @param x_ofs     x coordinate offset after alignment
 166:Middlewares/lvgl/examples/scroll/../../src/core/lv_obj_pos.h ****  * @param y_ofs     y coordinate offset after alignment
 167:Middlewares/lvgl/examples/scroll/../../src/core/lv_obj_pos.h ****  */
 168:Middlewares/lvgl/examples/scroll/../../src/core/lv_obj_pos.h **** void lv_obj_align(struct _lv_obj_t * obj, lv_align_t align, lv_coord_t x_ofs, lv_coord_t y_ofs);
 169:Middlewares/lvgl/examples/scroll/../../src/core/lv_obj_pos.h **** 
 170:Middlewares/lvgl/examples/scroll/../../src/core/lv_obj_pos.h **** /**
 171:Middlewares/lvgl/examples/scroll/../../src/core/lv_obj_pos.h ****  * Align an object to an other object.
 172:Middlewares/lvgl/examples/scroll/../../src/core/lv_obj_pos.h ****  * @param obj       pointer to an object to align
 173:Middlewares/lvgl/examples/scroll/../../src/core/lv_obj_pos.h ****  * @param base      pointer to an other object (if NULL `obj`s parent is used). 'obj' will be align
 174:Middlewares/lvgl/examples/scroll/../../src/core/lv_obj_pos.h ****  * @param align     type of alignment (see 'lv_align_t' enum)
 175:Middlewares/lvgl/examples/scroll/../../src/core/lv_obj_pos.h ****  * @param x_ofs     x coordinate offset after alignment
 176:Middlewares/lvgl/examples/scroll/../../src/core/lv_obj_pos.h ****  * @param y_ofs     y coordinate offset after alignment
 177:Middlewares/lvgl/examples/scroll/../../src/core/lv_obj_pos.h ****  * @note            if the position or size of `base` changes `obj` needs to be aligned manually ag
 178:Middlewares/lvgl/examples/scroll/../../src/core/lv_obj_pos.h ****  */
 179:Middlewares/lvgl/examples/scroll/../../src/core/lv_obj_pos.h **** void lv_obj_align_to(struct _lv_obj_t * obj, const struct _lv_obj_t * base, lv_align_t align, lv_co
 180:Middlewares/lvgl/examples/scroll/../../src/core/lv_obj_pos.h **** 
 181:Middlewares/lvgl/examples/scroll/../../src/core/lv_obj_pos.h **** /**
 182:Middlewares/lvgl/examples/scroll/../../src/core/lv_obj_pos.h ****  * Align an object to the center on its parent.
 183:Middlewares/lvgl/examples/scroll/../../src/core/lv_obj_pos.h ****  * @param obj       pointer to an object to align
 184:Middlewares/lvgl/examples/scroll/../../src/core/lv_obj_pos.h ****  * @note            if the parent size changes `obj` needs to be aligned manually again
 185:Middlewares/lvgl/examples/scroll/../../src/core/lv_obj_pos.h ****  */
 186:Middlewares/lvgl/examples/scroll/../../src/core/lv_obj_pos.h **** static inline void lv_obj_center(struct _lv_obj_t * obj)
  78              		.loc 3 186 20 view .LVU8
  79              	.LBB23:
 187:Middlewares/lvgl/examples/scroll/../../src/core/lv_obj_pos.h **** {
 188:Middlewares/lvgl/examples/scroll/../../src/core/lv_obj_pos.h ****     lv_obj_align(obj, LV_ALIGN_CENTER, 0, 0);
  80              		.loc 3 188 5 view .LVU9
  81 0018 0023     		movs	r3, #0
  82 001a 1A46     		mov	r2, r3
  83 001c 0921     		movs	r1, #9
  84 001e 2046     		mov	r0, r4
  85 0020 FFF7FEFF 		bl	lv_obj_align
  86              	.LVL5:
  87              		.loc 3 188 5 is_stmt 0 view .LVU10
  88              	.LBE23:
  89              	.LBE22:
ARM GAS  /tmp/cc5XbSDB.s 			page 9


  13:Middlewares/lvgl/examples/scroll/lv_example_scroll_1.c **** 
  14:Middlewares/lvgl/examples/scroll/lv_example_scroll_1.c ****     lv_obj_t * child;
  90              		.loc 1 14 5 is_stmt 1 view .LVU11
  15:Middlewares/lvgl/examples/scroll/lv_example_scroll_1.c ****     lv_obj_t * label;
  91              		.loc 1 15 5 view .LVU12
  16:Middlewares/lvgl/examples/scroll/lv_example_scroll_1.c **** 
  17:Middlewares/lvgl/examples/scroll/lv_example_scroll_1.c ****     child = lv_obj_create(panel);
  92              		.loc 1 17 5 view .LVU13
  93              		.loc 1 17 13 is_stmt 0 view .LVU14
  94 0024 2046     		mov	r0, r4
  95 0026 FFF7FEFF 		bl	lv_obj_create
  96              	.LVL6:
  97 002a 0546     		mov	r5, r0
  98              	.LVL7:
  18:Middlewares/lvgl/examples/scroll/lv_example_scroll_1.c ****     lv_obj_set_pos(child, 0, 0);
  99              		.loc 1 18 5 is_stmt 1 view .LVU15
 100 002c 0022     		movs	r2, #0
 101 002e 1146     		mov	r1, r2
 102 0030 FFF7FEFF 		bl	lv_obj_set_pos
 103              	.LVL8:
  19:Middlewares/lvgl/examples/scroll/lv_example_scroll_1.c ****     lv_obj_set_size(child, 70, 70);
 104              		.loc 1 19 5 view .LVU16
 105 0034 4622     		movs	r2, #70
 106 0036 1146     		mov	r1, r2
 107 0038 2846     		mov	r0, r5
 108 003a FFF7FEFF 		bl	lv_obj_set_size
 109              	.LVL9:
  20:Middlewares/lvgl/examples/scroll/lv_example_scroll_1.c ****     label = lv_label_create(child);
 110              		.loc 1 20 5 view .LVU17
 111              		.loc 1 20 13 is_stmt 0 view .LVU18
 112 003e 2846     		mov	r0, r5
 113 0040 FFF7FEFF 		bl	lv_label_create
 114              	.LVL10:
 115 0044 0546     		mov	r5, r0
 116              	.LVL11:
  21:Middlewares/lvgl/examples/scroll/lv_example_scroll_1.c ****     lv_label_set_text(label, "Zero");
 117              		.loc 1 21 5 is_stmt 1 view .LVU19
 118 0046 2349     		ldr	r1, .L3
 119 0048 FFF7FEFF 		bl	lv_label_set_text
 120              	.LVL12:
  22:Middlewares/lvgl/examples/scroll/lv_example_scroll_1.c ****     lv_obj_center(label);
 121              		.loc 1 22 5 view .LVU20
 122              	.LBB24:
 123              	.LBI24:
 186:Middlewares/lvgl/examples/scroll/../../src/core/lv_obj_pos.h **** {
 124              		.loc 3 186 20 view .LVU21
 125              	.LBB25:
 126              		.loc 3 188 5 view .LVU22
 127 004c 0023     		movs	r3, #0
 128 004e 1A46     		mov	r2, r3
 129 0050 0921     		movs	r1, #9
 130 0052 2846     		mov	r0, r5
 131 0054 FFF7FEFF 		bl	lv_obj_align
 132              	.LVL13:
 133              		.loc 3 188 5 is_stmt 0 view .LVU23
 134              	.LBE25:
 135              	.LBE24:
ARM GAS  /tmp/cc5XbSDB.s 			page 10


  23:Middlewares/lvgl/examples/scroll/lv_example_scroll_1.c **** 
  24:Middlewares/lvgl/examples/scroll/lv_example_scroll_1.c ****     child = lv_obj_create(panel);
 136              		.loc 1 24 5 is_stmt 1 view .LVU24
 137              		.loc 1 24 13 is_stmt 0 view .LVU25
 138 0058 2046     		mov	r0, r4
 139 005a FFF7FEFF 		bl	lv_obj_create
 140              	.LVL14:
 141 005e 0546     		mov	r5, r0
 142              	.LVL15:
  25:Middlewares/lvgl/examples/scroll/lv_example_scroll_1.c ****     lv_obj_set_pos(child, 160, 80);
 143              		.loc 1 25 5 is_stmt 1 view .LVU26
 144 0060 5022     		movs	r2, #80
 145 0062 A021     		movs	r1, #160
 146 0064 FFF7FEFF 		bl	lv_obj_set_pos
 147              	.LVL16:
  26:Middlewares/lvgl/examples/scroll/lv_example_scroll_1.c ****     lv_obj_set_size(child, 80, 80);
 148              		.loc 1 26 5 view .LVU27
 149 0068 5022     		movs	r2, #80
 150 006a 1146     		mov	r1, r2
 151 006c 2846     		mov	r0, r5
 152 006e FFF7FEFF 		bl	lv_obj_set_size
 153              	.LVL17:
  27:Middlewares/lvgl/examples/scroll/lv_example_scroll_1.c **** 
  28:Middlewares/lvgl/examples/scroll/lv_example_scroll_1.c ****     lv_obj_t * child2 = lv_btn_create(child);
 154              		.loc 1 28 5 view .LVU28
 155              		.loc 1 28 25 is_stmt 0 view .LVU29
 156 0072 2846     		mov	r0, r5
 157 0074 FFF7FEFF 		bl	lv_btn_create
 158              	.LVL18:
 159 0078 0546     		mov	r5, r0
 160              	.LVL19:
  29:Middlewares/lvgl/examples/scroll/lv_example_scroll_1.c ****     lv_obj_set_size(child2, 100, 50);
 161              		.loc 1 29 5 is_stmt 1 view .LVU30
 162 007a 3222     		movs	r2, #50
 163 007c 6421     		movs	r1, #100
 164 007e FFF7FEFF 		bl	lv_obj_set_size
 165              	.LVL20:
  30:Middlewares/lvgl/examples/scroll/lv_example_scroll_1.c **** 
  31:Middlewares/lvgl/examples/scroll/lv_example_scroll_1.c ****     label = lv_label_create(child2);
 166              		.loc 1 31 5 view .LVU31
 167              		.loc 1 31 13 is_stmt 0 view .LVU32
 168 0082 2846     		mov	r0, r5
 169 0084 FFF7FEFF 		bl	lv_label_create
 170              	.LVL21:
 171 0088 0546     		mov	r5, r0
 172              	.LVL22:
  32:Middlewares/lvgl/examples/scroll/lv_example_scroll_1.c ****     lv_label_set_text(label, "Right");
 173              		.loc 1 32 5 is_stmt 1 view .LVU33
 174 008a 1349     		ldr	r1, .L3+4
 175 008c FFF7FEFF 		bl	lv_label_set_text
 176              	.LVL23:
  33:Middlewares/lvgl/examples/scroll/lv_example_scroll_1.c ****     lv_obj_center(label);
 177              		.loc 1 33 5 view .LVU34
 178              	.LBB26:
 179              	.LBI26:
 186:Middlewares/lvgl/examples/scroll/../../src/core/lv_obj_pos.h **** {
 180              		.loc 3 186 20 view .LVU35
ARM GAS  /tmp/cc5XbSDB.s 			page 11


 181              	.LBB27:
 182              		.loc 3 188 5 view .LVU36
 183 0090 0023     		movs	r3, #0
 184 0092 1A46     		mov	r2, r3
 185 0094 0921     		movs	r1, #9
 186 0096 2846     		mov	r0, r5
 187 0098 FFF7FEFF 		bl	lv_obj_align
 188              	.LVL24:
 189              		.loc 3 188 5 is_stmt 0 view .LVU37
 190              	.LBE27:
 191              	.LBE26:
  34:Middlewares/lvgl/examples/scroll/lv_example_scroll_1.c **** 
  35:Middlewares/lvgl/examples/scroll/lv_example_scroll_1.c ****     child = lv_obj_create(panel);
 192              		.loc 1 35 5 is_stmt 1 view .LVU38
 193              		.loc 1 35 13 is_stmt 0 view .LVU39
 194 009c 2046     		mov	r0, r4
 195 009e FFF7FEFF 		bl	lv_obj_create
 196              	.LVL25:
 197 00a2 0446     		mov	r4, r0
 198              	.LVL26:
  36:Middlewares/lvgl/examples/scroll/lv_example_scroll_1.c ****     lv_obj_set_pos(child, 40, 160);
 199              		.loc 1 36 5 is_stmt 1 view .LVU40
 200 00a4 A022     		movs	r2, #160
 201 00a6 2821     		movs	r1, #40
 202 00a8 FFF7FEFF 		bl	lv_obj_set_pos
 203              	.LVL27:
  37:Middlewares/lvgl/examples/scroll/lv_example_scroll_1.c ****     lv_obj_set_size(child, 100, 70);
 204              		.loc 1 37 5 view .LVU41
 205 00ac 4622     		movs	r2, #70
 206 00ae 6421     		movs	r1, #100
 207 00b0 2046     		mov	r0, r4
 208 00b2 FFF7FEFF 		bl	lv_obj_set_size
 209              	.LVL28:
  38:Middlewares/lvgl/examples/scroll/lv_example_scroll_1.c ****     label = lv_label_create(child);
 210              		.loc 1 38 5 view .LVU42
 211              		.loc 1 38 13 is_stmt 0 view .LVU43
 212 00b6 2046     		mov	r0, r4
 213 00b8 FFF7FEFF 		bl	lv_label_create
 214              	.LVL29:
 215 00bc 0446     		mov	r4, r0
 216              	.LVL30:
  39:Middlewares/lvgl/examples/scroll/lv_example_scroll_1.c ****     lv_label_set_text(label, "Bottom");
 217              		.loc 1 39 5 is_stmt 1 view .LVU44
 218 00be 0749     		ldr	r1, .L3+8
 219 00c0 FFF7FEFF 		bl	lv_label_set_text
 220              	.LVL31:
  40:Middlewares/lvgl/examples/scroll/lv_example_scroll_1.c ****     lv_obj_center(label);
 221              		.loc 1 40 5 view .LVU45
 222              	.LBB28:
 223              	.LBI28:
 186:Middlewares/lvgl/examples/scroll/../../src/core/lv_obj_pos.h **** {
 224              		.loc 3 186 20 view .LVU46
 225              	.LBB29:
 226              		.loc 3 188 5 view .LVU47
 227 00c4 0023     		movs	r3, #0
 228 00c6 1A46     		mov	r2, r3
 229 00c8 0921     		movs	r1, #9
ARM GAS  /tmp/cc5XbSDB.s 			page 12


 230 00ca 2046     		mov	r0, r4
 231 00cc FFF7FEFF 		bl	lv_obj_align
 232              	.LVL32:
 233              		.loc 3 188 5 is_stmt 0 view .LVU48
 234              	.LBE29:
 235              	.LBE28:
  41:Middlewares/lvgl/examples/scroll/lv_example_scroll_1.c **** }
 236              		.loc 1 41 1 view .LVU49
 237 00d0 38BD     		pop	{r3, r4, r5, pc}
 238              	.LVL33:
 239              	.L4:
 240              		.loc 1 41 1 view .LVU50
 241 00d2 00BF     		.align	2
 242              	.L3:
 243 00d4 00000000 		.word	.LC0
 244 00d8 08000000 		.word	.LC1
 245 00dc 10000000 		.word	.LC2
 246              		.cfi_endproc
 247              	.LFE184:
 249              		.text
 250              	.Letext0:
 251              		.file 4 "/home/akinya/gcc-arm-none-eabi/arm-none-eabi/include/machine/_default_types.h"
 252              		.file 5 "/home/akinya/gcc-arm-none-eabi/arm-none-eabi/include/sys/_stdint.h"
 253              		.file 6 "Middlewares/lvgl/examples/scroll/../../src/misc/lv_ll.h"
 254              		.file 7 "Middlewares/lvgl/examples/scroll/../../src/hal/../misc/lv_color.h"
 255              		.file 8 "Middlewares/lvgl/examples/scroll/../../src/hal/../misc/lv_area.h"
 256              		.file 9 "Middlewares/lvgl/examples/scroll/../../src/core/lv_obj.h"
 257              		.file 10 "Middlewares/lvgl/examples/scroll/../../src/core/lv_group.h"
 258              		.file 11 "Middlewares/lvgl/examples/scroll/../../src/core/../misc/lv_style.h"
 259              		.file 12 "Middlewares/lvgl/examples/scroll/../../src/core/lv_obj_scroll.h"
 260              		.file 13 "Middlewares/lvgl/examples/scroll/../../src/core/lv_obj_style.h"
 261              		.file 14 "Middlewares/lvgl/examples/scroll/../../src/core/lv_obj_class.h"
 262              		.file 15 "Middlewares/lvgl/examples/scroll/../../src/core/lv_event.h"
 263              		.file 16 "Middlewares/lvgl/examples/scroll/../../src/hal/lv_hal_disp.h"
 264              		.file 17 "Middlewares/lvgl/examples/scroll/../../src/widgets/lv_label.h"
 265              		.file 18 "Middlewares/lvgl/examples/scroll/../../src/widgets/lv_btn.h"
ARM GAS  /tmp/cc5XbSDB.s 			page 13

