ARM GAS  /tmp/cc7DN0jJ.s 			page 1


   1              		.cpu cortex-m4
   2              		.eabi_attribute 27, 1
   3              		.eabi_attribute 28, 1
   4              		.eabi_attribute 20, 1
   5              		.eabi_attribute 21, 1
   6              		.eabi_attribute 23, 3
   7              		.eabi_attribute 24, 1
   8              		.eabi_attribute 25, 1
   9              		.eabi_attribute 26, 1
  10              		.eabi_attribute 30, 1
  11              		.eabi_attribute 34, 1
  12              		.eabi_attribute 18, 4
  13              		.file	"GT9147.c"
  14              		.text
  15              	.Ltext0:
  16              		.cfi_sections	.debug_frame
  17              		.section	.text.delay_us,"ax",%progbits
  18              		.align	1
  19              		.global	delay_us
  20              		.arch armv7e-m
  21              		.syntax unified
  22              		.thumb
  23              		.thumb_func
  24              		.fpu fpv4-sp-d16
  26              	delay_us:
  27              	.LVL0:
  28              	.LFB133:
  29              		.file 1 "Core/Src/GT9147.c"
   1:Core/Src/GT9147.c **** //
   2:Core/Src/GT9147.c **** // Created by wbh on 2021/2/14.
   3:Core/Src/GT9147.c **** // ÁßªÊ§çËá™Ê≠£ÁÇπÂéüÂ≠êHALÂ∫ìÂÆû‰æã
   4:Core/Src/GT9147.c **** //
   5:Core/Src/GT9147.c **** 
   6:Core/Src/GT9147.c **** #include "GT9147.h"
   7:Core/Src/GT9147.c **** //#include "myiic.h"
   8:Core/Src/GT9147.c **** #include <stdio.h>
   9:Core/Src/GT9147.c **** 
  10:Core/Src/GT9147.c **** _m_touchdev touchdev=
  11:Core/Src/GT9147.c **** {
  12:Core/Src/GT9147.c ****   TP_Init,
  13:Core/Src/GT9147.c ****   TP_Scan,
  14:Core/Src/GT9147.c ****   0,
  15:Core/Src/GT9147.c ****   0,
  16:Core/Src/GT9147.c ****   0,
  17:Core/Src/GT9147.c ****   0,
  18:Core/Src/GT9147.c ****   0,
  19:Core/Src/GT9147.c ****   0,
  20:Core/Src/GT9147.c ****   0,
  21:Core/Src/GT9147.c ****   0,
  22:Core/Src/GT9147.c ****   0,
  23:Core/Src/GT9147.c ****   0,
  24:Core/Src/GT9147.c ****   0,
  25:Core/Src/GT9147.c **** };
  26:Core/Src/GT9147.c **** static uint32_t fac_us=0;
  27:Core/Src/GT9147.c **** void delay_us(uint32_t nus) {
  30              		.loc 1 27 29 view -0
  31              		.cfi_startproc
ARM GAS  /tmp/cc7DN0jJ.s 			page 2


  32              		@ args = 0, pretend = 0, frame = 0
  33              		@ frame_needed = 0, uses_anonymous_args = 0
  34              		@ link register save eliminated.
  28:Core/Src/GT9147.c ****   uint32_t ticks;
  35              		.loc 1 28 3 view .LVU1
  29:Core/Src/GT9147.c ****   uint32_t told, tnow, tcnt = 0;
  36              		.loc 1 29 3 view .LVU2
  30:Core/Src/GT9147.c ****   uint32_t reload = SysTick->LOAD;        //LOADÁöÑÂÄº
  37              		.loc 1 30 3 view .LVU3
  38              		.loc 1 30 12 is_stmt 0 view .LVU4
  39 0000 4FF0E023 		mov	r3, #-536813568
  40 0004 5A69     		ldr	r2, [r3, #20]
  31:Core/Src/GT9147.c ****   ticks = nus * fac_us;            //ÈúÄË¶ÅÁöÑËäÇÊãçÊï∞
  41              		.loc 1 31 3 is_stmt 1 view .LVU5
  42              	.LVL1:
  32:Core/Src/GT9147.c ****   told = SysTick->VAL;                //ÂàöËøõÂÖ•Êó∂ÁöÑËÆ°Êï∞Âô®ÂÄº
  43              		.loc 1 32 3 view .LVU6
  44              		.loc 1 32 8 is_stmt 0 view .LVU7
  45 0006 9A69     		ldr	r2, [r3, #24]
  46              	.LVL2:
  47              	.L2:
  33:Core/Src/GT9147.c ****   while (1) {
  48              		.loc 1 33 3 is_stmt 1 view .LVU8
  34:Core/Src/GT9147.c ****     tnow = SysTick->VAL;
  49              		.loc 1 34 5 view .LVU9
  50              		.loc 1 34 10 is_stmt 0 view .LVU10
  51 0008 4FF0E023 		mov	r3, #-536813568
  52 000c 9B69     		ldr	r3, [r3, #24]
  53              	.LVL3:
  35:Core/Src/GT9147.c ****     if (tnow != told) {
  54              		.loc 1 35 5 is_stmt 1 view .LVU11
  55              		.loc 1 35 8 is_stmt 0 view .LVU12
  56 000e 9A42     		cmp	r2, r3
  57 0010 FAD0     		beq	.L2
  36:Core/Src/GT9147.c ****       if (tnow < told)tcnt += told - tnow;  //ËøôÈáåÊ≥®ÊÑè‰∏Ä‰∏ãSYSTICKÊòØ‰∏Ä‰∏™ÈÄíÂáèÁöÑËÆ°Êï∞Âô®Â
  37:Core/Src/GT9147.c ****       else tcnt += reload - tnow + told;
  38:Core/Src/GT9147.c ****       told = tnow;
  39:Core/Src/GT9147.c ****       if (tcnt >= ticks)break;      //Êó∂Èó¥Ë∂ÖËøá/Á≠â‰∫éË¶ÅÂª∂ËøüÁöÑÊó∂Èó¥,ÂàôÈÄÄÂá∫.
  40:Core/Src/GT9147.c ****     }
  41:Core/Src/GT9147.c ****   };
  42:Core/Src/GT9147.c **** }
  58              		.loc 1 42 1 view .LVU13
  59 0012 7047     		bx	lr
  60              		.cfi_endproc
  61              	.LFE133:
  63              		.section	.text.TP_Write_Byte,"ax",%progbits
  64              		.align	1
  65              		.global	TP_Write_Byte
  66              		.syntax unified
  67              		.thumb
  68              		.thumb_func
  69              		.fpu fpv4-sp-d16
  71              	TP_Write_Byte:
  72              	.LVL4:
  73              	.LFB139:
  43:Core/Src/GT9147.c **** 
  44:Core/Src/GT9147.c **** //ÈªòËÆ§‰∏∫touchtype=0ÁöÑÊï∞ÊçÆ.
ARM GAS  /tmp/cc7DN0jJ.s 			page 3


  45:Core/Src/GT9147.c **** uint8_t CMD_RDX=0XD0;
  46:Core/Src/GT9147.c **** uint8_t CMD_RDY=0X90;
  47:Core/Src/GT9147.c **** const uint8_t GT9147_CFG_TBL[]=
  48:Core/Src/GT9147.c **** {
  49:Core/Src/GT9147.c ****         0X60,0XE0,0X01,0X20,0X03,0X05,0X35,0X00,0X02,0X08,
  50:Core/Src/GT9147.c ****         0X1E,0X08,0X50,0X3C,0X0F,0X05,0X00,0X00,0XFF,0X67,
  51:Core/Src/GT9147.c ****         0X50,0X00,0X00,0X18,0X1A,0X1E,0X14,0X89,0X28,0X0A,
  52:Core/Src/GT9147.c ****         0X30,0X2E,0XBB,0X0A,0X03,0X00,0X00,0X02,0X33,0X1D,
  53:Core/Src/GT9147.c ****         0X00,0X00,0X00,0X00,0X00,0X00,0X00,0X32,0X00,0X00,
  54:Core/Src/GT9147.c ****         0X2A,0X1C,0X5A,0X94,0XC5,0X02,0X07,0X00,0X00,0X00,
  55:Core/Src/GT9147.c ****         0XB5,0X1F,0X00,0X90,0X28,0X00,0X77,0X32,0X00,0X62,
  56:Core/Src/GT9147.c ****         0X3F,0X00,0X52,0X50,0X00,0X52,0X00,0X00,0X00,0X00,
  57:Core/Src/GT9147.c ****         0X00,0X00,0X00,0X00,0X00,0X00,0X00,0X00,0X00,0X00,
  58:Core/Src/GT9147.c ****         0X00,0X00,0X00,0X00,0X00,0X00,0X00,0X00,0X00,0X0F,
  59:Core/Src/GT9147.c ****         0X0F,0X03,0X06,0X10,0X42,0XF8,0X0F,0X14,0X00,0X00,
  60:Core/Src/GT9147.c ****         0X00,0X00,0X1A,0X18,0X16,0X14,0X12,0X10,0X0E,0X0C,
  61:Core/Src/GT9147.c ****         0X0A,0X08,0X00,0X00,0X00,0X00,0X00,0X00,0X00,0X00,
  62:Core/Src/GT9147.c ****         0X00,0X00,0X00,0X00,0X00,0X00,0X00,0X00,0X00,0X00,
  63:Core/Src/GT9147.c ****         0X00,0X00,0X29,0X28,0X24,0X22,0X20,0X1F,0X1E,0X1D,
  64:Core/Src/GT9147.c ****         0X0E,0X0C,0X0A,0X08,0X06,0X05,0X04,0X02,0X00,0XFF,
  65:Core/Src/GT9147.c ****         0X00,0X00,0X00,0X00,0X00,0X00,0X00,0X00,0X00,0X00,
  66:Core/Src/GT9147.c ****         0X00,0XFF,0XFF,0XFF,0XFF,0XFF,0XFF,0XFF,0XFF,0XFF,
  67:Core/Src/GT9147.c ****         0XFF,0XFF,0XFF,0XFF,
  68:Core/Src/GT9147.c **** };
  69:Core/Src/GT9147.c **** const uint16_t GT9147_TPX_TBL[5]={GT_TP1_REG,GT_TP2_REG,GT_TP3_REG,GT_TP4_REG,GT_TP5_REG};
  70:Core/Src/GT9147.c **** uint8_t GT9147_Init(void)
  71:Core/Src/GT9147.c **** {
  72:Core/Src/GT9147.c **** 
  73:Core/Src/GT9147.c ****   uint8_t temp[5];
  74:Core/Src/GT9147.c **** 
  75:Core/Src/GT9147.c ****   GPIO_InitTypeDef GPIO_Initure;
  76:Core/Src/GT9147.c **** 	
  77:Core/Src/GT9147.c **** 	__HAL_RCC_GPIOB_CLK_ENABLE();			//ÂºÄÂêØGPIOBÊó∂Èíü
  78:Core/Src/GT9147.c ****   __HAL_RCC_GPIOC_CLK_ENABLE();			//ÂºÄÂêØGPIOCÊó∂Èíü
  79:Core/Src/GT9147.c **** 
  80:Core/Src/GT9147.c ****   //PB1
  81:Core/Src/GT9147.c ****   GPIO_Initure.Pin=GPIO_PIN_1;           	//PB1ËÆæÁΩÆ‰∏∫‰∏äÊãâËæìÂÖ•
  82:Core/Src/GT9147.c ****   GPIO_Initure.Mode=GPIO_MODE_INPUT;      //ËæìÂÖ•
  83:Core/Src/GT9147.c ****   GPIO_Initure.Pull=GPIO_PULLUP;          //‰∏äÊãâ
  84:Core/Src/GT9147.c ****   GPIO_Initure.Speed=GPIO_SPEED_HIGH;     //È´òÈÄü
  85:Core/Src/GT9147.c ****   HAL_GPIO_Init(GPIOB,&GPIO_Initure);     //ÂàùÂßãÂåñ
  86:Core/Src/GT9147.c ****           
  87:Core/Src/GT9147.c ****   //PC13
  88:Core/Src/GT9147.c ****   GPIO_Initure.Pin=GPIO_PIN_13;          	//PC13ËÆæÁΩÆ‰∏∫Êé®ÊåΩËæìÂá∫
  89:Core/Src/GT9147.c ****   GPIO_Initure.Mode=GPIO_MODE_OUTPUT_PP;  //Êé®ÊåΩËæìÂá∫
  90:Core/Src/GT9147.c ****   HAL_GPIO_Init(GPIOC,&GPIO_Initure);     //ÂàùÂßãÂåñ
  91:Core/Src/GT9147.c **** 
  92:Core/Src/GT9147.c ****   CT_IIC_Init();      	//ÂàùÂßãÂåñÁîµÂÆπÂ±èÁöÑI2CÊÄªÁ∫ø
  93:Core/Src/GT9147.c ****   HAL_GPIO_WritePin(GPIOC,GPIO_PIN_13,GPIO_PIN_RESET);  //Â§ç‰ΩçC13
  94:Core/Src/GT9147.c ****   HAL_Delay(10);
  95:Core/Src/GT9147.c ****   HAL_GPIO_WritePin(GPIOC,GPIO_PIN_13,GPIO_PIN_SET);//ÈáäÊîæÂ§ç‰Ωç
  96:Core/Src/GT9147.c ****   HAL_Delay(10);
  97:Core/Src/GT9147.c **** 
  98:Core/Src/GT9147.c ****   GPIO_Initure.Pin=GPIO_PIN_1;           	//PB1ËÆæÁΩÆ‰∏∫‰∏äÊãâËæìÂÖ•
  99:Core/Src/GT9147.c ****   GPIO_Initure.Mode=GPIO_MODE_OUTPUT_PP;  //ËæìÂá∫Ê®°Âºè
 100:Core/Src/GT9147.c ****   GPIO_Initure.Pull=GPIO_NOPULL;          //Êó†‰∏ä‰∏ãÊãâ
 101:Core/Src/GT9147.c ****   GPIO_Initure.Speed=GPIO_SPEED_HIGH;     //È´òÈÄü
ARM GAS  /tmp/cc7DN0jJ.s 			page 4


 102:Core/Src/GT9147.c ****   HAL_GPIO_Init(GPIOB,&GPIO_Initure);     //ÂàùÂßãÂåñ
 103:Core/Src/GT9147.c **** 
 104:Core/Src/GT9147.c ****   HAL_Delay(100);
 105:Core/Src/GT9147.c ****   GT9147_RD_Reg(GT_PID_REG,temp,4);	//ËØªÂèñ‰∫ßÂìÅID
 106:Core/Src/GT9147.c ****   temp[4]=0;
 107:Core/Src/GT9147.c ****   HAL_Delay(100);
 108:Core/Src/GT9147.c ****   printf("CTP ID:%s\r\n",temp);		//ÊâìÂç∞ID
 109:Core/Src/GT9147.c ****   if(strcmp((char*)temp,"9147")==0)	//ID==9147
 110:Core/Src/GT9147.c ****   {
 111:Core/Src/GT9147.c ****     temp[0]=0X02;
 112:Core/Src/GT9147.c ****     GT9147_WR_Reg(GT_CTRL_REG,temp,1);//ËΩØÂ§ç‰ΩçGT9147
 113:Core/Src/GT9147.c ****     GT9147_RD_Reg(GT_CFGS_REG,temp,1);//ËØªÂèñGT_CFGS_REGÂØÑÂ≠òÂô®
 114:Core/Src/GT9147.c ****     if(temp[0]<0X60)//ÈªòËÆ§ÁâàÊú¨ÊØîËæÉ‰Ωé,ÈúÄË¶ÅÊõ¥Êñ∞flashÈÖçÁΩÆ
 115:Core/Src/GT9147.c ****     {
 116:Core/Src/GT9147.c ****       printf("Default Ver:%d\r\n",temp[0]);
 117:Core/Src/GT9147.c ****       GT9147_Send_Cfg(1);//Êõ¥Êñ∞Âπ∂‰øùÂ≠òÈÖçÁΩÆ
 118:Core/Src/GT9147.c ****     }
 119:Core/Src/GT9147.c ****     HAL_Delay(10);
 120:Core/Src/GT9147.c ****     temp[0]=0X00;
 121:Core/Src/GT9147.c ****     GT9147_WR_Reg(GT_CTRL_REG,temp,1);	//ÁªìÊùüÂ§ç‰Ωç
 122:Core/Src/GT9147.c ****     return 0;
 123:Core/Src/GT9147.c ****   }
 124:Core/Src/GT9147.c ****   return 0;
 125:Core/Src/GT9147.c **** }uint8_t GT9147_WR_Reg(uint16_t reg,uint8_t *buf,uint8_t len)
 126:Core/Src/GT9147.c **** {
 127:Core/Src/GT9147.c ****   uint8_t i;
 128:Core/Src/GT9147.c ****   uint8_t ret=0;
 129:Core/Src/GT9147.c ****   CT_IIC_Start();
 130:Core/Src/GT9147.c ****   CT_IIC_Send_Byte(GT_CMD_WR);   	//ÂèëÈÄÅÂÜôÂëΩ‰ª§
 131:Core/Src/GT9147.c ****   CT_IIC_Wait_Ack();
 132:Core/Src/GT9147.c ****   CT_IIC_Send_Byte(reg>>8);   	//ÂèëÈÄÅÈ´ò8‰ΩçÂú∞ÂùÄ
 133:Core/Src/GT9147.c ****   CT_IIC_Wait_Ack();
 134:Core/Src/GT9147.c ****   CT_IIC_Send_Byte(reg&0XFF);   	//ÂèëÈÄÅ‰Ωé8‰ΩçÂú∞ÂùÄ
 135:Core/Src/GT9147.c ****   CT_IIC_Wait_Ack();
 136:Core/Src/GT9147.c ****   for(i=0;i<len;i++)
 137:Core/Src/GT9147.c ****   {
 138:Core/Src/GT9147.c ****     CT_IIC_Send_Byte(buf[i]);  	//ÂèëÊï∞ÊçÆ
 139:Core/Src/GT9147.c ****     ret=CT_IIC_Wait_Ack();
 140:Core/Src/GT9147.c ****     if(ret)break;
 141:Core/Src/GT9147.c ****   }
 142:Core/Src/GT9147.c ****   CT_IIC_Stop();					//‰∫ßÁîü‰∏Ä‰∏™ÂÅúÊ≠¢Êù°‰ª∂
 143:Core/Src/GT9147.c ****   return ret;
 144:Core/Src/GT9147.c **** }
 145:Core/Src/GT9147.c **** void GT9147_RD_Reg(uint16_t reg,uint8_t *buf,uint8_t len)
 146:Core/Src/GT9147.c **** {
 147:Core/Src/GT9147.c ****   uint8_t i;
 148:Core/Src/GT9147.c ****   CT_IIC_Start();
 149:Core/Src/GT9147.c ****   CT_IIC_Send_Byte(GT_CMD_WR);   //ÂèëÈÄÅÂÜôÂëΩ‰ª§
 150:Core/Src/GT9147.c ****   CT_IIC_Wait_Ack();
 151:Core/Src/GT9147.c ****   CT_IIC_Send_Byte(reg>>8);   	//ÂèëÈÄÅÈ´ò8‰ΩçÂú∞ÂùÄ
 152:Core/Src/GT9147.c ****   CT_IIC_Wait_Ack();
 153:Core/Src/GT9147.c ****   CT_IIC_Send_Byte(reg&0XFF);   	//ÂèëÈÄÅ‰Ωé8‰ΩçÂú∞ÂùÄ
 154:Core/Src/GT9147.c ****   CT_IIC_Wait_Ack();
 155:Core/Src/GT9147.c ****   CT_IIC_Start();
 156:Core/Src/GT9147.c ****   CT_IIC_Send_Byte(GT_CMD_RD);   //ÂèëÈÄÅËØªÂëΩ‰ª§
 157:Core/Src/GT9147.c ****   CT_IIC_Wait_Ack();
 158:Core/Src/GT9147.c ****   for(i=0;i<len;i++)
ARM GAS  /tmp/cc7DN0jJ.s 			page 5


 159:Core/Src/GT9147.c ****   {
 160:Core/Src/GT9147.c ****     buf[i]=CT_IIC_Read_Byte(i==(len-1)?0:1); //ÂèëÊï∞ÊçÆ
 161:Core/Src/GT9147.c ****     //printf("%d\r\n",buf[i]);
 162:Core/Src/GT9147.c ****   }
 163:Core/Src/GT9147.c ****   CT_IIC_Stop();//‰∫ßÁîü‰∏Ä‰∏™ÂÅúÊ≠¢Êù°‰ª∂
 164:Core/Src/GT9147.c **** }
 165:Core/Src/GT9147.c **** uint8_t GT9147_Send_Cfg(uint8_t mode)
 166:Core/Src/GT9147.c **** {
 167:Core/Src/GT9147.c ****   uint8_t buf[2];
 168:Core/Src/GT9147.c ****   uint8_t i=0;
 169:Core/Src/GT9147.c ****   buf[0]=0;
 170:Core/Src/GT9147.c ****   buf[1]=mode;	//ÊòØÂê¶ÂÜôÂÖ•Âà∞GT9147 FLASH?  Âç≥ÊòØÂê¶ÊéâÁîµ‰øùÂ≠ò
 171:Core/Src/GT9147.c ****   for(i=0;i<sizeof(GT9147_CFG_TBL);i++)buf[0]+=GT9147_CFG_TBL[i];//ËÆ°ÁÆóÊ†°È™åÂíå
 172:Core/Src/GT9147.c ****   buf[0]=(~buf[0])+1;
 173:Core/Src/GT9147.c ****   GT9147_WR_Reg(GT_CFGS_REG,(uint8_t*)GT9147_CFG_TBL,sizeof(GT9147_CFG_TBL));//ÂèëÈÄÅÂØÑÂ≠òÂô®ÈÖçÁΩ
 174:Core/Src/GT9147.c ****   GT9147_WR_Reg(GT_CHECK_REG,buf,2);//ÂÜôÂÖ•Ê†°È™åÂíå,ÂíåÈÖçÁΩÆÊõ¥Êñ∞Ê†áËÆ∞
 175:Core/Src/GT9147.c ****   return 0;
 176:Core/Src/GT9147.c **** }
 177:Core/Src/GT9147.c **** uint8_t GT9147_Scan(uint8_t mode)
 178:Core/Src/GT9147.c **** {
 179:Core/Src/GT9147.c ****   uint8_t buf[4];
 180:Core/Src/GT9147.c ****   uint8_t i=0;
 181:Core/Src/GT9147.c ****   uint8_t res=0;
 182:Core/Src/GT9147.c ****   uint8_t temp;
 183:Core/Src/GT9147.c ****   uint8_t tempsta;
 184:Core/Src/GT9147.c ****   static uint8_t t=0;//ÊéßÂà∂Êü•ËØ¢Èó¥Èöî,‰ªéËÄåÈôç‰ΩéCPUÂç†Áî®Áéá
 185:Core/Src/GT9147.c ****   t++;
 186:Core/Src/GT9147.c ****   if((t%10)==0||t<10)//Á©∫Èó≤Êó∂,ÊØèËøõÂÖ•10Ê¨°CTP_ScanÂáΩÊï∞ÊâçÊ£ÄÊµã1Ê¨°,‰ªéËÄåËäÇÁúÅCPU‰ΩøÁî®Áéá
 187:Core/Src/GT9147.c ****   {
 188:Core/Src/GT9147.c ****     GT9147_RD_Reg(GT_GSTID_REG,&mode,1);	//ËØªÂèñËß¶Êë∏ÁÇπÁöÑÁä∂ÊÄÅ
 189:Core/Src/GT9147.c ****     if(mode&0X80&&((mode&0XF)<6))
 190:Core/Src/GT9147.c ****     {
 191:Core/Src/GT9147.c ****       temp=0;
 192:Core/Src/GT9147.c ****       GT9147_WR_Reg(GT_GSTID_REG,&temp,1);//Ê∏ÖÊ†áÂøó
 193:Core/Src/GT9147.c ****     }
 194:Core/Src/GT9147.c ****     if((mode&0XF)&&((mode&0XF)<6))
 195:Core/Src/GT9147.c ****     {
 196:Core/Src/GT9147.c ****       temp=0XFF<<(mode&0XF);		//Â∞ÜÁÇπÁöÑ‰∏™Êï∞ËΩ¨Êç¢‰∏∫1ÁöÑ‰ΩçÊï∞,ÂåπÈÖçtouchdev.staÂÆö‰πâ
 197:Core/Src/GT9147.c ****       tempsta=touchdev.sta;			//‰øùÂ≠òÂΩìÂâçÁöÑtouchdev.staÂÄº
 198:Core/Src/GT9147.c ****       touchdev.sta=(~temp)|TP_PRES_DOWN|TP_CATH_PRES;
 199:Core/Src/GT9147.c ****       touchdev.x[4]=touchdev.x[0];	//‰øùÂ≠òËß¶ÁÇπ0ÁöÑÊï∞ÊçÆ
 200:Core/Src/GT9147.c ****       touchdev.y[4]=touchdev.y[0];
 201:Core/Src/GT9147.c ****       for(i=0;i<5;i++)
 202:Core/Src/GT9147.c ****       {
 203:Core/Src/GT9147.c ****         if(touchdev.sta&(1<<i))	//Ëß¶Êë∏ÊúâÊïà?
 204:Core/Src/GT9147.c ****         {
 205:Core/Src/GT9147.c ****           GT9147_RD_Reg(GT9147_TPX_TBL[i],buf,4);	//ËØªÂèñXYÂùêÊ†áÂÄº
 206:Core/Src/GT9147.c ****           if(touchdev.touchtype&0X01)//Ê®™Â±è
 207:Core/Src/GT9147.c ****           {
 208:Core/Src/GT9147.c ****             touchdev.y[i]=((uint16_t)buf[1]<<8)+buf[0];
 209:Core/Src/GT9147.c ****             touchdev.x[i]=800-(((uint16_t)buf[3]<<8)+buf[2]);
 210:Core/Src/GT9147.c ****           }else
 211:Core/Src/GT9147.c ****           {
 212:Core/Src/GT9147.c ****             touchdev.x[i]=((uint16_t)buf[1]<<8)+buf[0];
 213:Core/Src/GT9147.c ****             touchdev.y[i]=((uint16_t)buf[3]<<8)+buf[2];
 214:Core/Src/GT9147.c ****           }
 215:Core/Src/GT9147.c ****           //printf("x[%d]:%d,y[%d]:%d\r\n",i,touchdev.x[i],i,touchdev.y[i]);
ARM GAS  /tmp/cc7DN0jJ.s 			page 6


 216:Core/Src/GT9147.c ****         }
 217:Core/Src/GT9147.c ****       }
 218:Core/Src/GT9147.c ****       res=1;
 219:Core/Src/GT9147.c ****       if(touchdev.x[0]>lcddev.width||touchdev.y[0]>lcddev.height)//ÈùûÊ≥ïÊï∞ÊçÆ(ÂùêÊ†áË∂ÖÂá∫‰∫Ü)
 220:Core/Src/GT9147.c ****       {
 221:Core/Src/GT9147.c ****         if((mode&0XF)>1)		//ÊúâÂÖ∂‰ªñÁÇπÊúâÊï∞ÊçÆ,ÂàôÂ§çÁ¨¨‰∫å‰∏™Ëß¶ÁÇπÁöÑÊï∞ÊçÆÂà∞Á¨¨‰∏Ä‰∏™Ëß¶ÁÇπ.
 222:Core/Src/GT9147.c ****         {
 223:Core/Src/GT9147.c ****           touchdev.x[0]=touchdev.x[1];
 224:Core/Src/GT9147.c ****           touchdev.y[0]=touchdev.y[1];
 225:Core/Src/GT9147.c ****           t=0;				//Ëß¶Âèë‰∏ÄÊ¨°,Âàô‰ºöÊúÄÂ∞ëËøûÁª≠ÁõëÊµã10Ê¨°,‰ªéËÄåÊèêÈ´òÂëΩ‰∏≠Áéá
 226:Core/Src/GT9147.c ****         }else					//ÈùûÊ≥ïÊï∞ÊçÆ,ÂàôÂøΩÁï•Ê≠§Ê¨°Êï∞ÊçÆ(ËøòÂéüÂéüÊù•ÁöÑ)
 227:Core/Src/GT9147.c ****         {
 228:Core/Src/GT9147.c ****           touchdev.x[0]=touchdev.x[4];
 229:Core/Src/GT9147.c ****           touchdev.y[0]=touchdev.y[4];
 230:Core/Src/GT9147.c ****           mode=0X80;
 231:Core/Src/GT9147.c ****           touchdev.sta=tempsta;	//ÊÅ¢Â§çtouchdev.sta
 232:Core/Src/GT9147.c ****         }
 233:Core/Src/GT9147.c ****       }else t=0;					//Ëß¶Âèë‰∏ÄÊ¨°,Âàô‰ºöÊúÄÂ∞ëËøûÁª≠ÁõëÊµã10Ê¨°,‰ªéËÄåÊèêÈ´òÂëΩ‰∏≠Áéá
 234:Core/Src/GT9147.c ****     }
 235:Core/Src/GT9147.c ****   }
 236:Core/Src/GT9147.c ****   if((mode&0X8F)==0X80)//Êó†Ëß¶Êë∏ÁÇπÊåâ‰∏ã
 237:Core/Src/GT9147.c ****   {
 238:Core/Src/GT9147.c ****     if(touchdev.sta&TP_PRES_DOWN)	//‰πãÂâçÊòØË¢´Êåâ‰∏ãÁöÑ
 239:Core/Src/GT9147.c ****     {
 240:Core/Src/GT9147.c ****       touchdev.sta&=~(1<<7);	//Ê†áËÆ∞ÊåâÈîÆÊùæÂºÄ
 241:Core/Src/GT9147.c ****     }else						//‰πãÂâçÂ∞±Ê≤°ÊúâË¢´Êåâ‰∏ã
 242:Core/Src/GT9147.c ****     {
 243:Core/Src/GT9147.c ****       touchdev.x[0]=0xffff;
 244:Core/Src/GT9147.c ****       touchdev.y[0]=0xffff;
 245:Core/Src/GT9147.c ****     }
 246:Core/Src/GT9147.c ****   }
 247:Core/Src/GT9147.c ****   if(t>240)t=10;//ÈáçÊñ∞‰ªé10ÂºÄÂßãËÆ°Êï∞
 248:Core/Src/GT9147.c **** 
 249:Core/Src/GT9147.c ****   return res;
 250:Core/Src/GT9147.c **** }
 251:Core/Src/GT9147.c **** void TP_Write_Byte(uint8_t num)
 252:Core/Src/GT9147.c **** {
  74              		.loc 1 252 1 is_stmt 1 view -0
  75              		.cfi_startproc
  76              		@ args = 0, pretend = 0, frame = 0
  77              		@ frame_needed = 0, uses_anonymous_args = 0
  78              		.loc 1 252 1 is_stmt 0 view .LVU15
  79 0000 70B5     		push	{r4, r5, r6, lr}
  80              	.LCFI0:
  81              		.cfi_def_cfa_offset 16
  82              		.cfi_offset 4, -16
  83              		.cfi_offset 5, -12
  84              		.cfi_offset 6, -8
  85              		.cfi_offset 14, -4
  86 0002 0446     		mov	r4, r0
 253:Core/Src/GT9147.c ****   uint8_t count=0;
  87              		.loc 1 253 3 is_stmt 1 view .LVU16
  88              	.LVL5:
 254:Core/Src/GT9147.c ****   for(count=0;count<8;count++)
  89              		.loc 1 254 3 view .LVU17
  90              		.loc 1 254 12 is_stmt 0 view .LVU18
  91 0004 0025     		movs	r5, #0
ARM GAS  /tmp/cc7DN0jJ.s 			page 7


  92              		.loc 1 254 3 view .LVU19
  93 0006 17E0     		b	.L4
  94              	.LVL6:
  95              	.L5:
 255:Core/Src/GT9147.c ****   {
 256:Core/Src/GT9147.c ****     if(num&0x80)HAL_GPIO_WritePin(GPIOF,GPIO_PIN_11,GPIO_PIN_SET);
 257:Core/Src/GT9147.c ****     else HAL_GPIO_WritePin(GPIOF,GPIO_PIN_11,GPIO_PIN_RESET);
  96              		.loc 1 257 10 is_stmt 1 view .LVU20
  97 0008 0022     		movs	r2, #0
  98 000a 4FF40061 		mov	r1, #2048
  99 000e 1148     		ldr	r0, .L10
 100 0010 FFF7FEFF 		bl	HAL_GPIO_WritePin
 101              	.LVL7:
 102              	.L6:
 258:Core/Src/GT9147.c ****     num<<=1;
 103              		.loc 1 258 5 discriminator 2 view .LVU21
 104              		.loc 1 258 8 is_stmt 0 discriminator 2 view .LVU22
 105 0014 6400     		lsls	r4, r4, #1
 106              	.LVL8:
 107              		.loc 1 258 8 discriminator 2 view .LVU23
 108 0016 E4B2     		uxtb	r4, r4
 109              	.LVL9:
 259:Core/Src/GT9147.c ****     HAL_GPIO_WritePin(GPIOB,GPIO_PIN_0,GPIO_PIN_RESET);
 110              		.loc 1 259 5 is_stmt 1 discriminator 2 view .LVU24
 111 0018 0F4E     		ldr	r6, .L10+4
 112 001a 0022     		movs	r2, #0
 113 001c 0121     		movs	r1, #1
 114 001e 3046     		mov	r0, r6
 115 0020 FFF7FEFF 		bl	HAL_GPIO_WritePin
 116              	.LVL10:
 260:Core/Src/GT9147.c ****     delay_us(1);
 117              		.loc 1 260 5 discriminator 2 view .LVU25
 118 0024 0120     		movs	r0, #1
 119 0026 FFF7FEFF 		bl	delay_us
 120              	.LVL11:
 261:Core/Src/GT9147.c ****     HAL_GPIO_WritePin(GPIOB,GPIO_PIN_0,GPIO_PIN_SET);	//‰∏äÂçáÊ≤øÊúâÊïà
 121              		.loc 1 261 5 discriminator 2 view .LVU26
 122 002a 0122     		movs	r2, #1
 123 002c 1146     		mov	r1, r2
 124 002e 3046     		mov	r0, r6
 125 0030 FFF7FEFF 		bl	HAL_GPIO_WritePin
 126              	.LVL12:
 254:Core/Src/GT9147.c ****   {
 127              		.loc 1 254 23 discriminator 2 view .LVU27
 254:Core/Src/GT9147.c ****   {
 128              		.loc 1 254 28 is_stmt 0 discriminator 2 view .LVU28
 129 0034 0135     		adds	r5, r5, #1
 130              	.LVL13:
 254:Core/Src/GT9147.c ****   {
 131              		.loc 1 254 28 discriminator 2 view .LVU29
 132 0036 EDB2     		uxtb	r5, r5
 133              	.LVL14:
 134              	.L4:
 254:Core/Src/GT9147.c ****   {
 135              		.loc 1 254 15 is_stmt 1 discriminator 1 view .LVU30
 254:Core/Src/GT9147.c ****   {
 136              		.loc 1 254 3 is_stmt 0 discriminator 1 view .LVU31
ARM GAS  /tmp/cc7DN0jJ.s 			page 8


 137 0038 072D     		cmp	r5, #7
 138 003a 09D8     		bhi	.L9
 256:Core/Src/GT9147.c ****     else HAL_GPIO_WritePin(GPIOF,GPIO_PIN_11,GPIO_PIN_RESET);
 139              		.loc 1 256 5 is_stmt 1 view .LVU32
 256:Core/Src/GT9147.c ****     else HAL_GPIO_WritePin(GPIOF,GPIO_PIN_11,GPIO_PIN_RESET);
 140              		.loc 1 256 7 is_stmt 0 view .LVU33
 141 003c 14F0800F 		tst	r4, #128
 142 0040 E2D0     		beq	.L5
 256:Core/Src/GT9147.c ****     else HAL_GPIO_WritePin(GPIOF,GPIO_PIN_11,GPIO_PIN_RESET);
 143              		.loc 1 256 17 is_stmt 1 discriminator 1 view .LVU34
 144 0042 0122     		movs	r2, #1
 145 0044 4FF40061 		mov	r1, #2048
 146 0048 0248     		ldr	r0, .L10
 147 004a FFF7FEFF 		bl	HAL_GPIO_WritePin
 148              	.LVL15:
 149 004e E1E7     		b	.L6
 150              	.L9:
 262:Core/Src/GT9147.c ****   }
 263:Core/Src/GT9147.c **** }
 151              		.loc 1 263 1 is_stmt 0 view .LVU35
 152 0050 70BD     		pop	{r4, r5, r6, pc}
 153              	.LVL16:
 154              	.L11:
 155              		.loc 1 263 1 view .LVU36
 156 0052 00BF     		.align	2
 157              	.L10:
 158 0054 00140240 		.word	1073878016
 159 0058 00040240 		.word	1073873920
 160              		.cfi_endproc
 161              	.LFE139:
 163              		.section	.text.TP_Read_AD,"ax",%progbits
 164              		.align	1
 165              		.global	TP_Read_AD
 166              		.syntax unified
 167              		.thumb
 168              		.thumb_func
 169              		.fpu fpv4-sp-d16
 171              	TP_Read_AD:
 172              	.LVL17:
 173              	.LFB142:
 264:Core/Src/GT9147.c **** uint8_t TP_Init(void)
 265:Core/Src/GT9147.c **** {
 266:Core/Src/GT9147.c ****   if(lcddev.id==0X5510)				//4.3ÂØ∏ÁîµÂÆπËß¶Êë∏Â±è
 267:Core/Src/GT9147.c ****   {
 268:Core/Src/GT9147.c ****     if(GT9147_Init()==0)			//ÊòØGT9147
 269:Core/Src/GT9147.c ****     {
 270:Core/Src/GT9147.c **** 
 271:Core/Src/GT9147.c ****       touchdev.scan=GT9147_Scan;	//Êâ´ÊèèÂáΩÊï∞ÊåáÂêëGT9147Ëß¶Êë∏Â±èÊâ´Êèè
 272:Core/Src/GT9147.c ****     }else
 273:Core/Src/GT9147.c ****     {
 274:Core/Src/GT9147.c ****       printf("unkonw dev!\r\n");
 275:Core/Src/GT9147.c ****     }
 276:Core/Src/GT9147.c ****     touchdev.touchtype|=0X80;			//ÁîµÂÆπÂ±è
 277:Core/Src/GT9147.c ****     touchdev.touchtype|=lcddev.dir&0X01;//Ê®™Â±èËøòÊòØÁ´ñÂ±è
 278:Core/Src/GT9147.c ****     return 0;
 279:Core/Src/GT9147.c ****   }else {
 280:Core/Src/GT9147.c ****     printf("unkonw dev!\r\n");
ARM GAS  /tmp/cc7DN0jJ.s 			page 9


 281:Core/Src/GT9147.c ****     return 1;
 282:Core/Src/GT9147.c ****   }
 283:Core/Src/GT9147.c **** }
 284:Core/Src/GT9147.c **** uint8_t TP_Scan(uint8_t tp)
 285:Core/Src/GT9147.c **** {
 286:Core/Src/GT9147.c ****   if(HAL_GPIO_ReadPin(GPIOF,GPIO_PIN_10)==GPIO_PIN_RESET){//ÊúâÊåâÈîÆÊåâ‰∏ã
 287:Core/Src/GT9147.c ****     if(tp)TP_Read_XY2(&touchdev.x[0],&touchdev.y[0]);//ËØªÂèñÁâ©ÁêÜÂùêÊ†á
 288:Core/Src/GT9147.c ****     else if(TP_Read_XY2(&touchdev.x[0],&touchdev.y[0]))//ËØªÂèñÂ±èÂπïÂùêÊ†á
 289:Core/Src/GT9147.c ****     {
 290:Core/Src/GT9147.c ****       touchdev.x[0]=touchdev.xfac*touchdev.x[0]+touchdev.xoff;//Â∞ÜÁªìÊûúËΩ¨Êç¢‰∏∫Â±èÂπïÂùêÊ†á
 291:Core/Src/GT9147.c ****       touchdev.y[0]=touchdev.yfac*touchdev.y[0]+touchdev.yoff;
 292:Core/Src/GT9147.c ****     }
 293:Core/Src/GT9147.c ****     if((touchdev.sta&TP_PRES_DOWN)==0)//‰πãÂâçÊ≤°ÊúâË¢´Êåâ‰∏ã
 294:Core/Src/GT9147.c ****     {
 295:Core/Src/GT9147.c ****       touchdev.sta=TP_PRES_DOWN|TP_CATH_PRES;//ÊåâÈîÆÊåâ‰∏ã
 296:Core/Src/GT9147.c ****       touchdev.x[4]=touchdev.x[0];//ËÆ∞ÂΩïÁ¨¨‰∏ÄÊ¨°Êåâ‰∏ãÊó∂ÁöÑÂùêÊ†á
 297:Core/Src/GT9147.c ****       touchdev.y[4]=touchdev.y[0];
 298:Core/Src/GT9147.c ****     }
 299:Core/Src/GT9147.c ****   }else
 300:Core/Src/GT9147.c ****   {
 301:Core/Src/GT9147.c ****     if(touchdev.sta&TP_PRES_DOWN)//‰πãÂâçÊòØË¢´Êåâ‰∏ãÁöÑ
 302:Core/Src/GT9147.c ****     {
 303:Core/Src/GT9147.c ****       touchdev.sta&=~(1<<7);//Ê†áËÆ∞ÊåâÈîÆÊùæÂºÄ
 304:Core/Src/GT9147.c ****     }else//‰πãÂâçÂ∞±Ê≤°ÊúâË¢´Êåâ‰∏ã
 305:Core/Src/GT9147.c ****     {
 306:Core/Src/GT9147.c ****       touchdev.x[4]=0;
 307:Core/Src/GT9147.c ****       touchdev.y[4]=0;
 308:Core/Src/GT9147.c ****       touchdev.x[0]=0xffff;
 309:Core/Src/GT9147.c ****       touchdev.y[0]=0xffff;
 310:Core/Src/GT9147.c ****     }
 311:Core/Src/GT9147.c ****   }
 312:Core/Src/GT9147.c ****   return touchdev.sta&TP_PRES_DOWN;//ËøîÂõûÂΩìÂâçÁöÑËß¶Â±èÁä∂ÊÄÅ
 313:Core/Src/GT9147.c **** }
 314:Core/Src/GT9147.c **** uint16_t TP_Read_AD(uint8_t CMD)
 315:Core/Src/GT9147.c **** {
 174              		.loc 1 315 1 is_stmt 1 view -0
 175              		.cfi_startproc
 176              		@ args = 0, pretend = 0, frame = 0
 177              		@ frame_needed = 0, uses_anonymous_args = 0
 178              		.loc 1 315 1 is_stmt 0 view .LVU38
 179 0000 70B5     		push	{r4, r5, r6, lr}
 180              	.LCFI1:
 181              		.cfi_def_cfa_offset 16
 182              		.cfi_offset 4, -16
 183              		.cfi_offset 5, -12
 184              		.cfi_offset 6, -8
 185              		.cfi_offset 14, -4
 186 0002 0546     		mov	r5, r0
 316:Core/Src/GT9147.c ****   uint8_t count=0;
 187              		.loc 1 316 3 is_stmt 1 view .LVU39
 188              	.LVL18:
 317:Core/Src/GT9147.c ****   uint16_t Num=0;
 189              		.loc 1 317 3 view .LVU40
 318:Core/Src/GT9147.c ****   HAL_GPIO_WritePin(GPIOB,GPIO_PIN_0,GPIO_PIN_RESET);		//ÂÖàÊãâ‰ΩéÊó∂Èíü
 190              		.loc 1 318 3 view .LVU41
 191 0004 2A4C     		ldr	r4, .L18
 192 0006 0022     		movs	r2, #0
ARM GAS  /tmp/cc7DN0jJ.s 			page 10


 193 0008 0121     		movs	r1, #1
 194 000a 2046     		mov	r0, r4
 195              	.LVL19:
 196              		.loc 1 318 3 is_stmt 0 view .LVU42
 197 000c FFF7FEFF 		bl	HAL_GPIO_WritePin
 198              	.LVL20:
 319:Core/Src/GT9147.c ****   HAL_GPIO_WritePin(GPIOF,GPIO_PIN_11,GPIO_PIN_RESET); 	//Êãâ‰ΩéÊï∞ÊçÆÁ∫ø
 199              		.loc 1 319 3 is_stmt 1 view .LVU43
 200 0010 0022     		movs	r2, #0
 201 0012 4FF40061 		mov	r1, #2048
 202 0016 2748     		ldr	r0, .L18+4
 203 0018 FFF7FEFF 		bl	HAL_GPIO_WritePin
 204              	.LVL21:
 320:Core/Src/GT9147.c ****   HAL_GPIO_WritePin(GPIOC,GPIO_PIN_13,GPIO_PIN_RESET); 		//ÈÄâ‰∏≠Ëß¶Êë∏Â±èIC
 205              		.loc 1 320 3 view .LVU44
 206 001c 0022     		movs	r2, #0
 207 001e 4FF40051 		mov	r1, #8192
 208 0022 2548     		ldr	r0, .L18+8
 209 0024 FFF7FEFF 		bl	HAL_GPIO_WritePin
 210              	.LVL22:
 321:Core/Src/GT9147.c ****   TP_Write_Byte(CMD);//ÂèëÈÄÅÂëΩ‰ª§Â≠ó
 211              		.loc 1 321 3 view .LVU45
 212 0028 2846     		mov	r0, r5
 213 002a FFF7FEFF 		bl	TP_Write_Byte
 214              	.LVL23:
 322:Core/Src/GT9147.c ****   delay_us(6);//ADS7846ÁöÑËΩ¨Êç¢Êó∂Èó¥ÊúÄÈïø‰∏∫6us
 215              		.loc 1 322 3 view .LVU46
 216 002e 0620     		movs	r0, #6
 217 0030 FFF7FEFF 		bl	delay_us
 218              	.LVL24:
 323:Core/Src/GT9147.c ****   HAL_GPIO_WritePin(GPIOB,GPIO_PIN_0,GPIO_PIN_RESET);
 219              		.loc 1 323 3 view .LVU47
 220 0034 0022     		movs	r2, #0
 221 0036 0121     		movs	r1, #1
 222 0038 2046     		mov	r0, r4
 223 003a FFF7FEFF 		bl	HAL_GPIO_WritePin
 224              	.LVL25:
 324:Core/Src/GT9147.c ****   delay_us(1);
 225              		.loc 1 324 3 view .LVU48
 226 003e 0120     		movs	r0, #1
 227 0040 FFF7FEFF 		bl	delay_us
 228              	.LVL26:
 325:Core/Src/GT9147.c ****   HAL_GPIO_WritePin(GPIOB,GPIO_PIN_0,GPIO_PIN_SET);		//Áªô1‰∏™Êó∂ÈíüÔºåÊ∏ÖÈô§BUSY
 229              		.loc 1 325 3 view .LVU49
 230 0044 0122     		movs	r2, #1
 231 0046 1146     		mov	r1, r2
 232 0048 2046     		mov	r0, r4
 233 004a FFF7FEFF 		bl	HAL_GPIO_WritePin
 234              	.LVL27:
 326:Core/Src/GT9147.c ****   delay_us(1);
 235              		.loc 1 326 3 view .LVU50
 236 004e 0120     		movs	r0, #1
 237 0050 FFF7FEFF 		bl	delay_us
 238              	.LVL28:
 327:Core/Src/GT9147.c ****   HAL_GPIO_WritePin(GPIOB,GPIO_PIN_0,GPIO_PIN_RESET);
 239              		.loc 1 327 3 view .LVU51
 240 0054 0022     		movs	r2, #0
ARM GAS  /tmp/cc7DN0jJ.s 			page 11


 241 0056 0121     		movs	r1, #1
 242 0058 2046     		mov	r0, r4
 243 005a FFF7FEFF 		bl	HAL_GPIO_WritePin
 244              	.LVL29:
 328:Core/Src/GT9147.c ****   for(count=0;count<16;count++)//ËØªÂá∫16‰ΩçÊï∞ÊçÆ,Âè™ÊúâÈ´ò12‰ΩçÊúâÊïà
 245              		.loc 1 328 3 view .LVU52
 317:Core/Src/GT9147.c ****   HAL_GPIO_WritePin(GPIOB,GPIO_PIN_0,GPIO_PIN_RESET);		//ÂÖàÊãâ‰ΩéÊó∂Èíü
 246              		.loc 1 317 12 is_stmt 0 view .LVU53
 247 005e 0024     		movs	r4, #0
 248              		.loc 1 328 12 view .LVU54
 249 0060 2546     		mov	r5, r4
 250              		.loc 1 328 3 view .LVU55
 251 0062 01E0     		b	.L13
 252              	.LVL30:
 253              	.L14:
 254              		.loc 1 328 24 is_stmt 1 discriminator 2 view .LVU56
 255              		.loc 1 328 29 is_stmt 0 discriminator 2 view .LVU57
 256 0064 0135     		adds	r5, r5, #1
 257              	.LVL31:
 258              		.loc 1 328 29 discriminator 2 view .LVU58
 259 0066 EDB2     		uxtb	r5, r5
 260              	.LVL32:
 261              	.L13:
 262              		.loc 1 328 15 is_stmt 1 discriminator 1 view .LVU59
 263              		.loc 1 328 3 is_stmt 0 discriminator 1 view .LVU60
 264 0068 0F2D     		cmp	r5, #15
 265 006a 18D8     		bhi	.L17
 329:Core/Src/GT9147.c ****   {
 330:Core/Src/GT9147.c ****     Num<<=1;
 266              		.loc 1 330 5 is_stmt 1 view .LVU61
 267              		.loc 1 330 8 is_stmt 0 view .LVU62
 268 006c 6400     		lsls	r4, r4, #1
 269              	.LVL33:
 270              		.loc 1 330 8 view .LVU63
 271 006e A4B2     		uxth	r4, r4
 272              	.LVL34:
 331:Core/Src/GT9147.c ****     HAL_GPIO_WritePin(GPIOB,GPIO_PIN_0,GPIO_PIN_RESET);	//‰∏ãÈôçÊ≤øÊúâÊïà
 273              		.loc 1 331 5 is_stmt 1 view .LVU64
 274 0070 0F4E     		ldr	r6, .L18
 275 0072 0022     		movs	r2, #0
 276 0074 0121     		movs	r1, #1
 277 0076 3046     		mov	r0, r6
 278 0078 FFF7FEFF 		bl	HAL_GPIO_WritePin
 279              	.LVL35:
 332:Core/Src/GT9147.c ****     delay_us(1);
 280              		.loc 1 332 5 view .LVU65
 281 007c 0120     		movs	r0, #1
 282 007e FFF7FEFF 		bl	delay_us
 283              	.LVL36:
 333:Core/Src/GT9147.c ****     HAL_GPIO_WritePin(GPIOB,GPIO_PIN_0,GPIO_PIN_SET);
 284              		.loc 1 333 5 view .LVU66
 285 0082 0122     		movs	r2, #1
 286 0084 1146     		mov	r1, r2
 287 0086 3046     		mov	r0, r6
 288 0088 FFF7FEFF 		bl	HAL_GPIO_WritePin
 289              	.LVL37:
 334:Core/Src/GT9147.c ****     if(HAL_GPIO_ReadPin(GPIOB,GPIO_PIN_2))Num++;
ARM GAS  /tmp/cc7DN0jJ.s 			page 12


 290              		.loc 1 334 5 view .LVU67
 291              		.loc 1 334 8 is_stmt 0 view .LVU68
 292 008c 0421     		movs	r1, #4
 293 008e 3046     		mov	r0, r6
 294 0090 FFF7FEFF 		bl	HAL_GPIO_ReadPin
 295              	.LVL38:
 296              		.loc 1 334 7 view .LVU69
 297 0094 0028     		cmp	r0, #0
 298 0096 E5D0     		beq	.L14
 299              		.loc 1 334 43 is_stmt 1 discriminator 1 view .LVU70
 300              		.loc 1 334 46 is_stmt 0 discriminator 1 view .LVU71
 301 0098 0134     		adds	r4, r4, #1
 302              	.LVL39:
 303              		.loc 1 334 46 discriminator 1 view .LVU72
 304 009a A4B2     		uxth	r4, r4
 305              	.LVL40:
 306              		.loc 1 334 46 discriminator 1 view .LVU73
 307 009c E2E7     		b	.L14
 308              	.L17:
 335:Core/Src/GT9147.c ****   }
 336:Core/Src/GT9147.c ****   Num>>=4;   	//Âè™ÊúâÈ´ò12‰ΩçÊúâÊïà.
 309              		.loc 1 336 3 is_stmt 1 view .LVU74
 310              		.loc 1 336 6 is_stmt 0 view .LVU75
 311 009e 2409     		lsrs	r4, r4, #4
 312              	.LVL41:
 337:Core/Src/GT9147.c ****   HAL_GPIO_WritePin(GPIOC,GPIO_PIN_13,GPIO_PIN_SET);		//ÈáäÊîæÁâáÈÄâ
 313              		.loc 1 337 3 is_stmt 1 view .LVU76
 314 00a0 0122     		movs	r2, #1
 315 00a2 4FF40051 		mov	r1, #8192
 316 00a6 0448     		ldr	r0, .L18+8
 317 00a8 FFF7FEFF 		bl	HAL_GPIO_WritePin
 318              	.LVL42:
 338:Core/Src/GT9147.c ****   return(Num);
 319              		.loc 1 338 3 view .LVU77
 339:Core/Src/GT9147.c **** }
 320              		.loc 1 339 1 is_stmt 0 view .LVU78
 321 00ac 2046     		mov	r0, r4
 322 00ae 70BD     		pop	{r4, r5, r6, pc}
 323              	.LVL43:
 324              	.L19:
 325              		.loc 1 339 1 view .LVU79
 326              		.align	2
 327              	.L18:
 328 00b0 00040240 		.word	1073873920
 329 00b4 00140240 		.word	1073878016
 330 00b8 00080240 		.word	1073874944
 331              		.cfi_endproc
 332              	.LFE142:
 334              		.section	.text.TP_Read_XOY,"ax",%progbits
 335              		.align	1
 336              		.global	TP_Read_XOY
 337              		.syntax unified
 338              		.thumb
 339              		.thumb_func
 340              		.fpu fpv4-sp-d16
 342              	TP_Read_XOY:
 343              	.LVL44:
ARM GAS  /tmp/cc7DN0jJ.s 			page 13


 344              	.LFB143:
 340:Core/Src/GT9147.c **** 
 341:Core/Src/GT9147.c **** #define READ_TIMES 5 	//ËØªÂèñÊ¨°Êï∞
 342:Core/Src/GT9147.c **** #define LOST_VAL 1	  	//‰∏¢ÂºÉÂÄº
 343:Core/Src/GT9147.c **** uint16_t TP_Read_XOY(uint8_t xy)
 344:Core/Src/GT9147.c **** {
 345              		.loc 1 344 1 is_stmt 1 view -0
 346              		.cfi_startproc
 347              		@ args = 0, pretend = 0, frame = 16
 348              		@ frame_needed = 0, uses_anonymous_args = 0
 349              		.loc 1 344 1 is_stmt 0 view .LVU81
 350 0000 30B5     		push	{r4, r5, lr}
 351              	.LCFI2:
 352              		.cfi_def_cfa_offset 12
 353              		.cfi_offset 4, -12
 354              		.cfi_offset 5, -8
 355              		.cfi_offset 14, -4
 356 0002 85B0     		sub	sp, sp, #20
 357              	.LCFI3:
 358              		.cfi_def_cfa_offset 32
 359 0004 0546     		mov	r5, r0
 345:Core/Src/GT9147.c ****   uint16_t i, j;
 360              		.loc 1 345 3 is_stmt 1 view .LVU82
 346:Core/Src/GT9147.c ****   uint16_t buf[READ_TIMES];
 361              		.loc 1 346 3 view .LVU83
 347:Core/Src/GT9147.c ****   uint16_t sum=0;
 362              		.loc 1 347 3 view .LVU84
 363              	.LVL45:
 348:Core/Src/GT9147.c ****   uint16_t temp;
 364              		.loc 1 348 3 view .LVU85
 349:Core/Src/GT9147.c ****   for(i=0;i<READ_TIMES;i++)buf[i]=TP_Read_AD(xy);
 365              		.loc 1 349 3 view .LVU86
 366              		.loc 1 349 8 is_stmt 0 view .LVU87
 367 0006 0024     		movs	r4, #0
 368              		.loc 1 349 3 view .LVU88
 369 0008 09E0     		b	.L21
 370              	.LVL46:
 371              	.L22:
 372              		.loc 1 349 28 is_stmt 1 discriminator 3 view .LVU89
 373              		.loc 1 349 35 is_stmt 0 discriminator 3 view .LVU90
 374 000a 2846     		mov	r0, r5
 375 000c FFF7FEFF 		bl	TP_Read_AD
 376              	.LVL47:
 377              		.loc 1 349 34 discriminator 3 view .LVU91
 378 0010 04AB     		add	r3, sp, #16
 379 0012 03EB4403 		add	r3, r3, r4, lsl #1
 380 0016 23F80C0C 		strh	r0, [r3, #-12]	@ movhi
 381              		.loc 1 349 24 is_stmt 1 discriminator 3 view .LVU92
 382              		.loc 1 349 25 is_stmt 0 discriminator 3 view .LVU93
 383 001a 0134     		adds	r4, r4, #1
 384              	.LVL48:
 385              		.loc 1 349 25 discriminator 3 view .LVU94
 386 001c A4B2     		uxth	r4, r4
 387              	.LVL49:
 388              	.L21:
 389              		.loc 1 349 11 is_stmt 1 discriminator 1 view .LVU95
 390              		.loc 1 349 3 is_stmt 0 discriminator 1 view .LVU96
ARM GAS  /tmp/cc7DN0jJ.s 			page 14


 391 001e 042C     		cmp	r4, #4
 392 0020 F3D9     		bls	.L22
 350:Core/Src/GT9147.c ****   for(i=0;i<READ_TIMES-1; i++)//ÊéíÂ∫è
 393              		.loc 1 350 8 view .LVU97
 394 0022 0020     		movs	r0, #0
 395 0024 1AE0     		b	.L23
 396              	.LVL50:
 397              	.L25:
 351:Core/Src/GT9147.c ****   {
 352:Core/Src/GT9147.c ****     for(j=i+1;j<READ_TIMES;j++)
 398              		.loc 1 352 28 is_stmt 1 discriminator 2 view .LVU98
 399              		.loc 1 352 29 is_stmt 0 discriminator 2 view .LVU99
 400 0026 0133     		adds	r3, r3, #1
 401              	.LVL51:
 402              		.loc 1 352 29 discriminator 2 view .LVU100
 403 0028 9BB2     		uxth	r3, r3
 404              	.LVL52:
 405              	.L24:
 406              		.loc 1 352 15 is_stmt 1 discriminator 1 view .LVU101
 407              		.loc 1 352 5 is_stmt 0 discriminator 1 view .LVU102
 408 002a 042B     		cmp	r3, #4
 409 002c 15D8     		bhi	.L31
 353:Core/Src/GT9147.c ****     {
 354:Core/Src/GT9147.c ****       if(buf[i]>buf[j])//ÂçáÂ∫èÊéíÂàó
 410              		.loc 1 354 7 is_stmt 1 view .LVU103
 411              		.loc 1 354 13 is_stmt 0 view .LVU104
 412 002e 04AA     		add	r2, sp, #16
 413 0030 02EB4002 		add	r2, r2, r0, lsl #1
 414 0034 32F80C2C 		ldrh	r2, [r2, #-12]
 415              		.loc 1 354 20 view .LVU105
 416 0038 04A9     		add	r1, sp, #16
 417 003a 01EB4301 		add	r1, r1, r3, lsl #1
 418 003e 31F80C1C 		ldrh	r1, [r1, #-12]
 419              		.loc 1 354 9 view .LVU106
 420 0042 8A42     		cmp	r2, r1
 421 0044 EFD9     		bls	.L25
 355:Core/Src/GT9147.c ****       {
 356:Core/Src/GT9147.c ****         temp=buf[i];
 422              		.loc 1 356 9 is_stmt 1 view .LVU107
 423              	.LVL53:
 357:Core/Src/GT9147.c ****         buf[i]=buf[j];
 424              		.loc 1 357 9 view .LVU108
 425              		.loc 1 357 15 is_stmt 0 view .LVU109
 426 0046 04AD     		add	r5, sp, #16
 427 0048 05EB400C 		add	ip, r5, r0, lsl #1
 428 004c 2CF80C1C 		strh	r1, [ip, #-12]	@ movhi
 358:Core/Src/GT9147.c ****         buf[j]=temp;
 429              		.loc 1 358 9 is_stmt 1 view .LVU110
 430              		.loc 1 358 15 is_stmt 0 view .LVU111
 431 0050 05EB4301 		add	r1, r5, r3, lsl #1
 432 0054 21F80C2C 		strh	r2, [r1, #-12]	@ movhi
 433 0058 E5E7     		b	.L25
 434              	.LVL54:
 435              	.L31:
 350:Core/Src/GT9147.c ****   {
 436              		.loc 1 350 28 view .LVU112
 437 005a 2046     		mov	r0, r4
ARM GAS  /tmp/cc7DN0jJ.s 			page 15


 438              	.LVL55:
 439              	.L23:
 350:Core/Src/GT9147.c ****   {
 440              		.loc 1 350 11 is_stmt 1 discriminator 1 view .LVU113
 350:Core/Src/GT9147.c ****   {
 441              		.loc 1 350 3 is_stmt 0 discriminator 1 view .LVU114
 442 005c 0328     		cmp	r0, #3
 443 005e 03D8     		bhi	.L32
 352:Core/Src/GT9147.c ****     {
 444              		.loc 1 352 5 is_stmt 1 view .LVU115
 352:Core/Src/GT9147.c ****     {
 445              		.loc 1 352 10 is_stmt 0 view .LVU116
 446 0060 441C     		adds	r4, r0, #1
 447 0062 A4B2     		uxth	r4, r4
 448              	.LVL56:
 352:Core/Src/GT9147.c ****     {
 449              		.loc 1 352 10 view .LVU117
 450 0064 2346     		mov	r3, r4
 352:Core/Src/GT9147.c ****     {
 451              		.loc 1 352 5 view .LVU118
 452 0066 E0E7     		b	.L24
 453              	.LVL57:
 454              	.L32:
 359:Core/Src/GT9147.c ****       }
 360:Core/Src/GT9147.c ****     }
 361:Core/Src/GT9147.c ****   }
 362:Core/Src/GT9147.c ****   sum=0;
 455              		.loc 1 362 6 view .LVU119
 456 0068 0020     		movs	r0, #0
 457              	.LVL58:
 363:Core/Src/GT9147.c ****   for(i=LOST_VAL;i<READ_TIMES-LOST_VAL;i++)sum+=buf[i];
 458              		.loc 1 363 8 view .LVU120
 459 006a 0123     		movs	r3, #1
 460 006c 08E0     		b	.L28
 461              	.LVL59:
 462              	.L29:
 463              		.loc 1 363 44 is_stmt 1 discriminator 3 view .LVU121
 464              		.loc 1 363 52 is_stmt 0 discriminator 3 view .LVU122
 465 006e 04AA     		add	r2, sp, #16
 466 0070 02EB4302 		add	r2, r2, r3, lsl #1
 467 0074 32F80C2C 		ldrh	r2, [r2, #-12]
 468              		.loc 1 363 47 discriminator 3 view .LVU123
 469 0078 1044     		add	r0, r0, r2
 470              	.LVL60:
 471              		.loc 1 363 47 discriminator 3 view .LVU124
 472 007a 80B2     		uxth	r0, r0
 473              	.LVL61:
 474              		.loc 1 363 40 is_stmt 1 discriminator 3 view .LVU125
 475              		.loc 1 363 41 is_stmt 0 discriminator 3 view .LVU126
 476 007c 0133     		adds	r3, r3, #1
 477              	.LVL62:
 478              		.loc 1 363 41 discriminator 3 view .LVU127
 479 007e 9BB2     		uxth	r3, r3
 480              	.LVL63:
 481              	.L28:
 482              		.loc 1 363 18 is_stmt 1 discriminator 1 view .LVU128
 483              		.loc 1 363 3 is_stmt 0 discriminator 1 view .LVU129
ARM GAS  /tmp/cc7DN0jJ.s 			page 16


 484 0080 032B     		cmp	r3, #3
 485 0082 F4D9     		bls	.L29
 364:Core/Src/GT9147.c ****   temp=sum/(READ_TIMES-2*LOST_VAL);
 486              		.loc 1 364 3 is_stmt 1 view .LVU130
 487              		.loc 1 364 7 is_stmt 0 view .LVU131
 488 0084 034B     		ldr	r3, .L33
 489              	.LVL64:
 490              		.loc 1 364 7 view .LVU132
 491 0086 A3FB0030 		umull	r3, r0, r3, r0
 492              	.LVL65:
 365:Core/Src/GT9147.c ****   return temp;
 493              		.loc 1 365 3 is_stmt 1 view .LVU133
 366:Core/Src/GT9147.c **** }
 494              		.loc 1 366 1 is_stmt 0 view .LVU134
 495 008a C0F34F00 		ubfx	r0, r0, #1, #16
 496              	.LVL66:
 497              		.loc 1 366 1 view .LVU135
 498 008e 05B0     		add	sp, sp, #20
 499              	.LCFI4:
 500              		.cfi_def_cfa_offset 12
 501              		@ sp needed
 502 0090 30BD     		pop	{r4, r5, pc}
 503              	.L34:
 504 0092 00BF     		.align	2
 505              	.L33:
 506 0094 ABAAAAAA 		.word	-1431655765
 507              		.cfi_endproc
 508              	.LFE143:
 510              		.section	.text.TP_Read_XY,"ax",%progbits
 511              		.align	1
 512              		.global	TP_Read_XY
 513              		.syntax unified
 514              		.thumb
 515              		.thumb_func
 516              		.fpu fpv4-sp-d16
 518              	TP_Read_XY:
 519              	.LVL67:
 520              	.LFB144:
 367:Core/Src/GT9147.c **** uint8_t TP_Read_XY(uint16_t *x,uint16_t *y)
 368:Core/Src/GT9147.c **** {
 521              		.loc 1 368 1 is_stmt 1 view -0
 522              		.cfi_startproc
 523              		@ args = 0, pretend = 0, frame = 0
 524              		@ frame_needed = 0, uses_anonymous_args = 0
 525              		.loc 1 368 1 is_stmt 0 view .LVU137
 526 0000 70B5     		push	{r4, r5, r6, lr}
 527              	.LCFI5:
 528              		.cfi_def_cfa_offset 16
 529              		.cfi_offset 4, -16
 530              		.cfi_offset 5, -12
 531              		.cfi_offset 6, -8
 532              		.cfi_offset 14, -4
 533 0002 0546     		mov	r5, r0
 534 0004 0C46     		mov	r4, r1
 369:Core/Src/GT9147.c ****   uint16_t xtemp,ytemp;
 535              		.loc 1 369 3 is_stmt 1 view .LVU138
 370:Core/Src/GT9147.c ****   xtemp=TP_Read_XOY(CMD_RDX);
ARM GAS  /tmp/cc7DN0jJ.s 			page 17


 536              		.loc 1 370 3 view .LVU139
 537              		.loc 1 370 9 is_stmt 0 view .LVU140
 538 0006 064B     		ldr	r3, .L37
 539 0008 1878     		ldrb	r0, [r3]	@ zero_extendqisi2
 540              	.LVL68:
 541              		.loc 1 370 9 view .LVU141
 542 000a FFF7FEFF 		bl	TP_Read_XOY
 543              	.LVL69:
 544              		.loc 1 370 9 view .LVU142
 545 000e 0646     		mov	r6, r0
 546              	.LVL70:
 371:Core/Src/GT9147.c ****   ytemp=TP_Read_XOY(CMD_RDY);
 547              		.loc 1 371 3 is_stmt 1 view .LVU143
 548              		.loc 1 371 9 is_stmt 0 view .LVU144
 549 0010 044B     		ldr	r3, .L37+4
 550 0012 1878     		ldrb	r0, [r3]	@ zero_extendqisi2
 551 0014 FFF7FEFF 		bl	TP_Read_XOY
 552              	.LVL71:
 372:Core/Src/GT9147.c ****   //if(xtemp<100||ytemp<100)return 0;//ËØªÊï∞Â§±Ë¥•
 373:Core/Src/GT9147.c ****   *x=xtemp;
 553              		.loc 1 373 3 is_stmt 1 view .LVU145
 554              		.loc 1 373 5 is_stmt 0 view .LVU146
 555 0018 2E80     		strh	r6, [r5]	@ movhi
 374:Core/Src/GT9147.c ****   *y=ytemp;
 556              		.loc 1 374 3 is_stmt 1 view .LVU147
 557              		.loc 1 374 5 is_stmt 0 view .LVU148
 558 001a 2080     		strh	r0, [r4]	@ movhi
 375:Core/Src/GT9147.c ****   return 1;//ËØªÊï∞ÊàêÂäü
 559              		.loc 1 375 3 is_stmt 1 view .LVU149
 376:Core/Src/GT9147.c **** }
 560              		.loc 1 376 1 is_stmt 0 view .LVU150
 561 001c 0120     		movs	r0, #1
 562              	.LVL72:
 563              		.loc 1 376 1 view .LVU151
 564 001e 70BD     		pop	{r4, r5, r6, pc}
 565              	.LVL73:
 566              	.L38:
 567              		.loc 1 376 1 view .LVU152
 568              		.align	2
 569              	.L37:
 570 0020 00000000 		.word	.LANCHOR0
 571 0024 00000000 		.word	.LANCHOR1
 572              		.cfi_endproc
 573              	.LFE144:
 575              		.section	.text.TP_Read_XY2,"ax",%progbits
 576              		.align	1
 577              		.global	TP_Read_XY2
 578              		.syntax unified
 579              		.thumb
 580              		.thumb_func
 581              		.fpu fpv4-sp-d16
 583              	TP_Read_XY2:
 584              	.LVL74:
 585              	.LFB145:
 377:Core/Src/GT9147.c **** #define ERR_RANGE 50 //ËØØÂ∑ÆËåÉÂõ¥
 378:Core/Src/GT9147.c **** uint8_t TP_Read_XY2(uint16_t *x,uint16_t *y)
 379:Core/Src/GT9147.c **** {
ARM GAS  /tmp/cc7DN0jJ.s 			page 18


 586              		.loc 1 379 1 is_stmt 1 view -0
 587              		.cfi_startproc
 588              		@ args = 0, pretend = 0, frame = 8
 589              		@ frame_needed = 0, uses_anonymous_args = 0
 590              		.loc 1 379 1 is_stmt 0 view .LVU154
 591 0000 30B5     		push	{r4, r5, lr}
 592              	.LCFI6:
 593              		.cfi_def_cfa_offset 12
 594              		.cfi_offset 4, -12
 595              		.cfi_offset 5, -8
 596              		.cfi_offset 14, -4
 597 0002 83B0     		sub	sp, sp, #12
 598              	.LCFI7:
 599              		.cfi_def_cfa_offset 24
 600 0004 0546     		mov	r5, r0
 601 0006 0C46     		mov	r4, r1
 380:Core/Src/GT9147.c ****   uint16_t x1,y1;
 602              		.loc 1 380 3 is_stmt 1 view .LVU155
 381:Core/Src/GT9147.c ****   uint16_t x2,y2;
 603              		.loc 1 381 3 view .LVU156
 382:Core/Src/GT9147.c ****   uint8_t flag;
 604              		.loc 1 382 3 view .LVU157
 383:Core/Src/GT9147.c ****   flag=TP_Read_XY(&x1,&y1);
 605              		.loc 1 383 3 view .LVU158
 606              		.loc 1 383 8 is_stmt 0 view .LVU159
 607 0008 01A9     		add	r1, sp, #4
 608              	.LVL75:
 609              		.loc 1 383 8 view .LVU160
 610 000a 0DF10600 		add	r0, sp, #6
 611              	.LVL76:
 612              		.loc 1 383 8 view .LVU161
 613 000e FFF7FEFF 		bl	TP_Read_XY
 614              	.LVL77:
 384:Core/Src/GT9147.c ****   if(flag==0)return(0);
 615              		.loc 1 384 3 is_stmt 1 view .LVU162
 616              		.loc 1 384 5 is_stmt 0 view .LVU163
 617 0012 08B9     		cbnz	r0, .L50
 618              	.L40:
 385:Core/Src/GT9147.c ****   flag=TP_Read_XY(&x2,&y2);
 386:Core/Src/GT9147.c ****   if(flag==0)return(0);
 387:Core/Src/GT9147.c ****   if(((x2<=x1&&x1<x2+ERR_RANGE)||(x1<=x2&&x2<x1+ERR_RANGE))//ÂâçÂêé‰∏§Ê¨°ÈááÊ†∑Âú®+-50ÂÜÖ
 388:Core/Src/GT9147.c ****      &&((y2<=y1&&y1<y2+ERR_RANGE)||(y1<=y2&&y2<y1+ERR_RANGE)))
 389:Core/Src/GT9147.c ****   {
 390:Core/Src/GT9147.c ****     *x=(x1+x2)/2;
 391:Core/Src/GT9147.c ****     *y=(y1+y2)/2;
 392:Core/Src/GT9147.c ****     return 1;
 393:Core/Src/GT9147.c ****   }else return 0;
 394:Core/Src/GT9147.c **** }
 619              		.loc 1 394 1 view .LVU164
 620 0014 03B0     		add	sp, sp, #12
 621              	.LCFI8:
 622              		.cfi_remember_state
 623              		.cfi_def_cfa_offset 12
 624              		@ sp needed
 625 0016 30BD     		pop	{r4, r5, pc}
 626              	.LVL78:
 627              	.L50:
ARM GAS  /tmp/cc7DN0jJ.s 			page 19


 628              	.LCFI9:
 629              		.cfi_restore_state
 385:Core/Src/GT9147.c ****   flag=TP_Read_XY(&x2,&y2);
 630              		.loc 1 385 3 is_stmt 1 view .LVU165
 385:Core/Src/GT9147.c ****   flag=TP_Read_XY(&x2,&y2);
 631              		.loc 1 385 8 is_stmt 0 view .LVU166
 632 0018 6946     		mov	r1, sp
 633 001a 0DF10200 		add	r0, sp, #2
 634 001e FFF7FEFF 		bl	TP_Read_XY
 635              	.LVL79:
 386:Core/Src/GT9147.c ****   if(((x2<=x1&&x1<x2+ERR_RANGE)||(x1<=x2&&x2<x1+ERR_RANGE))//ÂâçÂêé‰∏§Ê¨°ÈááÊ†∑Âú®+-50ÂÜÖ
 636              		.loc 1 386 3 is_stmt 1 view .LVU167
 386:Core/Src/GT9147.c ****   if(((x2<=x1&&x1<x2+ERR_RANGE)||(x1<=x2&&x2<x1+ERR_RANGE))//ÂâçÂêé‰∏§Ê¨°ÈááÊ†∑Âú®+-50ÂÜÖ
 637              		.loc 1 386 5 is_stmt 0 view .LVU168
 638 0022 0028     		cmp	r0, #0
 639 0024 F6D0     		beq	.L40
 387:Core/Src/GT9147.c ****      &&((y2<=y1&&y1<y2+ERR_RANGE)||(y1<=y2&&y2<y1+ERR_RANGE)))
 640              		.loc 1 387 3 is_stmt 1 view .LVU169
 387:Core/Src/GT9147.c ****      &&((y2<=y1&&y1<y2+ERR_RANGE)||(y1<=y2&&y2<y1+ERR_RANGE)))
 641              		.loc 1 387 10 is_stmt 0 view .LVU170
 642 0026 BDF80230 		ldrh	r3, [sp, #2]
 643 002a BDF80620 		ldrh	r2, [sp, #6]
 387:Core/Src/GT9147.c ****      &&((y2<=y1&&y1<y2+ERR_RANGE)||(y1<=y2&&y2<y1+ERR_RANGE)))
 644              		.loc 1 387 5 view .LVU171
 645 002e 9342     		cmp	r3, r2
 646 0030 03D8     		bhi	.L41
 387:Core/Src/GT9147.c ****      &&((y2<=y1&&y1<y2+ERR_RANGE)||(y1<=y2&&y2<y1+ERR_RANGE)))
 647              		.loc 1 387 18 discriminator 1 view .LVU172
 648 0032 03F13101 		add	r1, r3, #49
 387:Core/Src/GT9147.c ****      &&((y2<=y1&&y1<y2+ERR_RANGE)||(y1<=y2&&y2<y1+ERR_RANGE)))
 649              		.loc 1 387 14 discriminator 1 view .LVU173
 650 0036 9142     		cmp	r1, r2
 651 0038 05DA     		bge	.L42
 652              	.L41:
 387:Core/Src/GT9147.c ****      &&((y2<=y1&&y1<y2+ERR_RANGE)||(y1<=y2&&y2<y1+ERR_RANGE)))
 653              		.loc 1 387 32 discriminator 3 view .LVU174
 654 003a 9342     		cmp	r3, r2
 655 003c 1ED3     		bcc	.L45
 387:Core/Src/GT9147.c ****      &&((y2<=y1&&y1<y2+ERR_RANGE)||(y1<=y2&&y2<y1+ERR_RANGE)))
 656              		.loc 1 387 45 discriminator 4 view .LVU175
 657 003e 02F13101 		add	r1, r2, #49
 387:Core/Src/GT9147.c ****      &&((y2<=y1&&y1<y2+ERR_RANGE)||(y1<=y2&&y2<y1+ERR_RANGE)))
 658              		.loc 1 387 41 discriminator 4 view .LVU176
 659 0042 9942     		cmp	r1, r3
 660 0044 1CDB     		blt	.L46
 661              	.L42:
 388:Core/Src/GT9147.c ****   {
 662              		.loc 1 388 12 view .LVU177
 663 0046 BDF80000 		ldrh	r0, [sp]
 664              	.LVL80:
 388:Core/Src/GT9147.c ****   {
 665              		.loc 1 388 12 view .LVU178
 666 004a BDF80410 		ldrh	r1, [sp, #4]
 388:Core/Src/GT9147.c ****   {
 667              		.loc 1 388 6 view .LVU179
 668 004e 8842     		cmp	r0, r1
 669 0050 03D8     		bhi	.L43
ARM GAS  /tmp/cc7DN0jJ.s 			page 20


 388:Core/Src/GT9147.c ****   {
 670              		.loc 1 388 20 discriminator 1 view .LVU180
 671 0052 00F1310C 		add	ip, r0, #49
 388:Core/Src/GT9147.c ****   {
 672              		.loc 1 388 16 discriminator 1 view .LVU181
 673 0056 8C45     		cmp	ip, r1
 674 0058 04DA     		bge	.L44
 675              	.L43:
 388:Core/Src/GT9147.c ****   {
 676              		.loc 1 388 34 discriminator 3 view .LVU182
 677 005a 8842     		cmp	r0, r1
 678 005c 12D3     		bcc	.L47
 388:Core/Src/GT9147.c ****   {
 679              		.loc 1 388 47 discriminator 4 view .LVU183
 680 005e 3131     		adds	r1, r1, #49
 388:Core/Src/GT9147.c ****   {
 681              		.loc 1 388 43 discriminator 4 view .LVU184
 682 0060 8142     		cmp	r1, r0
 683 0062 11DB     		blt	.L48
 684              	.L44:
 390:Core/Src/GT9147.c ****     *y=(y1+y2)/2;
 685              		.loc 1 390 5 is_stmt 1 view .LVU185
 390:Core/Src/GT9147.c ****     *y=(y1+y2)/2;
 686              		.loc 1 390 15 is_stmt 0 view .LVU186
 687 0064 1344     		add	r3, r3, r2
 688 0066 5B10     		asrs	r3, r3, #1
 390:Core/Src/GT9147.c ****     *y=(y1+y2)/2;
 689              		.loc 1 390 7 view .LVU187
 690 0068 2B80     		strh	r3, [r5]	@ movhi
 391:Core/Src/GT9147.c ****     return 1;
 691              		.loc 1 391 5 is_stmt 1 view .LVU188
 391:Core/Src/GT9147.c ****     return 1;
 692              		.loc 1 391 11 is_stmt 0 view .LVU189
 693 006a BDF80430 		ldrh	r3, [sp, #4]
 694 006e BDF80020 		ldrh	r2, [sp]
 391:Core/Src/GT9147.c ****     return 1;
 695              		.loc 1 391 15 view .LVU190
 696 0072 1344     		add	r3, r3, r2
 697 0074 5B10     		asrs	r3, r3, #1
 391:Core/Src/GT9147.c ****     return 1;
 698              		.loc 1 391 7 view .LVU191
 699 0076 2380     		strh	r3, [r4]	@ movhi
 392:Core/Src/GT9147.c ****   }else return 0;
 700              		.loc 1 392 5 is_stmt 1 view .LVU192
 392:Core/Src/GT9147.c ****   }else return 0;
 701              		.loc 1 392 12 is_stmt 0 view .LVU193
 702 0078 0120     		movs	r0, #1
 703 007a CBE7     		b	.L40
 704              	.LVL81:
 705              	.L45:
 393:Core/Src/GT9147.c **** }
 706              		.loc 1 393 16 view .LVU194
 707 007c 0020     		movs	r0, #0
 708              	.LVL82:
 393:Core/Src/GT9147.c **** }
 709              		.loc 1 393 16 view .LVU195
 710 007e C9E7     		b	.L40
ARM GAS  /tmp/cc7DN0jJ.s 			page 21


 711              	.LVL83:
 712              	.L46:
 393:Core/Src/GT9147.c **** }
 713              		.loc 1 393 16 view .LVU196
 714 0080 0020     		movs	r0, #0
 715              	.LVL84:
 393:Core/Src/GT9147.c **** }
 716              		.loc 1 393 16 view .LVU197
 717 0082 C7E7     		b	.L40
 718              	.L47:
 719 0084 0020     		movs	r0, #0
 720 0086 C5E7     		b	.L40
 721              	.L48:
 722 0088 0020     		movs	r0, #0
 723 008a C3E7     		b	.L40
 724              		.cfi_endproc
 725              	.LFE145:
 727              		.section	.text.TP_Scan,"ax",%progbits
 728              		.align	1
 729              		.global	TP_Scan
 730              		.syntax unified
 731              		.thumb
 732              		.thumb_func
 733              		.fpu fpv4-sp-d16
 735              	TP_Scan:
 736              	.LVL85:
 737              	.LFB141:
 285:Core/Src/GT9147.c ****   if(HAL_GPIO_ReadPin(GPIOF,GPIO_PIN_10)==GPIO_PIN_RESET){//ÊúâÊåâÈîÆÊåâ‰∏ã
 738              		.loc 1 285 1 is_stmt 1 view -0
 739              		.cfi_startproc
 740              		@ args = 0, pretend = 0, frame = 0
 741              		@ frame_needed = 0, uses_anonymous_args = 0
 285:Core/Src/GT9147.c ****   if(HAL_GPIO_ReadPin(GPIOF,GPIO_PIN_10)==GPIO_PIN_RESET){//ÊúâÊåâÈîÆÊåâ‰∏ã
 742              		.loc 1 285 1 is_stmt 0 view .LVU199
 743 0000 10B5     		push	{r4, lr}
 744              	.LCFI10:
 745              		.cfi_def_cfa_offset 8
 746              		.cfi_offset 4, -8
 747              		.cfi_offset 14, -4
 748 0002 0446     		mov	r4, r0
 286:Core/Src/GT9147.c ****     if(tp)TP_Read_XY2(&touchdev.x[0],&touchdev.y[0]);//ËØªÂèñÁâ©ÁêÜÂùêÊ†á
 749              		.loc 1 286 3 is_stmt 1 view .LVU200
 286:Core/Src/GT9147.c ****     if(tp)TP_Read_XY2(&touchdev.x[0],&touchdev.y[0]);//ËØªÂèñÁâ©ÁêÜÂùêÊ†á
 750              		.loc 1 286 6 is_stmt 0 view .LVU201
 751 0004 4FF48061 		mov	r1, #1024
 752 0008 3548     		ldr	r0, .L59
 753              	.LVL86:
 286:Core/Src/GT9147.c ****     if(tp)TP_Read_XY2(&touchdev.x[0],&touchdev.y[0]);//ËØªÂèñÁâ©ÁêÜÂùêÊ†á
 754              		.loc 1 286 6 view .LVU202
 755 000a FFF7FEFF 		bl	HAL_GPIO_ReadPin
 756              	.LVL87:
 286:Core/Src/GT9147.c ****     if(tp)TP_Read_XY2(&touchdev.x[0],&touchdev.y[0]);//ËØªÂèñÁâ©ÁêÜÂùêÊ†á
 757              		.loc 1 286 5 view .LVU203
 758 000e 0028     		cmp	r0, #0
 759 0010 4FD1     		bne	.L52
 287:Core/Src/GT9147.c ****     else if(TP_Read_XY2(&touchdev.x[0],&touchdev.y[0]))//ËØªÂèñÂ±èÂπïÂùêÊ†á
 760              		.loc 1 287 5 is_stmt 1 view .LVU204
ARM GAS  /tmp/cc7DN0jJ.s 			page 22


 287:Core/Src/GT9147.c ****     else if(TP_Read_XY2(&touchdev.x[0],&touchdev.y[0]))//ËØªÂèñÂ±èÂπïÂùêÊ†á
 761              		.loc 1 287 7 is_stmt 0 view .LVU205
 762 0012 C4B1     		cbz	r4, .L53
 287:Core/Src/GT9147.c ****     else if(TP_Read_XY2(&touchdev.x[0],&touchdev.y[0]))//ËØªÂèñÂ±èÂπïÂùêÊ†á
 763              		.loc 1 287 11 is_stmt 1 discriminator 1 view .LVU206
 764 0014 3348     		ldr	r0, .L59+4
 765 0016 00F11601 		add	r1, r0, #22
 766 001a 0C30     		adds	r0, r0, #12
 767 001c FFF7FEFF 		bl	TP_Read_XY2
 768              	.LVL88:
 769              	.L54:
 293:Core/Src/GT9147.c ****     {
 770              		.loc 1 293 5 view .LVU207
 293:Core/Src/GT9147.c ****     {
 771              		.loc 1 293 35 is_stmt 0 view .LVU208
 772 0020 304B     		ldr	r3, .L59+4
 773 0022 93F92030 		ldrsb	r3, [r3, #32]
 293:Core/Src/GT9147.c ****     {
 774              		.loc 1 293 7 view .LVU209
 775 0026 002B     		cmp	r3, #0
 776 0028 07DB     		blt	.L55
 295:Core/Src/GT9147.c ****       touchdev.x[4]=touchdev.x[0];//ËÆ∞ÂΩïÁ¨¨‰∏ÄÊ¨°Êåâ‰∏ãÊó∂ÁöÑÂùêÊ†á
 777              		.loc 1 295 7 is_stmt 1 view .LVU210
 295:Core/Src/GT9147.c ****       touchdev.x[4]=touchdev.x[0];//ËÆ∞ÂΩïÁ¨¨‰∏ÄÊ¨°Êåâ‰∏ãÊó∂ÁöÑÂùêÊ†á
 778              		.loc 1 295 19 is_stmt 0 view .LVU211
 779 002a 2E4B     		ldr	r3, .L59+4
 780 002c C022     		movs	r2, #192
 781 002e 83F82020 		strb	r2, [r3, #32]
 296:Core/Src/GT9147.c ****       touchdev.y[4]=touchdev.y[0];
 782              		.loc 1 296 7 is_stmt 1 view .LVU212
 296:Core/Src/GT9147.c ****       touchdev.y[4]=touchdev.y[0];
 783              		.loc 1 296 31 is_stmt 0 view .LVU213
 784 0032 9A89     		ldrh	r2, [r3, #12]
 296:Core/Src/GT9147.c ****       touchdev.y[4]=touchdev.y[0];
 785              		.loc 1 296 20 view .LVU214
 786 0034 9A82     		strh	r2, [r3, #20]	@ movhi
 297:Core/Src/GT9147.c ****     }
 787              		.loc 1 297 7 is_stmt 1 view .LVU215
 297:Core/Src/GT9147.c ****     }
 788              		.loc 1 297 31 is_stmt 0 view .LVU216
 789 0036 DA8A     		ldrh	r2, [r3, #22]
 297:Core/Src/GT9147.c ****     }
 790              		.loc 1 297 20 view .LVU217
 791 0038 DA83     		strh	r2, [r3, #30]	@ movhi
 792              	.L55:
 312:Core/Src/GT9147.c **** }
 793              		.loc 1 312 3 is_stmt 1 view .LVU218
 312:Core/Src/GT9147.c **** }
 794              		.loc 1 312 18 is_stmt 0 view .LVU219
 795 003a 2A4B     		ldr	r3, .L59+4
 796 003c 93F82000 		ldrb	r0, [r3, #32]	@ zero_extendqisi2
 313:Core/Src/GT9147.c **** uint16_t TP_Read_AD(uint8_t CMD)
 797              		.loc 1 313 1 view .LVU220
 798 0040 00F08000 		and	r0, r0, #128
 799 0044 10BD     		pop	{r4, pc}
 800              	.L53:
 288:Core/Src/GT9147.c ****     {
ARM GAS  /tmp/cc7DN0jJ.s 			page 23


 801              		.loc 1 288 10 is_stmt 1 view .LVU221
 288:Core/Src/GT9147.c ****     {
 802              		.loc 1 288 13 is_stmt 0 view .LVU222
 803 0046 2748     		ldr	r0, .L59+4
 804 0048 00F11601 		add	r1, r0, #22
 805 004c 0C30     		adds	r0, r0, #12
 806 004e FFF7FEFF 		bl	TP_Read_XY2
 807              	.LVL89:
 288:Core/Src/GT9147.c ****     {
 808              		.loc 1 288 12 view .LVU223
 809 0052 0028     		cmp	r0, #0
 810 0054 E4D0     		beq	.L54
 290:Core/Src/GT9147.c ****       touchdev.y[0]=touchdev.yfac*touchdev.y[0]+touchdev.yoff;
 811              		.loc 1 290 7 is_stmt 1 view .LVU224
 290:Core/Src/GT9147.c ****       touchdev.y[0]=touchdev.yfac*touchdev.y[0]+touchdev.yoff;
 812              		.loc 1 290 29 is_stmt 0 view .LVU225
 813 0056 234B     		ldr	r3, .L59+4
 814 0058 93ED097A 		vldr.32	s14, [r3, #36]
 290:Core/Src/GT9147.c ****       touchdev.y[0]=touchdev.yfac*touchdev.y[0]+touchdev.yoff;
 815              		.loc 1 290 45 view .LVU226
 816 005c 9A89     		ldrh	r2, [r3, #12]
 817 005e 07EE902A 		vmov	s15, r2	@ int
 290:Core/Src/GT9147.c ****       touchdev.y[0]=touchdev.yfac*touchdev.y[0]+touchdev.yoff;
 818              		.loc 1 290 34 view .LVU227
 819 0062 F8EEE77A 		vcvt.f32.s32	s15, s15
 820 0066 27EE877A 		vmul.f32	s14, s15, s14
 290:Core/Src/GT9147.c ****       touchdev.y[0]=touchdev.yfac*touchdev.y[0]+touchdev.yoff;
 821              		.loc 1 290 57 view .LVU228
 822 006a B3F92C20 		ldrsh	r2, [r3, #44]
 823 006e 07EE902A 		vmov	s15, r2	@ int
 290:Core/Src/GT9147.c ****       touchdev.y[0]=touchdev.yfac*touchdev.y[0]+touchdev.yoff;
 824              		.loc 1 290 48 view .LVU229
 825 0072 F8EEE77A 		vcvt.f32.s32	s15, s15
 826 0076 77EE877A 		vadd.f32	s15, s15, s14
 290:Core/Src/GT9147.c ****       touchdev.y[0]=touchdev.yfac*touchdev.y[0]+touchdev.yoff;
 827              		.loc 1 290 20 view .LVU230
 828 007a FCEEE77A 		vcvt.u32.f32	s15, s15
 829 007e 17EE902A 		vmov	r2, s15	@ int
 830 0082 9A81     		strh	r2, [r3, #12]	@ movhi
 291:Core/Src/GT9147.c ****     }
 831              		.loc 1 291 7 is_stmt 1 view .LVU231
 291:Core/Src/GT9147.c ****     }
 832              		.loc 1 291 29 is_stmt 0 view .LVU232
 833 0084 93ED0A7A 		vldr.32	s14, [r3, #40]
 291:Core/Src/GT9147.c ****     }
 834              		.loc 1 291 45 view .LVU233
 835 0088 DA8A     		ldrh	r2, [r3, #22]
 836 008a 07EE902A 		vmov	s15, r2	@ int
 291:Core/Src/GT9147.c ****     }
 837              		.loc 1 291 34 view .LVU234
 838 008e F8EEE77A 		vcvt.f32.s32	s15, s15
 839 0092 27EE877A 		vmul.f32	s14, s15, s14
 291:Core/Src/GT9147.c ****     }
 840              		.loc 1 291 57 view .LVU235
 841 0096 B3F92E20 		ldrsh	r2, [r3, #46]
 842 009a 07EE902A 		vmov	s15, r2	@ int
 291:Core/Src/GT9147.c ****     }
ARM GAS  /tmp/cc7DN0jJ.s 			page 24


 843              		.loc 1 291 48 view .LVU236
 844 009e F8EEE77A 		vcvt.f32.s32	s15, s15
 845 00a2 77EE877A 		vadd.f32	s15, s15, s14
 291:Core/Src/GT9147.c ****     }
 846              		.loc 1 291 20 view .LVU237
 847 00a6 FCEEE77A 		vcvt.u32.f32	s15, s15
 848 00aa 17EE902A 		vmov	r2, s15	@ int
 849 00ae DA82     		strh	r2, [r3, #22]	@ movhi
 850 00b0 B6E7     		b	.L54
 851              	.L52:
 301:Core/Src/GT9147.c ****     {
 852              		.loc 1 301 5 is_stmt 1 view .LVU238
 301:Core/Src/GT9147.c ****     {
 853              		.loc 1 301 16 is_stmt 0 view .LVU239
 854 00b2 0C4B     		ldr	r3, .L59+4
 855 00b4 93F82020 		ldrb	r2, [r3, #32]	@ zero_extendqisi2
 301:Core/Src/GT9147.c ****     {
 856              		.loc 1 301 8 view .LVU240
 857 00b8 93F92030 		ldrsb	r3, [r3, #32]
 301:Core/Src/GT9147.c ****     {
 858              		.loc 1 301 7 view .LVU241
 859 00bc 002B     		cmp	r3, #0
 860 00be 08DB     		blt	.L58
 306:Core/Src/GT9147.c ****       touchdev.y[4]=0;
 861              		.loc 1 306 7 is_stmt 1 view .LVU242
 306:Core/Src/GT9147.c ****       touchdev.y[4]=0;
 862              		.loc 1 306 20 is_stmt 0 view .LVU243
 863 00c0 084B     		ldr	r3, .L59+4
 864 00c2 0022     		movs	r2, #0
 865 00c4 9A82     		strh	r2, [r3, #20]	@ movhi
 307:Core/Src/GT9147.c ****       touchdev.x[0]=0xffff;
 866              		.loc 1 307 7 is_stmt 1 view .LVU244
 307:Core/Src/GT9147.c ****       touchdev.x[0]=0xffff;
 867              		.loc 1 307 20 is_stmt 0 view .LVU245
 868 00c6 DA83     		strh	r2, [r3, #30]	@ movhi
 308:Core/Src/GT9147.c ****       touchdev.y[0]=0xffff;
 869              		.loc 1 308 7 is_stmt 1 view .LVU246
 308:Core/Src/GT9147.c ****       touchdev.y[0]=0xffff;
 870              		.loc 1 308 20 is_stmt 0 view .LVU247
 871 00c8 4FF6FF72 		movw	r2, #65535
 872 00cc 9A81     		strh	r2, [r3, #12]	@ movhi
 309:Core/Src/GT9147.c ****     }
 873              		.loc 1 309 7 is_stmt 1 view .LVU248
 309:Core/Src/GT9147.c ****     }
 874              		.loc 1 309 20 is_stmt 0 view .LVU249
 875 00ce DA82     		strh	r2, [r3, #22]	@ movhi
 876 00d0 B3E7     		b	.L55
 877              	.L58:
 303:Core/Src/GT9147.c ****     }else//‰πãÂâçÂ∞±Ê≤°ÊúâË¢´Êåâ‰∏ã
 878              		.loc 1 303 7 is_stmt 1 view .LVU250
 303:Core/Src/GT9147.c ****     }else//‰πãÂâçÂ∞±Ê≤°ÊúâË¢´Êåâ‰∏ã
 879              		.loc 1 303 19 is_stmt 0 view .LVU251
 880 00d2 02F07F02 		and	r2, r2, #127
 881 00d6 034B     		ldr	r3, .L59+4
 882 00d8 83F82020 		strb	r2, [r3, #32]
 883 00dc ADE7     		b	.L55
 884              	.L60:
ARM GAS  /tmp/cc7DN0jJ.s 			page 25


 885 00de 00BF     		.align	2
 886              	.L59:
 887 00e0 00140240 		.word	1073878016
 888 00e4 00000000 		.word	.LANCHOR2
 889              		.cfi_endproc
 890              	.LFE141:
 892              		.section	.text.CT_Delay,"ax",%progbits
 893              		.align	1
 894              		.global	CT_Delay
 895              		.syntax unified
 896              		.thumb
 897              		.thumb_func
 898              		.fpu fpv4-sp-d16
 900              	CT_Delay:
 901              	.LFB146:
 395:Core/Src/GT9147.c **** 
 396:Core/Src/GT9147.c **** 
 397:Core/Src/GT9147.c **** void CT_Delay(void)
 398:Core/Src/GT9147.c **** {
 902              		.loc 1 398 1 is_stmt 1 view -0
 903              		.cfi_startproc
 904              		@ args = 0, pretend = 0, frame = 0
 905              		@ frame_needed = 0, uses_anonymous_args = 0
 906 0000 08B5     		push	{r3, lr}
 907              	.LCFI11:
 908              		.cfi_def_cfa_offset 8
 909              		.cfi_offset 3, -8
 910              		.cfi_offset 14, -4
 399:Core/Src/GT9147.c ****   delay_us(5);
 911              		.loc 1 399 3 view .LVU253
 912 0002 0520     		movs	r0, #5
 913 0004 FFF7FEFF 		bl	delay_us
 914              	.LVL90:
 400:Core/Src/GT9147.c **** }
 915              		.loc 1 400 1 is_stmt 0 view .LVU254
 916 0008 08BD     		pop	{r3, pc}
 917              		.cfi_endproc
 918              	.LFE146:
 920              		.section	.text.CT_IIC_Init,"ax",%progbits
 921              		.align	1
 922              		.global	CT_IIC_Init
 923              		.syntax unified
 924              		.thumb
 925              		.thumb_func
 926              		.fpu fpv4-sp-d16
 928              	CT_IIC_Init:
 929              	.LFB147:
 401:Core/Src/GT9147.c **** //ÁîµÂÆπËß¶Êë∏ËäØÁâáIICÊé•Âè£ÂàùÂßãÂåñ
 402:Core/Src/GT9147.c **** void CT_IIC_Init(void)
 403:Core/Src/GT9147.c **** {
 930              		.loc 1 403 1 is_stmt 1 view -0
 931              		.cfi_startproc
 932              		@ args = 0, pretend = 0, frame = 32
 933              		@ frame_needed = 0, uses_anonymous_args = 0
 934 0000 F0B5     		push	{r4, r5, r6, r7, lr}
 935              	.LCFI12:
 936              		.cfi_def_cfa_offset 20
ARM GAS  /tmp/cc7DN0jJ.s 			page 26


 937              		.cfi_offset 4, -20
 938              		.cfi_offset 5, -16
 939              		.cfi_offset 6, -12
 940              		.cfi_offset 7, -8
 941              		.cfi_offset 14, -4
 942 0002 89B0     		sub	sp, sp, #36
 943              	.LCFI13:
 944              		.cfi_def_cfa_offset 56
 404:Core/Src/GT9147.c ****   GPIO_InitTypeDef GPIO_Initure;
 945              		.loc 1 404 3 view .LVU256
 405:Core/Src/GT9147.c **** 
 406:Core/Src/GT9147.c ****   __HAL_RCC_GPIOB_CLK_ENABLE();           	//ÂºÄÂêØGPIOBÊó∂Èíü
 946              		.loc 1 406 3 view .LVU257
 947              	.LBB2:
 948              		.loc 1 406 3 view .LVU258
 949 0004 0022     		movs	r2, #0
 950 0006 0092     		str	r2, [sp]
 951              		.loc 1 406 3 view .LVU259
 952 0008 214B     		ldr	r3, .L65
 953 000a 196B     		ldr	r1, [r3, #48]
 954 000c 41F00201 		orr	r1, r1, #2
 955 0010 1963     		str	r1, [r3, #48]
 956              		.loc 1 406 3 view .LVU260
 957 0012 196B     		ldr	r1, [r3, #48]
 958 0014 01F00201 		and	r1, r1, #2
 959 0018 0091     		str	r1, [sp]
 960              		.loc 1 406 3 view .LVU261
 961 001a 0099     		ldr	r1, [sp]
 962              	.LBE2:
 963              		.loc 1 406 3 view .LVU262
 407:Core/Src/GT9147.c ****   __HAL_RCC_GPIOF_CLK_ENABLE();           	//ÂºÄÂêØGPIOFÊó∂Èíü
 964              		.loc 1 407 3 view .LVU263
 965              	.LBB3:
 966              		.loc 1 407 3 view .LVU264
 967 001c 0192     		str	r2, [sp, #4]
 968              		.loc 1 407 3 view .LVU265
 969 001e 196B     		ldr	r1, [r3, #48]
 970 0020 41F02001 		orr	r1, r1, #32
 971 0024 1963     		str	r1, [r3, #48]
 972              		.loc 1 407 3 view .LVU266
 973 0026 196B     		ldr	r1, [r3, #48]
 974 0028 01F02001 		and	r1, r1, #32
 975 002c 0191     		str	r1, [sp, #4]
 976              		.loc 1 407 3 view .LVU267
 977 002e 0199     		ldr	r1, [sp, #4]
 978              	.LBE3:
 979              		.loc 1 407 3 view .LVU268
 408:Core/Src/GT9147.c ****   __HAL_RCC_GPIOC_CLK_ENABLE();           	//ÂºÄÂêØGPIOFÊó∂Èíü
 980              		.loc 1 408 3 view .LVU269
 981              	.LBB4:
 982              		.loc 1 408 3 view .LVU270
 983 0030 0292     		str	r2, [sp, #8]
 984              		.loc 1 408 3 view .LVU271
 985 0032 1A6B     		ldr	r2, [r3, #48]
 986 0034 42F00402 		orr	r2, r2, #4
 987 0038 1A63     		str	r2, [r3, #48]
 988              		.loc 1 408 3 view .LVU272
ARM GAS  /tmp/cc7DN0jJ.s 			page 27


 989 003a 1B6B     		ldr	r3, [r3, #48]
 990 003c 03F00403 		and	r3, r3, #4
 991 0040 0293     		str	r3, [sp, #8]
 992              		.loc 1 408 3 view .LVU273
 993 0042 029B     		ldr	r3, [sp, #8]
 994              	.LBE4:
 995              		.loc 1 408 3 view .LVU274
 409:Core/Src/GT9147.c **** 
 410:Core/Src/GT9147.c ****   GPIO_Initure.Pin=GPIO_PIN_0; 				//PB0
 996              		.loc 1 410 3 view .LVU275
 997              		.loc 1 410 19 is_stmt 0 view .LVU276
 998 0044 0124     		movs	r4, #1
 999 0046 0394     		str	r4, [sp, #12]
 411:Core/Src/GT9147.c ****   GPIO_Initure.Mode=GPIO_MODE_OUTPUT_PP;  	//Êé®ÊåΩËæìÂá∫
 1000              		.loc 1 411 3 is_stmt 1 view .LVU277
 1001              		.loc 1 411 20 is_stmt 0 view .LVU278
 1002 0048 0494     		str	r4, [sp, #16]
 412:Core/Src/GT9147.c ****   GPIO_Initure.Pull=GPIO_PULLUP;          	//‰∏äÊãâ
 1003              		.loc 1 412 3 is_stmt 1 view .LVU279
 1004              		.loc 1 412 20 is_stmt 0 view .LVU280
 1005 004a 0594     		str	r4, [sp, #20]
 413:Core/Src/GT9147.c ****   GPIO_Initure.Speed=GPIO_SPEED_FREQ_HIGH;    //È´òÈÄü
 1006              		.loc 1 413 3 is_stmt 1 view .LVU281
 1007              		.loc 1 413 21 is_stmt 0 view .LVU282
 1008 004c 0223     		movs	r3, #2
 1009 004e 0693     		str	r3, [sp, #24]
 414:Core/Src/GT9147.c ****   HAL_GPIO_Init(GPIOB,&GPIO_Initure);
 1010              		.loc 1 414 3 is_stmt 1 view .LVU283
 1011 0050 104D     		ldr	r5, .L65+4
 1012 0052 03A9     		add	r1, sp, #12
 1013 0054 2846     		mov	r0, r5
 1014 0056 FFF7FEFF 		bl	HAL_GPIO_Init
 1015              	.LVL91:
 415:Core/Src/GT9147.c **** 
 416:Core/Src/GT9147.c ****   GPIO_Initure.Pin=GPIO_PIN_11; 				//PF11
 1016              		.loc 1 416 3 view .LVU284
 1017              		.loc 1 416 19 is_stmt 0 view .LVU285
 1018 005a 4FF40067 		mov	r7, #2048
 1019 005e 0397     		str	r7, [sp, #12]
 417:Core/Src/GT9147.c ****   HAL_GPIO_Init(GPIOF,&GPIO_Initure);
 1020              		.loc 1 417 3 is_stmt 1 view .LVU286
 1021 0060 0D4E     		ldr	r6, .L65+8
 1022 0062 03A9     		add	r1, sp, #12
 1023 0064 3046     		mov	r0, r6
 1024 0066 FFF7FEFF 		bl	HAL_GPIO_Init
 1025              	.LVL92:
 418:Core/Src/GT9147.c **** 
 419:Core/Src/GT9147.c ****   GPIO_Initure.Pin=GPIO_PIN_13; 				//PC13
 1026              		.loc 1 419 3 view .LVU287
 1027              		.loc 1 419 19 is_stmt 0 view .LVU288
 1028 006a 4FF40053 		mov	r3, #8192
 1029 006e 0393     		str	r3, [sp, #12]
 420:Core/Src/GT9147.c ****   HAL_GPIO_Init(GPIOC,&GPIO_Initure);
 1030              		.loc 1 420 3 is_stmt 1 view .LVU289
 1031 0070 03A9     		add	r1, sp, #12
 1032 0072 0A48     		ldr	r0, .L65+12
 1033 0074 FFF7FEFF 		bl	HAL_GPIO_Init
ARM GAS  /tmp/cc7DN0jJ.s 			page 28


 1034              	.LVL93:
 421:Core/Src/GT9147.c ****   
 422:Core/Src/GT9147.c ****   HAL_GPIO_WritePin(GPIOF,GPIO_PIN_11,GPIO_PIN_SET);
 1035              		.loc 1 422 3 view .LVU290
 1036 0078 2246     		mov	r2, r4
 1037 007a 3946     		mov	r1, r7
 1038 007c 3046     		mov	r0, r6
 1039 007e FFF7FEFF 		bl	HAL_GPIO_WritePin
 1040              	.LVL94:
 423:Core/Src/GT9147.c ****   HAL_GPIO_WritePin(GPIOB,GPIO_PIN_0,GPIO_PIN_SET);
 1041              		.loc 1 423 3 view .LVU291
 1042 0082 2246     		mov	r2, r4
 1043 0084 2146     		mov	r1, r4
 1044 0086 2846     		mov	r0, r5
 1045 0088 FFF7FEFF 		bl	HAL_GPIO_WritePin
 1046              	.LVL95:
 424:Core/Src/GT9147.c ****   
 425:Core/Src/GT9147.c **** }
 1047              		.loc 1 425 1 is_stmt 0 view .LVU292
 1048 008c 09B0     		add	sp, sp, #36
 1049              	.LCFI14:
 1050              		.cfi_def_cfa_offset 20
 1051              		@ sp needed
 1052 008e F0BD     		pop	{r4, r5, r6, r7, pc}
 1053              	.L66:
 1054              		.align	2
 1055              	.L65:
 1056 0090 00380240 		.word	1073887232
 1057 0094 00040240 		.word	1073873920
 1058 0098 00140240 		.word	1073878016
 1059 009c 00080240 		.word	1073874944
 1060              		.cfi_endproc
 1061              	.LFE147:
 1063              		.section	.text.CT_IIC_Start,"ax",%progbits
 1064              		.align	1
 1065              		.global	CT_IIC_Start
 1066              		.syntax unified
 1067              		.thumb
 1068              		.thumb_func
 1069              		.fpu fpv4-sp-d16
 1071              	CT_IIC_Start:
 1072              	.LFB148:
 426:Core/Src/GT9147.c **** //‰∫ßÁîüIICËµ∑Âßã‰ø°Âè∑
 427:Core/Src/GT9147.c **** void CT_IIC_Start(void)
 428:Core/Src/GT9147.c **** {
 1073              		.loc 1 428 1 is_stmt 1 view -0
 1074              		.cfi_startproc
 1075              		@ args = 0, pretend = 0, frame = 0
 1076              		@ frame_needed = 0, uses_anonymous_args = 0
 1077 0000 38B5     		push	{r3, r4, r5, lr}
 1078              	.LCFI15:
 1079              		.cfi_def_cfa_offset 16
 1080              		.cfi_offset 3, -16
 1081              		.cfi_offset 4, -12
 1082              		.cfi_offset 5, -8
 1083              		.cfi_offset 14, -4
 429:Core/Src/GT9147.c ****   CT_SDA_OUT();     //sdaÁ∫øËæìÂá∫
ARM GAS  /tmp/cc7DN0jJ.s 			page 29


 1084              		.loc 1 429 3 view .LVU294
 1085 0002 134C     		ldr	r4, .L69
 1086 0004 2368     		ldr	r3, [r4]
 1087 0006 23F44003 		bic	r3, r3, #12582912
 1088 000a 2360     		str	r3, [r4]
 1089              		.loc 1 429 3 view .LVU295
 1090 000c 2368     		ldr	r3, [r4]
 1091 000e 43F48003 		orr	r3, r3, #4194304
 1092 0012 2360     		str	r3, [r4]
 1093              		.loc 1 429 15 view .LVU296
 430:Core/Src/GT9147.c ****   HAL_GPIO_WritePin(GPIOF,GPIO_PIN_11,GPIO_PIN_SET);
 1094              		.loc 1 430 3 view .LVU297
 1095 0014 0122     		movs	r2, #1
 1096 0016 4FF40061 		mov	r1, #2048
 1097 001a 2046     		mov	r0, r4
 1098 001c FFF7FEFF 		bl	HAL_GPIO_WritePin
 1099              	.LVL96:
 431:Core/Src/GT9147.c ****   HAL_GPIO_WritePin(GPIOB,GPIO_PIN_0,GPIO_PIN_SET);
 1100              		.loc 1 431 3 view .LVU298
 1101 0020 0C4D     		ldr	r5, .L69+4
 1102 0022 0122     		movs	r2, #1
 1103 0024 1146     		mov	r1, r2
 1104 0026 2846     		mov	r0, r5
 1105 0028 FFF7FEFF 		bl	HAL_GPIO_WritePin
 1106              	.LVL97:
 432:Core/Src/GT9147.c ****   delay_us(30);
 1107              		.loc 1 432 3 view .LVU299
 1108 002c 1E20     		movs	r0, #30
 1109 002e FFF7FEFF 		bl	delay_us
 1110              	.LVL98:
 433:Core/Src/GT9147.c ****   HAL_GPIO_WritePin(GPIOF,GPIO_PIN_11,GPIO_PIN_RESET);//START:when CLK is high,DATA change form hig
 1111              		.loc 1 433 3 view .LVU300
 1112 0032 0022     		movs	r2, #0
 1113 0034 4FF40061 		mov	r1, #2048
 1114 0038 2046     		mov	r0, r4
 1115 003a FFF7FEFF 		bl	HAL_GPIO_WritePin
 1116              	.LVL99:
 434:Core/Src/GT9147.c ****   CT_Delay();
 1117              		.loc 1 434 3 view .LVU301
 1118 003e FFF7FEFF 		bl	CT_Delay
 1119              	.LVL100:
 435:Core/Src/GT9147.c ****   HAL_GPIO_WritePin(GPIOB,GPIO_PIN_0,GPIO_PIN_RESET);//Èí≥‰ΩèI2CÊÄªÁ∫øÔºåÂáÜÂ§áÂèëÈÄÅÊàñÊé•Êî∂Êï∞Êç
 1120              		.loc 1 435 3 view .LVU302
 1121 0042 0022     		movs	r2, #0
 1122 0044 0121     		movs	r1, #1
 1123 0046 2846     		mov	r0, r5
 1124 0048 FFF7FEFF 		bl	HAL_GPIO_WritePin
 1125              	.LVL101:
 436:Core/Src/GT9147.c **** }
 1126              		.loc 1 436 1 is_stmt 0 view .LVU303
 1127 004c 38BD     		pop	{r3, r4, r5, pc}
 1128              	.L70:
 1129 004e 00BF     		.align	2
 1130              	.L69:
 1131 0050 00140240 		.word	1073878016
 1132 0054 00040240 		.word	1073873920
 1133              		.cfi_endproc
ARM GAS  /tmp/cc7DN0jJ.s 			page 30


 1134              	.LFE148:
 1136              		.section	.text.CT_IIC_Stop,"ax",%progbits
 1137              		.align	1
 1138              		.global	CT_IIC_Stop
 1139              		.syntax unified
 1140              		.thumb
 1141              		.thumb_func
 1142              		.fpu fpv4-sp-d16
 1144              	CT_IIC_Stop:
 1145              	.LFB149:
 437:Core/Src/GT9147.c **** //‰∫ßÁîüIICÂÅúÊ≠¢‰ø°Âè∑
 438:Core/Src/GT9147.c **** void CT_IIC_Stop(void)
 439:Core/Src/GT9147.c **** {
 1146              		.loc 1 439 1 is_stmt 1 view -0
 1147              		.cfi_startproc
 1148              		@ args = 0, pretend = 0, frame = 0
 1149              		@ frame_needed = 0, uses_anonymous_args = 0
 1150 0000 10B5     		push	{r4, lr}
 1151              	.LCFI16:
 1152              		.cfi_def_cfa_offset 8
 1153              		.cfi_offset 4, -8
 1154              		.cfi_offset 14, -4
 440:Core/Src/GT9147.c ****   CT_SDA_OUT();//sdaÁ∫øËæìÂá∫
 1155              		.loc 1 440 3 view .LVU305
 1156 0002 104C     		ldr	r4, .L73
 1157 0004 2368     		ldr	r3, [r4]
 1158 0006 23F44003 		bic	r3, r3, #12582912
 1159 000a 2360     		str	r3, [r4]
 1160              		.loc 1 440 3 view .LVU306
 1161 000c 2368     		ldr	r3, [r4]
 1162 000e 43F48003 		orr	r3, r3, #4194304
 1163 0012 2360     		str	r3, [r4]
 1164              		.loc 1 440 15 view .LVU307
 441:Core/Src/GT9147.c ****   HAL_GPIO_WritePin(GPIOB,GPIO_PIN_0,GPIO_PIN_SET);
 1165              		.loc 1 441 3 view .LVU308
 1166 0014 0122     		movs	r2, #1
 1167 0016 1146     		mov	r1, r2
 1168 0018 0B48     		ldr	r0, .L73+4
 1169 001a FFF7FEFF 		bl	HAL_GPIO_WritePin
 1170              	.LVL102:
 442:Core/Src/GT9147.c ****   delay_us(30);
 1171              		.loc 1 442 3 view .LVU309
 1172 001e 1E20     		movs	r0, #30
 1173 0020 FFF7FEFF 		bl	delay_us
 1174              	.LVL103:
 443:Core/Src/GT9147.c ****   HAL_GPIO_WritePin(GPIOF,GPIO_PIN_11,GPIO_PIN_RESET);//STOP:when CLK is high DATA change form low 
 1175              		.loc 1 443 3 view .LVU310
 1176 0024 0022     		movs	r2, #0
 1177 0026 4FF40061 		mov	r1, #2048
 1178 002a 2046     		mov	r0, r4
 1179 002c FFF7FEFF 		bl	HAL_GPIO_WritePin
 1180              	.LVL104:
 444:Core/Src/GT9147.c ****   CT_Delay();
 1181              		.loc 1 444 3 view .LVU311
 1182 0030 FFF7FEFF 		bl	CT_Delay
 1183              	.LVL105:
 445:Core/Src/GT9147.c ****   HAL_GPIO_WritePin(GPIOF,GPIO_PIN_11,GPIO_PIN_SET);//ÂèëÈÄÅI2CÊÄªÁ∫øÁªìÊùü‰ø°Âè∑
ARM GAS  /tmp/cc7DN0jJ.s 			page 31


 1184              		.loc 1 445 3 view .LVU312
 1185 0034 0122     		movs	r2, #1
 1186 0036 4FF40061 		mov	r1, #2048
 1187 003a 2046     		mov	r0, r4
 1188 003c FFF7FEFF 		bl	HAL_GPIO_WritePin
 1189              	.LVL106:
 446:Core/Src/GT9147.c **** }
 1190              		.loc 1 446 1 is_stmt 0 view .LVU313
 1191 0040 10BD     		pop	{r4, pc}
 1192              	.L74:
 1193 0042 00BF     		.align	2
 1194              	.L73:
 1195 0044 00140240 		.word	1073878016
 1196 0048 00040240 		.word	1073873920
 1197              		.cfi_endproc
 1198              	.LFE149:
 1200              		.section	.text.CT_IIC_Wait_Ack,"ax",%progbits
 1201              		.align	1
 1202              		.global	CT_IIC_Wait_Ack
 1203              		.syntax unified
 1204              		.thumb
 1205              		.thumb_func
 1206              		.fpu fpv4-sp-d16
 1208              	CT_IIC_Wait_Ack:
 1209              	.LFB150:
 447:Core/Src/GT9147.c **** //Á≠âÂæÖÂ∫îÁ≠î‰ø°Âè∑Âà∞Êù•
 448:Core/Src/GT9147.c **** //ËøîÂõûÂÄºÔºö1ÔºåÊé•Êî∂Â∫îÁ≠îÂ§±Ë¥•
 449:Core/Src/GT9147.c **** //        0ÔºåÊé•Êî∂Â∫îÁ≠îÊàêÂäü
 450:Core/Src/GT9147.c **** uint8_t CT_IIC_Wait_Ack(void)
 451:Core/Src/GT9147.c **** {
 1210              		.loc 1 451 1 is_stmt 1 view -0
 1211              		.cfi_startproc
 1212              		@ args = 0, pretend = 0, frame = 0
 1213              		@ frame_needed = 0, uses_anonymous_args = 0
 1214 0000 38B5     		push	{r3, r4, r5, lr}
 1215              	.LCFI17:
 1216              		.cfi_def_cfa_offset 16
 1217              		.cfi_offset 3, -16
 1218              		.cfi_offset 4, -12
 1219              		.cfi_offset 5, -8
 1220              		.cfi_offset 14, -4
 452:Core/Src/GT9147.c ****   uint8_t ucErrTime=0;
 1221              		.loc 1 452 3 view .LVU315
 1222              	.LVL107:
 453:Core/Src/GT9147.c ****   CT_SDA_IN();      //SDAËÆæÁΩÆ‰∏∫ËæìÂÖ•
 1223              		.loc 1 453 3 view .LVU316
 1224 0002 1748     		ldr	r0, .L83
 1225 0004 0368     		ldr	r3, [r0]
 1226 0006 23F44003 		bic	r3, r3, #12582912
 1227 000a 0360     		str	r3, [r0]
 1228              		.loc 1 453 3 view .LVU317
 1229 000c 0368     		ldr	r3, [r0]
 1230 000e 0360     		str	r3, [r0]
 1231              		.loc 1 453 14 view .LVU318
 454:Core/Src/GT9147.c ****   HAL_GPIO_WritePin(GPIOF,GPIO_PIN_11,GPIO_PIN_SET);
 1232              		.loc 1 454 3 view .LVU319
 1233 0010 0122     		movs	r2, #1
ARM GAS  /tmp/cc7DN0jJ.s 			page 32


 1234 0012 4FF40061 		mov	r1, #2048
 1235 0016 FFF7FEFF 		bl	HAL_GPIO_WritePin
 1236              	.LVL108:
 455:Core/Src/GT9147.c ****   HAL_GPIO_WritePin(GPIOB,GPIO_PIN_0,GPIO_PIN_SET);
 1237              		.loc 1 455 3 view .LVU320
 1238 001a 0122     		movs	r2, #1
 1239 001c 1146     		mov	r1, r2
 1240 001e 1148     		ldr	r0, .L83+4
 1241 0020 FFF7FEFF 		bl	HAL_GPIO_WritePin
 1242              	.LVL109:
 456:Core/Src/GT9147.c ****   CT_Delay();
 1243              		.loc 1 456 3 view .LVU321
 1244 0024 FFF7FEFF 		bl	CT_Delay
 1245              	.LVL110:
 457:Core/Src/GT9147.c ****   while(HAL_GPIO_ReadPin(GPIOF,GPIO_PIN_11)==GPIO_PIN_SET)
 1246              		.loc 1 457 3 view .LVU322
 452:Core/Src/GT9147.c ****   CT_SDA_IN();      //SDAËÆæÁΩÆ‰∏∫ËæìÂÖ•
 1247              		.loc 1 452 11 is_stmt 0 view .LVU323
 1248 0028 0024     		movs	r4, #0
 1249              	.LVL111:
 1250              	.L76:
 1251              		.loc 1 457 8 is_stmt 1 view .LVU324
 1252              		.loc 1 457 9 is_stmt 0 view .LVU325
 1253 002a 4FF40061 		mov	r1, #2048
 1254 002e 0C48     		ldr	r0, .L83
 1255 0030 FFF7FEFF 		bl	HAL_GPIO_ReadPin
 1256              	.LVL112:
 1257 0034 0546     		mov	r5, r0
 1258              		.loc 1 457 8 view .LVU326
 1259 0036 0128     		cmp	r0, #1
 1260 0038 09D1     		bne	.L81
 458:Core/Src/GT9147.c ****   {
 459:Core/Src/GT9147.c ****     ucErrTime++;
 1261              		.loc 1 459 5 is_stmt 1 view .LVU327
 1262              		.loc 1 459 14 is_stmt 0 view .LVU328
 1263 003a 0134     		adds	r4, r4, #1
 1264              	.LVL113:
 1265              		.loc 1 459 14 view .LVU329
 1266 003c E4B2     		uxtb	r4, r4
 1267              	.LVL114:
 460:Core/Src/GT9147.c ****     if(ucErrTime>250)
 1268              		.loc 1 460 5 is_stmt 1 view .LVU330
 1269              		.loc 1 460 7 is_stmt 0 view .LVU331
 1270 003e FA2C     		cmp	r4, #250
 1271 0040 02D8     		bhi	.L82
 461:Core/Src/GT9147.c ****     {
 462:Core/Src/GT9147.c ****       CT_IIC_Stop();
 463:Core/Src/GT9147.c ****       return 1;
 464:Core/Src/GT9147.c ****     }
 465:Core/Src/GT9147.c ****     CT_Delay();
 1272              		.loc 1 465 5 is_stmt 1 view .LVU332
 1273 0042 FFF7FEFF 		bl	CT_Delay
 1274              	.LVL115:
 1275 0046 F0E7     		b	.L76
 1276              	.L82:
 462:Core/Src/GT9147.c ****       return 1;
 1277              		.loc 1 462 7 view .LVU333
ARM GAS  /tmp/cc7DN0jJ.s 			page 33


 1278 0048 FFF7FEFF 		bl	CT_IIC_Stop
 1279              	.LVL116:
 463:Core/Src/GT9147.c ****     }
 1280              		.loc 1 463 7 view .LVU334
 463:Core/Src/GT9147.c ****     }
 1281              		.loc 1 463 14 is_stmt 0 view .LVU335
 1282 004c 05E0     		b	.L78
 1283              	.L81:
 466:Core/Src/GT9147.c ****   }
 467:Core/Src/GT9147.c ****   HAL_GPIO_WritePin(GPIOB,GPIO_PIN_0,GPIO_PIN_RESET);//Êó∂ÈíüËæìÂá∫0
 1284              		.loc 1 467 3 is_stmt 1 view .LVU336
 1285 004e 0022     		movs	r2, #0
 1286 0050 0121     		movs	r1, #1
 1287 0052 0448     		ldr	r0, .L83+4
 1288 0054 FFF7FEFF 		bl	HAL_GPIO_WritePin
 1289              	.LVL117:
 468:Core/Src/GT9147.c ****   return 0;
 1290              		.loc 1 468 3 view .LVU337
 1291              		.loc 1 468 10 is_stmt 0 view .LVU338
 1292 0058 0025     		movs	r5, #0
 1293              	.L78:
 469:Core/Src/GT9147.c **** }
 1294              		.loc 1 469 1 view .LVU339
 1295 005a 2846     		mov	r0, r5
 1296 005c 38BD     		pop	{r3, r4, r5, pc}
 1297              	.LVL118:
 1298              	.L84:
 1299              		.loc 1 469 1 view .LVU340
 1300 005e 00BF     		.align	2
 1301              	.L83:
 1302 0060 00140240 		.word	1073878016
 1303 0064 00040240 		.word	1073873920
 1304              		.cfi_endproc
 1305              	.LFE150:
 1307              		.section	.text.CT_IIC_Ack,"ax",%progbits
 1308              		.align	1
 1309              		.global	CT_IIC_Ack
 1310              		.syntax unified
 1311              		.thumb
 1312              		.thumb_func
 1313              		.fpu fpv4-sp-d16
 1315              	CT_IIC_Ack:
 1316              	.LFB151:
 470:Core/Src/GT9147.c **** //‰∫ßÁîüACKÂ∫îÁ≠î
 471:Core/Src/GT9147.c **** void CT_IIC_Ack(void)
 472:Core/Src/GT9147.c **** {
 1317              		.loc 1 472 1 is_stmt 1 view -0
 1318              		.cfi_startproc
 1319              		@ args = 0, pretend = 0, frame = 0
 1320              		@ frame_needed = 0, uses_anonymous_args = 0
 1321 0000 38B5     		push	{r3, r4, r5, lr}
 1322              	.LCFI18:
 1323              		.cfi_def_cfa_offset 16
 1324              		.cfi_offset 3, -16
 1325              		.cfi_offset 4, -12
 1326              		.cfi_offset 5, -8
 1327              		.cfi_offset 14, -4
ARM GAS  /tmp/cc7DN0jJ.s 			page 34


 473:Core/Src/GT9147.c ****   HAL_GPIO_WritePin(GPIOB,GPIO_PIN_0,GPIO_PIN_RESET);
 1328              		.loc 1 473 3 view .LVU342
 1329 0002 134D     		ldr	r5, .L87
 1330 0004 0022     		movs	r2, #0
 1331 0006 0121     		movs	r1, #1
 1332 0008 2846     		mov	r0, r5
 1333 000a FFF7FEFF 		bl	HAL_GPIO_WritePin
 1334              	.LVL119:
 474:Core/Src/GT9147.c ****   CT_SDA_OUT();
 1335              		.loc 1 474 3 view .LVU343
 1336 000e 114C     		ldr	r4, .L87+4
 1337 0010 2368     		ldr	r3, [r4]
 1338 0012 23F44003 		bic	r3, r3, #12582912
 1339 0016 2360     		str	r3, [r4]
 1340              		.loc 1 474 3 view .LVU344
 1341 0018 2368     		ldr	r3, [r4]
 1342 001a 43F48003 		orr	r3, r3, #4194304
 1343 001e 2360     		str	r3, [r4]
 1344              		.loc 1 474 15 view .LVU345
 475:Core/Src/GT9147.c ****   CT_Delay();
 1345              		.loc 1 475 3 view .LVU346
 1346 0020 FFF7FEFF 		bl	CT_Delay
 1347              	.LVL120:
 476:Core/Src/GT9147.c ****   HAL_GPIO_WritePin(GPIOF,GPIO_PIN_11,GPIO_PIN_RESET);
 1348              		.loc 1 476 3 view .LVU347
 1349 0024 0022     		movs	r2, #0
 1350 0026 4FF40061 		mov	r1, #2048
 1351 002a 2046     		mov	r0, r4
 1352 002c FFF7FEFF 		bl	HAL_GPIO_WritePin
 1353              	.LVL121:
 477:Core/Src/GT9147.c ****   CT_Delay();
 1354              		.loc 1 477 3 view .LVU348
 1355 0030 FFF7FEFF 		bl	CT_Delay
 1356              	.LVL122:
 478:Core/Src/GT9147.c ****   HAL_GPIO_WritePin(GPIOB,GPIO_PIN_0,GPIO_PIN_SET);
 1357              		.loc 1 478 3 view .LVU349
 1358 0034 0122     		movs	r2, #1
 1359 0036 1146     		mov	r1, r2
 1360 0038 2846     		mov	r0, r5
 1361 003a FFF7FEFF 		bl	HAL_GPIO_WritePin
 1362              	.LVL123:
 479:Core/Src/GT9147.c ****   CT_Delay();
 1363              		.loc 1 479 3 view .LVU350
 1364 003e FFF7FEFF 		bl	CT_Delay
 1365              	.LVL124:
 480:Core/Src/GT9147.c ****   HAL_GPIO_WritePin(GPIOB,GPIO_PIN_0,GPIO_PIN_RESET);
 1366              		.loc 1 480 3 view .LVU351
 1367 0042 0022     		movs	r2, #0
 1368 0044 0121     		movs	r1, #1
 1369 0046 2846     		mov	r0, r5
 1370 0048 FFF7FEFF 		bl	HAL_GPIO_WritePin
 1371              	.LVL125:
 481:Core/Src/GT9147.c **** }
 1372              		.loc 1 481 1 is_stmt 0 view .LVU352
 1373 004c 38BD     		pop	{r3, r4, r5, pc}
 1374              	.L88:
 1375 004e 00BF     		.align	2
ARM GAS  /tmp/cc7DN0jJ.s 			page 35


 1376              	.L87:
 1377 0050 00040240 		.word	1073873920
 1378 0054 00140240 		.word	1073878016
 1379              		.cfi_endproc
 1380              	.LFE151:
 1382              		.section	.text.CT_IIC_NAck,"ax",%progbits
 1383              		.align	1
 1384              		.global	CT_IIC_NAck
 1385              		.syntax unified
 1386              		.thumb
 1387              		.thumb_func
 1388              		.fpu fpv4-sp-d16
 1390              	CT_IIC_NAck:
 1391              	.LFB152:
 482:Core/Src/GT9147.c **** //‰∏ç‰∫ßÁîüACKÂ∫îÁ≠î
 483:Core/Src/GT9147.c **** void CT_IIC_NAck(void)
 484:Core/Src/GT9147.c **** {
 1392              		.loc 1 484 1 is_stmt 1 view -0
 1393              		.cfi_startproc
 1394              		@ args = 0, pretend = 0, frame = 0
 1395              		@ frame_needed = 0, uses_anonymous_args = 0
 1396 0000 38B5     		push	{r3, r4, r5, lr}
 1397              	.LCFI19:
 1398              		.cfi_def_cfa_offset 16
 1399              		.cfi_offset 3, -16
 1400              		.cfi_offset 4, -12
 1401              		.cfi_offset 5, -8
 1402              		.cfi_offset 14, -4
 485:Core/Src/GT9147.c ****   HAL_GPIO_WritePin(GPIOB,GPIO_PIN_0,GPIO_PIN_RESET);
 1403              		.loc 1 485 3 view .LVU354
 1404 0002 134D     		ldr	r5, .L91
 1405 0004 0022     		movs	r2, #0
 1406 0006 0121     		movs	r1, #1
 1407 0008 2846     		mov	r0, r5
 1408 000a FFF7FEFF 		bl	HAL_GPIO_WritePin
 1409              	.LVL126:
 486:Core/Src/GT9147.c ****   CT_SDA_OUT();
 1410              		.loc 1 486 3 view .LVU355
 1411 000e 114C     		ldr	r4, .L91+4
 1412 0010 2368     		ldr	r3, [r4]
 1413 0012 23F44003 		bic	r3, r3, #12582912
 1414 0016 2360     		str	r3, [r4]
 1415              		.loc 1 486 3 view .LVU356
 1416 0018 2368     		ldr	r3, [r4]
 1417 001a 43F48003 		orr	r3, r3, #4194304
 1418 001e 2360     		str	r3, [r4]
 1419              		.loc 1 486 15 view .LVU357
 487:Core/Src/GT9147.c ****   CT_Delay();
 1420              		.loc 1 487 3 view .LVU358
 1421 0020 FFF7FEFF 		bl	CT_Delay
 1422              	.LVL127:
 488:Core/Src/GT9147.c ****   HAL_GPIO_WritePin(GPIOF,GPIO_PIN_11,GPIO_PIN_SET);
 1423              		.loc 1 488 3 view .LVU359
 1424 0024 0122     		movs	r2, #1
 1425 0026 4FF40061 		mov	r1, #2048
 1426 002a 2046     		mov	r0, r4
 1427 002c FFF7FEFF 		bl	HAL_GPIO_WritePin
ARM GAS  /tmp/cc7DN0jJ.s 			page 36


 1428              	.LVL128:
 489:Core/Src/GT9147.c ****   CT_Delay();
 1429              		.loc 1 489 3 view .LVU360
 1430 0030 FFF7FEFF 		bl	CT_Delay
 1431              	.LVL129:
 490:Core/Src/GT9147.c ****   HAL_GPIO_WritePin(GPIOB,GPIO_PIN_0,GPIO_PIN_SET);
 1432              		.loc 1 490 3 view .LVU361
 1433 0034 0122     		movs	r2, #1
 1434 0036 1146     		mov	r1, r2
 1435 0038 2846     		mov	r0, r5
 1436 003a FFF7FEFF 		bl	HAL_GPIO_WritePin
 1437              	.LVL130:
 491:Core/Src/GT9147.c ****   CT_Delay();
 1438              		.loc 1 491 3 view .LVU362
 1439 003e FFF7FEFF 		bl	CT_Delay
 1440              	.LVL131:
 492:Core/Src/GT9147.c ****   HAL_GPIO_WritePin(GPIOB,GPIO_PIN_0,GPIO_PIN_RESET);
 1441              		.loc 1 492 3 view .LVU363
 1442 0042 0022     		movs	r2, #0
 1443 0044 0121     		movs	r1, #1
 1444 0046 2846     		mov	r0, r5
 1445 0048 FFF7FEFF 		bl	HAL_GPIO_WritePin
 1446              	.LVL132:
 493:Core/Src/GT9147.c **** }
 1447              		.loc 1 493 1 is_stmt 0 view .LVU364
 1448 004c 38BD     		pop	{r3, r4, r5, pc}
 1449              	.L92:
 1450 004e 00BF     		.align	2
 1451              	.L91:
 1452 0050 00040240 		.word	1073873920
 1453 0054 00140240 		.word	1073878016
 1454              		.cfi_endproc
 1455              	.LFE152:
 1457              		.section	.text.CT_IIC_Send_Byte,"ax",%progbits
 1458              		.align	1
 1459              		.global	CT_IIC_Send_Byte
 1460              		.syntax unified
 1461              		.thumb
 1462              		.thumb_func
 1463              		.fpu fpv4-sp-d16
 1465              	CT_IIC_Send_Byte:
 1466              	.LVL133:
 1467              	.LFB153:
 494:Core/Src/GT9147.c **** //IICÂèëÈÄÅ‰∏Ä‰∏™Â≠óËäÇ
 495:Core/Src/GT9147.c **** //ËøîÂõû‰ªéÊú∫ÊúâÊó†Â∫îÁ≠î
 496:Core/Src/GT9147.c **** //1ÔºåÊúâÂ∫îÁ≠î
 497:Core/Src/GT9147.c **** //0ÔºåÊó†Â∫îÁ≠î
 498:Core/Src/GT9147.c **** void CT_IIC_Send_Byte(uint8_t txd)
 499:Core/Src/GT9147.c **** {
 1468              		.loc 1 499 1 is_stmt 1 view -0
 1469              		.cfi_startproc
 1470              		@ args = 0, pretend = 0, frame = 0
 1471              		@ frame_needed = 0, uses_anonymous_args = 0
 1472              		.loc 1 499 1 is_stmt 0 view .LVU366
 1473 0000 70B5     		push	{r4, r5, r6, lr}
 1474              	.LCFI20:
 1475              		.cfi_def_cfa_offset 16
ARM GAS  /tmp/cc7DN0jJ.s 			page 37


 1476              		.cfi_offset 4, -16
 1477              		.cfi_offset 5, -12
 1478              		.cfi_offset 6, -8
 1479              		.cfi_offset 14, -4
 1480 0002 0446     		mov	r4, r0
 500:Core/Src/GT9147.c ****   uint8_t t;
 1481              		.loc 1 500 3 is_stmt 1 view .LVU367
 501:Core/Src/GT9147.c ****   CT_SDA_OUT();
 1482              		.loc 1 501 3 view .LVU368
 1483 0004 164B     		ldr	r3, .L97
 1484 0006 1A68     		ldr	r2, [r3]
 1485 0008 22F44002 		bic	r2, r2, #12582912
 1486 000c 1A60     		str	r2, [r3]
 1487              		.loc 1 501 3 view .LVU369
 1488 000e 1A68     		ldr	r2, [r3]
 1489 0010 42F48002 		orr	r2, r2, #4194304
 1490 0014 1A60     		str	r2, [r3]
 1491              		.loc 1 501 15 view .LVU370
 502:Core/Src/GT9147.c ****   HAL_GPIO_WritePin(GPIOB,GPIO_PIN_0,GPIO_PIN_RESET);//Êãâ‰ΩéÊó∂ÈíüÂºÄÂßãÊï∞ÊçÆ‰º†Ëæì
 1492              		.loc 1 502 3 view .LVU371
 1493 0016 0022     		movs	r2, #0
 1494 0018 0121     		movs	r1, #1
 1495 001a 1248     		ldr	r0, .L97+4
 1496              	.LVL134:
 1497              		.loc 1 502 3 is_stmt 0 view .LVU372
 1498 001c FFF7FEFF 		bl	HAL_GPIO_WritePin
 1499              	.LVL135:
 503:Core/Src/GT9147.c ****   CT_Delay();
 1500              		.loc 1 503 3 is_stmt 1 view .LVU373
 1501 0020 FFF7FEFF 		bl	CT_Delay
 1502              	.LVL136:
 504:Core/Src/GT9147.c ****   for(t=0;t<8;t++)
 1503              		.loc 1 504 3 view .LVU374
 1504              		.loc 1 504 8 is_stmt 0 view .LVU375
 1505 0024 0025     		movs	r5, #0
 1506              		.loc 1 504 3 view .LVU376
 1507 0026 18E0     		b	.L94
 1508              	.LVL137:
 1509              	.L95:
 505:Core/Src/GT9147.c ****   {
 506:Core/Src/GT9147.c ****     HAL_GPIO_WritePin(GPIOF,GPIO_PIN_11,(txd&0x80)>>7);
 1510              		.loc 1 506 5 is_stmt 1 discriminator 3 view .LVU377
 1511 0028 E209     		lsrs	r2, r4, #7
 1512 002a 4FF40061 		mov	r1, #2048
 1513 002e 0C48     		ldr	r0, .L97
 1514 0030 FFF7FEFF 		bl	HAL_GPIO_WritePin
 1515              	.LVL138:
 507:Core/Src/GT9147.c ****     txd<<=1;
 1516              		.loc 1 507 5 discriminator 3 view .LVU378
 1517              		.loc 1 507 8 is_stmt 0 discriminator 3 view .LVU379
 1518 0034 6400     		lsls	r4, r4, #1
 1519              	.LVL139:
 1520              		.loc 1 507 8 discriminator 3 view .LVU380
 1521 0036 E4B2     		uxtb	r4, r4
 1522              	.LVL140:
 508:Core/Src/GT9147.c ****     HAL_GPIO_WritePin(GPIOB,GPIO_PIN_0,GPIO_PIN_SET);
 1523              		.loc 1 508 5 is_stmt 1 discriminator 3 view .LVU381
ARM GAS  /tmp/cc7DN0jJ.s 			page 38


 1524 0038 0A4E     		ldr	r6, .L97+4
 1525 003a 0122     		movs	r2, #1
 1526 003c 1146     		mov	r1, r2
 1527 003e 3046     		mov	r0, r6
 1528 0040 FFF7FEFF 		bl	HAL_GPIO_WritePin
 1529              	.LVL141:
 509:Core/Src/GT9147.c ****     CT_Delay();
 1530              		.loc 1 509 5 discriminator 3 view .LVU382
 1531 0044 FFF7FEFF 		bl	CT_Delay
 1532              	.LVL142:
 510:Core/Src/GT9147.c ****     HAL_GPIO_WritePin(GPIOB,GPIO_PIN_0,GPIO_PIN_RESET);
 1533              		.loc 1 510 5 discriminator 3 view .LVU383
 1534 0048 0022     		movs	r2, #0
 1535 004a 0121     		movs	r1, #1
 1536 004c 3046     		mov	r0, r6
 1537 004e FFF7FEFF 		bl	HAL_GPIO_WritePin
 1538              	.LVL143:
 511:Core/Src/GT9147.c ****     CT_Delay();
 1539              		.loc 1 511 5 discriminator 3 view .LVU384
 1540 0052 FFF7FEFF 		bl	CT_Delay
 1541              	.LVL144:
 504:Core/Src/GT9147.c ****   {
 1542              		.loc 1 504 15 discriminator 3 view .LVU385
 504:Core/Src/GT9147.c ****   {
 1543              		.loc 1 504 16 is_stmt 0 discriminator 3 view .LVU386
 1544 0056 0135     		adds	r5, r5, #1
 1545              	.LVL145:
 504:Core/Src/GT9147.c ****   {
 1546              		.loc 1 504 16 discriminator 3 view .LVU387
 1547 0058 EDB2     		uxtb	r5, r5
 1548              	.LVL146:
 1549              	.L94:
 504:Core/Src/GT9147.c ****   {
 1550              		.loc 1 504 11 is_stmt 1 discriminator 1 view .LVU388
 504:Core/Src/GT9147.c ****   {
 1551              		.loc 1 504 3 is_stmt 0 discriminator 1 view .LVU389
 1552 005a 072D     		cmp	r5, #7
 1553 005c E4D9     		bls	.L95
 512:Core/Src/GT9147.c ****   }
 513:Core/Src/GT9147.c **** }
 1554              		.loc 1 513 1 view .LVU390
 1555 005e 70BD     		pop	{r4, r5, r6, pc}
 1556              	.LVL147:
 1557              	.L98:
 1558              		.loc 1 513 1 view .LVU391
 1559              		.align	2
 1560              	.L97:
 1561 0060 00140240 		.word	1073878016
 1562 0064 00040240 		.word	1073873920
 1563              		.cfi_endproc
 1564              	.LFE153:
 1566              		.section	.text.GT9147_WR_Reg,"ax",%progbits
 1567              		.align	1
 1568              		.global	GT9147_WR_Reg
 1569              		.syntax unified
 1570              		.thumb
 1571              		.thumb_func
ARM GAS  /tmp/cc7DN0jJ.s 			page 39


 1572              		.fpu fpv4-sp-d16
 1574              	GT9147_WR_Reg:
 1575              	.LVL148:
 1576              	.LFB135:
 126:Core/Src/GT9147.c ****   uint8_t i;
 1577              		.loc 1 126 1 is_stmt 1 view -0
 1578              		.cfi_startproc
 1579              		@ args = 0, pretend = 0, frame = 0
 1580              		@ frame_needed = 0, uses_anonymous_args = 0
 126:Core/Src/GT9147.c ****   uint8_t i;
 1581              		.loc 1 126 1 is_stmt 0 view .LVU393
 1582 0000 F8B5     		push	{r3, r4, r5, r6, r7, lr}
 1583              	.LCFI21:
 1584              		.cfi_def_cfa_offset 24
 1585              		.cfi_offset 3, -24
 1586              		.cfi_offset 4, -20
 1587              		.cfi_offset 5, -16
 1588              		.cfi_offset 6, -12
 1589              		.cfi_offset 7, -8
 1590              		.cfi_offset 14, -4
 1591 0002 0446     		mov	r4, r0
 1592 0004 0F46     		mov	r7, r1
 1593 0006 1546     		mov	r5, r2
 127:Core/Src/GT9147.c ****   uint8_t ret=0;
 1594              		.loc 1 127 3 is_stmt 1 view .LVU394
 128:Core/Src/GT9147.c ****   CT_IIC_Start();
 1595              		.loc 1 128 3 view .LVU395
 1596              	.LVL149:
 129:Core/Src/GT9147.c ****   CT_IIC_Send_Byte(GT_CMD_WR);   	//ÂèëÈÄÅÂÜôÂëΩ‰ª§
 1597              		.loc 1 129 3 view .LVU396
 1598 0008 FFF7FEFF 		bl	CT_IIC_Start
 1599              	.LVL150:
 130:Core/Src/GT9147.c ****   CT_IIC_Wait_Ack();
 1600              		.loc 1 130 3 view .LVU397
 1601 000c 2820     		movs	r0, #40
 1602 000e FFF7FEFF 		bl	CT_IIC_Send_Byte
 1603              	.LVL151:
 131:Core/Src/GT9147.c ****   CT_IIC_Send_Byte(reg>>8);   	//ÂèëÈÄÅÈ´ò8‰ΩçÂú∞ÂùÄ
 1604              		.loc 1 131 3 view .LVU398
 1605 0012 FFF7FEFF 		bl	CT_IIC_Wait_Ack
 1606              	.LVL152:
 132:Core/Src/GT9147.c ****   CT_IIC_Wait_Ack();
 1607              		.loc 1 132 3 view .LVU399
 1608 0016 200A     		lsrs	r0, r4, #8
 1609 0018 FFF7FEFF 		bl	CT_IIC_Send_Byte
 1610              	.LVL153:
 133:Core/Src/GT9147.c ****   CT_IIC_Send_Byte(reg&0XFF);   	//ÂèëÈÄÅ‰Ωé8‰ΩçÂú∞ÂùÄ
 1611              		.loc 1 133 3 view .LVU400
 1612 001c FFF7FEFF 		bl	CT_IIC_Wait_Ack
 1613              	.LVL154:
 134:Core/Src/GT9147.c ****   CT_IIC_Wait_Ack();
 1614              		.loc 1 134 3 view .LVU401
 1615 0020 E0B2     		uxtb	r0, r4
 1616 0022 FFF7FEFF 		bl	CT_IIC_Send_Byte
 1617              	.LVL155:
 135:Core/Src/GT9147.c ****   for(i=0;i<len;i++)
 1618              		.loc 1 135 3 view .LVU402
ARM GAS  /tmp/cc7DN0jJ.s 			page 40


 1619 0026 FFF7FEFF 		bl	CT_IIC_Wait_Ack
 1620              	.LVL156:
 136:Core/Src/GT9147.c ****   {
 1621              		.loc 1 136 3 view .LVU403
 128:Core/Src/GT9147.c ****   CT_IIC_Start();
 1622              		.loc 1 128 11 is_stmt 0 view .LVU404
 1623 002a 0026     		movs	r6, #0
 136:Core/Src/GT9147.c ****   {
 1624              		.loc 1 136 8 view .LVU405
 1625 002c 3446     		mov	r4, r6
 136:Core/Src/GT9147.c ****   {
 1626              		.loc 1 136 3 view .LVU406
 1627 002e 01E0     		b	.L100
 1628              	.LVL157:
 1629              	.L104:
 136:Core/Src/GT9147.c ****   {
 1630              		.loc 1 136 17 is_stmt 1 discriminator 2 view .LVU407
 136:Core/Src/GT9147.c ****   {
 1631              		.loc 1 136 18 is_stmt 0 discriminator 2 view .LVU408
 1632 0030 0134     		adds	r4, r4, #1
 1633              	.LVL158:
 136:Core/Src/GT9147.c ****   {
 1634              		.loc 1 136 18 discriminator 2 view .LVU409
 1635 0032 E4B2     		uxtb	r4, r4
 1636              	.LVL159:
 1637              	.L100:
 136:Core/Src/GT9147.c ****   {
 1638              		.loc 1 136 11 is_stmt 1 discriminator 1 view .LVU410
 136:Core/Src/GT9147.c ****   {
 1639              		.loc 1 136 3 is_stmt 0 discriminator 1 view .LVU411
 1640 0034 AC42     		cmp	r4, r5
 1641 0036 07D2     		bcs	.L101
 138:Core/Src/GT9147.c ****     ret=CT_IIC_Wait_Ack();
 1642              		.loc 1 138 5 is_stmt 1 view .LVU412
 1643 0038 385D     		ldrb	r0, [r7, r4]	@ zero_extendqisi2
 1644 003a FFF7FEFF 		bl	CT_IIC_Send_Byte
 1645              	.LVL160:
 139:Core/Src/GT9147.c ****     if(ret)break;
 1646              		.loc 1 139 5 view .LVU413
 139:Core/Src/GT9147.c ****     if(ret)break;
 1647              		.loc 1 139 9 is_stmt 0 view .LVU414
 1648 003e FFF7FEFF 		bl	CT_IIC_Wait_Ack
 1649              	.LVL161:
 140:Core/Src/GT9147.c ****   }
 1650              		.loc 1 140 5 is_stmt 1 view .LVU415
 140:Core/Src/GT9147.c ****   }
 1651              		.loc 1 140 7 is_stmt 0 view .LVU416
 1652 0042 0646     		mov	r6, r0
 1653 0044 0028     		cmp	r0, #0
 1654 0046 F3D0     		beq	.L104
 1655              	.LVL162:
 1656              	.L101:
 142:Core/Src/GT9147.c ****   return ret;
 1657              		.loc 1 142 3 is_stmt 1 view .LVU417
 1658 0048 FFF7FEFF 		bl	CT_IIC_Stop
 1659              	.LVL163:
 143:Core/Src/GT9147.c **** }
ARM GAS  /tmp/cc7DN0jJ.s 			page 41


 1660              		.loc 1 143 3 view .LVU418
 144:Core/Src/GT9147.c **** void GT9147_RD_Reg(uint16_t reg,uint8_t *buf,uint8_t len)
 1661              		.loc 1 144 1 is_stmt 0 view .LVU419
 1662 004c 3046     		mov	r0, r6
 1663 004e F8BD     		pop	{r3, r4, r5, r6, r7, pc}
 144:Core/Src/GT9147.c **** void GT9147_RD_Reg(uint16_t reg,uint8_t *buf,uint8_t len)
 1664              		.loc 1 144 1 view .LVU420
 1665              		.cfi_endproc
 1666              	.LFE135:
 1668              		.section	.text.GT9147_Send_Cfg,"ax",%progbits
 1669              		.align	1
 1670              		.global	GT9147_Send_Cfg
 1671              		.syntax unified
 1672              		.thumb
 1673              		.thumb_func
 1674              		.fpu fpv4-sp-d16
 1676              	GT9147_Send_Cfg:
 1677              	.LVL164:
 1678              	.LFB137:
 166:Core/Src/GT9147.c ****   uint8_t buf[2];
 1679              		.loc 1 166 1 is_stmt 1 view -0
 1680              		.cfi_startproc
 1681              		@ args = 0, pretend = 0, frame = 8
 1682              		@ frame_needed = 0, uses_anonymous_args = 0
 166:Core/Src/GT9147.c ****   uint8_t buf[2];
 1683              		.loc 1 166 1 is_stmt 0 view .LVU422
 1684 0000 00B5     		push	{lr}
 1685              	.LCFI22:
 1686              		.cfi_def_cfa_offset 4
 1687              		.cfi_offset 14, -4
 1688 0002 83B0     		sub	sp, sp, #12
 1689              	.LCFI23:
 1690              		.cfi_def_cfa_offset 16
 167:Core/Src/GT9147.c ****   uint8_t i=0;
 1691              		.loc 1 167 3 is_stmt 1 view .LVU423
 168:Core/Src/GT9147.c ****   buf[0]=0;
 1692              		.loc 1 168 3 view .LVU424
 1693              	.LVL165:
 169:Core/Src/GT9147.c ****   buf[1]=mode;	//ÊòØÂê¶ÂÜôÂÖ•Âà∞GT9147 FLASH?  Âç≥ÊòØÂê¶ÊéâÁîµ‰øùÂ≠ò
 1694              		.loc 1 169 3 view .LVU425
 169:Core/Src/GT9147.c ****   buf[1]=mode;	//ÊòØÂê¶ÂÜôÂÖ•Âà∞GT9147 FLASH?  Âç≥ÊòØÂê¶ÊéâÁîµ‰øùÂ≠ò
 1695              		.loc 1 169 9 is_stmt 0 view .LVU426
 1696 0004 0023     		movs	r3, #0
 1697 0006 8DF80430 		strb	r3, [sp, #4]
 170:Core/Src/GT9147.c ****   for(i=0;i<sizeof(GT9147_CFG_TBL);i++)buf[0]+=GT9147_CFG_TBL[i];//ËÆ°ÁÆóÊ†°È™åÂíå
 1698              		.loc 1 170 3 is_stmt 1 view .LVU427
 170:Core/Src/GT9147.c ****   for(i=0;i<sizeof(GT9147_CFG_TBL);i++)buf[0]+=GT9147_CFG_TBL[i];//ËÆ°ÁÆóÊ†°È™åÂíå
 1699              		.loc 1 170 9 is_stmt 0 view .LVU428
 1700 000a 8DF80500 		strb	r0, [sp, #5]
 171:Core/Src/GT9147.c ****   buf[0]=(~buf[0])+1;
 1701              		.loc 1 171 3 is_stmt 1 view .LVU429
 171:Core/Src/GT9147.c ****   buf[0]=(~buf[0])+1;
 1702              		.loc 1 171 3 is_stmt 0 view .LVU430
 1703 000e 08E0     		b	.L106
 1704              	.LVL166:
 1705              	.L107:
 171:Core/Src/GT9147.c ****   buf[0]=(~buf[0])+1;
ARM GAS  /tmp/cc7DN0jJ.s 			page 42


 1706              		.loc 1 171 40 is_stmt 1 discriminator 3 view .LVU431
 171:Core/Src/GT9147.c ****   buf[0]=(~buf[0])+1;
 1707              		.loc 1 171 62 is_stmt 0 discriminator 3 view .LVU432
 1708 0010 0F4A     		ldr	r2, .L109
 1709 0012 D25C     		ldrb	r2, [r2, r3]	@ zero_extendqisi2
 171:Core/Src/GT9147.c ****   buf[0]=(~buf[0])+1;
 1710              		.loc 1 171 46 discriminator 3 view .LVU433
 1711 0014 9DF80410 		ldrb	r1, [sp, #4]	@ zero_extendqisi2
 1712 0018 0A44     		add	r2, r2, r1
 1713 001a 8DF80420 		strb	r2, [sp, #4]
 171:Core/Src/GT9147.c ****   buf[0]=(~buf[0])+1;
 1714              		.loc 1 171 36 is_stmt 1 discriminator 3 view .LVU434
 171:Core/Src/GT9147.c ****   buf[0]=(~buf[0])+1;
 1715              		.loc 1 171 37 is_stmt 0 discriminator 3 view .LVU435
 1716 001e 0133     		adds	r3, r3, #1
 1717              	.LVL167:
 171:Core/Src/GT9147.c ****   buf[0]=(~buf[0])+1;
 1718              		.loc 1 171 37 discriminator 3 view .LVU436
 1719 0020 DBB2     		uxtb	r3, r3
 1720              	.LVL168:
 1721              	.L106:
 171:Core/Src/GT9147.c ****   buf[0]=(~buf[0])+1;
 1722              		.loc 1 171 11 is_stmt 1 discriminator 1 view .LVU437
 171:Core/Src/GT9147.c ****   buf[0]=(~buf[0])+1;
 1723              		.loc 1 171 3 is_stmt 0 discriminator 1 view .LVU438
 1724 0022 B72B     		cmp	r3, #183
 1725 0024 F4D9     		bls	.L107
 172:Core/Src/GT9147.c ****   GT9147_WR_Reg(GT_CFGS_REG,(uint8_t*)GT9147_CFG_TBL,sizeof(GT9147_CFG_TBL));//ÂèëÈÄÅÂØÑÂ≠òÂô®ÈÖçÁΩ
 1726              		.loc 1 172 3 is_stmt 1 view .LVU439
 172:Core/Src/GT9147.c ****   GT9147_WR_Reg(GT_CFGS_REG,(uint8_t*)GT9147_CFG_TBL,sizeof(GT9147_CFG_TBL));//ÂèëÈÄÅÂØÑÂ≠òÂô®ÈÖçÁΩ
 1727              		.loc 1 172 15 is_stmt 0 view .LVU440
 1728 0026 9DF80430 		ldrb	r3, [sp, #4]	@ zero_extendqisi2
 1729              	.LVL169:
 172:Core/Src/GT9147.c ****   GT9147_WR_Reg(GT_CFGS_REG,(uint8_t*)GT9147_CFG_TBL,sizeof(GT9147_CFG_TBL));//ÂèëÈÄÅÂØÑÂ≠òÂô®ÈÖçÁΩ
 1730              		.loc 1 172 9 view .LVU441
 1731 002a 5B42     		rsbs	r3, r3, #0
 1732 002c 8DF80430 		strb	r3, [sp, #4]
 173:Core/Src/GT9147.c ****   GT9147_WR_Reg(GT_CHECK_REG,buf,2);//ÂÜôÂÖ•Ê†°È™åÂíå,ÂíåÈÖçÁΩÆÊõ¥Êñ∞Ê†áËÆ∞
 1733              		.loc 1 173 3 is_stmt 1 view .LVU442
 1734 0030 B822     		movs	r2, #184
 1735 0032 0749     		ldr	r1, .L109
 1736 0034 48F24700 		movw	r0, #32839
 1737              	.LVL170:
 173:Core/Src/GT9147.c ****   GT9147_WR_Reg(GT_CHECK_REG,buf,2);//ÂÜôÂÖ•Ê†°È™åÂíå,ÂíåÈÖçÁΩÆÊõ¥Êñ∞Ê†áËÆ∞
 1738              		.loc 1 173 3 is_stmt 0 view .LVU443
 1739 0038 FFF7FEFF 		bl	GT9147_WR_Reg
 1740              	.LVL171:
 174:Core/Src/GT9147.c ****   return 0;
 1741              		.loc 1 174 3 is_stmt 1 view .LVU444
 1742 003c 0222     		movs	r2, #2
 1743 003e 01A9     		add	r1, sp, #4
 1744 0040 48F2FF00 		movw	r0, #33023
 1745 0044 FFF7FEFF 		bl	GT9147_WR_Reg
 1746              	.LVL172:
 175:Core/Src/GT9147.c **** }
 1747              		.loc 1 175 3 view .LVU445
 176:Core/Src/GT9147.c **** uint8_t GT9147_Scan(uint8_t mode)
ARM GAS  /tmp/cc7DN0jJ.s 			page 43


 1748              		.loc 1 176 1 is_stmt 0 view .LVU446
 1749 0048 0020     		movs	r0, #0
 1750 004a 03B0     		add	sp, sp, #12
 1751              	.LCFI24:
 1752              		.cfi_def_cfa_offset 4
 1753              		@ sp needed
 1754 004c 5DF804FB 		ldr	pc, [sp], #4
 1755              	.L110:
 1756              		.align	2
 1757              	.L109:
 1758 0050 00000000 		.word	.LANCHOR3
 1759              		.cfi_endproc
 1760              	.LFE137:
 1762              		.section	.text.CT_IIC_Read_Byte,"ax",%progbits
 1763              		.align	1
 1764              		.global	CT_IIC_Read_Byte
 1765              		.syntax unified
 1766              		.thumb
 1767              		.thumb_func
 1768              		.fpu fpv4-sp-d16
 1770              	CT_IIC_Read_Byte:
 1771              	.LVL173:
 1772              	.LFB154:
 514:Core/Src/GT9147.c **** //ËØª1‰∏™Â≠óËäÇÔºåack=1Êó∂ÔºåÂèëÈÄÅACKÔºåack=0ÔºåÂèëÈÄÅnACK
 515:Core/Src/GT9147.c **** uint8_t CT_IIC_Read_Byte(unsigned char ack)
 516:Core/Src/GT9147.c **** {
 1773              		.loc 1 516 1 is_stmt 1 view -0
 1774              		.cfi_startproc
 1775              		@ args = 0, pretend = 0, frame = 0
 1776              		@ frame_needed = 0, uses_anonymous_args = 0
 1777              		.loc 1 516 1 is_stmt 0 view .LVU448
 1778 0000 F8B5     		push	{r3, r4, r5, r6, r7, lr}
 1779              	.LCFI25:
 1780              		.cfi_def_cfa_offset 24
 1781              		.cfi_offset 3, -24
 1782              		.cfi_offset 4, -20
 1783              		.cfi_offset 5, -16
 1784              		.cfi_offset 6, -12
 1785              		.cfi_offset 7, -8
 1786              		.cfi_offset 14, -4
 1787 0002 0746     		mov	r7, r0
 517:Core/Src/GT9147.c ****   uint8_t i,receive=0;
 1788              		.loc 1 517 3 is_stmt 1 view .LVU449
 1789              	.LVL174:
 518:Core/Src/GT9147.c ****   CT_SDA_IN();//SDAËÆæÁΩÆ‰∏∫ËæìÂÖ•
 1790              		.loc 1 518 3 view .LVU450
 1791 0004 184B     		ldr	r3, .L119
 1792 0006 1A68     		ldr	r2, [r3]
 1793 0008 22F44002 		bic	r2, r2, #12582912
 1794 000c 1A60     		str	r2, [r3]
 1795              		.loc 1 518 3 view .LVU451
 1796 000e 1A68     		ldr	r2, [r3]
 1797 0010 1A60     		str	r2, [r3]
 1798              		.loc 1 518 14 view .LVU452
 519:Core/Src/GT9147.c ****   delay_us(30);
 1799              		.loc 1 519 3 view .LVU453
 1800 0012 1E20     		movs	r0, #30
ARM GAS  /tmp/cc7DN0jJ.s 			page 44


 1801              	.LVL175:
 1802              		.loc 1 519 3 is_stmt 0 view .LVU454
 1803 0014 FFF7FEFF 		bl	delay_us
 1804              	.LVL176:
 520:Core/Src/GT9147.c ****   for(i=0;i<8;i++ )
 1805              		.loc 1 520 3 is_stmt 1 view .LVU455
 517:Core/Src/GT9147.c ****   CT_SDA_IN();//SDAËÆæÁΩÆ‰∏∫ËæìÂÖ•
 1806              		.loc 1 517 13 is_stmt 0 view .LVU456
 1807 0018 0024     		movs	r4, #0
 1808              		.loc 1 520 8 view .LVU457
 1809 001a 2546     		mov	r5, r4
 1810              		.loc 1 520 3 view .LVU458
 1811 001c 01E0     		b	.L112
 1812              	.LVL177:
 1813              	.L113:
 1814              		.loc 1 520 15 is_stmt 1 discriminator 2 view .LVU459
 1815              		.loc 1 520 16 is_stmt 0 discriminator 2 view .LVU460
 1816 001e 0135     		adds	r5, r5, #1
 1817              	.LVL178:
 1818              		.loc 1 520 16 discriminator 2 view .LVU461
 1819 0020 EDB2     		uxtb	r5, r5
 1820              	.LVL179:
 1821              	.L112:
 1822              		.loc 1 520 11 is_stmt 1 discriminator 1 view .LVU462
 1823              		.loc 1 520 3 is_stmt 0 discriminator 1 view .LVU463
 1824 0022 072D     		cmp	r5, #7
 1825 0024 18D8     		bhi	.L118
 521:Core/Src/GT9147.c ****   {
 522:Core/Src/GT9147.c ****     HAL_GPIO_WritePin(GPIOB,GPIO_PIN_0,GPIO_PIN_RESET);
 1826              		.loc 1 522 5 is_stmt 1 view .LVU464
 1827 0026 114E     		ldr	r6, .L119+4
 1828 0028 0022     		movs	r2, #0
 1829 002a 0121     		movs	r1, #1
 1830 002c 3046     		mov	r0, r6
 1831 002e FFF7FEFF 		bl	HAL_GPIO_WritePin
 1832              	.LVL180:
 523:Core/Src/GT9147.c ****     CT_Delay();
 1833              		.loc 1 523 5 view .LVU465
 1834 0032 FFF7FEFF 		bl	CT_Delay
 1835              	.LVL181:
 524:Core/Src/GT9147.c ****     HAL_GPIO_WritePin(GPIOB,GPIO_PIN_0,GPIO_PIN_SET);
 1836              		.loc 1 524 5 view .LVU466
 1837 0036 0122     		movs	r2, #1
 1838 0038 1146     		mov	r1, r2
 1839 003a 3046     		mov	r0, r6
 1840 003c FFF7FEFF 		bl	HAL_GPIO_WritePin
 1841              	.LVL182:
 525:Core/Src/GT9147.c ****     receive<<=1;
 1842              		.loc 1 525 5 view .LVU467
 1843              		.loc 1 525 12 is_stmt 0 view .LVU468
 1844 0040 6400     		lsls	r4, r4, #1
 1845              	.LVL183:
 1846              		.loc 1 525 12 view .LVU469
 1847 0042 E4B2     		uxtb	r4, r4
 1848              	.LVL184:
 526:Core/Src/GT9147.c ****     if(HAL_GPIO_ReadPin(GPIOF,GPIO_PIN_11)==GPIO_PIN_SET)receive++;
 1849              		.loc 1 526 5 is_stmt 1 view .LVU470
ARM GAS  /tmp/cc7DN0jJ.s 			page 45


 1850              		.loc 1 526 8 is_stmt 0 view .LVU471
 1851 0044 4FF40061 		mov	r1, #2048
 1852 0048 0748     		ldr	r0, .L119
 1853 004a FFF7FEFF 		bl	HAL_GPIO_ReadPin
 1854              	.LVL185:
 1855              		.loc 1 526 7 view .LVU472
 1856 004e 0128     		cmp	r0, #1
 1857 0050 E5D1     		bne	.L113
 1858              		.loc 1 526 58 is_stmt 1 discriminator 1 view .LVU473
 1859              		.loc 1 526 65 is_stmt 0 discriminator 1 view .LVU474
 1860 0052 0134     		adds	r4, r4, #1
 1861              	.LVL186:
 1862              		.loc 1 526 65 discriminator 1 view .LVU475
 1863 0054 E4B2     		uxtb	r4, r4
 1864              	.LVL187:
 1865              		.loc 1 526 65 discriminator 1 view .LVU476
 1866 0056 E2E7     		b	.L113
 1867              	.L118:
 527:Core/Src/GT9147.c ****   }
 528:Core/Src/GT9147.c ****   if (!ack)CT_IIC_NAck();//ÂèëÈÄÅnACK
 1868              		.loc 1 528 3 is_stmt 1 view .LVU477
 1869              		.loc 1 528 6 is_stmt 0 view .LVU478
 1870 0058 1FB9     		cbnz	r7, .L115
 1871              		.loc 1 528 12 is_stmt 1 discriminator 1 view .LVU479
 1872 005a FFF7FEFF 		bl	CT_IIC_NAck
 1873              	.LVL188:
 1874              	.L116:
 529:Core/Src/GT9147.c ****   else CT_IIC_Ack(); //ÂèëÈÄÅACK
 530:Core/Src/GT9147.c ****   return receive;
 1875              		.loc 1 530 3 view .LVU480
 531:Core/Src/GT9147.c **** }
 1876              		.loc 1 531 1 is_stmt 0 view .LVU481
 1877 005e 2046     		mov	r0, r4
 1878 0060 F8BD     		pop	{r3, r4, r5, r6, r7, pc}
 1879              	.LVL189:
 1880              	.L115:
 529:Core/Src/GT9147.c ****   else CT_IIC_Ack(); //ÂèëÈÄÅACK
 1881              		.loc 1 529 8 is_stmt 1 view .LVU482
 1882 0062 FFF7FEFF 		bl	CT_IIC_Ack
 1883              	.LVL190:
 1884 0066 FAE7     		b	.L116
 1885              	.L120:
 1886              		.align	2
 1887              	.L119:
 1888 0068 00140240 		.word	1073878016
 1889 006c 00040240 		.word	1073873920
 1890              		.cfi_endproc
 1891              	.LFE154:
 1893              		.section	.text.GT9147_RD_Reg,"ax",%progbits
 1894              		.align	1
 1895              		.global	GT9147_RD_Reg
 1896              		.syntax unified
 1897              		.thumb
 1898              		.thumb_func
 1899              		.fpu fpv4-sp-d16
 1901              	GT9147_RD_Reg:
 1902              	.LVL191:
ARM GAS  /tmp/cc7DN0jJ.s 			page 46


 1903              	.LFB136:
 146:Core/Src/GT9147.c ****   uint8_t i;
 1904              		.loc 1 146 1 view -0
 1905              		.cfi_startproc
 1906              		@ args = 0, pretend = 0, frame = 0
 1907              		@ frame_needed = 0, uses_anonymous_args = 0
 146:Core/Src/GT9147.c ****   uint8_t i;
 1908              		.loc 1 146 1 is_stmt 0 view .LVU484
 1909 0000 70B5     		push	{r4, r5, r6, lr}
 1910              	.LCFI26:
 1911              		.cfi_def_cfa_offset 16
 1912              		.cfi_offset 4, -16
 1913              		.cfi_offset 5, -12
 1914              		.cfi_offset 6, -8
 1915              		.cfi_offset 14, -4
 1916 0002 0446     		mov	r4, r0
 1917 0004 0E46     		mov	r6, r1
 1918 0006 1546     		mov	r5, r2
 147:Core/Src/GT9147.c ****   CT_IIC_Start();
 1919              		.loc 1 147 3 is_stmt 1 view .LVU485
 148:Core/Src/GT9147.c ****   CT_IIC_Send_Byte(GT_CMD_WR);   //ÂèëÈÄÅÂÜôÂëΩ‰ª§
 1920              		.loc 1 148 3 view .LVU486
 1921 0008 FFF7FEFF 		bl	CT_IIC_Start
 1922              	.LVL192:
 149:Core/Src/GT9147.c ****   CT_IIC_Wait_Ack();
 1923              		.loc 1 149 3 view .LVU487
 1924 000c 2820     		movs	r0, #40
 1925 000e FFF7FEFF 		bl	CT_IIC_Send_Byte
 1926              	.LVL193:
 150:Core/Src/GT9147.c ****   CT_IIC_Send_Byte(reg>>8);   	//ÂèëÈÄÅÈ´ò8‰ΩçÂú∞ÂùÄ
 1927              		.loc 1 150 3 view .LVU488
 1928 0012 FFF7FEFF 		bl	CT_IIC_Wait_Ack
 1929              	.LVL194:
 151:Core/Src/GT9147.c ****   CT_IIC_Wait_Ack();
 1930              		.loc 1 151 3 view .LVU489
 1931 0016 200A     		lsrs	r0, r4, #8
 1932 0018 FFF7FEFF 		bl	CT_IIC_Send_Byte
 1933              	.LVL195:
 152:Core/Src/GT9147.c ****   CT_IIC_Send_Byte(reg&0XFF);   	//ÂèëÈÄÅ‰Ωé8‰ΩçÂú∞ÂùÄ
 1934              		.loc 1 152 3 view .LVU490
 1935 001c FFF7FEFF 		bl	CT_IIC_Wait_Ack
 1936              	.LVL196:
 153:Core/Src/GT9147.c ****   CT_IIC_Wait_Ack();
 1937              		.loc 1 153 3 view .LVU491
 1938 0020 E0B2     		uxtb	r0, r4
 1939 0022 FFF7FEFF 		bl	CT_IIC_Send_Byte
 1940              	.LVL197:
 154:Core/Src/GT9147.c ****   CT_IIC_Start();
 1941              		.loc 1 154 3 view .LVU492
 1942 0026 FFF7FEFF 		bl	CT_IIC_Wait_Ack
 1943              	.LVL198:
 155:Core/Src/GT9147.c ****   CT_IIC_Send_Byte(GT_CMD_RD);   //ÂèëÈÄÅËØªÂëΩ‰ª§
 1944              		.loc 1 155 3 view .LVU493
 1945 002a FFF7FEFF 		bl	CT_IIC_Start
 1946              	.LVL199:
 156:Core/Src/GT9147.c ****   CT_IIC_Wait_Ack();
 1947              		.loc 1 156 3 view .LVU494
ARM GAS  /tmp/cc7DN0jJ.s 			page 47


 1948 002e 2920     		movs	r0, #41
 1949 0030 FFF7FEFF 		bl	CT_IIC_Send_Byte
 1950              	.LVL200:
 157:Core/Src/GT9147.c ****   for(i=0;i<len;i++)
 1951              		.loc 1 157 3 view .LVU495
 1952 0034 FFF7FEFF 		bl	CT_IIC_Wait_Ack
 1953              	.LVL201:
 158:Core/Src/GT9147.c ****   {
 1954              		.loc 1 158 3 view .LVU496
 158:Core/Src/GT9147.c ****   {
 1955              		.loc 1 158 8 is_stmt 0 view .LVU497
 1956 0038 0024     		movs	r4, #0
 158:Core/Src/GT9147.c ****   {
 1957              		.loc 1 158 3 view .LVU498
 1958 003a 08E0     		b	.L122
 1959              	.LVL202:
 1960              	.L123:
 160:Core/Src/GT9147.c ****     //printf("%d\r\n",buf[i]);
 1961              		.loc 1 160 5 is_stmt 1 discriminator 3 view .LVU499
 160:Core/Src/GT9147.c ****     //printf("%d\r\n",buf[i]);
 1962              		.loc 1 160 36 is_stmt 0 discriminator 3 view .LVU500
 1963 003c 681E     		subs	r0, r5, #1
 160:Core/Src/GT9147.c ****     //printf("%d\r\n",buf[i]);
 1964              		.loc 1 160 12 discriminator 3 view .LVU501
 1965 003e 201A     		subs	r0, r4, r0
 1966 0040 18BF     		it	ne
 1967 0042 0120     		movne	r0, #1
 1968 0044 FFF7FEFF 		bl	CT_IIC_Read_Byte
 1969              	.LVL203:
 160:Core/Src/GT9147.c ****     //printf("%d\r\n",buf[i]);
 1970              		.loc 1 160 11 discriminator 3 view .LVU502
 1971 0048 3055     		strb	r0, [r6, r4]
 158:Core/Src/GT9147.c ****   {
 1972              		.loc 1 158 17 is_stmt 1 discriminator 3 view .LVU503
 158:Core/Src/GT9147.c ****   {
 1973              		.loc 1 158 18 is_stmt 0 discriminator 3 view .LVU504
 1974 004a 0134     		adds	r4, r4, #1
 1975              	.LVL204:
 158:Core/Src/GT9147.c ****   {
 1976              		.loc 1 158 18 discriminator 3 view .LVU505
 1977 004c E4B2     		uxtb	r4, r4
 1978              	.LVL205:
 1979              	.L122:
 158:Core/Src/GT9147.c ****   {
 1980              		.loc 1 158 11 is_stmt 1 discriminator 1 view .LVU506
 158:Core/Src/GT9147.c ****   {
 1981              		.loc 1 158 3 is_stmt 0 discriminator 1 view .LVU507
 1982 004e AC42     		cmp	r4, r5
 1983 0050 F4D3     		bcc	.L123
 163:Core/Src/GT9147.c **** }
 1984              		.loc 1 163 3 is_stmt 1 view .LVU508
 1985 0052 FFF7FEFF 		bl	CT_IIC_Stop
 1986              	.LVL206:
 164:Core/Src/GT9147.c **** uint8_t GT9147_Send_Cfg(uint8_t mode)
 1987              		.loc 1 164 1 is_stmt 0 view .LVU509
 1988 0056 70BD     		pop	{r4, r5, r6, pc}
 164:Core/Src/GT9147.c **** uint8_t GT9147_Send_Cfg(uint8_t mode)
ARM GAS  /tmp/cc7DN0jJ.s 			page 48


 1989              		.loc 1 164 1 view .LVU510
 1990              		.cfi_endproc
 1991              	.LFE136:
 1993              		.section	.rodata.GT9147_Init.str1.4,"aMS",%progbits,1
 1994              		.align	2
 1995              	.LC0:
 1996 0000 43545020 		.ascii	"CTP ID:%s\015\012\000"
 1996      49443A25 
 1996      730D0A00 
 1997              		.align	2
 1998              	.LC1:
 1999 000c 39313437 		.ascii	"9147\000"
 1999      00
 2000 0011 000000   		.align	2
 2001              	.LC2:
 2002 0014 44656661 		.ascii	"Default Ver:%d\015\012\000"
 2002      756C7420 
 2002      5665723A 
 2002      25640D0A 
 2002      00
 2003              		.section	.text.GT9147_Init,"ax",%progbits
 2004              		.align	1
 2005              		.global	GT9147_Init
 2006              		.syntax unified
 2007              		.thumb
 2008              		.thumb_func
 2009              		.fpu fpv4-sp-d16
 2011              	GT9147_Init:
 2012              	.LFB134:
  71:Core/Src/GT9147.c **** 
 2013              		.loc 1 71 1 is_stmt 1 view -0
 2014              		.cfi_startproc
 2015              		@ args = 0, pretend = 0, frame = 40
 2016              		@ frame_needed = 0, uses_anonymous_args = 0
 2017 0000 2DE9F047 		push	{r4, r5, r6, r7, r8, r9, r10, lr}
 2018              	.LCFI27:
 2019              		.cfi_def_cfa_offset 32
 2020              		.cfi_offset 4, -32
 2021              		.cfi_offset 5, -28
 2022              		.cfi_offset 6, -24
 2023              		.cfi_offset 7, -20
 2024              		.cfi_offset 8, -16
 2025              		.cfi_offset 9, -12
 2026              		.cfi_offset 10, -8
 2027              		.cfi_offset 14, -4
 2028 0004 8AB0     		sub	sp, sp, #40
 2029              	.LCFI28:
 2030              		.cfi_def_cfa_offset 72
  73:Core/Src/GT9147.c **** 
 2031              		.loc 1 73 3 view .LVU512
  75:Core/Src/GT9147.c **** 	
 2032              		.loc 1 75 3 view .LVU513
  77:Core/Src/GT9147.c ****   __HAL_RCC_GPIOC_CLK_ENABLE();			//ÂºÄÂêØGPIOCÊó∂Èíü
 2033              		.loc 1 77 2 view .LVU514
 2034              	.LBB5:
  77:Core/Src/GT9147.c ****   __HAL_RCC_GPIOC_CLK_ENABLE();			//ÂºÄÂêØGPIOCÊó∂Èíü
 2035              		.loc 1 77 2 view .LVU515
ARM GAS  /tmp/cc7DN0jJ.s 			page 49


 2036 0006 0024     		movs	r4, #0
 2037 0008 0194     		str	r4, [sp, #4]
  77:Core/Src/GT9147.c ****   __HAL_RCC_GPIOC_CLK_ENABLE();			//ÂºÄÂêØGPIOCÊó∂Èíü
 2038              		.loc 1 77 2 view .LVU516
 2039 000a 454B     		ldr	r3, .L131
 2040 000c 1A6B     		ldr	r2, [r3, #48]
 2041 000e 42F00202 		orr	r2, r2, #2
 2042 0012 1A63     		str	r2, [r3, #48]
  77:Core/Src/GT9147.c ****   __HAL_RCC_GPIOC_CLK_ENABLE();			//ÂºÄÂêØGPIOCÊó∂Èíü
 2043              		.loc 1 77 2 view .LVU517
 2044 0014 1A6B     		ldr	r2, [r3, #48]
 2045 0016 02F00202 		and	r2, r2, #2
 2046 001a 0192     		str	r2, [sp, #4]
  77:Core/Src/GT9147.c ****   __HAL_RCC_GPIOC_CLK_ENABLE();			//ÂºÄÂêØGPIOCÊó∂Èíü
 2047              		.loc 1 77 2 view .LVU518
 2048 001c 019A     		ldr	r2, [sp, #4]
 2049              	.LBE5:
  77:Core/Src/GT9147.c ****   __HAL_RCC_GPIOC_CLK_ENABLE();			//ÂºÄÂêØGPIOCÊó∂Èíü
 2050              		.loc 1 77 2 view .LVU519
  78:Core/Src/GT9147.c **** 
 2051              		.loc 1 78 3 view .LVU520
 2052              	.LBB6:
  78:Core/Src/GT9147.c **** 
 2053              		.loc 1 78 3 view .LVU521
 2054 001e 0294     		str	r4, [sp, #8]
  78:Core/Src/GT9147.c **** 
 2055              		.loc 1 78 3 view .LVU522
 2056 0020 1A6B     		ldr	r2, [r3, #48]
 2057 0022 42F00402 		orr	r2, r2, #4
 2058 0026 1A63     		str	r2, [r3, #48]
  78:Core/Src/GT9147.c **** 
 2059              		.loc 1 78 3 view .LVU523
 2060 0028 1B6B     		ldr	r3, [r3, #48]
 2061 002a 03F00403 		and	r3, r3, #4
 2062 002e 0293     		str	r3, [sp, #8]
  78:Core/Src/GT9147.c **** 
 2063              		.loc 1 78 3 view .LVU524
 2064 0030 029B     		ldr	r3, [sp, #8]
 2065              	.LBE6:
  78:Core/Src/GT9147.c **** 
 2066              		.loc 1 78 3 view .LVU525
  81:Core/Src/GT9147.c ****   GPIO_Initure.Mode=GPIO_MODE_INPUT;      //ËæìÂÖ•
 2067              		.loc 1 81 3 view .LVU526
  81:Core/Src/GT9147.c ****   GPIO_Initure.Mode=GPIO_MODE_INPUT;      //ËæìÂÖ•
 2068              		.loc 1 81 19 is_stmt 0 view .LVU527
 2069 0032 4FF0020A 		mov	r10, #2
 2070 0036 CDF80CA0 		str	r10, [sp, #12]
  82:Core/Src/GT9147.c ****   GPIO_Initure.Pull=GPIO_PULLUP;          //‰∏äÊãâ
 2071              		.loc 1 82 3 is_stmt 1 view .LVU528
  82:Core/Src/GT9147.c ****   GPIO_Initure.Pull=GPIO_PULLUP;          //‰∏äÊãâ
 2072              		.loc 1 82 20 is_stmt 0 view .LVU529
 2073 003a 0494     		str	r4, [sp, #16]
  83:Core/Src/GT9147.c ****   GPIO_Initure.Speed=GPIO_SPEED_HIGH;     //È´òÈÄü
 2074              		.loc 1 83 3 is_stmt 1 view .LVU530
  83:Core/Src/GT9147.c ****   GPIO_Initure.Speed=GPIO_SPEED_HIGH;     //È´òÈÄü
 2075              		.loc 1 83 20 is_stmt 0 view .LVU531
 2076 003c 0125     		movs	r5, #1
ARM GAS  /tmp/cc7DN0jJ.s 			page 50


 2077 003e 0595     		str	r5, [sp, #20]
  84:Core/Src/GT9147.c ****   HAL_GPIO_Init(GPIOB,&GPIO_Initure);     //ÂàùÂßãÂåñ
 2078              		.loc 1 84 3 is_stmt 1 view .LVU532
  84:Core/Src/GT9147.c ****   HAL_GPIO_Init(GPIOB,&GPIO_Initure);     //ÂàùÂßãÂåñ
 2079              		.loc 1 84 21 is_stmt 0 view .LVU533
 2080 0040 4FF00309 		mov	r9, #3
 2081 0044 CDF81890 		str	r9, [sp, #24]
  85:Core/Src/GT9147.c ****           
 2082              		.loc 1 85 3 is_stmt 1 view .LVU534
 2083 0048 DFF8E880 		ldr	r8, .L131+20
 2084 004c 03A9     		add	r1, sp, #12
 2085 004e 4046     		mov	r0, r8
 2086 0050 FFF7FEFF 		bl	HAL_GPIO_Init
 2087              	.LVL207:
  88:Core/Src/GT9147.c ****   GPIO_Initure.Mode=GPIO_MODE_OUTPUT_PP;  //Êé®ÊåΩËæìÂá∫
 2088              		.loc 1 88 3 view .LVU535
  88:Core/Src/GT9147.c ****   GPIO_Initure.Mode=GPIO_MODE_OUTPUT_PP;  //Êé®ÊåΩËæìÂá∫
 2089              		.loc 1 88 19 is_stmt 0 view .LVU536
 2090 0054 4FF40057 		mov	r7, #8192
 2091 0058 0397     		str	r7, [sp, #12]
  89:Core/Src/GT9147.c ****   HAL_GPIO_Init(GPIOC,&GPIO_Initure);     //ÂàùÂßãÂåñ
 2092              		.loc 1 89 3 is_stmt 1 view .LVU537
  89:Core/Src/GT9147.c ****   HAL_GPIO_Init(GPIOC,&GPIO_Initure);     //ÂàùÂßãÂåñ
 2093              		.loc 1 89 20 is_stmt 0 view .LVU538
 2094 005a 0495     		str	r5, [sp, #16]
  90:Core/Src/GT9147.c **** 
 2095              		.loc 1 90 3 is_stmt 1 view .LVU539
 2096 005c 314E     		ldr	r6, .L131+4
 2097 005e 03A9     		add	r1, sp, #12
 2098 0060 3046     		mov	r0, r6
 2099 0062 FFF7FEFF 		bl	HAL_GPIO_Init
 2100              	.LVL208:
  92:Core/Src/GT9147.c ****   HAL_GPIO_WritePin(GPIOC,GPIO_PIN_13,GPIO_PIN_RESET);  //Â§ç‰ΩçC13
 2101              		.loc 1 92 3 view .LVU540
 2102 0066 FFF7FEFF 		bl	CT_IIC_Init
 2103              	.LVL209:
  93:Core/Src/GT9147.c ****   HAL_Delay(10);
 2104              		.loc 1 93 3 view .LVU541
 2105 006a 2246     		mov	r2, r4
 2106 006c 3946     		mov	r1, r7
 2107 006e 3046     		mov	r0, r6
 2108 0070 FFF7FEFF 		bl	HAL_GPIO_WritePin
 2109              	.LVL210:
  94:Core/Src/GT9147.c ****   HAL_GPIO_WritePin(GPIOC,GPIO_PIN_13,GPIO_PIN_SET);//ÈáäÊîæÂ§ç‰Ωç
 2110              		.loc 1 94 3 view .LVU542
 2111 0074 0A20     		movs	r0, #10
 2112 0076 FFF7FEFF 		bl	HAL_Delay
 2113              	.LVL211:
  95:Core/Src/GT9147.c ****   HAL_Delay(10);
 2114              		.loc 1 95 3 view .LVU543
 2115 007a 2A46     		mov	r2, r5
 2116 007c 3946     		mov	r1, r7
 2117 007e 3046     		mov	r0, r6
 2118 0080 FFF7FEFF 		bl	HAL_GPIO_WritePin
 2119              	.LVL212:
  96:Core/Src/GT9147.c **** 
 2120              		.loc 1 96 3 view .LVU544
ARM GAS  /tmp/cc7DN0jJ.s 			page 51


 2121 0084 0A20     		movs	r0, #10
 2122 0086 FFF7FEFF 		bl	HAL_Delay
 2123              	.LVL213:
  98:Core/Src/GT9147.c ****   GPIO_Initure.Mode=GPIO_MODE_OUTPUT_PP;  //ËæìÂá∫Ê®°Âºè
 2124              		.loc 1 98 3 view .LVU545
  98:Core/Src/GT9147.c ****   GPIO_Initure.Mode=GPIO_MODE_OUTPUT_PP;  //ËæìÂá∫Ê®°Âºè
 2125              		.loc 1 98 19 is_stmt 0 view .LVU546
 2126 008a CDF80CA0 		str	r10, [sp, #12]
  99:Core/Src/GT9147.c ****   GPIO_Initure.Pull=GPIO_NOPULL;          //Êó†‰∏ä‰∏ãÊãâ
 2127              		.loc 1 99 3 is_stmt 1 view .LVU547
  99:Core/Src/GT9147.c ****   GPIO_Initure.Pull=GPIO_NOPULL;          //Êó†‰∏ä‰∏ãÊãâ
 2128              		.loc 1 99 20 is_stmt 0 view .LVU548
 2129 008e 0495     		str	r5, [sp, #16]
 100:Core/Src/GT9147.c ****   GPIO_Initure.Speed=GPIO_SPEED_HIGH;     //È´òÈÄü
 2130              		.loc 1 100 3 is_stmt 1 view .LVU549
 100:Core/Src/GT9147.c ****   GPIO_Initure.Speed=GPIO_SPEED_HIGH;     //È´òÈÄü
 2131              		.loc 1 100 20 is_stmt 0 view .LVU550
 2132 0090 0594     		str	r4, [sp, #20]
 101:Core/Src/GT9147.c ****   HAL_GPIO_Init(GPIOB,&GPIO_Initure);     //ÂàùÂßãÂåñ
 2133              		.loc 1 101 3 is_stmt 1 view .LVU551
 101:Core/Src/GT9147.c ****   HAL_GPIO_Init(GPIOB,&GPIO_Initure);     //ÂàùÂßãÂåñ
 2134              		.loc 1 101 21 is_stmt 0 view .LVU552
 2135 0092 CDF81890 		str	r9, [sp, #24]
 102:Core/Src/GT9147.c **** 
 2136              		.loc 1 102 3 is_stmt 1 view .LVU553
 2137 0096 03A9     		add	r1, sp, #12
 2138 0098 4046     		mov	r0, r8
 2139 009a FFF7FEFF 		bl	HAL_GPIO_Init
 2140              	.LVL214:
 104:Core/Src/GT9147.c ****   GT9147_RD_Reg(GT_PID_REG,temp,4);	//ËØªÂèñ‰∫ßÂìÅID
 2141              		.loc 1 104 3 view .LVU554
 2142 009e 6420     		movs	r0, #100
 2143 00a0 FFF7FEFF 		bl	HAL_Delay
 2144              	.LVL215:
 105:Core/Src/GT9147.c ****   temp[4]=0;
 2145              		.loc 1 105 3 view .LVU555
 2146 00a4 0422     		movs	r2, #4
 2147 00a6 08A9     		add	r1, sp, #32
 2148 00a8 48F24010 		movw	r0, #33088
 2149 00ac FFF7FEFF 		bl	GT9147_RD_Reg
 2150              	.LVL216:
 106:Core/Src/GT9147.c ****   HAL_Delay(100);
 2151              		.loc 1 106 3 view .LVU556
 106:Core/Src/GT9147.c ****   HAL_Delay(100);
 2152              		.loc 1 106 10 is_stmt 0 view .LVU557
 2153 00b0 8DF82440 		strb	r4, [sp, #36]
 107:Core/Src/GT9147.c ****   printf("CTP ID:%s\r\n",temp);		//ÊâìÂç∞ID
 2154              		.loc 1 107 3 is_stmt 1 view .LVU558
 2155 00b4 6420     		movs	r0, #100
 2156 00b6 FFF7FEFF 		bl	HAL_Delay
 2157              	.LVL217:
 108:Core/Src/GT9147.c ****   if(strcmp((char*)temp,"9147")==0)	//ID==9147
 2158              		.loc 1 108 3 view .LVU559
 2159 00ba 08A9     		add	r1, sp, #32
 2160 00bc 1A48     		ldr	r0, .L131+8
 2161 00be FFF7FEFF 		bl	printf
 2162              	.LVL218:
ARM GAS  /tmp/cc7DN0jJ.s 			page 52


 109:Core/Src/GT9147.c ****   {
 2163              		.loc 1 109 3 view .LVU560
 109:Core/Src/GT9147.c ****   {
 2164              		.loc 1 109 6 is_stmt 0 view .LVU561
 2165 00c2 1A49     		ldr	r1, .L131+12
 2166 00c4 08A8     		add	r0, sp, #32
 2167 00c6 FFF7FEFF 		bl	strcmp
 2168              	.LVL219:
 109:Core/Src/GT9147.c ****   {
 2169              		.loc 1 109 5 view .LVU562
 2170 00ca 18B1     		cbz	r0, .L129
 2171              	.L126:
 125:Core/Src/GT9147.c **** {
 2172              		.loc 1 125 1 view .LVU563
 2173 00cc 0020     		movs	r0, #0
 2174 00ce 0AB0     		add	sp, sp, #40
 2175              	.LCFI29:
 2176              		.cfi_remember_state
 2177              		.cfi_def_cfa_offset 32
 2178              		@ sp needed
 2179 00d0 BDE8F087 		pop	{r4, r5, r6, r7, r8, r9, r10, pc}
 2180              	.L129:
 2181              	.LCFI30:
 2182              		.cfi_restore_state
 111:Core/Src/GT9147.c ****     GT9147_WR_Reg(GT_CTRL_REG,temp,1);//ËΩØÂ§ç‰ΩçGT9147
 2183              		.loc 1 111 5 is_stmt 1 view .LVU564
 111:Core/Src/GT9147.c ****     GT9147_WR_Reg(GT_CTRL_REG,temp,1);//ËΩØÂ§ç‰ΩçGT9147
 2184              		.loc 1 111 12 is_stmt 0 view .LVU565
 2185 00d4 8DF820A0 		strb	r10, [sp, #32]
 112:Core/Src/GT9147.c ****     GT9147_RD_Reg(GT_CFGS_REG,temp,1);//ËØªÂèñGT_CFGS_REGÂØÑÂ≠òÂô®
 2186              		.loc 1 112 5 is_stmt 1 view .LVU566
 2187 00d8 2A46     		mov	r2, r5
 2188 00da 08A9     		add	r1, sp, #32
 2189 00dc 48F24000 		movw	r0, #32832
 2190 00e0 FFF7FEFF 		bl	GT9147_WR_Reg
 2191              	.LVL220:
 113:Core/Src/GT9147.c ****     if(temp[0]<0X60)//ÈªòËÆ§ÁâàÊú¨ÊØîËæÉ‰Ωé,ÈúÄË¶ÅÊõ¥Êñ∞flashÈÖçÁΩÆ
 2192              		.loc 1 113 5 view .LVU567
 2193 00e4 2A46     		mov	r2, r5
 2194 00e6 08A9     		add	r1, sp, #32
 2195 00e8 48F24700 		movw	r0, #32839
 2196 00ec FFF7FEFF 		bl	GT9147_RD_Reg
 2197              	.LVL221:
 114:Core/Src/GT9147.c ****     {
 2198              		.loc 1 114 5 view .LVU568
 114:Core/Src/GT9147.c ****     {
 2199              		.loc 1 114 12 is_stmt 0 view .LVU569
 2200 00f0 9DF82010 		ldrb	r1, [sp, #32]	@ zero_extendqisi2
 114:Core/Src/GT9147.c ****     {
 2201              		.loc 1 114 7 view .LVU570
 2202 00f4 5F29     		cmp	r1, #95
 2203 00f6 0CD9     		bls	.L130
 2204              	.L127:
 119:Core/Src/GT9147.c ****     temp[0]=0X00;
 2205              		.loc 1 119 5 is_stmt 1 view .LVU571
 2206 00f8 0A20     		movs	r0, #10
 2207 00fa FFF7FEFF 		bl	HAL_Delay
ARM GAS  /tmp/cc7DN0jJ.s 			page 53


 2208              	.LVL222:
 120:Core/Src/GT9147.c ****     GT9147_WR_Reg(GT_CTRL_REG,temp,1);	//ÁªìÊùüÂ§ç‰Ωç
 2209              		.loc 1 120 5 view .LVU572
 120:Core/Src/GT9147.c ****     GT9147_WR_Reg(GT_CTRL_REG,temp,1);	//ÁªìÊùüÂ§ç‰Ωç
 2210              		.loc 1 120 12 is_stmt 0 view .LVU573
 2211 00fe 0023     		movs	r3, #0
 2212 0100 8DF82030 		strb	r3, [sp, #32]
 121:Core/Src/GT9147.c ****     return 0;
 2213              		.loc 1 121 5 is_stmt 1 view .LVU574
 2214 0104 0122     		movs	r2, #1
 2215 0106 08A9     		add	r1, sp, #32
 2216 0108 48F24000 		movw	r0, #32832
 2217 010c FFF7FEFF 		bl	GT9147_WR_Reg
 2218              	.LVL223:
 122:Core/Src/GT9147.c ****   }
 2219              		.loc 1 122 5 view .LVU575
 122:Core/Src/GT9147.c ****   }
 2220              		.loc 1 122 12 is_stmt 0 view .LVU576
 2221 0110 DCE7     		b	.L126
 2222              	.L130:
 116:Core/Src/GT9147.c ****       GT9147_Send_Cfg(1);//Êõ¥Êñ∞Âπ∂‰øùÂ≠òÈÖçÁΩÆ
 2223              		.loc 1 116 7 is_stmt 1 view .LVU577
 2224 0112 0748     		ldr	r0, .L131+16
 2225 0114 FFF7FEFF 		bl	printf
 2226              	.LVL224:
 117:Core/Src/GT9147.c ****     }
 2227              		.loc 1 117 7 view .LVU578
 2228 0118 2846     		mov	r0, r5
 2229 011a FFF7FEFF 		bl	GT9147_Send_Cfg
 2230              	.LVL225:
 2231 011e EBE7     		b	.L127
 2232              	.L132:
 2233              		.align	2
 2234              	.L131:
 2235 0120 00380240 		.word	1073887232
 2236 0124 00080240 		.word	1073874944
 2237 0128 00000000 		.word	.LC0
 2238 012c 0C000000 		.word	.LC1
 2239 0130 14000000 		.word	.LC2
 2240 0134 00040240 		.word	1073873920
 2241              		.cfi_endproc
 2242              	.LFE134:
 2244              		.section	.rodata.TP_Init.str1.4,"aMS",%progbits,1
 2245              		.align	2
 2246              	.LC3:
 2247 0000 756E6B6F 		.ascii	"unkonw dev!\015\000"
 2247      6E772064 
 2247      6576210D 
 2247      00
 2248              		.section	.text.TP_Init,"ax",%progbits
 2249              		.align	1
 2250              		.global	TP_Init
 2251              		.syntax unified
 2252              		.thumb
 2253              		.thumb_func
 2254              		.fpu fpv4-sp-d16
 2256              	TP_Init:
ARM GAS  /tmp/cc7DN0jJ.s 			page 54


 2257              	.LFB140:
 265:Core/Src/GT9147.c ****   if(lcddev.id==0X5510)				//4.3ÂØ∏ÁîµÂÆπËß¶Êë∏Â±è
 2258              		.loc 1 265 1 view -0
 2259              		.cfi_startproc
 2260              		@ args = 0, pretend = 0, frame = 0
 2261              		@ frame_needed = 0, uses_anonymous_args = 0
 2262 0000 08B5     		push	{r3, lr}
 2263              	.LCFI31:
 2264              		.cfi_def_cfa_offset 8
 2265              		.cfi_offset 3, -8
 2266              		.cfi_offset 14, -4
 266:Core/Src/GT9147.c ****   {
 2267              		.loc 1 266 3 view .LVU580
 266:Core/Src/GT9147.c ****   {
 2268              		.loc 1 266 12 is_stmt 0 view .LVU581
 2269 0002 134B     		ldr	r3, .L140
 2270 0004 9A88     		ldrh	r2, [r3, #4]
 266:Core/Src/GT9147.c ****   {
 2271              		.loc 1 266 5 view .LVU582
 2272 0006 45F21053 		movw	r3, #21776
 2273 000a 9A42     		cmp	r2, r3
 2274 000c 04D0     		beq	.L139
 280:Core/Src/GT9147.c ****     return 1;
 2275              		.loc 1 280 5 is_stmt 1 view .LVU583
 2276 000e 1148     		ldr	r0, .L140+4
 2277 0010 FFF7FEFF 		bl	puts
 2278              	.LVL226:
 281:Core/Src/GT9147.c ****   }
 2279              		.loc 1 281 5 view .LVU584
 281:Core/Src/GT9147.c ****   }
 2280              		.loc 1 281 12 is_stmt 0 view .LVU585
 2281 0014 0120     		movs	r0, #1
 2282              	.L137:
 283:Core/Src/GT9147.c **** uint8_t TP_Scan(uint8_t tp)
 2283              		.loc 1 283 1 view .LVU586
 2284 0016 08BD     		pop	{r3, pc}
 2285              	.L139:
 268:Core/Src/GT9147.c ****     {
 2286              		.loc 1 268 5 is_stmt 1 view .LVU587
 268:Core/Src/GT9147.c ****     {
 2287              		.loc 1 268 8 is_stmt 0 view .LVU588
 2288 0018 FFF7FEFF 		bl	GT9147_Init
 2289              	.LVL227:
 268:Core/Src/GT9147.c ****     {
 2290              		.loc 1 268 7 view .LVU589
 2291 001c 98B9     		cbnz	r0, .L135
 271:Core/Src/GT9147.c ****     }else
 2292              		.loc 1 271 7 is_stmt 1 view .LVU590
 271:Core/Src/GT9147.c ****     }else
 2293              		.loc 1 271 20 is_stmt 0 view .LVU591
 2294 001e 0E4B     		ldr	r3, .L140+8
 2295 0020 0E4A     		ldr	r2, .L140+12
 2296 0022 5A60     		str	r2, [r3, #4]
 2297              	.L136:
 276:Core/Src/GT9147.c ****     touchdev.touchtype|=lcddev.dir&0X01;//Ê®™Â±èËøòÊòØÁ´ñÂ±è
 2298              		.loc 1 276 5 is_stmt 1 view .LVU592
 276:Core/Src/GT9147.c ****     touchdev.touchtype|=lcddev.dir&0X01;//Ê®™Â±èËøòÊòØÁ´ñÂ±è
ARM GAS  /tmp/cc7DN0jJ.s 			page 55


 2299              		.loc 1 276 23 is_stmt 0 view .LVU593
 2300 0024 0C49     		ldr	r1, .L140+8
 2301 0026 91F83030 		ldrb	r3, [r1, #48]	@ zero_extendqisi2
 2302 002a 43F08002 		orr	r2, r3, #128
 2303 002e 81F83020 		strb	r2, [r1, #48]
 277:Core/Src/GT9147.c ****     return 0;
 2304              		.loc 1 277 5 is_stmt 1 view .LVU594
 277:Core/Src/GT9147.c ****     return 0;
 2305              		.loc 1 277 31 is_stmt 0 view .LVU595
 2306 0032 074B     		ldr	r3, .L140
 2307 0034 93F90630 		ldrsb	r3, [r3, #6]
 277:Core/Src/GT9147.c ****     return 0;
 2308              		.loc 1 277 35 view .LVU596
 2309 0038 03F00103 		and	r3, r3, #1
 277:Core/Src/GT9147.c ****     return 0;
 2310              		.loc 1 277 23 view .LVU597
 2311 003c 1343     		orrs	r3, r3, r2
 2312 003e 81F83030 		strb	r3, [r1, #48]
 278:Core/Src/GT9147.c ****   }else {
 2313              		.loc 1 278 5 is_stmt 1 view .LVU598
 278:Core/Src/GT9147.c ****   }else {
 2314              		.loc 1 278 12 is_stmt 0 view .LVU599
 2315 0042 0020     		movs	r0, #0
 2316 0044 E7E7     		b	.L137
 2317              	.L135:
 274:Core/Src/GT9147.c ****     }
 2318              		.loc 1 274 7 is_stmt 1 view .LVU600
 2319 0046 0348     		ldr	r0, .L140+4
 2320 0048 FFF7FEFF 		bl	puts
 2321              	.LVL228:
 2322 004c EAE7     		b	.L136
 2323              	.L141:
 2324 004e 00BF     		.align	2
 2325              	.L140:
 2326 0050 00000000 		.word	lcddev
 2327 0054 00000000 		.word	.LC3
 2328 0058 00000000 		.word	.LANCHOR2
 2329 005c 00000000 		.word	GT9147_Scan
 2330              		.cfi_endproc
 2331              	.LFE140:
 2333              		.section	.text.GT9147_Scan,"ax",%progbits
 2334              		.align	1
 2335              		.global	GT9147_Scan
 2336              		.syntax unified
 2337              		.thumb
 2338              		.thumb_func
 2339              		.fpu fpv4-sp-d16
 2341              	GT9147_Scan:
 2342              	.LVL229:
 2343              	.LFB138:
 178:Core/Src/GT9147.c ****   uint8_t buf[4];
 2344              		.loc 1 178 1 view -0
 2345              		.cfi_startproc
 2346              		@ args = 0, pretend = 0, frame = 16
 2347              		@ frame_needed = 0, uses_anonymous_args = 0
 178:Core/Src/GT9147.c ****   uint8_t buf[4];
 2348              		.loc 1 178 1 is_stmt 0 view .LVU602
ARM GAS  /tmp/cc7DN0jJ.s 			page 56


 2349 0000 70B5     		push	{r4, r5, r6, lr}
 2350              	.LCFI32:
 2351              		.cfi_def_cfa_offset 16
 2352              		.cfi_offset 4, -16
 2353              		.cfi_offset 5, -12
 2354              		.cfi_offset 6, -8
 2355              		.cfi_offset 14, -4
 2356 0002 84B0     		sub	sp, sp, #16
 2357              	.LCFI33:
 2358              		.cfi_def_cfa_offset 32
 2359 0004 8DF80700 		strb	r0, [sp, #7]
 179:Core/Src/GT9147.c ****   uint8_t i=0;
 2360              		.loc 1 179 3 is_stmt 1 view .LVU603
 180:Core/Src/GT9147.c ****   uint8_t res=0;
 2361              		.loc 1 180 3 view .LVU604
 2362              	.LVL230:
 181:Core/Src/GT9147.c ****   uint8_t temp;
 2363              		.loc 1 181 3 view .LVU605
 182:Core/Src/GT9147.c ****   uint8_t tempsta;
 2364              		.loc 1 182 3 view .LVU606
 183:Core/Src/GT9147.c ****   static uint8_t t=0;//ÊéßÂà∂Êü•ËØ¢Èó¥Èöî,‰ªéËÄåÈôç‰ΩéCPUÂç†Áî®Áéá
 2365              		.loc 1 183 3 view .LVU607
 184:Core/Src/GT9147.c ****   t++;
 2366              		.loc 1 184 3 view .LVU608
 185:Core/Src/GT9147.c ****   if((t%10)==0||t<10)//Á©∫Èó≤Êó∂,ÊØèËøõÂÖ•10Ê¨°CTP_ScanÂáΩÊï∞ÊâçÊ£ÄÊµã1Ê¨°,‰ªéËÄåËäÇÁúÅCPU‰ΩøÁî®Áéá
 2367              		.loc 1 185 3 view .LVU609
 185:Core/Src/GT9147.c ****   if((t%10)==0||t<10)//Á©∫Èó≤Êó∂,ÊØèËøõÂÖ•10Ê¨°CTP_ScanÂáΩÊï∞ÊâçÊ£ÄÊµã1Ê¨°,‰ªéËÄåËäÇÁúÅCPU‰ΩøÁî®Áéá
 2368              		.loc 1 185 4 is_stmt 0 view .LVU610
 2369 0008 724B     		ldr	r3, .L163
 2370 000a 1A78     		ldrb	r2, [r3]	@ zero_extendqisi2
 2371 000c 0132     		adds	r2, r2, #1
 2372 000e D2B2     		uxtb	r2, r2
 2373 0010 1A70     		strb	r2, [r3]
 186:Core/Src/GT9147.c ****   {
 2374              		.loc 1 186 3 is_stmt 1 view .LVU611
 186:Core/Src/GT9147.c ****   {
 2375              		.loc 1 186 12 is_stmt 0 view .LVU612
 2376 0012 714B     		ldr	r3, .L163+4
 2377 0014 A3FB0213 		umull	r1, r3, r3, r2
 2378 0018 DB08     		lsrs	r3, r3, #3
 2379 001a 03EB8303 		add	r3, r3, r3, lsl #2
 2380 001e A2EB4303 		sub	r3, r2, r3, lsl #1
 186:Core/Src/GT9147.c ****   {
 2381              		.loc 1 186 5 view .LVU613
 2382 0022 13F0FF0F 		tst	r3, #255
 2383 0026 02D0     		beq	.L143
 186:Core/Src/GT9147.c ****   {
 2384              		.loc 1 186 15 discriminator 1 view .LVU614
 2385 0028 092A     		cmp	r2, #9
 2386 002a 00F2AD80 		bhi	.L156
 2387              	.L143:
 188:Core/Src/GT9147.c ****     if(mode&0X80&&((mode&0XF)<6))
 2388              		.loc 1 188 5 is_stmt 1 view .LVU615
 2389 002e 0122     		movs	r2, #1
 2390 0030 0DF10701 		add	r1, sp, #7
 2391 0034 48F24E10 		movw	r0, #33102
 2392              	.LVL231:
ARM GAS  /tmp/cc7DN0jJ.s 			page 57


 188:Core/Src/GT9147.c ****     if(mode&0X80&&((mode&0XF)<6))
 2393              		.loc 1 188 5 is_stmt 0 view .LVU616
 2394 0038 FFF7FEFF 		bl	GT9147_RD_Reg
 2395              	.LVL232:
 189:Core/Src/GT9147.c ****     {
 2396              		.loc 1 189 5 is_stmt 1 view .LVU617
 189:Core/Src/GT9147.c ****     {
 2397              		.loc 1 189 8 is_stmt 0 view .LVU618
 2398 003c 9DF80730 		ldrb	r3, [sp, #7]	@ zero_extendqisi2
 2399 0040 9DF90720 		ldrsb	r2, [sp, #7]
 189:Core/Src/GT9147.c ****     {
 2400              		.loc 1 189 7 view .LVU619
 2401 0044 002A     		cmp	r2, #0
 2402 0046 1CDB     		blt	.L159
 2403              	.L145:
 194:Core/Src/GT9147.c ****     {
 2404              		.loc 1 194 5 is_stmt 1 view .LVU620
 194:Core/Src/GT9147.c ****     {
 2405              		.loc 1 194 13 is_stmt 0 view .LVU621
 2406 0048 9DF80700 		ldrb	r0, [sp, #7]	@ zero_extendqisi2
 2407 004c 00F00F00 		and	r0, r0, #15
 194:Core/Src/GT9147.c ****     {
 2408              		.loc 1 194 7 view .LVU622
 2409 0050 0028     		cmp	r0, #0
 2410 0052 00F09A80 		beq	.L144
 194:Core/Src/GT9147.c ****     {
 2411              		.loc 1 194 18 discriminator 1 view .LVU623
 2412 0056 0528     		cmp	r0, #5
 2413 0058 00F2A680 		bhi	.L157
 196:Core/Src/GT9147.c ****       tempsta=touchdev.sta;			//‰øùÂ≠òÂΩìÂâçÁöÑtouchdev.staÂÄº
 2414              		.loc 1 196 7 is_stmt 1 view .LVU624
 196:Core/Src/GT9147.c ****       tempsta=touchdev.sta;			//‰øùÂ≠òÂΩìÂâçÁöÑtouchdev.staÂÄº
 2415              		.loc 1 196 16 is_stmt 0 view .LVU625
 2416 005c FF23     		movs	r3, #255
 2417 005e 8340     		lsls	r3, r3, r0
 196:Core/Src/GT9147.c ****       tempsta=touchdev.sta;			//‰øùÂ≠òÂΩìÂâçÁöÑtouchdev.staÂÄº
 2418              		.loc 1 196 11 view .LVU626
 2419 0060 DBB2     		uxtb	r3, r3
 2420 0062 8DF80B30 		strb	r3, [sp, #11]
 197:Core/Src/GT9147.c ****       touchdev.sta=(~temp)|TP_PRES_DOWN|TP_CATH_PRES;
 2421              		.loc 1 197 7 is_stmt 1 view .LVU627
 197:Core/Src/GT9147.c ****       touchdev.sta=(~temp)|TP_PRES_DOWN|TP_CATH_PRES;
 2422              		.loc 1 197 14 is_stmt 0 view .LVU628
 2423 0066 5D4A     		ldr	r2, .L163+8
 2424 0068 92F82050 		ldrb	r5, [r2, #32]	@ zero_extendqisi2
 2425              	.LVL233:
 198:Core/Src/GT9147.c ****       touchdev.x[4]=touchdev.x[0];	//‰øùÂ≠òËß¶ÁÇπ0ÁöÑÊï∞ÊçÆ
 2426              		.loc 1 198 7 is_stmt 1 view .LVU629
 198:Core/Src/GT9147.c ****       touchdev.x[4]=touchdev.x[0];	//‰øùÂ≠òËß¶ÁÇπ0ÁöÑÊï∞ÊçÆ
 2427              		.loc 1 198 40 is_stmt 0 view .LVU630
 2428 006c DB43     		mvns	r3, r3
 2429 006e 63F03F03 		orn	r3, r3, #63
 198:Core/Src/GT9147.c ****       touchdev.x[4]=touchdev.x[0];	//‰øùÂ≠òËß¶ÁÇπ0ÁöÑÊï∞ÊçÆ
 2430              		.loc 1 198 19 view .LVU631
 2431 0072 82F82030 		strb	r3, [r2, #32]
 199:Core/Src/GT9147.c ****       touchdev.y[4]=touchdev.y[0];
 2432              		.loc 1 199 7 is_stmt 1 view .LVU632
ARM GAS  /tmp/cc7DN0jJ.s 			page 58


 199:Core/Src/GT9147.c ****       touchdev.y[4]=touchdev.y[0];
 2433              		.loc 1 199 31 is_stmt 0 view .LVU633
 2434 0076 9389     		ldrh	r3, [r2, #12]
 199:Core/Src/GT9147.c ****       touchdev.y[4]=touchdev.y[0];
 2435              		.loc 1 199 20 view .LVU634
 2436 0078 9382     		strh	r3, [r2, #20]	@ movhi
 200:Core/Src/GT9147.c ****       for(i=0;i<5;i++)
 2437              		.loc 1 200 7 is_stmt 1 view .LVU635
 200:Core/Src/GT9147.c ****       for(i=0;i<5;i++)
 2438              		.loc 1 200 31 is_stmt 0 view .LVU636
 2439 007a D38A     		ldrh	r3, [r2, #22]
 200:Core/Src/GT9147.c ****       for(i=0;i<5;i++)
 2440              		.loc 1 200 20 view .LVU637
 2441 007c D383     		strh	r3, [r2, #30]	@ movhi
 201:Core/Src/GT9147.c ****       {
 2442              		.loc 1 201 7 is_stmt 1 view .LVU638
 201:Core/Src/GT9147.c ****       {
 2443              		.loc 1 201 12 is_stmt 0 view .LVU639
 2444 007e 0024     		movs	r4, #0
 201:Core/Src/GT9147.c ****       {
 2445              		.loc 1 201 7 view .LVU640
 2446 0080 26E0     		b	.L146
 2447              	.LVL234:
 2448              	.L159:
 189:Core/Src/GT9147.c ****     {
 2449              		.loc 1 189 17 discriminator 1 view .LVU641
 2450 0082 03F00F03 		and	r3, r3, #15
 2451 0086 052B     		cmp	r3, #5
 2452 0088 DED8     		bhi	.L145
 191:Core/Src/GT9147.c ****       GT9147_WR_Reg(GT_GSTID_REG,&temp,1);//Ê∏ÖÊ†áÂøó
 2453              		.loc 1 191 7 is_stmt 1 view .LVU642
 191:Core/Src/GT9147.c ****       GT9147_WR_Reg(GT_GSTID_REG,&temp,1);//Ê∏ÖÊ†áÂøó
 2454              		.loc 1 191 11 is_stmt 0 view .LVU643
 2455 008a 0023     		movs	r3, #0
 2456 008c 8DF80B30 		strb	r3, [sp, #11]
 192:Core/Src/GT9147.c ****     }
 2457              		.loc 1 192 7 is_stmt 1 view .LVU644
 2458 0090 0122     		movs	r2, #1
 2459 0092 0DF10B01 		add	r1, sp, #11
 2460 0096 48F24E10 		movw	r0, #33102
 2461 009a FFF7FEFF 		bl	GT9147_WR_Reg
 2462              	.LVL235:
 2463 009e D3E7     		b	.L145
 2464              	.LVL236:
 2465              	.L148:
 212:Core/Src/GT9147.c ****             touchdev.y[i]=((uint16_t)buf[3]<<8)+buf[2];
 2466              		.loc 1 212 13 view .LVU645
 212:Core/Src/GT9147.c ****             touchdev.y[i]=((uint16_t)buf[3]<<8)+buf[2];
 2467              		.loc 1 212 41 is_stmt 0 view .LVU646
 2468 00a0 9DF80D30 		ldrb	r3, [sp, #13]	@ zero_extendqisi2
 212:Core/Src/GT9147.c ****             touchdev.y[i]=((uint16_t)buf[3]<<8)+buf[2];
 2469              		.loc 1 212 52 view .LVU647
 2470 00a4 9DF80C10 		ldrb	r1, [sp, #12]	@ zero_extendqisi2
 212:Core/Src/GT9147.c ****             touchdev.y[i]=((uint16_t)buf[3]<<8)+buf[2];
 2471              		.loc 1 212 48 view .LVU648
 2472 00a8 01EB0321 		add	r1, r1, r3, lsl #8
 212:Core/Src/GT9147.c ****             touchdev.y[i]=((uint16_t)buf[3]<<8)+buf[2];
ARM GAS  /tmp/cc7DN0jJ.s 			page 59


 2473              		.loc 1 212 26 view .LVU649
 2474 00ac 4B4A     		ldr	r2, .L163+8
 2475 00ae 231D     		adds	r3, r4, #4
 2476 00b0 02EB4303 		add	r3, r2, r3, lsl #1
 2477 00b4 9980     		strh	r1, [r3, #4]	@ movhi
 213:Core/Src/GT9147.c ****           }
 2478              		.loc 1 213 13 is_stmt 1 view .LVU650
 213:Core/Src/GT9147.c ****           }
 2479              		.loc 1 213 41 is_stmt 0 view .LVU651
 2480 00b6 9DF80F30 		ldrb	r3, [sp, #15]	@ zero_extendqisi2
 213:Core/Src/GT9147.c ****           }
 2481              		.loc 1 213 52 view .LVU652
 2482 00ba 9DF80E10 		ldrb	r1, [sp, #14]	@ zero_extendqisi2
 213:Core/Src/GT9147.c ****           }
 2483              		.loc 1 213 48 view .LVU653
 2484 00be 01EB0321 		add	r1, r1, r3, lsl #8
 213:Core/Src/GT9147.c ****           }
 2485              		.loc 1 213 26 view .LVU654
 2486 00c2 04F10803 		add	r3, r4, #8
 2487 00c6 02EB4303 		add	r3, r2, r3, lsl #1
 2488 00ca D980     		strh	r1, [r3, #6]	@ movhi
 2489              	.L147:
 201:Core/Src/GT9147.c ****       {
 2490              		.loc 1 201 19 is_stmt 1 discriminator 2 view .LVU655
 201:Core/Src/GT9147.c ****       {
 2491              		.loc 1 201 20 is_stmt 0 discriminator 2 view .LVU656
 2492 00cc 0134     		adds	r4, r4, #1
 2493              	.LVL237:
 201:Core/Src/GT9147.c ****       {
 2494              		.loc 1 201 20 discriminator 2 view .LVU657
 2495 00ce E4B2     		uxtb	r4, r4
 2496              	.LVL238:
 2497              	.L146:
 201:Core/Src/GT9147.c ****       {
 2498              		.loc 1 201 15 is_stmt 1 discriminator 1 view .LVU658
 201:Core/Src/GT9147.c ****       {
 2499              		.loc 1 201 7 is_stmt 0 discriminator 1 view .LVU659
 2500 00d0 042C     		cmp	r4, #4
 2501 00d2 2DD8     		bhi	.L160
 203:Core/Src/GT9147.c ****         {
 2502              		.loc 1 203 9 is_stmt 1 view .LVU660
 203:Core/Src/GT9147.c ****         {
 2503              		.loc 1 203 20 is_stmt 0 view .LVU661
 2504 00d4 414B     		ldr	r3, .L163+8
 2505 00d6 93F82030 		ldrb	r3, [r3, #32]	@ zero_extendqisi2
 203:Core/Src/GT9147.c ****         {
 2506              		.loc 1 203 12 view .LVU662
 2507 00da 2341     		asrs	r3, r3, r4
 203:Core/Src/GT9147.c ****         {
 2508              		.loc 1 203 11 view .LVU663
 2509 00dc 13F0010F 		tst	r3, #1
 2510 00e0 F4D0     		beq	.L147
 205:Core/Src/GT9147.c ****           if(touchdev.touchtype&0X01)//Ê®™Â±è
 2511              		.loc 1 205 11 is_stmt 1 view .LVU664
 2512 00e2 0422     		movs	r2, #4
 2513 00e4 03A9     		add	r1, sp, #12
 2514 00e6 3E4B     		ldr	r3, .L163+12
ARM GAS  /tmp/cc7DN0jJ.s 			page 60


 2515 00e8 33F81400 		ldrh	r0, [r3, r4, lsl #1]
 2516 00ec FFF7FEFF 		bl	GT9147_RD_Reg
 2517              	.LVL239:
 206:Core/Src/GT9147.c ****           {
 2518              		.loc 1 206 11 view .LVU665
 206:Core/Src/GT9147.c ****           {
 2519              		.loc 1 206 22 is_stmt 0 view .LVU666
 2520 00f0 3A4B     		ldr	r3, .L163+8
 2521 00f2 93F83030 		ldrb	r3, [r3, #48]	@ zero_extendqisi2
 206:Core/Src/GT9147.c ****           {
 2522              		.loc 1 206 13 view .LVU667
 2523 00f6 13F0010F 		tst	r3, #1
 2524 00fa D1D0     		beq	.L148
 208:Core/Src/GT9147.c ****             touchdev.x[i]=800-(((uint16_t)buf[3]<<8)+buf[2]);
 2525              		.loc 1 208 13 is_stmt 1 view .LVU668
 208:Core/Src/GT9147.c ****             touchdev.x[i]=800-(((uint16_t)buf[3]<<8)+buf[2]);
 2526              		.loc 1 208 41 is_stmt 0 view .LVU669
 2527 00fc 9DF80D30 		ldrb	r3, [sp, #13]	@ zero_extendqisi2
 208:Core/Src/GT9147.c ****             touchdev.x[i]=800-(((uint16_t)buf[3]<<8)+buf[2]);
 2528              		.loc 1 208 52 view .LVU670
 2529 0100 9DF80C20 		ldrb	r2, [sp, #12]	@ zero_extendqisi2
 208:Core/Src/GT9147.c ****             touchdev.x[i]=800-(((uint16_t)buf[3]<<8)+buf[2]);
 2530              		.loc 1 208 48 view .LVU671
 2531 0104 02EB0322 		add	r2, r2, r3, lsl #8
 208:Core/Src/GT9147.c ****             touchdev.x[i]=800-(((uint16_t)buf[3]<<8)+buf[2]);
 2532              		.loc 1 208 26 view .LVU672
 2533 0108 3449     		ldr	r1, .L163+8
 2534 010a 04F10803 		add	r3, r4, #8
 2535 010e 01EB4303 		add	r3, r1, r3, lsl #1
 2536 0112 DA80     		strh	r2, [r3, #6]	@ movhi
 209:Core/Src/GT9147.c ****           }else
 2537              		.loc 1 209 13 is_stmt 1 view .LVU673
 209:Core/Src/GT9147.c ****           }else
 2538              		.loc 1 209 46 is_stmt 0 view .LVU674
 2539 0114 9DF80F30 		ldrb	r3, [sp, #15]	@ zero_extendqisi2
 209:Core/Src/GT9147.c ****           }else
 2540              		.loc 1 209 57 view .LVU675
 2541 0118 9DF80E20 		ldrb	r2, [sp, #14]	@ zero_extendqisi2
 209:Core/Src/GT9147.c ****           }else
 2542              		.loc 1 209 53 view .LVU676
 2543 011c 02EB0322 		add	r2, r2, r3, lsl #8
 2544 0120 92B2     		uxth	r2, r2
 209:Core/Src/GT9147.c ****           }else
 2545              		.loc 1 209 30 view .LVU677
 2546 0122 C2F54872 		rsb	r2, r2, #800
 209:Core/Src/GT9147.c ****           }else
 2547              		.loc 1 209 26 view .LVU678
 2548 0126 231D     		adds	r3, r4, #4
 2549 0128 01EB4301 		add	r1, r1, r3, lsl #1
 2550 012c 8A80     		strh	r2, [r1, #4]	@ movhi
 2551 012e CDE7     		b	.L147
 2552              	.L160:
 218:Core/Src/GT9147.c ****       if(touchdev.x[0]>lcddev.width||touchdev.y[0]>lcddev.height)//ÈùûÊ≥ïÊï∞ÊçÆ(ÂùêÊ†áË∂ÖÂá∫‰∫Ü)
 2553              		.loc 1 218 7 is_stmt 1 view .LVU679
 2554              	.LVL240:
 219:Core/Src/GT9147.c ****       {
 2555              		.loc 1 219 7 view .LVU680
ARM GAS  /tmp/cc7DN0jJ.s 			page 61


 219:Core/Src/GT9147.c ****       {
 2556              		.loc 1 219 20 is_stmt 0 view .LVU681
 2557 0130 2A4B     		ldr	r3, .L163+8
 2558 0132 9A89     		ldrh	r2, [r3, #12]
 219:Core/Src/GT9147.c ****       {
 2559              		.loc 1 219 30 view .LVU682
 2560 0134 2B4B     		ldr	r3, .L163+16
 2561 0136 1B88     		ldrh	r3, [r3]
 219:Core/Src/GT9147.c ****       {
 2562              		.loc 1 219 9 view .LVU683
 2563 0138 9A42     		cmp	r2, r3
 2564 013a 05D8     		bhi	.L150
 219:Core/Src/GT9147.c ****       {
 2565              		.loc 1 219 48 discriminator 1 view .LVU684
 2566 013c 274B     		ldr	r3, .L163+8
 2567 013e DA8A     		ldrh	r2, [r3, #22]
 219:Core/Src/GT9147.c ****       {
 2568              		.loc 1 219 58 discriminator 1 view .LVU685
 2569 0140 284B     		ldr	r3, .L163+16
 2570 0142 5B88     		ldrh	r3, [r3, #2]
 219:Core/Src/GT9147.c ****       {
 2571              		.loc 1 219 36 discriminator 1 view .LVU686
 2572 0144 9A42     		cmp	r2, r3
 2573 0146 1AD9     		bls	.L151
 2574              	.L150:
 221:Core/Src/GT9147.c ****         {
 2575              		.loc 1 221 9 is_stmt 1 view .LVU687
 221:Core/Src/GT9147.c ****         {
 2576              		.loc 1 221 22 is_stmt 0 view .LVU688
 2577 0148 9DF80730 		ldrb	r3, [sp, #7]	@ zero_extendqisi2
 221:Core/Src/GT9147.c ****         {
 2578              		.loc 1 221 11 view .LVU689
 2579 014c 13F00E0F 		tst	r3, #14
 2580 0150 09D0     		beq	.L152
 223:Core/Src/GT9147.c ****           touchdev.y[0]=touchdev.y[1];
 2581              		.loc 1 223 11 is_stmt 1 view .LVU690
 223:Core/Src/GT9147.c ****           touchdev.y[0]=touchdev.y[1];
 2582              		.loc 1 223 35 is_stmt 0 view .LVU691
 2583 0152 224B     		ldr	r3, .L163+8
 2584 0154 DA89     		ldrh	r2, [r3, #14]
 223:Core/Src/GT9147.c ****           touchdev.y[0]=touchdev.y[1];
 2585              		.loc 1 223 24 view .LVU692
 2586 0156 9A81     		strh	r2, [r3, #12]	@ movhi
 224:Core/Src/GT9147.c ****           t=0;				//Ëß¶Âèë‰∏ÄÊ¨°,Âàô‰ºöÊúÄÂ∞ëËøûÁª≠ÁõëÊµã10Ê¨°,‰ªéËÄåÊèêÈ´òÂëΩ‰∏≠Áéá
 2587              		.loc 1 224 11 is_stmt 1 view .LVU693
 224:Core/Src/GT9147.c ****           t=0;				//Ëß¶Âèë‰∏ÄÊ¨°,Âàô‰ºöÊúÄÂ∞ëËøûÁª≠ÁõëÊµã10Ê¨°,‰ªéËÄåÊèêÈ´òÂëΩ‰∏≠Áéá
 2588              		.loc 1 224 35 is_stmt 0 view .LVU694
 2589 0158 1A8B     		ldrh	r2, [r3, #24]
 224:Core/Src/GT9147.c ****           t=0;				//Ëß¶Âèë‰∏ÄÊ¨°,Âàô‰ºöÊúÄÂ∞ëËøûÁª≠ÁõëÊµã10Ê¨°,‰ªéËÄåÊèêÈ´òÂëΩ‰∏≠Áéá
 2590              		.loc 1 224 24 view .LVU695
 2591 015a DA82     		strh	r2, [r3, #22]	@ movhi
 225:Core/Src/GT9147.c ****         }else					//ÈùûÊ≥ïÊï∞ÊçÆ,ÂàôÂøΩÁï•Ê≠§Ê¨°Êï∞ÊçÆ(ËøòÂéüÂéüÊù•ÁöÑ)
 2592              		.loc 1 225 11 is_stmt 1 view .LVU696
 225:Core/Src/GT9147.c ****         }else					//ÈùûÊ≥ïÊï∞ÊçÆ,ÂàôÂøΩÁï•Ê≠§Ê¨°Êï∞ÊçÆ(ËøòÂéüÂéüÊù•ÁöÑ)
 2593              		.loc 1 225 12 is_stmt 0 view .LVU697
 2594 015c 1D4B     		ldr	r3, .L163
 2595 015e 0022     		movs	r2, #0
ARM GAS  /tmp/cc7DN0jJ.s 			page 62


 2596 0160 1A70     		strb	r2, [r3]
 218:Core/Src/GT9147.c ****       if(touchdev.x[0]>lcddev.width||touchdev.y[0]>lcddev.height)//ÈùûÊ≥ïÊï∞ÊçÆ(ÂùêÊ†áË∂ÖÂá∫‰∫Ü)
 2597              		.loc 1 218 10 view .LVU698
 2598 0162 0120     		movs	r0, #1
 2599 0164 11E0     		b	.L144
 2600              	.L152:
 228:Core/Src/GT9147.c ****           touchdev.y[0]=touchdev.y[4];
 2601              		.loc 1 228 11 is_stmt 1 view .LVU699
 228:Core/Src/GT9147.c ****           touchdev.y[0]=touchdev.y[4];
 2602              		.loc 1 228 35 is_stmt 0 view .LVU700
 2603 0166 1D4B     		ldr	r3, .L163+8
 2604 0168 9A8A     		ldrh	r2, [r3, #20]
 228:Core/Src/GT9147.c ****           touchdev.y[0]=touchdev.y[4];
 2605              		.loc 1 228 24 view .LVU701
 2606 016a 9A81     		strh	r2, [r3, #12]	@ movhi
 229:Core/Src/GT9147.c ****           mode=0X80;
 2607              		.loc 1 229 11 is_stmt 1 view .LVU702
 229:Core/Src/GT9147.c ****           mode=0X80;
 2608              		.loc 1 229 35 is_stmt 0 view .LVU703
 2609 016c DA8B     		ldrh	r2, [r3, #30]
 229:Core/Src/GT9147.c ****           mode=0X80;
 2610              		.loc 1 229 24 view .LVU704
 2611 016e DA82     		strh	r2, [r3, #22]	@ movhi
 230:Core/Src/GT9147.c ****           touchdev.sta=tempsta;	//ÊÅ¢Â§çtouchdev.sta
 2612              		.loc 1 230 11 is_stmt 1 view .LVU705
 230:Core/Src/GT9147.c ****           touchdev.sta=tempsta;	//ÊÅ¢Â§çtouchdev.sta
 2613              		.loc 1 230 15 is_stmt 0 view .LVU706
 2614 0170 8022     		movs	r2, #128
 2615 0172 8DF80720 		strb	r2, [sp, #7]
 231:Core/Src/GT9147.c ****         }
 2616              		.loc 1 231 11 is_stmt 1 view .LVU707
 231:Core/Src/GT9147.c ****         }
 2617              		.loc 1 231 23 is_stmt 0 view .LVU708
 2618 0176 83F82050 		strb	r5, [r3, #32]
 218:Core/Src/GT9147.c ****       if(touchdev.x[0]>lcddev.width||touchdev.y[0]>lcddev.height)//ÈùûÊ≥ïÊï∞ÊçÆ(ÂùêÊ†áË∂ÖÂá∫‰∫Ü)
 2619              		.loc 1 218 10 view .LVU709
 2620 017a 0120     		movs	r0, #1
 2621 017c 05E0     		b	.L144
 2622              	.L151:
 233:Core/Src/GT9147.c ****     }
 2623              		.loc 1 233 13 is_stmt 1 view .LVU710
 233:Core/Src/GT9147.c ****     }
 2624              		.loc 1 233 14 is_stmt 0 view .LVU711
 2625 017e 154B     		ldr	r3, .L163
 2626 0180 0022     		movs	r2, #0
 2627 0182 1A70     		strb	r2, [r3]
 218:Core/Src/GT9147.c ****       if(touchdev.x[0]>lcddev.width||touchdev.y[0]>lcddev.height)//ÈùûÊ≥ïÊï∞ÊçÆ(ÂùêÊ†áË∂ÖÂá∫‰∫Ü)
 2628              		.loc 1 218 10 view .LVU712
 2629 0184 0120     		movs	r0, #1
 2630 0186 00E0     		b	.L144
 2631              	.LVL241:
 2632              	.L156:
 181:Core/Src/GT9147.c ****   uint8_t temp;
 2633              		.loc 1 181 11 view .LVU713
 2634 0188 0020     		movs	r0, #0
 2635              	.LVL242:
 2636              	.L144:
ARM GAS  /tmp/cc7DN0jJ.s 			page 63


 236:Core/Src/GT9147.c ****   {
 2637              		.loc 1 236 3 is_stmt 1 view .LVU714
 236:Core/Src/GT9147.c ****   {
 2638              		.loc 1 236 11 is_stmt 0 view .LVU715
 2639 018a 9DF80730 		ldrb	r3, [sp, #7]	@ zero_extendqisi2
 236:Core/Src/GT9147.c ****   {
 2640              		.loc 1 236 5 view .LVU716
 2641 018e 03F08F03 		and	r3, r3, #143
 2642 0192 802B     		cmp	r3, #128
 2643 0194 0AD0     		beq	.L161
 2644              	.L153:
 247:Core/Src/GT9147.c **** 
 2645              		.loc 1 247 3 is_stmt 1 view .LVU717
 247:Core/Src/GT9147.c **** 
 2646              		.loc 1 247 7 is_stmt 0 view .LVU718
 2647 0196 0F4B     		ldr	r3, .L163
 2648 0198 1B78     		ldrb	r3, [r3]	@ zero_extendqisi2
 247:Core/Src/GT9147.c **** 
 2649              		.loc 1 247 5 view .LVU719
 2650 019a F02B     		cmp	r3, #240
 2651 019c 02D9     		bls	.L155
 247:Core/Src/GT9147.c **** 
 2652              		.loc 1 247 12 is_stmt 1 discriminator 1 view .LVU720
 247:Core/Src/GT9147.c **** 
 2653              		.loc 1 247 13 is_stmt 0 discriminator 1 view .LVU721
 2654 019e 0D4B     		ldr	r3, .L163
 2655 01a0 0A22     		movs	r2, #10
 2656 01a2 1A70     		strb	r2, [r3]
 2657              	.L155:
 249:Core/Src/GT9147.c **** }
 2658              		.loc 1 249 3 is_stmt 1 view .LVU722
 250:Core/Src/GT9147.c **** void TP_Write_Byte(uint8_t num)
 2659              		.loc 1 250 1 is_stmt 0 view .LVU723
 2660 01a4 04B0     		add	sp, sp, #16
 2661              	.LCFI34:
 2662              		.cfi_remember_state
 2663              		.cfi_def_cfa_offset 16
 2664              		@ sp needed
 2665 01a6 70BD     		pop	{r4, r5, r6, pc}
 2666              	.LVL243:
 2667              	.L157:
 2668              	.LCFI35:
 2669              		.cfi_restore_state
 181:Core/Src/GT9147.c ****   uint8_t temp;
 2670              		.loc 1 181 11 view .LVU724
 2671 01a8 0020     		movs	r0, #0
 2672 01aa EEE7     		b	.L144
 2673              	.LVL244:
 2674              	.L161:
 238:Core/Src/GT9147.c ****     {
 2675              		.loc 1 238 5 is_stmt 1 view .LVU725
 238:Core/Src/GT9147.c ****     {
 2676              		.loc 1 238 16 is_stmt 0 view .LVU726
 2677 01ac 0B4B     		ldr	r3, .L163+8
 2678 01ae 93F82020 		ldrb	r2, [r3, #32]	@ zero_extendqisi2
 238:Core/Src/GT9147.c ****     {
 2679              		.loc 1 238 8 view .LVU727
ARM GAS  /tmp/cc7DN0jJ.s 			page 64


 2680 01b2 93F92030 		ldrsb	r3, [r3, #32]
 238:Core/Src/GT9147.c ****     {
 2681              		.loc 1 238 7 view .LVU728
 2682 01b6 002B     		cmp	r3, #0
 2683 01b8 05DB     		blt	.L162
 243:Core/Src/GT9147.c ****       touchdev.y[0]=0xffff;
 2684              		.loc 1 243 7 is_stmt 1 view .LVU729
 243:Core/Src/GT9147.c ****       touchdev.y[0]=0xffff;
 2685              		.loc 1 243 20 is_stmt 0 view .LVU730
 2686 01ba 084B     		ldr	r3, .L163+8
 2687 01bc 4FF6FF72 		movw	r2, #65535
 2688 01c0 9A81     		strh	r2, [r3, #12]	@ movhi
 244:Core/Src/GT9147.c ****     }
 2689              		.loc 1 244 7 is_stmt 1 view .LVU731
 244:Core/Src/GT9147.c ****     }
 2690              		.loc 1 244 20 is_stmt 0 view .LVU732
 2691 01c2 DA82     		strh	r2, [r3, #22]	@ movhi
 2692 01c4 E7E7     		b	.L153
 2693              	.L162:
 240:Core/Src/GT9147.c ****     }else						//‰πãÂâçÂ∞±Ê≤°ÊúâË¢´Êåâ‰∏ã
 2694              		.loc 1 240 7 is_stmt 1 view .LVU733
 240:Core/Src/GT9147.c ****     }else						//‰πãÂâçÂ∞±Ê≤°ÊúâË¢´Êåâ‰∏ã
 2695              		.loc 1 240 19 is_stmt 0 view .LVU734
 2696 01c6 02F07F02 		and	r2, r2, #127
 2697 01ca 044B     		ldr	r3, .L163+8
 2698 01cc 83F82020 		strb	r2, [r3, #32]
 2699 01d0 E1E7     		b	.L153
 2700              	.L164:
 2701 01d2 00BF     		.align	2
 2702              	.L163:
 2703 01d4 00000000 		.word	.LANCHOR4
 2704 01d8 CDCCCCCC 		.word	-858993459
 2705 01dc 00000000 		.word	.LANCHOR2
 2706 01e0 00000000 		.word	.LANCHOR5
 2707 01e4 00000000 		.word	lcddev
 2708              		.cfi_endproc
 2709              	.LFE138:
 2711              		.global	GT9147_TPX_TBL
 2712              		.global	GT9147_CFG_TBL
 2713              		.global	CMD_RDY
 2714              		.global	CMD_RDX
 2715              		.global	touchdev
 2716              		.section	.bss.t.0,"aw",%nobits
 2717              		.set	.LANCHOR4,. + 0
 2720              	t.0:
 2721 0000 00       		.space	1
 2722              		.section	.data.CMD_RDX,"aw"
 2723              		.set	.LANCHOR0,. + 0
 2726              	CMD_RDX:
 2727 0000 D0       		.byte	-48
 2728              		.section	.data.CMD_RDY,"aw"
 2729              		.set	.LANCHOR1,. + 0
 2732              	CMD_RDY:
 2733 0000 90       		.byte	-112
 2734              		.section	.data.touchdev,"aw"
 2735              		.align	2
 2736              		.set	.LANCHOR2,. + 0
ARM GAS  /tmp/cc7DN0jJ.s 			page 65


 2739              	touchdev:
 2740 0000 00000000 		.word	TP_Init
 2741 0004 00000000 		.word	TP_Scan
 2742 0008 00000000 		.word	0
 2743 000c 0000     		.short	0
 2744 000e 0000     		.short	0
 2745 0010 0000     		.short	0
 2746 0012 0000     		.short	0
 2747 0014 0000     		.short	0
 2748 0016 0000     		.short	0
 2749 0018 0000     		.short	0
 2750 001a 0000     		.short	0
 2751 001c 0000     		.short	0
 2752 001e 0000     		.short	0
 2753 0020 00000000 		.space	24
 2753      00000000 
 2753      00000000 
 2753      00000000 
 2753      00000000 
 2754              		.section	.rodata.GT9147_CFG_TBL,"a"
 2755              		.align	2
 2756              		.set	.LANCHOR3,. + 0
 2759              	GT9147_CFG_TBL:
 2760 0000 60E00120 		.ascii	"`\340\001 \003\0055\000\002\010\036\010P<\017\005\000"
 2760      03053500 
 2760      02081E08 
 2760      503C0F05 
 2760      00
 2761 0011 00FF6750 		.ascii	"\000\377gP\000\000\030\032\036\024\211(\0120.\273\012"
 2761      0000181A 
 2761      1E148928 
 2761      0A302EBB 
 2761      0A
 2762 0022 03000002 		.ascii	"\003\000\000\0023\035\000\000\000\000\000\000\0002\000"
 2762      331D0000 
 2762      00000000 
 2762      003200
 2763 0031 002A1C5A 		.ascii	"\000*\034Z\224\305\002\007\000\000\000\265\037\000\220"
 2763      94C50207 
 2763      000000B5 
 2763      1F0090
 2764 0040 28007732 		.ascii	"(\000w2\000b?\000RP\000R\000\000\000\000\000\000\000"
 2764      00623F00 
 2764      52500052 
 2764      00000000 
 2764      000000
 2765 0053 00000000 		.ascii	"\000\000\000\000\000\000\000\000\000\000\000\000\000"
 2765      00000000 
 2765      00000000 
 2765      00
 2766 0060 0000000F 		.ascii	"\000\000\000\017\017\003\006\020B\370\017\024\000\000"
 2766      0F030610 
 2766      42F80F14 
 2766      0000
 2767 006e 00001A18 		.ascii	"\000\000\032\030\026\024\022\020\016\014\012\010\000"
 2767      16141210 
 2767      0E0C0A08 
ARM GAS  /tmp/cc7DN0jJ.s 			page 66


 2767      00
 2768 007b 00000000 		.ascii	"\000\000\000\000\000\000\000\000\000\000\000\000\000"
 2768      00000000 
 2768      00000000 
 2768      00
 2769 0088 00000000 		.ascii	"\000\000\000\000\000\000)($\" \037\036\035\016\014\012"
 2769      00002928 
 2769      2422201F 
 2769      1E1D0E0C 
 2769      0A
 2770 0099 08060504 		.ascii	"\010\006\005\004\002\000\377\000\000\000\000\000\000"
 2770      0200FF00 
 2770      00000000 
 2770      00
 2771 00a6 00000000 		.ascii	"\000\000\000\000\000\377\377\377\377\377\377\377\377"
 2771      00FFFFFF 
 2771      FFFFFFFF 
 2771      FF
 2772 00b3 FFFFFFFF 		.ascii	"\377\377\377\377\377"
 2772      FF
 2773              		.section	.rodata.GT9147_TPX_TBL,"a"
 2774              		.align	2
 2775              		.set	.LANCHOR5,. + 0
 2778              	GT9147_TPX_TBL:
 2779 0000 5081     		.short	-32432
 2780 0002 5881     		.short	-32424
 2781 0004 6081     		.short	-32416
 2782 0006 6881     		.short	-32408
 2783 0008 7081     		.short	-32400
 2784              		.text
 2785              	.Letext0:
 2786              		.file 2 "/home/akinya/gcc-arm-none-eabi/arm-none-eabi/include/machine/_default_types.h"
 2787              		.file 3 "/home/akinya/gcc-arm-none-eabi/arm-none-eabi/include/sys/_stdint.h"
 2788              		.file 4 "Drivers/CMSIS/Include/core_cm4.h"
 2789              		.file 5 "Drivers/CMSIS/Device/ST/STM32F4xx/Include/stm32f407xx.h"
 2790              		.file 6 "Drivers/STM32F4xx_HAL_Driver/Inc/stm32f4xx_hal_gpio.h"
 2791              		.file 7 "Core/Inc/fsmc.h"
 2792              		.file 8 "Core/Inc/GT9147.h"
 2793              		.file 9 "Drivers/STM32F4xx_HAL_Driver/Inc/stm32f4xx_hal.h"
 2794              		.file 10 "/home/akinya/gcc-arm-none-eabi/arm-none-eabi/include/stdio.h"
 2795              		.file 11 "/home/akinya/gcc-arm-none-eabi/arm-none-eabi/include/string.h"
 2796              		.file 12 "<built-in>"
ARM GAS  /tmp/cc7DN0jJ.s 			page 67

