ARM GAS  /tmp/cceunDCa.s 			page 1


   1              		.cpu cortex-m4
   2              		.eabi_attribute 27, 1
   3              		.eabi_attribute 28, 1
   4              		.eabi_attribute 20, 1
   5              		.eabi_attribute 21, 1
   6              		.eabi_attribute 23, 3
   7              		.eabi_attribute 24, 1
   8              		.eabi_attribute 25, 1
   9              		.eabi_attribute 26, 1
  10              		.eabi_attribute 30, 1
  11              		.eabi_attribute 34, 1
  12              		.eabi_attribute 18, 4
  13              		.file	"lv_draw_triangle.c"
  14              		.text
  15              	.Ltext0:
  16              		.cfi_sections	.debug_frame
  17              		.section	.text.lv_draw_polygon,"ax",%progbits
  18              		.align	1
  19              		.global	lv_draw_polygon
  20              		.arch armv7e-m
  21              		.syntax unified
  22              		.thumb
  23              		.thumb_func
  24              		.fpu fpv4-sp-d16
  26              	lv_draw_polygon:
  27              	.LVL0:
  28              	.LFB49:
  29              		.file 1 "Middlewares/lvgl/src/draw/lv_draw_triangle.c"
   1:Middlewares/lvgl/src/draw/lv_draw_triangle.c **** /**
   2:Middlewares/lvgl/src/draw/lv_draw_triangle.c ****  * @file lv_draw_triangle.c
   3:Middlewares/lvgl/src/draw/lv_draw_triangle.c ****  *
   4:Middlewares/lvgl/src/draw/lv_draw_triangle.c ****  */
   5:Middlewares/lvgl/src/draw/lv_draw_triangle.c **** 
   6:Middlewares/lvgl/src/draw/lv_draw_triangle.c **** /*********************
   7:Middlewares/lvgl/src/draw/lv_draw_triangle.c ****  *      INCLUDES
   8:Middlewares/lvgl/src/draw/lv_draw_triangle.c ****  *********************/
   9:Middlewares/lvgl/src/draw/lv_draw_triangle.c **** #include "lv_draw_triangle.h"
  10:Middlewares/lvgl/src/draw/lv_draw_triangle.c **** #include "../misc/lv_math.h"
  11:Middlewares/lvgl/src/draw/lv_draw_triangle.c **** #include "../misc/lv_mem.h"
  12:Middlewares/lvgl/src/draw/lv_draw_triangle.c **** 
  13:Middlewares/lvgl/src/draw/lv_draw_triangle.c **** /*********************
  14:Middlewares/lvgl/src/draw/lv_draw_triangle.c ****  *      DEFINES
  15:Middlewares/lvgl/src/draw/lv_draw_triangle.c ****  *********************/
  16:Middlewares/lvgl/src/draw/lv_draw_triangle.c **** 
  17:Middlewares/lvgl/src/draw/lv_draw_triangle.c **** /**********************
  18:Middlewares/lvgl/src/draw/lv_draw_triangle.c ****  *      TYPEDEFS
  19:Middlewares/lvgl/src/draw/lv_draw_triangle.c ****  **********************/
  20:Middlewares/lvgl/src/draw/lv_draw_triangle.c **** 
  21:Middlewares/lvgl/src/draw/lv_draw_triangle.c **** /**********************
  22:Middlewares/lvgl/src/draw/lv_draw_triangle.c ****  *  STATIC PROTOTYPES
  23:Middlewares/lvgl/src/draw/lv_draw_triangle.c ****  **********************/
  24:Middlewares/lvgl/src/draw/lv_draw_triangle.c **** 
  25:Middlewares/lvgl/src/draw/lv_draw_triangle.c **** /**********************
  26:Middlewares/lvgl/src/draw/lv_draw_triangle.c ****  *  STATIC VARIABLES
  27:Middlewares/lvgl/src/draw/lv_draw_triangle.c ****  **********************/
  28:Middlewares/lvgl/src/draw/lv_draw_triangle.c **** 
  29:Middlewares/lvgl/src/draw/lv_draw_triangle.c **** /**********************
ARM GAS  /tmp/cceunDCa.s 			page 2


  30:Middlewares/lvgl/src/draw/lv_draw_triangle.c ****  *      MACROS
  31:Middlewares/lvgl/src/draw/lv_draw_triangle.c ****  **********************/
  32:Middlewares/lvgl/src/draw/lv_draw_triangle.c **** 
  33:Middlewares/lvgl/src/draw/lv_draw_triangle.c **** /**********************
  34:Middlewares/lvgl/src/draw/lv_draw_triangle.c ****  *   GLOBAL FUNCTIONS
  35:Middlewares/lvgl/src/draw/lv_draw_triangle.c ****  **********************/
  36:Middlewares/lvgl/src/draw/lv_draw_triangle.c **** 
  37:Middlewares/lvgl/src/draw/lv_draw_triangle.c **** /**
  38:Middlewares/lvgl/src/draw/lv_draw_triangle.c ****  * Draw a triangle
  39:Middlewares/lvgl/src/draw/lv_draw_triangle.c ****  * @param points pointer to an array with 3 points
  40:Middlewares/lvgl/src/draw/lv_draw_triangle.c ****  * @param clip_area the triangle will be drawn only in this area
  41:Middlewares/lvgl/src/draw/lv_draw_triangle.c ****  * @param draw_dsc pointer to an initialized `lv_draw_rect_dsc_t` variable
  42:Middlewares/lvgl/src/draw/lv_draw_triangle.c ****  */
  43:Middlewares/lvgl/src/draw/lv_draw_triangle.c **** void lv_draw_triangle(const lv_point_t points[], const lv_area_t * clip_area, const lv_draw_rect_ds
  44:Middlewares/lvgl/src/draw/lv_draw_triangle.c **** {
  45:Middlewares/lvgl/src/draw/lv_draw_triangle.c **** #if LV_DRAW_COMPLEX
  46:Middlewares/lvgl/src/draw/lv_draw_triangle.c ****     lv_draw_polygon(points, 3, clip_area, draw_dsc);
  47:Middlewares/lvgl/src/draw/lv_draw_triangle.c **** #else
  48:Middlewares/lvgl/src/draw/lv_draw_triangle.c ****     LV_UNUSED(points);
  49:Middlewares/lvgl/src/draw/lv_draw_triangle.c ****     LV_UNUSED(clip_area);
  50:Middlewares/lvgl/src/draw/lv_draw_triangle.c ****     LV_UNUSED(draw_dsc);
  51:Middlewares/lvgl/src/draw/lv_draw_triangle.c ****     LV_LOG_WARN("Can't draw triangle with LV_DRAW_COMPLEX == 0");
  52:Middlewares/lvgl/src/draw/lv_draw_triangle.c **** #endif /*LV_DRAW_COMPLEX*/
  53:Middlewares/lvgl/src/draw/lv_draw_triangle.c **** }
  54:Middlewares/lvgl/src/draw/lv_draw_triangle.c **** 
  55:Middlewares/lvgl/src/draw/lv_draw_triangle.c **** /**
  56:Middlewares/lvgl/src/draw/lv_draw_triangle.c ****  * Draw a polygon. Only convex polygons are supported
  57:Middlewares/lvgl/src/draw/lv_draw_triangle.c ****  * @param points an array of points
  58:Middlewares/lvgl/src/draw/lv_draw_triangle.c ****  * @param point_cnt number of points
  59:Middlewares/lvgl/src/draw/lv_draw_triangle.c ****  * @param clip_area polygon will be drawn only in this area
  60:Middlewares/lvgl/src/draw/lv_draw_triangle.c ****  * @param draw_dsc pointer to an initialized `lv_draw_rect_dsc_t` variable
  61:Middlewares/lvgl/src/draw/lv_draw_triangle.c ****  */
  62:Middlewares/lvgl/src/draw/lv_draw_triangle.c **** void lv_draw_polygon(const lv_point_t points[], uint16_t point_cnt, const lv_area_t * clip_area,
  63:Middlewares/lvgl/src/draw/lv_draw_triangle.c ****                      const lv_draw_rect_dsc_t * draw_dsc)
  64:Middlewares/lvgl/src/draw/lv_draw_triangle.c **** {
  30              		.loc 1 64 1 view -0
  31              		.cfi_startproc
  32              		@ args = 0, pretend = 0, frame = 32
  33              		@ frame_needed = 0, uses_anonymous_args = 0
  34              		.loc 1 64 1 is_stmt 0 view .LVU1
  35 0000 2DE9F04F 		push	{r4, r5, r6, r7, r8, r9, r10, fp, lr}
  36              	.LCFI0:
  37              		.cfi_def_cfa_offset 36
  38              		.cfi_offset 4, -36
  39              		.cfi_offset 5, -32
  40              		.cfi_offset 6, -28
  41              		.cfi_offset 7, -24
  42              		.cfi_offset 8, -20
  43              		.cfi_offset 9, -16
  44              		.cfi_offset 10, -12
  45              		.cfi_offset 11, -8
  46              		.cfi_offset 14, -4
  47 0004 8BB0     		sub	sp, sp, #44
  48              	.LCFI1:
  49              		.cfi_def_cfa_offset 80
  50 0006 0392     		str	r2, [sp, #12]
  51 0008 0593     		str	r3, [sp, #20]
ARM GAS  /tmp/cceunDCa.s 			page 3


  65:Middlewares/lvgl/src/draw/lv_draw_triangle.c **** #if LV_DRAW_COMPLEX
  66:Middlewares/lvgl/src/draw/lv_draw_triangle.c ****     if(point_cnt < 3) return;
  52              		.loc 1 66 5 is_stmt 1 view .LVU2
  53              		.loc 1 66 7 is_stmt 0 view .LVU3
  54 000a 0229     		cmp	r1, #2
  55 000c 40F24481 		bls	.L1
  56 0010 0646     		mov	r6, r0
  57 0012 0F46     		mov	r7, r1
  67:Middlewares/lvgl/src/draw/lv_draw_triangle.c ****     if(points == NULL) return;
  58              		.loc 1 67 5 is_stmt 1 view .LVU4
  59              		.loc 1 67 7 is_stmt 0 view .LVU5
  60 0014 0028     		cmp	r0, #0
  61 0016 00F03F81 		beq	.L1
  68:Middlewares/lvgl/src/draw/lv_draw_triangle.c **** 
  69:Middlewares/lvgl/src/draw/lv_draw_triangle.c ****     /*Join adjacent points if they are on the same coordinate*/
  70:Middlewares/lvgl/src/draw/lv_draw_triangle.c ****     lv_point_t * p = lv_mem_buf_get(point_cnt * sizeof(lv_point_t));
  62              		.loc 1 70 5 is_stmt 1 view .LVU6
  63              		.loc 1 70 22 is_stmt 0 view .LVU7
  64 001a 8800     		lsls	r0, r1, #2
  65              	.LVL1:
  66              		.loc 1 70 22 view .LVU8
  67 001c FFF7FEFF 		bl	lv_mem_buf_get
  68              	.LVL2:
  71:Middlewares/lvgl/src/draw/lv_draw_triangle.c ****     if(p == NULL) return;
  69              		.loc 1 71 5 is_stmt 1 view .LVU9
  70              		.loc 1 71 7 is_stmt 0 view .LVU10
  71 0020 0446     		mov	r4, r0
  72 0022 0028     		cmp	r0, #0
  73 0024 00F03881 		beq	.L1
  72:Middlewares/lvgl/src/draw/lv_draw_triangle.c ****     uint16_t i;
  74              		.loc 1 72 5 is_stmt 1 view .LVU11
  73:Middlewares/lvgl/src/draw/lv_draw_triangle.c ****     uint16_t pcnt = 0;
  75              		.loc 1 73 5 view .LVU12
  76              	.LVL3:
  74:Middlewares/lvgl/src/draw/lv_draw_triangle.c ****     p[0] = points[0];
  77              		.loc 1 74 5 view .LVU13
  78              		.loc 1 74 10 is_stmt 0 view .LVU14
  79 0028 3368     		ldr	r3, [r6]	@ unaligned
  80 002a 0360     		str	r3, [r0]	@ unaligned
  75:Middlewares/lvgl/src/draw/lv_draw_triangle.c ****     for(i = 0; i < point_cnt - 1; i++) {
  81              		.loc 1 75 5 is_stmt 1 view .LVU15
  82              	.LVL4:
  73:Middlewares/lvgl/src/draw/lv_draw_triangle.c ****     uint16_t pcnt = 0;
  83              		.loc 1 73 14 is_stmt 0 view .LVU16
  84 002c 0025     		movs	r5, #0
  85              		.loc 1 75 11 view .LVU17
  86 002e 2B46     		mov	r3, r5
  87              		.loc 1 75 5 view .LVU18
  88 0030 06E0     		b	.L3
  89              	.LVL5:
  90              	.L4:
  76:Middlewares/lvgl/src/draw/lv_draw_triangle.c ****         if(points[i].x != points[i + 1].x || points[i].y != points[i + 1].y) {
  77:Middlewares/lvgl/src/draw/lv_draw_triangle.c ****             p[pcnt] = points[i];
  91              		.loc 1 77 13 is_stmt 1 view .LVU19
  92              		.loc 1 77 21 is_stmt 0 view .LVU20
  93 0032 3258     		ldr	r2, [r6, r0]	@ unaligned
  94 0034 44F82520 		str	r2, [r4, r5, lsl #2]	@ unaligned
ARM GAS  /tmp/cceunDCa.s 			page 4


  78:Middlewares/lvgl/src/draw/lv_draw_triangle.c ****             pcnt++;
  95              		.loc 1 78 13 is_stmt 1 view .LVU21
  96              		.loc 1 78 17 is_stmt 0 view .LVU22
  97 0038 0135     		adds	r5, r5, #1
  98              	.LVL6:
  99              		.loc 1 78 17 view .LVU23
 100 003a ADB2     		uxth	r5, r5
 101              	.LVL7:
 102              	.L5:
  75:Middlewares/lvgl/src/draw/lv_draw_triangle.c ****     for(i = 0; i < point_cnt - 1; i++) {
 103              		.loc 1 75 35 is_stmt 1 discriminator 2 view .LVU24
  75:Middlewares/lvgl/src/draw/lv_draw_triangle.c ****     for(i = 0; i < point_cnt - 1; i++) {
 104              		.loc 1 75 36 is_stmt 0 discriminator 2 view .LVU25
 105 003c 0133     		adds	r3, r3, #1
 106              	.LVL8:
  75:Middlewares/lvgl/src/draw/lv_draw_triangle.c ****     for(i = 0; i < point_cnt - 1; i++) {
 107              		.loc 1 75 36 discriminator 2 view .LVU26
 108 003e 9BB2     		uxth	r3, r3
 109              	.LVL9:
 110              	.L3:
  75:Middlewares/lvgl/src/draw/lv_draw_triangle.c ****     for(i = 0; i < point_cnt - 1; i++) {
 111              		.loc 1 75 16 is_stmt 1 discriminator 1 view .LVU27
  75:Middlewares/lvgl/src/draw/lv_draw_triangle.c ****     for(i = 0; i < point_cnt - 1; i++) {
 112              		.loc 1 75 30 is_stmt 0 discriminator 1 view .LVU28
 113 0040 7A1E     		subs	r2, r7, #1
  75:Middlewares/lvgl/src/draw/lv_draw_triangle.c ****     for(i = 0; i < point_cnt - 1; i++) {
 114              		.loc 1 75 5 discriminator 1 view .LVU29
 115 0042 9342     		cmp	r3, r2
 116 0044 12DA     		bge	.L34
  76:Middlewares/lvgl/src/draw/lv_draw_triangle.c ****         if(points[i].x != points[i + 1].x || points[i].y != points[i + 1].y) {
 117              		.loc 1 76 9 is_stmt 1 view .LVU30
  76:Middlewares/lvgl/src/draw/lv_draw_triangle.c ****         if(points[i].x != points[i + 1].x || points[i].y != points[i + 1].y) {
 118              		.loc 1 76 18 is_stmt 0 view .LVU31
 119 0046 9800     		lsls	r0, r3, #2
 120 0048 06EB830E 		add	lr, r6, r3, lsl #2
  76:Middlewares/lvgl/src/draw/lv_draw_triangle.c ****         if(points[i].x != points[i + 1].x || points[i].y != points[i + 1].y) {
 121              		.loc 1 76 21 view .LVU32
 122 004c 36F92310 		ldrsh	r1, [r6, r3, lsl #2]
  76:Middlewares/lvgl/src/draw/lv_draw_triangle.c ****         if(points[i].x != points[i + 1].x || points[i].y != points[i + 1].y) {
 123              		.loc 1 76 33 view .LVU33
 124 0050 5A1C     		adds	r2, r3, #1
 125 0052 06EB820C 		add	ip, r6, r2, lsl #2
  76:Middlewares/lvgl/src/draw/lv_draw_triangle.c ****         if(points[i].x != points[i + 1].x || points[i].y != points[i + 1].y) {
 126              		.loc 1 76 40 view .LVU34
 127 0056 36F92220 		ldrsh	r2, [r6, r2, lsl #2]
  76:Middlewares/lvgl/src/draw/lv_draw_triangle.c ****         if(points[i].x != points[i + 1].x || points[i].y != points[i + 1].y) {
 128              		.loc 1 76 11 view .LVU35
 129 005a 9142     		cmp	r1, r2
 130 005c E9D1     		bne	.L4
  76:Middlewares/lvgl/src/draw/lv_draw_triangle.c ****         if(points[i].x != points[i + 1].x || points[i].y != points[i + 1].y) {
 131              		.loc 1 76 55 discriminator 1 view .LVU36
 132 005e BEF90210 		ldrsh	r1, [lr, #2]
  76:Middlewares/lvgl/src/draw/lv_draw_triangle.c ****         if(points[i].x != points[i + 1].x || points[i].y != points[i + 1].y) {
 133              		.loc 1 76 74 discriminator 1 view .LVU37
 134 0062 BCF90220 		ldrsh	r2, [ip, #2]
  76:Middlewares/lvgl/src/draw/lv_draw_triangle.c ****         if(points[i].x != points[i + 1].x || points[i].y != points[i + 1].y) {
 135              		.loc 1 76 43 discriminator 1 view .LVU38
ARM GAS  /tmp/cceunDCa.s 			page 5


 136 0066 9142     		cmp	r1, r2
 137 0068 E3D1     		bne	.L4
 138 006a E7E7     		b	.L5
 139              	.L34:
  79:Middlewares/lvgl/src/draw/lv_draw_triangle.c ****         }
  80:Middlewares/lvgl/src/draw/lv_draw_triangle.c ****     }
  81:Middlewares/lvgl/src/draw/lv_draw_triangle.c ****     /*The first and the last points are also adjacent*/
  82:Middlewares/lvgl/src/draw/lv_draw_triangle.c ****     if(points[0].x != points[point_cnt - 1].x || points[0].y != points[point_cnt - 1].y) {
 140              		.loc 1 82 5 is_stmt 1 view .LVU39
 141              		.loc 1 82 17 is_stmt 0 view .LVU40
 142 006c B6F90020 		ldrsh	r2, [r6]
 143              		.loc 1 82 29 view .LVU41
 144 0070 07F18047 		add	r7, r7, #1073741824
 145 0074 013F     		subs	r7, r7, #1
 146 0076 06EB8701 		add	r1, r6, r7, lsl #2
 147              		.loc 1 82 44 view .LVU42
 148 007a 36F92730 		ldrsh	r3, [r6, r7, lsl #2]
 149              	.LVL10:
 150              		.loc 1 82 7 view .LVU43
 151 007e 9A42     		cmp	r2, r3
 152 0080 0FD0     		beq	.L35
 153              	.L7:
  83:Middlewares/lvgl/src/draw/lv_draw_triangle.c ****         p[pcnt] = points[point_cnt - 1];
 154              		.loc 1 83 9 is_stmt 1 view .LVU44
 155              		.loc 1 83 17 is_stmt 0 view .LVU45
 156 0082 56F82730 		ldr	r3, [r6, r7, lsl #2]	@ unaligned
 157 0086 44F82530 		str	r3, [r4, r5, lsl #2]	@ unaligned
  84:Middlewares/lvgl/src/draw/lv_draw_triangle.c ****         pcnt++;
 158              		.loc 1 84 9 is_stmt 1 view .LVU46
 159              		.loc 1 84 13 is_stmt 0 view .LVU47
 160 008a 0135     		adds	r5, r5, #1
 161              	.LVL11:
 162              		.loc 1 84 13 view .LVU48
 163 008c ADB2     		uxth	r5, r5
 164              	.LVL12:
 165              	.L8:
  85:Middlewares/lvgl/src/draw/lv_draw_triangle.c ****     }
  86:Middlewares/lvgl/src/draw/lv_draw_triangle.c **** 
  87:Middlewares/lvgl/src/draw/lv_draw_triangle.c ****     point_cnt = pcnt;
 166              		.loc 1 87 5 is_stmt 1 view .LVU49
  88:Middlewares/lvgl/src/draw/lv_draw_triangle.c ****     if(point_cnt < 3) {
 167              		.loc 1 88 5 view .LVU50
 168              		.loc 1 88 7 is_stmt 0 view .LVU51
 169 008e 022D     		cmp	r5, #2
 170 0090 0ED9     		bls	.L36
  89:Middlewares/lvgl/src/draw/lv_draw_triangle.c ****         lv_mem_buf_release(p);
  90:Middlewares/lvgl/src/draw/lv_draw_triangle.c ****         return;
  91:Middlewares/lvgl/src/draw/lv_draw_triangle.c ****     }
  92:Middlewares/lvgl/src/draw/lv_draw_triangle.c **** 
  93:Middlewares/lvgl/src/draw/lv_draw_triangle.c ****     lv_area_t poly_coords = {.x1 = LV_COORD_MAX, .y1 = LV_COORD_MAX, .x2 = LV_COORD_MIN, .y2 = LV_C
 171              		.loc 1 93 5 is_stmt 1 view .LVU52
 172              		.loc 1 93 15 is_stmt 0 view .LVU53
 173 0092 834B     		ldr	r3, .L44
 174 0094 93E80300 		ldm	r3, {r0, r1}
 175 0098 0AAB     		add	r3, sp, #40
 176 009a 03E90300 		stmdb	r3, {r0, r1}
  94:Middlewares/lvgl/src/draw/lv_draw_triangle.c **** 
ARM GAS  /tmp/cceunDCa.s 			page 6


  95:Middlewares/lvgl/src/draw/lv_draw_triangle.c ****     for(i = 0; i < point_cnt; i++) {
 177              		.loc 1 95 5 is_stmt 1 view .LVU54
 178              	.LVL13:
 179              		.loc 1 95 11 is_stmt 0 view .LVU55
 180 009e 0022     		movs	r2, #0
 181              		.loc 1 95 5 view .LVU56
 182 00a0 32E0     		b	.L10
 183              	.LVL14:
 184              	.L35:
  82:Middlewares/lvgl/src/draw/lv_draw_triangle.c ****         p[pcnt] = points[point_cnt - 1];
 185              		.loc 1 82 59 discriminator 1 view .LVU57
 186 00a2 B6F90220 		ldrsh	r2, [r6, #2]
  82:Middlewares/lvgl/src/draw/lv_draw_triangle.c ****         p[pcnt] = points[point_cnt - 1];
 187              		.loc 1 82 86 discriminator 1 view .LVU58
 188 00a6 B1F90230 		ldrsh	r3, [r1, #2]
  82:Middlewares/lvgl/src/draw/lv_draw_triangle.c ****         p[pcnt] = points[point_cnt - 1];
 189              		.loc 1 82 47 discriminator 1 view .LVU59
 190 00aa 9A42     		cmp	r2, r3
 191 00ac E9D1     		bne	.L7
 192 00ae EEE7     		b	.L8
 193              	.LVL15:
 194              	.L36:
  89:Middlewares/lvgl/src/draw/lv_draw_triangle.c ****         lv_mem_buf_release(p);
 195              		.loc 1 89 9 is_stmt 1 view .LVU60
 196 00b0 2046     		mov	r0, r4
 197 00b2 FFF7FEFF 		bl	lv_mem_buf_release
 198              	.LVL16:
  90:Middlewares/lvgl/src/draw/lv_draw_triangle.c ****     }
 199              		.loc 1 90 9 view .LVU61
 200 00b6 EFE0     		b	.L1
 201              	.LVL17:
 202              	.L11:
  96:Middlewares/lvgl/src/draw/lv_draw_triangle.c ****         poly_coords.x1 = LV_MIN(poly_coords.x1, p[i].x);
 203              		.loc 1 96 9 discriminator 3 view .LVU62
 204              		.loc 1 96 26 is_stmt 0 discriminator 3 view .LVU63
 205 00b8 04EB8201 		add	r1, r4, r2, lsl #2
 206 00bc 34F92230 		ldrsh	r3, [r4, r2, lsl #2]
 207 00c0 BDF92000 		ldrsh	r0, [sp, #32]
 208 00c4 8342     		cmp	r3, r0
 209 00c6 A8BF     		it	ge
 210 00c8 0346     		movge	r3, r0
 211              		.loc 1 96 24 discriminator 3 view .LVU64
 212 00ca ADF82030 		strh	r3, [sp, #32]	@ movhi
  97:Middlewares/lvgl/src/draw/lv_draw_triangle.c ****         poly_coords.y1 = LV_MIN(poly_coords.y1, p[i].y);
 213              		.loc 1 97 9 is_stmt 1 discriminator 3 view .LVU65
 214              		.loc 1 97 26 is_stmt 0 discriminator 3 view .LVU66
 215 00ce B1F90230 		ldrsh	r3, [r1, #2]
 216 00d2 BDF92200 		ldrsh	r0, [sp, #34]
 217 00d6 8342     		cmp	r3, r0
 218 00d8 A8BF     		it	ge
 219 00da 0346     		movge	r3, r0
 220              		.loc 1 97 24 discriminator 3 view .LVU67
 221 00dc ADF82230 		strh	r3, [sp, #34]	@ movhi
  98:Middlewares/lvgl/src/draw/lv_draw_triangle.c ****         poly_coords.x2 = LV_MAX(poly_coords.x2, p[i].x);
 222              		.loc 1 98 9 is_stmt 1 discriminator 3 view .LVU68
 223              		.loc 1 98 26 is_stmt 0 discriminator 3 view .LVU69
 224 00e0 34F92230 		ldrsh	r3, [r4, r2, lsl #2]
ARM GAS  /tmp/cceunDCa.s 			page 7


 225 00e4 BDF92400 		ldrsh	r0, [sp, #36]
 226 00e8 8342     		cmp	r3, r0
 227 00ea B8BF     		it	lt
 228 00ec 0346     		movlt	r3, r0
 229              		.loc 1 98 24 discriminator 3 view .LVU70
 230 00ee ADF82430 		strh	r3, [sp, #36]	@ movhi
  99:Middlewares/lvgl/src/draw/lv_draw_triangle.c ****         poly_coords.y2 = LV_MAX(poly_coords.y2, p[i].y);
 231              		.loc 1 99 9 is_stmt 1 discriminator 3 view .LVU71
 232              		.loc 1 99 26 is_stmt 0 discriminator 3 view .LVU72
 233 00f2 B1F90230 		ldrsh	r3, [r1, #2]
 234 00f6 BDF92610 		ldrsh	r1, [sp, #38]
 235 00fa 8B42     		cmp	r3, r1
 236 00fc B8BF     		it	lt
 237 00fe 0B46     		movlt	r3, r1
 238              		.loc 1 99 24 discriminator 3 view .LVU73
 239 0100 ADF82630 		strh	r3, [sp, #38]	@ movhi
  95:Middlewares/lvgl/src/draw/lv_draw_triangle.c ****         poly_coords.x1 = LV_MIN(poly_coords.x1, p[i].x);
 240              		.loc 1 95 31 is_stmt 1 discriminator 3 view .LVU74
  95:Middlewares/lvgl/src/draw/lv_draw_triangle.c ****         poly_coords.x1 = LV_MIN(poly_coords.x1, p[i].x);
 241              		.loc 1 95 32 is_stmt 0 discriminator 3 view .LVU75
 242 0104 0132     		adds	r2, r2, #1
 243              	.LVL18:
  95:Middlewares/lvgl/src/draw/lv_draw_triangle.c ****         poly_coords.x1 = LV_MIN(poly_coords.x1, p[i].x);
 244              		.loc 1 95 32 discriminator 3 view .LVU76
 245 0106 92B2     		uxth	r2, r2
 246              	.LVL19:
 247              	.L10:
  95:Middlewares/lvgl/src/draw/lv_draw_triangle.c ****         poly_coords.x1 = LV_MIN(poly_coords.x1, p[i].x);
 248              		.loc 1 95 16 is_stmt 1 discriminator 1 view .LVU77
  95:Middlewares/lvgl/src/draw/lv_draw_triangle.c ****         poly_coords.x1 = LV_MIN(poly_coords.x1, p[i].x);
 249              		.loc 1 95 5 is_stmt 0 discriminator 1 view .LVU78
 250 0108 AA42     		cmp	r2, r5
 251 010a D5D3     		bcc	.L11
 100:Middlewares/lvgl/src/draw/lv_draw_triangle.c ****     }
 101:Middlewares/lvgl/src/draw/lv_draw_triangle.c **** 
 102:Middlewares/lvgl/src/draw/lv_draw_triangle.c ****     bool is_common;
 252              		.loc 1 102 5 is_stmt 1 view .LVU79
 103:Middlewares/lvgl/src/draw/lv_draw_triangle.c ****     lv_area_t poly_mask;
 253              		.loc 1 103 5 view .LVU80
 104:Middlewares/lvgl/src/draw/lv_draw_triangle.c ****     is_common = _lv_area_intersect(&poly_mask, &poly_coords, clip_area);
 254              		.loc 1 104 5 view .LVU81
 255              		.loc 1 104 17 is_stmt 0 view .LVU82
 256 010c 039A     		ldr	r2, [sp, #12]
 257              	.LVL20:
 258              		.loc 1 104 17 view .LVU83
 259 010e 08A9     		add	r1, sp, #32
 260 0110 06A8     		add	r0, sp, #24
 261 0112 FFF7FEFF 		bl	_lv_area_intersect
 262              	.LVL21:
 105:Middlewares/lvgl/src/draw/lv_draw_triangle.c ****     if(!is_common) {
 263              		.loc 1 105 5 is_stmt 1 view .LVU84
 264              		.loc 1 105 7 is_stmt 0 view .LVU85
 265 0116 0290     		str	r0, [sp, #8]
 266 0118 20B1     		cbz	r0, .L37
 106:Middlewares/lvgl/src/draw/lv_draw_triangle.c ****         lv_mem_buf_release(p);
 107:Middlewares/lvgl/src/draw/lv_draw_triangle.c ****         return;
 108:Middlewares/lvgl/src/draw/lv_draw_triangle.c ****     }
ARM GAS  /tmp/cceunDCa.s 			page 8


 109:Middlewares/lvgl/src/draw/lv_draw_triangle.c ****     /*Find the lowest point*/
 110:Middlewares/lvgl/src/draw/lv_draw_triangle.c ****     lv_coord_t y_min = p[0].y;
 267              		.loc 1 110 5 is_stmt 1 view .LVU86
 268              		.loc 1 110 16 is_stmt 0 view .LVU87
 269 011a B4F90210 		ldrsh	r1, [r4, #2]
 270              	.LVL22:
 111:Middlewares/lvgl/src/draw/lv_draw_triangle.c ****     int16_t y_min_i = 0;
 271              		.loc 1 111 5 is_stmt 1 view .LVU88
 112:Middlewares/lvgl/src/draw/lv_draw_triangle.c **** 
 113:Middlewares/lvgl/src/draw/lv_draw_triangle.c ****     for(i = 1; i < point_cnt; i++) {
 272              		.loc 1 113 5 view .LVU89
 111:Middlewares/lvgl/src/draw/lv_draw_triangle.c ****     int16_t y_min_i = 0;
 273              		.loc 1 111 13 is_stmt 0 view .LVU90
 274 011e 0026     		movs	r6, #0
 275              	.LVL23:
 276              		.loc 1 113 11 view .LVU91
 277 0120 0123     		movs	r3, #1
 278              		.loc 1 113 5 view .LVU92
 279 0122 05E0     		b	.L13
 280              	.LVL24:
 281              	.L37:
 106:Middlewares/lvgl/src/draw/lv_draw_triangle.c ****         return;
 282              		.loc 1 106 9 is_stmt 1 view .LVU93
 283 0124 2046     		mov	r0, r4
 284              	.LVL25:
 106:Middlewares/lvgl/src/draw/lv_draw_triangle.c ****         return;
 285              		.loc 1 106 9 is_stmt 0 view .LVU94
 286 0126 FFF7FEFF 		bl	lv_mem_buf_release
 287              	.LVL26:
 107:Middlewares/lvgl/src/draw/lv_draw_triangle.c ****     }
 288              		.loc 1 107 9 is_stmt 1 view .LVU95
 289 012a B5E0     		b	.L1
 290              	.LVL27:
 291              	.L14:
 292              		.loc 1 113 31 discriminator 2 view .LVU96
 293              		.loc 1 113 32 is_stmt 0 discriminator 2 view .LVU97
 294 012c 0133     		adds	r3, r3, #1
 295              	.LVL28:
 296              		.loc 1 113 32 discriminator 2 view .LVU98
 297 012e 9BB2     		uxth	r3, r3
 298              	.LVL29:
 299              	.L13:
 300              		.loc 1 113 16 is_stmt 1 discriminator 1 view .LVU99
 301              		.loc 1 113 5 is_stmt 0 discriminator 1 view .LVU100
 302 0130 AB42     		cmp	r3, r5
 303 0132 08D2     		bcs	.L38
 114:Middlewares/lvgl/src/draw/lv_draw_triangle.c ****         if(p[i].y < y_min) {
 304              		.loc 1 114 9 is_stmt 1 view .LVU101
 305              		.loc 1 114 13 is_stmt 0 view .LVU102
 306 0134 04EB8302 		add	r2, r4, r3, lsl #2
 307              		.loc 1 114 16 view .LVU103
 308 0138 B2F90220 		ldrsh	r2, [r2, #2]
 309              		.loc 1 114 11 view .LVU104
 310 013c 8A42     		cmp	r2, r1
 311 013e F5DA     		bge	.L14
 115:Middlewares/lvgl/src/draw/lv_draw_triangle.c ****             y_min = p[i].y;
 312              		.loc 1 115 13 is_stmt 1 view .LVU105
ARM GAS  /tmp/cceunDCa.s 			page 9


 313              	.LVL30:
 116:Middlewares/lvgl/src/draw/lv_draw_triangle.c ****             y_min_i = i;
 314              		.loc 1 116 13 view .LVU106
 315              		.loc 1 116 21 is_stmt 0 view .LVU107
 316 0140 1EB2     		sxth	r6, r3
 317              	.LVL31:
 115:Middlewares/lvgl/src/draw/lv_draw_triangle.c ****             y_min = p[i].y;
 318              		.loc 1 115 19 view .LVU108
 319 0142 1146     		mov	r1, r2
 320 0144 F2E7     		b	.L14
 321              	.LVL32:
 322              	.L38:
 117:Middlewares/lvgl/src/draw/lv_draw_triangle.c ****         }
 118:Middlewares/lvgl/src/draw/lv_draw_triangle.c ****     }
 119:Middlewares/lvgl/src/draw/lv_draw_triangle.c **** 
 120:Middlewares/lvgl/src/draw/lv_draw_triangle.c ****     lv_draw_mask_line_param_t * mp = lv_mem_buf_get(sizeof(lv_draw_mask_line_param_t) * point_cnt);
 323              		.loc 1 120 5 is_stmt 1 view .LVU109
 324              		.loc 1 120 38 is_stmt 0 view .LVU110
 325 0146 AA46     		mov	r10, r5
 326 0148 2C20     		movs	r0, #44
 327              	.LVL33:
 328              		.loc 1 120 38 view .LVU111
 329 014a 05FB00F0 		mul	r0, r5, r0
 330 014e FFF7FEFF 		bl	lv_mem_buf_get
 331              	.LVL34:
 332              		.loc 1 120 38 view .LVU112
 333 0152 0490     		str	r0, [sp, #16]
 334              	.LVL35:
 121:Middlewares/lvgl/src/draw/lv_draw_triangle.c ****     lv_draw_mask_line_param_t * mp_next = mp;
 335              		.loc 1 121 5 is_stmt 1 view .LVU113
 122:Middlewares/lvgl/src/draw/lv_draw_triangle.c **** 
 123:Middlewares/lvgl/src/draw/lv_draw_triangle.c ****     int32_t i_prev_left = y_min_i;
 336              		.loc 1 123 5 view .LVU114
 337              		.loc 1 123 13 is_stmt 0 view .LVU115
 338 0154 3746     		mov	r7, r6
 339              	.LVL36:
 124:Middlewares/lvgl/src/draw/lv_draw_triangle.c ****     int32_t i_prev_right = y_min_i;
 340              		.loc 1 124 5 is_stmt 1 view .LVU116
 125:Middlewares/lvgl/src/draw/lv_draw_triangle.c ****     int32_t i_next_left;
 341              		.loc 1 125 5 view .LVU117
 126:Middlewares/lvgl/src/draw/lv_draw_triangle.c ****     int32_t i_next_right;
 342              		.loc 1 126 5 view .LVU118
 127:Middlewares/lvgl/src/draw/lv_draw_triangle.c ****     uint32_t mask_cnt = 0;
 343              		.loc 1 127 5 view .LVU119
 128:Middlewares/lvgl/src/draw/lv_draw_triangle.c **** 
 129:Middlewares/lvgl/src/draw/lv_draw_triangle.c ****     /*Get the index of the left and right points*/
 130:Middlewares/lvgl/src/draw/lv_draw_triangle.c ****     i_next_left = y_min_i - 1;
 344              		.loc 1 130 5 view .LVU120
 131:Middlewares/lvgl/src/draw/lv_draw_triangle.c ****     if(i_next_left < 0) i_next_left = point_cnt + i_next_left;
 345              		.loc 1 131 5 view .LVU121
 346              		.loc 1 131 7 is_stmt 0 view .LVU122
 347 0156 731E     		subs	r3, r6, #1
 348              	.LVL37:
 349              		.loc 1 131 7 view .LVU123
 350 0158 2AD4     		bmi	.L39
 351              	.L16:
 132:Middlewares/lvgl/src/draw/lv_draw_triangle.c **** 
ARM GAS  /tmp/cceunDCa.s 			page 10


 133:Middlewares/lvgl/src/draw/lv_draw_triangle.c ****     i_next_right = y_min_i + 1;
 352              		.loc 1 133 5 is_stmt 1 view .LVU124
 353              		.loc 1 133 18 is_stmt 0 view .LVU125
 354 015a 7A1C     		adds	r2, r7, #1
 355              	.LVL38:
 134:Middlewares/lvgl/src/draw/lv_draw_triangle.c ****     if(i_next_right > point_cnt - 1) i_next_right = 0;
 356              		.loc 1 134 5 is_stmt 1 view .LVU126
 357              		.loc 1 134 21 is_stmt 0 view .LVU127
 358 015c AB46     		mov	fp, r5
 359              		.loc 1 134 7 view .LVU128
 360 015e 9542     		cmp	r5, r2
 361 0160 00DC     		bgt	.L17
 362              		.loc 1 134 51 view .LVU129
 363 0162 0022     		movs	r2, #0
 364              	.LVL39:
 365              	.L17:
 135:Middlewares/lvgl/src/draw/lv_draw_triangle.c **** 
 136:Middlewares/lvgl/src/draw/lv_draw_triangle.c ****     /**
 137:Middlewares/lvgl/src/draw/lv_draw_triangle.c ****      * Check if the order of points is inverted or not.
 138:Middlewares/lvgl/src/draw/lv_draw_triangle.c ****      * The normal case is when the left point is on `y_min_i - 1`
 139:Middlewares/lvgl/src/draw/lv_draw_triangle.c ****      * Explanation:
 140:Middlewares/lvgl/src/draw/lv_draw_triangle.c ****      *   if angle(p_left) < angle(p_right) -> inverted
 141:Middlewares/lvgl/src/draw/lv_draw_triangle.c ****      *   dy_left/dx_left < dy_right/dx_right
 142:Middlewares/lvgl/src/draw/lv_draw_triangle.c ****      *   dy_left * dx_right < dy_right * dx_left
 143:Middlewares/lvgl/src/draw/lv_draw_triangle.c ****      */
 144:Middlewares/lvgl/src/draw/lv_draw_triangle.c ****     lv_coord_t dxl = p[i_next_left].x - p[y_min_i].x;
 366              		.loc 1 144 5 is_stmt 1 view .LVU130
 367              		.loc 1 144 23 is_stmt 0 view .LVU131
 368 0164 04EB830C 		add	ip, r4, r3, lsl #2
 369              		.loc 1 144 36 view .LVU132
 370 0168 34F82330 		ldrh	r3, [r4, r3, lsl #2]
 371              	.LVL40:
 372              		.loc 1 144 42 view .LVU133
 373 016c 04EB8605 		add	r5, r4, r6, lsl #2
 374              	.LVL41:
 375              		.loc 1 144 51 view .LVU134
 376 0170 34F82600 		ldrh	r0, [r4, r6, lsl #2]
 377              	.LVL42:
 378              		.loc 1 144 39 view .LVU135
 379 0174 1B1A     		subs	r3, r3, r0
 380              		.loc 1 144 16 view .LVU136
 381 0176 19B2     		sxth	r1, r3
 382              	.LVL43:
 145:Middlewares/lvgl/src/draw/lv_draw_triangle.c ****     lv_coord_t dxr = p[i_next_right].x - p[y_min_i].x;
 383              		.loc 1 145 5 is_stmt 1 view .LVU137
 384              		.loc 1 145 23 is_stmt 0 view .LVU138
 385 0178 04EB8203 		add	r3, r4, r2, lsl #2
 386              		.loc 1 145 37 view .LVU139
 387 017c 34F82220 		ldrh	r2, [r4, r2, lsl #2]
 388              	.LVL44:
 389              		.loc 1 145 40 view .LVU140
 390 0180 121A     		subs	r2, r2, r0
 391              		.loc 1 145 16 view .LVU141
 392 0182 10B2     		sxth	r0, r2
 393              	.LVL45:
 146:Middlewares/lvgl/src/draw/lv_draw_triangle.c ****     lv_coord_t dyl = p[i_next_left].y - p[y_min_i].y;
 394              		.loc 1 146 5 is_stmt 1 view .LVU142
ARM GAS  /tmp/cceunDCa.s 			page 11


 395              		.loc 1 146 36 is_stmt 0 view .LVU143
 396 0184 BCF80220 		ldrh	r2, [ip, #2]
 397              		.loc 1 146 51 view .LVU144
 398 0188 6D88     		ldrh	r5, [r5, #2]
 399              		.loc 1 146 39 view .LVU145
 400 018a 521B     		subs	r2, r2, r5
 401              		.loc 1 146 16 view .LVU146
 402 018c 12B2     		sxth	r2, r2
 403              	.LVL46:
 147:Middlewares/lvgl/src/draw/lv_draw_triangle.c ****     lv_coord_t dyr = p[i_next_right].y - p[y_min_i].y;
 404              		.loc 1 147 5 is_stmt 1 view .LVU147
 405              		.loc 1 147 37 is_stmt 0 view .LVU148
 406 018e 5B88     		ldrh	r3, [r3, #2]
 407              		.loc 1 147 40 view .LVU149
 408 0190 5B1B     		subs	r3, r3, r5
 409              		.loc 1 147 16 view .LVU150
 410 0192 1BB2     		sxth	r3, r3
 411              	.LVL47:
 148:Middlewares/lvgl/src/draw/lv_draw_triangle.c **** 
 149:Middlewares/lvgl/src/draw/lv_draw_triangle.c ****     bool inv = false;
 412              		.loc 1 149 5 is_stmt 1 view .LVU151
 150:Middlewares/lvgl/src/draw/lv_draw_triangle.c ****     if(dyl * dxr < dyr * dxl) inv = true;
 413              		.loc 1 150 5 view .LVU152
 414              		.loc 1 150 12 is_stmt 0 view .LVU153
 415 0194 00FB02F2 		mul	r2, r0, r2
 416              	.LVL48:
 417              		.loc 1 150 24 view .LVU154
 418 0198 01FB03F3 		mul	r3, r1, r3
 419              	.LVL49:
 420              		.loc 1 150 7 view .LVU155
 421 019c 9A42     		cmp	r2, r3
 422 019e 01DB     		blt	.L18
 149:Middlewares/lvgl/src/draw/lv_draw_triangle.c ****     if(dyl * dxr < dyr * dxl) inv = true;
 423              		.loc 1 149 10 view .LVU156
 424 01a0 0023     		movs	r3, #0
 425 01a2 0293     		str	r3, [sp, #8]
 426              	.L18:
 427              	.LVL50:
 149:Middlewares/lvgl/src/draw/lv_draw_triangle.c ****     if(dyl * dxr < dyr * dxl) inv = true;
 428              		.loc 1 149 10 view .LVU157
 429 01a4 B946     		mov	r9, r7
 430 01a6 049B     		ldr	r3, [sp, #16]
 431 01a8 9E46     		mov	lr, r3
 432 01aa 4FF00008 		mov	r8, #0
 433 01ae 39E0     		b	.L28
 434              	.LVL51:
 435              	.L39:
 131:Middlewares/lvgl/src/draw/lv_draw_triangle.c **** 
 436              		.loc 1 131 25 is_stmt 1 discriminator 1 view .LVU158
 131:Middlewares/lvgl/src/draw/lv_draw_triangle.c **** 
 437              		.loc 1 131 37 is_stmt 0 discriminator 1 view .LVU159
 438 01b0 2B44     		add	r3, r3, r5
 439              	.LVL52:
 131:Middlewares/lvgl/src/draw/lv_draw_triangle.c **** 
 440              		.loc 1 131 37 discriminator 1 view .LVU160
 441 01b2 D2E7     		b	.L16
 442              	.LVL53:
ARM GAS  /tmp/cceunDCa.s 			page 12


 443              	.L43:
 151:Middlewares/lvgl/src/draw/lv_draw_triangle.c **** 
 152:Middlewares/lvgl/src/draw/lv_draw_triangle.c ****     do {
 153:Middlewares/lvgl/src/draw/lv_draw_triangle.c ****         if(!inv) {
 154:Middlewares/lvgl/src/draw/lv_draw_triangle.c ****             i_next_left = i_prev_left - 1;
 155:Middlewares/lvgl/src/draw/lv_draw_triangle.c ****             if(i_next_left < 0) i_next_left = point_cnt + i_next_left;
 444              		.loc 1 155 33 is_stmt 1 discriminator 1 view .LVU161
 445              		.loc 1 155 45 is_stmt 0 discriminator 1 view .LVU162
 446 01b4 5D44     		add	r5, r5, fp
 447              	.LVL54:
 448              		.loc 1 155 45 discriminator 1 view .LVU163
 449 01b6 3AE0     		b	.L20
 450              	.LVL55:
 451              	.L19:
 156:Middlewares/lvgl/src/draw/lv_draw_triangle.c **** 
 157:Middlewares/lvgl/src/draw/lv_draw_triangle.c ****             i_next_right = i_prev_right + 1;
 158:Middlewares/lvgl/src/draw/lv_draw_triangle.c ****             if(i_next_right > point_cnt - 1) i_next_right = 0;
 159:Middlewares/lvgl/src/draw/lv_draw_triangle.c ****         }
 160:Middlewares/lvgl/src/draw/lv_draw_triangle.c ****         else {
 161:Middlewares/lvgl/src/draw/lv_draw_triangle.c ****             i_next_left = i_prev_left + 1;
 452              		.loc 1 161 13 is_stmt 1 view .LVU164
 453              		.loc 1 161 25 is_stmt 0 view .LVU165
 454 01b8 7D1C     		adds	r5, r7, #1
 455              	.LVL56:
 162:Middlewares/lvgl/src/draw/lv_draw_triangle.c ****             if(i_next_left > point_cnt - 1) i_next_left = 0;
 456              		.loc 1 162 13 is_stmt 1 view .LVU166
 457              		.loc 1 162 15 is_stmt 0 view .LVU167
 458 01ba AB45     		cmp	fp, r5
 459 01bc 00DC     		bgt	.L22
 460              		.loc 1 162 57 view .LVU168
 461 01be 0025     		movs	r5, #0
 462              	.LVL57:
 463              	.L22:
 163:Middlewares/lvgl/src/draw/lv_draw_triangle.c **** 
 164:Middlewares/lvgl/src/draw/lv_draw_triangle.c ****             i_next_right = i_prev_right - 1;
 464              		.loc 1 164 13 is_stmt 1 view .LVU169
 165:Middlewares/lvgl/src/draw/lv_draw_triangle.c ****             if(i_next_right < 0) i_next_right = point_cnt + i_next_right;
 465              		.loc 1 165 13 view .LVU170
 466              		.loc 1 165 15 is_stmt 0 view .LVU171
 467 01c0 B9F10106 		subs	r6, r9, #1
 468              	.LVL58:
 469              		.loc 1 165 15 view .LVU172
 470 01c4 39D4     		bmi	.L40
 471              	.LVL59:
 472              	.L21:
 166:Middlewares/lvgl/src/draw/lv_draw_triangle.c ****         }
 167:Middlewares/lvgl/src/draw/lv_draw_triangle.c **** 
 168:Middlewares/lvgl/src/draw/lv_draw_triangle.c ****         if(p[i_next_left].y >=  p[i_prev_left].y) {
 473              		.loc 1 168 9 is_stmt 1 view .LVU173
 474              		.loc 1 168 13 is_stmt 0 view .LVU174
 475 01c6 4FEA850C 		lsl	ip, r5, #2
 476 01ca 04EB8503 		add	r3, r4, r5, lsl #2
 477              		.loc 1 168 26 view .LVU175
 478 01ce B3F90200 		ldrsh	r0, [r3, #2]
 479              		.loc 1 168 34 view .LVU176
 480 01d2 B900     		lsls	r1, r7, #2
 481 01d4 04EB8703 		add	r3, r4, r7, lsl #2
ARM GAS  /tmp/cceunDCa.s 			page 13


 482              		.loc 1 168 47 view .LVU177
 483 01d8 B3F90220 		ldrsh	r2, [r3, #2]
 484              		.loc 1 168 11 view .LVU178
 485 01dc 9042     		cmp	r0, r2
 486 01de 08DB     		blt	.L23
 169:Middlewares/lvgl/src/draw/lv_draw_triangle.c ****             if(p[i_next_left].y != p[i_prev_left].y &&
 487              		.loc 1 169 13 is_stmt 1 view .LVU179
 488              		.loc 1 169 15 is_stmt 0 view .LVU180
 489 01e0 04D0     		beq	.L24
 170:Middlewares/lvgl/src/draw/lv_draw_triangle.c ****                p[i_next_left].x !=  p[i_prev_left].x) {
 490              		.loc 1 170 30 discriminator 1 view .LVU181
 491 01e2 34F90C30 		ldrsh	r3, [r4, ip]
 492              		.loc 1 170 51 discriminator 1 view .LVU182
 493 01e6 615E     		ldrsh	r1, [r4, r1]
 169:Middlewares/lvgl/src/draw/lv_draw_triangle.c ****             if(p[i_next_left].y != p[i_prev_left].y &&
 494              		.loc 1 169 53 discriminator 1 view .LVU183
 495 01e8 8B42     		cmp	r3, r1
 496 01ea 28D1     		bne	.L41
 497              	.LVL60:
 498              	.L24:
 171:Middlewares/lvgl/src/draw/lv_draw_triangle.c ****                 lv_draw_mask_line_points_init(mp_next, p[i_prev_left].x, p[i_prev_left].y,
 172:Middlewares/lvgl/src/draw/lv_draw_triangle.c ****                                               p[i_next_left].x, p[i_next_left].y,
 173:Middlewares/lvgl/src/draw/lv_draw_triangle.c ****                                               LV_DRAW_MASK_LINE_SIDE_RIGHT);
 174:Middlewares/lvgl/src/draw/lv_draw_triangle.c ****                 lv_draw_mask_add(mp_next, mp);
 175:Middlewares/lvgl/src/draw/lv_draw_triangle.c ****                 mp_next++;
 176:Middlewares/lvgl/src/draw/lv_draw_triangle.c ****             }
 177:Middlewares/lvgl/src/draw/lv_draw_triangle.c ****             mask_cnt++;
 499              		.loc 1 177 13 is_stmt 1 view .LVU184
 500              		.loc 1 177 21 is_stmt 0 view .LVU185
 501 01ec 08F10108 		add	r8, r8, #1
 502              	.LVL61:
 178:Middlewares/lvgl/src/draw/lv_draw_triangle.c ****             i_prev_left = i_next_left;
 503              		.loc 1 178 13 is_stmt 1 view .LVU186
 504              		.loc 1 178 25 is_stmt 0 view .LVU187
 505 01f0 2F46     		mov	r7, r5
 506              	.LVL62:
 507              	.L23:
 179:Middlewares/lvgl/src/draw/lv_draw_triangle.c ****         }
 180:Middlewares/lvgl/src/draw/lv_draw_triangle.c **** 
 181:Middlewares/lvgl/src/draw/lv_draw_triangle.c ****         if(mask_cnt == point_cnt) break;
 508              		.loc 1 181 9 is_stmt 1 view .LVU188
 509              		.loc 1 181 11 is_stmt 0 view .LVU189
 510 01f2 C245     		cmp	r10, r8
 511 01f4 41D0     		beq	.L25
 182:Middlewares/lvgl/src/draw/lv_draw_triangle.c **** 
 183:Middlewares/lvgl/src/draw/lv_draw_triangle.c ****         if(p[i_next_right].y >=  p[i_prev_right].y) {
 512              		.loc 1 183 9 is_stmt 1 view .LVU190
 513              		.loc 1 183 13 is_stmt 0 view .LVU191
 514 01f6 B500     		lsls	r5, r6, #2
 515              	.LVL63:
 516              		.loc 1 183 13 view .LVU192
 517 01f8 04EB8603 		add	r3, r4, r6, lsl #2
 518              		.loc 1 183 27 view .LVU193
 519 01fc B3F90200 		ldrsh	r0, [r3, #2]
 520              		.loc 1 183 35 view .LVU194
 521 0200 4FEA8901 		lsl	r1, r9, #2
 522 0204 04EB8903 		add	r3, r4, r9, lsl #2
ARM GAS  /tmp/cceunDCa.s 			page 14


 523              		.loc 1 183 49 view .LVU195
 524 0208 B3F90220 		ldrsh	r2, [r3, #2]
 525              		.loc 1 183 11 view .LVU196
 526 020c 9042     		cmp	r0, r2
 527 020e 07DB     		blt	.L26
 184:Middlewares/lvgl/src/draw/lv_draw_triangle.c ****             if(p[i_next_right].y != p[i_prev_right].y &&
 528              		.loc 1 184 13 is_stmt 1 view .LVU197
 529              		.loc 1 184 15 is_stmt 0 view .LVU198
 530 0210 03D0     		beq	.L27
 185:Middlewares/lvgl/src/draw/lv_draw_triangle.c ****                p[i_next_right].x !=  p[i_prev_right].x) {
 531              		.loc 1 185 31 discriminator 1 view .LVU199
 532 0212 635F     		ldrsh	r3, [r4, r5]
 533              		.loc 1 185 53 discriminator 1 view .LVU200
 534 0214 615E     		ldrsh	r1, [r4, r1]
 184:Middlewares/lvgl/src/draw/lv_draw_triangle.c ****             if(p[i_next_right].y != p[i_prev_right].y &&
 535              		.loc 1 184 55 discriminator 1 view .LVU201
 536 0216 8B42     		cmp	r3, r1
 537 0218 20D1     		bne	.L42
 538              	.L27:
 186:Middlewares/lvgl/src/draw/lv_draw_triangle.c **** 
 187:Middlewares/lvgl/src/draw/lv_draw_triangle.c ****                 lv_draw_mask_line_points_init(mp_next, p[i_prev_right].x, p[i_prev_right].y,
 188:Middlewares/lvgl/src/draw/lv_draw_triangle.c ****                                               p[i_next_right].x, p[i_next_right].y,
 189:Middlewares/lvgl/src/draw/lv_draw_triangle.c ****                                               LV_DRAW_MASK_LINE_SIDE_LEFT);
 190:Middlewares/lvgl/src/draw/lv_draw_triangle.c ****                 lv_draw_mask_add(mp_next, mp);
 191:Middlewares/lvgl/src/draw/lv_draw_triangle.c ****                 mp_next++;
 192:Middlewares/lvgl/src/draw/lv_draw_triangle.c ****             }
 193:Middlewares/lvgl/src/draw/lv_draw_triangle.c ****             mask_cnt++;
 539              		.loc 1 193 13 is_stmt 1 view .LVU202
 540              		.loc 1 193 21 is_stmt 0 view .LVU203
 541 021a 08F10108 		add	r8, r8, #1
 542              	.LVL64:
 194:Middlewares/lvgl/src/draw/lv_draw_triangle.c ****             i_prev_right = i_next_right;
 543              		.loc 1 194 13 is_stmt 1 view .LVU204
 544              		.loc 1 194 26 is_stmt 0 view .LVU205
 545 021e B146     		mov	r9, r6
 546              	.LVL65:
 547              	.L26:
 195:Middlewares/lvgl/src/draw/lv_draw_triangle.c ****         }
 196:Middlewares/lvgl/src/draw/lv_draw_triangle.c **** 
 197:Middlewares/lvgl/src/draw/lv_draw_triangle.c ****     } while(mask_cnt < point_cnt);
 548              		.loc 1 197 12 is_stmt 1 view .LVU206
 549              		.loc 1 197 5 is_stmt 0 view .LVU207
 550 0220 C245     		cmp	r10, r8
 551 0222 2AD9     		bls	.L25
 552              	.LVL66:
 553              	.L28:
 152:Middlewares/lvgl/src/draw/lv_draw_triangle.c ****         if(!inv) {
 554              		.loc 1 152 5 is_stmt 1 view .LVU208
 153:Middlewares/lvgl/src/draw/lv_draw_triangle.c ****             i_next_left = i_prev_left - 1;
 555              		.loc 1 153 9 view .LVU209
 153:Middlewares/lvgl/src/draw/lv_draw_triangle.c ****             i_next_left = i_prev_left - 1;
 556              		.loc 1 153 11 is_stmt 0 view .LVU210
 557 0224 029B     		ldr	r3, [sp, #8]
 558 0226 002B     		cmp	r3, #0
 559 0228 C6D1     		bne	.L19
 154:Middlewares/lvgl/src/draw/lv_draw_triangle.c ****             if(i_next_left < 0) i_next_left = point_cnt + i_next_left;
 560              		.loc 1 154 13 is_stmt 1 view .LVU211
ARM GAS  /tmp/cceunDCa.s 			page 15


 561              	.LVL67:
 155:Middlewares/lvgl/src/draw/lv_draw_triangle.c **** 
 562              		.loc 1 155 13 view .LVU212
 155:Middlewares/lvgl/src/draw/lv_draw_triangle.c **** 
 563              		.loc 1 155 15 is_stmt 0 view .LVU213
 564 022a 7D1E     		subs	r5, r7, #1
 565              	.LVL68:
 155:Middlewares/lvgl/src/draw/lv_draw_triangle.c **** 
 566              		.loc 1 155 15 view .LVU214
 567 022c C2D4     		bmi	.L43
 568              	.L20:
 157:Middlewares/lvgl/src/draw/lv_draw_triangle.c ****             if(i_next_right > point_cnt - 1) i_next_right = 0;
 569              		.loc 1 157 13 is_stmt 1 view .LVU215
 157:Middlewares/lvgl/src/draw/lv_draw_triangle.c ****             if(i_next_right > point_cnt - 1) i_next_right = 0;
 570              		.loc 1 157 26 is_stmt 0 view .LVU216
 571 022e 09F10106 		add	r6, r9, #1
 572              	.LVL69:
 158:Middlewares/lvgl/src/draw/lv_draw_triangle.c ****         }
 573              		.loc 1 158 13 is_stmt 1 view .LVU217
 158:Middlewares/lvgl/src/draw/lv_draw_triangle.c ****         }
 574              		.loc 1 158 15 is_stmt 0 view .LVU218
 575 0232 B345     		cmp	fp, r6
 576 0234 C7DC     		bgt	.L21
 158:Middlewares/lvgl/src/draw/lv_draw_triangle.c ****         }
 577              		.loc 1 158 59 view .LVU219
 578 0236 0026     		movs	r6, #0
 579              	.LVL70:
 158:Middlewares/lvgl/src/draw/lv_draw_triangle.c ****         }
 580              		.loc 1 158 59 view .LVU220
 581 0238 C5E7     		b	.L21
 582              	.LVL71:
 583              	.L40:
 165:Middlewares/lvgl/src/draw/lv_draw_triangle.c ****         }
 584              		.loc 1 165 34 is_stmt 1 discriminator 1 view .LVU221
 165:Middlewares/lvgl/src/draw/lv_draw_triangle.c ****         }
 585              		.loc 1 165 47 is_stmt 0 discriminator 1 view .LVU222
 586 023a 5E44     		add	r6, r6, fp
 587              	.LVL72:
 165:Middlewares/lvgl/src/draw/lv_draw_triangle.c ****         }
 588              		.loc 1 165 47 discriminator 1 view .LVU223
 589 023c C3E7     		b	.L21
 590              	.L41:
 171:Middlewares/lvgl/src/draw/lv_draw_triangle.c ****                                               p[i_next_left].x, p[i_next_left].y,
 591              		.loc 1 171 17 is_stmt 1 view .LVU224
 592 023e 0127     		movs	r7, #1
 593              	.LVL73:
 171:Middlewares/lvgl/src/draw/lv_draw_triangle.c ****                                               p[i_next_left].x, p[i_next_left].y,
 594              		.loc 1 171 17 is_stmt 0 view .LVU225
 595 0240 0197     		str	r7, [sp, #4]
 596 0242 0090     		str	r0, [sp]
 597 0244 7746     		mov	r7, lr
 598 0246 7046     		mov	r0, lr
 599 0248 FFF7FEFF 		bl	lv_draw_mask_line_points_init
 600              	.LVL74:
 174:Middlewares/lvgl/src/draw/lv_draw_triangle.c ****                 mp_next++;
 601              		.loc 1 174 17 is_stmt 1 view .LVU226
 602 024c 0499     		ldr	r1, [sp, #16]
ARM GAS  /tmp/cceunDCa.s 			page 16


 603 024e 3846     		mov	r0, r7
 604 0250 FFF7FEFF 		bl	lv_draw_mask_add
 605              	.LVL75:
 175:Middlewares/lvgl/src/draw/lv_draw_triangle.c ****             }
 606              		.loc 1 175 17 view .LVU227
 175:Middlewares/lvgl/src/draw/lv_draw_triangle.c ****             }
 607              		.loc 1 175 24 is_stmt 0 view .LVU228
 608 0254 3B46     		mov	r3, r7
 609 0256 2C33     		adds	r3, r3, #44
 610 0258 9E46     		mov	lr, r3
 611              	.LVL76:
 175:Middlewares/lvgl/src/draw/lv_draw_triangle.c ****             }
 612              		.loc 1 175 24 view .LVU229
 613 025a C7E7     		b	.L24
 614              	.LVL77:
 615              	.L42:
 187:Middlewares/lvgl/src/draw/lv_draw_triangle.c ****                                               p[i_next_right].x, p[i_next_right].y,
 616              		.loc 1 187 17 is_stmt 1 view .LVU230
 617 025c 0025     		movs	r5, #0
 618 025e 0195     		str	r5, [sp, #4]
 619 0260 0090     		str	r0, [sp]
 620 0262 7546     		mov	r5, lr
 621 0264 7046     		mov	r0, lr
 622 0266 FFF7FEFF 		bl	lv_draw_mask_line_points_init
 623              	.LVL78:
 190:Middlewares/lvgl/src/draw/lv_draw_triangle.c ****                 mp_next++;
 624              		.loc 1 190 17 view .LVU231
 625 026a 0499     		ldr	r1, [sp, #16]
 626 026c 2846     		mov	r0, r5
 627 026e FFF7FEFF 		bl	lv_draw_mask_add
 628              	.LVL79:
 191:Middlewares/lvgl/src/draw/lv_draw_triangle.c ****             }
 629              		.loc 1 191 17 view .LVU232
 191:Middlewares/lvgl/src/draw/lv_draw_triangle.c ****             }
 630              		.loc 1 191 24 is_stmt 0 view .LVU233
 631 0272 2B46     		mov	r3, r5
 632 0274 2C33     		adds	r3, r3, #44
 633 0276 9E46     		mov	lr, r3
 634              	.LVL80:
 191:Middlewares/lvgl/src/draw/lv_draw_triangle.c ****             }
 635              		.loc 1 191 24 view .LVU234
 636 0278 CFE7     		b	.L27
 637              	.LVL81:
 638              	.L25:
 198:Middlewares/lvgl/src/draw/lv_draw_triangle.c **** 
 199:Middlewares/lvgl/src/draw/lv_draw_triangle.c ****     lv_draw_rect(&poly_coords, clip_area, draw_dsc);
 639              		.loc 1 199 5 is_stmt 1 view .LVU235
 640 027a 059A     		ldr	r2, [sp, #20]
 641 027c 0399     		ldr	r1, [sp, #12]
 642 027e 08A8     		add	r0, sp, #32
 643 0280 FFF7FEFF 		bl	lv_draw_rect
 644              	.LVL82:
 200:Middlewares/lvgl/src/draw/lv_draw_triangle.c **** 
 201:Middlewares/lvgl/src/draw/lv_draw_triangle.c ****     lv_draw_mask_remove_custom(mp);
 645              		.loc 1 201 5 view .LVU236
 646 0284 049D     		ldr	r5, [sp, #16]
 647 0286 2846     		mov	r0, r5
ARM GAS  /tmp/cceunDCa.s 			page 17


 648 0288 FFF7FEFF 		bl	lv_draw_mask_remove_custom
 649              	.LVL83:
 202:Middlewares/lvgl/src/draw/lv_draw_triangle.c **** 
 203:Middlewares/lvgl/src/draw/lv_draw_triangle.c ****     lv_mem_buf_release(mp);
 650              		.loc 1 203 5 view .LVU237
 651 028c 2846     		mov	r0, r5
 652 028e FFF7FEFF 		bl	lv_mem_buf_release
 653              	.LVL84:
 204:Middlewares/lvgl/src/draw/lv_draw_triangle.c ****     lv_mem_buf_release(p);
 654              		.loc 1 204 5 view .LVU238
 655 0292 2046     		mov	r0, r4
 656 0294 FFF7FEFF 		bl	lv_mem_buf_release
 657              	.LVL85:
 658              	.L1:
 205:Middlewares/lvgl/src/draw/lv_draw_triangle.c **** #else
 206:Middlewares/lvgl/src/draw/lv_draw_triangle.c ****     LV_UNUSED(points);
 207:Middlewares/lvgl/src/draw/lv_draw_triangle.c ****     LV_UNUSED(point_cnt);
 208:Middlewares/lvgl/src/draw/lv_draw_triangle.c ****     LV_UNUSED(clip_area);
 209:Middlewares/lvgl/src/draw/lv_draw_triangle.c ****     LV_UNUSED(draw_dsc);
 210:Middlewares/lvgl/src/draw/lv_draw_triangle.c ****     LV_LOG_WARN("Can't draw polygon with LV_DRAW_COMPLEX == 0");
 211:Middlewares/lvgl/src/draw/lv_draw_triangle.c **** #endif /*LV_DRAW_COMPLEX*/
 212:Middlewares/lvgl/src/draw/lv_draw_triangle.c **** }
 659              		.loc 1 212 1 is_stmt 0 view .LVU239
 660 0298 0BB0     		add	sp, sp, #44
 661              	.LCFI2:
 662              		.cfi_def_cfa_offset 36
 663              		@ sp needed
 664 029a BDE8F08F 		pop	{r4, r5, r6, r7, r8, r9, r10, fp, pc}
 665              	.LVL86:
 666              	.L45:
 667              		.loc 1 212 1 view .LVU240
 668 029e 00BF     		.align	2
 669              	.L44:
 670 02a0 00000000 		.word	.LANCHOR0
 671              		.cfi_endproc
 672              	.LFE49:
 674              		.section	.text.lv_draw_triangle,"ax",%progbits
 675              		.align	1
 676              		.global	lv_draw_triangle
 677              		.syntax unified
 678              		.thumb
 679              		.thumb_func
 680              		.fpu fpv4-sp-d16
 682              	lv_draw_triangle:
 683              	.LVL87:
 684              	.LFB48:
  44:Middlewares/lvgl/src/draw/lv_draw_triangle.c **** #if LV_DRAW_COMPLEX
 685              		.loc 1 44 1 is_stmt 1 view -0
 686              		.cfi_startproc
 687              		@ args = 0, pretend = 0, frame = 0
 688              		@ frame_needed = 0, uses_anonymous_args = 0
  44:Middlewares/lvgl/src/draw/lv_draw_triangle.c **** #if LV_DRAW_COMPLEX
 689              		.loc 1 44 1 is_stmt 0 view .LVU242
 690 0000 08B5     		push	{r3, lr}
 691              	.LCFI3:
 692              		.cfi_def_cfa_offset 8
 693              		.cfi_offset 3, -8
ARM GAS  /tmp/cceunDCa.s 			page 18


 694              		.cfi_offset 14, -4
 695 0002 1346     		mov	r3, r2
  46:Middlewares/lvgl/src/draw/lv_draw_triangle.c **** #else
 696              		.loc 1 46 5 is_stmt 1 view .LVU243
 697 0004 0A46     		mov	r2, r1
 698              	.LVL88:
  46:Middlewares/lvgl/src/draw/lv_draw_triangle.c **** #else
 699              		.loc 1 46 5 is_stmt 0 view .LVU244
 700 0006 0321     		movs	r1, #3
 701              	.LVL89:
  46:Middlewares/lvgl/src/draw/lv_draw_triangle.c **** #else
 702              		.loc 1 46 5 view .LVU245
 703 0008 FFF7FEFF 		bl	lv_draw_polygon
 704              	.LVL90:
  53:Middlewares/lvgl/src/draw/lv_draw_triangle.c **** 
 705              		.loc 1 53 1 view .LVU246
 706 000c 08BD     		pop	{r3, pc}
 707              		.cfi_endproc
 708              	.LFE48:
 710              		.section	.rodata
 711              		.align	2
 712              		.set	.LANCHOR0,. + 0
 713              	.LC0:
 714 0000 0060     		.short	24576
 715 0002 0060     		.short	24576
 716 0004 00A0     		.short	-24576
 717 0006 00A0     		.short	-24576
 718              		.text
 719              	.Letext0:
 720              		.file 2 "/home/akinya/gcc-arm-none-eabi/arm-none-eabi/include/machine/_default_types.h"
 721              		.file 3 "/home/akinya/gcc-arm-none-eabi/arm-none-eabi/include/sys/_stdint.h"
 722              		.file 4 "Middlewares/lvgl/src/draw/../misc/lv_color.h"
 723              		.file 5 "Middlewares/lvgl/src/draw/../misc/lv_area.h"
 724              		.file 6 "Middlewares/lvgl/src/draw/../misc/lv_style.h"
 725              		.file 7 "Middlewares/lvgl/src/draw/lv_draw_mask.h"
 726              		.file 8 "Middlewares/lvgl/src/draw/lv_draw_rect.h"
 727              		.file 9 "Middlewares/lvgl/src/draw/../misc/lv_mem.h"
ARM GAS  /tmp/cceunDCa.s 			page 19

