ARM GAS  /tmp/ccBZPfuw.s 			page 1


   1              		.cpu cortex-m4
   2              		.eabi_attribute 27, 1
   3              		.eabi_attribute 28, 1
   4              		.eabi_attribute 20, 1
   5              		.eabi_attribute 21, 1
   6              		.eabi_attribute 23, 3
   7              		.eabi_attribute 24, 1
   8              		.eabi_attribute 25, 1
   9              		.eabi_attribute 26, 1
  10              		.eabi_attribute 30, 1
  11              		.eabi_attribute 34, 1
  12              		.eabi_attribute 18, 4
  13              		.file	"lv_draw_img.c"
  14              		.text
  15              	.Ltext0:
  16              		.cfi_sections	.debug_frame
  17              		.section	.text.draw_cleanup,"ax",%progbits
  18              		.align	1
  19              		.arch armv7e-m
  20              		.syntax unified
  21              		.thumb
  22              		.thumb_func
  23              		.fpu fpv4-sp-d16
  25              	draw_cleanup:
  26              	.LVL0:
  27              	.LFB156:
  28              		.file 1 "Middlewares/lvgl/src/draw/lv_draw_img.c"
   1:Middlewares/lvgl/src/draw/lv_draw_img.c **** /**
   2:Middlewares/lvgl/src/draw/lv_draw_img.c ****  * @file lv_draw_img.c
   3:Middlewares/lvgl/src/draw/lv_draw_img.c ****  *
   4:Middlewares/lvgl/src/draw/lv_draw_img.c ****  */
   5:Middlewares/lvgl/src/draw/lv_draw_img.c **** 
   6:Middlewares/lvgl/src/draw/lv_draw_img.c **** /*********************
   7:Middlewares/lvgl/src/draw/lv_draw_img.c ****  *      INCLUDES
   8:Middlewares/lvgl/src/draw/lv_draw_img.c ****  *********************/
   9:Middlewares/lvgl/src/draw/lv_draw_img.c **** #include "lv_draw_img.h"
  10:Middlewares/lvgl/src/draw/lv_draw_img.c **** #include "lv_img_cache.h"
  11:Middlewares/lvgl/src/draw/lv_draw_img.c **** #include "../hal/lv_hal_disp.h"
  12:Middlewares/lvgl/src/draw/lv_draw_img.c **** #include "../misc/lv_log.h"
  13:Middlewares/lvgl/src/draw/lv_draw_img.c **** #include "../core/lv_refr.h"
  14:Middlewares/lvgl/src/draw/lv_draw_img.c **** #include "../misc/lv_mem.h"
  15:Middlewares/lvgl/src/draw/lv_draw_img.c **** #include "../misc/lv_math.h"
  16:Middlewares/lvgl/src/draw/lv_draw_img.c **** #if LV_USE_GPU_STM32_DMA2D
  17:Middlewares/lvgl/src/draw/lv_draw_img.c ****     #include "../gpu/lv_gpu_stm32_dma2d.h"
  18:Middlewares/lvgl/src/draw/lv_draw_img.c **** #elif LV_USE_GPU_NXP_PXP
  19:Middlewares/lvgl/src/draw/lv_draw_img.c ****     #include "../gpu/lv_gpu_nxp_pxp.h"
  20:Middlewares/lvgl/src/draw/lv_draw_img.c **** #endif
  21:Middlewares/lvgl/src/draw/lv_draw_img.c **** 
  22:Middlewares/lvgl/src/draw/lv_draw_img.c **** /*********************
  23:Middlewares/lvgl/src/draw/lv_draw_img.c ****  *      DEFINES
  24:Middlewares/lvgl/src/draw/lv_draw_img.c ****  *********************/
  25:Middlewares/lvgl/src/draw/lv_draw_img.c **** 
  26:Middlewares/lvgl/src/draw/lv_draw_img.c **** /**********************
  27:Middlewares/lvgl/src/draw/lv_draw_img.c ****  *      TYPEDEFS
  28:Middlewares/lvgl/src/draw/lv_draw_img.c ****  **********************/
  29:Middlewares/lvgl/src/draw/lv_draw_img.c **** 
  30:Middlewares/lvgl/src/draw/lv_draw_img.c **** /**********************
ARM GAS  /tmp/ccBZPfuw.s 			page 2


  31:Middlewares/lvgl/src/draw/lv_draw_img.c ****  *  STATIC PROTOTYPES
  32:Middlewares/lvgl/src/draw/lv_draw_img.c ****  **********************/
  33:Middlewares/lvgl/src/draw/lv_draw_img.c **** LV_ATTRIBUTE_FAST_MEM static lv_res_t lv_img_draw_core(const lv_area_t * coords, const lv_area_t * 
  34:Middlewares/lvgl/src/draw/lv_draw_img.c ****                                                        const void * src,
  35:Middlewares/lvgl/src/draw/lv_draw_img.c ****                                                        const lv_draw_img_dsc_t * draw_dsc);
  36:Middlewares/lvgl/src/draw/lv_draw_img.c **** 
  37:Middlewares/lvgl/src/draw/lv_draw_img.c **** LV_ATTRIBUTE_FAST_MEM static void lv_draw_map(const lv_area_t * map_area, const lv_area_t * clip_ar
  38:Middlewares/lvgl/src/draw/lv_draw_img.c ****                                               const uint8_t * map_p,
  39:Middlewares/lvgl/src/draw/lv_draw_img.c ****                                               const lv_draw_img_dsc_t * draw_dsc,
  40:Middlewares/lvgl/src/draw/lv_draw_img.c ****                                               bool chroma_key, bool alpha_byte);
  41:Middlewares/lvgl/src/draw/lv_draw_img.c **** 
  42:Middlewares/lvgl/src/draw/lv_draw_img.c **** static void show_error(const lv_area_t * coords, const lv_area_t * clip_area, const char * msg);
  43:Middlewares/lvgl/src/draw/lv_draw_img.c **** static void draw_cleanup(_lv_img_cache_entry_t * cache);
  44:Middlewares/lvgl/src/draw/lv_draw_img.c **** 
  45:Middlewares/lvgl/src/draw/lv_draw_img.c **** /**********************
  46:Middlewares/lvgl/src/draw/lv_draw_img.c ****  *  STATIC VARIABLES
  47:Middlewares/lvgl/src/draw/lv_draw_img.c ****  **********************/
  48:Middlewares/lvgl/src/draw/lv_draw_img.c **** 
  49:Middlewares/lvgl/src/draw/lv_draw_img.c **** /**********************
  50:Middlewares/lvgl/src/draw/lv_draw_img.c ****  *      MACROS
  51:Middlewares/lvgl/src/draw/lv_draw_img.c ****  **********************/
  52:Middlewares/lvgl/src/draw/lv_draw_img.c **** 
  53:Middlewares/lvgl/src/draw/lv_draw_img.c **** /**********************
  54:Middlewares/lvgl/src/draw/lv_draw_img.c ****  *   GLOBAL FUNCTIONS
  55:Middlewares/lvgl/src/draw/lv_draw_img.c ****  **********************/
  56:Middlewares/lvgl/src/draw/lv_draw_img.c **** 
  57:Middlewares/lvgl/src/draw/lv_draw_img.c **** void lv_draw_img_dsc_init(lv_draw_img_dsc_t * dsc)
  58:Middlewares/lvgl/src/draw/lv_draw_img.c **** {
  59:Middlewares/lvgl/src/draw/lv_draw_img.c ****     lv_memset_00(dsc, sizeof(lv_draw_img_dsc_t));
  60:Middlewares/lvgl/src/draw/lv_draw_img.c ****     dsc->recolor = lv_color_black();
  61:Middlewares/lvgl/src/draw/lv_draw_img.c ****     dsc->opa = LV_OPA_COVER;
  62:Middlewares/lvgl/src/draw/lv_draw_img.c ****     dsc->zoom = LV_IMG_ZOOM_NONE;
  63:Middlewares/lvgl/src/draw/lv_draw_img.c ****     dsc->antialias = LV_COLOR_DEPTH > 8 ? 1 : 0;
  64:Middlewares/lvgl/src/draw/lv_draw_img.c **** }
  65:Middlewares/lvgl/src/draw/lv_draw_img.c **** 
  66:Middlewares/lvgl/src/draw/lv_draw_img.c **** /**
  67:Middlewares/lvgl/src/draw/lv_draw_img.c ****  * Draw an image
  68:Middlewares/lvgl/src/draw/lv_draw_img.c ****  * @param coords the coordinates of the image
  69:Middlewares/lvgl/src/draw/lv_draw_img.c ****  * @param mask the image will be drawn only in this area
  70:Middlewares/lvgl/src/draw/lv_draw_img.c ****  * @param src pointer to a lv_color_t array which contains the pixels of the image
  71:Middlewares/lvgl/src/draw/lv_draw_img.c ****  * @param dsc pointer to an initialized `lv_draw_img_dsc_t` variable
  72:Middlewares/lvgl/src/draw/lv_draw_img.c ****  */
  73:Middlewares/lvgl/src/draw/lv_draw_img.c **** void lv_draw_img(const lv_area_t * coords, const lv_area_t * mask, const void * src, const lv_draw_
  74:Middlewares/lvgl/src/draw/lv_draw_img.c **** {
  75:Middlewares/lvgl/src/draw/lv_draw_img.c ****     if(src == NULL) {
  76:Middlewares/lvgl/src/draw/lv_draw_img.c ****         LV_LOG_WARN("Image draw: src is NULL");
  77:Middlewares/lvgl/src/draw/lv_draw_img.c ****         show_error(coords, mask, "No\ndata");
  78:Middlewares/lvgl/src/draw/lv_draw_img.c ****         return;
  79:Middlewares/lvgl/src/draw/lv_draw_img.c ****     }
  80:Middlewares/lvgl/src/draw/lv_draw_img.c **** 
  81:Middlewares/lvgl/src/draw/lv_draw_img.c ****     if(dsc->opa <= LV_OPA_MIN) return;
  82:Middlewares/lvgl/src/draw/lv_draw_img.c **** 
  83:Middlewares/lvgl/src/draw/lv_draw_img.c ****     lv_res_t res;
  84:Middlewares/lvgl/src/draw/lv_draw_img.c ****     res = lv_img_draw_core(coords, mask, src, dsc);
  85:Middlewares/lvgl/src/draw/lv_draw_img.c **** 
  86:Middlewares/lvgl/src/draw/lv_draw_img.c ****     if(res == LV_RES_INV) {
  87:Middlewares/lvgl/src/draw/lv_draw_img.c ****         LV_LOG_WARN("Image draw error");
ARM GAS  /tmp/ccBZPfuw.s 			page 3


  88:Middlewares/lvgl/src/draw/lv_draw_img.c ****         show_error(coords, mask, "No\ndata");
  89:Middlewares/lvgl/src/draw/lv_draw_img.c ****         return;
  90:Middlewares/lvgl/src/draw/lv_draw_img.c ****     }
  91:Middlewares/lvgl/src/draw/lv_draw_img.c **** }
  92:Middlewares/lvgl/src/draw/lv_draw_img.c **** 
  93:Middlewares/lvgl/src/draw/lv_draw_img.c **** /**
  94:Middlewares/lvgl/src/draw/lv_draw_img.c ****  * Get the pixel size of a color format in bits
  95:Middlewares/lvgl/src/draw/lv_draw_img.c ****  * @param cf a color format (`LV_IMG_CF_...`)
  96:Middlewares/lvgl/src/draw/lv_draw_img.c ****  * @return the pixel size in bits
  97:Middlewares/lvgl/src/draw/lv_draw_img.c ****  */
  98:Middlewares/lvgl/src/draw/lv_draw_img.c **** uint8_t lv_img_cf_get_px_size(lv_img_cf_t cf)
  99:Middlewares/lvgl/src/draw/lv_draw_img.c **** {
 100:Middlewares/lvgl/src/draw/lv_draw_img.c ****     uint8_t px_size = 0;
 101:Middlewares/lvgl/src/draw/lv_draw_img.c **** 
 102:Middlewares/lvgl/src/draw/lv_draw_img.c ****     switch(cf) {
 103:Middlewares/lvgl/src/draw/lv_draw_img.c ****         case LV_IMG_CF_UNKNOWN:
 104:Middlewares/lvgl/src/draw/lv_draw_img.c ****         case LV_IMG_CF_RAW:
 105:Middlewares/lvgl/src/draw/lv_draw_img.c ****             px_size = 0;
 106:Middlewares/lvgl/src/draw/lv_draw_img.c ****             break;
 107:Middlewares/lvgl/src/draw/lv_draw_img.c ****         case LV_IMG_CF_TRUE_COLOR:
 108:Middlewares/lvgl/src/draw/lv_draw_img.c ****         case LV_IMG_CF_TRUE_COLOR_CHROMA_KEYED:
 109:Middlewares/lvgl/src/draw/lv_draw_img.c ****             px_size = LV_COLOR_SIZE;
 110:Middlewares/lvgl/src/draw/lv_draw_img.c ****             break;
 111:Middlewares/lvgl/src/draw/lv_draw_img.c ****         case LV_IMG_CF_TRUE_COLOR_ALPHA:
 112:Middlewares/lvgl/src/draw/lv_draw_img.c ****             px_size = LV_IMG_PX_SIZE_ALPHA_BYTE << 3;
 113:Middlewares/lvgl/src/draw/lv_draw_img.c ****             break;
 114:Middlewares/lvgl/src/draw/lv_draw_img.c ****         case LV_IMG_CF_INDEXED_1BIT:
 115:Middlewares/lvgl/src/draw/lv_draw_img.c ****         case LV_IMG_CF_ALPHA_1BIT:
 116:Middlewares/lvgl/src/draw/lv_draw_img.c ****             px_size = 1;
 117:Middlewares/lvgl/src/draw/lv_draw_img.c ****             break;
 118:Middlewares/lvgl/src/draw/lv_draw_img.c ****         case LV_IMG_CF_INDEXED_2BIT:
 119:Middlewares/lvgl/src/draw/lv_draw_img.c ****         case LV_IMG_CF_ALPHA_2BIT:
 120:Middlewares/lvgl/src/draw/lv_draw_img.c ****             px_size = 2;
 121:Middlewares/lvgl/src/draw/lv_draw_img.c ****             break;
 122:Middlewares/lvgl/src/draw/lv_draw_img.c ****         case LV_IMG_CF_INDEXED_4BIT:
 123:Middlewares/lvgl/src/draw/lv_draw_img.c ****         case LV_IMG_CF_ALPHA_4BIT:
 124:Middlewares/lvgl/src/draw/lv_draw_img.c ****             px_size = 4;
 125:Middlewares/lvgl/src/draw/lv_draw_img.c ****             break;
 126:Middlewares/lvgl/src/draw/lv_draw_img.c ****         case LV_IMG_CF_INDEXED_8BIT:
 127:Middlewares/lvgl/src/draw/lv_draw_img.c ****         case LV_IMG_CF_ALPHA_8BIT:
 128:Middlewares/lvgl/src/draw/lv_draw_img.c ****             px_size = 8;
 129:Middlewares/lvgl/src/draw/lv_draw_img.c ****             break;
 130:Middlewares/lvgl/src/draw/lv_draw_img.c ****         default:
 131:Middlewares/lvgl/src/draw/lv_draw_img.c ****             px_size = 0;
 132:Middlewares/lvgl/src/draw/lv_draw_img.c ****             break;
 133:Middlewares/lvgl/src/draw/lv_draw_img.c ****     }
 134:Middlewares/lvgl/src/draw/lv_draw_img.c **** 
 135:Middlewares/lvgl/src/draw/lv_draw_img.c ****     return px_size;
 136:Middlewares/lvgl/src/draw/lv_draw_img.c **** }
 137:Middlewares/lvgl/src/draw/lv_draw_img.c **** 
 138:Middlewares/lvgl/src/draw/lv_draw_img.c **** /**
 139:Middlewares/lvgl/src/draw/lv_draw_img.c ****  * Check if a color format is chroma keyed or not
 140:Middlewares/lvgl/src/draw/lv_draw_img.c ****  * @param cf a color format (`LV_IMG_CF_...`)
 141:Middlewares/lvgl/src/draw/lv_draw_img.c ****  * @return true: chroma keyed; false: not chroma keyed
 142:Middlewares/lvgl/src/draw/lv_draw_img.c ****  */
 143:Middlewares/lvgl/src/draw/lv_draw_img.c **** bool lv_img_cf_is_chroma_keyed(lv_img_cf_t cf)
 144:Middlewares/lvgl/src/draw/lv_draw_img.c **** {
ARM GAS  /tmp/ccBZPfuw.s 			page 4


 145:Middlewares/lvgl/src/draw/lv_draw_img.c ****     bool is_chroma_keyed = false;
 146:Middlewares/lvgl/src/draw/lv_draw_img.c **** 
 147:Middlewares/lvgl/src/draw/lv_draw_img.c ****     switch(cf) {
 148:Middlewares/lvgl/src/draw/lv_draw_img.c ****         case LV_IMG_CF_TRUE_COLOR_CHROMA_KEYED:
 149:Middlewares/lvgl/src/draw/lv_draw_img.c ****         case LV_IMG_CF_RAW_CHROMA_KEYED:
 150:Middlewares/lvgl/src/draw/lv_draw_img.c ****         case LV_IMG_CF_INDEXED_1BIT:
 151:Middlewares/lvgl/src/draw/lv_draw_img.c ****         case LV_IMG_CF_INDEXED_2BIT:
 152:Middlewares/lvgl/src/draw/lv_draw_img.c ****         case LV_IMG_CF_INDEXED_4BIT:
 153:Middlewares/lvgl/src/draw/lv_draw_img.c ****         case LV_IMG_CF_INDEXED_8BIT:
 154:Middlewares/lvgl/src/draw/lv_draw_img.c ****             is_chroma_keyed = true;
 155:Middlewares/lvgl/src/draw/lv_draw_img.c ****             break;
 156:Middlewares/lvgl/src/draw/lv_draw_img.c **** 
 157:Middlewares/lvgl/src/draw/lv_draw_img.c ****         default:
 158:Middlewares/lvgl/src/draw/lv_draw_img.c ****             is_chroma_keyed = false;
 159:Middlewares/lvgl/src/draw/lv_draw_img.c ****             break;
 160:Middlewares/lvgl/src/draw/lv_draw_img.c ****     }
 161:Middlewares/lvgl/src/draw/lv_draw_img.c **** 
 162:Middlewares/lvgl/src/draw/lv_draw_img.c ****     return is_chroma_keyed;
 163:Middlewares/lvgl/src/draw/lv_draw_img.c **** }
 164:Middlewares/lvgl/src/draw/lv_draw_img.c **** 
 165:Middlewares/lvgl/src/draw/lv_draw_img.c **** /**
 166:Middlewares/lvgl/src/draw/lv_draw_img.c ****  * Check if a color format has alpha channel or not
 167:Middlewares/lvgl/src/draw/lv_draw_img.c ****  * @param cf a color format (`LV_IMG_CF_...`)
 168:Middlewares/lvgl/src/draw/lv_draw_img.c ****  * @return true: has alpha channel; false: doesn't have alpha channel
 169:Middlewares/lvgl/src/draw/lv_draw_img.c ****  */
 170:Middlewares/lvgl/src/draw/lv_draw_img.c **** bool lv_img_cf_has_alpha(lv_img_cf_t cf)
 171:Middlewares/lvgl/src/draw/lv_draw_img.c **** {
 172:Middlewares/lvgl/src/draw/lv_draw_img.c ****     bool has_alpha = false;
 173:Middlewares/lvgl/src/draw/lv_draw_img.c **** 
 174:Middlewares/lvgl/src/draw/lv_draw_img.c ****     switch(cf) {
 175:Middlewares/lvgl/src/draw/lv_draw_img.c ****         case LV_IMG_CF_TRUE_COLOR_ALPHA:
 176:Middlewares/lvgl/src/draw/lv_draw_img.c ****         case LV_IMG_CF_RAW_ALPHA:
 177:Middlewares/lvgl/src/draw/lv_draw_img.c ****         case LV_IMG_CF_INDEXED_1BIT:
 178:Middlewares/lvgl/src/draw/lv_draw_img.c ****         case LV_IMG_CF_INDEXED_2BIT:
 179:Middlewares/lvgl/src/draw/lv_draw_img.c ****         case LV_IMG_CF_INDEXED_4BIT:
 180:Middlewares/lvgl/src/draw/lv_draw_img.c ****         case LV_IMG_CF_INDEXED_8BIT:
 181:Middlewares/lvgl/src/draw/lv_draw_img.c ****         case LV_IMG_CF_ALPHA_1BIT:
 182:Middlewares/lvgl/src/draw/lv_draw_img.c ****         case LV_IMG_CF_ALPHA_2BIT:
 183:Middlewares/lvgl/src/draw/lv_draw_img.c ****         case LV_IMG_CF_ALPHA_4BIT:
 184:Middlewares/lvgl/src/draw/lv_draw_img.c ****         case LV_IMG_CF_ALPHA_8BIT:
 185:Middlewares/lvgl/src/draw/lv_draw_img.c ****             has_alpha = true;
 186:Middlewares/lvgl/src/draw/lv_draw_img.c ****             break;
 187:Middlewares/lvgl/src/draw/lv_draw_img.c ****         default:
 188:Middlewares/lvgl/src/draw/lv_draw_img.c ****             has_alpha = false;
 189:Middlewares/lvgl/src/draw/lv_draw_img.c ****             break;
 190:Middlewares/lvgl/src/draw/lv_draw_img.c ****     }
 191:Middlewares/lvgl/src/draw/lv_draw_img.c **** 
 192:Middlewares/lvgl/src/draw/lv_draw_img.c ****     return has_alpha;
 193:Middlewares/lvgl/src/draw/lv_draw_img.c **** }
 194:Middlewares/lvgl/src/draw/lv_draw_img.c **** 
 195:Middlewares/lvgl/src/draw/lv_draw_img.c **** /**
 196:Middlewares/lvgl/src/draw/lv_draw_img.c ****  * Get the type of an image source
 197:Middlewares/lvgl/src/draw/lv_draw_img.c ****  * @param src pointer to an image source:
 198:Middlewares/lvgl/src/draw/lv_draw_img.c ****  *  - pointer to an 'lv_img_t' variable (image stored internally and compiled into the code)
 199:Middlewares/lvgl/src/draw/lv_draw_img.c ****  *  - a path to a file (e.g. "S:/folder/image.bin")
 200:Middlewares/lvgl/src/draw/lv_draw_img.c ****  *  - or a symbol (e.g. LV_SYMBOL_CLOSE)
 201:Middlewares/lvgl/src/draw/lv_draw_img.c ****  * @return type of the image source LV_IMG_SRC_VARIABLE/FILE/SYMBOL/UNKNOWN
ARM GAS  /tmp/ccBZPfuw.s 			page 5


 202:Middlewares/lvgl/src/draw/lv_draw_img.c ****  */
 203:Middlewares/lvgl/src/draw/lv_draw_img.c **** lv_img_src_t lv_img_src_get_type(const void * src)
 204:Middlewares/lvgl/src/draw/lv_draw_img.c **** {
 205:Middlewares/lvgl/src/draw/lv_draw_img.c ****     lv_img_src_t img_src_type = LV_IMG_SRC_UNKNOWN;
 206:Middlewares/lvgl/src/draw/lv_draw_img.c **** 
 207:Middlewares/lvgl/src/draw/lv_draw_img.c ****     if(src == NULL) return img_src_type;
 208:Middlewares/lvgl/src/draw/lv_draw_img.c ****     const uint8_t * u8_p = src;
 209:Middlewares/lvgl/src/draw/lv_draw_img.c **** 
 210:Middlewares/lvgl/src/draw/lv_draw_img.c ****     /*The first byte shows the type of the image source*/
 211:Middlewares/lvgl/src/draw/lv_draw_img.c ****     if(u8_p[0] >= 0x20 && u8_p[0] <= 0x7F) {
 212:Middlewares/lvgl/src/draw/lv_draw_img.c ****         img_src_type = LV_IMG_SRC_FILE; /*If it's an ASCII character then it's file name*/
 213:Middlewares/lvgl/src/draw/lv_draw_img.c ****     }
 214:Middlewares/lvgl/src/draw/lv_draw_img.c ****     else if(u8_p[0] >= 0x80) {
 215:Middlewares/lvgl/src/draw/lv_draw_img.c ****         img_src_type = LV_IMG_SRC_SYMBOL; /*Symbols begins after 0x7F*/
 216:Middlewares/lvgl/src/draw/lv_draw_img.c ****     }
 217:Middlewares/lvgl/src/draw/lv_draw_img.c ****     else {
 218:Middlewares/lvgl/src/draw/lv_draw_img.c ****         img_src_type = LV_IMG_SRC_VARIABLE; /*`lv_img_dsc_t` is draw to the first byte < 0x20*/
 219:Middlewares/lvgl/src/draw/lv_draw_img.c ****     }
 220:Middlewares/lvgl/src/draw/lv_draw_img.c **** 
 221:Middlewares/lvgl/src/draw/lv_draw_img.c ****     if(LV_IMG_SRC_UNKNOWN == img_src_type) {
 222:Middlewares/lvgl/src/draw/lv_draw_img.c ****         LV_LOG_WARN("lv_img_src_get_type: unknown image type");
 223:Middlewares/lvgl/src/draw/lv_draw_img.c ****     }
 224:Middlewares/lvgl/src/draw/lv_draw_img.c **** 
 225:Middlewares/lvgl/src/draw/lv_draw_img.c ****     return img_src_type;
 226:Middlewares/lvgl/src/draw/lv_draw_img.c **** }
 227:Middlewares/lvgl/src/draw/lv_draw_img.c **** 
 228:Middlewares/lvgl/src/draw/lv_draw_img.c **** /**********************
 229:Middlewares/lvgl/src/draw/lv_draw_img.c ****  *   STATIC FUNCTIONS
 230:Middlewares/lvgl/src/draw/lv_draw_img.c ****  **********************/
 231:Middlewares/lvgl/src/draw/lv_draw_img.c **** 
 232:Middlewares/lvgl/src/draw/lv_draw_img.c **** LV_ATTRIBUTE_FAST_MEM static lv_res_t lv_img_draw_core(const lv_area_t * coords, const lv_area_t * 
 233:Middlewares/lvgl/src/draw/lv_draw_img.c ****                                                        const void * src,
 234:Middlewares/lvgl/src/draw/lv_draw_img.c ****                                                        const lv_draw_img_dsc_t * draw_dsc)
 235:Middlewares/lvgl/src/draw/lv_draw_img.c **** {
 236:Middlewares/lvgl/src/draw/lv_draw_img.c ****     if(draw_dsc->opa <= LV_OPA_MIN) return LV_RES_OK;
 237:Middlewares/lvgl/src/draw/lv_draw_img.c **** 
 238:Middlewares/lvgl/src/draw/lv_draw_img.c ****     _lv_img_cache_entry_t * cdsc = _lv_img_cache_open(src, draw_dsc->recolor, draw_dsc->frame_id);
 239:Middlewares/lvgl/src/draw/lv_draw_img.c **** 
 240:Middlewares/lvgl/src/draw/lv_draw_img.c ****     if(cdsc == NULL) return LV_RES_INV;
 241:Middlewares/lvgl/src/draw/lv_draw_img.c **** 
 242:Middlewares/lvgl/src/draw/lv_draw_img.c ****     bool chroma_keyed = lv_img_cf_is_chroma_keyed(cdsc->dec_dsc.header.cf);
 243:Middlewares/lvgl/src/draw/lv_draw_img.c ****     bool alpha_byte   = lv_img_cf_has_alpha(cdsc->dec_dsc.header.cf);
 244:Middlewares/lvgl/src/draw/lv_draw_img.c **** 
 245:Middlewares/lvgl/src/draw/lv_draw_img.c ****     if(cdsc->dec_dsc.error_msg != NULL) {
 246:Middlewares/lvgl/src/draw/lv_draw_img.c ****         LV_LOG_WARN("Image draw error");
 247:Middlewares/lvgl/src/draw/lv_draw_img.c **** 
 248:Middlewares/lvgl/src/draw/lv_draw_img.c ****         show_error(coords, clip_area, cdsc->dec_dsc.error_msg);
 249:Middlewares/lvgl/src/draw/lv_draw_img.c ****     }
 250:Middlewares/lvgl/src/draw/lv_draw_img.c ****     /*The decoder could open the image and gave the entire uncompressed image.
 251:Middlewares/lvgl/src/draw/lv_draw_img.c ****      *Just draw it!*/
 252:Middlewares/lvgl/src/draw/lv_draw_img.c ****     else if(cdsc->dec_dsc.img_data) {
 253:Middlewares/lvgl/src/draw/lv_draw_img.c ****         lv_area_t map_area_rot;
 254:Middlewares/lvgl/src/draw/lv_draw_img.c ****         lv_area_copy(&map_area_rot, coords);
 255:Middlewares/lvgl/src/draw/lv_draw_img.c ****         if(draw_dsc->angle || draw_dsc->zoom != LV_IMG_ZOOM_NONE) {
 256:Middlewares/lvgl/src/draw/lv_draw_img.c ****             int32_t w = lv_area_get_width(coords);
 257:Middlewares/lvgl/src/draw/lv_draw_img.c ****             int32_t h = lv_area_get_height(coords);
 258:Middlewares/lvgl/src/draw/lv_draw_img.c **** 
ARM GAS  /tmp/ccBZPfuw.s 			page 6


 259:Middlewares/lvgl/src/draw/lv_draw_img.c ****             _lv_img_buf_get_transformed_area(&map_area_rot, w, h, draw_dsc->angle, draw_dsc->zoom, 
 260:Middlewares/lvgl/src/draw/lv_draw_img.c **** 
 261:Middlewares/lvgl/src/draw/lv_draw_img.c ****             map_area_rot.x1 += coords->x1;
 262:Middlewares/lvgl/src/draw/lv_draw_img.c ****             map_area_rot.y1 += coords->y1;
 263:Middlewares/lvgl/src/draw/lv_draw_img.c ****             map_area_rot.x2 += coords->x1;
 264:Middlewares/lvgl/src/draw/lv_draw_img.c ****             map_area_rot.y2 += coords->y1;
 265:Middlewares/lvgl/src/draw/lv_draw_img.c ****         }
 266:Middlewares/lvgl/src/draw/lv_draw_img.c **** 
 267:Middlewares/lvgl/src/draw/lv_draw_img.c ****         lv_area_t mask_com; /*Common area of mask and coords*/
 268:Middlewares/lvgl/src/draw/lv_draw_img.c ****         bool union_ok;
 269:Middlewares/lvgl/src/draw/lv_draw_img.c ****         union_ok = _lv_area_intersect(&mask_com, clip_area, &map_area_rot);
 270:Middlewares/lvgl/src/draw/lv_draw_img.c ****         /*Out of mask. There is nothing to draw so the image is drawn successfully.*/
 271:Middlewares/lvgl/src/draw/lv_draw_img.c ****         if(union_ok == false) {
 272:Middlewares/lvgl/src/draw/lv_draw_img.c ****             draw_cleanup(cdsc);
 273:Middlewares/lvgl/src/draw/lv_draw_img.c ****             return LV_RES_OK;
 274:Middlewares/lvgl/src/draw/lv_draw_img.c ****         }
 275:Middlewares/lvgl/src/draw/lv_draw_img.c **** 
 276:Middlewares/lvgl/src/draw/lv_draw_img.c ****         lv_draw_map(coords, &mask_com, cdsc->dec_dsc.img_data, draw_dsc, chroma_keyed, alpha_byte);
 277:Middlewares/lvgl/src/draw/lv_draw_img.c ****     }
 278:Middlewares/lvgl/src/draw/lv_draw_img.c ****     /*The whole uncompressed image is not available. Try to read it line-by-line*/
 279:Middlewares/lvgl/src/draw/lv_draw_img.c ****     else {
 280:Middlewares/lvgl/src/draw/lv_draw_img.c ****         lv_area_t mask_com; /*Common area of mask and coords*/
 281:Middlewares/lvgl/src/draw/lv_draw_img.c ****         bool union_ok;
 282:Middlewares/lvgl/src/draw/lv_draw_img.c ****         union_ok = _lv_area_intersect(&mask_com, clip_area, coords);
 283:Middlewares/lvgl/src/draw/lv_draw_img.c ****         /*Out of mask. There is nothing to draw so the image is drawn successfully.*/
 284:Middlewares/lvgl/src/draw/lv_draw_img.c ****         if(union_ok == false) {
 285:Middlewares/lvgl/src/draw/lv_draw_img.c ****             draw_cleanup(cdsc);
 286:Middlewares/lvgl/src/draw/lv_draw_img.c ****             return LV_RES_OK;
 287:Middlewares/lvgl/src/draw/lv_draw_img.c ****         }
 288:Middlewares/lvgl/src/draw/lv_draw_img.c **** 
 289:Middlewares/lvgl/src/draw/lv_draw_img.c ****         int32_t width = lv_area_get_width(&mask_com);
 290:Middlewares/lvgl/src/draw/lv_draw_img.c **** 
 291:Middlewares/lvgl/src/draw/lv_draw_img.c ****         uint8_t  * buf = lv_mem_buf_get(lv_area_get_width(&mask_com) *
 292:Middlewares/lvgl/src/draw/lv_draw_img.c ****                                          LV_IMG_PX_SIZE_ALPHA_BYTE);  /*+1 because of the possible 
 293:Middlewares/lvgl/src/draw/lv_draw_img.c **** 
 294:Middlewares/lvgl/src/draw/lv_draw_img.c ****         lv_area_t line;
 295:Middlewares/lvgl/src/draw/lv_draw_img.c ****         lv_area_copy(&line, &mask_com);
 296:Middlewares/lvgl/src/draw/lv_draw_img.c ****         lv_area_set_height(&line, 1);
 297:Middlewares/lvgl/src/draw/lv_draw_img.c ****         int32_t x = mask_com.x1 - coords->x1;
 298:Middlewares/lvgl/src/draw/lv_draw_img.c ****         int32_t y = mask_com.y1 - coords->y1;
 299:Middlewares/lvgl/src/draw/lv_draw_img.c ****         int32_t row;
 300:Middlewares/lvgl/src/draw/lv_draw_img.c ****         lv_res_t read_res;
 301:Middlewares/lvgl/src/draw/lv_draw_img.c ****         for(row = mask_com.y1; row <= mask_com.y2; row++) {
 302:Middlewares/lvgl/src/draw/lv_draw_img.c ****             lv_area_t mask_line;
 303:Middlewares/lvgl/src/draw/lv_draw_img.c ****             union_ok = _lv_area_intersect(&mask_line, clip_area, &line);
 304:Middlewares/lvgl/src/draw/lv_draw_img.c ****             if(union_ok == false) continue;
 305:Middlewares/lvgl/src/draw/lv_draw_img.c **** 
 306:Middlewares/lvgl/src/draw/lv_draw_img.c ****             read_res = lv_img_decoder_read_line(&cdsc->dec_dsc, x, y, width, buf);
 307:Middlewares/lvgl/src/draw/lv_draw_img.c ****             if(read_res != LV_RES_OK) {
 308:Middlewares/lvgl/src/draw/lv_draw_img.c ****                 lv_img_decoder_close(&cdsc->dec_dsc);
 309:Middlewares/lvgl/src/draw/lv_draw_img.c ****                 LV_LOG_WARN("Image draw can't read the line");
 310:Middlewares/lvgl/src/draw/lv_draw_img.c ****                 lv_mem_buf_release(buf);
 311:Middlewares/lvgl/src/draw/lv_draw_img.c ****                 draw_cleanup(cdsc);
 312:Middlewares/lvgl/src/draw/lv_draw_img.c ****                 return LV_RES_INV;
 313:Middlewares/lvgl/src/draw/lv_draw_img.c ****             }
 314:Middlewares/lvgl/src/draw/lv_draw_img.c **** 
 315:Middlewares/lvgl/src/draw/lv_draw_img.c ****             lv_draw_map(&line, &mask_line, buf, draw_dsc, chroma_keyed, alpha_byte);
ARM GAS  /tmp/ccBZPfuw.s 			page 7


 316:Middlewares/lvgl/src/draw/lv_draw_img.c ****             line.y1++;
 317:Middlewares/lvgl/src/draw/lv_draw_img.c ****             line.y2++;
 318:Middlewares/lvgl/src/draw/lv_draw_img.c ****             y++;
 319:Middlewares/lvgl/src/draw/lv_draw_img.c ****         }
 320:Middlewares/lvgl/src/draw/lv_draw_img.c ****         lv_mem_buf_release(buf);
 321:Middlewares/lvgl/src/draw/lv_draw_img.c ****     }
 322:Middlewares/lvgl/src/draw/lv_draw_img.c **** 
 323:Middlewares/lvgl/src/draw/lv_draw_img.c ****     draw_cleanup(cdsc);
 324:Middlewares/lvgl/src/draw/lv_draw_img.c ****     return LV_RES_OK;
 325:Middlewares/lvgl/src/draw/lv_draw_img.c **** }
 326:Middlewares/lvgl/src/draw/lv_draw_img.c **** 
 327:Middlewares/lvgl/src/draw/lv_draw_img.c **** /**
 328:Middlewares/lvgl/src/draw/lv_draw_img.c ****  * Draw a color map to the display (image)
 329:Middlewares/lvgl/src/draw/lv_draw_img.c ****  * @param cords_p coordinates the color map
 330:Middlewares/lvgl/src/draw/lv_draw_img.c ****  * @param mask_p the map will drawn only on this area  (truncated to draw_buf area)
 331:Middlewares/lvgl/src/draw/lv_draw_img.c ****  * @param map_p pointer to a lv_color_t array
 332:Middlewares/lvgl/src/draw/lv_draw_img.c ****  * @param draw_dsc pointer to an initialized `lv_draw_img_dsc_t` variable
 333:Middlewares/lvgl/src/draw/lv_draw_img.c ****  * @param chroma_keyed true: enable transparency of LV_IMG_LV_COLOR_TRANSP color pixels
 334:Middlewares/lvgl/src/draw/lv_draw_img.c ****  * @param alpha_byte true: extra alpha byte is inserted for every pixel
 335:Middlewares/lvgl/src/draw/lv_draw_img.c ****  */
 336:Middlewares/lvgl/src/draw/lv_draw_img.c **** LV_ATTRIBUTE_FAST_MEM static void lv_draw_map(const lv_area_t * map_area, const lv_area_t * clip_ar
 337:Middlewares/lvgl/src/draw/lv_draw_img.c ****                                               const uint8_t * map_p,
 338:Middlewares/lvgl/src/draw/lv_draw_img.c ****                                               const lv_draw_img_dsc_t * draw_dsc,
 339:Middlewares/lvgl/src/draw/lv_draw_img.c ****                                               bool chroma_key, bool alpha_byte)
 340:Middlewares/lvgl/src/draw/lv_draw_img.c **** {
 341:Middlewares/lvgl/src/draw/lv_draw_img.c ****     /*Use the clip area as draw area*/
 342:Middlewares/lvgl/src/draw/lv_draw_img.c ****     lv_area_t draw_area;
 343:Middlewares/lvgl/src/draw/lv_draw_img.c ****     lv_area_copy(&draw_area, clip_area);
 344:Middlewares/lvgl/src/draw/lv_draw_img.c **** 
 345:Middlewares/lvgl/src/draw/lv_draw_img.c ****     lv_disp_t * disp = _lv_refr_get_disp_refreshing();
 346:Middlewares/lvgl/src/draw/lv_draw_img.c ****     lv_disp_draw_buf_t * draw_buf = lv_disp_get_draw_buf(disp);
 347:Middlewares/lvgl/src/draw/lv_draw_img.c ****     const lv_area_t * disp_area = &draw_buf->area;
 348:Middlewares/lvgl/src/draw/lv_draw_img.c **** 
 349:Middlewares/lvgl/src/draw/lv_draw_img.c ****     /*Now `draw_area` has absolute coordinates.
 350:Middlewares/lvgl/src/draw/lv_draw_img.c ****      *Make it relative to `disp_area` to simplify draw to `disp_buf`*/
 351:Middlewares/lvgl/src/draw/lv_draw_img.c ****     draw_area.x1 -= disp_area->x1;
 352:Middlewares/lvgl/src/draw/lv_draw_img.c ****     draw_area.y1 -= disp_area->y1;
 353:Middlewares/lvgl/src/draw/lv_draw_img.c ****     draw_area.x2 -= disp_area->x1;
 354:Middlewares/lvgl/src/draw/lv_draw_img.c ****     draw_area.y2 -= disp_area->y1;
 355:Middlewares/lvgl/src/draw/lv_draw_img.c **** 
 356:Middlewares/lvgl/src/draw/lv_draw_img.c ****     uint8_t other_mask_cnt = lv_draw_mask_get_cnt();
 357:Middlewares/lvgl/src/draw/lv_draw_img.c **** 
 358:Middlewares/lvgl/src/draw/lv_draw_img.c ****     /*The simplest case just copy the pixels into the draw_buf*/
 359:Middlewares/lvgl/src/draw/lv_draw_img.c ****     if(other_mask_cnt == 0 && draw_dsc->angle == 0 && draw_dsc->zoom == LV_IMG_ZOOM_NONE &&
 360:Middlewares/lvgl/src/draw/lv_draw_img.c ****        chroma_key == false && alpha_byte == false && draw_dsc->recolor_opa == LV_OPA_TRANSP) {
 361:Middlewares/lvgl/src/draw/lv_draw_img.c ****         _lv_blend_map(clip_area, map_area, (lv_color_t *)map_p, NULL, LV_DRAW_MASK_RES_FULL_COVER, 
 362:Middlewares/lvgl/src/draw/lv_draw_img.c ****                       draw_dsc->blend_mode);
 363:Middlewares/lvgl/src/draw/lv_draw_img.c ****     }
 364:Middlewares/lvgl/src/draw/lv_draw_img.c **** 
 365:Middlewares/lvgl/src/draw/lv_draw_img.c **** #if LV_USE_GPU_NXP_PXP
 366:Middlewares/lvgl/src/draw/lv_draw_img.c ****     /*Simple case without masking and transformations*/
 367:Middlewares/lvgl/src/draw/lv_draw_img.c ****     else if(other_mask_cnt == 0 && draw_dsc->angle == 0 && draw_dsc->zoom == LV_IMG_ZOOM_NONE && al
 368:Middlewares/lvgl/src/draw/lv_draw_img.c ****             chroma_key == true && draw_dsc->recolor_opa == LV_OPA_TRANSP) { /*copy with color keyin
 369:Middlewares/lvgl/src/draw/lv_draw_img.c ****         lv_gpu_nxp_pxp_enable_color_key();
 370:Middlewares/lvgl/src/draw/lv_draw_img.c ****         _lv_blend_map(clip_area, map_area, (lv_color_t *)map_p, NULL, LV_DRAW_MASK_RES_FULL_COVER, 
 371:Middlewares/lvgl/src/draw/lv_draw_img.c ****                       draw_dsc->blend_mode);
 372:Middlewares/lvgl/src/draw/lv_draw_img.c ****         lv_gpu_nxp_pxp_disable_color_key();
ARM GAS  /tmp/ccBZPfuw.s 			page 8


 373:Middlewares/lvgl/src/draw/lv_draw_img.c ****     }
 374:Middlewares/lvgl/src/draw/lv_draw_img.c ****     else if(other_mask_cnt == 0 && draw_dsc->angle == 0 && draw_dsc->zoom == LV_IMG_ZOOM_NONE && al
 375:Middlewares/lvgl/src/draw/lv_draw_img.c ****             chroma_key == false && draw_dsc->recolor_opa != LV_OPA_TRANSP) { /*copy with recolor (+
 376:Middlewares/lvgl/src/draw/lv_draw_img.c ****         lv_gpu_nxp_pxp_enable_recolor(draw_dsc->recolor, draw_dsc->recolor_opa);
 377:Middlewares/lvgl/src/draw/lv_draw_img.c ****         _lv_blend_map(clip_area, map_area, (lv_color_t *)map_p, NULL, LV_DRAW_MASK_RES_FULL_COVER, 
 378:Middlewares/lvgl/src/draw/lv_draw_img.c ****                       draw_dsc->blend_mode);
 379:Middlewares/lvgl/src/draw/lv_draw_img.c ****         lv_gpu_nxp_pxp_disable_recolor();
 380:Middlewares/lvgl/src/draw/lv_draw_img.c ****     }
 381:Middlewares/lvgl/src/draw/lv_draw_img.c **** #endif
 382:Middlewares/lvgl/src/draw/lv_draw_img.c ****     /*In the other cases every pixel need to be checked one-by-one*/
 383:Middlewares/lvgl/src/draw/lv_draw_img.c ****     else {
 384:Middlewares/lvgl/src/draw/lv_draw_img.c **** //#if LV_DRAW_COMPLEX
 385:Middlewares/lvgl/src/draw/lv_draw_img.c ****         /*The pixel size in byte is different if an alpha byte is added too*/
 386:Middlewares/lvgl/src/draw/lv_draw_img.c ****         uint8_t px_size_byte = alpha_byte ? LV_IMG_PX_SIZE_ALPHA_BYTE : sizeof(lv_color_t);
 387:Middlewares/lvgl/src/draw/lv_draw_img.c **** 
 388:Middlewares/lvgl/src/draw/lv_draw_img.c ****         /*Go to the first displayed pixel of the map*/
 389:Middlewares/lvgl/src/draw/lv_draw_img.c ****         int32_t map_w = lv_area_get_width(map_area);
 390:Middlewares/lvgl/src/draw/lv_draw_img.c ****         const uint8_t * map_buf_tmp = map_p;
 391:Middlewares/lvgl/src/draw/lv_draw_img.c ****         map_buf_tmp += map_w * (draw_area.y1 - (map_area->y1 - disp_area->y1)) * px_size_byte;
 392:Middlewares/lvgl/src/draw/lv_draw_img.c ****         map_buf_tmp += (draw_area.x1 - (map_area->x1 - disp_area->x1)) * px_size_byte;
 393:Middlewares/lvgl/src/draw/lv_draw_img.c **** 
 394:Middlewares/lvgl/src/draw/lv_draw_img.c ****         lv_color_t c;
 395:Middlewares/lvgl/src/draw/lv_draw_img.c ****         lv_color_t chroma_keyed_color = LV_COLOR_CHROMA_KEY;
 396:Middlewares/lvgl/src/draw/lv_draw_img.c ****         uint32_t px_i = 0;
 397:Middlewares/lvgl/src/draw/lv_draw_img.c **** 
 398:Middlewares/lvgl/src/draw/lv_draw_img.c ****         const uint8_t * map_px;
 399:Middlewares/lvgl/src/draw/lv_draw_img.c **** 
 400:Middlewares/lvgl/src/draw/lv_draw_img.c ****         lv_area_t blend_area;
 401:Middlewares/lvgl/src/draw/lv_draw_img.c ****         blend_area.x1 = draw_area.x1 + disp_area->x1;
 402:Middlewares/lvgl/src/draw/lv_draw_img.c ****         blend_area.x2 = blend_area.x1 + lv_area_get_width(&draw_area) - 1;
 403:Middlewares/lvgl/src/draw/lv_draw_img.c ****         blend_area.y1 = disp_area->y1 + draw_area.y1;
 404:Middlewares/lvgl/src/draw/lv_draw_img.c ****         blend_area.y2 = blend_area.y1;
 405:Middlewares/lvgl/src/draw/lv_draw_img.c **** 
 406:Middlewares/lvgl/src/draw/lv_draw_img.c ****         lv_coord_t draw_area_h = lv_area_get_height(&draw_area);
 407:Middlewares/lvgl/src/draw/lv_draw_img.c ****         lv_coord_t draw_area_w = lv_area_get_width(&draw_area);
 408:Middlewares/lvgl/src/draw/lv_draw_img.c **** 
 409:Middlewares/lvgl/src/draw/lv_draw_img.c ****         bool transform = draw_dsc->angle != 0 || draw_dsc->zoom != LV_IMG_ZOOM_NONE ? true : false;
 410:Middlewares/lvgl/src/draw/lv_draw_img.c ****         /*Simple ARGB image. Handle it as special case because it's very common*/
 411:Middlewares/lvgl/src/draw/lv_draw_img.c ****         if(other_mask_cnt == 0 && !transform && !chroma_key && draw_dsc->recolor_opa == LV_OPA_TRAN
 412:Middlewares/lvgl/src/draw/lv_draw_img.c **** #if LV_USE_GPU_STM32_DMA2D && LV_COLOR_DEPTH == 32
 413:Middlewares/lvgl/src/draw/lv_draw_img.c ****             /*Blend ARGB images directly*/
 414:Middlewares/lvgl/src/draw/lv_draw_img.c ****             if(lv_area_get_size(&draw_area) > 240) {
 415:Middlewares/lvgl/src/draw/lv_draw_img.c ****                 int32_t disp_w = lv_area_get_width(disp_area);
 416:Middlewares/lvgl/src/draw/lv_draw_img.c ****                 lv_color_t * disp_buf = draw_buf->buf_act;
 417:Middlewares/lvgl/src/draw/lv_draw_img.c ****                 lv_color_t * disp_buf_first = disp_buf + disp_w * draw_area.y1 + draw_area.x1;
 418:Middlewares/lvgl/src/draw/lv_draw_img.c ****                 lv_gpu_stm32_dma2d_blend(disp_buf_first, disp_w, (const lv_color_t *)map_buf_tmp, d
 419:Middlewares/lvgl/src/draw/lv_draw_img.c ****                                          draw_area_h);
 420:Middlewares/lvgl/src/draw/lv_draw_img.c ****                 return;
 421:Middlewares/lvgl/src/draw/lv_draw_img.c ****             }
 422:Middlewares/lvgl/src/draw/lv_draw_img.c **** #endif
 423:Middlewares/lvgl/src/draw/lv_draw_img.c ****             uint32_t hor_res = (uint32_t) lv_disp_get_hor_res(disp);
 424:Middlewares/lvgl/src/draw/lv_draw_img.c ****             uint32_t mask_buf_size = lv_area_get_size(&draw_area) > (uint32_t) hor_res ? hor_res : 
 425:Middlewares/lvgl/src/draw/lv_draw_img.c ****             lv_color_t * map2 = lv_mem_buf_get(mask_buf_size * sizeof(lv_color_t));
 426:Middlewares/lvgl/src/draw/lv_draw_img.c ****             lv_opa_t * mask_buf = lv_mem_buf_get(mask_buf_size);
 427:Middlewares/lvgl/src/draw/lv_draw_img.c **** 
 428:Middlewares/lvgl/src/draw/lv_draw_img.c ****             int32_t x;
 429:Middlewares/lvgl/src/draw/lv_draw_img.c ****             int32_t y;
ARM GAS  /tmp/ccBZPfuw.s 			page 9


 430:Middlewares/lvgl/src/draw/lv_draw_img.c ****             for(y = 0; y < draw_area_h; y++) {
 431:Middlewares/lvgl/src/draw/lv_draw_img.c ****                 map_px = map_buf_tmp;
 432:Middlewares/lvgl/src/draw/lv_draw_img.c ****                 for(x = 0; x < draw_area_w; x++, map_px += px_size_byte, px_i++) {
 433:Middlewares/lvgl/src/draw/lv_draw_img.c ****                     lv_opa_t px_opa = map_px[LV_IMG_PX_SIZE_ALPHA_BYTE - 1];
 434:Middlewares/lvgl/src/draw/lv_draw_img.c ****                     mask_buf[px_i] = px_opa;
 435:Middlewares/lvgl/src/draw/lv_draw_img.c ****                     if(px_opa) {
 436:Middlewares/lvgl/src/draw/lv_draw_img.c **** #if LV_COLOR_DEPTH == 8 || LV_COLOR_DEPTH == 1
 437:Middlewares/lvgl/src/draw/lv_draw_img.c ****                         map2[px_i].full =  map_px[0];
 438:Middlewares/lvgl/src/draw/lv_draw_img.c **** #elif LV_COLOR_DEPTH == 16
 439:Middlewares/lvgl/src/draw/lv_draw_img.c ****                         map2[px_i].full =  map_px[0] + (map_px[1] << 8);
 440:Middlewares/lvgl/src/draw/lv_draw_img.c **** #elif LV_COLOR_DEPTH == 32
 441:Middlewares/lvgl/src/draw/lv_draw_img.c ****                         map2[px_i].full =  *((uint32_t *)map_px);
 442:Middlewares/lvgl/src/draw/lv_draw_img.c **** #endif
 443:Middlewares/lvgl/src/draw/lv_draw_img.c ****                     }
 444:Middlewares/lvgl/src/draw/lv_draw_img.c **** #if LV_COLOR_DEPTH == 32
 445:Middlewares/lvgl/src/draw/lv_draw_img.c ****                     map2[px_i].ch.alpha = 0xFF;
 446:Middlewares/lvgl/src/draw/lv_draw_img.c **** #endif
 447:Middlewares/lvgl/src/draw/lv_draw_img.c ****                 }
 448:Middlewares/lvgl/src/draw/lv_draw_img.c **** 
 449:Middlewares/lvgl/src/draw/lv_draw_img.c ****                 map_buf_tmp += map_w * px_size_byte;
 450:Middlewares/lvgl/src/draw/lv_draw_img.c ****                 if(px_i + lv_area_get_width(&draw_area) < mask_buf_size) {
 451:Middlewares/lvgl/src/draw/lv_draw_img.c ****                     blend_area.y2 ++;
 452:Middlewares/lvgl/src/draw/lv_draw_img.c ****                 }
 453:Middlewares/lvgl/src/draw/lv_draw_img.c ****                 else {
 454:Middlewares/lvgl/src/draw/lv_draw_img.c ****                     _lv_blend_map(clip_area, &blend_area, map2, mask_buf, LV_DRAW_MASK_RES_CHANGED,
 455:Middlewares/lvgl/src/draw/lv_draw_img.c **** 
 456:Middlewares/lvgl/src/draw/lv_draw_img.c ****                     blend_area.y1 = blend_area.y2 + 1;
 457:Middlewares/lvgl/src/draw/lv_draw_img.c ****                     blend_area.y2 = blend_area.y1;
 458:Middlewares/lvgl/src/draw/lv_draw_img.c **** 
 459:Middlewares/lvgl/src/draw/lv_draw_img.c ****                     px_i = 0;
 460:Middlewares/lvgl/src/draw/lv_draw_img.c ****                 }
 461:Middlewares/lvgl/src/draw/lv_draw_img.c ****             }
 462:Middlewares/lvgl/src/draw/lv_draw_img.c ****             /*Flush the last part*/
 463:Middlewares/lvgl/src/draw/lv_draw_img.c ****             if(blend_area.y1 != blend_area.y2) {
 464:Middlewares/lvgl/src/draw/lv_draw_img.c ****                 blend_area.y2--;
 465:Middlewares/lvgl/src/draw/lv_draw_img.c ****                 _lv_blend_map(clip_area, &blend_area, map2, mask_buf, LV_DRAW_MASK_RES_CHANGED, dra
 466:Middlewares/lvgl/src/draw/lv_draw_img.c ****             }
 467:Middlewares/lvgl/src/draw/lv_draw_img.c **** 
 468:Middlewares/lvgl/src/draw/lv_draw_img.c ****             lv_mem_buf_release(mask_buf);
 469:Middlewares/lvgl/src/draw/lv_draw_img.c ****             lv_mem_buf_release(map2);
 470:Middlewares/lvgl/src/draw/lv_draw_img.c ****         }
 471:Middlewares/lvgl/src/draw/lv_draw_img.c ****         /*Most complicated case: transform or other mask or chroma keyed*/
 472:Middlewares/lvgl/src/draw/lv_draw_img.c ****         else {
 473:Middlewares/lvgl/src/draw/lv_draw_img.c ****             /*Build the image and a mask line-by-line*/
 474:Middlewares/lvgl/src/draw/lv_draw_img.c ****             uint32_t hor_res = (uint32_t) lv_disp_get_hor_res(disp);
 475:Middlewares/lvgl/src/draw/lv_draw_img.c ****             uint32_t mask_buf_size = lv_area_get_size(&draw_area) > hor_res ? hor_res : lv_area_get
 476:Middlewares/lvgl/src/draw/lv_draw_img.c ****             lv_color_t * map2 = lv_mem_buf_get(mask_buf_size * sizeof(lv_color_t));
 477:Middlewares/lvgl/src/draw/lv_draw_img.c ****             lv_opa_t * mask_buf = lv_mem_buf_get(mask_buf_size);
 478:Middlewares/lvgl/src/draw/lv_draw_img.c **** 
 479:Middlewares/lvgl/src/draw/lv_draw_img.c **** #if LV_DRAW_COMPLEX
 480:Middlewares/lvgl/src/draw/lv_draw_img.c ****             lv_img_transform_dsc_t trans_dsc;
 481:Middlewares/lvgl/src/draw/lv_draw_img.c ****             lv_memset_00(&trans_dsc, sizeof(lv_img_transform_dsc_t));
 482:Middlewares/lvgl/src/draw/lv_draw_img.c ****             if(transform) {
 483:Middlewares/lvgl/src/draw/lv_draw_img.c ****                 lv_img_cf_t cf = LV_IMG_CF_TRUE_COLOR;
 484:Middlewares/lvgl/src/draw/lv_draw_img.c ****                 if(alpha_byte) cf = LV_IMG_CF_TRUE_COLOR_ALPHA;
 485:Middlewares/lvgl/src/draw/lv_draw_img.c ****                 else if(chroma_key) cf = LV_IMG_CF_TRUE_COLOR_CHROMA_KEYED;
 486:Middlewares/lvgl/src/draw/lv_draw_img.c **** 
ARM GAS  /tmp/ccBZPfuw.s 			page 10


 487:Middlewares/lvgl/src/draw/lv_draw_img.c ****                 trans_dsc.cfg.angle = draw_dsc->angle;
 488:Middlewares/lvgl/src/draw/lv_draw_img.c ****                 trans_dsc.cfg.zoom = draw_dsc->zoom;
 489:Middlewares/lvgl/src/draw/lv_draw_img.c ****                 trans_dsc.cfg.src = map_p;
 490:Middlewares/lvgl/src/draw/lv_draw_img.c ****                 trans_dsc.cfg.src_w = map_w;
 491:Middlewares/lvgl/src/draw/lv_draw_img.c ****                 trans_dsc.cfg.src_h = lv_area_get_height(map_area);;
 492:Middlewares/lvgl/src/draw/lv_draw_img.c ****                 trans_dsc.cfg.cf = cf;
 493:Middlewares/lvgl/src/draw/lv_draw_img.c ****                 trans_dsc.cfg.pivot_x = draw_dsc->pivot.x;
 494:Middlewares/lvgl/src/draw/lv_draw_img.c ****                 trans_dsc.cfg.pivot_y = draw_dsc->pivot.y;
 495:Middlewares/lvgl/src/draw/lv_draw_img.c ****                 trans_dsc.cfg.color = draw_dsc->recolor;
 496:Middlewares/lvgl/src/draw/lv_draw_img.c ****                 trans_dsc.cfg.antialias = draw_dsc->antialias;
 497:Middlewares/lvgl/src/draw/lv_draw_img.c **** 
 498:Middlewares/lvgl/src/draw/lv_draw_img.c ****                 _lv_img_buf_transform_init(&trans_dsc);
 499:Middlewares/lvgl/src/draw/lv_draw_img.c ****             }
 500:Middlewares/lvgl/src/draw/lv_draw_img.c **** #endif
 501:Middlewares/lvgl/src/draw/lv_draw_img.c ****             uint16_t recolor_premult[3] = {0};
 502:Middlewares/lvgl/src/draw/lv_draw_img.c ****             lv_opa_t recolor_opa_inv = 255 - draw_dsc->recolor_opa;
 503:Middlewares/lvgl/src/draw/lv_draw_img.c ****             if(draw_dsc->recolor_opa != 0) {
 504:Middlewares/lvgl/src/draw/lv_draw_img.c ****                 lv_color_premult(draw_dsc->recolor, draw_dsc->recolor_opa, recolor_premult);
 505:Middlewares/lvgl/src/draw/lv_draw_img.c ****             }
 506:Middlewares/lvgl/src/draw/lv_draw_img.c **** 
 507:Middlewares/lvgl/src/draw/lv_draw_img.c ****             lv_draw_mask_res_t mask_res;
 508:Middlewares/lvgl/src/draw/lv_draw_img.c ****             mask_res = (alpha_byte || chroma_key || draw_dsc->angle ||
 509:Middlewares/lvgl/src/draw/lv_draw_img.c ****                         draw_dsc->zoom != LV_IMG_ZOOM_NONE) ? LV_DRAW_MASK_RES_CHANGED : LV_DRAW_MA
 510:Middlewares/lvgl/src/draw/lv_draw_img.c **** 
 511:Middlewares/lvgl/src/draw/lv_draw_img.c ****             /*Prepare the `mask_buf`if there are other masks*/
 512:Middlewares/lvgl/src/draw/lv_draw_img.c ****             if(other_mask_cnt) {
 513:Middlewares/lvgl/src/draw/lv_draw_img.c ****                 lv_memset_ff(mask_buf, mask_buf_size);
 514:Middlewares/lvgl/src/draw/lv_draw_img.c ****             }
 515:Middlewares/lvgl/src/draw/lv_draw_img.c **** 
 516:Middlewares/lvgl/src/draw/lv_draw_img.c ****             int32_t x;
 517:Middlewares/lvgl/src/draw/lv_draw_img.c ****             int32_t y;
 518:Middlewares/lvgl/src/draw/lv_draw_img.c **** #if LV_DRAW_COMPLEX
 519:Middlewares/lvgl/src/draw/lv_draw_img.c ****             int32_t rot_y = disp_area->y1 + draw_area.y1 - map_area->y1;
 520:Middlewares/lvgl/src/draw/lv_draw_img.c **** #endif
 521:Middlewares/lvgl/src/draw/lv_draw_img.c ****             for(y = 0; y < draw_area_h; y++) {
 522:Middlewares/lvgl/src/draw/lv_draw_img.c ****                 map_px = map_buf_tmp;
 523:Middlewares/lvgl/src/draw/lv_draw_img.c **** #if LV_DRAW_COMPLEX
 524:Middlewares/lvgl/src/draw/lv_draw_img.c ****                 uint32_t px_i_start = px_i;
 525:Middlewares/lvgl/src/draw/lv_draw_img.c ****                 int32_t rot_x = disp_area->x1 + draw_area.x1 - map_area->x1;
 526:Middlewares/lvgl/src/draw/lv_draw_img.c **** #endif
 527:Middlewares/lvgl/src/draw/lv_draw_img.c **** 
 528:Middlewares/lvgl/src/draw/lv_draw_img.c ****                 for(x = 0; x < draw_area_w; x++, map_px += px_size_byte, px_i++) {
 529:Middlewares/lvgl/src/draw/lv_draw_img.c **** 
 530:Middlewares/lvgl/src/draw/lv_draw_img.c **** #if LV_DRAW_COMPLEX
 531:Middlewares/lvgl/src/draw/lv_draw_img.c ****                     if(transform) {
 532:Middlewares/lvgl/src/draw/lv_draw_img.c **** 
 533:Middlewares/lvgl/src/draw/lv_draw_img.c ****                         /*Transform*/
 534:Middlewares/lvgl/src/draw/lv_draw_img.c ****                         bool ret;
 535:Middlewares/lvgl/src/draw/lv_draw_img.c ****                         ret = _lv_img_buf_transform(&trans_dsc, rot_x + x, rot_y + y);
 536:Middlewares/lvgl/src/draw/lv_draw_img.c ****                         if(ret == false) {
 537:Middlewares/lvgl/src/draw/lv_draw_img.c ****                             mask_buf[px_i] = LV_OPA_TRANSP;
 538:Middlewares/lvgl/src/draw/lv_draw_img.c ****                             continue;
 539:Middlewares/lvgl/src/draw/lv_draw_img.c ****                         }
 540:Middlewares/lvgl/src/draw/lv_draw_img.c ****                         else {
 541:Middlewares/lvgl/src/draw/lv_draw_img.c ****                             mask_buf[px_i] = trans_dsc.res.opa;
 542:Middlewares/lvgl/src/draw/lv_draw_img.c ****                             c.full = trans_dsc.res.color.full;
 543:Middlewares/lvgl/src/draw/lv_draw_img.c ****                         }
ARM GAS  /tmp/ccBZPfuw.s 			page 11


 544:Middlewares/lvgl/src/draw/lv_draw_img.c ****                     }
 545:Middlewares/lvgl/src/draw/lv_draw_img.c ****                     /*No transform*/
 546:Middlewares/lvgl/src/draw/lv_draw_img.c ****                     else
 547:Middlewares/lvgl/src/draw/lv_draw_img.c **** #endif
 548:Middlewares/lvgl/src/draw/lv_draw_img.c ****                     {
 549:Middlewares/lvgl/src/draw/lv_draw_img.c ****                         if(alpha_byte) {
 550:Middlewares/lvgl/src/draw/lv_draw_img.c ****                             lv_opa_t px_opa = map_px[LV_IMG_PX_SIZE_ALPHA_BYTE - 1];
 551:Middlewares/lvgl/src/draw/lv_draw_img.c ****                             mask_buf[px_i] = px_opa;
 552:Middlewares/lvgl/src/draw/lv_draw_img.c ****                             if(px_opa == 0) {
 553:Middlewares/lvgl/src/draw/lv_draw_img.c **** #if  LV_COLOR_DEPTH == 32
 554:Middlewares/lvgl/src/draw/lv_draw_img.c ****                                 map2[px_i].full = 0;
 555:Middlewares/lvgl/src/draw/lv_draw_img.c **** #endif
 556:Middlewares/lvgl/src/draw/lv_draw_img.c ****                                 continue;
 557:Middlewares/lvgl/src/draw/lv_draw_img.c ****                             }
 558:Middlewares/lvgl/src/draw/lv_draw_img.c ****                         }
 559:Middlewares/lvgl/src/draw/lv_draw_img.c ****                         else {
 560:Middlewares/lvgl/src/draw/lv_draw_img.c ****                             mask_buf[px_i] = 0xFF;
 561:Middlewares/lvgl/src/draw/lv_draw_img.c ****                         }
 562:Middlewares/lvgl/src/draw/lv_draw_img.c **** 
 563:Middlewares/lvgl/src/draw/lv_draw_img.c **** #if LV_COLOR_DEPTH == 1
 564:Middlewares/lvgl/src/draw/lv_draw_img.c ****                         c.full = map_px[0];
 565:Middlewares/lvgl/src/draw/lv_draw_img.c **** #elif LV_COLOR_DEPTH == 8
 566:Middlewares/lvgl/src/draw/lv_draw_img.c ****                         c.full =  map_px[0];
 567:Middlewares/lvgl/src/draw/lv_draw_img.c **** #elif LV_COLOR_DEPTH == 16
 568:Middlewares/lvgl/src/draw/lv_draw_img.c ****                         c.full =  map_px[0] + (map_px[1] << 8);
 569:Middlewares/lvgl/src/draw/lv_draw_img.c **** #elif LV_COLOR_DEPTH == 32
 570:Middlewares/lvgl/src/draw/lv_draw_img.c ****                         c.full =  *((uint32_t *)map_px);
 571:Middlewares/lvgl/src/draw/lv_draw_img.c ****                         c.ch.alpha = 0xFF;
 572:Middlewares/lvgl/src/draw/lv_draw_img.c **** #endif
 573:Middlewares/lvgl/src/draw/lv_draw_img.c ****                         if(chroma_key) {
 574:Middlewares/lvgl/src/draw/lv_draw_img.c ****                             if(c.full == chroma_keyed_color.full) {
 575:Middlewares/lvgl/src/draw/lv_draw_img.c ****                                 mask_buf[px_i] = LV_OPA_TRANSP;
 576:Middlewares/lvgl/src/draw/lv_draw_img.c **** #if  LV_COLOR_DEPTH == 32
 577:Middlewares/lvgl/src/draw/lv_draw_img.c ****                                 map2[px_i].full = 0;
 578:Middlewares/lvgl/src/draw/lv_draw_img.c **** #endif
 579:Middlewares/lvgl/src/draw/lv_draw_img.c ****                                 continue;
 580:Middlewares/lvgl/src/draw/lv_draw_img.c ****                             }
 581:Middlewares/lvgl/src/draw/lv_draw_img.c ****                         }
 582:Middlewares/lvgl/src/draw/lv_draw_img.c **** 
 583:Middlewares/lvgl/src/draw/lv_draw_img.c ****                     }
 584:Middlewares/lvgl/src/draw/lv_draw_img.c ****                     if(draw_dsc->recolor_opa != 0) {
 585:Middlewares/lvgl/src/draw/lv_draw_img.c ****                         c = lv_color_mix_premult(recolor_premult, c, recolor_opa_inv);
 586:Middlewares/lvgl/src/draw/lv_draw_img.c ****                     }
 587:Middlewares/lvgl/src/draw/lv_draw_img.c **** 
 588:Middlewares/lvgl/src/draw/lv_draw_img.c ****                     map2[px_i].full = c.full;
 589:Middlewares/lvgl/src/draw/lv_draw_img.c ****                 }
 590:Middlewares/lvgl/src/draw/lv_draw_img.c **** #if LV_DRAW_COMPLEX
 591:Middlewares/lvgl/src/draw/lv_draw_img.c ****                 /*Apply the masks if any*/
 592:Middlewares/lvgl/src/draw/lv_draw_img.c ****                 if(other_mask_cnt) {
 593:Middlewares/lvgl/src/draw/lv_draw_img.c ****                     lv_draw_mask_res_t mask_res_sub;
 594:Middlewares/lvgl/src/draw/lv_draw_img.c ****                     mask_res_sub = lv_draw_mask_apply(mask_buf + px_i_start, draw_area.x1 + draw_bu
 595:Middlewares/lvgl/src/draw/lv_draw_img.c ****                                                       lv_area_get_width(&draw_area));
 596:Middlewares/lvgl/src/draw/lv_draw_img.c ****                     if(mask_res_sub == LV_DRAW_MASK_RES_TRANSP) {
 597:Middlewares/lvgl/src/draw/lv_draw_img.c ****                         lv_memset_00(mask_buf + px_i_start, lv_area_get_width(&draw_area));
 598:Middlewares/lvgl/src/draw/lv_draw_img.c ****                         mask_res = LV_DRAW_MASK_RES_CHANGED;
 599:Middlewares/lvgl/src/draw/lv_draw_img.c ****                     }
 600:Middlewares/lvgl/src/draw/lv_draw_img.c ****                     else if(mask_res_sub == LV_DRAW_MASK_RES_CHANGED) {
ARM GAS  /tmp/ccBZPfuw.s 			page 12


 601:Middlewares/lvgl/src/draw/lv_draw_img.c ****                         mask_res = LV_DRAW_MASK_RES_CHANGED;
 602:Middlewares/lvgl/src/draw/lv_draw_img.c ****                     }
 603:Middlewares/lvgl/src/draw/lv_draw_img.c ****                 }
 604:Middlewares/lvgl/src/draw/lv_draw_img.c **** #endif
 605:Middlewares/lvgl/src/draw/lv_draw_img.c **** 
 606:Middlewares/lvgl/src/draw/lv_draw_img.c ****                 map_buf_tmp += map_w * px_size_byte;
 607:Middlewares/lvgl/src/draw/lv_draw_img.c ****                 if(px_i + lv_area_get_width(&draw_area) < mask_buf_size) {
 608:Middlewares/lvgl/src/draw/lv_draw_img.c ****                     blend_area.y2 ++;
 609:Middlewares/lvgl/src/draw/lv_draw_img.c ****                 }
 610:Middlewares/lvgl/src/draw/lv_draw_img.c ****                 else {
 611:Middlewares/lvgl/src/draw/lv_draw_img.c **** 
 612:Middlewares/lvgl/src/draw/lv_draw_img.c ****                     _lv_blend_map(clip_area, &blend_area, map2, mask_buf, mask_res, draw_dsc->opa, 
 613:Middlewares/lvgl/src/draw/lv_draw_img.c **** 
 614:Middlewares/lvgl/src/draw/lv_draw_img.c ****                     blend_area.y1 = blend_area.y2 + 1;
 615:Middlewares/lvgl/src/draw/lv_draw_img.c ****                     blend_area.y2 = blend_area.y1;
 616:Middlewares/lvgl/src/draw/lv_draw_img.c **** 
 617:Middlewares/lvgl/src/draw/lv_draw_img.c ****                     px_i = 0;
 618:Middlewares/lvgl/src/draw/lv_draw_img.c ****                     mask_res = (alpha_byte || chroma_key || draw_dsc->angle ||
 619:Middlewares/lvgl/src/draw/lv_draw_img.c ****                                 draw_dsc->zoom != LV_IMG_ZOOM_NONE) ? LV_DRAW_MASK_RES_CHANGED : LV
 620:Middlewares/lvgl/src/draw/lv_draw_img.c **** 
 621:Middlewares/lvgl/src/draw/lv_draw_img.c ****                     /*Prepare the `mask_buf`if there are other masks*/
 622:Middlewares/lvgl/src/draw/lv_draw_img.c ****                     if(other_mask_cnt) {
 623:Middlewares/lvgl/src/draw/lv_draw_img.c ****                         lv_memset_ff(mask_buf, mask_buf_size);
 624:Middlewares/lvgl/src/draw/lv_draw_img.c ****                     }
 625:Middlewares/lvgl/src/draw/lv_draw_img.c ****                 }
 626:Middlewares/lvgl/src/draw/lv_draw_img.c ****             }
 627:Middlewares/lvgl/src/draw/lv_draw_img.c **** 
 628:Middlewares/lvgl/src/draw/lv_draw_img.c ****             /*Flush the last part*/
 629:Middlewares/lvgl/src/draw/lv_draw_img.c ****             if(blend_area.y1 != blend_area.y2) {
 630:Middlewares/lvgl/src/draw/lv_draw_img.c ****                 blend_area.y2--;
 631:Middlewares/lvgl/src/draw/lv_draw_img.c ****                 _lv_blend_map(clip_area, &blend_area, map2, mask_buf, mask_res, draw_dsc->opa, draw
 632:Middlewares/lvgl/src/draw/lv_draw_img.c ****             }
 633:Middlewares/lvgl/src/draw/lv_draw_img.c **** 
 634:Middlewares/lvgl/src/draw/lv_draw_img.c ****             lv_mem_buf_release(mask_buf);
 635:Middlewares/lvgl/src/draw/lv_draw_img.c ****             lv_mem_buf_release(map2);
 636:Middlewares/lvgl/src/draw/lv_draw_img.c ****         }
 637:Middlewares/lvgl/src/draw/lv_draw_img.c ****     }
 638:Middlewares/lvgl/src/draw/lv_draw_img.c **** }
 639:Middlewares/lvgl/src/draw/lv_draw_img.c **** 
 640:Middlewares/lvgl/src/draw/lv_draw_img.c **** static void show_error(const lv_area_t * coords, const lv_area_t * clip_area, const char * msg)
 641:Middlewares/lvgl/src/draw/lv_draw_img.c **** {
 642:Middlewares/lvgl/src/draw/lv_draw_img.c ****     lv_draw_rect_dsc_t rect_dsc;
 643:Middlewares/lvgl/src/draw/lv_draw_img.c ****     lv_draw_rect_dsc_init(&rect_dsc);
 644:Middlewares/lvgl/src/draw/lv_draw_img.c ****     rect_dsc.bg_color = lv_color_white();
 645:Middlewares/lvgl/src/draw/lv_draw_img.c ****     lv_draw_rect(coords, clip_area, &rect_dsc);
 646:Middlewares/lvgl/src/draw/lv_draw_img.c **** 
 647:Middlewares/lvgl/src/draw/lv_draw_img.c ****     lv_draw_label_dsc_t label_dsc;
 648:Middlewares/lvgl/src/draw/lv_draw_img.c ****     lv_draw_label_dsc_init(&label_dsc);
 649:Middlewares/lvgl/src/draw/lv_draw_img.c ****     lv_draw_label(coords, clip_area, &label_dsc, msg, NULL);
 650:Middlewares/lvgl/src/draw/lv_draw_img.c **** }
 651:Middlewares/lvgl/src/draw/lv_draw_img.c **** 
 652:Middlewares/lvgl/src/draw/lv_draw_img.c **** static void draw_cleanup(_lv_img_cache_entry_t * cache)
 653:Middlewares/lvgl/src/draw/lv_draw_img.c **** {
  29              		.loc 1 653 1 view -0
  30              		.cfi_startproc
  31              		@ args = 0, pretend = 0, frame = 0
  32              		@ frame_needed = 0, uses_anonymous_args = 0
ARM GAS  /tmp/ccBZPfuw.s 			page 13


  33              		.loc 1 653 1 is_stmt 0 view .LVU1
  34 0000 08B5     		push	{r3, lr}
  35              	.LCFI0:
  36              		.cfi_def_cfa_offset 8
  37              		.cfi_offset 3, -8
  38              		.cfi_offset 14, -4
 654:Middlewares/lvgl/src/draw/lv_draw_img.c ****     /*Automatically close images with no caching*/
 655:Middlewares/lvgl/src/draw/lv_draw_img.c **** #if LV_IMG_CACHE_DEF_SIZE == 0
 656:Middlewares/lvgl/src/draw/lv_draw_img.c ****     lv_img_decoder_close(&cache->dec_dsc);
  39              		.loc 1 656 5 is_stmt 1 view .LVU2
  40 0002 FFF7FEFF 		bl	lv_img_decoder_close
  41              	.LVL1:
 657:Middlewares/lvgl/src/draw/lv_draw_img.c **** #else
 658:Middlewares/lvgl/src/draw/lv_draw_img.c ****     LV_UNUSED(cache);
 659:Middlewares/lvgl/src/draw/lv_draw_img.c **** #endif
 660:Middlewares/lvgl/src/draw/lv_draw_img.c **** }
  42              		.loc 1 660 1 is_stmt 0 view .LVU3
  43 0006 08BD     		pop	{r3, pc}
  44              		.cfi_endproc
  45              	.LFE156:
  47              		.section	.text.lv_draw_map,"ax",%progbits
  48              		.align	1
  49              		.syntax unified
  50              		.thumb
  51              		.thumb_func
  52              		.fpu fpv4-sp-d16
  54              	lv_draw_map:
  55              	.LVL2:
  56              	.LFB154:
 340:Middlewares/lvgl/src/draw/lv_draw_img.c ****     /*Use the clip area as draw area*/
  57              		.loc 1 340 1 is_stmt 1 view -0
  58              		.cfi_startproc
  59              		@ args = 8, pretend = 0, frame = 184
  60              		@ frame_needed = 0, uses_anonymous_args = 0
 340:Middlewares/lvgl/src/draw/lv_draw_img.c ****     /*Use the clip area as draw area*/
  61              		.loc 1 340 1 is_stmt 0 view .LVU5
  62 0000 2DE9F04F 		push	{r4, r5, r6, r7, r8, r9, r10, fp, lr}
  63              	.LCFI1:
  64              		.cfi_def_cfa_offset 36
  65              		.cfi_offset 4, -36
  66              		.cfi_offset 5, -32
  67              		.cfi_offset 6, -28
  68              		.cfi_offset 7, -24
  69              		.cfi_offset 8, -20
  70              		.cfi_offset 9, -16
  71              		.cfi_offset 10, -12
  72              		.cfi_offset 11, -8
  73              		.cfi_offset 14, -4
  74 0004 B3B0     		sub	sp, sp, #204
  75              	.LCFI2:
  76              		.cfi_def_cfa_offset 240
  77 0006 1090     		str	r0, [sp, #64]
  78 0008 1791     		str	r1, [sp, #92]
  79 000a 1546     		mov	r5, r2
  80 000c 1E46     		mov	r6, r3
  81 000e 0693     		str	r3, [sp, #24]
  82 0010 9DF8F000 		ldrb	r0, [sp, #240]	@ zero_extendqisi2
ARM GAS  /tmp/ccBZPfuw.s 			page 14


  83              	.LVL3:
 340:Middlewares/lvgl/src/draw/lv_draw_img.c ****     /*Use the clip area as draw area*/
  84              		.loc 1 340 1 view .LVU6
  85 0014 0B90     		str	r0, [sp, #44]
  86 0016 9DF8F400 		ldrb	r0, [sp, #244]	@ zero_extendqisi2
  87 001a 0990     		str	r0, [sp, #36]
 342:Middlewares/lvgl/src/draw/lv_draw_img.c ****     lv_area_copy(&draw_area, clip_area);
  88              		.loc 1 342 5 is_stmt 1 view .LVU7
 343:Middlewares/lvgl/src/draw/lv_draw_img.c **** 
  89              		.loc 1 343 5 view .LVU8
  90              	.LVL4:
  91              	.LBB101:
  92              	.LBI101:
  93              		.file 2 "Middlewares/lvgl/src/draw/../misc/lv_area.h"
   1:Middlewares/lvgl/src/draw/../misc/lv_area.h **** /**
   2:Middlewares/lvgl/src/draw/../misc/lv_area.h ****  * @file lv_area.h
   3:Middlewares/lvgl/src/draw/../misc/lv_area.h ****  *
   4:Middlewares/lvgl/src/draw/../misc/lv_area.h ****  */
   5:Middlewares/lvgl/src/draw/../misc/lv_area.h **** 
   6:Middlewares/lvgl/src/draw/../misc/lv_area.h **** #ifndef LV_AREA_H
   7:Middlewares/lvgl/src/draw/../misc/lv_area.h **** #define LV_AREA_H
   8:Middlewares/lvgl/src/draw/../misc/lv_area.h **** 
   9:Middlewares/lvgl/src/draw/../misc/lv_area.h **** #ifdef __cplusplus
  10:Middlewares/lvgl/src/draw/../misc/lv_area.h **** extern "C" {
  11:Middlewares/lvgl/src/draw/../misc/lv_area.h **** #endif
  12:Middlewares/lvgl/src/draw/../misc/lv_area.h **** 
  13:Middlewares/lvgl/src/draw/../misc/lv_area.h **** /*********************
  14:Middlewares/lvgl/src/draw/../misc/lv_area.h ****  *      INCLUDES
  15:Middlewares/lvgl/src/draw/../misc/lv_area.h ****  *********************/
  16:Middlewares/lvgl/src/draw/../misc/lv_area.h **** #include "../lv_conf_internal.h"
  17:Middlewares/lvgl/src/draw/../misc/lv_area.h **** #include <string.h>
  18:Middlewares/lvgl/src/draw/../misc/lv_area.h **** #include <stdbool.h>
  19:Middlewares/lvgl/src/draw/../misc/lv_area.h **** #include <stdint.h>
  20:Middlewares/lvgl/src/draw/../misc/lv_area.h **** 
  21:Middlewares/lvgl/src/draw/../misc/lv_area.h **** /*********************
  22:Middlewares/lvgl/src/draw/../misc/lv_area.h ****  *      DEFINES
  23:Middlewares/lvgl/src/draw/../misc/lv_area.h ****  *********************/
  24:Middlewares/lvgl/src/draw/../misc/lv_area.h **** 
  25:Middlewares/lvgl/src/draw/../misc/lv_area.h **** #define _LV_COORD_MAX_REDUCE    8192
  26:Middlewares/lvgl/src/draw/../misc/lv_area.h **** 
  27:Middlewares/lvgl/src/draw/../misc/lv_area.h **** #if LV_USE_LARGE_COORD
  28:Middlewares/lvgl/src/draw/../misc/lv_area.h **** typedef int32_t lv_coord_t;
  29:Middlewares/lvgl/src/draw/../misc/lv_area.h **** #else
  30:Middlewares/lvgl/src/draw/../misc/lv_area.h **** typedef int16_t lv_coord_t;
  31:Middlewares/lvgl/src/draw/../misc/lv_area.h **** #endif
  32:Middlewares/lvgl/src/draw/../misc/lv_area.h **** 
  33:Middlewares/lvgl/src/draw/../misc/lv_area.h **** /*To allow some special values in the end reduce the max value*/
  34:Middlewares/lvgl/src/draw/../misc/lv_area.h **** #define LV_COORD_MAX ((lv_coord_t)((uint32_t)((uint32_t)1 << (8 * sizeof(lv_coord_t) - 1)) - _LV_CO
  35:Middlewares/lvgl/src/draw/../misc/lv_area.h **** #define LV_COORD_MIN (-LV_COORD_MAX)
  36:Middlewares/lvgl/src/draw/../misc/lv_area.h **** 
  37:Middlewares/lvgl/src/draw/../misc/lv_area.h **** LV_EXPORT_CONST_INT(LV_COORD_MAX);
  38:Middlewares/lvgl/src/draw/../misc/lv_area.h **** LV_EXPORT_CONST_INT(LV_COORD_MIN);
  39:Middlewares/lvgl/src/draw/../misc/lv_area.h **** 
  40:Middlewares/lvgl/src/draw/../misc/lv_area.h **** /**********************
  41:Middlewares/lvgl/src/draw/../misc/lv_area.h ****  *      TYPEDEFS
  42:Middlewares/lvgl/src/draw/../misc/lv_area.h ****  **********************/
  43:Middlewares/lvgl/src/draw/../misc/lv_area.h **** 
ARM GAS  /tmp/ccBZPfuw.s 			page 15


  44:Middlewares/lvgl/src/draw/../misc/lv_area.h **** /**
  45:Middlewares/lvgl/src/draw/../misc/lv_area.h ****  * Represents a point on the screen.
  46:Middlewares/lvgl/src/draw/../misc/lv_area.h ****  */
  47:Middlewares/lvgl/src/draw/../misc/lv_area.h **** typedef struct {
  48:Middlewares/lvgl/src/draw/../misc/lv_area.h ****     lv_coord_t x;
  49:Middlewares/lvgl/src/draw/../misc/lv_area.h ****     lv_coord_t y;
  50:Middlewares/lvgl/src/draw/../misc/lv_area.h **** } lv_point_t;
  51:Middlewares/lvgl/src/draw/../misc/lv_area.h **** 
  52:Middlewares/lvgl/src/draw/../misc/lv_area.h **** /** Represents an area of the screen.*/
  53:Middlewares/lvgl/src/draw/../misc/lv_area.h **** typedef struct {
  54:Middlewares/lvgl/src/draw/../misc/lv_area.h ****     lv_coord_t x1;
  55:Middlewares/lvgl/src/draw/../misc/lv_area.h ****     lv_coord_t y1;
  56:Middlewares/lvgl/src/draw/../misc/lv_area.h ****     lv_coord_t x2;
  57:Middlewares/lvgl/src/draw/../misc/lv_area.h ****     lv_coord_t y2;
  58:Middlewares/lvgl/src/draw/../misc/lv_area.h **** } lv_area_t;
  59:Middlewares/lvgl/src/draw/../misc/lv_area.h **** 
  60:Middlewares/lvgl/src/draw/../misc/lv_area.h **** /** Alignments*/
  61:Middlewares/lvgl/src/draw/../misc/lv_area.h **** enum {
  62:Middlewares/lvgl/src/draw/../misc/lv_area.h ****     LV_ALIGN_DEFAULT = 0,
  63:Middlewares/lvgl/src/draw/../misc/lv_area.h ****     LV_ALIGN_TOP_LEFT,
  64:Middlewares/lvgl/src/draw/../misc/lv_area.h ****     LV_ALIGN_TOP_MID,
  65:Middlewares/lvgl/src/draw/../misc/lv_area.h ****     LV_ALIGN_TOP_RIGHT,
  66:Middlewares/lvgl/src/draw/../misc/lv_area.h ****     LV_ALIGN_BOTTOM_LEFT,
  67:Middlewares/lvgl/src/draw/../misc/lv_area.h ****     LV_ALIGN_BOTTOM_MID,
  68:Middlewares/lvgl/src/draw/../misc/lv_area.h ****     LV_ALIGN_BOTTOM_RIGHT,
  69:Middlewares/lvgl/src/draw/../misc/lv_area.h ****     LV_ALIGN_LEFT_MID,
  70:Middlewares/lvgl/src/draw/../misc/lv_area.h ****     LV_ALIGN_RIGHT_MID,
  71:Middlewares/lvgl/src/draw/../misc/lv_area.h ****     LV_ALIGN_CENTER,
  72:Middlewares/lvgl/src/draw/../misc/lv_area.h **** 
  73:Middlewares/lvgl/src/draw/../misc/lv_area.h ****     LV_ALIGN_OUT_TOP_LEFT,
  74:Middlewares/lvgl/src/draw/../misc/lv_area.h ****     LV_ALIGN_OUT_TOP_MID,
  75:Middlewares/lvgl/src/draw/../misc/lv_area.h ****     LV_ALIGN_OUT_TOP_RIGHT,
  76:Middlewares/lvgl/src/draw/../misc/lv_area.h ****     LV_ALIGN_OUT_BOTTOM_LEFT,
  77:Middlewares/lvgl/src/draw/../misc/lv_area.h ****     LV_ALIGN_OUT_BOTTOM_MID,
  78:Middlewares/lvgl/src/draw/../misc/lv_area.h ****     LV_ALIGN_OUT_BOTTOM_RIGHT,
  79:Middlewares/lvgl/src/draw/../misc/lv_area.h ****     LV_ALIGN_OUT_LEFT_TOP,
  80:Middlewares/lvgl/src/draw/../misc/lv_area.h ****     LV_ALIGN_OUT_LEFT_MID,
  81:Middlewares/lvgl/src/draw/../misc/lv_area.h ****     LV_ALIGN_OUT_LEFT_BOTTOM,
  82:Middlewares/lvgl/src/draw/../misc/lv_area.h ****     LV_ALIGN_OUT_RIGHT_TOP,
  83:Middlewares/lvgl/src/draw/../misc/lv_area.h ****     LV_ALIGN_OUT_RIGHT_MID,
  84:Middlewares/lvgl/src/draw/../misc/lv_area.h ****     LV_ALIGN_OUT_RIGHT_BOTTOM,
  85:Middlewares/lvgl/src/draw/../misc/lv_area.h **** };
  86:Middlewares/lvgl/src/draw/../misc/lv_area.h **** typedef uint8_t lv_align_t;
  87:Middlewares/lvgl/src/draw/../misc/lv_area.h **** 
  88:Middlewares/lvgl/src/draw/../misc/lv_area.h **** enum {
  89:Middlewares/lvgl/src/draw/../misc/lv_area.h ****     LV_DIR_NONE     = 0x00,
  90:Middlewares/lvgl/src/draw/../misc/lv_area.h ****     LV_DIR_LEFT     = (1 << 0),
  91:Middlewares/lvgl/src/draw/../misc/lv_area.h ****     LV_DIR_RIGHT    = (1 << 1),
  92:Middlewares/lvgl/src/draw/../misc/lv_area.h ****     LV_DIR_TOP      = (1 << 2),
  93:Middlewares/lvgl/src/draw/../misc/lv_area.h ****     LV_DIR_BOTTOM   = (1 << 3),
  94:Middlewares/lvgl/src/draw/../misc/lv_area.h ****     LV_DIR_HOR      = LV_DIR_LEFT | LV_DIR_RIGHT,
  95:Middlewares/lvgl/src/draw/../misc/lv_area.h ****     LV_DIR_VER      = LV_DIR_TOP | LV_DIR_BOTTOM,
  96:Middlewares/lvgl/src/draw/../misc/lv_area.h ****     LV_DIR_ALL      = LV_DIR_HOR | LV_DIR_VER,
  97:Middlewares/lvgl/src/draw/../misc/lv_area.h **** };
  98:Middlewares/lvgl/src/draw/../misc/lv_area.h **** 
  99:Middlewares/lvgl/src/draw/../misc/lv_area.h **** typedef uint8_t lv_dir_t;
 100:Middlewares/lvgl/src/draw/../misc/lv_area.h **** 
ARM GAS  /tmp/ccBZPfuw.s 			page 16


 101:Middlewares/lvgl/src/draw/../misc/lv_area.h **** /**********************
 102:Middlewares/lvgl/src/draw/../misc/lv_area.h ****  * GLOBAL PROTOTYPES
 103:Middlewares/lvgl/src/draw/../misc/lv_area.h ****  **********************/
 104:Middlewares/lvgl/src/draw/../misc/lv_area.h **** 
 105:Middlewares/lvgl/src/draw/../misc/lv_area.h **** /**
 106:Middlewares/lvgl/src/draw/../misc/lv_area.h ****  * Initialize an area
 107:Middlewares/lvgl/src/draw/../misc/lv_area.h ****  * @param area_p pointer to an area
 108:Middlewares/lvgl/src/draw/../misc/lv_area.h ****  * @param x1 left coordinate of the area
 109:Middlewares/lvgl/src/draw/../misc/lv_area.h ****  * @param y1 top coordinate of the area
 110:Middlewares/lvgl/src/draw/../misc/lv_area.h ****  * @param x2 right coordinate of the area
 111:Middlewares/lvgl/src/draw/../misc/lv_area.h ****  * @param y2 bottom coordinate of the area
 112:Middlewares/lvgl/src/draw/../misc/lv_area.h ****  */
 113:Middlewares/lvgl/src/draw/../misc/lv_area.h **** void lv_area_set(lv_area_t * area_p, lv_coord_t x1, lv_coord_t y1, lv_coord_t x2, lv_coord_t y2);
 114:Middlewares/lvgl/src/draw/../misc/lv_area.h **** 
 115:Middlewares/lvgl/src/draw/../misc/lv_area.h **** /**
 116:Middlewares/lvgl/src/draw/../misc/lv_area.h ****  * Copy an area
 117:Middlewares/lvgl/src/draw/../misc/lv_area.h ****  * @param dest pointer to the destination area
 118:Middlewares/lvgl/src/draw/../misc/lv_area.h ****  * @param src pointer to the source area
 119:Middlewares/lvgl/src/draw/../misc/lv_area.h ****  */
 120:Middlewares/lvgl/src/draw/../misc/lv_area.h **** inline static void lv_area_copy(lv_area_t * dest, const lv_area_t * src)
  94              		.loc 2 120 20 view .LVU9
  95              	.LBB102:
 121:Middlewares/lvgl/src/draw/../misc/lv_area.h **** {
 122:Middlewares/lvgl/src/draw/../misc/lv_area.h ****     dest->x1 = src->x1;
  96              		.loc 2 122 5 view .LVU10
  97              		.loc 2 122 19 is_stmt 0 view .LVU11
  98 001c B1F90030 		ldrsh	r3, [r1]
  99              	.LVL5:
 100              		.loc 2 122 14 view .LVU12
 101 0020 ADF8C030 		strh	r3, [sp, #192]	@ movhi
 123:Middlewares/lvgl/src/draw/../misc/lv_area.h ****     dest->y1 = src->y1;
 102              		.loc 2 123 5 is_stmt 1 view .LVU13
 103              		.loc 2 123 19 is_stmt 0 view .LVU14
 104 0024 B1F90230 		ldrsh	r3, [r1, #2]
 105              		.loc 2 123 14 view .LVU15
 106 0028 ADF8C230 		strh	r3, [sp, #194]	@ movhi
 124:Middlewares/lvgl/src/draw/../misc/lv_area.h ****     dest->x2 = src->x2;
 107              		.loc 2 124 5 is_stmt 1 view .LVU16
 108              		.loc 2 124 19 is_stmt 0 view .LVU17
 109 002c B1F90430 		ldrsh	r3, [r1, #4]
 110              		.loc 2 124 14 view .LVU18
 111 0030 ADF8C430 		strh	r3, [sp, #196]	@ movhi
 125:Middlewares/lvgl/src/draw/../misc/lv_area.h ****     dest->y2 = src->y2;
 112              		.loc 2 125 5 is_stmt 1 view .LVU19
 113              		.loc 2 125 19 is_stmt 0 view .LVU20
 114 0034 B1F90630 		ldrsh	r3, [r1, #6]
 115              		.loc 2 125 14 view .LVU21
 116 0038 ADF8C630 		strh	r3, [sp, #198]	@ movhi
 117              	.LVL6:
 118              		.loc 2 125 14 view .LVU22
 119              	.LBE102:
 120              	.LBE101:
 345:Middlewares/lvgl/src/draw/lv_draw_img.c ****     lv_disp_draw_buf_t * draw_buf = lv_disp_get_draw_buf(disp);
 121              		.loc 1 345 5 is_stmt 1 view .LVU23
 345:Middlewares/lvgl/src/draw/lv_draw_img.c ****     lv_disp_draw_buf_t * draw_buf = lv_disp_get_draw_buf(disp);
 122              		.loc 1 345 24 is_stmt 0 view .LVU24
 123 003c FFF7FEFF 		bl	_lv_refr_get_disp_refreshing
ARM GAS  /tmp/ccBZPfuw.s 			page 17


 124              	.LVL7:
 345:Middlewares/lvgl/src/draw/lv_draw_img.c ****     lv_disp_draw_buf_t * draw_buf = lv_disp_get_draw_buf(disp);
 125              		.loc 1 345 24 view .LVU25
 126 0040 0446     		mov	r4, r0
 127              	.LVL8:
 346:Middlewares/lvgl/src/draw/lv_draw_img.c ****     const lv_area_t * disp_area = &draw_buf->area;
 128              		.loc 1 346 5 is_stmt 1 view .LVU26
 346:Middlewares/lvgl/src/draw/lv_draw_img.c ****     const lv_area_t * disp_area = &draw_buf->area;
 129              		.loc 1 346 37 is_stmt 0 view .LVU27
 130 0042 FFF7FEFF 		bl	lv_disp_get_draw_buf
 131              	.LVL9:
 346:Middlewares/lvgl/src/draw/lv_draw_img.c ****     const lv_area_t * disp_area = &draw_buf->area;
 132              		.loc 1 346 37 view .LVU28
 133 0046 0E90     		str	r0, [sp, #56]
 134              	.LVL10:
 347:Middlewares/lvgl/src/draw/lv_draw_img.c **** 
 135              		.loc 1 347 5 is_stmt 1 view .LVU29
 351:Middlewares/lvgl/src/draw/lv_draw_img.c ****     draw_area.y1 -= disp_area->y1;
 136              		.loc 1 351 5 view .LVU30
 351:Middlewares/lvgl/src/draw/lv_draw_img.c ****     draw_area.y1 -= disp_area->y1;
 137              		.loc 1 351 30 is_stmt 0 view .LVU31
 138 0048 018A     		ldrh	r1, [r0, #16]
 351:Middlewares/lvgl/src/draw/lv_draw_img.c ****     draw_area.y1 -= disp_area->y1;
 139              		.loc 1 351 18 view .LVU32
 140 004a BDF8C030 		ldrh	r3, [sp, #192]
 141 004e 5B1A     		subs	r3, r3, r1
 142 0050 ADF8C030 		strh	r3, [sp, #192]	@ movhi
 352:Middlewares/lvgl/src/draw/lv_draw_img.c ****     draw_area.x2 -= disp_area->x1;
 143              		.loc 1 352 5 is_stmt 1 view .LVU33
 352:Middlewares/lvgl/src/draw/lv_draw_img.c ****     draw_area.x2 -= disp_area->x1;
 144              		.loc 1 352 30 is_stmt 0 view .LVU34
 145 0054 428A     		ldrh	r2, [r0, #18]
 352:Middlewares/lvgl/src/draw/lv_draw_img.c ****     draw_area.x2 -= disp_area->x1;
 146              		.loc 1 352 18 view .LVU35
 147 0056 BDF8C230 		ldrh	r3, [sp, #194]
 148 005a 9B1A     		subs	r3, r3, r2
 149 005c ADF8C230 		strh	r3, [sp, #194]	@ movhi
 353:Middlewares/lvgl/src/draw/lv_draw_img.c ****     draw_area.y2 -= disp_area->y1;
 150              		.loc 1 353 5 is_stmt 1 view .LVU36
 353:Middlewares/lvgl/src/draw/lv_draw_img.c ****     draw_area.y2 -= disp_area->y1;
 151              		.loc 1 353 18 is_stmt 0 view .LVU37
 152 0060 BDF8C430 		ldrh	r3, [sp, #196]
 153 0064 5B1A     		subs	r3, r3, r1
 154 0066 ADF8C430 		strh	r3, [sp, #196]	@ movhi
 354:Middlewares/lvgl/src/draw/lv_draw_img.c **** 
 155              		.loc 1 354 5 is_stmt 1 view .LVU38
 354:Middlewares/lvgl/src/draw/lv_draw_img.c **** 
 156              		.loc 1 354 18 is_stmt 0 view .LVU39
 157 006a BDF8C630 		ldrh	r3, [sp, #198]
 158 006e 9B1A     		subs	r3, r3, r2
 159 0070 ADF8C630 		strh	r3, [sp, #198]	@ movhi
 356:Middlewares/lvgl/src/draw/lv_draw_img.c **** 
 160              		.loc 1 356 5 is_stmt 1 view .LVU40
 356:Middlewares/lvgl/src/draw/lv_draw_img.c **** 
 161              		.loc 1 356 30 is_stmt 0 view .LVU41
 162 0074 FFF7FEFF 		bl	lv_draw_mask_get_cnt
 163              	.LVL11:
ARM GAS  /tmp/ccBZPfuw.s 			page 18


 359:Middlewares/lvgl/src/draw/lv_draw_img.c ****        chroma_key == false && alpha_byte == false && draw_dsc->recolor_opa == LV_OPA_TRANSP) {
 164              		.loc 1 359 5 is_stmt 1 view .LVU42
 359:Middlewares/lvgl/src/draw/lv_draw_img.c ****        chroma_key == false && alpha_byte == false && draw_dsc->recolor_opa == LV_OPA_TRANSP) {
 165              		.loc 1 359 7 is_stmt 0 view .LVU43
 166 0078 0F90     		str	r0, [sp, #60]
 167 007a 18B9     		cbnz	r0, .L4
 359:Middlewares/lvgl/src/draw/lv_draw_img.c ****        chroma_key == false && alpha_byte == false && draw_dsc->recolor_opa == LV_OPA_TRANSP) {
 168              		.loc 1 359 52 discriminator 1 view .LVU44
 169 007c 3368     		ldr	r3, [r6]
 170 007e B3F1807F 		cmp	r3, #16777216
 171 0082 7ED0     		beq	.L53
 172              	.L4:
 173              	.LBB103:
 386:Middlewares/lvgl/src/draw/lv_draw_img.c **** 
 174              		.loc 1 386 9 is_stmt 1 view .LVU45
 386:Middlewares/lvgl/src/draw/lv_draw_img.c **** 
 175              		.loc 1 386 17 is_stmt 0 view .LVU46
 176 0084 099B     		ldr	r3, [sp, #36]
 177 0086 002B     		cmp	r3, #0
 178 0088 00F09880 		beq	.L40
 179 008c 0323     		movs	r3, #3
 180 008e 0493     		str	r3, [sp, #16]
 181              	.L6:
 182              	.LVL12:
 389:Middlewares/lvgl/src/draw/lv_draw_img.c ****         const uint8_t * map_buf_tmp = map_p;
 183              		.loc 1 389 9 is_stmt 1 discriminator 4 view .LVU47
 184              	.LBB104:
 185              	.LBI104:
 126:Middlewares/lvgl/src/draw/../misc/lv_area.h **** }
 127:Middlewares/lvgl/src/draw/../misc/lv_area.h **** 
 128:Middlewares/lvgl/src/draw/../misc/lv_area.h **** /**
 129:Middlewares/lvgl/src/draw/../misc/lv_area.h ****  * Get the width of an area
 130:Middlewares/lvgl/src/draw/../misc/lv_area.h ****  * @param area_p pointer to an area
 131:Middlewares/lvgl/src/draw/../misc/lv_area.h ****  * @return the width of the area (if x1 == x2 -> width = 1)
 132:Middlewares/lvgl/src/draw/../misc/lv_area.h ****  */
 133:Middlewares/lvgl/src/draw/../misc/lv_area.h **** static inline lv_coord_t lv_area_get_width(const lv_area_t * area_p)
 186              		.loc 2 133 26 discriminator 4 view .LVU48
 187              	.LBB105:
 134:Middlewares/lvgl/src/draw/../misc/lv_area.h **** {
 135:Middlewares/lvgl/src/draw/../misc/lv_area.h ****     return (lv_coord_t)(area_p->x2 - area_p->x1 + 1);
 188              		.loc 2 135 5 discriminator 4 view .LVU49
 189              		.loc 2 135 31 is_stmt 0 discriminator 4 view .LVU50
 190 0090 1098     		ldr	r0, [sp, #64]
 191              	.LVL13:
 192              		.loc 2 135 31 discriminator 4 view .LVU51
 193 0092 8288     		ldrh	r2, [r0, #4]
 194              		.loc 2 135 44 discriminator 4 view .LVU52
 195 0094 B0F90030 		ldrsh	r3, [r0]
 196 0098 99B2     		uxth	r1, r3
 197              		.loc 2 135 36 discriminator 4 view .LVU53
 198 009a 521A     		subs	r2, r2, r1
 199 009c 92B2     		uxth	r2, r2
 200              		.loc 2 135 49 discriminator 4 view .LVU54
 201 009e 0132     		adds	r2, r2, #1
 202              		.loc 2 135 12 discriminator 4 view .LVU55
 203 00a0 16B2     		sxth	r6, r2
 204              	.LVL14:
ARM GAS  /tmp/ccBZPfuw.s 			page 19


 205              		.loc 2 135 12 discriminator 4 view .LVU56
 206 00a2 1496     		str	r6, [sp, #80]
 207              	.LVL15:
 208              		.loc 2 135 12 discriminator 4 view .LVU57
 209              	.LBE105:
 210              	.LBE104:
 390:Middlewares/lvgl/src/draw/lv_draw_img.c ****         map_buf_tmp += map_w * (draw_area.y1 - (map_area->y1 - disp_area->y1)) * px_size_byte;
 211              		.loc 1 390 9 is_stmt 1 discriminator 4 view .LVU58
 391:Middlewares/lvgl/src/draw/lv_draw_img.c ****         map_buf_tmp += (draw_area.x1 - (map_area->x1 - disp_area->x1)) * px_size_byte;
 212              		.loc 1 391 9 discriminator 4 view .LVU59
 391:Middlewares/lvgl/src/draw/lv_draw_img.c ****         map_buf_tmp += (draw_area.x1 - (map_area->x1 - disp_area->x1)) * px_size_byte;
 213              		.loc 1 391 42 is_stmt 0 discriminator 4 view .LVU60
 214 00a4 BDF9C210 		ldrsh	r1, [sp, #194]
 391:Middlewares/lvgl/src/draw/lv_draw_img.c ****         map_buf_tmp += (draw_area.x1 - (map_area->x1 - disp_area->x1)) * px_size_byte;
 215              		.loc 1 391 57 discriminator 4 view .LVU61
 216 00a8 B0F902C0 		ldrsh	ip, [r0, #2]
 391:Middlewares/lvgl/src/draw/lv_draw_img.c ****         map_buf_tmp += (draw_area.x1 - (map_area->x1 - disp_area->x1)) * px_size_byte;
 217              		.loc 1 391 73 discriminator 4 view .LVU62
 218 00ac 0E9F     		ldr	r7, [sp, #56]
 219 00ae B7F91220 		ldrsh	r2, [r7, #18]
 391:Middlewares/lvgl/src/draw/lv_draw_img.c ****         map_buf_tmp += (draw_area.x1 - (map_area->x1 - disp_area->x1)) * px_size_byte;
 220              		.loc 1 391 62 discriminator 4 view .LVU63
 221 00b2 ACEB020C 		sub	ip, ip, r2
 391:Middlewares/lvgl/src/draw/lv_draw_img.c ****         map_buf_tmp += (draw_area.x1 - (map_area->x1 - disp_area->x1)) * px_size_byte;
 222              		.loc 1 391 46 discriminator 4 view .LVU64
 223 00b6 A1EB0C0C 		sub	ip, r1, ip
 391:Middlewares/lvgl/src/draw/lv_draw_img.c ****         map_buf_tmp += (draw_area.x1 - (map_area->x1 - disp_area->x1)) * px_size_byte;
 224              		.loc 1 391 30 discriminator 4 view .LVU65
 225 00ba 06FB0CFC 		mul	ip, r6, ip
 391:Middlewares/lvgl/src/draw/lv_draw_img.c ****         map_buf_tmp += (draw_area.x1 - (map_area->x1 - disp_area->x1)) * px_size_byte;
 226              		.loc 1 391 80 discriminator 4 view .LVU66
 227 00be 0498     		ldr	r0, [sp, #16]
 228 00c0 1590     		str	r0, [sp, #84]
 229              	.LVL16:
 392:Middlewares/lvgl/src/draw/lv_draw_img.c **** 
 230              		.loc 1 392 9 is_stmt 1 discriminator 4 view .LVU67
 392:Middlewares/lvgl/src/draw/lv_draw_img.c **** 
 231              		.loc 1 392 34 is_stmt 0 discriminator 4 view .LVU68
 232 00c2 BDF9C000 		ldrsh	r0, [sp, #192]
 233              	.LVL17:
 392:Middlewares/lvgl/src/draw/lv_draw_img.c **** 
 234              		.loc 1 392 65 discriminator 4 view .LVU69
 235 00c6 B7F91060 		ldrsh	r6, [r7, #16]
 236              	.LVL18:
 392:Middlewares/lvgl/src/draw/lv_draw_img.c **** 
 237              		.loc 1 392 54 discriminator 4 view .LVU70
 238 00ca 9B1B     		subs	r3, r3, r6
 392:Middlewares/lvgl/src/draw/lv_draw_img.c **** 
 239              		.loc 1 392 38 discriminator 4 view .LVU71
 240 00cc C31A     		subs	r3, r0, r3
 392:Middlewares/lvgl/src/draw/lv_draw_img.c **** 
 241              		.loc 1 392 72 discriminator 4 view .LVU72
 242 00ce 049F     		ldr	r7, [sp, #16]
 243 00d0 07FB03F3 		mul	r3, r7, r3
 392:Middlewares/lvgl/src/draw/lv_draw_img.c **** 
 244              		.loc 1 392 21 discriminator 4 view .LVU73
 245 00d4 07FB0C33 		mla	r3, r7, ip, r3
ARM GAS  /tmp/ccBZPfuw.s 			page 20


 246 00d8 EB18     		adds	r3, r5, r3
 247 00da 0C93     		str	r3, [sp, #48]
 248              	.LVL19:
 394:Middlewares/lvgl/src/draw/lv_draw_img.c ****         lv_color_t chroma_keyed_color = LV_COLOR_CHROMA_KEY;
 249              		.loc 1 394 9 is_stmt 1 discriminator 4 view .LVU74
 395:Middlewares/lvgl/src/draw/lv_draw_img.c ****         uint32_t px_i = 0;
 250              		.loc 1 395 9 discriminator 4 view .LVU75
 251              	.LBB106:
 252              	.LBI106:
 253              		.file 3 "Middlewares/lvgl/src/draw/../misc/lv_color.h"
   1:Middlewares/lvgl/src/draw/../misc/lv_color.h **** /**
   2:Middlewares/lvgl/src/draw/../misc/lv_color.h ****  * @file lv_color.h
   3:Middlewares/lvgl/src/draw/../misc/lv_color.h ****  *
   4:Middlewares/lvgl/src/draw/../misc/lv_color.h ****  */
   5:Middlewares/lvgl/src/draw/../misc/lv_color.h **** 
   6:Middlewares/lvgl/src/draw/../misc/lv_color.h **** #ifndef LV_COLOR_H
   7:Middlewares/lvgl/src/draw/../misc/lv_color.h **** #define LV_COLOR_H
   8:Middlewares/lvgl/src/draw/../misc/lv_color.h **** 
   9:Middlewares/lvgl/src/draw/../misc/lv_color.h **** #ifdef __cplusplus
  10:Middlewares/lvgl/src/draw/../misc/lv_color.h **** extern "C" {
  11:Middlewares/lvgl/src/draw/../misc/lv_color.h **** #endif
  12:Middlewares/lvgl/src/draw/../misc/lv_color.h **** 
  13:Middlewares/lvgl/src/draw/../misc/lv_color.h **** /*********************
  14:Middlewares/lvgl/src/draw/../misc/lv_color.h ****  *      INCLUDES
  15:Middlewares/lvgl/src/draw/../misc/lv_color.h ****  *********************/
  16:Middlewares/lvgl/src/draw/../misc/lv_color.h **** #include "../lv_conf_internal.h"
  17:Middlewares/lvgl/src/draw/../misc/lv_color.h **** #include "lv_math.h"
  18:Middlewares/lvgl/src/draw/../misc/lv_color.h **** #include "lv_types.h"
  19:Middlewares/lvgl/src/draw/../misc/lv_color.h **** 
  20:Middlewares/lvgl/src/draw/../misc/lv_color.h **** /*Error checking*/
  21:Middlewares/lvgl/src/draw/../misc/lv_color.h **** #if LV_COLOR_DEPTH == 24
  22:Middlewares/lvgl/src/draw/../misc/lv_color.h **** #error "LV_COLOR_DEPTH 24 is deprecated. Use LV_COLOR_DEPTH 32 instead (lv_conf.h)"
  23:Middlewares/lvgl/src/draw/../misc/lv_color.h **** #endif
  24:Middlewares/lvgl/src/draw/../misc/lv_color.h **** 
  25:Middlewares/lvgl/src/draw/../misc/lv_color.h **** #if LV_COLOR_DEPTH != 32 && LV_COLOR_SCREEN_TRANSP != 0
  26:Middlewares/lvgl/src/draw/../misc/lv_color.h **** #error "LV_COLOR_SCREEN_TRANSP requires LV_COLOR_DEPTH == 32. Set it in lv_conf.h"
  27:Middlewares/lvgl/src/draw/../misc/lv_color.h **** #endif
  28:Middlewares/lvgl/src/draw/../misc/lv_color.h **** 
  29:Middlewares/lvgl/src/draw/../misc/lv_color.h **** #if LV_COLOR_DEPTH != 16 && LV_COLOR_16_SWAP != 0
  30:Middlewares/lvgl/src/draw/../misc/lv_color.h **** #error "LV_COLOR_16_SWAP requires LV_COLOR_DEPTH == 16. Set it in lv_conf.h"
  31:Middlewares/lvgl/src/draw/../misc/lv_color.h **** #endif
  32:Middlewares/lvgl/src/draw/../misc/lv_color.h **** 
  33:Middlewares/lvgl/src/draw/../misc/lv_color.h **** #include <stdint.h>
  34:Middlewares/lvgl/src/draw/../misc/lv_color.h **** 
  35:Middlewares/lvgl/src/draw/../misc/lv_color.h **** /*********************
  36:Middlewares/lvgl/src/draw/../misc/lv_color.h ****  *      DEFINES
  37:Middlewares/lvgl/src/draw/../misc/lv_color.h ****  *********************/
  38:Middlewares/lvgl/src/draw/../misc/lv_color.h **** 
  39:Middlewares/lvgl/src/draw/../misc/lv_color.h **** /**
  40:Middlewares/lvgl/src/draw/../misc/lv_color.h ****  * Opacity percentages.
  41:Middlewares/lvgl/src/draw/../misc/lv_color.h ****  */
  42:Middlewares/lvgl/src/draw/../misc/lv_color.h **** enum {
  43:Middlewares/lvgl/src/draw/../misc/lv_color.h ****     LV_OPA_TRANSP = 0,
  44:Middlewares/lvgl/src/draw/../misc/lv_color.h ****     LV_OPA_0      = 0,
  45:Middlewares/lvgl/src/draw/../misc/lv_color.h ****     LV_OPA_10     = 25,
  46:Middlewares/lvgl/src/draw/../misc/lv_color.h ****     LV_OPA_20     = 51,
  47:Middlewares/lvgl/src/draw/../misc/lv_color.h ****     LV_OPA_30     = 76,
ARM GAS  /tmp/ccBZPfuw.s 			page 21


  48:Middlewares/lvgl/src/draw/../misc/lv_color.h ****     LV_OPA_40     = 102,
  49:Middlewares/lvgl/src/draw/../misc/lv_color.h ****     LV_OPA_50     = 127,
  50:Middlewares/lvgl/src/draw/../misc/lv_color.h ****     LV_OPA_60     = 153,
  51:Middlewares/lvgl/src/draw/../misc/lv_color.h ****     LV_OPA_70     = 178,
  52:Middlewares/lvgl/src/draw/../misc/lv_color.h ****     LV_OPA_80     = 204,
  53:Middlewares/lvgl/src/draw/../misc/lv_color.h ****     LV_OPA_90     = 229,
  54:Middlewares/lvgl/src/draw/../misc/lv_color.h ****     LV_OPA_100    = 255,
  55:Middlewares/lvgl/src/draw/../misc/lv_color.h ****     LV_OPA_COVER  = 255,
  56:Middlewares/lvgl/src/draw/../misc/lv_color.h **** };
  57:Middlewares/lvgl/src/draw/../misc/lv_color.h **** 
  58:Middlewares/lvgl/src/draw/../misc/lv_color.h **** #define LV_OPA_MIN 2    /*Opacities below this will be transparent*/
  59:Middlewares/lvgl/src/draw/../misc/lv_color.h **** #define LV_OPA_MAX 253  /*Opacities above this will fully cover*/
  60:Middlewares/lvgl/src/draw/../misc/lv_color.h **** 
  61:Middlewares/lvgl/src/draw/../misc/lv_color.h **** #if LV_COLOR_DEPTH == 1
  62:Middlewares/lvgl/src/draw/../misc/lv_color.h **** #define LV_COLOR_SIZE 8
  63:Middlewares/lvgl/src/draw/../misc/lv_color.h **** #elif LV_COLOR_DEPTH == 8
  64:Middlewares/lvgl/src/draw/../misc/lv_color.h **** #define LV_COLOR_SIZE 8
  65:Middlewares/lvgl/src/draw/../misc/lv_color.h **** #elif LV_COLOR_DEPTH == 16
  66:Middlewares/lvgl/src/draw/../misc/lv_color.h **** #define LV_COLOR_SIZE 16
  67:Middlewares/lvgl/src/draw/../misc/lv_color.h **** #elif LV_COLOR_DEPTH == 32
  68:Middlewares/lvgl/src/draw/../misc/lv_color.h **** #define LV_COLOR_SIZE 32
  69:Middlewares/lvgl/src/draw/../misc/lv_color.h **** #else
  70:Middlewares/lvgl/src/draw/../misc/lv_color.h **** #error "Invalid LV_COLOR_DEPTH in lv_conf.h! Set it to 1, 8, 16 or 32!"
  71:Middlewares/lvgl/src/draw/../misc/lv_color.h **** #endif
  72:Middlewares/lvgl/src/draw/../misc/lv_color.h **** 
  73:Middlewares/lvgl/src/draw/../misc/lv_color.h **** /**
  74:Middlewares/lvgl/src/draw/../misc/lv_color.h ****  * Adjust color mix functions rounding.
  75:Middlewares/lvgl/src/draw/../misc/lv_color.h ****  * GPUs might calculate color mix (blending) differently.
  76:Middlewares/lvgl/src/draw/../misc/lv_color.h ****  * Should be in range of 0..254
  77:Middlewares/lvgl/src/draw/../misc/lv_color.h ****  * 0: no adjustment, get the integer part of the result (round down)
  78:Middlewares/lvgl/src/draw/../misc/lv_color.h ****  * 64: round up from x.75
  79:Middlewares/lvgl/src/draw/../misc/lv_color.h ****  * 128: round up from half
  80:Middlewares/lvgl/src/draw/../misc/lv_color.h ****  * 192: round up from x.25
  81:Middlewares/lvgl/src/draw/../misc/lv_color.h ****  * 254: round up*/
  82:Middlewares/lvgl/src/draw/../misc/lv_color.h **** #ifndef LV_COLOR_MIX_ROUND_OFS
  83:Middlewares/lvgl/src/draw/../misc/lv_color.h **** #if LV_COLOR_DEPTH == 32
  84:Middlewares/lvgl/src/draw/../misc/lv_color.h **** #define LV_COLOR_MIX_ROUND_OFS 0
  85:Middlewares/lvgl/src/draw/../misc/lv_color.h **** #else
  86:Middlewares/lvgl/src/draw/../misc/lv_color.h **** #define LV_COLOR_MIX_ROUND_OFS 128
  87:Middlewares/lvgl/src/draw/../misc/lv_color.h **** #endif
  88:Middlewares/lvgl/src/draw/../misc/lv_color.h **** #endif
  89:Middlewares/lvgl/src/draw/../misc/lv_color.h **** 
  90:Middlewares/lvgl/src/draw/../misc/lv_color.h **** #if defined(__cplusplus) && !defined(_LV_COLOR_HAS_MODERN_CPP)
  91:Middlewares/lvgl/src/draw/../misc/lv_color.h **** /**
  92:Middlewares/lvgl/src/draw/../misc/lv_color.h **** * MSVC compiler's definition of the __cplusplus indicating 199711L regardless to C++ standard versi
  93:Middlewares/lvgl/src/draw/../misc/lv_color.h **** * see https://devblogs.microsoft.com/cppblog/msvc-now-correctly-reports-cplusplus
  94:Middlewares/lvgl/src/draw/../misc/lv_color.h **** * so we use _MSC_VER macro instead of __cplusplus
  95:Middlewares/lvgl/src/draw/../misc/lv_color.h **** */
  96:Middlewares/lvgl/src/draw/../misc/lv_color.h **** #ifdef _MSC_VER
  97:Middlewares/lvgl/src/draw/../misc/lv_color.h **** #if _MSC_VER >= 1900 /*Visual Studio 2015*/
  98:Middlewares/lvgl/src/draw/../misc/lv_color.h **** #define _LV_COLOR_HAS_MODERN_CPP 1
  99:Middlewares/lvgl/src/draw/../misc/lv_color.h **** #endif
 100:Middlewares/lvgl/src/draw/../misc/lv_color.h **** #else
 101:Middlewares/lvgl/src/draw/../misc/lv_color.h **** #if __cplusplus >= 201103L
 102:Middlewares/lvgl/src/draw/../misc/lv_color.h **** #define _LV_COLOR_HAS_MODERN_CPP 1
 103:Middlewares/lvgl/src/draw/../misc/lv_color.h **** #endif
 104:Middlewares/lvgl/src/draw/../misc/lv_color.h **** #endif
ARM GAS  /tmp/ccBZPfuw.s 			page 22


 105:Middlewares/lvgl/src/draw/../misc/lv_color.h **** #endif /*__cplusplus*/
 106:Middlewares/lvgl/src/draw/../misc/lv_color.h **** 
 107:Middlewares/lvgl/src/draw/../misc/lv_color.h **** #ifndef _LV_COLOR_HAS_MODERN_CPP
 108:Middlewares/lvgl/src/draw/../misc/lv_color.h **** #define _LV_COLOR_HAS_MODERN_CPP 0
 109:Middlewares/lvgl/src/draw/../misc/lv_color.h **** #endif
 110:Middlewares/lvgl/src/draw/../misc/lv_color.h **** 
 111:Middlewares/lvgl/src/draw/../misc/lv_color.h **** #if _LV_COLOR_HAS_MODERN_CPP
 112:Middlewares/lvgl/src/draw/../misc/lv_color.h **** /*Fix msvc compiler error C4576 inside C++ code*/
 113:Middlewares/lvgl/src/draw/../misc/lv_color.h **** #define _LV_COLOR_MAKE_TYPE_HELPER lv_color_t
 114:Middlewares/lvgl/src/draw/../misc/lv_color.h **** #else
 115:Middlewares/lvgl/src/draw/../misc/lv_color.h **** #define _LV_COLOR_MAKE_TYPE_HELPER (lv_color_t)
 116:Middlewares/lvgl/src/draw/../misc/lv_color.h **** #endif
 117:Middlewares/lvgl/src/draw/../misc/lv_color.h **** 
 118:Middlewares/lvgl/src/draw/../misc/lv_color.h **** /*---------------------------------------
 119:Middlewares/lvgl/src/draw/../misc/lv_color.h ****  * Macros for all existing color depths
 120:Middlewares/lvgl/src/draw/../misc/lv_color.h ****  * to set/get values of the color channels
 121:Middlewares/lvgl/src/draw/../misc/lv_color.h ****  *------------------------------------------*/
 122:Middlewares/lvgl/src/draw/../misc/lv_color.h **** # define LV_COLOR_SET_R1(c, v) (c).ch.red = (uint8_t)((v) & 0x1)
 123:Middlewares/lvgl/src/draw/../misc/lv_color.h **** # define LV_COLOR_SET_G1(c, v) (c).ch.green = (uint8_t)((v) & 0x1)
 124:Middlewares/lvgl/src/draw/../misc/lv_color.h **** # define LV_COLOR_SET_B1(c, v) (c).ch.blue = (uint8_t)((v) & 0x1)
 125:Middlewares/lvgl/src/draw/../misc/lv_color.h **** # define LV_COLOR_SET_A1(c, v) do {} while(0)
 126:Middlewares/lvgl/src/draw/../misc/lv_color.h **** 
 127:Middlewares/lvgl/src/draw/../misc/lv_color.h **** # define LV_COLOR_GET_R1(c) (c).ch.red
 128:Middlewares/lvgl/src/draw/../misc/lv_color.h **** # define LV_COLOR_GET_G1(c) (c).ch.green
 129:Middlewares/lvgl/src/draw/../misc/lv_color.h **** # define LV_COLOR_GET_B1(c) (c).ch.blue
 130:Middlewares/lvgl/src/draw/../misc/lv_color.h **** # define LV_COLOR_GET_A1(c) 0xFF
 131:Middlewares/lvgl/src/draw/../misc/lv_color.h **** 
 132:Middlewares/lvgl/src/draw/../misc/lv_color.h **** # define _LV_COLOR_ZERO_INITIALIZER1 {0x00}
 133:Middlewares/lvgl/src/draw/../misc/lv_color.h **** # define LV_COLOR_MAKE1(r8, g8, b8)  {(uint8_t)((b8 >> 7) | (g8 >> 7) | (r8 >> 7))}
 134:Middlewares/lvgl/src/draw/../misc/lv_color.h **** 
 135:Middlewares/lvgl/src/draw/../misc/lv_color.h **** # define LV_COLOR_SET_R8(c, v) (c).ch.red = (uint8_t)((v) & 0x7U)
 136:Middlewares/lvgl/src/draw/../misc/lv_color.h **** # define LV_COLOR_SET_G8(c, v) (c).ch.green = (uint8_t)((v) & 0x7U)
 137:Middlewares/lvgl/src/draw/../misc/lv_color.h **** # define LV_COLOR_SET_B8(c, v) (c).ch.blue = (uint8_t)((v) & 0x3U)
 138:Middlewares/lvgl/src/draw/../misc/lv_color.h **** # define LV_COLOR_SET_A8(c, v) do {} while(0)
 139:Middlewares/lvgl/src/draw/../misc/lv_color.h **** 
 140:Middlewares/lvgl/src/draw/../misc/lv_color.h **** # define LV_COLOR_GET_R8(c) (c).ch.red
 141:Middlewares/lvgl/src/draw/../misc/lv_color.h **** # define LV_COLOR_GET_G8(c) (c).ch.green
 142:Middlewares/lvgl/src/draw/../misc/lv_color.h **** # define LV_COLOR_GET_B8(c) (c).ch.blue
 143:Middlewares/lvgl/src/draw/../misc/lv_color.h **** # define LV_COLOR_GET_A8(c) 0xFF
 144:Middlewares/lvgl/src/draw/../misc/lv_color.h **** 
 145:Middlewares/lvgl/src/draw/../misc/lv_color.h **** # define _LV_COLOR_ZERO_INITIALIZER8 _LV_COLOR_MAKE_TYPE_HELPER {{0x00, 0x00, 0x00}}
 146:Middlewares/lvgl/src/draw/../misc/lv_color.h **** # define LV_COLOR_MAKE8(r8, g8, b8) _LV_COLOR_MAKE_TYPE_HELPER  {{(uint8_t)((b8 >> 6) & 0x3U), (uin
 147:Middlewares/lvgl/src/draw/../misc/lv_color.h **** 
 148:Middlewares/lvgl/src/draw/../misc/lv_color.h **** # define LV_COLOR_SET_R16(c, v) (c).ch.red = (uint8_t)((v) & 0x1FU)
 149:Middlewares/lvgl/src/draw/../misc/lv_color.h **** #if LV_COLOR_16_SWAP == 0
 150:Middlewares/lvgl/src/draw/../misc/lv_color.h **** # define LV_COLOR_SET_G16(c, v) (c).ch.green = (uint8_t)((v) & 0x3FU)
 151:Middlewares/lvgl/src/draw/../misc/lv_color.h **** #else
 152:Middlewares/lvgl/src/draw/../misc/lv_color.h **** # define LV_COLOR_SET_G16(c, v) {(c).ch.green_h = (uint8_t)(((v) >> 3) & 0x7); (c).ch.green_l = (ui
 153:Middlewares/lvgl/src/draw/../misc/lv_color.h **** #endif
 154:Middlewares/lvgl/src/draw/../misc/lv_color.h **** # define LV_COLOR_SET_B16(c, v) (c).ch.blue = (uint8_t)((v) & 0x1FU)
 155:Middlewares/lvgl/src/draw/../misc/lv_color.h **** # define LV_COLOR_SET_A16(c, v) do {} while(0)
 156:Middlewares/lvgl/src/draw/../misc/lv_color.h **** 
 157:Middlewares/lvgl/src/draw/../misc/lv_color.h **** # define LV_COLOR_GET_R16(c) (c).ch.red
 158:Middlewares/lvgl/src/draw/../misc/lv_color.h **** #if LV_COLOR_16_SWAP == 0
 159:Middlewares/lvgl/src/draw/../misc/lv_color.h **** # define LV_COLOR_GET_G16(c) (c).ch.green
 160:Middlewares/lvgl/src/draw/../misc/lv_color.h **** #else
 161:Middlewares/lvgl/src/draw/../misc/lv_color.h **** # define LV_COLOR_GET_G16(c) (((c).ch.green_h << 3) + (c).ch.green_l)
ARM GAS  /tmp/ccBZPfuw.s 			page 23


 162:Middlewares/lvgl/src/draw/../misc/lv_color.h **** #endif
 163:Middlewares/lvgl/src/draw/../misc/lv_color.h **** # define LV_COLOR_GET_B16(c) (c).ch.blue
 164:Middlewares/lvgl/src/draw/../misc/lv_color.h **** # define LV_COLOR_GET_A16(c) 0xFF
 165:Middlewares/lvgl/src/draw/../misc/lv_color.h **** 
 166:Middlewares/lvgl/src/draw/../misc/lv_color.h **** #if LV_COLOR_16_SWAP == 0
 167:Middlewares/lvgl/src/draw/../misc/lv_color.h **** # define _LV_COLOR_ZERO_INITIALIZER16  {{0x00, 0x00, 0x00}}
 168:Middlewares/lvgl/src/draw/../misc/lv_color.h **** # define LV_COLOR_MAKE16(r8, g8, b8) {{(uint8_t)((b8 >> 3) & 0x1FU), (uint8_t)((g8 >> 2) & 0x3FU), 
 169:Middlewares/lvgl/src/draw/../misc/lv_color.h **** #else
 170:Middlewares/lvgl/src/draw/../misc/lv_color.h **** # define _LV_COLOR_ZERO_INITIALIZER16 {{0x00, 0x00, 0x00, 0x00}}
 171:Middlewares/lvgl/src/draw/../misc/lv_color.h **** # define LV_COLOR_MAKE16(r8, g8, b8) {{(uint8_t)((g8 >> 5) & 0x7U), (uint8_t)((r8 >> 3) & 0x1FU), (
 172:Middlewares/lvgl/src/draw/../misc/lv_color.h **** #endif
 173:Middlewares/lvgl/src/draw/../misc/lv_color.h **** 
 174:Middlewares/lvgl/src/draw/../misc/lv_color.h **** # define LV_COLOR_SET_R32(c, v) (c).ch.red = (uint8_t)((v) & 0xFF)
 175:Middlewares/lvgl/src/draw/../misc/lv_color.h **** # define LV_COLOR_SET_G32(c, v) (c).ch.green = (uint8_t)((v) & 0xFF)
 176:Middlewares/lvgl/src/draw/../misc/lv_color.h **** # define LV_COLOR_SET_B32(c, v) (c).ch.blue = (uint8_t)((v) & 0xFF)
 177:Middlewares/lvgl/src/draw/../misc/lv_color.h **** # define LV_COLOR_SET_A32(c, v) (c).ch.alpha = (uint8_t)((v) & 0xFF)
 178:Middlewares/lvgl/src/draw/../misc/lv_color.h **** 
 179:Middlewares/lvgl/src/draw/../misc/lv_color.h **** # define LV_COLOR_GET_R32(c) (c).ch.red
 180:Middlewares/lvgl/src/draw/../misc/lv_color.h **** # define LV_COLOR_GET_G32(c) (c).ch.green
 181:Middlewares/lvgl/src/draw/../misc/lv_color.h **** # define LV_COLOR_GET_B32(c) (c).ch.blue
 182:Middlewares/lvgl/src/draw/../misc/lv_color.h **** # define LV_COLOR_GET_A32(c) (c).ch.alpha
 183:Middlewares/lvgl/src/draw/../misc/lv_color.h **** 
 184:Middlewares/lvgl/src/draw/../misc/lv_color.h **** # define _LV_COLOR_ZERO_INITIALIZER32  {{0x00, 0x00, 0x00, 0x00}}
 185:Middlewares/lvgl/src/draw/../misc/lv_color.h **** # define LV_COLOR_MAKE32(r8, g8, b8) {{b8, g8, r8, 0xff}} /*Fix 0xff alpha*/
 186:Middlewares/lvgl/src/draw/../misc/lv_color.h **** 
 187:Middlewares/lvgl/src/draw/../misc/lv_color.h **** /*---------------------------------------
 188:Middlewares/lvgl/src/draw/../misc/lv_color.h ****  * Macros for the current color depth
 189:Middlewares/lvgl/src/draw/../misc/lv_color.h ****  * to set/get values of the color channels
 190:Middlewares/lvgl/src/draw/../misc/lv_color.h ****  *------------------------------------------*/
 191:Middlewares/lvgl/src/draw/../misc/lv_color.h **** #define LV_COLOR_SET_R(c, v) LV_CONCAT(LV_COLOR_SET_R, LV_COLOR_DEPTH)(c, v)
 192:Middlewares/lvgl/src/draw/../misc/lv_color.h **** #define LV_COLOR_SET_G(c, v) LV_CONCAT(LV_COLOR_SET_G, LV_COLOR_DEPTH)(c, v)
 193:Middlewares/lvgl/src/draw/../misc/lv_color.h **** #define LV_COLOR_SET_B(c, v) LV_CONCAT(LV_COLOR_SET_B, LV_COLOR_DEPTH)(c, v)
 194:Middlewares/lvgl/src/draw/../misc/lv_color.h **** #define LV_COLOR_SET_A(c, v) LV_CONCAT(LV_COLOR_SET_A, LV_COLOR_DEPTH)(c, v)
 195:Middlewares/lvgl/src/draw/../misc/lv_color.h **** 
 196:Middlewares/lvgl/src/draw/../misc/lv_color.h **** #define LV_COLOR_GET_R(c) LV_CONCAT(LV_COLOR_GET_R, LV_COLOR_DEPTH)(c)
 197:Middlewares/lvgl/src/draw/../misc/lv_color.h **** #define LV_COLOR_GET_G(c) LV_CONCAT(LV_COLOR_GET_G, LV_COLOR_DEPTH)(c)
 198:Middlewares/lvgl/src/draw/../misc/lv_color.h **** #define LV_COLOR_GET_B(c) LV_CONCAT(LV_COLOR_GET_B, LV_COLOR_DEPTH)(c)
 199:Middlewares/lvgl/src/draw/../misc/lv_color.h **** #define LV_COLOR_GET_A(c) LV_CONCAT(LV_COLOR_GET_A, LV_COLOR_DEPTH)(c)
 200:Middlewares/lvgl/src/draw/../misc/lv_color.h **** 
 201:Middlewares/lvgl/src/draw/../misc/lv_color.h **** #define _LV_COLOR_ZERO_INITIALIZER LV_CONCAT(_LV_COLOR_ZERO_INITIALIZER, LV_COLOR_DEPTH)
 202:Middlewares/lvgl/src/draw/../misc/lv_color.h **** #define LV_COLOR_MAKE(r8, g8, b8) LV_CONCAT(LV_COLOR_MAKE, LV_COLOR_DEPTH)(r8, g8, b8)
 203:Middlewares/lvgl/src/draw/../misc/lv_color.h **** 
 204:Middlewares/lvgl/src/draw/../misc/lv_color.h **** #define LV_UDIV255(x) ((uint32_t)((uint32_t) (x) * 0x8081) >> 0x17)
 205:Middlewares/lvgl/src/draw/../misc/lv_color.h **** 
 206:Middlewares/lvgl/src/draw/../misc/lv_color.h **** /**********************
 207:Middlewares/lvgl/src/draw/../misc/lv_color.h ****  *      TYPEDEFS
 208:Middlewares/lvgl/src/draw/../misc/lv_color.h ****  **********************/
 209:Middlewares/lvgl/src/draw/../misc/lv_color.h **** 
 210:Middlewares/lvgl/src/draw/../misc/lv_color.h **** typedef union {
 211:Middlewares/lvgl/src/draw/../misc/lv_color.h ****     uint8_t full; /*must be declared first to set all bits of byte via initializer list*/
 212:Middlewares/lvgl/src/draw/../misc/lv_color.h ****     union {
 213:Middlewares/lvgl/src/draw/../misc/lv_color.h ****         uint8_t blue : 1;
 214:Middlewares/lvgl/src/draw/../misc/lv_color.h ****         uint8_t green : 1;
 215:Middlewares/lvgl/src/draw/../misc/lv_color.h ****         uint8_t red : 1;
 216:Middlewares/lvgl/src/draw/../misc/lv_color.h ****     } ch;
 217:Middlewares/lvgl/src/draw/../misc/lv_color.h **** } lv_color1_t;
 218:Middlewares/lvgl/src/draw/../misc/lv_color.h **** 
ARM GAS  /tmp/ccBZPfuw.s 			page 24


 219:Middlewares/lvgl/src/draw/../misc/lv_color.h **** typedef union {
 220:Middlewares/lvgl/src/draw/../misc/lv_color.h ****     struct {
 221:Middlewares/lvgl/src/draw/../misc/lv_color.h ****         uint8_t blue : 2;
 222:Middlewares/lvgl/src/draw/../misc/lv_color.h ****         uint8_t green : 3;
 223:Middlewares/lvgl/src/draw/../misc/lv_color.h ****         uint8_t red : 3;
 224:Middlewares/lvgl/src/draw/../misc/lv_color.h ****     } ch;
 225:Middlewares/lvgl/src/draw/../misc/lv_color.h ****     uint8_t full;
 226:Middlewares/lvgl/src/draw/../misc/lv_color.h **** } lv_color8_t;
 227:Middlewares/lvgl/src/draw/../misc/lv_color.h **** 
 228:Middlewares/lvgl/src/draw/../misc/lv_color.h **** typedef union {
 229:Middlewares/lvgl/src/draw/../misc/lv_color.h ****     struct {
 230:Middlewares/lvgl/src/draw/../misc/lv_color.h **** #if LV_COLOR_16_SWAP == 0
 231:Middlewares/lvgl/src/draw/../misc/lv_color.h ****         uint16_t blue : 5;
 232:Middlewares/lvgl/src/draw/../misc/lv_color.h ****         uint16_t green : 6;
 233:Middlewares/lvgl/src/draw/../misc/lv_color.h ****         uint16_t red : 5;
 234:Middlewares/lvgl/src/draw/../misc/lv_color.h **** #else
 235:Middlewares/lvgl/src/draw/../misc/lv_color.h ****         uint16_t green_h : 3;
 236:Middlewares/lvgl/src/draw/../misc/lv_color.h ****         uint16_t red : 5;
 237:Middlewares/lvgl/src/draw/../misc/lv_color.h ****         uint16_t blue : 5;
 238:Middlewares/lvgl/src/draw/../misc/lv_color.h ****         uint16_t green_l : 3;
 239:Middlewares/lvgl/src/draw/../misc/lv_color.h **** #endif
 240:Middlewares/lvgl/src/draw/../misc/lv_color.h ****     } ch;
 241:Middlewares/lvgl/src/draw/../misc/lv_color.h ****     uint16_t full;
 242:Middlewares/lvgl/src/draw/../misc/lv_color.h **** } lv_color16_t;
 243:Middlewares/lvgl/src/draw/../misc/lv_color.h **** 
 244:Middlewares/lvgl/src/draw/../misc/lv_color.h **** typedef union {
 245:Middlewares/lvgl/src/draw/../misc/lv_color.h ****     struct {
 246:Middlewares/lvgl/src/draw/../misc/lv_color.h ****         uint8_t blue;
 247:Middlewares/lvgl/src/draw/../misc/lv_color.h ****         uint8_t green;
 248:Middlewares/lvgl/src/draw/../misc/lv_color.h ****         uint8_t red;
 249:Middlewares/lvgl/src/draw/../misc/lv_color.h ****         uint8_t alpha;
 250:Middlewares/lvgl/src/draw/../misc/lv_color.h ****     } ch;
 251:Middlewares/lvgl/src/draw/../misc/lv_color.h ****     uint32_t full;
 252:Middlewares/lvgl/src/draw/../misc/lv_color.h **** } lv_color32_t;
 253:Middlewares/lvgl/src/draw/../misc/lv_color.h **** 
 254:Middlewares/lvgl/src/draw/../misc/lv_color.h **** typedef LV_CONCAT3(uint, LV_COLOR_SIZE, _t) lv_color_int_t;
 255:Middlewares/lvgl/src/draw/../misc/lv_color.h **** typedef LV_CONCAT3(lv_color, LV_COLOR_DEPTH, _t) lv_color_t;
 256:Middlewares/lvgl/src/draw/../misc/lv_color.h **** 
 257:Middlewares/lvgl/src/draw/../misc/lv_color.h **** typedef struct {
 258:Middlewares/lvgl/src/draw/../misc/lv_color.h ****     uint16_t h;
 259:Middlewares/lvgl/src/draw/../misc/lv_color.h ****     uint8_t s;
 260:Middlewares/lvgl/src/draw/../misc/lv_color.h ****     uint8_t v;
 261:Middlewares/lvgl/src/draw/../misc/lv_color.h **** } lv_color_hsv_t;
 262:Middlewares/lvgl/src/draw/../misc/lv_color.h **** 
 263:Middlewares/lvgl/src/draw/../misc/lv_color.h **** //! @cond Doxygen_Suppress
 264:Middlewares/lvgl/src/draw/../misc/lv_color.h **** /*No idea where the guard is required but else throws warnings in the docs*/
 265:Middlewares/lvgl/src/draw/../misc/lv_color.h **** typedef uint8_t lv_opa_t;
 266:Middlewares/lvgl/src/draw/../misc/lv_color.h **** //! @endcond
 267:Middlewares/lvgl/src/draw/../misc/lv_color.h **** 
 268:Middlewares/lvgl/src/draw/../misc/lv_color.h **** struct _lv_color_filter_dsc_t;
 269:Middlewares/lvgl/src/draw/../misc/lv_color.h **** 
 270:Middlewares/lvgl/src/draw/../misc/lv_color.h **** typedef lv_color_t (*lv_color_filter_cb_t)(const struct _lv_color_filter_dsc_t *, lv_color_t, lv_op
 271:Middlewares/lvgl/src/draw/../misc/lv_color.h **** 
 272:Middlewares/lvgl/src/draw/../misc/lv_color.h **** typedef struct _lv_color_filter_dsc_t {
 273:Middlewares/lvgl/src/draw/../misc/lv_color.h ****     lv_color_filter_cb_t filter_cb;
 274:Middlewares/lvgl/src/draw/../misc/lv_color.h ****     void * user_data;
 275:Middlewares/lvgl/src/draw/../misc/lv_color.h **** }lv_color_filter_dsc_t;
ARM GAS  /tmp/ccBZPfuw.s 			page 25


 276:Middlewares/lvgl/src/draw/../misc/lv_color.h **** 
 277:Middlewares/lvgl/src/draw/../misc/lv_color.h **** 
 278:Middlewares/lvgl/src/draw/../misc/lv_color.h **** typedef enum {
 279:Middlewares/lvgl/src/draw/../misc/lv_color.h ****     LV_PALETTE_RED,
 280:Middlewares/lvgl/src/draw/../misc/lv_color.h ****     LV_PALETTE_PINK,
 281:Middlewares/lvgl/src/draw/../misc/lv_color.h ****     LV_PALETTE_PURPLE,
 282:Middlewares/lvgl/src/draw/../misc/lv_color.h ****     LV_PALETTE_DEEP_PURPLE,
 283:Middlewares/lvgl/src/draw/../misc/lv_color.h ****     LV_PALETTE_INDIGO,
 284:Middlewares/lvgl/src/draw/../misc/lv_color.h ****     LV_PALETTE_BLUE,
 285:Middlewares/lvgl/src/draw/../misc/lv_color.h ****     LV_PALETTE_LIGHT_BLUE,
 286:Middlewares/lvgl/src/draw/../misc/lv_color.h ****     LV_PALETTE_CYAN,
 287:Middlewares/lvgl/src/draw/../misc/lv_color.h ****     LV_PALETTE_TEAL,
 288:Middlewares/lvgl/src/draw/../misc/lv_color.h ****     LV_PALETTE_GREEN,
 289:Middlewares/lvgl/src/draw/../misc/lv_color.h ****     LV_PALETTE_LIGHT_GREEN,
 290:Middlewares/lvgl/src/draw/../misc/lv_color.h ****     LV_PALETTE_LIME,
 291:Middlewares/lvgl/src/draw/../misc/lv_color.h ****     LV_PALETTE_YELLOW,
 292:Middlewares/lvgl/src/draw/../misc/lv_color.h ****     LV_PALETTE_AMBER,
 293:Middlewares/lvgl/src/draw/../misc/lv_color.h ****     LV_PALETTE_ORANGE,
 294:Middlewares/lvgl/src/draw/../misc/lv_color.h ****     LV_PALETTE_DEEP_ORANGE,
 295:Middlewares/lvgl/src/draw/../misc/lv_color.h ****     LV_PALETTE_BROWN,
 296:Middlewares/lvgl/src/draw/../misc/lv_color.h ****     LV_PALETTE_BLUE_GREY,
 297:Middlewares/lvgl/src/draw/../misc/lv_color.h ****     LV_PALETTE_GREY,
 298:Middlewares/lvgl/src/draw/../misc/lv_color.h ****     _LV_PALETTE_LAST,
 299:Middlewares/lvgl/src/draw/../misc/lv_color.h ****     LV_PALETTE_NONE = 0xff,
 300:Middlewares/lvgl/src/draw/../misc/lv_color.h **** }lv_palette_t;
 301:Middlewares/lvgl/src/draw/../misc/lv_color.h **** 
 302:Middlewares/lvgl/src/draw/../misc/lv_color.h **** /**********************
 303:Middlewares/lvgl/src/draw/../misc/lv_color.h ****  * GLOBAL PROTOTYPES
 304:Middlewares/lvgl/src/draw/../misc/lv_color.h ****  **********************/
 305:Middlewares/lvgl/src/draw/../misc/lv_color.h **** 
 306:Middlewares/lvgl/src/draw/../misc/lv_color.h **** /*In color conversations:
 307:Middlewares/lvgl/src/draw/../misc/lv_color.h ****  * - When converting to bigger color type the LSB weight of 1 LSB is calculated
 308:Middlewares/lvgl/src/draw/../misc/lv_color.h ****  *   E.g. 16 bit Red has 5 bits
 309:Middlewares/lvgl/src/draw/../misc/lv_color.h ****  *         8 bit Red has 3 bits
 310:Middlewares/lvgl/src/draw/../misc/lv_color.h ****  *        ----------------------
 311:Middlewares/lvgl/src/draw/../misc/lv_color.h ****  *        8 bit red LSB = (2^5 - 1) / (2^3 - 1) = 31 / 7 = 4
 312:Middlewares/lvgl/src/draw/../misc/lv_color.h ****  *
 313:Middlewares/lvgl/src/draw/../misc/lv_color.h ****  * - When calculating to smaller color type simply shift out the LSBs
 314:Middlewares/lvgl/src/draw/../misc/lv_color.h ****  *   E.g.  8 bit Red has 3 bits
 315:Middlewares/lvgl/src/draw/../misc/lv_color.h ****  *        16 bit Red has 5 bits
 316:Middlewares/lvgl/src/draw/../misc/lv_color.h ****  *        ----------------------
 317:Middlewares/lvgl/src/draw/../misc/lv_color.h ****  *         Shift right with 5 - 3 = 2
 318:Middlewares/lvgl/src/draw/../misc/lv_color.h ****  */
 319:Middlewares/lvgl/src/draw/../misc/lv_color.h **** static inline uint8_t lv_color_to1(lv_color_t color)
 320:Middlewares/lvgl/src/draw/../misc/lv_color.h **** {
 321:Middlewares/lvgl/src/draw/../misc/lv_color.h **** #if LV_COLOR_DEPTH == 1
 322:Middlewares/lvgl/src/draw/../misc/lv_color.h ****     return color.full;
 323:Middlewares/lvgl/src/draw/../misc/lv_color.h **** #elif LV_COLOR_DEPTH == 8
 324:Middlewares/lvgl/src/draw/../misc/lv_color.h ****     if((LV_COLOR_GET_R(color) & 0x4) || (LV_COLOR_GET_G(color) & 0x4) || (LV_COLOR_GET_B(color) & 0
 325:Middlewares/lvgl/src/draw/../misc/lv_color.h ****         return 1;
 326:Middlewares/lvgl/src/draw/../misc/lv_color.h ****     }
 327:Middlewares/lvgl/src/draw/../misc/lv_color.h ****     else {
 328:Middlewares/lvgl/src/draw/../misc/lv_color.h ****         return 0;
 329:Middlewares/lvgl/src/draw/../misc/lv_color.h ****     }
 330:Middlewares/lvgl/src/draw/../misc/lv_color.h **** #elif LV_COLOR_DEPTH == 16
 331:Middlewares/lvgl/src/draw/../misc/lv_color.h ****     if((LV_COLOR_GET_R(color) & 0x10) || (LV_COLOR_GET_G(color) & 0x20) || (LV_COLOR_GET_B(color) &
 332:Middlewares/lvgl/src/draw/../misc/lv_color.h ****         return 1;
ARM GAS  /tmp/ccBZPfuw.s 			page 26


 333:Middlewares/lvgl/src/draw/../misc/lv_color.h ****     }
 334:Middlewares/lvgl/src/draw/../misc/lv_color.h ****     else {
 335:Middlewares/lvgl/src/draw/../misc/lv_color.h ****         return 0;
 336:Middlewares/lvgl/src/draw/../misc/lv_color.h ****     }
 337:Middlewares/lvgl/src/draw/../misc/lv_color.h **** #elif LV_COLOR_DEPTH == 32
 338:Middlewares/lvgl/src/draw/../misc/lv_color.h ****     if((LV_COLOR_GET_R(color) & 0x80) || (LV_COLOR_GET_G(color) & 0x80) || (LV_COLOR_GET_B(color) &
 339:Middlewares/lvgl/src/draw/../misc/lv_color.h ****         return 1;
 340:Middlewares/lvgl/src/draw/../misc/lv_color.h ****     }
 341:Middlewares/lvgl/src/draw/../misc/lv_color.h ****     else {
 342:Middlewares/lvgl/src/draw/../misc/lv_color.h ****         return 0;
 343:Middlewares/lvgl/src/draw/../misc/lv_color.h ****     }
 344:Middlewares/lvgl/src/draw/../misc/lv_color.h **** #endif
 345:Middlewares/lvgl/src/draw/../misc/lv_color.h **** }
 346:Middlewares/lvgl/src/draw/../misc/lv_color.h **** 
 347:Middlewares/lvgl/src/draw/../misc/lv_color.h **** static inline uint8_t lv_color_to8(lv_color_t color)
 348:Middlewares/lvgl/src/draw/../misc/lv_color.h **** {
 349:Middlewares/lvgl/src/draw/../misc/lv_color.h **** #if LV_COLOR_DEPTH == 1
 350:Middlewares/lvgl/src/draw/../misc/lv_color.h ****     if(color.full == 0)
 351:Middlewares/lvgl/src/draw/../misc/lv_color.h ****         return 0;
 352:Middlewares/lvgl/src/draw/../misc/lv_color.h ****     else
 353:Middlewares/lvgl/src/draw/../misc/lv_color.h ****         return 0xFF;
 354:Middlewares/lvgl/src/draw/../misc/lv_color.h **** #elif LV_COLOR_DEPTH == 8
 355:Middlewares/lvgl/src/draw/../misc/lv_color.h ****     return color.full;
 356:Middlewares/lvgl/src/draw/../misc/lv_color.h **** #elif LV_COLOR_DEPTH == 16
 357:Middlewares/lvgl/src/draw/../misc/lv_color.h ****     lv_color8_t ret;
 358:Middlewares/lvgl/src/draw/../misc/lv_color.h ****     LV_COLOR_SET_R8(ret, LV_COLOR_GET_R(color) >> 2); /*5 - 3  = 2*/
 359:Middlewares/lvgl/src/draw/../misc/lv_color.h ****     LV_COLOR_SET_G8(ret, LV_COLOR_GET_G(color) >> 3); /*6 - 3  = 3*/
 360:Middlewares/lvgl/src/draw/../misc/lv_color.h ****     LV_COLOR_SET_B8(ret, LV_COLOR_GET_B(color) >> 3); /*5 - 2  = 3*/
 361:Middlewares/lvgl/src/draw/../misc/lv_color.h ****     return ret.full;
 362:Middlewares/lvgl/src/draw/../misc/lv_color.h **** #elif LV_COLOR_DEPTH == 32
 363:Middlewares/lvgl/src/draw/../misc/lv_color.h ****     lv_color8_t ret;
 364:Middlewares/lvgl/src/draw/../misc/lv_color.h ****     LV_COLOR_SET_R8(ret, LV_COLOR_GET_R(color) >> 5); /*8 - 3  = 5*/
 365:Middlewares/lvgl/src/draw/../misc/lv_color.h ****     LV_COLOR_SET_G8(ret, LV_COLOR_GET_G(color) >> 5); /*8 - 3  = 5*/
 366:Middlewares/lvgl/src/draw/../misc/lv_color.h ****     LV_COLOR_SET_B8(ret, LV_COLOR_GET_B(color) >> 6); /*8 - 2  = 6*/
 367:Middlewares/lvgl/src/draw/../misc/lv_color.h ****     return ret.full;
 368:Middlewares/lvgl/src/draw/../misc/lv_color.h **** #endif
 369:Middlewares/lvgl/src/draw/../misc/lv_color.h **** }
 370:Middlewares/lvgl/src/draw/../misc/lv_color.h **** 
 371:Middlewares/lvgl/src/draw/../misc/lv_color.h **** static inline uint16_t lv_color_to16(lv_color_t color)
 372:Middlewares/lvgl/src/draw/../misc/lv_color.h **** {
 373:Middlewares/lvgl/src/draw/../misc/lv_color.h **** #if LV_COLOR_DEPTH == 1
 374:Middlewares/lvgl/src/draw/../misc/lv_color.h ****     if(color.full == 0)
 375:Middlewares/lvgl/src/draw/../misc/lv_color.h ****         return 0;
 376:Middlewares/lvgl/src/draw/../misc/lv_color.h ****     else
 377:Middlewares/lvgl/src/draw/../misc/lv_color.h ****         return 0xFFFF;
 378:Middlewares/lvgl/src/draw/../misc/lv_color.h **** #elif LV_COLOR_DEPTH == 8
 379:Middlewares/lvgl/src/draw/../misc/lv_color.h ****     lv_color16_t ret;
 380:Middlewares/lvgl/src/draw/../misc/lv_color.h ****     LV_COLOR_SET_R16(ret, LV_COLOR_GET_R(color) * 4);  /*(2^5 - 1)/(2^3 - 1) = 31/7 = 4*/
 381:Middlewares/lvgl/src/draw/../misc/lv_color.h ****     LV_COLOR_SET_G16(ret, LV_COLOR_GET_G(color) * 9);  /*(2^6 - 1)/(2^3 - 1) = 63/7 = 9*/
 382:Middlewares/lvgl/src/draw/../misc/lv_color.h ****     LV_COLOR_SET_B16(ret, LV_COLOR_GET_B(color) * 10); /*(2^5 - 1)/(2^2 - 1) = 31/3 = 10*/
 383:Middlewares/lvgl/src/draw/../misc/lv_color.h ****     return ret.full;
 384:Middlewares/lvgl/src/draw/../misc/lv_color.h **** #elif LV_COLOR_DEPTH == 16
 385:Middlewares/lvgl/src/draw/../misc/lv_color.h ****     return color.full;
 386:Middlewares/lvgl/src/draw/../misc/lv_color.h **** #elif LV_COLOR_DEPTH == 32
 387:Middlewares/lvgl/src/draw/../misc/lv_color.h ****     lv_color16_t ret;
 388:Middlewares/lvgl/src/draw/../misc/lv_color.h ****     LV_COLOR_SET_R16(ret, LV_COLOR_GET_R(color) >> 3); /*8 - 5  = 3*/
 389:Middlewares/lvgl/src/draw/../misc/lv_color.h ****     LV_COLOR_SET_G16(ret, LV_COLOR_GET_G(color) >> 2); /*8 - 6  = 2*/
ARM GAS  /tmp/ccBZPfuw.s 			page 27


 390:Middlewares/lvgl/src/draw/../misc/lv_color.h ****     LV_COLOR_SET_B16(ret, LV_COLOR_GET_B(color) >> 3); /*8 - 5  = 3*/
 391:Middlewares/lvgl/src/draw/../misc/lv_color.h ****     return ret.full;
 392:Middlewares/lvgl/src/draw/../misc/lv_color.h **** #endif
 393:Middlewares/lvgl/src/draw/../misc/lv_color.h **** }
 394:Middlewares/lvgl/src/draw/../misc/lv_color.h **** 
 395:Middlewares/lvgl/src/draw/../misc/lv_color.h **** static inline uint32_t lv_color_to32(lv_color_t color)
 396:Middlewares/lvgl/src/draw/../misc/lv_color.h **** {
 397:Middlewares/lvgl/src/draw/../misc/lv_color.h **** #if LV_COLOR_DEPTH == 1
 398:Middlewares/lvgl/src/draw/../misc/lv_color.h ****     if(color.full == 0)
 399:Middlewares/lvgl/src/draw/../misc/lv_color.h ****         return 0xFF000000;
 400:Middlewares/lvgl/src/draw/../misc/lv_color.h ****     else
 401:Middlewares/lvgl/src/draw/../misc/lv_color.h ****         return 0xFFFFFFFF;
 402:Middlewares/lvgl/src/draw/../misc/lv_color.h **** #elif LV_COLOR_DEPTH == 8
 403:Middlewares/lvgl/src/draw/../misc/lv_color.h ****     lv_color32_t ret;
 404:Middlewares/lvgl/src/draw/../misc/lv_color.h ****     LV_COLOR_SET_R32(ret, LV_COLOR_GET_R(color) * 36); /*(2^8 - 1)/(2^3 - 1) = 255/7 = 36*/
 405:Middlewares/lvgl/src/draw/../misc/lv_color.h ****     LV_COLOR_SET_G32(ret, LV_COLOR_GET_G(color) * 36); /*(2^8 - 1)/(2^3 - 1) = 255/7 = 36*/
 406:Middlewares/lvgl/src/draw/../misc/lv_color.h ****     LV_COLOR_SET_B32(ret, LV_COLOR_GET_B(color) * 85); /*(2^8 - 1)/(2^2 - 1) = 255/3 = 85*/
 407:Middlewares/lvgl/src/draw/../misc/lv_color.h ****     LV_COLOR_SET_A32(ret, 0xFF);
 408:Middlewares/lvgl/src/draw/../misc/lv_color.h ****     return ret.full;
 409:Middlewares/lvgl/src/draw/../misc/lv_color.h **** #elif LV_COLOR_DEPTH == 16
 410:Middlewares/lvgl/src/draw/../misc/lv_color.h ****     /**
 411:Middlewares/lvgl/src/draw/../misc/lv_color.h ****      * The floating point math for conversion is:
 412:Middlewares/lvgl/src/draw/../misc/lv_color.h ****      *  valueto = valuefrom * ( (2^bitsto - 1) / (float)(2^bitsfrom - 1) )
 413:Middlewares/lvgl/src/draw/../misc/lv_color.h ****      * The faster integer math for conversion is:
 414:Middlewares/lvgl/src/draw/../misc/lv_color.h ****      *  valueto = ( valuefrom * multiplier + adder ) >> divisor
 415:Middlewares/lvgl/src/draw/../misc/lv_color.h ****      *   multiplier = FLOOR( ( (2^bitsto - 1) << divisor ) / (float)(2^bitsfrom - 1) )
 416:Middlewares/lvgl/src/draw/../misc/lv_color.h ****      *
 417:Middlewares/lvgl/src/draw/../misc/lv_color.h ****      * Find the first divisor where ( adder >> divisor ) <= 0
 418:Middlewares/lvgl/src/draw/../misc/lv_color.h ****      *
 419:Middlewares/lvgl/src/draw/../misc/lv_color.h ****      * 5-bit to 8-bit: ( 31 * multiplier + adder ) >> divisor = 255
 420:Middlewares/lvgl/src/draw/../misc/lv_color.h ****      * divisor  multiplier  adder  min (0)  max (31)
 421:Middlewares/lvgl/src/draw/../misc/lv_color.h ****      *       0           8      7        7       255
 422:Middlewares/lvgl/src/draw/../misc/lv_color.h ****      *       1          16     14        7       255
 423:Middlewares/lvgl/src/draw/../misc/lv_color.h ****      *       2          32     28        7       255
 424:Middlewares/lvgl/src/draw/../misc/lv_color.h ****      *       3          65     25        3       255
 425:Middlewares/lvgl/src/draw/../misc/lv_color.h ****      *       4         131     19        1       255
 426:Middlewares/lvgl/src/draw/../misc/lv_color.h ****      *       5         263      7        0       255
 427:Middlewares/lvgl/src/draw/../misc/lv_color.h ****      *
 428:Middlewares/lvgl/src/draw/../misc/lv_color.h ****      * 6-bit to 8-bit: 255 = ( 63 * multiplier + adder ) >> divisor
 429:Middlewares/lvgl/src/draw/../misc/lv_color.h ****      * divisor  multiplier  adder  min (0)  max (63)
 430:Middlewares/lvgl/src/draw/../misc/lv_color.h ****      *       0           4      3        3       255
 431:Middlewares/lvgl/src/draw/../misc/lv_color.h ****      *       1           8      6        3       255
 432:Middlewares/lvgl/src/draw/../misc/lv_color.h ****      *       2          16     12        3       255
 433:Middlewares/lvgl/src/draw/../misc/lv_color.h ****      *       3          32     24        3       255
 434:Middlewares/lvgl/src/draw/../misc/lv_color.h ****      *       4          64     48        3       255
 435:Middlewares/lvgl/src/draw/../misc/lv_color.h ****      *       5         129     33        1       255
 436:Middlewares/lvgl/src/draw/../misc/lv_color.h ****      *       6         259      3        0       255
 437:Middlewares/lvgl/src/draw/../misc/lv_color.h ****      */
 438:Middlewares/lvgl/src/draw/../misc/lv_color.h **** 
 439:Middlewares/lvgl/src/draw/../misc/lv_color.h ****     lv_color32_t ret;
 440:Middlewares/lvgl/src/draw/../misc/lv_color.h ****     LV_COLOR_SET_R32(ret, (LV_COLOR_GET_R(color) * 263 + 7) >> 5);
 441:Middlewares/lvgl/src/draw/../misc/lv_color.h ****     LV_COLOR_SET_G32(ret, (LV_COLOR_GET_G(color) * 259 + 3) >> 6);
 442:Middlewares/lvgl/src/draw/../misc/lv_color.h ****     LV_COLOR_SET_B32(ret, (LV_COLOR_GET_B(color) * 263 + 7) >> 5);
 443:Middlewares/lvgl/src/draw/../misc/lv_color.h ****     LV_COLOR_SET_A32(ret, 0xFF);
 444:Middlewares/lvgl/src/draw/../misc/lv_color.h ****     return ret.full;
 445:Middlewares/lvgl/src/draw/../misc/lv_color.h **** #elif LV_COLOR_DEPTH == 32
 446:Middlewares/lvgl/src/draw/../misc/lv_color.h ****     return color.full;
ARM GAS  /tmp/ccBZPfuw.s 			page 28


 447:Middlewares/lvgl/src/draw/../misc/lv_color.h **** #endif
 448:Middlewares/lvgl/src/draw/../misc/lv_color.h **** }
 449:Middlewares/lvgl/src/draw/../misc/lv_color.h **** 
 450:Middlewares/lvgl/src/draw/../misc/lv_color.h **** //! @cond Doxygen_Suppress
 451:Middlewares/lvgl/src/draw/../misc/lv_color.h **** 
 452:Middlewares/lvgl/src/draw/../misc/lv_color.h **** /**
 453:Middlewares/lvgl/src/draw/../misc/lv_color.h ****  * Mix two colors with a given ratio.
 454:Middlewares/lvgl/src/draw/../misc/lv_color.h ****  * @param c1 the first color to mix (usually the foreground)
 455:Middlewares/lvgl/src/draw/../misc/lv_color.h ****  * @param c2 the second color to mix (usually the background)
 456:Middlewares/lvgl/src/draw/../misc/lv_color.h ****  * @param mix The ratio of the colors. 0: full `c2`, 255: full `c1`, 127: half `c1` and half`c2`
 457:Middlewares/lvgl/src/draw/../misc/lv_color.h ****  * @return the mixed color
 458:Middlewares/lvgl/src/draw/../misc/lv_color.h ****  */
 459:Middlewares/lvgl/src/draw/../misc/lv_color.h **** LV_ATTRIBUTE_FAST_MEM static inline lv_color_t lv_color_mix(lv_color_t c1, lv_color_t c2, uint8_t m
 460:Middlewares/lvgl/src/draw/../misc/lv_color.h **** {
 461:Middlewares/lvgl/src/draw/../misc/lv_color.h ****     lv_color_t ret;
 462:Middlewares/lvgl/src/draw/../misc/lv_color.h **** #if LV_COLOR_DEPTH != 1
 463:Middlewares/lvgl/src/draw/../misc/lv_color.h ****     /*LV_COLOR_DEPTH == 8, 16 or 32*/
 464:Middlewares/lvgl/src/draw/../misc/lv_color.h ****     LV_COLOR_SET_R(ret, LV_UDIV255((uint16_t) LV_COLOR_GET_R(c1) * mix + LV_COLOR_GET_R(c2) *
 465:Middlewares/lvgl/src/draw/../misc/lv_color.h ****                                         (255 - mix) + LV_COLOR_MIX_ROUND_OFS));
 466:Middlewares/lvgl/src/draw/../misc/lv_color.h ****     LV_COLOR_SET_G(ret, LV_UDIV255((uint16_t) LV_COLOR_GET_G(c1) * mix + LV_COLOR_GET_G(c2) *
 467:Middlewares/lvgl/src/draw/../misc/lv_color.h ****                                         (255 - mix) + LV_COLOR_MIX_ROUND_OFS));
 468:Middlewares/lvgl/src/draw/../misc/lv_color.h ****     LV_COLOR_SET_B(ret, LV_UDIV255((uint16_t) LV_COLOR_GET_B(c1) * mix + LV_COLOR_GET_B(c2) *
 469:Middlewares/lvgl/src/draw/../misc/lv_color.h ****                                         (255 - mix) + LV_COLOR_MIX_ROUND_OFS));
 470:Middlewares/lvgl/src/draw/../misc/lv_color.h ****     LV_COLOR_SET_A(ret, 0xFF);
 471:Middlewares/lvgl/src/draw/../misc/lv_color.h **** #else
 472:Middlewares/lvgl/src/draw/../misc/lv_color.h ****     /*LV_COLOR_DEPTH == 1*/
 473:Middlewares/lvgl/src/draw/../misc/lv_color.h ****     ret.full = mix > LV_OPA_50 ? c1.full : c2.full;
 474:Middlewares/lvgl/src/draw/../misc/lv_color.h **** #endif
 475:Middlewares/lvgl/src/draw/../misc/lv_color.h **** 
 476:Middlewares/lvgl/src/draw/../misc/lv_color.h ****     return ret;
 477:Middlewares/lvgl/src/draw/../misc/lv_color.h **** }
 478:Middlewares/lvgl/src/draw/../misc/lv_color.h **** 
 479:Middlewares/lvgl/src/draw/../misc/lv_color.h **** LV_ATTRIBUTE_FAST_MEM static inline void lv_color_premult(lv_color_t c, uint8_t mix, uint16_t * out
 480:Middlewares/lvgl/src/draw/../misc/lv_color.h **** {
 481:Middlewares/lvgl/src/draw/../misc/lv_color.h **** #if LV_COLOR_DEPTH != 1
 482:Middlewares/lvgl/src/draw/../misc/lv_color.h ****     out[0] = (uint16_t) LV_COLOR_GET_R(c) * mix;
 483:Middlewares/lvgl/src/draw/../misc/lv_color.h ****     out[1] = (uint16_t) LV_COLOR_GET_G(c) * mix;
 484:Middlewares/lvgl/src/draw/../misc/lv_color.h ****     out[2] = (uint16_t) LV_COLOR_GET_B(c) * mix;
 485:Middlewares/lvgl/src/draw/../misc/lv_color.h **** #else
 486:Middlewares/lvgl/src/draw/../misc/lv_color.h ****     (void) mix;
 487:Middlewares/lvgl/src/draw/../misc/lv_color.h ****     /*Pre-multiplication can't be used with 1 bpp*/
 488:Middlewares/lvgl/src/draw/../misc/lv_color.h ****     out[0] = LV_COLOR_GET_R(c);
 489:Middlewares/lvgl/src/draw/../misc/lv_color.h ****     out[1] = LV_COLOR_GET_G(c);
 490:Middlewares/lvgl/src/draw/../misc/lv_color.h ****     out[2] = LV_COLOR_GET_B(c);
 491:Middlewares/lvgl/src/draw/../misc/lv_color.h **** #endif
 492:Middlewares/lvgl/src/draw/../misc/lv_color.h **** 
 493:Middlewares/lvgl/src/draw/../misc/lv_color.h **** }
 494:Middlewares/lvgl/src/draw/../misc/lv_color.h **** 
 495:Middlewares/lvgl/src/draw/../misc/lv_color.h **** /**
 496:Middlewares/lvgl/src/draw/../misc/lv_color.h ****  * Mix two colors with a given ratio. It runs faster then `lv_color_mix` but requires some pre comp
 497:Middlewares/lvgl/src/draw/../misc/lv_color.h ****  * @param premult_c1 The first color. Should be preprocessed with `lv_color_premult(c1)`
 498:Middlewares/lvgl/src/draw/../misc/lv_color.h ****  * @param c2 The second color. As it is no pre computation required on it
 499:Middlewares/lvgl/src/draw/../misc/lv_color.h ****  * @param mix The ratio of the colors. 0: full `c1`, 255: full `c2`, 127: half `c1` and half `c2`.
 500:Middlewares/lvgl/src/draw/../misc/lv_color.h ****  *            Should be modified like mix = `255 - mix`
 501:Middlewares/lvgl/src/draw/../misc/lv_color.h ****  * @return the mixed color
 502:Middlewares/lvgl/src/draw/../misc/lv_color.h ****  * @note 255 won't give clearly `c1`.
 503:Middlewares/lvgl/src/draw/../misc/lv_color.h ****  */
ARM GAS  /tmp/ccBZPfuw.s 			page 29


 504:Middlewares/lvgl/src/draw/../misc/lv_color.h **** LV_ATTRIBUTE_FAST_MEM static inline lv_color_t lv_color_mix_premult(uint16_t * premult_c1, lv_color
 505:Middlewares/lvgl/src/draw/../misc/lv_color.h **** {
 506:Middlewares/lvgl/src/draw/../misc/lv_color.h ****     lv_color_t ret;
 507:Middlewares/lvgl/src/draw/../misc/lv_color.h **** #if LV_COLOR_DEPTH != 1
 508:Middlewares/lvgl/src/draw/../misc/lv_color.h ****     /*LV_COLOR_DEPTH == 8, 16 or 32*/
 509:Middlewares/lvgl/src/draw/../misc/lv_color.h ****     LV_COLOR_SET_R(ret, LV_UDIV255(premult_c1[0] + LV_COLOR_GET_R(c2) * mix + LV_COLOR_MIX_ROUND_OF
 510:Middlewares/lvgl/src/draw/../misc/lv_color.h ****     LV_COLOR_SET_G(ret, LV_UDIV255(premult_c1[1] + LV_COLOR_GET_G(c2) * mix + LV_COLOR_MIX_ROUND_OF
 511:Middlewares/lvgl/src/draw/../misc/lv_color.h ****     LV_COLOR_SET_B(ret, LV_UDIV255(premult_c1[2] + LV_COLOR_GET_B(c2) * mix + LV_COLOR_MIX_ROUND_OF
 512:Middlewares/lvgl/src/draw/../misc/lv_color.h ****     LV_COLOR_SET_A(ret, 0xFF);
 513:Middlewares/lvgl/src/draw/../misc/lv_color.h **** #else
 514:Middlewares/lvgl/src/draw/../misc/lv_color.h ****     /*LV_COLOR_DEPTH == 1*/
 515:Middlewares/lvgl/src/draw/../misc/lv_color.h ****     /*Restore color1*/
 516:Middlewares/lvgl/src/draw/../misc/lv_color.h ****     lv_color_t c1;
 517:Middlewares/lvgl/src/draw/../misc/lv_color.h ****     LV_COLOR_SET_R(c1, premult_c1[0]);
 518:Middlewares/lvgl/src/draw/../misc/lv_color.h ****     LV_COLOR_SET_G(c1, premult_c1[1]);
 519:Middlewares/lvgl/src/draw/../misc/lv_color.h ****     LV_COLOR_SET_B(c1, premult_c1[2]);
 520:Middlewares/lvgl/src/draw/../misc/lv_color.h ****     ret.full = mix > LV_OPA_50 ? c2.full : c1.full;
 521:Middlewares/lvgl/src/draw/../misc/lv_color.h **** #endif
 522:Middlewares/lvgl/src/draw/../misc/lv_color.h **** 
 523:Middlewares/lvgl/src/draw/../misc/lv_color.h ****     return ret;
 524:Middlewares/lvgl/src/draw/../misc/lv_color.h **** }
 525:Middlewares/lvgl/src/draw/../misc/lv_color.h **** 
 526:Middlewares/lvgl/src/draw/../misc/lv_color.h **** /**
 527:Middlewares/lvgl/src/draw/../misc/lv_color.h ****  * Mix two colors. Both color can have alpha value.
 528:Middlewares/lvgl/src/draw/../misc/lv_color.h ****  * @param bg_color background color
 529:Middlewares/lvgl/src/draw/../misc/lv_color.h ****  * @param bg_opa alpha of the background color
 530:Middlewares/lvgl/src/draw/../misc/lv_color.h ****  * @param fg_color foreground color
 531:Middlewares/lvgl/src/draw/../misc/lv_color.h ****  * @param fg_opa alpha of the foreground color
 532:Middlewares/lvgl/src/draw/../misc/lv_color.h ****  * @param res_color the result color
 533:Middlewares/lvgl/src/draw/../misc/lv_color.h ****  * @param res_opa the result opacity
 534:Middlewares/lvgl/src/draw/../misc/lv_color.h ****  */
 535:Middlewares/lvgl/src/draw/../misc/lv_color.h **** LV_ATTRIBUTE_FAST_MEM static inline void lv_color_mix_with_alpha(lv_color_t bg_color, lv_opa_t bg_o
 536:Middlewares/lvgl/src/draw/../misc/lv_color.h ****                                                                  lv_color_t fg_color, lv_opa_t fg_o
 537:Middlewares/lvgl/src/draw/../misc/lv_color.h ****                                                                  lv_color_t * res_color, lv_opa_t *
 538:Middlewares/lvgl/src/draw/../misc/lv_color.h **** {
 539:Middlewares/lvgl/src/draw/../misc/lv_color.h ****     /*Pick the foreground if it's fully opaque or the Background is fully transparent*/
 540:Middlewares/lvgl/src/draw/../misc/lv_color.h ****     if(fg_opa >= LV_OPA_MAX || bg_opa <= LV_OPA_MIN) {
 541:Middlewares/lvgl/src/draw/../misc/lv_color.h ****         res_color->full = fg_color.full;
 542:Middlewares/lvgl/src/draw/../misc/lv_color.h ****         *res_opa = fg_opa;
 543:Middlewares/lvgl/src/draw/../misc/lv_color.h ****     }
 544:Middlewares/lvgl/src/draw/../misc/lv_color.h ****     /*Transparent foreground: use the Background*/
 545:Middlewares/lvgl/src/draw/../misc/lv_color.h ****     else if(fg_opa <= LV_OPA_MIN) {
 546:Middlewares/lvgl/src/draw/../misc/lv_color.h ****         res_color->full = bg_color.full;
 547:Middlewares/lvgl/src/draw/../misc/lv_color.h ****         *res_opa = bg_opa;
 548:Middlewares/lvgl/src/draw/../misc/lv_color.h ****     }
 549:Middlewares/lvgl/src/draw/../misc/lv_color.h ****     /*Opaque background: use simple mix*/
 550:Middlewares/lvgl/src/draw/../misc/lv_color.h ****     else if(bg_opa >= LV_OPA_MAX) {
 551:Middlewares/lvgl/src/draw/../misc/lv_color.h ****         *res_color = lv_color_mix(fg_color, bg_color, fg_opa);
 552:Middlewares/lvgl/src/draw/../misc/lv_color.h ****         *res_opa = LV_OPA_COVER;
 553:Middlewares/lvgl/src/draw/../misc/lv_color.h ****     }
 554:Middlewares/lvgl/src/draw/../misc/lv_color.h ****     /*Both colors have alpha. Expensive calculation need to be applied*/
 555:Middlewares/lvgl/src/draw/../misc/lv_color.h ****     else {
 556:Middlewares/lvgl/src/draw/../misc/lv_color.h ****         /*Save the parameters and the result. If they will be asked again don't compute again*/
 557:Middlewares/lvgl/src/draw/../misc/lv_color.h ****         static lv_opa_t fg_opa_save     = 0;
 558:Middlewares/lvgl/src/draw/../misc/lv_color.h ****         static lv_opa_t bg_opa_save     = 0;
 559:Middlewares/lvgl/src/draw/../misc/lv_color.h ****         static lv_color_t fg_color_save = _LV_COLOR_ZERO_INITIALIZER;
 560:Middlewares/lvgl/src/draw/../misc/lv_color.h ****         static lv_color_t bg_color_save = _LV_COLOR_ZERO_INITIALIZER;
ARM GAS  /tmp/ccBZPfuw.s 			page 30


 561:Middlewares/lvgl/src/draw/../misc/lv_color.h ****         static lv_color_t res_color_saved = _LV_COLOR_ZERO_INITIALIZER;
 562:Middlewares/lvgl/src/draw/../misc/lv_color.h ****         static lv_opa_t res_opa_saved = 0;
 563:Middlewares/lvgl/src/draw/../misc/lv_color.h **** 
 564:Middlewares/lvgl/src/draw/../misc/lv_color.h ****         if(fg_opa != fg_opa_save || bg_opa != bg_opa_save || fg_color.full != fg_color_save.full ||
 565:Middlewares/lvgl/src/draw/../misc/lv_color.h ****            bg_color.full != bg_color_save.full) {
 566:Middlewares/lvgl/src/draw/../misc/lv_color.h ****             fg_opa_save        = fg_opa;
 567:Middlewares/lvgl/src/draw/../misc/lv_color.h ****             bg_opa_save        = bg_opa;
 568:Middlewares/lvgl/src/draw/../misc/lv_color.h ****             fg_color_save.full = fg_color.full;
 569:Middlewares/lvgl/src/draw/../misc/lv_color.h ****             bg_color_save.full = bg_color.full;
 570:Middlewares/lvgl/src/draw/../misc/lv_color.h ****             /*Info:
 571:Middlewares/lvgl/src/draw/../misc/lv_color.h ****              * https://en.wikipedia.org/wiki/Alpha_compositing#Analytical_derivation_of_the_over_op
 572:Middlewares/lvgl/src/draw/../misc/lv_color.h ****             res_opa_saved = 255 - ((uint16_t)((uint16_t)(255 - fg_opa) * (255 - bg_opa)) >> 8);
 573:Middlewares/lvgl/src/draw/../misc/lv_color.h ****             if(res_opa_saved == 0) {
 574:Middlewares/lvgl/src/draw/../misc/lv_color.h ****                 while(1)
 575:Middlewares/lvgl/src/draw/../misc/lv_color.h ****                     ;
 576:Middlewares/lvgl/src/draw/../misc/lv_color.h ****             }
 577:Middlewares/lvgl/src/draw/../misc/lv_color.h ****             lv_opa_t ratio = (uint16_t)((uint16_t)fg_opa * 255) / res_opa_saved;
 578:Middlewares/lvgl/src/draw/../misc/lv_color.h ****             res_color_saved = lv_color_mix(fg_color, bg_color, ratio);
 579:Middlewares/lvgl/src/draw/../misc/lv_color.h **** 
 580:Middlewares/lvgl/src/draw/../misc/lv_color.h ****         }
 581:Middlewares/lvgl/src/draw/../misc/lv_color.h **** 
 582:Middlewares/lvgl/src/draw/../misc/lv_color.h ****         res_color->full = res_color_saved.full;
 583:Middlewares/lvgl/src/draw/../misc/lv_color.h ****         *res_opa = res_opa_saved;
 584:Middlewares/lvgl/src/draw/../misc/lv_color.h ****     }
 585:Middlewares/lvgl/src/draw/../misc/lv_color.h **** }
 586:Middlewares/lvgl/src/draw/../misc/lv_color.h **** 
 587:Middlewares/lvgl/src/draw/../misc/lv_color.h **** //! @endcond
 588:Middlewares/lvgl/src/draw/../misc/lv_color.h **** 
 589:Middlewares/lvgl/src/draw/../misc/lv_color.h **** /**
 590:Middlewares/lvgl/src/draw/../misc/lv_color.h ****  * Get the brightness of a color
 591:Middlewares/lvgl/src/draw/../misc/lv_color.h ****  * @param color a color
 592:Middlewares/lvgl/src/draw/../misc/lv_color.h ****  * @return the brightness [0..255]
 593:Middlewares/lvgl/src/draw/../misc/lv_color.h ****  */
 594:Middlewares/lvgl/src/draw/../misc/lv_color.h **** static inline uint8_t lv_color_brightness(lv_color_t color)
 595:Middlewares/lvgl/src/draw/../misc/lv_color.h **** {
 596:Middlewares/lvgl/src/draw/../misc/lv_color.h ****     lv_color32_t c32;
 597:Middlewares/lvgl/src/draw/../misc/lv_color.h ****     c32.full        = lv_color_to32(color);
 598:Middlewares/lvgl/src/draw/../misc/lv_color.h ****     uint16_t bright = (uint16_t)(3u * LV_COLOR_GET_R32(c32) + LV_COLOR_GET_B32(c32) + 4u * LV_COLOR
 599:Middlewares/lvgl/src/draw/../misc/lv_color.h ****     return (uint8_t)(bright >> 3);
 600:Middlewares/lvgl/src/draw/../misc/lv_color.h **** }
 601:Middlewares/lvgl/src/draw/../misc/lv_color.h **** 
 602:Middlewares/lvgl/src/draw/../misc/lv_color.h **** static inline lv_color_t lv_color_make(uint8_t r, uint8_t g, uint8_t b)
 603:Middlewares/lvgl/src/draw/../misc/lv_color.h **** {
 604:Middlewares/lvgl/src/draw/../misc/lv_color.h ****     return _LV_COLOR_MAKE_TYPE_HELPER LV_COLOR_MAKE(r, g, b);
 605:Middlewares/lvgl/src/draw/../misc/lv_color.h **** }
 606:Middlewares/lvgl/src/draw/../misc/lv_color.h **** 
 607:Middlewares/lvgl/src/draw/../misc/lv_color.h **** static inline lv_color_t lv_color_hex(uint32_t c)
 254              		.loc 3 607 26 discriminator 4 view .LVU76
 255              	.LBE106:
 256              	.LBE103:
 608:Middlewares/lvgl/src/draw/../misc/lv_color.h **** {
 609:Middlewares/lvgl/src/draw/../misc/lv_color.h ****     return lv_color_make((uint8_t)((c >> 16) & 0xFF), (uint8_t)((c >> 8) & 0xFF), (uint8_t)(c & 0xF
 257              		.loc 3 609 5 discriminator 4 view .LVU77
 258              	.LBB145:
 259              	.LBB109:
 260              	.LBB107:
 261              	.LBI107:
ARM GAS  /tmp/ccBZPfuw.s 			page 31


 602:Middlewares/lvgl/src/draw/../misc/lv_color.h **** {
 262              		.loc 3 602 26 discriminator 4 view .LVU78
 263              	.LBB108:
 604:Middlewares/lvgl/src/draw/../misc/lv_color.h **** }
 264              		.loc 3 604 5 discriminator 4 view .LVU79
 604:Middlewares/lvgl/src/draw/../misc/lv_color.h **** }
 265              		.loc 3 604 5 is_stmt 0 discriminator 4 view .LVU80
 266              	.LBE108:
 267              	.LBE107:
 268              	.LBE109:
 396:Middlewares/lvgl/src/draw/lv_draw_img.c **** 
 269              		.loc 1 396 9 is_stmt 1 discriminator 4 view .LVU81
 398:Middlewares/lvgl/src/draw/lv_draw_img.c **** 
 270              		.loc 1 398 9 discriminator 4 view .LVU82
 400:Middlewares/lvgl/src/draw/lv_draw_img.c ****         blend_area.x1 = draw_area.x1 + disp_area->x1;
 271              		.loc 1 400 9 discriminator 4 view .LVU83
 401:Middlewares/lvgl/src/draw/lv_draw_img.c ****         blend_area.x2 = blend_area.x1 + lv_area_get_width(&draw_area) - 1;
 272              		.loc 1 401 9 discriminator 4 view .LVU84
 401:Middlewares/lvgl/src/draw/lv_draw_img.c ****         blend_area.x2 = blend_area.x1 + lv_area_get_width(&draw_area) - 1;
 273              		.loc 1 401 34 is_stmt 0 discriminator 4 view .LVU85
 274 00dc 1FFA80FC 		uxth	ip, r0
 401:Middlewares/lvgl/src/draw/lv_draw_img.c ****         blend_area.x2 = blend_area.x1 + lv_area_get_width(&draw_area) - 1;
 275              		.loc 1 401 38 discriminator 4 view .LVU86
 276 00e0 1CFA86F6 		uxtah	r6, ip, r6
 277 00e4 B0B2     		uxth	r0, r6
 401:Middlewares/lvgl/src/draw/lv_draw_img.c ****         blend_area.x2 = blend_area.x1 + lv_area_get_width(&draw_area) - 1;
 278              		.loc 1 401 23 discriminator 4 view .LVU87
 279 00e6 ADF86C60 		strh	r6, [sp, #108]	@ movhi
 402:Middlewares/lvgl/src/draw/lv_draw_img.c ****         blend_area.y1 = disp_area->y1 + draw_area.y1;
 280              		.loc 1 402 9 is_stmt 1 discriminator 4 view .LVU88
 281              	.LVL20:
 282              	.LBB110:
 283              	.LBI110:
 133:Middlewares/lvgl/src/draw/../misc/lv_area.h **** {
 284              		.loc 2 133 26 discriminator 4 view .LVU89
 285              	.LBB111:
 286              		.loc 2 135 5 discriminator 4 view .LVU90
 287              		.loc 2 135 31 is_stmt 0 discriminator 4 view .LVU91
 288 00ea BDF8C430 		ldrh	r3, [sp, #196]
 289              	.LVL21:
 290              		.loc 2 135 36 discriminator 4 view .LVU92
 291 00ee A3EB0C03 		sub	r3, r3, ip
 292 00f2 9BB2     		uxth	r3, r3
 293              		.loc 2 135 49 discriminator 4 view .LVU93
 294 00f4 0133     		adds	r3, r3, #1
 295              		.loc 2 135 12 discriminator 4 view .LVU94
 296 00f6 0FFA83FB 		sxth	fp, r3
 297              	.LVL22:
 298              		.loc 2 135 12 discriminator 4 view .LVU95
 299              	.LBE111:
 300              	.LBE110:
 402:Middlewares/lvgl/src/draw/lv_draw_img.c ****         blend_area.y1 = disp_area->y1 + draw_area.y1;
 301              		.loc 1 402 39 discriminator 4 view .LVU96
 302 00fa 10FA83F3 		uxtah	r3, r0, r3
 303 00fe 9BB2     		uxth	r3, r3
 402:Middlewares/lvgl/src/draw/lv_draw_img.c ****         blend_area.y1 = disp_area->y1 + draw_area.y1;
 304              		.loc 1 402 71 discriminator 4 view .LVU97
ARM GAS  /tmp/ccBZPfuw.s 			page 32


 305 0100 013B     		subs	r3, r3, #1
 402:Middlewares/lvgl/src/draw/lv_draw_img.c ****         blend_area.y1 = disp_area->y1 + draw_area.y1;
 306              		.loc 1 402 23 discriminator 4 view .LVU98
 307 0102 ADF87030 		strh	r3, [sp, #112]	@ movhi
 403:Middlewares/lvgl/src/draw/lv_draw_img.c ****         blend_area.y2 = blend_area.y1;
 308              		.loc 1 403 9 is_stmt 1 discriminator 4 view .LVU99
 403:Middlewares/lvgl/src/draw/lv_draw_img.c ****         blend_area.y2 = blend_area.y1;
 309              		.loc 1 403 50 is_stmt 0 discriminator 4 view .LVU100
 310 0106 89B2     		uxth	r1, r1
 403:Middlewares/lvgl/src/draw/lv_draw_img.c ****         blend_area.y2 = blend_area.y1;
 311              		.loc 1 403 39 discriminator 4 view .LVU101
 312 0108 11FA82F3 		uxtah	r3, r1, r2
 313 010c 1BB2     		sxth	r3, r3
 403:Middlewares/lvgl/src/draw/lv_draw_img.c ****         blend_area.y2 = blend_area.y1;
 314              		.loc 1 403 23 discriminator 4 view .LVU102
 315 010e ADF86E30 		strh	r3, [sp, #110]	@ movhi
 404:Middlewares/lvgl/src/draw/lv_draw_img.c **** 
 316              		.loc 1 404 9 is_stmt 1 discriminator 4 view .LVU103
 404:Middlewares/lvgl/src/draw/lv_draw_img.c **** 
 317              		.loc 1 404 23 is_stmt 0 discriminator 4 view .LVU104
 318 0112 ADF87230 		strh	r3, [sp, #114]	@ movhi
 406:Middlewares/lvgl/src/draw/lv_draw_img.c ****         lv_coord_t draw_area_w = lv_area_get_width(&draw_area);
 319              		.loc 1 406 9 is_stmt 1 discriminator 4 view .LVU105
 320              	.LVL23:
 321              	.LBB112:
 322              	.LBI112:
 136:Middlewares/lvgl/src/draw/../misc/lv_area.h **** }
 137:Middlewares/lvgl/src/draw/../misc/lv_area.h **** 
 138:Middlewares/lvgl/src/draw/../misc/lv_area.h **** /**
 139:Middlewares/lvgl/src/draw/../misc/lv_area.h ****  * Get the height of an area
 140:Middlewares/lvgl/src/draw/../misc/lv_area.h ****  * @param area_p pointer to an area
 141:Middlewares/lvgl/src/draw/../misc/lv_area.h ****  * @return the height of the area (if y1 == y2 -> height = 1)
 142:Middlewares/lvgl/src/draw/../misc/lv_area.h ****  */
 143:Middlewares/lvgl/src/draw/../misc/lv_area.h **** static inline lv_coord_t lv_area_get_height(const lv_area_t * area_p)
 323              		.loc 2 143 26 discriminator 4 view .LVU106
 324              	.LBB113:
 144:Middlewares/lvgl/src/draw/../misc/lv_area.h **** {
 145:Middlewares/lvgl/src/draw/../misc/lv_area.h ****     return (lv_coord_t)(area_p->y2 - area_p->y1 + 1);
 325              		.loc 2 145 5 discriminator 4 view .LVU107
 326              		.loc 2 145 31 is_stmt 0 discriminator 4 view .LVU108
 327 0116 BDF8C630 		ldrh	r3, [sp, #198]
 328              		.loc 2 145 36 discriminator 4 view .LVU109
 329 011a 5B1A     		subs	r3, r3, r1
 330 011c 9BB2     		uxth	r3, r3
 331              		.loc 2 145 49 discriminator 4 view .LVU110
 332 011e 0133     		adds	r3, r3, #1
 333              		.loc 2 145 12 discriminator 4 view .LVU111
 334 0120 1BB2     		sxth	r3, r3
 335 0122 1293     		str	r3, [sp, #72]
 336              	.LVL24:
 337              		.loc 2 145 12 discriminator 4 view .LVU112
 338              	.LBE113:
 339              	.LBE112:
 407:Middlewares/lvgl/src/draw/lv_draw_img.c **** 
 340              		.loc 1 407 9 is_stmt 1 discriminator 4 view .LVU113
 407:Middlewares/lvgl/src/draw/lv_draw_img.c **** 
 341              		.loc 1 407 9 is_stmt 0 discriminator 4 view .LVU114
ARM GAS  /tmp/ccBZPfuw.s 			page 33


 342              	.LBE145:
 135:Middlewares/lvgl/src/draw/../misc/lv_area.h **** }
 343              		.loc 2 135 5 is_stmt 1 discriminator 4 view .LVU115
 344              	.LBB146:
 409:Middlewares/lvgl/src/draw/lv_draw_img.c ****         /*Simple ARGB image. Handle it as special case because it's very common*/
 345              		.loc 1 409 9 discriminator 4 view .LVU116
 409:Middlewares/lvgl/src/draw/lv_draw_img.c ****         /*Simple ARGB image. Handle it as special case because it's very common*/
 346              		.loc 1 409 47 is_stmt 0 discriminator 4 view .LVU117
 347 0124 069B     		ldr	r3, [sp, #24]
 348 0126 1B68     		ldr	r3, [r3]
 349 0128 1393     		str	r3, [sp, #76]
 350              	.LVL25:
 411:Middlewares/lvgl/src/draw/lv_draw_img.c **** #if LV_USE_GPU_STM32_DMA2D && LV_COLOR_DEPTH == 32
 351              		.loc 1 411 9 is_stmt 1 discriminator 4 view .LVU118
 411:Middlewares/lvgl/src/draw/lv_draw_img.c **** #if LV_USE_GPU_STM32_DMA2D && LV_COLOR_DEPTH == 32
 352              		.loc 1 411 11 is_stmt 0 discriminator 4 view .LVU119
 353 012a 0F9A     		ldr	r2, [sp, #60]
 354 012c 12B9     		cbnz	r2, .L7
 411:Middlewares/lvgl/src/draw/lv_draw_img.c **** #if LV_USE_GPU_STM32_DMA2D && LV_COLOR_DEPTH == 32
 355              		.loc 1 411 32 discriminator 1 view .LVU120
 356 012e B3F1807F 		cmp	r3, #16777216
 357 0132 46D0     		beq	.L54
 358              	.LVL26:
 359              	.L7:
 360              	.LBB114:
 474:Middlewares/lvgl/src/draw/lv_draw_img.c ****             uint32_t mask_buf_size = lv_area_get_size(&draw_area) > hor_res ? hor_res : lv_area_get
 361              		.loc 1 474 13 is_stmt 1 view .LVU121
 474:Middlewares/lvgl/src/draw/lv_draw_img.c ****             uint32_t mask_buf_size = lv_area_get_size(&draw_area) > hor_res ? hor_res : lv_area_get
 362              		.loc 1 474 43 is_stmt 0 view .LVU122
 363 0134 2046     		mov	r0, r4
 364 0136 FFF7FEFF 		bl	lv_disp_get_hor_res
 365              	.LVL27:
 474:Middlewares/lvgl/src/draw/lv_draw_img.c ****             uint32_t mask_buf_size = lv_area_get_size(&draw_area) > hor_res ? hor_res : lv_area_get
 366              		.loc 1 474 43 view .LVU123
 367 013a 0446     		mov	r4, r0
 368              	.LVL28:
 474:Middlewares/lvgl/src/draw/lv_draw_img.c ****             uint32_t mask_buf_size = lv_area_get_size(&draw_area) > hor_res ? hor_res : lv_area_get
 369              		.loc 1 474 22 view .LVU124
 370 013c 1190     		str	r0, [sp, #68]
 371              	.LVL29:
 475:Middlewares/lvgl/src/draw/lv_draw_img.c ****             lv_color_t * map2 = lv_mem_buf_get(mask_buf_size * sizeof(lv_color_t));
 372              		.loc 1 475 13 is_stmt 1 view .LVU125
 475:Middlewares/lvgl/src/draw/lv_draw_img.c ****             lv_color_t * map2 = lv_mem_buf_get(mask_buf_size * sizeof(lv_color_t));
 373              		.loc 1 475 38 is_stmt 0 view .LVU126
 374 013e 30A8     		add	r0, sp, #192
 375              	.LVL30:
 475:Middlewares/lvgl/src/draw/lv_draw_img.c ****             lv_color_t * map2 = lv_mem_buf_get(mask_buf_size * sizeof(lv_color_t));
 376              		.loc 1 475 38 view .LVU127
 377 0140 FFF7FEFF 		bl	lv_area_get_size
 378              	.LVL31:
 475:Middlewares/lvgl/src/draw/lv_draw_img.c ****             lv_color_t * map2 = lv_mem_buf_get(mask_buf_size * sizeof(lv_color_t));
 379              		.loc 1 475 87 view .LVU128
 380 0144 A042     		cmp	r0, r4
 381 0146 40F2CC80 		bls	.L55
 382              	.L17:
 383              	.LVL32:
 476:Middlewares/lvgl/src/draw/lv_draw_img.c ****             lv_opa_t * mask_buf = lv_mem_buf_get(mask_buf_size);
ARM GAS  /tmp/ccBZPfuw.s 			page 34


 384              		.loc 1 476 13 is_stmt 1 discriminator 4 view .LVU129
 476:Middlewares/lvgl/src/draw/lv_draw_img.c ****             lv_opa_t * mask_buf = lv_mem_buf_get(mask_buf_size);
 385              		.loc 1 476 33 is_stmt 0 discriminator 4 view .LVU130
 386 014a 119C     		ldr	r4, [sp, #68]
 387              	.LVL33:
 476:Middlewares/lvgl/src/draw/lv_draw_img.c ****             lv_opa_t * mask_buf = lv_mem_buf_get(mask_buf_size);
 388              		.loc 1 476 33 discriminator 4 view .LVU131
 389 014c 6000     		lsls	r0, r4, #1
 390 014e FFF7FEFF 		bl	lv_mem_buf_get
 391              	.LVL34:
 392 0152 0790     		str	r0, [sp, #28]
 393              	.LVL35:
 477:Middlewares/lvgl/src/draw/lv_draw_img.c **** 
 394              		.loc 1 477 13 is_stmt 1 discriminator 4 view .LVU132
 477:Middlewares/lvgl/src/draw/lv_draw_img.c **** 
 395              		.loc 1 477 35 is_stmt 0 discriminator 4 view .LVU133
 396 0154 2046     		mov	r0, r4
 397              	.LVL36:
 477:Middlewares/lvgl/src/draw/lv_draw_img.c **** 
 398              		.loc 1 477 35 discriminator 4 view .LVU134
 399 0156 FFF7FEFF 		bl	lv_mem_buf_get
 400              	.LVL37:
 401 015a 8046     		mov	r8, r0
 402              	.LVL38:
 480:Middlewares/lvgl/src/draw/lv_draw_img.c ****             lv_memset_00(&trans_dsc, sizeof(lv_img_transform_dsc_t));
 403              		.loc 1 480 13 is_stmt 1 discriminator 4 view .LVU135
 481:Middlewares/lvgl/src/draw/lv_draw_img.c ****             if(transform) {
 404              		.loc 1 481 13 discriminator 4 view .LVU136
 405 015c 4C21     		movs	r1, #76
 406 015e 1DA8     		add	r0, sp, #116
 407              	.LVL39:
 481:Middlewares/lvgl/src/draw/lv_draw_img.c ****             if(transform) {
 408              		.loc 1 481 13 is_stmt 0 discriminator 4 view .LVU137
 409 0160 FFF7FEFF 		bl	lv_memset_00
 410              	.LVL40:
 482:Middlewares/lvgl/src/draw/lv_draw_img.c ****                 lv_img_cf_t cf = LV_IMG_CF_TRUE_COLOR;
 411              		.loc 1 482 13 is_stmt 1 discriminator 4 view .LVU138
 482:Middlewares/lvgl/src/draw/lv_draw_img.c ****                 lv_img_cf_t cf = LV_IMG_CF_TRUE_COLOR;
 412              		.loc 1 482 15 is_stmt 0 discriminator 4 view .LVU139
 413 0164 139B     		ldr	r3, [sp, #76]
 414 0166 B3F1807F 		cmp	r3, #16777216
 415 016a 00F0E980 		beq	.L18
 416              	.LBB115:
 483:Middlewares/lvgl/src/draw/lv_draw_img.c ****                 if(alpha_byte) cf = LV_IMG_CF_TRUE_COLOR_ALPHA;
 417              		.loc 1 483 17 is_stmt 1 view .LVU140
 418              	.LVL41:
 484:Middlewares/lvgl/src/draw/lv_draw_img.c ****                 else if(chroma_key) cf = LV_IMG_CF_TRUE_COLOR_CHROMA_KEYED;
 419              		.loc 1 484 17 view .LVU141
 484:Middlewares/lvgl/src/draw/lv_draw_img.c ****                 else if(chroma_key) cf = LV_IMG_CF_TRUE_COLOR_CHROMA_KEYED;
 420              		.loc 1 484 19 is_stmt 0 view .LVU142
 421 016e 099B     		ldr	r3, [sp, #36]
 422 0170 002B     		cmp	r3, #0
 423 0172 40F0BB80 		bne	.L42
 485:Middlewares/lvgl/src/draw/lv_draw_img.c **** 
 424              		.loc 1 485 22 is_stmt 1 view .LVU143
 485:Middlewares/lvgl/src/draw/lv_draw_img.c **** 
 425              		.loc 1 485 24 is_stmt 0 view .LVU144
ARM GAS  /tmp/ccBZPfuw.s 			page 35


 426 0176 0B9B     		ldr	r3, [sp, #44]
 427 0178 002B     		cmp	r3, #0
 428 017a 40F00B81 		bne	.L43
 483:Middlewares/lvgl/src/draw/lv_draw_img.c ****                 if(alpha_byte) cf = LV_IMG_CF_TRUE_COLOR_ALPHA;
 429              		.loc 1 483 29 view .LVU145
 430 017e 0421     		movs	r1, #4
 431 0180 B5E0     		b	.L19
 432              	.LVL42:
 433              	.L53:
 483:Middlewares/lvgl/src/draw/lv_draw_img.c ****                 if(alpha_byte) cf = LV_IMG_CF_TRUE_COLOR_ALPHA;
 434              		.loc 1 483 29 view .LVU146
 435              	.LBE115:
 436              	.LBE114:
 437              	.LBE146:
 359:Middlewares/lvgl/src/draw/lv_draw_img.c ****        chroma_key == false && alpha_byte == false && draw_dsc->recolor_opa == LV_OPA_TRANSP) {
 438              		.loc 1 359 90 discriminator 2 view .LVU147
 439 0182 0B9B     		ldr	r3, [sp, #44]
 440 0184 002B     		cmp	r3, #0
 441 0186 7FF47DAF 		bne	.L4
 360:Middlewares/lvgl/src/draw/lv_draw_img.c ****         _lv_blend_map(clip_area, map_area, (lv_color_t *)map_p, NULL, LV_DRAW_MASK_RES_FULL_COVER, 
 442              		.loc 1 360 28 view .LVU148
 443 018a 099B     		ldr	r3, [sp, #36]
 444 018c 002B     		cmp	r3, #0
 445 018e 7FF479AF 		bne	.L4
 360:Middlewares/lvgl/src/draw/lv_draw_img.c ****         _lv_blend_map(clip_area, map_area, (lv_color_t *)map_p, NULL, LV_DRAW_MASK_RES_FULL_COVER, 
 446              		.loc 1 360 62 discriminator 1 view .LVU149
 447 0192 069B     		ldr	r3, [sp, #24]
 448 0194 9B7A     		ldrb	r3, [r3, #10]	@ zero_extendqisi2
 360:Middlewares/lvgl/src/draw/lv_draw_img.c ****         _lv_blend_map(clip_area, map_area, (lv_color_t *)map_p, NULL, LV_DRAW_MASK_RES_FULL_COVER, 
 449              		.loc 1 360 51 discriminator 1 view .LVU150
 450 0196 002B     		cmp	r3, #0
 451 0198 7FF474AF 		bne	.L4
 361:Middlewares/lvgl/src/draw/lv_draw_img.c ****                       draw_dsc->blend_mode);
 452              		.loc 1 361 9 is_stmt 1 view .LVU151
 362:Middlewares/lvgl/src/draw/lv_draw_img.c ****     }
 453              		.loc 1 362 31 is_stmt 0 view .LVU152
 454 019c 069A     		ldr	r2, [sp, #24]
 455 019e 137B     		ldrb	r3, [r2, #12]	@ zero_extendqisi2
 456 01a0 03F00F03 		and	r3, r3, #15
 361:Middlewares/lvgl/src/draw/lv_draw_img.c ****                       draw_dsc->blend_mode);
 457              		.loc 1 361 9 view .LVU153
 458 01a4 0293     		str	r3, [sp, #8]
 459 01a6 D37A     		ldrb	r3, [r2, #11]	@ zero_extendqisi2
 460 01a8 0193     		str	r3, [sp, #4]
 461 01aa 0123     		movs	r3, #1
 462 01ac 0093     		str	r3, [sp]
 463 01ae 0023     		movs	r3, #0
 464 01b0 2A46     		mov	r2, r5
 465 01b2 1099     		ldr	r1, [sp, #64]
 466 01b4 1798     		ldr	r0, [sp, #92]
 467              	.LVL43:
 361:Middlewares/lvgl/src/draw/lv_draw_img.c ****                       draw_dsc->blend_mode);
 468              		.loc 1 361 9 view .LVU154
 469 01b6 FFF7FEFF 		bl	_lv_blend_map
 470              	.LVL44:
 471 01ba 1FE2     		b	.L3
 472              	.LVL45:
ARM GAS  /tmp/ccBZPfuw.s 			page 36


 473              	.L40:
 474              	.LBB147:
 386:Middlewares/lvgl/src/draw/lv_draw_img.c **** 
 475              		.loc 1 386 17 view .LVU155
 476 01bc 0223     		movs	r3, #2
 477 01be 0493     		str	r3, [sp, #16]
 478 01c0 66E7     		b	.L6
 479              	.LVL46:
 480              	.L54:
 411:Middlewares/lvgl/src/draw/lv_draw_img.c **** #if LV_USE_GPU_STM32_DMA2D && LV_COLOR_DEPTH == 32
 481              		.loc 1 411 46 discriminator 2 view .LVU156
 482 01c2 0B9B     		ldr	r3, [sp, #44]
 483              	.LVL47:
 411:Middlewares/lvgl/src/draw/lv_draw_img.c **** #if LV_USE_GPU_STM32_DMA2D && LV_COLOR_DEPTH == 32
 484              		.loc 1 411 46 discriminator 2 view .LVU157
 485 01c4 002B     		cmp	r3, #0
 486 01c6 B5D1     		bne	.L7
 411:Middlewares/lvgl/src/draw/lv_draw_img.c **** #if LV_USE_GPU_STM32_DMA2D && LV_COLOR_DEPTH == 32
 487              		.loc 1 411 72 discriminator 3 view .LVU158
 488 01c8 069B     		ldr	r3, [sp, #24]
 489 01ca 9B7A     		ldrb	r3, [r3, #10]	@ zero_extendqisi2
 411:Middlewares/lvgl/src/draw/lv_draw_img.c **** #if LV_USE_GPU_STM32_DMA2D && LV_COLOR_DEPTH == 32
 490              		.loc 1 411 61 discriminator 3 view .LVU159
 491 01cc 002B     		cmp	r3, #0
 492 01ce B1D1     		bne	.L7
 411:Middlewares/lvgl/src/draw/lv_draw_img.c **** #if LV_USE_GPU_STM32_DMA2D && LV_COLOR_DEPTH == 32
 493              		.loc 1 411 103 discriminator 4 view .LVU160
 494 01d0 099B     		ldr	r3, [sp, #36]
 495 01d2 002B     		cmp	r3, #0
 496 01d4 AED0     		beq	.L7
 497              	.LBB136:
 423:Middlewares/lvgl/src/draw/lv_draw_img.c ****             uint32_t mask_buf_size = lv_area_get_size(&draw_area) > (uint32_t) hor_res ? hor_res : 
 498              		.loc 1 423 13 is_stmt 1 view .LVU161
 423:Middlewares/lvgl/src/draw/lv_draw_img.c ****             uint32_t mask_buf_size = lv_area_get_size(&draw_area) > (uint32_t) hor_res ? hor_res : 
 499              		.loc 1 423 43 is_stmt 0 view .LVU162
 500 01d6 2046     		mov	r0, r4
 501 01d8 FFF7FEFF 		bl	lv_disp_get_hor_res
 502              	.LVL48:
 423:Middlewares/lvgl/src/draw/lv_draw_img.c ****             uint32_t mask_buf_size = lv_area_get_size(&draw_area) > (uint32_t) hor_res ? hor_res : 
 503              		.loc 1 423 43 view .LVU163
 504 01dc 0446     		mov	r4, r0
 505              	.LVL49:
 423:Middlewares/lvgl/src/draw/lv_draw_img.c ****             uint32_t mask_buf_size = lv_area_get_size(&draw_area) > (uint32_t) hor_res ? hor_res : 
 506              		.loc 1 423 22 view .LVU164
 507 01de 0746     		mov	r7, r0
 508              	.LVL50:
 424:Middlewares/lvgl/src/draw/lv_draw_img.c ****             lv_color_t * map2 = lv_mem_buf_get(mask_buf_size * sizeof(lv_color_t));
 509              		.loc 1 424 13 is_stmt 1 view .LVU165
 424:Middlewares/lvgl/src/draw/lv_draw_img.c ****             lv_color_t * map2 = lv_mem_buf_get(mask_buf_size * sizeof(lv_color_t));
 510              		.loc 1 424 38 is_stmt 0 view .LVU166
 511 01e0 30A8     		add	r0, sp, #192
 512              	.LVL51:
 424:Middlewares/lvgl/src/draw/lv_draw_img.c ****             lv_color_t * map2 = lv_mem_buf_get(mask_buf_size * sizeof(lv_color_t));
 513              		.loc 1 424 38 view .LVU167
 514 01e2 FFF7FEFF 		bl	lv_area_get_size
 515              	.LVL52:
 424:Middlewares/lvgl/src/draw/lv_draw_img.c ****             lv_color_t * map2 = lv_mem_buf_get(mask_buf_size * sizeof(lv_color_t));
ARM GAS  /tmp/ccBZPfuw.s 			page 37


 516              		.loc 1 424 98 view .LVU168
 517 01e6 A042     		cmp	r0, r4
 518 01e8 10D9     		bls	.L56
 519              	.L8:
 520              	.LVL53:
 425:Middlewares/lvgl/src/draw/lv_draw_img.c ****             lv_opa_t * mask_buf = lv_mem_buf_get(mask_buf_size);
 521              		.loc 1 425 13 is_stmt 1 discriminator 4 view .LVU169
 425:Middlewares/lvgl/src/draw/lv_draw_img.c ****             lv_opa_t * mask_buf = lv_mem_buf_get(mask_buf_size);
 522              		.loc 1 425 33 is_stmt 0 discriminator 4 view .LVU170
 523 01ea 7800     		lsls	r0, r7, #1
 524 01ec FFF7FEFF 		bl	lv_mem_buf_get
 525              	.LVL54:
 526 01f0 0546     		mov	r5, r0
 527              	.LVL55:
 426:Middlewares/lvgl/src/draw/lv_draw_img.c **** 
 528              		.loc 1 426 13 is_stmt 1 discriminator 4 view .LVU171
 426:Middlewares/lvgl/src/draw/lv_draw_img.c **** 
 529              		.loc 1 426 35 is_stmt 0 discriminator 4 view .LVU172
 530 01f2 3846     		mov	r0, r7
 531              	.LVL56:
 426:Middlewares/lvgl/src/draw/lv_draw_img.c **** 
 532              		.loc 1 426 35 discriminator 4 view .LVU173
 533 01f4 FFF7FEFF 		bl	lv_mem_buf_get
 534              	.LVL57:
 535 01f8 0446     		mov	r4, r0
 536              	.LVL58:
 428:Middlewares/lvgl/src/draw/lv_draw_img.c ****             int32_t y;
 537              		.loc 1 428 13 is_stmt 1 discriminator 4 view .LVU174
 429:Middlewares/lvgl/src/draw/lv_draw_img.c ****             for(y = 0; y < draw_area_h; y++) {
 538              		.loc 1 429 13 discriminator 4 view .LVU175
 430:Middlewares/lvgl/src/draw/lv_draw_img.c ****                 map_px = map_buf_tmp;
 539              		.loc 1 430 13 discriminator 4 view .LVU176
 430:Middlewares/lvgl/src/draw/lv_draw_img.c ****                 map_px = map_buf_tmp;
 540              		.loc 1 430 19 is_stmt 0 discriminator 4 view .LVU177
 541 01fa 0026     		movs	r6, #0
 542              	.LBE136:
 396:Middlewares/lvgl/src/draw/lv_draw_img.c **** 
 543              		.loc 1 396 18 discriminator 4 view .LVU178
 544 01fc 3246     		mov	r2, r6
 545 01fe DDF83090 		ldr	r9, [sp, #48]
 546 0202 DDF81080 		ldr	r8, [sp, #16]
 547 0206 DDF818A0 		ldr	r10, [sp, #24]
 548              	.LBB140:
 430:Middlewares/lvgl/src/draw/lv_draw_img.c ****                 map_px = map_buf_tmp;
 549              		.loc 1 430 13 discriminator 4 view .LVU179
 550 020a 2AE0     		b	.L9
 551              	.LVL59:
 552              	.L56:
 424:Middlewares/lvgl/src/draw/lv_draw_img.c ****             lv_color_t * map2 = lv_mem_buf_get(mask_buf_size * sizeof(lv_color_t));
 553              		.loc 1 424 100 discriminator 1 view .LVU180
 554 020c 30A8     		add	r0, sp, #192
 555 020e FFF7FEFF 		bl	lv_area_get_size
 556              	.LVL60:
 557 0212 0746     		mov	r7, r0
 558 0214 E9E7     		b	.L8
 559              	.LVL61:
 560              	.L10:
ARM GAS  /tmp/ccBZPfuw.s 			page 38


 432:Middlewares/lvgl/src/draw/lv_draw_img.c ****                     lv_opa_t px_opa = map_px[LV_IMG_PX_SIZE_ALPHA_BYTE - 1];
 561              		.loc 1 432 45 is_stmt 1 discriminator 2 view .LVU181
 432:Middlewares/lvgl/src/draw/lv_draw_img.c ****                     lv_opa_t px_opa = map_px[LV_IMG_PX_SIZE_ALPHA_BYTE - 1];
 562              		.loc 1 432 46 is_stmt 0 discriminator 2 view .LVU182
 563 0216 0131     		adds	r1, r1, #1
 564              	.LVL62:
 432:Middlewares/lvgl/src/draw/lv_draw_img.c ****                     lv_opa_t px_opa = map_px[LV_IMG_PX_SIZE_ALPHA_BYTE - 1];
 565              		.loc 1 432 57 discriminator 2 view .LVU183
 566 0218 4344     		add	r3, r3, r8
 567              	.LVL63:
 432:Middlewares/lvgl/src/draw/lv_draw_img.c ****                     lv_opa_t px_opa = map_px[LV_IMG_PX_SIZE_ALPHA_BYTE - 1];
 568              		.loc 1 432 78 discriminator 2 view .LVU184
 569 021a 0132     		adds	r2, r2, #1
 570              	.LVL64:
 571              	.L14:
 432:Middlewares/lvgl/src/draw/lv_draw_img.c ****                     lv_opa_t px_opa = map_px[LV_IMG_PX_SIZE_ALPHA_BYTE - 1];
 572              		.loc 1 432 28 is_stmt 1 discriminator 1 view .LVU185
 432:Middlewares/lvgl/src/draw/lv_draw_img.c ****                     lv_opa_t px_opa = map_px[LV_IMG_PX_SIZE_ALPHA_BYTE - 1];
 573              		.loc 1 432 17 is_stmt 0 discriminator 1 view .LVU186
 574 021c 8B45     		cmp	fp, r1
 575 021e 0BDD     		ble	.L57
 576              	.LBB137:
 433:Middlewares/lvgl/src/draw/lv_draw_img.c ****                     mask_buf[px_i] = px_opa;
 577              		.loc 1 433 21 is_stmt 1 view .LVU187
 433:Middlewares/lvgl/src/draw/lv_draw_img.c ****                     mask_buf[px_i] = px_opa;
 578              		.loc 1 433 30 is_stmt 0 view .LVU188
 579 0220 9878     		ldrb	r0, [r3, #2]	@ zero_extendqisi2
 580              	.LVL65:
 434:Middlewares/lvgl/src/draw/lv_draw_img.c ****                     if(px_opa) {
 581              		.loc 1 434 21 is_stmt 1 view .LVU189
 434:Middlewares/lvgl/src/draw/lv_draw_img.c ****                     if(px_opa) {
 582              		.loc 1 434 36 is_stmt 0 view .LVU190
 583 0222 A054     		strb	r0, [r4, r2]
 435:Middlewares/lvgl/src/draw/lv_draw_img.c **** #if LV_COLOR_DEPTH == 8 || LV_COLOR_DEPTH == 1
 584              		.loc 1 435 21 is_stmt 1 view .LVU191
 435:Middlewares/lvgl/src/draw/lv_draw_img.c **** #if LV_COLOR_DEPTH == 8 || LV_COLOR_DEPTH == 1
 585              		.loc 1 435 23 is_stmt 0 view .LVU192
 586 0224 0028     		cmp	r0, #0
 587 0226 F6D0     		beq	.L10
 439:Middlewares/lvgl/src/draw/lv_draw_img.c **** #elif LV_COLOR_DEPTH == 32
 588              		.loc 1 439 25 is_stmt 1 view .LVU193
 439:Middlewares/lvgl/src/draw/lv_draw_img.c **** #elif LV_COLOR_DEPTH == 32
 589              		.loc 1 439 50 is_stmt 0 view .LVU194
 590 0228 1878     		ldrb	r0, [r3]	@ zero_extendqisi2
 591              	.LVL66:
 439:Middlewares/lvgl/src/draw/lv_draw_img.c **** #elif LV_COLOR_DEPTH == 32
 592              		.loc 1 439 63 view .LVU195
 593 022a 93F801C0 		ldrb	ip, [r3, #1]	@ zero_extendqisi2
 439:Middlewares/lvgl/src/draw/lv_draw_img.c **** #elif LV_COLOR_DEPTH == 32
 594              		.loc 1 439 54 view .LVU196
 595 022e 00EB0C20 		add	r0, r0, ip, lsl #8
 439:Middlewares/lvgl/src/draw/lv_draw_img.c **** #elif LV_COLOR_DEPTH == 32
 596              		.loc 1 439 41 view .LVU197
 597 0232 25F81200 		strh	r0, [r5, r2, lsl #1]	@ movhi
 598              	.LVL67:
 439:Middlewares/lvgl/src/draw/lv_draw_img.c **** #elif LV_COLOR_DEPTH == 32
 599              		.loc 1 439 41 view .LVU198
ARM GAS  /tmp/ccBZPfuw.s 			page 39


 600 0236 EEE7     		b	.L10
 601              	.L57:
 439:Middlewares/lvgl/src/draw/lv_draw_img.c **** #elif LV_COLOR_DEPTH == 32
 602              		.loc 1 439 41 view .LVU199
 603              	.LBE137:
 449:Middlewares/lvgl/src/draw/lv_draw_img.c ****                 if(px_i + lv_area_get_width(&draw_area) < mask_buf_size) {
 604              		.loc 1 449 17 is_stmt 1 view .LVU200
 449:Middlewares/lvgl/src/draw/lv_draw_img.c ****                 if(px_i + lv_area_get_width(&draw_area) < mask_buf_size) {
 605              		.loc 1 449 29 is_stmt 0 view .LVU201
 606 0238 159B     		ldr	r3, [sp, #84]
 607              	.LVL68:
 449:Middlewares/lvgl/src/draw/lv_draw_img.c ****                 if(px_i + lv_area_get_width(&draw_area) < mask_buf_size) {
 608              		.loc 1 449 29 view .LVU202
 609 023a 1499     		ldr	r1, [sp, #80]
 610              	.LVL69:
 449:Middlewares/lvgl/src/draw/lv_draw_img.c ****                 if(px_i + lv_area_get_width(&draw_area) < mask_buf_size) {
 611              		.loc 1 449 29 view .LVU203
 612 023c 01FB0399 		mla	r9, r1, r3, r9
 613              	.LVL70:
 450:Middlewares/lvgl/src/draw/lv_draw_img.c ****                     blend_area.y2 ++;
 614              		.loc 1 450 17 is_stmt 1 view .LVU204
 615              	.LBB138:
 616              	.LBI138:
 133:Middlewares/lvgl/src/draw/../misc/lv_area.h **** {
 617              		.loc 2 133 26 view .LVU205
 618              	.LBB139:
 135:Middlewares/lvgl/src/draw/../misc/lv_area.h **** }
 619              		.loc 2 135 5 view .LVU206
 135:Middlewares/lvgl/src/draw/../misc/lv_area.h **** }
 620              		.loc 2 135 31 is_stmt 0 view .LVU207
 621 0240 BDF8C430 		ldrh	r3, [sp, #196]
 135:Middlewares/lvgl/src/draw/../misc/lv_area.h **** }
 622              		.loc 2 135 44 view .LVU208
 623 0244 BDF8C010 		ldrh	r1, [sp, #192]
 135:Middlewares/lvgl/src/draw/../misc/lv_area.h **** }
 624              		.loc 2 135 36 view .LVU209
 625 0248 5B1A     		subs	r3, r3, r1
 626 024a 9BB2     		uxth	r3, r3
 135:Middlewares/lvgl/src/draw/../misc/lv_area.h **** }
 627              		.loc 2 135 49 view .LVU210
 628 024c 0133     		adds	r3, r3, #1
 629              	.LVL71:
 135:Middlewares/lvgl/src/draw/../misc/lv_area.h **** }
 630              		.loc 2 135 49 view .LVU211
 631              	.LBE139:
 632              	.LBE138:
 450:Middlewares/lvgl/src/draw/lv_draw_img.c ****                     blend_area.y2 ++;
 633              		.loc 1 450 25 view .LVU212
 634 024e 02FA83F3 		sxtah	r3, r2, r3
 450:Middlewares/lvgl/src/draw/lv_draw_img.c ****                     blend_area.y2 ++;
 635              		.loc 1 450 19 view .LVU213
 636 0252 BB42     		cmp	r3, r7
 637 0254 0BD2     		bcs	.L12
 451:Middlewares/lvgl/src/draw/lv_draw_img.c ****                 }
 638              		.loc 1 451 21 is_stmt 1 view .LVU214
 451:Middlewares/lvgl/src/draw/lv_draw_img.c ****                 }
 639              		.loc 1 451 31 is_stmt 0 view .LVU215
ARM GAS  /tmp/ccBZPfuw.s 			page 40


 640 0256 BDF97230 		ldrsh	r3, [sp, #114]
 451:Middlewares/lvgl/src/draw/lv_draw_img.c ****                 }
 641              		.loc 1 451 35 view .LVU216
 642 025a 0133     		adds	r3, r3, #1
 643 025c ADF87230 		strh	r3, [sp, #114]	@ movhi
 644              	.LVL72:
 645              	.L13:
 430:Middlewares/lvgl/src/draw/lv_draw_img.c ****                 map_px = map_buf_tmp;
 646              		.loc 1 430 41 is_stmt 1 discriminator 2 view .LVU217
 430:Middlewares/lvgl/src/draw/lv_draw_img.c ****                 map_px = map_buf_tmp;
 647              		.loc 1 430 42 is_stmt 0 discriminator 2 view .LVU218
 648 0260 0136     		adds	r6, r6, #1
 649              	.LVL73:
 650              	.L9:
 430:Middlewares/lvgl/src/draw/lv_draw_img.c ****                 map_px = map_buf_tmp;
 651              		.loc 1 430 24 is_stmt 1 discriminator 1 view .LVU219
 430:Middlewares/lvgl/src/draw/lv_draw_img.c ****                 map_px = map_buf_tmp;
 652              		.loc 1 430 13 is_stmt 0 discriminator 1 view .LVU220
 653 0262 129B     		ldr	r3, [sp, #72]
 654 0264 B342     		cmp	r3, r6
 655 0266 1CDD     		ble	.L58
 431:Middlewares/lvgl/src/draw/lv_draw_img.c ****                 for(x = 0; x < draw_area_w; x++, map_px += px_size_byte, px_i++) {
 656              		.loc 1 431 24 view .LVU221
 657 0268 4B46     		mov	r3, r9
 432:Middlewares/lvgl/src/draw/lv_draw_img.c ****                     lv_opa_t px_opa = map_px[LV_IMG_PX_SIZE_ALPHA_BYTE - 1];
 658              		.loc 1 432 23 view .LVU222
 659 026a 0021     		movs	r1, #0
 660 026c D6E7     		b	.L14
 661              	.L12:
 454:Middlewares/lvgl/src/draw/lv_draw_img.c **** 
 662              		.loc 1 454 21 is_stmt 1 view .LVU223
 454:Middlewares/lvgl/src/draw/lv_draw_img.c **** 
 663              		.loc 1 454 124 is_stmt 0 view .LVU224
 664 026e 9AF80C30 		ldrb	r3, [r10, #12]	@ zero_extendqisi2
 665 0272 03F00F03 		and	r3, r3, #15
 454:Middlewares/lvgl/src/draw/lv_draw_img.c **** 
 666              		.loc 1 454 21 view .LVU225
 667 0276 0293     		str	r3, [sp, #8]
 668 0278 9AF80B30 		ldrb	r3, [r10, #11]	@ zero_extendqisi2
 669 027c 0193     		str	r3, [sp, #4]
 670 027e 0223     		movs	r3, #2
 671 0280 0093     		str	r3, [sp]
 672 0282 2346     		mov	r3, r4
 673 0284 2A46     		mov	r2, r5
 674              	.LVL74:
 454:Middlewares/lvgl/src/draw/lv_draw_img.c **** 
 675              		.loc 1 454 21 view .LVU226
 676 0286 1BA9     		add	r1, sp, #108
 677 0288 1798     		ldr	r0, [sp, #92]
 678 028a FFF7FEFF 		bl	_lv_blend_map
 679              	.LVL75:
 456:Middlewares/lvgl/src/draw/lv_draw_img.c ****                     blend_area.y2 = blend_area.y1;
 680              		.loc 1 456 21 is_stmt 1 view .LVU227
 456:Middlewares/lvgl/src/draw/lv_draw_img.c ****                     blend_area.y2 = blend_area.y1;
 681              		.loc 1 456 47 is_stmt 0 view .LVU228
 682 028e BDF87230 		ldrh	r3, [sp, #114]
 456:Middlewares/lvgl/src/draw/lv_draw_img.c ****                     blend_area.y2 = blend_area.y1;
ARM GAS  /tmp/ccBZPfuw.s 			page 41


 683              		.loc 1 456 51 view .LVU229
 684 0292 0133     		adds	r3, r3, #1
 685 0294 1BB2     		sxth	r3, r3
 456:Middlewares/lvgl/src/draw/lv_draw_img.c ****                     blend_area.y2 = blend_area.y1;
 686              		.loc 1 456 35 view .LVU230
 687 0296 ADF86E30 		strh	r3, [sp, #110]	@ movhi
 457:Middlewares/lvgl/src/draw/lv_draw_img.c **** 
 688              		.loc 1 457 21 is_stmt 1 view .LVU231
 457:Middlewares/lvgl/src/draw/lv_draw_img.c **** 
 689              		.loc 1 457 35 is_stmt 0 view .LVU232
 690 029a ADF87230 		strh	r3, [sp, #114]	@ movhi
 459:Middlewares/lvgl/src/draw/lv_draw_img.c ****                 }
 691              		.loc 1 459 21 is_stmt 1 view .LVU233
 692              	.LVL76:
 459:Middlewares/lvgl/src/draw/lv_draw_img.c ****                 }
 693              		.loc 1 459 26 is_stmt 0 view .LVU234
 694 029e 0022     		movs	r2, #0
 695 02a0 DEE7     		b	.L13
 696              	.LVL77:
 697              	.L58:
 463:Middlewares/lvgl/src/draw/lv_draw_img.c ****                 blend_area.y2--;
 698              		.loc 1 463 13 is_stmt 1 view .LVU235
 463:Middlewares/lvgl/src/draw/lv_draw_img.c ****                 blend_area.y2--;
 699              		.loc 1 463 26 is_stmt 0 view .LVU236
 700 02a2 BDF96E20 		ldrsh	r2, [sp, #110]
 701              	.LVL78:
 463:Middlewares/lvgl/src/draw/lv_draw_img.c ****                 blend_area.y2--;
 702              		.loc 1 463 43 view .LVU237
 703 02a6 BDF97230 		ldrsh	r3, [sp, #114]
 463:Middlewares/lvgl/src/draw/lv_draw_img.c ****                 blend_area.y2--;
 704              		.loc 1 463 15 view .LVU238
 705 02aa 9A42     		cmp	r2, r3
 706 02ac 06D1     		bne	.L59
 707              	.L15:
 468:Middlewares/lvgl/src/draw/lv_draw_img.c ****             lv_mem_buf_release(map2);
 708              		.loc 1 468 13 is_stmt 1 view .LVU239
 709 02ae 2046     		mov	r0, r4
 710 02b0 FFF7FEFF 		bl	lv_mem_buf_release
 711              	.LVL79:
 469:Middlewares/lvgl/src/draw/lv_draw_img.c ****         }
 712              		.loc 1 469 13 view .LVU240
 713 02b4 2846     		mov	r0, r5
 714 02b6 FFF7FEFF 		bl	lv_mem_buf_release
 715              	.LVL80:
 716              	.LBE140:
 411:Middlewares/lvgl/src/draw/lv_draw_img.c **** #if LV_USE_GPU_STM32_DMA2D && LV_COLOR_DEPTH == 32
 717              		.loc 1 411 118 is_stmt 0 view .LVU241
 718 02ba 9FE1     		b	.L3
 719              	.L59:
 720              	.LBB141:
 464:Middlewares/lvgl/src/draw/lv_draw_img.c ****                 _lv_blend_map(clip_area, &blend_area, map2, mask_buf, LV_DRAW_MASK_RES_CHANGED, dra
 721              		.loc 1 464 17 is_stmt 1 view .LVU242
 464:Middlewares/lvgl/src/draw/lv_draw_img.c ****                 _lv_blend_map(clip_area, &blend_area, map2, mask_buf, LV_DRAW_MASK_RES_CHANGED, dra
 722              		.loc 1 464 30 is_stmt 0 view .LVU243
 723 02bc 013B     		subs	r3, r3, #1
 724 02be ADF87230 		strh	r3, [sp, #114]	@ movhi
 465:Middlewares/lvgl/src/draw/lv_draw_img.c ****             }
ARM GAS  /tmp/ccBZPfuw.s 			page 42


 725              		.loc 1 465 17 is_stmt 1 view .LVU244
 465:Middlewares/lvgl/src/draw/lv_draw_img.c ****             }
 726              		.loc 1 465 120 is_stmt 0 view .LVU245
 727 02c2 069A     		ldr	r2, [sp, #24]
 728 02c4 137B     		ldrb	r3, [r2, #12]	@ zero_extendqisi2
 729 02c6 03F00F03 		and	r3, r3, #15
 465:Middlewares/lvgl/src/draw/lv_draw_img.c ****             }
 730              		.loc 1 465 17 view .LVU246
 731 02ca 0293     		str	r3, [sp, #8]
 732 02cc D37A     		ldrb	r3, [r2, #11]	@ zero_extendqisi2
 733 02ce 0193     		str	r3, [sp, #4]
 734 02d0 0223     		movs	r3, #2
 735 02d2 0093     		str	r3, [sp]
 736 02d4 2346     		mov	r3, r4
 737 02d6 2A46     		mov	r2, r5
 738 02d8 1BA9     		add	r1, sp, #108
 739 02da 1798     		ldr	r0, [sp, #92]
 740 02dc FFF7FEFF 		bl	_lv_blend_map
 741              	.LVL81:
 742 02e0 E5E7     		b	.L15
 743              	.LVL82:
 744              	.L55:
 465:Middlewares/lvgl/src/draw/lv_draw_img.c ****             }
 745              		.loc 1 465 17 view .LVU247
 746              	.LBE141:
 747              	.LBB142:
 475:Middlewares/lvgl/src/draw/lv_draw_img.c ****             lv_color_t * map2 = lv_mem_buf_get(mask_buf_size * sizeof(lv_color_t));
 748              		.loc 1 475 89 discriminator 1 view .LVU248
 749 02e2 30A8     		add	r0, sp, #192
 750 02e4 FFF7FEFF 		bl	lv_area_get_size
 751              	.LVL83:
 752 02e8 1190     		str	r0, [sp, #68]
 753 02ea 2EE7     		b	.L17
 754              	.LVL84:
 755              	.L42:
 756              	.LBB118:
 484:Middlewares/lvgl/src/draw/lv_draw_img.c ****                 else if(chroma_key) cf = LV_IMG_CF_TRUE_COLOR_CHROMA_KEYED;
 757              		.loc 1 484 35 view .LVU249
 758 02ec 0521     		movs	r1, #5
 759              	.L19:
 760              	.LVL85:
 487:Middlewares/lvgl/src/draw/lv_draw_img.c ****                 trans_dsc.cfg.zoom = draw_dsc->zoom;
 761              		.loc 1 487 17 is_stmt 1 view .LVU250
 487:Middlewares/lvgl/src/draw/lv_draw_img.c ****                 trans_dsc.cfg.zoom = draw_dsc->zoom;
 762              		.loc 1 487 47 is_stmt 0 view .LVU251
 763 02ee 0698     		ldr	r0, [sp, #24]
 764 02f0 B0F90030 		ldrsh	r3, [r0]
 487:Middlewares/lvgl/src/draw/lv_draw_img.c ****                 trans_dsc.cfg.zoom = draw_dsc->zoom;
 765              		.loc 1 487 37 view .LVU252
 766 02f4 ADF88030 		strh	r3, [sp, #128]	@ movhi
 488:Middlewares/lvgl/src/draw/lv_draw_img.c ****                 trans_dsc.cfg.src = map_p;
 767              		.loc 1 488 17 is_stmt 1 view .LVU253
 488:Middlewares/lvgl/src/draw/lv_draw_img.c ****                 trans_dsc.cfg.src = map_p;
 768              		.loc 1 488 46 is_stmt 0 view .LVU254
 769 02f8 4388     		ldrh	r3, [r0, #2]
 488:Middlewares/lvgl/src/draw/lv_draw_img.c ****                 trans_dsc.cfg.src = map_p;
 770              		.loc 1 488 36 view .LVU255
ARM GAS  /tmp/ccBZPfuw.s 			page 43


 771 02fa ADF88230 		strh	r3, [sp, #130]	@ movhi
 489:Middlewares/lvgl/src/draw/lv_draw_img.c ****                 trans_dsc.cfg.src_w = map_w;
 772              		.loc 1 489 17 is_stmt 1 view .LVU256
 489:Middlewares/lvgl/src/draw/lv_draw_img.c ****                 trans_dsc.cfg.src_w = map_w;
 773              		.loc 1 489 35 is_stmt 0 view .LVU257
 774 02fe 1D95     		str	r5, [sp, #116]
 490:Middlewares/lvgl/src/draw/lv_draw_img.c ****                 trans_dsc.cfg.src_h = lv_area_get_height(map_area);;
 775              		.loc 1 490 17 is_stmt 1 view .LVU258
 490:Middlewares/lvgl/src/draw/lv_draw_img.c ****                 trans_dsc.cfg.src_h = lv_area_get_height(map_area);;
 776              		.loc 1 490 37 is_stmt 0 view .LVU259
 777 0300 149B     		ldr	r3, [sp, #80]
 778 0302 ADF87830 		strh	r3, [sp, #120]	@ movhi
 491:Middlewares/lvgl/src/draw/lv_draw_img.c ****                 trans_dsc.cfg.cf = cf;
 779              		.loc 1 491 17 is_stmt 1 view .LVU260
 780              	.LVL86:
 781              	.LBB116:
 782              	.LBI116:
 143:Middlewares/lvgl/src/draw/../misc/lv_area.h **** {
 783              		.loc 2 143 26 view .LVU261
 784              	.LBB117:
 785              		.loc 2 145 5 view .LVU262
 786              		.loc 2 145 31 is_stmt 0 view .LVU263
 787 0306 109A     		ldr	r2, [sp, #64]
 788 0308 D388     		ldrh	r3, [r2, #6]
 789              		.loc 2 145 44 view .LVU264
 790 030a 5288     		ldrh	r2, [r2, #2]
 791              		.loc 2 145 36 view .LVU265
 792 030c 9B1A     		subs	r3, r3, r2
 793 030e 9BB2     		uxth	r3, r3
 794              		.loc 2 145 49 view .LVU266
 795 0310 0133     		adds	r3, r3, #1
 796              	.LVL87:
 797              		.loc 2 145 49 view .LVU267
 798              	.LBE117:
 799              	.LBE116:
 491:Middlewares/lvgl/src/draw/lv_draw_img.c ****                 trans_dsc.cfg.cf = cf;
 800              		.loc 1 491 37 view .LVU268
 801 0312 ADF87A30 		strh	r3, [sp, #122]	@ movhi
 491:Middlewares/lvgl/src/draw/lv_draw_img.c ****                 trans_dsc.cfg.cf = cf;
 802              		.loc 1 491 68 is_stmt 1 view .LVU269
 492:Middlewares/lvgl/src/draw/lv_draw_img.c ****                 trans_dsc.cfg.pivot_x = draw_dsc->pivot.x;
 803              		.loc 1 492 17 view .LVU270
 492:Middlewares/lvgl/src/draw/lv_draw_img.c ****                 trans_dsc.cfg.pivot_x = draw_dsc->pivot.x;
 804              		.loc 1 492 34 is_stmt 0 view .LVU271
 805 0316 8DF88610 		strb	r1, [sp, #134]
 493:Middlewares/lvgl/src/draw/lv_draw_img.c ****                 trans_dsc.cfg.pivot_y = draw_dsc->pivot.y;
 806              		.loc 1 493 17 is_stmt 1 view .LVU272
 493:Middlewares/lvgl/src/draw/lv_draw_img.c ****                 trans_dsc.cfg.pivot_y = draw_dsc->pivot.y;
 807              		.loc 1 493 56 is_stmt 0 view .LVU273
 808 031a B0F90430 		ldrsh	r3, [r0, #4]
 493:Middlewares/lvgl/src/draw/lv_draw_img.c ****                 trans_dsc.cfg.pivot_y = draw_dsc->pivot.y;
 809              		.loc 1 493 39 view .LVU274
 810 031e ADF87C30 		strh	r3, [sp, #124]	@ movhi
 494:Middlewares/lvgl/src/draw/lv_draw_img.c ****                 trans_dsc.cfg.color = draw_dsc->recolor;
 811              		.loc 1 494 17 is_stmt 1 view .LVU275
 494:Middlewares/lvgl/src/draw/lv_draw_img.c ****                 trans_dsc.cfg.color = draw_dsc->recolor;
 812              		.loc 1 494 56 is_stmt 0 view .LVU276
ARM GAS  /tmp/ccBZPfuw.s 			page 44


 813 0322 B0F90630 		ldrsh	r3, [r0, #6]
 494:Middlewares/lvgl/src/draw/lv_draw_img.c ****                 trans_dsc.cfg.color = draw_dsc->recolor;
 814              		.loc 1 494 39 view .LVU277
 815 0326 ADF87E30 		strh	r3, [sp, #126]	@ movhi
 495:Middlewares/lvgl/src/draw/lv_draw_img.c ****                 trans_dsc.cfg.antialias = draw_dsc->antialias;
 816              		.loc 1 495 17 is_stmt 1 view .LVU278
 495:Middlewares/lvgl/src/draw/lv_draw_img.c ****                 trans_dsc.cfg.antialias = draw_dsc->antialias;
 817              		.loc 1 495 37 is_stmt 0 view .LVU279
 818 032a 0389     		ldrh	r3, [r0, #8]
 819 032c ADF88430 		strh	r3, [sp, #132]	@ movhi
 496:Middlewares/lvgl/src/draw/lv_draw_img.c **** 
 820              		.loc 1 496 17 is_stmt 1 view .LVU280
 496:Middlewares/lvgl/src/draw/lv_draw_img.c **** 
 821              		.loc 1 496 51 is_stmt 0 view .LVU281
 822 0330 037D     		ldrb	r3, [r0, #20]	@ zero_extendqisi2
 823 0332 C3F30003 		ubfx	r3, r3, #0, #1
 496:Middlewares/lvgl/src/draw/lv_draw_img.c **** 
 824              		.loc 1 496 41 view .LVU282
 825 0336 8DF88730 		strb	r3, [sp, #135]
 498:Middlewares/lvgl/src/draw/lv_draw_img.c ****             }
 826              		.loc 1 498 17 is_stmt 1 view .LVU283
 827 033a 1DA8     		add	r0, sp, #116
 828 033c FFF7FEFF 		bl	_lv_img_buf_transform_init
 829              	.LVL88:
 830              	.L18:
 498:Middlewares/lvgl/src/draw/lv_draw_img.c ****             }
 831              		.loc 1 498 17 is_stmt 0 view .LVU284
 832              	.LBE118:
 501:Middlewares/lvgl/src/draw/lv_draw_img.c ****             lv_opa_t recolor_opa_inv = 255 - draw_dsc->recolor_opa;
 833              		.loc 1 501 13 is_stmt 1 view .LVU285
 501:Middlewares/lvgl/src/draw/lv_draw_img.c ****             lv_opa_t recolor_opa_inv = 255 - draw_dsc->recolor_opa;
 834              		.loc 1 501 22 is_stmt 0 view .LVU286
 835 0340 0023     		movs	r3, #0
 836 0342 1993     		str	r3, [sp, #100]
 837 0344 ADF86830 		strh	r3, [sp, #104]	@ movhi
 502:Middlewares/lvgl/src/draw/lv_draw_img.c ****             if(draw_dsc->recolor_opa != 0) {
 838              		.loc 1 502 13 is_stmt 1 view .LVU287
 502:Middlewares/lvgl/src/draw/lv_draw_img.c ****             if(draw_dsc->recolor_opa != 0) {
 839              		.loc 1 502 54 is_stmt 0 view .LVU288
 840 0348 069A     		ldr	r2, [sp, #24]
 841 034a 937A     		ldrb	r3, [r2, #10]	@ zero_extendqisi2
 502:Middlewares/lvgl/src/draw/lv_draw_img.c ****             if(draw_dsc->recolor_opa != 0) {
 842              		.loc 1 502 22 view .LVU289
 843 034c 6FEA0309 		mvn	r9, r3
 844 0350 5FFA89F9 		uxtb	r9, r9
 845              	.LVL89:
 503:Middlewares/lvgl/src/draw/lv_draw_img.c ****                 lv_color_premult(draw_dsc->recolor, draw_dsc->recolor_opa, recolor_premult);
 846              		.loc 1 503 13 is_stmt 1 view .LVU290
 503:Middlewares/lvgl/src/draw/lv_draw_img.c ****                 lv_color_premult(draw_dsc->recolor, draw_dsc->recolor_opa, recolor_premult);
 847              		.loc 1 503 15 is_stmt 0 view .LVU291
 848 0354 93B1     		cbz	r3, .L20
 504:Middlewares/lvgl/src/draw/lv_draw_img.c ****             }
 849              		.loc 1 504 17 is_stmt 1 view .LVU292
 850 0356 1289     		ldrh	r2, [r2, #8]
 851              	.LVL90:
 852              	.LBB119:
 853              	.LBI119:
ARM GAS  /tmp/ccBZPfuw.s 			page 45


 479:Middlewares/lvgl/src/draw/../misc/lv_color.h **** {
 854              		.loc 3 479 42 view .LVU293
 855              	.LBB120:
 482:Middlewares/lvgl/src/draw/../misc/lv_color.h ****     out[1] = (uint16_t) LV_COLOR_GET_G(c) * mix;
 856              		.loc 3 482 5 view .LVU294
 482:Middlewares/lvgl/src/draw/../misc/lv_color.h ****     out[1] = (uint16_t) LV_COLOR_GET_G(c) * mix;
 857              		.loc 3 482 25 is_stmt 0 view .LVU295
 858 0358 C2F3C421 		ubfx	r1, r2, #11, #5
 482:Middlewares/lvgl/src/draw/../misc/lv_color.h ****     out[1] = (uint16_t) LV_COLOR_GET_G(c) * mix;
 859              		.loc 3 482 43 view .LVU296
 860 035c 03FB01F1 		mul	r1, r3, r1
 482:Middlewares/lvgl/src/draw/../misc/lv_color.h ****     out[1] = (uint16_t) LV_COLOR_GET_G(c) * mix;
 861              		.loc 3 482 12 view .LVU297
 862 0360 ADF86410 		strh	r1, [sp, #100]	@ movhi
 483:Middlewares/lvgl/src/draw/../misc/lv_color.h ****     out[2] = (uint16_t) LV_COLOR_GET_B(c) * mix;
 863              		.loc 3 483 5 is_stmt 1 view .LVU298
 483:Middlewares/lvgl/src/draw/../misc/lv_color.h ****     out[2] = (uint16_t) LV_COLOR_GET_B(c) * mix;
 864              		.loc 3 483 25 is_stmt 0 view .LVU299
 865 0364 C2F34511 		ubfx	r1, r2, #5, #6
 483:Middlewares/lvgl/src/draw/../misc/lv_color.h ****     out[2] = (uint16_t) LV_COLOR_GET_B(c) * mix;
 866              		.loc 3 483 43 view .LVU300
 867 0368 03FB01F1 		mul	r1, r3, r1
 483:Middlewares/lvgl/src/draw/../misc/lv_color.h ****     out[2] = (uint16_t) LV_COLOR_GET_B(c) * mix;
 868              		.loc 3 483 12 view .LVU301
 869 036c ADF86610 		strh	r1, [sp, #102]	@ movhi
 484:Middlewares/lvgl/src/draw/../misc/lv_color.h **** #else
 870              		.loc 3 484 5 is_stmt 1 view .LVU302
 484:Middlewares/lvgl/src/draw/../misc/lv_color.h **** #else
 871              		.loc 3 484 25 is_stmt 0 view .LVU303
 872 0370 02F01F02 		and	r2, r2, #31
 873              	.LVL91:
 484:Middlewares/lvgl/src/draw/../misc/lv_color.h **** #else
 874              		.loc 3 484 43 view .LVU304
 875 0374 02FB03F3 		mul	r3, r2, r3
 876              	.LVL92:
 484:Middlewares/lvgl/src/draw/../misc/lv_color.h **** #else
 877              		.loc 3 484 12 view .LVU305
 878 0378 ADF86830 		strh	r3, [sp, #104]	@ movhi
 879              	.LVL93:
 880              	.L20:
 484:Middlewares/lvgl/src/draw/../misc/lv_color.h **** #else
 881              		.loc 3 484 12 view .LVU306
 882              	.LBE120:
 883              	.LBE119:
 507:Middlewares/lvgl/src/draw/lv_draw_img.c ****             mask_res = (alpha_byte || chroma_key || draw_dsc->angle ||
 884              		.loc 1 507 13 is_stmt 1 view .LVU307
 508:Middlewares/lvgl/src/draw/lv_draw_img.c ****                         draw_dsc->zoom != LV_IMG_ZOOM_NONE) ? LV_DRAW_MASK_RES_CHANGED : LV_DRAW_MA
 885              		.loc 1 508 13 view .LVU308
 508:Middlewares/lvgl/src/draw/lv_draw_img.c ****                         draw_dsc->zoom != LV_IMG_ZOOM_NONE) ? LV_DRAW_MASK_RES_CHANGED : LV_DRAW_MA
 886              		.loc 1 508 22 is_stmt 0 view .LVU309
 887 037c 099B     		ldr	r3, [sp, #36]
 888 037e 5BB9     		cbnz	r3, .L44
 508:Middlewares/lvgl/src/draw/lv_draw_img.c ****                         draw_dsc->zoom != LV_IMG_ZOOM_NONE) ? LV_DRAW_MASK_RES_CHANGED : LV_DRAW_MA
 889              		.loc 1 508 36 discriminator 2 view .LVU310
 890 0380 0B9B     		ldr	r3, [sp, #44]
 891 0382 EBB9     		cbnz	r3, .L45
 508:Middlewares/lvgl/src/draw/lv_draw_img.c ****                         draw_dsc->zoom != LV_IMG_ZOOM_NONE) ? LV_DRAW_MASK_RES_CHANGED : LV_DRAW_MA
ARM GAS  /tmp/ccBZPfuw.s 			page 46


 892              		.loc 1 508 69 discriminator 4 view .LVU311
 893 0384 069B     		ldr	r3, [sp, #24]
 894 0386 1B68     		ldr	r3, [r3]
 895 0388 B3F1807F 		cmp	r3, #16777216
 896 038c 1BD0     		beq	.L46
 508:Middlewares/lvgl/src/draw/lv_draw_img.c ****                         draw_dsc->zoom != LV_IMG_ZOOM_NONE) ? LV_DRAW_MASK_RES_CHANGED : LV_DRAW_MA
 897              		.loc 1 508 22 view .LVU312
 898 038e 0223     		movs	r3, #2
 899 0390 1693     		str	r3, [sp, #88]
 900 0392 03E0     		b	.L21
 901              	.LVL94:
 902              	.L43:
 903              	.LBB121:
 485:Middlewares/lvgl/src/draw/lv_draw_img.c **** 
 904              		.loc 1 485 40 view .LVU313
 905 0394 0621     		movs	r1, #6
 906 0396 AAE7     		b	.L19
 907              	.LVL95:
 908              	.L44:
 485:Middlewares/lvgl/src/draw/lv_draw_img.c **** 
 909              		.loc 1 485 40 view .LVU314
 910              	.LBE121:
 508:Middlewares/lvgl/src/draw/lv_draw_img.c ****                         draw_dsc->zoom != LV_IMG_ZOOM_NONE) ? LV_DRAW_MASK_RES_CHANGED : LV_DRAW_MA
 911              		.loc 1 508 22 view .LVU315
 912 0398 0223     		movs	r3, #2
 913 039a 1693     		str	r3, [sp, #88]
 914              	.L21:
 915              	.LVL96:
 512:Middlewares/lvgl/src/draw/lv_draw_img.c ****                 lv_memset_ff(mask_buf, mask_buf_size);
 916              		.loc 1 512 13 is_stmt 1 discriminator 8 view .LVU316
 512:Middlewares/lvgl/src/draw/lv_draw_img.c ****                 lv_memset_ff(mask_buf, mask_buf_size);
 917              		.loc 1 512 15 is_stmt 0 discriminator 8 view .LVU317
 918 039c 0F9B     		ldr	r3, [sp, #60]
 919 039e ABB9     		cbnz	r3, .L60
 920              	.L22:
 516:Middlewares/lvgl/src/draw/lv_draw_img.c ****             int32_t y;
 921              		.loc 1 516 13 is_stmt 1 view .LVU318
 517:Middlewares/lvgl/src/draw/lv_draw_img.c **** #if LV_DRAW_COMPLEX
 922              		.loc 1 517 13 view .LVU319
 519:Middlewares/lvgl/src/draw/lv_draw_img.c **** #endif
 923              		.loc 1 519 13 view .LVU320
 519:Middlewares/lvgl/src/draw/lv_draw_img.c **** #endif
 924              		.loc 1 519 38 is_stmt 0 view .LVU321
 925 03a0 0E9B     		ldr	r3, [sp, #56]
 926 03a2 B3F91230 		ldrsh	r3, [r3, #18]
 519:Middlewares/lvgl/src/draw/lv_draw_img.c **** #endif
 927              		.loc 1 519 54 view .LVU322
 928 03a6 BDF9C220 		ldrsh	r2, [sp, #194]
 519:Middlewares/lvgl/src/draw/lv_draw_img.c **** #endif
 929              		.loc 1 519 43 view .LVU323
 930 03aa 1344     		add	r3, r3, r2
 519:Middlewares/lvgl/src/draw/lv_draw_img.c **** #endif
 931              		.loc 1 519 68 view .LVU324
 932 03ac 109A     		ldr	r2, [sp, #64]
 933 03ae B2F90220 		ldrsh	r2, [r2, #2]
 519:Middlewares/lvgl/src/draw/lv_draw_img.c **** #endif
 934              		.loc 1 519 21 view .LVU325
ARM GAS  /tmp/ccBZPfuw.s 			page 47


 935 03b2 9B1A     		subs	r3, r3, r2
 936 03b4 0A93     		str	r3, [sp, #40]
 937              	.LVL97:
 521:Middlewares/lvgl/src/draw/lv_draw_img.c ****                 map_px = map_buf_tmp;
 938              		.loc 1 521 13 is_stmt 1 view .LVU326
 521:Middlewares/lvgl/src/draw/lv_draw_img.c ****                 map_px = map_buf_tmp;
 939              		.loc 1 521 19 is_stmt 0 view .LVU327
 940 03b6 0023     		movs	r3, #0
 941              	.LVL98:
 521:Middlewares/lvgl/src/draw/lv_draw_img.c ****                 map_px = map_buf_tmp;
 942              		.loc 1 521 19 view .LVU328
 943 03b8 0593     		str	r3, [sp, #20]
 944              	.LBE142:
 396:Middlewares/lvgl/src/draw/lv_draw_img.c **** 
 945              		.loc 1 396 18 view .LVU329
 946 03ba 0D93     		str	r3, [sp, #52]
 947              	.LVL99:
 396:Middlewares/lvgl/src/draw/lv_draw_img.c **** 
 948              		.loc 1 396 18 view .LVU330
 949 03bc 5746     		mov	r7, r10	@ movhi
 950              	.LBB143:
 521:Middlewares/lvgl/src/draw/lv_draw_img.c ****                 map_px = map_buf_tmp;
 951              		.loc 1 521 13 view .LVU331
 952 03be 97E0     		b	.L23
 953              	.LVL100:
 954              	.L45:
 508:Middlewares/lvgl/src/draw/lv_draw_img.c ****                         draw_dsc->zoom != LV_IMG_ZOOM_NONE) ? LV_DRAW_MASK_RES_CHANGED : LV_DRAW_MA
 955              		.loc 1 508 22 view .LVU332
 956 03c0 0223     		movs	r3, #2
 957 03c2 1693     		str	r3, [sp, #88]
 958 03c4 EAE7     		b	.L21
 959              	.L46:
 960 03c6 0123     		movs	r3, #1
 961 03c8 1693     		str	r3, [sp, #88]
 962 03ca E7E7     		b	.L21
 963              	.LVL101:
 964              	.L60:
 513:Middlewares/lvgl/src/draw/lv_draw_img.c ****             }
 965              		.loc 1 513 17 is_stmt 1 view .LVU333
 966 03cc 1199     		ldr	r1, [sp, #68]
 967 03ce 4046     		mov	r0, r8
 968 03d0 FFF7FEFF 		bl	lv_memset_ff
 969              	.LVL102:
 970 03d4 E4E7     		b	.L22
 971              	.LVL103:
 972              	.L63:
 973              	.LBB122:
 974              	.LBB123:
 534:Middlewares/lvgl/src/draw/lv_draw_img.c ****                         ret = _lv_img_buf_transform(&trans_dsc, rot_x + x, rot_y + y);
 975              		.loc 1 534 25 view .LVU334
 535:Middlewares/lvgl/src/draw/lv_draw_img.c ****                         if(ret == false) {
 976              		.loc 1 535 25 view .LVU335
 535:Middlewares/lvgl/src/draw/lv_draw_img.c ****                         if(ret == false) {
 977              		.loc 1 535 71 is_stmt 0 view .LVU336
 978 03d6 089B     		ldr	r3, [sp, #32]
 979 03d8 5919     		adds	r1, r3, r5
 980              	.LVL104:
ARM GAS  /tmp/ccBZPfuw.s 			page 48


 535:Middlewares/lvgl/src/draw/lv_draw_img.c ****                         if(ret == false) {
 981              		.loc 1 535 82 view .LVU337
 982 03da 0A9B     		ldr	r3, [sp, #40]
 983 03dc 059A     		ldr	r2, [sp, #20]
 984 03de 9A18     		adds	r2, r3, r2
 535:Middlewares/lvgl/src/draw/lv_draw_img.c ****                         if(ret == false) {
 985              		.loc 1 535 31 view .LVU338
 986 03e0 12B2     		sxth	r2, r2
 987 03e2 09B2     		sxth	r1, r1
 988 03e4 1DA8     		add	r0, sp, #116
 989 03e6 FFF7FEFF 		bl	_lv_img_buf_transform
 990              	.LVL105:
 536:Middlewares/lvgl/src/draw/lv_draw_img.c ****                             mask_buf[px_i] = LV_OPA_TRANSP;
 991              		.loc 1 536 25 is_stmt 1 view .LVU339
 536:Middlewares/lvgl/src/draw/lv_draw_img.c ****                             mask_buf[px_i] = LV_OPA_TRANSP;
 992              		.loc 1 536 27 is_stmt 0 view .LVU340
 993 03ea 0028     		cmp	r0, #0
 994 03ec 49D0     		beq	.L61
 541:Middlewares/lvgl/src/draw/lv_draw_img.c ****                             c.full = trans_dsc.res.color.full;
 995              		.loc 1 541 29 is_stmt 1 view .LVU341
 541:Middlewares/lvgl/src/draw/lv_draw_img.c ****                             c.full = trans_dsc.res.color.full;
 996              		.loc 1 541 59 is_stmt 0 view .LVU342
 997 03ee 9DF88A30 		ldrb	r3, [sp, #138]	@ zero_extendqisi2
 541:Middlewares/lvgl/src/draw/lv_draw_img.c ****                             c.full = trans_dsc.res.color.full;
 998              		.loc 1 541 44 view .LVU343
 999 03f2 08F80430 		strb	r3, [r8, r4]
 542:Middlewares/lvgl/src/draw/lv_draw_img.c ****                         }
 1000              		.loc 1 542 29 is_stmt 1 view .LVU344
 542:Middlewares/lvgl/src/draw/lv_draw_img.c ****                         }
 1001              		.loc 1 542 36 is_stmt 0 view .LVU345
 1002 03f6 BDF88810 		ldrh	r1, [sp, #136]
 1003              	.LVL106:
 1004              	.L28:
 542:Middlewares/lvgl/src/draw/lv_draw_img.c ****                         }
 1005              		.loc 1 542 36 view .LVU346
 1006              	.LBE123:
 584:Middlewares/lvgl/src/draw/lv_draw_img.c ****                         c = lv_color_mix_premult(recolor_premult, c, recolor_opa_inv);
 1007              		.loc 1 584 21 is_stmt 1 view .LVU347
 584:Middlewares/lvgl/src/draw/lv_draw_img.c ****                         c = lv_color_mix_premult(recolor_premult, c, recolor_opa_inv);
 1008              		.loc 1 584 32 is_stmt 0 view .LVU348
 1009 03fa 069B     		ldr	r3, [sp, #24]
 1010 03fc 9B7A     		ldrb	r3, [r3, #10]	@ zero_extendqisi2
 584:Middlewares/lvgl/src/draw/lv_draw_img.c ****                         c = lv_color_mix_premult(recolor_premult, c, recolor_opa_inv);
 1011              		.loc 1 584 23 view .LVU349
 1012 03fe 6BB3     		cbz	r3, .L31
 585:Middlewares/lvgl/src/draw/lv_draw_img.c ****                     }
 1013              		.loc 1 585 25 is_stmt 1 view .LVU350
 1014              	.LVL107:
 1015              	.LBB124:
 1016              	.LBI124:
 504:Middlewares/lvgl/src/draw/../misc/lv_color.h **** {
 1017              		.loc 3 504 48 view .LVU351
 1018              	.LBB125:
 506:Middlewares/lvgl/src/draw/../misc/lv_color.h **** #if LV_COLOR_DEPTH != 1
 1019              		.loc 3 506 5 view .LVU352
 509:Middlewares/lvgl/src/draw/../misc/lv_color.h ****     LV_COLOR_SET_G(ret, LV_UDIV255(premult_c1[1] + LV_COLOR_GET_G(c2) * mix + LV_COLOR_MIX_ROUND_OF
 1020              		.loc 3 509 5 view .LVU353
ARM GAS  /tmp/ccBZPfuw.s 			page 49


 1021 0400 BDF86430 		ldrh	r3, [sp, #100]
 1022              	.LVL108:
 509:Middlewares/lvgl/src/draw/../misc/lv_color.h ****     LV_COLOR_SET_G(ret, LV_UDIV255(premult_c1[1] + LV_COLOR_GET_G(c2) * mix + LV_COLOR_MIX_ROUND_OF
 1023              		.loc 3 509 5 is_stmt 0 view .LVU354
 1024 0404 C1F3C422 		ubfx	r2, r1, #11, #5
 1025 0408 09FB0233 		mla	r3, r9, r2, r3
 1026 040c 8033     		adds	r3, r3, #128
 1027 040e 03EB0322 		add	r2, r3, r3, lsl #8
 1028 0412 03EBC213 		add	r3, r3, r2, lsl #7
 1029 0416 C3F3C453 		ubfx	r3, r3, #23, #5
 1030 041a 63F3CF27 		bfi	r7, r3, #11, #5
 510:Middlewares/lvgl/src/draw/../misc/lv_color.h ****     LV_COLOR_SET_B(ret, LV_UDIV255(premult_c1[2] + LV_COLOR_GET_B(c2) * mix + LV_COLOR_MIX_ROUND_OF
 1031              		.loc 3 510 5 is_stmt 1 view .LVU355
 1032 041e BDF86620 		ldrh	r2, [sp, #102]
 1033 0422 C1F34513 		ubfx	r3, r1, #5, #6
 1034 0426 03FB0922 		mla	r2, r3, r9, r2
 1035 042a 8032     		adds	r2, r2, #128
 1036 042c 02EB0223 		add	r3, r2, r2, lsl #8
 1037 0430 02EBC312 		add	r2, r2, r3, lsl #7
 1038 0434 C2F3C552 		ubfx	r2, r2, #23, #6
 1039 0438 62F34A17 		bfi	r7, r2, #5, #6
 511:Middlewares/lvgl/src/draw/../misc/lv_color.h ****     LV_COLOR_SET_A(ret, 0xFF);
 1040              		.loc 3 511 5 view .LVU356
 1041 043c BDF86830 		ldrh	r3, [sp, #104]
 1042 0440 01F01F01 		and	r1, r1, #31
 1043              	.LVL109:
 511:Middlewares/lvgl/src/draw/../misc/lv_color.h ****     LV_COLOR_SET_A(ret, 0xFF);
 1044              		.loc 3 511 5 is_stmt 0 view .LVU357
 1045 0444 01FB0933 		mla	r3, r1, r9, r3
 1046 0448 8033     		adds	r3, r3, #128
 1047 044a 03EB0322 		add	r2, r3, r3, lsl #8
 1048 044e 03EBC213 		add	r3, r3, r2, lsl #7
 1049 0452 C3F3C453 		ubfx	r3, r3, #23, #5
 1050 0456 63F30407 		bfi	r7, r3, #0, #5
 512:Middlewares/lvgl/src/draw/../misc/lv_color.h **** #else
 1051              		.loc 3 512 5 is_stmt 1 view .LVU358
 512:Middlewares/lvgl/src/draw/../misc/lv_color.h **** #else
 1052              		.loc 3 512 5 view .LVU359
 512:Middlewares/lvgl/src/draw/../misc/lv_color.h **** #else
 1053              		.loc 3 512 5 view .LVU360
 523:Middlewares/lvgl/src/draw/../misc/lv_color.h **** }
 1054              		.loc 3 523 5 view .LVU361
 1055 045a 3946     		mov	r1, r7	@ movhi
 1056              	.LVL110:
 1057              	.L31:
 523:Middlewares/lvgl/src/draw/../misc/lv_color.h **** }
 1058              		.loc 3 523 5 is_stmt 0 view .LVU362
 1059              	.LBE125:
 1060              	.LBE124:
 588:Middlewares/lvgl/src/draw/lv_draw_img.c ****                 }
 1061              		.loc 1 588 21 is_stmt 1 view .LVU363
 588:Middlewares/lvgl/src/draw/lv_draw_img.c ****                 }
 1062              		.loc 1 588 37 is_stmt 0 view .LVU364
 1063 045c 079B     		ldr	r3, [sp, #28]
 1064              	.LVL111:
 588:Middlewares/lvgl/src/draw/lv_draw_img.c ****                 }
 1065              		.loc 1 588 37 view .LVU365
ARM GAS  /tmp/ccBZPfuw.s 			page 50


 1066 045e 23F81410 		strh	r1, [r3, r4, lsl #1]	@ movhi
 1067              	.L27:
 528:Middlewares/lvgl/src/draw/lv_draw_img.c **** 
 1068              		.loc 1 528 45 is_stmt 1 discriminator 2 view .LVU366
 528:Middlewares/lvgl/src/draw/lv_draw_img.c **** 
 1069              		.loc 1 528 46 is_stmt 0 discriminator 2 view .LVU367
 1070 0462 0135     		adds	r5, r5, #1
 1071              	.LVL112:
 528:Middlewares/lvgl/src/draw/lv_draw_img.c **** 
 1072              		.loc 1 528 57 discriminator 2 view .LVU368
 1073 0464 049B     		ldr	r3, [sp, #16]
 1074 0466 1E44     		add	r6, r6, r3
 1075              	.LVL113:
 528:Middlewares/lvgl/src/draw/lv_draw_img.c **** 
 1076              		.loc 1 528 78 discriminator 2 view .LVU369
 1077 0468 0134     		adds	r4, r4, #1
 1078              	.LVL114:
 1079              	.L24:
 528:Middlewares/lvgl/src/draw/lv_draw_img.c **** 
 1080              		.loc 1 528 28 is_stmt 1 discriminator 1 view .LVU370
 528:Middlewares/lvgl/src/draw/lv_draw_img.c **** 
 1081              		.loc 1 528 17 is_stmt 0 discriminator 1 view .LVU371
 1082 046a AB45     		cmp	fp, r5
 1083 046c 22DD     		ble	.L62
 531:Middlewares/lvgl/src/draw/lv_draw_img.c **** 
 1084              		.loc 1 531 21 is_stmt 1 view .LVU372
 531:Middlewares/lvgl/src/draw/lv_draw_img.c **** 
 1085              		.loc 1 531 23 is_stmt 0 view .LVU373
 1086 046e BAF1807F 		cmp	r10, #16777216
 1087 0472 B0D1     		bne	.L63
 549:Middlewares/lvgl/src/draw/lv_draw_img.c ****                             lv_opa_t px_opa = map_px[LV_IMG_PX_SIZE_ALPHA_BYTE - 1];
 1088              		.loc 1 549 25 is_stmt 1 view .LVU374
 549:Middlewares/lvgl/src/draw/lv_draw_img.c ****                             lv_opa_t px_opa = map_px[LV_IMG_PX_SIZE_ALPHA_BYTE - 1];
 1089              		.loc 1 549 27 is_stmt 0 view .LVU375
 1090 0474 099B     		ldr	r3, [sp, #36]
 1091 0476 43B1     		cbz	r3, .L29
 1092              	.LBB126:
 550:Middlewares/lvgl/src/draw/lv_draw_img.c ****                             mask_buf[px_i] = px_opa;
 1093              		.loc 1 550 29 is_stmt 1 view .LVU376
 550:Middlewares/lvgl/src/draw/lv_draw_img.c ****                             mask_buf[px_i] = px_opa;
 1094              		.loc 1 550 38 is_stmt 0 view .LVU377
 1095 0478 B378     		ldrb	r3, [r6, #2]	@ zero_extendqisi2
 1096              	.LVL115:
 551:Middlewares/lvgl/src/draw/lv_draw_img.c ****                             if(px_opa == 0) {
 1097              		.loc 1 551 29 is_stmt 1 view .LVU378
 551:Middlewares/lvgl/src/draw/lv_draw_img.c ****                             if(px_opa == 0) {
 1098              		.loc 1 551 44 is_stmt 0 view .LVU379
 1099 047a 08F80430 		strb	r3, [r8, r4]
 552:Middlewares/lvgl/src/draw/lv_draw_img.c **** #if  LV_COLOR_DEPTH == 32
 1100              		.loc 1 552 29 is_stmt 1 view .LVU380
 552:Middlewares/lvgl/src/draw/lv_draw_img.c **** #if  LV_COLOR_DEPTH == 32
 1101              		.loc 1 552 31 is_stmt 0 view .LVU381
 1102 047e 3BB9     		cbnz	r3, .L30
 1103 0480 EFE7     		b	.L27
 1104              	.LVL116:
 1105              	.L61:
 552:Middlewares/lvgl/src/draw/lv_draw_img.c **** #if  LV_COLOR_DEPTH == 32
ARM GAS  /tmp/ccBZPfuw.s 			page 51


 1106              		.loc 1 552 31 view .LVU382
 1107              	.LBE126:
 1108              	.LBB127:
 537:Middlewares/lvgl/src/draw/lv_draw_img.c ****                             continue;
 1109              		.loc 1 537 29 is_stmt 1 view .LVU383
 537:Middlewares/lvgl/src/draw/lv_draw_img.c ****                             continue;
 1110              		.loc 1 537 44 is_stmt 0 view .LVU384
 1111 0482 0023     		movs	r3, #0
 1112 0484 08F80430 		strb	r3, [r8, r4]
 538:Middlewares/lvgl/src/draw/lv_draw_img.c ****                         }
 1113              		.loc 1 538 29 is_stmt 1 view .LVU385
 1114 0488 EBE7     		b	.L27
 1115              	.LVL117:
 1116              	.L29:
 538:Middlewares/lvgl/src/draw/lv_draw_img.c ****                         }
 1117              		.loc 1 538 29 is_stmt 0 view .LVU386
 1118              	.LBE127:
 560:Middlewares/lvgl/src/draw/lv_draw_img.c ****                         }
 1119              		.loc 1 560 29 is_stmt 1 view .LVU387
 560:Middlewares/lvgl/src/draw/lv_draw_img.c ****                         }
 1120              		.loc 1 560 44 is_stmt 0 view .LVU388
 1121 048a FF23     		movs	r3, #255
 1122 048c 08F80430 		strb	r3, [r8, r4]
 1123              	.L30:
 568:Middlewares/lvgl/src/draw/lv_draw_img.c **** #elif LV_COLOR_DEPTH == 32
 1124              		.loc 1 568 25 is_stmt 1 view .LVU389
 568:Middlewares/lvgl/src/draw/lv_draw_img.c **** #elif LV_COLOR_DEPTH == 32
 1125              		.loc 1 568 41 is_stmt 0 view .LVU390
 1126 0490 3378     		ldrb	r3, [r6]	@ zero_extendqisi2
 568:Middlewares/lvgl/src/draw/lv_draw_img.c **** #elif LV_COLOR_DEPTH == 32
 1127              		.loc 1 568 54 view .LVU391
 1128 0492 7278     		ldrb	r2, [r6, #1]	@ zero_extendqisi2
 568:Middlewares/lvgl/src/draw/lv_draw_img.c **** #elif LV_COLOR_DEPTH == 32
 1129              		.loc 1 568 45 view .LVU392
 1130 0494 03EB0223 		add	r3, r3, r2, lsl #8
 1131 0498 9BB2     		uxth	r3, r3
 568:Middlewares/lvgl/src/draw/lv_draw_img.c **** #elif LV_COLOR_DEPTH == 32
 1132              		.loc 1 568 32 view .LVU393
 1133 049a 1946     		mov	r1, r3	@ movhi
 1134              	.LVL118:
 573:Middlewares/lvgl/src/draw/lv_draw_img.c ****                             if(c.full == chroma_keyed_color.full) {
 1135              		.loc 1 573 25 is_stmt 1 view .LVU394
 573:Middlewares/lvgl/src/draw/lv_draw_img.c ****                             if(c.full == chroma_keyed_color.full) {
 1136              		.loc 1 573 27 is_stmt 0 view .LVU395
 1137 049c 0B9A     		ldr	r2, [sp, #44]
 1138 049e 002A     		cmp	r2, #0
 1139 04a0 ABD0     		beq	.L28
 574:Middlewares/lvgl/src/draw/lv_draw_img.c ****                                 mask_buf[px_i] = LV_OPA_TRANSP;
 1140              		.loc 1 574 29 is_stmt 1 view .LVU396
 574:Middlewares/lvgl/src/draw/lv_draw_img.c ****                                 mask_buf[px_i] = LV_OPA_TRANSP;
 1141              		.loc 1 574 60 is_stmt 0 view .LVU397
 1142 04a2 4FF4FC62 		mov	r2, #2016
 1143 04a6 92B2     		uxth	r2, r2
 574:Middlewares/lvgl/src/draw/lv_draw_img.c ****                                 mask_buf[px_i] = LV_OPA_TRANSP;
 1144              		.loc 1 574 31 view .LVU398
 1145 04a8 9342     		cmp	r3, r2
 1146 04aa A6D1     		bne	.L28
ARM GAS  /tmp/ccBZPfuw.s 			page 52


 575:Middlewares/lvgl/src/draw/lv_draw_img.c **** #if  LV_COLOR_DEPTH == 32
 1147              		.loc 1 575 33 is_stmt 1 view .LVU399
 575:Middlewares/lvgl/src/draw/lv_draw_img.c **** #if  LV_COLOR_DEPTH == 32
 1148              		.loc 1 575 48 is_stmt 0 view .LVU400
 1149 04ac 0023     		movs	r3, #0
 1150 04ae 08F80430 		strb	r3, [r8, r4]
 579:Middlewares/lvgl/src/draw/lv_draw_img.c ****                             }
 1151              		.loc 1 579 33 is_stmt 1 view .LVU401
 1152 04b2 D6E7     		b	.L27
 1153              	.LVL119:
 1154              	.L62:
 592:Middlewares/lvgl/src/draw/lv_draw_img.c ****                     lv_draw_mask_res_t mask_res_sub;
 1155              		.loc 1 592 17 view .LVU402
 592:Middlewares/lvgl/src/draw/lv_draw_img.c ****                     lv_draw_mask_res_t mask_res_sub;
 1156              		.loc 1 592 19 is_stmt 0 view .LVU403
 1157 04b4 0F9B     		ldr	r3, [sp, #60]
 1158 04b6 002B     		cmp	r3, #0
 1159 04b8 31D1     		bne	.L64
 1160              	.LVL120:
 1161              	.L33:
 606:Middlewares/lvgl/src/draw/lv_draw_img.c ****                 if(px_i + lv_area_get_width(&draw_area) < mask_buf_size) {
 1162              		.loc 1 606 17 is_stmt 1 view .LVU404
 606:Middlewares/lvgl/src/draw/lv_draw_img.c ****                 if(px_i + lv_area_get_width(&draw_area) < mask_buf_size) {
 1163              		.loc 1 606 29 is_stmt 0 view .LVU405
 1164 04ba 0C9B     		ldr	r3, [sp, #48]
 1165 04bc 159A     		ldr	r2, [sp, #84]
 1166 04be 1499     		ldr	r1, [sp, #80]
 1167              	.LVL121:
 606:Middlewares/lvgl/src/draw/lv_draw_img.c ****                 if(px_i + lv_area_get_width(&draw_area) < mask_buf_size) {
 1168              		.loc 1 606 29 view .LVU406
 1169 04c0 01FB0233 		mla	r3, r1, r2, r3
 1170 04c4 0C93     		str	r3, [sp, #48]
 1171              	.LVL122:
 607:Middlewares/lvgl/src/draw/lv_draw_img.c ****                     blend_area.y2 ++;
 1172              		.loc 1 607 17 is_stmt 1 view .LVU407
 1173              	.LBB128:
 1174              	.LBI128:
 133:Middlewares/lvgl/src/draw/../misc/lv_area.h **** {
 1175              		.loc 2 133 26 view .LVU408
 1176              	.LBB129:
 135:Middlewares/lvgl/src/draw/../misc/lv_area.h **** }
 1177              		.loc 2 135 5 view .LVU409
 135:Middlewares/lvgl/src/draw/../misc/lv_area.h **** }
 1178              		.loc 2 135 31 is_stmt 0 view .LVU410
 1179 04c6 BDF8C430 		ldrh	r3, [sp, #196]
 1180              	.LVL123:
 135:Middlewares/lvgl/src/draw/../misc/lv_area.h **** }
 1181              		.loc 2 135 44 view .LVU411
 1182 04ca BDF8C020 		ldrh	r2, [sp, #192]
 135:Middlewares/lvgl/src/draw/../misc/lv_area.h **** }
 1183              		.loc 2 135 36 view .LVU412
 1184 04ce 9B1A     		subs	r3, r3, r2
 1185 04d0 9BB2     		uxth	r3, r3
 135:Middlewares/lvgl/src/draw/../misc/lv_area.h **** }
 1186              		.loc 2 135 49 view .LVU413
 1187 04d2 0133     		adds	r3, r3, #1
 1188              	.LVL124:
ARM GAS  /tmp/ccBZPfuw.s 			page 53


 135:Middlewares/lvgl/src/draw/../misc/lv_area.h **** }
 1189              		.loc 2 135 49 view .LVU414
 1190              	.LBE129:
 1191              	.LBE128:
 607:Middlewares/lvgl/src/draw/lv_draw_img.c ****                     blend_area.y2 ++;
 1192              		.loc 1 607 25 view .LVU415
 1193 04d4 04FA83F3 		sxtah	r3, r4, r3
 607:Middlewares/lvgl/src/draw/lv_draw_img.c ****                     blend_area.y2 ++;
 1194              		.loc 1 607 19 view .LVU416
 1195 04d8 119A     		ldr	r2, [sp, #68]
 1196 04da 9342     		cmp	r3, r2
 1197 04dc 4CD2     		bcs	.L35
 608:Middlewares/lvgl/src/draw/lv_draw_img.c ****                 }
 1198              		.loc 1 608 21 is_stmt 1 view .LVU417
 608:Middlewares/lvgl/src/draw/lv_draw_img.c ****                 }
 1199              		.loc 1 608 31 is_stmt 0 view .LVU418
 1200 04de BDF97230 		ldrsh	r3, [sp, #114]
 608:Middlewares/lvgl/src/draw/lv_draw_img.c ****                 }
 1201              		.loc 1 608 35 view .LVU419
 1202 04e2 0133     		adds	r3, r3, #1
 1203 04e4 ADF87230 		strh	r3, [sp, #114]	@ movhi
 1204 04e8 0D94     		str	r4, [sp, #52]
 1205              	.LVL125:
 1206              	.L36:
 608:Middlewares/lvgl/src/draw/lv_draw_img.c ****                 }
 1207              		.loc 1 608 35 view .LVU420
 1208              	.LBE122:
 521:Middlewares/lvgl/src/draw/lv_draw_img.c ****                 map_px = map_buf_tmp;
 1209              		.loc 1 521 41 is_stmt 1 discriminator 2 view .LVU421
 521:Middlewares/lvgl/src/draw/lv_draw_img.c ****                 map_px = map_buf_tmp;
 1210              		.loc 1 521 42 is_stmt 0 discriminator 2 view .LVU422
 1211 04ea 059B     		ldr	r3, [sp, #20]
 1212 04ec 0133     		adds	r3, r3, #1
 1213 04ee 0593     		str	r3, [sp, #20]
 1214              	.LVL126:
 1215              	.L23:
 521:Middlewares/lvgl/src/draw/lv_draw_img.c ****                 map_px = map_buf_tmp;
 1216              		.loc 1 521 24 is_stmt 1 discriminator 1 view .LVU423
 521:Middlewares/lvgl/src/draw/lv_draw_img.c ****                 map_px = map_buf_tmp;
 1217              		.loc 1 521 13 is_stmt 0 discriminator 1 view .LVU424
 1218 04f0 129B     		ldr	r3, [sp, #72]
 1219 04f2 059A     		ldr	r2, [sp, #20]
 1220 04f4 9342     		cmp	r3, r2
 1221 04f6 75DD     		ble	.L65
 1222              	.LBB135:
 522:Middlewares/lvgl/src/draw/lv_draw_img.c **** #if LV_DRAW_COMPLEX
 1223              		.loc 1 522 17 is_stmt 1 view .LVU425
 1224              	.LVL127:
 524:Middlewares/lvgl/src/draw/lv_draw_img.c ****                 int32_t rot_x = disp_area->x1 + draw_area.x1 - map_area->x1;
 1225              		.loc 1 524 17 view .LVU426
 525:Middlewares/lvgl/src/draw/lv_draw_img.c **** #endif
 1226              		.loc 1 525 17 view .LVU427
 525:Middlewares/lvgl/src/draw/lv_draw_img.c **** #endif
 1227              		.loc 1 525 42 is_stmt 0 view .LVU428
 1228 04f8 0E9B     		ldr	r3, [sp, #56]
 1229 04fa B3F910A0 		ldrsh	r10, [r3, #16]
 1230              	.LVL128:
ARM GAS  /tmp/ccBZPfuw.s 			page 54


 525:Middlewares/lvgl/src/draw/lv_draw_img.c **** #endif
 1231              		.loc 1 525 58 view .LVU429
 1232 04fe BDF9C030 		ldrsh	r3, [sp, #192]
 525:Middlewares/lvgl/src/draw/lv_draw_img.c **** #endif
 1233              		.loc 1 525 47 view .LVU430
 1234 0502 9A44     		add	r10, r10, r3
 525:Middlewares/lvgl/src/draw/lv_draw_img.c **** #endif
 1235              		.loc 1 525 72 view .LVU431
 1236 0504 109B     		ldr	r3, [sp, #64]
 1237 0506 B3F90030 		ldrsh	r3, [r3]
 525:Middlewares/lvgl/src/draw/lv_draw_img.c **** #endif
 1238              		.loc 1 525 25 view .LVU432
 1239 050a AAEB030A 		sub	r10, r10, r3
 1240              	.LVL129:
 528:Middlewares/lvgl/src/draw/lv_draw_img.c **** 
 1241              		.loc 1 528 17 is_stmt 1 view .LVU433
 522:Middlewares/lvgl/src/draw/lv_draw_img.c **** #if LV_DRAW_COMPLEX
 1242              		.loc 1 522 24 is_stmt 0 view .LVU434
 1243 050e 0C9E     		ldr	r6, [sp, #48]
 528:Middlewares/lvgl/src/draw/lv_draw_img.c **** 
 1244              		.loc 1 528 17 view .LVU435
 1245 0510 0D9C     		ldr	r4, [sp, #52]
 528:Middlewares/lvgl/src/draw/lv_draw_img.c **** 
 1246              		.loc 1 528 23 view .LVU436
 1247 0512 0025     		movs	r5, #0
 1248 0514 CDF820A0 		str	r10, [sp, #32]
 1249 0518 DDF84CA0 		ldr	r10, [sp, #76]
 1250              	.LVL130:
 528:Middlewares/lvgl/src/draw/lv_draw_img.c **** 
 1251              		.loc 1 528 17 view .LVU437
 1252 051c A5E7     		b	.L24
 1253              	.LVL131:
 1254              	.L64:
 1255              	.LBB130:
 593:Middlewares/lvgl/src/draw/lv_draw_img.c ****                     mask_res_sub = lv_draw_mask_apply(mask_buf + px_i_start, draw_area.x1 + draw_bu
 1256              		.loc 1 593 21 is_stmt 1 view .LVU438
 594:Middlewares/lvgl/src/draw/lv_draw_img.c ****                                                       lv_area_get_width(&draw_area));
 1257              		.loc 1 594 21 view .LVU439
 594:Middlewares/lvgl/src/draw/lv_draw_img.c ****                                                       lv_area_get_width(&draw_area));
 1258              		.loc 1 594 36 is_stmt 0 view .LVU440
 1259 051e 0D9B     		ldr	r3, [sp, #52]
 1260 0520 4344     		add	r3, r3, r8
 1261 0522 1D46     		mov	r5, r3
 1262              	.LVL132:
 594:Middlewares/lvgl/src/draw/lv_draw_img.c ****                                                       lv_area_get_width(&draw_area));
 1263              		.loc 1 594 87 view .LVU441
 1264 0524 BDF8C000 		ldrh	r0, [sp, #192]
 594:Middlewares/lvgl/src/draw/lv_draw_img.c ****                                                       lv_area_get_width(&draw_area));
 1265              		.loc 1 594 107 view .LVU442
 1266 0528 0E9B     		ldr	r3, [sp, #56]
 1267 052a 198A     		ldrh	r1, [r3, #16]
 1268              	.LVL133:
 594:Middlewares/lvgl/src/draw/lv_draw_img.c ****                                                       lv_area_get_width(&draw_area));
 1269              		.loc 1 594 91 view .LVU443
 1270 052c 0144     		add	r1, r1, r0
 594:Middlewares/lvgl/src/draw/lv_draw_img.c ****                                                       lv_area_get_width(&draw_area));
 1271              		.loc 1 594 125 view .LVU444
ARM GAS  /tmp/ccBZPfuw.s 			page 55


 1272 052e BDF8C220 		ldrh	r2, [sp, #194]
 594:Middlewares/lvgl/src/draw/lv_draw_img.c ****                                                       lv_area_get_width(&draw_area));
 1273              		.loc 1 594 114 view .LVU445
 1274 0532 059E     		ldr	r6, [sp, #20]
 1275              	.LVL134:
 594:Middlewares/lvgl/src/draw/lv_draw_img.c ****                                                       lv_area_get_width(&draw_area));
 1276              		.loc 1 594 114 view .LVU446
 1277 0534 3244     		add	r2, r2, r6
 594:Middlewares/lvgl/src/draw/lv_draw_img.c ****                                                       lv_area_get_width(&draw_area));
 1278              		.loc 1 594 145 view .LVU447
 1279 0536 5B8A     		ldrh	r3, [r3, #18]
 594:Middlewares/lvgl/src/draw/lv_draw_img.c ****                                                       lv_area_get_width(&draw_area));
 1280              		.loc 1 594 129 view .LVU448
 1281 0538 13FA82F2 		uxtah	r2, r3, r2
 1282              	.LVL135:
 1283              	.LBB131:
 1284              	.LBI131:
 133:Middlewares/lvgl/src/draw/../misc/lv_area.h **** {
 1285              		.loc 2 133 26 is_stmt 1 view .LVU449
 1286              	.LBB132:
 135:Middlewares/lvgl/src/draw/../misc/lv_area.h **** }
 1287              		.loc 2 135 5 view .LVU450
 135:Middlewares/lvgl/src/draw/../misc/lv_area.h **** }
 1288              		.loc 2 135 31 is_stmt 0 view .LVU451
 1289 053c BDF8C430 		ldrh	r3, [sp, #196]
 135:Middlewares/lvgl/src/draw/../misc/lv_area.h **** }
 1290              		.loc 2 135 36 view .LVU452
 1291 0540 1B1A     		subs	r3, r3, r0
 1292 0542 9BB2     		uxth	r3, r3
 135:Middlewares/lvgl/src/draw/../misc/lv_area.h **** }
 1293              		.loc 2 135 49 view .LVU453
 1294 0544 0133     		adds	r3, r3, #1
 1295              	.LVL136:
 135:Middlewares/lvgl/src/draw/../misc/lv_area.h **** }
 1296              		.loc 2 135 49 view .LVU454
 1297              	.LBE132:
 1298              	.LBE131:
 594:Middlewares/lvgl/src/draw/lv_draw_img.c ****                                                       lv_area_get_width(&draw_area));
 1299              		.loc 1 594 36 view .LVU455
 1300 0546 1BB2     		sxth	r3, r3
 1301 0548 12B2     		sxth	r2, r2
 1302 054a 09B2     		sxth	r1, r1
 1303 054c 2846     		mov	r0, r5
 1304 054e FFF7FEFF 		bl	lv_draw_mask_apply
 1305              	.LVL137:
 596:Middlewares/lvgl/src/draw/lv_draw_img.c ****                         lv_memset_00(mask_buf + px_i_start, lv_area_get_width(&draw_area));
 1306              		.loc 1 596 21 is_stmt 1 view .LVU456
 596:Middlewares/lvgl/src/draw/lv_draw_img.c ****                         lv_memset_00(mask_buf + px_i_start, lv_area_get_width(&draw_area));
 1307              		.loc 1 596 23 is_stmt 0 view .LVU457
 1308 0552 18B1     		cbz	r0, .L66
 600:Middlewares/lvgl/src/draw/lv_draw_img.c ****                         mask_res = LV_DRAW_MASK_RES_CHANGED;
 1309              		.loc 1 600 26 is_stmt 1 view .LVU458
 600:Middlewares/lvgl/src/draw/lv_draw_img.c ****                         mask_res = LV_DRAW_MASK_RES_CHANGED;
 1310              		.loc 1 600 28 is_stmt 0 view .LVU459
 1311 0554 0228     		cmp	r0, #2
 1312 0556 B0D1     		bne	.L33
 601:Middlewares/lvgl/src/draw/lv_draw_img.c ****                     }
ARM GAS  /tmp/ccBZPfuw.s 			page 56


 1313              		.loc 1 601 34 view .LVU460
 1314 0558 1690     		str	r0, [sp, #88]
 1315              	.LVL138:
 601:Middlewares/lvgl/src/draw/lv_draw_img.c ****                     }
 1316              		.loc 1 601 34 view .LVU461
 1317 055a AEE7     		b	.L33
 1318              	.LVL139:
 1319              	.L66:
 597:Middlewares/lvgl/src/draw/lv_draw_img.c ****                         mask_res = LV_DRAW_MASK_RES_CHANGED;
 1320              		.loc 1 597 25 is_stmt 1 view .LVU462
 1321              	.LBB133:
 1322              	.LBI133:
 133:Middlewares/lvgl/src/draw/../misc/lv_area.h **** {
 1323              		.loc 2 133 26 view .LVU463
 1324              	.LBB134:
 135:Middlewares/lvgl/src/draw/../misc/lv_area.h **** }
 1325              		.loc 2 135 5 view .LVU464
 135:Middlewares/lvgl/src/draw/../misc/lv_area.h **** }
 1326              		.loc 2 135 31 is_stmt 0 view .LVU465
 1327 055c BDF8C410 		ldrh	r1, [sp, #196]
 135:Middlewares/lvgl/src/draw/../misc/lv_area.h **** }
 1328              		.loc 2 135 44 view .LVU466
 1329 0560 BDF8C030 		ldrh	r3, [sp, #192]
 135:Middlewares/lvgl/src/draw/../misc/lv_area.h **** }
 1330              		.loc 2 135 36 view .LVU467
 1331 0564 C91A     		subs	r1, r1, r3
 1332 0566 89B2     		uxth	r1, r1
 135:Middlewares/lvgl/src/draw/../misc/lv_area.h **** }
 1333              		.loc 2 135 49 view .LVU468
 1334 0568 0131     		adds	r1, r1, #1
 1335              	.LVL140:
 135:Middlewares/lvgl/src/draw/../misc/lv_area.h **** }
 1336              		.loc 2 135 49 view .LVU469
 1337              	.LBE134:
 1338              	.LBE133:
 597:Middlewares/lvgl/src/draw/lv_draw_img.c ****                         mask_res = LV_DRAW_MASK_RES_CHANGED;
 1339              		.loc 1 597 25 view .LVU470
 1340 056a 09B2     		sxth	r1, r1
 1341 056c 2846     		mov	r0, r5
 1342              	.LVL141:
 597:Middlewares/lvgl/src/draw/lv_draw_img.c ****                         mask_res = LV_DRAW_MASK_RES_CHANGED;
 1343              		.loc 1 597 25 view .LVU471
 1344 056e FFF7FEFF 		bl	lv_memset_00
 1345              	.LVL142:
 598:Middlewares/lvgl/src/draw/lv_draw_img.c ****                     }
 1346              		.loc 1 598 25 is_stmt 1 view .LVU472
 598:Middlewares/lvgl/src/draw/lv_draw_img.c ****                     }
 1347              		.loc 1 598 34 is_stmt 0 view .LVU473
 1348 0572 0223     		movs	r3, #2
 1349 0574 1693     		str	r3, [sp, #88]
 1350 0576 A0E7     		b	.L33
 1351              	.LVL143:
 1352              	.L35:
 598:Middlewares/lvgl/src/draw/lv_draw_img.c ****                     }
 1353              		.loc 1 598 34 view .LVU474
 1354              	.LBE130:
 612:Middlewares/lvgl/src/draw/lv_draw_img.c **** 
ARM GAS  /tmp/ccBZPfuw.s 			page 57


 1355              		.loc 1 612 21 is_stmt 1 view .LVU475
 612:Middlewares/lvgl/src/draw/lv_draw_img.c **** 
 1356              		.loc 1 612 108 is_stmt 0 view .LVU476
 1357 0578 069C     		ldr	r4, [sp, #24]
 1358              	.LVL144:
 612:Middlewares/lvgl/src/draw/lv_draw_img.c **** 
 1359              		.loc 1 612 108 view .LVU477
 1360 057a 237B     		ldrb	r3, [r4, #12]	@ zero_extendqisi2
 1361 057c 03F00F03 		and	r3, r3, #15
 612:Middlewares/lvgl/src/draw/lv_draw_img.c **** 
 1362              		.loc 1 612 21 view .LVU478
 1363 0580 0293     		str	r3, [sp, #8]
 1364 0582 E37A     		ldrb	r3, [r4, #11]	@ zero_extendqisi2
 1365 0584 0193     		str	r3, [sp, #4]
 1366 0586 169B     		ldr	r3, [sp, #88]
 1367 0588 0093     		str	r3, [sp]
 1368 058a 4346     		mov	r3, r8
 1369 058c 079A     		ldr	r2, [sp, #28]
 1370 058e 1BA9     		add	r1, sp, #108
 1371 0590 1798     		ldr	r0, [sp, #92]
 1372 0592 FFF7FEFF 		bl	_lv_blend_map
 1373              	.LVL145:
 614:Middlewares/lvgl/src/draw/lv_draw_img.c ****                     blend_area.y2 = blend_area.y1;
 1374              		.loc 1 614 21 is_stmt 1 view .LVU479
 614:Middlewares/lvgl/src/draw/lv_draw_img.c ****                     blend_area.y2 = blend_area.y1;
 1375              		.loc 1 614 47 is_stmt 0 view .LVU480
 1376 0596 BDF87230 		ldrh	r3, [sp, #114]
 614:Middlewares/lvgl/src/draw/lv_draw_img.c ****                     blend_area.y2 = blend_area.y1;
 1377              		.loc 1 614 51 view .LVU481
 1378 059a 0133     		adds	r3, r3, #1
 1379 059c 1BB2     		sxth	r3, r3
 614:Middlewares/lvgl/src/draw/lv_draw_img.c ****                     blend_area.y2 = blend_area.y1;
 1380              		.loc 1 614 35 view .LVU482
 1381 059e ADF86E30 		strh	r3, [sp, #110]	@ movhi
 615:Middlewares/lvgl/src/draw/lv_draw_img.c **** 
 1382              		.loc 1 615 21 is_stmt 1 view .LVU483
 615:Middlewares/lvgl/src/draw/lv_draw_img.c **** 
 1383              		.loc 1 615 35 is_stmt 0 view .LVU484
 1384 05a2 ADF87230 		strh	r3, [sp, #114]	@ movhi
 617:Middlewares/lvgl/src/draw/lv_draw_img.c ****                     mask_res = (alpha_byte || chroma_key || draw_dsc->angle ||
 1385              		.loc 1 617 21 is_stmt 1 view .LVU485
 1386              	.LVL146:
 618:Middlewares/lvgl/src/draw/lv_draw_img.c ****                                 draw_dsc->zoom != LV_IMG_ZOOM_NONE) ? LV_DRAW_MASK_RES_CHANGED : LV
 1387              		.loc 1 618 21 view .LVU486
 618:Middlewares/lvgl/src/draw/lv_draw_img.c ****                                 draw_dsc->zoom != LV_IMG_ZOOM_NONE) ? LV_DRAW_MASK_RES_CHANGED : LV
 1388              		.loc 1 618 30 is_stmt 0 view .LVU487
 1389 05a6 099B     		ldr	r3, [sp, #36]
 1390 05a8 43B9     		cbnz	r3, .L48
 618:Middlewares/lvgl/src/draw/lv_draw_img.c ****                                 draw_dsc->zoom != LV_IMG_ZOOM_NONE) ? LV_DRAW_MASK_RES_CHANGED : LV
 1391              		.loc 1 618 44 discriminator 2 view .LVU488
 1392 05aa 0B9B     		ldr	r3, [sp, #44]
 1393 05ac 6BB9     		cbnz	r3, .L49
 618:Middlewares/lvgl/src/draw/lv_draw_img.c ****                                 draw_dsc->zoom != LV_IMG_ZOOM_NONE) ? LV_DRAW_MASK_RES_CHANGED : LV
 1394              		.loc 1 618 77 discriminator 4 view .LVU489
 1395 05ae 2368     		ldr	r3, [r4]
 1396 05b0 B3F1807F 		cmp	r3, #16777216
 1397 05b4 0CD0     		beq	.L50
ARM GAS  /tmp/ccBZPfuw.s 			page 58


 618:Middlewares/lvgl/src/draw/lv_draw_img.c ****                                 draw_dsc->zoom != LV_IMG_ZOOM_NONE) ? LV_DRAW_MASK_RES_CHANGED : LV
 1398              		.loc 1 618 30 view .LVU490
 1399 05b6 0223     		movs	r3, #2
 1400 05b8 1693     		str	r3, [sp, #88]
 1401              	.LVL147:
 618:Middlewares/lvgl/src/draw/lv_draw_img.c ****                                 draw_dsc->zoom != LV_IMG_ZOOM_NONE) ? LV_DRAW_MASK_RES_CHANGED : LV
 1402              		.loc 1 618 30 view .LVU491
 1403 05ba 01E0     		b	.L37
 1404              	.LVL148:
 1405              	.L48:
 618:Middlewares/lvgl/src/draw/lv_draw_img.c ****                                 draw_dsc->zoom != LV_IMG_ZOOM_NONE) ? LV_DRAW_MASK_RES_CHANGED : LV
 1406              		.loc 1 618 30 view .LVU492
 1407 05bc 0223     		movs	r3, #2
 1408 05be 1693     		str	r3, [sp, #88]
 1409              	.LVL149:
 1410              	.L37:
 622:Middlewares/lvgl/src/draw/lv_draw_img.c ****                         lv_memset_ff(mask_buf, mask_buf_size);
 1411              		.loc 1 622 21 is_stmt 1 discriminator 8 view .LVU493
 622:Middlewares/lvgl/src/draw/lv_draw_img.c ****                         lv_memset_ff(mask_buf, mask_buf_size);
 1412              		.loc 1 622 23 is_stmt 0 discriminator 8 view .LVU494
 1413 05c0 0F9B     		ldr	r3, [sp, #60]
 1414 05c2 43B9     		cbnz	r3, .L67
 617:Middlewares/lvgl/src/draw/lv_draw_img.c ****                     mask_res = (alpha_byte || chroma_key || draw_dsc->angle ||
 1415              		.loc 1 617 26 view .LVU495
 1416 05c4 0023     		movs	r3, #0
 1417 05c6 0D93     		str	r3, [sp, #52]
 1418              	.LVL150:
 617:Middlewares/lvgl/src/draw/lv_draw_img.c ****                     mask_res = (alpha_byte || chroma_key || draw_dsc->angle ||
 1419              		.loc 1 617 26 view .LVU496
 1420 05c8 8FE7     		b	.L36
 1421              	.LVL151:
 1422              	.L49:
 618:Middlewares/lvgl/src/draw/lv_draw_img.c ****                                 draw_dsc->zoom != LV_IMG_ZOOM_NONE) ? LV_DRAW_MASK_RES_CHANGED : LV
 1423              		.loc 1 618 30 view .LVU497
 1424 05ca 0223     		movs	r3, #2
 1425 05cc 1693     		str	r3, [sp, #88]
 1426              	.LVL152:
 618:Middlewares/lvgl/src/draw/lv_draw_img.c ****                                 draw_dsc->zoom != LV_IMG_ZOOM_NONE) ? LV_DRAW_MASK_RES_CHANGED : LV
 1427              		.loc 1 618 30 view .LVU498
 1428 05ce F7E7     		b	.L37
 1429              	.LVL153:
 1430              	.L50:
 618:Middlewares/lvgl/src/draw/lv_draw_img.c ****                                 draw_dsc->zoom != LV_IMG_ZOOM_NONE) ? LV_DRAW_MASK_RES_CHANGED : LV
 1431              		.loc 1 618 30 view .LVU499
 1432 05d0 0123     		movs	r3, #1
 1433 05d2 1693     		str	r3, [sp, #88]
 1434              	.LVL154:
 618:Middlewares/lvgl/src/draw/lv_draw_img.c ****                                 draw_dsc->zoom != LV_IMG_ZOOM_NONE) ? LV_DRAW_MASK_RES_CHANGED : LV
 1435              		.loc 1 618 30 view .LVU500
 1436 05d4 F4E7     		b	.L37
 1437              	.LVL155:
 1438              	.L67:
 623:Middlewares/lvgl/src/draw/lv_draw_img.c ****                     }
 1439              		.loc 1 623 25 is_stmt 1 view .LVU501
 1440 05d6 1199     		ldr	r1, [sp, #68]
 1441 05d8 4046     		mov	r0, r8
 1442 05da FFF7FEFF 		bl	lv_memset_ff
ARM GAS  /tmp/ccBZPfuw.s 			page 59


 1443              	.LVL156:
 617:Middlewares/lvgl/src/draw/lv_draw_img.c ****                     mask_res = (alpha_byte || chroma_key || draw_dsc->angle ||
 1444              		.loc 1 617 26 is_stmt 0 view .LVU502
 1445 05de 0023     		movs	r3, #0
 1446 05e0 0D93     		str	r3, [sp, #52]
 1447              	.LVL157:
 617:Middlewares/lvgl/src/draw/lv_draw_img.c ****                     mask_res = (alpha_byte || chroma_key || draw_dsc->angle ||
 1448              		.loc 1 617 26 view .LVU503
 1449 05e2 82E7     		b	.L36
 1450              	.LVL158:
 1451              	.L65:
 617:Middlewares/lvgl/src/draw/lv_draw_img.c ****                     mask_res = (alpha_byte || chroma_key || draw_dsc->angle ||
 1452              		.loc 1 617 26 view .LVU504
 1453              	.LBE135:
 629:Middlewares/lvgl/src/draw/lv_draw_img.c ****                 blend_area.y2--;
 1454              		.loc 1 629 13 is_stmt 1 view .LVU505
 629:Middlewares/lvgl/src/draw/lv_draw_img.c ****                 blend_area.y2--;
 1455              		.loc 1 629 26 is_stmt 0 view .LVU506
 1456 05e4 BDF96E20 		ldrsh	r2, [sp, #110]
 1457              	.LVL159:
 629:Middlewares/lvgl/src/draw/lv_draw_img.c ****                 blend_area.y2--;
 1458              		.loc 1 629 43 view .LVU507
 1459 05e8 BDF97230 		ldrsh	r3, [sp, #114]
 629:Middlewares/lvgl/src/draw/lv_draw_img.c ****                 blend_area.y2--;
 1460              		.loc 1 629 15 view .LVU508
 1461 05ec 9A42     		cmp	r2, r3
 1462 05ee 08D1     		bne	.L68
 1463              	.L39:
 634:Middlewares/lvgl/src/draw/lv_draw_img.c ****             lv_mem_buf_release(map2);
 1464              		.loc 1 634 13 is_stmt 1 view .LVU509
 1465 05f0 4046     		mov	r0, r8
 1466 05f2 FFF7FEFF 		bl	lv_mem_buf_release
 1467              	.LVL160:
 635:Middlewares/lvgl/src/draw/lv_draw_img.c ****         }
 1468              		.loc 1 635 13 view .LVU510
 1469 05f6 0798     		ldr	r0, [sp, #28]
 1470 05f8 FFF7FEFF 		bl	lv_mem_buf_release
 1471              	.LVL161:
 1472              	.L3:
 635:Middlewares/lvgl/src/draw/lv_draw_img.c ****         }
 1473              		.loc 1 635 13 is_stmt 0 view .LVU511
 1474              	.LBE143:
 1475              	.LBE147:
 638:Middlewares/lvgl/src/draw/lv_draw_img.c **** 
 1476              		.loc 1 638 1 view .LVU512
 1477 05fc 33B0     		add	sp, sp, #204
 1478              	.LCFI3:
 1479              		.cfi_remember_state
 1480              		.cfi_def_cfa_offset 36
 1481              		@ sp needed
 1482 05fe BDE8F08F 		pop	{r4, r5, r6, r7, r8, r9, r10, fp, pc}
 1483              	.LVL162:
 1484              	.L68:
 1485              	.LCFI4:
 1486              		.cfi_restore_state
 1487              	.LBB148:
 1488              	.LBB144:
ARM GAS  /tmp/ccBZPfuw.s 			page 60


 630:Middlewares/lvgl/src/draw/lv_draw_img.c ****                 _lv_blend_map(clip_area, &blend_area, map2, mask_buf, mask_res, draw_dsc->opa, draw
 1489              		.loc 1 630 17 is_stmt 1 view .LVU513
 630:Middlewares/lvgl/src/draw/lv_draw_img.c ****                 _lv_blend_map(clip_area, &blend_area, map2, mask_buf, mask_res, draw_dsc->opa, draw
 1490              		.loc 1 630 30 is_stmt 0 view .LVU514
 1491 0602 013B     		subs	r3, r3, #1
 1492 0604 ADF87230 		strh	r3, [sp, #114]	@ movhi
 631:Middlewares/lvgl/src/draw/lv_draw_img.c ****             }
 1493              		.loc 1 631 17 is_stmt 1 view .LVU515
 631:Middlewares/lvgl/src/draw/lv_draw_img.c ****             }
 1494              		.loc 1 631 104 is_stmt 0 view .LVU516
 1495 0608 069A     		ldr	r2, [sp, #24]
 1496 060a 137B     		ldrb	r3, [r2, #12]	@ zero_extendqisi2
 1497 060c 03F00F03 		and	r3, r3, #15
 631:Middlewares/lvgl/src/draw/lv_draw_img.c ****             }
 1498              		.loc 1 631 17 view .LVU517
 1499 0610 0293     		str	r3, [sp, #8]
 1500 0612 D37A     		ldrb	r3, [r2, #11]	@ zero_extendqisi2
 1501 0614 0193     		str	r3, [sp, #4]
 1502 0616 169B     		ldr	r3, [sp, #88]
 1503 0618 0093     		str	r3, [sp]
 1504 061a 4346     		mov	r3, r8
 1505 061c 079A     		ldr	r2, [sp, #28]
 1506 061e 1BA9     		add	r1, sp, #108
 1507 0620 1798     		ldr	r0, [sp, #92]
 1508 0622 FFF7FEFF 		bl	_lv_blend_map
 1509              	.LVL163:
 1510 0626 E3E7     		b	.L39
 1511              	.LBE144:
 1512              	.LBE148:
 1513              		.cfi_endproc
 1514              	.LFE154:
 1516              		.section	.text.show_error,"ax",%progbits
 1517              		.align	1
 1518              		.syntax unified
 1519              		.thumb
 1520              		.thumb_func
 1521              		.fpu fpv4-sp-d16
 1523              	show_error:
 1524              	.LVL164:
 1525              	.LFB155:
 641:Middlewares/lvgl/src/draw/lv_draw_img.c ****     lv_draw_rect_dsc_t rect_dsc;
 1526              		.loc 1 641 1 is_stmt 1 view -0
 1527              		.cfi_startproc
 1528              		@ args = 0, pretend = 0, frame = 88
 1529              		@ frame_needed = 0, uses_anonymous_args = 0
 641:Middlewares/lvgl/src/draw/lv_draw_img.c ****     lv_draw_rect_dsc_t rect_dsc;
 1530              		.loc 1 641 1 is_stmt 0 view .LVU519
 1531 0000 70B5     		push	{r4, r5, r6, lr}
 1532              	.LCFI5:
 1533              		.cfi_def_cfa_offset 16
 1534              		.cfi_offset 4, -16
 1535              		.cfi_offset 5, -12
 1536              		.cfi_offset 6, -8
 1537              		.cfi_offset 14, -4
 1538 0002 98B0     		sub	sp, sp, #96
 1539              	.LCFI6:
 1540              		.cfi_def_cfa_offset 112
ARM GAS  /tmp/ccBZPfuw.s 			page 61


 1541 0004 0446     		mov	r4, r0
 1542 0006 0D46     		mov	r5, r1
 1543 0008 1646     		mov	r6, r2
 642:Middlewares/lvgl/src/draw/lv_draw_img.c ****     lv_draw_rect_dsc_init(&rect_dsc);
 1544              		.loc 1 642 5 is_stmt 1 view .LVU520
 643:Middlewares/lvgl/src/draw/lv_draw_img.c ****     rect_dsc.bg_color = lv_color_white();
 1545              		.loc 1 643 5 view .LVU521
 1546 000a 0BA8     		add	r0, sp, #44
 1547              	.LVL165:
 643:Middlewares/lvgl/src/draw/lv_draw_img.c ****     rect_dsc.bg_color = lv_color_white();
 1548              		.loc 1 643 5 is_stmt 0 view .LVU522
 1549 000c FFF7FEFF 		bl	lv_draw_rect_dsc_init
 1550              	.LVL166:
 644:Middlewares/lvgl/src/draw/lv_draw_img.c ****     lv_draw_rect(coords, clip_area, &rect_dsc);
 1551              		.loc 1 644 5 is_stmt 1 view .LVU523
 1552              	.LBB149:
 1553              	.LBI149:
 610:Middlewares/lvgl/src/draw/../misc/lv_color.h **** }
 611:Middlewares/lvgl/src/draw/../misc/lv_color.h **** 
 612:Middlewares/lvgl/src/draw/../misc/lv_color.h **** static inline lv_color_t lv_color_hex3(uint32_t c)
 613:Middlewares/lvgl/src/draw/../misc/lv_color.h **** {
 614:Middlewares/lvgl/src/draw/../misc/lv_color.h ****     return lv_color_make((uint8_t)(((c >> 4) & 0xF0) | ((c >> 8) & 0xF)), (uint8_t)((c & 0xF0) | ((
 615:Middlewares/lvgl/src/draw/../misc/lv_color.h ****                          (uint8_t)((c & 0xF) | ((c & 0xF) << 4)));
 616:Middlewares/lvgl/src/draw/../misc/lv_color.h **** }
 617:Middlewares/lvgl/src/draw/../misc/lv_color.h **** 
 618:Middlewares/lvgl/src/draw/../misc/lv_color.h **** static inline void lv_color_filter_dsc_init(lv_color_filter_dsc_t * dsc, lv_color_filter_cb_t cb)
 619:Middlewares/lvgl/src/draw/../misc/lv_color.h **** {
 620:Middlewares/lvgl/src/draw/../misc/lv_color.h ****     dsc->filter_cb = cb;
 621:Middlewares/lvgl/src/draw/../misc/lv_color.h **** }
 622:Middlewares/lvgl/src/draw/../misc/lv_color.h **** 
 623:Middlewares/lvgl/src/draw/../misc/lv_color.h **** //! @cond Doxygen_Suppress
 624:Middlewares/lvgl/src/draw/../misc/lv_color.h **** //!
 625:Middlewares/lvgl/src/draw/../misc/lv_color.h **** LV_ATTRIBUTE_FAST_MEM void lv_color_fill(lv_color_t * buf, lv_color_t color, uint32_t px_num);
 626:Middlewares/lvgl/src/draw/../misc/lv_color.h **** 
 627:Middlewares/lvgl/src/draw/../misc/lv_color.h **** //! @endcond
 628:Middlewares/lvgl/src/draw/../misc/lv_color.h **** lv_color_t lv_color_lighten(lv_color_t c, lv_opa_t lvl);
 629:Middlewares/lvgl/src/draw/../misc/lv_color.h **** 
 630:Middlewares/lvgl/src/draw/../misc/lv_color.h **** lv_color_t lv_color_darken(lv_color_t c, lv_opa_t lvl);
 631:Middlewares/lvgl/src/draw/../misc/lv_color.h **** 
 632:Middlewares/lvgl/src/draw/../misc/lv_color.h **** lv_color_t lv_color_change_lightness(lv_color_t c, lv_opa_t lvl);
 633:Middlewares/lvgl/src/draw/../misc/lv_color.h **** 
 634:Middlewares/lvgl/src/draw/../misc/lv_color.h **** /**
 635:Middlewares/lvgl/src/draw/../misc/lv_color.h ****  * Convert a HSV color to RGB
 636:Middlewares/lvgl/src/draw/../misc/lv_color.h ****  * @param h hue [0..359]
 637:Middlewares/lvgl/src/draw/../misc/lv_color.h ****  * @param s saturation [0..100]
 638:Middlewares/lvgl/src/draw/../misc/lv_color.h ****  * @param v value [0..100]
 639:Middlewares/lvgl/src/draw/../misc/lv_color.h ****  * @return the given RGB color in RGB (with LV_COLOR_DEPTH depth)
 640:Middlewares/lvgl/src/draw/../misc/lv_color.h ****  */
 641:Middlewares/lvgl/src/draw/../misc/lv_color.h **** lv_color_t lv_color_hsv_to_rgb(uint16_t h, uint8_t s, uint8_t v);
 642:Middlewares/lvgl/src/draw/../misc/lv_color.h **** 
 643:Middlewares/lvgl/src/draw/../misc/lv_color.h **** /**
 644:Middlewares/lvgl/src/draw/../misc/lv_color.h ****  * Convert a 32-bit RGB color to HSV
 645:Middlewares/lvgl/src/draw/../misc/lv_color.h ****  * @param r8 8-bit red
 646:Middlewares/lvgl/src/draw/../misc/lv_color.h ****  * @param g8 8-bit green
 647:Middlewares/lvgl/src/draw/../misc/lv_color.h ****  * @param b8 8-bit blue
 648:Middlewares/lvgl/src/draw/../misc/lv_color.h ****  * @return the given RGB color in HSV
 649:Middlewares/lvgl/src/draw/../misc/lv_color.h ****  */
ARM GAS  /tmp/ccBZPfuw.s 			page 62


 650:Middlewares/lvgl/src/draw/../misc/lv_color.h **** lv_color_hsv_t lv_color_rgb_to_hsv(uint8_t r8, uint8_t g8, uint8_t b8);
 651:Middlewares/lvgl/src/draw/../misc/lv_color.h **** 
 652:Middlewares/lvgl/src/draw/../misc/lv_color.h **** /**
 653:Middlewares/lvgl/src/draw/../misc/lv_color.h ****  * Convert a color to HSV
 654:Middlewares/lvgl/src/draw/../misc/lv_color.h ****  * @param color color
 655:Middlewares/lvgl/src/draw/../misc/lv_color.h ****  * @return the given color in HSV
 656:Middlewares/lvgl/src/draw/../misc/lv_color.h ****  */
 657:Middlewares/lvgl/src/draw/../misc/lv_color.h **** lv_color_hsv_t lv_color_to_hsv(lv_color_t color);
 658:Middlewares/lvgl/src/draw/../misc/lv_color.h **** 
 659:Middlewares/lvgl/src/draw/../misc/lv_color.h **** /**
 660:Middlewares/lvgl/src/draw/../misc/lv_color.h ****  * Just a wrapper around LV_COLOR_CHROMA_KEY because it might be more convenient to use a function 
 661:Middlewares/lvgl/src/draw/../misc/lv_color.h ****  * @return LV_COLOR_CHROMA_KEY
 662:Middlewares/lvgl/src/draw/../misc/lv_color.h ****  */
 663:Middlewares/lvgl/src/draw/../misc/lv_color.h **** static inline lv_color_t lv_color_chroma_key(void)
 664:Middlewares/lvgl/src/draw/../misc/lv_color.h **** {
 665:Middlewares/lvgl/src/draw/../misc/lv_color.h ****     return LV_COLOR_CHROMA_KEY;
 666:Middlewares/lvgl/src/draw/../misc/lv_color.h **** }
 667:Middlewares/lvgl/src/draw/../misc/lv_color.h **** 
 668:Middlewares/lvgl/src/draw/../misc/lv_color.h **** /**********************
 669:Middlewares/lvgl/src/draw/../misc/lv_color.h ****  *  PREDEFINED COLORS
 670:Middlewares/lvgl/src/draw/../misc/lv_color.h ****  **********************/
 671:Middlewares/lvgl/src/draw/../misc/lv_color.h **** /*Source: https://vuetifyjs.com/en/styles/colors/#material-colors*/
 672:Middlewares/lvgl/src/draw/../misc/lv_color.h **** 
 673:Middlewares/lvgl/src/draw/../misc/lv_color.h **** lv_color_t lv_palette_main(lv_palette_t p);
 674:Middlewares/lvgl/src/draw/../misc/lv_color.h **** static inline lv_color_t lv_color_white(void) { return lv_color_make(0xff, 0xff, 0xff);}
 1554              		.loc 3 674 26 view .LVU524
 1555              	.LBE149:
 1556              		.loc 3 674 49 view .LVU525
 1557              	.LBB152:
 1558              	.LBB150:
 1559              	.LBI150:
 602:Middlewares/lvgl/src/draw/../misc/lv_color.h **** {
 1560              		.loc 3 602 26 view .LVU526
 1561              	.LBB151:
 604:Middlewares/lvgl/src/draw/../misc/lv_color.h **** }
 1562              		.loc 3 604 5 view .LVU527
 604:Middlewares/lvgl/src/draw/../misc/lv_color.h **** }
 1563              		.loc 3 604 12 is_stmt 0 view .LVU528
 1564 0010 4FF6FF73 		movw	r3, #65535
 1565              	.LVL167:
 604:Middlewares/lvgl/src/draw/../misc/lv_color.h **** }
 1566              		.loc 3 604 12 view .LVU529
 1567              	.LBE151:
 1568              	.LBE150:
 1569              	.LBE152:
 644:Middlewares/lvgl/src/draw/lv_draw_img.c ****     lv_draw_rect(coords, clip_area, &rect_dsc);
 1570              		.loc 1 644 25 view .LVU530
 1571 0014 ADF83030 		strh	r3, [sp, #48]	@ movhi
 645:Middlewares/lvgl/src/draw/lv_draw_img.c **** 
 1572              		.loc 1 645 5 is_stmt 1 view .LVU531
 1573 0018 0BAA     		add	r2, sp, #44
 1574 001a 2946     		mov	r1, r5
 1575 001c 2046     		mov	r0, r4
 1576 001e FFF7FEFF 		bl	lv_draw_rect
 1577              	.LVL168:
 647:Middlewares/lvgl/src/draw/lv_draw_img.c ****     lv_draw_label_dsc_init(&label_dsc);
 1578              		.loc 1 647 5 view .LVU532
ARM GAS  /tmp/ccBZPfuw.s 			page 63


 648:Middlewares/lvgl/src/draw/lv_draw_img.c ****     lv_draw_label(coords, clip_area, &label_dsc, msg, NULL);
 1579              		.loc 1 648 5 view .LVU533
 1580 0022 03A8     		add	r0, sp, #12
 1581 0024 FFF7FEFF 		bl	lv_draw_label_dsc_init
 1582              	.LVL169:
 649:Middlewares/lvgl/src/draw/lv_draw_img.c **** }
 1583              		.loc 1 649 5 view .LVU534
 1584 0028 0023     		movs	r3, #0
 1585 002a 0093     		str	r3, [sp]
 1586 002c 3346     		mov	r3, r6
 1587 002e 03AA     		add	r2, sp, #12
 1588 0030 2946     		mov	r1, r5
 1589 0032 2046     		mov	r0, r4
 1590 0034 FFF7FEFF 		bl	lv_draw_label
 1591              	.LVL170:
 650:Middlewares/lvgl/src/draw/lv_draw_img.c **** 
 1592              		.loc 1 650 1 is_stmt 0 view .LVU535
 1593 0038 18B0     		add	sp, sp, #96
 1594              	.LCFI7:
 1595              		.cfi_def_cfa_offset 16
 1596              		@ sp needed
 1597 003a 70BD     		pop	{r4, r5, r6, pc}
 650:Middlewares/lvgl/src/draw/lv_draw_img.c **** 
 1598              		.loc 1 650 1 view .LVU536
 1599              		.cfi_endproc
 1600              	.LFE155:
 1602              		.section	.text.lv_draw_img_dsc_init,"ax",%progbits
 1603              		.align	1
 1604              		.global	lv_draw_img_dsc_init
 1605              		.syntax unified
 1606              		.thumb
 1607              		.thumb_func
 1608              		.fpu fpv4-sp-d16
 1610              	lv_draw_img_dsc_init:
 1611              	.LVL171:
 1612              	.LFB147:
  58:Middlewares/lvgl/src/draw/lv_draw_img.c ****     lv_memset_00(dsc, sizeof(lv_draw_img_dsc_t));
 1613              		.loc 1 58 1 is_stmt 1 view -0
 1614              		.cfi_startproc
 1615              		@ args = 0, pretend = 0, frame = 0
 1616              		@ frame_needed = 0, uses_anonymous_args = 0
  58:Middlewares/lvgl/src/draw/lv_draw_img.c ****     lv_memset_00(dsc, sizeof(lv_draw_img_dsc_t));
 1617              		.loc 1 58 1 is_stmt 0 view .LVU538
 1618 0000 10B5     		push	{r4, lr}
 1619              	.LCFI8:
 1620              		.cfi_def_cfa_offset 8
 1621              		.cfi_offset 4, -8
 1622              		.cfi_offset 14, -4
 1623 0002 0446     		mov	r4, r0
  59:Middlewares/lvgl/src/draw/lv_draw_img.c ****     dsc->recolor = lv_color_black();
 1624              		.loc 1 59 5 is_stmt 1 view .LVU539
 1625 0004 1821     		movs	r1, #24
 1626 0006 FFF7FEFF 		bl	lv_memset_00
 1627              	.LVL172:
  60:Middlewares/lvgl/src/draw/lv_draw_img.c ****     dsc->opa = LV_OPA_COVER;
 1628              		.loc 1 60 5 view .LVU540
 1629              	.LBB153:
ARM GAS  /tmp/ccBZPfuw.s 			page 64


 1630              	.LBI153:
 675:Middlewares/lvgl/src/draw/../misc/lv_color.h **** static inline lv_color_t lv_color_black(void) { return lv_color_make(0x00, 0x0, 0x00);}
 1631              		.loc 3 675 26 view .LVU541
 1632              	.LBE153:
 1633              		.loc 3 675 49 view .LVU542
 1634              	.LBB156:
 1635              	.LBB154:
 1636              	.LBI154:
 602:Middlewares/lvgl/src/draw/../misc/lv_color.h **** {
 1637              		.loc 3 602 26 view .LVU543
 1638              	.LBB155:
 604:Middlewares/lvgl/src/draw/../misc/lv_color.h **** }
 1639              		.loc 3 604 5 view .LVU544
 604:Middlewares/lvgl/src/draw/../misc/lv_color.h **** }
 1640              		.loc 3 604 12 is_stmt 0 view .LVU545
 1641 000a 4FF00003 		mov	r3, #0	@ movhi
 1642              	.LVL173:
 604:Middlewares/lvgl/src/draw/../misc/lv_color.h **** }
 1643              		.loc 3 604 12 view .LVU546
 1644              	.LBE155:
 1645              	.LBE154:
 1646              	.LBE156:
  60:Middlewares/lvgl/src/draw/lv_draw_img.c ****     dsc->opa = LV_OPA_COVER;
 1647              		.loc 1 60 20 view .LVU547
 1648 000e 2381     		strh	r3, [r4, #8]	@ movhi
  61:Middlewares/lvgl/src/draw/lv_draw_img.c ****     dsc->zoom = LV_IMG_ZOOM_NONE;
 1649              		.loc 1 61 5 is_stmt 1 view .LVU548
  61:Middlewares/lvgl/src/draw/lv_draw_img.c ****     dsc->zoom = LV_IMG_ZOOM_NONE;
 1650              		.loc 1 61 14 is_stmt 0 view .LVU549
 1651 0010 FF23     		movs	r3, #255
 1652 0012 E372     		strb	r3, [r4, #11]
  62:Middlewares/lvgl/src/draw/lv_draw_img.c ****     dsc->antialias = LV_COLOR_DEPTH > 8 ? 1 : 0;
 1653              		.loc 1 62 5 is_stmt 1 view .LVU550
  62:Middlewares/lvgl/src/draw/lv_draw_img.c ****     dsc->antialias = LV_COLOR_DEPTH > 8 ? 1 : 0;
 1654              		.loc 1 62 15 is_stmt 0 view .LVU551
 1655 0014 4FF48073 		mov	r3, #256
 1656 0018 6380     		strh	r3, [r4, #2]	@ movhi
  63:Middlewares/lvgl/src/draw/lv_draw_img.c **** }
 1657              		.loc 1 63 5 is_stmt 1 view .LVU552
  63:Middlewares/lvgl/src/draw/lv_draw_img.c **** }
 1658              		.loc 1 63 20 is_stmt 0 view .LVU553
 1659 001a 237D     		ldrb	r3, [r4, #20]	@ zero_extendqisi2
 1660 001c 43F00103 		orr	r3, r3, #1
 1661 0020 2375     		strb	r3, [r4, #20]
  64:Middlewares/lvgl/src/draw/lv_draw_img.c **** 
 1662              		.loc 1 64 1 view .LVU554
 1663 0022 10BD     		pop	{r4, pc}
  64:Middlewares/lvgl/src/draw/lv_draw_img.c **** 
 1664              		.loc 1 64 1 view .LVU555
 1665              		.cfi_endproc
 1666              	.LFE147:
 1668              		.section	.text.lv_img_cf_get_px_size,"ax",%progbits
 1669              		.align	1
 1670              		.global	lv_img_cf_get_px_size
 1671              		.syntax unified
 1672              		.thumb
 1673              		.thumb_func
ARM GAS  /tmp/ccBZPfuw.s 			page 65


 1674              		.fpu fpv4-sp-d16
 1676              	lv_img_cf_get_px_size:
 1677              	.LVL174:
 1678              	.LFB149:
  99:Middlewares/lvgl/src/draw/lv_draw_img.c ****     uint8_t px_size = 0;
 1679              		.loc 1 99 1 is_stmt 1 view -0
 1680              		.cfi_startproc
 1681              		@ args = 0, pretend = 0, frame = 0
 1682              		@ frame_needed = 0, uses_anonymous_args = 0
 1683              		@ link register save eliminated.
 100:Middlewares/lvgl/src/draw/lv_draw_img.c **** 
 1684              		.loc 1 100 5 view .LVU557
 102:Middlewares/lvgl/src/draw/lv_draw_img.c ****         case LV_IMG_CF_UNKNOWN:
 1685              		.loc 1 102 5 view .LVU558
 1686 0000 0438     		subs	r0, r0, #4
 1687              	.LVL175:
 102:Middlewares/lvgl/src/draw/lv_draw_img.c ****         case LV_IMG_CF_UNKNOWN:
 1688              		.loc 1 102 5 is_stmt 0 view .LVU559
 1689 0002 0A28     		cmp	r0, #10
 1690 0004 07D8     		bhi	.L74
 1691 0006 DFE800F0 		tbb	[pc, r0]
 1692              	.L76:
 1693 000a 12       		.byte	(.L82-.L76)/2
 1694 000b 08       		.byte	(.L81-.L76)/2
 1695 000c 12       		.byte	(.L82-.L76)/2
 1696 000d 0A       		.byte	(.L79-.L76)/2
 1697 000e 0C       		.byte	(.L78-.L76)/2
 1698 000f 0E       		.byte	(.L77-.L76)/2
 1699 0010 10       		.byte	(.L75-.L76)/2
 1700 0011 0A       		.byte	(.L79-.L76)/2
 1701 0012 0C       		.byte	(.L78-.L76)/2
 1702 0013 0E       		.byte	(.L77-.L76)/2
 1703 0014 10       		.byte	(.L75-.L76)/2
 1704 0015 00       		.p2align 1
 1705              	.L74:
 124:Middlewares/lvgl/src/draw/lv_draw_img.c ****             break;
 1706              		.loc 1 124 21 view .LVU560
 1707 0016 0020     		movs	r0, #0
 1708 0018 7047     		bx	lr
 1709              	.L81:
 112:Middlewares/lvgl/src/draw/lv_draw_img.c ****             break;
 1710              		.loc 1 112 13 is_stmt 1 view .LVU561
 1711              	.LVL176:
 113:Middlewares/lvgl/src/draw/lv_draw_img.c ****         case LV_IMG_CF_INDEXED_1BIT:
 1712              		.loc 1 113 13 view .LVU562
 112:Middlewares/lvgl/src/draw/lv_draw_img.c ****             break;
 1713              		.loc 1 112 21 is_stmt 0 view .LVU563
 1714 001a 1820     		movs	r0, #24
 113:Middlewares/lvgl/src/draw/lv_draw_img.c ****         case LV_IMG_CF_INDEXED_1BIT:
 1715              		.loc 1 113 13 view .LVU564
 1716 001c 7047     		bx	lr
 1717              	.LVL177:
 1718              	.L79:
 116:Middlewares/lvgl/src/draw/lv_draw_img.c ****             break;
 1719              		.loc 1 116 13 is_stmt 1 view .LVU565
 117:Middlewares/lvgl/src/draw/lv_draw_img.c ****         case LV_IMG_CF_INDEXED_2BIT:
 1720              		.loc 1 117 13 view .LVU566
ARM GAS  /tmp/ccBZPfuw.s 			page 66


 116:Middlewares/lvgl/src/draw/lv_draw_img.c ****             break;
 1721              		.loc 1 116 21 is_stmt 0 view .LVU567
 1722 001e 0120     		movs	r0, #1
 117:Middlewares/lvgl/src/draw/lv_draw_img.c ****         case LV_IMG_CF_INDEXED_2BIT:
 1723              		.loc 1 117 13 view .LVU568
 1724 0020 7047     		bx	lr
 1725              	.LVL178:
 1726              	.L78:
 120:Middlewares/lvgl/src/draw/lv_draw_img.c ****             break;
 1727              		.loc 1 120 13 is_stmt 1 view .LVU569
 121:Middlewares/lvgl/src/draw/lv_draw_img.c ****         case LV_IMG_CF_INDEXED_4BIT:
 1728              		.loc 1 121 13 view .LVU570
 120:Middlewares/lvgl/src/draw/lv_draw_img.c ****             break;
 1729              		.loc 1 120 21 is_stmt 0 view .LVU571
 1730 0022 0220     		movs	r0, #2
 121:Middlewares/lvgl/src/draw/lv_draw_img.c ****         case LV_IMG_CF_INDEXED_4BIT:
 1731              		.loc 1 121 13 view .LVU572
 1732 0024 7047     		bx	lr
 1733              	.LVL179:
 1734              	.L77:
 124:Middlewares/lvgl/src/draw/lv_draw_img.c ****             break;
 1735              		.loc 1 124 13 is_stmt 1 view .LVU573
 125:Middlewares/lvgl/src/draw/lv_draw_img.c ****         case LV_IMG_CF_INDEXED_8BIT:
 1736              		.loc 1 125 13 view .LVU574
 124:Middlewares/lvgl/src/draw/lv_draw_img.c ****             break;
 1737              		.loc 1 124 21 is_stmt 0 view .LVU575
 1738 0026 0420     		movs	r0, #4
 125:Middlewares/lvgl/src/draw/lv_draw_img.c ****         case LV_IMG_CF_INDEXED_8BIT:
 1739              		.loc 1 125 13 view .LVU576
 1740 0028 7047     		bx	lr
