ARM GAS  /tmp/ccViN4Ah.s 			page 1


   1              		.cpu cortex-m4
   2              		.eabi_attribute 27, 1
   3              		.eabi_attribute 28, 1
   4              		.eabi_attribute 20, 1
   5              		.eabi_attribute 21, 1
   6              		.eabi_attribute 23, 3
   7              		.eabi_attribute 24, 1
   8              		.eabi_attribute 25, 1
   9              		.eabi_attribute 26, 1
  10              		.eabi_attribute 30, 1
  11              		.eabi_attribute 34, 1
  12              		.eabi_attribute 18, 4
  13              		.file	"lv_draw_blend.c"
  14              		.text
  15              	.Ltext0:
  16              		.cfi_sections	.debug_frame
  17              		.section	.text.map_blended,"ax",%progbits
  18              		.align	1
  19              		.arch armv7e-m
  20              		.syntax unified
  21              		.thumb
  22              		.thumb_func
  23              		.fpu fpv4-sp-d16
  25              	map_blended:
  26              	.LVL0:
  27              	.LFB154:
  28              		.file 1 "Middlewares/lvgl/src/draw/lv_draw_blend.c"
   1:Middlewares/lvgl/src/draw/lv_draw_blend.c **** /**
   2:Middlewares/lvgl/src/draw/lv_draw_blend.c ****  * @file lv_draw_blend.c
   3:Middlewares/lvgl/src/draw/lv_draw_blend.c ****  *
   4:Middlewares/lvgl/src/draw/lv_draw_blend.c ****  */
   5:Middlewares/lvgl/src/draw/lv_draw_blend.c **** 
   6:Middlewares/lvgl/src/draw/lv_draw_blend.c **** /*********************
   7:Middlewares/lvgl/src/draw/lv_draw_blend.c ****  *      INCLUDES
   8:Middlewares/lvgl/src/draw/lv_draw_blend.c ****  *********************/
   9:Middlewares/lvgl/src/draw/lv_draw_blend.c **** #include "lv_draw_blend.h"
  10:Middlewares/lvgl/src/draw/lv_draw_blend.c **** #include "lv_img_decoder.h"
  11:Middlewares/lvgl/src/draw/lv_draw_blend.c **** #include "../misc/lv_math.h"
  12:Middlewares/lvgl/src/draw/lv_draw_blend.c **** #include "../hal/lv_hal_disp.h"
  13:Middlewares/lvgl/src/draw/lv_draw_blend.c **** #include "../core/lv_refr.h"
  14:Middlewares/lvgl/src/draw/lv_draw_blend.c **** 
  15:Middlewares/lvgl/src/draw/lv_draw_blend.c **** #if LV_USE_GPU_NXP_PXP
  16:Middlewares/lvgl/src/draw/lv_draw_blend.c ****     #include "../gpu/lv_gpu_nxp_pxp.h"
  17:Middlewares/lvgl/src/draw/lv_draw_blend.c **** #elif LV_USE_GPU_NXP_VG_LITE
  18:Middlewares/lvgl/src/draw/lv_draw_blend.c ****     #include "../gpu/lv_gpu_nxp_vglite.h"
  19:Middlewares/lvgl/src/draw/lv_draw_blend.c **** #elif LV_USE_GPU_STM32_DMA2D
  20:Middlewares/lvgl/src/draw/lv_draw_blend.c ****     #include "../gpu/lv_gpu_stm32_dma2d.h"
  21:Middlewares/lvgl/src/draw/lv_draw_blend.c **** #endif
  22:Middlewares/lvgl/src/draw/lv_draw_blend.c **** 
  23:Middlewares/lvgl/src/draw/lv_draw_blend.c **** /*********************
  24:Middlewares/lvgl/src/draw/lv_draw_blend.c ****  *      DEFINES
  25:Middlewares/lvgl/src/draw/lv_draw_blend.c ****  *********************/
  26:Middlewares/lvgl/src/draw/lv_draw_blend.c **** #define GPU_SIZE_LIMIT      240
  27:Middlewares/lvgl/src/draw/lv_draw_blend.c **** 
  28:Middlewares/lvgl/src/draw/lv_draw_blend.c **** /**********************
  29:Middlewares/lvgl/src/draw/lv_draw_blend.c ****  *      TYPEDEFS
  30:Middlewares/lvgl/src/draw/lv_draw_blend.c ****  **********************/
ARM GAS  /tmp/ccViN4Ah.s 			page 2


  31:Middlewares/lvgl/src/draw/lv_draw_blend.c **** 
  32:Middlewares/lvgl/src/draw/lv_draw_blend.c **** /**********************
  33:Middlewares/lvgl/src/draw/lv_draw_blend.c ****  *  STATIC PROTOTYPES
  34:Middlewares/lvgl/src/draw/lv_draw_blend.c ****  **********************/
  35:Middlewares/lvgl/src/draw/lv_draw_blend.c **** 
  36:Middlewares/lvgl/src/draw/lv_draw_blend.c **** static void fill_set_px(const lv_area_t * disp_area, lv_color_t * disp_buf,  const lv_area_t * draw
  37:Middlewares/lvgl/src/draw/lv_draw_blend.c ****                         lv_color_t color, lv_opa_t opa,
  38:Middlewares/lvgl/src/draw/lv_draw_blend.c ****                         const lv_opa_t * mask, lv_draw_mask_res_t mask_res);
  39:Middlewares/lvgl/src/draw/lv_draw_blend.c **** 
  40:Middlewares/lvgl/src/draw/lv_draw_blend.c **** LV_ATTRIBUTE_FAST_MEM static void fill_normal(const lv_area_t * disp_area, lv_color_t * disp_buf,
  41:Middlewares/lvgl/src/draw/lv_draw_blend.c ****                                               const lv_area_t * draw_area,
  42:Middlewares/lvgl/src/draw/lv_draw_blend.c ****                                               lv_color_t color, lv_opa_t opa,
  43:Middlewares/lvgl/src/draw/lv_draw_blend.c ****                                               const lv_opa_t * mask, lv_draw_mask_res_t mask_res);
  44:Middlewares/lvgl/src/draw/lv_draw_blend.c **** 
  45:Middlewares/lvgl/src/draw/lv_draw_blend.c **** #if LV_DRAW_COMPLEX
  46:Middlewares/lvgl/src/draw/lv_draw_blend.c **** static void fill_blended(const lv_area_t * disp_area, lv_color_t * disp_buf,  const lv_area_t * dra
  47:Middlewares/lvgl/src/draw/lv_draw_blend.c ****                          lv_color_t color, lv_opa_t opa,
  48:Middlewares/lvgl/src/draw/lv_draw_blend.c ****                          const lv_opa_t * mask, lv_draw_mask_res_t mask_res, lv_blend_mode_t mode);
  49:Middlewares/lvgl/src/draw/lv_draw_blend.c **** #endif
  50:Middlewares/lvgl/src/draw/lv_draw_blend.c **** 
  51:Middlewares/lvgl/src/draw/lv_draw_blend.c **** static void map_set_px(const lv_area_t * disp_area, lv_color_t * disp_buf,  const lv_area_t * draw_
  52:Middlewares/lvgl/src/draw/lv_draw_blend.c ****                        const lv_area_t * map_area, const lv_color_t * map_buf, lv_opa_t opa,
  53:Middlewares/lvgl/src/draw/lv_draw_blend.c ****                        const lv_opa_t * mask, lv_draw_mask_res_t mask_res);
  54:Middlewares/lvgl/src/draw/lv_draw_blend.c **** 
  55:Middlewares/lvgl/src/draw/lv_draw_blend.c **** LV_ATTRIBUTE_FAST_MEM static void map_normal(const lv_area_t * disp_area, lv_color_t * disp_buf,
  56:Middlewares/lvgl/src/draw/lv_draw_blend.c ****                                              const lv_area_t * draw_area,
  57:Middlewares/lvgl/src/draw/lv_draw_blend.c ****                                              const lv_area_t * map_area, const lv_color_t * map_buf
  58:Middlewares/lvgl/src/draw/lv_draw_blend.c ****                                              const lv_opa_t * mask, lv_draw_mask_res_t mask_res);
  59:Middlewares/lvgl/src/draw/lv_draw_blend.c **** 
  60:Middlewares/lvgl/src/draw/lv_draw_blend.c **** #if LV_DRAW_COMPLEX
  61:Middlewares/lvgl/src/draw/lv_draw_blend.c **** static void map_blended(const lv_area_t * disp_area, lv_color_t * disp_buf,  const lv_area_t * draw
  62:Middlewares/lvgl/src/draw/lv_draw_blend.c ****                         const lv_area_t * map_area, const lv_color_t * map_buf, lv_opa_t opa,
  63:Middlewares/lvgl/src/draw/lv_draw_blend.c ****                         const lv_opa_t * mask, lv_draw_mask_res_t mask_res, lv_blend_mode_t mode);
  64:Middlewares/lvgl/src/draw/lv_draw_blend.c **** 
  65:Middlewares/lvgl/src/draw/lv_draw_blend.c **** static inline lv_color_t color_blend_true_color_additive(lv_color_t fg, lv_color_t bg, lv_opa_t opa
  66:Middlewares/lvgl/src/draw/lv_draw_blend.c **** static inline lv_color_t color_blend_true_color_subtractive(lv_color_t fg, lv_color_t bg, lv_opa_t 
  67:Middlewares/lvgl/src/draw/lv_draw_blend.c **** #endif
  68:Middlewares/lvgl/src/draw/lv_draw_blend.c **** 
  69:Middlewares/lvgl/src/draw/lv_draw_blend.c **** /**********************
  70:Middlewares/lvgl/src/draw/lv_draw_blend.c ****  *  STATIC VARIABLES
  71:Middlewares/lvgl/src/draw/lv_draw_blend.c ****  **********************/
  72:Middlewares/lvgl/src/draw/lv_draw_blend.c **** 
  73:Middlewares/lvgl/src/draw/lv_draw_blend.c **** /**********************
  74:Middlewares/lvgl/src/draw/lv_draw_blend.c ****  *      MACROS
  75:Middlewares/lvgl/src/draw/lv_draw_blend.c ****  **********************/
  76:Middlewares/lvgl/src/draw/lv_draw_blend.c **** 
  77:Middlewares/lvgl/src/draw/lv_draw_blend.c **** #define FILL_NORMAL_MASK_PX(out_x,  color)                                                         
  78:Middlewares/lvgl/src/draw/lv_draw_blend.c ****     if(*mask_tmp_x) {          \
  79:Middlewares/lvgl/src/draw/lv_draw_blend.c ****         if(*mask_tmp_x == LV_OPA_COVER) disp_buf_first[out_x] = color;                             
  80:Middlewares/lvgl/src/draw/lv_draw_blend.c ****         else disp_buf_first[out_x] = lv_color_mix(color, disp_buf_first[out_x], *mask_tmp_x);      
  81:Middlewares/lvgl/src/draw/lv_draw_blend.c ****     }                                                                                              
  82:Middlewares/lvgl/src/draw/lv_draw_blend.c ****     mask_tmp_x++;
  83:Middlewares/lvgl/src/draw/lv_draw_blend.c **** 
  84:Middlewares/lvgl/src/draw/lv_draw_blend.c **** #define FILL_NORMAL_MASK_PX_SCR_TRANSP(out_x,  color)                                              
  85:Middlewares/lvgl/src/draw/lv_draw_blend.c ****     if(*mask_tmp_x) {          \
  86:Middlewares/lvgl/src/draw/lv_draw_blend.c ****         if(*mask_tmp_x == LV_OPA_COVER) disp_buf_first[out_x] = color;                             
  87:Middlewares/lvgl/src/draw/lv_draw_blend.c ****         else if(disp->driver->screen_transp) lv_color_mix_with_alpha(disp_buf_first[out_x], disp_bu
ARM GAS  /tmp/ccViN4Ah.s 			page 3


  88:Middlewares/lvgl/src/draw/lv_draw_blend.c ****                                                                         color, *mask_tmp_x, &disp_b
  89:Middlewares/lvgl/src/draw/lv_draw_blend.c ****         else disp_buf_first[out_x] = lv_color_mix(color, disp_buf_first[out_x], *mask_tmp_x);      
  90:Middlewares/lvgl/src/draw/lv_draw_blend.c ****     }                                                                                              
  91:Middlewares/lvgl/src/draw/lv_draw_blend.c ****     mask_tmp_x++;
  92:Middlewares/lvgl/src/draw/lv_draw_blend.c **** 
  93:Middlewares/lvgl/src/draw/lv_draw_blend.c **** #define MAP_NORMAL_MASK_PX(x)                                                          \
  94:Middlewares/lvgl/src/draw/lv_draw_blend.c ****     if(*mask_tmp_x) {          \
  95:Middlewares/lvgl/src/draw/lv_draw_blend.c ****         if(*mask_tmp_x == LV_OPA_COVER) disp_buf_first[x] = map_buf_first[x];                      
  96:Middlewares/lvgl/src/draw/lv_draw_blend.c ****         else disp_buf_first[x] = lv_color_mix(map_buf_first[x], disp_buf_first[x], *mask_tmp_x);   
  97:Middlewares/lvgl/src/draw/lv_draw_blend.c ****     }                                                                                              
  98:Middlewares/lvgl/src/draw/lv_draw_blend.c ****     mask_tmp_x++;
  99:Middlewares/lvgl/src/draw/lv_draw_blend.c **** 
 100:Middlewares/lvgl/src/draw/lv_draw_blend.c **** #define MAP_NORMAL_MASK_PX_SCR_TRANSP(x)                        \
 101:Middlewares/lvgl/src/draw/lv_draw_blend.c ****     if(*mask_tmp_x) {          \
 102:Middlewares/lvgl/src/draw/lv_draw_blend.c ****         if(*mask_tmp_x == LV_OPA_COVER) disp_buf_first[x] = map_buf_first[x];                      
 103:Middlewares/lvgl/src/draw/lv_draw_blend.c ****         else if(disp->driver->screen_transp) lv_color_mix_with_alpha(disp_buf_first[x], disp_buf_fi
 104:Middlewares/lvgl/src/draw/lv_draw_blend.c ****                                                                         map_buf_first[x], *mask_tmp
 105:Middlewares/lvgl/src/draw/lv_draw_blend.c ****         else disp_buf_first[x] = lv_color_mix(map_buf_first[x], disp_buf_first[x], *mask_tmp_x);   
 106:Middlewares/lvgl/src/draw/lv_draw_blend.c ****     }                                                                                              
 107:Middlewares/lvgl/src/draw/lv_draw_blend.c ****     mask_tmp_x++;
 108:Middlewares/lvgl/src/draw/lv_draw_blend.c **** 
 109:Middlewares/lvgl/src/draw/lv_draw_blend.c **** /**********************
 110:Middlewares/lvgl/src/draw/lv_draw_blend.c ****  *   GLOBAL FUNCTIONS
 111:Middlewares/lvgl/src/draw/lv_draw_blend.c ****  **********************/
 112:Middlewares/lvgl/src/draw/lv_draw_blend.c **** 
 113:Middlewares/lvgl/src/draw/lv_draw_blend.c **** /**
 114:Middlewares/lvgl/src/draw/lv_draw_blend.c ****  * Fill and area in the display buffer.
 115:Middlewares/lvgl/src/draw/lv_draw_blend.c ****  * @param clip_area clip the fill to this area  (absolute coordinates)
 116:Middlewares/lvgl/src/draw/lv_draw_blend.c ****  * @param fill_area fill this area  (absolute coordinates) (should be clipped)
 117:Middlewares/lvgl/src/draw/lv_draw_blend.c ****  * @param color fill color
 118:Middlewares/lvgl/src/draw/lv_draw_blend.c ****  * @param mask a mask to apply on the fill (uint8_t array with 0x00..0xff values).
 119:Middlewares/lvgl/src/draw/lv_draw_blend.c ****  *             Relative to fill area but its width is truncated to clip area.
 120:Middlewares/lvgl/src/draw/lv_draw_blend.c ****  * @param mask_res LV_MASK_RES_COVER: the mask has only 0xff values (no mask),
 121:Middlewares/lvgl/src/draw/lv_draw_blend.c ****  *                 LV_MASK_RES_TRANSP: the mask has only 0x00 values (full transparent),
 122:Middlewares/lvgl/src/draw/lv_draw_blend.c ****  *                 LV_MASK_RES_CHANGED: the mask has mixed values
 123:Middlewares/lvgl/src/draw/lv_draw_blend.c ****  * @param opa overall opacity in 0x00..0xff range
 124:Middlewares/lvgl/src/draw/lv_draw_blend.c ****  * @param mode blend mode from `lv_blend_mode_t`
 125:Middlewares/lvgl/src/draw/lv_draw_blend.c ****  */
 126:Middlewares/lvgl/src/draw/lv_draw_blend.c **** LV_ATTRIBUTE_FAST_MEM void _lv_blend_fill(const lv_area_t * clip_area, const lv_area_t * fill_area,
 127:Middlewares/lvgl/src/draw/lv_draw_blend.c ****                                           lv_color_t color, lv_opa_t * mask, lv_draw_mask_res_t mas
 128:Middlewares/lvgl/src/draw/lv_draw_blend.c ****                                           lv_blend_mode_t mode)
 129:Middlewares/lvgl/src/draw/lv_draw_blend.c **** {
 130:Middlewares/lvgl/src/draw/lv_draw_blend.c ****     /*Do not draw transparent things*/
 131:Middlewares/lvgl/src/draw/lv_draw_blend.c ****     if(opa < LV_OPA_MIN) return;
 132:Middlewares/lvgl/src/draw/lv_draw_blend.c ****     if(mask_res == LV_DRAW_MASK_RES_TRANSP) return;
 133:Middlewares/lvgl/src/draw/lv_draw_blend.c **** 
 134:Middlewares/lvgl/src/draw/lv_draw_blend.c ****     lv_disp_t * disp = _lv_refr_get_disp_refreshing();
 135:Middlewares/lvgl/src/draw/lv_draw_blend.c ****     lv_disp_draw_buf_t * draw_buf = lv_disp_get_draw_buf(disp);
 136:Middlewares/lvgl/src/draw/lv_draw_blend.c ****     const lv_area_t * disp_area = &draw_buf->area;
 137:Middlewares/lvgl/src/draw/lv_draw_blend.c ****     lv_color_t * disp_buf = draw_buf->buf_act;
 138:Middlewares/lvgl/src/draw/lv_draw_blend.c **** 
 139:Middlewares/lvgl/src/draw/lv_draw_blend.c ****     if(disp->driver->gpu_wait_cb) disp->driver->gpu_wait_cb(disp->driver);
 140:Middlewares/lvgl/src/draw/lv_draw_blend.c **** 
 141:Middlewares/lvgl/src/draw/lv_draw_blend.c ****     /*Get clipped fill area which is the real draw area.
 142:Middlewares/lvgl/src/draw/lv_draw_blend.c ****      *It is always the same or inside `fill_area`*/
 143:Middlewares/lvgl/src/draw/lv_draw_blend.c ****     lv_area_t draw_area;
 144:Middlewares/lvgl/src/draw/lv_draw_blend.c ****     bool is_common;
ARM GAS  /tmp/ccViN4Ah.s 			page 4


 145:Middlewares/lvgl/src/draw/lv_draw_blend.c ****     is_common = _lv_area_intersect(&draw_area, clip_area, fill_area);
 146:Middlewares/lvgl/src/draw/lv_draw_blend.c ****     if(!is_common) return;
 147:Middlewares/lvgl/src/draw/lv_draw_blend.c **** 
 148:Middlewares/lvgl/src/draw/lv_draw_blend.c ****     /*Now `draw_area` has absolute coordinates.
 149:Middlewares/lvgl/src/draw/lv_draw_blend.c ****      *Make it relative to `disp_area` to simplify draw to `disp_buf`*/
 150:Middlewares/lvgl/src/draw/lv_draw_blend.c ****     draw_area.x1 -= disp_area->x1;
 151:Middlewares/lvgl/src/draw/lv_draw_blend.c ****     draw_area.y1 -= disp_area->y1;
 152:Middlewares/lvgl/src/draw/lv_draw_blend.c ****     draw_area.x2 -= disp_area->x1;
 153:Middlewares/lvgl/src/draw/lv_draw_blend.c ****     draw_area.y2 -= disp_area->y1;
 154:Middlewares/lvgl/src/draw/lv_draw_blend.c **** 
 155:Middlewares/lvgl/src/draw/lv_draw_blend.c ****     /*Round the values in the mask if anti-aliasing is disabled*/
 156:Middlewares/lvgl/src/draw/lv_draw_blend.c ****     if(mask && disp->driver->antialiasing == 0 && mask) {
 157:Middlewares/lvgl/src/draw/lv_draw_blend.c ****         int32_t mask_w = lv_area_get_width(&draw_area);
 158:Middlewares/lvgl/src/draw/lv_draw_blend.c ****         int32_t i;
 159:Middlewares/lvgl/src/draw/lv_draw_blend.c ****         for(i = 0; i < mask_w; i++)  mask[i] = mask[i] > 128 ? LV_OPA_COVER : LV_OPA_TRANSP;
 160:Middlewares/lvgl/src/draw/lv_draw_blend.c ****     }
 161:Middlewares/lvgl/src/draw/lv_draw_blend.c **** 
 162:Middlewares/lvgl/src/draw/lv_draw_blend.c ****     if(disp->driver->set_px_cb) {
 163:Middlewares/lvgl/src/draw/lv_draw_blend.c ****         fill_set_px(disp_area, disp_buf, &draw_area, color, opa, mask, mask_res);
 164:Middlewares/lvgl/src/draw/lv_draw_blend.c ****     }
 165:Middlewares/lvgl/src/draw/lv_draw_blend.c ****     else if(mode == LV_BLEND_MODE_NORMAL) {
 166:Middlewares/lvgl/src/draw/lv_draw_blend.c ****         fill_normal(disp_area, disp_buf, &draw_area, color, opa, mask, mask_res);
 167:Middlewares/lvgl/src/draw/lv_draw_blend.c ****     }
 168:Middlewares/lvgl/src/draw/lv_draw_blend.c **** #if LV_DRAW_COMPLEX
 169:Middlewares/lvgl/src/draw/lv_draw_blend.c ****     else {
 170:Middlewares/lvgl/src/draw/lv_draw_blend.c ****         fill_blended(disp_area, disp_buf, &draw_area, color, opa, mask, mask_res, mode);
 171:Middlewares/lvgl/src/draw/lv_draw_blend.c ****     }
 172:Middlewares/lvgl/src/draw/lv_draw_blend.c **** #endif
 173:Middlewares/lvgl/src/draw/lv_draw_blend.c **** }
 174:Middlewares/lvgl/src/draw/lv_draw_blend.c **** 
 175:Middlewares/lvgl/src/draw/lv_draw_blend.c **** /**
 176:Middlewares/lvgl/src/draw/lv_draw_blend.c ****  * Copy a map (image) to a display buffer.
 177:Middlewares/lvgl/src/draw/lv_draw_blend.c ****  * @param clip_area clip the map to this area (absolute coordinates)
 178:Middlewares/lvgl/src/draw/lv_draw_blend.c ****  * @param map_area area of the image  (absolute coordinates)
 179:Middlewares/lvgl/src/draw/lv_draw_blend.c ****  * @param map_buf a pixels of the map (image)
 180:Middlewares/lvgl/src/draw/lv_draw_blend.c ****  * @param mask a mask to apply on every pixel (uint8_t array with 0x00..0xff values).
 181:Middlewares/lvgl/src/draw/lv_draw_blend.c ****  *                Relative to map area but its width is truncated to clip area.
 182:Middlewares/lvgl/src/draw/lv_draw_blend.c ****  * @param mask_res LV_MASK_RES_COVER: the mask has only 0xff values (no mask),
 183:Middlewares/lvgl/src/draw/lv_draw_blend.c ****  *                 LV_MASK_RES_TRANSP: the mask has only 0x00 values (full transparent),
 184:Middlewares/lvgl/src/draw/lv_draw_blend.c ****  *                 LV_MASK_RES_CHANGED: the mask has mixed values
 185:Middlewares/lvgl/src/draw/lv_draw_blend.c ****  * @param opa  overall opacity in 0x00..0xff range
 186:Middlewares/lvgl/src/draw/lv_draw_blend.c ****  * @param mode blend mode from `lv_blend_mode_t`
 187:Middlewares/lvgl/src/draw/lv_draw_blend.c ****  */
 188:Middlewares/lvgl/src/draw/lv_draw_blend.c **** LV_ATTRIBUTE_FAST_MEM void _lv_blend_map(const lv_area_t * clip_area, const lv_area_t * map_area,
 189:Middlewares/lvgl/src/draw/lv_draw_blend.c ****                                          const lv_color_t * map_buf,
 190:Middlewares/lvgl/src/draw/lv_draw_blend.c ****                                          lv_opa_t * mask, lv_draw_mask_res_t mask_res,
 191:Middlewares/lvgl/src/draw/lv_draw_blend.c ****                                          lv_opa_t opa, lv_blend_mode_t mode)
 192:Middlewares/lvgl/src/draw/lv_draw_blend.c **** {
 193:Middlewares/lvgl/src/draw/lv_draw_blend.c ****     /*Do not draw transparent things*/
 194:Middlewares/lvgl/src/draw/lv_draw_blend.c ****     if(opa < LV_OPA_MIN) return;
 195:Middlewares/lvgl/src/draw/lv_draw_blend.c ****     if(mask_res == LV_DRAW_MASK_RES_TRANSP) return;
 196:Middlewares/lvgl/src/draw/lv_draw_blend.c **** 
 197:Middlewares/lvgl/src/draw/lv_draw_blend.c ****     /*Get clipped fill area which is the real draw area.
 198:Middlewares/lvgl/src/draw/lv_draw_blend.c ****      *It is always the same or inside `fill_area`*/
 199:Middlewares/lvgl/src/draw/lv_draw_blend.c ****     lv_area_t draw_area;
 200:Middlewares/lvgl/src/draw/lv_draw_blend.c ****     bool is_common;
 201:Middlewares/lvgl/src/draw/lv_draw_blend.c ****     is_common = _lv_area_intersect(&draw_area, clip_area, map_area);
ARM GAS  /tmp/ccViN4Ah.s 			page 5


 202:Middlewares/lvgl/src/draw/lv_draw_blend.c ****     if(!is_common) return;
 203:Middlewares/lvgl/src/draw/lv_draw_blend.c **** 
 204:Middlewares/lvgl/src/draw/lv_draw_blend.c ****     lv_disp_t * disp = _lv_refr_get_disp_refreshing();
 205:Middlewares/lvgl/src/draw/lv_draw_blend.c ****     lv_disp_draw_buf_t * draw_buf = lv_disp_get_draw_buf(disp);
 206:Middlewares/lvgl/src/draw/lv_draw_blend.c ****     const lv_area_t * disp_area = &draw_buf->area;
 207:Middlewares/lvgl/src/draw/lv_draw_blend.c ****     lv_color_t * disp_buf = draw_buf->buf_act;
 208:Middlewares/lvgl/src/draw/lv_draw_blend.c **** 
 209:Middlewares/lvgl/src/draw/lv_draw_blend.c ****     if(disp->driver->gpu_wait_cb) disp->driver->gpu_wait_cb(disp->driver);
 210:Middlewares/lvgl/src/draw/lv_draw_blend.c **** 
 211:Middlewares/lvgl/src/draw/lv_draw_blend.c ****     /*Now `draw_area` has absolute coordinates.
 212:Middlewares/lvgl/src/draw/lv_draw_blend.c ****      *Make it relative to `disp_area` to simplify draw to `disp_buf`*/
 213:Middlewares/lvgl/src/draw/lv_draw_blend.c ****     draw_area.x1 -= disp_area->x1;
 214:Middlewares/lvgl/src/draw/lv_draw_blend.c ****     draw_area.y1 -= disp_area->y1;
 215:Middlewares/lvgl/src/draw/lv_draw_blend.c ****     draw_area.x2 -= disp_area->x1;
 216:Middlewares/lvgl/src/draw/lv_draw_blend.c ****     draw_area.y2 -= disp_area->y1;
 217:Middlewares/lvgl/src/draw/lv_draw_blend.c **** 
 218:Middlewares/lvgl/src/draw/lv_draw_blend.c ****     /*Round the values in the mask if anti-aliasing is disabled*/
 219:Middlewares/lvgl/src/draw/lv_draw_blend.c ****     if(mask && disp->driver->antialiasing == 0)
 220:Middlewares/lvgl/src/draw/lv_draw_blend.c ****     {
 221:Middlewares/lvgl/src/draw/lv_draw_blend.c ****         int32_t mask_w = lv_area_get_width(&draw_area);
 222:Middlewares/lvgl/src/draw/lv_draw_blend.c ****         int32_t i;
 223:Middlewares/lvgl/src/draw/lv_draw_blend.c ****         for(i = 0; i < mask_w; i++)  mask[i] = mask[i] > 128 ? LV_OPA_COVER : LV_OPA_TRANSP;
 224:Middlewares/lvgl/src/draw/lv_draw_blend.c ****     }
 225:Middlewares/lvgl/src/draw/lv_draw_blend.c ****     if(disp->driver->set_px_cb) {
 226:Middlewares/lvgl/src/draw/lv_draw_blend.c ****         map_set_px(disp_area, disp_buf, &draw_area, map_area, map_buf, opa, mask, mask_res);
 227:Middlewares/lvgl/src/draw/lv_draw_blend.c ****     }
 228:Middlewares/lvgl/src/draw/lv_draw_blend.c ****     else if(mode == LV_BLEND_MODE_NORMAL) {
 229:Middlewares/lvgl/src/draw/lv_draw_blend.c ****         map_normal(disp_area, disp_buf, &draw_area, map_area, map_buf, opa, mask, mask_res);
 230:Middlewares/lvgl/src/draw/lv_draw_blend.c ****     }
 231:Middlewares/lvgl/src/draw/lv_draw_blend.c **** #if LV_DRAW_COMPLEX
 232:Middlewares/lvgl/src/draw/lv_draw_blend.c ****     else {
 233:Middlewares/lvgl/src/draw/lv_draw_blend.c ****         map_blended(disp_area, disp_buf, &draw_area, map_area, map_buf, opa, mask, mask_res, mode);
 234:Middlewares/lvgl/src/draw/lv_draw_blend.c ****     }
 235:Middlewares/lvgl/src/draw/lv_draw_blend.c **** #endif
 236:Middlewares/lvgl/src/draw/lv_draw_blend.c **** }
 237:Middlewares/lvgl/src/draw/lv_draw_blend.c **** 
 238:Middlewares/lvgl/src/draw/lv_draw_blend.c **** /**********************
 239:Middlewares/lvgl/src/draw/lv_draw_blend.c ****  *   STATIC FUNCTIONS
 240:Middlewares/lvgl/src/draw/lv_draw_blend.c ****  **********************/
 241:Middlewares/lvgl/src/draw/lv_draw_blend.c **** 
 242:Middlewares/lvgl/src/draw/lv_draw_blend.c **** static void fill_set_px(const lv_area_t * disp_area, lv_color_t * disp_buf,  const lv_area_t * draw
 243:Middlewares/lvgl/src/draw/lv_draw_blend.c ****                         lv_color_t color, lv_opa_t opa,
 244:Middlewares/lvgl/src/draw/lv_draw_blend.c ****                         const lv_opa_t * mask, lv_draw_mask_res_t mask_res)
 245:Middlewares/lvgl/src/draw/lv_draw_blend.c **** {
 246:Middlewares/lvgl/src/draw/lv_draw_blend.c **** 
 247:Middlewares/lvgl/src/draw/lv_draw_blend.c ****     lv_disp_t * disp = _lv_refr_get_disp_refreshing();
 248:Middlewares/lvgl/src/draw/lv_draw_blend.c **** 
 249:Middlewares/lvgl/src/draw/lv_draw_blend.c ****     /*Get the width of the `disp_area` it will be used to go to the next line*/
 250:Middlewares/lvgl/src/draw/lv_draw_blend.c ****     int32_t disp_w = lv_area_get_width(disp_area);
 251:Middlewares/lvgl/src/draw/lv_draw_blend.c **** 
 252:Middlewares/lvgl/src/draw/lv_draw_blend.c ****     int32_t x;
 253:Middlewares/lvgl/src/draw/lv_draw_blend.c ****     int32_t y;
 254:Middlewares/lvgl/src/draw/lv_draw_blend.c **** 
 255:Middlewares/lvgl/src/draw/lv_draw_blend.c ****     if(mask_res == LV_DRAW_MASK_RES_FULL_COVER) {
 256:Middlewares/lvgl/src/draw/lv_draw_blend.c ****         for(y = draw_area->y1; y <= draw_area->y2; y++) {
 257:Middlewares/lvgl/src/draw/lv_draw_blend.c ****             for(x = draw_area->x1; x <= draw_area->x2; x++) {
 258:Middlewares/lvgl/src/draw/lv_draw_blend.c ****                 disp->driver->set_px_cb(disp->driver, (void *)disp_buf, disp_w, x, y, color, opa);
ARM GAS  /tmp/ccViN4Ah.s 			page 6


 259:Middlewares/lvgl/src/draw/lv_draw_blend.c ****             }
 260:Middlewares/lvgl/src/draw/lv_draw_blend.c ****         }
 261:Middlewares/lvgl/src/draw/lv_draw_blend.c ****     }
 262:Middlewares/lvgl/src/draw/lv_draw_blend.c ****     else {
 263:Middlewares/lvgl/src/draw/lv_draw_blend.c ****         /*The mask is relative to the clipped area.
 264:Middlewares/lvgl/src/draw/lv_draw_blend.c ****          *In the cycles below mask will be indexed from `draw_area.x1`
 265:Middlewares/lvgl/src/draw/lv_draw_blend.c ****          *but it corresponds to zero index. So prepare `mask_tmp` accordingly.*/
 266:Middlewares/lvgl/src/draw/lv_draw_blend.c ****         const lv_opa_t * mask_tmp = mask - draw_area->x1;
 267:Middlewares/lvgl/src/draw/lv_draw_blend.c **** 
 268:Middlewares/lvgl/src/draw/lv_draw_blend.c ****         /*Get the width of the `draw_area` it will be used to go to the next line of the mask*/
 269:Middlewares/lvgl/src/draw/lv_draw_blend.c ****         int32_t draw_area_w = lv_area_get_width(draw_area);
 270:Middlewares/lvgl/src/draw/lv_draw_blend.c **** 
 271:Middlewares/lvgl/src/draw/lv_draw_blend.c ****         for(y = draw_area->y1; y <= draw_area->y2; y++) {
 272:Middlewares/lvgl/src/draw/lv_draw_blend.c ****             for(x = draw_area->x1; x <= draw_area->x2; x++) {
 273:Middlewares/lvgl/src/draw/lv_draw_blend.c ****                 if(mask_tmp[x]) {
 274:Middlewares/lvgl/src/draw/lv_draw_blend.c ****                     disp->driver->set_px_cb(disp->driver, (void *)disp_buf, disp_w, x, y, color,
 275:Middlewares/lvgl/src/draw/lv_draw_blend.c ****                                            (uint32_t)((uint32_t)opa * mask_tmp[x]) >> 8);
 276:Middlewares/lvgl/src/draw/lv_draw_blend.c ****                 }
 277:Middlewares/lvgl/src/draw/lv_draw_blend.c ****             }
 278:Middlewares/lvgl/src/draw/lv_draw_blend.c ****             mask_tmp += draw_area_w;
 279:Middlewares/lvgl/src/draw/lv_draw_blend.c ****         }
 280:Middlewares/lvgl/src/draw/lv_draw_blend.c ****     }
 281:Middlewares/lvgl/src/draw/lv_draw_blend.c **** }
 282:Middlewares/lvgl/src/draw/lv_draw_blend.c **** 
 283:Middlewares/lvgl/src/draw/lv_draw_blend.c **** /**
 284:Middlewares/lvgl/src/draw/lv_draw_blend.c ****  * Fill an area with a color
 285:Middlewares/lvgl/src/draw/lv_draw_blend.c ****  * @param disp_area the current display area (destination area)
 286:Middlewares/lvgl/src/draw/lv_draw_blend.c ****  * @param disp_buf destination buffer
 287:Middlewares/lvgl/src/draw/lv_draw_blend.c ****  * @param draw_area fill this area (relative to `disp_area`)
 288:Middlewares/lvgl/src/draw/lv_draw_blend.c ****  * @param color fill color
 289:Middlewares/lvgl/src/draw/lv_draw_blend.c ****  * @param opa overall opacity in 0x00..0xff range
 290:Middlewares/lvgl/src/draw/lv_draw_blend.c ****  * @param mask a mask to apply on every pixel (uint8_t array with 0x00..0xff values).
 291:Middlewares/lvgl/src/draw/lv_draw_blend.c ****  *                It fits into draw_area.
 292:Middlewares/lvgl/src/draw/lv_draw_blend.c ****  * @param mask_res LV_MASK_RES_COVER: the mask has only 0xff values (no mask),
 293:Middlewares/lvgl/src/draw/lv_draw_blend.c ****  *                 LV_MASK_RES_TRANSP: the mask has only 0x00 values (full transparent),
 294:Middlewares/lvgl/src/draw/lv_draw_blend.c ****  *                 LV_MASK_RES_CHANGED: the mask has mixed values
 295:Middlewares/lvgl/src/draw/lv_draw_blend.c ****  */
 296:Middlewares/lvgl/src/draw/lv_draw_blend.c **** LV_ATTRIBUTE_FAST_MEM static void fill_normal(const lv_area_t * disp_area, lv_color_t * disp_buf,
 297:Middlewares/lvgl/src/draw/lv_draw_blend.c ****                                               const lv_area_t * draw_area,
 298:Middlewares/lvgl/src/draw/lv_draw_blend.c ****                                               lv_color_t color, lv_opa_t opa,
 299:Middlewares/lvgl/src/draw/lv_draw_blend.c ****                                               const lv_opa_t * mask, lv_draw_mask_res_t mask_res)
 300:Middlewares/lvgl/src/draw/lv_draw_blend.c **** {
 301:Middlewares/lvgl/src/draw/lv_draw_blend.c **** 
 302:Middlewares/lvgl/src/draw/lv_draw_blend.c ****     lv_disp_t * disp = _lv_refr_get_disp_refreshing();
 303:Middlewares/lvgl/src/draw/lv_draw_blend.c **** 
 304:Middlewares/lvgl/src/draw/lv_draw_blend.c ****     /*Get the width of the `disp_area` it will be used to go to the next line*/
 305:Middlewares/lvgl/src/draw/lv_draw_blend.c ****     int32_t disp_w = lv_area_get_width(disp_area);
 306:Middlewares/lvgl/src/draw/lv_draw_blend.c **** 
 307:Middlewares/lvgl/src/draw/lv_draw_blend.c ****     int32_t draw_area_w = lv_area_get_width(draw_area);
 308:Middlewares/lvgl/src/draw/lv_draw_blend.c ****     int32_t draw_area_h = lv_area_get_height(draw_area);
 309:Middlewares/lvgl/src/draw/lv_draw_blend.c **** 
 310:Middlewares/lvgl/src/draw/lv_draw_blend.c ****     /*Create a temp. disp_buf which always point to the first pixel of the destination area*/
 311:Middlewares/lvgl/src/draw/lv_draw_blend.c ****     lv_color_t * disp_buf_first = disp_buf + disp_w * draw_area->y1 + draw_area->x1;
 312:Middlewares/lvgl/src/draw/lv_draw_blend.c **** 
 313:Middlewares/lvgl/src/draw/lv_draw_blend.c ****     int32_t x;
 314:Middlewares/lvgl/src/draw/lv_draw_blend.c ****     int32_t y;
 315:Middlewares/lvgl/src/draw/lv_draw_blend.c **** 
ARM GAS  /tmp/ccViN4Ah.s 			page 7


 316:Middlewares/lvgl/src/draw/lv_draw_blend.c ****     /*Simple fill (maybe with opacity), no masking*/
 317:Middlewares/lvgl/src/draw/lv_draw_blend.c ****     if(mask_res == LV_DRAW_MASK_RES_FULL_COVER) {
 318:Middlewares/lvgl/src/draw/lv_draw_blend.c ****         if(opa > LV_OPA_MAX) {
 319:Middlewares/lvgl/src/draw/lv_draw_blend.c **** #if LV_USE_GPU_NXP_PXP
 320:Middlewares/lvgl/src/draw/lv_draw_blend.c ****             if(lv_area_get_size(draw_area) >= LV_GPU_NXP_PXP_FILL_SIZE_LIMIT) {
 321:Middlewares/lvgl/src/draw/lv_draw_blend.c ****                 lv_gpu_nxp_pxp_fill(disp_buf, disp_w, draw_area, color, opa);
 322:Middlewares/lvgl/src/draw/lv_draw_blend.c ****                 return;
 323:Middlewares/lvgl/src/draw/lv_draw_blend.c ****             }
 324:Middlewares/lvgl/src/draw/lv_draw_blend.c **** #elif LV_USE_GPU_NXP_VG_LITE
 325:Middlewares/lvgl/src/draw/lv_draw_blend.c ****             if(lv_area_get_size(draw_area) >= LV_GPU_NXP_VG_LITE_FILL_SIZE_LIMIT) {
 326:Middlewares/lvgl/src/draw/lv_draw_blend.c ****                 if(lv_gpu_nxp_vglite_fill(disp_buf, disp_w, lv_area_get_height(disp_area), draw_are
 327:Middlewares/lvgl/src/draw/lv_draw_blend.c ****                     return;
 328:Middlewares/lvgl/src/draw/lv_draw_blend.c ****                 }
 329:Middlewares/lvgl/src/draw/lv_draw_blend.c ****                 /*Fall down to SW render in case of error*/
 330:Middlewares/lvgl/src/draw/lv_draw_blend.c ****             }
 331:Middlewares/lvgl/src/draw/lv_draw_blend.c **** #elif LV_USE_GPU_STM32_DMA2D
 332:Middlewares/lvgl/src/draw/lv_draw_blend.c ****             if(lv_area_get_size(draw_area) >= 240) {
 333:Middlewares/lvgl/src/draw/lv_draw_blend.c ****                 lv_gpu_stm32_dma2d_fill(disp_buf_first, disp_w, color, draw_area_w, draw_area_h);
 334:Middlewares/lvgl/src/draw/lv_draw_blend.c ****                 return;
 335:Middlewares/lvgl/src/draw/lv_draw_blend.c ****             }
 336:Middlewares/lvgl/src/draw/lv_draw_blend.c **** #endif
 337:Middlewares/lvgl/src/draw/lv_draw_blend.c **** 
 338:Middlewares/lvgl/src/draw/lv_draw_blend.c ****             if(disp->driver->gpu_fill_cb && lv_area_get_size(draw_area) > GPU_SIZE_LIMIT) {
 339:Middlewares/lvgl/src/draw/lv_draw_blend.c ****                 disp->driver->gpu_fill_cb(disp->driver, disp_buf, disp_w, draw_area, color);
 340:Middlewares/lvgl/src/draw/lv_draw_blend.c ****                 return;
 341:Middlewares/lvgl/src/draw/lv_draw_blend.c ****             }
 342:Middlewares/lvgl/src/draw/lv_draw_blend.c **** 
 343:Middlewares/lvgl/src/draw/lv_draw_blend.c ****             /*Software rendering*/
 344:Middlewares/lvgl/src/draw/lv_draw_blend.c ****             for(y = 0; y < draw_area_h; y++) {
 345:Middlewares/lvgl/src/draw/lv_draw_blend.c ****                 lv_color_fill(disp_buf_first, color, draw_area_w);
 346:Middlewares/lvgl/src/draw/lv_draw_blend.c ****                 disp_buf_first += disp_w;
 347:Middlewares/lvgl/src/draw/lv_draw_blend.c ****             }
 348:Middlewares/lvgl/src/draw/lv_draw_blend.c ****         }
 349:Middlewares/lvgl/src/draw/lv_draw_blend.c ****         /*No mask with opacity*/
 350:Middlewares/lvgl/src/draw/lv_draw_blend.c ****         else {
 351:Middlewares/lvgl/src/draw/lv_draw_blend.c **** #if LV_USE_GPU_NXP_PXP
 352:Middlewares/lvgl/src/draw/lv_draw_blend.c ****             if(lv_area_get_size(draw_area) >= LV_GPU_NXP_PXP_FILL_OPA_SIZE_LIMIT) {
 353:Middlewares/lvgl/src/draw/lv_draw_blend.c ****                 lv_gpu_nxp_pxp_fill(disp_buf, disp_w, draw_area, color, opa);
 354:Middlewares/lvgl/src/draw/lv_draw_blend.c ****                 return;
 355:Middlewares/lvgl/src/draw/lv_draw_blend.c ****             }
 356:Middlewares/lvgl/src/draw/lv_draw_blend.c **** #elif LV_USE_GPU_NXP_VG_LITE
 357:Middlewares/lvgl/src/draw/lv_draw_blend.c ****             if(lv_area_get_size(draw_area) >= LV_GPU_NXP_VG_LITE_FILL_OPA_SIZE_LIMIT) {
 358:Middlewares/lvgl/src/draw/lv_draw_blend.c ****                 if(lv_gpu_nxp_vglite_fill(disp_buf, disp_w, lv_area_get_height(disp_area), draw_are
 359:Middlewares/lvgl/src/draw/lv_draw_blend.c ****                     return;
 360:Middlewares/lvgl/src/draw/lv_draw_blend.c ****                 }
 361:Middlewares/lvgl/src/draw/lv_draw_blend.c ****                 /*Fall down to SW render in case of error*/
 362:Middlewares/lvgl/src/draw/lv_draw_blend.c ****             }
 363:Middlewares/lvgl/src/draw/lv_draw_blend.c **** #endif
 364:Middlewares/lvgl/src/draw/lv_draw_blend.c ****             lv_color_t last_dest_color = lv_color_black();
 365:Middlewares/lvgl/src/draw/lv_draw_blend.c ****             lv_color_t last_res_color = lv_color_mix(color, last_dest_color, opa);
 366:Middlewares/lvgl/src/draw/lv_draw_blend.c **** 
 367:Middlewares/lvgl/src/draw/lv_draw_blend.c ****             uint16_t color_premult[3];
 368:Middlewares/lvgl/src/draw/lv_draw_blend.c ****             lv_color_premult(color, opa, color_premult);
 369:Middlewares/lvgl/src/draw/lv_draw_blend.c ****             lv_opa_t opa_inv = 255 - opa;
 370:Middlewares/lvgl/src/draw/lv_draw_blend.c **** 
 371:Middlewares/lvgl/src/draw/lv_draw_blend.c ****             for(y = 0; y < draw_area_h; y++) {
 372:Middlewares/lvgl/src/draw/lv_draw_blend.c ****                 for(x = 0; x < draw_area_w; x++) {
ARM GAS  /tmp/ccViN4Ah.s 			page 8


 373:Middlewares/lvgl/src/draw/lv_draw_blend.c ****                     if(last_dest_color.full != disp_buf_first[x].full) {
 374:Middlewares/lvgl/src/draw/lv_draw_blend.c ****                         last_dest_color = disp_buf_first[x];
 375:Middlewares/lvgl/src/draw/lv_draw_blend.c **** 
 376:Middlewares/lvgl/src/draw/lv_draw_blend.c **** #if LV_COLOR_SCREEN_TRANSP
 377:Middlewares/lvgl/src/draw/lv_draw_blend.c ****                         if(disp->driver->screen_transp) {
 378:Middlewares/lvgl/src/draw/lv_draw_blend.c ****                             lv_color_mix_with_alpha(disp_buf_first[x], disp_buf_first[x].ch.alpha, 
 379:Middlewares/lvgl/src/draw/lv_draw_blend.c ****                                                     &last_res_color.ch.alpha);
 380:Middlewares/lvgl/src/draw/lv_draw_blend.c ****                         }
 381:Middlewares/lvgl/src/draw/lv_draw_blend.c ****                         else
 382:Middlewares/lvgl/src/draw/lv_draw_blend.c **** #endif
 383:Middlewares/lvgl/src/draw/lv_draw_blend.c ****                         {
 384:Middlewares/lvgl/src/draw/lv_draw_blend.c ****                             last_res_color = lv_color_mix_premult(color_premult, disp_buf_first[x],
 385:Middlewares/lvgl/src/draw/lv_draw_blend.c ****                         }
 386:Middlewares/lvgl/src/draw/lv_draw_blend.c ****                     }
 387:Middlewares/lvgl/src/draw/lv_draw_blend.c ****                     disp_buf_first[x] = last_res_color;
 388:Middlewares/lvgl/src/draw/lv_draw_blend.c ****                 }
 389:Middlewares/lvgl/src/draw/lv_draw_blend.c ****                 disp_buf_first += disp_w;
 390:Middlewares/lvgl/src/draw/lv_draw_blend.c ****             }
 391:Middlewares/lvgl/src/draw/lv_draw_blend.c ****         }
 392:Middlewares/lvgl/src/draw/lv_draw_blend.c ****     }
 393:Middlewares/lvgl/src/draw/lv_draw_blend.c ****     /*Masked*/
 394:Middlewares/lvgl/src/draw/lv_draw_blend.c ****     else {
 395:Middlewares/lvgl/src/draw/lv_draw_blend.c ****         /*Buffer the result color to avoid recalculating the same color*/
 396:Middlewares/lvgl/src/draw/lv_draw_blend.c ****         lv_color_t last_dest_color;
 397:Middlewares/lvgl/src/draw/lv_draw_blend.c ****         lv_color_t last_res_color;
 398:Middlewares/lvgl/src/draw/lv_draw_blend.c ****         lv_opa_t last_mask = LV_OPA_TRANSP;
 399:Middlewares/lvgl/src/draw/lv_draw_blend.c ****         last_dest_color.full = disp_buf_first[0].full;
 400:Middlewares/lvgl/src/draw/lv_draw_blend.c ****         last_res_color.full = disp_buf_first[0].full;
 401:Middlewares/lvgl/src/draw/lv_draw_blend.c **** 
 402:Middlewares/lvgl/src/draw/lv_draw_blend.c ****         int32_t x_end4 = draw_area_w - 4;
 403:Middlewares/lvgl/src/draw/lv_draw_blend.c **** 
 404:Middlewares/lvgl/src/draw/lv_draw_blend.c ****         /*Only the mask matters*/
 405:Middlewares/lvgl/src/draw/lv_draw_blend.c ****         if(opa > LV_OPA_MAX) {
 406:Middlewares/lvgl/src/draw/lv_draw_blend.c ****             for(y = 0; y < draw_area_h; y++) {
 407:Middlewares/lvgl/src/draw/lv_draw_blend.c ****                 const lv_opa_t * mask_tmp_x = mask;
 408:Middlewares/lvgl/src/draw/lv_draw_blend.c **** #if 0
 409:Middlewares/lvgl/src/draw/lv_draw_blend.c ****                 for(x = 0; x < draw_area_w; x++) {
 410:Middlewares/lvgl/src/draw/lv_draw_blend.c **** #if LV_COLOR_SCREEN_TRANSP
 411:Middlewares/lvgl/src/draw/lv_draw_blend.c ****                     FILL_NORMAL_MASK_PX_SCR_TRANSP(x, color)
 412:Middlewares/lvgl/src/draw/lv_draw_blend.c **** #else
 413:Middlewares/lvgl/src/draw/lv_draw_blend.c ****                     FILL_NORMAL_MASK_PX(x, color)
 414:Middlewares/lvgl/src/draw/lv_draw_blend.c **** #endif
 415:Middlewares/lvgl/src/draw/lv_draw_blend.c ****                 }
 416:Middlewares/lvgl/src/draw/lv_draw_blend.c **** #else
 417:Middlewares/lvgl/src/draw/lv_draw_blend.c ****                 for(x = 0; x < draw_area_w && ((lv_uintptr_t)mask_tmp_x & 0x3); x++) {
 418:Middlewares/lvgl/src/draw/lv_draw_blend.c **** #if LV_COLOR_SCREEN_TRANSP
 419:Middlewares/lvgl/src/draw/lv_draw_blend.c ****                     FILL_NORMAL_MASK_PX_SCR_TRANSP(x, color)
 420:Middlewares/lvgl/src/draw/lv_draw_blend.c **** #else
 421:Middlewares/lvgl/src/draw/lv_draw_blend.c ****                     FILL_NORMAL_MASK_PX(x, color)
 422:Middlewares/lvgl/src/draw/lv_draw_blend.c **** #endif
 423:Middlewares/lvgl/src/draw/lv_draw_blend.c ****                 }
 424:Middlewares/lvgl/src/draw/lv_draw_blend.c **** 
 425:Middlewares/lvgl/src/draw/lv_draw_blend.c ****                 uint32_t * mask32 = (uint32_t *)mask_tmp_x;
 426:Middlewares/lvgl/src/draw/lv_draw_blend.c ****                 for(; x <= x_end4; x += 4) {
 427:Middlewares/lvgl/src/draw/lv_draw_blend.c ****                     if(*mask32) {
 428:Middlewares/lvgl/src/draw/lv_draw_blend.c ****                         if((*mask32) == 0xFFFFFFFF) {
 429:Middlewares/lvgl/src/draw/lv_draw_blend.c ****                             disp_buf_first[x] = color;
ARM GAS  /tmp/ccViN4Ah.s 			page 9


 430:Middlewares/lvgl/src/draw/lv_draw_blend.c ****                             disp_buf_first[x + 1] = color;
 431:Middlewares/lvgl/src/draw/lv_draw_blend.c ****                             disp_buf_first[x + 2] = color;
 432:Middlewares/lvgl/src/draw/lv_draw_blend.c ****                             disp_buf_first[x + 3] = color;
 433:Middlewares/lvgl/src/draw/lv_draw_blend.c ****                         }
 434:Middlewares/lvgl/src/draw/lv_draw_blend.c ****                         else {
 435:Middlewares/lvgl/src/draw/lv_draw_blend.c ****                             mask_tmp_x = (const lv_opa_t *)mask32;
 436:Middlewares/lvgl/src/draw/lv_draw_blend.c **** #if LV_COLOR_SCREEN_TRANSP
 437:Middlewares/lvgl/src/draw/lv_draw_blend.c ****                             FILL_NORMAL_MASK_PX_SCR_TRANSP(x, color)
 438:Middlewares/lvgl/src/draw/lv_draw_blend.c ****                             FILL_NORMAL_MASK_PX_SCR_TRANSP(x + 1, color)
 439:Middlewares/lvgl/src/draw/lv_draw_blend.c ****                             FILL_NORMAL_MASK_PX_SCR_TRANSP(x + 2, color)
 440:Middlewares/lvgl/src/draw/lv_draw_blend.c ****                             FILL_NORMAL_MASK_PX_SCR_TRANSP(x + 3, color)
 441:Middlewares/lvgl/src/draw/lv_draw_blend.c **** #else
 442:Middlewares/lvgl/src/draw/lv_draw_blend.c ****                             FILL_NORMAL_MASK_PX(x, color)
 443:Middlewares/lvgl/src/draw/lv_draw_blend.c ****                             FILL_NORMAL_MASK_PX(x + 1, color)
 444:Middlewares/lvgl/src/draw/lv_draw_blend.c ****                             FILL_NORMAL_MASK_PX(x + 2, color)
 445:Middlewares/lvgl/src/draw/lv_draw_blend.c ****                             FILL_NORMAL_MASK_PX(x + 3, color)
 446:Middlewares/lvgl/src/draw/lv_draw_blend.c **** #endif
 447:Middlewares/lvgl/src/draw/lv_draw_blend.c ****                         }
 448:Middlewares/lvgl/src/draw/lv_draw_blend.c ****                     }
 449:Middlewares/lvgl/src/draw/lv_draw_blend.c ****                     mask32++;
 450:Middlewares/lvgl/src/draw/lv_draw_blend.c ****                 }
 451:Middlewares/lvgl/src/draw/lv_draw_blend.c **** 
 452:Middlewares/lvgl/src/draw/lv_draw_blend.c ****                 mask_tmp_x = (const lv_opa_t *)mask32;
 453:Middlewares/lvgl/src/draw/lv_draw_blend.c ****                 for(; x < draw_area_w ; x++) {
 454:Middlewares/lvgl/src/draw/lv_draw_blend.c **** #if LV_COLOR_SCREEN_TRANSP
 455:Middlewares/lvgl/src/draw/lv_draw_blend.c ****                     FILL_NORMAL_MASK_PX_SCR_TRANSP(x, color)
 456:Middlewares/lvgl/src/draw/lv_draw_blend.c **** #else
 457:Middlewares/lvgl/src/draw/lv_draw_blend.c ****                     FILL_NORMAL_MASK_PX(x, color)
 458:Middlewares/lvgl/src/draw/lv_draw_blend.c **** #endif
 459:Middlewares/lvgl/src/draw/lv_draw_blend.c ****                 }
 460:Middlewares/lvgl/src/draw/lv_draw_blend.c **** #endif
 461:Middlewares/lvgl/src/draw/lv_draw_blend.c ****                 disp_buf_first += disp_w;
 462:Middlewares/lvgl/src/draw/lv_draw_blend.c ****                 mask += draw_area_w;
 463:Middlewares/lvgl/src/draw/lv_draw_blend.c ****             }
 464:Middlewares/lvgl/src/draw/lv_draw_blend.c ****         }
 465:Middlewares/lvgl/src/draw/lv_draw_blend.c ****         /*Handle opa and mask values too*/
 466:Middlewares/lvgl/src/draw/lv_draw_blend.c ****         else {
 467:Middlewares/lvgl/src/draw/lv_draw_blend.c ****             lv_opa_t opa_tmp = LV_OPA_TRANSP;
 468:Middlewares/lvgl/src/draw/lv_draw_blend.c ****             for(y = draw_area->y1; y <= draw_area->y2; y++) {
 469:Middlewares/lvgl/src/draw/lv_draw_blend.c ****                 const lv_opa_t * mask_tmp_x = mask;
 470:Middlewares/lvgl/src/draw/lv_draw_blend.c ****                 for(x = 0; x < draw_area_w; x++) {
 471:Middlewares/lvgl/src/draw/lv_draw_blend.c ****                     if(*mask_tmp_x) {
 472:Middlewares/lvgl/src/draw/lv_draw_blend.c ****                         if(*mask_tmp_x != last_mask) opa_tmp = *mask_tmp_x == LV_OPA_COVER ? opa :
 473:Middlewares/lvgl/src/draw/lv_draw_blend.c ****                                                                    (uint32_t)((uint32_t)(*mask_tmp_
 474:Middlewares/lvgl/src/draw/lv_draw_blend.c ****                         if(*mask_tmp_x != last_mask || last_dest_color.full != disp_buf_first[x].fu
 475:Middlewares/lvgl/src/draw/lv_draw_blend.c **** #if LV_COLOR_SCREEN_TRANSP
 476:Middlewares/lvgl/src/draw/lv_draw_blend.c ****                             if(disp->driver->screen_transp) {
 477:Middlewares/lvgl/src/draw/lv_draw_blend.c ****                                 lv_color_mix_with_alpha(disp_buf_first[x], disp_buf_first[x].ch.alp
 478:Middlewares/lvgl/src/draw/lv_draw_blend.c ****                                                         &last_res_color.ch.alpha);
 479:Middlewares/lvgl/src/draw/lv_draw_blend.c ****                             }
 480:Middlewares/lvgl/src/draw/lv_draw_blend.c ****                             else
 481:Middlewares/lvgl/src/draw/lv_draw_blend.c **** #endif
 482:Middlewares/lvgl/src/draw/lv_draw_blend.c ****                             {
 483:Middlewares/lvgl/src/draw/lv_draw_blend.c ****                                 if(opa_tmp == LV_OPA_COVER) last_res_color = color;
 484:Middlewares/lvgl/src/draw/lv_draw_blend.c ****                                 else last_res_color = lv_color_mix(color, disp_buf_first[x], opa_tm
 485:Middlewares/lvgl/src/draw/lv_draw_blend.c ****                             }
 486:Middlewares/lvgl/src/draw/lv_draw_blend.c ****                             last_mask = *mask_tmp_x;
ARM GAS  /tmp/ccViN4Ah.s 			page 10


 487:Middlewares/lvgl/src/draw/lv_draw_blend.c ****                             last_dest_color.full = disp_buf_first[x].full;
 488:Middlewares/lvgl/src/draw/lv_draw_blend.c ****                         }
 489:Middlewares/lvgl/src/draw/lv_draw_blend.c ****                         disp_buf_first[x] = last_res_color;
 490:Middlewares/lvgl/src/draw/lv_draw_blend.c ****                     }
 491:Middlewares/lvgl/src/draw/lv_draw_blend.c ****                     mask_tmp_x++;
 492:Middlewares/lvgl/src/draw/lv_draw_blend.c ****                 }
 493:Middlewares/lvgl/src/draw/lv_draw_blend.c ****                 disp_buf_first += disp_w;
 494:Middlewares/lvgl/src/draw/lv_draw_blend.c ****                 mask += draw_area_w;
 495:Middlewares/lvgl/src/draw/lv_draw_blend.c ****             }
 496:Middlewares/lvgl/src/draw/lv_draw_blend.c ****         }
 497:Middlewares/lvgl/src/draw/lv_draw_blend.c ****     }
 498:Middlewares/lvgl/src/draw/lv_draw_blend.c **** }
 499:Middlewares/lvgl/src/draw/lv_draw_blend.c **** 
 500:Middlewares/lvgl/src/draw/lv_draw_blend.c **** #if LV_DRAW_COMPLEX
 501:Middlewares/lvgl/src/draw/lv_draw_blend.c **** /**
 502:Middlewares/lvgl/src/draw/lv_draw_blend.c ****  * Fill an area with a color but apply blending algorithms
 503:Middlewares/lvgl/src/draw/lv_draw_blend.c ****  * @param disp_area the current display area (destination area)
 504:Middlewares/lvgl/src/draw/lv_draw_blend.c ****  * @param disp_buf destination buffer
 505:Middlewares/lvgl/src/draw/lv_draw_blend.c ****  * @param draw_area fill this area (relative to `disp_area`)
 506:Middlewares/lvgl/src/draw/lv_draw_blend.c ****  * @param color fill color
 507:Middlewares/lvgl/src/draw/lv_draw_blend.c ****  * @param opa overall opacity in 0x00..0xff range
 508:Middlewares/lvgl/src/draw/lv_draw_blend.c ****  * @param mask a mask to apply on every pixel (uint8_t array with 0x00..0xff values).
 509:Middlewares/lvgl/src/draw/lv_draw_blend.c ****  *                It fits into draw_area.
 510:Middlewares/lvgl/src/draw/lv_draw_blend.c ****  * @param mask_res LV_MASK_RES_COVER: the mask has only 0xff values (no mask),
 511:Middlewares/lvgl/src/draw/lv_draw_blend.c ****  *                 LV_MASK_RES_TRANSP: the mask has only 0x00 values (full transparent),
 512:Middlewares/lvgl/src/draw/lv_draw_blend.c ****  *                 LV_MASK_RES_CHANGED: the mask has mixed values
 513:Middlewares/lvgl/src/draw/lv_draw_blend.c ****  * @param mode blend mode from `lv_blend_mode_t`
 514:Middlewares/lvgl/src/draw/lv_draw_blend.c ****  */
 515:Middlewares/lvgl/src/draw/lv_draw_blend.c **** static void fill_blended(const lv_area_t * disp_area, lv_color_t * disp_buf,  const lv_area_t * dra
 516:Middlewares/lvgl/src/draw/lv_draw_blend.c ****                          lv_color_t color, lv_opa_t opa,
 517:Middlewares/lvgl/src/draw/lv_draw_blend.c ****                          const lv_opa_t * mask, lv_draw_mask_res_t mask_res, lv_blend_mode_t mode)
 518:Middlewares/lvgl/src/draw/lv_draw_blend.c **** {
 519:Middlewares/lvgl/src/draw/lv_draw_blend.c ****     /*Get the width of the `disp_area` it will be used to go to the next line*/
 520:Middlewares/lvgl/src/draw/lv_draw_blend.c ****     int32_t disp_w = lv_area_get_width(disp_area);
 521:Middlewares/lvgl/src/draw/lv_draw_blend.c **** 
 522:Middlewares/lvgl/src/draw/lv_draw_blend.c ****     /*Create a temp. disp_buf which always point to current line to draw*/
 523:Middlewares/lvgl/src/draw/lv_draw_blend.c ****     lv_color_t * disp_buf_tmp = disp_buf + disp_w * draw_area->y1;
 524:Middlewares/lvgl/src/draw/lv_draw_blend.c **** 
 525:Middlewares/lvgl/src/draw/lv_draw_blend.c ****     lv_color_t (*blend_fp)(lv_color_t, lv_color_t, lv_opa_t);
 526:Middlewares/lvgl/src/draw/lv_draw_blend.c ****     switch(mode) {
 527:Middlewares/lvgl/src/draw/lv_draw_blend.c ****         case LV_BLEND_MODE_ADDITIVE:
 528:Middlewares/lvgl/src/draw/lv_draw_blend.c ****             blend_fp = color_blend_true_color_additive;
 529:Middlewares/lvgl/src/draw/lv_draw_blend.c ****             break;
 530:Middlewares/lvgl/src/draw/lv_draw_blend.c ****         case LV_BLEND_MODE_SUBTRACTIVE:
 531:Middlewares/lvgl/src/draw/lv_draw_blend.c ****             blend_fp = color_blend_true_color_subtractive;
 532:Middlewares/lvgl/src/draw/lv_draw_blend.c ****             break;
 533:Middlewares/lvgl/src/draw/lv_draw_blend.c ****         default:
 534:Middlewares/lvgl/src/draw/lv_draw_blend.c ****             LV_LOG_WARN("fill_blended: unsupported blend mode");
 535:Middlewares/lvgl/src/draw/lv_draw_blend.c ****             return;
 536:Middlewares/lvgl/src/draw/lv_draw_blend.c ****     }
 537:Middlewares/lvgl/src/draw/lv_draw_blend.c **** 
 538:Middlewares/lvgl/src/draw/lv_draw_blend.c ****     int32_t x;
 539:Middlewares/lvgl/src/draw/lv_draw_blend.c ****     int32_t y;
 540:Middlewares/lvgl/src/draw/lv_draw_blend.c **** 
 541:Middlewares/lvgl/src/draw/lv_draw_blend.c ****     /*Simple fill (maybe with opacity), no masking*/
 542:Middlewares/lvgl/src/draw/lv_draw_blend.c ****     if(mask_res == LV_DRAW_MASK_RES_FULL_COVER) {
 543:Middlewares/lvgl/src/draw/lv_draw_blend.c ****         lv_color_t last_dest_color = lv_color_black();
ARM GAS  /tmp/ccViN4Ah.s 			page 11


 544:Middlewares/lvgl/src/draw/lv_draw_blend.c ****         lv_color_t last_res_color = lv_color_mix(color, last_dest_color, opa);
 545:Middlewares/lvgl/src/draw/lv_draw_blend.c ****         for(y = draw_area->y1; y <= draw_area->y2; y++) {
 546:Middlewares/lvgl/src/draw/lv_draw_blend.c ****             for(x = draw_area->x1; x <= draw_area->x2; x++) {
 547:Middlewares/lvgl/src/draw/lv_draw_blend.c ****                 if(last_dest_color.full != disp_buf_tmp[x].full) {
 548:Middlewares/lvgl/src/draw/lv_draw_blend.c ****                     last_dest_color = disp_buf_tmp[x];
 549:Middlewares/lvgl/src/draw/lv_draw_blend.c ****                     last_res_color = blend_fp(color, disp_buf_tmp[x], opa);
 550:Middlewares/lvgl/src/draw/lv_draw_blend.c ****                 }
 551:Middlewares/lvgl/src/draw/lv_draw_blend.c ****                 disp_buf_tmp[x] = last_res_color;
 552:Middlewares/lvgl/src/draw/lv_draw_blend.c ****             }
 553:Middlewares/lvgl/src/draw/lv_draw_blend.c ****             disp_buf_tmp += disp_w;
 554:Middlewares/lvgl/src/draw/lv_draw_blend.c ****         }
 555:Middlewares/lvgl/src/draw/lv_draw_blend.c ****     }
 556:Middlewares/lvgl/src/draw/lv_draw_blend.c ****     /*Masked*/
 557:Middlewares/lvgl/src/draw/lv_draw_blend.c ****     else {
 558:Middlewares/lvgl/src/draw/lv_draw_blend.c ****         /*Get the width of the `draw_area` it will be used to go to the next line of the mask*/
 559:Middlewares/lvgl/src/draw/lv_draw_blend.c ****         int32_t draw_area_w = lv_area_get_width(draw_area);
 560:Middlewares/lvgl/src/draw/lv_draw_blend.c **** 
 561:Middlewares/lvgl/src/draw/lv_draw_blend.c ****         /*The mask is relative to the clipped area.
 562:Middlewares/lvgl/src/draw/lv_draw_blend.c ****          *In the cycles below mask will be indexed from `draw_area.x1`
 563:Middlewares/lvgl/src/draw/lv_draw_blend.c ****          *but it corresponds to zero index. So prepare `mask_tmp` accordingly.*/
 564:Middlewares/lvgl/src/draw/lv_draw_blend.c ****         const lv_opa_t * mask_tmp = mask - draw_area->x1;
 565:Middlewares/lvgl/src/draw/lv_draw_blend.c **** 
 566:Middlewares/lvgl/src/draw/lv_draw_blend.c ****         /*Buffer the result color to avoid recalculating the same color*/
 567:Middlewares/lvgl/src/draw/lv_draw_blend.c ****         lv_color_t last_dest_color;
 568:Middlewares/lvgl/src/draw/lv_draw_blend.c ****         lv_color_t last_res_color;
 569:Middlewares/lvgl/src/draw/lv_draw_blend.c ****         lv_opa_t last_mask = LV_OPA_TRANSP;
 570:Middlewares/lvgl/src/draw/lv_draw_blend.c ****         last_dest_color.full = disp_buf_tmp[0].full;
 571:Middlewares/lvgl/src/draw/lv_draw_blend.c ****         last_res_color.full = disp_buf_tmp[0].full;
 572:Middlewares/lvgl/src/draw/lv_draw_blend.c **** 
 573:Middlewares/lvgl/src/draw/lv_draw_blend.c ****         for(y = draw_area->y1; y <= draw_area->y2; y++) {
 574:Middlewares/lvgl/src/draw/lv_draw_blend.c ****             for(x = draw_area->x1; x <= draw_area->x2; x++) {
 575:Middlewares/lvgl/src/draw/lv_draw_blend.c ****                 if(mask_tmp[x] == 0) continue;
 576:Middlewares/lvgl/src/draw/lv_draw_blend.c ****                 if(mask_tmp[x] != last_mask || last_dest_color.full != disp_buf_tmp[x].full) {
 577:Middlewares/lvgl/src/draw/lv_draw_blend.c ****                     lv_opa_t opa_tmp = mask_tmp[x] >= LV_OPA_MAX ? opa : (uint32_t)((uint32_t)mask_
 578:Middlewares/lvgl/src/draw/lv_draw_blend.c **** 
 579:Middlewares/lvgl/src/draw/lv_draw_blend.c ****                     last_res_color = blend_fp(color, disp_buf_tmp[x], opa_tmp);
 580:Middlewares/lvgl/src/draw/lv_draw_blend.c ****                     last_mask = mask_tmp[x];
 581:Middlewares/lvgl/src/draw/lv_draw_blend.c ****                     last_dest_color.full = disp_buf_tmp[x].full;
 582:Middlewares/lvgl/src/draw/lv_draw_blend.c ****                 }
 583:Middlewares/lvgl/src/draw/lv_draw_blend.c ****                 disp_buf_tmp[x] = last_res_color;
 584:Middlewares/lvgl/src/draw/lv_draw_blend.c ****             }
 585:Middlewares/lvgl/src/draw/lv_draw_blend.c ****             disp_buf_tmp += disp_w;
 586:Middlewares/lvgl/src/draw/lv_draw_blend.c ****             mask_tmp += draw_area_w;
 587:Middlewares/lvgl/src/draw/lv_draw_blend.c ****         }
 588:Middlewares/lvgl/src/draw/lv_draw_blend.c ****     }
 589:Middlewares/lvgl/src/draw/lv_draw_blend.c **** }
 590:Middlewares/lvgl/src/draw/lv_draw_blend.c **** #endif
 591:Middlewares/lvgl/src/draw/lv_draw_blend.c **** 
 592:Middlewares/lvgl/src/draw/lv_draw_blend.c **** static void map_set_px(const lv_area_t * disp_area, lv_color_t * disp_buf,  const lv_area_t * draw_
 593:Middlewares/lvgl/src/draw/lv_draw_blend.c ****                        const lv_area_t * map_area, const lv_color_t * map_buf, lv_opa_t opa,
 594:Middlewares/lvgl/src/draw/lv_draw_blend.c ****                        const lv_opa_t * mask, lv_draw_mask_res_t mask_res)
 595:Middlewares/lvgl/src/draw/lv_draw_blend.c **** 
 596:Middlewares/lvgl/src/draw/lv_draw_blend.c **** {
 597:Middlewares/lvgl/src/draw/lv_draw_blend.c ****     lv_disp_t * disp = _lv_refr_get_disp_refreshing();
 598:Middlewares/lvgl/src/draw/lv_draw_blend.c **** 
 599:Middlewares/lvgl/src/draw/lv_draw_blend.c ****     /*Get the width of the `disp_area` it will be used to go to the next line*/
 600:Middlewares/lvgl/src/draw/lv_draw_blend.c ****     int32_t disp_w = lv_area_get_width(disp_area);
ARM GAS  /tmp/ccViN4Ah.s 			page 12


 601:Middlewares/lvgl/src/draw/lv_draw_blend.c **** 
 602:Middlewares/lvgl/src/draw/lv_draw_blend.c ****     /*Get the width of the `draw_area` it will be used to go to the next line of the mask*/
 603:Middlewares/lvgl/src/draw/lv_draw_blend.c ****     int32_t draw_area_w = lv_area_get_width(draw_area);
 604:Middlewares/lvgl/src/draw/lv_draw_blend.c **** 
 605:Middlewares/lvgl/src/draw/lv_draw_blend.c ****     /*Get the width of the `mask_area` it will be used to go to the next line*/
 606:Middlewares/lvgl/src/draw/lv_draw_blend.c ****     int32_t map_w = lv_area_get_width(map_area);
 607:Middlewares/lvgl/src/draw/lv_draw_blend.c **** 
 608:Middlewares/lvgl/src/draw/lv_draw_blend.c ****     /*Create a temp. map_buf which always point to current line to draw*/
 609:Middlewares/lvgl/src/draw/lv_draw_blend.c ****     const lv_color_t * map_buf_tmp = map_buf + map_w * (draw_area->y1 - (map_area->y1 - disp_area->
 610:Middlewares/lvgl/src/draw/lv_draw_blend.c **** 
 611:Middlewares/lvgl/src/draw/lv_draw_blend.c ****     map_buf_tmp += (draw_area->x1 - (map_area->x1 - disp_area->x1));
 612:Middlewares/lvgl/src/draw/lv_draw_blend.c ****     map_buf_tmp -= draw_area->x1;
 613:Middlewares/lvgl/src/draw/lv_draw_blend.c ****     int32_t x;
 614:Middlewares/lvgl/src/draw/lv_draw_blend.c ****     int32_t y;
 615:Middlewares/lvgl/src/draw/lv_draw_blend.c **** 
 616:Middlewares/lvgl/src/draw/lv_draw_blend.c ****     if(mask_res == LV_DRAW_MASK_RES_FULL_COVER) {
 617:Middlewares/lvgl/src/draw/lv_draw_blend.c ****         for(y = draw_area->y1; y <= draw_area->y2; y++) {
 618:Middlewares/lvgl/src/draw/lv_draw_blend.c ****             for(x = draw_area->x1; x <= draw_area->x2; x++) {
 619:Middlewares/lvgl/src/draw/lv_draw_blend.c ****                 disp->driver->set_px_cb(disp->driver, (void *)disp_buf, disp_w, x, y, map_buf_tmp[x
 620:Middlewares/lvgl/src/draw/lv_draw_blend.c ****             }
 621:Middlewares/lvgl/src/draw/lv_draw_blend.c ****             map_buf_tmp += map_w;
 622:Middlewares/lvgl/src/draw/lv_draw_blend.c ****         }
 623:Middlewares/lvgl/src/draw/lv_draw_blend.c ****     }
 624:Middlewares/lvgl/src/draw/lv_draw_blend.c ****     else {
 625:Middlewares/lvgl/src/draw/lv_draw_blend.c ****         /*The mask is relative to the clipped area.
 626:Middlewares/lvgl/src/draw/lv_draw_blend.c ****          *In the cycles below mask will be indexed from `draw_area.x1`
 627:Middlewares/lvgl/src/draw/lv_draw_blend.c ****          *but it corresponds to zero index. So prepare `mask_tmp` accordingly.*/
 628:Middlewares/lvgl/src/draw/lv_draw_blend.c ****         const lv_opa_t * mask_tmp = mask - draw_area->x1;
 629:Middlewares/lvgl/src/draw/lv_draw_blend.c **** 
 630:Middlewares/lvgl/src/draw/lv_draw_blend.c ****         for(y = draw_area->y1; y <= draw_area->y2; y++) {
 631:Middlewares/lvgl/src/draw/lv_draw_blend.c ****             for(x = draw_area->x1; x <= draw_area->x2; x++) {
 632:Middlewares/lvgl/src/draw/lv_draw_blend.c ****                 if(mask_tmp[x]) {
 633:Middlewares/lvgl/src/draw/lv_draw_blend.c ****                     disp->driver->set_px_cb(disp->driver, (void *)disp_buf, disp_w, x, y, map_buf_t
 634:Middlewares/lvgl/src/draw/lv_draw_blend.c ****                                            (uint32_t)((uint32_t)opa * mask_tmp[x]) >> 8);
 635:Middlewares/lvgl/src/draw/lv_draw_blend.c ****                 }
 636:Middlewares/lvgl/src/draw/lv_draw_blend.c ****             }
 637:Middlewares/lvgl/src/draw/lv_draw_blend.c ****             mask_tmp += draw_area_w;
 638:Middlewares/lvgl/src/draw/lv_draw_blend.c ****             map_buf_tmp += map_w;
 639:Middlewares/lvgl/src/draw/lv_draw_blend.c ****         }
 640:Middlewares/lvgl/src/draw/lv_draw_blend.c ****     }
 641:Middlewares/lvgl/src/draw/lv_draw_blend.c **** }
 642:Middlewares/lvgl/src/draw/lv_draw_blend.c **** 
 643:Middlewares/lvgl/src/draw/lv_draw_blend.c **** /**
 644:Middlewares/lvgl/src/draw/lv_draw_blend.c ****  * Copy an image to an area
 645:Middlewares/lvgl/src/draw/lv_draw_blend.c ****  * @param disp_area the current display area (destination area)
 646:Middlewares/lvgl/src/draw/lv_draw_blend.c ****  * @param disp_buf destination buffer
 647:Middlewares/lvgl/src/draw/lv_draw_blend.c ****  * @param map_area coordinates of the map (image) to copy. (absolute coordinates)
 648:Middlewares/lvgl/src/draw/lv_draw_blend.c ****  * @param map_buf the pixel of the image
 649:Middlewares/lvgl/src/draw/lv_draw_blend.c ****  * @param opa overall opacity in 0x00..0xff range
 650:Middlewares/lvgl/src/draw/lv_draw_blend.c ****  * @param mask a mask to apply on every pixel (uint8_t array with 0x00..0xff values).
 651:Middlewares/lvgl/src/draw/lv_draw_blend.c ****  *                It fits into draw_area.
 652:Middlewares/lvgl/src/draw/lv_draw_blend.c ****  * @param mask_res LV_MASK_RES_COVER: the mask has only 0xff values (no mask),
 653:Middlewares/lvgl/src/draw/lv_draw_blend.c ****  *                 LV_MASK_RES_TRANSP: the mask has only 0x00 values (full transparent),
 654:Middlewares/lvgl/src/draw/lv_draw_blend.c ****  *                 LV_MASK_RES_CHANGED: the mask has mixed values
 655:Middlewares/lvgl/src/draw/lv_draw_blend.c ****  */
 656:Middlewares/lvgl/src/draw/lv_draw_blend.c **** LV_ATTRIBUTE_FAST_MEM static void map_normal(const lv_area_t * disp_area, lv_color_t * disp_buf,
 657:Middlewares/lvgl/src/draw/lv_draw_blend.c ****                                              const lv_area_t * draw_area,
ARM GAS  /tmp/ccViN4Ah.s 			page 13


 658:Middlewares/lvgl/src/draw/lv_draw_blend.c ****                                              const lv_area_t * map_area, const lv_color_t * map_buf
 659:Middlewares/lvgl/src/draw/lv_draw_blend.c ****                                              const lv_opa_t * mask, lv_draw_mask_res_t mask_res)
 660:Middlewares/lvgl/src/draw/lv_draw_blend.c **** {
 661:Middlewares/lvgl/src/draw/lv_draw_blend.c **** 
 662:Middlewares/lvgl/src/draw/lv_draw_blend.c ****     /*Get the width of the `disp_area` it will be used to go to the next line*/
 663:Middlewares/lvgl/src/draw/lv_draw_blend.c ****     int32_t disp_w = lv_area_get_width(disp_area);
 664:Middlewares/lvgl/src/draw/lv_draw_blend.c **** 
 665:Middlewares/lvgl/src/draw/lv_draw_blend.c ****     int32_t draw_area_w = lv_area_get_width(draw_area);
 666:Middlewares/lvgl/src/draw/lv_draw_blend.c ****     int32_t draw_area_h = lv_area_get_height(draw_area);
 667:Middlewares/lvgl/src/draw/lv_draw_blend.c **** 
 668:Middlewares/lvgl/src/draw/lv_draw_blend.c ****     /*Get the width of the `mask_area` it will be used to go to the next line*/
 669:Middlewares/lvgl/src/draw/lv_draw_blend.c ****     int32_t map_w = lv_area_get_width(map_area);
 670:Middlewares/lvgl/src/draw/lv_draw_blend.c **** 
 671:Middlewares/lvgl/src/draw/lv_draw_blend.c ****     /*Create a temp. disp_buf which always point to first pixel to draw*/
 672:Middlewares/lvgl/src/draw/lv_draw_blend.c ****     lv_color_t * disp_buf_first = disp_buf + disp_w * draw_area->y1 + draw_area->x1;
 673:Middlewares/lvgl/src/draw/lv_draw_blend.c **** 
 674:Middlewares/lvgl/src/draw/lv_draw_blend.c ****     /*Create a temp. map_buf which always point to first pixel to draw from the map*/
 675:Middlewares/lvgl/src/draw/lv_draw_blend.c ****     const lv_color_t * map_buf_first = map_buf + map_w * (draw_area->y1 - (map_area->y1 - disp_area
 676:Middlewares/lvgl/src/draw/lv_draw_blend.c ****     map_buf_first += (draw_area->x1 - (map_area->x1 - disp_area->x1));
 677:Middlewares/lvgl/src/draw/lv_draw_blend.c **** 
 678:Middlewares/lvgl/src/draw/lv_draw_blend.c **** #if LV_COLOR_SCREEN_TRANSP
 679:Middlewares/lvgl/src/draw/lv_draw_blend.c ****     lv_disp_t * disp = _lv_refr_get_disp_refreshing();
 680:Middlewares/lvgl/src/draw/lv_draw_blend.c **** #endif
 681:Middlewares/lvgl/src/draw/lv_draw_blend.c **** 
 682:Middlewares/lvgl/src/draw/lv_draw_blend.c ****     int32_t x;
 683:Middlewares/lvgl/src/draw/lv_draw_blend.c ****     int32_t y;
 684:Middlewares/lvgl/src/draw/lv_draw_blend.c **** 
 685:Middlewares/lvgl/src/draw/lv_draw_blend.c ****     /*Simple fill (maybe with opacity), no masking*/
 686:Middlewares/lvgl/src/draw/lv_draw_blend.c ****     if(mask_res == LV_DRAW_MASK_RES_FULL_COVER) {
 687:Middlewares/lvgl/src/draw/lv_draw_blend.c ****         if(opa > LV_OPA_MAX) {
 688:Middlewares/lvgl/src/draw/lv_draw_blend.c **** #if LV_USE_GPU_NXP_PXP
 689:Middlewares/lvgl/src/draw/lv_draw_blend.c ****             if(lv_area_get_size(draw_area) >= LV_GPU_NXP_PXP_BLIT_SIZE_LIMIT) {
 690:Middlewares/lvgl/src/draw/lv_draw_blend.c ****                 lv_gpu_nxp_pxp_blit(disp_buf_first, disp_w, map_buf_first, map_w, draw_area_w, draw
 691:Middlewares/lvgl/src/draw/lv_draw_blend.c ****                 return;
 692:Middlewares/lvgl/src/draw/lv_draw_blend.c ****             }
 693:Middlewares/lvgl/src/draw/lv_draw_blend.c **** #elif (LV_USE_GPU_NXP_VG_LITE)
 694:Middlewares/lvgl/src/draw/lv_draw_blend.c ****             if(lv_area_get_size(draw_area) >= LV_GPU_NXP_VG_LITE_BLIT_SIZE_LIMIT) {
 695:Middlewares/lvgl/src/draw/lv_draw_blend.c **** 
 696:Middlewares/lvgl/src/draw/lv_draw_blend.c ****                 lv_gpu_nxp_vglite_blit_info_t blit;
 697:Middlewares/lvgl/src/draw/lv_draw_blend.c **** 
 698:Middlewares/lvgl/src/draw/lv_draw_blend.c ****                 blit.src = map_buf;
 699:Middlewares/lvgl/src/draw/lv_draw_blend.c ****                 blit.src_width = draw_area_w;
 700:Middlewares/lvgl/src/draw/lv_draw_blend.c ****                 blit.src_height = draw_area_h;
 701:Middlewares/lvgl/src/draw/lv_draw_blend.c ****                 blit.src_stride = lv_area_get_width(map_area) * sizeof(lv_color_t);
 702:Middlewares/lvgl/src/draw/lv_draw_blend.c ****                 blit.src_area.x1 = (draw_area->x1 - (map_area->x1 - disp_area->x1));
 703:Middlewares/lvgl/src/draw/lv_draw_blend.c ****                 blit.src_area.y1 = (draw_area->y1 - (map_area->y1 - disp_area->y1));
 704:Middlewares/lvgl/src/draw/lv_draw_blend.c ****                 blit.src_area.x2 = blit.src_area.x1 + draw_area_w - 1;
 705:Middlewares/lvgl/src/draw/lv_draw_blend.c ****                 blit.src_area.y2 = blit.src_area.y1 + draw_area_h - 1;
 706:Middlewares/lvgl/src/draw/lv_draw_blend.c **** 
 707:Middlewares/lvgl/src/draw/lv_draw_blend.c ****                 blit.dst = disp_buf;
 708:Middlewares/lvgl/src/draw/lv_draw_blend.c ****                 blit.dst_width = lv_area_get_width(disp_area);
 709:Middlewares/lvgl/src/draw/lv_draw_blend.c ****                 blit.dst_height = lv_area_get_height(disp_area);
 710:Middlewares/lvgl/src/draw/lv_draw_blend.c ****                 blit.dst_stride = lv_area_get_width(disp_area) * sizeof(lv_color_t);
 711:Middlewares/lvgl/src/draw/lv_draw_blend.c ****                 blit.dst_area.x1 = draw_area->x1;
 712:Middlewares/lvgl/src/draw/lv_draw_blend.c ****                 blit.dst_area.y1 = draw_area->y1;
 713:Middlewares/lvgl/src/draw/lv_draw_blend.c ****                 blit.dst_area.x2 = blit.dst_area.x1 + draw_area_w - 1;
 714:Middlewares/lvgl/src/draw/lv_draw_blend.c ****                 blit.dst_area.y2 = blit.dst_area.y1 + draw_area_h - 1;
ARM GAS  /tmp/ccViN4Ah.s 			page 14


 715:Middlewares/lvgl/src/draw/lv_draw_blend.c **** 
 716:Middlewares/lvgl/src/draw/lv_draw_blend.c ****                 blit.opa = opa;
 717:Middlewares/lvgl/src/draw/lv_draw_blend.c **** 
 718:Middlewares/lvgl/src/draw/lv_draw_blend.c ****                 if(lv_gpu_nxp_vglite_blit(&blit) == LV_RES_OK) {
 719:Middlewares/lvgl/src/draw/lv_draw_blend.c ****                     return;
 720:Middlewares/lvgl/src/draw/lv_draw_blend.c ****                 }
 721:Middlewares/lvgl/src/draw/lv_draw_blend.c ****                 /*Fall down to SW render in case of error*/
 722:Middlewares/lvgl/src/draw/lv_draw_blend.c ****             }
 723:Middlewares/lvgl/src/draw/lv_draw_blend.c **** #elif LV_USE_GPU_STM32_DMA2D
 724:Middlewares/lvgl/src/draw/lv_draw_blend.c ****             if(lv_area_get_size(draw_area) >= 240) {
 725:Middlewares/lvgl/src/draw/lv_draw_blend.c ****                 lv_gpu_stm32_dma2d_copy(disp_buf_first, disp_w, map_buf_first, map_w, draw_area_w, 
 726:Middlewares/lvgl/src/draw/lv_draw_blend.c ****                 return;
 727:Middlewares/lvgl/src/draw/lv_draw_blend.c ****             }
 728:Middlewares/lvgl/src/draw/lv_draw_blend.c **** #endif
 729:Middlewares/lvgl/src/draw/lv_draw_blend.c **** 
 730:Middlewares/lvgl/src/draw/lv_draw_blend.c ****             /*Software rendering*/
 731:Middlewares/lvgl/src/draw/lv_draw_blend.c ****             for(y = 0; y < draw_area_h; y++) {
 732:Middlewares/lvgl/src/draw/lv_draw_blend.c ****                 lv_memcpy(disp_buf_first, map_buf_first, draw_area_w * sizeof(lv_color_t));
 733:Middlewares/lvgl/src/draw/lv_draw_blend.c ****                 disp_buf_first += disp_w;
 734:Middlewares/lvgl/src/draw/lv_draw_blend.c ****                 map_buf_first += map_w;
 735:Middlewares/lvgl/src/draw/lv_draw_blend.c ****             }
 736:Middlewares/lvgl/src/draw/lv_draw_blend.c ****         }
 737:Middlewares/lvgl/src/draw/lv_draw_blend.c ****         else {
 738:Middlewares/lvgl/src/draw/lv_draw_blend.c **** #if LV_USE_GPU_NXP_PXP
 739:Middlewares/lvgl/src/draw/lv_draw_blend.c ****             if(lv_area_get_size(draw_area) >= LV_GPU_NXP_PXP_BLIT_OPA_SIZE_LIMIT) {
 740:Middlewares/lvgl/src/draw/lv_draw_blend.c ****                 lv_gpu_nxp_pxp_blit(disp_buf_first, disp_w, map_buf_first, map_w, draw_area_w, draw
 741:Middlewares/lvgl/src/draw/lv_draw_blend.c ****                 return;
 742:Middlewares/lvgl/src/draw/lv_draw_blend.c ****             }
 743:Middlewares/lvgl/src/draw/lv_draw_blend.c **** #elif (LV_USE_GPU_NXP_VG_LITE)
 744:Middlewares/lvgl/src/draw/lv_draw_blend.c ****             if(lv_area_get_size(draw_area) >= LV_GPU_NXP_VG_LITE_BLIT_OPA_SIZE_LIMIT) {
 745:Middlewares/lvgl/src/draw/lv_draw_blend.c **** 
 746:Middlewares/lvgl/src/draw/lv_draw_blend.c ****                 lv_gpu_nxp_vglite_blit_info_t blit;
 747:Middlewares/lvgl/src/draw/lv_draw_blend.c **** 
 748:Middlewares/lvgl/src/draw/lv_draw_blend.c ****                 blit.src = map_buf;
 749:Middlewares/lvgl/src/draw/lv_draw_blend.c ****                 blit.src_width = lv_area_get_width(map_area);
 750:Middlewares/lvgl/src/draw/lv_draw_blend.c ****                 blit.src_height = lv_area_get_height(map_area);
 751:Middlewares/lvgl/src/draw/lv_draw_blend.c ****                 blit.src_stride = lv_area_get_width(map_area) * sizeof(lv_color_t);
 752:Middlewares/lvgl/src/draw/lv_draw_blend.c ****                 blit.src_area.x1 = (draw_area->x1 - (map_area->x1 - disp_area->x1));
 753:Middlewares/lvgl/src/draw/lv_draw_blend.c ****                 blit.src_area.y1 = (draw_area->y1 - (map_area->y1 - disp_area->y1));
 754:Middlewares/lvgl/src/draw/lv_draw_blend.c ****                 blit.src_area.x2 = blit.src_area.x1 + draw_area_w - 1;
 755:Middlewares/lvgl/src/draw/lv_draw_blend.c ****                 blit.src_area.y2 = blit.src_area.y1 + draw_area_h - 1;
 756:Middlewares/lvgl/src/draw/lv_draw_blend.c **** 
 757:Middlewares/lvgl/src/draw/lv_draw_blend.c ****                 blit.dst = disp_buf;
 758:Middlewares/lvgl/src/draw/lv_draw_blend.c ****                 blit.dst_width = lv_area_get_width(disp_area);
 759:Middlewares/lvgl/src/draw/lv_draw_blend.c ****                 blit.dst_height = lv_area_get_height(disp_area);
 760:Middlewares/lvgl/src/draw/lv_draw_blend.c ****                 blit.dst_stride = lv_area_get_width(disp_area) * sizeof(lv_color_t);
 761:Middlewares/lvgl/src/draw/lv_draw_blend.c ****                 blit.dst_area.x1 = draw_area->x1;
 762:Middlewares/lvgl/src/draw/lv_draw_blend.c ****                 blit.dst_area.y1 = draw_area->y1;
 763:Middlewares/lvgl/src/draw/lv_draw_blend.c ****                 blit.dst_area.x2 = blit.dst_area.x1 + draw_area_w - 1;
 764:Middlewares/lvgl/src/draw/lv_draw_blend.c ****                 blit.dst_area.y2 = blit.dst_area.y1 + draw_area_h - 1;
 765:Middlewares/lvgl/src/draw/lv_draw_blend.c **** 
 766:Middlewares/lvgl/src/draw/lv_draw_blend.c ****                 blit.opa = opa;
 767:Middlewares/lvgl/src/draw/lv_draw_blend.c **** 
 768:Middlewares/lvgl/src/draw/lv_draw_blend.c ****                 if(lv_gpu_nxp_vglite_blit(&blit) == LV_RES_OK) {
 769:Middlewares/lvgl/src/draw/lv_draw_blend.c ****                     return;
 770:Middlewares/lvgl/src/draw/lv_draw_blend.c ****                 }
 771:Middlewares/lvgl/src/draw/lv_draw_blend.c ****                 /*Fall down to SW render in case of error*/
ARM GAS  /tmp/ccViN4Ah.s 			page 15


 772:Middlewares/lvgl/src/draw/lv_draw_blend.c ****             }
 773:Middlewares/lvgl/src/draw/lv_draw_blend.c **** #elif LV_USE_GPU_STM32_DMA2D
 774:Middlewares/lvgl/src/draw/lv_draw_blend.c ****             if(lv_area_get_size(draw_area) >= 240) {
 775:Middlewares/lvgl/src/draw/lv_draw_blend.c ****                 lv_gpu_stm32_dma2d_blend(disp_buf_first, disp_w, map_buf_first, opa, map_w, draw_ar
 776:Middlewares/lvgl/src/draw/lv_draw_blend.c ****                 return;
 777:Middlewares/lvgl/src/draw/lv_draw_blend.c ****             }
 778:Middlewares/lvgl/src/draw/lv_draw_blend.c **** #endif
 779:Middlewares/lvgl/src/draw/lv_draw_blend.c **** 
 780:Middlewares/lvgl/src/draw/lv_draw_blend.c ****             /*Software rendering*/
 781:Middlewares/lvgl/src/draw/lv_draw_blend.c **** 
 782:Middlewares/lvgl/src/draw/lv_draw_blend.c ****             for(y = 0; y < draw_area_h; y++) {
 783:Middlewares/lvgl/src/draw/lv_draw_blend.c ****                 for(x = 0; x < draw_area_w; x++) {
 784:Middlewares/lvgl/src/draw/lv_draw_blend.c **** #if LV_COLOR_SCREEN_TRANSP
 785:Middlewares/lvgl/src/draw/lv_draw_blend.c ****                     if(disp->driver->screen_transp) {
 786:Middlewares/lvgl/src/draw/lv_draw_blend.c ****                         lv_color_mix_with_alpha(disp_buf_first[x], disp_buf_first[x].ch.alpha, map_
 787:Middlewares/lvgl/src/draw/lv_draw_blend.c ****                                                 &disp_buf_first[x].ch.alpha);
 788:Middlewares/lvgl/src/draw/lv_draw_blend.c ****                     }
 789:Middlewares/lvgl/src/draw/lv_draw_blend.c ****                     else
 790:Middlewares/lvgl/src/draw/lv_draw_blend.c **** #endif
 791:Middlewares/lvgl/src/draw/lv_draw_blend.c ****                     {
 792:Middlewares/lvgl/src/draw/lv_draw_blend.c ****                         disp_buf_first[x] = lv_color_mix(map_buf_first[x], disp_buf_first[x], opa);
 793:Middlewares/lvgl/src/draw/lv_draw_blend.c ****                     }
 794:Middlewares/lvgl/src/draw/lv_draw_blend.c ****                 }
 795:Middlewares/lvgl/src/draw/lv_draw_blend.c ****                 disp_buf_first += disp_w;
 796:Middlewares/lvgl/src/draw/lv_draw_blend.c ****                 map_buf_first += map_w;
 797:Middlewares/lvgl/src/draw/lv_draw_blend.c ****             }
 798:Middlewares/lvgl/src/draw/lv_draw_blend.c ****         }
 799:Middlewares/lvgl/src/draw/lv_draw_blend.c ****     }
 800:Middlewares/lvgl/src/draw/lv_draw_blend.c ****     /*Masked*/
 801:Middlewares/lvgl/src/draw/lv_draw_blend.c ****     else {
 802:Middlewares/lvgl/src/draw/lv_draw_blend.c ****         /*Only the mask matters*/
 803:Middlewares/lvgl/src/draw/lv_draw_blend.c ****         if(opa > LV_OPA_MAX) {
 804:Middlewares/lvgl/src/draw/lv_draw_blend.c ****             /*Go to the first pixel of the row*/
 805:Middlewares/lvgl/src/draw/lv_draw_blend.c **** 
 806:Middlewares/lvgl/src/draw/lv_draw_blend.c ****             int32_t x_end4 = draw_area_w - 4;
 807:Middlewares/lvgl/src/draw/lv_draw_blend.c **** 
 808:Middlewares/lvgl/src/draw/lv_draw_blend.c ****             for(y = 0; y < draw_area_h; y++) {
 809:Middlewares/lvgl/src/draw/lv_draw_blend.c ****                 const lv_opa_t * mask_tmp_x = mask;
 810:Middlewares/lvgl/src/draw/lv_draw_blend.c **** #if 0
 811:Middlewares/lvgl/src/draw/lv_draw_blend.c ****                 for(x = 0; x < draw_area_w; x++) {
 812:Middlewares/lvgl/src/draw/lv_draw_blend.c ****                     MAP_NORMAL_MASK_PX(x);
 813:Middlewares/lvgl/src/draw/lv_draw_blend.c ****                 }
 814:Middlewares/lvgl/src/draw/lv_draw_blend.c **** #else
 815:Middlewares/lvgl/src/draw/lv_draw_blend.c ****                 for(x = 0; x < draw_area_w && ((lv_uintptr_t)mask_tmp_x & 0x3); x++) {
 816:Middlewares/lvgl/src/draw/lv_draw_blend.c **** #if LV_COLOR_SCREEN_TRANSP
 817:Middlewares/lvgl/src/draw/lv_draw_blend.c ****                     MAP_NORMAL_MASK_PX_SCR_TRANSP(x)
 818:Middlewares/lvgl/src/draw/lv_draw_blend.c **** #else
 819:Middlewares/lvgl/src/draw/lv_draw_blend.c ****                     MAP_NORMAL_MASK_PX(x)
 820:Middlewares/lvgl/src/draw/lv_draw_blend.c **** #endif
 821:Middlewares/lvgl/src/draw/lv_draw_blend.c ****                 }
 822:Middlewares/lvgl/src/draw/lv_draw_blend.c **** 
 823:Middlewares/lvgl/src/draw/lv_draw_blend.c ****                 uint32_t * mask32 = (uint32_t *)mask_tmp_x;
 824:Middlewares/lvgl/src/draw/lv_draw_blend.c ****                 for(; x < x_end4; x += 4) {
 825:Middlewares/lvgl/src/draw/lv_draw_blend.c ****                     if(*mask32) {
 826:Middlewares/lvgl/src/draw/lv_draw_blend.c ****                         if((*mask32) == 0xFFFFFFFF) {
 827:Middlewares/lvgl/src/draw/lv_draw_blend.c ****                             disp_buf_first[x] = map_buf_first[x];
 828:Middlewares/lvgl/src/draw/lv_draw_blend.c ****                             disp_buf_first[x + 1] = map_buf_first[x + 1];
ARM GAS  /tmp/ccViN4Ah.s 			page 16


 829:Middlewares/lvgl/src/draw/lv_draw_blend.c ****                             disp_buf_first[x + 2] = map_buf_first[x + 2];
 830:Middlewares/lvgl/src/draw/lv_draw_blend.c ****                             disp_buf_first[x + 3] = map_buf_first[x + 3];
 831:Middlewares/lvgl/src/draw/lv_draw_blend.c ****                         }
 832:Middlewares/lvgl/src/draw/lv_draw_blend.c ****                         else {
 833:Middlewares/lvgl/src/draw/lv_draw_blend.c ****                             mask_tmp_x = (const lv_opa_t *)mask32;
 834:Middlewares/lvgl/src/draw/lv_draw_blend.c **** #if LV_COLOR_SCREEN_TRANSP
 835:Middlewares/lvgl/src/draw/lv_draw_blend.c ****                             MAP_NORMAL_MASK_PX_SCR_TRANSP(x)
 836:Middlewares/lvgl/src/draw/lv_draw_blend.c ****                             MAP_NORMAL_MASK_PX_SCR_TRANSP(x + 1)
 837:Middlewares/lvgl/src/draw/lv_draw_blend.c ****                             MAP_NORMAL_MASK_PX_SCR_TRANSP(x + 2)
 838:Middlewares/lvgl/src/draw/lv_draw_blend.c ****                             MAP_NORMAL_MASK_PX_SCR_TRANSP(x + 3)
 839:Middlewares/lvgl/src/draw/lv_draw_blend.c **** #else
 840:Middlewares/lvgl/src/draw/lv_draw_blend.c ****                             MAP_NORMAL_MASK_PX(x)
 841:Middlewares/lvgl/src/draw/lv_draw_blend.c ****                             MAP_NORMAL_MASK_PX(x + 1)
 842:Middlewares/lvgl/src/draw/lv_draw_blend.c ****                             MAP_NORMAL_MASK_PX(x + 2)
 843:Middlewares/lvgl/src/draw/lv_draw_blend.c ****                             MAP_NORMAL_MASK_PX(x + 3)
 844:Middlewares/lvgl/src/draw/lv_draw_blend.c **** #endif
 845:Middlewares/lvgl/src/draw/lv_draw_blend.c ****                         }
 846:Middlewares/lvgl/src/draw/lv_draw_blend.c ****                     }
 847:Middlewares/lvgl/src/draw/lv_draw_blend.c ****                     mask32++;
 848:Middlewares/lvgl/src/draw/lv_draw_blend.c ****                 }
 849:Middlewares/lvgl/src/draw/lv_draw_blend.c **** 
 850:Middlewares/lvgl/src/draw/lv_draw_blend.c ****                 mask_tmp_x = (const lv_opa_t *)mask32;
 851:Middlewares/lvgl/src/draw/lv_draw_blend.c ****                 for(; x < draw_area_w ; x++) {
 852:Middlewares/lvgl/src/draw/lv_draw_blend.c **** #if LV_COLOR_SCREEN_TRANSP
 853:Middlewares/lvgl/src/draw/lv_draw_blend.c ****                     MAP_NORMAL_MASK_PX_SCR_TRANSP(x)
 854:Middlewares/lvgl/src/draw/lv_draw_blend.c **** #else
 855:Middlewares/lvgl/src/draw/lv_draw_blend.c ****                     MAP_NORMAL_MASK_PX(x)
 856:Middlewares/lvgl/src/draw/lv_draw_blend.c **** #endif
 857:Middlewares/lvgl/src/draw/lv_draw_blend.c ****                 }
 858:Middlewares/lvgl/src/draw/lv_draw_blend.c **** #endif
 859:Middlewares/lvgl/src/draw/lv_draw_blend.c ****                 disp_buf_first += disp_w;
 860:Middlewares/lvgl/src/draw/lv_draw_blend.c ****                 mask += draw_area_w;
 861:Middlewares/lvgl/src/draw/lv_draw_blend.c ****                 map_buf_first += map_w;
 862:Middlewares/lvgl/src/draw/lv_draw_blend.c ****             }
 863:Middlewares/lvgl/src/draw/lv_draw_blend.c ****         }
 864:Middlewares/lvgl/src/draw/lv_draw_blend.c ****         /*Handle opa and mask values too*/
 865:Middlewares/lvgl/src/draw/lv_draw_blend.c ****         else {
 866:Middlewares/lvgl/src/draw/lv_draw_blend.c ****             for(y = 0; y < draw_area_h; y++) {
 867:Middlewares/lvgl/src/draw/lv_draw_blend.c ****                 for(x = 0; x < draw_area_w; x++) {
 868:Middlewares/lvgl/src/draw/lv_draw_blend.c ****                     if(mask[x]) {
 869:Middlewares/lvgl/src/draw/lv_draw_blend.c ****                         lv_opa_t opa_tmp = mask[x] >= LV_OPA_MAX ? opa : ((opa * mask[x]) >> 8);
 870:Middlewares/lvgl/src/draw/lv_draw_blend.c **** #if LV_COLOR_SCREEN_TRANSP
 871:Middlewares/lvgl/src/draw/lv_draw_blend.c ****                         if(disp->driver->screen_transp) {
 872:Middlewares/lvgl/src/draw/lv_draw_blend.c ****                             lv_color_mix_with_alpha(disp_buf_first[x], disp_buf_first[x].ch.alpha, 
 873:Middlewares/lvgl/src/draw/lv_draw_blend.c ****                                                     &disp_buf_first[x].ch.alpha);
 874:Middlewares/lvgl/src/draw/lv_draw_blend.c ****                         }
 875:Middlewares/lvgl/src/draw/lv_draw_blend.c ****                         else
 876:Middlewares/lvgl/src/draw/lv_draw_blend.c **** #endif
 877:Middlewares/lvgl/src/draw/lv_draw_blend.c ****                         {
 878:Middlewares/lvgl/src/draw/lv_draw_blend.c ****                             disp_buf_first[x] = lv_color_mix(map_buf_first[x], disp_buf_first[x], o
 879:Middlewares/lvgl/src/draw/lv_draw_blend.c ****                         }
 880:Middlewares/lvgl/src/draw/lv_draw_blend.c ****                     }
 881:Middlewares/lvgl/src/draw/lv_draw_blend.c ****                 }
 882:Middlewares/lvgl/src/draw/lv_draw_blend.c ****                 disp_buf_first += disp_w;
 883:Middlewares/lvgl/src/draw/lv_draw_blend.c ****                 mask += draw_area_w;
 884:Middlewares/lvgl/src/draw/lv_draw_blend.c ****                 map_buf_first += map_w;
 885:Middlewares/lvgl/src/draw/lv_draw_blend.c ****             }
ARM GAS  /tmp/ccViN4Ah.s 			page 17


 886:Middlewares/lvgl/src/draw/lv_draw_blend.c ****         }
 887:Middlewares/lvgl/src/draw/lv_draw_blend.c ****     }
 888:Middlewares/lvgl/src/draw/lv_draw_blend.c **** }
 889:Middlewares/lvgl/src/draw/lv_draw_blend.c **** #if LV_DRAW_COMPLEX
 890:Middlewares/lvgl/src/draw/lv_draw_blend.c **** static void map_blended(const lv_area_t * disp_area, lv_color_t * disp_buf,  const lv_area_t * draw
 891:Middlewares/lvgl/src/draw/lv_draw_blend.c ****                         const lv_area_t * map_area, const lv_color_t * map_buf, lv_opa_t opa,
 892:Middlewares/lvgl/src/draw/lv_draw_blend.c ****                         const lv_opa_t * mask, lv_draw_mask_res_t mask_res, lv_blend_mode_t mode)
 893:Middlewares/lvgl/src/draw/lv_draw_blend.c **** {
  29              		.loc 1 893 1 view -0
  30              		.cfi_startproc
  31              		@ args = 20, pretend = 0, frame = 16
  32              		@ frame_needed = 0, uses_anonymous_args = 0
  33              		.loc 1 893 1 is_stmt 0 view .LVU1
  34 0000 2DE9F04F 		push	{r4, r5, r6, r7, r8, r9, r10, fp, lr}
  35              	.LCFI0:
  36              		.cfi_def_cfa_offset 36
  37              		.cfi_offset 4, -36
  38              		.cfi_offset 5, -32
  39              		.cfi_offset 6, -28
  40              		.cfi_offset 7, -24
  41              		.cfi_offset 8, -20
  42              		.cfi_offset 9, -16
  43              		.cfi_offset 10, -12
  44              		.cfi_offset 11, -8
  45              		.cfi_offset 14, -4
  46 0004 85B0     		sub	sp, sp, #20
  47              	.LCFI1:
  48              		.cfi_def_cfa_offset 56
  49 0006 1746     		mov	r7, r2
  50 0008 9DF83CA0 		ldrb	r10, [sp, #60]	@ zero_extendqisi2
  51 000c 9DF848E0 		ldrb	lr, [sp, #72]	@ zero_extendqisi2
 894:Middlewares/lvgl/src/draw/lv_draw_blend.c **** 
 895:Middlewares/lvgl/src/draw/lv_draw_blend.c ****     /*Get the width of the `disp_area` it will be used to go to the next line*/
 896:Middlewares/lvgl/src/draw/lv_draw_blend.c ****     int32_t disp_w = lv_area_get_width(disp_area);
  52              		.loc 1 896 5 is_stmt 1 view .LVU2
  53              	.LVL1:
  54              	.LBB69:
  55              	.LBI69:
  56              		.file 2 "Middlewares/lvgl/src/draw/../misc/lv_area.h"
   1:Middlewares/lvgl/src/draw/../misc/lv_area.h **** /**
   2:Middlewares/lvgl/src/draw/../misc/lv_area.h ****  * @file lv_area.h
   3:Middlewares/lvgl/src/draw/../misc/lv_area.h ****  *
   4:Middlewares/lvgl/src/draw/../misc/lv_area.h ****  */
   5:Middlewares/lvgl/src/draw/../misc/lv_area.h **** 
   6:Middlewares/lvgl/src/draw/../misc/lv_area.h **** #ifndef LV_AREA_H
   7:Middlewares/lvgl/src/draw/../misc/lv_area.h **** #define LV_AREA_H
   8:Middlewares/lvgl/src/draw/../misc/lv_area.h **** 
   9:Middlewares/lvgl/src/draw/../misc/lv_area.h **** #ifdef __cplusplus
  10:Middlewares/lvgl/src/draw/../misc/lv_area.h **** extern "C" {
  11:Middlewares/lvgl/src/draw/../misc/lv_area.h **** #endif
  12:Middlewares/lvgl/src/draw/../misc/lv_area.h **** 
  13:Middlewares/lvgl/src/draw/../misc/lv_area.h **** /*********************
  14:Middlewares/lvgl/src/draw/../misc/lv_area.h ****  *      INCLUDES
  15:Middlewares/lvgl/src/draw/../misc/lv_area.h ****  *********************/
  16:Middlewares/lvgl/src/draw/../misc/lv_area.h **** #include "../lv_conf_internal.h"
  17:Middlewares/lvgl/src/draw/../misc/lv_area.h **** #include <string.h>
  18:Middlewares/lvgl/src/draw/../misc/lv_area.h **** #include <stdbool.h>
ARM GAS  /tmp/ccViN4Ah.s 			page 18


  19:Middlewares/lvgl/src/draw/../misc/lv_area.h **** #include <stdint.h>
  20:Middlewares/lvgl/src/draw/../misc/lv_area.h **** 
  21:Middlewares/lvgl/src/draw/../misc/lv_area.h **** /*********************
  22:Middlewares/lvgl/src/draw/../misc/lv_area.h ****  *      DEFINES
  23:Middlewares/lvgl/src/draw/../misc/lv_area.h ****  *********************/
  24:Middlewares/lvgl/src/draw/../misc/lv_area.h **** 
  25:Middlewares/lvgl/src/draw/../misc/lv_area.h **** #define _LV_COORD_MAX_REDUCE    8192
  26:Middlewares/lvgl/src/draw/../misc/lv_area.h **** 
  27:Middlewares/lvgl/src/draw/../misc/lv_area.h **** #if LV_USE_LARGE_COORD
  28:Middlewares/lvgl/src/draw/../misc/lv_area.h **** typedef int32_t lv_coord_t;
  29:Middlewares/lvgl/src/draw/../misc/lv_area.h **** #else
  30:Middlewares/lvgl/src/draw/../misc/lv_area.h **** typedef int16_t lv_coord_t;
  31:Middlewares/lvgl/src/draw/../misc/lv_area.h **** #endif
  32:Middlewares/lvgl/src/draw/../misc/lv_area.h **** 
  33:Middlewares/lvgl/src/draw/../misc/lv_area.h **** /*To allow some special values in the end reduce the max value*/
  34:Middlewares/lvgl/src/draw/../misc/lv_area.h **** #define LV_COORD_MAX ((lv_coord_t)((uint32_t)((uint32_t)1 << (8 * sizeof(lv_coord_t) - 1)) - _LV_CO
  35:Middlewares/lvgl/src/draw/../misc/lv_area.h **** #define LV_COORD_MIN (-LV_COORD_MAX)
  36:Middlewares/lvgl/src/draw/../misc/lv_area.h **** 
  37:Middlewares/lvgl/src/draw/../misc/lv_area.h **** LV_EXPORT_CONST_INT(LV_COORD_MAX);
  38:Middlewares/lvgl/src/draw/../misc/lv_area.h **** LV_EXPORT_CONST_INT(LV_COORD_MIN);
  39:Middlewares/lvgl/src/draw/../misc/lv_area.h **** 
  40:Middlewares/lvgl/src/draw/../misc/lv_area.h **** /**********************
  41:Middlewares/lvgl/src/draw/../misc/lv_area.h ****  *      TYPEDEFS
  42:Middlewares/lvgl/src/draw/../misc/lv_area.h ****  **********************/
  43:Middlewares/lvgl/src/draw/../misc/lv_area.h **** 
  44:Middlewares/lvgl/src/draw/../misc/lv_area.h **** /**
  45:Middlewares/lvgl/src/draw/../misc/lv_area.h ****  * Represents a point on the screen.
  46:Middlewares/lvgl/src/draw/../misc/lv_area.h ****  */
  47:Middlewares/lvgl/src/draw/../misc/lv_area.h **** typedef struct {
  48:Middlewares/lvgl/src/draw/../misc/lv_area.h ****     lv_coord_t x;
  49:Middlewares/lvgl/src/draw/../misc/lv_area.h ****     lv_coord_t y;
  50:Middlewares/lvgl/src/draw/../misc/lv_area.h **** } lv_point_t;
  51:Middlewares/lvgl/src/draw/../misc/lv_area.h **** 
  52:Middlewares/lvgl/src/draw/../misc/lv_area.h **** /** Represents an area of the screen.*/
  53:Middlewares/lvgl/src/draw/../misc/lv_area.h **** typedef struct {
  54:Middlewares/lvgl/src/draw/../misc/lv_area.h ****     lv_coord_t x1;
  55:Middlewares/lvgl/src/draw/../misc/lv_area.h ****     lv_coord_t y1;
  56:Middlewares/lvgl/src/draw/../misc/lv_area.h ****     lv_coord_t x2;
  57:Middlewares/lvgl/src/draw/../misc/lv_area.h ****     lv_coord_t y2;
  58:Middlewares/lvgl/src/draw/../misc/lv_area.h **** } lv_area_t;
  59:Middlewares/lvgl/src/draw/../misc/lv_area.h **** 
  60:Middlewares/lvgl/src/draw/../misc/lv_area.h **** /** Alignments*/
  61:Middlewares/lvgl/src/draw/../misc/lv_area.h **** enum {
  62:Middlewares/lvgl/src/draw/../misc/lv_area.h ****     LV_ALIGN_DEFAULT = 0,
  63:Middlewares/lvgl/src/draw/../misc/lv_area.h ****     LV_ALIGN_TOP_LEFT,
  64:Middlewares/lvgl/src/draw/../misc/lv_area.h ****     LV_ALIGN_TOP_MID,
  65:Middlewares/lvgl/src/draw/../misc/lv_area.h ****     LV_ALIGN_TOP_RIGHT,
  66:Middlewares/lvgl/src/draw/../misc/lv_area.h ****     LV_ALIGN_BOTTOM_LEFT,
  67:Middlewares/lvgl/src/draw/../misc/lv_area.h ****     LV_ALIGN_BOTTOM_MID,
  68:Middlewares/lvgl/src/draw/../misc/lv_area.h ****     LV_ALIGN_BOTTOM_RIGHT,
  69:Middlewares/lvgl/src/draw/../misc/lv_area.h ****     LV_ALIGN_LEFT_MID,
  70:Middlewares/lvgl/src/draw/../misc/lv_area.h ****     LV_ALIGN_RIGHT_MID,
  71:Middlewares/lvgl/src/draw/../misc/lv_area.h ****     LV_ALIGN_CENTER,
  72:Middlewares/lvgl/src/draw/../misc/lv_area.h **** 
  73:Middlewares/lvgl/src/draw/../misc/lv_area.h ****     LV_ALIGN_OUT_TOP_LEFT,
  74:Middlewares/lvgl/src/draw/../misc/lv_area.h ****     LV_ALIGN_OUT_TOP_MID,
  75:Middlewares/lvgl/src/draw/../misc/lv_area.h ****     LV_ALIGN_OUT_TOP_RIGHT,
ARM GAS  /tmp/ccViN4Ah.s 			page 19


  76:Middlewares/lvgl/src/draw/../misc/lv_area.h ****     LV_ALIGN_OUT_BOTTOM_LEFT,
  77:Middlewares/lvgl/src/draw/../misc/lv_area.h ****     LV_ALIGN_OUT_BOTTOM_MID,
  78:Middlewares/lvgl/src/draw/../misc/lv_area.h ****     LV_ALIGN_OUT_BOTTOM_RIGHT,
  79:Middlewares/lvgl/src/draw/../misc/lv_area.h ****     LV_ALIGN_OUT_LEFT_TOP,
  80:Middlewares/lvgl/src/draw/../misc/lv_area.h ****     LV_ALIGN_OUT_LEFT_MID,
  81:Middlewares/lvgl/src/draw/../misc/lv_area.h ****     LV_ALIGN_OUT_LEFT_BOTTOM,
  82:Middlewares/lvgl/src/draw/../misc/lv_area.h ****     LV_ALIGN_OUT_RIGHT_TOP,
  83:Middlewares/lvgl/src/draw/../misc/lv_area.h ****     LV_ALIGN_OUT_RIGHT_MID,
  84:Middlewares/lvgl/src/draw/../misc/lv_area.h ****     LV_ALIGN_OUT_RIGHT_BOTTOM,
  85:Middlewares/lvgl/src/draw/../misc/lv_area.h **** };
  86:Middlewares/lvgl/src/draw/../misc/lv_area.h **** typedef uint8_t lv_align_t;
  87:Middlewares/lvgl/src/draw/../misc/lv_area.h **** 
  88:Middlewares/lvgl/src/draw/../misc/lv_area.h **** enum {
  89:Middlewares/lvgl/src/draw/../misc/lv_area.h ****     LV_DIR_NONE     = 0x00,
  90:Middlewares/lvgl/src/draw/../misc/lv_area.h ****     LV_DIR_LEFT     = (1 << 0),
  91:Middlewares/lvgl/src/draw/../misc/lv_area.h ****     LV_DIR_RIGHT    = (1 << 1),
  92:Middlewares/lvgl/src/draw/../misc/lv_area.h ****     LV_DIR_TOP      = (1 << 2),
  93:Middlewares/lvgl/src/draw/../misc/lv_area.h ****     LV_DIR_BOTTOM   = (1 << 3),
  94:Middlewares/lvgl/src/draw/../misc/lv_area.h ****     LV_DIR_HOR      = LV_DIR_LEFT | LV_DIR_RIGHT,
  95:Middlewares/lvgl/src/draw/../misc/lv_area.h ****     LV_DIR_VER      = LV_DIR_TOP | LV_DIR_BOTTOM,
  96:Middlewares/lvgl/src/draw/../misc/lv_area.h ****     LV_DIR_ALL      = LV_DIR_HOR | LV_DIR_VER,
  97:Middlewares/lvgl/src/draw/../misc/lv_area.h **** };
  98:Middlewares/lvgl/src/draw/../misc/lv_area.h **** 
  99:Middlewares/lvgl/src/draw/../misc/lv_area.h **** typedef uint8_t lv_dir_t;
 100:Middlewares/lvgl/src/draw/../misc/lv_area.h **** 
 101:Middlewares/lvgl/src/draw/../misc/lv_area.h **** /**********************
 102:Middlewares/lvgl/src/draw/../misc/lv_area.h ****  * GLOBAL PROTOTYPES
 103:Middlewares/lvgl/src/draw/../misc/lv_area.h ****  **********************/
 104:Middlewares/lvgl/src/draw/../misc/lv_area.h **** 
 105:Middlewares/lvgl/src/draw/../misc/lv_area.h **** /**
 106:Middlewares/lvgl/src/draw/../misc/lv_area.h ****  * Initialize an area
 107:Middlewares/lvgl/src/draw/../misc/lv_area.h ****  * @param area_p pointer to an area
 108:Middlewares/lvgl/src/draw/../misc/lv_area.h ****  * @param x1 left coordinate of the area
 109:Middlewares/lvgl/src/draw/../misc/lv_area.h ****  * @param y1 top coordinate of the area
 110:Middlewares/lvgl/src/draw/../misc/lv_area.h ****  * @param x2 right coordinate of the area
 111:Middlewares/lvgl/src/draw/../misc/lv_area.h ****  * @param y2 bottom coordinate of the area
 112:Middlewares/lvgl/src/draw/../misc/lv_area.h ****  */
 113:Middlewares/lvgl/src/draw/../misc/lv_area.h **** void lv_area_set(lv_area_t * area_p, lv_coord_t x1, lv_coord_t y1, lv_coord_t x2, lv_coord_t y2);
 114:Middlewares/lvgl/src/draw/../misc/lv_area.h **** 
 115:Middlewares/lvgl/src/draw/../misc/lv_area.h **** /**
 116:Middlewares/lvgl/src/draw/../misc/lv_area.h ****  * Copy an area
 117:Middlewares/lvgl/src/draw/../misc/lv_area.h ****  * @param dest pointer to the destination area
 118:Middlewares/lvgl/src/draw/../misc/lv_area.h ****  * @param src pointer to the source area
 119:Middlewares/lvgl/src/draw/../misc/lv_area.h ****  */
 120:Middlewares/lvgl/src/draw/../misc/lv_area.h **** inline static void lv_area_copy(lv_area_t * dest, const lv_area_t * src)
 121:Middlewares/lvgl/src/draw/../misc/lv_area.h **** {
 122:Middlewares/lvgl/src/draw/../misc/lv_area.h ****     dest->x1 = src->x1;
 123:Middlewares/lvgl/src/draw/../misc/lv_area.h ****     dest->y1 = src->y1;
 124:Middlewares/lvgl/src/draw/../misc/lv_area.h ****     dest->x2 = src->x2;
 125:Middlewares/lvgl/src/draw/../misc/lv_area.h ****     dest->y2 = src->y2;
 126:Middlewares/lvgl/src/draw/../misc/lv_area.h **** }
 127:Middlewares/lvgl/src/draw/../misc/lv_area.h **** 
 128:Middlewares/lvgl/src/draw/../misc/lv_area.h **** /**
 129:Middlewares/lvgl/src/draw/../misc/lv_area.h ****  * Get the width of an area
 130:Middlewares/lvgl/src/draw/../misc/lv_area.h ****  * @param area_p pointer to an area
 131:Middlewares/lvgl/src/draw/../misc/lv_area.h ****  * @return the width of the area (if x1 == x2 -> width = 1)
 132:Middlewares/lvgl/src/draw/../misc/lv_area.h ****  */
ARM GAS  /tmp/ccViN4Ah.s 			page 20


 133:Middlewares/lvgl/src/draw/../misc/lv_area.h **** static inline lv_coord_t lv_area_get_width(const lv_area_t * area_p)
  57              		.loc 2 133 26 view .LVU3
  58              	.LBB70:
 134:Middlewares/lvgl/src/draw/../misc/lv_area.h **** {
 135:Middlewares/lvgl/src/draw/../misc/lv_area.h ****     return (lv_coord_t)(area_p->x2 - area_p->x1 + 1);
  59              		.loc 2 135 5 view .LVU4
  60              		.loc 2 135 31 is_stmt 0 view .LVU5
  61 0010 8288     		ldrh	r2, [r0, #4]
  62              	.LVL2:
  63              		.loc 2 135 44 view .LVU6
  64 0012 B0F90040 		ldrsh	r4, [r0]
  65 0016 A5B2     		uxth	r5, r4
  66              		.loc 2 135 36 view .LVU7
  67 0018 521B     		subs	r2, r2, r5
  68 001a 92B2     		uxth	r2, r2
  69              		.loc 2 135 49 view .LVU8
  70 001c 0132     		adds	r2, r2, #1
  71              		.loc 2 135 12 view .LVU9
  72 001e 12B2     		sxth	r2, r2
  73 0020 0292     		str	r2, [sp, #8]
  74              	.LVL3:
  75              		.loc 2 135 12 view .LVU10
  76              	.LBE70:
  77              	.LBE69:
 897:Middlewares/lvgl/src/draw/lv_draw_blend.c **** 
 898:Middlewares/lvgl/src/draw/lv_draw_blend.c ****     /*Get the width of the `draw_area` it will be used to go to the next line of the mask*/
 899:Middlewares/lvgl/src/draw/lv_draw_blend.c ****     int32_t draw_area_w = lv_area_get_width(draw_area);
  78              		.loc 1 899 5 is_stmt 1 view .LVU11
  79              	.LBB71:
  80              	.LBI71:
 133:Middlewares/lvgl/src/draw/../misc/lv_area.h **** {
  81              		.loc 2 133 26 view .LVU12
  82              	.LBB72:
  83              		.loc 2 135 5 view .LVU13
  84              		.loc 2 135 31 is_stmt 0 view .LVU14
  85 0022 BD88     		ldrh	r5, [r7, #4]
  86              		.loc 2 135 44 view .LVU15
  87 0024 B7F90020 		ldrsh	r2, [r7]
  88              	.LVL4:
  89              		.loc 2 135 44 view .LVU16
  90 0028 96B2     		uxth	r6, r2
  91              		.loc 2 135 36 view .LVU17
  92 002a AD1B     		subs	r5, r5, r6
  93 002c ADB2     		uxth	r5, r5
  94              		.loc 2 135 49 view .LVU18
  95 002e 0135     		adds	r5, r5, #1
  96              		.loc 2 135 12 view .LVU19
  97 0030 2EB2     		sxth	r6, r5
  98 0032 0396     		str	r6, [sp, #12]
  99              	.LVL5:
 100              		.loc 2 135 12 view .LVU20
 101              	.LBE72:
 102              	.LBE71:
 900:Middlewares/lvgl/src/draw/lv_draw_blend.c **** 
 901:Middlewares/lvgl/src/draw/lv_draw_blend.c ****     /*Get the width of the `mask_area` it will be used to go to the next line*/
 902:Middlewares/lvgl/src/draw/lv_draw_blend.c ****     int32_t map_w = lv_area_get_width(map_area);
 103              		.loc 1 902 5 is_stmt 1 view .LVU21
ARM GAS  /tmp/ccViN4Ah.s 			page 21


 104              	.LBB73:
 105              	.LBI73:
 133:Middlewares/lvgl/src/draw/../misc/lv_area.h **** {
 106              		.loc 2 133 26 view .LVU22
 107              	.LBB74:
 108              		.loc 2 135 5 view .LVU23
 109              		.loc 2 135 31 is_stmt 0 view .LVU24
 110 0034 9D88     		ldrh	r5, [r3, #4]
 111              		.loc 2 135 44 view .LVU25
 112 0036 B3F900C0 		ldrsh	ip, [r3]
 113 003a 1FFA8CF6 		uxth	r6, ip
 114              		.loc 2 135 36 view .LVU26
 115 003e AD1B     		subs	r5, r5, r6
 116 0040 ADB2     		uxth	r5, r5
 117              		.loc 2 135 49 view .LVU27
 118 0042 0135     		adds	r5, r5, #1
 119              		.loc 2 135 12 view .LVU28
 120 0044 2EB2     		sxth	r6, r5
 121 0046 0196     		str	r6, [sp, #4]
 122              	.LVL6:
 123              		.loc 2 135 12 view .LVU29
 124              	.LBE74:
 125              	.LBE73:
 903:Middlewares/lvgl/src/draw/lv_draw_blend.c **** 
 904:Middlewares/lvgl/src/draw/lv_draw_blend.c ****     /*Create a temp. disp_buf which always point to current line to draw*/
 905:Middlewares/lvgl/src/draw/lv_draw_blend.c ****     lv_color_t * disp_buf_tmp = disp_buf + disp_w * draw_area->y1;
 126              		.loc 1 905 5 is_stmt 1 view .LVU30
 127              		.loc 1 905 62 is_stmt 0 view .LVU31
 128 0048 B7F902B0 		ldrsh	fp, [r7, #2]
 129              		.loc 1 905 51 view .LVU32
 130 004c 029D     		ldr	r5, [sp, #8]
 131 004e 05FB0BF8 		mul	r8, r5, fp
 132              		.loc 1 905 18 view .LVU33
 133 0052 01EB4808 		add	r8, r1, r8, lsl #1
 134              	.LVL7:
 906:Middlewares/lvgl/src/draw/lv_draw_blend.c **** 
 907:Middlewares/lvgl/src/draw/lv_draw_blend.c ****     /*Create a temp. map_buf which always point to current line to draw*/
 908:Middlewares/lvgl/src/draw/lv_draw_blend.c ****     const lv_color_t * map_buf_tmp = map_buf + map_w * (draw_area->y1 - (map_area->y1 - disp_area->
 135              		.loc 1 908 5 is_stmt 1 view .LVU34
 136              		.loc 1 908 82 is_stmt 0 view .LVU35
 137 0056 B3F90250 		ldrsh	r5, [r3, #2]
 138              		.loc 1 908 98 view .LVU36
 139 005a B0F90230 		ldrsh	r3, [r0, #2]
 140              	.LVL8:
 141              		.loc 1 908 87 view .LVU37
 142 005e ED1A     		subs	r5, r5, r3
 143              		.loc 1 908 71 view .LVU38
 144 0060 ABEB0505 		sub	r5, fp, r5
 145              		.loc 1 908 54 view .LVU39
 146 0064 06FB05F5 		mul	r5, r6, r5
 147              		.loc 1 908 24 view .LVU40
 148 0068 0E9E     		ldr	r6, [sp, #56]
 149              	.LVL9:
 150              		.loc 1 908 24 view .LVU41
 151 006a 06EB4505 		add	r5, r6, r5, lsl #1
 152              	.LVL10:
 909:Middlewares/lvgl/src/draw/lv_draw_blend.c **** 
ARM GAS  /tmp/ccViN4Ah.s 			page 22


 910:Middlewares/lvgl/src/draw/lv_draw_blend.c ****     lv_color_t (*blend_fp)(lv_color_t, lv_color_t, lv_opa_t);
 153              		.loc 1 910 5 is_stmt 1 view .LVU42
 911:Middlewares/lvgl/src/draw/lv_draw_blend.c ****     switch(mode) {
 154              		.loc 1 911 5 view .LVU43
 155 006e BEF1010F 		cmp	lr, #1
 156 0072 0ED0     		beq	.L16
 157 0074 BEF1020F 		cmp	lr, #2
 158 0078 65D1     		bne	.L1
 912:Middlewares/lvgl/src/draw/lv_draw_blend.c ****         case LV_BLEND_MODE_ADDITIVE:
 913:Middlewares/lvgl/src/draw/lv_draw_blend.c ****             blend_fp = color_blend_true_color_additive;
 914:Middlewares/lvgl/src/draw/lv_draw_blend.c ****             break;
 915:Middlewares/lvgl/src/draw/lv_draw_blend.c ****         case LV_BLEND_MODE_SUBTRACTIVE:
 916:Middlewares/lvgl/src/draw/lv_draw_blend.c ****             blend_fp = color_blend_true_color_subtractive;
 159              		.loc 1 916 22 is_stmt 0 view .LVU44
 160 007a 344B     		ldr	r3, .L22
 161 007c 0093     		str	r3, [sp]
 162              	.L2:
 163              	.LVL11:
 917:Middlewares/lvgl/src/draw/lv_draw_blend.c ****             break;
 918:Middlewares/lvgl/src/draw/lv_draw_blend.c ****         default:
 919:Middlewares/lvgl/src/draw/lv_draw_blend.c ****             LV_LOG_WARN("fill_blended: unsupported blend mode");
 920:Middlewares/lvgl/src/draw/lv_draw_blend.c ****             return;
 921:Middlewares/lvgl/src/draw/lv_draw_blend.c ****     }
 922:Middlewares/lvgl/src/draw/lv_draw_blend.c **** 
 923:Middlewares/lvgl/src/draw/lv_draw_blend.c ****     int32_t x;
 164              		.loc 1 923 5 is_stmt 1 view .LVU45
 924:Middlewares/lvgl/src/draw/lv_draw_blend.c ****     int32_t y;
 165              		.loc 1 924 5 view .LVU46
 925:Middlewares/lvgl/src/draw/lv_draw_blend.c **** 
 926:Middlewares/lvgl/src/draw/lv_draw_blend.c ****     /*Simple fill (maybe with opacity), no masking*/
 927:Middlewares/lvgl/src/draw/lv_draw_blend.c ****     if(mask_res == LV_DRAW_MASK_RES_FULL_COVER) {
 166              		.loc 1 927 5 view .LVU47
 167              		.loc 1 927 7 is_stmt 0 view .LVU48
 168 007e 9DF84430 		ldrb	r3, [sp, #68]	@ zero_extendqisi2
 169 0082 012B     		cmp	r3, #1
 170 0084 08D0     		beq	.L19
 171              	.LBB75:
 928:Middlewares/lvgl/src/draw/lv_draw_blend.c ****         /*Go to the first px of the row*/
 929:Middlewares/lvgl/src/draw/lv_draw_blend.c ****         map_buf_tmp += (draw_area->x1 - (map_area->x1 - disp_area->x1));
 930:Middlewares/lvgl/src/draw/lv_draw_blend.c **** 
 931:Middlewares/lvgl/src/draw/lv_draw_blend.c ****         /*The map will be indexed from `draw_area->x1` so compensate it.*/
 932:Middlewares/lvgl/src/draw/lv_draw_blend.c ****         map_buf_tmp -= draw_area->x1;
 933:Middlewares/lvgl/src/draw/lv_draw_blend.c **** 
 934:Middlewares/lvgl/src/draw/lv_draw_blend.c ****         for(y = draw_area->y1; y <= draw_area->y2; y++) {
 935:Middlewares/lvgl/src/draw/lv_draw_blend.c ****             for(x = draw_area->x1; x <= draw_area->x2; x++) {
 936:Middlewares/lvgl/src/draw/lv_draw_blend.c **** #if LV_COLOR_DEPTH == 32
 937:Middlewares/lvgl/src/draw/lv_draw_blend.c ****                 if(map_buf_tmp[x].full != 0xff000000) {
 938:Middlewares/lvgl/src/draw/lv_draw_blend.c **** #else
 939:Middlewares/lvgl/src/draw/lv_draw_blend.c ****                 if(map_buf_tmp[x].full != 0) {
 940:Middlewares/lvgl/src/draw/lv_draw_blend.c **** #endif
 941:Middlewares/lvgl/src/draw/lv_draw_blend.c ****                     disp_buf_tmp[x] = blend_fp(map_buf_tmp[x], disp_buf_tmp[x], opa);
 942:Middlewares/lvgl/src/draw/lv_draw_blend.c ****                 }
 943:Middlewares/lvgl/src/draw/lv_draw_blend.c ****             }
 944:Middlewares/lvgl/src/draw/lv_draw_blend.c ****             disp_buf_tmp += disp_w;
 945:Middlewares/lvgl/src/draw/lv_draw_blend.c ****             map_buf_tmp += map_w;
 946:Middlewares/lvgl/src/draw/lv_draw_blend.c ****         }
 947:Middlewares/lvgl/src/draw/lv_draw_blend.c ****     }
ARM GAS  /tmp/ccViN4Ah.s 			page 23


 948:Middlewares/lvgl/src/draw/lv_draw_blend.c ****     /*Masked*/
 949:Middlewares/lvgl/src/draw/lv_draw_blend.c ****     else {
 950:Middlewares/lvgl/src/draw/lv_draw_blend.c ****         /*The mask is relative to the clipped area.
 951:Middlewares/lvgl/src/draw/lv_draw_blend.c ****          *In the cycles below mask will be indexed from `draw_area.x1`
 952:Middlewares/lvgl/src/draw/lv_draw_blend.c ****          *but it corresponds to zero index. So prepare `mask_tmp` accordingly.*/
 953:Middlewares/lvgl/src/draw/lv_draw_blend.c ****         const lv_opa_t * mask_tmp = mask - draw_area->x1;
 172              		.loc 1 953 9 is_stmt 1 view .LVU49
 173              		.loc 1 953 26 is_stmt 0 view .LVU50
 174 0086 109B     		ldr	r3, [sp, #64]
 175 0088 A3EB0209 		sub	r9, r3, r2
 176              	.LVL12:
 954:Middlewares/lvgl/src/draw/lv_draw_blend.c **** 
 955:Middlewares/lvgl/src/draw/lv_draw_blend.c ****         map_buf_tmp -= draw_area->x1;
 177              		.loc 1 955 9 is_stmt 1 view .LVU51
 178              		.loc 1 955 21 is_stmt 0 view .LVU52
 179 008c A5EB4206 		sub	r6, r5, r2, lsl #1
 180              	.LVL13:
 956:Middlewares/lvgl/src/draw/lv_draw_blend.c ****         for(y = draw_area->y1; y <= draw_area->y2; y++) {
 181              		.loc 1 956 9 is_stmt 1 view .LVU53
 182              		.loc 1 956 9 is_stmt 0 view .LVU54
 183 0090 52E0     		b	.L10
 184              	.LVL14:
 185              	.L16:
 186              		.loc 1 956 9 view .LVU55
 187              	.LBE75:
 911:Middlewares/lvgl/src/draw/lv_draw_blend.c ****         case LV_BLEND_MODE_ADDITIVE:
 188              		.loc 1 911 5 view .LVU56
 189 0092 2F4B     		ldr	r3, .L22+4
 190 0094 0093     		str	r3, [sp]
 191 0096 F2E7     		b	.L2
 192              	.LVL15:
 193              	.L19:
 929:Middlewares/lvgl/src/draw/lv_draw_blend.c **** 
 194              		.loc 1 929 9 is_stmt 1 view .LVU57
 932:Middlewares/lvgl/src/draw/lv_draw_blend.c **** 
 195              		.loc 1 932 9 view .LVU58
 932:Middlewares/lvgl/src/draw/lv_draw_blend.c **** 
 196              		.loc 1 932 21 is_stmt 0 view .LVU59
 197 0098 A4EB0C04 		sub	r4, r4, ip
 198 009c 05EB4405 		add	r5, r5, r4, lsl #1
 199              	.LVL16:
 934:Middlewares/lvgl/src/draw/lv_draw_blend.c ****             for(x = draw_area->x1; x <= draw_area->x2; x++) {
 200              		.loc 1 934 9 is_stmt 1 view .LVU60
 934:Middlewares/lvgl/src/draw/lv_draw_blend.c ****             for(x = draw_area->x1; x <= draw_area->x2; x++) {
 201              		.loc 1 934 9 is_stmt 0 view .LVU61
 202 00a0 009E     		ldr	r6, [sp]
 203 00a2 DDF80890 		ldr	r9, [sp, #8]
 204 00a6 18E0     		b	.L5
 205              	.LVL17:
 206              	.L7:
 935:Middlewares/lvgl/src/draw/lv_draw_blend.c **** #if LV_COLOR_DEPTH == 32
 207              		.loc 1 935 56 is_stmt 1 discriminator 2 view .LVU62
 935:Middlewares/lvgl/src/draw/lv_draw_blend.c **** #if LV_COLOR_DEPTH == 32
 208              		.loc 1 935 57 is_stmt 0 discriminator 2 view .LVU63
 209 00a8 0134     		adds	r4, r4, #1
 210              	.LVL18:
 211              	.L6:
ARM GAS  /tmp/ccViN4Ah.s 			page 24


 935:Middlewares/lvgl/src/draw/lv_draw_blend.c **** #if LV_COLOR_DEPTH == 32
 212              		.loc 1 935 36 is_stmt 1 discriminator 1 view .LVU64
 935:Middlewares/lvgl/src/draw/lv_draw_blend.c **** #if LV_COLOR_DEPTH == 32
 213              		.loc 1 935 50 is_stmt 0 discriminator 1 view .LVU65
 214 00aa B7F90430 		ldrsh	r3, [r7, #4]
 935:Middlewares/lvgl/src/draw/lv_draw_blend.c **** #if LV_COLOR_DEPTH == 32
 215              		.loc 1 935 13 discriminator 1 view .LVU66
 216 00ae A342     		cmp	r3, r4
 217 00b0 0CDB     		blt	.L20
 939:Middlewares/lvgl/src/draw/lv_draw_blend.c **** #endif
 218              		.loc 1 939 17 is_stmt 1 view .LVU67
 939:Middlewares/lvgl/src/draw/lv_draw_blend.c **** #endif
 219              		.loc 1 939 34 is_stmt 0 view .LVU68
 220 00b2 35F81430 		ldrh	r3, [r5, r4, lsl #1]
 939:Middlewares/lvgl/src/draw/lv_draw_blend.c **** #endif
 221              		.loc 1 939 19 view .LVU69
 222 00b6 002B     		cmp	r3, #0
 223 00b8 F6D0     		beq	.L7
 941:Middlewares/lvgl/src/draw/lv_draw_blend.c ****                 }
 224              		.loc 1 941 21 is_stmt 1 view .LVU70
 941:Middlewares/lvgl/src/draw/lv_draw_blend.c ****                 }
 225              		.loc 1 941 39 is_stmt 0 view .LVU71
 226 00ba 5246     		mov	r2, r10
 227 00bc 38F81410 		ldrh	r1, [r8, r4, lsl #1]
 228 00c0 35F81400 		ldrh	r0, [r5, r4, lsl #1]
 229 00c4 B047     		blx	r6
 230              	.LVL19:
 231 00c6 28F81400 		strh	r0, [r8, r4, lsl #1]	@ movhi
 232 00ca EDE7     		b	.L7
 233              	.L20:
 944:Middlewares/lvgl/src/draw/lv_draw_blend.c ****             map_buf_tmp += map_w;
 234              		.loc 1 944 13 is_stmt 1 discriminator 2 view .LVU72
 944:Middlewares/lvgl/src/draw/lv_draw_blend.c ****             map_buf_tmp += map_w;
 235              		.loc 1 944 26 is_stmt 0 discriminator 2 view .LVU73
 236 00cc 08EB4908 		add	r8, r8, r9, lsl #1
 237              	.LVL20:
 945:Middlewares/lvgl/src/draw/lv_draw_blend.c ****         }
 238              		.loc 1 945 13 is_stmt 1 discriminator 2 view .LVU74
 945:Middlewares/lvgl/src/draw/lv_draw_blend.c ****         }
 239              		.loc 1 945 25 is_stmt 0 discriminator 2 view .LVU75
 240 00d0 019B     		ldr	r3, [sp, #4]
 241 00d2 05EB4305 		add	r5, r5, r3, lsl #1
 242              	.LVL21:
 934:Middlewares/lvgl/src/draw/lv_draw_blend.c ****             for(x = draw_area->x1; x <= draw_area->x2; x++) {
 243              		.loc 1 934 52 is_stmt 1 discriminator 2 view .LVU76
 934:Middlewares/lvgl/src/draw/lv_draw_blend.c ****             for(x = draw_area->x1; x <= draw_area->x2; x++) {
 244              		.loc 1 934 53 is_stmt 0 discriminator 2 view .LVU77
 245 00d6 0BF1010B 		add	fp, fp, #1
 246              	.LVL22:
 247              	.L5:
 934:Middlewares/lvgl/src/draw/lv_draw_blend.c ****             for(x = draw_area->x1; x <= draw_area->x2; x++) {
 248              		.loc 1 934 32 is_stmt 1 discriminator 1 view .LVU78
 934:Middlewares/lvgl/src/draw/lv_draw_blend.c ****             for(x = draw_area->x1; x <= draw_area->x2; x++) {
 249              		.loc 1 934 46 is_stmt 0 discriminator 1 view .LVU79
 250 00da B7F90630 		ldrsh	r3, [r7, #6]
 934:Middlewares/lvgl/src/draw/lv_draw_blend.c ****             for(x = draw_area->x1; x <= draw_area->x2; x++) {
 251              		.loc 1 934 9 discriminator 1 view .LVU80
ARM GAS  /tmp/ccViN4Ah.s 			page 25


 252 00de 5B45     		cmp	r3, fp
 253 00e0 31DB     		blt	.L1
 935:Middlewares/lvgl/src/draw/lv_draw_blend.c **** #if LV_COLOR_DEPTH == 32
 254              		.loc 1 935 13 is_stmt 1 view .LVU81
 935:Middlewares/lvgl/src/draw/lv_draw_blend.c **** #if LV_COLOR_DEPTH == 32
 255              		.loc 1 935 30 is_stmt 0 view .LVU82
 256 00e2 B7F90040 		ldrsh	r4, [r7]
 257              	.LVL23:
 935:Middlewares/lvgl/src/draw/lv_draw_blend.c **** #if LV_COLOR_DEPTH == 32
 258              		.loc 1 935 13 view .LVU83
 259 00e6 E0E7     		b	.L6
 260              	.LVL24:
 261              	.L17:
 262              	.LBB78:
 263              	.LBB76:
 957:Middlewares/lvgl/src/draw/lv_draw_blend.c ****             for(x = draw_area->x1; x <= draw_area->x2; x++) {
 958:Middlewares/lvgl/src/draw/lv_draw_blend.c ****                 if(mask_tmp[x] == 0) continue;
 959:Middlewares/lvgl/src/draw/lv_draw_blend.c ****                 lv_opa_t opa_tmp = mask_tmp[x] >= LV_OPA_MAX ? opa : ((opa * mask_tmp[x]) >> 8);
 264              		.loc 1 959 26 view .LVU84
 265 00e8 5246     		mov	r2, r10
 266 00ea 0EE0     		b	.L13
 267              	.L12:
 268              		.loc 1 959 26 view .LVU85
 269              	.LBE76:
 957:Middlewares/lvgl/src/draw/lv_draw_blend.c ****             for(x = draw_area->x1; x <= draw_area->x2; x++) {
 270              		.loc 1 957 56 is_stmt 1 discriminator 2 view .LVU86
 957:Middlewares/lvgl/src/draw/lv_draw_blend.c ****             for(x = draw_area->x1; x <= draw_area->x2; x++) {
 271              		.loc 1 957 57 is_stmt 0 discriminator 2 view .LVU87
 272 00ec 0134     		adds	r4, r4, #1
 273              	.LVL25:
 274              	.L11:
 957:Middlewares/lvgl/src/draw/lv_draw_blend.c ****             for(x = draw_area->x1; x <= draw_area->x2; x++) {
 275              		.loc 1 957 36 is_stmt 1 discriminator 1 view .LVU88
 957:Middlewares/lvgl/src/draw/lv_draw_blend.c ****             for(x = draw_area->x1; x <= draw_area->x2; x++) {
 276              		.loc 1 957 50 is_stmt 0 discriminator 1 view .LVU89
 277 00ee B7F90430 		ldrsh	r3, [r7, #4]
 957:Middlewares/lvgl/src/draw/lv_draw_blend.c ****             for(x = draw_area->x1; x <= draw_area->x2; x++) {
 278              		.loc 1 957 13 discriminator 1 view .LVU90
 279 00f2 A342     		cmp	r3, r4
 280 00f4 16DB     		blt	.L21
 281              	.LBB77:
 958:Middlewares/lvgl/src/draw/lv_draw_blend.c ****                 lv_opa_t opa_tmp = mask_tmp[x] >= LV_OPA_MAX ? opa : ((opa * mask_tmp[x]) >> 8);
 282              		.loc 1 958 17 is_stmt 1 view .LVU91
 958:Middlewares/lvgl/src/draw/lv_draw_blend.c ****                 lv_opa_t opa_tmp = mask_tmp[x] >= LV_OPA_MAX ? opa : ((opa * mask_tmp[x]) >> 8);
 283              		.loc 1 958 28 is_stmt 0 view .LVU92
 284 00f6 2546     		mov	r5, r4
 285 00f8 19F80420 		ldrb	r2, [r9, r4]	@ zero_extendqisi2
 958:Middlewares/lvgl/src/draw/lv_draw_blend.c ****                 lv_opa_t opa_tmp = mask_tmp[x] >= LV_OPA_MAX ? opa : ((opa * mask_tmp[x]) >> 8);
 286              		.loc 1 958 19 view .LVU93
 287 00fc 002A     		cmp	r2, #0
 288 00fe F5D0     		beq	.L12
 289              		.loc 1 959 17 is_stmt 1 view .LVU94
 290              		.loc 1 959 26 is_stmt 0 view .LVU95
 291 0100 FC2A     		cmp	r2, #252
 292 0102 F1D8     		bhi	.L17
 293              		.loc 1 959 76 discriminator 1 view .LVU96
 294 0104 02FB0AF2 		mul	r2, r2, r10
ARM GAS  /tmp/ccViN4Ah.s 			page 26


 295              		.loc 1 959 26 discriminator 1 view .LVU97
 296 0108 120A     		lsrs	r2, r2, #8
 297              	.L13:
 298              	.LVL26:
 960:Middlewares/lvgl/src/draw/lv_draw_blend.c **** #if LV_COLOR_DEPTH == 32
 961:Middlewares/lvgl/src/draw/lv_draw_blend.c ****                 if(map_buf_tmp[x].full != 0xff000000) {
 962:Middlewares/lvgl/src/draw/lv_draw_blend.c **** #else
 963:Middlewares/lvgl/src/draw/lv_draw_blend.c ****                 if(map_buf_tmp[x].full != 0) {
 299              		.loc 1 963 17 is_stmt 1 discriminator 4 view .LVU98
 300              		.loc 1 963 34 is_stmt 0 discriminator 4 view .LVU99
 301 010a 36F81530 		ldrh	r3, [r6, r5, lsl #1]
 302              		.loc 1 963 19 discriminator 4 view .LVU100
 303 010e 002B     		cmp	r3, #0
 304 0110 ECD0     		beq	.L12
 964:Middlewares/lvgl/src/draw/lv_draw_blend.c **** #endif
 965:Middlewares/lvgl/src/draw/lv_draw_blend.c ****                     disp_buf_tmp[x] = blend_fp(map_buf_tmp[x], disp_buf_tmp[x], opa_tmp);
 305              		.loc 1 965 21 is_stmt 1 view .LVU101
 306              		.loc 1 965 39 is_stmt 0 view .LVU102
 307 0112 38F81510 		ldrh	r1, [r8, r5, lsl #1]
 308 0116 36F81500 		ldrh	r0, [r6, r5, lsl #1]
 309 011a 009B     		ldr	r3, [sp]
 310 011c 9847     		blx	r3
 311              	.LVL27:
 312              		.loc 1 965 39 view .LVU103
 313 011e 28F81500 		strh	r0, [r8, r5, lsl #1]	@ movhi
 314 0122 E3E7     		b	.L12
 315              	.L21:
 316              		.loc 1 965 39 view .LVU104
 317              	.LBE77:
 966:Middlewares/lvgl/src/draw/lv_draw_blend.c ****                 }
 967:Middlewares/lvgl/src/draw/lv_draw_blend.c **** 
 968:Middlewares/lvgl/src/draw/lv_draw_blend.c ****             }
 969:Middlewares/lvgl/src/draw/lv_draw_blend.c ****             disp_buf_tmp += disp_w;
 318              		.loc 1 969 13 is_stmt 1 discriminator 2 view .LVU105
 319              		.loc 1 969 26 is_stmt 0 discriminator 2 view .LVU106
 320 0124 029B     		ldr	r3, [sp, #8]
 321 0126 08EB4308 		add	r8, r8, r3, lsl #1
 322              	.LVL28:
 970:Middlewares/lvgl/src/draw/lv_draw_blend.c ****             mask_tmp += draw_area_w;
 323              		.loc 1 970 13 is_stmt 1 discriminator 2 view .LVU107
 324              		.loc 1 970 22 is_stmt 0 discriminator 2 view .LVU108
 325 012a 039B     		ldr	r3, [sp, #12]
 326 012c 9944     		add	r9, r9, r3
 327              	.LVL29:
 971:Middlewares/lvgl/src/draw/lv_draw_blend.c ****             map_buf_tmp += map_w;
 328              		.loc 1 971 13 is_stmt 1 discriminator 2 view .LVU109
 329              		.loc 1 971 25 is_stmt 0 discriminator 2 view .LVU110
 330 012e 019B     		ldr	r3, [sp, #4]
 331 0130 06EB4306 		add	r6, r6, r3, lsl #1
 332              	.LVL30:
 956:Middlewares/lvgl/src/draw/lv_draw_blend.c ****             for(x = draw_area->x1; x <= draw_area->x2; x++) {
 333              		.loc 1 956 52 is_stmt 1 discriminator 2 view .LVU111
 956:Middlewares/lvgl/src/draw/lv_draw_blend.c ****             for(x = draw_area->x1; x <= draw_area->x2; x++) {
 334              		.loc 1 956 53 is_stmt 0 discriminator 2 view .LVU112
 335 0134 0BF1010B 		add	fp, fp, #1
 336              	.LVL31:
 337              	.L10:
ARM GAS  /tmp/ccViN4Ah.s 			page 27


 956:Middlewares/lvgl/src/draw/lv_draw_blend.c ****             for(x = draw_area->x1; x <= draw_area->x2; x++) {
 338              		.loc 1 956 32 is_stmt 1 discriminator 1 view .LVU113
 956:Middlewares/lvgl/src/draw/lv_draw_blend.c ****             for(x = draw_area->x1; x <= draw_area->x2; x++) {
 339              		.loc 1 956 46 is_stmt 0 discriminator 1 view .LVU114
 340 0138 B7F90630 		ldrsh	r3, [r7, #6]
 956:Middlewares/lvgl/src/draw/lv_draw_blend.c ****             for(x = draw_area->x1; x <= draw_area->x2; x++) {
 341              		.loc 1 956 9 discriminator 1 view .LVU115
 342 013c 5B45     		cmp	r3, fp
 343 013e 02DB     		blt	.L1
 957:Middlewares/lvgl/src/draw/lv_draw_blend.c ****                 if(mask_tmp[x] == 0) continue;
 344              		.loc 1 957 13 is_stmt 1 view .LVU116
 957:Middlewares/lvgl/src/draw/lv_draw_blend.c ****                 if(mask_tmp[x] == 0) continue;
 345              		.loc 1 957 30 is_stmt 0 view .LVU117
 346 0140 B7F90040 		ldrsh	r4, [r7]
 347              	.LVL32:
 957:Middlewares/lvgl/src/draw/lv_draw_blend.c ****                 if(mask_tmp[x] == 0) continue;
 348              		.loc 1 957 13 view .LVU118
 349 0144 D3E7     		b	.L11
 350              	.LVL33:
 351              	.L1:
 957:Middlewares/lvgl/src/draw/lv_draw_blend.c ****                 if(mask_tmp[x] == 0) continue;
 352              		.loc 1 957 13 view .LVU119
 353              	.LBE78:
 972:Middlewares/lvgl/src/draw/lv_draw_blend.c ****         }
 973:Middlewares/lvgl/src/draw/lv_draw_blend.c ****     }
 974:Middlewares/lvgl/src/draw/lv_draw_blend.c **** }
 354              		.loc 1 974 1 view .LVU120
 355 0146 05B0     		add	sp, sp, #20
 356              	.LCFI2:
 357              		.cfi_def_cfa_offset 36
 358              		@ sp needed
 359 0148 BDE8F08F 		pop	{r4, r5, r6, r7, r8, r9, r10, fp, pc}
 360              	.LVL34:
 361              	.L23:
 362              		.loc 1 974 1 view .LVU121
 363              		.align	2
 364              	.L22:
 365 014c 00000000 		.word	color_blend_true_color_subtractive
 366 0150 00000000 		.word	color_blend_true_color_additive
 367              		.cfi_endproc
 368              	.LFE154:
 370              		.section	.text.fill_set_px,"ax",%progbits
 371              		.align	1
 372              		.syntax unified
 373              		.thumb
 374              		.thumb_func
 375              		.fpu fpv4-sp-d16
 377              	fill_set_px:
 378              	.LVL35:
 379              	.LFB149:
 245:Middlewares/lvgl/src/draw/lv_draw_blend.c **** 
 380              		.loc 1 245 1 is_stmt 1 view -0
 381              		.cfi_startproc
 382              		@ args = 12, pretend = 0, frame = 16
 383              		@ frame_needed = 0, uses_anonymous_args = 0
 245:Middlewares/lvgl/src/draw/lv_draw_blend.c **** 
 384              		.loc 1 245 1 is_stmt 0 view .LVU123
ARM GAS  /tmp/ccViN4Ah.s 			page 28


 385 0000 2DE9F04F 		push	{r4, r5, r6, r7, r8, r9, r10, fp, lr}
 386              	.LCFI3:
 387              		.cfi_def_cfa_offset 36
 388              		.cfi_offset 4, -36
 389              		.cfi_offset 5, -32
 390              		.cfi_offset 6, -28
 391              		.cfi_offset 7, -24
 392              		.cfi_offset 8, -20
 393              		.cfi_offset 9, -16
 394              		.cfi_offset 10, -12
 395              		.cfi_offset 11, -8
 396              		.cfi_offset 14, -4
 397 0004 89B0     		sub	sp, sp, #36
 398              	.LCFI4:
 399              		.cfi_def_cfa_offset 72
 400 0006 0446     		mov	r4, r0
 401 0008 0691     		str	r1, [sp, #24]
 402 000a 1546     		mov	r5, r2
 403 000c 9946     		mov	r9, r3	@ movhi
 404              	.LVL36:
 245:Middlewares/lvgl/src/draw/lv_draw_blend.c **** 
 405              		.loc 1 245 1 view .LVU124
 406 000e 9DF848A0 		ldrb	r10, [sp, #72]	@ zero_extendqisi2
 247:Middlewares/lvgl/src/draw/lv_draw_blend.c **** 
 407              		.loc 1 247 5 is_stmt 1 view .LVU125
 247:Middlewares/lvgl/src/draw/lv_draw_blend.c **** 
 408              		.loc 1 247 24 is_stmt 0 view .LVU126
 409 0012 FFF7FEFF 		bl	_lv_refr_get_disp_refreshing
 410              	.LVL37:
 247:Middlewares/lvgl/src/draw/lv_draw_blend.c **** 
 411              		.loc 1 247 24 view .LVU127
 412 0016 8046     		mov	r8, r0
 413              	.LVL38:
 250:Middlewares/lvgl/src/draw/lv_draw_blend.c **** 
 414              		.loc 1 250 5 is_stmt 1 view .LVU128
 415              	.LBB79:
 416              	.LBI79:
 133:Middlewares/lvgl/src/draw/../misc/lv_area.h **** {
 417              		.loc 2 133 26 view .LVU129
 418              	.LBB80:
 419              		.loc 2 135 5 view .LVU130
 420              		.loc 2 135 31 is_stmt 0 view .LVU131
 421 0018 A788     		ldrh	r7, [r4, #4]
 422              		.loc 2 135 44 view .LVU132
 423 001a 2388     		ldrh	r3, [r4]
 424              		.loc 2 135 36 view .LVU133
 425 001c FF1A     		subs	r7, r7, r3
 426 001e BFB2     		uxth	r7, r7
 427              		.loc 2 135 49 view .LVU134
 428 0020 0137     		adds	r7, r7, #1
 429              		.loc 2 135 12 view .LVU135
 430 0022 3FB2     		sxth	r7, r7
 431              	.LVL39:
 432              		.loc 2 135 12 view .LVU136
 433              	.LBE80:
 434              	.LBE79:
 252:Middlewares/lvgl/src/draw/lv_draw_blend.c ****     int32_t y;
ARM GAS  /tmp/ccViN4Ah.s 			page 29


 435              		.loc 1 252 5 is_stmt 1 view .LVU137
 253:Middlewares/lvgl/src/draw/lv_draw_blend.c **** 
 436              		.loc 1 253 5 view .LVU138
 255:Middlewares/lvgl/src/draw/lv_draw_blend.c ****         for(y = draw_area->y1; y <= draw_area->y2; y++) {
 437              		.loc 1 255 5 view .LVU139
 255:Middlewares/lvgl/src/draw/lv_draw_blend.c ****         for(y = draw_area->y1; y <= draw_area->y2; y++) {
 438              		.loc 1 255 7 is_stmt 0 view .LVU140
 439 0024 9DF85030 		ldrb	r3, [sp, #80]	@ zero_extendqisi2
 440 0028 012B     		cmp	r3, #1
 441 002a 0FD0     		beq	.L37
 442              	.LBB81:
 266:Middlewares/lvgl/src/draw/lv_draw_blend.c **** 
 443              		.loc 1 266 9 is_stmt 1 view .LVU141
 266:Middlewares/lvgl/src/draw/lv_draw_blend.c **** 
 444              		.loc 1 266 53 is_stmt 0 view .LVU142
 445 002c B5F90020 		ldrsh	r2, [r5]
 266:Middlewares/lvgl/src/draw/lv_draw_blend.c **** 
 446              		.loc 1 266 26 view .LVU143
 447 0030 139E     		ldr	r6, [sp, #76]
 448 0032 B61A     		subs	r6, r6, r2
 449              	.LVL40:
 269:Middlewares/lvgl/src/draw/lv_draw_blend.c **** 
 450              		.loc 1 269 9 is_stmt 1 view .LVU144
 451              	.LBB82:
 452              	.LBI82:
 133:Middlewares/lvgl/src/draw/../misc/lv_area.h **** {
 453              		.loc 2 133 26 view .LVU145
 454              	.LBB83:
 455              		.loc 2 135 5 view .LVU146
 456              		.loc 2 135 31 is_stmt 0 view .LVU147
 457 0034 AB88     		ldrh	r3, [r5, #4]
 458              		.loc 2 135 44 view .LVU148
 459 0036 92B2     		uxth	r2, r2
 460              		.loc 2 135 36 view .LVU149
 461 0038 9B1A     		subs	r3, r3, r2
 462 003a 9BB2     		uxth	r3, r3
 463              		.loc 2 135 49 view .LVU150
 464 003c 0133     		adds	r3, r3, #1
 465              		.loc 2 135 12 view .LVU151
 466 003e 1BB2     		sxth	r3, r3
 467 0040 0793     		str	r3, [sp, #28]
 468              	.LVL41:
 469              		.loc 2 135 12 view .LVU152
 470              	.LBE83:
 471              	.LBE82:
 271:Middlewares/lvgl/src/draw/lv_draw_blend.c ****             for(x = draw_area->x1; x <= draw_area->x2; x++) {
 472              		.loc 1 271 9 is_stmt 1 view .LVU153
 271:Middlewares/lvgl/src/draw/lv_draw_blend.c ****             for(x = draw_area->x1; x <= draw_area->x2; x++) {
 473              		.loc 1 271 26 is_stmt 0 view .LVU154
 474 0042 B5F90230 		ldrsh	r3, [r5, #2]
 475              	.LVL42:
 271:Middlewares/lvgl/src/draw/lv_draw_blend.c ****             for(x = draw_area->x1; x <= draw_area->x2; x++) {
 476              		.loc 1 271 26 view .LVU155
 477 0046 9B46     		mov	fp, r3
 478 0048 0597     		str	r7, [sp, #20]
 271:Middlewares/lvgl/src/draw/lv_draw_blend.c ****             for(x = draw_area->x1; x <= draw_area->x2; x++) {
 479              		.loc 1 271 9 view .LVU156
ARM GAS  /tmp/ccViN4Ah.s 			page 30


 480 004a 41E0     		b	.L31
 481              	.LVL43:
 482              	.L37:
 271:Middlewares/lvgl/src/draw/lv_draw_blend.c ****             for(x = draw_area->x1; x <= draw_area->x2; x++) {
 483              		.loc 1 271 9 view .LVU157
 484              	.LBE81:
 256:Middlewares/lvgl/src/draw/lv_draw_blend.c ****             for(x = draw_area->x1; x <= draw_area->x2; x++) {
 485              		.loc 1 256 9 is_stmt 1 view .LVU158
 256:Middlewares/lvgl/src/draw/lv_draw_blend.c ****             for(x = draw_area->x1; x <= draw_area->x2; x++) {
 486              		.loc 1 256 26 is_stmt 0 view .LVU159
 487 004c B5F902B0 		ldrsh	fp, [r5, #2]
 488              	.LVL44:
 256:Middlewares/lvgl/src/draw/lv_draw_blend.c ****             for(x = draw_area->x1; x <= draw_area->x2; x++) {
 489              		.loc 1 256 26 view .LVU160
 490 0050 CDF814B0 		str	fp, [sp, #20]
 491 0054 DDF818B0 		ldr	fp, [sp, #24]
 492              	.LVL45:
 256:Middlewares/lvgl/src/draw/lv_draw_blend.c ****             for(x = draw_area->x1; x <= draw_area->x2; x++) {
 493              		.loc 1 256 9 view .LVU161
 494 0058 15E0     		b	.L26
 495              	.LVL46:
 496              	.L28:
 258:Middlewares/lvgl/src/draw/lv_draw_blend.c ****             }
 497              		.loc 1 258 17 is_stmt 1 discriminator 3 view .LVU162
 258:Middlewares/lvgl/src/draw/lv_draw_blend.c ****             }
 498              		.loc 1 258 21 is_stmt 0 discriminator 3 view .LVU163
 499 005a D8F80000 		ldr	r0, [r8]
 258:Middlewares/lvgl/src/draw/lv_draw_blend.c ****             }
 500              		.loc 1 258 29 discriminator 3 view .LVU164
 501 005e 4669     		ldr	r6, [r0, #20]
 258:Middlewares/lvgl/src/draw/lv_draw_blend.c ****             }
 502              		.loc 1 258 17 discriminator 3 view .LVU165
 503 0060 CDF808A0 		str	r10, [sp, #8]
 504 0064 ADF80490 		strh	r9, [sp, #4]	@ movhi
 505 0068 BDF91430 		ldrsh	r3, [sp, #20]
 506 006c 0093     		str	r3, [sp]
 507 006e 23B2     		sxth	r3, r4
 508 0070 3A46     		mov	r2, r7
 509 0072 5946     		mov	r1, fp
 510 0074 B047     		blx	r6
 511              	.LVL47:
 257:Middlewares/lvgl/src/draw/lv_draw_blend.c ****                 disp->driver->set_px_cb(disp->driver, (void *)disp_buf, disp_w, x, y, color, opa);
 512              		.loc 1 257 56 is_stmt 1 discriminator 3 view .LVU166
 257:Middlewares/lvgl/src/draw/lv_draw_blend.c ****                 disp->driver->set_px_cb(disp->driver, (void *)disp_buf, disp_w, x, y, color, opa);
 513              		.loc 1 257 57 is_stmt 0 discriminator 3 view .LVU167
 514 0076 0134     		adds	r4, r4, #1
 515              	.LVL48:
 516              	.L27:
 257:Middlewares/lvgl/src/draw/lv_draw_blend.c ****                 disp->driver->set_px_cb(disp->driver, (void *)disp_buf, disp_w, x, y, color, opa);
 517              		.loc 1 257 36 is_stmt 1 discriminator 1 view .LVU168
 257:Middlewares/lvgl/src/draw/lv_draw_blend.c ****                 disp->driver->set_px_cb(disp->driver, (void *)disp_buf, disp_w, x, y, color, opa);
 518              		.loc 1 257 50 is_stmt 0 discriminator 1 view .LVU169
 519 0078 B5F90430 		ldrsh	r3, [r5, #4]
 257:Middlewares/lvgl/src/draw/lv_draw_blend.c ****                 disp->driver->set_px_cb(disp->driver, (void *)disp_buf, disp_w, x, y, color, opa);
 520              		.loc 1 257 13 discriminator 1 view .LVU170
 521 007c A342     		cmp	r3, r4
 522 007e ECDA     		bge	.L28
ARM GAS  /tmp/ccViN4Ah.s 			page 31


 256:Middlewares/lvgl/src/draw/lv_draw_blend.c ****             for(x = draw_area->x1; x <= draw_area->x2; x++) {
 523              		.loc 1 256 52 is_stmt 1 discriminator 2 view .LVU171
 256:Middlewares/lvgl/src/draw/lv_draw_blend.c ****             for(x = draw_area->x1; x <= draw_area->x2; x++) {
 524              		.loc 1 256 53 is_stmt 0 discriminator 2 view .LVU172
 525 0080 059B     		ldr	r3, [sp, #20]
 526 0082 0133     		adds	r3, r3, #1
 527 0084 0593     		str	r3, [sp, #20]
 528              	.LVL49:
 529              	.L26:
 256:Middlewares/lvgl/src/draw/lv_draw_blend.c ****             for(x = draw_area->x1; x <= draw_area->x2; x++) {
 530              		.loc 1 256 32 is_stmt 1 discriminator 1 view .LVU173
 256:Middlewares/lvgl/src/draw/lv_draw_blend.c ****             for(x = draw_area->x1; x <= draw_area->x2; x++) {
 531              		.loc 1 256 46 is_stmt 0 discriminator 1 view .LVU174
 532 0086 B5F90630 		ldrsh	r3, [r5, #6]
 256:Middlewares/lvgl/src/draw/lv_draw_blend.c ****             for(x = draw_area->x1; x <= draw_area->x2; x++) {
 533              		.loc 1 256 9 discriminator 1 view .LVU175
 534 008a 059A     		ldr	r2, [sp, #20]
 535 008c 9342     		cmp	r3, r2
 536 008e 26DB     		blt	.L24
 257:Middlewares/lvgl/src/draw/lv_draw_blend.c ****                 disp->driver->set_px_cb(disp->driver, (void *)disp_buf, disp_w, x, y, color, opa);
 537              		.loc 1 257 13 is_stmt 1 view .LVU176
 257:Middlewares/lvgl/src/draw/lv_draw_blend.c ****                 disp->driver->set_px_cb(disp->driver, (void *)disp_buf, disp_w, x, y, color, opa);
 538              		.loc 1 257 30 is_stmt 0 view .LVU177
 539 0090 B5F90040 		ldrsh	r4, [r5]
 540              	.LVL50:
 257:Middlewares/lvgl/src/draw/lv_draw_blend.c ****                 disp->driver->set_px_cb(disp->driver, (void *)disp_buf, disp_w, x, y, color, opa);
 541              		.loc 1 257 13 view .LVU178
 542 0094 F0E7     		b	.L27
 543              	.LVL51:
 544              	.L33:
 545              	.LBB84:
 272:Middlewares/lvgl/src/draw/lv_draw_blend.c ****                 if(mask_tmp[x]) {
 546              		.loc 1 272 56 is_stmt 1 discriminator 2 view .LVU179
 272:Middlewares/lvgl/src/draw/lv_draw_blend.c ****                 if(mask_tmp[x]) {
 547              		.loc 1 272 57 is_stmt 0 discriminator 2 view .LVU180
 548 0096 0134     		adds	r4, r4, #1
 549              	.LVL52:
 550              	.L32:
 272:Middlewares/lvgl/src/draw/lv_draw_blend.c ****                 if(mask_tmp[x]) {
 551              		.loc 1 272 36 is_stmt 1 discriminator 1 view .LVU181
 272:Middlewares/lvgl/src/draw/lv_draw_blend.c ****                 if(mask_tmp[x]) {
 552              		.loc 1 272 50 is_stmt 0 discriminator 1 view .LVU182
 553 0098 B5F90430 		ldrsh	r3, [r5, #4]
 272:Middlewares/lvgl/src/draw/lv_draw_blend.c ****                 if(mask_tmp[x]) {
 554              		.loc 1 272 13 discriminator 1 view .LVU183
 555 009c A342     		cmp	r3, r4
 556 009e 13DB     		blt	.L38
 273:Middlewares/lvgl/src/draw/lv_draw_blend.c ****                     disp->driver->set_px_cb(disp->driver, (void *)disp_buf, disp_w, x, y, color,
 557              		.loc 1 273 17 is_stmt 1 view .LVU184
 273:Middlewares/lvgl/src/draw/lv_draw_blend.c ****                     disp->driver->set_px_cb(disp->driver, (void *)disp_buf, disp_w, x, y, color,
 558              		.loc 1 273 28 is_stmt 0 view .LVU185
 559 00a0 335D     		ldrb	r3, [r6, r4]	@ zero_extendqisi2
 273:Middlewares/lvgl/src/draw/lv_draw_blend.c ****                     disp->driver->set_px_cb(disp->driver, (void *)disp_buf, disp_w, x, y, color,
 560              		.loc 1 273 19 view .LVU186
 561 00a2 002B     		cmp	r3, #0
 562 00a4 F7D0     		beq	.L33
 274:Middlewares/lvgl/src/draw/lv_draw_blend.c ****                                            (uint32_t)((uint32_t)opa * mask_tmp[x]) >> 8);
ARM GAS  /tmp/ccViN4Ah.s 			page 32


 563              		.loc 1 274 21 is_stmt 1 view .LVU187
 274:Middlewares/lvgl/src/draw/lv_draw_blend.c ****                                            (uint32_t)((uint32_t)opa * mask_tmp[x]) >> 8);
 564              		.loc 1 274 25 is_stmt 0 view .LVU188
 565 00a6 D8F80000 		ldr	r0, [r8]
 274:Middlewares/lvgl/src/draw/lv_draw_blend.c ****                                            (uint32_t)((uint32_t)opa * mask_tmp[x]) >> 8);
 566              		.loc 1 274 33 view .LVU189
 567 00aa 4769     		ldr	r7, [r0, #20]
 275:Middlewares/lvgl/src/draw/lv_draw_blend.c ****                 }
 568              		.loc 1 275 44 view .LVU190
 569 00ac 03FB0AF3 		mul	r3, r3, r10
 274:Middlewares/lvgl/src/draw/lv_draw_blend.c ****                                            (uint32_t)((uint32_t)opa * mask_tmp[x]) >> 8);
 570              		.loc 1 274 21 view .LVU191
 571 00b0 1B0A     		lsrs	r3, r3, #8
 572 00b2 0293     		str	r3, [sp, #8]
 573 00b4 ADF80490 		strh	r9, [sp, #4]	@ movhi
 574 00b8 0FFA8BF3 		sxth	r3, fp
 575 00bc 0093     		str	r3, [sp]
 576 00be 23B2     		sxth	r3, r4
 577 00c0 059A     		ldr	r2, [sp, #20]
 578 00c2 0699     		ldr	r1, [sp, #24]
 579 00c4 B847     		blx	r7
 580              	.LVL53:
 581 00c6 E6E7     		b	.L33
 582              	.L38:
 278:Middlewares/lvgl/src/draw/lv_draw_blend.c ****         }
 583              		.loc 1 278 13 is_stmt 1 discriminator 2 view .LVU192
 278:Middlewares/lvgl/src/draw/lv_draw_blend.c ****         }
 584              		.loc 1 278 22 is_stmt 0 discriminator 2 view .LVU193
 585 00c8 079B     		ldr	r3, [sp, #28]
 586 00ca 1E44     		add	r6, r6, r3
 587              	.LVL54:
 271:Middlewares/lvgl/src/draw/lv_draw_blend.c ****             for(x = draw_area->x1; x <= draw_area->x2; x++) {
 588              		.loc 1 271 52 is_stmt 1 discriminator 2 view .LVU194
 271:Middlewares/lvgl/src/draw/lv_draw_blend.c ****             for(x = draw_area->x1; x <= draw_area->x2; x++) {
 589              		.loc 1 271 53 is_stmt 0 discriminator 2 view .LVU195
 590 00cc 0BF1010B 		add	fp, fp, #1
 591              	.LVL55:
 592              	.L31:
 271:Middlewares/lvgl/src/draw/lv_draw_blend.c ****             for(x = draw_area->x1; x <= draw_area->x2; x++) {
 593              		.loc 1 271 32 is_stmt 1 discriminator 1 view .LVU196
 271:Middlewares/lvgl/src/draw/lv_draw_blend.c ****             for(x = draw_area->x1; x <= draw_area->x2; x++) {
 594              		.loc 1 271 46 is_stmt 0 discriminator 1 view .LVU197
 595 00d0 B5F90630 		ldrsh	r3, [r5, #6]
 271:Middlewares/lvgl/src/draw/lv_draw_blend.c ****             for(x = draw_area->x1; x <= draw_area->x2; x++) {
 596              		.loc 1 271 9 discriminator 1 view .LVU198
 597 00d4 5B45     		cmp	r3, fp
 598 00d6 02DB     		blt	.L24
 272:Middlewares/lvgl/src/draw/lv_draw_blend.c ****                 if(mask_tmp[x]) {
 599              		.loc 1 272 13 is_stmt 1 view .LVU199
 272:Middlewares/lvgl/src/draw/lv_draw_blend.c ****                 if(mask_tmp[x]) {
 600              		.loc 1 272 30 is_stmt 0 view .LVU200
 601 00d8 B5F90040 		ldrsh	r4, [r5]
 602              	.LVL56:
 272:Middlewares/lvgl/src/draw/lv_draw_blend.c ****                 if(mask_tmp[x]) {
 603              		.loc 1 272 13 view .LVU201
 604 00dc DCE7     		b	.L32
 605              	.LVL57:
ARM GAS  /tmp/ccViN4Ah.s 			page 33


 606              	.L24:
 272:Middlewares/lvgl/src/draw/lv_draw_blend.c ****                 if(mask_tmp[x]) {
 607              		.loc 1 272 13 view .LVU202
 608              	.LBE84:
 281:Middlewares/lvgl/src/draw/lv_draw_blend.c **** 
 609              		.loc 1 281 1 view .LVU203
 610 00de 09B0     		add	sp, sp, #36
 611              	.LCFI5:
 612              		.cfi_def_cfa_offset 36
 613              		@ sp needed
 614 00e0 BDE8F08F 		pop	{r4, r5, r6, r7, r8, r9, r10, fp, pc}
 281:Middlewares/lvgl/src/draw/lv_draw_blend.c **** 
 615              		.loc 1 281 1 view .LVU204
 616              		.cfi_endproc
 617              	.LFE149:
 619              		.section	.text.map_set_px,"ax",%progbits
 620              		.align	1
 621              		.syntax unified
 622              		.thumb
 623              		.thumb_func
 624              		.fpu fpv4-sp-d16
 626              	map_set_px:
 627              	.LVL58:
 628              	.LFB152:
 596:Middlewares/lvgl/src/draw/lv_draw_blend.c ****     lv_disp_t * disp = _lv_refr_get_disp_refreshing();
 629              		.loc 1 596 1 is_stmt 1 view -0
 630              		.cfi_startproc
 631              		@ args = 16, pretend = 0, frame = 24
 632              		@ frame_needed = 0, uses_anonymous_args = 0
 596:Middlewares/lvgl/src/draw/lv_draw_blend.c ****     lv_disp_t * disp = _lv_refr_get_disp_refreshing();
 633              		.loc 1 596 1 is_stmt 0 view .LVU206
 634 0000 2DE9F04F 		push	{r4, r5, r6, r7, r8, r9, r10, fp, lr}
 635              	.LCFI6:
 636              		.cfi_def_cfa_offset 36
 637              		.cfi_offset 4, -36
 638              		.cfi_offset 5, -32
 639              		.cfi_offset 6, -28
 640              		.cfi_offset 7, -24
 641              		.cfi_offset 8, -20
 642              		.cfi_offset 9, -16
 643              		.cfi_offset 10, -12
 644              		.cfi_offset 11, -8
 645              		.cfi_offset 14, -4
 646 0004 8BB0     		sub	sp, sp, #44
 647              	.LCFI7:
 648              		.cfi_def_cfa_offset 80
 649 0006 0446     		mov	r4, r0
 650 0008 0691     		str	r1, [sp, #24]
 651 000a 1546     		mov	r5, r2
 652 000c 1E46     		mov	r6, r3
 653 000e 9DF854A0 		ldrb	r10, [sp, #84]	@ zero_extendqisi2
 597:Middlewares/lvgl/src/draw/lv_draw_blend.c **** 
 654              		.loc 1 597 5 is_stmt 1 view .LVU207
 597:Middlewares/lvgl/src/draw/lv_draw_blend.c **** 
 655              		.loc 1 597 24 is_stmt 0 view .LVU208
 656 0012 FFF7FEFF 		bl	_lv_refr_get_disp_refreshing
 657              	.LVL59:
ARM GAS  /tmp/ccViN4Ah.s 			page 34


 597:Middlewares/lvgl/src/draw/lv_draw_blend.c **** 
 658              		.loc 1 597 24 view .LVU209
 659 0016 8146     		mov	r9, r0
 660              	.LVL60:
 600:Middlewares/lvgl/src/draw/lv_draw_blend.c **** 
 661              		.loc 1 600 5 is_stmt 1 view .LVU210
 662              	.LBB85:
 663              	.LBI85:
 133:Middlewares/lvgl/src/draw/../misc/lv_area.h **** {
 664              		.loc 2 133 26 view .LVU211
 665              	.LBB86:
 666              		.loc 2 135 5 view .LVU212
 667              		.loc 2 135 31 is_stmt 0 view .LVU213
 668 0018 B4F80480 		ldrh	r8, [r4, #4]
 669              		.loc 2 135 44 view .LVU214
 670 001c B4F90000 		ldrsh	r0, [r4]
 671              	.LVL61:
 672              		.loc 2 135 44 view .LVU215
 673 0020 83B2     		uxth	r3, r0
 674              		.loc 2 135 36 view .LVU216
 675 0022 A8EB0308 		sub	r8, r8, r3
 676 0026 1FFA88F8 		uxth	r8, r8
 677              		.loc 2 135 49 view .LVU217
 678 002a 08F10108 		add	r8, r8, #1
 679              		.loc 2 135 12 view .LVU218
 680 002e 0FFA88F8 		sxth	r8, r8
 681              	.LVL62:
 682              		.loc 2 135 12 view .LVU219
 683              	.LBE86:
 684              	.LBE85:
 603:Middlewares/lvgl/src/draw/lv_draw_blend.c **** 
 685              		.loc 1 603 5 is_stmt 1 view .LVU220
 686              	.LBB87:
 687              	.LBI87:
 133:Middlewares/lvgl/src/draw/../misc/lv_area.h **** {
 688              		.loc 2 133 26 view .LVU221
 689              	.LBB88:
 690              		.loc 2 135 5 view .LVU222
 691              		.loc 2 135 31 is_stmt 0 view .LVU223
 692 0032 AB88     		ldrh	r3, [r5, #4]
 693              		.loc 2 135 44 view .LVU224
 694 0034 B5F90020 		ldrsh	r2, [r5]
 695 0038 91B2     		uxth	r1, r2
 696              		.loc 2 135 36 view .LVU225
 697 003a 5B1A     		subs	r3, r3, r1
 698 003c 9BB2     		uxth	r3, r3
 699              		.loc 2 135 49 view .LVU226
 700 003e 0133     		adds	r3, r3, #1
 701              		.loc 2 135 12 view .LVU227
 702 0040 1BB2     		sxth	r3, r3
 703 0042 0993     		str	r3, [sp, #36]
 704              	.LVL63:
 705              		.loc 2 135 12 view .LVU228
 706              	.LBE88:
 707              	.LBE87:
 606:Middlewares/lvgl/src/draw/lv_draw_blend.c **** 
 708              		.loc 1 606 5 is_stmt 1 view .LVU229
ARM GAS  /tmp/ccViN4Ah.s 			page 35


 709              	.LBB89:
 710              	.LBI89:
 133:Middlewares/lvgl/src/draw/../misc/lv_area.h **** {
 711              		.loc 2 133 26 view .LVU230
 712              	.LBB90:
 713              		.loc 2 135 5 view .LVU231
 714              		.loc 2 135 31 is_stmt 0 view .LVU232
 715 0044 B188     		ldrh	r1, [r6, #4]
 716              		.loc 2 135 44 view .LVU233
 717 0046 B6F90030 		ldrsh	r3, [r6]
 718 004a 9FB2     		uxth	r7, r3
 719              		.loc 2 135 36 view .LVU234
 720 004c C91B     		subs	r1, r1, r7
 721 004e 89B2     		uxth	r1, r1
 722              		.loc 2 135 49 view .LVU235
 723 0050 0131     		adds	r1, r1, #1
 724              		.loc 2 135 12 view .LVU236
 725 0052 0FB2     		sxth	r7, r1
 726 0054 0897     		str	r7, [sp, #32]
 727              	.LVL64:
 728              		.loc 2 135 12 view .LVU237
 729              	.LBE90:
 730              	.LBE89:
 609:Middlewares/lvgl/src/draw/lv_draw_blend.c **** 
 731              		.loc 1 609 5 is_stmt 1 view .LVU238
 609:Middlewares/lvgl/src/draw/lv_draw_blend.c **** 
 732              		.loc 1 609 66 is_stmt 0 view .LVU239
 733 0056 B5F90210 		ldrsh	r1, [r5, #2]
 734 005a 0591     		str	r1, [sp, #20]
 609:Middlewares/lvgl/src/draw/lv_draw_blend.c **** 
 735              		.loc 1 609 82 view .LVU240
 736 005c B6F90260 		ldrsh	r6, [r6, #2]
 737              	.LVL65:
 609:Middlewares/lvgl/src/draw/lv_draw_blend.c **** 
 738              		.loc 1 609 98 view .LVU241
 739 0060 B4F90210 		ldrsh	r1, [r4, #2]
 609:Middlewares/lvgl/src/draw/lv_draw_blend.c **** 
 740              		.loc 1 609 87 view .LVU242
 741 0064 761A     		subs	r6, r6, r1
 609:Middlewares/lvgl/src/draw/lv_draw_blend.c **** 
 742              		.loc 1 609 71 view .LVU243
 743 0066 0599     		ldr	r1, [sp, #20]
 744 0068 8E1B     		subs	r6, r1, r6
 745              	.LVL66:
 611:Middlewares/lvgl/src/draw/lv_draw_blend.c ****     map_buf_tmp -= draw_area->x1;
 746              		.loc 1 611 5 is_stmt 1 view .LVU244
 611:Middlewares/lvgl/src/draw/lv_draw_blend.c ****     map_buf_tmp -= draw_area->x1;
 747              		.loc 1 611 51 is_stmt 0 view .LVU245
 748 006a 1B1A     		subs	r3, r3, r0
 611:Middlewares/lvgl/src/draw/lv_draw_blend.c ****     map_buf_tmp -= draw_area->x1;
 749              		.loc 1 611 35 view .LVU246
 750 006c D31A     		subs	r3, r2, r3
 751              	.LVL67:
 612:Middlewares/lvgl/src/draw/lv_draw_blend.c ****     int32_t x;
 752              		.loc 1 612 5 is_stmt 1 view .LVU247
 612:Middlewares/lvgl/src/draw/lv_draw_blend.c ****     int32_t x;
 753              		.loc 1 612 17 is_stmt 0 view .LVU248
ARM GAS  /tmp/ccViN4Ah.s 			page 36


 754 006e 07FB0636 		mla	r6, r7, r6, r3
 755              	.LVL68:
 612:Middlewares/lvgl/src/draw/lv_draw_blend.c ****     int32_t x;
 756              		.loc 1 612 17 view .LVU249
 757 0072 B31A     		subs	r3, r6, r2
 758              	.LVL69:
 612:Middlewares/lvgl/src/draw/lv_draw_blend.c ****     int32_t x;
 759              		.loc 1 612 17 view .LVU250
 760 0074 149E     		ldr	r6, [sp, #80]
 761 0076 06EB4306 		add	r6, r6, r3, lsl #1
 762              	.LVL70:
 613:Middlewares/lvgl/src/draw/lv_draw_blend.c ****     int32_t y;
 763              		.loc 1 613 5 is_stmt 1 view .LVU251
 614:Middlewares/lvgl/src/draw/lv_draw_blend.c **** 
 764              		.loc 1 614 5 view .LVU252
 616:Middlewares/lvgl/src/draw/lv_draw_blend.c ****         for(y = draw_area->y1; y <= draw_area->y2; y++) {
 765              		.loc 1 616 5 view .LVU253
 616:Middlewares/lvgl/src/draw/lv_draw_blend.c ****         for(y = draw_area->y1; y <= draw_area->y2; y++) {
 766              		.loc 1 616 7 is_stmt 0 view .LVU254
 767 007a 9DF85C30 		ldrb	r3, [sp, #92]	@ zero_extendqisi2
 768 007e 012B     		cmp	r3, #1
 769 0080 07D0     		beq	.L53
 770              	.LBB91:
 628:Middlewares/lvgl/src/draw/lv_draw_blend.c **** 
 771              		.loc 1 628 9 is_stmt 1 view .LVU255
 628:Middlewares/lvgl/src/draw/lv_draw_blend.c **** 
 772              		.loc 1 628 26 is_stmt 0 view .LVU256
 773 0082 169F     		ldr	r7, [sp, #88]
 774              	.LVL71:
 628:Middlewares/lvgl/src/draw/lv_draw_blend.c **** 
 775              		.loc 1 628 26 view .LVU257
 776 0084 BF1A     		subs	r7, r7, r2
 777              	.LVL72:
 630:Middlewares/lvgl/src/draw/lv_draw_blend.c ****             for(x = draw_area->x1; x <= draw_area->x2; x++) {
 778              		.loc 1 630 9 is_stmt 1 view .LVU258
 630:Middlewares/lvgl/src/draw/lv_draw_blend.c ****             for(x = draw_area->x1; x <= draw_area->x2; x++) {
 779              		.loc 1 630 9 is_stmt 0 view .LVU259
 780 0086 B346     		mov	fp, r6
 781 0088 CDF81C80 		str	r8, [sp, #28]
 782 008c DDF81480 		ldr	r8, [sp, #20]
 783              	.LVL73:
 630:Middlewares/lvgl/src/draw/lv_draw_blend.c ****             for(x = draw_area->x1; x <= draw_area->x2; x++) {
 784              		.loc 1 630 9 view .LVU260
 785 0090 47E0     		b	.L46
 786              	.LVL74:
 787              	.L53:
 630:Middlewares/lvgl/src/draw/lv_draw_blend.c ****             for(x = draw_area->x1; x <= draw_area->x2; x++) {
 788              		.loc 1 630 9 view .LVU261
 789 0092 DDF818B0 		ldr	fp, [sp, #24]
 790              	.LBE91:
 791 0096 1AE0     		b	.L40
 792              	.LVL75:
 793              	.L43:
 619:Middlewares/lvgl/src/draw/lv_draw_blend.c ****             }
 794              		.loc 1 619 17 is_stmt 1 discriminator 3 view .LVU262
 619:Middlewares/lvgl/src/draw/lv_draw_blend.c ****             }
 795              		.loc 1 619 21 is_stmt 0 discriminator 3 view .LVU263
ARM GAS  /tmp/ccViN4Ah.s 			page 37


 796 0098 D9F80000 		ldr	r0, [r9]
 619:Middlewares/lvgl/src/draw/lv_draw_blend.c ****             }
 797              		.loc 1 619 29 discriminator 3 view .LVU264
 798 009c 4769     		ldr	r7, [r0, #20]
 619:Middlewares/lvgl/src/draw/lv_draw_blend.c ****             }
 799              		.loc 1 619 17 discriminator 3 view .LVU265
 800 009e CDF808A0 		str	r10, [sp, #8]
 801 00a2 36F81430 		ldrh	r3, [r6, r4, lsl #1]
 802 00a6 ADF80430 		strh	r3, [sp, #4]	@ movhi
 803 00aa BDF91430 		ldrsh	r3, [sp, #20]
 804 00ae 0093     		str	r3, [sp]
 805 00b0 23B2     		sxth	r3, r4
 806 00b2 4246     		mov	r2, r8
 807 00b4 5946     		mov	r1, fp
 808 00b6 B847     		blx	r7
 809              	.LVL76:
 618:Middlewares/lvgl/src/draw/lv_draw_blend.c ****                 disp->driver->set_px_cb(disp->driver, (void *)disp_buf, disp_w, x, y, map_buf_tmp[x
 810              		.loc 1 618 56 is_stmt 1 discriminator 3 view .LVU266
 618:Middlewares/lvgl/src/draw/lv_draw_blend.c ****                 disp->driver->set_px_cb(disp->driver, (void *)disp_buf, disp_w, x, y, map_buf_tmp[x
 811              		.loc 1 618 57 is_stmt 0 discriminator 3 view .LVU267
 812 00b8 0134     		adds	r4, r4, #1
 813              	.LVL77:
 814              	.L42:
 618:Middlewares/lvgl/src/draw/lv_draw_blend.c ****                 disp->driver->set_px_cb(disp->driver, (void *)disp_buf, disp_w, x, y, map_buf_tmp[x
 815              		.loc 1 618 36 is_stmt 1 discriminator 1 view .LVU268
 618:Middlewares/lvgl/src/draw/lv_draw_blend.c ****                 disp->driver->set_px_cb(disp->driver, (void *)disp_buf, disp_w, x, y, map_buf_tmp[x
 816              		.loc 1 618 50 is_stmt 0 discriminator 1 view .LVU269
 817 00ba B5F90430 		ldrsh	r3, [r5, #4]
 618:Middlewares/lvgl/src/draw/lv_draw_blend.c ****                 disp->driver->set_px_cb(disp->driver, (void *)disp_buf, disp_w, x, y, map_buf_tmp[x
 818              		.loc 1 618 13 discriminator 1 view .LVU270
 819 00be A342     		cmp	r3, r4
 820 00c0 EADA     		bge	.L43
 621:Middlewares/lvgl/src/draw/lv_draw_blend.c ****         }
 821              		.loc 1 621 13 is_stmt 1 discriminator 2 view .LVU271
 621:Middlewares/lvgl/src/draw/lv_draw_blend.c ****         }
 822              		.loc 1 621 25 is_stmt 0 discriminator 2 view .LVU272
 823 00c2 089B     		ldr	r3, [sp, #32]
 824 00c4 06EB4306 		add	r6, r6, r3, lsl #1
 825              	.LVL78:
 617:Middlewares/lvgl/src/draw/lv_draw_blend.c ****             for(x = draw_area->x1; x <= draw_area->x2; x++) {
 826              		.loc 1 617 52 is_stmt 1 discriminator 2 view .LVU273
 617:Middlewares/lvgl/src/draw/lv_draw_blend.c ****             for(x = draw_area->x1; x <= draw_area->x2; x++) {
 827              		.loc 1 617 53 is_stmt 0 discriminator 2 view .LVU274
 828 00c8 059B     		ldr	r3, [sp, #20]
 829 00ca 0133     		adds	r3, r3, #1
 830 00cc 0593     		str	r3, [sp, #20]
 831              	.LVL79:
 832              	.L40:
 617:Middlewares/lvgl/src/draw/lv_draw_blend.c ****             for(x = draw_area->x1; x <= draw_area->x2; x++) {
 833              		.loc 1 617 32 is_stmt 1 discriminator 1 view .LVU275
 617:Middlewares/lvgl/src/draw/lv_draw_blend.c ****             for(x = draw_area->x1; x <= draw_area->x2; x++) {
 834              		.loc 1 617 46 is_stmt 0 discriminator 1 view .LVU276
 835 00ce B5F90630 		ldrsh	r3, [r5, #6]
 617:Middlewares/lvgl/src/draw/lv_draw_blend.c ****             for(x = draw_area->x1; x <= draw_area->x2; x++) {
 836              		.loc 1 617 9 discriminator 1 view .LVU277
 837 00d2 059A     		ldr	r2, [sp, #20]
 838 00d4 9342     		cmp	r3, r2
ARM GAS  /tmp/ccViN4Ah.s 			page 38


 839 00d6 2BDB     		blt	.L39
 618:Middlewares/lvgl/src/draw/lv_draw_blend.c ****                 disp->driver->set_px_cb(disp->driver, (void *)disp_buf, disp_w, x, y, map_buf_tmp[x
 840              		.loc 1 618 13 is_stmt 1 view .LVU278
 618:Middlewares/lvgl/src/draw/lv_draw_blend.c ****                 disp->driver->set_px_cb(disp->driver, (void *)disp_buf, disp_w, x, y, map_buf_tmp[x
 841              		.loc 1 618 30 is_stmt 0 view .LVU279
 842 00d8 B5F90040 		ldrsh	r4, [r5]
 843              	.LVL80:
 618:Middlewares/lvgl/src/draw/lv_draw_blend.c ****                 disp->driver->set_px_cb(disp->driver, (void *)disp_buf, disp_w, x, y, map_buf_tmp[x
 844              		.loc 1 618 13 view .LVU280
 845 00dc EDE7     		b	.L42
 846              	.LVL81:
 847              	.L48:
 848              	.LBB92:
 631:Middlewares/lvgl/src/draw/lv_draw_blend.c ****                 if(mask_tmp[x]) {
 849              		.loc 1 631 56 is_stmt 1 discriminator 2 view .LVU281
 631:Middlewares/lvgl/src/draw/lv_draw_blend.c ****                 if(mask_tmp[x]) {
 850              		.loc 1 631 57 is_stmt 0 discriminator 2 view .LVU282
 851 00de 0134     		adds	r4, r4, #1
 852              	.LVL82:
 853              	.L47:
 631:Middlewares/lvgl/src/draw/lv_draw_blend.c ****                 if(mask_tmp[x]) {
 854              		.loc 1 631 36 is_stmt 1 discriminator 1 view .LVU283
 631:Middlewares/lvgl/src/draw/lv_draw_blend.c ****                 if(mask_tmp[x]) {
 855              		.loc 1 631 50 is_stmt 0 discriminator 1 view .LVU284
 856 00e0 B5F90430 		ldrsh	r3, [r5, #4]
 631:Middlewares/lvgl/src/draw/lv_draw_blend.c ****                 if(mask_tmp[x]) {
 857              		.loc 1 631 13 discriminator 1 view .LVU285
 858 00e4 A342     		cmp	r3, r4
 859 00e6 15DB     		blt	.L54
 632:Middlewares/lvgl/src/draw/lv_draw_blend.c ****                     disp->driver->set_px_cb(disp->driver, (void *)disp_buf, disp_w, x, y, map_buf_t
 860              		.loc 1 632 17 is_stmt 1 view .LVU286
 632:Middlewares/lvgl/src/draw/lv_draw_blend.c ****                     disp->driver->set_px_cb(disp->driver, (void *)disp_buf, disp_w, x, y, map_buf_t
 861              		.loc 1 632 28 is_stmt 0 view .LVU287
 862 00e8 3B5D     		ldrb	r3, [r7, r4]	@ zero_extendqisi2
 632:Middlewares/lvgl/src/draw/lv_draw_blend.c ****                     disp->driver->set_px_cb(disp->driver, (void *)disp_buf, disp_w, x, y, map_buf_t
 863              		.loc 1 632 19 view .LVU288
 864 00ea 002B     		cmp	r3, #0
 865 00ec F7D0     		beq	.L48
 633:Middlewares/lvgl/src/draw/lv_draw_blend.c ****                                            (uint32_t)((uint32_t)opa * mask_tmp[x]) >> 8);
 866              		.loc 1 633 21 is_stmt 1 view .LVU289
 633:Middlewares/lvgl/src/draw/lv_draw_blend.c ****                                            (uint32_t)((uint32_t)opa * mask_tmp[x]) >> 8);
 867              		.loc 1 633 25 is_stmt 0 view .LVU290
 868 00ee D9F80000 		ldr	r0, [r9]
 633:Middlewares/lvgl/src/draw/lv_draw_blend.c ****                                            (uint32_t)((uint32_t)opa * mask_tmp[x]) >> 8);
 869              		.loc 1 633 33 view .LVU291
 870 00f2 4669     		ldr	r6, [r0, #20]
 634:Middlewares/lvgl/src/draw/lv_draw_blend.c ****                 }
 871              		.loc 1 634 44 view .LVU292
 872 00f4 03FB0AF3 		mul	r3, r3, r10
 633:Middlewares/lvgl/src/draw/lv_draw_blend.c ****                                            (uint32_t)((uint32_t)opa * mask_tmp[x]) >> 8);
 873              		.loc 1 633 21 view .LVU293
 874 00f8 1B0A     		lsrs	r3, r3, #8
 875 00fa 0293     		str	r3, [sp, #8]
 876 00fc 3BF81430 		ldrh	r3, [fp, r4, lsl #1]
 877 0100 ADF80430 		strh	r3, [sp, #4]	@ movhi
 878 0104 0FFA88F3 		sxth	r3, r8
 879 0108 0093     		str	r3, [sp]
ARM GAS  /tmp/ccViN4Ah.s 			page 39


 880 010a 23B2     		sxth	r3, r4
 881 010c 079A     		ldr	r2, [sp, #28]
 882 010e 0699     		ldr	r1, [sp, #24]
 883 0110 B047     		blx	r6
 884              	.LVL83:
 885 0112 E4E7     		b	.L48
 886              	.L54:
 637:Middlewares/lvgl/src/draw/lv_draw_blend.c ****             map_buf_tmp += map_w;
 887              		.loc 1 637 13 is_stmt 1 discriminator 2 view .LVU294
 637:Middlewares/lvgl/src/draw/lv_draw_blend.c ****             map_buf_tmp += map_w;
 888              		.loc 1 637 22 is_stmt 0 discriminator 2 view .LVU295
 889 0114 099B     		ldr	r3, [sp, #36]
 890 0116 1F44     		add	r7, r7, r3
 891              	.LVL84:
 638:Middlewares/lvgl/src/draw/lv_draw_blend.c ****         }
 892              		.loc 1 638 13 is_stmt 1 discriminator 2 view .LVU296
 638:Middlewares/lvgl/src/draw/lv_draw_blend.c ****         }
 893              		.loc 1 638 25 is_stmt 0 discriminator 2 view .LVU297
 894 0118 089B     		ldr	r3, [sp, #32]
 895 011a 0BEB430B 		add	fp, fp, r3, lsl #1
 896              	.LVL85:
 630:Middlewares/lvgl/src/draw/lv_draw_blend.c ****             for(x = draw_area->x1; x <= draw_area->x2; x++) {
 897              		.loc 1 630 52 is_stmt 1 discriminator 2 view .LVU298
 630:Middlewares/lvgl/src/draw/lv_draw_blend.c ****             for(x = draw_area->x1; x <= draw_area->x2; x++) {
 898              		.loc 1 630 53 is_stmt 0 discriminator 2 view .LVU299
 899 011e 08F10108 		add	r8, r8, #1
 900              	.LVL86:
 901              	.L46:
 630:Middlewares/lvgl/src/draw/lv_draw_blend.c ****             for(x = draw_area->x1; x <= draw_area->x2; x++) {
 902              		.loc 1 630 32 is_stmt 1 discriminator 1 view .LVU300
 630:Middlewares/lvgl/src/draw/lv_draw_blend.c ****             for(x = draw_area->x1; x <= draw_area->x2; x++) {
 903              		.loc 1 630 46 is_stmt 0 discriminator 1 view .LVU301
 904 0122 B5F90630 		ldrsh	r3, [r5, #6]
 630:Middlewares/lvgl/src/draw/lv_draw_blend.c ****             for(x = draw_area->x1; x <= draw_area->x2; x++) {
 905              		.loc 1 630 9 discriminator 1 view .LVU302
 906 0126 4345     		cmp	r3, r8
 907 0128 02DB     		blt	.L39
 631:Middlewares/lvgl/src/draw/lv_draw_blend.c ****                 if(mask_tmp[x]) {
 908              		.loc 1 631 13 is_stmt 1 view .LVU303
 631:Middlewares/lvgl/src/draw/lv_draw_blend.c ****                 if(mask_tmp[x]) {
 909              		.loc 1 631 30 is_stmt 0 view .LVU304
 910 012a B5F90040 		ldrsh	r4, [r5]
 911              	.LVL87:
 631:Middlewares/lvgl/src/draw/lv_draw_blend.c ****                 if(mask_tmp[x]) {
 912              		.loc 1 631 13 view .LVU305
 913 012e D7E7     		b	.L47
 914              	.LVL88:
 915              	.L39:
 631:Middlewares/lvgl/src/draw/lv_draw_blend.c ****                 if(mask_tmp[x]) {
 916              		.loc 1 631 13 view .LVU306
 917              	.LBE92:
 641:Middlewares/lvgl/src/draw/lv_draw_blend.c **** 
 918              		.loc 1 641 1 view .LVU307
 919 0130 0BB0     		add	sp, sp, #44
 920              	.LCFI8:
 921              		.cfi_def_cfa_offset 36
 922              		@ sp needed
ARM GAS  /tmp/ccViN4Ah.s 			page 40


 923 0132 BDE8F08F 		pop	{r4, r5, r6, r7, r8, r9, r10, fp, pc}
 641:Middlewares/lvgl/src/draw/lv_draw_blend.c **** 
 924              		.loc 1 641 1 view .LVU308
 925              		.cfi_endproc
 926              	.LFE152:
 928              		.section	.text.color_blend_true_color_additive,"ax",%progbits
 929              		.align	1
 930              		.syntax unified
 931              		.thumb
 932              		.thumb_func
 933              		.fpu fpv4-sp-d16
 935              	color_blend_true_color_additive:
 936              	.LVL89:
 937              	.LFB155:
 975:Middlewares/lvgl/src/draw/lv_draw_blend.c **** 
 976:Middlewares/lvgl/src/draw/lv_draw_blend.c **** static inline lv_color_t color_blend_true_color_additive(lv_color_t fg, lv_color_t bg, lv_opa_t opa
 977:Middlewares/lvgl/src/draw/lv_draw_blend.c **** {
 938              		.loc 1 977 1 is_stmt 1 view -0
 939              		.cfi_startproc
 940              		@ args = 0, pretend = 0, frame = 0
 941              		@ frame_needed = 0, uses_anonymous_args = 0
 978:Middlewares/lvgl/src/draw/lv_draw_blend.c ****     uint32_t tmp;
 942              		.loc 1 978 5 view .LVU310
 979:Middlewares/lvgl/src/draw/lv_draw_blend.c **** #if LV_COLOR_DEPTH == 1
 980:Middlewares/lvgl/src/draw/lv_draw_blend.c ****     tmp = bg.full + fg.full;
 981:Middlewares/lvgl/src/draw/lv_draw_blend.c ****     fg.full = LV_MIN(tmp, 1);
 982:Middlewares/lvgl/src/draw/lv_draw_blend.c **** #else
 983:Middlewares/lvgl/src/draw/lv_draw_blend.c ****     tmp = bg.ch.red + fg.ch.red;
 943              		.loc 1 983 5 view .LVU311
 944              		.loc 1 983 16 is_stmt 0 view .LVU312
 945 0000 C1F3C423 		ubfx	r3, r1, #11, #5
 946              		.loc 1 983 28 view .LVU313
 947 0004 C0F3C42C 		ubfx	ip, r0, #11, #5
 948              		.loc 1 983 21 view .LVU314
 949 0008 6344     		add	r3, r3, ip
 950              	.LVL90:
 984:Middlewares/lvgl/src/draw/lv_draw_blend.c **** #if LV_COLOR_DEPTH == 8
 985:Middlewares/lvgl/src/draw/lv_draw_blend.c ****     fg.ch.red = LV_MIN(tmp, 7);
 986:Middlewares/lvgl/src/draw/lv_draw_blend.c **** #elif LV_COLOR_DEPTH == 16
 987:Middlewares/lvgl/src/draw/lv_draw_blend.c ****     fg.ch.red = LV_MIN(tmp, 31);
 951              		.loc 1 987 5 is_stmt 1 view .LVU315
 952              		.loc 1 987 17 is_stmt 0 view .LVU316
 953 000a 1F2B     		cmp	r3, #31
 954 000c 28BF     		it	cs
 955 000e 1F23     		movcs	r3, #31
 956              	.LVL91:
 957              		.loc 1 987 15 view .LVU317
 958 0010 63F3CF20 		bfi	r0, r3, #11, #5
 988:Middlewares/lvgl/src/draw/lv_draw_blend.c **** #elif LV_COLOR_DEPTH == 32
 989:Middlewares/lvgl/src/draw/lv_draw_blend.c ****     fg.ch.red = LV_MIN(tmp, 255);
 990:Middlewares/lvgl/src/draw/lv_draw_blend.c **** #endif
 991:Middlewares/lvgl/src/draw/lv_draw_blend.c **** 
 992:Middlewares/lvgl/src/draw/lv_draw_blend.c **** #if LV_COLOR_DEPTH == 8
 993:Middlewares/lvgl/src/draw/lv_draw_blend.c ****     tmp = bg.ch.green + fg.ch.green;
 994:Middlewares/lvgl/src/draw/lv_draw_blend.c ****     fg.ch.green = LV_MIN(tmp, 7);
 995:Middlewares/lvgl/src/draw/lv_draw_blend.c **** #elif LV_COLOR_DEPTH == 16
 996:Middlewares/lvgl/src/draw/lv_draw_blend.c **** #if LV_COLOR_16_SWAP == 0
ARM GAS  /tmp/ccViN4Ah.s 			page 41


 997:Middlewares/lvgl/src/draw/lv_draw_blend.c ****     tmp = bg.ch.green + fg.ch.green;
 959              		.loc 1 997 5 is_stmt 1 view .LVU318
 960              		.loc 1 997 16 is_stmt 0 view .LVU319
 961 0014 C1F34513 		ubfx	r3, r1, #5, #6
 962              		.loc 1 997 30 view .LVU320
 963 0018 C0F3451C 		ubfx	ip, r0, #5, #6
 964              	.LVL92:
 965              		.loc 1 997 23 view .LVU321
 966 001c 6344     		add	r3, r3, ip
 967              	.LVL93:
 998:Middlewares/lvgl/src/draw/lv_draw_blend.c ****     fg.ch.green = LV_MIN(tmp, 63);
 968              		.loc 1 998 5 is_stmt 1 view .LVU322
 969              		.loc 1 998 19 is_stmt 0 view .LVU323
 970 001e 3F2B     		cmp	r3, #63
 971 0020 28BF     		it	cs
 972 0022 3F23     		movcs	r3, #63
 973              	.LVL94:
 974              		.loc 1 998 17 view .LVU324
 975 0024 63F34A10 		bfi	r0, r3, #5, #6
 999:Middlewares/lvgl/src/draw/lv_draw_blend.c **** #else
1000:Middlewares/lvgl/src/draw/lv_draw_blend.c ****     tmp = (bg.ch.green_h << 3) + bg.ch.green_l + (fg.ch.green_h << 3) + fg.ch.green_l;
1001:Middlewares/lvgl/src/draw/lv_draw_blend.c ****     tmp = LV_MIN(tmp, 63);
1002:Middlewares/lvgl/src/draw/lv_draw_blend.c ****     fg.ch.green_h = tmp >> 3;
1003:Middlewares/lvgl/src/draw/lv_draw_blend.c ****     fg.ch.green_l = tmp & 0x7;
1004:Middlewares/lvgl/src/draw/lv_draw_blend.c **** #endif
1005:Middlewares/lvgl/src/draw/lv_draw_blend.c **** 
1006:Middlewares/lvgl/src/draw/lv_draw_blend.c **** #elif LV_COLOR_DEPTH == 32
1007:Middlewares/lvgl/src/draw/lv_draw_blend.c ****     tmp = bg.ch.green + fg.ch.green;
1008:Middlewares/lvgl/src/draw/lv_draw_blend.c ****     fg.ch.green = LV_MIN(tmp, 255);
1009:Middlewares/lvgl/src/draw/lv_draw_blend.c **** #endif
1010:Middlewares/lvgl/src/draw/lv_draw_blend.c **** 
1011:Middlewares/lvgl/src/draw/lv_draw_blend.c ****     tmp = bg.ch.blue + fg.ch.blue;
 976              		.loc 1 1011 5 is_stmt 1 view .LVU325
 977              		.loc 1 1011 16 is_stmt 0 view .LVU326
 978 0028 01F01F03 		and	r3, r1, #31
 979              		.loc 1 1011 29 view .LVU327
 980 002c 00F01F0C 		and	ip, r0, #31
 981              	.LVL95:
 982              		.loc 1 1011 22 view .LVU328
 983 0030 6344     		add	r3, r3, ip
 984              	.LVL96:
1012:Middlewares/lvgl/src/draw/lv_draw_blend.c **** #if LV_COLOR_DEPTH == 8
1013:Middlewares/lvgl/src/draw/lv_draw_blend.c ****     fg.ch.blue = LV_MIN(tmp, 4);
1014:Middlewares/lvgl/src/draw/lv_draw_blend.c **** #elif LV_COLOR_DEPTH == 16
1015:Middlewares/lvgl/src/draw/lv_draw_blend.c ****     fg.ch.blue = LV_MIN(tmp, 31);
 985              		.loc 1 1015 5 is_stmt 1 view .LVU329
 986              		.loc 1 1015 18 is_stmt 0 view .LVU330
 987 0032 1F2B     		cmp	r3, #31
 988 0034 28BF     		it	cs
 989 0036 1F23     		movcs	r3, #31
 990              	.LVL97:
 991              		.loc 1 1015 16 view .LVU331
 992 0038 63F30400 		bfi	r0, r3, #0, #5
1016:Middlewares/lvgl/src/draw/lv_draw_blend.c **** #elif LV_COLOR_DEPTH == 32
1017:Middlewares/lvgl/src/draw/lv_draw_blend.c ****     fg.ch.blue = LV_MIN(tmp, 255);
1018:Middlewares/lvgl/src/draw/lv_draw_blend.c **** #endif
1019:Middlewares/lvgl/src/draw/lv_draw_blend.c **** #endif
ARM GAS  /tmp/ccViN4Ah.s 			page 42


1020:Middlewares/lvgl/src/draw/lv_draw_blend.c **** 
1021:Middlewares/lvgl/src/draw/lv_draw_blend.c ****     if(opa == LV_OPA_COVER) return fg;
 993              		.loc 1 1021 5 is_stmt 1 view .LVU332
 994              		.loc 1 1021 7 is_stmt 0 view .LVU333
 995 003c FF2A     		cmp	r2, #255
 996 003e 3BD0     		beq	.L59
 977:Middlewares/lvgl/src/draw/lv_draw_blend.c ****     uint32_t tmp;
 997              		.loc 1 977 1 view .LVU334
 998 0040 10B5     		push	{r4, lr}
 999              	.LCFI9:
 1000              		.cfi_def_cfa_offset 8
 1001              		.cfi_offset 4, -8
 1002              		.cfi_offset 14, -4
1022:Middlewares/lvgl/src/draw/lv_draw_blend.c **** 
1023:Middlewares/lvgl/src/draw/lv_draw_blend.c ****     return lv_color_mix(fg, bg, opa);
 1003              		.loc 1 1023 5 is_stmt 1 view .LVU335
 1004              	.LVL98:
 1005              	.LBB95:
 1006              	.LBI95:
 1007              		.file 3 "Middlewares/lvgl/src/draw/../misc/lv_color.h"
   1:Middlewares/lvgl/src/draw/../misc/lv_color.h **** /**
   2:Middlewares/lvgl/src/draw/../misc/lv_color.h ****  * @file lv_color.h
   3:Middlewares/lvgl/src/draw/../misc/lv_color.h ****  *
   4:Middlewares/lvgl/src/draw/../misc/lv_color.h ****  */
   5:Middlewares/lvgl/src/draw/../misc/lv_color.h **** 
   6:Middlewares/lvgl/src/draw/../misc/lv_color.h **** #ifndef LV_COLOR_H
   7:Middlewares/lvgl/src/draw/../misc/lv_color.h **** #define LV_COLOR_H
   8:Middlewares/lvgl/src/draw/../misc/lv_color.h **** 
   9:Middlewares/lvgl/src/draw/../misc/lv_color.h **** #ifdef __cplusplus
  10:Middlewares/lvgl/src/draw/../misc/lv_color.h **** extern "C" {
  11:Middlewares/lvgl/src/draw/../misc/lv_color.h **** #endif
  12:Middlewares/lvgl/src/draw/../misc/lv_color.h **** 
  13:Middlewares/lvgl/src/draw/../misc/lv_color.h **** /*********************
  14:Middlewares/lvgl/src/draw/../misc/lv_color.h ****  *      INCLUDES
  15:Middlewares/lvgl/src/draw/../misc/lv_color.h ****  *********************/
  16:Middlewares/lvgl/src/draw/../misc/lv_color.h **** #include "../lv_conf_internal.h"
  17:Middlewares/lvgl/src/draw/../misc/lv_color.h **** #include "lv_math.h"
  18:Middlewares/lvgl/src/draw/../misc/lv_color.h **** #include "lv_types.h"
  19:Middlewares/lvgl/src/draw/../misc/lv_color.h **** 
  20:Middlewares/lvgl/src/draw/../misc/lv_color.h **** /*Error checking*/
  21:Middlewares/lvgl/src/draw/../misc/lv_color.h **** #if LV_COLOR_DEPTH == 24
  22:Middlewares/lvgl/src/draw/../misc/lv_color.h **** #error "LV_COLOR_DEPTH 24 is deprecated. Use LV_COLOR_DEPTH 32 instead (lv_conf.h)"
  23:Middlewares/lvgl/src/draw/../misc/lv_color.h **** #endif
  24:Middlewares/lvgl/src/draw/../misc/lv_color.h **** 
  25:Middlewares/lvgl/src/draw/../misc/lv_color.h **** #if LV_COLOR_DEPTH != 32 && LV_COLOR_SCREEN_TRANSP != 0
  26:Middlewares/lvgl/src/draw/../misc/lv_color.h **** #error "LV_COLOR_SCREEN_TRANSP requires LV_COLOR_DEPTH == 32. Set it in lv_conf.h"
  27:Middlewares/lvgl/src/draw/../misc/lv_color.h **** #endif
  28:Middlewares/lvgl/src/draw/../misc/lv_color.h **** 
  29:Middlewares/lvgl/src/draw/../misc/lv_color.h **** #if LV_COLOR_DEPTH != 16 && LV_COLOR_16_SWAP != 0
  30:Middlewares/lvgl/src/draw/../misc/lv_color.h **** #error "LV_COLOR_16_SWAP requires LV_COLOR_DEPTH == 16. Set it in lv_conf.h"
  31:Middlewares/lvgl/src/draw/../misc/lv_color.h **** #endif
  32:Middlewares/lvgl/src/draw/../misc/lv_color.h **** 
  33:Middlewares/lvgl/src/draw/../misc/lv_color.h **** #include <stdint.h>
  34:Middlewares/lvgl/src/draw/../misc/lv_color.h **** 
  35:Middlewares/lvgl/src/draw/../misc/lv_color.h **** /*********************
  36:Middlewares/lvgl/src/draw/../misc/lv_color.h ****  *      DEFINES
  37:Middlewares/lvgl/src/draw/../misc/lv_color.h ****  *********************/
ARM GAS  /tmp/ccViN4Ah.s 			page 43


  38:Middlewares/lvgl/src/draw/../misc/lv_color.h **** 
  39:Middlewares/lvgl/src/draw/../misc/lv_color.h **** /**
  40:Middlewares/lvgl/src/draw/../misc/lv_color.h ****  * Opacity percentages.
  41:Middlewares/lvgl/src/draw/../misc/lv_color.h ****  */
  42:Middlewares/lvgl/src/draw/../misc/lv_color.h **** enum {
  43:Middlewares/lvgl/src/draw/../misc/lv_color.h ****     LV_OPA_TRANSP = 0,
  44:Middlewares/lvgl/src/draw/../misc/lv_color.h ****     LV_OPA_0      = 0,
  45:Middlewares/lvgl/src/draw/../misc/lv_color.h ****     LV_OPA_10     = 25,
  46:Middlewares/lvgl/src/draw/../misc/lv_color.h ****     LV_OPA_20     = 51,
  47:Middlewares/lvgl/src/draw/../misc/lv_color.h ****     LV_OPA_30     = 76,
  48:Middlewares/lvgl/src/draw/../misc/lv_color.h ****     LV_OPA_40     = 102,
  49:Middlewares/lvgl/src/draw/../misc/lv_color.h ****     LV_OPA_50     = 127,
  50:Middlewares/lvgl/src/draw/../misc/lv_color.h ****     LV_OPA_60     = 153,
  51:Middlewares/lvgl/src/draw/../misc/lv_color.h ****     LV_OPA_70     = 178,
  52:Middlewares/lvgl/src/draw/../misc/lv_color.h ****     LV_OPA_80     = 204,
  53:Middlewares/lvgl/src/draw/../misc/lv_color.h ****     LV_OPA_90     = 229,
  54:Middlewares/lvgl/src/draw/../misc/lv_color.h ****     LV_OPA_100    = 255,
  55:Middlewares/lvgl/src/draw/../misc/lv_color.h ****     LV_OPA_COVER  = 255,
  56:Middlewares/lvgl/src/draw/../misc/lv_color.h **** };
  57:Middlewares/lvgl/src/draw/../misc/lv_color.h **** 
  58:Middlewares/lvgl/src/draw/../misc/lv_color.h **** #define LV_OPA_MIN 2    /*Opacities below this will be transparent*/
  59:Middlewares/lvgl/src/draw/../misc/lv_color.h **** #define LV_OPA_MAX 253  /*Opacities above this will fully cover*/
  60:Middlewares/lvgl/src/draw/../misc/lv_color.h **** 
  61:Middlewares/lvgl/src/draw/../misc/lv_color.h **** #if LV_COLOR_DEPTH == 1
  62:Middlewares/lvgl/src/draw/../misc/lv_color.h **** #define LV_COLOR_SIZE 8
  63:Middlewares/lvgl/src/draw/../misc/lv_color.h **** #elif LV_COLOR_DEPTH == 8
  64:Middlewares/lvgl/src/draw/../misc/lv_color.h **** #define LV_COLOR_SIZE 8
  65:Middlewares/lvgl/src/draw/../misc/lv_color.h **** #elif LV_COLOR_DEPTH == 16
  66:Middlewares/lvgl/src/draw/../misc/lv_color.h **** #define LV_COLOR_SIZE 16
  67:Middlewares/lvgl/src/draw/../misc/lv_color.h **** #elif LV_COLOR_DEPTH == 32
  68:Middlewares/lvgl/src/draw/../misc/lv_color.h **** #define LV_COLOR_SIZE 32
  69:Middlewares/lvgl/src/draw/../misc/lv_color.h **** #else
  70:Middlewares/lvgl/src/draw/../misc/lv_color.h **** #error "Invalid LV_COLOR_DEPTH in lv_conf.h! Set it to 1, 8, 16 or 32!"
  71:Middlewares/lvgl/src/draw/../misc/lv_color.h **** #endif
  72:Middlewares/lvgl/src/draw/../misc/lv_color.h **** 
  73:Middlewares/lvgl/src/draw/../misc/lv_color.h **** /**
  74:Middlewares/lvgl/src/draw/../misc/lv_color.h ****  * Adjust color mix functions rounding.
  75:Middlewares/lvgl/src/draw/../misc/lv_color.h ****  * GPUs might calculate color mix (blending) differently.
  76:Middlewares/lvgl/src/draw/../misc/lv_color.h ****  * Should be in range of 0..254
  77:Middlewares/lvgl/src/draw/../misc/lv_color.h ****  * 0: no adjustment, get the integer part of the result (round down)
  78:Middlewares/lvgl/src/draw/../misc/lv_color.h ****  * 64: round up from x.75
  79:Middlewares/lvgl/src/draw/../misc/lv_color.h ****  * 128: round up from half
  80:Middlewares/lvgl/src/draw/../misc/lv_color.h ****  * 192: round up from x.25
  81:Middlewares/lvgl/src/draw/../misc/lv_color.h ****  * 254: round up*/
  82:Middlewares/lvgl/src/draw/../misc/lv_color.h **** #ifndef LV_COLOR_MIX_ROUND_OFS
  83:Middlewares/lvgl/src/draw/../misc/lv_color.h **** #if LV_COLOR_DEPTH == 32
  84:Middlewares/lvgl/src/draw/../misc/lv_color.h **** #define LV_COLOR_MIX_ROUND_OFS 0
  85:Middlewares/lvgl/src/draw/../misc/lv_color.h **** #else
  86:Middlewares/lvgl/src/draw/../misc/lv_color.h **** #define LV_COLOR_MIX_ROUND_OFS 128
  87:Middlewares/lvgl/src/draw/../misc/lv_color.h **** #endif
  88:Middlewares/lvgl/src/draw/../misc/lv_color.h **** #endif
  89:Middlewares/lvgl/src/draw/../misc/lv_color.h **** 
  90:Middlewares/lvgl/src/draw/../misc/lv_color.h **** #if defined(__cplusplus) && !defined(_LV_COLOR_HAS_MODERN_CPP)
  91:Middlewares/lvgl/src/draw/../misc/lv_color.h **** /**
  92:Middlewares/lvgl/src/draw/../misc/lv_color.h **** * MSVC compiler's definition of the __cplusplus indicating 199711L regardless to C++ standard versi
  93:Middlewares/lvgl/src/draw/../misc/lv_color.h **** * see https://devblogs.microsoft.com/cppblog/msvc-now-correctly-reports-cplusplus
  94:Middlewares/lvgl/src/draw/../misc/lv_color.h **** * so we use _MSC_VER macro instead of __cplusplus
ARM GAS  /tmp/ccViN4Ah.s 			page 44


  95:Middlewares/lvgl/src/draw/../misc/lv_color.h **** */
  96:Middlewares/lvgl/src/draw/../misc/lv_color.h **** #ifdef _MSC_VER
  97:Middlewares/lvgl/src/draw/../misc/lv_color.h **** #if _MSC_VER >= 1900 /*Visual Studio 2015*/
  98:Middlewares/lvgl/src/draw/../misc/lv_color.h **** #define _LV_COLOR_HAS_MODERN_CPP 1
  99:Middlewares/lvgl/src/draw/../misc/lv_color.h **** #endif
 100:Middlewares/lvgl/src/draw/../misc/lv_color.h **** #else
 101:Middlewares/lvgl/src/draw/../misc/lv_color.h **** #if __cplusplus >= 201103L
 102:Middlewares/lvgl/src/draw/../misc/lv_color.h **** #define _LV_COLOR_HAS_MODERN_CPP 1
 103:Middlewares/lvgl/src/draw/../misc/lv_color.h **** #endif
 104:Middlewares/lvgl/src/draw/../misc/lv_color.h **** #endif
 105:Middlewares/lvgl/src/draw/../misc/lv_color.h **** #endif /*__cplusplus*/
 106:Middlewares/lvgl/src/draw/../misc/lv_color.h **** 
 107:Middlewares/lvgl/src/draw/../misc/lv_color.h **** #ifndef _LV_COLOR_HAS_MODERN_CPP
 108:Middlewares/lvgl/src/draw/../misc/lv_color.h **** #define _LV_COLOR_HAS_MODERN_CPP 0
 109:Middlewares/lvgl/src/draw/../misc/lv_color.h **** #endif
 110:Middlewares/lvgl/src/draw/../misc/lv_color.h **** 
 111:Middlewares/lvgl/src/draw/../misc/lv_color.h **** #if _LV_COLOR_HAS_MODERN_CPP
 112:Middlewares/lvgl/src/draw/../misc/lv_color.h **** /*Fix msvc compiler error C4576 inside C++ code*/
 113:Middlewares/lvgl/src/draw/../misc/lv_color.h **** #define _LV_COLOR_MAKE_TYPE_HELPER lv_color_t
 114:Middlewares/lvgl/src/draw/../misc/lv_color.h **** #else
 115:Middlewares/lvgl/src/draw/../misc/lv_color.h **** #define _LV_COLOR_MAKE_TYPE_HELPER (lv_color_t)
 116:Middlewares/lvgl/src/draw/../misc/lv_color.h **** #endif
 117:Middlewares/lvgl/src/draw/../misc/lv_color.h **** 
 118:Middlewares/lvgl/src/draw/../misc/lv_color.h **** /*---------------------------------------
 119:Middlewares/lvgl/src/draw/../misc/lv_color.h ****  * Macros for all existing color depths
 120:Middlewares/lvgl/src/draw/../misc/lv_color.h ****  * to set/get values of the color channels
 121:Middlewares/lvgl/src/draw/../misc/lv_color.h ****  *------------------------------------------*/
 122:Middlewares/lvgl/src/draw/../misc/lv_color.h **** # define LV_COLOR_SET_R1(c, v) (c).ch.red = (uint8_t)((v) & 0x1)
 123:Middlewares/lvgl/src/draw/../misc/lv_color.h **** # define LV_COLOR_SET_G1(c, v) (c).ch.green = (uint8_t)((v) & 0x1)
 124:Middlewares/lvgl/src/draw/../misc/lv_color.h **** # define LV_COLOR_SET_B1(c, v) (c).ch.blue = (uint8_t)((v) & 0x1)
 125:Middlewares/lvgl/src/draw/../misc/lv_color.h **** # define LV_COLOR_SET_A1(c, v) do {} while(0)
 126:Middlewares/lvgl/src/draw/../misc/lv_color.h **** 
 127:Middlewares/lvgl/src/draw/../misc/lv_color.h **** # define LV_COLOR_GET_R1(c) (c).ch.red
 128:Middlewares/lvgl/src/draw/../misc/lv_color.h **** # define LV_COLOR_GET_G1(c) (c).ch.green
 129:Middlewares/lvgl/src/draw/../misc/lv_color.h **** # define LV_COLOR_GET_B1(c) (c).ch.blue
 130:Middlewares/lvgl/src/draw/../misc/lv_color.h **** # define LV_COLOR_GET_A1(c) 0xFF
 131:Middlewares/lvgl/src/draw/../misc/lv_color.h **** 
 132:Middlewares/lvgl/src/draw/../misc/lv_color.h **** # define _LV_COLOR_ZERO_INITIALIZER1 {0x00}
 133:Middlewares/lvgl/src/draw/../misc/lv_color.h **** # define LV_COLOR_MAKE1(r8, g8, b8)  {(uint8_t)((b8 >> 7) | (g8 >> 7) | (r8 >> 7))}
 134:Middlewares/lvgl/src/draw/../misc/lv_color.h **** 
 135:Middlewares/lvgl/src/draw/../misc/lv_color.h **** # define LV_COLOR_SET_R8(c, v) (c).ch.red = (uint8_t)((v) & 0x7U)
 136:Middlewares/lvgl/src/draw/../misc/lv_color.h **** # define LV_COLOR_SET_G8(c, v) (c).ch.green = (uint8_t)((v) & 0x7U)
 137:Middlewares/lvgl/src/draw/../misc/lv_color.h **** # define LV_COLOR_SET_B8(c, v) (c).ch.blue = (uint8_t)((v) & 0x3U)
 138:Middlewares/lvgl/src/draw/../misc/lv_color.h **** # define LV_COLOR_SET_A8(c, v) do {} while(0)
 139:Middlewares/lvgl/src/draw/../misc/lv_color.h **** 
 140:Middlewares/lvgl/src/draw/../misc/lv_color.h **** # define LV_COLOR_GET_R8(c) (c).ch.red
 141:Middlewares/lvgl/src/draw/../misc/lv_color.h **** # define LV_COLOR_GET_G8(c) (c).ch.green
 142:Middlewares/lvgl/src/draw/../misc/lv_color.h **** # define LV_COLOR_GET_B8(c) (c).ch.blue
 143:Middlewares/lvgl/src/draw/../misc/lv_color.h **** # define LV_COLOR_GET_A8(c) 0xFF
 144:Middlewares/lvgl/src/draw/../misc/lv_color.h **** 
 145:Middlewares/lvgl/src/draw/../misc/lv_color.h **** # define _LV_COLOR_ZERO_INITIALIZER8 _LV_COLOR_MAKE_TYPE_HELPER {{0x00, 0x00, 0x00}}
 146:Middlewares/lvgl/src/draw/../misc/lv_color.h **** # define LV_COLOR_MAKE8(r8, g8, b8) _LV_COLOR_MAKE_TYPE_HELPER  {{(uint8_t)((b8 >> 6) & 0x3U), (uin
 147:Middlewares/lvgl/src/draw/../misc/lv_color.h **** 
 148:Middlewares/lvgl/src/draw/../misc/lv_color.h **** # define LV_COLOR_SET_R16(c, v) (c).ch.red = (uint8_t)((v) & 0x1FU)
 149:Middlewares/lvgl/src/draw/../misc/lv_color.h **** #if LV_COLOR_16_SWAP == 0
 150:Middlewares/lvgl/src/draw/../misc/lv_color.h **** # define LV_COLOR_SET_G16(c, v) (c).ch.green = (uint8_t)((v) & 0x3FU)
 151:Middlewares/lvgl/src/draw/../misc/lv_color.h **** #else
ARM GAS  /tmp/ccViN4Ah.s 			page 45


 152:Middlewares/lvgl/src/draw/../misc/lv_color.h **** # define LV_COLOR_SET_G16(c, v) {(c).ch.green_h = (uint8_t)(((v) >> 3) & 0x7); (c).ch.green_l = (ui
 153:Middlewares/lvgl/src/draw/../misc/lv_color.h **** #endif
 154:Middlewares/lvgl/src/draw/../misc/lv_color.h **** # define LV_COLOR_SET_B16(c, v) (c).ch.blue = (uint8_t)((v) & 0x1FU)
 155:Middlewares/lvgl/src/draw/../misc/lv_color.h **** # define LV_COLOR_SET_A16(c, v) do {} while(0)
 156:Middlewares/lvgl/src/draw/../misc/lv_color.h **** 
 157:Middlewares/lvgl/src/draw/../misc/lv_color.h **** # define LV_COLOR_GET_R16(c) (c).ch.red
 158:Middlewares/lvgl/src/draw/../misc/lv_color.h **** #if LV_COLOR_16_SWAP == 0
 159:Middlewares/lvgl/src/draw/../misc/lv_color.h **** # define LV_COLOR_GET_G16(c) (c).ch.green
 160:Middlewares/lvgl/src/draw/../misc/lv_color.h **** #else
 161:Middlewares/lvgl/src/draw/../misc/lv_color.h **** # define LV_COLOR_GET_G16(c) (((c).ch.green_h << 3) + (c).ch.green_l)
 162:Middlewares/lvgl/src/draw/../misc/lv_color.h **** #endif
 163:Middlewares/lvgl/src/draw/../misc/lv_color.h **** # define LV_COLOR_GET_B16(c) (c).ch.blue
 164:Middlewares/lvgl/src/draw/../misc/lv_color.h **** # define LV_COLOR_GET_A16(c) 0xFF
 165:Middlewares/lvgl/src/draw/../misc/lv_color.h **** 
 166:Middlewares/lvgl/src/draw/../misc/lv_color.h **** #if LV_COLOR_16_SWAP == 0
 167:Middlewares/lvgl/src/draw/../misc/lv_color.h **** # define _LV_COLOR_ZERO_INITIALIZER16  {{0x00, 0x00, 0x00}}
 168:Middlewares/lvgl/src/draw/../misc/lv_color.h **** # define LV_COLOR_MAKE16(r8, g8, b8) {{(uint8_t)((b8 >> 3) & 0x1FU), (uint8_t)((g8 >> 2) & 0x3FU), 
 169:Middlewares/lvgl/src/draw/../misc/lv_color.h **** #else
 170:Middlewares/lvgl/src/draw/../misc/lv_color.h **** # define _LV_COLOR_ZERO_INITIALIZER16 {{0x00, 0x00, 0x00, 0x00}}
 171:Middlewares/lvgl/src/draw/../misc/lv_color.h **** # define LV_COLOR_MAKE16(r8, g8, b8) {{(uint8_t)((g8 >> 5) & 0x7U), (uint8_t)((r8 >> 3) & 0x1FU), (
 172:Middlewares/lvgl/src/draw/../misc/lv_color.h **** #endif
 173:Middlewares/lvgl/src/draw/../misc/lv_color.h **** 
 174:Middlewares/lvgl/src/draw/../misc/lv_color.h **** # define LV_COLOR_SET_R32(c, v) (c).ch.red = (uint8_t)((v) & 0xFF)
 175:Middlewares/lvgl/src/draw/../misc/lv_color.h **** # define LV_COLOR_SET_G32(c, v) (c).ch.green = (uint8_t)((v) & 0xFF)
 176:Middlewares/lvgl/src/draw/../misc/lv_color.h **** # define LV_COLOR_SET_B32(c, v) (c).ch.blue = (uint8_t)((v) & 0xFF)
 177:Middlewares/lvgl/src/draw/../misc/lv_color.h **** # define LV_COLOR_SET_A32(c, v) (c).ch.alpha = (uint8_t)((v) & 0xFF)
 178:Middlewares/lvgl/src/draw/../misc/lv_color.h **** 
 179:Middlewares/lvgl/src/draw/../misc/lv_color.h **** # define LV_COLOR_GET_R32(c) (c).ch.red
 180:Middlewares/lvgl/src/draw/../misc/lv_color.h **** # define LV_COLOR_GET_G32(c) (c).ch.green
 181:Middlewares/lvgl/src/draw/../misc/lv_color.h **** # define LV_COLOR_GET_B32(c) (c).ch.blue
 182:Middlewares/lvgl/src/draw/../misc/lv_color.h **** # define LV_COLOR_GET_A32(c) (c).ch.alpha
 183:Middlewares/lvgl/src/draw/../misc/lv_color.h **** 
 184:Middlewares/lvgl/src/draw/../misc/lv_color.h **** # define _LV_COLOR_ZERO_INITIALIZER32  {{0x00, 0x00, 0x00, 0x00}}
 185:Middlewares/lvgl/src/draw/../misc/lv_color.h **** # define LV_COLOR_MAKE32(r8, g8, b8) {{b8, g8, r8, 0xff}} /*Fix 0xff alpha*/
 186:Middlewares/lvgl/src/draw/../misc/lv_color.h **** 
 187:Middlewares/lvgl/src/draw/../misc/lv_color.h **** /*---------------------------------------
 188:Middlewares/lvgl/src/draw/../misc/lv_color.h ****  * Macros for the current color depth
 189:Middlewares/lvgl/src/draw/../misc/lv_color.h ****  * to set/get values of the color channels
 190:Middlewares/lvgl/src/draw/../misc/lv_color.h ****  *------------------------------------------*/
 191:Middlewares/lvgl/src/draw/../misc/lv_color.h **** #define LV_COLOR_SET_R(c, v) LV_CONCAT(LV_COLOR_SET_R, LV_COLOR_DEPTH)(c, v)
 192:Middlewares/lvgl/src/draw/../misc/lv_color.h **** #define LV_COLOR_SET_G(c, v) LV_CONCAT(LV_COLOR_SET_G, LV_COLOR_DEPTH)(c, v)
 193:Middlewares/lvgl/src/draw/../misc/lv_color.h **** #define LV_COLOR_SET_B(c, v) LV_CONCAT(LV_COLOR_SET_B, LV_COLOR_DEPTH)(c, v)
 194:Middlewares/lvgl/src/draw/../misc/lv_color.h **** #define LV_COLOR_SET_A(c, v) LV_CONCAT(LV_COLOR_SET_A, LV_COLOR_DEPTH)(c, v)
 195:Middlewares/lvgl/src/draw/../misc/lv_color.h **** 
 196:Middlewares/lvgl/src/draw/../misc/lv_color.h **** #define LV_COLOR_GET_R(c) LV_CONCAT(LV_COLOR_GET_R, LV_COLOR_DEPTH)(c)
 197:Middlewares/lvgl/src/draw/../misc/lv_color.h **** #define LV_COLOR_GET_G(c) LV_CONCAT(LV_COLOR_GET_G, LV_COLOR_DEPTH)(c)
 198:Middlewares/lvgl/src/draw/../misc/lv_color.h **** #define LV_COLOR_GET_B(c) LV_CONCAT(LV_COLOR_GET_B, LV_COLOR_DEPTH)(c)
 199:Middlewares/lvgl/src/draw/../misc/lv_color.h **** #define LV_COLOR_GET_A(c) LV_CONCAT(LV_COLOR_GET_A, LV_COLOR_DEPTH)(c)
 200:Middlewares/lvgl/src/draw/../misc/lv_color.h **** 
 201:Middlewares/lvgl/src/draw/../misc/lv_color.h **** #define _LV_COLOR_ZERO_INITIALIZER LV_CONCAT(_LV_COLOR_ZERO_INITIALIZER, LV_COLOR_DEPTH)
 202:Middlewares/lvgl/src/draw/../misc/lv_color.h **** #define LV_COLOR_MAKE(r8, g8, b8) LV_CONCAT(LV_COLOR_MAKE, LV_COLOR_DEPTH)(r8, g8, b8)
 203:Middlewares/lvgl/src/draw/../misc/lv_color.h **** 
 204:Middlewares/lvgl/src/draw/../misc/lv_color.h **** #define LV_UDIV255(x) ((uint32_t)((uint32_t) (x) * 0x8081) >> 0x17)
 205:Middlewares/lvgl/src/draw/../misc/lv_color.h **** 
 206:Middlewares/lvgl/src/draw/../misc/lv_color.h **** /**********************
 207:Middlewares/lvgl/src/draw/../misc/lv_color.h ****  *      TYPEDEFS
 208:Middlewares/lvgl/src/draw/../misc/lv_color.h ****  **********************/
ARM GAS  /tmp/ccViN4Ah.s 			page 46


 209:Middlewares/lvgl/src/draw/../misc/lv_color.h **** 
 210:Middlewares/lvgl/src/draw/../misc/lv_color.h **** typedef union {
 211:Middlewares/lvgl/src/draw/../misc/lv_color.h ****     uint8_t full; /*must be declared first to set all bits of byte via initializer list*/
 212:Middlewares/lvgl/src/draw/../misc/lv_color.h ****     union {
 213:Middlewares/lvgl/src/draw/../misc/lv_color.h ****         uint8_t blue : 1;
 214:Middlewares/lvgl/src/draw/../misc/lv_color.h ****         uint8_t green : 1;
 215:Middlewares/lvgl/src/draw/../misc/lv_color.h ****         uint8_t red : 1;
 216:Middlewares/lvgl/src/draw/../misc/lv_color.h ****     } ch;
 217:Middlewares/lvgl/src/draw/../misc/lv_color.h **** } lv_color1_t;
 218:Middlewares/lvgl/src/draw/../misc/lv_color.h **** 
 219:Middlewares/lvgl/src/draw/../misc/lv_color.h **** typedef union {
 220:Middlewares/lvgl/src/draw/../misc/lv_color.h ****     struct {
 221:Middlewares/lvgl/src/draw/../misc/lv_color.h ****         uint8_t blue : 2;
 222:Middlewares/lvgl/src/draw/../misc/lv_color.h ****         uint8_t green : 3;
 223:Middlewares/lvgl/src/draw/../misc/lv_color.h ****         uint8_t red : 3;
 224:Middlewares/lvgl/src/draw/../misc/lv_color.h ****     } ch;
 225:Middlewares/lvgl/src/draw/../misc/lv_color.h ****     uint8_t full;
 226:Middlewares/lvgl/src/draw/../misc/lv_color.h **** } lv_color8_t;
 227:Middlewares/lvgl/src/draw/../misc/lv_color.h **** 
 228:Middlewares/lvgl/src/draw/../misc/lv_color.h **** typedef union {
 229:Middlewares/lvgl/src/draw/../misc/lv_color.h ****     struct {
 230:Middlewares/lvgl/src/draw/../misc/lv_color.h **** #if LV_COLOR_16_SWAP == 0
 231:Middlewares/lvgl/src/draw/../misc/lv_color.h ****         uint16_t blue : 5;
 232:Middlewares/lvgl/src/draw/../misc/lv_color.h ****         uint16_t green : 6;
 233:Middlewares/lvgl/src/draw/../misc/lv_color.h ****         uint16_t red : 5;
 234:Middlewares/lvgl/src/draw/../misc/lv_color.h **** #else
 235:Middlewares/lvgl/src/draw/../misc/lv_color.h ****         uint16_t green_h : 3;
 236:Middlewares/lvgl/src/draw/../misc/lv_color.h ****         uint16_t red : 5;
 237:Middlewares/lvgl/src/draw/../misc/lv_color.h ****         uint16_t blue : 5;
 238:Middlewares/lvgl/src/draw/../misc/lv_color.h ****         uint16_t green_l : 3;
 239:Middlewares/lvgl/src/draw/../misc/lv_color.h **** #endif
 240:Middlewares/lvgl/src/draw/../misc/lv_color.h ****     } ch;
 241:Middlewares/lvgl/src/draw/../misc/lv_color.h ****     uint16_t full;
 242:Middlewares/lvgl/src/draw/../misc/lv_color.h **** } lv_color16_t;
 243:Middlewares/lvgl/src/draw/../misc/lv_color.h **** 
 244:Middlewares/lvgl/src/draw/../misc/lv_color.h **** typedef union {
 245:Middlewares/lvgl/src/draw/../misc/lv_color.h ****     struct {
 246:Middlewares/lvgl/src/draw/../misc/lv_color.h ****         uint8_t blue;
 247:Middlewares/lvgl/src/draw/../misc/lv_color.h ****         uint8_t green;
 248:Middlewares/lvgl/src/draw/../misc/lv_color.h ****         uint8_t red;
 249:Middlewares/lvgl/src/draw/../misc/lv_color.h ****         uint8_t alpha;
 250:Middlewares/lvgl/src/draw/../misc/lv_color.h ****     } ch;
 251:Middlewares/lvgl/src/draw/../misc/lv_color.h ****     uint32_t full;
 252:Middlewares/lvgl/src/draw/../misc/lv_color.h **** } lv_color32_t;
 253:Middlewares/lvgl/src/draw/../misc/lv_color.h **** 
 254:Middlewares/lvgl/src/draw/../misc/lv_color.h **** typedef LV_CONCAT3(uint, LV_COLOR_SIZE, _t) lv_color_int_t;
 255:Middlewares/lvgl/src/draw/../misc/lv_color.h **** typedef LV_CONCAT3(lv_color, LV_COLOR_DEPTH, _t) lv_color_t;
 256:Middlewares/lvgl/src/draw/../misc/lv_color.h **** 
 257:Middlewares/lvgl/src/draw/../misc/lv_color.h **** typedef struct {
 258:Middlewares/lvgl/src/draw/../misc/lv_color.h ****     uint16_t h;
 259:Middlewares/lvgl/src/draw/../misc/lv_color.h ****     uint8_t s;
 260:Middlewares/lvgl/src/draw/../misc/lv_color.h ****     uint8_t v;
 261:Middlewares/lvgl/src/draw/../misc/lv_color.h **** } lv_color_hsv_t;
 262:Middlewares/lvgl/src/draw/../misc/lv_color.h **** 
 263:Middlewares/lvgl/src/draw/../misc/lv_color.h **** //! @cond Doxygen_Suppress
 264:Middlewares/lvgl/src/draw/../misc/lv_color.h **** /*No idea where the guard is required but else throws warnings in the docs*/
 265:Middlewares/lvgl/src/draw/../misc/lv_color.h **** typedef uint8_t lv_opa_t;
ARM GAS  /tmp/ccViN4Ah.s 			page 47


 266:Middlewares/lvgl/src/draw/../misc/lv_color.h **** //! @endcond
 267:Middlewares/lvgl/src/draw/../misc/lv_color.h **** 
 268:Middlewares/lvgl/src/draw/../misc/lv_color.h **** struct _lv_color_filter_dsc_t;
 269:Middlewares/lvgl/src/draw/../misc/lv_color.h **** 
 270:Middlewares/lvgl/src/draw/../misc/lv_color.h **** typedef lv_color_t (*lv_color_filter_cb_t)(const struct _lv_color_filter_dsc_t *, lv_color_t, lv_op
 271:Middlewares/lvgl/src/draw/../misc/lv_color.h **** 
 272:Middlewares/lvgl/src/draw/../misc/lv_color.h **** typedef struct _lv_color_filter_dsc_t {
 273:Middlewares/lvgl/src/draw/../misc/lv_color.h ****     lv_color_filter_cb_t filter_cb;
 274:Middlewares/lvgl/src/draw/../misc/lv_color.h ****     void * user_data;
 275:Middlewares/lvgl/src/draw/../misc/lv_color.h **** }lv_color_filter_dsc_t;
 276:Middlewares/lvgl/src/draw/../misc/lv_color.h **** 
 277:Middlewares/lvgl/src/draw/../misc/lv_color.h **** 
 278:Middlewares/lvgl/src/draw/../misc/lv_color.h **** typedef enum {
 279:Middlewares/lvgl/src/draw/../misc/lv_color.h ****     LV_PALETTE_RED,
 280:Middlewares/lvgl/src/draw/../misc/lv_color.h ****     LV_PALETTE_PINK,
 281:Middlewares/lvgl/src/draw/../misc/lv_color.h ****     LV_PALETTE_PURPLE,
 282:Middlewares/lvgl/src/draw/../misc/lv_color.h ****     LV_PALETTE_DEEP_PURPLE,
 283:Middlewares/lvgl/src/draw/../misc/lv_color.h ****     LV_PALETTE_INDIGO,
 284:Middlewares/lvgl/src/draw/../misc/lv_color.h ****     LV_PALETTE_BLUE,
 285:Middlewares/lvgl/src/draw/../misc/lv_color.h ****     LV_PALETTE_LIGHT_BLUE,
 286:Middlewares/lvgl/src/draw/../misc/lv_color.h ****     LV_PALETTE_CYAN,
 287:Middlewares/lvgl/src/draw/../misc/lv_color.h ****     LV_PALETTE_TEAL,
 288:Middlewares/lvgl/src/draw/../misc/lv_color.h ****     LV_PALETTE_GREEN,
 289:Middlewares/lvgl/src/draw/../misc/lv_color.h ****     LV_PALETTE_LIGHT_GREEN,
 290:Middlewares/lvgl/src/draw/../misc/lv_color.h ****     LV_PALETTE_LIME,
 291:Middlewares/lvgl/src/draw/../misc/lv_color.h ****     LV_PALETTE_YELLOW,
 292:Middlewares/lvgl/src/draw/../misc/lv_color.h ****     LV_PALETTE_AMBER,
 293:Middlewares/lvgl/src/draw/../misc/lv_color.h ****     LV_PALETTE_ORANGE,
 294:Middlewares/lvgl/src/draw/../misc/lv_color.h ****     LV_PALETTE_DEEP_ORANGE,
 295:Middlewares/lvgl/src/draw/../misc/lv_color.h ****     LV_PALETTE_BROWN,
 296:Middlewares/lvgl/src/draw/../misc/lv_color.h ****     LV_PALETTE_BLUE_GREY,
 297:Middlewares/lvgl/src/draw/../misc/lv_color.h ****     LV_PALETTE_GREY,
 298:Middlewares/lvgl/src/draw/../misc/lv_color.h ****     _LV_PALETTE_LAST,
 299:Middlewares/lvgl/src/draw/../misc/lv_color.h ****     LV_PALETTE_NONE = 0xff,
 300:Middlewares/lvgl/src/draw/../misc/lv_color.h **** }lv_palette_t;
 301:Middlewares/lvgl/src/draw/../misc/lv_color.h **** 
 302:Middlewares/lvgl/src/draw/../misc/lv_color.h **** /**********************
 303:Middlewares/lvgl/src/draw/../misc/lv_color.h ****  * GLOBAL PROTOTYPES
 304:Middlewares/lvgl/src/draw/../misc/lv_color.h ****  **********************/
 305:Middlewares/lvgl/src/draw/../misc/lv_color.h **** 
 306:Middlewares/lvgl/src/draw/../misc/lv_color.h **** /*In color conversations:
 307:Middlewares/lvgl/src/draw/../misc/lv_color.h ****  * - When converting to bigger color type the LSB weight of 1 LSB is calculated
 308:Middlewares/lvgl/src/draw/../misc/lv_color.h ****  *   E.g. 16 bit Red has 5 bits
 309:Middlewares/lvgl/src/draw/../misc/lv_color.h ****  *         8 bit Red has 3 bits
 310:Middlewares/lvgl/src/draw/../misc/lv_color.h ****  *        ----------------------
 311:Middlewares/lvgl/src/draw/../misc/lv_color.h ****  *        8 bit red LSB = (2^5 - 1) / (2^3 - 1) = 31 / 7 = 4
 312:Middlewares/lvgl/src/draw/../misc/lv_color.h ****  *
 313:Middlewares/lvgl/src/draw/../misc/lv_color.h ****  * - When calculating to smaller color type simply shift out the LSBs
 314:Middlewares/lvgl/src/draw/../misc/lv_color.h ****  *   E.g.  8 bit Red has 3 bits
 315:Middlewares/lvgl/src/draw/../misc/lv_color.h ****  *        16 bit Red has 5 bits
 316:Middlewares/lvgl/src/draw/../misc/lv_color.h ****  *        ----------------------
 317:Middlewares/lvgl/src/draw/../misc/lv_color.h ****  *         Shift right with 5 - 3 = 2
 318:Middlewares/lvgl/src/draw/../misc/lv_color.h ****  */
 319:Middlewares/lvgl/src/draw/../misc/lv_color.h **** static inline uint8_t lv_color_to1(lv_color_t color)
 320:Middlewares/lvgl/src/draw/../misc/lv_color.h **** {
 321:Middlewares/lvgl/src/draw/../misc/lv_color.h **** #if LV_COLOR_DEPTH == 1
 322:Middlewares/lvgl/src/draw/../misc/lv_color.h ****     return color.full;
ARM GAS  /tmp/ccViN4Ah.s 			page 48


 323:Middlewares/lvgl/src/draw/../misc/lv_color.h **** #elif LV_COLOR_DEPTH == 8
 324:Middlewares/lvgl/src/draw/../misc/lv_color.h ****     if((LV_COLOR_GET_R(color) & 0x4) || (LV_COLOR_GET_G(color) & 0x4) || (LV_COLOR_GET_B(color) & 0
 325:Middlewares/lvgl/src/draw/../misc/lv_color.h ****         return 1;
 326:Middlewares/lvgl/src/draw/../misc/lv_color.h ****     }
 327:Middlewares/lvgl/src/draw/../misc/lv_color.h ****     else {
 328:Middlewares/lvgl/src/draw/../misc/lv_color.h ****         return 0;
 329:Middlewares/lvgl/src/draw/../misc/lv_color.h ****     }
 330:Middlewares/lvgl/src/draw/../misc/lv_color.h **** #elif LV_COLOR_DEPTH == 16
 331:Middlewares/lvgl/src/draw/../misc/lv_color.h ****     if((LV_COLOR_GET_R(color) & 0x10) || (LV_COLOR_GET_G(color) & 0x20) || (LV_COLOR_GET_B(color) &
 332:Middlewares/lvgl/src/draw/../misc/lv_color.h ****         return 1;
 333:Middlewares/lvgl/src/draw/../misc/lv_color.h ****     }
 334:Middlewares/lvgl/src/draw/../misc/lv_color.h ****     else {
 335:Middlewares/lvgl/src/draw/../misc/lv_color.h ****         return 0;
 336:Middlewares/lvgl/src/draw/../misc/lv_color.h ****     }
 337:Middlewares/lvgl/src/draw/../misc/lv_color.h **** #elif LV_COLOR_DEPTH == 32
 338:Middlewares/lvgl/src/draw/../misc/lv_color.h ****     if((LV_COLOR_GET_R(color) & 0x80) || (LV_COLOR_GET_G(color) & 0x80) || (LV_COLOR_GET_B(color) &
 339:Middlewares/lvgl/src/draw/../misc/lv_color.h ****         return 1;
 340:Middlewares/lvgl/src/draw/../misc/lv_color.h ****     }
 341:Middlewares/lvgl/src/draw/../misc/lv_color.h ****     else {
 342:Middlewares/lvgl/src/draw/../misc/lv_color.h ****         return 0;
 343:Middlewares/lvgl/src/draw/../misc/lv_color.h ****     }
 344:Middlewares/lvgl/src/draw/../misc/lv_color.h **** #endif
 345:Middlewares/lvgl/src/draw/../misc/lv_color.h **** }
 346:Middlewares/lvgl/src/draw/../misc/lv_color.h **** 
 347:Middlewares/lvgl/src/draw/../misc/lv_color.h **** static inline uint8_t lv_color_to8(lv_color_t color)
 348:Middlewares/lvgl/src/draw/../misc/lv_color.h **** {
 349:Middlewares/lvgl/src/draw/../misc/lv_color.h **** #if LV_COLOR_DEPTH == 1
 350:Middlewares/lvgl/src/draw/../misc/lv_color.h ****     if(color.full == 0)
 351:Middlewares/lvgl/src/draw/../misc/lv_color.h ****         return 0;
 352:Middlewares/lvgl/src/draw/../misc/lv_color.h ****     else
 353:Middlewares/lvgl/src/draw/../misc/lv_color.h ****         return 0xFF;
 354:Middlewares/lvgl/src/draw/../misc/lv_color.h **** #elif LV_COLOR_DEPTH == 8
 355:Middlewares/lvgl/src/draw/../misc/lv_color.h ****     return color.full;
 356:Middlewares/lvgl/src/draw/../misc/lv_color.h **** #elif LV_COLOR_DEPTH == 16
 357:Middlewares/lvgl/src/draw/../misc/lv_color.h ****     lv_color8_t ret;
 358:Middlewares/lvgl/src/draw/../misc/lv_color.h ****     LV_COLOR_SET_R8(ret, LV_COLOR_GET_R(color) >> 2); /*5 - 3  = 2*/
 359:Middlewares/lvgl/src/draw/../misc/lv_color.h ****     LV_COLOR_SET_G8(ret, LV_COLOR_GET_G(color) >> 3); /*6 - 3  = 3*/
 360:Middlewares/lvgl/src/draw/../misc/lv_color.h ****     LV_COLOR_SET_B8(ret, LV_COLOR_GET_B(color) >> 3); /*5 - 2  = 3*/
 361:Middlewares/lvgl/src/draw/../misc/lv_color.h ****     return ret.full;
 362:Middlewares/lvgl/src/draw/../misc/lv_color.h **** #elif LV_COLOR_DEPTH == 32
 363:Middlewares/lvgl/src/draw/../misc/lv_color.h ****     lv_color8_t ret;
 364:Middlewares/lvgl/src/draw/../misc/lv_color.h ****     LV_COLOR_SET_R8(ret, LV_COLOR_GET_R(color) >> 5); /*8 - 3  = 5*/
 365:Middlewares/lvgl/src/draw/../misc/lv_color.h ****     LV_COLOR_SET_G8(ret, LV_COLOR_GET_G(color) >> 5); /*8 - 3  = 5*/
 366:Middlewares/lvgl/src/draw/../misc/lv_color.h ****     LV_COLOR_SET_B8(ret, LV_COLOR_GET_B(color) >> 6); /*8 - 2  = 6*/
 367:Middlewares/lvgl/src/draw/../misc/lv_color.h ****     return ret.full;
 368:Middlewares/lvgl/src/draw/../misc/lv_color.h **** #endif
 369:Middlewares/lvgl/src/draw/../misc/lv_color.h **** }
 370:Middlewares/lvgl/src/draw/../misc/lv_color.h **** 
 371:Middlewares/lvgl/src/draw/../misc/lv_color.h **** static inline uint16_t lv_color_to16(lv_color_t color)
 372:Middlewares/lvgl/src/draw/../misc/lv_color.h **** {
 373:Middlewares/lvgl/src/draw/../misc/lv_color.h **** #if LV_COLOR_DEPTH == 1
 374:Middlewares/lvgl/src/draw/../misc/lv_color.h ****     if(color.full == 0)
 375:Middlewares/lvgl/src/draw/../misc/lv_color.h ****         return 0;
 376:Middlewares/lvgl/src/draw/../misc/lv_color.h ****     else
 377:Middlewares/lvgl/src/draw/../misc/lv_color.h ****         return 0xFFFF;
 378:Middlewares/lvgl/src/draw/../misc/lv_color.h **** #elif LV_COLOR_DEPTH == 8
 379:Middlewares/lvgl/src/draw/../misc/lv_color.h ****     lv_color16_t ret;
ARM GAS  /tmp/ccViN4Ah.s 			page 49


 380:Middlewares/lvgl/src/draw/../misc/lv_color.h ****     LV_COLOR_SET_R16(ret, LV_COLOR_GET_R(color) * 4);  /*(2^5 - 1)/(2^3 - 1) = 31/7 = 4*/
 381:Middlewares/lvgl/src/draw/../misc/lv_color.h ****     LV_COLOR_SET_G16(ret, LV_COLOR_GET_G(color) * 9);  /*(2^6 - 1)/(2^3 - 1) = 63/7 = 9*/
 382:Middlewares/lvgl/src/draw/../misc/lv_color.h ****     LV_COLOR_SET_B16(ret, LV_COLOR_GET_B(color) * 10); /*(2^5 - 1)/(2^2 - 1) = 31/3 = 10*/
 383:Middlewares/lvgl/src/draw/../misc/lv_color.h ****     return ret.full;
 384:Middlewares/lvgl/src/draw/../misc/lv_color.h **** #elif LV_COLOR_DEPTH == 16
 385:Middlewares/lvgl/src/draw/../misc/lv_color.h ****     return color.full;
 386:Middlewares/lvgl/src/draw/../misc/lv_color.h **** #elif LV_COLOR_DEPTH == 32
 387:Middlewares/lvgl/src/draw/../misc/lv_color.h ****     lv_color16_t ret;
 388:Middlewares/lvgl/src/draw/../misc/lv_color.h ****     LV_COLOR_SET_R16(ret, LV_COLOR_GET_R(color) >> 3); /*8 - 5  = 3*/
 389:Middlewares/lvgl/src/draw/../misc/lv_color.h ****     LV_COLOR_SET_G16(ret, LV_COLOR_GET_G(color) >> 2); /*8 - 6  = 2*/
 390:Middlewares/lvgl/src/draw/../misc/lv_color.h ****     LV_COLOR_SET_B16(ret, LV_COLOR_GET_B(color) >> 3); /*8 - 5  = 3*/
 391:Middlewares/lvgl/src/draw/../misc/lv_color.h ****     return ret.full;
 392:Middlewares/lvgl/src/draw/../misc/lv_color.h **** #endif
 393:Middlewares/lvgl/src/draw/../misc/lv_color.h **** }
 394:Middlewares/lvgl/src/draw/../misc/lv_color.h **** 
 395:Middlewares/lvgl/src/draw/../misc/lv_color.h **** static inline uint32_t lv_color_to32(lv_color_t color)
 396:Middlewares/lvgl/src/draw/../misc/lv_color.h **** {
 397:Middlewares/lvgl/src/draw/../misc/lv_color.h **** #if LV_COLOR_DEPTH == 1
 398:Middlewares/lvgl/src/draw/../misc/lv_color.h ****     if(color.full == 0)
 399:Middlewares/lvgl/src/draw/../misc/lv_color.h ****         return 0xFF000000;
 400:Middlewares/lvgl/src/draw/../misc/lv_color.h ****     else
 401:Middlewares/lvgl/src/draw/../misc/lv_color.h ****         return 0xFFFFFFFF;
 402:Middlewares/lvgl/src/draw/../misc/lv_color.h **** #elif LV_COLOR_DEPTH == 8
 403:Middlewares/lvgl/src/draw/../misc/lv_color.h ****     lv_color32_t ret;
 404:Middlewares/lvgl/src/draw/../misc/lv_color.h ****     LV_COLOR_SET_R32(ret, LV_COLOR_GET_R(color) * 36); /*(2^8 - 1)/(2^3 - 1) = 255/7 = 36*/
 405:Middlewares/lvgl/src/draw/../misc/lv_color.h ****     LV_COLOR_SET_G32(ret, LV_COLOR_GET_G(color) * 36); /*(2^8 - 1)/(2^3 - 1) = 255/7 = 36*/
 406:Middlewares/lvgl/src/draw/../misc/lv_color.h ****     LV_COLOR_SET_B32(ret, LV_COLOR_GET_B(color) * 85); /*(2^8 - 1)/(2^2 - 1) = 255/3 = 85*/
 407:Middlewares/lvgl/src/draw/../misc/lv_color.h ****     LV_COLOR_SET_A32(ret, 0xFF);
 408:Middlewares/lvgl/src/draw/../misc/lv_color.h ****     return ret.full;
 409:Middlewares/lvgl/src/draw/../misc/lv_color.h **** #elif LV_COLOR_DEPTH == 16
 410:Middlewares/lvgl/src/draw/../misc/lv_color.h ****     /**
 411:Middlewares/lvgl/src/draw/../misc/lv_color.h ****      * The floating point math for conversion is:
 412:Middlewares/lvgl/src/draw/../misc/lv_color.h ****      *  valueto = valuefrom * ( (2^bitsto - 1) / (float)(2^bitsfrom - 1) )
 413:Middlewares/lvgl/src/draw/../misc/lv_color.h ****      * The faster integer math for conversion is:
 414:Middlewares/lvgl/src/draw/../misc/lv_color.h ****      *  valueto = ( valuefrom * multiplier + adder ) >> divisor
 415:Middlewares/lvgl/src/draw/../misc/lv_color.h ****      *   multiplier = FLOOR( ( (2^bitsto - 1) << divisor ) / (float)(2^bitsfrom - 1) )
 416:Middlewares/lvgl/src/draw/../misc/lv_color.h ****      *
 417:Middlewares/lvgl/src/draw/../misc/lv_color.h ****      * Find the first divisor where ( adder >> divisor ) <= 0
 418:Middlewares/lvgl/src/draw/../misc/lv_color.h ****      *
 419:Middlewares/lvgl/src/draw/../misc/lv_color.h ****      * 5-bit to 8-bit: ( 31 * multiplier + adder ) >> divisor = 255
 420:Middlewares/lvgl/src/draw/../misc/lv_color.h ****      * divisor  multiplier  adder  min (0)  max (31)
 421:Middlewares/lvgl/src/draw/../misc/lv_color.h ****      *       0           8      7        7       255
 422:Middlewares/lvgl/src/draw/../misc/lv_color.h ****      *       1          16     14        7       255
 423:Middlewares/lvgl/src/draw/../misc/lv_color.h ****      *       2          32     28        7       255
 424:Middlewares/lvgl/src/draw/../misc/lv_color.h ****      *       3          65     25        3       255
 425:Middlewares/lvgl/src/draw/../misc/lv_color.h ****      *       4         131     19        1       255
 426:Middlewares/lvgl/src/draw/../misc/lv_color.h ****      *       5         263      7        0       255
 427:Middlewares/lvgl/src/draw/../misc/lv_color.h ****      *
 428:Middlewares/lvgl/src/draw/../misc/lv_color.h ****      * 6-bit to 8-bit: 255 = ( 63 * multiplier + adder ) >> divisor
 429:Middlewares/lvgl/src/draw/../misc/lv_color.h ****      * divisor  multiplier  adder  min (0)  max (63)
 430:Middlewares/lvgl/src/draw/../misc/lv_color.h ****      *       0           4      3        3       255
 431:Middlewares/lvgl/src/draw/../misc/lv_color.h ****      *       1           8      6        3       255
 432:Middlewares/lvgl/src/draw/../misc/lv_color.h ****      *       2          16     12        3       255
 433:Middlewares/lvgl/src/draw/../misc/lv_color.h ****      *       3          32     24        3       255
 434:Middlewares/lvgl/src/draw/../misc/lv_color.h ****      *       4          64     48        3       255
 435:Middlewares/lvgl/src/draw/../misc/lv_color.h ****      *       5         129     33        1       255
 436:Middlewares/lvgl/src/draw/../misc/lv_color.h ****      *       6         259      3        0       255
ARM GAS  /tmp/ccViN4Ah.s 			page 50


 437:Middlewares/lvgl/src/draw/../misc/lv_color.h ****      */
 438:Middlewares/lvgl/src/draw/../misc/lv_color.h **** 
 439:Middlewares/lvgl/src/draw/../misc/lv_color.h ****     lv_color32_t ret;
 440:Middlewares/lvgl/src/draw/../misc/lv_color.h ****     LV_COLOR_SET_R32(ret, (LV_COLOR_GET_R(color) * 263 + 7) >> 5);
 441:Middlewares/lvgl/src/draw/../misc/lv_color.h ****     LV_COLOR_SET_G32(ret, (LV_COLOR_GET_G(color) * 259 + 3) >> 6);
 442:Middlewares/lvgl/src/draw/../misc/lv_color.h ****     LV_COLOR_SET_B32(ret, (LV_COLOR_GET_B(color) * 263 + 7) >> 5);
 443:Middlewares/lvgl/src/draw/../misc/lv_color.h ****     LV_COLOR_SET_A32(ret, 0xFF);
 444:Middlewares/lvgl/src/draw/../misc/lv_color.h ****     return ret.full;
 445:Middlewares/lvgl/src/draw/../misc/lv_color.h **** #elif LV_COLOR_DEPTH == 32
 446:Middlewares/lvgl/src/draw/../misc/lv_color.h ****     return color.full;
 447:Middlewares/lvgl/src/draw/../misc/lv_color.h **** #endif
 448:Middlewares/lvgl/src/draw/../misc/lv_color.h **** }
 449:Middlewares/lvgl/src/draw/../misc/lv_color.h **** 
 450:Middlewares/lvgl/src/draw/../misc/lv_color.h **** //! @cond Doxygen_Suppress
 451:Middlewares/lvgl/src/draw/../misc/lv_color.h **** 
 452:Middlewares/lvgl/src/draw/../misc/lv_color.h **** /**
 453:Middlewares/lvgl/src/draw/../misc/lv_color.h ****  * Mix two colors with a given ratio.
 454:Middlewares/lvgl/src/draw/../misc/lv_color.h ****  * @param c1 the first color to mix (usually the foreground)
 455:Middlewares/lvgl/src/draw/../misc/lv_color.h ****  * @param c2 the second color to mix (usually the background)
 456:Middlewares/lvgl/src/draw/../misc/lv_color.h ****  * @param mix The ratio of the colors. 0: full `c2`, 255: full `c1`, 127: half `c1` and half`c2`
 457:Middlewares/lvgl/src/draw/../misc/lv_color.h ****  * @return the mixed color
 458:Middlewares/lvgl/src/draw/../misc/lv_color.h ****  */
 459:Middlewares/lvgl/src/draw/../misc/lv_color.h **** LV_ATTRIBUTE_FAST_MEM static inline lv_color_t lv_color_mix(lv_color_t c1, lv_color_t c2, uint8_t m
 1008              		.loc 3 459 48 view .LVU336
 1009              	.LBB96:
 460:Middlewares/lvgl/src/draw/../misc/lv_color.h **** {
 461:Middlewares/lvgl/src/draw/../misc/lv_color.h ****     lv_color_t ret;
 1010              		.loc 3 461 5 view .LVU337
 462:Middlewares/lvgl/src/draw/../misc/lv_color.h **** #if LV_COLOR_DEPTH != 1
 463:Middlewares/lvgl/src/draw/../misc/lv_color.h ****     /*LV_COLOR_DEPTH == 8, 16 or 32*/
 464:Middlewares/lvgl/src/draw/../misc/lv_color.h ****     LV_COLOR_SET_R(ret, LV_UDIV255((uint16_t) LV_COLOR_GET_R(c1) * mix + LV_COLOR_GET_R(c2) *
 1011              		.loc 3 464 5 view .LVU338
 1012 0042 C0F3C424 		ubfx	r4, r0, #11, #5
 1013 0046 C1F3C42C 		ubfx	ip, r1, #11, #5
 1014              	.LVL99:
 1015              		.loc 3 464 5 is_stmt 0 view .LVU339
 1016 004a C2F1FF03 		rsb	r3, r2, #255
 1017 004e 03FB0CFC 		mul	ip, r3, ip
 1018 0052 02FB04CC 		mla	ip, r2, r4, ip
 1019 0056 0CF1800C 		add	ip, ip, #128
 1020 005a 0CEB0C24 		add	r4, ip, ip, lsl #8
 1021 005e 0CEBC41C 		add	ip, ip, r4, lsl #7
 1022 0062 CCF3C45C 		ubfx	ip, ip, #23, #5
 1023 0066 4FF0000E 		mov	lr, #0	@ movhi
 1024              	.LVL100:
 1025              		.loc 3 464 5 view .LVU340
 1026 006a 6CF3CF2E 		bfi	lr, ip, #11, #5
 1027              	.LVL101:
 465:Middlewares/lvgl/src/draw/../misc/lv_color.h ****                                         (255 - mix) + LV_COLOR_MIX_ROUND_OFS));
 466:Middlewares/lvgl/src/draw/../misc/lv_color.h ****     LV_COLOR_SET_G(ret, LV_UDIV255((uint16_t) LV_COLOR_GET_G(c1) * mix + LV_COLOR_GET_G(c2) *
 1028              		.loc 3 466 5 is_stmt 1 view .LVU341
 1029 006e C0F34514 		ubfx	r4, r0, #5, #6
 1030 0072 C1F3451C 		ubfx	ip, r1, #5, #6
 1031 0076 0CFB03FC 		mul	ip, ip, r3
 1032 007a 04FB02CC 		mla	ip, r4, r2, ip
 1033 007e 0CF1800C 		add	ip, ip, #128
 1034 0082 0CEB0C24 		add	r4, ip, ip, lsl #8
ARM GAS  /tmp/ccViN4Ah.s 			page 51


 1035 0086 0CEBC41C 		add	ip, ip, r4, lsl #7
 1036 008a CCF3C55C 		ubfx	ip, ip, #23, #6
 1037 008e 6CF34A1E 		bfi	lr, ip, #5, #6
 467:Middlewares/lvgl/src/draw/../misc/lv_color.h ****                                         (255 - mix) + LV_COLOR_MIX_ROUND_OFS));
 468:Middlewares/lvgl/src/draw/../misc/lv_color.h ****     LV_COLOR_SET_B(ret, LV_UDIV255((uint16_t) LV_COLOR_GET_B(c1) * mix + LV_COLOR_GET_B(c2) *
 1038              		.loc 3 468 5 view .LVU342
 1039 0092 00F01F0C 		and	ip, r0, #31
 1040 0096 01F01F01 		and	r1, r1, #31
 1041              	.LVL102:
 1042              		.loc 3 468 5 is_stmt 0 view .LVU343
 1043 009a 01FB03F3 		mul	r3, r1, r3
 1044 009e 0CFB0232 		mla	r2, ip, r2, r3
 1045              	.LVL103:
 1046              		.loc 3 468 5 view .LVU344
 1047 00a2 8032     		adds	r2, r2, #128
 1048 00a4 02EB0220 		add	r0, r2, r2, lsl #8
 1049              	.LVL104:
 1050              		.loc 3 468 5 view .LVU345
 1051 00a8 02EBC012 		add	r2, r2, r0, lsl #7
 1052 00ac C2F3C452 		ubfx	r2, r2, #23, #5
 1053 00b0 62F3040E 		bfi	lr, r2, #0, #5
 469:Middlewares/lvgl/src/draw/../misc/lv_color.h ****                                         (255 - mix) + LV_COLOR_MIX_ROUND_OFS));
 470:Middlewares/lvgl/src/draw/../misc/lv_color.h ****     LV_COLOR_SET_A(ret, 0xFF);
 1054              		.loc 3 470 5 is_stmt 1 view .LVU346
 1055              		.loc 3 470 5 view .LVU347
 1056              		.loc 3 470 5 view .LVU348
 471:Middlewares/lvgl/src/draw/../misc/lv_color.h **** #else
 472:Middlewares/lvgl/src/draw/../misc/lv_color.h ****     /*LV_COLOR_DEPTH == 1*/
 473:Middlewares/lvgl/src/draw/../misc/lv_color.h ****     ret.full = mix > LV_OPA_50 ? c1.full : c2.full;
 474:Middlewares/lvgl/src/draw/../misc/lv_color.h **** #endif
 475:Middlewares/lvgl/src/draw/../misc/lv_color.h **** 
 476:Middlewares/lvgl/src/draw/../misc/lv_color.h ****     return ret;
 1057              		.loc 3 476 5 view .LVU349
 1058 00b4 7046     		mov	r0, lr	@ movhi
 1059              	.LVL105:
 1060              		.loc 3 476 5 is_stmt 0 view .LVU350
 1061              	.LBE96:
 1062              	.LBE95:
1024:Middlewares/lvgl/src/draw/lv_draw_blend.c **** }
 1063              		.loc 1 1024 1 view .LVU351
 1064 00b6 10BD     		pop	{r4, pc}
 1065              	.LVL106:
 1066              	.L59:
 1067              	.LCFI10:
 1068              		.cfi_def_cfa_offset 0
 1069              		.cfi_restore 4
 1070              		.cfi_restore 14
 1071              	.LVL107:
 1072              		.loc 1 1024 1 view .LVU352
 1073 00b8 7047     		bx	lr
 1074              		.cfi_endproc
 1075              	.LFE155:
 1077              		.section	.text.color_blend_true_color_subtractive,"ax",%progbits
 1078              		.align	1
 1079              		.syntax unified
 1080              		.thumb
 1081              		.thumb_func
ARM GAS  /tmp/ccViN4Ah.s 			page 52


 1082              		.fpu fpv4-sp-d16
 1084              	color_blend_true_color_subtractive:
 1085              	.LVL108:
 1086              	.LFB156:
1025:Middlewares/lvgl/src/draw/lv_draw_blend.c **** 
1026:Middlewares/lvgl/src/draw/lv_draw_blend.c **** static inline lv_color_t color_blend_true_color_subtractive(lv_color_t fg, lv_color_t bg, lv_opa_t 
1027:Middlewares/lvgl/src/draw/lv_draw_blend.c **** {
 1087              		.loc 1 1027 1 is_stmt 1 view -0
 1088              		.cfi_startproc
 1089              		@ args = 0, pretend = 0, frame = 0
 1090              		@ frame_needed = 0, uses_anonymous_args = 0
1028:Middlewares/lvgl/src/draw/lv_draw_blend.c **** 
1029:Middlewares/lvgl/src/draw/lv_draw_blend.c ****     if(opa <= LV_OPA_MIN) return bg;
 1091              		.loc 1 1029 5 view .LVU354
 1092              		.loc 1 1029 7 is_stmt 0 view .LVU355
 1093 0000 022A     		cmp	r2, #2
 1094 0002 5BD9     		bls	.L70
1030:Middlewares/lvgl/src/draw/lv_draw_blend.c **** 
1031:Middlewares/lvgl/src/draw/lv_draw_blend.c ****     int32_t tmp;
 1095              		.loc 1 1031 5 is_stmt 1 view .LVU356
1032:Middlewares/lvgl/src/draw/lv_draw_blend.c ****     tmp = bg.ch.red - fg.ch.red;
 1096              		.loc 1 1032 5 view .LVU357
 1097              		.loc 1 1032 16 is_stmt 0 view .LVU358
 1098 0004 C1F3C423 		ubfx	r3, r1, #11, #5
 1099              		.loc 1 1032 28 view .LVU359
 1100 0008 C0F3C42C 		ubfx	ip, r0, #11, #5
 1101              		.loc 1 1032 9 view .LVU360
 1102 000c A3EB0C03 		sub	r3, r3, ip
 1103              	.LVL109:
1033:Middlewares/lvgl/src/draw/lv_draw_blend.c ****     fg.ch.red = LV_MAX(tmp, 0);
 1104              		.loc 1 1033 5 is_stmt 1 view .LVU361
 1105              		.loc 1 1033 17 is_stmt 0 view .LVU362
 1106 0010 23EAE373 		bic	r3, r3, r3, asr #31
 1107              	.LVL110:
 1108              		.loc 1 1033 15 view .LVU363
 1109 0014 63F3CF20 		bfi	r0, r3, #11, #5
1034:Middlewares/lvgl/src/draw/lv_draw_blend.c **** 
1035:Middlewares/lvgl/src/draw/lv_draw_blend.c **** #if LV_COLOR_16_SWAP == 0
1036:Middlewares/lvgl/src/draw/lv_draw_blend.c ****     tmp = bg.ch.green - fg.ch.green;
 1110              		.loc 1 1036 5 is_stmt 1 view .LVU364
 1111              		.loc 1 1036 16 is_stmt 0 view .LVU365
 1112 0018 C1F34513 		ubfx	r3, r1, #5, #6
 1113              		.loc 1 1036 30 view .LVU366
 1114 001c C0F3451C 		ubfx	ip, r0, #5, #6
 1115              	.LVL111:
 1116              		.loc 1 1036 9 view .LVU367
 1117 0020 A3EB0C03 		sub	r3, r3, ip
 1118              	.LVL112:
1037:Middlewares/lvgl/src/draw/lv_draw_blend.c ****     fg.ch.green = LV_MAX(tmp, 0);
 1119              		.loc 1 1037 5 is_stmt 1 view .LVU368
 1120              		.loc 1 1037 19 is_stmt 0 view .LVU369
 1121 0024 23EAE373 		bic	r3, r3, r3, asr #31
 1122              	.LVL113:
 1123              		.loc 1 1037 17 view .LVU370
 1124 0028 63F34A10 		bfi	r0, r3, #5, #6
1038:Middlewares/lvgl/src/draw/lv_draw_blend.c **** #else
1039:Middlewares/lvgl/src/draw/lv_draw_blend.c ****     tmp = (bg.ch.green_h << 3) + bg.ch.green_l + (fg.ch.green_h << 3) + fg.ch.green_l;
ARM GAS  /tmp/ccViN4Ah.s 			page 53


1040:Middlewares/lvgl/src/draw/lv_draw_blend.c ****     tmp = LV_MAX(tmp, 0);
1041:Middlewares/lvgl/src/draw/lv_draw_blend.c ****     fg.ch.green_h = tmp >> 3;
1042:Middlewares/lvgl/src/draw/lv_draw_blend.c ****     fg.ch.green_l = tmp & 0x7;
1043:Middlewares/lvgl/src/draw/lv_draw_blend.c **** #endif
1044:Middlewares/lvgl/src/draw/lv_draw_blend.c **** 
1045:Middlewares/lvgl/src/draw/lv_draw_blend.c ****     tmp = bg.ch.blue - fg.ch.blue;
 1125              		.loc 1 1045 5 is_stmt 1 view .LVU371
 1126              		.loc 1 1045 16 is_stmt 0 view .LVU372
 1127 002c 01F01F03 		and	r3, r1, #31
 1128              		.loc 1 1045 29 view .LVU373
 1129 0030 00F01F0C 		and	ip, r0, #31
 1130              	.LVL114:
 1131              		.loc 1 1045 9 view .LVU374
 1132 0034 A3EB0C03 		sub	r3, r3, ip
 1133              	.LVL115:
1046:Middlewares/lvgl/src/draw/lv_draw_blend.c ****     fg.ch.blue = LV_MAX(tmp, 0);
 1134              		.loc 1 1046 5 is_stmt 1 view .LVU375
 1135              		.loc 1 1046 18 is_stmt 0 view .LVU376
 1136 0038 23EAE373 		bic	r3, r3, r3, asr #31
 1137              	.LVL116:
 1138              		.loc 1 1046 16 view .LVU377
 1139 003c 63F30400 		bfi	r0, r3, #0, #5
1047:Middlewares/lvgl/src/draw/lv_draw_blend.c **** 
1048:Middlewares/lvgl/src/draw/lv_draw_blend.c ****     if(opa == LV_OPA_COVER) return fg;
 1140              		.loc 1 1048 5 is_stmt 1 view .LVU378
 1141              		.loc 1 1048 7 is_stmt 0 view .LVU379
 1142 0040 FF2A     		cmp	r2, #255
 1143 0042 3DD0     		beq	.L67
1027:Middlewares/lvgl/src/draw/lv_draw_blend.c **** 
 1144              		.loc 1 1027 1 view .LVU380
 1145 0044 10B5     		push	{r4, lr}
 1146              	.LCFI11:
 1147              		.cfi_def_cfa_offset 8
 1148              		.cfi_offset 4, -8
 1149              		.cfi_offset 14, -4
1049:Middlewares/lvgl/src/draw/lv_draw_blend.c **** 
1050:Middlewares/lvgl/src/draw/lv_draw_blend.c ****     return lv_color_mix(fg, bg, opa);
 1150              		.loc 1 1050 5 is_stmt 1 view .LVU381
 1151              	.LVL117:
 1152              	.LBB99:
 1153              	.LBI99:
 459:Middlewares/lvgl/src/draw/../misc/lv_color.h **** {
 1154              		.loc 3 459 48 view .LVU382
 1155              	.LBB100:
 461:Middlewares/lvgl/src/draw/../misc/lv_color.h **** #if LV_COLOR_DEPTH != 1
 1156              		.loc 3 461 5 view .LVU383
 464:Middlewares/lvgl/src/draw/../misc/lv_color.h ****                                         (255 - mix) + LV_COLOR_MIX_ROUND_OFS));
 1157              		.loc 3 464 5 view .LVU384
 1158 0046 C0F3C424 		ubfx	r4, r0, #11, #5
 1159 004a C1F3C42C 		ubfx	ip, r1, #11, #5
 1160              	.LVL118:
 464:Middlewares/lvgl/src/draw/../misc/lv_color.h ****                                         (255 - mix) + LV_COLOR_MIX_ROUND_OFS));
 1161              		.loc 3 464 5 is_stmt 0 view .LVU385
 1162 004e C2F1FF03 		rsb	r3, r2, #255
 1163 0052 03FB0CFC 		mul	ip, r3, ip
 1164 0056 02FB04CC 		mla	ip, r2, r4, ip
 1165 005a 0CF1800C 		add	ip, ip, #128
ARM GAS  /tmp/ccViN4Ah.s 			page 54


 1166 005e 0CEB0C24 		add	r4, ip, ip, lsl #8
 1167 0062 0CEBC41C 		add	ip, ip, r4, lsl #7
 1168 0066 CCF3C45C 		ubfx	ip, ip, #23, #5
 1169 006a 4FF0000E 		mov	lr, #0	@ movhi
 1170              	.LVL119:
 464:Middlewares/lvgl/src/draw/../misc/lv_color.h ****                                         (255 - mix) + LV_COLOR_MIX_ROUND_OFS));
 1171              		.loc 3 464 5 view .LVU386
 1172 006e 6CF3CF2E 		bfi	lr, ip, #11, #5
 1173              	.LVL120:
 466:Middlewares/lvgl/src/draw/../misc/lv_color.h ****                                         (255 - mix) + LV_COLOR_MIX_ROUND_OFS));
 1174              		.loc 3 466 5 is_stmt 1 view .LVU387
 1175 0072 C0F34514 		ubfx	r4, r0, #5, #6
 1176 0076 C1F3451C 		ubfx	ip, r1, #5, #6
 1177 007a 0CFB03FC 		mul	ip, ip, r3
 1178 007e 04FB02CC 		mla	ip, r4, r2, ip
 1179 0082 0CF1800C 		add	ip, ip, #128
 1180 0086 0CEB0C24 		add	r4, ip, ip, lsl #8
 1181 008a 0CEBC41C 		add	ip, ip, r4, lsl #7
 1182 008e CCF3C55C 		ubfx	ip, ip, #23, #6
 1183 0092 6CF34A1E 		bfi	lr, ip, #5, #6
 468:Middlewares/lvgl/src/draw/../misc/lv_color.h ****                                         (255 - mix) + LV_COLOR_MIX_ROUND_OFS));
 1184              		.loc 3 468 5 view .LVU388
 1185 0096 00F01F0C 		and	ip, r0, #31
 1186 009a 01F01F01 		and	r1, r1, #31
 1187              	.LVL121:
 468:Middlewares/lvgl/src/draw/../misc/lv_color.h ****                                         (255 - mix) + LV_COLOR_MIX_ROUND_OFS));
 1188              		.loc 3 468 5 is_stmt 0 view .LVU389
 1189 009e 01FB03F3 		mul	r3, r1, r3
 1190 00a2 0CFB0232 		mla	r2, ip, r2, r3
 1191              	.LVL122:
 468:Middlewares/lvgl/src/draw/../misc/lv_color.h ****                                         (255 - mix) + LV_COLOR_MIX_ROUND_OFS));
 1192              		.loc 3 468 5 view .LVU390
 1193 00a6 8032     		adds	r2, r2, #128
 1194 00a8 02EB0220 		add	r0, r2, r2, lsl #8
 1195              	.LVL123:
 468:Middlewares/lvgl/src/draw/../misc/lv_color.h ****                                         (255 - mix) + LV_COLOR_MIX_ROUND_OFS));
 1196              		.loc 3 468 5 view .LVU391
 1197 00ac 02EBC012 		add	r2, r2, r0, lsl #7
 1198 00b0 C2F3C452 		ubfx	r2, r2, #23, #5
 1199 00b4 62F3040E 		bfi	lr, r2, #0, #5
 470:Middlewares/lvgl/src/draw/../misc/lv_color.h **** #else
 1200              		.loc 3 470 5 is_stmt 1 view .LVU392
 470:Middlewares/lvgl/src/draw/../misc/lv_color.h **** #else
 1201              		.loc 3 470 5 view .LVU393
 470:Middlewares/lvgl/src/draw/../misc/lv_color.h **** #else
 1202              		.loc 3 470 5 view .LVU394
 1203              		.loc 3 476 5 view .LVU395
 1204 00b8 7046     		mov	r0, lr	@ movhi
 1205              	.LVL124:
 1206              		.loc 3 476 5 is_stmt 0 view .LVU396
 1207              	.LBE100:
 1208              	.LBE99:
1051:Middlewares/lvgl/src/draw/lv_draw_blend.c **** }
 1209              		.loc 1 1051 1 view .LVU397
 1210 00ba 10BD     		pop	{r4, pc}
 1211              	.LVL125:
 1212              	.L70:
ARM GAS  /tmp/ccViN4Ah.s 			page 55


 1213              	.LCFI12:
 1214              		.cfi_def_cfa_offset 0
 1215              		.cfi_restore 4
 1216              		.cfi_restore 14
1029:Middlewares/lvgl/src/draw/lv_draw_blend.c **** 
 1217              		.loc 1 1029 27 is_stmt 1 discriminator 1 view .LVU398
1029:Middlewares/lvgl/src/draw/lv_draw_blend.c **** 
 1218              		.loc 1 1029 34 is_stmt 0 discriminator 1 view .LVU399
 1219 00bc 0846     		mov	r0, r1	@ movhi
 1220              	.LVL126:
1029:Middlewares/lvgl/src/draw/lv_draw_blend.c **** 
 1221              		.loc 1 1029 34 discriminator 1 view .LVU400
 1222 00be 7047     		bx	lr
 1223              	.LVL127:
 1224              	.L67:
 1225              	.LVL128:
 1226              		.loc 1 1051 1 view .LVU401
 1227 00c0 7047     		bx	lr
 1228              		.cfi_endproc
 1229              	.LFE156:
 1231              		.section	.text.map_normal,"ax",%progbits
 1232              		.align	1
 1233              		.syntax unified
 1234              		.thumb
 1235              		.thumb_func
 1236              		.fpu fpv4-sp-d16
 1238              	map_normal:
 1239              	.LVL129:
 1240              	.LFB153:
 660:Middlewares/lvgl/src/draw/lv_draw_blend.c **** 
 1241              		.loc 1 660 1 is_stmt 1 view -0
 1242              		.cfi_startproc
 1243              		@ args = 16, pretend = 0, frame = 48
 1244              		@ frame_needed = 0, uses_anonymous_args = 0
 660:Middlewares/lvgl/src/draw/lv_draw_blend.c **** 
 1245              		.loc 1 660 1 is_stmt 0 view .LVU403
 1246 0000 2DE9F04F 		push	{r4, r5, r6, r7, r8, r9, r10, fp, lr}
 1247              	.LCFI13:
 1248              		.cfi_def_cfa_offset 36
 1249              		.cfi_offset 4, -36
 1250              		.cfi_offset 5, -32
 1251              		.cfi_offset 6, -28
 1252              		.cfi_offset 7, -24
 1253              		.cfi_offset 8, -20
 1254              		.cfi_offset 9, -16
 1255              		.cfi_offset 10, -12
 1256              		.cfi_offset 11, -8
 1257              		.cfi_offset 14, -4
 1258 0004 8DB0     		sub	sp, sp, #52
 1259              	.LCFI14:
 1260              		.cfi_def_cfa_offset 88
 1261 0006 0391     		str	r1, [sp, #12]
 1262 0008 9DF85C80 		ldrb	r8, [sp, #92]	@ zero_extendqisi2
 663:Middlewares/lvgl/src/draw/lv_draw_blend.c **** 
 1263              		.loc 1 663 5 is_stmt 1 view .LVU404
 1264              	.LVL130:
 1265              	.LBB128:
ARM GAS  /tmp/ccViN4Ah.s 			page 56


 1266              	.LBI128:
 133:Middlewares/lvgl/src/draw/../misc/lv_area.h **** {
 1267              		.loc 2 133 26 view .LVU405
 1268              	.LBB129:
 1269              		.loc 2 135 5 view .LVU406
 1270              		.loc 2 135 31 is_stmt 0 view .LVU407
 1271 000c 8188     		ldrh	r1, [r0, #4]
 1272              	.LVL131:
 1273              		.loc 2 135 44 view .LVU408
 1274 000e B0F90040 		ldrsh	r4, [r0]
 1275 0012 0194     		str	r4, [sp, #4]
 1276 0014 BDF80440 		ldrh	r4, [sp, #4]
 1277              		.loc 2 135 36 view .LVU409
 1278 0018 091B     		subs	r1, r1, r4
 1279 001a 89B2     		uxth	r1, r1
 1280              		.loc 2 135 49 view .LVU410
 1281 001c 0131     		adds	r1, r1, #1
 1282              		.loc 2 135 12 view .LVU411
 1283 001e 0DB2     		sxth	r5, r1
 1284 0020 0595     		str	r5, [sp, #20]
 1285              	.LVL132:
 1286              		.loc 2 135 12 view .LVU412
 1287              	.LBE129:
 1288              	.LBE128:
 665:Middlewares/lvgl/src/draw/lv_draw_blend.c ****     int32_t draw_area_h = lv_area_get_height(draw_area);
 1289              		.loc 1 665 5 is_stmt 1 view .LVU413
 1290              	.LBB130:
 1291              	.LBI130:
 133:Middlewares/lvgl/src/draw/../misc/lv_area.h **** {
 1292              		.loc 2 133 26 view .LVU414
 1293              	.LBB131:
 1294              		.loc 2 135 5 view .LVU415
 1295              		.loc 2 135 31 is_stmt 0 view .LVU416
 1296 0022 9188     		ldrh	r1, [r2, #4]
 1297              		.loc 2 135 44 view .LVU417
 1298 0024 B2F90060 		ldrsh	r6, [r2]
 1299 0028 B4B2     		uxth	r4, r6
 1300              		.loc 2 135 36 view .LVU418
 1301 002a 0D1B     		subs	r5, r1, r4
 1302              	.LVL133:
 1303              		.loc 2 135 36 view .LVU419
 1304 002c ADB2     		uxth	r5, r5
 1305              		.loc 2 135 49 view .LVU420
 1306 002e 0135     		adds	r5, r5, #1
 1307              		.loc 2 135 12 view .LVU421
 1308 0030 2DB2     		sxth	r5, r5
 1309              	.LVL134:
 1310              		.loc 2 135 12 view .LVU422
 1311              	.LBE131:
 1312              	.LBE130:
 666:Middlewares/lvgl/src/draw/lv_draw_blend.c **** 
 1313              		.loc 1 666 5 is_stmt 1 view .LVU423
 1314              	.LBB132:
 1315              	.LBI132:
 136:Middlewares/lvgl/src/draw/../misc/lv_area.h **** }
 137:Middlewares/lvgl/src/draw/../misc/lv_area.h **** 
 138:Middlewares/lvgl/src/draw/../misc/lv_area.h **** /**
ARM GAS  /tmp/ccViN4Ah.s 			page 57


 139:Middlewares/lvgl/src/draw/../misc/lv_area.h ****  * Get the height of an area
 140:Middlewares/lvgl/src/draw/../misc/lv_area.h ****  * @param area_p pointer to an area
 141:Middlewares/lvgl/src/draw/../misc/lv_area.h ****  * @return the height of the area (if y1 == y2 -> height = 1)
 142:Middlewares/lvgl/src/draw/../misc/lv_area.h ****  */
 143:Middlewares/lvgl/src/draw/../misc/lv_area.h **** static inline lv_coord_t lv_area_get_height(const lv_area_t * area_p)
 1316              		.loc 2 143 26 view .LVU424
 1317              	.LBB133:
 144:Middlewares/lvgl/src/draw/../misc/lv_area.h **** {
 145:Middlewares/lvgl/src/draw/../misc/lv_area.h ****     return (lv_coord_t)(area_p->y2 - area_p->y1 + 1);
 1318              		.loc 2 145 5 view .LVU425
 1319              		.loc 2 145 31 is_stmt 0 view .LVU426
 1320 0032 D188     		ldrh	r1, [r2, #6]
 1321              		.loc 2 145 44 view .LVU427
 1322 0034 B2F902B0 		ldrsh	fp, [r2, #2]
 1323 0038 1FFA8BF2 		uxth	r2, fp
 1324              	.LVL135:
 1325              		.loc 2 145 36 view .LVU428
 1326 003c 8A1A     		subs	r2, r1, r2
 1327 003e 92B2     		uxth	r2, r2
 1328              		.loc 2 145 49 view .LVU429
 1329 0040 0132     		adds	r2, r2, #1
 1330              		.loc 2 145 12 view .LVU430
 1331 0042 0FFA82FA 		sxth	r10, r2
 1332 0046 CDF818A0 		str	r10, [sp, #24]
 1333              	.LVL136:
 1334              		.loc 2 145 12 view .LVU431
 1335              	.LBE133:
 1336              	.LBE132:
 669:Middlewares/lvgl/src/draw/lv_draw_blend.c **** 
 1337              		.loc 1 669 5 is_stmt 1 view .LVU432
 1338              	.LBB134:
 1339              	.LBI134:
 133:Middlewares/lvgl/src/draw/../misc/lv_area.h **** {
 1340              		.loc 2 133 26 view .LVU433
 1341              	.LBB135:
 135:Middlewares/lvgl/src/draw/../misc/lv_area.h **** }
 1342              		.loc 2 135 5 view .LVU434
 135:Middlewares/lvgl/src/draw/../misc/lv_area.h **** }
 1343              		.loc 2 135 31 is_stmt 0 view .LVU435
 1344 004a 9A88     		ldrh	r2, [r3, #4]
 135:Middlewares/lvgl/src/draw/../misc/lv_area.h **** }
 1345              		.loc 2 135 44 view .LVU436
 1346 004c B3F900A0 		ldrsh	r10, [r3]
 1347              	.LVL137:
 135:Middlewares/lvgl/src/draw/../misc/lv_area.h **** }
 1348              		.loc 2 135 44 view .LVU437
 1349 0050 1FFA8AF1 		uxth	r1, r10
 135:Middlewares/lvgl/src/draw/../misc/lv_area.h **** }
 1350              		.loc 2 135 36 view .LVU438
 1351 0054 521A     		subs	r2, r2, r1
 1352 0056 92B2     		uxth	r2, r2
 135:Middlewares/lvgl/src/draw/../misc/lv_area.h **** }
 1353              		.loc 2 135 49 view .LVU439
 1354 0058 0132     		adds	r2, r2, #1
 135:Middlewares/lvgl/src/draw/../misc/lv_area.h **** }
 1355              		.loc 2 135 12 view .LVU440
 1356 005a 11B2     		sxth	r1, r2
ARM GAS  /tmp/ccViN4Ah.s 			page 58


 1357 005c 0491     		str	r1, [sp, #16]
 1358              	.LVL138:
 135:Middlewares/lvgl/src/draw/../misc/lv_area.h **** }
 1359              		.loc 2 135 12 view .LVU441
 1360              	.LBE135:
 1361              	.LBE134:
 672:Middlewares/lvgl/src/draw/lv_draw_blend.c **** 
 1362              		.loc 1 672 5 is_stmt 1 view .LVU442
 672:Middlewares/lvgl/src/draw/lv_draw_blend.c **** 
 1363              		.loc 1 672 69 is_stmt 0 view .LVU443
 1364 005e 059C     		ldr	r4, [sp, #20]
 1365 0060 04FB0B64 		mla	r4, r4, fp, r6
 672:Middlewares/lvgl/src/draw/lv_draw_blend.c **** 
 1366              		.loc 1 672 18 view .LVU444
 1367 0064 039A     		ldr	r2, [sp, #12]
 1368 0066 02EB4404 		add	r4, r2, r4, lsl #1
 1369              	.LVL139:
 675:Middlewares/lvgl/src/draw/lv_draw_blend.c ****     map_buf_first += (draw_area->x1 - (map_area->x1 - disp_area->x1));
 1370              		.loc 1 675 5 is_stmt 1 view .LVU445
 675:Middlewares/lvgl/src/draw/lv_draw_blend.c ****     map_buf_first += (draw_area->x1 - (map_area->x1 - disp_area->x1));
 1371              		.loc 1 675 84 is_stmt 0 view .LVU446
 1372 006a B3F90230 		ldrsh	r3, [r3, #2]
 1373              	.LVL140:
 675:Middlewares/lvgl/src/draw/lv_draw_blend.c ****     map_buf_first += (draw_area->x1 - (map_area->x1 - disp_area->x1));
 1374              		.loc 1 675 100 view .LVU447
 1375 006e B0F90220 		ldrsh	r2, [r0, #2]
 675:Middlewares/lvgl/src/draw/lv_draw_blend.c ****     map_buf_first += (draw_area->x1 - (map_area->x1 - disp_area->x1));
 1376              		.loc 1 675 89 view .LVU448
 1377 0072 9B1A     		subs	r3, r3, r2
 675:Middlewares/lvgl/src/draw/lv_draw_blend.c ****     map_buf_first += (draw_area->x1 - (map_area->x1 - disp_area->x1));
 1378              		.loc 1 675 73 view .LVU449
 1379 0074 ABEB0303 		sub	r3, fp, r3
 1380              	.LVL141:
 676:Middlewares/lvgl/src/draw/lv_draw_blend.c **** 
 1381              		.loc 1 676 5 is_stmt 1 view .LVU450
 676:Middlewares/lvgl/src/draw/lv_draw_blend.c **** 
 1382              		.loc 1 676 53 is_stmt 0 view .LVU451
 1383 0078 019A     		ldr	r2, [sp, #4]
 1384 007a AAEB020A 		sub	r10, r10, r2
 676:Middlewares/lvgl/src/draw/lv_draw_blend.c **** 
 1385              		.loc 1 676 37 view .LVU452
 1386 007e A6EB0A06 		sub	r6, r6, r10
 676:Middlewares/lvgl/src/draw/lv_draw_blend.c **** 
 1387              		.loc 1 676 19 view .LVU453
 1388 0082 01FB0363 		mla	r3, r1, r3, r6
 1389              	.LVL142:
 676:Middlewares/lvgl/src/draw/lv_draw_blend.c **** 
 1390              		.loc 1 676 19 view .LVU454
 1391 0086 169E     		ldr	r6, [sp, #88]
 1392 0088 06EB4306 		add	r6, r6, r3, lsl #1
 1393              	.LVL143:
 682:Middlewares/lvgl/src/draw/lv_draw_blend.c ****     int32_t y;
 1394              		.loc 1 682 5 is_stmt 1 view .LVU455
 683:Middlewares/lvgl/src/draw/lv_draw_blend.c **** 
 1395              		.loc 1 683 5 view .LVU456
 686:Middlewares/lvgl/src/draw/lv_draw_blend.c ****         if(opa > LV_OPA_MAX) {
 1396              		.loc 1 686 5 view .LVU457
ARM GAS  /tmp/ccViN4Ah.s 			page 59


 686:Middlewares/lvgl/src/draw/lv_draw_blend.c ****         if(opa > LV_OPA_MAX) {
 1397              		.loc 1 686 7 is_stmt 0 view .LVU458
 1398 008c 9DF86430 		ldrb	r3, [sp, #100]	@ zero_extendqisi2
 1399 0090 012B     		cmp	r3, #1
 1400 0092 08D0     		beq	.L113
 803:Middlewares/lvgl/src/draw/lv_draw_blend.c ****             /*Go to the first pixel of the row*/
 1401              		.loc 1 803 9 is_stmt 1 view .LVU459
 803:Middlewares/lvgl/src/draw/lv_draw_blend.c ****             /*Go to the first pixel of the row*/
 1402              		.loc 1 803 11 is_stmt 0 view .LVU460
 1403 0094 B8F1FD0F 		cmp	r8, #253
 1404 0098 40F2F082 		bls	.L107
 1405              	.LBB136:
 806:Middlewares/lvgl/src/draw/lv_draw_blend.c **** 
 1406              		.loc 1 806 13 is_stmt 1 view .LVU461
 806:Middlewares/lvgl/src/draw/lv_draw_blend.c **** 
 1407              		.loc 1 806 21 is_stmt 0 view .LVU462
 1408 009c 2B1F     		subs	r3, r5, #4
 1409 009e 0193     		str	r3, [sp, #4]
 1410              	.LVL144:
 808:Middlewares/lvgl/src/draw/lv_draw_blend.c ****                 const lv_opa_t * mask_tmp_x = mask;
 1411              		.loc 1 808 13 is_stmt 1 view .LVU463
 808:Middlewares/lvgl/src/draw/lv_draw_blend.c ****                 const lv_opa_t * mask_tmp_x = mask;
 1412              		.loc 1 808 19 is_stmt 0 view .LVU464
 1413 00a0 0023     		movs	r3, #0
 1414              	.LVL145:
 808:Middlewares/lvgl/src/draw/lv_draw_blend.c ****                 const lv_opa_t * mask_tmp_x = mask;
 1415              		.loc 1 808 19 view .LVU465
 1416 00a2 0393     		str	r3, [sp, #12]
 1417              	.LVL146:
 808:Middlewares/lvgl/src/draw/lv_draw_blend.c ****                 const lv_opa_t * mask_tmp_x = mask;
 1418              		.loc 1 808 13 view .LVU466
 1419 00a4 88E2     		b	.L80
 1420              	.LVL147:
 1421              	.L113:
 808:Middlewares/lvgl/src/draw/lv_draw_blend.c ****                 const lv_opa_t * mask_tmp_x = mask;
 1422              		.loc 1 808 13 view .LVU467
 1423              	.LBE136:
 687:Middlewares/lvgl/src/draw/lv_draw_blend.c **** #if LV_USE_GPU_NXP_PXP
 1424              		.loc 1 687 9 is_stmt 1 view .LVU468
 687:Middlewares/lvgl/src/draw/lv_draw_blend.c **** #if LV_USE_GPU_NXP_PXP
 1425              		.loc 1 687 11 is_stmt 0 view .LVU469
 1426 00a6 B8F1FD0F 		cmp	r8, #253
 1427 00aa 15D8     		bhi	.L105
 782:Middlewares/lvgl/src/draw/lv_draw_blend.c ****                 for(x = 0; x < draw_area_w; x++) {
 1428              		.loc 1 782 19 view .LVU470
 1429 00ac 4FF0000C 		mov	ip, #0
 1430 00b0 DDF818E0 		ldr	lr, [sp, #24]
 1431 00b4 DDF814A0 		ldr	r10, [sp, #20]
 1432 00b8 5BE0     		b	.L74
 1433              	.LVL148:
 1434              	.L75:
 732:Middlewares/lvgl/src/draw/lv_draw_blend.c ****                 disp_buf_first += disp_w;
 1435              		.loc 1 732 17 is_stmt 1 discriminator 3 view .LVU471
 1436 00ba 6A00     		lsls	r2, r5, #1
 1437 00bc 3146     		mov	r1, r6
 1438 00be 2046     		mov	r0, r4
 1439 00c0 FFF7FEFF 		bl	lv_memcpy
ARM GAS  /tmp/ccViN4Ah.s 			page 60


 1440              	.LVL149:
 733:Middlewares/lvgl/src/draw/lv_draw_blend.c ****                 map_buf_first += map_w;
 1441              		.loc 1 733 17 discriminator 3 view .LVU472
 733:Middlewares/lvgl/src/draw/lv_draw_blend.c ****                 map_buf_first += map_w;
 1442              		.loc 1 733 32 is_stmt 0 discriminator 3 view .LVU473
 1443 00c4 04EB4A04 		add	r4, r4, r10, lsl #1
 1444              	.LVL150:
 734:Middlewares/lvgl/src/draw/lv_draw_blend.c ****             }
 1445              		.loc 1 734 17 is_stmt 1 discriminator 3 view .LVU474
 734:Middlewares/lvgl/src/draw/lv_draw_blend.c ****             }
 1446              		.loc 1 734 31 is_stmt 0 discriminator 3 view .LVU475
 1447 00c8 06EB4906 		add	r6, r6, r9, lsl #1
 1448              	.LVL151:
 731:Middlewares/lvgl/src/draw/lv_draw_blend.c ****                 lv_memcpy(disp_buf_first, map_buf_first, draw_area_w * sizeof(lv_color_t));
 1449              		.loc 1 731 41 is_stmt 1 discriminator 3 view .LVU476
 731:Middlewares/lvgl/src/draw/lv_draw_blend.c ****                 lv_memcpy(disp_buf_first, map_buf_first, draw_area_w * sizeof(lv_color_t));
 1450              		.loc 1 731 42 is_stmt 0 discriminator 3 view .LVU477
 1451 00cc 0137     		adds	r7, r7, #1
 1452              	.LVL152:
 1453              	.L73:
 731:Middlewares/lvgl/src/draw/lv_draw_blend.c ****                 lv_memcpy(disp_buf_first, map_buf_first, draw_area_w * sizeof(lv_color_t));
 1454              		.loc 1 731 24 is_stmt 1 discriminator 1 view .LVU478
 731:Middlewares/lvgl/src/draw/lv_draw_blend.c ****                 lv_memcpy(disp_buf_first, map_buf_first, draw_area_w * sizeof(lv_color_t));
 1455              		.loc 1 731 13 is_stmt 0 discriminator 1 view .LVU479
 1456 00ce 4745     		cmp	r7, r8
 1457 00d0 F3DB     		blt	.L75
 1458              	.LVL153:
 1459              	.L71:
 888:Middlewares/lvgl/src/draw/lv_draw_blend.c **** #if LV_DRAW_COMPLEX
 1460              		.loc 1 888 1 view .LVU480
 1461 00d2 0DB0     		add	sp, sp, #52
 1462              	.LCFI15:
 1463              		.cfi_remember_state
 1464              		.cfi_def_cfa_offset 36
 1465              		@ sp needed
 1466 00d4 BDE8F08F 		pop	{r4, r5, r6, r7, r8, r9, r10, fp, pc}
 1467              	.LVL154:
 1468              	.L105:
 1469              	.LCFI16:
 1470              		.cfi_restore_state
 731:Middlewares/lvgl/src/draw/lv_draw_blend.c ****                 lv_memcpy(disp_buf_first, map_buf_first, draw_area_w * sizeof(lv_color_t));
 1471              		.loc 1 731 19 view .LVU481
 1472 00d8 0027     		movs	r7, #0
 1473 00da DDF81880 		ldr	r8, [sp, #24]
 1474 00de DDF81090 		ldr	r9, [sp, #16]
 1475 00e2 DDF814A0 		ldr	r10, [sp, #20]
 1476 00e6 F2E7     		b	.L73
 1477              	.LVL155:
 1478              	.L77:
 792:Middlewares/lvgl/src/draw/lv_draw_blend.c ****                     }
 1479              		.loc 1 792 25 is_stmt 1 discriminator 3 view .LVU482
 1480 00e8 36F81170 		ldrh	r7, [r6, r1, lsl #1]
 1481 00ec 34F811B0 		ldrh	fp, [r4, r1, lsl #1]
 1482              	.LVL156:
 1483              	.LBB151:
 1484              	.LBI151:
 459:Middlewares/lvgl/src/draw/../misc/lv_color.h **** {
ARM GAS  /tmp/ccViN4Ah.s 			page 61


 1485              		.loc 3 459 48 discriminator 3 view .LVU483
 1486              	.LBB152:
 461:Middlewares/lvgl/src/draw/../misc/lv_color.h **** #if LV_COLOR_DEPTH != 1
 1487              		.loc 3 461 5 discriminator 3 view .LVU484
 464:Middlewares/lvgl/src/draw/../misc/lv_color.h ****                                         (255 - mix) + LV_COLOR_MIX_ROUND_OFS));
 1488              		.loc 3 464 5 discriminator 3 view .LVU485
 464:Middlewares/lvgl/src/draw/../misc/lv_color.h ****                                         (255 - mix) + LV_COLOR_MIX_ROUND_OFS));
 1489              		.loc 3 464 5 is_stmt 0 discriminator 3 view .LVU486
 1490 00f0 C7F3C420 		ubfx	r0, r7, #11, #5
 1491              	.LVL157:
 464:Middlewares/lvgl/src/draw/../misc/lv_color.h ****                                         (255 - mix) + LV_COLOR_MIX_ROUND_OFS));
 1492              		.loc 3 464 5 discriminator 3 view .LVU487
 1493 00f4 CBF3C423 		ubfx	r3, fp, #11, #5
 1494 00f8 C8F1FF02 		rsb	r2, r8, #255
 1495 00fc 02FB03F3 		mul	r3, r2, r3
 1496 0100 08FB0033 		mla	r3, r8, r0, r3
 1497 0104 8033     		adds	r3, r3, #128
 1498 0106 03EB0320 		add	r0, r3, r3, lsl #8
 1499 010a 03EBC013 		add	r3, r3, r0, lsl #7
 1500 010e C3F3C453 		ubfx	r3, r3, #23, #5
 1501 0112 63F3CF29 		bfi	r9, r3, #11, #5
 466:Middlewares/lvgl/src/draw/../misc/lv_color.h ****                                         (255 - mix) + LV_COLOR_MIX_ROUND_OFS));
 1502              		.loc 3 466 5 is_stmt 1 discriminator 3 view .LVU488
 1503 0116 C7F34513 		ubfx	r3, r7, #5, #6
 1504 011a CBF34510 		ubfx	r0, fp, #5, #6
 1505 011e 02FB00F0 		mul	r0, r2, r0
 1506 0122 03FB0800 		mla	r0, r3, r8, r0
 1507 0126 8030     		adds	r0, r0, #128
 1508 0128 00EB0023 		add	r3, r0, r0, lsl #8
 1509 012c 00EBC310 		add	r0, r0, r3, lsl #7
 1510 0130 C0F3C550 		ubfx	r0, r0, #23, #6
 1511 0134 60F34A19 		bfi	r9, r0, #5, #6
 468:Middlewares/lvgl/src/draw/../misc/lv_color.h ****                                         (255 - mix) + LV_COLOR_MIX_ROUND_OFS));
 1512              		.loc 3 468 5 discriminator 3 view .LVU489
 1513 0138 07F01F07 		and	r7, r7, #31
 1514              	.LVL158:
 468:Middlewares/lvgl/src/draw/../misc/lv_color.h ****                                         (255 - mix) + LV_COLOR_MIX_ROUND_OFS));
 1515              		.loc 3 468 5 is_stmt 0 discriminator 3 view .LVU490
 1516 013c 0BF01F03 		and	r3, fp, #31
 1517 0140 02FB03F3 		mul	r3, r2, r3
 1518 0144 07FB0833 		mla	r3, r7, r8, r3
 1519 0148 8033     		adds	r3, r3, #128
 1520 014a 03EB0322 		add	r2, r3, r3, lsl #8
 1521 014e 03EBC213 		add	r3, r3, r2, lsl #7
 1522 0152 C3F3C453 		ubfx	r3, r3, #23, #5
 1523 0156 63F30409 		bfi	r9, r3, #0, #5
 470:Middlewares/lvgl/src/draw/../misc/lv_color.h **** #else
 1524              		.loc 3 470 5 is_stmt 1 discriminator 3 view .LVU491
 470:Middlewares/lvgl/src/draw/../misc/lv_color.h **** #else
 1525              		.loc 3 470 5 discriminator 3 view .LVU492
 470:Middlewares/lvgl/src/draw/../misc/lv_color.h **** #else
 1526              		.loc 3 470 5 discriminator 3 view .LVU493
 1527              		.loc 3 476 5 discriminator 3 view .LVU494
 1528              	.LVL159:
 1529              		.loc 3 476 5 is_stmt 0 discriminator 3 view .LVU495
 1530              	.LBE152:
 1531              	.LBE151:
ARM GAS  /tmp/ccViN4Ah.s 			page 62


 792:Middlewares/lvgl/src/draw/lv_draw_blend.c ****                     }
 1532              		.loc 1 792 45 discriminator 3 view .LVU496
 1533 015a 24F81190 		strh	r9, [r4, r1, lsl #1]	@ movhi
 783:Middlewares/lvgl/src/draw/lv_draw_blend.c **** #if LV_COLOR_SCREEN_TRANSP
 1534              		.loc 1 783 45 is_stmt 1 discriminator 3 view .LVU497
 783:Middlewares/lvgl/src/draw/lv_draw_blend.c **** #if LV_COLOR_SCREEN_TRANSP
 1535              		.loc 1 783 46 is_stmt 0 discriminator 3 view .LVU498
 1536 015e 0131     		adds	r1, r1, #1
 1537              	.LVL160:
 1538              	.L78:
 783:Middlewares/lvgl/src/draw/lv_draw_blend.c **** #if LV_COLOR_SCREEN_TRANSP
 1539              		.loc 1 783 28 is_stmt 1 discriminator 1 view .LVU499
 783:Middlewares/lvgl/src/draw/lv_draw_blend.c **** #if LV_COLOR_SCREEN_TRANSP
 1540              		.loc 1 783 17 is_stmt 0 discriminator 1 view .LVU500
 1541 0160 A942     		cmp	r1, r5
 1542 0162 C1DB     		blt	.L77
 795:Middlewares/lvgl/src/draw/lv_draw_blend.c ****                 map_buf_first += map_w;
 1543              		.loc 1 795 17 is_stmt 1 discriminator 2 view .LVU501
 795:Middlewares/lvgl/src/draw/lv_draw_blend.c ****                 map_buf_first += map_w;
 1544              		.loc 1 795 32 is_stmt 0 discriminator 2 view .LVU502
 1545 0164 04EB4A04 		add	r4, r4, r10, lsl #1
 1546              	.LVL161:
 796:Middlewares/lvgl/src/draw/lv_draw_blend.c ****             }
 1547              		.loc 1 796 17 is_stmt 1 discriminator 2 view .LVU503
 796:Middlewares/lvgl/src/draw/lv_draw_blend.c ****             }
 1548              		.loc 1 796 31 is_stmt 0 discriminator 2 view .LVU504
 1549 0168 049B     		ldr	r3, [sp, #16]
 1550 016a 06EB4306 		add	r6, r6, r3, lsl #1
 1551              	.LVL162:
 782:Middlewares/lvgl/src/draw/lv_draw_blend.c ****                 for(x = 0; x < draw_area_w; x++) {
 1552              		.loc 1 782 41 is_stmt 1 discriminator 2 view .LVU505
 782:Middlewares/lvgl/src/draw/lv_draw_blend.c ****                 for(x = 0; x < draw_area_w; x++) {
 1553              		.loc 1 782 42 is_stmt 0 discriminator 2 view .LVU506
 1554 016e 0CF1010C 		add	ip, ip, #1
 1555              	.LVL163:
 1556              	.L74:
 782:Middlewares/lvgl/src/draw/lv_draw_blend.c ****                 for(x = 0; x < draw_area_w; x++) {
 1557              		.loc 1 782 24 is_stmt 1 discriminator 1 view .LVU507
 782:Middlewares/lvgl/src/draw/lv_draw_blend.c ****                 for(x = 0; x < draw_area_w; x++) {
 1558              		.loc 1 782 13 is_stmt 0 discriminator 1 view .LVU508
 1559 0172 F445     		cmp	ip, lr
 1560 0174 ADDA     		bge	.L71
 783:Middlewares/lvgl/src/draw/lv_draw_blend.c **** #if LV_COLOR_SCREEN_TRANSP
 1561              		.loc 1 783 23 view .LVU509
 1562 0176 0021     		movs	r1, #0
 1563 0178 F2E7     		b	.L78
 1564              	.LVL164:
 1565              	.L82:
 1566              	.LBB153:
 1567              	.LBB137:
 819:Middlewares/lvgl/src/draw/lv_draw_blend.c **** #endif
 1568              		.loc 1 819 21 is_stmt 1 discriminator 4 view .LVU510
 1569 017a 36F81390 		ldrh	r9, [r6, r3, lsl #1]
 1570 017e 34F813A0 		ldrh	r10, [r4, r3, lsl #1]
 1571              	.LVL165:
 1572              	.LBB138:
 1573              	.LBI138:
ARM GAS  /tmp/ccViN4Ah.s 			page 63


 459:Middlewares/lvgl/src/draw/../misc/lv_color.h **** {
 1574              		.loc 3 459 48 discriminator 4 view .LVU511
 1575              	.LBB139:
 461:Middlewares/lvgl/src/draw/../misc/lv_color.h **** #if LV_COLOR_DEPTH != 1
 1576              		.loc 3 461 5 discriminator 4 view .LVU512
 464:Middlewares/lvgl/src/draw/../misc/lv_color.h ****                                         (255 - mix) + LV_COLOR_MIX_ROUND_OFS));
 1577              		.loc 3 464 5 discriminator 4 view .LVU513
 464:Middlewares/lvgl/src/draw/../misc/lv_color.h ****                                         (255 - mix) + LV_COLOR_MIX_ROUND_OFS));
 1578              		.loc 3 464 5 is_stmt 0 discriminator 4 view .LVU514
 1579 0182 C9F3C42E 		ubfx	lr, r9, #11, #5
 1580              	.LVL166:
 464:Middlewares/lvgl/src/draw/../misc/lv_color.h ****                                         (255 - mix) + LV_COLOR_MIX_ROUND_OFS));
 1581              		.loc 3 464 5 discriminator 4 view .LVU515
 1582 0186 CAF3C421 		ubfx	r1, r10, #11, #5
 1583 018a C8F1FF00 		rsb	r0, r8, #255
 1584              	.LVL167:
 464:Middlewares/lvgl/src/draw/../misc/lv_color.h ****                                         (255 - mix) + LV_COLOR_MIX_ROUND_OFS));
 1585              		.loc 3 464 5 discriminator 4 view .LVU516
 1586 018e 00FB01F1 		mul	r1, r0, r1
 1587 0192 08FB0E11 		mla	r1, r8, lr, r1
 1588 0196 8031     		adds	r1, r1, #128
 1589 0198 01EB012E 		add	lr, r1, r1, lsl #8
 1590 019c 01EBCE11 		add	r1, r1, lr, lsl #7
 1591 01a0 C1F3C451 		ubfx	r1, r1, #23, #5
 1592 01a4 61F3CF27 		bfi	r7, r1, #11, #5
 466:Middlewares/lvgl/src/draw/../misc/lv_color.h ****                                         (255 - mix) + LV_COLOR_MIX_ROUND_OFS));
 1593              		.loc 3 466 5 is_stmt 1 discriminator 4 view .LVU517
 1594 01a8 C9F34511 		ubfx	r1, r9, #5, #6
 1595 01ac CAF3451E 		ubfx	lr, r10, #5, #6
 1596 01b0 0EFB00FE 		mul	lr, lr, r0
 1597 01b4 01FB08EE 		mla	lr, r1, r8, lr
 1598 01b8 0EF1800E 		add	lr, lr, #128
 1599 01bc 0EEB0E21 		add	r1, lr, lr, lsl #8
 1600 01c0 0EEBC11E 		add	lr, lr, r1, lsl #7
 1601 01c4 CEF3C55E 		ubfx	lr, lr, #23, #6
 1602 01c8 6EF34A17 		bfi	r7, lr, #5, #6
 468:Middlewares/lvgl/src/draw/../misc/lv_color.h ****                                         (255 - mix) + LV_COLOR_MIX_ROUND_OFS));
 1603              		.loc 3 468 5 discriminator 4 view .LVU518
 1604 01cc 09F01F09 		and	r9, r9, #31
 1605              	.LVL168:
 468:Middlewares/lvgl/src/draw/../misc/lv_color.h ****                                         (255 - mix) + LV_COLOR_MIX_ROUND_OFS));
 1606              		.loc 3 468 5 is_stmt 0 discriminator 4 view .LVU519
 1607 01d0 0AF01F01 		and	r1, r10, #31
 1608 01d4 00FB01F1 		mul	r1, r0, r1
 1609 01d8 09FB0811 		mla	r1, r9, r8, r1
 1610 01dc 8031     		adds	r1, r1, #128
 1611 01de 01EB0120 		add	r0, r1, r1, lsl #8
 1612 01e2 01EBC011 		add	r1, r1, r0, lsl #7
 1613 01e6 C1F3C451 		ubfx	r1, r1, #23, #5
 1614 01ea 61F30407 		bfi	r7, r1, #0, #5
 470:Middlewares/lvgl/src/draw/../misc/lv_color.h **** #else
 1615              		.loc 3 470 5 is_stmt 1 discriminator 4 view .LVU520
 470:Middlewares/lvgl/src/draw/../misc/lv_color.h **** #else
 1616              		.loc 3 470 5 discriminator 4 view .LVU521
 470:Middlewares/lvgl/src/draw/../misc/lv_color.h **** #else
 1617              		.loc 3 470 5 discriminator 4 view .LVU522
 1618              		.loc 3 476 5 discriminator 4 view .LVU523
ARM GAS  /tmp/ccViN4Ah.s 			page 64


 1619              	.LVL169:
 1620              		.loc 3 476 5 is_stmt 0 discriminator 4 view .LVU524
 1621              	.LBE139:
 1622              	.LBE138:
 819:Middlewares/lvgl/src/draw/lv_draw_blend.c **** #endif
 1623              		.loc 1 819 21 discriminator 4 view .LVU525
 1624 01ee 24F81370 		strh	r7, [r4, r3, lsl #1]	@ movhi
 1625              	.LVL170:
 1626              	.L81:
 819:Middlewares/lvgl/src/draw/lv_draw_blend.c **** #endif
 1627              		.loc 1 819 21 is_stmt 1 discriminator 6 view .LVU526
 1628 01f2 0132     		adds	r2, r2, #1
 1629              	.LVL171:
 815:Middlewares/lvgl/src/draw/lv_draw_blend.c **** #if LV_COLOR_SCREEN_TRANSP
 1630              		.loc 1 815 81 discriminator 6 view .LVU527
 815:Middlewares/lvgl/src/draw/lv_draw_blend.c **** #if LV_COLOR_SCREEN_TRANSP
 1631              		.loc 1 815 82 is_stmt 0 discriminator 6 view .LVU528
 1632 01f4 0133     		adds	r3, r3, #1
 1633              	.LVL172:
 1634              	.L100:
 815:Middlewares/lvgl/src/draw/lv_draw_blend.c **** #if LV_COLOR_SCREEN_TRANSP
 1635              		.loc 1 815 28 is_stmt 1 discriminator 2 view .LVU529
 815:Middlewares/lvgl/src/draw/lv_draw_blend.c **** #if LV_COLOR_SCREEN_TRANSP
 1636              		.loc 1 815 17 is_stmt 0 discriminator 2 view .LVU530
 1637 01f6 AB42     		cmp	r3, r5
 1638 01f8 80F26D81 		bge	.L111
 815:Middlewares/lvgl/src/draw/lv_draw_blend.c **** #if LV_COLOR_SCREEN_TRANSP
 1639              		.loc 1 815 44 discriminator 3 view .LVU531
 1640 01fc 12F0030F 		tst	r2, #3
 1641 0200 0CD0     		beq	.L114
 819:Middlewares/lvgl/src/draw/lv_draw_blend.c **** #endif
 1642              		.loc 1 819 21 is_stmt 1 view .LVU532
 1643 0202 92F80080 		ldrb	r8, [r2]	@ zero_extendqisi2
 1644              	.LVL173:
 819:Middlewares/lvgl/src/draw/lv_draw_blend.c **** #endif
 1645              		.loc 1 819 21 is_stmt 0 view .LVU533
 1646 0206 B8F1000F 		cmp	r8, #0
 1647 020a F2D0     		beq	.L81
