ARM GAS  /tmp/ccViN4Ah.s 			page 1


   1              		.cpu cortex-m4
   2              		.eabi_attribute 27, 1
   3              		.eabi_attribute 28, 1
   4              		.eabi_attribute 20, 1
   5              		.eabi_attribute 21, 1
   6              		.eabi_attribute 23, 3
   7              		.eabi_attribute 24, 1
   8              		.eabi_attribute 25, 1
   9              		.eabi_attribute 26, 1
  10              		.eabi_attribute 30, 1
  11              		.eabi_attribute 34, 1
  12              		.eabi_attribute 18, 4
  13              		.file	"lv_draw_blend.c"
  14              		.text
  15              	.Ltext0:
  16              		.cfi_sections	.debug_frame
  17              		.section	.text.map_blended,"ax",%progbits
  18              		.align	1
  19              		.arch armv7e-m
  20              		.syntax unified
  21              		.thumb
  22              		.thumb_func
  23              		.fpu fpv4-sp-d16
  25              	map_blended:
  26              	.LVL0:
  27              	.LFB154:
  28              		.file 1 "Middlewares/lvgl/src/draw/lv_draw_blend.c"
   1:Middlewares/lvgl/src/draw/lv_draw_blend.c **** /**
   2:Middlewares/lvgl/src/draw/lv_draw_blend.c ****  * @file lv_draw_blend.c
   3:Middlewares/lvgl/src/draw/lv_draw_blend.c ****  *
   4:Middlewares/lvgl/src/draw/lv_draw_blend.c ****  */
   5:Middlewares/lvgl/src/draw/lv_draw_blend.c **** 
   6:Middlewares/lvgl/src/draw/lv_draw_blend.c **** /*********************
   7:Middlewares/lvgl/src/draw/lv_draw_blend.c ****  *      INCLUDES
   8:Middlewares/lvgl/src/draw/lv_draw_blend.c ****  *********************/
   9:Middlewares/lvgl/src/draw/lv_draw_blend.c **** #include "lv_draw_blend.h"
  10:Middlewares/lvgl/src/draw/lv_draw_blend.c **** #include "lv_img_decoder.h"
  11:Middlewares/lvgl/src/draw/lv_draw_blend.c **** #include "../misc/lv_math.h"
  12:Middlewares/lvgl/src/draw/lv_draw_blend.c **** #include "../hal/lv_hal_disp.h"
  13:Middlewares/lvgl/src/draw/lv_draw_blend.c **** #include "../core/lv_refr.h"
  14:Middlewares/lvgl/src/draw/lv_draw_blend.c **** 
  15:Middlewares/lvgl/src/draw/lv_draw_blend.c **** #if LV_USE_GPU_NXP_PXP
  16:Middlewares/lvgl/src/draw/lv_draw_blend.c ****     #include "../gpu/lv_gpu_nxp_pxp.h"
  17:Middlewares/lvgl/src/draw/lv_draw_blend.c **** #elif LV_USE_GPU_NXP_VG_LITE
  18:Middlewares/lvgl/src/draw/lv_draw_blend.c ****     #include "../gpu/lv_gpu_nxp_vglite.h"
  19:Middlewares/lvgl/src/draw/lv_draw_blend.c **** #elif LV_USE_GPU_STM32_DMA2D
  20:Middlewares/lvgl/src/draw/lv_draw_blend.c ****     #include "../gpu/lv_gpu_stm32_dma2d.h"
  21:Middlewares/lvgl/src/draw/lv_draw_blend.c **** #endif
  22:Middlewares/lvgl/src/draw/lv_draw_blend.c **** 
  23:Middlewares/lvgl/src/draw/lv_draw_blend.c **** /*********************
  24:Middlewares/lvgl/src/draw/lv_draw_blend.c ****  *      DEFINES
  25:Middlewares/lvgl/src/draw/lv_draw_blend.c ****  *********************/
  26:Middlewares/lvgl/src/draw/lv_draw_blend.c **** #define GPU_SIZE_LIMIT      240
  27:Middlewares/lvgl/src/draw/lv_draw_blend.c **** 
  28:Middlewares/lvgl/src/draw/lv_draw_blend.c **** /**********************
  29:Middlewares/lvgl/src/draw/lv_draw_blend.c ****  *      TYPEDEFS
  30:Middlewares/lvgl/src/draw/lv_draw_blend.c ****  **********************/
ARM GAS  /tmp/ccViN4Ah.s 			page 2


  31:Middlewares/lvgl/src/draw/lv_draw_blend.c **** 
  32:Middlewares/lvgl/src/draw/lv_draw_blend.c **** /**********************
  33:Middlewares/lvgl/src/draw/lv_draw_blend.c ****  *  STATIC PROTOTYPES
  34:Middlewares/lvgl/src/draw/lv_draw_blend.c ****  **********************/
  35:Middlewares/lvgl/src/draw/lv_draw_blend.c **** 
  36:Middlewares/lvgl/src/draw/lv_draw_blend.c **** static void fill_set_px(const lv_area_t * disp_area, lv_color_t * disp_buf,  const lv_area_t * draw
  37:Middlewares/lvgl/src/draw/lv_draw_blend.c ****                         lv_color_t color, lv_opa_t opa,
  38:Middlewares/lvgl/src/draw/lv_draw_blend.c ****                         const lv_opa_t * mask, lv_draw_mask_res_t mask_res);
  39:Middlewares/lvgl/src/draw/lv_draw_blend.c **** 
  40:Middlewares/lvgl/src/draw/lv_draw_blend.c **** LV_ATTRIBUTE_FAST_MEM static void fill_normal(const lv_area_t * disp_area, lv_color_t * disp_buf,
  41:Middlewares/lvgl/src/draw/lv_draw_blend.c ****                                               const lv_area_t * draw_area,
  42:Middlewares/lvgl/src/draw/lv_draw_blend.c ****                                               lv_color_t color, lv_opa_t opa,
  43:Middlewares/lvgl/src/draw/lv_draw_blend.c ****                                               const lv_opa_t * mask, lv_draw_mask_res_t mask_res);
  44:Middlewares/lvgl/src/draw/lv_draw_blend.c **** 
  45:Middlewares/lvgl/src/draw/lv_draw_blend.c **** #if LV_DRAW_COMPLEX
  46:Middlewares/lvgl/src/draw/lv_draw_blend.c **** static void fill_blended(const lv_area_t * disp_area, lv_color_t * disp_buf,  const lv_area_t * dra
  47:Middlewares/lvgl/src/draw/lv_draw_blend.c ****                          lv_color_t color, lv_opa_t opa,
  48:Middlewares/lvgl/src/draw/lv_draw_blend.c ****                          const lv_opa_t * mask, lv_draw_mask_res_t mask_res, lv_blend_mode_t mode);
  49:Middlewares/lvgl/src/draw/lv_draw_blend.c **** #endif
  50:Middlewares/lvgl/src/draw/lv_draw_blend.c **** 
  51:Middlewares/lvgl/src/draw/lv_draw_blend.c **** static void map_set_px(const lv_area_t * disp_area, lv_color_t * disp_buf,  const lv_area_t * draw_
  52:Middlewares/lvgl/src/draw/lv_draw_blend.c ****                        const lv_area_t * map_area, const lv_color_t * map_buf, lv_opa_t opa,
  53:Middlewares/lvgl/src/draw/lv_draw_blend.c ****                        const lv_opa_t * mask, lv_draw_mask_res_t mask_res);
  54:Middlewares/lvgl/src/draw/lv_draw_blend.c **** 
  55:Middlewares/lvgl/src/draw/lv_draw_blend.c **** LV_ATTRIBUTE_FAST_MEM static void map_normal(const lv_area_t * disp_area, lv_color_t * disp_buf,
  56:Middlewares/lvgl/src/draw/lv_draw_blend.c ****                                              const lv_area_t * draw_area,
  57:Middlewares/lvgl/src/draw/lv_draw_blend.c ****                                              const lv_area_t * map_area, const lv_color_t * map_buf
  58:Middlewares/lvgl/src/draw/lv_draw_blend.c ****                                              const lv_opa_t * mask, lv_draw_mask_res_t mask_res);
  59:Middlewares/lvgl/src/draw/lv_draw_blend.c **** 
  60:Middlewares/lvgl/src/draw/lv_draw_blend.c **** #if LV_DRAW_COMPLEX
  61:Middlewares/lvgl/src/draw/lv_draw_blend.c **** static void map_blended(const lv_area_t * disp_area, lv_color_t * disp_buf,  const lv_area_t * draw
  62:Middlewares/lvgl/src/draw/lv_draw_blend.c ****                         const lv_area_t * map_area, const lv_color_t * map_buf, lv_opa_t opa,
  63:Middlewares/lvgl/src/draw/lv_draw_blend.c ****                         const lv_opa_t * mask, lv_draw_mask_res_t mask_res, lv_blend_mode_t mode);
  64:Middlewares/lvgl/src/draw/lv_draw_blend.c **** 
  65:Middlewares/lvgl/src/draw/lv_draw_blend.c **** static inline lv_color_t color_blend_true_color_additive(lv_color_t fg, lv_color_t bg, lv_opa_t opa
  66:Middlewares/lvgl/src/draw/lv_draw_blend.c **** static inline lv_color_t color_blend_true_color_subtractive(lv_color_t fg, lv_color_t bg, lv_opa_t 
  67:Middlewares/lvgl/src/draw/lv_draw_blend.c **** #endif
  68:Middlewares/lvgl/src/draw/lv_draw_blend.c **** 
  69:Middlewares/lvgl/src/draw/lv_draw_blend.c **** /**********************
  70:Middlewares/lvgl/src/draw/lv_draw_blend.c ****  *  STATIC VARIABLES
  71:Middlewares/lvgl/src/draw/lv_draw_blend.c ****  **********************/
  72:Middlewares/lvgl/src/draw/lv_draw_blend.c **** 
  73:Middlewares/lvgl/src/draw/lv_draw_blend.c **** /**********************
  74:Middlewares/lvgl/src/draw/lv_draw_blend.c ****  *      MACROS
  75:Middlewares/lvgl/src/draw/lv_draw_blend.c ****  **********************/
  76:Middlewares/lvgl/src/draw/lv_draw_blend.c **** 
  77:Middlewares/lvgl/src/draw/lv_draw_blend.c **** #define FILL_NORMAL_MASK_PX(out_x,  color)                                                         
  78:Middlewares/lvgl/src/draw/lv_draw_blend.c ****     if(*mask_tmp_x) {          \
  79:Middlewares/lvgl/src/draw/lv_draw_blend.c ****         if(*mask_tmp_x == LV_OPA_COVER) disp_buf_first[out_x] = color;                             
  80:Middlewares/lvgl/src/draw/lv_draw_blend.c ****         else disp_buf_first[out_x] = lv_color_mix(color, disp_buf_first[out_x], *mask_tmp_x);      
  81:Middlewares/lvgl/src/draw/lv_draw_blend.c ****     }                                                                                              
  82:Middlewares/lvgl/src/draw/lv_draw_blend.c ****     mask_tmp_x++;
  83:Middlewares/lvgl/src/draw/lv_draw_blend.c **** 
  84:Middlewares/lvgl/src/draw/lv_draw_blend.c **** #define FILL_NORMAL_MASK_PX_SCR_TRANSP(out_x,  color)                                              
  85:Middlewares/lvgl/src/draw/lv_draw_blend.c ****     if(*mask_tmp_x) {          \
  86:Middlewares/lvgl/src/draw/lv_draw_blend.c ****         if(*mask_tmp_x == LV_OPA_COVER) disp_buf_first[out_x] = color;                             
  87:Middlewares/lvgl/src/draw/lv_draw_blend.c ****         else if(disp->driver->screen_transp) lv_color_mix_with_alpha(disp_buf_first[out_x], disp_bu
ARM GAS  /tmp/ccViN4Ah.s 			page 3


  88:Middlewares/lvgl/src/draw/lv_draw_blend.c ****                                                                         color, *mask_tmp_x, &disp_b
  89:Middlewares/lvgl/src/draw/lv_draw_blend.c ****         else disp_buf_first[out_x] = lv_color_mix(color, disp_buf_first[out_x], *mask_tmp_x);      
  90:Middlewares/lvgl/src/draw/lv_draw_blend.c ****     }                                                                                              
  91:Middlewares/lvgl/src/draw/lv_draw_blend.c ****     mask_tmp_x++;
  92:Middlewares/lvgl/src/draw/lv_draw_blend.c **** 
  93:Middlewares/lvgl/src/draw/lv_draw_blend.c **** #define MAP_NORMAL_MASK_PX(x)                                                          \
  94:Middlewares/lvgl/src/draw/lv_draw_blend.c ****     if(*mask_tmp_x) {          \
  95:Middlewares/lvgl/src/draw/lv_draw_blend.c ****         if(*mask_tmp_x == LV_OPA_COVER) disp_buf_first[x] = map_buf_first[x];                      
  96:Middlewares/lvgl/src/draw/lv_draw_blend.c ****         else disp_buf_first[x] = lv_color_mix(map_buf_first[x], disp_buf_first[x], *mask_tmp_x);   
  97:Middlewares/lvgl/src/draw/lv_draw_blend.c ****     }                                                                                              
  98:Middlewares/lvgl/src/draw/lv_draw_blend.c ****     mask_tmp_x++;
  99:Middlewares/lvgl/src/draw/lv_draw_blend.c **** 
 100:Middlewares/lvgl/src/draw/lv_draw_blend.c **** #define MAP_NORMAL_MASK_PX_SCR_TRANSP(x)                        \
 101:Middlewares/lvgl/src/draw/lv_draw_blend.c ****     if(*mask_tmp_x) {          \
 102:Middlewares/lvgl/src/draw/lv_draw_blend.c ****         if(*mask_tmp_x == LV_OPA_COVER) disp_buf_first[x] = map_buf_first[x];                      
 103:Middlewares/lvgl/src/draw/lv_draw_blend.c ****         else if(disp->driver->screen_transp) lv_color_mix_with_alpha(disp_buf_first[x], disp_buf_fi
 104:Middlewares/lvgl/src/draw/lv_draw_blend.c ****                                                                         map_buf_first[x], *mask_tmp
 105:Middlewares/lvgl/src/draw/lv_draw_blend.c ****         else disp_buf_first[x] = lv_color_mix(map_buf_first[x], disp_buf_first[x], *mask_tmp_x);   
 106:Middlewares/lvgl/src/draw/lv_draw_blend.c ****     }                                                                                              
 107:Middlewares/lvgl/src/draw/lv_draw_blend.c ****     mask_tmp_x++;
 108:Middlewares/lvgl/src/draw/lv_draw_blend.c **** 
 109:Middlewares/lvgl/src/draw/lv_draw_blend.c **** /**********************
 110:Middlewares/lvgl/src/draw/lv_draw_blend.c ****  *   GLOBAL FUNCTIONS
 111:Middlewares/lvgl/src/draw/lv_draw_blend.c ****  **********************/
 112:Middlewares/lvgl/src/draw/lv_draw_blend.c **** 
 113:Middlewares/lvgl/src/draw/lv_draw_blend.c **** /**
 114:Middlewares/lvgl/src/draw/lv_draw_blend.c ****  * Fill and area in the display buffer.
 115:Middlewares/lvgl/src/draw/lv_draw_blend.c ****  * @param clip_area clip the fill to this area  (absolute coordinates)
 116:Middlewares/lvgl/src/draw/lv_draw_blend.c ****  * @param fill_area fill this area  (absolute coordinates) (should be clipped)
 117:Middlewares/lvgl/src/draw/lv_draw_blend.c ****  * @param color fill color
 118:Middlewares/lvgl/src/draw/lv_draw_blend.c ****  * @param mask a mask to apply on the fill (uint8_t array with 0x00..0xff values).
 119:Middlewares/lvgl/src/draw/lv_draw_blend.c ****  *             Relative to fill area but its width is truncated to clip area.
 120:Middlewares/lvgl/src/draw/lv_draw_blend.c ****  * @param mask_res LV_MASK_RES_COVER: the mask has only 0xff values (no mask),
 121:Middlewares/lvgl/src/draw/lv_draw_blend.c ****  *                 LV_MASK_RES_TRANSP: the mask has only 0x00 values (full transparent),
 122:Middlewares/lvgl/src/draw/lv_draw_blend.c ****  *                 LV_MASK_RES_CHANGED: the mask has mixed values
 123:Middlewares/lvgl/src/draw/lv_draw_blend.c ****  * @param opa overall opacity in 0x00..0xff range
 124:Middlewares/lvgl/src/draw/lv_draw_blend.c ****  * @param mode blend mode from `lv_blend_mode_t`
 125:Middlewares/lvgl/src/draw/lv_draw_blend.c ****  */
 126:Middlewares/lvgl/src/draw/lv_draw_blend.c **** LV_ATTRIBUTE_FAST_MEM void _lv_blend_fill(const lv_area_t * clip_area, const lv_area_t * fill_area,
 127:Middlewares/lvgl/src/draw/lv_draw_blend.c ****                                           lv_color_t color, lv_opa_t * mask, lv_draw_mask_res_t mas
 128:Middlewares/lvgl/src/draw/lv_draw_blend.c ****                                           lv_blend_mode_t mode)
 129:Middlewares/lvgl/src/draw/lv_draw_blend.c **** {
 130:Middlewares/lvgl/src/draw/lv_draw_blend.c ****     /*Do not draw transparent things*/
 131:Middlewares/lvgl/src/draw/lv_draw_blend.c ****     if(opa < LV_OPA_MIN) return;
 132:Middlewares/lvgl/src/draw/lv_draw_blend.c ****     if(mask_res == LV_DRAW_MASK_RES_TRANSP) return;
 133:Middlewares/lvgl/src/draw/lv_draw_blend.c **** 
 134:Middlewares/lvgl/src/draw/lv_draw_blend.c ****     lv_disp_t * disp = _lv_refr_get_disp_refreshing();
 135:Middlewares/lvgl/src/draw/lv_draw_blend.c ****     lv_disp_draw_buf_t * draw_buf = lv_disp_get_draw_buf(disp);
 136:Middlewares/lvgl/src/draw/lv_draw_blend.c ****     const lv_area_t * disp_area = &draw_buf->area;
 137:Middlewares/lvgl/src/draw/lv_draw_blend.c ****     lv_color_t * disp_buf = draw_buf->buf_act;
 138:Middlewares/lvgl/src/draw/lv_draw_blend.c **** 
 139:Middlewares/lvgl/src/draw/lv_draw_blend.c ****     if(disp->driver->gpu_wait_cb) disp->driver->gpu_wait_cb(disp->driver);
 140:Middlewares/lvgl/src/draw/lv_draw_blend.c **** 
 141:Middlewares/lvgl/src/draw/lv_draw_blend.c ****     /*Get clipped fill area which is the real draw area.
 142:Middlewares/lvgl/src/draw/lv_draw_blend.c ****      *It is always the same or inside `fill_area`*/
 143:Middlewares/lvgl/src/draw/lv_draw_blend.c ****     lv_area_t draw_area;
 144:Middlewares/lvgl/src/draw/lv_draw_blend.c ****     bool is_common;
ARM GAS  /tmp/ccViN4Ah.s 			page 4


 145:Middlewares/lvgl/src/draw/lv_draw_blend.c ****     is_common = _lv_area_intersect(&draw_area, clip_area, fill_area);
 146:Middlewares/lvgl/src/draw/lv_draw_blend.c ****     if(!is_common) return;
 147:Middlewares/lvgl/src/draw/lv_draw_blend.c **** 
 148:Middlewares/lvgl/src/draw/lv_draw_blend.c ****     /*Now `draw_area` has absolute coordinates.
 149:Middlewares/lvgl/src/draw/lv_draw_blend.c ****      *Make it relative to `disp_area` to simplify draw to `disp_buf`*/
 150:Middlewares/lvgl/src/draw/lv_draw_blend.c ****     draw_area.x1 -= disp_area->x1;
 151:Middlewares/lvgl/src/draw/lv_draw_blend.c ****     draw_area.y1 -= disp_area->y1;
 152:Middlewares/lvgl/src/draw/lv_draw_blend.c ****     draw_area.x2 -= disp_area->x1;
 153:Middlewares/lvgl/src/draw/lv_draw_blend.c ****     draw_area.y2 -= disp_area->y1;
 154:Middlewares/lvgl/src/draw/lv_draw_blend.c **** 
 155:Middlewares/lvgl/src/draw/lv_draw_blend.c ****     /*Round the values in the mask if anti-aliasing is disabled*/
 156:Middlewares/lvgl/src/draw/lv_draw_blend.c ****     if(mask && disp->driver->antialiasing == 0 && mask) {
 157:Middlewares/lvgl/src/draw/lv_draw_blend.c ****         int32_t mask_w = lv_area_get_width(&draw_area);
 158:Middlewares/lvgl/src/draw/lv_draw_blend.c ****         int32_t i;
 159:Middlewares/lvgl/src/draw/lv_draw_blend.c ****         for(i = 0; i < mask_w; i++)  mask[i] = mask[i] > 128 ? LV_OPA_COVER : LV_OPA_TRANSP;
 160:Middlewares/lvgl/src/draw/lv_draw_blend.c ****     }
 161:Middlewares/lvgl/src/draw/lv_draw_blend.c **** 
 162:Middlewares/lvgl/src/draw/lv_draw_blend.c ****     if(disp->driver->set_px_cb) {
 163:Middlewares/lvgl/src/draw/lv_draw_blend.c ****         fill_set_px(disp_area, disp_buf, &draw_area, color, opa, mask, mask_res);
 164:Middlewares/lvgl/src/draw/lv_draw_blend.c ****     }
 165:Middlewares/lvgl/src/draw/lv_draw_blend.c ****     else if(mode == LV_BLEND_MODE_NORMAL) {
 166:Middlewares/lvgl/src/draw/lv_draw_blend.c ****         fill_normal(disp_area, disp_buf, &draw_area, color, opa, mask, mask_res);
 167:Middlewares/lvgl/src/draw/lv_draw_blend.c ****     }
 168:Middlewares/lvgl/src/draw/lv_draw_blend.c **** #if LV_DRAW_COMPLEX
 169:Middlewares/lvgl/src/draw/lv_draw_blend.c ****     else {
 170:Middlewares/lvgl/src/draw/lv_draw_blend.c ****         fill_blended(disp_area, disp_buf, &draw_area, color, opa, mask, mask_res, mode);
 171:Middlewares/lvgl/src/draw/lv_draw_blend.c ****     }
 172:Middlewares/lvgl/src/draw/lv_draw_blend.c **** #endif
 173:Middlewares/lvgl/src/draw/lv_draw_blend.c **** }
 174:Middlewares/lvgl/src/draw/lv_draw_blend.c **** 
 175:Middlewares/lvgl/src/draw/lv_draw_blend.c **** /**
 176:Middlewares/lvgl/src/draw/lv_draw_blend.c ****  * Copy a map (image) to a display buffer.
 177:Middlewares/lvgl/src/draw/lv_draw_blend.c ****  * @param clip_area clip the map to this area (absolute coordinates)
 178:Middlewares/lvgl/src/draw/lv_draw_blend.c ****  * @param map_area area of the image  (absolute coordinates)
 179:Middlewares/lvgl/src/draw/lv_draw_blend.c ****  * @param map_buf a pixels of the map (image)
 180:Middlewares/lvgl/src/draw/lv_draw_blend.c ****  * @param mask a mask to apply on every pixel (uint8_t array with 0x00..0xff values).
 181:Middlewares/lvgl/src/draw/lv_draw_blend.c ****  *                Relative to map area but its width is truncated to clip area.
 182:Middlewares/lvgl/src/draw/lv_draw_blend.c ****  * @param mask_res LV_MASK_RES_COVER: the mask has only 0xff values (no mask),
 183:Middlewares/lvgl/src/draw/lv_draw_blend.c ****  *                 LV_MASK_RES_TRANSP: the mask has only 0x00 values (full transparent),
 184:Middlewares/lvgl/src/draw/lv_draw_blend.c ****  *                 LV_MASK_RES_CHANGED: the mask has mixed values
 185:Middlewares/lvgl/src/draw/lv_draw_blend.c ****  * @param opa  overall opacity in 0x00..0xff range
 186:Middlewares/lvgl/src/draw/lv_draw_blend.c ****  * @param mode blend mode from `lv_blend_mode_t`
 187:Middlewares/lvgl/src/draw/lv_draw_blend.c ****  */
 188:Middlewares/lvgl/src/draw/lv_draw_blend.c **** LV_ATTRIBUTE_FAST_MEM void _lv_blend_map(const lv_area_t * clip_area, const lv_area_t * map_area,
 189:Middlewares/lvgl/src/draw/lv_draw_blend.c ****                                          const lv_color_t * map_buf,
 190:Middlewares/lvgl/src/draw/lv_draw_blend.c ****                                          lv_opa_t * mask, lv_draw_mask_res_t mask_res,
 191:Middlewares/lvgl/src/draw/lv_draw_blend.c ****                                          lv_opa_t opa, lv_blend_mode_t mode)
 192:Middlewares/lvgl/src/draw/lv_draw_blend.c **** {
 193:Middlewares/lvgl/src/draw/lv_draw_blend.c ****     /*Do not draw transparent things*/
 194:Middlewares/lvgl/src/draw/lv_draw_blend.c ****     if(opa < LV_OPA_MIN) return;
 195:Middlewares/lvgl/src/draw/lv_draw_blend.c ****     if(mask_res == LV_DRAW_MASK_RES_TRANSP) return;
 196:Middlewares/lvgl/src/draw/lv_draw_blend.c **** 
 197:Middlewares/lvgl/src/draw/lv_draw_blend.c ****     /*Get clipped fill area which is the real draw area.
 198:Middlewares/lvgl/src/draw/lv_draw_blend.c ****      *It is always the same or inside `fill_area`*/
 199:Middlewares/lvgl/src/draw/lv_draw_blend.c ****     lv_area_t draw_area;
 200:Middlewares/lvgl/src/draw/lv_draw_blend.c ****     bool is_common;
 201:Middlewares/lvgl/src/draw/lv_draw_blend.c ****     is_common = _lv_area_intersect(&draw_area, clip_area, map_area);
ARM GAS  /tmp/ccViN4Ah.s 			page 5


 202:Middlewares/lvgl/src/draw/lv_draw_blend.c ****     if(!is_common) return;
 203:Middlewares/lvgl/src/draw/lv_draw_blend.c **** 
 204:Middlewares/lvgl/src/draw/lv_draw_blend.c ****     lv_disp_t * disp = _lv_refr_get_disp_refreshing();
 205:Middlewares/lvgl/src/draw/lv_draw_blend.c ****     lv_disp_draw_buf_t * draw_buf = lv_disp_get_draw_buf(disp);
 206:Middlewares/lvgl/src/draw/lv_draw_blend.c ****     const lv_area_t * disp_area = &draw_buf->area;
 207:Middlewares/lvgl/src/draw/lv_draw_blend.c ****     lv_color_t * disp_buf = draw_buf->buf_act;
 208:Middlewares/lvgl/src/draw/lv_draw_blend.c **** 
 209:Middlewares/lvgl/src/draw/lv_draw_blend.c ****     if(disp->driver->gpu_wait_cb) disp->driver->gpu_wait_cb(disp->driver);
 210:Middlewares/lvgl/src/draw/lv_draw_blend.c **** 
 211:Middlewares/lvgl/src/draw/lv_draw_blend.c ****     /*Now `draw_area` has absolute coordinates.
 212:Middlewares/lvgl/src/draw/lv_draw_blend.c ****      *Make it relative to `disp_area` to simplify draw to `disp_buf`*/
 213:Middlewares/lvgl/src/draw/lv_draw_blend.c ****     draw_area.x1 -= disp_area->x1;
 214:Middlewares/lvgl/src/draw/lv_draw_blend.c ****     draw_area.y1 -= disp_area->y1;
 215:Middlewares/lvgl/src/draw/lv_draw_blend.c ****     draw_area.x2 -= disp_area->x1;
 216:Middlewares/lvgl/src/draw/lv_draw_blend.c ****     draw_area.y2 -= disp_area->y1;
 217:Middlewares/lvgl/src/draw/lv_draw_blend.c **** 
 218:Middlewares/lvgl/src/draw/lv_draw_blend.c ****     /*Round the values in the mask if anti-aliasing is disabled*/
 219:Middlewares/lvgl/src/draw/lv_draw_blend.c ****     if(mask && disp->driver->antialiasing == 0)
 220:Middlewares/lvgl/src/draw/lv_draw_blend.c ****     {
 221:Middlewares/lvgl/src/draw/lv_draw_blend.c ****         int32_t mask_w = lv_area_get_width(&draw_area);
 222:Middlewares/lvgl/src/draw/lv_draw_blend.c ****         int32_t i;
 223:Middlewares/lvgl/src/draw/lv_draw_blend.c ****         for(i = 0; i < mask_w; i++)  mask[i] = mask[i] > 128 ? LV_OPA_COVER : LV_OPA_TRANSP;
 224:Middlewares/lvgl/src/draw/lv_draw_blend.c ****     }
 225:Middlewares/lvgl/src/draw/lv_draw_blend.c ****     if(disp->driver->set_px_cb) {
 226:Middlewares/lvgl/src/draw/lv_draw_blend.c ****         map_set_px(disp_area, disp_buf, &draw_area, map_area, map_buf, opa, mask, mask_res);
 227:Middlewares/lvgl/src/draw/lv_draw_blend.c ****     }
 228:Middlewares/lvgl/src/draw/lv_draw_blend.c ****     else if(mode == LV_BLEND_MODE_NORMAL) {
 229:Middlewares/lvgl/src/draw/lv_draw_blend.c ****         map_normal(disp_area, disp_buf, &draw_area, map_area, map_buf, opa, mask, mask_res);
 230:Middlewares/lvgl/src/draw/lv_draw_blend.c ****     }
 231:Middlewares/lvgl/src/draw/lv_draw_blend.c **** #if LV_DRAW_COMPLEX
 232:Middlewares/lvgl/src/draw/lv_draw_blend.c ****     else {
 233:Middlewares/lvgl/src/draw/lv_draw_blend.c ****         map_blended(disp_area, disp_buf, &draw_area, map_area, map_buf, opa, mask, mask_res, mode);
 234:Middlewares/lvgl/src/draw/lv_draw_blend.c ****     }
 235:Middlewares/lvgl/src/draw/lv_draw_blend.c **** #endif
 236:Middlewares/lvgl/src/draw/lv_draw_blend.c **** }
 237:Middlewares/lvgl/src/draw/lv_draw_blend.c **** 
 238:Middlewares/lvgl/src/draw/lv_draw_blend.c **** /**********************
 239:Middlewares/lvgl/src/draw/lv_draw_blend.c ****  *   STATIC FUNCTIONS
 240:Middlewares/lvgl/src/draw/lv_draw_blend.c ****  **********************/
 241:Middlewares/lvgl/src/draw/lv_draw_blend.c **** 
 242:Middlewares/lvgl/src/draw/lv_draw_blend.c **** static void fill_set_px(const lv_area_t * disp_area, lv_color_t * disp_buf,  const lv_area_t * draw
 243:Middlewares/lvgl/src/draw/lv_draw_blend.c ****                         lv_color_t color, lv_opa_t opa,
 244:Middlewares/lvgl/src/draw/lv_draw_blend.c ****                         const lv_opa_t * mask, lv_draw_mask_res_t mask_res)
 245:Middlewares/lvgl/src/draw/lv_draw_blend.c **** {
 246:Middlewares/lvgl/src/draw/lv_draw_blend.c **** 
 247:Middlewares/lvgl/src/draw/lv_draw_blend.c ****     lv_disp_t * disp = _lv_refr_get_disp_refreshing();
 248:Middlewares/lvgl/src/draw/lv_draw_blend.c **** 
 249:Middlewares/lvgl/src/draw/lv_draw_blend.c ****     /*Get the width of the `disp_area` it will be used to go to the next line*/
 250:Middlewares/lvgl/src/draw/lv_draw_blend.c ****     int32_t disp_w = lv_area_get_width(disp_area);
 251:Middlewares/lvgl/src/draw/lv_draw_blend.c **** 
 252:Middlewares/lvgl/src/draw/lv_draw_blend.c ****     int32_t x;
 253:Middlewares/lvgl/src/draw/lv_draw_blend.c ****     int32_t y;
 254:Middlewares/lvgl/src/draw/lv_draw_blend.c **** 
 255:Middlewares/lvgl/src/draw/lv_draw_blend.c ****     if(mask_res == LV_DRAW_MASK_RES_FULL_COVER) {
 256:Middlewares/lvgl/src/draw/lv_draw_blend.c ****         for(y = draw_area->y1; y <= draw_area->y2; y++) {
 257:Middlewares/lvgl/src/draw/lv_draw_blend.c ****             for(x = draw_area->x1; x <= draw_area->x2; x++) {
 258:Middlewares/lvgl/src/draw/lv_draw_blend.c ****                 disp->driver->set_px_cb(disp->driver, (void *)disp_buf, disp_w, x, y, color, opa);
ARM GAS  /tmp/ccViN4Ah.s 			page 6


 259:Middlewares/lvgl/src/draw/lv_draw_blend.c ****             }
 260:Middlewares/lvgl/src/draw/lv_draw_blend.c ****         }
 261:Middlewares/lvgl/src/draw/lv_draw_blend.c ****     }
 262:Middlewares/lvgl/src/draw/lv_draw_blend.c ****     else {
 263:Middlewares/lvgl/src/draw/lv_draw_blend.c ****         /*The mask is relative to the clipped area.
 264:Middlewares/lvgl/src/draw/lv_draw_blend.c ****          *In the cycles below mask will be indexed from `draw_area.x1`
 265:Middlewares/lvgl/src/draw/lv_draw_blend.c ****          *but it corresponds to zero index. So prepare `mask_tmp` accordingly.*/
 266:Middlewares/lvgl/src/draw/lv_draw_blend.c ****         const lv_opa_t * mask_tmp = mask - draw_area->x1;
 267:Middlewares/lvgl/src/draw/lv_draw_blend.c **** 
 268:Middlewares/lvgl/src/draw/lv_draw_blend.c ****         /*Get the width of the `draw_area` it will be used to go to the next line of the mask*/
 269:Middlewares/lvgl/src/draw/lv_draw_blend.c ****         int32_t draw_area_w = lv_area_get_width(draw_area);
 270:Middlewares/lvgl/src/draw/lv_draw_blend.c **** 
 271:Middlewares/lvgl/src/draw/lv_draw_blend.c ****         for(y = draw_area->y1; y <= draw_area->y2; y++) {
 272:Middlewares/lvgl/src/draw/lv_draw_blend.c ****             for(x = draw_area->x1; x <= draw_area->x2; x++) {
 273:Middlewares/lvgl/src/draw/lv_draw_blend.c ****                 if(mask_tmp[x]) {
 274:Middlewares/lvgl/src/draw/lv_draw_blend.c ****                     disp->driver->set_px_cb(disp->driver, (void *)disp_buf, disp_w, x, y, color,
 275:Middlewares/lvgl/src/draw/lv_draw_blend.c ****                                            (uint32_t)((uint32_t)opa * mask_tmp[x]) >> 8);
 276:Middlewares/lvgl/src/draw/lv_draw_blend.c ****                 }
 277:Middlewares/lvgl/src/draw/lv_draw_blend.c ****             }
 278:Middlewares/lvgl/src/draw/lv_draw_blend.c ****             mask_tmp += draw_area_w;
 279:Middlewares/lvgl/src/draw/lv_draw_blend.c ****         }
 280:Middlewares/lvgl/src/draw/lv_draw_blend.c ****     }
 281:Middlewares/lvgl/src/draw/lv_draw_blend.c **** }
 282:Middlewares/lvgl/src/draw/lv_draw_blend.c **** 
 283:Middlewares/lvgl/src/draw/lv_draw_blend.c **** /**
 284:Middlewares/lvgl/src/draw/lv_draw_blend.c ****  * Fill an area with a color
 285:Middlewares/lvgl/src/draw/lv_draw_blend.c ****  * @param disp_area the current display area (destination area)
 286:Middlewares/lvgl/src/draw/lv_draw_blend.c ****  * @param disp_buf destination buffer
 287:Middlewares/lvgl/src/draw/lv_draw_blend.c ****  * @param draw_area fill this area (relative to `disp_area`)
 288:Middlewares/lvgl/src/draw/lv_draw_blend.c ****  * @param color fill color
 289:Middlewares/lvgl/src/draw/lv_draw_blend.c ****  * @param opa overall opacity in 0x00..0xff range
 290:Middlewares/lvgl/src/draw/lv_draw_blend.c ****  * @param mask a mask to apply on every pixel (uint8_t array with 0x00..0xff values).
 291:Middlewares/lvgl/src/draw/lv_draw_blend.c ****  *                It fits into draw_area.
 292:Middlewares/lvgl/src/draw/lv_draw_blend.c ****  * @param mask_res LV_MASK_RES_COVER: the mask has only 0xff values (no mask),
 293:Middlewares/lvgl/src/draw/lv_draw_blend.c ****  *                 LV_MASK_RES_TRANSP: the mask has only 0x00 values (full transparent),
 294:Middlewares/lvgl/src/draw/lv_draw_blend.c ****  *                 LV_MASK_RES_CHANGED: the mask has mixed values
 295:Middlewares/lvgl/src/draw/lv_draw_blend.c ****  */
 296:Middlewares/lvgl/src/draw/lv_draw_blend.c **** LV_ATTRIBUTE_FAST_MEM static void fill_normal(const lv_area_t * disp_area, lv_color_t * disp_buf,
 297:Middlewares/lvgl/src/draw/lv_draw_blend.c ****                                               const lv_area_t * draw_area,
 298:Middlewares/lvgl/src/draw/lv_draw_blend.c ****                                               lv_color_t color, lv_opa_t opa,
 299:Middlewares/lvgl/src/draw/lv_draw_blend.c ****                                               const lv_opa_t * mask, lv_draw_mask_res_t mask_res)
 300:Middlewares/lvgl/src/draw/lv_draw_blend.c **** {
 301:Middlewares/lvgl/src/draw/lv_draw_blend.c **** 
 302:Middlewares/lvgl/src/draw/lv_draw_blend.c ****     lv_disp_t * disp = _lv_refr_get_disp_refreshing();
 303:Middlewares/lvgl/src/draw/lv_draw_blend.c **** 
 304:Middlewares/lvgl/src/draw/lv_draw_blend.c ****     /*Get the width of the `disp_area` it will be used to go to the next line*/
 305:Middlewares/lvgl/src/draw/lv_draw_blend.c ****     int32_t disp_w = lv_area_get_width(disp_area);
 306:Middlewares/lvgl/src/draw/lv_draw_blend.c **** 
 307:Middlewares/lvgl/src/draw/lv_draw_blend.c ****     int32_t draw_area_w = lv_area_get_width(draw_area);
 308:Middlewares/lvgl/src/draw/lv_draw_blend.c ****     int32_t draw_area_h = lv_area_get_height(draw_area);
 309:Middlewares/lvgl/src/draw/lv_draw_blend.c **** 
 310:Middlewares/lvgl/src/draw/lv_draw_blend.c ****     /*Create a temp. disp_buf which always point to the first pixel of the destination area*/
 311:Middlewares/lvgl/src/draw/lv_draw_blend.c ****     lv_color_t * disp_buf_first = disp_buf + disp_w * draw_area->y1 + draw_area->x1;
 312:Middlewares/lvgl/src/draw/lv_draw_blend.c **** 
 313:Middlewares/lvgl/src/draw/lv_draw_blend.c ****     int32_t x;
 314:Middlewares/lvgl/src/draw/lv_draw_blend.c ****     int32_t y;
 315:Middlewares/lvgl/src/draw/lv_draw_blend.c **** 
ARM GAS  /tmp/ccViN4Ah.s 			page 7


 316:Middlewares/lvgl/src/draw/lv_draw_blend.c ****     /*Simple fill (maybe with opacity), no masking*/
 317:Middlewares/lvgl/src/draw/lv_draw_blend.c ****     if(mask_res == LV_DRAW_MASK_RES_FULL_COVER) {
 318:Middlewares/lvgl/src/draw/lv_draw_blend.c ****         if(opa > LV_OPA_MAX) {
 319:Middlewares/lvgl/src/draw/lv_draw_blend.c **** #if LV_USE_GPU_NXP_PXP
 320:Middlewares/lvgl/src/draw/lv_draw_blend.c ****             if(lv_area_get_size(draw_area) >= LV_GPU_NXP_PXP_FILL_SIZE_LIMIT) {
 321:Middlewares/lvgl/src/draw/lv_draw_blend.c ****                 lv_gpu_nxp_pxp_fill(disp_buf, disp_w, draw_area, color, opa);
 322:Middlewares/lvgl/src/draw/lv_draw_blend.c ****                 return;
 323:Middlewares/lvgl/src/draw/lv_draw_blend.c ****             }
 324:Middlewares/lvgl/src/draw/lv_draw_blend.c **** #elif LV_USE_GPU_NXP_VG_LITE
 325:Middlewares/lvgl/src/draw/lv_draw_blend.c ****             if(lv_area_get_size(draw_area) >= LV_GPU_NXP_VG_LITE_FILL_SIZE_LIMIT) {
 326:Middlewares/lvgl/src/draw/lv_draw_blend.c ****                 if(lv_gpu_nxp_vglite_fill(disp_buf, disp_w, lv_area_get_height(disp_area), draw_are
 327:Middlewares/lvgl/src/draw/lv_draw_blend.c ****                     return;
 328:Middlewares/lvgl/src/draw/lv_draw_blend.c ****                 }
 329:Middlewares/lvgl/src/draw/lv_draw_blend.c ****                 /*Fall down to SW render in case of error*/
 330:Middlewares/lvgl/src/draw/lv_draw_blend.c ****             }
 331:Middlewares/lvgl/src/draw/lv_draw_blend.c **** #elif LV_USE_GPU_STM32_DMA2D
 332:Middlewares/lvgl/src/draw/lv_draw_blend.c ****             if(lv_area_get_size(draw_area) >= 240) {
 333:Middlewares/lvgl/src/draw/lv_draw_blend.c ****                 lv_gpu_stm32_dma2d_fill(disp_buf_first, disp_w, color, draw_area_w, draw_area_h);
 334:Middlewares/lvgl/src/draw/lv_draw_blend.c ****                 return;
 335:Middlewares/lvgl/src/draw/lv_draw_blend.c ****             }
 336:Middlewares/lvgl/src/draw/lv_draw_blend.c **** #endif
 337:Middlewares/lvgl/src/draw/lv_draw_blend.c **** 
 338:Middlewares/lvgl/src/draw/lv_draw_blend.c ****             if(disp->driver->gpu_fill_cb && lv_area_get_size(draw_area) > GPU_SIZE_LIMIT) {
 339:Middlewares/lvgl/src/draw/lv_draw_blend.c ****                 disp->driver->gpu_fill_cb(disp->driver, disp_buf, disp_w, draw_area, color);
 340:Middlewares/lvgl/src/draw/lv_draw_blend.c ****                 return;
 341:Middlewares/lvgl/src/draw/lv_draw_blend.c ****             }
 342:Middlewares/lvgl/src/draw/lv_draw_blend.c **** 
 343:Middlewares/lvgl/src/draw/lv_draw_blend.c ****             /*Software rendering*/
 344:Middlewares/lvgl/src/draw/lv_draw_blend.c ****             for(y = 0; y < draw_area_h; y++) {
 345:Middlewares/lvgl/src/draw/lv_draw_blend.c ****                 lv_color_fill(disp_buf_first, color, draw_area_w);
 346:Middlewares/lvgl/src/draw/lv_draw_blend.c ****                 disp_buf_first += disp_w;
 347:Middlewares/lvgl/src/draw/lv_draw_blend.c ****             }
 348:Middlewares/lvgl/src/draw/lv_draw_blend.c ****         }
 349:Middlewares/lvgl/src/draw/lv_draw_blend.c ****         /*No mask with opacity*/
 350:Middlewares/lvgl/src/draw/lv_draw_blend.c ****         else {
 351:Middlewares/lvgl/src/draw/lv_draw_blend.c **** #if LV_USE_GPU_NXP_PXP
 352:Middlewares/lvgl/src/draw/lv_draw_blend.c ****             if(lv_area_get_size(draw_area) >= LV_GPU_NXP_PXP_FILL_OPA_SIZE_LIMIT) {
 353:Middlewares/lvgl/src/draw/lv_draw_blend.c ****                 lv_gpu_nxp_pxp_fill(disp_buf, disp_w, draw_area, color, opa);
 354:Middlewares/lvgl/src/draw/lv_draw_blend.c ****                 return;
 355:Middlewares/lvgl/src/draw/lv_draw_blend.c ****             }
 356:Middlewares/lvgl/src/draw/lv_draw_blend.c **** #elif LV_USE_GPU_NXP_VG_LITE
 357:Middlewares/lvgl/src/draw/lv_draw_blend.c ****             if(lv_area_get_size(draw_area) >= LV_GPU_NXP_VG_LITE_FILL_OPA_SIZE_LIMIT) {
 358:Middlewares/lvgl/src/draw/lv_draw_blend.c ****                 if(lv_gpu_nxp_vglite_fill(disp_buf, disp_w, lv_area_get_height(disp_area), draw_are
 359:Middlewares/lvgl/src/draw/lv_draw_blend.c ****                     return;
 360:Middlewares/lvgl/src/draw/lv_draw_blend.c ****                 }
 361:Middlewares/lvgl/src/draw/lv_draw_blend.c ****                 /*Fall down to SW render in case of error*/
 362:Middlewares/lvgl/src/draw/lv_draw_blend.c ****             }
 363:Middlewares/lvgl/src/draw/lv_draw_blend.c **** #endif
 364:Middlewares/lvgl/src/draw/lv_draw_blend.c ****             lv_color_t last_dest_color = lv_color_black();
 365:Middlewares/lvgl/src/draw/lv_draw_blend.c ****             lv_color_t last_res_color = lv_color_mix(color, last_dest_color, opa);
 366:Middlewares/lvgl/src/draw/lv_draw_blend.c **** 
 367:Middlewares/lvgl/src/draw/lv_draw_blend.c ****             uint16_t color_premult[3];
 368:Middlewares/lvgl/src/draw/lv_draw_blend.c ****             lv_color_premult(color, opa, color_premult);
 369:Middlewares/lvgl/src/draw/lv_draw_blend.c ****             lv_opa_t opa_inv = 255 - opa;
 370:Middlewares/lvgl/src/draw/lv_draw_blend.c **** 
 371:Middlewares/lvgl/src/draw/lv_draw_blend.c ****             for(y = 0; y < draw_area_h; y++) {
 372:Middlewares/lvgl/src/draw/lv_draw_blend.c ****                 for(x = 0; x < draw_area_w; x++) {
ARM GAS  /tmp/ccViN4Ah.s 			page 8


 373:Middlewares/lvgl/src/draw/lv_draw_blend.c ****                     if(last_dest_color.full != disp_buf_first[x].full) {
 374:Middlewares/lvgl/src/draw/lv_draw_blend.c ****                         last_dest_color = disp_buf_first[x];
 375:Middlewares/lvgl/src/draw/lv_draw_blend.c **** 
 376:Middlewares/lvgl/src/draw/lv_draw_blend.c **** #if LV_COLOR_SCREEN_TRANSP
 377:Middlewares/lvgl/src/draw/lv_draw_blend.c ****                         if(disp->driver->screen_transp) {
 378:Middlewares/lvgl/src/draw/lv_draw_blend.c ****                             lv_color_mix_with_alpha(disp_buf_first[x], disp_buf_first[x].ch.alpha, 
 379:Middlewares/lvgl/src/draw/lv_draw_blend.c ****                                                     &last_res_color.ch.alpha);
 380:Middlewares/lvgl/src/draw/lv_draw_blend.c ****                         }
 381:Middlewares/lvgl/src/draw/lv_draw_blend.c ****                         else
 382:Middlewares/lvgl/src/draw/lv_draw_blend.c **** #endif
 383:Middlewares/lvgl/src/draw/lv_draw_blend.c ****                         {
 384:Middlewares/lvgl/src/draw/lv_draw_blend.c ****                             last_res_color = lv_color_mix_premult(color_premult, disp_buf_first[x],
 385:Middlewares/lvgl/src/draw/lv_draw_blend.c ****                         }
 386:Middlewares/lvgl/src/draw/lv_draw_blend.c ****                     }
 387:Middlewares/lvgl/src/draw/lv_draw_blend.c ****                     disp_buf_first[x] = last_res_color;
 388:Middlewares/lvgl/src/draw/lv_draw_blend.c ****                 }
 389:Middlewares/lvgl/src/draw/lv_draw_blend.c ****                 disp_buf_first += disp_w;
 390:Middlewares/lvgl/src/draw/lv_draw_blend.c ****             }
 391:Middlewares/lvgl/src/draw/lv_draw_blend.c ****         }
 392:Middlewares/lvgl/src/draw/lv_draw_blend.c ****     }
 393:Middlewares/lvgl/src/draw/lv_draw_blend.c ****     /*Masked*/
 394:Middlewares/lvgl/src/draw/lv_draw_blend.c ****     else {
 395:Middlewares/lvgl/src/draw/lv_draw_blend.c ****         /*Buffer the result color to avoid recalculating the same color*/
 396:Middlewares/lvgl/src/draw/lv_draw_blend.c ****         lv_color_t last_dest_color;
 397:Middlewares/lvgl/src/draw/lv_draw_blend.c ****         lv_color_t last_res_color;
 398:Middlewares/lvgl/src/draw/lv_draw_blend.c ****         lv_opa_t last_mask = LV_OPA_TRANSP;
 399:Middlewares/lvgl/src/draw/lv_draw_blend.c ****         last_dest_color.full = disp_buf_first[0].full;
 400:Middlewares/lvgl/src/draw/lv_draw_blend.c ****         last_res_color.full = disp_buf_first[0].full;
 401:Middlewares/lvgl/src/draw/lv_draw_blend.c **** 
 402:Middlewares/lvgl/src/draw/lv_draw_blend.c ****         int32_t x_end4 = draw_area_w - 4;
 403:Middlewares/lvgl/src/draw/lv_draw_blend.c **** 
 404:Middlewares/lvgl/src/draw/lv_draw_blend.c ****         /*Only the mask matters*/
 405:Middlewares/lvgl/src/draw/lv_draw_blend.c ****         if(opa > LV_OPA_MAX) {
 406:Middlewares/lvgl/src/draw/lv_draw_blend.c ****             for(y = 0; y < draw_area_h; y++) {
 407:Middlewares/lvgl/src/draw/lv_draw_blend.c ****                 const lv_opa_t * mask_tmp_x = mask;
 408:Middlewares/lvgl/src/draw/lv_draw_blend.c **** #if 0
 409:Middlewares/lvgl/src/draw/lv_draw_blend.c ****                 for(x = 0; x < draw_area_w; x++) {
 410:Middlewares/lvgl/src/draw/lv_draw_blend.c **** #if LV_COLOR_SCREEN_TRANSP
 411:Middlewares/lvgl/src/draw/lv_draw_blend.c ****                     FILL_NORMAL_MASK_PX_SCR_TRANSP(x, color)
 412:Middlewares/lvgl/src/draw/lv_draw_blend.c **** #else
 413:Middlewares/lvgl/src/draw/lv_draw_blend.c ****                     FILL_NORMAL_MASK_PX(x, color)
 414:Middlewares/lvgl/src/draw/lv_draw_blend.c **** #endif
 415:Middlewares/lvgl/src/draw/lv_draw_blend.c ****                 }
 416:Middlewares/lvgl/src/draw/lv_draw_blend.c **** #else
 417:Middlewares/lvgl/src/draw/lv_draw_blend.c ****                 for(x = 0; x < draw_area_w && ((lv_uintptr_t)mask_tmp_x & 0x3); x++) {
 418:Middlewares/lvgl/src/draw/lv_draw_blend.c **** #if LV_COLOR_SCREEN_TRANSP
 419:Middlewares/lvgl/src/draw/lv_draw_blend.c ****                     FILL_NORMAL_MASK_PX_SCR_TRANSP(x, color)
 420:Middlewares/lvgl/src/draw/lv_draw_blend.c **** #else
 421:Middlewares/lvgl/src/draw/lv_draw_blend.c ****                     FILL_NORMAL_MASK_PX(x, color)
 422:Middlewares/lvgl/src/draw/lv_draw_blend.c **** #endif
 423:Middlewares/lvgl/src/draw/lv_draw_blend.c ****                 }
 424:Middlewares/lvgl/src/draw/lv_draw_blend.c **** 
 425:Middlewares/lvgl/src/draw/lv_draw_blend.c ****                 uint32_t * mask32 = (uint32_t *)mask_tmp_x;
 426:Middlewares/lvgl/src/draw/lv_draw_blend.c ****                 for(; x <= x_end4; x += 4) {
 427:Middlewares/lvgl/src/draw/lv_draw_blend.c ****                     if(*mask32) {
 428:Middlewares/lvgl/src/draw/lv_draw_blend.c ****                         if((*mask32) == 0xFFFFFFFF) {
 429:Middlewares/lvgl/src/draw/lv_draw_blend.c ****                             disp_buf_first[x] = color;
ARM GAS  /tmp/ccViN4Ah.s 			page 9


 430:Middlewares/lvgl/src/draw/lv_draw_blend.c ****                             disp_buf_first[x + 1] = color;
 431:Middlewares/lvgl/src/draw/lv_draw_blend.c ****                             disp_buf_first[x + 2] = color;
 432:Middlewares/lvgl/src/draw/lv_draw_blend.c ****                             disp_buf_first[x + 3] = color;
 433:Middlewares/lvgl/src/draw/lv_draw_blend.c ****                         }
 434:Middlewares/lvgl/src/draw/lv_draw_blend.c ****                         else {
 435:Middlewares/lvgl/src/draw/lv_draw_blend.c ****                             mask_tmp_x = (const lv_opa_t *)mask32;
 436:Middlewares/lvgl/src/draw/lv_draw_blend.c **** #if LV_COLOR_SCREEN_TRANSP
 437:Middlewares/lvgl/src/draw/lv_draw_blend.c ****                             FILL_NORMAL_MASK_PX_SCR_TRANSP(x, color)
 438:Middlewares/lvgl/src/draw/lv_draw_blend.c ****                             FILL_NORMAL_MASK_PX_SCR_TRANSP(x + 1, color)
 439:Middlewares/lvgl/src/draw/lv_draw_blend.c ****                             FILL_NORMAL_MASK_PX_SCR_TRANSP(x + 2, color)
 440:Middlewares/lvgl/src/draw/lv_draw_blend.c ****                             FILL_NORMAL_MASK_PX_SCR_TRANSP(x + 3, color)
 441:Middlewares/lvgl/src/draw/lv_draw_blend.c **** #else
 442:Middlewares/lvgl/src/draw/lv_draw_blend.c ****                             FILL_NORMAL_MASK_PX(x, color)
 443:Middlewares/lvgl/src/draw/lv_draw_blend.c ****                             FILL_NORMAL_MASK_PX(x + 1, color)
 444:Middlewares/lvgl/src/draw/lv_draw_blend.c ****                             FILL_NORMAL_MASK_PX(x + 2, color)
 445:Middlewares/lvgl/src/draw/lv_draw_blend.c ****                             FILL_NORMAL_MASK_PX(x + 3, color)
 446:Middlewares/lvgl/src/draw/lv_draw_blend.c **** #endif
 447:Middlewares/lvgl/src/draw/lv_draw_blend.c ****                         }
 448:Middlewares/lvgl/src/draw/lv_draw_blend.c ****                     }
 449:Middlewares/lvgl/src/draw/lv_draw_blend.c ****                     mask32++;
 450:Middlewares/lvgl/src/draw/lv_draw_blend.c ****                 }
 451:Middlewares/lvgl/src/draw/lv_draw_blend.c **** 
 452:Middlewares/lvgl/src/draw/lv_draw_blend.c ****                 mask_tmp_x = (const lv_opa_t *)mask32;
 453:Middlewares/lvgl/src/draw/lv_draw_blend.c ****                 for(; x < draw_area_w ; x++) {
 454:Middlewares/lvgl/src/draw/lv_draw_blend.c **** #if LV_COLOR_SCREEN_TRANSP
 455:Middlewares/lvgl/src/draw/lv_draw_blend.c ****                     FILL_NORMAL_MASK_PX_SCR_TRANSP(x, color)
 456:Middlewares/lvgl/src/draw/lv_draw_blend.c **** #else
 457:Middlewares/lvgl/src/draw/lv_draw_blend.c ****                     FILL_NORMAL_MASK_PX(x, color)
 458:Middlewares/lvgl/src/draw/lv_draw_blend.c **** #endif
 459:Middlewares/lvgl/src/draw/lv_draw_blend.c ****                 }
 460:Middlewares/lvgl/src/draw/lv_draw_blend.c **** #endif
 461:Middlewares/lvgl/src/draw/lv_draw_blend.c ****                 disp_buf_first += disp_w;
 462:Middlewares/lvgl/src/draw/lv_draw_blend.c ****                 mask += draw_area_w;
 463:Middlewares/lvgl/src/draw/lv_draw_blend.c ****             }
 464:Middlewares/lvgl/src/draw/lv_draw_blend.c ****         }
 465:Middlewares/lvgl/src/draw/lv_draw_blend.c ****         /*Handle opa and mask values too*/
 466:Middlewares/lvgl/src/draw/lv_draw_blend.c ****         else {
 467:Middlewares/lvgl/src/draw/lv_draw_blend.c ****             lv_opa_t opa_tmp = LV_OPA_TRANSP;
 468:Middlewares/lvgl/src/draw/lv_draw_blend.c ****             for(y = draw_area->y1; y <= draw_area->y2; y++) {
 469:Middlewares/lvgl/src/draw/lv_draw_blend.c ****                 const lv_opa_t * mask_tmp_x = mask;
 470:Middlewares/lvgl/src/draw/lv_draw_blend.c ****                 for(x = 0; x < draw_area_w; x++) {
 471:Middlewares/lvgl/src/draw/lv_draw_blend.c ****                     if(*mask_tmp_x) {
 472:Middlewares/lvgl/src/draw/lv_draw_blend.c ****                         if(*mask_tmp_x != last_mask) opa_tmp = *mask_tmp_x == LV_OPA_COVER ? opa :
 473:Middlewares/lvgl/src/draw/lv_draw_blend.c ****                                                                    (uint32_t)((uint32_t)(*mask_tmp_
 474:Middlewares/lvgl/src/draw/lv_draw_blend.c ****                         if(*mask_tmp_x != last_mask || last_dest_color.full != disp_buf_first[x].fu
 475:Middlewares/lvgl/src/draw/lv_draw_blend.c **** #if LV_COLOR_SCREEN_TRANSP
 476:Middlewares/lvgl/src/draw/lv_draw_blend.c ****                             if(disp->driver->screen_transp) {
 477:Middlewares/lvgl/src/draw/lv_draw_blend.c ****                                 lv_color_mix_with_alpha(disp_buf_first[x], disp_buf_first[x].ch.alp
 478:Middlewares/lvgl/src/draw/lv_draw_blend.c ****                                                         &last_res_color.ch.alpha);
 479:Middlewares/lvgl/src/draw/lv_draw_blend.c ****                             }
 480:Middlewares/lvgl/src/draw/lv_draw_blend.c ****                             else
 481:Middlewares/lvgl/src/draw/lv_draw_blend.c **** #endif
 482:Middlewares/lvgl/src/draw/lv_draw_blend.c ****                             {
 483:Middlewares/lvgl/src/draw/lv_draw_blend.c ****                                 if(opa_tmp == LV_OPA_COVER) last_res_color = color;
 484:Middlewares/lvgl/src/draw/lv_draw_blend.c ****                                 else last_res_color = lv_color_mix(color, disp_buf_first[x], opa_tm
 485:Middlewares/lvgl/src/draw/lv_draw_blend.c ****                             }
 486:Middlewares/lvgl/src/draw/lv_draw_blend.c ****                             last_mask = *mask_tmp_x;
ARM GAS  /tmp/ccViN4Ah.s 			page 10


 487:Middlewares/lvgl/src/draw/lv_draw_blend.c ****                             last_dest_color.full = disp_buf_first[x].full;
 488:Middlewares/lvgl/src/draw/lv_draw_blend.c ****                         }
 489:Middlewares/lvgl/src/draw/lv_draw_blend.c ****                         disp_buf_first[x] = last_res_color;
 490:Middlewares/lvgl/src/draw/lv_draw_blend.c ****                     }
 491:Middlewares/lvgl/src/draw/lv_draw_blend.c ****                     mask_tmp_x++;
 492:Middlewares/lvgl/src/draw/lv_draw_blend.c ****                 }
 493:Middlewares/lvgl/src/draw/lv_draw_blend.c ****                 disp_buf_first += disp_w;
 494:Middlewares/lvgl/src/draw/lv_draw_blend.c ****                 mask += draw_area_w;
 495:Middlewares/lvgl/src/draw/lv_draw_blend.c ****             }
 496:Middlewares/lvgl/src/draw/lv_draw_blend.c ****         }
 497:Middlewares/lvgl/src/draw/lv_draw_blend.c ****     }
 498:Middlewares/lvgl/src/draw/lv_draw_blend.c **** }
 499:Middlewares/lvgl/src/draw/lv_draw_blend.c **** 
 500:Middlewares/lvgl/src/draw/lv_draw_blend.c **** #if LV_DRAW_COMPLEX
 501:Middlewares/lvgl/src/draw/lv_draw_blend.c **** /**
 502:Middlewares/lvgl/src/draw/lv_draw_blend.c ****  * Fill an area with a color but apply blending algorithms
 503:Middlewares/lvgl/src/draw/lv_draw_blend.c ****  * @param disp_area the current display area (destination area)
 504:Middlewares/lvgl/src/draw/lv_draw_blend.c ****  * @param disp_buf destination buffer
 505:Middlewares/lvgl/src/draw/lv_draw_blend.c ****  * @param draw_area fill this area (relative to `disp_area`)
 506:Middlewares/lvgl/src/draw/lv_draw_blend.c ****  * @param color fill color
 507:Middlewares/lvgl/src/draw/lv_draw_blend.c ****  * @param opa overall opacity in 0x00..0xff range
 508:Middlewares/lvgl/src/draw/lv_draw_blend.c ****  * @param mask a mask to apply on every pixel (uint8_t array with 0x00..0xff values).
 509:Middlewares/lvgl/src/draw/lv_draw_blend.c ****  *                It fits into draw_area.
 510:Middlewares/lvgl/src/draw/lv_draw_blend.c ****  * @param mask_res LV_MASK_RES_COVER: the mask has only 0xff values (no mask),
 511:Middlewares/lvgl/src/draw/lv_draw_blend.c ****  *                 LV_MASK_RES_TRANSP: the mask has only 0x00 values (full transparent),
 512:Middlewares/lvgl/src/draw/lv_draw_blend.c ****  *                 LV_MASK_RES_CHANGED: the mask has mixed values
 513:Middlewares/lvgl/src/draw/lv_draw_blend.c ****  * @param mode blend mode from `lv_blend_mode_t`
 514:Middlewares/lvgl/src/draw/lv_draw_blend.c ****  */
 515:Middlewares/lvgl/src/draw/lv_draw_blend.c **** static void fill_blended(const lv_area_t * disp_area, lv_color_t * disp_buf,  const lv_area_t * dra
 516:Middlewares/lvgl/src/draw/lv_draw_blend.c ****                          lv_color_t color, lv_opa_t opa,
 517:Middlewares/lvgl/src/draw/lv_draw_blend.c ****                          const lv_opa_t * mask, lv_draw_mask_res_t mask_res, lv_blend_mode_t mode)
 518:Middlewares/lvgl/src/draw/lv_draw_blend.c **** {
 519:Middlewares/lvgl/src/draw/lv_draw_blend.c ****     /*Get the width of the `disp_area` it will be used to go to the next line*/
 520:Middlewares/lvgl/src/draw/lv_draw_blend.c ****     int32_t disp_w = lv_area_get_width(disp_area);
 521:Middlewares/lvgl/src/draw/lv_draw_blend.c **** 
 522:Middlewares/lvgl/src/draw/lv_draw_blend.c ****     /*Create a temp. disp_buf which always point to current line to draw*/
 523:Middlewares/lvgl/src/draw/lv_draw_blend.c ****     lv_color_t * disp_buf_tmp = disp_buf + disp_w * draw_area->y1;
 524:Middlewares/lvgl/src/draw/lv_draw_blend.c **** 
 525:Middlewares/lvgl/src/draw/lv_draw_blend.c ****     lv_color_t (*blend_fp)(lv_color_t, lv_color_t, lv_opa_t);
 526:Middlewares/lvgl/src/draw/lv_draw_blend.c ****     switch(mode) {
 527:Middlewares/lvgl/src/draw/lv_draw_blend.c ****         case LV_BLEND_MODE_ADDITIVE:
 528:Middlewares/lvgl/src/draw/lv_draw_blend.c ****             blend_fp = color_blend_true_color_additive;
 529:Middlewares/lvgl/src/draw/lv_draw_blend.c ****             break;
 530:Middlewares/lvgl/src/draw/lv_draw_blend.c ****         case LV_BLEND_MODE_SUBTRACTIVE:
 531:Middlewares/lvgl/src/draw/lv_draw_blend.c ****             blend_fp = color_blend_true_color_subtractive;
 532:Middlewares/lvgl/src/draw/lv_draw_blend.c ****             break;
 533:Middlewares/lvgl/src/draw/lv_draw_blend.c ****         default:
 534:Middlewares/lvgl/src/draw/lv_draw_blend.c ****             LV_LOG_WARN("fill_blended: unsupported blend mode");
 535:Middlewares/lvgl/src/draw/lv_draw_blend.c ****             return;
 536:Middlewares/lvgl/src/draw/lv_draw_blend.c ****     }
 537:Middlewares/lvgl/src/draw/lv_draw_blend.c **** 
 538:Middlewares/lvgl/src/draw/lv_draw_blend.c ****     int32_t x;
 539:Middlewares/lvgl/src/draw/lv_draw_blend.c ****     int32_t y;
 540:Middlewares/lvgl/src/draw/lv_draw_blend.c **** 
 541:Middlewares/lvgl/src/draw/lv_draw_blend.c ****     /*Simple fill (maybe with opacity), no masking*/
 542:Middlewares/lvgl/src/draw/lv_draw_blend.c ****     if(mask_res == LV_DRAW_MASK_RES_FULL_COVER) {
 543:Middlewares/lvgl/src/draw/lv_draw_blend.c ****         lv_color_t last_dest_color = lv_color_black();
ARM GAS  /tmp/ccViN4Ah.s 			page 11


 544:Middlewares/lvgl/src/draw/lv_draw_blend.c ****         lv_color_t last_res_color = lv_color_mix(color, last_dest_color, opa);
 545:Middlewares/lvgl/src/draw/lv_draw_blend.c ****         for(y = draw_area->y1; y <= draw_area->y2; y++) {
 546:Middlewares/lvgl/src/draw/lv_draw_blend.c ****             for(x = draw_area->x1; x <= draw_area->x2; x++) {
 547:Middlewares/lvgl/src/draw/lv_draw_blend.c ****                 if(last_dest_color.full != disp_buf_tmp[x].full) {
 548:Middlewares/lvgl/src/draw/lv_draw_blend.c ****                     last_dest_color = disp_buf_tmp[x];
 549:Middlewares/lvgl/src/draw/lv_draw_blend.c ****                     last_res_color = blend_fp(color, disp_buf_tmp[x], opa);
 550:Middlewares/lvgl/src/draw/lv_draw_blend.c ****                 }
 551:Middlewares/lvgl/src/draw/lv_draw_blend.c ****                 disp_buf_tmp[x] = last_res_color;
 552:Middlewares/lvgl/src/draw/lv_draw_blend.c ****             }
 553:Middlewares/lvgl/src/draw/lv_draw_blend.c ****             disp_buf_tmp += disp_w;
 554:Middlewares/lvgl/src/draw/lv_draw_blend.c ****         }
 555:Middlewares/lvgl/src/draw/lv_draw_blend.c ****     }
 556:Middlewares/lvgl/src/draw/lv_draw_blend.c ****     /*Masked*/
 557:Middlewares/lvgl/src/draw/lv_draw_blend.c ****     else {
 558:Middlewares/lvgl/src/draw/lv_draw_blend.c ****         /*Get the width of the `draw_area` it will be used to go to the next line of the mask*/
 559:Middlewares/lvgl/src/draw/lv_draw_blend.c ****         int32_t draw_area_w = lv_area_get_width(draw_area);
 560:Middlewares/lvgl/src/draw/lv_draw_blend.c **** 
 561:Middlewares/lvgl/src/draw/lv_draw_blend.c ****         /*The mask is relative to the clipped area.
 562:Middlewares/lvgl/src/draw/lv_draw_blend.c ****          *In the cycles below mask will be indexed from `draw_area.x1`
 563:Middlewares/lvgl/src/draw/lv_draw_blend.c ****          *but it corresponds to zero index. So prepare `mask_tmp` accordingly.*/
 564:Middlewares/lvgl/src/draw/lv_draw_blend.c ****         const lv_opa_t * mask_tmp = mask - draw_area->x1;
 565:Middlewares/lvgl/src/draw/lv_draw_blend.c **** 
 566:Middlewares/lvgl/src/draw/lv_draw_blend.c ****         /*Buffer the result color to avoid recalculating the same color*/
 567:Middlewares/lvgl/src/draw/lv_draw_blend.c ****         lv_color_t last_dest_color;
 568:Middlewares/lvgl/src/draw/lv_draw_blend.c ****         lv_color_t last_res_color;
 569:Middlewares/lvgl/src/draw/lv_draw_blend.c ****         lv_opa_t last_mask = LV_OPA_TRANSP;
 570:Middlewares/lvgl/src/draw/lv_draw_blend.c ****         last_dest_color.full = disp_buf_tmp[0].full;
 571:Middlewares/lvgl/src/draw/lv_draw_blend.c ****         last_res_color.full = disp_buf_tmp[0].full;
 572:Middlewares/lvgl/src/draw/lv_draw_blend.c **** 
 573:Middlewares/lvgl/src/draw/lv_draw_blend.c ****         for(y = draw_area->y1; y <= draw_area->y2; y++) {
 574:Middlewares/lvgl/src/draw/lv_draw_blend.c ****             for(x = draw_area->x1; x <= draw_area->x2; x++) {
 575:Middlewares/lvgl/src/draw/lv_draw_blend.c ****                 if(mask_tmp[x] == 0) continue;
 576:Middlewares/lvgl/src/draw/lv_draw_blend.c ****                 if(mask_tmp[x] != last_mask || last_dest_color.full != disp_buf_tmp[x].full) {
 577:Middlewares/lvgl/src/draw/lv_draw_blend.c ****                     lv_opa_t opa_tmp = mask_tmp[x] >= LV_OPA_MAX ? opa : (uint32_t)((uint32_t)mask_
 578:Middlewares/lvgl/src/draw/lv_draw_blend.c **** 
 579:Middlewares/lvgl/src/draw/lv_draw_blend.c ****                     last_res_color = blend_fp(color, disp_buf_tmp[x], opa_tmp);
 580:Middlewares/lvgl/src/draw/lv_draw_blend.c ****                     last_mask = mask_tmp[x];
 581:Middlewares/lvgl/src/draw/lv_draw_blend.c ****                     last_dest_color.full = disp_buf_tmp[x].full;
 582:Middlewares/lvgl/src/draw/lv_draw_blend.c ****                 }
 583:Middlewares/lvgl/src/draw/lv_draw_blend.c ****                 disp_buf_tmp[x] = last_res_color;
 584:Middlewares/lvgl/src/draw/lv_draw_blend.c ****             }
 585:Middlewares/lvgl/src/draw/lv_draw_blend.c ****             disp_buf_tmp += disp_w;
 586:Middlewares/lvgl/src/draw/lv_draw_blend.c ****             mask_tmp += draw_area_w;
 587:Middlewares/lvgl/src/draw/lv_draw_blend.c ****         }
 588:Middlewares/lvgl/src/draw/lv_draw_blend.c ****     }
 589:Middlewares/lvgl/src/draw/lv_draw_blend.c **** }
 590:Middlewares/lvgl/src/draw/lv_draw_blend.c **** #endif
 591:Middlewares/lvgl/src/draw/lv_draw_blend.c **** 
 592:Middlewares/lvgl/src/draw/lv_draw_blend.c **** static void map_set_px(const lv_area_t * disp_area, lv_color_t * disp_buf,  const lv_area_t * draw_
 593:Middlewares/lvgl/src/draw/lv_draw_blend.c ****                        const lv_area_t * map_area, const lv_color_t * map_buf, lv_opa_t opa,
 594:Middlewares/lvgl/src/draw/lv_draw_blend.c ****                        const lv_opa_t * mask, lv_draw_mask_res_t mask_res)
 595:Middlewares/lvgl/src/draw/lv_draw_blend.c **** 
 596:Middlewares/lvgl/src/draw/lv_draw_blend.c **** {
 597:Middlewares/lvgl/src/draw/lv_draw_blend.c ****     lv_disp_t * disp = _lv_refr_get_disp_refreshing();
 598:Middlewares/lvgl/src/draw/lv_draw_blend.c **** 
 599:Middlewares/lvgl/src/draw/lv_draw_blend.c ****     /*Get the width of the `disp_area` it will be used to go to the next line*/
 600:Middlewares/lvgl/src/draw/lv_draw_blend.c ****     int32_t disp_w = lv_area_get_width(disp_area);
ARM GAS  /tmp/ccViN4Ah.s 			page 12


 601:Middlewares/lvgl/src/draw/lv_draw_blend.c **** 
 602:Middlewares/lvgl/src/draw/lv_draw_blend.c ****     /*Get the width of the `draw_area` it will be used to go to the next line of the mask*/
 603:Middlewares/lvgl/src/draw/lv_draw_blend.c ****     int32_t draw_area_w = lv_area_get_width(draw_area);
 604:Middlewares/lvgl/src/draw/lv_draw_blend.c **** 
 605:Middlewares/lvgl/src/draw/lv_draw_blend.c ****     /*Get the width of the `mask_area` it will be used to go to the next line*/
 606:Middlewares/lvgl/src/draw/lv_draw_blend.c ****     int32_t map_w = lv_area_get_width(map_area);
 607:Middlewares/lvgl/src/draw/lv_draw_blend.c **** 
 608:Middlewares/lvgl/src/draw/lv_draw_blend.c ****     /*Create a temp. map_buf which always point to current line to draw*/
 609:Middlewares/lvgl/src/draw/lv_draw_blend.c ****     const lv_color_t * map_buf_tmp = map_buf + map_w * (draw_area->y1 - (map_area->y1 - disp_area->
 610:Middlewares/lvgl/src/draw/lv_draw_blend.c **** 
 611:Middlewares/lvgl/src/draw/lv_draw_blend.c ****     map_buf_tmp += (draw_area->x1 - (map_area->x1 - disp_area->x1));
 612:Middlewares/lvgl/src/draw/lv_draw_blend.c ****     map_buf_tmp -= draw_area->x1;
 613:Middlewares/lvgl/src/draw/lv_draw_blend.c ****     int32_t x;
 614:Middlewares/lvgl/src/draw/lv_draw_blend.c ****     int32_t y;
 615:Middlewares/lvgl/src/draw/lv_draw_blend.c **** 
 616:Middlewares/lvgl/src/draw/lv_draw_blend.c ****     if(mask_res == LV_DRAW_MASK_RES_FULL_COVER) {
 617:Middlewares/lvgl/src/draw/lv_draw_blend.c ****         for(y = draw_area->y1; y <= draw_area->y2; y++) {
 618:Middlewares/lvgl/src/draw/lv_draw_blend.c ****             for(x = draw_area->x1; x <= draw_area->x2; x++) {
 619:Middlewares/lvgl/src/draw/lv_draw_blend.c ****                 disp->driver->set_px_cb(disp->driver, (void *)disp_buf, disp_w, x, y, map_buf_tmp[x
 620:Middlewares/lvgl/src/draw/lv_draw_blend.c ****             }
 621:Middlewares/lvgl/src/draw/lv_draw_blend.c ****             map_buf_tmp += map_w;
 622:Middlewares/lvgl/src/draw/lv_draw_blend.c ****         }
 623:Middlewares/lvgl/src/draw/lv_draw_blend.c ****     }
 624:Middlewares/lvgl/src/draw/lv_draw_blend.c ****     else {
 625:Middlewares/lvgl/src/draw/lv_draw_blend.c ****         /*The mask is relative to the clipped area.
 626:Middlewares/lvgl/src/draw/lv_draw_blend.c ****          *In the cycles below mask will be indexed from `draw_area.x1`
 627:Middlewares/lvgl/src/draw/lv_draw_blend.c ****          *but it corresponds to zero index. So prepare `mask_tmp` accordingly.*/
 628:Middlewares/lvgl/src/draw/lv_draw_blend.c ****         const lv_opa_t * mask_tmp = mask - draw_area->x1;
 629:Middlewares/lvgl/src/draw/lv_draw_blend.c **** 
 630:Middlewares/lvgl/src/draw/lv_draw_blend.c ****         for(y = draw_area->y1; y <= draw_area->y2; y++) {
 631:Middlewares/lvgl/src/draw/lv_draw_blend.c ****             for(x = draw_area->x1; x <= draw_area->x2; x++) {
 632:Middlewares/lvgl/src/draw/lv_draw_blend.c ****                 if(mask_tmp[x]) {
 633:Middlewares/lvgl/src/draw/lv_draw_blend.c ****                     disp->driver->set_px_cb(disp->driver, (void *)disp_buf, disp_w, x, y, map_buf_t
 634:Middlewares/lvgl/src/draw/lv_draw_blend.c ****                                            (uint32_t)((uint32_t)opa * mask_tmp[x]) >> 8);
 635:Middlewares/lvgl/src/draw/lv_draw_blend.c ****                 }
 636:Middlewares/lvgl/src/draw/lv_draw_blend.c ****             }
 637:Middlewares/lvgl/src/draw/lv_draw_blend.c ****             mask_tmp += draw_area_w;
 638:Middlewares/lvgl/src/draw/lv_draw_blend.c ****             map_buf_tmp += map_w;
 639:Middlewares/lvgl/src/draw/lv_draw_blend.c ****         }
 640:Middlewares/lvgl/src/draw/lv_draw_blend.c ****     }
 641:Middlewares/lvgl/src/draw/lv_draw_blend.c **** }
 642:Middlewares/lvgl/src/draw/lv_draw_blend.c **** 
 643:Middlewares/lvgl/src/draw/lv_draw_blend.c **** /**
 644:Middlewares/lvgl/src/draw/lv_draw_blend.c ****  * Copy an image to an area
 645:Middlewares/lvgl/src/draw/lv_draw_blend.c ****  * @param disp_area the current display area (destination area)
 646:Middlewares/lvgl/src/draw/lv_draw_blend.c ****  * @param disp_buf destination buffer
 647:Middlewares/lvgl/src/draw/lv_draw_blend.c ****  * @param map_area coordinates of the map (image) to copy. (absolute coordinates)
 648:Middlewares/lvgl/src/draw/lv_draw_blend.c ****  * @param map_buf the pixel of the image
 649:Middlewares/lvgl/src/draw/lv_draw_blend.c ****  * @param opa overall opacity in 0x00..0xff range
 650:Middlewares/lvgl/src/draw/lv_draw_blend.c ****  * @param mask a mask to apply on every pixel (uint8_t array with 0x00..0xff values).
 651:Middlewares/lvgl/src/draw/lv_draw_blend.c ****  *                It fits into draw_area.
 652:Middlewares/lvgl/src/draw/lv_draw_blend.c ****  * @param mask_res LV_MASK_RES_COVER: the mask has only 0xff values (no mask),
 653:Middlewares/lvgl/src/draw/lv_draw_blend.c ****  *                 LV_MASK_RES_TRANSP: the mask has only 0x00 values (full transparent),
 654:Middlewares/lvgl/src/draw/lv_draw_blend.c ****  *                 LV_MASK_RES_CHANGED: the mask has mixed values
 655:Middlewares/lvgl/src/draw/lv_draw_blend.c ****  */
 656:Middlewares/lvgl/src/draw/lv_draw_blend.c **** LV_ATTRIBUTE_FAST_MEM static void map_normal(const lv_area_t * disp_area, lv_color_t * disp_buf,
 657:Middlewares/lvgl/src/draw/lv_draw_blend.c ****                                              const lv_area_t * draw_area,
ARM GAS  /tmp/ccViN4Ah.s 			page 13


 658:Middlewares/lvgl/src/draw/lv_draw_blend.c ****                                              const lv_area_t * map_area, const lv_color_t * map_buf
 659:Middlewares/lvgl/src/draw/lv_draw_blend.c ****                                              const lv_opa_t * mask, lv_draw_mask_res_t mask_res)
 660:Middlewares/lvgl/src/draw/lv_draw_blend.c **** {
 661:Middlewares/lvgl/src/draw/lv_draw_blend.c **** 
 662:Middlewares/lvgl/src/draw/lv_draw_blend.c ****     /*Get the width of the `disp_area` it will be used to go to the next line*/
 663:Middlewares/lvgl/src/draw/lv_draw_blend.c ****     int32_t disp_w = lv_area_get_width(disp_area);
 664:Middlewares/lvgl/src/draw/lv_draw_blend.c **** 
 665:Middlewares/lvgl/src/draw/lv_draw_blend.c ****     int32_t draw_area_w = lv_area_get_width(draw_area);
 666:Middlewares/lvgl/src/draw/lv_draw_blend.c ****     int32_t draw_area_h = lv_area_get_height(draw_area);
 667:Middlewares/lvgl/src/draw/lv_draw_blend.c **** 
 668:Middlewares/lvgl/src/draw/lv_draw_blend.c ****     /*Get the width of the `mask_area` it will be used to go to the next line*/
 669:Middlewares/lvgl/src/draw/lv_draw_blend.c ****     int32_t map_w = lv_area_get_width(map_area);
 670:Middlewares/lvgl/src/draw/lv_draw_blend.c **** 
 671:Middlewares/lvgl/src/draw/lv_draw_blend.c ****     /*Create a temp. disp_buf which always point to first pixel to draw*/
 672:Middlewares/lvgl/src/draw/lv_draw_blend.c ****     lv_color_t * disp_buf_first = disp_buf + disp_w * draw_area->y1 + draw_area->x1;
 673:Middlewares/lvgl/src/draw/lv_draw_blend.c **** 
 674:Middlewares/lvgl/src/draw/lv_draw_blend.c ****     /*Create a temp. map_buf which always point to first pixel to draw from the map*/
 675:Middlewares/lvgl/src/draw/lv_draw_blend.c ****     const lv_color_t * map_buf_first = map_buf + map_w * (draw_area->y1 - (map_area->y1 - disp_area
 676:Middlewares/lvgl/src/draw/lv_draw_blend.c ****     map_buf_first += (draw_area->x1 - (map_area->x1 - disp_area->x1));
 677:Middlewares/lvgl/src/draw/lv_draw_blend.c **** 
 678:Middlewares/lvgl/src/draw/lv_draw_blend.c **** #if LV_COLOR_SCREEN_TRANSP
 679:Middlewares/lvgl/src/draw/lv_draw_blend.c ****     lv_disp_t * disp = _lv_refr_get_disp_refreshing();
 680:Middlewares/lvgl/src/draw/lv_draw_blend.c **** #endif
 681:Middlewares/lvgl/src/draw/lv_draw_blend.c **** 
 682:Middlewares/lvgl/src/draw/lv_draw_blend.c ****     int32_t x;
 683:Middlewares/lvgl/src/draw/lv_draw_blend.c ****     int32_t y;
 684:Middlewares/lvgl/src/draw/lv_draw_blend.c **** 
 685:Middlewares/lvgl/src/draw/lv_draw_blend.c ****     /*Simple fill (maybe with opacity), no masking*/
 686:Middlewares/lvgl/src/draw/lv_draw_blend.c ****     if(mask_res == LV_DRAW_MASK_RES_FULL_COVER) {
 687:Middlewares/lvgl/src/draw/lv_draw_blend.c ****         if(opa > LV_OPA_MAX) {
 688:Middlewares/lvgl/src/draw/lv_draw_blend.c **** #if LV_USE_GPU_NXP_PXP
 689:Middlewares/lvgl/src/draw/lv_draw_blend.c ****             if(lv_area_get_size(draw_area) >= LV_GPU_NXP_PXP_BLIT_SIZE_LIMIT) {
 690:Middlewares/lvgl/src/draw/lv_draw_blend.c ****                 lv_gpu_nxp_pxp_blit(disp_buf_first, disp_w, map_buf_first, map_w, draw_area_w, draw
 691:Middlewares/lvgl/src/draw/lv_draw_blend.c ****                 return;
 692:Middlewares/lvgl/src/draw/lv_draw_blend.c ****             }
 693:Middlewares/lvgl/src/draw/lv_draw_blend.c **** #elif (LV_USE_GPU_NXP_VG_LITE)
 694:Middlewares/lvgl/src/draw/lv_draw_blend.c ****             if(lv_area_get_size(draw_area) >= LV_GPU_NXP_VG_LITE_BLIT_SIZE_LIMIT) {
 695:Middlewares/lvgl/src/draw/lv_draw_blend.c **** 
 696:Middlewares/lvgl/src/draw/lv_draw_blend.c ****                 lv_gpu_nxp_vglite_blit_info_t blit;
 697:Middlewares/lvgl/src/draw/lv_draw_blend.c **** 
 698:Middlewares/lvgl/src/draw/lv_draw_blend.c ****                 blit.src = map_buf;
 699:Middlewares/lvgl/src/draw/lv_draw_blend.c ****                 blit.src_width = draw_area_w;
 700:Middlewares/lvgl/src/draw/lv_draw_blend.c ****                 blit.src_height = draw_area_h;
 701:Middlewares/lvgl/src/draw/lv_draw_blend.c ****                 blit.src_stride = lv_area_get_width(map_area) * sizeof(lv_color_t);
 702:Middlewares/lvgl/src/draw/lv_draw_blend.c ****                 blit.src_area.x1 = (draw_area->x1 - (map_area->x1 - disp_area->x1));
 703:Middlewares/lvgl/src/draw/lv_draw_blend.c ****                 blit.src_area.y1 = (draw_area->y1 - (map_area->y1 - disp_area->y1));
 704:Middlewares/lvgl/src/draw/lv_draw_blend.c ****                 blit.src_area.x2 = blit.src_area.x1 + draw_area_w - 1;
 705:Middlewares/lvgl/src/draw/lv_draw_blend.c ****                 blit.src_area.y2 = blit.src_area.y1 + draw_area_h - 1;
 706:Middlewares/lvgl/src/draw/lv_draw_blend.c **** 
 707:Middlewares/lvgl/src/draw/lv_draw_blend.c ****                 blit.dst = disp_buf;
 708:Middlewares/lvgl/src/draw/lv_draw_blend.c ****                 blit.dst_width = lv_area_get_width(disp_area);
 709:Middlewares/lvgl/src/draw/lv_draw_blend.c ****                 blit.dst_height = lv_area_get_height(disp_area);
 710:Middlewares/lvgl/src/draw/lv_draw_blend.c ****                 blit.dst_stride = lv_area_get_width(disp_area) * sizeof(lv_color_t);
 711:Middlewares/lvgl/src/draw/lv_draw_blend.c ****                 blit.dst_area.x1 = draw_area->x1;
 712:Middlewares/lvgl/src/draw/lv_draw_blend.c ****                 blit.dst_area.y1 = draw_area->y1;
 713:Middlewares/lvgl/src/draw/lv_draw_blend.c ****                 blit.dst_area.x2 = blit.dst_area.x1 + draw_area_w - 1;
 714:Middlewares/lvgl/src/draw/lv_draw_blend.c ****                 blit.dst_area.y2 = blit.dst_area.y1 + draw_area_h - 1;
ARM GAS  /tmp/ccViN4Ah.s 			page 14


 715:Middlewares/lvgl/src/draw/lv_draw_blend.c **** 
 716:Middlewares/lvgl/src/draw/lv_draw_blend.c ****                 blit.opa = opa;
 717:Middlewares/lvgl/src/draw/lv_draw_blend.c **** 
 718:Middlewares/lvgl/src/draw/lv_draw_blend.c ****                 if(lv_gpu_nxp_vglite_blit(&blit) == LV_RES_OK) {
 719:Middlewares/lvgl/src/draw/lv_draw_blend.c ****                     return;
 720:Middlewares/lvgl/src/draw/lv_draw_blend.c ****                 }
 721:Middlewares/lvgl/src/draw/lv_draw_blend.c ****                 /*Fall down to SW render in case of error*/
 722:Middlewares/lvgl/src/draw/lv_draw_blend.c ****             }
 723:Middlewares/lvgl/src/draw/lv_draw_blend.c **** #elif LV_USE_GPU_STM32_DMA2D
 724:Middlewares/lvgl/src/draw/lv_draw_blend.c ****             if(lv_area_get_size(draw_area) >= 240) {
 725:Middlewares/lvgl/src/draw/lv_draw_blend.c ****                 lv_gpu_stm32_dma2d_copy(disp_buf_first, disp_w, map_buf_first, map_w, draw_area_w, 
 726:Middlewares/lvgl/src/draw/lv_draw_blend.c ****                 return;
 727:Middlewares/lvgl/src/draw/lv_draw_blend.c ****             }
 728:Middlewares/lvgl/src/draw/lv_draw_blend.c **** #endif
 729:Middlewares/lvgl/src/draw/lv_draw_blend.c **** 
 730:Middlewares/lvgl/src/draw/lv_draw_blend.c ****             /*Software rendering*/
 731:Middlewares/lvgl/src/draw/lv_draw_blend.c ****             for(y = 0; y < draw_area_h; y++) {
 732:Middlewares/lvgl/src/draw/lv_draw_blend.c ****                 lv_memcpy(disp_buf_first, map_buf_first, draw_area_w * sizeof(lv_color_t));
 733:Middlewares/lvgl/src/draw/lv_draw_blend.c ****                 disp_buf_first += disp_w;
 734:Middlewares/lvgl/src/draw/lv_draw_blend.c ****                 map_buf_first += map_w;
 735:Middlewares/lvgl/src/draw/lv_draw_blend.c ****             }
 736:Middlewares/lvgl/src/draw/lv_draw_blend.c ****         }
 737:Middlewares/lvgl/src/draw/lv_draw_blend.c ****         else {
 738:Middlewares/lvgl/src/draw/lv_draw_blend.c **** #if LV_USE_GPU_NXP_PXP
 739:Middlewares/lvgl/src/draw/lv_draw_blend.c ****             if(lv_area_get_size(draw_area) >= LV_GPU_NXP_PXP_BLIT_OPA_SIZE_LIMIT) {
 740:Middlewares/lvgl/src/draw/lv_draw_blend.c ****                 lv_gpu_nxp_pxp_blit(disp_buf_first, disp_w, map_buf_first, map_w, draw_area_w, draw
 741:Middlewares/lvgl/src/draw/lv_draw_blend.c ****                 return;
 742:Middlewares/lvgl/src/draw/lv_draw_blend.c ****             }
 743:Middlewares/lvgl/src/draw/lv_draw_blend.c **** #elif (LV_USE_GPU_NXP_VG_LITE)
 744:Middlewares/lvgl/src/draw/lv_draw_blend.c ****             if(lv_area_get_size(draw_area) >= LV_GPU_NXP_VG_LITE_BLIT_OPA_SIZE_LIMIT) {
 745:Middlewares/lvgl/src/draw/lv_draw_blend.c **** 
 746:Middlewares/lvgl/src/draw/lv_draw_blend.c ****                 lv_gpu_nxp_vglite_blit_info_t blit;
 747:Middlewares/lvgl/src/draw/lv_draw_blend.c **** 
 748:Middlewares/lvgl/src/draw/lv_draw_blend.c ****                 blit.src = map_buf;
 749:Middlewares/lvgl/src/draw/lv_draw_blend.c ****                 blit.src_width = lv_area_get_width(map_area);
 750:Middlewares/lvgl/src/draw/lv_draw_blend.c ****                 blit.src_height = lv_area_get_height(map_area);
 751:Middlewares/lvgl/src/draw/lv_draw_blend.c ****                 blit.src_stride = lv_area_get_width(map_area) * sizeof(lv_color_t);
 752:Middlewares/lvgl/src/draw/lv_draw_blend.c ****                 blit.src_area.x1 = (draw_area->x1 - (map_area->x1 - disp_area->x1));
 753:Middlewares/lvgl/src/draw/lv_draw_blend.c ****                 blit.src_area.y1 = (draw_area->y1 - (map_area->y1 - disp_area->y1));
 754:Middlewares/lvgl/src/draw/lv_draw_blend.c ****                 blit.src_area.x2 = blit.src_area.x1 + draw_area_w - 1;
 755:Middlewares/lvgl/src/draw/lv_draw_blend.c ****                 blit.src_area.y2 = blit.src_area.y1 + draw_area_h - 1;
 756:Middlewares/lvgl/src/draw/lv_draw_blend.c **** 
 757:Middlewares/lvgl/src/draw/lv_draw_blend.c ****                 blit.dst = disp_buf;
 758:Middlewares/lvgl/src/draw/lv_draw_blend.c ****                 blit.dst_width = lv_area_get_width(disp_area);
 759:Middlewares/lvgl/src/draw/lv_draw_blend.c ****                 blit.dst_height = lv_area_get_height(disp_area);
 760:Middlewares/lvgl/src/draw/lv_draw_blend.c ****                 blit.dst_stride = lv_area_get_width(disp_area) * sizeof(lv_color_t);
 761:Middlewares/lvgl/src/draw/lv_draw_blend.c ****                 blit.dst_area.x1 = draw_area->x1;
 762:Middlewares/lvgl/src/draw/lv_draw_blend.c ****                 blit.dst_area.y1 = draw_area->y1;
 763:Middlewares/lvgl/src/draw/lv_draw_blend.c ****                 blit.dst_area.x2 = blit.dst_area.x1 + draw_area_w - 1;
 764:Middlewares/lvgl/src/draw/lv_draw_blend.c ****                 blit.dst_area.y2 = blit.dst_area.y1 + draw_area_h - 1;
 765:Middlewares/lvgl/src/draw/lv_draw_blend.c **** 
 766:Middlewares/lvgl/src/draw/lv_draw_blend.c ****                 blit.opa = opa;
 767:Middlewares/lvgl/src/draw/lv_draw_blend.c **** 
 768:Middlewares/lvgl/src/draw/lv_draw_blend.c ****                 if(lv_gpu_nxp_vglite_blit(&blit) == LV_RES_OK) {
 769:Middlewares/lvgl/src/draw/lv_draw_blend.c ****                     return;
 770:Middlewares/lvgl/src/draw/lv_draw_blend.c ****                 }
 771:Middlewares/lvgl/src/draw/lv_draw_blend.c ****                 /*Fall down to SW render in case of error*/
ARM GAS  /tmp/ccViN4Ah.s 			page 15


 772:Middlewares/lvgl/src/draw/lv_draw_blend.c ****             }
 773:Middlewares/lvgl/src/draw/lv_draw_blend.c **** #elif LV_USE_GPU_STM32_DMA2D
 774:Middlewares/lvgl/src/draw/lv_draw_blend.c ****             if(lv_area_get_size(draw_area) >= 240) {
 775:Middlewares/lvgl/src/draw/lv_draw_blend.c ****                 lv_gpu_stm32_dma2d_blend(disp_buf_first, disp_w, map_buf_first, opa, map_w, draw_ar
 776:Middlewares/lvgl/src/draw/lv_draw_blend.c ****                 return;
 777:Middlewares/lvgl/src/draw/lv_draw_blend.c ****             }
 778:Middlewares/lvgl/src/draw/lv_draw_blend.c **** #endif
 779:Middlewares/lvgl/src/draw/lv_draw_blend.c **** 
 780:Middlewares/lvgl/src/draw/lv_draw_blend.c ****             /*Software rendering*/
 781:Middlewares/lvgl/src/draw/lv_draw_blend.c **** 
 782:Middlewares/lvgl/src/draw/lv_draw_blend.c ****             for(y = 0; y < draw_area_h; y++) {
 783:Middlewares/lvgl/src/draw/lv_draw_blend.c ****                 for(x = 0; x < draw_area_w; x++) {
 784:Middlewares/lvgl/src/draw/lv_draw_blend.c **** #if LV_COLOR_SCREEN_TRANSP
 785:Middlewares/lvgl/src/draw/lv_draw_blend.c ****                     if(disp->driver->screen_transp) {
 786:Middlewares/lvgl/src/draw/lv_draw_blend.c ****                         lv_color_mix_with_alpha(disp_buf_first[x], disp_buf_first[x].ch.alpha, map_
 787:Middlewares/lvgl/src/draw/lv_draw_blend.c ****                                                 &disp_buf_first[x].ch.alpha);
 788:Middlewares/lvgl/src/draw/lv_draw_blend.c ****                     }
 789:Middlewares/lvgl/src/draw/lv_draw_blend.c ****                     else
 790:Middlewares/lvgl/src/draw/lv_draw_blend.c **** #endif
 791:Middlewares/lvgl/src/draw/lv_draw_blend.c ****                     {
 792:Middlewares/lvgl/src/draw/lv_draw_blend.c ****                         disp_buf_first[x] = lv_color_mix(map_buf_first[x], disp_buf_first[x], opa);
 793:Middlewares/lvgl/src/draw/lv_draw_blend.c ****                     }
 794:Middlewares/lvgl/src/draw/lv_draw_blend.c ****                 }
 795:Middlewares/lvgl/src/draw/lv_draw_blend.c ****                 disp_buf_first += disp_w;
 796:Middlewares/lvgl/src/draw/lv_draw_blend.c ****                 map_buf_first += map_w;
 797:Middlewares/lvgl/src/draw/lv_draw_blend.c ****             }
 798:Middlewares/lvgl/src/draw/lv_draw_blend.c ****         }
 799:Middlewares/lvgl/src/draw/lv_draw_blend.c ****     }
 800:Middlewares/lvgl/src/draw/lv_draw_blend.c ****     /*Masked*/
 801:Middlewares/lvgl/src/draw/lv_draw_blend.c ****     else {
 802:Middlewares/lvgl/src/draw/lv_draw_blend.c ****         /*Only the mask matters*/
 803:Middlewares/lvgl/src/draw/lv_draw_blend.c ****         if(opa > LV_OPA_MAX) {
 804:Middlewares/lvgl/src/draw/lv_draw_blend.c ****             /*Go to the first pixel of the row*/
 805:Middlewares/lvgl/src/draw/lv_draw_blend.c **** 
 806:Middlewares/lvgl/src/draw/lv_draw_blend.c ****             int32_t x_end4 = draw_area_w - 4;
 807:Middlewares/lvgl/src/draw/lv_draw_blend.c **** 
 808:Middlewares/lvgl/src/draw/lv_draw_blend.c ****             for(y = 0; y < draw_area_h; y++) {
 809:Middlewares/lvgl/src/draw/lv_draw_blend.c ****                 const lv_opa_t * mask_tmp_x = mask;
 810:Middlewares/lvgl/src/draw/lv_draw_blend.c **** #if 0
 811:Middlewares/lvgl/src/draw/lv_draw_blend.c ****                 for(x = 0; x < draw_area_w; x++) {
 812:Middlewares/lvgl/src/draw/lv_draw_blend.c ****                     MAP_NORMAL_MASK_PX(x);
 813:Middlewares/lvgl/src/draw/lv_draw_blend.c ****                 }
 814:Middlewares/lvgl/src/draw/lv_draw_blend.c **** #else
 815:Middlewares/lvgl/src/draw/lv_draw_blend.c ****                 for(x = 0; x < draw_area_w && ((lv_uintptr_t)mask_tmp_x & 0x3); x++) {
 816:Middlewares/lvgl/src/draw/lv_draw_blend.c **** #if LV_COLOR_SCREEN_TRANSP
 817:Middlewares/lvgl/src/draw/lv_draw_blend.c ****                     MAP_NORMAL_MASK_PX_SCR_TRANSP(x)
 818:Middlewares/lvgl/src/draw/lv_draw_blend.c **** #else
 819:Middlewares/lvgl/src/draw/lv_draw_blend.c ****                     MAP_NORMAL_MASK_PX(x)
 820:Middlewares/lvgl/src/draw/lv_draw_blend.c **** #endif
 821:Middlewares/lvgl/src/draw/lv_draw_blend.c ****                 }
 822:Middlewares/lvgl/src/draw/lv_draw_blend.c **** 
 823:Middlewares/lvgl/src/draw/lv_draw_blend.c ****                 uint32_t * mask32 = (uint32_t *)mask_tmp_x;
 824:Middlewares/lvgl/src/draw/lv_draw_blend.c ****                 for(; x < x_end4; x += 4) {
 825:Middlewares/lvgl/src/draw/lv_draw_blend.c ****                     if(*mask32) {
 826:Middlewares/lvgl/src/draw/lv_draw_blend.c ****                         if((*mask32) == 0xFFFFFFFF) {
 827:Middlewares/lvgl/src/draw/lv_draw_blend.c ****                             disp_buf_first[x] = map_buf_first[x];
 828:Middlewares/lvgl/src/draw/lv_draw_blend.c ****                             disp_buf_first[x + 1] = map_buf_first[x + 1];
ARM GAS  /tmp/ccViN4Ah.s 			page 16


 829:Middlewares/lvgl/src/draw/lv_draw_blend.c ****                             disp_buf_first[x + 2] = map_buf_first[x + 2];
 830:Middlewares/lvgl/src/draw/lv_draw_blend.c ****                             disp_buf_first[x + 3] = map_buf_first[x + 3];
 831:Middlewares/lvgl/src/draw/lv_draw_blend.c ****                         }
 832:Middlewares/lvgl/src/draw/lv_draw_blend.c ****                         else {
 833:Middlewares/lvgl/src/draw/lv_draw_blend.c ****                             mask_tmp_x = (const lv_opa_t *)mask32;
 834:Middlewares/lvgl/src/draw/lv_draw_blend.c **** #if LV_COLOR_SCREEN_TRANSP
 835:Middlewares/lvgl/src/draw/lv_draw_blend.c ****                             MAP_NORMAL_MASK_PX_SCR_TRANSP(x)
 836:Middlewares/lvgl/src/draw/lv_draw_blend.c ****                             MAP_NORMAL_MASK_PX_SCR_TRANSP(x + 1)
 837:Middlewares/lvgl/src/draw/lv_draw_blend.c ****                             MAP_NORMAL_MASK_PX_SCR_TRANSP(x + 2)
 838:Middlewares/lvgl/src/draw/lv_draw_blend.c ****                             MAP_NORMAL_MASK_PX_SCR_TRANSP(x + 3)
 839:Middlewares/lvgl/src/draw/lv_draw_blend.c **** #else
 840:Middlewares/lvgl/src/draw/lv_draw_blend.c ****                             MAP_NORMAL_MASK_PX(x)
 841:Middlewares/lvgl/src/draw/lv_draw_blend.c ****                             MAP_NORMAL_MASK_PX(x + 1)
 842:Middlewares/lvgl/src/draw/lv_draw_blend.c ****                             MAP_NORMAL_MASK_PX(x + 2)
 843:Middlewares/lvgl/src/draw/lv_draw_blend.c ****                             MAP_NORMAL_MASK_PX(x + 3)
 844:Middlewares/lvgl/src/draw/lv_draw_blend.c **** #endif
 845:Middlewares/lvgl/src/draw/lv_draw_blend.c ****                         }
 846:Middlewares/lvgl/src/draw/lv_draw_blend.c ****                     }
 847:Middlewares/lvgl/src/draw/lv_draw_blend.c ****                     mask32++;
 848:Middlewares/lvgl/src/draw/lv_draw_blend.c ****                 }
 849:Middlewares/lvgl/src/draw/lv_draw_blend.c **** 
 850:Middlewares/lvgl/src/draw/lv_draw_blend.c ****                 mask_tmp_x = (const lv_opa_t *)mask32;
 851:Middlewares/lvgl/src/draw/lv_draw_blend.c ****                 for(; x < draw_area_w ; x++) {
 852:Middlewares/lvgl/src/draw/lv_draw_blend.c **** #if LV_COLOR_SCREEN_TRANSP
 853:Middlewares/lvgl/src/draw/lv_draw_blend.c ****                     MAP_NORMAL_MASK_PX_SCR_TRANSP(x)
 854:Middlewares/lvgl/src/draw/lv_draw_blend.c **** #else
 855:Middlewares/lvgl/src/draw/lv_draw_blend.c ****                     MAP_NORMAL_MASK_PX(x)
 856:Middlewares/lvgl/src/draw/lv_draw_blend.c **** #endif
 857:Middlewares/lvgl/src/draw/lv_draw_blend.c ****                 }
 858:Middlewares/lvgl/src/draw/lv_draw_blend.c **** #endif
 859:Middlewares/lvgl/src/draw/lv_draw_blend.c ****                 disp_buf_first += disp_w;
 860:Middlewares/lvgl/src/draw/lv_draw_blend.c ****                 mask += draw_area_w;
 861:Middlewares/lvgl/src/draw/lv_draw_blend.c ****                 map_buf_first += map_w;
 862:Middlewares/lvgl/src/draw/lv_draw_blend.c ****             }
 863:Middlewares/lvgl/src/draw/lv_draw_blend.c ****         }
 864:Middlewares/lvgl/src/draw/lv_draw_blend.c ****         /*Handle opa and mask values too*/
 865:Middlewares/lvgl/src/draw/lv_draw_blend.c ****         else {
 866:Middlewares/lvgl/src/draw/lv_draw_blend.c ****             for(y = 0; y < draw_area_h; y++) {
 867:Middlewares/lvgl/src/draw/lv_draw_blend.c ****                 for(x = 0; x < draw_area_w; x++) {
 868:Middlewares/lvgl/src/draw/lv_draw_blend.c ****                     if(mask[x]) {
 869:Middlewares/lvgl/src/draw/lv_draw_blend.c ****                         lv_opa_t opa_tmp = mask[x] >= LV_OPA_MAX ? opa : ((opa * mask[x]) >> 8);
 870:Middlewares/lvgl/src/draw/lv_draw_blend.c **** #if LV_COLOR_SCREEN_TRANSP
 871:Middlewares/lvgl/src/draw/lv_draw_blend.c ****                         if(disp->driver->screen_transp) {
 872:Middlewares/lvgl/src/draw/lv_draw_blend.c ****                             lv_color_mix_with_alpha(disp_buf_first[x], disp_buf_first[x].ch.alpha, 
 873:Middlewares/lvgl/src/draw/lv_draw_blend.c ****                                                     &disp_buf_first[x].ch.alpha);
 874:Middlewares/lvgl/src/draw/lv_draw_blend.c ****                         }
 875:Middlewares/lvgl/src/draw/lv_draw_blend.c ****                         else
 876:Middlewares/lvgl/src/draw/lv_draw_blend.c **** #endif
 877:Middlewares/lvgl/src/draw/lv_draw_blend.c ****                         {
 878:Middlewares/lvgl/src/draw/lv_draw_blend.c ****                             disp_buf_first[x] = lv_color_mix(map_buf_first[x], disp_buf_first[x], o
 879:Middlewares/lvgl/src/draw/lv_draw_blend.c ****                         }
 880:Middlewares/lvgl/src/draw/lv_draw_blend.c ****                     }
 881:Middlewares/lvgl/src/draw/lv_draw_blend.c ****                 }
 882:Middlewares/lvgl/src/draw/lv_draw_blend.c ****                 disp_buf_first += disp_w;
 883:Middlewares/lvgl/src/draw/lv_draw_blend.c ****                 mask += draw_area_w;
 884:Middlewares/lvgl/src/draw/lv_draw_blend.c ****                 map_buf_first += map_w;
 885:Middlewares/lvgl/src/draw/lv_draw_blend.c ****             }
ARM GAS  /tmp/ccViN4Ah.s 			page 17


 886:Middlewares/lvgl/src/draw/lv_draw_blend.c ****         }
 887:Middlewares/lvgl/src/draw/lv_draw_blend.c ****     }
 888:Middlewares/lvgl/src/draw/lv_draw_blend.c **** }
 889:Middlewares/lvgl/src/draw/lv_draw_blend.c **** #if LV_DRAW_COMPLEX
 890:Middlewares/lvgl/src/draw/lv_draw_blend.c **** static void map_blended(const lv_area_t * disp_area, lv_color_t * disp_buf,  const lv_area_t * draw
 891:Middlewares/lvgl/src/draw/lv_draw_blend.c ****                         const lv_area_t * map_area, const lv_color_t * map_buf, lv_opa_t opa,
 892:Middlewares/lvgl/src/draw/lv_draw_blend.c ****                         const lv_opa_t * mask, lv_draw_mask_res_t mask_res, lv_blend_mode_t mode)
 893:Middlewares/lvgl/src/draw/lv_draw_blend.c **** {
  29              		.loc 1 893 1 view -0
  30              		.cfi_startproc
  31              		@ args = 20, pretend = 0, frame = 16
  32              		@ frame_needed = 0, uses_anonymous_args = 0
  33              		.loc 1 893 1 is_stmt 0 view .LVU1
  34 0000 2DE9F04F 		push	{r4, r5, r6, r7, r8, r9, r10, fp, lr}
  35              	.LCFI0:
  36              		.cfi_def_cfa_offset 36
  37              		.cfi_offset 4, -36
  38              		.cfi_offset 5, -32
  39              		.cfi_offset 6, -28
  40              		.cfi_offset 7, -24
  41              		.cfi_offset 8, -20
  42              		.cfi_offset 9, -16
  43              		.cfi_offset 10, -12
  44              		.cfi_offset 11, -8
  45              		.cfi_offset 14, -4
  46 0004 85B0     		sub	sp, sp, #20
  47              	.LCFI1:
  48              		.cfi_def_cfa_offset 56
  49 0006 1746     		mov	r7, r2
  50 0008 9DF83CA0 		ldrb	r10, [sp, #60]	@ zero_extendqisi2
  51 000c 9DF848E0 		ldrb	lr, [sp, #72]	@ zero_extendqisi2
 894:Middlewares/lvgl/src/draw/lv_draw_blend.c **** 
 895:Middlewares/lvgl/src/draw/lv_draw_blend.c ****     /*Get the width of the `disp_area` it will be used to go to the next line*/
 896:Middlewares/lvgl/src/draw/lv_draw_blend.c ****     int32_t disp_w = lv_area_get_width(disp_area);
  52              		.loc 1 896 5 is_stmt 1 view .LVU2
  53              	.LVL1:
  54              	.LBB69:
  55              	.LBI69:
  56              		.file 2 "Middlewares/lvgl/src/draw/../misc/lv_area.h"
   1:Middlewares/lvgl/src/draw/../misc/lv_area.h **** /**
   2:Middlewares/lvgl/src/draw/../misc/lv_area.h ****  * @file lv_area.h
   3:Middlewares/lvgl/src/draw/../misc/lv_area.h ****  *
   4:Middlewares/lvgl/src/draw/../misc/lv_area.h ****  */
   5:Middlewares/lvgl/src/draw/../misc/lv_area.h **** 
   6:Middlewares/lvgl/src/draw/../misc/lv_area.h **** #ifndef LV_AREA_H
   7:Middlewares/lvgl/src/draw/../misc/lv_area.h **** #define LV_AREA_H
   8:Middlewares/lvgl/src/draw/../misc/lv_area.h **** 
   9:Middlewares/lvgl/src/draw/../misc/lv_area.h **** #ifdef __cplusplus
  10:Middlewares/lvgl/src/draw/../misc/lv_area.h **** extern "C" {
  11:Middlewares/lvgl/src/draw/../misc/lv_area.h **** #endif
  12:Middlewares/lvgl/src/draw/../misc/lv_area.h **** 
  13:Middlewares/lvgl/src/draw/../misc/lv_area.h **** /*********************
  14:Middlewares/lvgl/src/draw/../misc/lv_area.h ****  *      INCLUDES
  15:Middlewares/lvgl/src/draw/../misc/lv_area.h ****  *********************/
  16:Middlewares/lvgl/src/draw/../misc/lv_area.h **** #include "../lv_conf_internal.h"
  17:Middlewares/lvgl/src/draw/../misc/lv_area.h **** #include <string.h>
  18:Middlewares/lvgl/src/draw/../misc/lv_area.h **** #include <stdbool.h>
ARM GAS  /tmp/ccViN4Ah.s 			page 18


  19:Middlewares/lvgl/src/draw/../misc/lv_area.h **** #include <stdint.h>
  20:Middlewares/lvgl/src/draw/../misc/lv_area.h **** 
  21:Middlewares/lvgl/src/draw/../misc/lv_area.h **** /*********************
  22:Middlewares/lvgl/src/draw/../misc/lv_area.h ****  *      DEFINES
  23:Middlewares/lvgl/src/draw/../misc/lv_area.h ****  *********************/
  24:Middlewares/lvgl/src/draw/../misc/lv_area.h **** 
  25:Middlewares/lvgl/src/draw/../misc/lv_area.h **** #define _LV_COORD_MAX_REDUCE    8192
  26:Middlewares/lvgl/src/draw/../misc/lv_area.h **** 
  27:Middlewares/lvgl/src/draw/../misc/lv_area.h **** #if LV_USE_LARGE_COORD
  28:Middlewares/lvgl/src/draw/../misc/lv_area.h **** typedef int32_t lv_coord_t;
  29:Middlewares/lvgl/src/draw/../misc/lv_area.h **** #else
  30:Middlewares/lvgl/src/draw/../misc/lv_area.h **** typedef int16_t lv_coord_t;
  31:Middlewares/lvgl/src/draw/../misc/lv_area.h **** #endif
  32:Middlewares/lvgl/src/draw/../misc/lv_area.h **** 
  33:Middlewares/lvgl/src/draw/../misc/lv_area.h **** /*To allow some special values in the end reduce the max value*/
  34:Middlewares/lvgl/src/draw/../misc/lv_area.h **** #define LV_COORD_MAX ((lv_coord_t)((uint32_t)((uint32_t)1 << (8 * sizeof(lv_coord_t) - 1)) - _LV_CO
  35:Middlewares/lvgl/src/draw/../misc/lv_area.h **** #define LV_COORD_MIN (-LV_COORD_MAX)
  36:Middlewares/lvgl/src/draw/../misc/lv_area.h **** 
  37:Middlewares/lvgl/src/draw/../misc/lv_area.h **** LV_EXPORT_CONST_INT(LV_COORD_MAX);
  38:Middlewares/lvgl/src/draw/../misc/lv_area.h **** LV_EXPORT_CONST_INT(LV_COORD_MIN);
  39:Middlewares/lvgl/src/draw/../misc/lv_area.h **** 
  40:Middlewares/lvgl/src/draw/../misc/lv_area.h **** /**********************
  41:Middlewares/lvgl/src/draw/../misc/lv_area.h ****  *      TYPEDEFS
  42:Middlewares/lvgl/src/draw/../misc/lv_area.h ****  **********************/
  43:Middlewares/lvgl/src/draw/../misc/lv_area.h **** 
  44:Middlewares/lvgl/src/draw/../misc/lv_area.h **** /**
  45:Middlewares/lvgl/src/draw/../misc/lv_area.h ****  * Represents a point on the screen.
  46:Middlewares/lvgl/src/draw/../misc/lv_area.h ****  */
  47:Middlewares/lvgl/src/draw/../misc/lv_area.h **** typedef struct {
  48:Middlewares/lvgl/src/draw/../misc/lv_area.h ****     lv_coord_t x;
  49:Middlewares/lvgl/src/draw/../misc/lv_area.h ****     lv_coord_t y;
  50:Middlewares/lvgl/src/draw/../misc/lv_area.h **** } lv_point_t;
  51:Middlewares/lvgl/src/draw/../misc/lv_area.h **** 
  52:Middlewares/lvgl/src/draw/../misc/lv_area.h **** /** Represents an area of the screen.*/
  53:Middlewares/lvgl/src/draw/../misc/lv_area.h **** typedef struct {
  54:Middlewares/lvgl/src/draw/../misc/lv_area.h ****     lv_coord_t x1;
  55:Middlewares/lvgl/src/draw/../misc/lv_area.h ****     lv_coord_t y1;
  56:Middlewares/lvgl/src/draw/../misc/lv_area.h ****     lv_coord_t x2;
  57:Middlewares/lvgl/src/draw/../misc/lv_area.h ****     lv_coord_t y2;
  58:Middlewares/lvgl/src/draw/../misc/lv_area.h **** } lv_area_t;
  59:Middlewares/lvgl/src/draw/../misc/lv_area.h **** 
  60:Middlewares/lvgl/src/draw/../misc/lv_area.h **** /** Alignments*/
  61:Middlewares/lvgl/src/draw/../misc/lv_area.h **** enum {
  62:Middlewares/lvgl/src/draw/../misc/lv_area.h ****     LV_ALIGN_DEFAULT = 0,
  63:Middlewares/lvgl/src/draw/../misc/lv_area.h ****     LV_ALIGN_TOP_LEFT,
  64:Middlewares/lvgl/src/draw/../misc/lv_area.h ****     LV_ALIGN_TOP_MID,
  65:Middlewares/lvgl/src/draw/../misc/lv_area.h ****     LV_ALIGN_TOP_RIGHT,
  66:Middlewares/lvgl/src/draw/../misc/lv_area.h ****     LV_ALIGN_BOTTOM_LEFT,
  67:Middlewares/lvgl/src/draw/../misc/lv_area.h ****     LV_ALIGN_BOTTOM_MID,
  68:Middlewares/lvgl/src/draw/../misc/lv_area.h ****     LV_ALIGN_BOTTOM_RIGHT,
  69:Middlewares/lvgl/src/draw/../misc/lv_area.h ****     LV_ALIGN_LEFT_MID,
  70:Middlewares/lvgl/src/draw/../misc/lv_area.h ****     LV_ALIGN_RIGHT_MID,
  71:Middlewares/lvgl/src/draw/../misc/lv_area.h ****     LV_ALIGN_CENTER,
  72:Middlewares/lvgl/src/draw/../misc/lv_area.h **** 
  73:Middlewares/lvgl/src/draw/../misc/lv_area.h ****     LV_ALIGN_OUT_TOP_LEFT,
  74:Middlewares/lvgl/src/draw/../misc/lv_area.h ****     LV_ALIGN_OUT_TOP_MID,
  75:Middlewares/lvgl/src/draw/../misc/lv_area.h ****     LV_ALIGN_OUT_TOP_RIGHT,
ARM GAS  /tmp/ccViN4Ah.s 			page 19


  76:Middlewares/lvgl/src/draw/../misc/lv_area.h ****     LV_ALIGN_OUT_BOTTOM_LEFT,
  77:Middlewares/lvgl/src/draw/../misc/lv_area.h ****     LV_ALIGN_OUT_BOTTOM_MID,
  78:Middlewares/lvgl/src/draw/../misc/lv_area.h ****     LV_ALIGN_OUT_BOTTOM_RIGHT,
  79:Middlewares/lvgl/src/draw/../misc/lv_area.h ****     LV_ALIGN_OUT_LEFT_TOP,
  80:Middlewares/lvgl/src/draw/../misc/lv_area.h ****     LV_ALIGN_OUT_LEFT_MID,
  81:Middlewares/lvgl/src/draw/../misc/lv_area.h ****     LV_ALIGN_OUT_LEFT_BOTTOM,
  82:Middlewares/lvgl/src/draw/../misc/lv_area.h ****     LV_ALIGN_OUT_RIGHT_TOP,
  83:Middlewares/lvgl/src/draw/../misc/lv_area.h ****     LV_ALIGN_OUT_RIGHT_MID,
  84:Middlewares/lvgl/src/draw/../misc/lv_area.h ****     LV_ALIGN_OUT_RIGHT_BOTTOM,
  85:Middlewares/lvgl/src/draw/../misc/lv_area.h **** };
  86:Middlewares/lvgl/src/draw/../misc/lv_area.h **** typedef uint8_t lv_align_t;
  87:Middlewares/lvgl/src/draw/../misc/lv_area.h **** 
  88:Middlewares/lvgl/src/draw/../misc/lv_area.h **** enum {
  89:Middlewares/lvgl/src/draw/../misc/lv_area.h ****     LV_DIR_NONE     = 0x00,
  90:Middlewares/lvgl/src/draw/../misc/lv_area.h ****     LV_DIR_LEFT     = (1 << 0),
  91:Middlewares/lvgl/src/draw/../misc/lv_area.h ****     LV_DIR_RIGHT    = (1 << 1),
  92:Middlewares/lvgl/src/draw/../misc/lv_area.h ****     LV_DIR_TOP      = (1 << 2),
  93:Middlewares/lvgl/src/draw/../misc/lv_area.h ****     LV_DIR_BOTTOM   = (1 << 3),
  94:Middlewares/lvgl/src/draw/../misc/lv_area.h ****     LV_DIR_HOR      = LV_DIR_LEFT | LV_DIR_RIGHT,
  95:Middlewares/lvgl/src/draw/../misc/lv_area.h ****     LV_DIR_VER      = LV_DIR_TOP | LV_DIR_BOTTOM,
  96:Middlewares/lvgl/src/draw/../misc/lv_area.h ****     LV_DIR_ALL      = LV_DIR_HOR | LV_DIR_VER,
  97:Middlewares/lvgl/src/draw/../misc/lv_area.h **** };
  98:Middlewares/lvgl/src/draw/../misc/lv_area.h **** 
  99:Middlewares/lvgl/src/draw/../misc/lv_area.h **** typedef uint8_t lv_dir_t;
 100:Middlewares/lvgl/src/draw/../misc/lv_area.h **** 
 101:Middlewares/lvgl/src/draw/../misc/lv_area.h **** /**********************
 102:Middlewares/lvgl/src/draw/../misc/lv_area.h ****  * GLOBAL PROTOTYPES
 103:Middlewares/lvgl/src/draw/../misc/lv_area.h ****  **********************/
 104:Middlewares/lvgl/src/draw/../misc/lv_area.h **** 
 105:Middlewares/lvgl/src/draw/../misc/lv_area.h **** /**
 106:Middlewares/lvgl/src/draw/../misc/lv_area.h ****  * Initialize an area
 107:Middlewares/lvgl/src/draw/../misc/lv_area.h ****  * @param area_p pointer to an area
 108:Middlewares/lvgl/src/draw/../misc/lv_area.h ****  * @param x1 left coordinate of the area
 109:Middlewares/lvgl/src/draw/../misc/lv_area.h ****  * @param y1 top coordinate of the area
 110:Middlewares/lvgl/src/draw/../misc/lv_area.h ****  * @param x2 right coordinate of the area
 111:Middlewares/lvgl/src/draw/../misc/lv_area.h ****  * @param y2 bottom coordinate of the area
 112:Middlewares/lvgl/src/draw/../misc/lv_area.h ****  */
 113:Middlewares/lvgl/src/draw/../misc/lv_area.h **** void lv_area_set(lv_area_t * area_p, lv_coord_t x1, lv_coord_t y1, lv_coord_t x2, lv_coord_t y2);
 114:Middlewares/lvgl/src/draw/../misc/lv_area.h **** 
 115:Middlewares/lvgl/src/draw/../misc/lv_area.h **** /**
 116:Middlewares/lvgl/src/draw/../misc/lv_area.h ****  * Copy an area
 117:Middlewares/lvgl/src/draw/../misc/lv_area.h ****  * @param dest pointer to the destination area
 118:Middlewares/lvgl/src/draw/../misc/lv_area.h ****  * @param src pointer to the source area
 119:Middlewares/lvgl/src/draw/../misc/lv_area.h ****  */
 120:Middlewares/lvgl/src/draw/../misc/lv_area.h **** inline static void lv_area_copy(lv_area_t * dest, const lv_area_t * src)
 121:Middlewares/lvgl/src/draw/../misc/lv_area.h **** {
 122:Middlewares/lvgl/src/draw/../misc/lv_area.h ****     dest->x1 = src->x1;
 123:Middlewares/lvgl/src/draw/../misc/lv_area.h ****     dest->y1 = src->y1;
 124:Middlewares/lvgl/src/draw/../misc/lv_area.h ****     dest->x2 = src->x2;
 125:Middlewares/lvgl/src/draw/../misc/lv_area.h ****     dest->y2 = src->y2;
 126:Middlewares/lvgl/src/draw/../misc/lv_area.h **** }
 127:Middlewares/lvgl/src/draw/../misc/lv_area.h **** 
 128:Middlewares/lvgl/src/draw/../misc/lv_area.h **** /**
 129:Middlewares/lvgl/src/draw/../misc/lv_area.h ****  * Get the width of an area
 130:Middlewares/lvgl/src/draw/../misc/lv_area.h ****  * @param area_p pointer to an area
 131:Middlewares/lvgl/src/draw/../misc/lv_area.h ****  * @return the width of the area (if x1 == x2 -> width = 1)
 132:Middlewares/lvgl/src/draw/../misc/lv_area.h ****  */
ARM GAS  /tmp/ccViN4Ah.s 			page 20


 133:Middlewares/lvgl/src/draw/../misc/lv_area.h **** static inline lv_coord_t lv_area_get_width(const lv_area_t * area_p)
  57              		.loc 2 133 26 view .LVU3
  58              	.LBB70:
 134:Middlewares/lvgl/src/draw/../misc/lv_area.h **** {
 135:Middlewares/lvgl/src/draw/../misc/lv_area.h ****     return (lv_coord_t)(area_p->x2 - area_p->x1 + 1);
  59              		.loc 2 135 5 view .LVU4
  60              		.loc 2 135 31 is_stmt 0 view .LVU5
  61 0010 8288     		ldrh	r2, [r0, #4]
  62              	.LVL2:
  63              		.loc 2 135 44 view .LVU6
  64 0012 B0F90040 		ldrsh	r4, [r0]
  65 0016 A5B2     		uxth	r5, r4
  66              		.loc 2 135 36 view .LVU7
  67 0018 521B     		subs	r2, r2, r5
  68 001a 92B2     		uxth	r2, r2
  69              		.loc 2 135 49 view .LVU8
  70 001c 0132     		adds	r2, r2, #1
  71              		.loc 2 135 12 view .LVU9
  72 001e 12B2     		sxth	r2, r2
  73 0020 0292     		str	r2, [sp, #8]
  74              	.LVL3:
  75              		.loc 2 135 12 view .LVU10
  76              	.LBE70:
  77              	.LBE69:
 897:Middlewares/lvgl/src/draw/lv_draw_blend.c **** 
 898:Middlewares/lvgl/src/draw/lv_draw_blend.c ****     /*Get the width of the `draw_area` it will be used to go to the next line of the mask*/
 899:Middlewares/lvgl/src/draw/lv_draw_blend.c ****     int32_t draw_area_w = lv_area_get_width(draw_area);
  78              		.loc 1 899 5 is_stmt 1 view .LVU11
  79              	.LBB71:
  80              	.LBI71:
 133:Middlewares/lvgl/src/draw/../misc/lv_area.h **** {
  81              		.loc 2 133 26 view .LVU12
  82              	.LBB72:
  83              		.loc 2 135 5 view .LVU13
  84              		.loc 2 135 31 is_stmt 0 view .LVU14
  85 0022 BD88     		ldrh	r5, [r7, #4]
  86              		.loc 2 135 44 view .LVU15
  87 0024 B7F90020 		ldrsh	r2, [r7]
  88              	.LVL4:
  89              		.loc 2 135 44 view .LVU16
  90 0028 96B2     		uxth	r6, r2
  91              		.loc 2 135 36 view .LVU17
  92 002a AD1B     		subs	r5, r5, r6
  93 002c ADB2     		uxth	r5, r5
  94              		.loc 2 135 49 view .LVU18
  95 002e 0135     		adds	r5, r5, #1
  96              		.loc 2 135 12 view .LVU19
  97 0030 2EB2     		sxth	r6, r5
  98 0032 0396     		str	r6, [sp, #12]
  99              	.LVL5:
 100              		.loc 2 135 12 view .LVU20
 101              	.LBE72:
 102              	.LBE71:
 900:Middlewares/lvgl/src/draw/lv_draw_blend.c **** 
 901:Middlewares/lvgl/src/draw/lv_draw_blend.c ****     /*Get the width of the `mask_area` it will be used to go to the next line*/
 902:Middlewares/lvgl/src/draw/lv_draw_blend.c ****     int32_t map_w = lv_area_get_width(map_area);
 103              		.loc 1 902 5 is_stmt 1 view .LVU21
ARM GAS  /tmp/ccViN4Ah.s 			page 21


 104              	.LBB73:
 105              	.LBI73:
 133:Middlewares/lvgl/src/draw/../misc/lv_area.h **** {
 106              		.loc 2 133 26 view .LVU22
 107              	.LBB74:
 108              		.loc 2 135 5 view .LVU23
 109              		.loc 2 135 31 is_stmt 0 view .LVU24
 110 0034 9D88     		ldrh	r5, [r3, #4]
 111              		.loc 2 135 44 view .LVU25
 112 0036 B3F900C0 		ldrsh	ip, [r3]
 113 003a 1FFA8CF6 		uxth	r6, ip
 114              		.loc 2 135 36 view .LVU26
 115 003e AD1B     		subs	r5, r5, r6
 116 0040 ADB2     		uxth	r5, r5
 117              		.loc 2 135 49 view .LVU27
 118 0042 0135     		adds	r5, r5, #1
 119              		.loc 2 135 12 view .LVU28
 120 0044 2EB2     		sxth	r6, r5
 121 0046 0196     		str	r6, [sp, #4]
 122              	.LVL6:
 123              		.loc 2 135 12 view .LVU29
 124              	.LBE74:
 125              	.LBE73:
 903:Middlewares/lvgl/src/draw/lv_draw_blend.c **** 
 904:Middlewares/lvgl/src/draw/lv_draw_blend.c ****     /*Create a temp. disp_buf which always point to current line to draw*/
 905:Middlewares/lvgl/src/draw/lv_draw_blend.c ****     lv_color_t * disp_buf_tmp = disp_buf + disp_w * draw_area->y1;
 126              		.loc 1 905 5 is_stmt 1 view .LVU30
 127              		.loc 1 905 62 is_stmt 0 view .LVU31
 128 0048 B7F902B0 		ldrsh	fp, [r7, #2]
 129              		.loc 1 905 51 view .LVU32
 130 004c 029D     		ldr	r5, [sp, #8]
 131 004e 05FB0BF8 		mul	r8, r5, fp
 132              		.loc 1 905 18 view .LVU33
 133 0052 01EB4808 		add	r8, r1, r8, lsl #1
 134              	.LVL7:
 906:Middlewares/lvgl/src/draw/lv_draw_blend.c **** 
 907:Middlewares/lvgl/src/draw/lv_draw_blend.c ****     /*Create a temp. map_buf which always point to current line to draw*/
 908:Middlewares/lvgl/src/draw/lv_draw_blend.c ****     const lv_color_t * map_buf_tmp = map_buf + map_w * (draw_area->y1 - (map_area->y1 - disp_area->
 135              		.loc 1 908 5 is_stmt 1 view .LVU34
 136              		.loc 1 908 82 is_stmt 0 view .LVU35
 137 0056 B3F90250 		ldrsh	r5, [r3, #2]
 138              		.loc 1 908 98 view .LVU36
 139 005a B0F90230 		ldrsh	r3, [r0, #2]
 140              	.LVL8:
 141              		.loc 1 908 87 view .LVU37
 142 005e ED1A     		subs	r5, r5, r3
 143              		.loc 1 908 71 view .LVU38
 144 0060 ABEB0505 		sub	r5, fp, r5
 145              		.loc 1 908 54 view .LVU39
 146 0064 06FB05F5 		mul	r5, r6, r5
 147              		.loc 1 908 24 view .LVU40
 148 0068 0E9E     		ldr	r6, [sp, #56]
 149              	.LVL9:
 150              		.loc 1 908 24 view .LVU41
 151 006a 06EB4505 		add	r5, r6, r5, lsl #1
 152              	.LVL10:
 909:Middlewares/lvgl/src/draw/lv_draw_blend.c **** 
ARM GAS  /tmp/ccViN4Ah.s 			page 22


 910:Middlewares/lvgl/src/draw/lv_draw_blend.c ****     lv_color_t (*blend_fp)(lv_color_t, lv_color_t, lv_opa_t);
 153              		.loc 1 910 5 is_stmt 1 view .LVU42
 911:Middlewares/lvgl/src/draw/lv_draw_blend.c ****     switch(mode) {
 154              		.loc 1 911 5 view .LVU43
 155 006e BEF1010F 		cmp	lr, #1
 156 0072 0ED0     		beq	.L16
 157 0074 BEF1020F 		cmp	lr, #2
 158 0078 65D1     		bne	.L1
 912:Middlewares/lvgl/src/draw/lv_draw_blend.c ****         case LV_BLEND_MODE_ADDITIVE:
 913:Middlewares/lvgl/src/draw/lv_draw_blend.c ****             blend_fp = color_blend_true_color_additive;
 914:Middlewares/lvgl/src/draw/lv_draw_blend.c ****             break;
 915:Middlewares/lvgl/src/draw/lv_draw_blend.c ****         case LV_BLEND_MODE_SUBTRACTIVE:
 916:Middlewares/lvgl/src/draw/lv_draw_blend.c ****             blend_fp = color_blend_true_color_subtractive;
 159              		.loc 1 916 22 is_stmt 0 view .LVU44
 160 007a 344B     		ldr	r3, .L22
 161 007c 0093     		str	r3, [sp]
 162              	.L2:
 163              	.LVL11:
 917:Middlewares/lvgl/src/draw/lv_draw_blend.c ****             break;
 918:Middlewares/lvgl/src/draw/lv_draw_blend.c ****         default:
 919:Middlewares/lvgl/src/draw/lv_draw_blend.c ****             LV_LOG_WARN("fill_blended: unsupported blend mode");
 920:Middlewares/lvgl/src/draw/lv_draw_blend.c ****             return;
 921:Middlewares/lvgl/src/draw/lv_draw_blend.c ****     }
 922:Middlewares/lvgl/src/draw/lv_draw_blend.c **** 
 923:Middlewares/lvgl/src/draw/lv_draw_blend.c ****     int32_t x;
 164              		.loc 1 923 5 is_stmt 1 view .LVU45
 924:Middlewares/lvgl/src/draw/lv_draw_blend.c ****     int32_t y;
 165              		.loc 1 924 5 view .LVU46
 925:Middlewares/lvgl/src/draw/lv_draw_blend.c **** 
 926:Middlewares/lvgl/src/draw/lv_draw_blend.c ****     /*Simple fill (maybe with opacity), no masking*/
 927:Middlewares/lvgl/src/draw/lv_draw_blend.c ****     if(mask_res == LV_DRAW_MASK_RES_FULL_COVER) {
 166              		.loc 1 927 5 view .LVU47
 167              		.loc 1 927 7 is_stmt 0 view .LVU48
 168 007e 9DF84430 		ldrb	r3, [sp, #68]	@ zero_extendqisi2
 169 0082 012B     		cmp	r3, #1
 170 0084 08D0     		beq	.L19
 171              	.LBB75:
 928:Middlewares/lvgl/src/draw/lv_draw_blend.c ****         /*Go to the first px of the row*/
 929:Middlewares/lvgl/src/draw/lv_draw_blend.c ****         map_buf_tmp += (draw_area->x1 - (map_area->x1 - disp_area->x1));
 930:Middlewares/lvgl/src/draw/lv_draw_blend.c **** 
 931:Middlewares/lvgl/src/draw/lv_draw_blend.c ****         /*The map will be indexed from `draw_area->x1` so compensate it.*/
 932:Middlewares/lvgl/src/draw/lv_draw_blend.c ****         map_buf_tmp -= draw_area->x1;
 933:Middlewares/lvgl/src/draw/lv_draw_blend.c **** 
 934:Middlewares/lvgl/src/draw/lv_draw_blend.c ****         for(y = draw_area->y1; y <= draw_area->y2; y++) {
 935:Middlewares/lvgl/src/draw/lv_draw_blend.c ****             for(x = draw_area->x1; x <= draw_area->x2; x++) {
 936:Middlewares/lvgl/src/draw/lv_draw_blend.c **** #if LV_COLOR_DEPTH == 32
 937:Middlewares/lvgl/src/draw/lv_draw_blend.c ****                 if(map_buf_tmp[x].full != 0xff000000) {
 938:Middlewares/lvgl/src/draw/lv_draw_blend.c **** #else
 939:Middlewares/lvgl/src/draw/lv_draw_blend.c ****                 if(map_buf_tmp[x].full != 0) {
 940:Middlewares/lvgl/src/draw/lv_draw_blend.c **** #endif
 941:Middlewares/lvgl/src/draw/lv_draw_blend.c ****                     disp_buf_tmp[x] = blend_fp(map_buf_tmp[x], disp_buf_tmp[x], opa);
 942:Middlewares/lvgl/src/draw/lv_draw_blend.c ****                 }
 943:Middlewares/lvgl/src/draw/lv_draw_blend.c ****             }
 944:Middlewares/lvgl/src/draw/lv_draw_blend.c ****             disp_buf_tmp += disp_w;
 945:Middlewares/lvgl/src/draw/lv_draw_blend.c ****             map_buf_tmp += map_w;
 946:Middlewares/lvgl/src/draw/lv_draw_blend.c ****         }
 947:Middlewares/lvgl/src/draw/lv_draw_blend.c ****     }
ARM GAS  /tmp/ccViN4Ah.s 			page 23


 948:Middlewares/lvgl/src/draw/lv_draw_blend.c ****     /*Masked*/
 949:Middlewares/lvgl/src/draw/lv_draw_blend.c ****     else {
 950:Middlewares/lvgl/src/draw/lv_draw_blend.c ****         /*The mask is relative to the clipped area.
 951:Middlewares/lvgl/src/draw/lv_draw_blend.c ****          *In the cycles below mask will be indexed from `draw_area.x1`
 952:Middlewares/lvgl/src/draw/lv_draw_blend.c ****          *but it corresponds to zero index. So prepare `mask_tmp` accordingly.*/
 953:Middlewares/lvgl/src/draw/lv_draw_blend.c ****         const lv_opa_t * mask_tmp = mask - draw_area->x1;
 172              		.loc 1 953 9 is_stmt 1 view .LVU49
 173              		.loc 1 953 26 is_stmt 0 view .LVU50
 174 0086 109B     		ldr	r3, [sp, #64]
 175 0088 A3EB0209 		sub	r9, r3, r2
 176              	.LVL12:
 954:Middlewares/lvgl/src/draw/lv_draw_blend.c **** 
 955:Middlewares/lvgl/src/draw/lv_draw_blend.c ****         map_buf_tmp -= draw_area->x1;
 177              		.loc 1 955 9 is_stmt 1 view .LVU51
 178              		.loc 1 955 21 is_stmt 0 view .LVU52
 179 008c A5EB4206 		sub	r6, r5, r2, lsl #1
 180              	.LVL13:
 956:Middlewares/lvgl/src/draw/lv_draw_blend.c ****         for(y = draw_area->y1; y <= draw_area->y2; y++) {
 181              		.loc 1 956 9 is_stmt 1 view .LVU53
 182              		.loc 1 956 9 is_stmt 0 view .LVU54
 183 0090 52E0     		b	.L10
 184              	.LVL14:
 185              	.L16:
 186              		.loc 1 956 9 view .LVU55
 187              	.LBE75:
 911:Middlewares/lvgl/src/draw/lv_draw_blend.c ****         case LV_BLEND_MODE_ADDITIVE:
 188              		.loc 1 911 5 view .LVU56
 189 0092 2F4B     		ldr	r3, .L22+4
 190 0094 0093     		str	r3, [sp]
 191 0096 F2E7     		b	.L2
 192              	.LVL15:
 193              	.L19:
 929:Middlewares/lvgl/src/draw/lv_draw_blend.c **** 
 194              		.loc 1 929 9 is_stmt 1 view .LVU57
 932:Middlewares/lvgl/src/draw/lv_draw_blend.c **** 
 195              		.loc 1 932 9 view .LVU58
 932:Middlewares/lvgl/src/draw/lv_draw_blend.c **** 
 196              		.loc 1 932 21 is_stmt 0 view .LVU59
 197 0098 A4EB0C04 		sub	r4, r4, ip
 198 009c 05EB4405 		add	r5, r5, r4, lsl #1
 199              	.LVL16:
 934:Middlewares/lvgl/src/draw/lv_draw_blend.c ****             for(x = draw_area->x1; x <= draw_area->x2; x++) {
 200              		.loc 1 934 9 is_stmt 1 view .LVU60
 934:Middlewares/lvgl/src/draw/lv_draw_blend.c ****             for(x = draw_area->x1; x <= draw_area->x2; x++) {
 201              		.loc 1 934 9 is_stmt 0 view .LVU61
 202 00a0 009E     		ldr	r6, [sp]
 203 00a2 DDF80890 		ldr	r9, [sp, #8]
 204 00a6 18E0     		b	.L5
 205              	.LVL17:
 206              	.L7:
 935:Middlewares/lvgl/src/draw/lv_draw_blend.c **** #if LV_COLOR_DEPTH == 32
 207              		.loc 1 935 56 is_stmt 1 discriminator 2 view .LVU62
 935:Middlewares/lvgl/src/draw/lv_draw_blend.c **** #if LV_COLOR_DEPTH == 32
 208              		.loc 1 935 57 is_stmt 0 discriminator 2 view .LVU63
 209 00a8 0134     		adds	r4, r4, #1
 210              	.LVL18:
 211              	.L6:
ARM GAS  /tmp/ccViN4Ah.s 			page 24


 935:Middlewares/lvgl/src/draw/lv_draw_blend.c **** #if LV_COLOR_DEPTH == 32
 212              		.loc 1 935 36 is_stmt 1 discriminator 1 view .LVU64
 935:Middlewares/lvgl/src/draw/lv_draw_blend.c **** #if LV_COLOR_DEPTH == 32
 213              		.loc 1 935 50 is_stmt 0 discriminator 1 view .LVU65
 214 00aa B7F90430 		ldrsh	r3, [r7, #4]
 935:Middlewares/lvgl/src/draw/lv_draw_blend.c **** #if LV_COLOR_DEPTH == 32
 215              		.loc 1 935 13 discriminator 1 view .LVU66
 216 00ae A342     		cmp	r3, r4
 217 00b0 0CDB     		blt	.L20
 939:Middlewares/lvgl/src/draw/lv_draw_blend.c **** #endif
 218              		.loc 1 939 17 is_stmt 1 view .LVU67
 939:Middlewares/lvgl/src/draw/lv_draw_blend.c **** #endif
 219              		.loc 1 939 34 is_stmt 0 view .LVU68
 220 00b2 35F81430 		ldrh	r3, [r5, r4, lsl #1]
 939:Middlewares/lvgl/src/draw/lv_draw_blend.c **** #endif
 221              		.loc 1 939 19 view .LVU69
 222 00b6 002B     		cmp	r3, #0
 223 00b8 F6D0     		beq	.L7
 941:Middlewares/lvgl/src/draw/lv_draw_blend.c ****                 }
 224              		.loc 1 941 21 is_stmt 1 view .LVU70
 941:Middlewares/lvgl/src/draw/lv_draw_blend.c ****                 }
 225              		.loc 1 941 39 is_stmt 0 view .LVU71
 226 00ba 5246     		mov	r2, r10
 227 00bc 38F81410 		ldrh	r1, [r8, r4, lsl #1]
 228 00c0 35F81400 		ldrh	r0, [r5, r4, lsl #1]
 229 00c4 B047     		blx	r6
 230              	.LVL19:
 231 00c6 28F81400 		strh	r0, [r8, r4, lsl #1]	@ movhi
 232 00ca EDE7     		b	.L7
 233              	.L20:
 944:Middlewares/lvgl/src/draw/lv_draw_blend.c ****             map_buf_tmp += map_w;
 234              		.loc 1 944 13 is_stmt 1 discriminator 2 view .LVU72
 944:Middlewares/lvgl/src/draw/lv_draw_blend.c ****             map_buf_tmp += map_w;
 235              		.loc 1 944 26 is_stmt 0 discriminator 2 view .LVU73
 236 00cc 08EB4908 		add	r8, r8, r9, lsl #1
 237              	.LVL20:
 945:Middlewares/lvgl/src/draw/lv_draw_blend.c ****         }
 238              		.loc 1 945 13 is_stmt 1 discriminator 2 view .LVU74
 945:Middlewares/lvgl/src/draw/lv_draw_blend.c ****         }
 239              		.loc 1 945 25 is_stmt 0 discriminator 2 view .LVU75
 240 00d0 019B     		ldr	r3, [sp, #4]
 241 00d2 05EB4305 		add	r5, r5, r3, lsl #1
 242              	.LVL21:
 934:Middlewares/lvgl/src/draw/lv_draw_blend.c ****             for(x = draw_area->x1; x <= draw_area->x2; x++) {
 243              		.loc 1 934 52 is_stmt 1 discriminator 2 view .LVU76
 934:Middlewares/lvgl/src/draw/lv_draw_blend.c ****             for(x = draw_area->x1; x <= draw_area->x2; x++) {
 244              		.loc 1 934 53 is_stmt 0 discriminator 2 view .LVU77
 245 00d6 0BF1010B 		add	fp, fp, #1
 246              	.LVL22:
 247              	.L5:
 934:Middlewares/lvgl/src/draw/lv_draw_blend.c ****             for(x = draw_area->x1; x <= draw_area->x2; x++) {
 248              		.loc 1 934 32 is_stmt 1 discriminator 1 view .LVU78
 934:Middlewares/lvgl/src/draw/lv_draw_blend.c ****             for(x = draw_area->x1; x <= draw_area->x2; x++) {
 249              		.loc 1 934 46 is_stmt 0 discriminator 1 view .LVU79
 250 00da B7F90630 		ldrsh	r3, [r7, #6]
 934:Middlewares/lvgl/src/draw/lv_draw_blend.c ****             for(x = draw_area->x1; x <= draw_area->x2; x++) {
 251              		.loc 1 934 9 discriminator 1 view .LVU80
ARM GAS  /tmp/ccViN4Ah.s 			page 25


 252 00de 5B45     		cmp	r3, fp
 253 00e0 31DB     		blt	.L1
 935:Middlewares/lvgl/src/draw/lv_draw_blend.c **** #if LV_COLOR_DEPTH == 32
 254              		.loc 1 935 13 is_stmt 1 view .LVU81
 935:Middlewares/lvgl/src/draw/lv_draw_blend.c **** #if LV_COLOR_DEPTH == 32
 255              		.loc 1 935 30 is_stmt 0 view .LVU82
 256 00e2 B7F90040 		ldrsh	r4, [r7]
 257              	.LVL23:
 935:Middlewares/lvgl/src/draw/lv_draw_blend.c **** #if LV_COLOR_DEPTH == 32
 258              		.loc 1 935 13 view .LVU83
 259 00e6 E0E7     		b	.L6
 260              	.LVL24:
 261              	.L17:
 262              	.LBB78:
 263              	.LBB76:
 957:Middlewares/lvgl/src/draw/lv_draw_blend.c ****             for(x = draw_area->x1; x <= draw_area->x2; x++) {
 958:Middlewares/lvgl/src/draw/lv_draw_blend.c ****                 if(mask_tmp[x] == 0) continue;
 959:Middlewares/lvgl/src/draw/lv_draw_blend.c ****                 lv_opa_t opa_tmp = mask_tmp[x] >= LV_OPA_MAX ? opa : ((opa * mask_tmp[x]) >> 8);
 264              		.loc 1 959 26 view .LVU84
 265 00e8 5246     		mov	r2, r10
 266 00ea 0EE0     		b	.L13
 267              	.L12:
 268              		.loc 1 959 26 view .LVU85
 269              	.LBE76:
 957:Middlewares/lvgl/src/draw/lv_draw_blend.c ****             for(x = draw_area->x1; x <= draw_area->x2; x++) {
 270              		.loc 1 957 56 is_stmt 1 discriminator 2 view .LVU86
 957:Middlewares/lvgl/src/draw/lv_draw_blend.c ****             for(x = draw_area->x1; x <= draw_area->x2; x++) {
 271              		.loc 1 957 57 is_stmt 0 discriminator 2 view .LVU87
 272 00ec 0134     		adds	r4, r4, #1
 273              	.LVL25:
 274              	.L11:
 957:Middlewares/lvgl/src/draw/lv_draw_blend.c ****             for(x = draw_area->x1; x <= draw_area->x2; x++) {
 275              		.loc 1 957 36 is_stmt 1 discriminator 1 view .LVU88
 957:Middlewares/lvgl/src/draw/lv_draw_blend.c ****             for(x = draw_area->x1; x <= draw_area->x2; x++) {
 276              		.loc 1 957 50 is_stmt 0 discriminator 1 view .LVU89
 277 00ee B7F90430 		ldrsh	r3, [r7, #4]
 957:Middlewares/lvgl/src/draw/lv_draw_blend.c ****             for(x = draw_area->x1; x <= draw_area->x2; x++) {
 278              		.loc 1 957 13 discriminator 1 view .LVU90
 279 00f2 A342     		cmp	r3, r4
 280 00f4 16DB     		blt	.L21
 281              	.LBB77:
 958:Middlewares/lvgl/src/draw/lv_draw_blend.c ****                 lv_opa_t opa_tmp = mask_tmp[x] >= LV_OPA_MAX ? opa : ((opa * mask_tmp[x]) >> 8);
 282              		.loc 1 958 17 is_stmt 1 view .LVU91
 958:Middlewares/lvgl/src/draw/lv_draw_blend.c ****                 lv_opa_t opa_tmp = mask_tmp[x] >= LV_OPA_MAX ? opa : ((opa * mask_tmp[x]) >> 8);
 283              		.loc 1 958 28 is_stmt 0 view .LVU92
 284 00f6 2546     		mov	r5, r4
 285 00f8 19F80420 		ldrb	r2, [r9, r4]	@ zero_extendqisi2
 958:Middlewares/lvgl/src/draw/lv_draw_blend.c ****                 lv_opa_t opa_tmp = mask_tmp[x] >= LV_OPA_MAX ? opa : ((opa * mask_tmp[x]) >> 8);
 286              		.loc 1 958 19 view .LVU93
 287 00fc 002A     		cmp	r2, #0
 288 00fe F5D0     		beq	.L12
 289              		.loc 1 959 17 is_stmt 1 view .LVU94
 290              		.loc 1 959 26 is_stmt 0 view .LVU95
 291 0100 FC2A     		cmp	r2, #252
 292 0102 F1D8     		bhi	.L17
 293              		.loc 1 959 76 discriminator 1 view .LVU96
 294 0104 02FB0AF2 		mul	r2, r2, r10
ARM GAS  /tmp/ccViN4Ah.s 			page 26


 295              		.loc 1 959 26 discriminator 1 view .LVU97
 296 0108 120A     		lsrs	r2, r2, #8
 297              	.L13:
 298              	.LVL26:
 960:Middlewares/lvgl/src/draw/lv_draw_blend.c **** #if LV_COLOR_DEPTH == 32
 961:Middlewares/lvgl/src/draw/lv_draw_blend.c ****                 if(map_buf_tmp[x].full != 0xff000000) {
 962:Middlewares/lvgl/src/draw/lv_draw_blend.c **** #else
 963:Middlewares/lvgl/src/draw/lv_draw_blend.c ****                 if(map_buf_tmp[x].full != 0) {
 299              		.loc 1 963 17 is_stmt 1 discriminator 4 view .LVU98
 300              		.loc 1 963 34 is_stmt 0 discriminator 4 view .LVU99
 301 010a 36F81530 		ldrh	r3, [r6, r5, lsl #1]
 302              		.loc 1 963 19 discriminator 4 view .LVU100
 303 010e 002B     		cmp	r3, #0
 304 0110 ECD0     		beq	.L12
 964:Middlewares/lvgl/src/draw/lv_draw_blend.c **** #endif
 965:Middlewares/lvgl/src/draw/lv_draw_blend.c ****                     disp_buf_tmp[x] = blend_fp(map_buf_tmp[x], disp_buf_tmp[x], opa_tmp);
 305              		.loc 1 965 21 is_stmt 1 view .LVU101
 306              		.loc 1 965 39 is_stmt 0 view .LVU102
 307 0112 38F81510 		ldrh	r1, [r8, r5, lsl #1]
 308 0116 36F81500 		ldrh	r0, [r6, r5, lsl #1]
 309 011a 009B     		ldr	r3, [sp]
 310 011c 9847     		blx	r3
 311              	.LVL27:
 312              		.loc 1 965 39 view .LVU103
 313 011e 28F81500 		strh	r0, [r8, r5, lsl #1]	@ movhi
 314 0122 E3E7     		b	.L12
 315              	.L21:
 316              		.loc 1 965 39 view .LVU104
 317              	.LBE77:
 966:Middlewares/lvgl/src/draw/lv_draw_blend.c ****                 }
 967:Middlewares/lvgl/src/draw/lv_draw_blend.c **** 
 968:Middlewares/lvgl/src/draw/lv_draw_blend.c ****             }
 969:Middlewares/lvgl/src/draw/lv_draw_blend.c ****             disp_buf_tmp += disp_w;
 318              		.loc 1 969 13 is_stmt 1 discriminator 2 view .LVU105
 319              		.loc 1 969 26 is_stmt 0 discriminator 2 view .LVU106
 320 0124 029B     		ldr	r3, [sp, #8]
 321 0126 08EB4308 		add	r8, r8, r3, lsl #1
 322              	.LVL28:
 970:Middlewares/lvgl/src/draw/lv_draw_blend.c ****             mask_tmp += draw_area_w;
 323              		.loc 1 970 13 is_stmt 1 discriminator 2 view .LVU107
 324              		.loc 1 970 22 is_stmt 0 discriminator 2 view .LVU108
 325 012a 039B     		ldr	r3, [sp, #12]
 326 012c 9944     		add	r9, r9, r3
 327              	.LVL29:
 971:Middlewares/lvgl/src/draw/lv_draw_blend.c ****             map_buf_tmp += map_w;
 328              		.loc 1 971 13 is_stmt 1 discriminator 2 view .LVU109
 329              		.loc 1 971 25 is_stmt 0 discriminator 2 view .LVU110
 330 012e 019B     		ldr	r3, [sp, #4]
 331 0130 06EB4306 		add	r6, r6, r3, lsl #1
 332              	.LVL30:
 956:Middlewares/lvgl/src/draw/lv_draw_blend.c ****             for(x = draw_area->x1; x <= draw_area->x2; x++) {
 333              		.loc 1 956 52 is_stmt 1 discriminator 2 view .LVU111
 956:Middlewares/lvgl/src/draw/lv_draw_blend.c ****             for(x = draw_area->x1; x <= draw_area->x2; x++) {
 334              		.loc 1 956 53 is_stmt 0 discriminator 2 view .LVU112
 335 0134 0BF1010B 		add	fp, fp, #1
 336              	.LVL31:
 337              	.L10:
ARM GAS  /tmp/ccViN4Ah.s 			page 27


 956:Middlewares/lvgl/src/draw/lv_draw_blend.c ****             for(x = draw_area->x1; x <= draw_area->x2; x++) {
 338              		.loc 1 956 32 is_stmt 1 discriminator 1 view .LVU113
 956:Middlewares/lvgl/src/draw/lv_draw_blend.c ****             for(x = draw_area->x1; x <= draw_area->x2; x++) {
 339              		.loc 1 956 46 is_stmt 0 discriminator 1 view .LVU114
 340 0138 B7F90630 		ldrsh	r3, [r7, #6]
 956:Middlewares/lvgl/src/draw/lv_draw_blend.c ****             for(x = draw_area->x1; x <= draw_area->x2; x++) {
 341              		.loc 1 956 9 discriminator 1 view .LVU115
 342 013c 5B45     		cmp	r3, fp
 343 013e 02DB     		blt	.L1
 957:Middlewares/lvgl/src/draw/lv_draw_blend.c ****                 if(mask_tmp[x] == 0) continue;
 344              		.loc 1 957 13 is_stmt 1 view .LVU116
 957:Middlewares/lvgl/src/draw/lv_draw_blend.c ****                 if(mask_tmp[x] == 0) continue;
 345              		.loc 1 957 30 is_stmt 0 view .LVU117
 346 0140 B7F90040 		ldrsh	r4, [r7]
 347              	.LVL32:
 957:Middlewares/lvgl/src/draw/lv_draw_blend.c ****                 if(mask_tmp[x] == 0) continue;
 348              		.loc 1 957 13 view .LVU118
 349 0144 D3E7     		b	.L11
 350              	.LVL33:
 351              	.L1:
 957:Middlewares/lvgl/src/draw/lv_draw_blend.c ****                 if(mask_tmp[x] == 0) continue;
 352              		.loc 1 957 13 view .LVU119
 353              	.LBE78:
 972:Middlewares/lvgl/src/draw/lv_draw_blend.c ****         }
 973:Middlewares/lvgl/src/draw/lv_draw_blend.c ****     }
 974:Middlewares/lvgl/src/draw/lv_draw_blend.c **** }
 354              		.loc 1 974 1 view .LVU120
 355 0146 05B0     		add	sp, sp, #20
 356              	.LCFI2:
 357              		.cfi_def_cfa_offset 36
 358              		@ sp needed
 359 0148 BDE8F08F 		pop	{r4, r5, r6, r7, r8, r9, r10, fp, pc}
 360              	.LVL34:
 361              	.L23:
 362              		.loc 1 974 1 view .LVU121
 363              		.align	2
 364              	.L22:
 365 014c 00000000 		.word	color_blend_true_color_subtractive
 366 0150 00000000 		.word	color_blend_true_color_additive
 367              		.cfi_endproc
 368              	.LFE154:
 370              		.section	.text.fill_set_px,"ax",%progbits
 371              		.align	1
 372              		.syntax unified
 373              		.thumb
 374              		.thumb_func
 375              		.fpu fpv4-sp-d16
 377              	fill_set_px:
 378              	.LVL35:
 379              	.LFB149:
 245:Middlewares/lvgl/src/draw/lv_draw_blend.c **** 
 380              		.loc 1 245 1 is_stmt 1 view -0
 381              		.cfi_startproc
 382              		@ args = 12, pretend = 0, frame = 16
 383              		@ frame_needed = 0, uses_anonymous_args = 0
 245:Middlewares/lvgl/src/draw/lv_draw_blend.c **** 
 384              		.loc 1 245 1 is_stmt 0 view .LVU123
ARM GAS  /tmp/ccViN4Ah.s 			page 28


 385 0000 2DE9F04F 		push	{r4, r5, r6, r7, r8, r9, r10, fp, lr}
 386              	.LCFI3:
 387              		.cfi_def_cfa_offset 36
 388              		.cfi_offset 4, -36
 389              		.cfi_offset 5, -32
 390              		.cfi_offset 6, -28
 391              		.cfi_offset 7, -24
 392              		.cfi_offset 8, -20
 393              		.cfi_offset 9, -16
 394              		.cfi_offset 10, -12
 395              		.cfi_offset 11, -8
 396              		.cfi_offset 14, -4
 397 0004 89B0     		sub	sp, sp, #36
 398              	.LCFI4:
 399              		.cfi_def_cfa_offset 72
 400 0006 0446     		mov	r4, r0
 401 0008 0691     		str	r1, [sp, #24]
 402 000a 1546     		mov	r5, r2
 403 000c 9946     		mov	r9, r3	@ movhi
 404              	.LVL36:
 245:Middlewares/lvgl/src/draw/lv_draw_blend.c **** 
 405              		.loc 1 245 1 view .LVU124
 406 000e 9DF848A0 		ldrb	r10, [sp, #72]	@ zero_extendqisi2
 247:Middlewares/lvgl/src/draw/lv_draw_blend.c **** 
 407              		.loc 1 247 5 is_stmt 1 view .LVU125
 247:Middlewares/lvgl/src/draw/lv_draw_blend.c **** 
 408              		.loc 1 247 24 is_stmt 0 view .LVU126
 409 0012 FFF7FEFF 		bl	_lv_refr_get_disp_refreshing
 410              	.LVL37:
 247:Middlewares/lvgl/src/draw/lv_draw_blend.c **** 
 411              		.loc 1 247 24 view .LVU127
 412 0016 8046     		mov	r8, r0
 413              	.LVL38:
 250:Middlewares/lvgl/src/draw/lv_draw_blend.c **** 
 414              		.loc 1 250 5 is_stmt 1 view .LVU128
 415              	.LBB79:
 416              	.LBI79:
 133:Middlewares/lvgl/src/draw/../misc/lv_area.h **** {
 417              		.loc 2 133 26 view .LVU129
 418              	.LBB80:
 419              		.loc 2 135 5 view .LVU130
 420              		.loc 2 135 31 is_stmt 0 view .LVU131
 421 0018 A788     		ldrh	r7, [r4, #4]
 422              		.loc 2 135 44 view .LVU132
 423 001a 2388     		ldrh	r3, [r4]
 424              		.loc 2 135 36 view .LVU133
 425 001c FF1A     		subs	r7, r7, r3
 426 001e BFB2     		uxth	r7, r7
 427              		.loc 2 135 49 view .LVU134
 428 0020 0137     		adds	r7, r7, #1
 429              		.loc 2 135 12 view .LVU135
 430 0022 3FB2     		sxth	r7, r7
 431              	.LVL39:
 432              		.loc 2 135 12 view .LVU136
 433              	.LBE80:
 434              	.LBE79:
 252:Middlewares/lvgl/src/draw/lv_draw_blend.c ****     int32_t y;
ARM GAS  /tmp/ccViN4Ah.s 			page 29


 435              		.loc 1 252 5 is_stmt 1 view .LVU137
 253:Middlewares/lvgl/src/draw/lv_draw_blend.c **** 
 436              		.loc 1 253 5 view .LVU138
 255:Middlewares/lvgl/src/draw/lv_draw_blend.c ****         for(y = draw_area->y1; y <= draw_area->y2; y++) {
 437              		.loc 1 255 5 view .LVU139
 255:Middlewares/lvgl/src/draw/lv_draw_blend.c ****         for(y = draw_area->y1; y <= draw_area->y2; y++) {
 438              		.loc 1 255 7 is_stmt 0 view .LVU140
 439 0024 9DF85030 		ldrb	r3, [sp, #80]	@ zero_extendqisi2
 440 0028 012B     		cmp	r3, #1
 441 002a 0FD0     		beq	.L37
 442              	.LBB81:
 266:Middlewares/lvgl/src/draw/lv_draw_blend.c **** 
 443              		.loc 1 266 9 is_stmt 1 view .LVU141
 266:Middlewares/lvgl/src/draw/lv_draw_blend.c **** 
 444              		.loc 1 266 53 is_stmt 0 view .LVU142
 445 002c B5F90020 		ldrsh	r2, [r5]
 266:Middlewares/lvgl/src/draw/lv_draw_blend.c **** 
 446              		.loc 1 266 26 view .LVU143
 447 0030 139E     		ldr	r6, [sp, #76]
 448 0032 B61A     		subs	r6, r6, r2
 449              	.LVL40:
 269:Middlewares/lvgl/src/draw/lv_draw_blend.c **** 
 450              		.loc 1 269 9 is_stmt 1 view .LVU144
 451              	.LBB82:
 452              	.LBI82:
 133:Middlewares/lvgl/src/draw/../misc/lv_area.h **** {
 453              		.loc 2 133 26 view .LVU145
 454              	.LBB83:
 455              		.loc 2 135 5 view .LVU146
 456              		.loc 2 135 31 is_stmt 0 view .LVU147
 457 0034 AB88     		ldrh	r3, [r5, #4]
 458              		.loc 2 135 44 view .LVU148
 459 0036 92B2     		uxth	r2, r2
 460              		.loc 2 135 36 view .LVU149
 461 0038 9B1A     		subs	r3, r3, r2
 462 003a 9BB2     		uxth	r3, r3
 463              		.loc 2 135 49 view .LVU150
 464 003c 0133     		adds	r3, r3, #1
 465              		.loc 2 135 12 view .LVU151
 466 003e 1BB2     		sxth	r3, r3
 467 0040 0793     		str	r3, [sp, #28]
 468              	.LVL41:
 469              		.loc 2 135 12 view .LVU152
 470              	.LBE83:
 471              	.LBE82:
 271:Middlewares/lvgl/src/draw/lv_draw_blend.c ****             for(x = draw_area->x1; x <= draw_area->x2; x++) {
 472              		.loc 1 271 9 is_stmt 1 view .LVU153
 271:Middlewares/lvgl/src/draw/lv_draw_blend.c ****             for(x = draw_area->x1; x <= draw_area->x2; x++) {
 473              		.loc 1 271 26 is_stmt 0 view .LVU154
 474 0042 B5F90230 		ldrsh	r3, [r5, #2]
 475              	.LVL42:
 271:Middlewares/lvgl/src/draw/lv_draw_blend.c ****             for(x = draw_area->x1; x <= draw_area->x2; x++) {
 476              		.loc 1 271 26 view .LVU155
 477 0046 9B46     		mov	fp, r3
 478 0048 0597     		str	r7, [sp, #20]
 271:Middlewares/lvgl/src/draw/lv_draw_blend.c ****             for(x = draw_area->x1; x <= draw_area->x2; x++) {
 479              		.loc 1 271 9 view .LVU156
ARM GAS  /tmp/ccViN4Ah.s 			page 30


 480 004a 41E0     		b	.L31
 481              	.LVL43:
 482              	.L37:
 271:Middlewares/lvgl/src/draw/lv_draw_blend.c ****             for(x = draw_area->x1; x <= draw_area->x2; x++) {
 483              		.loc 1 271 9 view .LVU157
 484              	.LBE81:
 256:Middlewares/lvgl/src/draw/lv_draw_blend.c ****             for(x = draw_area->x1; x <= draw_area->x2; x++) {
 485              		.loc 1 256 9 is_stmt 1 view .LVU158
 256:Middlewares/lvgl/src/draw/lv_draw_blend.c ****             for(x = draw_area->x1; x <= draw_area->x2; x++) {
 486              		.loc 1 256 26 is_stmt 0 view .LVU159
 487 004c B5F902B0 		ldrsh	fp, [r5, #2]
 488              	.LVL44:
 256:Middlewares/lvgl/src/draw/lv_draw_blend.c ****             for(x = draw_area->x1; x <= draw_area->x2; x++) {
 489              		.loc 1 256 26 view .LVU160
 490 0050 CDF814B0 		str	fp, [sp, #20]
 491 0054 DDF818B0 		ldr	fp, [sp, #24]
 492              	.LVL45:
 256:Middlewares/lvgl/src/draw/lv_draw_blend.c ****             for(x = draw_area->x1; x <= draw_area->x2; x++) {
 493              		.loc 1 256 9 view .LVU161
 494 0058 15E0     		b	.L26
 495              	.LVL46:
 496              	.L28:
 258:Middlewares/lvgl/src/draw/lv_draw_blend.c ****             }
 497              		.loc 1 258 17 is_stmt 1 discriminator 3 view .LVU162
 258:Middlewares/lvgl/src/draw/lv_draw_blend.c ****             }
 498              		.loc 1 258 21 is_stmt 0 discriminator 3 view .LVU163
 499 005a D8F80000 		ldr	r0, [r8]
 258:Middlewares/lvgl/src/draw/lv_draw_blend.c ****             }
 500              		.loc 1 258 29 discriminator 3 view .LVU164
 501 005e 4669     		ldr	r6, [r0, #20]
 258:Middlewares/lvgl/src/draw/lv_draw_blend.c ****             }
 502              		.loc 1 258 17 discriminator 3 view .LVU165
 503 0060 CDF808A0 		str	r10, [sp, #8]
 504 0064 ADF80490 		strh	r9, [sp, #4]	@ movhi
 505 0068 BDF91430 		ldrsh	r3, [sp, #20]
 506 006c 0093     		str	r3, [sp]
 507 006e 23B2     		sxth	r3, r4
 508 0070 3A46     		mov	r2, r7
 509 0072 5946     		mov	r1, fp
 510 0074 B047     		blx	r6
 511              	.LVL47:
 257:Middlewares/lvgl/src/draw/lv_draw_blend.c ****                 disp->driver->set_px_cb(disp->driver, (void *)disp_buf, disp_w, x, y, color, opa);
 512              		.loc 1 257 56 is_stmt 1 discriminator 3 view .LVU166
 257:Middlewares/lvgl/src/draw/lv_draw_blend.c ****                 disp->driver->set_px_cb(disp->driver, (void *)disp_buf, disp_w, x, y, color, opa);
 513              		.loc 1 257 57 is_stmt 0 discriminator 3 view .LVU167
 514 0076 0134     		adds	r4, r4, #1
 515              	.LVL48:
 516              	.L27:
 257:Middlewares/lvgl/src/draw/lv_draw_blend.c ****                 disp->driver->set_px_cb(disp->driver, (void *)disp_buf, disp_w, x, y, color, opa);
 517              		.loc 1 257 36 is_stmt 1 discriminator 1 view .LVU168
 257:Middlewares/lvgl/src/draw/lv_draw_blend.c ****                 disp->driver->set_px_cb(disp->driver, (void *)disp_buf, disp_w, x, y, color, opa);
 518              		.loc 1 257 50 is_stmt 0 discriminator 1 view .LVU169
 519 0078 B5F90430 		ldrsh	r3, [r5, #4]
 257:Middlewares/lvgl/src/draw/lv_draw_blend.c ****                 disp->driver->set_px_cb(disp->driver, (void *)disp_buf, disp_w, x, y, color, opa);
 520              		.loc 1 257 13 discriminator 1 view .LVU170
 521 007c A342     		cmp	r3, r4
 522 007e ECDA     		bge	.L28
ARM GAS  /tmp/ccViN4Ah.s 			page 31


 256:Middlewares/lvgl/src/draw/lv_draw_blend.c ****             for(x = draw_area->x1; x <= draw_area->x2; x++) {
 523              		.loc 1 256 52 is_stmt 1 discriminator 2 view .LVU171
 256:Middlewares/lvgl/src/draw/lv_draw_blend.c ****             for(x = draw_area->x1; x <= draw_area->x2; x++) {
 524              		.loc 1 256 53 is_stmt 0 discriminator 2 view .LVU172
 525 0080 059B     		ldr	r3, [sp, #20]
 526 0082 0133     		adds	r3, r3, #1
 527 0084 0593     		str	r3, [sp, #20]
 528              	.LVL49:
 529              	.L26:
 256:Middlewares/lvgl/src/draw/lv_draw_blend.c ****             for(x = draw_area->x1; x <= draw_area->x2; x++) {
 530              		.loc 1 256 32 is_stmt 1 discriminator 1 view .LVU173
 256:Middlewares/lvgl/src/draw/lv_draw_blend.c ****             for(x = draw_area->x1; x <= draw_area->x2; x++) {
 531              		.loc 1 256 46 is_stmt 0 discriminator 1 view .LVU174
 532 0086 B5F90630 		ldrsh	r3, [r5, #6]
 256:Middlewares/lvgl/src/draw/lv_draw_blend.c ****             for(x = draw_area->x1; x <= draw_area->x2; x++) {
 533              		.loc 1 256 9 discriminator 1 view .LVU175
 534 008a 059A     		ldr	r2, [sp, #20]
 535 008c 9342     		cmp	r3, r2
 536 008e 26DB     		blt	.L24
 257:Middlewares/lvgl/src/draw/lv_draw_blend.c ****                 disp->driver->set_px_cb(disp->driver, (void *)disp_buf, disp_w, x, y, color, opa);
 537              		.loc 1 257 13 is_stmt 1 view .LVU176
 257:Middlewares/lvgl/src/draw/lv_draw_blend.c ****                 disp->driver->set_px_cb(disp->driver, (void *)disp_buf, disp_w, x, y, color, opa);
 538              		.loc 1 257 30 is_stmt 0 view .LVU177
 539 0090 B5F90040 		ldrsh	r4, [r5]
 540              	.LVL50:
 257:Middlewares/lvgl/src/draw/lv_draw_blend.c ****                 disp->driver->set_px_cb(disp->driver, (void *)disp_buf, disp_w, x, y, color, opa);
 541              		.loc 1 257 13 view .LVU178
 542 0094 F0E7     		b	.L27
 543              	.LVL51:
 544              	.L33:
 545              	.LBB84:
 272:Middlewares/lvgl/src/draw/lv_draw_blend.c ****                 if(mask_tmp[x]) {
 546              		.loc 1 272 56 is_stmt 1 discriminator 2 view .LVU179
 272:Middlewares/lvgl/src/draw/lv_draw_blend.c ****                 if(mask_tmp[x]) {
 547              		.loc 1 272 57 is_stmt 0 discriminator 2 view .LVU180
 548 0096 0134     		adds	r4, r4, #1
 549              	.LVL52:
 550              	.L32:
 272:Middlewares/lvgl/src/draw/lv_draw_blend.c ****                 if(mask_tmp[x]) {
 551              		.loc 1 272 36 is_stmt 1 discriminator 1 view .LVU181
 272:Middlewares/lvgl/src/draw/lv_draw_blend.c ****                 if(mask_tmp[x]) {
 552              		.loc 1 272 50 is_stmt 0 discriminator 1 view .LVU182
 553 0098 B5F90430 		ldrsh	r3, [r5, #4]
 272:Middlewares/lvgl/src/draw/lv_draw_blend.c ****                 if(mask_tmp[x]) {
 554              		.loc 1 272 13 discriminator 1 view .LVU183
 555 009c A342     		cmp	r3, r4
 556 009e 13DB     		blt	.L38
 273:Middlewares/lvgl/src/draw/lv_draw_blend.c ****                     disp->driver->set_px_cb(disp->driver, (void *)disp_buf, disp_w, x, y, color,
 557              		.loc 1 273 17 is_stmt 1 view .LVU184
 273:Middlewares/lvgl/src/draw/lv_draw_blend.c ****                     disp->driver->set_px_cb(disp->driver, (void *)disp_buf, disp_w, x, y, color,
 558              		.loc 1 273 28 is_stmt 0 view .LVU185
 559 00a0 335D     		ldrb	r3, [r6, r4]	@ zero_extendqisi2
 273:Middlewares/lvgl/src/draw/lv_draw_blend.c ****                     disp->driver->set_px_cb(disp->driver, (void *)disp_buf, disp_w, x, y, color,
 560              		.loc 1 273 19 view .LVU186
 561 00a2 002B     		cmp	r3, #0
 562 00a4 F7D0     		beq	.L33
 274:Middlewares/lvgl/src/draw/lv_draw_blend.c ****                                            (uint32_t)((uint32_t)opa * mask_tmp[x]) >> 8);
ARM GAS  /tmp/ccViN4Ah.s 			page 32


 563              		.loc 1 274 21 is_stmt 1 view .LVU187
 274:Middlewares/lvgl/src/draw/lv_draw_blend.c ****                                            (uint32_t)((uint32_t)opa * mask_tmp[x]) >> 8);
 564              		.loc 1 274 25 is_stmt 0 view .LVU188
 565 00a6 D8F80000 		ldr	r0, [r8]
 274:Middlewares/lvgl/src/draw/lv_draw_blend.c ****                                            (uint32_t)((uint32_t)opa * mask_tmp[x]) >> 8);
 566              		.loc 1 274 33 view .LVU189
 567 00aa 4769     		ldr	r7, [r0, #20]
 275:Middlewares/lvgl/src/draw/lv_draw_blend.c ****                 }
 568              		.loc 1 275 44 view .LVU190
 569 00ac 03FB0AF3 		mul	r3, r3, r10
 274:Middlewares/lvgl/src/draw/lv_draw_blend.c ****                                            (uint32_t)((uint32_t)opa * mask_tmp[x]) >> 8);
 570              		.loc 1 274 21 view .LVU191
 571 00b0 1B0A     		lsrs	r3, r3, #8
 572 00b2 0293     		str	r3, [sp, #8]
 573 00b4 ADF80490 		strh	r9, [sp, #4]	@ movhi
 574 00b8 0FFA8BF3 		sxth	r3, fp
 575 00bc 0093     		str	r3, [sp]
 576 00be 23B2     		sxth	r3, r4
 577 00c0 059A     		ldr	r2, [sp, #20]
 578 00c2 0699     		ldr	r1, [sp, #24]
 579 00c4 B847     		blx	r7
 580              	.LVL53:
 581 00c6 E6E7     		b	.L33
 582              	.L38:
 278:Middlewares/lvgl/src/draw/lv_draw_blend.c ****         }
 583              		.loc 1 278 13 is_stmt 1 discriminator 2 view .LVU192
 278:Middlewares/lvgl/src/draw/lv_draw_blend.c ****         }
 584              		.loc 1 278 22 is_stmt 0 discriminator 2 view .LVU193
 585 00c8 079B     		ldr	r3, [sp, #28]
 586 00ca 1E44     		add	r6, r6, r3
 587              	.LVL54:
 271:Middlewares/lvgl/src/draw/lv_draw_blend.c ****             for(x = draw_area->x1; x <= draw_area->x2; x++) {
 588              		.loc 1 271 52 is_stmt 1 discriminator 2 view .LVU194
 271:Middlewares/lvgl/src/draw/lv_draw_blend.c ****             for(x = draw_area->x1; x <= draw_area->x2; x++) {
 589              		.loc 1 271 53 is_stmt 0 discriminator 2 view .LVU195
 590 00cc 0BF1010B 		add	fp, fp, #1
 591              	.LVL55:
 592              	.L31:
 271:Middlewares/lvgl/src/draw/lv_draw_blend.c ****             for(x = draw_area->x1; x <= draw_area->x2; x++) {
 593              		.loc 1 271 32 is_stmt 1 discriminator 1 view .LVU196
 271:Middlewares/lvgl/src/draw/lv_draw_blend.c ****             for(x = draw_area->x1; x <= draw_area->x2; x++) {
 594              		.loc 1 271 46 is_stmt 0 discriminator 1 view .LVU197
 595 00d0 B5F90630 		ldrsh	r3, [r5, #6]
 271:Middlewares/lvgl/src/draw/lv_draw_blend.c ****             for(x = draw_area->x1; x <= draw_area->x2; x++) {
 596              		.loc 1 271 9 discriminator 1 view .LVU198
 597 00d4 5B45     		cmp	r3, fp
 598 00d6 02DB     		blt	.L24
 272:Middlewares/lvgl/src/draw/lv_draw_blend.c ****                 if(mask_tmp[x]) {
 599              		.loc 1 272 13 is_stmt 1 view .LVU199
 272:Middlewares/lvgl/src/draw/lv_draw_blend.c ****                 if(mask_tmp[x]) {
 600              		.loc 1 272 30 is_stmt 0 view .LVU200
 601 00d8 B5F90040 		ldrsh	r4, [r5]
 602              	.LVL56:
 272:Middlewares/lvgl/src/draw/lv_draw_blend.c ****                 if(mask_tmp[x]) {
 603              		.loc 1 272 13 view .LVU201
 604 00dc DCE7     		b	.L32
 605              	.LVL57:
ARM GAS  /tmp/ccViN4Ah.s 			page 33


 606              	.L24:
 272:Middlewares/lvgl/src/draw/lv_draw_blend.c ****                 if(mask_tmp[x]) {
 607              		.loc 1 272 13 view .LVU202
 608              	.LBE84:
 281:Middlewares/lvgl/src/draw/lv_draw_blend.c **** 
 609              		.loc 1 281 1 view .LVU203
 610 00de 09B0     		add	sp, sp, #36
 611              	.LCFI5:
 612              		.cfi_def_cfa_offset 36
 613              		@ sp needed
 614 00e0 BDE8F08F 		pop	{r4, r5, r6, r7, r8, r9, r10, fp, pc}
 281:Middlewares/lvgl/src/draw/lv_draw_blend.c **** 
 615              		.loc 1 281 1 view .LVU204
 616              		.cfi_endproc
 617              	.LFE149:
 619              		.section	.text.map_set_px,"ax",%progbits
 620              		.align	1
 621              		.syntax unified
 622              		.thumb
 623              		.thumb_func
 624              		.fpu fpv4-sp-d16
 626              	map_set_px:
 627              	.LVL58:
 628              	.LFB152:
 596:Middlewares/lvgl/src/draw/lv_draw_blend.c ****     lv_disp_t * disp = _lv_refr_get_disp_refreshing();
 629              		.loc 1 596 1 is_stmt 1 view -0
 630              		.cfi_startproc
 631              		@ args = 16, pretend = 0, frame = 24
 632              		@ frame_needed = 0, uses_anonymous_args = 0
 596:Middlewares/lvgl/src/draw/lv_draw_blend.c ****     lv_disp_t * disp = _lv_refr_get_disp_refreshing();
 633              		.loc 1 596 1 is_stmt 0 view .LVU206
 634 0000 2DE9F04F 		push	{r4, r5, r6, r7, r8, r9, r10, fp, lr}
 635              	.LCFI6:
 636              		.cfi_def_cfa_offset 36
 637              		.cfi_offset 4, -36
 638              		.cfi_offset 5, -32
 639              		.cfi_offset 6, -28
 640              		.cfi_offset 7, -24
 641              		.cfi_offset 8, -20
 642              		.cfi_offset 9, -16
 643              		.cfi_offset 10, -12
 644              		.cfi_offset 11, -8
 645              		.cfi_offset 14, -4
 646 0004 8BB0     		sub	sp, sp, #44
 647              	.LCFI7:
 648              		.cfi_def_cfa_offset 80
 649 0006 0446     		mov	r4, r0
 650 0008 0691     		str	r1, [sp, #24]
 651 000a 1546     		mov	r5, r2
 652 000c 1E46     		mov	r6, r3
 653 000e 9DF854A0 		ldrb	r10, [sp, #84]	@ zero_extendqisi2
 597:Middlewares/lvgl/src/draw/lv_draw_blend.c **** 
 654              		.loc 1 597 5 is_stmt 1 view .LVU207
 597:Middlewares/lvgl/src/draw/lv_draw_blend.c **** 
 655              		.loc 1 597 24 is_stmt 0 view .LVU208
 656 0012 FFF7FEFF 		bl	_lv_refr_get_disp_refreshing
 657              	.LVL59:
ARM GAS  /tmp/ccViN4Ah.s 			page 34


 597:Middlewares/lvgl/src/draw/lv_draw_blend.c **** 
 658              		.loc 1 597 24 view .LVU209
 659 0016 8146     		mov	r9, r0
 660              	.LVL60:
 600:Middlewares/lvgl/src/draw/lv_draw_blend.c **** 
 661              		.loc 1 600 5 is_stmt 1 view .LVU210
 662              	.LBB85:
 663              	.LBI85:
 133:Middlewares/lvgl/src/draw/../misc/lv_area.h **** {
 664              		.loc 2 133 26 view .LVU211
 665              	.LBB86:
 666              		.loc 2 135 5 view .LVU212
 667              		.loc 2 135 31 is_stmt 0 view .LVU213
 668 0018 B4F80480 		ldrh	r8, [r4, #4]
 669              		.loc 2 135 44 view .LVU214
 670 001c B4F90000 		ldrsh	r0, [r4]
 671              	.LVL61:
 672              		.loc 2 135 44 view .LVU215
 673 0020 83B2     		uxth	r3, r0
 674              		.loc 2 135 36 view .LVU216
 675 0022 A8EB0308 		sub	r8, r8, r3
 676 0026 1FFA88F8 		uxth	r8, r8
 677              		.loc 2 135 49 view .LVU217
 678 002a 08F10108 		add	r8, r8, #1
 679              		.loc 2 135 12 view .LVU218
 680 002e 0FFA88F8 		sxth	r8, r8
 681              	.LVL62:
 682              		.loc 2 135 12 view .LVU219
 683              	.LBE86:
 684              	.LBE85:
 603:Middlewares/lvgl/src/draw/lv_draw_blend.c **** 
 685              		.loc 1 603 5 is_stmt 1 view .LVU220
 686              	.LBB87:
 687              	.LBI87:
 133:Middlewares/lvgl/src/draw/../misc/lv_area.h **** {
 688              		.loc 2 133 26 view .LVU221
 689              	.LBB88:
 690              		.loc 2 135 5 view .LVU222
 691              		.loc 2 135 31 is_stmt 0 view .LVU223
 692 0032 AB88     		ldrh	r3, [r5, #4]
 693              		.loc 2 135 44 view .LVU224
 694 0034 B5F90020 		ldrsh	r2, [r5]
 695 0038 91B2     		uxth	r1, r2
 696              		.loc 2 135 36 view .LVU225
 697 003a 5B1A     		subs	r3, r3, r1
 698 003c 9BB2     		uxth	r3, r3
 699              		.loc 2 135 49 view .LVU226
 700 003e 0133     		adds	r3, r3, #1
 701              		.loc 2 135 12 view .LVU227
 702 0040 1BB2     		sxth	r3, r3
 703 0042 0993     		str	r3, [sp, #36]
 704              	.LVL63:
 705              		.loc 2 135 12 view .LVU228
 706              	.LBE88:
 707              	.LBE87:
 606:Middlewares/lvgl/src/draw/lv_draw_blend.c **** 
 708              		.loc 1 606 5 is_stmt 1 view .LVU229
ARM GAS  /tmp/ccViN4Ah.s 			page 35


 709              	.LBB89:
 710              	.LBI89:
 133:Middlewares/lvgl/src/draw/../misc/lv_area.h **** {
 711              		.loc 2 133 26 view .LVU230
 712              	.LBB90:
 713              		.loc 2 135 5 view .LVU231
 714              		.loc 2 135 31 is_stmt 0 view .LVU232
 715 0044 B188     		ldrh	r1, [r6, #4]
 716              		.loc 2 135 44 view .LVU233
 717 0046 B6F90030 		ldrsh	r3, [r6]
 718 004a 9FB2     		uxth	r7, r3
 719              		.loc 2 135 36 view .LVU234
 720 004c C91B     		subs	r1, r1, r7
 721 004e 89B2     		uxth	r1, r1
 722              		.loc 2 135 49 view .LVU235
 723 0050 0131     		adds	r1, r1, #1
 724              		.loc 2 135 12 view .LVU236
 725 0052 0FB2     		sxth	r7, r1
 726 0054 0897     		str	r7, [sp, #32]
 727              	.LVL64:
 728              		.loc 2 135 12 view .LVU237
 729              	.LBE90:
 730              	.LBE89:
 609:Middlewares/lvgl/src/draw/lv_draw_blend.c **** 
 731              		.loc 1 609 5 is_stmt 1 view .LVU238
 609:Middlewares/lvgl/src/draw/lv_draw_blend.c **** 
 732              		.loc 1 609 66 is_stmt 0 view .LVU239
 733 0056 B5F90210 		ldrsh	r1, [r5, #2]
 734 005a 0591     		str	r1, [sp, #20]
 609:Middlewares/lvgl/src/draw/lv_draw_blend.c **** 
 735              		.loc 1 609 82 view .LVU240
 736 005c B6F90260 		ldrsh	r6, [r6, #2]
 737              	.LVL65:
 609:Middlewares/lvgl/src/draw/lv_draw_blend.c **** 
 738              		.loc 1 609 98 view .LVU241
 739 0060 B4F90210 		ldrsh	r1, [r4, #2]
 609:Middlewares/lvgl/src/draw/lv_draw_blend.c **** 
 740              		.loc 1 609 87 view .LVU242
 741 0064 761A     		subs	r6, r6, r1
 609:Middlewares/lvgl/src/draw/lv_draw_blend.c **** 
 742              		.loc 1 609 71 view .LVU243
 743 0066 0599     		ldr	r1, [sp, #20]
 744 0068 8E1B     		subs	r6, r1, r6
 745              	.LVL66:
 611:Middlewares/lvgl/src/draw/lv_draw_blend.c ****     map_buf_tmp -= draw_area->x1;
 746              		.loc 1 611 5 is_stmt 1 view .LVU244
 611:Middlewares/lvgl/src/draw/lv_draw_blend.c ****     map_buf_tmp -= draw_area->x1;
 747              		.loc 1 611 51 is_stmt 0 view .LVU245
 748 006a 1B1A     		subs	r3, r3, r0
 611:Middlewares/lvgl/src/draw/lv_draw_blend.c ****     map_buf_tmp -= draw_area->x1;
 749              		.loc 1 611 35 view .LVU246
 750 006c D31A     		subs	r3, r2, r3
 751              	.LVL67:
 612:Middlewares/lvgl/src/draw/lv_draw_blend.c ****     int32_t x;
 752              		.loc 1 612 5 is_stmt 1 view .LVU247
 612:Middlewares/lvgl/src/draw/lv_draw_blend.c ****     int32_t x;
 753              		.loc 1 612 17 is_stmt 0 view .LVU248
ARM GAS  /tmp/ccViN4Ah.s 			page 36


 754 006e 07FB0636 		mla	r6, r7, r6, r3
 755              	.LVL68:
 612:Middlewares/lvgl/src/draw/lv_draw_blend.c ****     int32_t x;
 756              		.loc 1 612 17 view .LVU249
 757 0072 B31A     		subs	r3, r6, r2
 758              	.LVL69:
 612:Middlewares/lvgl/src/draw/lv_draw_blend.c ****     int32_t x;
 759              		.loc 1 612 17 view .LVU250
 760 0074 149E     		ldr	r6, [sp, #80]
 761 0076 06EB4306 		add	r6, r6, r3, lsl #1
 762              	.LVL70:
 613:Middlewares/lvgl/src/draw/lv_draw_blend.c ****     int32_t y;
 763              		.loc 1 613 5 is_stmt 1 view .LVU251
 614:Middlewares/lvgl/src/draw/lv_draw_blend.c **** 
 764              		.loc 1 614 5 view .LVU252
 616:Middlewares/lvgl/src/draw/lv_draw_blend.c ****         for(y = draw_area->y1; y <= draw_area->y2; y++) {
 765              		.loc 1 616 5 view .LVU253
 616:Middlewares/lvgl/src/draw/lv_draw_blend.c ****         for(y = draw_area->y1; y <= draw_area->y2; y++) {
 766              		.loc 1 616 7 is_stmt 0 view .LVU254
 767 007a 9DF85C30 		ldrb	r3, [sp, #92]	@ zero_extendqisi2
 768 007e 012B     		cmp	r3, #1
 769 0080 07D0     		beq	.L53
 770              	.LBB91:
 628:Middlewares/lvgl/src/draw/lv_draw_blend.c **** 
 771              		.loc 1 628 9 is_stmt 1 view .LVU255
 628:Middlewares/lvgl/src/draw/lv_draw_blend.c **** 
 772              		.loc 1 628 26 is_stmt 0 view .LVU256
 773 0082 169F     		ldr	r7, [sp, #88]
 774              	.LVL71:
 628:Middlewares/lvgl/src/draw/lv_draw_blend.c **** 
 775              		.loc 1 628 26 view .LVU257
 776 0084 BF1A     		subs	r7, r7, r2
 777              	.LVL72:
 630:Middlewares/lvgl/src/draw/lv_draw_blend.c ****             for(x = draw_area->x1; x <= draw_area->x2; x++) {
 778              		.loc 1 630 9 is_stmt 1 view .LVU258
 630:Middlewares/lvgl/src/draw/lv_draw_blend.c ****             for(x = draw_area->x1; x <= draw_area->x2; x++) {
 779              		.loc 1 630 9 is_stmt 0 view .LVU259
 780 0086 B346     		mov	fp, r6
 781 0088 CDF81C80 		str	r8, [sp, #28]
 782 008c DDF81480 		ldr	r8, [sp, #20]
 783              	.LVL73:
 630:Middlewares/lvgl/src/draw/lv_draw_blend.c ****             for(x = draw_area->x1; x <= draw_area->x2; x++) {
 784              		.loc 1 630 9 view .LVU260
 785 0090 47E0     		b	.L46
 786              	.LVL74:
 787              	.L53:
 630:Middlewares/lvgl/src/draw/lv_draw_blend.c ****             for(x = draw_area->x1; x <= draw_area->x2; x++) {
 788              		.loc 1 630 9 view .LVU261
 789 0092 DDF818B0 		ldr	fp, [sp, #24]
 790              	.LBE91:
 791 0096 1AE0     		b	.L40
 792              	.LVL75:
 793              	.L43:
 619:Middlewares/lvgl/src/draw/lv_draw_blend.c ****             }
 794              		.loc 1 619 17 is_stmt 1 discriminator 3 view .LVU262
 619:Middlewares/lvgl/src/draw/lv_draw_blend.c ****             }
 795              		.loc 1 619 21 is_stmt 0 discriminator 3 view .LVU263
ARM GAS  /tmp/ccViN4Ah.s 			page 37


 796 0098 D9F80000 		ldr	r0, [r9]
 619:Middlewares/lvgl/src/draw/lv_draw_blend.c ****             }
 797              		.loc 1 619 29 discriminator 3 view .LVU264
 798 009c 4769     		ldr	r7, [r0, #20]
 619:Middlewares/lvgl/src/draw/lv_draw_blend.c ****             }
 799              		.loc 1 619 17 discriminator 3 view .LVU265
 800 009e CDF808A0 		str	r10, [sp, #8]
 801 00a2 36F81430 		ldrh	r3, [r6, r4, lsl #1]
 802 00a6 ADF80430 		strh	r3, [sp, #4]	@ movhi
 803 00aa BDF91430 		ldrsh	r3, [sp, #20]
 804 00ae 0093     		str	r3, [sp]
 805 00b0 23B2     		sxth	r3, r4
 806 00b2 4246     		mov	r2, r8
 807 00b4 5946     		mov	r1, fp
 808 00b6 B847     		blx	r7
 809              	.LVL76:
 618:Middlewares/lvgl/src/draw/lv_draw_blend.c ****                 disp->driver->set_px_cb(disp->driver, (void *)disp_buf, disp_w, x, y, map_buf_tmp[x
 810              		.loc 1 618 56 is_stmt 1 discriminator 3 view .LVU266
 618:Middlewares/lvgl/src/draw/lv_draw_blend.c ****                 disp->driver->set_px_cb(disp->driver, (void *)disp_buf, disp_w, x, y, map_buf_tmp[x
 811              		.loc 1 618 57 is_stmt 0 discriminator 3 view .LVU267
 812 00b8 0134     		adds	r4, r4, #1
 813              	.LVL77:
 814              	.L42:
 618:Middlewares/lvgl/src/draw/lv_draw_blend.c ****                 disp->driver->set_px_cb(disp->driver, (void *)disp_buf, disp_w, x, y, map_buf_tmp[x
 815              		.loc 1 618 36 is_stmt 1 discriminator 1 view .LVU268
 618:Middlewares/lvgl/src/draw/lv_draw_blend.c ****                 disp->driver->set_px_cb(disp->driver, (void *)disp_buf, disp_w, x, y, map_buf_tmp[x
 816              		.loc 1 618 50 is_stmt 0 discriminator 1 view .LVU269
 817 00ba B5F90430 		ldrsh	r3, [r5, #4]
 618:Middlewares/lvgl/src/draw/lv_draw_blend.c ****                 disp->driver->set_px_cb(disp->driver, (void *)disp_buf, disp_w, x, y, map_buf_tmp[x
 818              		.loc 1 618 13 discriminator 1 view .LVU270
 819 00be A342     		cmp	r3, r4
 820 00c0 EADA     		bge	.L43
 621:Middlewares/lvgl/src/draw/lv_draw_blend.c ****         }
 821              		.loc 1 621 13 is_stmt 1 discriminator 2 view .LVU271
 621:Middlewares/lvgl/src/draw/lv_draw_blend.c ****         }
 822              		.loc 1 621 25 is_stmt 0 discriminator 2 view .LVU272
 823 00c2 089B     		ldr	r3, [sp, #32]
 824 00c4 06EB4306 		add	r6, r6, r3, lsl #1
 825              	.LVL78:
 617:Middlewares/lvgl/src/draw/lv_draw_blend.c ****             for(x = draw_area->x1; x <= draw_area->x2; x++) {
 826              		.loc 1 617 52 is_stmt 1 discriminator 2 view .LVU273
 617:Middlewares/lvgl/src/draw/lv_draw_blend.c ****             for(x = draw_area->x1; x <= draw_area->x2; x++) {
 827              		.loc 1 617 53 is_stmt 0 discriminator 2 view .LVU274
 828 00c8 059B     		ldr	r3, [sp, #20]
 829 00ca 0133     		adds	r3, r3, #1
 830 00cc 0593     		str	r3, [sp, #20]
 831              	.LVL79:
 832              	.L40:
 617:Middlewares/lvgl/src/draw/lv_draw_blend.c ****             for(x = draw_area->x1; x <= draw_area->x2; x++) {
 833              		.loc 1 617 32 is_stmt 1 discriminator 1 view .LVU275
 617:Middlewares/lvgl/src/draw/lv_draw_blend.c ****             for(x = draw_area->x1; x <= draw_area->x2; x++) {
 834              		.loc 1 617 46 is_stmt 0 discriminator 1 view .LVU276
 835 00ce B5F90630 		ldrsh	r3, [r5, #6]
 617:Middlewares/lvgl/src/draw/lv_draw_blend.c ****             for(x = draw_area->x1; x <= draw_area->x2; x++) {
 836              		.loc 1 617 9 discriminator 1 view .LVU277
 837 00d2 059A     		ldr	r2, [sp, #20]
 838 00d4 9342     		cmp	r3, r2
ARM GAS  /tmp/ccViN4Ah.s 			page 38


 839 00d6 2BDB     		blt	.L39
 618:Middlewares/lvgl/src/draw/lv_draw_blend.c ****                 disp->driver->set_px_cb(disp->driver, (void *)disp_buf, disp_w, x, y, map_buf_tmp[x
 840              		.loc 1 618 13 is_stmt 1 view .LVU278
 618:Middlewares/lvgl/src/draw/lv_draw_blend.c ****                 disp->driver->set_px_cb(disp->driver, (void *)disp_buf, disp_w, x, y, map_buf_tmp[x
 841              		.loc 1 618 30 is_stmt 0 view .LVU279
 842 00d8 B5F90040 		ldrsh	r4, [r5]
 843              	.LVL80:
 618:Middlewares/lvgl/src/draw/lv_draw_blend.c ****                 disp->driver->set_px_cb(disp->driver, (void *)disp_buf, disp_w, x, y, map_buf_tmp[x
 844              		.loc 1 618 13 view .LVU280
 845 00dc EDE7     		b	.L42
 846              	.LVL81:
 847              	.L48:
 848              	.LBB92:
 631:Middlewares/lvgl/src/draw/lv_draw_blend.c ****                 if(mask_tmp[x]) {
 849              		.loc 1 631 56 is_stmt 1 discriminator 2 view .LVU281
 631:Middlewares/lvgl/src/draw/lv_draw_blend.c ****                 if(mask_tmp[x]) {
 850              		.loc 1 631 57 is_stmt 0 discriminator 2 view .LVU282
 851 00de 0134     		adds	r4, r4, #1
 852              	.LVL82:
 853              	.L47:
 631:Middlewares/lvgl/src/draw/lv_draw_blend.c ****                 if(mask_tmp[x]) {
 854              		.loc 1 631 36 is_stmt 1 discriminator 1 view .LVU283
 631:Middlewares/lvgl/src/draw/lv_draw_blend.c ****                 if(mask_tmp[x]) {
 855              		.loc 1 631 50 is_stmt 0 discriminator 1 view .LVU284
 856 00e0 B5F90430 		ldrsh	r3, [r5, #4]
 631:Middlewares/lvgl/src/draw/lv_draw_blend.c ****                 if(mask_tmp[x]) {
 857              		.loc 1 631 13 discriminator 1 view .LVU285
 858 00e4 A342     		cmp	r3, r4
 859 00e6 15DB     		blt	.L54
 632:Middlewares/lvgl/src/draw/lv_draw_blend.c ****                     disp->driver->set_px_cb(disp->driver, (void *)disp_buf, disp_w, x, y, map_buf_t
 860              		.loc 1 632 17 is_stmt 1 view .LVU286
 632:Middlewares/lvgl/src/draw/lv_draw_blend.c ****                     disp->driver->set_px_cb(disp->driver, (void *)disp_buf, disp_w, x, y, map_buf_t
 861              		.loc 1 632 28 is_stmt 0 view .LVU287
 862 00e8 3B5D     		ldrb	r3, [r7, r4]	@ zero_extendqisi2
 632:Middlewares/lvgl/src/draw/lv_draw_blend.c ****                     disp->driver->set_px_cb(disp->driver, (void *)disp_buf, disp_w, x, y, map_buf_t
 863              		.loc 1 632 19 view .LVU288
 864 00ea 002B     		cmp	r3, #0
 865 00ec F7D0     		beq	.L48
 633:Middlewares/lvgl/src/draw/lv_draw_blend.c ****                                            (uint32_t)((uint32_t)opa * mask_tmp[x]) >> 8);
 866              		.loc 1 633 21 is_stmt 1 view .LVU289
 633:Middlewares/lvgl/src/draw/lv_draw_blend.c ****                                            (uint32_t)((uint32_t)opa * mask_tmp[x]) >> 8);
 867              		.loc 1 633 25 is_stmt 0 view .LVU290
 868 00ee D9F80000 		ldr	r0, [r9]
 633:Middlewares/lvgl/src/draw/lv_draw_blend.c ****                                            (uint32_t)((uint32_t)opa * mask_tmp[x]) >> 8);
 869              		.loc 1 633 33 view .LVU291
 870 00f2 4669     		ldr	r6, [r0, #20]
 634:Middlewares/lvgl/src/draw/lv_draw_blend.c ****                 }
 871              		.loc 1 634 44 view .LVU292
 872 00f4 03FB0AF3 		mul	r3, r3, r10
 633:Middlewares/lvgl/src/draw/lv_draw_blend.c ****                                            (uint32_t)((uint32_t)opa * mask_tmp[x]) >> 8);
 873              		.loc 1 633 21 view .LVU293
 874 00f8 1B0A     		lsrs	r3, r3, #8
 875 00fa 0293     		str	r3, [sp, #8]
 876 00fc 3BF81430 		ldrh	r3, [fp, r4, lsl #1]
 877 0100 ADF80430 		strh	r3, [sp, #4]	@ movhi
 878 0104 0FFA88F3 		sxth	r3, r8
 879 0108 0093     		str	r3, [sp]
ARM GAS  /tmp/ccViN4Ah.s 			page 39


 880 010a 23B2     		sxth	r3, r4
 881 010c 079A     		ldr	r2, [sp, #28]
 882 010e 0699     		ldr	r1, [sp, #24]
 883 0110 B047     		blx	r6
 884              	.LVL83:
 885 0112 E4E7     		b	.L48
 886              	.L54:
 637:Middlewares/lvgl/src/draw/lv_draw_blend.c ****             map_buf_tmp += map_w;
 887              		.loc 1 637 13 is_stmt 1 discriminator 2 view .LVU294
 637:Middlewares/lvgl/src/draw/lv_draw_blend.c ****             map_buf_tmp += map_w;
 888              		.loc 1 637 22 is_stmt 0 discriminator 2 view .LVU295
 889 0114 099B     		ldr	r3, [sp, #36]
 890 0116 1F44     		add	r7, r7, r3
 891              	.LVL84:
 638:Middlewares/lvgl/src/draw/lv_draw_blend.c ****         }
 892              		.loc 1 638 13 is_stmt 1 discriminator 2 view .LVU296
 638:Middlewares/lvgl/src/draw/lv_draw_blend.c ****         }
 893              		.loc 1 638 25 is_stmt 0 discriminator 2 view .LVU297
 894 0118 089B     		ldr	r3, [sp, #32]
 895 011a 0BEB430B 		add	fp, fp, r3, lsl #1
 896              	.LVL85:
 630:Middlewares/lvgl/src/draw/lv_draw_blend.c ****             for(x = draw_area->x1; x <= draw_area->x2; x++) {
 897              		.loc 1 630 52 is_stmt 1 discriminator 2 view .LVU298
 630:Middlewares/lvgl/src/draw/lv_draw_blend.c ****             for(x = draw_area->x1; x <= draw_area->x2; x++) {
 898              		.loc 1 630 53 is_stmt 0 discriminator 2 view .LVU299
 899 011e 08F10108 		add	r8, r8, #1
 900              	.LVL86:
 901              	.L46:
 630:Middlewares/lvgl/src/draw/lv_draw_blend.c ****             for(x = draw_area->x1; x <= draw_area->x2; x++) {
 902              		.loc 1 630 32 is_stmt 1 discriminator 1 view .LVU300
 630:Middlewares/lvgl/src/draw/lv_draw_blend.c ****             for(x = draw_area->x1; x <= draw_area->x2; x++) {
 903              		.loc 1 630 46 is_stmt 0 discriminator 1 view .LVU301
 904 0122 B5F90630 		ldrsh	r3, [r5, #6]
 630:Middlewares/lvgl/src/draw/lv_draw_blend.c ****             for(x = draw_area->x1; x <= draw_area->x2; x++) {
 905              		.loc 1 630 9 discriminator 1 view .LVU302
 906 0126 4345     		cmp	r3, r8
 907 0128 02DB     		blt	.L39
 631:Middlewares/lvgl/src/draw/lv_draw_blend.c ****                 if(mask_tmp[x]) {
 908              		.loc 1 631 13 is_stmt 1 view .LVU303
 631:Middlewares/lvgl/src/draw/lv_draw_blend.c ****                 if(mask_tmp[x]) {
 909              		.loc 1 631 30 is_stmt 0 view .LVU304
 910 012a B5F90040 		ldrsh	r4, [r5]
 911              	.LVL87:
 631:Middlewares/lvgl/src/draw/lv_draw_blend.c ****                 if(mask_tmp[x]) {
 912              		.loc 1 631 13 view .LVU305
 913 012e D7E7     		b	.L47
 914              	.LVL88:
 915              	.L39:
 631:Middlewares/lvgl/src/draw/lv_draw_blend.c ****                 if(mask_tmp[x]) {
 916              		.loc 1 631 13 view .LVU306
 917              	.LBE92:
 641:Middlewares/lvgl/src/draw/lv_draw_blend.c **** 
 918              		.loc 1 641 1 view .LVU307
 919 0130 0BB0     		add	sp, sp, #44
 920              	.LCFI8:
 921              		.cfi_def_cfa_offset 36
 922              		@ sp needed
ARM GAS  /tmp/ccViN4Ah.s 			page 40


 923 0132 BDE8F08F 		pop	{r4, r5, r6, r7, r8, r9, r10, fp, pc}
 641:Middlewares/lvgl/src/draw/lv_draw_blend.c **** 
 924              		.loc 1 641 1 view .LVU308
 925              		.cfi_endproc
 926              	.LFE152:
 928              		.section	.text.color_blend_true_color_additive,"ax",%progbits
 929              		.align	1
 930              		.syntax unified
 931              		.thumb
 932              		.thumb_func
 933              		.fpu fpv4-sp-d16
 935              	color_blend_true_color_additive:
 936              	.LVL89:
 937              	.LFB155:
 975:Middlewares/lvgl/src/draw/lv_draw_blend.c **** 
 976:Middlewares/lvgl/src/draw/lv_draw_blend.c **** static inline lv_color_t color_blend_true_color_additive(lv_color_t fg, lv_color_t bg, lv_opa_t opa
 977:Middlewares/lvgl/src/draw/lv_draw_blend.c **** {
 938              		.loc 1 977 1 is_stmt 1 view -0
 939              		.cfi_startproc
 940              		@ args = 0, pretend = 0, frame = 0
 941              		@ frame_needed = 0, uses_anonymous_args = 0
 978:Middlewares/lvgl/src/draw/lv_draw_blend.c ****     uint32_t tmp;
 942              		.loc 1 978 5 view .LVU310
 979:Middlewares/lvgl/src/draw/lv_draw_blend.c **** #if LV_COLOR_DEPTH == 1
 980:Middlewares/lvgl/src/draw/lv_draw_blend.c ****     tmp = bg.full + fg.full;
 981:Middlewares/lvgl/src/draw/lv_draw_blend.c ****     fg.full = LV_MIN(tmp, 1);
 982:Middlewares/lvgl/src/draw/lv_draw_blend.c **** #else
 983:Middlewares/lvgl/src/draw/lv_draw_blend.c ****     tmp = bg.ch.red + fg.ch.red;
 943              		.loc 1 983 5 view .LVU311
 944              		.loc 1 983 16 is_stmt 0 view .LVU312
 945 0000 C1F3C423 		ubfx	r3, r1, #11, #5
 946              		.loc 1 983 28 view .LVU313
 947 0004 C0F3C42C 		ubfx	ip, r0, #11, #5
 948              		.loc 1 983 21 view .LVU314
 949 0008 6344     		add	r3, r3, ip
 950              	.LVL90:
 984:Middlewares/lvgl/src/draw/lv_draw_blend.c **** #if LV_COLOR_DEPTH == 8
 985:Middlewares/lvgl/src/draw/lv_draw_blend.c ****     fg.ch.red = LV_MIN(tmp, 7);
 986:Middlewares/lvgl/src/draw/lv_draw_blend.c **** #elif LV_COLOR_DEPTH == 16
 987:Middlewares/lvgl/src/draw/lv_draw_blend.c ****     fg.ch.red = LV_MIN(tmp, 31);
 951              		.loc 1 987 5 is_stmt 1 view .LVU315
 952              		.loc 1 987 17 is_stmt 0 view .LVU316
 953 000a 1F2B     		cmp	r3, #31
 954 000c 28BF     		it	cs
 955 000e 1F23     		movcs	r3, #31
 956              	.LVL91:
 957              		.loc 1 987 15 view .LVU317
 958 0010 63F3CF20 		bfi	r0, r3, #11, #5
 988:Middlewares/lvgl/src/draw/lv_draw_blend.c **** #elif LV_COLOR_DEPTH == 32
 989:Middlewares/lvgl/src/draw/lv_draw_blend.c ****     fg.ch.red = LV_MIN(tmp, 255);
 990:Middlewares/lvgl/src/draw/lv_draw_blend.c **** #endif
 991:Middlewares/lvgl/src/draw/lv_draw_blend.c **** 
 992:Middlewares/lvgl/src/draw/lv_draw_blend.c **** #if LV_COLOR_DEPTH == 8
 993:Middlewares/lvgl/src/draw/lv_draw_blend.c ****     tmp = bg.ch.green + fg.ch.green;
 994:Middlewares/lvgl/src/draw/lv_draw_blend.c ****     fg.ch.green = LV_MIN(tmp, 7);
 995:Middlewares/lvgl/src/draw/lv_draw_blend.c **** #elif LV_COLOR_DEPTH == 16
 996:Middlewares/lvgl/src/draw/lv_draw_blend.c **** #if LV_COLOR_16_SWAP == 0
ARM GAS  /tmp/ccViN4Ah.s 			page 41


 997:Middlewares/lvgl/src/draw/lv_draw_blend.c ****     tmp = bg.ch.green + fg.ch.green;
 959              		.loc 1 997 5 is_stmt 1 view .LVU318
 960              		.loc 1 997 16 is_stmt 0 view .LVU319
 961 0014 C1F34513 		ubfx	r3, r1, #5, #6
 962              		.loc 1 997 30 view .LVU320
 963 0018 C0F3451C 		ubfx	ip, r0, #5, #6
 964              	.LVL92:
 965              		.loc 1 997 23 view .LVU321
 966 001c 6344     		add	r3, r3, ip
 967              	.LVL93:
 998:Middlewares/lvgl/src/draw/lv_draw_blend.c ****     fg.ch.green = LV_MIN(tmp, 63);
 968              		.loc 1 998 5 is_stmt 1 view .LVU322
 969              		.loc 1 998 19 is_stmt 0 view .LVU323
 970 001e 3F2B     		cmp	r3, #63
 971 0020 28BF     		it	cs
 972 0022 3F23     		movcs	r3, #63
 973              	.LVL94:
 974              		.loc 1 998 17 view .LVU324
 975 0024 63F34A10 		bfi	r0, r3, #5, #6
 999:Middlewares/lvgl/src/draw/lv_draw_blend.c **** #else
1000:Middlewares/lvgl/src/draw/lv_draw_blend.c ****     tmp = (bg.ch.green_h << 3) + bg.ch.green_l + (fg.ch.green_h << 3) + fg.ch.green_l;
1001:Middlewares/lvgl/src/draw/lv_draw_blend.c ****     tmp = LV_MIN(tmp, 63);
1002:Middlewares/lvgl/src/draw/lv_draw_blend.c ****     fg.ch.green_h = tmp >> 3;
1003:Middlewares/lvgl/src/draw/lv_draw_blend.c ****     fg.ch.green_l = tmp & 0x7;
1004:Middlewares/lvgl/src/draw/lv_draw_blend.c **** #endif
1005:Middlewares/lvgl/src/draw/lv_draw_blend.c **** 
1006:Middlewares/lvgl/src/draw/lv_draw_blend.c **** #elif LV_COLOR_DEPTH == 32
1007:Middlewares/lvgl/src/draw/lv_draw_blend.c ****     tmp = bg.ch.green + fg.ch.green;
1008:Middlewares/lvgl/src/draw/lv_draw_blend.c ****     fg.ch.green = LV_MIN(tmp, 255);
1009:Middlewares/lvgl/src/draw/lv_draw_blend.c **** #endif
1010:Middlewares/lvgl/src/draw/lv_draw_blend.c **** 
1011:Middlewares/lvgl/src/draw/lv_draw_blend.c ****     tmp = bg.ch.blue + fg.ch.blue;
 976              		.loc 1 1011 5 is_stmt 1 view .LVU325
 977              		.loc 1 1011 16 is_stmt 0 view .LVU326
 978 0028 01F01F03 		and	r3, r1, #31
 979              		.loc 1 1011 29 view .LVU327
 980 002c 00F01F0C 		and	ip, r0, #31
 981              	.LVL95:
 982              		.loc 1 1011 22 view .LVU328
 983 0030 6344     		add	r3, r3, ip
 984              	.LVL96:
1012:Middlewares/lvgl/src/draw/lv_draw_blend.c **** #if LV_COLOR_DEPTH == 8
1013:Middlewares/lvgl/src/draw/lv_draw_blend.c ****     fg.ch.blue = LV_MIN(tmp, 4);
1014:Middlewares/lvgl/src/draw/lv_draw_blend.c **** #elif LV_COLOR_DEPTH == 16
1015:Middlewares/lvgl/src/draw/lv_draw_blend.c ****     fg.ch.blue = LV_MIN(tmp, 31);
 985              		.loc 1 1015 5 is_stmt 1 view .LVU329
 986              		.loc 1 1015 18 is_stmt 0 view .LVU330
 987 0032 1F2B     		cmp	r3, #31
 988 0034 28BF     		it	cs
 989 0036 1F23     		movcs	r3, #31
 990              	.LVL97:
 991              		.loc 1 1015 16 view .LVU331
 992 0038 63F30400 		bfi	r0, r3, #0, #5
1016:Middlewares/lvgl/src/draw/lv_draw_blend.c **** #elif LV_COLOR_DEPTH == 32
1017:Middlewares/lvgl/src/draw/lv_draw_blend.c ****     fg.ch.blue = LV_MIN(tmp, 255);
1018:Middlewares/lvgl/src/draw/lv_draw_blend.c **** #endif
1019:Middlewares/lvgl/src/draw/lv_draw_blend.c **** #endif
ARM GAS  /tmp/ccViN4Ah.s 			page 42


1020:Middlewares/lvgl/src/draw/lv_draw_blend.c **** 
1021:Middlewares/lvgl/src/draw/lv_draw_blend.c ****     if(opa == LV_OPA_COVER) return fg;
 993              		.loc 1 1021 5 is_stmt 1 view .LVU332
 994              		.loc 1 1021 7 is_stmt 0 view .LVU333
 995 003c FF2A     		cmp	r2, #255
 996 003e 3BD0     		beq	.L59
 977:Middlewares/lvgl/src/draw/lv_draw_blend.c ****     uint32_t tmp;
 997              		.loc 1 977 1 view .LVU334
 998 0040 10B5     		push	{r4, lr}
 999              	.LCFI9:
 1000              		.cfi_def_cfa_offset 8
 1001              		.cfi_offset 4, -8
 1002              		.cfi_offset 14, -4
1022:Middlewares/lvgl/src/draw/lv_draw_blend.c **** 
1023:Middlewares/lvgl/src/draw/lv_draw_blend.c ****     return lv_color_mix(fg, bg, opa);
 1003              		.loc 1 1023 5 is_stmt 1 view .LVU335
 1004              	.LVL98:
 1005              	.LBB95:
 1006              	.LBI95:
 1007              		.file 3 "Middlewares/lvgl/src/draw/../misc/lv_color.h"
   1:Middlewares/lvgl/src/draw/../misc/lv_color.h **** /**
   2:Middlewares/lvgl/src/draw/../misc/lv_color.h ****  * @file lv_color.h
   3:Middlewares/lvgl/src/draw/../misc/lv_color.h ****  *
   4:Middlewares/lvgl/src/draw/../misc/lv_color.h ****  */
   5:Middlewares/lvgl/src/draw/../misc/lv_color.h **** 
   6:Middlewares/lvgl/src/draw/../misc/lv_color.h **** #ifndef LV_COLOR_H
   7:Middlewares/lvgl/src/draw/../misc/lv_color.h **** #define LV_COLOR_H
   8:Middlewares/lvgl/src/draw/../misc/lv_color.h **** 
   9:Middlewares/lvgl/src/draw/../misc/lv_color.h **** #ifdef __cplusplus
  10:Middlewares/lvgl/src/draw/../misc/lv_color.h **** extern "C" {
  11:Middlewares/lvgl/src/draw/../misc/lv_color.h **** #endif
  12:Middlewares/lvgl/src/draw/../misc/lv_color.h **** 
  13:Middlewares/lvgl/src/draw/../misc/lv_color.h **** /*********************
  14:Middlewares/lvgl/src/draw/../misc/lv_color.h ****  *      INCLUDES
  15:Middlewares/lvgl/src/draw/../misc/lv_color.h ****  *********************/
  16:Middlewares/lvgl/src/draw/../misc/lv_color.h **** #include "../lv_conf_internal.h"
  17:Middlewares/lvgl/src/draw/../misc/lv_color.h **** #include "lv_math.h"
  18:Middlewares/lvgl/src/draw/../misc/lv_color.h **** #include "lv_types.h"
  19:Middlewares/lvgl/src/draw/../misc/lv_color.h **** 
  20:Middlewares/lvgl/src/draw/../misc/lv_color.h **** /*Error checking*/
  21:Middlewares/lvgl/src/draw/../misc/lv_color.h **** #if LV_COLOR_DEPTH == 24
  22:Middlewares/lvgl/src/draw/../misc/lv_color.h **** #error "LV_COLOR_DEPTH 24 is deprecated. Use LV_COLOR_DEPTH 32 instead (lv_conf.h)"
  23:Middlewares/lvgl/src/draw/../misc/lv_color.h **** #endif
  24:Middlewares/lvgl/src/draw/../misc/lv_color.h **** 
  25:Middlewares/lvgl/src/draw/../misc/lv_color.h **** #if LV_COLOR_DEPTH != 32 && LV_COLOR_SCREEN_TRANSP != 0
  26:Middlewares/lvgl/src/draw/../misc/lv_color.h **** #error "LV_COLOR_SCREEN_TRANSP requires LV_COLOR_DEPTH == 32. Set it in lv_conf.h"
  27:Middlewares/lvgl/src/draw/../misc/lv_color.h **** #endif
  28:Middlewares/lvgl/src/draw/../misc/lv_color.h **** 
  29:Middlewares/lvgl/src/draw/../misc/lv_color.h **** #if LV_COLOR_DEPTH != 16 && LV_COLOR_16_SWAP != 0
  30:Middlewares/lvgl/src/draw/../misc/lv_color.h **** #error "LV_COLOR_16_SWAP requires LV_COLOR_DEPTH == 16. Set it in lv_conf.h"
  31:Middlewares/lvgl/src/draw/../misc/lv_color.h **** #endif
  32:Middlewares/lvgl/src/draw/../misc/lv_color.h **** 
  33:Middlewares/lvgl/src/draw/../misc/lv_color.h **** #include <stdint.h>
  34:Middlewares/lvgl/src/draw/../misc/lv_color.h **** 
  35:Middlewares/lvgl/src/draw/../misc/lv_color.h **** /*********************
  36:Middlewares/lvgl/src/draw/../misc/lv_color.h ****  *      DEFINES
  37:Middlewares/lvgl/src/draw/../misc/lv_color.h ****  *********************/
ARM GAS  /tmp/ccViN4Ah.s 			page 43


  38:Middlewares/lvgl/src/draw/../misc/lv_color.h **** 
  39:Middlewares/lvgl/src/draw/../misc/lv_color.h **** /**
  40:Middlewares/lvgl/src/draw/../misc/lv_color.h ****  * Opacity percentages.
  41:Middlewares/lvgl/src/draw/../misc/lv_color.h ****  */
  42:Middlewares/lvgl/src/draw/../misc/lv_color.h **** enum {
  43:Middlewares/lvgl/src/draw/../misc/lv_color.h ****     LV_OPA_TRANSP = 0,
  44:Middlewares/lvgl/src/draw/../misc/lv_color.h ****     LV_OPA_0      = 0,
  45:Middlewares/lvgl/src/draw/../misc/lv_color.h ****     LV_OPA_10     = 25,
  46:Middlewares/lvgl/src/draw/../misc/lv_color.h ****     LV_OPA_20     = 51,
  47:Middlewares/lvgl/src/draw/../misc/lv_color.h ****     LV_OPA_30     = 76,
  48:Middlewares/lvgl/src/draw/../misc/lv_color.h ****     LV_OPA_40     = 102,
  49:Middlewares/lvgl/src/draw/../misc/lv_color.h ****     LV_OPA_50     = 127,
  50:Middlewares/lvgl/src/draw/../misc/lv_color.h ****     LV_OPA_60     = 153,
  51:Middlewares/lvgl/src/draw/../misc/lv_color.h ****     LV_OPA_70     = 178,
  52:Middlewares/lvgl/src/draw/../misc/lv_color.h ****     LV_OPA_80     = 204,
  53:Middlewares/lvgl/src/draw/../misc/lv_color.h ****     LV_OPA_90     = 229,
  54:Middlewares/lvgl/src/draw/../misc/lv_color.h ****     LV_OPA_100    = 255,
  55:Middlewares/lvgl/src/draw/../misc/lv_color.h ****     LV_OPA_COVER  = 255,
  56:Middlewares/lvgl/src/draw/../misc/lv_color.h **** };
  57:Middlewares/lvgl/src/draw/../misc/lv_color.h **** 
  58:Middlewares/lvgl/src/draw/../misc/lv_color.h **** #define LV_OPA_MIN 2    /*Opacities below this will be transparent*/
  59:Middlewares/lvgl/src/draw/../misc/lv_color.h **** #define LV_OPA_MAX 253  /*Opacities above this will fully cover*/
  60:Middlewares/lvgl/src/draw/../misc/lv_color.h **** 
  61:Middlewares/lvgl/src/draw/../misc/lv_color.h **** #if LV_COLOR_DEPTH == 1
  62:Middlewares/lvgl/src/draw/../misc/lv_color.h **** #define LV_COLOR_SIZE 8
  63:Middlewares/lvgl/src/draw/../misc/lv_color.h **** #elif LV_COLOR_DEPTH == 8
  64:Middlewares/lvgl/src/draw/../misc/lv_color.h **** #define LV_COLOR_SIZE 8
  65:Middlewares/lvgl/src/draw/../misc/lv_color.h **** #elif LV_COLOR_DEPTH == 16
  66:Middlewares/lvgl/src/draw/../misc/lv_color.h **** #define LV_COLOR_SIZE 16
  67:Middlewares/lvgl/src/draw/../misc/lv_color.h **** #elif LV_COLOR_DEPTH == 32
  68:Middlewares/lvgl/src/draw/../misc/lv_color.h **** #define LV_COLOR_SIZE 32
  69:Middlewares/lvgl/src/draw/../misc/lv_color.h **** #else
  70:Middlewares/lvgl/src/draw/../misc/lv_color.h **** #error "Invalid LV_COLOR_DEPTH in lv_conf.h! Set it to 1, 8, 16 or 32!"
  71:Middlewares/lvgl/src/draw/../misc/lv_color.h **** #endif
  72:Middlewares/lvgl/src/draw/../misc/lv_color.h **** 
  73:Middlewares/lvgl/src/draw/../misc/lv_color.h **** /**
  74:Middlewares/lvgl/src/draw/../misc/lv_color.h ****  * Adjust color mix functions rounding.
  75:Middlewares/lvgl/src/draw/../misc/lv_color.h ****  * GPUs might calculate color mix (blending) differently.
  76:Middlewares/lvgl/src/draw/../misc/lv_color.h ****  * Should be in range of 0..254
  77:Middlewares/lvgl/src/draw/../misc/lv_color.h ****  * 0: no adjustment, get the integer part of the result (round down)
  78:Middlewares/lvgl/src/draw/../misc/lv_color.h ****  * 64: round up from x.75
  79:Middlewares/lvgl/src/draw/../misc/lv_color.h ****  * 128: round up from half
  80:Middlewares/lvgl/src/draw/../misc/lv_color.h ****  * 192: round up from x.25
  81:Middlewares/lvgl/src/draw/../misc/lv_color.h ****  * 254: round up*/
  82:Middlewares/lvgl/src/draw/../misc/lv_color.h **** #ifndef LV_COLOR_MIX_ROUND_OFS
  83:Middlewares/lvgl/src/draw/../misc/lv_color.h **** #if LV_COLOR_DEPTH == 32
  84:Middlewares/lvgl/src/draw/../misc/lv_color.h **** #define LV_COLOR_MIX_ROUND_OFS 0
  85:Middlewares/lvgl/src/draw/../misc/lv_color.h **** #else
  86:Middlewares/lvgl/src/draw/../misc/lv_color.h **** #define LV_COLOR_MIX_ROUND_OFS 128
  87:Middlewares/lvgl/src/draw/../misc/lv_color.h **** #endif
  88:Middlewares/lvgl/src/draw/../misc/lv_color.h **** #endif
  89:Middlewares/lvgl/src/draw/../misc/lv_color.h **** 
  90:Middlewares/lvgl/src/draw/../misc/lv_color.h **** #if defined(__cplusplus) && !defined(_LV_COLOR_HAS_MODERN_CPP)
  91:Middlewares/lvgl/src/draw/../misc/lv_color.h **** /**
  92:Middlewares/lvgl/src/draw/../misc/lv_color.h **** * MSVC compiler's definition of the __cplusplus indicating 199711L regardless to C++ standard versi
  93:Middlewares/lvgl/src/draw/../misc/lv_color.h **** * see https://devblogs.microsoft.com/cppblog/msvc-now-correctly-reports-cplusplus
  94:Middlewares/lvgl/src/draw/../misc/lv_color.h **** * so we use _MSC_VER macro instead of __cplusplus
ARM GAS  /tmp/ccViN4Ah.s 			page 44


  95:Middlewares/lvgl/src/draw/../misc/lv_color.h **** */
  96:Middlewares/lvgl/src/draw/../misc/lv_color.h **** #ifdef _MSC_VER
  97:Middlewares/lvgl/src/draw/../misc/lv_color.h **** #if _MSC_VER >= 1900 /*Visual Studio 2015*/
  98:Middlewares/lvgl/src/draw/../misc/lv_color.h **** #define _LV_COLOR_HAS_MODERN_CPP 1
  99:Middlewares/lvgl/src/draw/../misc/lv_color.h **** #endif
 100:Middlewares/lvgl/src/draw/../misc/lv_color.h **** #else
 101:Middlewares/lvgl/src/draw/../misc/lv_color.h **** #if __cplusplus >= 201103L
 102:Middlewares/lvgl/src/draw/../misc/lv_color.h **** #define _LV_COLOR_HAS_MODERN_CPP 1
 103:Middlewares/lvgl/src/draw/../misc/lv_color.h **** #endif
 104:Middlewares/lvgl/src/draw/../misc/lv_color.h **** #endif
 105:Middlewares/lvgl/src/draw/../misc/lv_color.h **** #endif /*__cplusplus*/
 106:Middlewares/lvgl/src/draw/../misc/lv_color.h **** 
 107:Middlewares/lvgl/src/draw/../misc/lv_color.h **** #ifndef _LV_COLOR_HAS_MODERN_CPP
 108:Middlewares/lvgl/src/draw/../misc/lv_color.h **** #define _LV_COLOR_HAS_MODERN_CPP 0
 109:Middlewares/lvgl/src/draw/../misc/lv_color.h **** #endif
 110:Middlewares/lvgl/src/draw/../misc/lv_color.h **** 
 111:Middlewares/lvgl/src/draw/../misc/lv_color.h **** #if _LV_COLOR_HAS_MODERN_CPP
 112:Middlewares/lvgl/src/draw/../misc/lv_color.h **** /*Fix msvc compiler error C4576 inside C++ code*/
 113:Middlewares/lvgl/src/draw/../misc/lv_color.h **** #define _LV_COLOR_MAKE_TYPE_HELPER lv_color_t
 114:Middlewares/lvgl/src/draw/../misc/lv_color.h **** #else
 115:Middlewares/lvgl/src/draw/../misc/lv_color.h **** #define _LV_COLOR_MAKE_TYPE_HELPER (lv_color_t)
 116:Middlewares/lvgl/src/draw/../misc/lv_color.h **** #endif
 117:Middlewares/lvgl/src/draw/../misc/lv_color.h **** 
 118:Middlewares/lvgl/src/draw/../misc/lv_color.h **** /*---------------------------------------
 119:Middlewares/lvgl/src/draw/../misc/lv_color.h ****  * Macros for all existing color depths
 120:Middlewares/lvgl/src/draw/../misc/lv_color.h ****  * to set/get values of the color channels
 121:Middlewares/lvgl/src/draw/../misc/lv_color.h ****  *------------------------------------------*/
 122:Middlewares/lvgl/src/draw/../misc/lv_color.h **** # define LV_COLOR_SET_R1(c, v) (c).ch.red = (uint8_t)((v) & 0x1)
 123:Middlewares/lvgl/src/draw/../misc/lv_color.h **** # define LV_COLOR_SET_G1(c, v) (c).ch.green = (uint8_t)((v) & 0x1)
 124:Middlewares/lvgl/src/draw/../misc/lv_color.h **** # define LV_COLOR_SET_B1(c, v) (c).ch.blue = (uint8_t)((v) & 0x1)
 125:Middlewares/lvgl/src/draw/../misc/lv_color.h **** # define LV_COLOR_SET_A1(c, v) do {} while(0)
 126:Middlewares/lvgl/src/draw/../misc/lv_color.h **** 
 127:Middlewares/lvgl/src/draw/../misc/lv_color.h **** # define LV_COLOR_GET_R1(c) (c).ch.red
 128:Middlewares/lvgl/src/draw/../misc/lv_color.h **** # define LV_COLOR_GET_G1(c) (c).ch.green
 129:Middlewares/lvgl/src/draw/../misc/lv_color.h **** # define LV_COLOR_GET_B1(c) (c).ch.blue
 130:Middlewares/lvgl/src/draw/../misc/lv_color.h **** # define LV_COLOR_GET_A1(c) 0xFF
 131:Middlewares/lvgl/src/draw/../misc/lv_color.h **** 
 132:Middlewares/lvgl/src/draw/../misc/lv_color.h **** # define _LV_COLOR_ZERO_INITIALIZER1 {0x00}
 133:Middlewares/lvgl/src/draw/../misc/lv_color.h **** # define LV_COLOR_MAKE1(r8, g8, b8)  {(uint8_t)((b8 >> 7) | (g8 >> 7) | (r8 >> 7))}
 134:Middlewares/lvgl/src/draw/../misc/lv_color.h **** 
 135:Middlewares/lvgl/src/draw/../misc/lv_color.h **** # define LV_COLOR_SET_R8(c, v) (c).ch.red = (uint8_t)((v) & 0x7U)
 136:Middlewares/lvgl/src/draw/../misc/lv_color.h **** # define LV_COLOR_SET_G8(c, v) (c).ch.green = (uint8_t)((v) & 0x7U)
 137:Middlewares/lvgl/src/draw/../misc/lv_color.h **** # define LV_COLOR_SET_B8(c, v) (c).ch.blue = (uint8_t)((v) & 0x3U)
 138:Middlewares/lvgl/src/draw/../misc/lv_color.h **** # define LV_COLOR_SET_A8(c, v) do {} while(0)
 139:Middlewares/lvgl/src/draw/../misc/lv_color.h **** 
 140:Middlewares/lvgl/src/draw/../misc/lv_color.h **** # define LV_COLOR_GET_R8(c) (c).ch.red
 141:Middlewares/lvgl/src/draw/../misc/lv_color.h **** # define LV_COLOR_GET_G8(c) (c).ch.green
 142:Middlewares/lvgl/src/draw/../misc/lv_color.h **** # define LV_COLOR_GET_B8(c) (c).ch.blue
 143:Middlewares/lvgl/src/draw/../misc/lv_color.h **** # define LV_COLOR_GET_A8(c) 0xFF
 144:Middlewares/lvgl/src/draw/../misc/lv_color.h **** 
 145:Middlewares/lvgl/src/draw/../misc/lv_color.h **** # define _LV_COLOR_ZERO_INITIALIZER8 _LV_COLOR_MAKE_TYPE_HELPER {{0x00, 0x00, 0x00}}
 146:Middlewares/lvgl/src/draw/../misc/lv_color.h **** # define LV_COLOR_MAKE8(r8, g8, b8) _LV_COLOR_MAKE_TYPE_HELPER  {{(uint8_t)((b8 >> 6) & 0x3U), (uin
 147:Middlewares/lvgl/src/draw/../misc/lv_color.h **** 
 148:Middlewares/lvgl/src/draw/../misc/lv_color.h **** # define LV_COLOR_SET_R16(c, v) (c).ch.red = (uint8_t)((v) & 0x1FU)
 149:Middlewares/lvgl/src/draw/../misc/lv_color.h **** #if LV_COLOR_16_SWAP == 0
 150:Middlewares/lvgl/src/draw/../misc/lv_color.h **** # define LV_COLOR_SET_G16(c, v) (c).ch.green = (uint8_t)((v) & 0x3FU)
 151:Middlewares/lvgl/src/draw/../misc/lv_color.h **** #else
ARM GAS  /tmp/ccViN4Ah.s 			page 45


 152:Middlewares/lvgl/src/draw/../misc/lv_color.h **** # define LV_COLOR_SET_G16(c, v) {(c).ch.green_h = (uint8_t)(((v) >> 3) & 0x7); (c).ch.green_l = (ui
 153:Middlewares/lvgl/src/draw/../misc/lv_color.h **** #endif
 154:Middlewares/lvgl/src/draw/../misc/lv_color.h **** # define LV_COLOR_SET_B16(c, v) (c).ch.blue = (uint8_t)((v) & 0x1FU)
 155:Middlewares/lvgl/src/draw/../misc/lv_color.h **** # define LV_COLOR_SET_A16(c, v) do {} while(0)
 156:Middlewares/lvgl/src/draw/../misc/lv_color.h **** 
 157:Middlewares/lvgl/src/draw/../misc/lv_color.h **** # define LV_COLOR_GET_R16(c) (c).ch.red
 158:Middlewares/lvgl/src/draw/../misc/lv_color.h **** #if LV_COLOR_16_SWAP == 0
 159:Middlewares/lvgl/src/draw/../misc/lv_color.h **** # define LV_COLOR_GET_G16(c) (c).ch.green
 160:Middlewares/lvgl/src/draw/../misc/lv_color.h **** #else
 161:Middlewares/lvgl/src/draw/../misc/lv_color.h **** # define LV_COLOR_GET_G16(c) (((c).ch.green_h << 3) + (c).ch.green_l)
 162:Middlewares/lvgl/src/draw/../misc/lv_color.h **** #endif
 163:Middlewares/lvgl/src/draw/../misc/lv_color.h **** # define LV_COLOR_GET_B16(c) (c).ch.blue
 164:Middlewares/lvgl/src/draw/../misc/lv_color.h **** # define LV_COLOR_GET_A16(c) 0xFF
 165:Middlewares/lvgl/src/draw/../misc/lv_color.h **** 
 166:Middlewares/lvgl/src/draw/../misc/lv_color.h **** #if LV_COLOR_16_SWAP == 0
 167:Middlewares/lvgl/src/draw/../misc/lv_color.h **** # define _LV_COLOR_ZERO_INITIALIZER16  {{0x00, 0x00, 0x00}}
 168:Middlewares/lvgl/src/draw/../misc/lv_color.h **** # define LV_COLOR_MAKE16(r8, g8, b8) {{(uint8_t)((b8 >> 3) & 0x1FU), (uint8_t)((g8 >> 2) & 0x3FU), 
 169:Middlewares/lvgl/src/draw/../misc/lv_color.h **** #else
 170:Middlewares/lvgl/src/draw/../misc/lv_color.h **** # define _LV_COLOR_ZERO_INITIALIZER16 {{0x00, 0x00, 0x00, 0x00}}
 171:Middlewares/lvgl/src/draw/../misc/lv_color.h **** # define LV_COLOR_MAKE16(r8, g8, b8) {{(uint8_t)((g8 >> 5) & 0x7U), (uint8_t)((r8 >> 3) & 0x1FU), (
 172:Middlewares/lvgl/src/draw/../misc/lv_color.h **** #endif
 173:Middlewares/lvgl/src/draw/../misc/lv_color.h **** 
 174:Middlewares/lvgl/src/draw/../misc/lv_color.h **** # define LV_COLOR_SET_R32(c, v) (c).ch.red = (uint8_t)((v) & 0xFF)
 175:Middlewares/lvgl/src/draw/../misc/lv_color.h **** # define LV_COLOR_SET_G32(c, v) (c).ch.green = (uint8_t)((v) & 0xFF)
 176:Middlewares/lvgl/src/draw/../misc/lv_color.h **** # define LV_COLOR_SET_B32(c, v) (c).ch.blue = (uint8_t)((v) & 0xFF)
 177:Middlewares/lvgl/src/draw/../misc/lv_color.h **** # define LV_COLOR_SET_A32(c, v) (c).ch.alpha = (uint8_t)((v) & 0xFF)
 178:Middlewares/lvgl/src/draw/../misc/lv_color.h **** 
 179:Middlewares/lvgl/src/draw/../misc/lv_color.h **** # define LV_COLOR_GET_R32(c) (c).ch.red
 180:Middlewares/lvgl/src/draw/../misc/lv_color.h **** # define LV_COLOR_GET_G32(c) (c).ch.green
 181:Middlewares/lvgl/src/draw/../misc/lv_color.h **** # define LV_COLOR_GET_B32(c) (c).ch.blue
 182:Middlewares/lvgl/src/draw/../misc/lv_color.h **** # define LV_COLOR_GET_A32(c) (c).ch.alpha
 183:Middlewares/lvgl/src/draw/../misc/lv_color.h **** 
 184:Middlewares/lvgl/src/draw/../misc/lv_color.h **** # define _LV_COLOR_ZERO_INITIALIZER32  {{0x00, 0x00, 0x00, 0x00}}
 185:Middlewares/lvgl/src/draw/../misc/lv_color.h **** # define LV_COLOR_MAKE32(r8, g8, b8) {{b8, g8, r8, 0xff}} /*Fix 0xff alpha*/
 186:Middlewares/lvgl/src/draw/../misc/lv_color.h **** 
 187:Middlewares/lvgl/src/draw/../misc/lv_color.h **** /*---------------------------------------
 188:Middlewares/lvgl/src/draw/../misc/lv_color.h ****  * Macros for the current color depth
 189:Middlewares/lvgl/src/draw/../misc/lv_color.h ****  * to set/get values of the color channels
 190:Middlewares/lvgl/src/draw/../misc/lv_color.h ****  *------------------------------------------*/
 191:Middlewares/lvgl/src/draw/../misc/lv_color.h **** #define LV_COLOR_SET_R(c, v) LV_CONCAT(LV_COLOR_SET_R, LV_COLOR_DEPTH)(c, v)
 192:Middlewares/lvgl/src/draw/../misc/lv_color.h **** #define LV_COLOR_SET_G(c, v) LV_CONCAT(LV_COLOR_SET_G, LV_COLOR_DEPTH)(c, v)
 193:Middlewares/lvgl/src/draw/../misc/lv_color.h **** #define LV_COLOR_SET_B(c, v) LV_CONCAT(LV_COLOR_SET_B, LV_COLOR_DEPTH)(c, v)
 194:Middlewares/lvgl/src/draw/../misc/lv_color.h **** #define LV_COLOR_SET_A(c, v) LV_CONCAT(LV_COLOR_SET_A, LV_COLOR_DEPTH)(c, v)
 195:Middlewares/lvgl/src/draw/../misc/lv_color.h **** 
 196:Middlewares/lvgl/src/draw/../misc/lv_color.h **** #define LV_COLOR_GET_R(c) LV_CONCAT(LV_COLOR_GET_R, LV_COLOR_DEPTH)(c)
 197:Middlewares/lvgl/src/draw/../misc/lv_color.h **** #define LV_COLOR_GET_G(c) LV_CONCAT(LV_COLOR_GET_G, LV_COLOR_DEPTH)(c)
 198:Middlewares/lvgl/src/draw/../misc/lv_color.h **** #define LV_COLOR_GET_B(c) LV_CONCAT(LV_COLOR_GET_B, LV_COLOR_DEPTH)(c)
 199:Middlewares/lvgl/src/draw/../misc/lv_color.h **** #define LV_COLOR_GET_A(c) LV_CONCAT(LV_COLOR_GET_A, LV_COLOR_DEPTH)(c)
 200:Middlewares/lvgl/src/draw/../misc/lv_color.h **** 
 201:Middlewares/lvgl/src/draw/../misc/lv_color.h **** #define _LV_COLOR_ZERO_INITIALIZER LV_CONCAT(_LV_COLOR_ZERO_INITIALIZER, LV_COLOR_DEPTH)
 202:Middlewares/lvgl/src/draw/../misc/lv_color.h **** #define LV_COLOR_MAKE(r8, g8, b8) LV_CONCAT(LV_COLOR_MAKE, LV_COLOR_DEPTH)(r8, g8, b8)
 203:Middlewares/lvgl/src/draw/../misc/lv_color.h **** 
 204:Middlewares/lvgl/src/draw/../misc/lv_color.h **** #define LV_UDIV255(x) ((uint32_t)((uint32_t) (x) * 0x8081) >> 0x17)
 205:Middlewares/lvgl/src/draw/../misc/lv_color.h **** 
 206:Middlewares/lvgl/src/draw/../misc/lv_color.h **** /**********************
 207:Middlewares/lvgl/src/draw/../misc/lv_color.h ****  *      TYPEDEFS
 208:Middlewares/lvgl/src/draw/../misc/lv_color.h ****  **********************/
ARM GAS  /tmp/ccViN4Ah.s 			page 46


 209:Middlewares/lvgl/src/draw/../misc/lv_color.h **** 
 210:Middlewares/lvgl/src/draw/../misc/lv_color.h **** typedef union {
 211:Middlewares/lvgl/src/draw/../misc/lv_color.h ****     uint8_t full; /*must be declared first to set all bits of byte via initializer list*/
 212:Middlewares/lvgl/src/draw/../misc/lv_color.h ****     union {
 213:Middlewares/lvgl/src/draw/../misc/lv_color.h ****         uint8_t blue : 1;
 214:Middlewares/lvgl/src/draw/../misc/lv_color.h ****         uint8_t green : 1;
 215:Middlewares/lvgl/src/draw/../misc/lv_color.h ****         uint8_t red : 1;
 216:Middlewares/lvgl/src/draw/../misc/lv_color.h ****     } ch;
 217:Middlewares/lvgl/src/draw/../misc/lv_color.h **** } lv_color1_t;
 218:Middlewares/lvgl/src/draw/../misc/lv_color.h **** 
 219:Middlewares/lvgl/src/draw/../misc/lv_color.h **** typedef union {
 220:Middlewares/lvgl/src/draw/../misc/lv_color.h ****     struct {
 221:Middlewares/lvgl/src/draw/../misc/lv_color.h ****         uint8_t blue : 2;
 222:Middlewares/lvgl/src/draw/../misc/lv_color.h ****         uint8_t green : 3;
 223:Middlewares/lvgl/src/draw/../misc/lv_color.h ****         uint8_t red : 3;
 224:Middlewares/lvgl/src/draw/../misc/lv_color.h ****     } ch;
 225:Middlewares/lvgl/src/draw/../misc/lv_color.h ****     uint8_t full;
 226:Middlewares/lvgl/src/draw/../misc/lv_color.h **** } lv_color8_t;
 227:Middlewares/lvgl/src/draw/../misc/lv_color.h **** 
 228:Middlewares/lvgl/src/draw/../misc/lv_color.h **** typedef union {
 229:Middlewares/lvgl/src/draw/../misc/lv_color.h ****     struct {
 230:Middlewares/lvgl/src/draw/../misc/lv_color.h **** #if LV_COLOR_16_SWAP == 0
 231:Middlewares/lvgl/src/draw/../misc/lv_color.h ****         uint16_t blue : 5;
 232:Middlewares/lvgl/src/draw/../misc/lv_color.h ****         uint16_t green : 6;
 233:Middlewares/lvgl/src/draw/../misc/lv_color.h ****         uint16_t red : 5;
 234:Middlewares/lvgl/src/draw/../misc/lv_color.h **** #else
 235:Middlewares/lvgl/src/draw/../misc/lv_color.h ****         uint16_t green_h : 3;
 236:Middlewares/lvgl/src/draw/../misc/lv_color.h ****         uint16_t red : 5;
 237:Middlewares/lvgl/src/draw/../misc/lv_color.h ****         uint16_t blue : 5;
 238:Middlewares/lvgl/src/draw/../misc/lv_color.h ****         uint16_t green_l : 3;
 239:Middlewares/lvgl/src/draw/../misc/lv_color.h **** #endif
 240:Middlewares/lvgl/src/draw/../misc/lv_color.h ****     } ch;
 241:Middlewares/lvgl/src/draw/../misc/lv_color.h ****     uint16_t full;
 242:Middlewares/lvgl/src/draw/../misc/lv_color.h **** } lv_color16_t;
 243:Middlewares/lvgl/src/draw/../misc/lv_color.h **** 
 244:Middlewares/lvgl/src/draw/../misc/lv_color.h **** typedef union {
 245:Middlewares/lvgl/src/draw/../misc/lv_color.h ****     struct {
 246:Middlewares/lvgl/src/draw/../misc/lv_color.h ****         uint8_t blue;
 247:Middlewares/lvgl/src/draw/../misc/lv_color.h ****         uint8_t green;
 248:Middlewares/lvgl/src/draw/../misc/lv_color.h ****         uint8_t red;
 249:Middlewares/lvgl/src/draw/../misc/lv_color.h ****         uint8_t alpha;
 250:Middlewares/lvgl/src/draw/../misc/lv_color.h ****     } ch;
 251:Middlewares/lvgl/src/draw/../misc/lv_color.h ****     uint32_t full;
 252:Middlewares/lvgl/src/draw/../misc/lv_color.h **** } lv_color32_t;
 253:Middlewares/lvgl/src/draw/../misc/lv_color.h **** 
 254:Middlewares/lvgl/src/draw/../misc/lv_color.h **** typedef LV_CONCAT3(uint, LV_COLOR_SIZE, _t) lv_color_int_t;
 255:Middlewares/lvgl/src/draw/../misc/lv_color.h **** typedef LV_CONCAT3(lv_color, LV_COLOR_DEPTH, _t) lv_color_t;
 256:Middlewares/lvgl/src/draw/../misc/lv_color.h **** 
 257:Middlewares/lvgl/src/draw/../misc/lv_color.h **** typedef struct {
 258:Middlewares/lvgl/src/draw/../misc/lv_color.h ****     uint16_t h;
 259:Middlewares/lvgl/src/draw/../misc/lv_color.h ****     uint8_t s;
 260:Middlewares/lvgl/src/draw/../misc/lv_color.h ****     uint8_t v;
 261:Middlewares/lvgl/src/draw/../misc/lv_color.h **** } lv_color_hsv_t;
 262:Middlewares/lvgl/src/draw/../misc/lv_color.h **** 
 263:Middlewares/lvgl/src/draw/../misc/lv_color.h **** //! @cond Doxygen_Suppress
 264:Middlewares/lvgl/src/draw/../misc/lv_color.h **** /*No idea where the guard is required but else throws warnings in the docs*/
 265:Middlewares/lvgl/src/draw/../misc/lv_color.h **** typedef uint8_t lv_opa_t;
ARM GAS  /tmp/ccViN4Ah.s 			page 47


 266:Middlewares/lvgl/src/draw/../misc/lv_color.h **** //! @endcond
 267:Middlewares/lvgl/src/draw/../misc/lv_color.h **** 
 268:Middlewares/lvgl/src/draw/../misc/lv_color.h **** struct _lv_color_filter_dsc_t;
 269:Middlewares/lvgl/src/draw/../misc/lv_color.h **** 
 270:Middlewares/lvgl/src/draw/../misc/lv_color.h **** typedef lv_color_t (*lv_color_filter_cb_t)(const struct _lv_color_filter_dsc_t *, lv_color_t, lv_op
 271:Middlewares/lvgl/src/draw/../misc/lv_color.h **** 
 272:Middlewares/lvgl/src/draw/../misc/lv_color.h **** typedef struct _lv_color_filter_dsc_t {
 273:Middlewares/lvgl/src/draw/../misc/lv_color.h ****     lv_color_filter_cb_t filter_cb;
 274:Middlewares/lvgl/src/draw/../misc/lv_color.h ****     void * user_data;
 275:Middlewares/lvgl/src/draw/../misc/lv_color.h **** }lv_color_filter_dsc_t;
 276:Middlewares/lvgl/src/draw/../misc/lv_color.h **** 
 277:Middlewares/lvgl/src/draw/../misc/lv_color.h **** 
 278:Middlewares/lvgl/src/draw/../misc/lv_color.h **** typedef enum {
 279:Middlewares/lvgl/src/draw/../misc/lv_color.h ****     LV_PALETTE_RED,
 280:Middlewares/lvgl/src/draw/../misc/lv_color.h ****     LV_PALETTE_PINK,
 281:Middlewares/lvgl/src/draw/../misc/lv_color.h ****     LV_PALETTE_PURPLE,
 282:Middlewares/lvgl/src/draw/../misc/lv_color.h ****     LV_PALETTE_DEEP_PURPLE,
 283:Middlewares/lvgl/src/draw/../misc/lv_color.h ****     LV_PALETTE_INDIGO,
 284:Middlewares/lvgl/src/draw/../misc/lv_color.h ****     LV_PALETTE_BLUE,
 285:Middlewares/lvgl/src/draw/../misc/lv_color.h ****     LV_PALETTE_LIGHT_BLUE,
 286:Middlewares/lvgl/src/draw/../misc/lv_color.h ****     LV_PALETTE_CYAN,
 287:Middlewares/lvgl/src/draw/../misc/lv_color.h ****     LV_PALETTE_TEAL,
 288:Middlewares/lvgl/src/draw/../misc/lv_color.h ****     LV_PALETTE_GREEN,
 289:Middlewares/lvgl/src/draw/../misc/lv_color.h ****     LV_PALETTE_LIGHT_GREEN,
 290:Middlewares/lvgl/src/draw/../misc/lv_color.h ****     LV_PALETTE_LIME,
 291:Middlewares/lvgl/src/draw/../misc/lv_color.h ****     LV_PALETTE_YELLOW,
 292:Middlewares/lvgl/src/draw/../misc/lv_color.h ****     LV_PALETTE_AMBER,
 293:Middlewares/lvgl/src/draw/../misc/lv_color.h ****     LV_PALETTE_ORANGE,
 294:Middlewares/lvgl/src/draw/../misc/lv_color.h ****     LV_PALETTE_DEEP_ORANGE,
 295:Middlewares/lvgl/src/draw/../misc/lv_color.h ****     LV_PALETTE_BROWN,
 296:Middlewares/lvgl/src/draw/../misc/lv_color.h ****     LV_PALETTE_BLUE_GREY,
 297:Middlewares/lvgl/src/draw/../misc/lv_color.h ****     LV_PALETTE_GREY,
 298:Middlewares/lvgl/src/draw/../misc/lv_color.h ****     _LV_PALETTE_LAST,
 299:Middlewares/lvgl/src/draw/../misc/lv_color.h ****     LV_PALETTE_NONE = 0xff,
 300:Middlewares/lvgl/src/draw/../misc/lv_color.h **** }lv_palette_t;
 301:Middlewares/lvgl/src/draw/../misc/lv_color.h **** 
 302:Middlewares/lvgl/src/draw/../misc/lv_color.h **** /**********************
 303:Middlewares/lvgl/src/draw/../misc/lv_color.h ****  * GLOBAL PROTOTYPES
 304:Middlewares/lvgl/src/draw/../misc/lv_color.h ****  **********************/
 305:Middlewares/lvgl/src/draw/../misc/lv_color.h **** 
 306:Middlewares/lvgl/src/draw/../misc/lv_color.h **** /*In color conversations:
 307:Middlewares/lvgl/src/draw/../misc/lv_color.h ****  * - When converting to bigger color type the LSB weight of 1 LSB is calculated
 308:Middlewares/lvgl/src/draw/../misc/lv_color.h ****  *   E.g. 16 bit Red has 5 bits
 309:Middlewares/lvgl/src/draw/../misc/lv_color.h ****  *         8 bit Red has 3 bits
 310:Middlewares/lvgl/src/draw/../misc/lv_color.h ****  *        ----------------------
 311:Middlewares/lvgl/src/draw/../misc/lv_color.h ****  *        8 bit red LSB = (2^5 - 1) / (2^3 - 1) = 31 / 7 = 4
 312:Middlewares/lvgl/src/draw/../misc/lv_color.h ****  *
 313:Middlewares/lvgl/src/draw/../misc/lv_color.h ****  * - When calculating to smaller color type simply shift out the LSBs
 314:Middlewares/lvgl/src/draw/../misc/lv_color.h ****  *   E.g.  8 bit Red has 3 bits
 315:Middlewares/lvgl/src/draw/../misc/lv_color.h ****  *        16 bit Red has 5 bits
 316:Middlewares/lvgl/src/draw/../misc/lv_color.h ****  *        ----------------------
 317:Middlewares/lvgl/src/draw/../misc/lv_color.h ****  *         Shift right with 5 - 3 = 2
 318:Middlewares/lvgl/src/draw/../misc/lv_color.h ****  */
 319:Middlewares/lvgl/src/draw/../misc/lv_color.h **** static inline uint8_t lv_color_to1(lv_color_t color)
 320:Middlewares/lvgl/src/draw/../misc/lv_color.h **** {
 321:Middlewares/lvgl/src/draw/../misc/lv_color.h **** #if LV_COLOR_DEPTH == 1
 322:Middlewares/lvgl/src/draw/../misc/lv_color.h ****     return color.full;
ARM GAS  /tmp/ccViN4Ah.s 			page 48


 323:Middlewares/lvgl/src/draw/../misc/lv_color.h **** #elif LV_COLOR_DEPTH == 8
 324:Middlewares/lvgl/src/draw/../misc/lv_color.h ****     if((LV_COLOR_GET_R(color) & 0x4) || (LV_COLOR_GET_G(color) & 0x4) || (LV_COLOR_GET_B(color) & 0
 325:Middlewares/lvgl/src/draw/../misc/lv_color.h ****         return 1;
 326:Middlewares/lvgl/src/draw/../misc/lv_color.h ****     }
 327:Middlewares/lvgl/src/draw/../misc/lv_color.h ****     else {
 328:Middlewares/lvgl/src/draw/../misc/lv_color.h ****         return 0;
 329:Middlewares/lvgl/src/draw/../misc/lv_color.h ****     }
 330:Middlewares/lvgl/src/draw/../misc/lv_color.h **** #elif LV_COLOR_DEPTH == 16
 331:Middlewares/lvgl/src/draw/../misc/lv_color.h ****     if((LV_COLOR_GET_R(color) & 0x10) || (LV_COLOR_GET_G(color) & 0x20) || (LV_COLOR_GET_B(color) &
 332:Middlewares/lvgl/src/draw/../misc/lv_color.h ****         return 1;
 333:Middlewares/lvgl/src/draw/../misc/lv_color.h ****     }
 334:Middlewares/lvgl/src/draw/../misc/lv_color.h ****     else {
 335:Middlewares/lvgl/src/draw/../misc/lv_color.h ****         return 0;
 336:Middlewares/lvgl/src/draw/../misc/lv_color.h ****     }
 337:Middlewares/lvgl/src/draw/../misc/lv_color.h **** #elif LV_COLOR_DEPTH == 32
 338:Middlewares/lvgl/src/draw/../misc/lv_color.h ****     if((LV_COLOR_GET_R(color) & 0x80) || (LV_COLOR_GET_G(color) & 0x80) || (LV_COLOR_GET_B(color) &
 339:Middlewares/lvgl/src/draw/../misc/lv_color.h ****         return 1;
 340:Middlewares/lvgl/src/draw/../misc/lv_color.h ****     }
 341:Middlewares/lvgl/src/draw/../misc/lv_color.h ****     else {
 342:Middlewares/lvgl/src/draw/../misc/lv_color.h ****         return 0;
 343:Middlewares/lvgl/src/draw/../misc/lv_color.h ****     }
 344:Middlewares/lvgl/src/draw/../misc/lv_color.h **** #endif
 345:Middlewares/lvgl/src/draw/../misc/lv_color.h **** }
 346:Middlewares/lvgl/src/draw/../misc/lv_color.h **** 
 347:Middlewares/lvgl/src/draw/../misc/lv_color.h **** static inline uint8_t lv_color_to8(lv_color_t color)
 348:Middlewares/lvgl/src/draw/../misc/lv_color.h **** {
 349:Middlewares/lvgl/src/draw/../misc/lv_color.h **** #if LV_COLOR_DEPTH == 1
 350:Middlewares/lvgl/src/draw/../misc/lv_color.h ****     if(color.full == 0)
 351:Middlewares/lvgl/src/draw/../misc/lv_color.h ****         return 0;
 352:Middlewares/lvgl/src/draw/../misc/lv_color.h ****     else
 353:Middlewares/lvgl/src/draw/../misc/lv_color.h ****         return 0xFF;
 354:Middlewares/lvgl/src/draw/../misc/lv_color.h **** #elif LV_COLOR_DEPTH == 8
 355:Middlewares/lvgl/src/draw/../misc/lv_color.h ****     return color.full;
 356:Middlewares/lvgl/src/draw/../misc/lv_color.h **** #elif LV_COLOR_DEPTH == 16
 357:Middlewares/lvgl/src/draw/../misc/lv_color.h ****     lv_color8_t ret;
 358:Middlewares/lvgl/src/draw/../misc/lv_color.h ****     LV_COLOR_SET_R8(ret, LV_COLOR_GET_R(color) >> 2); /*5 - 3  = 2*/
 359:Middlewares/lvgl/src/draw/../misc/lv_color.h ****     LV_COLOR_SET_G8(ret, LV_COLOR_GET_G(color) >> 3); /*6 - 3  = 3*/
 360:Middlewares/lvgl/src/draw/../misc/lv_color.h ****     LV_COLOR_SET_B8(ret, LV_COLOR_GET_B(color) >> 3); /*5 - 2  = 3*/
 361:Middlewares/lvgl/src/draw/../misc/lv_color.h ****     return ret.full;
 362:Middlewares/lvgl/src/draw/../misc/lv_color.h **** #elif LV_COLOR_DEPTH == 32
 363:Middlewares/lvgl/src/draw/../misc/lv_color.h ****     lv_color8_t ret;
 364:Middlewares/lvgl/src/draw/../misc/lv_color.h ****     LV_COLOR_SET_R8(ret, LV_COLOR_GET_R(color) >> 5); /*8 - 3  = 5*/
 365:Middlewares/lvgl/src/draw/../misc/lv_color.h ****     LV_COLOR_SET_G8(ret, LV_COLOR_GET_G(color) >> 5); /*8 - 3  = 5*/
 366:Middlewares/lvgl/src/draw/../misc/lv_color.h ****     LV_COLOR_SET_B8(ret, LV_COLOR_GET_B(color) >> 6); /*8 - 2  = 6*/
 367:Middlewares/lvgl/src/draw/../misc/lv_color.h ****     return ret.full;
 368:Middlewares/lvgl/src/draw/../misc/lv_color.h **** #endif
 369:Middlewares/lvgl/src/draw/../misc/lv_color.h **** }
 370:Middlewares/lvgl/src/draw/../misc/lv_color.h **** 
 371:Middlewares/lvgl/src/draw/../misc/lv_color.h **** static inline uint16_t lv_color_to16(lv_color_t color)
 372:Middlewares/lvgl/src/draw/../misc/lv_color.h **** {
 373:Middlewares/lvgl/src/draw/../misc/lv_color.h **** #if LV_COLOR_DEPTH == 1
 374:Middlewares/lvgl/src/draw/../misc/lv_color.h ****     if(color.full == 0)
 375:Middlewares/lvgl/src/draw/../misc/lv_color.h ****         return 0;
 376:Middlewares/lvgl/src/draw/../misc/lv_color.h ****     else
 377:Middlewares/lvgl/src/draw/../misc/lv_color.h ****         return 0xFFFF;
 378:Middlewares/lvgl/src/draw/../misc/lv_color.h **** #elif LV_COLOR_DEPTH == 8
 379:Middlewares/lvgl/src/draw/../misc/lv_color.h ****     lv_color16_t ret;
ARM GAS  /tmp/ccViN4Ah.s 			page 49


 380:Middlewares/lvgl/src/draw/../misc/lv_color.h ****     LV_COLOR_SET_R16(ret, LV_COLOR_GET_R(color) * 4);  /*(2^5 - 1)/(2^3 - 1) = 31/7 = 4*/
 381:Middlewares/lvgl/src/draw/../misc/lv_color.h ****     LV_COLOR_SET_G16(ret, LV_COLOR_GET_G(color) * 9);  /*(2^6 - 1)/(2^3 - 1) = 63/7 = 9*/
 382:Middlewares/lvgl/src/draw/../misc/lv_color.h ****     LV_COLOR_SET_B16(ret, LV_COLOR_GET_B(color) * 10); /*(2^5 - 1)/(2^2 - 1) = 31/3 = 10*/
 383:Middlewares/lvgl/src/draw/../misc/lv_color.h ****     return ret.full;
 384:Middlewares/lvgl/src/draw/../misc/lv_color.h **** #elif LV_COLOR_DEPTH == 16
 385:Middlewares/lvgl/src/draw/../misc/lv_color.h ****     return color.full;
 386:Middlewares/lvgl/src/draw/../misc/lv_color.h **** #elif LV_COLOR_DEPTH == 32
 387:Middlewares/lvgl/src/draw/../misc/lv_color.h ****     lv_color16_t ret;
 388:Middlewares/lvgl/src/draw/../misc/lv_color.h ****     LV_COLOR_SET_R16(ret, LV_COLOR_GET_R(color) >> 3); /*8 - 5  = 3*/
 389:Middlewares/lvgl/src/draw/../misc/lv_color.h ****     LV_COLOR_SET_G16(ret, LV_COLOR_GET_G(color) >> 2); /*8 - 6  = 2*/
 390:Middlewares/lvgl/src/draw/../misc/lv_color.h ****     LV_COLOR_SET_B16(ret, LV_COLOR_GET_B(color) >> 3); /*8 - 5  = 3*/
 391:Middlewares/lvgl/src/draw/../misc/lv_color.h ****     return ret.full;
 392:Middlewares/lvgl/src/draw/../misc/lv_color.h **** #endif
 393:Middlewares/lvgl/src/draw/../misc/lv_color.h **** }
 394:Middlewares/lvgl/src/draw/../misc/lv_color.h **** 
 395:Middlewares/lvgl/src/draw/../misc/lv_color.h **** static inline uint32_t lv_color_to32(lv_color_t color)
 396:Middlewares/lvgl/src/draw/../misc/lv_color.h **** {
 397:Middlewares/lvgl/src/draw/../misc/lv_color.h **** #if LV_COLOR_DEPTH == 1
 398:Middlewares/lvgl/src/draw/../misc/lv_color.h ****     if(color.full == 0)
 399:Middlewares/lvgl/src/draw/../misc/lv_color.h ****         return 0xFF000000;
 400:Middlewares/lvgl/src/draw/../misc/lv_color.h ****     else
 401:Middlewares/lvgl/src/draw/../misc/lv_color.h ****         return 0xFFFFFFFF;
 402:Middlewares/lvgl/src/draw/../misc/lv_color.h **** #elif LV_COLOR_DEPTH == 8
 403:Middlewares/lvgl/src/draw/../misc/lv_color.h ****     lv_color32_t ret;
 404:Middlewares/lvgl/src/draw/../misc/lv_color.h ****     LV_COLOR_SET_R32(ret, LV_COLOR_GET_R(color) * 36); /*(2^8 - 1)/(2^3 - 1) = 255/7 = 36*/
 405:Middlewares/lvgl/src/draw/../misc/lv_color.h ****     LV_COLOR_SET_G32(ret, LV_COLOR_GET_G(color) * 36); /*(2^8 - 1)/(2^3 - 1) = 255/7 = 36*/
 406:Middlewares/lvgl/src/draw/../misc/lv_color.h ****     LV_COLOR_SET_B32(ret, LV_COLOR_GET_B(color) * 85); /*(2^8 - 1)/(2^2 - 1) = 255/3 = 85*/
 407:Middlewares/lvgl/src/draw/../misc/lv_color.h ****     LV_COLOR_SET_A32(ret, 0xFF);
 408:Middlewares/lvgl/src/draw/../misc/lv_color.h ****     return ret.full;
 409:Middlewares/lvgl/src/draw/../misc/lv_color.h **** #elif LV_COLOR_DEPTH == 16
 410:Middlewares/lvgl/src/draw/../misc/lv_color.h ****     /**
 411:Middlewares/lvgl/src/draw/../misc/lv_color.h ****      * The floating point math for conversion is:
 412:Middlewares/lvgl/src/draw/../misc/lv_color.h ****      *  valueto = valuefrom * ( (2^bitsto - 1) / (float)(2^bitsfrom - 1) )
 413:Middlewares/lvgl/src/draw/../misc/lv_color.h ****      * The faster integer math for conversion is:
 414:Middlewares/lvgl/src/draw/../misc/lv_color.h ****      *  valueto = ( valuefrom * multiplier + adder ) >> divisor
 415:Middlewares/lvgl/src/draw/../misc/lv_color.h ****      *   multiplier = FLOOR( ( (2^bitsto - 1) << divisor ) / (float)(2^bitsfrom - 1) )
 416:Middlewares/lvgl/src/draw/../misc/lv_color.h ****      *
 417:Middlewares/lvgl/src/draw/../misc/lv_color.h ****      * Find the first divisor where ( adder >> divisor ) <= 0
 418:Middlewares/lvgl/src/draw/../misc/lv_color.h ****      *
 419:Middlewares/lvgl/src/draw/../misc/lv_color.h ****      * 5-bit to 8-bit: ( 31 * multiplier + adder ) >> divisor = 255
 420:Middlewares/lvgl/src/draw/../misc/lv_color.h ****      * divisor  multiplier  adder  min (0)  max (31)
 421:Middlewares/lvgl/src/draw/../misc/lv_color.h ****      *       0           8      7        7       255
 422:Middlewares/lvgl/src/draw/../misc/lv_color.h ****      *       1          16     14        7       255
 423:Middlewares/lvgl/src/draw/../misc/lv_color.h ****      *       2          32     28        7       255
 424:Middlewares/lvgl/src/draw/../misc/lv_color.h ****      *       3          65     25        3       255
 425:Middlewares/lvgl/src/draw/../misc/lv_color.h ****      *       4         131     19        1       255
 426:Middlewares/lvgl/src/draw/../misc/lv_color.h ****      *       5         263      7        0       255
 427:Middlewares/lvgl/src/draw/../misc/lv_color.h ****      *
 428:Middlewares/lvgl/src/draw/../misc/lv_color.h ****      * 6-bit to 8-bit: 255 = ( 63 * multiplier + adder ) >> divisor
 429:Middlewares/lvgl/src/draw/../misc/lv_color.h ****      * divisor  multiplier  adder  min (0)  max (63)
 430:Middlewares/lvgl/src/draw/../misc/lv_color.h ****      *       0           4      3        3       255
 431:Middlewares/lvgl/src/draw/../misc/lv_color.h ****      *       1           8      6        3       255
 432:Middlewares/lvgl/src/draw/../misc/lv_color.h ****      *       2          16     12        3       255
 433:Middlewares/lvgl/src/draw/../misc/lv_color.h ****      *       3          32     24        3       255
 434:Middlewares/lvgl/src/draw/../misc/lv_color.h ****      *       4          64     48        3       255
 435:Middlewares/lvgl/src/draw/../misc/lv_color.h ****      *       5         129     33        1       255
 436:Middlewares/lvgl/src/draw/../misc/lv_color.h ****      *       6         259      3        0       255
ARM GAS  /tmp/ccViN4Ah.s 			page 50


 437:Middlewares/lvgl/src/draw/../misc/lv_color.h ****      */
 438:Middlewares/lvgl/src/draw/../misc/lv_color.h **** 
 439:Middlewares/lvgl/src/draw/../misc/lv_color.h ****     lv_color32_t ret;
 440:Middlewares/lvgl/src/draw/../misc/lv_color.h ****     LV_COLOR_SET_R32(ret, (LV_COLOR_GET_R(color) * 263 + 7) >> 5);
 441:Middlewares/lvgl/src/draw/../misc/lv_color.h ****     LV_COLOR_SET_G32(ret, (LV_COLOR_GET_G(color) * 259 + 3) >> 6);
 442:Middlewares/lvgl/src/draw/../misc/lv_color.h ****     LV_COLOR_SET_B32(ret, (LV_COLOR_GET_B(color) * 263 + 7) >> 5);
 443:Middlewares/lvgl/src/draw/../misc/lv_color.h ****     LV_COLOR_SET_A32(ret, 0xFF);
 444:Middlewares/lvgl/src/draw/../misc/lv_color.h ****     return ret.full;
 445:Middlewares/lvgl/src/draw/../misc/lv_color.h **** #elif LV_COLOR_DEPTH == 32
 446:Middlewares/lvgl/src/draw/../misc/lv_color.h ****     return color.full;
 447:Middlewares/lvgl/src/draw/../misc/lv_color.h **** #endif
 448:Middlewares/lvgl/src/draw/../misc/lv_color.h **** }
 449:Middlewares/lvgl/src/draw/../misc/lv_color.h **** 
 450:Middlewares/lvgl/src/draw/../misc/lv_color.h **** //! @cond Doxygen_Suppress
 451:Middlewares/lvgl/src/draw/../misc/lv_color.h **** 
 452:Middlewares/lvgl/src/draw/../misc/lv_color.h **** /**
 453:Middlewares/lvgl/src/draw/../misc/lv_color.h ****  * Mix two colors with a given ratio.
 454:Middlewares/lvgl/src/draw/../misc/lv_color.h ****  * @param c1 the first color to mix (usually the foreground)
 455:Middlewares/lvgl/src/draw/../misc/lv_color.h ****  * @param c2 the second color to mix (usually the background)
 456:Middlewares/lvgl/src/draw/../misc/lv_color.h ****  * @param mix The ratio of the colors. 0: full `c2`, 255: full `c1`, 127: half `c1` and half`c2`
 457:Middlewares/lvgl/src/draw/../misc/lv_color.h ****  * @return the mixed color
 458:Middlewares/lvgl/src/draw/../misc/lv_color.h ****  */
 459:Middlewares/lvgl/src/draw/../misc/lv_color.h **** LV_ATTRIBUTE_FAST_MEM static inline lv_color_t lv_color_mix(lv_color_t c1, lv_color_t c2, uint8_t m
 1008              		.loc 3 459 48 view .LVU336
 1009              	.LBB96:
 460:Middlewares/lvgl/src/draw/../misc/lv_color.h **** {
 461:Middlewares/lvgl/src/draw/../misc/lv_color.h ****     lv_color_t ret;
 1010              		.loc 3 461 5 view .LVU337
 462:Middlewares/lvgl/src/draw/../misc/lv_color.h **** #if LV_COLOR_DEPTH != 1
 463:Middlewares/lvgl/src/draw/../misc/lv_color.h ****     /*LV_COLOR_DEPTH == 8, 16 or 32*/
 464:Middlewares/lvgl/src/draw/../misc/lv_color.h ****     LV_COLOR_SET_R(ret, LV_UDIV255((uint16_t) LV_COLOR_GET_R(c1) * mix + LV_COLOR_GET_R(c2) *
 1011              		.loc 3 464 5 view .LVU338
 1012 0042 C0F3C424 		ubfx	r4, r0, #11, #5
 1013 0046 C1F3C42C 		ubfx	ip, r1, #11, #5
 1014              	.LVL99:
 1015              		.loc 3 464 5 is_stmt 0 view .LVU339
 1016 004a C2F1FF03 		rsb	r3, r2, #255
 1017 004e 03FB0CFC 		mul	ip, r3, ip
 1018 0052 02FB04CC 		mla	ip, r2, r4, ip
 1019 0056 0CF1800C 		add	ip, ip, #128
 1020 005a 0CEB0C24 		add	r4, ip, ip, lsl #8
 1021 005e 0CEBC41C 		add	ip, ip, r4, lsl #7
 1022 0062 CCF3C45C 		ubfx	ip, ip, #23, #5
 1023 0066 4FF0000E 		mov	lr, #0	@ movhi
 1024              	.LVL100:
 1025              		.loc 3 464 5 view .LVU340
 1026 006a 6CF3CF2E 		bfi	lr, ip, #11, #5
 1027              	.LVL101:
 465:Middlewares/lvgl/src/draw/../misc/lv_color.h ****                                         (255 - mix) + LV_COLOR_MIX_ROUND_OFS));
 466:Middlewares/lvgl/src/draw/../misc/lv_color.h ****     LV_COLOR_SET_G(ret, LV_UDIV255((uint16_t) LV_COLOR_GET_G(c1) * mix + LV_COLOR_GET_G(c2) *
 1028              		.loc 3 466 5 is_stmt 1 view .LVU341
 1029 006e C0F34514 		ubfx	r4, r0, #5, #6
 1030 0072 C1F3451C 		ubfx	ip, r1, #5, #6
 1031 0076 0CFB03FC 		mul	ip, ip, r3
 1032 007a 04FB02CC 		mla	ip, r4, r2, ip
 1033 007e 0CF1800C 		add	ip, ip, #128
 1034 0082 0CEB0C24 		add	r4, ip, ip, lsl #8
ARM GAS  /tmp/ccViN4Ah.s 			page 51


 1035 0086 0CEBC41C 		add	ip, ip, r4, lsl #7
 1036 008a CCF3C55C 		ubfx	ip, ip, #23, #6
 1037 008e 6CF34A1E 		bfi	lr, ip, #5, #6
 467:Middlewares/lvgl/src/draw/../misc/lv_color.h ****                                         (255 - mix) + LV_COLOR_MIX_ROUND_OFS));
 468:Middlewares/lvgl/src/draw/../misc/lv_color.h ****     LV_COLOR_SET_B(ret, LV_UDIV255((uint16_t) LV_COLOR_GET_B(c1) * mix + LV_COLOR_GET_B(c2) *
 1038              		.loc 3 468 5 view .LVU342
 1039 0092 00F01F0C 		and	ip, r0, #31
 1040 0096 01F01F01 		and	r1, r1, #31
 1041              	.LVL102:
 1042              		.loc 3 468 5 is_stmt 0 view .LVU343
 1043 009a 01FB03F3 		mul	r3, r1, r3
 1044 009e 0CFB0232 		mla	r2, ip, r2, r3
 1045              	.LVL103:
 1046              		.loc 3 468 5 view .LVU344
 1047 00a2 8032     		adds	r2, r2, #128
 1048 00a4 02EB0220 		add	r0, r2, r2, lsl #8
 1049              	.LVL104:
 1050              		.loc 3 468 5 view .LVU345
 1051 00a8 02EBC012 		add	r2, r2, r0, lsl #7
 1052 00ac C2F3C452 		ubfx	r2, r2, #23, #5
 1053 00b0 62F3040E 		bfi	lr, r2, #0, #5
 469:Middlewares/lvgl/src/draw/../misc/lv_color.h ****                                         (255 - mix) + LV_COLOR_MIX_ROUND_OFS));
 470:Middlewares/lvgl/src/draw/../misc/lv_color.h ****     LV_COLOR_SET_A(ret, 0xFF);
 1054              		.loc 3 470 5 is_stmt 1 view .LVU346
 1055              		.loc 3 470 5 view .LVU347
 1056              		.loc 3 470 5 view .LVU348
 471:Middlewares/lvgl/src/draw/../misc/lv_color.h **** #else
 472:Middlewares/lvgl/src/draw/../misc/lv_color.h ****     /*LV_COLOR_DEPTH == 1*/
 473:Middlewares/lvgl/src/draw/../misc/lv_color.h ****     ret.full = mix > LV_OPA_50 ? c1.full : c2.full;
 474:Middlewares/lvgl/src/draw/../misc/lv_color.h **** #endif
 475:Middlewares/lvgl/src/draw/../misc/lv_color.h **** 
 476:Middlewares/lvgl/src/draw/../misc/lv_color.h ****     return ret;
 1057              		.loc 3 476 5 view .LVU349
 1058 00b4 7046     		mov	r0, lr	@ movhi
 1059              	.LVL105:
 1060              		.loc 3 476 5 is_stmt 0 view .LVU350
 1061              	.LBE96:
 1062              	.LBE95:
1024:Middlewares/lvgl/src/draw/lv_draw_blend.c **** }
 1063              		.loc 1 1024 1 view .LVU351
 1064 00b6 10BD     		pop	{r4, pc}
 1065              	.LVL106:
 1066              	.L59:
 1067              	.LCFI10:
 1068              		.cfi_def_cfa_offset 0
 1069              		.cfi_restore 4
 1070              		.cfi_restore 14
 1071              	.LVL107:
 1072              		.loc 1 1024 1 view .LVU352
 1073 00b8 7047     		bx	lr
 1074              		.cfi_endproc
 1075              	.LFE155:
 1077              		.section	.text.color_blend_true_color_subtractive,"ax",%progbits
 1078              		.align	1
 1079              		.syntax unified
 1080              		.thumb
 1081              		.thumb_func
ARM GAS  /tmp/ccViN4Ah.s 			page 52


 1082              		.fpu fpv4-sp-d16
 1084              	color_blend_true_color_subtractive:
 1085              	.LVL108:
 1086              	.LFB156:
1025:Middlewares/lvgl/src/draw/lv_draw_blend.c **** 
1026:Middlewares/lvgl/src/draw/lv_draw_blend.c **** static inline lv_color_t color_blend_true_color_subtractive(lv_color_t fg, lv_color_t bg, lv_opa_t 
1027:Middlewares/lvgl/src/draw/lv_draw_blend.c **** {
 1087              		.loc 1 1027 1 is_stmt 1 view -0
 1088              		.cfi_startproc
 1089              		@ args = 0, pretend = 0, frame = 0
 1090              		@ frame_needed = 0, uses_anonymous_args = 0
1028:Middlewares/lvgl/src/draw/lv_draw_blend.c **** 
1029:Middlewares/lvgl/src/draw/lv_draw_blend.c ****     if(opa <= LV_OPA_MIN) return bg;
 1091              		.loc 1 1029 5 view .LVU354
 1092              		.loc 1 1029 7 is_stmt 0 view .LVU355
 1093 0000 022A     		cmp	r2, #2
 1094 0002 5BD9     		bls	.L70
1030:Middlewares/lvgl/src/draw/lv_draw_blend.c **** 
1031:Middlewares/lvgl/src/draw/lv_draw_blend.c ****     int32_t tmp;
 1095              		.loc 1 1031 5 is_stmt 1 view .LVU356
1032:Middlewares/lvgl/src/draw/lv_draw_blend.c ****     tmp = bg.ch.red - fg.ch.red;
 1096              		.loc 1 1032 5 view .LVU357
 1097              		.loc 1 1032 16 is_stmt 0 view .LVU358
 1098 0004 C1F3C423 		ubfx	r3, r1, #11, #5
 1099              		.loc 1 1032 28 view .LVU359
 1100 0008 C0F3C42C 		ubfx	ip, r0, #11, #5
 1101              		.loc 1 1032 9 view .LVU360
 1102 000c A3EB0C03 		sub	r3, r3, ip
 1103              	.LVL109:
1033:Middlewares/lvgl/src/draw/lv_draw_blend.c ****     fg.ch.red = LV_MAX(tmp, 0);
 1104              		.loc 1 1033 5 is_stmt 1 view .LVU361
 1105              		.loc 1 1033 17 is_stmt 0 view .LVU362
 1106 0010 23EAE373 		bic	r3, r3, r3, asr #31
 1107              	.LVL110:
 1108              		.loc 1 1033 15 view .LVU363
 1109 0014 63F3CF20 		bfi	r0, r3, #11, #5
1034:Middlewares/lvgl/src/draw/lv_draw_blend.c **** 
1035:Middlewares/lvgl/src/draw/lv_draw_blend.c **** #if LV_COLOR_16_SWAP == 0
1036:Middlewares/lvgl/src/draw/lv_draw_blend.c ****     tmp = bg.ch.green - fg.ch.green;
 1110              		.loc 1 1036 5 is_stmt 1 view .LVU364
 1111              		.loc 1 1036 16 is_stmt 0 view .LVU365
 1112 0018 C1F34513 		ubfx	r3, r1, #5, #6
 1113              		.loc 1 1036 30 view .LVU366
 1114 001c C0F3451C 		ubfx	ip, r0, #5, #6
 1115              	.LVL111:
 1116              		.loc 1 1036 9 view .LVU367
 1117 0020 A3EB0C03 		sub	r3, r3, ip
 1118              	.LVL112:
1037:Middlewares/lvgl/src/draw/lv_draw_blend.c ****     fg.ch.green = LV_MAX(tmp, 0);
 1119              		.loc 1 1037 5 is_stmt 1 view .LVU368
 1120              		.loc 1 1037 19 is_stmt 0 view .LVU369
 1121 0024 23EAE373 		bic	r3, r3, r3, asr #31
 1122              	.LVL113:
 1123              		.loc 1 1037 17 view .LVU370
 1124 0028 63F34A10 		bfi	r0, r3, #5, #6
1038:Middlewares/lvgl/src/draw/lv_draw_blend.c **** #else
1039:Middlewares/lvgl/src/draw/lv_draw_blend.c ****     tmp = (bg.ch.green_h << 3) + bg.ch.green_l + (fg.ch.green_h << 3) + fg.ch.green_l;
ARM GAS  /tmp/ccViN4Ah.s 			page 53


1040:Middlewares/lvgl/src/draw/lv_draw_blend.c ****     tmp = LV_MAX(tmp, 0);
1041:Middlewares/lvgl/src/draw/lv_draw_blend.c ****     fg.ch.green_h = tmp >> 3;
1042:Middlewares/lvgl/src/draw/lv_draw_blend.c ****     fg.ch.green_l = tmp & 0x7;
1043:Middlewares/lvgl/src/draw/lv_draw_blend.c **** #endif
1044:Middlewares/lvgl/src/draw/lv_draw_blend.c **** 
1045:Middlewares/lvgl/src/draw/lv_draw_blend.c ****     tmp = bg.ch.blue - fg.ch.blue;
 1125              		.loc 1 1045 5 is_stmt 1 view .LVU371
 1126              		.loc 1 1045 16 is_stmt 0 view .LVU372
 1127 002c 01F01F03 		and	r3, r1, #31
 1128              		.loc 1 1045 29 view .LVU373
 1129 0030 00F01F0C 		and	ip, r0, #31
 1130              	.LVL114:
 1131              		.loc 1 1045 9 view .LVU374
 1132 0034 A3EB0C03 		sub	r3, r3, ip
 1133              	.LVL115:
1046:Middlewares/lvgl/src/draw/lv_draw_blend.c ****     fg.ch.blue = LV_MAX(tmp, 0);
 1134              		.loc 1 1046 5 is_stmt 1 view .LVU375
 1135              		.loc 1 1046 18 is_stmt 0 view .LVU376
 1136 0038 23EAE373 		bic	r3, r3, r3, asr #31
 1137              	.LVL116:
 1138              		.loc 1 1046 16 view .LVU377
 1139 003c 63F30400 		bfi	r0, r3, #0, #5
1047:Middlewares/lvgl/src/draw/lv_draw_blend.c **** 
1048:Middlewares/lvgl/src/draw/lv_draw_blend.c ****     if(opa == LV_OPA_COVER) return fg;
 1140              		.loc 1 1048 5 is_stmt 1 view .LVU378
 1141              		.loc 1 1048 7 is_stmt 0 view .LVU379
 1142 0040 FF2A     		cmp	r2, #255
 1143 0042 3DD0     		beq	.L67
1027:Middlewares/lvgl/src/draw/lv_draw_blend.c **** 
 1144              		.loc 1 1027 1 view .LVU380
 1145 0044 10B5     		push	{r4, lr}
 1146              	.LCFI11:
 1147              		.cfi_def_cfa_offset 8
 1148              		.cfi_offset 4, -8
 1149              		.cfi_offset 14, -4
1049:Middlewares/lvgl/src/draw/lv_draw_blend.c **** 
1050:Middlewares/lvgl/src/draw/lv_draw_blend.c ****     return lv_color_mix(fg, bg, opa);
 1150              		.loc 1 1050 5 is_stmt 1 view .LVU381
 1151              	.LVL117:
 1152              	.LBB99:
 1153              	.LBI99:
 459:Middlewares/lvgl/src/draw/../misc/lv_color.h **** {
 1154              		.loc 3 459 48 view .LVU382
 1155              	.LBB100:
 461:Middlewares/lvgl/src/draw/../misc/lv_color.h **** #if LV_COLOR_DEPTH != 1
 1156              		.loc 3 461 5 view .LVU383
 464:Middlewares/lvgl/src/draw/../misc/lv_color.h ****                                         (255 - mix) + LV_COLOR_MIX_ROUND_OFS));
 1157              		.loc 3 464 5 view .LVU384
 1158 0046 C0F3C424 		ubfx	r4, r0, #11, #5
 1159 004a C1F3C42C 		ubfx	ip, r1, #11, #5
 1160              	.LVL118:
 464:Middlewares/lvgl/src/draw/../misc/lv_color.h ****                                         (255 - mix) + LV_COLOR_MIX_ROUND_OFS));
 1161              		.loc 3 464 5 is_stmt 0 view .LVU385
 1162 004e C2F1FF03 		rsb	r3, r2, #255
 1163 0052 03FB0CFC 		mul	ip, r3, ip
 1164 0056 02FB04CC 		mla	ip, r2, r4, ip
 1165 005a 0CF1800C 		add	ip, ip, #128
ARM GAS  /tmp/ccViN4Ah.s 			page 54


 1166 005e 0CEB0C24 		add	r4, ip, ip, lsl #8
 1167 0062 0CEBC41C 		add	ip, ip, r4, lsl #7
 1168 0066 CCF3C45C 		ubfx	ip, ip, #23, #5
 1169 006a 4FF0000E 		mov	lr, #0	@ movhi
 1170              	.LVL119:
 464:Middlewares/lvgl/src/draw/../misc/lv_color.h ****                                         (255 - mix) + LV_COLOR_MIX_ROUND_OFS));
 1171              		.loc 3 464 5 view .LVU386
 1172 006e 6CF3CF2E 		bfi	lr, ip, #11, #5
 1173              	.LVL120:
 466:Middlewares/lvgl/src/draw/../misc/lv_color.h ****                                         (255 - mix) + LV_COLOR_MIX_ROUND_OFS));
 1174              		.loc 3 466 5 is_stmt 1 view .LVU387
 1175 0072 C0F34514 		ubfx	r4, r0, #5, #6
 1176 0076 C1F3451C 		ubfx	ip, r1, #5, #6
 1177 007a 0CFB03FC 		mul	ip, ip, r3
 1178 007e 04FB02CC 		mla	ip, r4, r2, ip
 1179 0082 0CF1800C 		add	ip, ip, #128
 1180 0086 0CEB0C24 		add	r4, ip, ip, lsl #8
 1181 008a 0CEBC41C 		add	ip, ip, r4, lsl #7
 1182 008e CCF3C55C 		ubfx	ip, ip, #23, #6
 1183 0092 6CF34A1E 		bfi	lr, ip, #5, #6
 468:Middlewares/lvgl/src/draw/../misc/lv_color.h ****                                         (255 - mix) + LV_COLOR_MIX_ROUND_OFS));
 1184              		.loc 3 468 5 view .LVU388
 1185 0096 00F01F0C 		and	ip, r0, #31
 1186 009a 01F01F01 		and	r1, r1, #31
 1187              	.LVL121:
 468:Middlewares/lvgl/src/draw/../misc/lv_color.h ****                                         (255 - mix) + LV_COLOR_MIX_ROUND_OFS));
 1188              		.loc 3 468 5 is_stmt 0 view .LVU389
 1189 009e 01FB03F3 		mul	r3, r1, r3
 1190 00a2 0CFB0232 		mla	r2, ip, r2, r3
 1191              	.LVL122:
 468:Middlewares/lvgl/src/draw/../misc/lv_color.h ****                                         (255 - mix) + LV_COLOR_MIX_ROUND_OFS));
 1192              		.loc 3 468 5 view .LVU390
 1193 00a6 8032     		adds	r2, r2, #128
 1194 00a8 02EB0220 		add	r0, r2, r2, lsl #8
 1195              	.LVL123:
 468:Middlewares/lvgl/src/draw/../misc/lv_color.h ****                                         (255 - mix) + LV_COLOR_MIX_ROUND_OFS));
 1196              		.loc 3 468 5 view .LVU391
 1197 00ac 02EBC012 		add	r2, r2, r0, lsl #7
 1198 00b0 C2F3C452 		ubfx	r2, r2, #23, #5
 1199 00b4 62F3040E 		bfi	lr, r2, #0, #5
 470:Middlewares/lvgl/src/draw/../misc/lv_color.h **** #else
 1200              		.loc 3 470 5 is_stmt 1 view .LVU392
 470:Middlewares/lvgl/src/draw/../misc/lv_color.h **** #else
 1201              		.loc 3 470 5 view .LVU393
 470:Middlewares/lvgl/src/draw/../misc/lv_color.h **** #else
 1202              		.loc 3 470 5 view .LVU394
 1203              		.loc 3 476 5 view .LVU395
 1204 00b8 7046     		mov	r0, lr	@ movhi
 1205              	.LVL124:
 1206              		.loc 3 476 5 is_stmt 0 view .LVU396
 1207              	.LBE100:
 1208              	.LBE99:
1051:Middlewares/lvgl/src/draw/lv_draw_blend.c **** }
 1209              		.loc 1 1051 1 view .LVU397
 1210 00ba 10BD     		pop	{r4, pc}
 1211              	.LVL125:
 1212              	.L70:
ARM GAS  /tmp/ccViN4Ah.s 			page 55


 1213              	.LCFI12:
 1214              		.cfi_def_cfa_offset 0
 1215              		.cfi_restore 4
 1216              		.cfi_restore 14
1029:Middlewares/lvgl/src/draw/lv_draw_blend.c **** 
 1217              		.loc 1 1029 27 is_stmt 1 discriminator 1 view .LVU398
1029:Middlewares/lvgl/src/draw/lv_draw_blend.c **** 
 1218              		.loc 1 1029 34 is_stmt 0 discriminator 1 view .LVU399
 1219 00bc 0846     		mov	r0, r1	@ movhi
 1220              	.LVL126:
1029:Middlewares/lvgl/src/draw/lv_draw_blend.c **** 
 1221              		.loc 1 1029 34 discriminator 1 view .LVU400
 1222 00be 7047     		bx	lr
 1223              	.LVL127:
 1224              	.L67:
 1225              	.LVL128:
 1226              		.loc 1 1051 1 view .LVU401
 1227 00c0 7047     		bx	lr
 1228              		.cfi_endproc
 1229              	.LFE156:
 1231              		.section	.text.map_normal,"ax",%progbits
 1232              		.align	1
 1233              		.syntax unified
 1234              		.thumb
 1235              		.thumb_func
 1236              		.fpu fpv4-sp-d16
 1238              	map_normal:
 1239              	.LVL129:
 1240              	.LFB153:
 660:Middlewares/lvgl/src/draw/lv_draw_blend.c **** 
 1241              		.loc 1 660 1 is_stmt 1 view -0
 1242              		.cfi_startproc
 1243              		@ args = 16, pretend = 0, frame = 48
 1244              		@ frame_needed = 0, uses_anonymous_args = 0
 660:Middlewares/lvgl/src/draw/lv_draw_blend.c **** 
 1245              		.loc 1 660 1 is_stmt 0 view .LVU403
 1246 0000 2DE9F04F 		push	{r4, r5, r6, r7, r8, r9, r10, fp, lr}
 1247              	.LCFI13:
 1248              		.cfi_def_cfa_offset 36
 1249              		.cfi_offset 4, -36
 1250              		.cfi_offset 5, -32
 1251              		.cfi_offset 6, -28
 1252              		.cfi_offset 7, -24
 1253              		.cfi_offset 8, -20
 1254              		.cfi_offset 9, -16
 1255              		.cfi_offset 10, -12
 1256              		.cfi_offset 11, -8
 1257              		.cfi_offset 14, -4
 1258 0004 8DB0     		sub	sp, sp, #52
 1259              	.LCFI14:
 1260              		.cfi_def_cfa_offset 88
 1261 0006 0391     		str	r1, [sp, #12]
 1262 0008 9DF85C80 		ldrb	r8, [sp, #92]	@ zero_extendqisi2
 663:Middlewares/lvgl/src/draw/lv_draw_blend.c **** 
 1263              		.loc 1 663 5 is_stmt 1 view .LVU404
 1264              	.LVL130:
 1265              	.LBB128:
ARM GAS  /tmp/ccViN4Ah.s 			page 56


 1266              	.LBI128:
 133:Middlewares/lvgl/src/draw/../misc/lv_area.h **** {
 1267              		.loc 2 133 26 view .LVU405
 1268              	.LBB129:
 1269              		.loc 2 135 5 view .LVU406
 1270              		.loc 2 135 31 is_stmt 0 view .LVU407
 1271 000c 8188     		ldrh	r1, [r0, #4]
 1272              	.LVL131:
 1273              		.loc 2 135 44 view .LVU408
 1274 000e B0F90040 		ldrsh	r4, [r0]
 1275 0012 0194     		str	r4, [sp, #4]
 1276 0014 BDF80440 		ldrh	r4, [sp, #4]
 1277              		.loc 2 135 36 view .LVU409
 1278 0018 091B     		subs	r1, r1, r4
 1279 001a 89B2     		uxth	r1, r1
 1280              		.loc 2 135 49 view .LVU410
 1281 001c 0131     		adds	r1, r1, #1
 1282              		.loc 2 135 12 view .LVU411
 1283 001e 0DB2     		sxth	r5, r1
 1284 0020 0595     		str	r5, [sp, #20]
 1285              	.LVL132:
 1286              		.loc 2 135 12 view .LVU412
 1287              	.LBE129:
 1288              	.LBE128:
 665:Middlewares/lvgl/src/draw/lv_draw_blend.c ****     int32_t draw_area_h = lv_area_get_height(draw_area);
 1289              		.loc 1 665 5 is_stmt 1 view .LVU413
 1290              	.LBB130:
 1291              	.LBI130:
 133:Middlewares/lvgl/src/draw/../misc/lv_area.h **** {
 1292              		.loc 2 133 26 view .LVU414
 1293              	.LBB131:
 1294              		.loc 2 135 5 view .LVU415
 1295              		.loc 2 135 31 is_stmt 0 view .LVU416
 1296 0022 9188     		ldrh	r1, [r2, #4]
 1297              		.loc 2 135 44 view .LVU417
 1298 0024 B2F90060 		ldrsh	r6, [r2]
 1299 0028 B4B2     		uxth	r4, r6
 1300              		.loc 2 135 36 view .LVU418
 1301 002a 0D1B     		subs	r5, r1, r4
 1302              	.LVL133:
 1303              		.loc 2 135 36 view .LVU419
 1304 002c ADB2     		uxth	r5, r5
 1305              		.loc 2 135 49 view .LVU420
 1306 002e 0135     		adds	r5, r5, #1
 1307              		.loc 2 135 12 view .LVU421
 1308 0030 2DB2     		sxth	r5, r5
 1309              	.LVL134:
 1310              		.loc 2 135 12 view .LVU422
 1311              	.LBE131:
 1312              	.LBE130:
 666:Middlewares/lvgl/src/draw/lv_draw_blend.c **** 
 1313              		.loc 1 666 5 is_stmt 1 view .LVU423
 1314              	.LBB132:
 1315              	.LBI132:
 136:Middlewares/lvgl/src/draw/../misc/lv_area.h **** }
 137:Middlewares/lvgl/src/draw/../misc/lv_area.h **** 
 138:Middlewares/lvgl/src/draw/../misc/lv_area.h **** /**
ARM GAS  /tmp/ccViN4Ah.s 			page 57


 139:Middlewares/lvgl/src/draw/../misc/lv_area.h ****  * Get the height of an area
 140:Middlewares/lvgl/src/draw/../misc/lv_area.h ****  * @param area_p pointer to an area
 141:Middlewares/lvgl/src/draw/../misc/lv_area.h ****  * @return the height of the area (if y1 == y2 -> height = 1)
 142:Middlewares/lvgl/src/draw/../misc/lv_area.h ****  */
 143:Middlewares/lvgl/src/draw/../misc/lv_area.h **** static inline lv_coord_t lv_area_get_height(const lv_area_t * area_p)
 1316              		.loc 2 143 26 view .LVU424
 1317              	.LBB133:
 144:Middlewares/lvgl/src/draw/../misc/lv_area.h **** {
 145:Middlewares/lvgl/src/draw/../misc/lv_area.h ****     return (lv_coord_t)(area_p->y2 - area_p->y1 + 1);
 1318              		.loc 2 145 5 view .LVU425
 1319              		.loc 2 145 31 is_stmt 0 view .LVU426
 1320 0032 D188     		ldrh	r1, [r2, #6]
 1321              		.loc 2 145 44 view .LVU427
 1322 0034 B2F902B0 		ldrsh	fp, [r2, #2]
 1323 0038 1FFA8BF2 		uxth	r2, fp
 1324              	.LVL135:
 1325              		.loc 2 145 36 view .LVU428
 1326 003c 8A1A     		subs	r2, r1, r2
 1327 003e 92B2     		uxth	r2, r2
 1328              		.loc 2 145 49 view .LVU429
 1329 0040 0132     		adds	r2, r2, #1
 1330              		.loc 2 145 12 view .LVU430
 1331 0042 0FFA82FA 		sxth	r10, r2
 1332 0046 CDF818A0 		str	r10, [sp, #24]
 1333              	.LVL136:
 1334              		.loc 2 145 12 view .LVU431
 1335              	.LBE133:
 1336              	.LBE132:
 669:Middlewares/lvgl/src/draw/lv_draw_blend.c **** 
 1337              		.loc 1 669 5 is_stmt 1 view .LVU432
 1338              	.LBB134:
 1339              	.LBI134:
 133:Middlewares/lvgl/src/draw/../misc/lv_area.h **** {
 1340              		.loc 2 133 26 view .LVU433
 1341              	.LBB135:
 135:Middlewares/lvgl/src/draw/../misc/lv_area.h **** }
 1342              		.loc 2 135 5 view .LVU434
 135:Middlewares/lvgl/src/draw/../misc/lv_area.h **** }
 1343              		.loc 2 135 31 is_stmt 0 view .LVU435
 1344 004a 9A88     		ldrh	r2, [r3, #4]
 135:Middlewares/lvgl/src/draw/../misc/lv_area.h **** }
 1345              		.loc 2 135 44 view .LVU436
 1346 004c B3F900A0 		ldrsh	r10, [r3]
 1347              	.LVL137:
 135:Middlewares/lvgl/src/draw/../misc/lv_area.h **** }
 1348              		.loc 2 135 44 view .LVU437
 1349 0050 1FFA8AF1 		uxth	r1, r10
 135:Middlewares/lvgl/src/draw/../misc/lv_area.h **** }
 1350              		.loc 2 135 36 view .LVU438
 1351 0054 521A     		subs	r2, r2, r1
 1352 0056 92B2     		uxth	r2, r2
 135:Middlewares/lvgl/src/draw/../misc/lv_area.h **** }
 1353              		.loc 2 135 49 view .LVU439
 1354 0058 0132     		adds	r2, r2, #1
 135:Middlewares/lvgl/src/draw/../misc/lv_area.h **** }
 1355              		.loc 2 135 12 view .LVU440
 1356 005a 11B2     		sxth	r1, r2
ARM GAS  /tmp/ccViN4Ah.s 			page 58


 1357 005c 0491     		str	r1, [sp, #16]
 1358              	.LVL138:
 135:Middlewares/lvgl/src/draw/../misc/lv_area.h **** }
 1359              		.loc 2 135 12 view .LVU441
 1360              	.LBE135:
 1361              	.LBE134:
 672:Middlewares/lvgl/src/draw/lv_draw_blend.c **** 
 1362              		.loc 1 672 5 is_stmt 1 view .LVU442
 672:Middlewares/lvgl/src/draw/lv_draw_blend.c **** 
 1363              		.loc 1 672 69 is_stmt 0 view .LVU443
 1364 005e 059C     		ldr	r4, [sp, #20]
 1365 0060 04FB0B64 		mla	r4, r4, fp, r6
 672:Middlewares/lvgl/src/draw/lv_draw_blend.c **** 
 1366              		.loc 1 672 18 view .LVU444
 1367 0064 039A     		ldr	r2, [sp, #12]
 1368 0066 02EB4404 		add	r4, r2, r4, lsl #1
 1369              	.LVL139:
 675:Middlewares/lvgl/src/draw/lv_draw_blend.c ****     map_buf_first += (draw_area->x1 - (map_area->x1 - disp_area->x1));
 1370              		.loc 1 675 5 is_stmt 1 view .LVU445
 675:Middlewares/lvgl/src/draw/lv_draw_blend.c ****     map_buf_first += (draw_area->x1 - (map_area->x1 - disp_area->x1));
 1371              		.loc 1 675 84 is_stmt 0 view .LVU446
 1372 006a B3F90230 		ldrsh	r3, [r3, #2]
 1373              	.LVL140:
 675:Middlewares/lvgl/src/draw/lv_draw_blend.c ****     map_buf_first += (draw_area->x1 - (map_area->x1 - disp_area->x1));
 1374              		.loc 1 675 100 view .LVU447
 1375 006e B0F90220 		ldrsh	r2, [r0, #2]
 675:Middlewares/lvgl/src/draw/lv_draw_blend.c ****     map_buf_first += (draw_area->x1 - (map_area->x1 - disp_area->x1));
 1376              		.loc 1 675 89 view .LVU448
 1377 0072 9B1A     		subs	r3, r3, r2
 675:Middlewares/lvgl/src/draw/lv_draw_blend.c ****     map_buf_first += (draw_area->x1 - (map_area->x1 - disp_area->x1));
 1378              		.loc 1 675 73 view .LVU449
 1379 0074 ABEB0303 		sub	r3, fp, r3
 1380              	.LVL141:
 676:Middlewares/lvgl/src/draw/lv_draw_blend.c **** 
 1381              		.loc 1 676 5 is_stmt 1 view .LVU450
 676:Middlewares/lvgl/src/draw/lv_draw_blend.c **** 
 1382              		.loc 1 676 53 is_stmt 0 view .LVU451
 1383 0078 019A     		ldr	r2, [sp, #4]
 1384 007a AAEB020A 		sub	r10, r10, r2
 676:Middlewares/lvgl/src/draw/lv_draw_blend.c **** 
 1385              		.loc 1 676 37 view .LVU452
 1386 007e A6EB0A06 		sub	r6, r6, r10
 676:Middlewares/lvgl/src/draw/lv_draw_blend.c **** 
 1387              		.loc 1 676 19 view .LVU453
 1388 0082 01FB0363 		mla	r3, r1, r3, r6
 1389              	.LVL142:
 676:Middlewares/lvgl/src/draw/lv_draw_blend.c **** 
 1390              		.loc 1 676 19 view .LVU454
 1391 0086 169E     		ldr	r6, [sp, #88]
 1392 0088 06EB4306 		add	r6, r6, r3, lsl #1
 1393              	.LVL143:
 682:Middlewares/lvgl/src/draw/lv_draw_blend.c ****     int32_t y;
 1394              		.loc 1 682 5 is_stmt 1 view .LVU455
 683:Middlewares/lvgl/src/draw/lv_draw_blend.c **** 
 1395              		.loc 1 683 5 view .LVU456
 686:Middlewares/lvgl/src/draw/lv_draw_blend.c ****         if(opa > LV_OPA_MAX) {
 1396              		.loc 1 686 5 view .LVU457
ARM GAS  /tmp/ccViN4Ah.s 			page 59


 686:Middlewares/lvgl/src/draw/lv_draw_blend.c ****         if(opa > LV_OPA_MAX) {
 1397              		.loc 1 686 7 is_stmt 0 view .LVU458
 1398 008c 9DF86430 		ldrb	r3, [sp, #100]	@ zero_extendqisi2
 1399 0090 012B     		cmp	r3, #1
 1400 0092 08D0     		beq	.L113
 803:Middlewares/lvgl/src/draw/lv_draw_blend.c ****             /*Go to the first pixel of the row*/
 1401              		.loc 1 803 9 is_stmt 1 view .LVU459
 803:Middlewares/lvgl/src/draw/lv_draw_blend.c ****             /*Go to the first pixel of the row*/
 1402              		.loc 1 803 11 is_stmt 0 view .LVU460
 1403 0094 B8F1FD0F 		cmp	r8, #253
 1404 0098 40F2F082 		bls	.L107
 1405              	.LBB136:
 806:Middlewares/lvgl/src/draw/lv_draw_blend.c **** 
 1406              		.loc 1 806 13 is_stmt 1 view .LVU461
 806:Middlewares/lvgl/src/draw/lv_draw_blend.c **** 
 1407              		.loc 1 806 21 is_stmt 0 view .LVU462
 1408 009c 2B1F     		subs	r3, r5, #4
 1409 009e 0193     		str	r3, [sp, #4]
 1410              	.LVL144:
 808:Middlewares/lvgl/src/draw/lv_draw_blend.c ****                 const lv_opa_t * mask_tmp_x = mask;
 1411              		.loc 1 808 13 is_stmt 1 view .LVU463
 808:Middlewares/lvgl/src/draw/lv_draw_blend.c ****                 const lv_opa_t * mask_tmp_x = mask;
 1412              		.loc 1 808 19 is_stmt 0 view .LVU464
 1413 00a0 0023     		movs	r3, #0
 1414              	.LVL145:
 808:Middlewares/lvgl/src/draw/lv_draw_blend.c ****                 const lv_opa_t * mask_tmp_x = mask;
 1415              		.loc 1 808 19 view .LVU465
 1416 00a2 0393     		str	r3, [sp, #12]
 1417              	.LVL146:
 808:Middlewares/lvgl/src/draw/lv_draw_blend.c ****                 const lv_opa_t * mask_tmp_x = mask;
 1418              		.loc 1 808 13 view .LVU466
 1419 00a4 88E2     		b	.L80
 1420              	.LVL147:
 1421              	.L113:
 808:Middlewares/lvgl/src/draw/lv_draw_blend.c ****                 const lv_opa_t * mask_tmp_x = mask;
 1422              		.loc 1 808 13 view .LVU467
 1423              	.LBE136:
 687:Middlewares/lvgl/src/draw/lv_draw_blend.c **** #if LV_USE_GPU_NXP_PXP
 1424              		.loc 1 687 9 is_stmt 1 view .LVU468
 687:Middlewares/lvgl/src/draw/lv_draw_blend.c **** #if LV_USE_GPU_NXP_PXP
 1425              		.loc 1 687 11 is_stmt 0 view .LVU469
 1426 00a6 B8F1FD0F 		cmp	r8, #253
 1427 00aa 15D8     		bhi	.L105
 782:Middlewares/lvgl/src/draw/lv_draw_blend.c ****                 for(x = 0; x < draw_area_w; x++) {
 1428              		.loc 1 782 19 view .LVU470
 1429 00ac 4FF0000C 		mov	ip, #0
 1430 00b0 DDF818E0 		ldr	lr, [sp, #24]
 1431 00b4 DDF814A0 		ldr	r10, [sp, #20]
 1432 00b8 5BE0     		b	.L74
 1433              	.LVL148:
 1434              	.L75:
 732:Middlewares/lvgl/src/draw/lv_draw_blend.c ****                 disp_buf_first += disp_w;
 1435              		.loc 1 732 17 is_stmt 1 discriminator 3 view .LVU471
 1436 00ba 6A00     		lsls	r2, r5, #1
 1437 00bc 3146     		mov	r1, r6
 1438 00be 2046     		mov	r0, r4
 1439 00c0 FFF7FEFF 		bl	lv_memcpy
ARM GAS  /tmp/ccViN4Ah.s 			page 60


 1440              	.LVL149:
 733:Middlewares/lvgl/src/draw/lv_draw_blend.c ****                 map_buf_first += map_w;
 1441              		.loc 1 733 17 discriminator 3 view .LVU472
 733:Middlewares/lvgl/src/draw/lv_draw_blend.c ****                 map_buf_first += map_w;
 1442              		.loc 1 733 32 is_stmt 0 discriminator 3 view .LVU473
 1443 00c4 04EB4A04 		add	r4, r4, r10, lsl #1
 1444              	.LVL150:
 734:Middlewares/lvgl/src/draw/lv_draw_blend.c ****             }
 1445              		.loc 1 734 17 is_stmt 1 discriminator 3 view .LVU474
 734:Middlewares/lvgl/src/draw/lv_draw_blend.c ****             }
 1446              		.loc 1 734 31 is_stmt 0 discriminator 3 view .LVU475
 1447 00c8 06EB4906 		add	r6, r6, r9, lsl #1
 1448              	.LVL151:
 731:Middlewares/lvgl/src/draw/lv_draw_blend.c ****                 lv_memcpy(disp_buf_first, map_buf_first, draw_area_w * sizeof(lv_color_t));
 1449              		.loc 1 731 41 is_stmt 1 discriminator 3 view .LVU476
 731:Middlewares/lvgl/src/draw/lv_draw_blend.c ****                 lv_memcpy(disp_buf_first, map_buf_first, draw_area_w * sizeof(lv_color_t));
 1450              		.loc 1 731 42 is_stmt 0 discriminator 3 view .LVU477
 1451 00cc 0137     		adds	r7, r7, #1
 1452              	.LVL152:
 1453              	.L73:
 731:Middlewares/lvgl/src/draw/lv_draw_blend.c ****                 lv_memcpy(disp_buf_first, map_buf_first, draw_area_w * sizeof(lv_color_t));
 1454              		.loc 1 731 24 is_stmt 1 discriminator 1 view .LVU478
 731:Middlewares/lvgl/src/draw/lv_draw_blend.c ****                 lv_memcpy(disp_buf_first, map_buf_first, draw_area_w * sizeof(lv_color_t));
 1455              		.loc 1 731 13 is_stmt 0 discriminator 1 view .LVU479
 1456 00ce 4745     		cmp	r7, r8
 1457 00d0 F3DB     		blt	.L75
 1458              	.LVL153:
 1459              	.L71:
 888:Middlewares/lvgl/src/draw/lv_draw_blend.c **** #if LV_DRAW_COMPLEX
 1460              		.loc 1 888 1 view .LVU480
 1461 00d2 0DB0     		add	sp, sp, #52
 1462              	.LCFI15:
 1463              		.cfi_remember_state
 1464              		.cfi_def_cfa_offset 36
 1465              		@ sp needed
 1466 00d4 BDE8F08F 		pop	{r4, r5, r6, r7, r8, r9, r10, fp, pc}
 1467              	.LVL154:
 1468              	.L105:
 1469              	.LCFI16:
 1470              		.cfi_restore_state
 731:Middlewares/lvgl/src/draw/lv_draw_blend.c ****                 lv_memcpy(disp_buf_first, map_buf_first, draw_area_w * sizeof(lv_color_t));
 1471              		.loc 1 731 19 view .LVU481
 1472 00d8 0027     		movs	r7, #0
 1473 00da DDF81880 		ldr	r8, [sp, #24]
 1474 00de DDF81090 		ldr	r9, [sp, #16]
 1475 00e2 DDF814A0 		ldr	r10, [sp, #20]
 1476 00e6 F2E7     		b	.L73
 1477              	.LVL155:
 1478              	.L77:
 792:Middlewares/lvgl/src/draw/lv_draw_blend.c ****                     }
 1479              		.loc 1 792 25 is_stmt 1 discriminator 3 view .LVU482
 1480 00e8 36F81170 		ldrh	r7, [r6, r1, lsl #1]
 1481 00ec 34F811B0 		ldrh	fp, [r4, r1, lsl #1]
 1482              	.LVL156:
 1483              	.LBB151:
 1484              	.LBI151:
 459:Middlewares/lvgl/src/draw/../misc/lv_color.h **** {
ARM GAS  /tmp/ccViN4Ah.s 			page 61


 1485              		.loc 3 459 48 discriminator 3 view .LVU483
 1486              	.LBB152:
 461:Middlewares/lvgl/src/draw/../misc/lv_color.h **** #if LV_COLOR_DEPTH != 1
 1487              		.loc 3 461 5 discriminator 3 view .LVU484
 464:Middlewares/lvgl/src/draw/../misc/lv_color.h ****                                         (255 - mix) + LV_COLOR_MIX_ROUND_OFS));
 1488              		.loc 3 464 5 discriminator 3 view .LVU485
 464:Middlewares/lvgl/src/draw/../misc/lv_color.h ****                                         (255 - mix) + LV_COLOR_MIX_ROUND_OFS));
 1489              		.loc 3 464 5 is_stmt 0 discriminator 3 view .LVU486
 1490 00f0 C7F3C420 		ubfx	r0, r7, #11, #5
 1491              	.LVL157:
 464:Middlewares/lvgl/src/draw/../misc/lv_color.h ****                                         (255 - mix) + LV_COLOR_MIX_ROUND_OFS));
 1492              		.loc 3 464 5 discriminator 3 view .LVU487
 1493 00f4 CBF3C423 		ubfx	r3, fp, #11, #5
 1494 00f8 C8F1FF02 		rsb	r2, r8, #255
 1495 00fc 02FB03F3 		mul	r3, r2, r3
 1496 0100 08FB0033 		mla	r3, r8, r0, r3
 1497 0104 8033     		adds	r3, r3, #128
 1498 0106 03EB0320 		add	r0, r3, r3, lsl #8
 1499 010a 03EBC013 		add	r3, r3, r0, lsl #7
 1500 010e C3F3C453 		ubfx	r3, r3, #23, #5
 1501 0112 63F3CF29 		bfi	r9, r3, #11, #5
 466:Middlewares/lvgl/src/draw/../misc/lv_color.h ****                                         (255 - mix) + LV_COLOR_MIX_ROUND_OFS));
 1502              		.loc 3 466 5 is_stmt 1 discriminator 3 view .LVU488
 1503 0116 C7F34513 		ubfx	r3, r7, #5, #6
 1504 011a CBF34510 		ubfx	r0, fp, #5, #6
 1505 011e 02FB00F0 		mul	r0, r2, r0
 1506 0122 03FB0800 		mla	r0, r3, r8, r0
 1507 0126 8030     		adds	r0, r0, #128
 1508 0128 00EB0023 		add	r3, r0, r0, lsl #8
 1509 012c 00EBC310 		add	r0, r0, r3, lsl #7
 1510 0130 C0F3C550 		ubfx	r0, r0, #23, #6
 1511 0134 60F34A19 		bfi	r9, r0, #5, #6
 468:Middlewares/lvgl/src/draw/../misc/lv_color.h ****                                         (255 - mix) + LV_COLOR_MIX_ROUND_OFS));
 1512              		.loc 3 468 5 discriminator 3 view .LVU489
 1513 0138 07F01F07 		and	r7, r7, #31
 1514              	.LVL158:
 468:Middlewares/lvgl/src/draw/../misc/lv_color.h ****                                         (255 - mix) + LV_COLOR_MIX_ROUND_OFS));
 1515              		.loc 3 468 5 is_stmt 0 discriminator 3 view .LVU490
 1516 013c 0BF01F03 		and	r3, fp, #31
 1517 0140 02FB03F3 		mul	r3, r2, r3
 1518 0144 07FB0833 		mla	r3, r7, r8, r3
 1519 0148 8033     		adds	r3, r3, #128
 1520 014a 03EB0322 		add	r2, r3, r3, lsl #8
 1521 014e 03EBC213 		add	r3, r3, r2, lsl #7
 1522 0152 C3F3C453 		ubfx	r3, r3, #23, #5
 1523 0156 63F30409 		bfi	r9, r3, #0, #5
 470:Middlewares/lvgl/src/draw/../misc/lv_color.h **** #else
 1524              		.loc 3 470 5 is_stmt 1 discriminator 3 view .LVU491
 470:Middlewares/lvgl/src/draw/../misc/lv_color.h **** #else
 1525              		.loc 3 470 5 discriminator 3 view .LVU492
 470:Middlewares/lvgl/src/draw/../misc/lv_color.h **** #else
 1526              		.loc 3 470 5 discriminator 3 view .LVU493
 1527              		.loc 3 476 5 discriminator 3 view .LVU494
 1528              	.LVL159:
 1529              		.loc 3 476 5 is_stmt 0 discriminator 3 view .LVU495
 1530              	.LBE152:
 1531              	.LBE151:
ARM GAS  /tmp/ccViN4Ah.s 			page 62


 792:Middlewares/lvgl/src/draw/lv_draw_blend.c ****                     }
 1532              		.loc 1 792 45 discriminator 3 view .LVU496
 1533 015a 24F81190 		strh	r9, [r4, r1, lsl #1]	@ movhi
 783:Middlewares/lvgl/src/draw/lv_draw_blend.c **** #if LV_COLOR_SCREEN_TRANSP
 1534              		.loc 1 783 45 is_stmt 1 discriminator 3 view .LVU497
 783:Middlewares/lvgl/src/draw/lv_draw_blend.c **** #if LV_COLOR_SCREEN_TRANSP
 1535              		.loc 1 783 46 is_stmt 0 discriminator 3 view .LVU498
 1536 015e 0131     		adds	r1, r1, #1
 1537              	.LVL160:
 1538              	.L78:
 783:Middlewares/lvgl/src/draw/lv_draw_blend.c **** #if LV_COLOR_SCREEN_TRANSP
 1539              		.loc 1 783 28 is_stmt 1 discriminator 1 view .LVU499
 783:Middlewares/lvgl/src/draw/lv_draw_blend.c **** #if LV_COLOR_SCREEN_TRANSP
 1540              		.loc 1 783 17 is_stmt 0 discriminator 1 view .LVU500
 1541 0160 A942     		cmp	r1, r5
 1542 0162 C1DB     		blt	.L77
 795:Middlewares/lvgl/src/draw/lv_draw_blend.c ****                 map_buf_first += map_w;
 1543              		.loc 1 795 17 is_stmt 1 discriminator 2 view .LVU501
 795:Middlewares/lvgl/src/draw/lv_draw_blend.c ****                 map_buf_first += map_w;
 1544              		.loc 1 795 32 is_stmt 0 discriminator 2 view .LVU502
 1545 0164 04EB4A04 		add	r4, r4, r10, lsl #1
 1546              	.LVL161:
 796:Middlewares/lvgl/src/draw/lv_draw_blend.c ****             }
 1547              		.loc 1 796 17 is_stmt 1 discriminator 2 view .LVU503
 796:Middlewares/lvgl/src/draw/lv_draw_blend.c ****             }
 1548              		.loc 1 796 31 is_stmt 0 discriminator 2 view .LVU504
 1549 0168 049B     		ldr	r3, [sp, #16]
 1550 016a 06EB4306 		add	r6, r6, r3, lsl #1
 1551              	.LVL162:
 782:Middlewares/lvgl/src/draw/lv_draw_blend.c ****                 for(x = 0; x < draw_area_w; x++) {
 1552              		.loc 1 782 41 is_stmt 1 discriminator 2 view .LVU505
 782:Middlewares/lvgl/src/draw/lv_draw_blend.c ****                 for(x = 0; x < draw_area_w; x++) {
 1553              		.loc 1 782 42 is_stmt 0 discriminator 2 view .LVU506
 1554 016e 0CF1010C 		add	ip, ip, #1
 1555              	.LVL163:
 1556              	.L74:
 782:Middlewares/lvgl/src/draw/lv_draw_blend.c ****                 for(x = 0; x < draw_area_w; x++) {
 1557              		.loc 1 782 24 is_stmt 1 discriminator 1 view .LVU507
 782:Middlewares/lvgl/src/draw/lv_draw_blend.c ****                 for(x = 0; x < draw_area_w; x++) {
 1558              		.loc 1 782 13 is_stmt 0 discriminator 1 view .LVU508
 1559 0172 F445     		cmp	ip, lr
 1560 0174 ADDA     		bge	.L71
 783:Middlewares/lvgl/src/draw/lv_draw_blend.c **** #if LV_COLOR_SCREEN_TRANSP
 1561              		.loc 1 783 23 view .LVU509
 1562 0176 0021     		movs	r1, #0
 1563 0178 F2E7     		b	.L78
 1564              	.LVL164:
 1565              	.L82:
 1566              	.LBB153:
 1567              	.LBB137:
 819:Middlewares/lvgl/src/draw/lv_draw_blend.c **** #endif
 1568              		.loc 1 819 21 is_stmt 1 discriminator 4 view .LVU510
 1569 017a 36F81390 		ldrh	r9, [r6, r3, lsl #1]
 1570 017e 34F813A0 		ldrh	r10, [r4, r3, lsl #1]
 1571              	.LVL165:
 1572              	.LBB138:
 1573              	.LBI138:
ARM GAS  /tmp/ccViN4Ah.s 			page 63


 459:Middlewares/lvgl/src/draw/../misc/lv_color.h **** {
 1574              		.loc 3 459 48 discriminator 4 view .LVU511
 1575              	.LBB139:
 461:Middlewares/lvgl/src/draw/../misc/lv_color.h **** #if LV_COLOR_DEPTH != 1
 1576              		.loc 3 461 5 discriminator 4 view .LVU512
 464:Middlewares/lvgl/src/draw/../misc/lv_color.h ****                                         (255 - mix) + LV_COLOR_MIX_ROUND_OFS));
 1577              		.loc 3 464 5 discriminator 4 view .LVU513
 464:Middlewares/lvgl/src/draw/../misc/lv_color.h ****                                         (255 - mix) + LV_COLOR_MIX_ROUND_OFS));
 1578              		.loc 3 464 5 is_stmt 0 discriminator 4 view .LVU514
 1579 0182 C9F3C42E 		ubfx	lr, r9, #11, #5
 1580              	.LVL166:
 464:Middlewares/lvgl/src/draw/../misc/lv_color.h ****                                         (255 - mix) + LV_COLOR_MIX_ROUND_OFS));
 1581              		.loc 3 464 5 discriminator 4 view .LVU515
 1582 0186 CAF3C421 		ubfx	r1, r10, #11, #5
 1583 018a C8F1FF00 		rsb	r0, r8, #255
 1584              	.LVL167:
 464:Middlewares/lvgl/src/draw/../misc/lv_color.h ****                                         (255 - mix) + LV_COLOR_MIX_ROUND_OFS));
 1585              		.loc 3 464 5 discriminator 4 view .LVU516
 1586 018e 00FB01F1 		mul	r1, r0, r1
 1587 0192 08FB0E11 		mla	r1, r8, lr, r1
 1588 0196 8031     		adds	r1, r1, #128
 1589 0198 01EB012E 		add	lr, r1, r1, lsl #8
 1590 019c 01EBCE11 		add	r1, r1, lr, lsl #7
 1591 01a0 C1F3C451 		ubfx	r1, r1, #23, #5
 1592 01a4 61F3CF27 		bfi	r7, r1, #11, #5
 466:Middlewares/lvgl/src/draw/../misc/lv_color.h ****                                         (255 - mix) + LV_COLOR_MIX_ROUND_OFS));
 1593              		.loc 3 466 5 is_stmt 1 discriminator 4 view .LVU517
 1594 01a8 C9F34511 		ubfx	r1, r9, #5, #6
 1595 01ac CAF3451E 		ubfx	lr, r10, #5, #6
 1596 01b0 0EFB00FE 		mul	lr, lr, r0
 1597 01b4 01FB08EE 		mla	lr, r1, r8, lr
 1598 01b8 0EF1800E 		add	lr, lr, #128
 1599 01bc 0EEB0E21 		add	r1, lr, lr, lsl #8
 1600 01c0 0EEBC11E 		add	lr, lr, r1, lsl #7
 1601 01c4 CEF3C55E 		ubfx	lr, lr, #23, #6
 1602 01c8 6EF34A17 		bfi	r7, lr, #5, #6
 468:Middlewares/lvgl/src/draw/../misc/lv_color.h ****                                         (255 - mix) + LV_COLOR_MIX_ROUND_OFS));
 1603              		.loc 3 468 5 discriminator 4 view .LVU518
 1604 01cc 09F01F09 		and	r9, r9, #31
 1605              	.LVL168:
 468:Middlewares/lvgl/src/draw/../misc/lv_color.h ****                                         (255 - mix) + LV_COLOR_MIX_ROUND_OFS));
 1606              		.loc 3 468 5 is_stmt 0 discriminator 4 view .LVU519
 1607 01d0 0AF01F01 		and	r1, r10, #31
 1608 01d4 00FB01F1 		mul	r1, r0, r1
 1609 01d8 09FB0811 		mla	r1, r9, r8, r1
 1610 01dc 8031     		adds	r1, r1, #128
 1611 01de 01EB0120 		add	r0, r1, r1, lsl #8
 1612 01e2 01EBC011 		add	r1, r1, r0, lsl #7
 1613 01e6 C1F3C451 		ubfx	r1, r1, #23, #5
 1614 01ea 61F30407 		bfi	r7, r1, #0, #5
 470:Middlewares/lvgl/src/draw/../misc/lv_color.h **** #else
 1615              		.loc 3 470 5 is_stmt 1 discriminator 4 view .LVU520
 470:Middlewares/lvgl/src/draw/../misc/lv_color.h **** #else
 1616              		.loc 3 470 5 discriminator 4 view .LVU521
 470:Middlewares/lvgl/src/draw/../misc/lv_color.h **** #else
 1617              		.loc 3 470 5 discriminator 4 view .LVU522
 1618              		.loc 3 476 5 discriminator 4 view .LVU523
ARM GAS  /tmp/ccViN4Ah.s 			page 64


 1619              	.LVL169:
 1620              		.loc 3 476 5 is_stmt 0 discriminator 4 view .LVU524
 1621              	.LBE139:
 1622              	.LBE138:
 819:Middlewares/lvgl/src/draw/lv_draw_blend.c **** #endif
 1623              		.loc 1 819 21 discriminator 4 view .LVU525
 1624 01ee 24F81370 		strh	r7, [r4, r3, lsl #1]	@ movhi
 1625              	.LVL170:
 1626              	.L81:
 819:Middlewares/lvgl/src/draw/lv_draw_blend.c **** #endif
 1627              		.loc 1 819 21 is_stmt 1 discriminator 6 view .LVU526
 1628 01f2 0132     		adds	r2, r2, #1
 1629              	.LVL171:
 815:Middlewares/lvgl/src/draw/lv_draw_blend.c **** #if LV_COLOR_SCREEN_TRANSP
 1630              		.loc 1 815 81 discriminator 6 view .LVU527
 815:Middlewares/lvgl/src/draw/lv_draw_blend.c **** #if LV_COLOR_SCREEN_TRANSP
 1631              		.loc 1 815 82 is_stmt 0 discriminator 6 view .LVU528
 1632 01f4 0133     		adds	r3, r3, #1
 1633              	.LVL172:
 1634              	.L100:
 815:Middlewares/lvgl/src/draw/lv_draw_blend.c **** #if LV_COLOR_SCREEN_TRANSP
 1635              		.loc 1 815 28 is_stmt 1 discriminator 2 view .LVU529
 815:Middlewares/lvgl/src/draw/lv_draw_blend.c **** #if LV_COLOR_SCREEN_TRANSP
 1636              		.loc 1 815 17 is_stmt 0 discriminator 2 view .LVU530
 1637 01f6 AB42     		cmp	r3, r5
 1638 01f8 80F26D81 		bge	.L111
 815:Middlewares/lvgl/src/draw/lv_draw_blend.c **** #if LV_COLOR_SCREEN_TRANSP
 1639              		.loc 1 815 44 discriminator 3 view .LVU531
 1640 01fc 12F0030F 		tst	r2, #3
 1641 0200 0CD0     		beq	.L114
 819:Middlewares/lvgl/src/draw/lv_draw_blend.c **** #endif
 1642              		.loc 1 819 21 is_stmt 1 view .LVU532
 1643 0202 92F80080 		ldrb	r8, [r2]	@ zero_extendqisi2
 1644              	.LVL173:
 819:Middlewares/lvgl/src/draw/lv_draw_blend.c **** #endif
 1645              		.loc 1 819 21 is_stmt 0 view .LVU533
 1646 0206 B8F1000F 		cmp	r8, #0
 1647 020a F2D0     		beq	.L81
 819:Middlewares/lvgl/src/draw/lv_draw_blend.c **** #endif
 1648              		.loc 1 819 21 is_stmt 1 discriminator 1 view .LVU534
 1649 020c B8F1FF0F 		cmp	r8, #255
 1650 0210 B3D1     		bne	.L82
 819:Middlewares/lvgl/src/draw/lv_draw_blend.c **** #endif
 1651              		.loc 1 819 21 discriminator 3 view .LVU535
 1652 0212 36F81310 		ldrh	r1, [r6, r3, lsl #1]
 1653 0216 24F81310 		strh	r1, [r4, r3, lsl #1]	@ movhi
 1654 021a EAE7     		b	.L81
 1655              	.LVL174:
 1656              	.L114:
 819:Middlewares/lvgl/src/draw/lv_draw_blend.c **** #endif
 1657              		.loc 1 819 21 is_stmt 0 discriminator 3 view .LVU536
 1658 021c 0995     		str	r5, [sp, #36]
 1659 021e ADF828C0 		strh	ip, [sp, #40]	@ movhi
 1660 0222 BDF808C0 		ldrh	ip, [sp, #8]
 1661              	.LVL175:
 819:Middlewares/lvgl/src/draw/lv_draw_blend.c **** #endif
 1662              		.loc 1 819 21 discriminator 3 view .LVU537
ARM GAS  /tmp/ccViN4Ah.s 			page 65


 1663 0226 BDF81CE0 		ldrh	lr, [sp, #28]
 1664              	.LVL176:
 819:Middlewares/lvgl/src/draw/lv_draw_blend.c **** #endif
 1665              		.loc 1 819 21 discriminator 3 view .LVU538
 1666 022a BDF82280 		ldrh	r8, [sp, #34]
 1667              	.LVL177:
 819:Middlewares/lvgl/src/draw/lv_draw_blend.c **** #endif
 1668              		.loc 1 819 21 discriminator 3 view .LVU539
 1669 022e ADF82A70 		strh	r7, [sp, #42]	@ movhi
 1670 0232 14E0     		b	.L94
 1671              	.LVL178:
 1672              	.L116:
 827:Middlewares/lvgl/src/draw/lv_draw_blend.c ****                             disp_buf_first[x + 1] = map_buf_first[x + 1];
 1673              		.loc 1 827 29 is_stmt 1 view .LVU540
 827:Middlewares/lvgl/src/draw/lv_draw_blend.c ****                             disp_buf_first[x + 1] = map_buf_first[x + 1];
 1674              		.loc 1 827 47 is_stmt 0 view .LVU541
 1675 0234 36F81310 		ldrh	r1, [r6, r3, lsl #1]
 1676 0238 24F81310 		strh	r1, [r4, r3, lsl #1]	@ movhi
 828:Middlewares/lvgl/src/draw/lv_draw_blend.c ****                             disp_buf_first[x + 2] = map_buf_first[x + 2];
 1677              		.loc 1 828 29 is_stmt 1 view .LVU542
 828:Middlewares/lvgl/src/draw/lv_draw_blend.c ****                             disp_buf_first[x + 2] = map_buf_first[x + 2];
 1678              		.loc 1 828 66 is_stmt 0 view .LVU543
 1679 023c 591C     		adds	r1, r3, #1
 828:Middlewares/lvgl/src/draw/lv_draw_blend.c ****                             disp_buf_first[x + 2] = map_buf_first[x + 2];
 1680              		.loc 1 828 51 view .LVU544
 1681 023e 36F81100 		ldrh	r0, [r6, r1, lsl #1]
 1682              	.LVL179:
 828:Middlewares/lvgl/src/draw/lv_draw_blend.c ****                             disp_buf_first[x + 2] = map_buf_first[x + 2];
 1683              		.loc 1 828 51 view .LVU545
 1684 0242 24F81100 		strh	r0, [r4, r1, lsl #1]	@ movhi
 829:Middlewares/lvgl/src/draw/lv_draw_blend.c ****                             disp_buf_first[x + 3] = map_buf_first[x + 3];
 1685              		.loc 1 829 29 is_stmt 1 view .LVU546
 829:Middlewares/lvgl/src/draw/lv_draw_blend.c ****                             disp_buf_first[x + 3] = map_buf_first[x + 3];
 1686              		.loc 1 829 66 is_stmt 0 view .LVU547
 1687 0246 991C     		adds	r1, r3, #2
 829:Middlewares/lvgl/src/draw/lv_draw_blend.c ****                             disp_buf_first[x + 3] = map_buf_first[x + 3];
 1688              		.loc 1 829 51 view .LVU548
 1689 0248 36F81100 		ldrh	r0, [r6, r1, lsl #1]
 1690 024c 24F81100 		strh	r0, [r4, r1, lsl #1]	@ movhi
 830:Middlewares/lvgl/src/draw/lv_draw_blend.c ****                         }
 1691              		.loc 1 830 29 is_stmt 1 view .LVU549
 830:Middlewares/lvgl/src/draw/lv_draw_blend.c ****                         }
 1692              		.loc 1 830 66 is_stmt 0 view .LVU550
 1693 0250 D91C     		adds	r1, r3, #3
 830:Middlewares/lvgl/src/draw/lv_draw_blend.c ****                         }
 1694              		.loc 1 830 51 view .LVU551
 1695 0252 36F81100 		ldrh	r0, [r6, r1, lsl #1]
 1696 0256 24F81100 		strh	r0, [r4, r1, lsl #1]	@ movhi
 1697              	.LVL180:
 1698              	.L85:
 847:Middlewares/lvgl/src/draw/lv_draw_blend.c ****                 }
 1699              		.loc 1 847 21 is_stmt 1 view .LVU552
 847:Middlewares/lvgl/src/draw/lv_draw_blend.c ****                 }
 1700              		.loc 1 847 27 is_stmt 0 view .LVU553
 1701 025a 0432     		adds	r2, r2, #4
 1702              	.LVL181:
 824:Middlewares/lvgl/src/draw/lv_draw_blend.c ****                     if(*mask32) {
ARM GAS  /tmp/ccViN4Ah.s 			page 66


 1703              		.loc 1 824 35 is_stmt 1 view .LVU554
 824:Middlewares/lvgl/src/draw/lv_draw_blend.c ****                     if(*mask32) {
 1704              		.loc 1 824 37 is_stmt 0 view .LVU555
 1705 025c 0433     		adds	r3, r3, #4
 1706              	.LVL182:
 1707              	.L94:
 824:Middlewares/lvgl/src/draw/lv_draw_blend.c ****                     if(*mask32) {
 1708              		.loc 1 824 23 is_stmt 1 discriminator 1 view .LVU556
 824:Middlewares/lvgl/src/draw/lv_draw_blend.c ****                     if(*mask32) {
 1709              		.loc 1 824 17 is_stmt 0 discriminator 1 view .LVU557
 1710 025e 0199     		ldr	r1, [sp, #4]
 1711 0260 8B42     		cmp	r3, r1
 1712 0262 80F24481 		bge	.L115
 825:Middlewares/lvgl/src/draw/lv_draw_blend.c ****                         if((*mask32) == 0xFFFFFFFF) {
 1713              		.loc 1 825 21 is_stmt 1 view .LVU558
 825:Middlewares/lvgl/src/draw/lv_draw_blend.c ****                         if((*mask32) == 0xFFFFFFFF) {
 1714              		.loc 1 825 24 is_stmt 0 view .LVU559
 1715 0266 1168     		ldr	r1, [r2]
 825:Middlewares/lvgl/src/draw/lv_draw_blend.c ****                         if((*mask32) == 0xFFFFFFFF) {
 1716              		.loc 1 825 23 view .LVU560
 1717 0268 0029     		cmp	r1, #0
 1718 026a F6D0     		beq	.L85
 826:Middlewares/lvgl/src/draw/lv_draw_blend.c ****                             disp_buf_first[x] = map_buf_first[x];
 1719              		.loc 1 826 25 is_stmt 1 view .LVU561
 826:Middlewares/lvgl/src/draw/lv_draw_blend.c ****                             disp_buf_first[x] = map_buf_first[x];
 1720              		.loc 1 826 27 is_stmt 0 view .LVU562
 1721 026c B1F1FF3F 		cmp	r1, #-1
 1722 0270 E0D0     		beq	.L116
 833:Middlewares/lvgl/src/draw/lv_draw_blend.c **** #if LV_COLOR_SCREEN_TRANSP
 1723              		.loc 1 833 29 is_stmt 1 view .LVU563
 1724              	.LVL183:
 840:Middlewares/lvgl/src/draw/lv_draw_blend.c ****                             MAP_NORMAL_MASK_PX(x + 1)
 1725              		.loc 1 840 29 view .LVU564
 1726 0272 1578     		ldrb	r5, [r2]	@ zero_extendqisi2
 1727 0274 F5B3     		cbz	r5, .L87
 840:Middlewares/lvgl/src/draw/lv_draw_blend.c ****                             MAP_NORMAL_MASK_PX(x + 1)
 1728              		.loc 1 840 29 discriminator 1 view .LVU565
 1729 0276 FF2D     		cmp	r5, #255
 1730 0278 00F01681 		beq	.L117
 840:Middlewares/lvgl/src/draw/lv_draw_blend.c ****                             MAP_NORMAL_MASK_PX(x + 1)
 1731              		.loc 1 840 29 discriminator 4 view .LVU566
 1732 027c 36F81370 		ldrh	r7, [r6, r3, lsl #1]
 1733              	.LVL184:
 840:Middlewares/lvgl/src/draw/lv_draw_blend.c ****                             MAP_NORMAL_MASK_PX(x + 1)
 1734              		.loc 1 840 29 is_stmt 0 discriminator 4 view .LVU567
 1735 0280 34F81390 		ldrh	r9, [r4, r3, lsl #1]
 1736              	.LVL185:
 1737              	.LBB140:
 1738              	.LBI140:
 459:Middlewares/lvgl/src/draw/../misc/lv_color.h **** {
 1739              		.loc 3 459 48 is_stmt 1 discriminator 4 view .LVU568
 1740              	.LBB141:
 461:Middlewares/lvgl/src/draw/../misc/lv_color.h **** #if LV_COLOR_DEPTH != 1
 1741              		.loc 3 461 5 discriminator 4 view .LVU569
 464:Middlewares/lvgl/src/draw/../misc/lv_color.h ****                                         (255 - mix) + LV_COLOR_MIX_ROUND_OFS));
 1742              		.loc 3 464 5 discriminator 4 view .LVU570
 464:Middlewares/lvgl/src/draw/../misc/lv_color.h ****                                         (255 - mix) + LV_COLOR_MIX_ROUND_OFS));
ARM GAS  /tmp/ccViN4Ah.s 			page 67


 1743              		.loc 3 464 5 is_stmt 0 discriminator 4 view .LVU571
 1744 0284 C7F3C42A 		ubfx	r10, r7, #11, #5
 1745              	.LVL186:
 464:Middlewares/lvgl/src/draw/../misc/lv_color.h ****                                         (255 - mix) + LV_COLOR_MIX_ROUND_OFS));
 1746              		.loc 3 464 5 discriminator 4 view .LVU572
 1747 0288 C9F3C420 		ubfx	r0, r9, #11, #5
 1748              	.LVL187:
 464:Middlewares/lvgl/src/draw/../misc/lv_color.h ****                                         (255 - mix) + LV_COLOR_MIX_ROUND_OFS));
 1749              		.loc 3 464 5 discriminator 4 view .LVU573
 1750 028c C5F1FF01 		rsb	r1, r5, #255
 1751 0290 01FB00F0 		mul	r0, r1, r0
 1752 0294 05FB0A00 		mla	r0, r5, r10, r0
 1753 0298 8030     		adds	r0, r0, #128
 1754 029a 00EB002A 		add	r10, r0, r0, lsl #8
 1755 029e 00EBCA10 		add	r0, r0, r10, lsl #7
 1756 02a2 C0F3C450 		ubfx	r0, r0, #23, #5
 1757 02a6 60F3CF28 		bfi	r8, r0, #11, #5
 466:Middlewares/lvgl/src/draw/../misc/lv_color.h ****                                         (255 - mix) + LV_COLOR_MIX_ROUND_OFS));
 1758              		.loc 3 466 5 is_stmt 1 discriminator 4 view .LVU574
 1759 02aa C7F3451A 		ubfx	r10, r7, #5, #6
 1760 02ae C9F34510 		ubfx	r0, r9, #5, #6
 1761 02b2 01FB00F0 		mul	r0, r1, r0
 1762 02b6 0AFB0500 		mla	r0, r10, r5, r0
 1763 02ba 8030     		adds	r0, r0, #128
 1764 02bc 00EB002A 		add	r10, r0, r0, lsl #8
 1765 02c0 00EBCA10 		add	r0, r0, r10, lsl #7
 1766 02c4 C0F3C550 		ubfx	r0, r0, #23, #6
 1767 02c8 60F34A18 		bfi	r8, r0, #5, #6
 468:Middlewares/lvgl/src/draw/../misc/lv_color.h ****                                         (255 - mix) + LV_COLOR_MIX_ROUND_OFS));
 1768              		.loc 3 468 5 discriminator 4 view .LVU575
 1769 02cc 07F01F07 		and	r7, r7, #31
 1770              	.LVL188:
 468:Middlewares/lvgl/src/draw/../misc/lv_color.h ****                                         (255 - mix) + LV_COLOR_MIX_ROUND_OFS));
 1771              		.loc 3 468 5 is_stmt 0 discriminator 4 view .LVU576
 1772 02d0 09F01F09 		and	r9, r9, #31
 1773              	.LVL189:
 468:Middlewares/lvgl/src/draw/../misc/lv_color.h ****                                         (255 - mix) + LV_COLOR_MIX_ROUND_OFS));
 1774              		.loc 3 468 5 discriminator 4 view .LVU577
 1775 02d4 09FB01F9 		mul	r9, r9, r1
 1776 02d8 07FB0599 		mla	r9, r7, r5, r9
 1777 02dc 09F18009 		add	r9, r9, #128
 1778 02e0 09EB0925 		add	r5, r9, r9, lsl #8
 1779              	.LVL190:
 468:Middlewares/lvgl/src/draw/../misc/lv_color.h ****                                         (255 - mix) + LV_COLOR_MIX_ROUND_OFS));
 1780              		.loc 3 468 5 discriminator 4 view .LVU578
 1781 02e4 09EBC519 		add	r9, r9, r5, lsl #7
 1782 02e8 C9F3C459 		ubfx	r9, r9, #23, #5
 1783 02ec 69F30408 		bfi	r8, r9, #0, #5
 470:Middlewares/lvgl/src/draw/../misc/lv_color.h **** #else
 1784              		.loc 3 470 5 is_stmt 1 discriminator 4 view .LVU579
 470:Middlewares/lvgl/src/draw/../misc/lv_color.h **** #else
 1785              		.loc 3 470 5 discriminator 4 view .LVU580
 470:Middlewares/lvgl/src/draw/../misc/lv_color.h **** #else
 1786              		.loc 3 470 5 discriminator 4 view .LVU581
 1787              		.loc 3 476 5 discriminator 4 view .LVU582
 1788              	.LVL191:
 1789              		.loc 3 476 5 is_stmt 0 discriminator 4 view .LVU583
ARM GAS  /tmp/ccViN4Ah.s 			page 68


 1790              	.LBE141:
 1791              	.LBE140:
 840:Middlewares/lvgl/src/draw/lv_draw_blend.c ****                             MAP_NORMAL_MASK_PX(x + 1)
 1792              		.loc 1 840 29 discriminator 4 view .LVU584
 1793 02f0 24F81380 		strh	r8, [r4, r3, lsl #1]	@ movhi
 1794              	.LVL192:
 1795              	.L87:
 840:Middlewares/lvgl/src/draw/lv_draw_blend.c ****                             MAP_NORMAL_MASK_PX(x + 1)
 1796              		.loc 1 840 29 is_stmt 1 discriminator 6 view .LVU585
 841:Middlewares/lvgl/src/draw/lv_draw_blend.c ****                             MAP_NORMAL_MASK_PX(x + 2)
 1797              		.loc 1 841 29 discriminator 6 view .LVU586
 1798 02f4 5578     		ldrb	r5, [r2, #1]	@ zero_extendqisi2
 1799 02f6 002D     		cmp	r5, #0
 1800 02f8 40D0     		beq	.L89
 841:Middlewares/lvgl/src/draw/lv_draw_blend.c ****                             MAP_NORMAL_MASK_PX(x + 2)
 1801              		.loc 1 841 29 discriminator 1 view .LVU587
 1802 02fa FF2D     		cmp	r5, #255
 1803 02fc 00F0D980 		beq	.L118
 841:Middlewares/lvgl/src/draw/lv_draw_blend.c ****                             MAP_NORMAL_MASK_PX(x + 2)
 1804              		.loc 1 841 29 discriminator 4 view .LVU588
 1805 0300 03F1010A 		add	r10, r3, #1
 1806              	.LVL193:
 841:Middlewares/lvgl/src/draw/lv_draw_blend.c ****                             MAP_NORMAL_MASK_PX(x + 2)
 1807              		.loc 1 841 29 is_stmt 0 discriminator 4 view .LVU589
 1808 0304 36F81A70 		ldrh	r7, [r6, r10, lsl #1]
 1809              	.LVL194:
 841:Middlewares/lvgl/src/draw/lv_draw_blend.c ****                             MAP_NORMAL_MASK_PX(x + 2)
 1810              		.loc 1 841 29 discriminator 4 view .LVU590
 1811 0308 34F81A90 		ldrh	r9, [r4, r10, lsl #1]
 1812              	.LVL195:
 1813              	.LBB142:
 1814              	.LBI142:
 459:Middlewares/lvgl/src/draw/../misc/lv_color.h **** {
 1815              		.loc 3 459 48 is_stmt 1 discriminator 4 view .LVU591
 1816              	.LBB143:
 461:Middlewares/lvgl/src/draw/../misc/lv_color.h **** #if LV_COLOR_DEPTH != 1
 1817              		.loc 3 461 5 discriminator 4 view .LVU592
 464:Middlewares/lvgl/src/draw/../misc/lv_color.h ****                                         (255 - mix) + LV_COLOR_MIX_ROUND_OFS));
 1818              		.loc 3 464 5 discriminator 4 view .LVU593
 464:Middlewares/lvgl/src/draw/../misc/lv_color.h ****                                         (255 - mix) + LV_COLOR_MIX_ROUND_OFS));
 1819              		.loc 3 464 5 is_stmt 0 discriminator 4 view .LVU594
 1820 030c C7F3C42B 		ubfx	fp, r7, #11, #5
 1821              	.LVL196:
 464:Middlewares/lvgl/src/draw/../misc/lv_color.h ****                                         (255 - mix) + LV_COLOR_MIX_ROUND_OFS));
 1822              		.loc 3 464 5 discriminator 4 view .LVU595
 1823 0310 C9F3C420 		ubfx	r0, r9, #11, #5
 1824              	.LVL197:
 464:Middlewares/lvgl/src/draw/../misc/lv_color.h ****                                         (255 - mix) + LV_COLOR_MIX_ROUND_OFS));
 1825              		.loc 3 464 5 discriminator 4 view .LVU596
 1826 0314 C5F1FF01 		rsb	r1, r5, #255
 1827 0318 01FB00F0 		mul	r0, r1, r0
 1828 031c 05FB0B00 		mla	r0, r5, fp, r0
 1829 0320 8030     		adds	r0, r0, #128
 1830 0322 00EB002B 		add	fp, r0, r0, lsl #8
 1831 0326 00EBCB10 		add	r0, r0, fp, lsl #7
 1832 032a C0F3C450 		ubfx	r0, r0, #23, #5
 1833 032e 60F3CF2E 		bfi	lr, r0, #11, #5
ARM GAS  /tmp/ccViN4Ah.s 			page 69


 466:Middlewares/lvgl/src/draw/../misc/lv_color.h ****                                         (255 - mix) + LV_COLOR_MIX_ROUND_OFS));
 1834              		.loc 3 466 5 is_stmt 1 discriminator 4 view .LVU597
 1835 0332 C7F3451B 		ubfx	fp, r7, #5, #6
 1836 0336 C9F34510 		ubfx	r0, r9, #5, #6
 1837 033a 01FB00F0 		mul	r0, r1, r0
 1838 033e 0BFB0500 		mla	r0, fp, r5, r0
 1839 0342 8030     		adds	r0, r0, #128
 1840 0344 00EB002B 		add	fp, r0, r0, lsl #8
 1841 0348 00EBCB10 		add	r0, r0, fp, lsl #7
 1842 034c C0F3C550 		ubfx	r0, r0, #23, #6
 1843 0350 60F34A1E 		bfi	lr, r0, #5, #6
 468:Middlewares/lvgl/src/draw/../misc/lv_color.h ****                                         (255 - mix) + LV_COLOR_MIX_ROUND_OFS));
 1844              		.loc 3 468 5 discriminator 4 view .LVU598
 1845 0354 07F01F07 		and	r7, r7, #31
 1846              	.LVL198:
 468:Middlewares/lvgl/src/draw/../misc/lv_color.h ****                                         (255 - mix) + LV_COLOR_MIX_ROUND_OFS));
 1847              		.loc 3 468 5 is_stmt 0 discriminator 4 view .LVU599
 1848 0358 09F01F09 		and	r9, r9, #31
 1849              	.LVL199:
 468:Middlewares/lvgl/src/draw/../misc/lv_color.h ****                                         (255 - mix) + LV_COLOR_MIX_ROUND_OFS));
 1850              		.loc 3 468 5 discriminator 4 view .LVU600
 1851 035c 09FB01F9 		mul	r9, r9, r1
 1852 0360 07FB0599 		mla	r9, r7, r5, r9
 1853 0364 09F18009 		add	r9, r9, #128
 1854 0368 09EB0921 		add	r1, r9, r9, lsl #8
 1855 036c 09EBC119 		add	r9, r9, r1, lsl #7
 1856 0370 C9F3C459 		ubfx	r9, r9, #23, #5
 1857 0374 69F3040E 		bfi	lr, r9, #0, #5
 470:Middlewares/lvgl/src/draw/../misc/lv_color.h **** #else
 1858              		.loc 3 470 5 is_stmt 1 discriminator 4 view .LVU601
 470:Middlewares/lvgl/src/draw/../misc/lv_color.h **** #else
 1859              		.loc 3 470 5 discriminator 4 view .LVU602
 470:Middlewares/lvgl/src/draw/../misc/lv_color.h **** #else
 1860              		.loc 3 470 5 discriminator 4 view .LVU603
 1861              		.loc 3 476 5 discriminator 4 view .LVU604
 1862              	.LVL200:
 1863              		.loc 3 476 5 is_stmt 0 discriminator 4 view .LVU605
 1864              	.LBE143:
 1865              	.LBE142:
 841:Middlewares/lvgl/src/draw/lv_draw_blend.c ****                             MAP_NORMAL_MASK_PX(x + 2)
 1866              		.loc 1 841 29 discriminator 4 view .LVU606
 1867 0378 24F81AE0 		strh	lr, [r4, r10, lsl #1]	@ movhi
 1868              	.LVL201:
 1869              	.L89:
 841:Middlewares/lvgl/src/draw/lv_draw_blend.c ****                             MAP_NORMAL_MASK_PX(x + 2)
 1870              		.loc 1 841 29 is_stmt 1 discriminator 6 view .LVU607
 842:Middlewares/lvgl/src/draw/lv_draw_blend.c ****                             MAP_NORMAL_MASK_PX(x + 3)
 1871              		.loc 1 842 29 discriminator 6 view .LVU608
 1872 037c 9578     		ldrb	r5, [r2, #2]	@ zero_extendqisi2
 1873 037e 002D     		cmp	r5, #0
 1874 0380 40D0     		beq	.L91
 842:Middlewares/lvgl/src/draw/lv_draw_blend.c ****                             MAP_NORMAL_MASK_PX(x + 3)
 1875              		.loc 1 842 29 discriminator 1 view .LVU609
 1876 0382 FF2D     		cmp	r5, #255
 1877 0384 00F09B80 		beq	.L119
 842:Middlewares/lvgl/src/draw/lv_draw_blend.c ****                             MAP_NORMAL_MASK_PX(x + 3)
 1878              		.loc 1 842 29 discriminator 4 view .LVU610
ARM GAS  /tmp/ccViN4Ah.s 			page 70


 1879 0388 03F1020A 		add	r10, r3, #2
 1880              	.LVL202:
 842:Middlewares/lvgl/src/draw/lv_draw_blend.c ****                             MAP_NORMAL_MASK_PX(x + 3)
 1881              		.loc 1 842 29 is_stmt 0 discriminator 4 view .LVU611
 1882 038c 36F81A70 		ldrh	r7, [r6, r10, lsl #1]
 1883              	.LVL203:
 842:Middlewares/lvgl/src/draw/lv_draw_blend.c ****                             MAP_NORMAL_MASK_PX(x + 3)
 1884              		.loc 1 842 29 discriminator 4 view .LVU612
 1885 0390 34F81A90 		ldrh	r9, [r4, r10, lsl #1]
 1886              	.LVL204:
 1887              	.LBB144:
 1888              	.LBI144:
 459:Middlewares/lvgl/src/draw/../misc/lv_color.h **** {
 1889              		.loc 3 459 48 is_stmt 1 discriminator 4 view .LVU613
 1890              	.LBB145:
 461:Middlewares/lvgl/src/draw/../misc/lv_color.h **** #if LV_COLOR_DEPTH != 1
 1891              		.loc 3 461 5 discriminator 4 view .LVU614
 464:Middlewares/lvgl/src/draw/../misc/lv_color.h ****                                         (255 - mix) + LV_COLOR_MIX_ROUND_OFS));
 1892              		.loc 3 464 5 discriminator 4 view .LVU615
 464:Middlewares/lvgl/src/draw/../misc/lv_color.h ****                                         (255 - mix) + LV_COLOR_MIX_ROUND_OFS));
 1893              		.loc 3 464 5 is_stmt 0 discriminator 4 view .LVU616
 1894 0394 C7F3C42B 		ubfx	fp, r7, #11, #5
 1895              	.LVL205:
 464:Middlewares/lvgl/src/draw/../misc/lv_color.h ****                                         (255 - mix) + LV_COLOR_MIX_ROUND_OFS));
 1896              		.loc 3 464 5 discriminator 4 view .LVU617
 1897 0398 C9F3C420 		ubfx	r0, r9, #11, #5
 1898              	.LVL206:
 464:Middlewares/lvgl/src/draw/../misc/lv_color.h ****                                         (255 - mix) + LV_COLOR_MIX_ROUND_OFS));
 1899              		.loc 3 464 5 discriminator 4 view .LVU618
 1900 039c C5F1FF01 		rsb	r1, r5, #255
 1901 03a0 01FB00F0 		mul	r0, r1, r0
 1902 03a4 05FB0B00 		mla	r0, r5, fp, r0
 1903 03a8 8030     		adds	r0, r0, #128
 1904 03aa 00EB002B 		add	fp, r0, r0, lsl #8
 1905 03ae 00EBCB10 		add	r0, r0, fp, lsl #7
 1906 03b2 C0F3C450 		ubfx	r0, r0, #23, #5
 1907 03b6 60F3CF2C 		bfi	ip, r0, #11, #5
 466:Middlewares/lvgl/src/draw/../misc/lv_color.h ****                                         (255 - mix) + LV_COLOR_MIX_ROUND_OFS));
 1908              		.loc 3 466 5 is_stmt 1 discriminator 4 view .LVU619
 1909 03ba C7F3451B 		ubfx	fp, r7, #5, #6
 1910 03be C9F34510 		ubfx	r0, r9, #5, #6
 1911 03c2 01FB00F0 		mul	r0, r1, r0
 1912 03c6 0BFB0500 		mla	r0, fp, r5, r0
 1913 03ca 8030     		adds	r0, r0, #128
 1914 03cc 00EB002B 		add	fp, r0, r0, lsl #8
 1915 03d0 00EBCB10 		add	r0, r0, fp, lsl #7
 1916 03d4 C0F3C550 		ubfx	r0, r0, #23, #6
 1917 03d8 60F34A1C 		bfi	ip, r0, #5, #6
 468:Middlewares/lvgl/src/draw/../misc/lv_color.h ****                                         (255 - mix) + LV_COLOR_MIX_ROUND_OFS));
 1918              		.loc 3 468 5 discriminator 4 view .LVU620
 1919 03dc 07F01F07 		and	r7, r7, #31
 1920              	.LVL207:
 468:Middlewares/lvgl/src/draw/../misc/lv_color.h ****                                         (255 - mix) + LV_COLOR_MIX_ROUND_OFS));
 1921              		.loc 3 468 5 is_stmt 0 discriminator 4 view .LVU621
 1922 03e0 09F01F09 		and	r9, r9, #31
 1923              	.LVL208:
 468:Middlewares/lvgl/src/draw/../misc/lv_color.h ****                                         (255 - mix) + LV_COLOR_MIX_ROUND_OFS));
ARM GAS  /tmp/ccViN4Ah.s 			page 71


 1924              		.loc 3 468 5 discriminator 4 view .LVU622
 1925 03e4 09FB01F9 		mul	r9, r9, r1
 1926 03e8 07FB0599 		mla	r9, r7, r5, r9
 1927 03ec 09F18009 		add	r9, r9, #128
 1928 03f0 09EB0921 		add	r1, r9, r9, lsl #8
 1929 03f4 09EBC119 		add	r9, r9, r1, lsl #7
 1930 03f8 C9F3C459 		ubfx	r9, r9, #23, #5
 1931 03fc 69F3040C 		bfi	ip, r9, #0, #5
 470:Middlewares/lvgl/src/draw/../misc/lv_color.h **** #else
 1932              		.loc 3 470 5 is_stmt 1 discriminator 4 view .LVU623
 470:Middlewares/lvgl/src/draw/../misc/lv_color.h **** #else
 1933              		.loc 3 470 5 discriminator 4 view .LVU624
 470:Middlewares/lvgl/src/draw/../misc/lv_color.h **** #else
 1934              		.loc 3 470 5 discriminator 4 view .LVU625
 1935              		.loc 3 476 5 discriminator 4 view .LVU626
 1936              	.LVL209:
 1937              		.loc 3 476 5 is_stmt 0 discriminator 4 view .LVU627
 1938              	.LBE145:
 1939              	.LBE144:
 842:Middlewares/lvgl/src/draw/lv_draw_blend.c ****                             MAP_NORMAL_MASK_PX(x + 3)
 1940              		.loc 1 842 29 discriminator 4 view .LVU628
 1941 0400 24F81AC0 		strh	ip, [r4, r10, lsl #1]	@ movhi
 1942              	.LVL210:
 1943              	.L91:
 842:Middlewares/lvgl/src/draw/lv_draw_blend.c ****                             MAP_NORMAL_MASK_PX(x + 3)
 1944              		.loc 1 842 29 is_stmt 1 discriminator 6 view .LVU629
 843:Middlewares/lvgl/src/draw/lv_draw_blend.c **** #endif
 1945              		.loc 1 843 29 discriminator 6 view .LVU630
 1946 0404 D578     		ldrb	r5, [r2, #3]	@ zero_extendqisi2
 1947 0406 002D     		cmp	r5, #0
 1948 0408 3FF427AF 		beq	.L85
 843:Middlewares/lvgl/src/draw/lv_draw_blend.c **** #endif
 1949              		.loc 1 843 29 discriminator 1 view .LVU631
 1950 040c FF2D     		cmp	r5, #255
 1951 040e 5CD0     		beq	.L120
 843:Middlewares/lvgl/src/draw/lv_draw_blend.c **** #endif
 1952              		.loc 1 843 29 discriminator 4 view .LVU632
 1953 0410 03F1030A 		add	r10, r3, #3
 1954              	.LVL211:
 843:Middlewares/lvgl/src/draw/lv_draw_blend.c **** #endif
 1955              		.loc 1 843 29 is_stmt 0 discriminator 4 view .LVU633
 1956 0414 36F81A10 		ldrh	r1, [r6, r10, lsl #1]
 1957              	.LVL212:
 843:Middlewares/lvgl/src/draw/lv_draw_blend.c **** #endif
 1958              		.loc 1 843 29 discriminator 4 view .LVU634
 1959 0418 ADF80810 		strh	r1, [sp, #8]	@ movhi
 1960 041c 34F81A90 		ldrh	r9, [r4, r10, lsl #1]
 1961              	.LVL213:
 1962              	.LBB146:
 1963              	.LBI146:
 459:Middlewares/lvgl/src/draw/../misc/lv_color.h **** {
 1964              		.loc 3 459 48 is_stmt 1 discriminator 4 view .LVU635
 1965              	.LBB147:
 461:Middlewares/lvgl/src/draw/../misc/lv_color.h **** #if LV_COLOR_DEPTH != 1
 1966              		.loc 3 461 5 discriminator 4 view .LVU636
 464:Middlewares/lvgl/src/draw/../misc/lv_color.h ****                                         (255 - mix) + LV_COLOR_MIX_ROUND_OFS));
 1967              		.loc 3 464 5 discriminator 4 view .LVU637
ARM GAS  /tmp/ccViN4Ah.s 			page 72


 1968 0420 0299     		ldr	r1, [sp, #8]
 1969              	.LVL214:
 464:Middlewares/lvgl/src/draw/../misc/lv_color.h ****                                         (255 - mix) + LV_COLOR_MIX_ROUND_OFS));
 1970              		.loc 3 464 5 is_stmt 0 discriminator 4 view .LVU638
 1971 0422 C1F3C42B 		ubfx	fp, r1, #11, #5
 1972              	.LVL215:
 464:Middlewares/lvgl/src/draw/../misc/lv_color.h ****                                         (255 - mix) + LV_COLOR_MIX_ROUND_OFS));
 1973              		.loc 3 464 5 discriminator 4 view .LVU639
 1974 0426 C9F3C420 		ubfx	r0, r9, #11, #5
 1975              	.LVL216:
 464:Middlewares/lvgl/src/draw/../misc/lv_color.h ****                                         (255 - mix) + LV_COLOR_MIX_ROUND_OFS));
 1976              		.loc 3 464 5 discriminator 4 view .LVU640
 1977 042a C5F1FF01 		rsb	r1, r5, #255
 1978 042e 0F46     		mov	r7, r1
 1979              	.LVL217:
 464:Middlewares/lvgl/src/draw/../misc/lv_color.h ****                                         (255 - mix) + LV_COLOR_MIX_ROUND_OFS));
 1980              		.loc 3 464 5 discriminator 4 view .LVU641
 1981 0430 01FB00F0 		mul	r0, r1, r0
 1982 0434 05FB0B00 		mla	r0, r5, fp, r0
 1983 0438 8030     		adds	r0, r0, #128
 1984 043a 00EB002B 		add	fp, r0, r0, lsl #8
 1985 043e 00EBCB10 		add	r0, r0, fp, lsl #7
 1986 0442 C0F3C450 		ubfx	r0, r0, #23, #5
 1987 0446 0B99     		ldr	r1, [sp, #44]
 1988 0448 60F3CF21 		bfi	r1, r0, #11, #5
 466:Middlewares/lvgl/src/draw/../misc/lv_color.h ****                                         (255 - mix) + LV_COLOR_MIX_ROUND_OFS));
 1989              		.loc 3 466 5 is_stmt 1 discriminator 4 view .LVU642
 1990 044c 0298     		ldr	r0, [sp, #8]
 1991 044e C0F3451B 		ubfx	fp, r0, #5, #6
 1992 0452 C9F34510 		ubfx	r0, r9, #5, #6
 1993 0456 0797     		str	r7, [sp, #28]
 1994 0458 07FB00F0 		mul	r0, r7, r0
 1995 045c 0BFB0500 		mla	r0, fp, r5, r0
 1996 0460 8030     		adds	r0, r0, #128
 1997 0462 00EB002B 		add	fp, r0, r0, lsl #8
 1998 0466 00EBCB10 		add	r0, r0, fp, lsl #7
 1999 046a C0F3C550 		ubfx	r0, r0, #23, #6
 2000 046e 60F34A11 		bfi	r1, r0, #5, #6
 2001 0472 0846     		mov	r0, r1
 468:Middlewares/lvgl/src/draw/../misc/lv_color.h ****                                         (255 - mix) + LV_COLOR_MIX_ROUND_OFS));
 2002              		.loc 3 468 5 discriminator 4 view .LVU643
 2003 0474 0299     		ldr	r1, [sp, #8]
 2004 0476 01F01F07 		and	r7, r1, #31
 2005 047a 09F01F09 		and	r9, r9, #31
 2006              	.LVL218:
 468:Middlewares/lvgl/src/draw/../misc/lv_color.h ****                                         (255 - mix) + LV_COLOR_MIX_ROUND_OFS));
 2007              		.loc 3 468 5 is_stmt 0 discriminator 4 view .LVU644
 2008 047e 0799     		ldr	r1, [sp, #28]
 2009 0480 09FB01F9 		mul	r9, r9, r1
 2010 0484 07FB0599 		mla	r9, r7, r5, r9
 2011 0488 09F18009 		add	r9, r9, #128
 2012 048c 09EB0921 		add	r1, r9, r9, lsl #8
 2013 0490 09EBC119 		add	r9, r9, r1, lsl #7
 2014 0494 C9F3C459 		ubfx	r9, r9, #23, #5
 2015              	.LVL219:
 468:Middlewares/lvgl/src/draw/../misc/lv_color.h ****                                         (255 - mix) + LV_COLOR_MIX_ROUND_OFS));
 2016              		.loc 3 468 5 discriminator 4 view .LVU645
ARM GAS  /tmp/ccViN4Ah.s 			page 73


 2017 0498 0146     		mov	r1, r0
 2018 049a 69F30401 		bfi	r1, r9, #0, #5
 2019 049e ADF82C10 		strh	r1, [sp, #44]	@ movhi
 470:Middlewares/lvgl/src/draw/../misc/lv_color.h **** #else
 2020              		.loc 3 470 5 is_stmt 1 discriminator 4 view .LVU646
 470:Middlewares/lvgl/src/draw/../misc/lv_color.h **** #else
 2021              		.loc 3 470 5 discriminator 4 view .LVU647
 470:Middlewares/lvgl/src/draw/../misc/lv_color.h **** #else
 2022              		.loc 3 470 5 discriminator 4 view .LVU648
 2023              		.loc 3 476 5 discriminator 4 view .LVU649
 2024              	.LVL220:
 2025              		.loc 3 476 5 is_stmt 0 discriminator 4 view .LVU650
 2026              	.LBE147:
 2027              	.LBE146:
 843:Middlewares/lvgl/src/draw/lv_draw_blend.c **** #endif
 2028              		.loc 1 843 29 discriminator 4 view .LVU651
 2029 04a2 24F81A10 		strh	r1, [r4, r10, lsl #1]	@ movhi
 2030 04a6 D8E6     		b	.L85
 2031              	.LVL221:
 2032              	.L117:
 840:Middlewares/lvgl/src/draw/lv_draw_blend.c ****                             MAP_NORMAL_MASK_PX(x + 1)
 2033              		.loc 1 840 29 is_stmt 1 discriminator 3 view .LVU652
 2034 04a8 36F81310 		ldrh	r1, [r6, r3, lsl #1]
 2035 04ac 24F81310 		strh	r1, [r4, r3, lsl #1]	@ movhi
 2036 04b0 20E7     		b	.L87
 2037              	.LVL222:
 2038              	.L118:
 841:Middlewares/lvgl/src/draw/lv_draw_blend.c ****                             MAP_NORMAL_MASK_PX(x + 2)
 2039              		.loc 1 841 29 discriminator 3 view .LVU653
 2040 04b2 591C     		adds	r1, r3, #1
 2041 04b4 36F81100 		ldrh	r0, [r6, r1, lsl #1]
 2042              	.LVL223:
 841:Middlewares/lvgl/src/draw/lv_draw_blend.c ****                             MAP_NORMAL_MASK_PX(x + 2)
 2043              		.loc 1 841 29 is_stmt 0 discriminator 3 view .LVU654
 2044 04b8 24F81100 		strh	r0, [r4, r1, lsl #1]	@ movhi
 2045 04bc 5EE7     		b	.L89
 2046              	.LVL224:
 2047              	.L119:
 842:Middlewares/lvgl/src/draw/lv_draw_blend.c ****                             MAP_NORMAL_MASK_PX(x + 3)
 2048              		.loc 1 842 29 is_stmt 1 discriminator 3 view .LVU655
 2049 04be 991C     		adds	r1, r3, #2
 2050 04c0 36F81100 		ldrh	r0, [r6, r1, lsl #1]
 2051              	.LVL225:
 842:Middlewares/lvgl/src/draw/lv_draw_blend.c ****                             MAP_NORMAL_MASK_PX(x + 3)
 2052              		.loc 1 842 29 is_stmt 0 discriminator 3 view .LVU656
 2053 04c4 24F81100 		strh	r0, [r4, r1, lsl #1]	@ movhi
 2054 04c8 9CE7     		b	.L91
 2055              	.LVL226:
 2056              	.L120:
 843:Middlewares/lvgl/src/draw/lv_draw_blend.c **** #endif
 2057              		.loc 1 843 29 is_stmt 1 discriminator 3 view .LVU657
 2058 04ca D91C     		adds	r1, r3, #3
 2059 04cc 36F81100 		ldrh	r0, [r6, r1, lsl #1]
 2060              	.LVL227:
 843:Middlewares/lvgl/src/draw/lv_draw_blend.c **** #endif
 2061              		.loc 1 843 29 is_stmt 0 discriminator 3 view .LVU658
 2062 04d0 24F81100 		strh	r0, [r4, r1, lsl #1]	@ movhi
ARM GAS  /tmp/ccViN4Ah.s 			page 74


 2063 04d4 C1E6     		b	.L85
 2064              	.LVL228:
 2065              	.L111:
 843:Middlewares/lvgl/src/draw/lv_draw_blend.c **** #endif
 2066              		.loc 1 843 29 discriminator 3 view .LVU659
 2067 04d6 0995     		str	r5, [sp, #36]
 2068 04d8 ADF828C0 		strh	ip, [sp, #40]	@ movhi
 2069 04dc BDF808C0 		ldrh	ip, [sp, #8]
 2070              	.LVL229:
 843:Middlewares/lvgl/src/draw/lv_draw_blend.c **** #endif
 2071              		.loc 1 843 29 discriminator 3 view .LVU660
 2072 04e0 BDF81CE0 		ldrh	lr, [sp, #28]
 2073              	.LVL230:
 843:Middlewares/lvgl/src/draw/lv_draw_blend.c **** #endif
 2074              		.loc 1 843 29 discriminator 3 view .LVU661
 2075 04e4 BDF82280 		ldrh	r8, [sp, #34]
 2076              	.LVL231:
 843:Middlewares/lvgl/src/draw/lv_draw_blend.c **** #endif
 2077              		.loc 1 843 29 discriminator 3 view .LVU662
 2078 04e8 ADF82A70 		strh	r7, [sp, #42]	@ movhi
 2079 04ec B7E6     		b	.L94
 2080              	.LVL232:
 2081              	.L115:
 843:Middlewares/lvgl/src/draw/lv_draw_blend.c **** #endif
 2082              		.loc 1 843 29 discriminator 3 view .LVU663
 2083 04ee 099D     		ldr	r5, [sp, #36]
 2084 04f0 ADF808C0 		strh	ip, [sp, #8]	@ movhi
 2085 04f4 BDF828C0 		ldrh	ip, [sp, #40]
 2086              	.LVL233:
 843:Middlewares/lvgl/src/draw/lv_draw_blend.c **** #endif
 2087              		.loc 1 843 29 discriminator 3 view .LVU664
 2088 04f8 ADF81CE0 		strh	lr, [sp, #28]	@ movhi
 2089 04fc ADF82280 		strh	r8, [sp, #34]	@ movhi
 2090 0500 BDF82A70 		ldrh	r7, [sp, #42]
 2091              	.LVL234:
 843:Middlewares/lvgl/src/draw/lv_draw_blend.c **** #endif
 2092              		.loc 1 843 29 discriminator 3 view .LVU665
 2093 0504 3DE0     		b	.L96
 2094              	.LVL235:
 2095              	.L98:
 855:Middlewares/lvgl/src/draw/lv_draw_blend.c **** #endif
 2096              		.loc 1 855 21 is_stmt 1 discriminator 4 view .LVU666
 2097 0506 36F81390 		ldrh	r9, [r6, r3, lsl #1]
 2098 050a 34F813A0 		ldrh	r10, [r4, r3, lsl #1]
 2099              	.LVL236:
 2100              	.LBB148:
 2101              	.LBI148:
 459:Middlewares/lvgl/src/draw/../misc/lv_color.h **** {
 2102              		.loc 3 459 48 discriminator 4 view .LVU667
 2103              	.LBB149:
 461:Middlewares/lvgl/src/draw/../misc/lv_color.h **** #if LV_COLOR_DEPTH != 1
 2104              		.loc 3 461 5 discriminator 4 view .LVU668
 464:Middlewares/lvgl/src/draw/../misc/lv_color.h ****                                         (255 - mix) + LV_COLOR_MIX_ROUND_OFS));
 2105              		.loc 3 464 5 discriminator 4 view .LVU669
 464:Middlewares/lvgl/src/draw/../misc/lv_color.h ****                                         (255 - mix) + LV_COLOR_MIX_ROUND_OFS));
 2106              		.loc 3 464 5 is_stmt 0 discriminator 4 view .LVU670
 2107 050e C9F3C42E 		ubfx	lr, r9, #11, #5
ARM GAS  /tmp/ccViN4Ah.s 			page 75


 2108              	.LVL237:
 464:Middlewares/lvgl/src/draw/../misc/lv_color.h ****                                         (255 - mix) + LV_COLOR_MIX_ROUND_OFS));
 2109              		.loc 3 464 5 discriminator 4 view .LVU671
 2110 0512 CAF3C421 		ubfx	r1, r10, #11, #5
 2111 0516 C8F1FF00 		rsb	r0, r8, #255
 2112              	.LVL238:
 464:Middlewares/lvgl/src/draw/../misc/lv_color.h ****                                         (255 - mix) + LV_COLOR_MIX_ROUND_OFS));
 2113              		.loc 3 464 5 discriminator 4 view .LVU672
 2114 051a 00FB01F1 		mul	r1, r0, r1
 2115 051e 08FB0E11 		mla	r1, r8, lr, r1
 2116 0522 8031     		adds	r1, r1, #128
 2117 0524 01EB012E 		add	lr, r1, r1, lsl #8
 2118 0528 01EBCE11 		add	r1, r1, lr, lsl #7
 2119 052c C1F3C451 		ubfx	r1, r1, #23, #5
 2120 0530 61F3CF2C 		bfi	ip, r1, #11, #5
 466:Middlewares/lvgl/src/draw/../misc/lv_color.h ****                                         (255 - mix) + LV_COLOR_MIX_ROUND_OFS));
 2121              		.loc 3 466 5 is_stmt 1 discriminator 4 view .LVU673
 2122 0534 C9F34511 		ubfx	r1, r9, #5, #6
 2123 0538 CAF3451E 		ubfx	lr, r10, #5, #6
 2124 053c 0EFB00FE 		mul	lr, lr, r0
 2125 0540 01FB08EE 		mla	lr, r1, r8, lr
 2126 0544 0EF1800E 		add	lr, lr, #128
 2127 0548 0EEB0E21 		add	r1, lr, lr, lsl #8
 2128 054c 0EEBC11E 		add	lr, lr, r1, lsl #7
 2129 0550 CEF3C55E 		ubfx	lr, lr, #23, #6
 2130 0554 6EF34A1C 		bfi	ip, lr, #5, #6
 468:Middlewares/lvgl/src/draw/../misc/lv_color.h ****                                         (255 - mix) + LV_COLOR_MIX_ROUND_OFS));
 2131              		.loc 3 468 5 discriminator 4 view .LVU674
 2132 0558 09F01F09 		and	r9, r9, #31
 2133              	.LVL239:
 468:Middlewares/lvgl/src/draw/../misc/lv_color.h ****                                         (255 - mix) + LV_COLOR_MIX_ROUND_OFS));
 2134              		.loc 3 468 5 is_stmt 0 discriminator 4 view .LVU675
 2135 055c 0AF01F01 		and	r1, r10, #31
 2136 0560 00FB01F1 		mul	r1, r0, r1
 2137 0564 09FB0811 		mla	r1, r9, r8, r1
 2138 0568 8031     		adds	r1, r1, #128
 2139 056a 01EB0120 		add	r0, r1, r1, lsl #8
 2140 056e 01EBC011 		add	r1, r1, r0, lsl #7
 2141 0572 C1F3C451 		ubfx	r1, r1, #23, #5
 2142 0576 61F3040C 		bfi	ip, r1, #0, #5
 470:Middlewares/lvgl/src/draw/../misc/lv_color.h **** #else
 2143              		.loc 3 470 5 is_stmt 1 discriminator 4 view .LVU676
 470:Middlewares/lvgl/src/draw/../misc/lv_color.h **** #else
 2144              		.loc 3 470 5 discriminator 4 view .LVU677
 470:Middlewares/lvgl/src/draw/../misc/lv_color.h **** #else
 2145              		.loc 3 470 5 discriminator 4 view .LVU678
 2146              		.loc 3 476 5 discriminator 4 view .LVU679
 2147              	.LVL240:
 2148              		.loc 3 476 5 is_stmt 0 discriminator 4 view .LVU680
 2149              	.LBE149:
 2150              	.LBE148:
 855:Middlewares/lvgl/src/draw/lv_draw_blend.c **** #endif
 2151              		.loc 1 855 21 discriminator 4 view .LVU681
 2152 057a 24F813C0 		strh	ip, [r4, r3, lsl #1]	@ movhi
 2153              	.LVL241:
 2154              	.L97:
 855:Middlewares/lvgl/src/draw/lv_draw_blend.c **** #endif
ARM GAS  /tmp/ccViN4Ah.s 			page 76


 2155              		.loc 1 855 21 is_stmt 1 discriminator 6 view .LVU682
 2156 057e 0132     		adds	r2, r2, #1
 2157              	.LVL242:
 851:Middlewares/lvgl/src/draw/lv_draw_blend.c **** #if LV_COLOR_SCREEN_TRANSP
 2158              		.loc 1 851 41 discriminator 6 view .LVU683
 851:Middlewares/lvgl/src/draw/lv_draw_blend.c **** #if LV_COLOR_SCREEN_TRANSP
 2159              		.loc 1 851 42 is_stmt 0 discriminator 6 view .LVU684
 2160 0580 0133     		adds	r3, r3, #1
 2161              	.LVL243:
 2162              	.L96:
 851:Middlewares/lvgl/src/draw/lv_draw_blend.c **** #if LV_COLOR_SCREEN_TRANSP
 2163              		.loc 1 851 23 is_stmt 1 discriminator 1 view .LVU685
 851:Middlewares/lvgl/src/draw/lv_draw_blend.c **** #if LV_COLOR_SCREEN_TRANSP
 2164              		.loc 1 851 17 is_stmt 0 discriminator 1 view .LVU686
 2165 0582 AB42     		cmp	r3, r5
 2166 0584 0CDA     		bge	.L121
 855:Middlewares/lvgl/src/draw/lv_draw_blend.c **** #endif
 2167              		.loc 1 855 21 is_stmt 1 view .LVU687
 2168 0586 92F80080 		ldrb	r8, [r2]	@ zero_extendqisi2
 2169              	.LVL244:
 855:Middlewares/lvgl/src/draw/lv_draw_blend.c **** #endif
 2170              		.loc 1 855 21 is_stmt 0 view .LVU688
 2171 058a B8F1000F 		cmp	r8, #0
 2172 058e F6D0     		beq	.L97
 855:Middlewares/lvgl/src/draw/lv_draw_blend.c **** #endif
 2173              		.loc 1 855 21 is_stmt 1 discriminator 1 view .LVU689
 2174 0590 B8F1FF0F 		cmp	r8, #255
 2175 0594 B7D1     		bne	.L98
 855:Middlewares/lvgl/src/draw/lv_draw_blend.c **** #endif
 2176              		.loc 1 855 21 discriminator 3 view .LVU690
 2177 0596 36F81310 		ldrh	r1, [r6, r3, lsl #1]
 2178 059a 24F81310 		strh	r1, [r4, r3, lsl #1]	@ movhi
 2179 059e EEE7     		b	.L97
 2180              	.LVL245:
 2181              	.L121:
 859:Middlewares/lvgl/src/draw/lv_draw_blend.c ****                 mask += draw_area_w;
 2182              		.loc 1 859 17 discriminator 2 view .LVU691
 859:Middlewares/lvgl/src/draw/lv_draw_blend.c ****                 mask += draw_area_w;
 2183              		.loc 1 859 32 is_stmt 0 discriminator 2 view .LVU692
 2184 05a0 059B     		ldr	r3, [sp, #20]
 2185              	.LVL246:
 859:Middlewares/lvgl/src/draw/lv_draw_blend.c ****                 mask += draw_area_w;
 2186              		.loc 1 859 32 discriminator 2 view .LVU693
 2187 05a2 04EB4304 		add	r4, r4, r3, lsl #1
 2188              	.LVL247:
 860:Middlewares/lvgl/src/draw/lv_draw_blend.c ****                 map_buf_first += map_w;
 2189              		.loc 1 860 17 is_stmt 1 discriminator 2 view .LVU694
 860:Middlewares/lvgl/src/draw/lv_draw_blend.c ****                 map_buf_first += map_w;
 2190              		.loc 1 860 22 is_stmt 0 discriminator 2 view .LVU695
 2191 05a6 189B     		ldr	r3, [sp, #96]
 2192 05a8 2B44     		add	r3, r3, r5
 2193 05aa 1893     		str	r3, [sp, #96]
 2194              	.LVL248:
 861:Middlewares/lvgl/src/draw/lv_draw_blend.c ****             }
 2195              		.loc 1 861 17 is_stmt 1 discriminator 2 view .LVU696
 861:Middlewares/lvgl/src/draw/lv_draw_blend.c ****             }
 2196              		.loc 1 861 31 is_stmt 0 discriminator 2 view .LVU697
ARM GAS  /tmp/ccViN4Ah.s 			page 77


 2197 05ac 049B     		ldr	r3, [sp, #16]
 2198              	.LVL249:
 861:Middlewares/lvgl/src/draw/lv_draw_blend.c ****             }
 2199              		.loc 1 861 31 discriminator 2 view .LVU698
 2200 05ae 06EB4306 		add	r6, r6, r3, lsl #1
 2201              	.LVL250:
 861:Middlewares/lvgl/src/draw/lv_draw_blend.c ****             }
 2202              		.loc 1 861 31 discriminator 2 view .LVU699
 2203              	.LBE137:
 808:Middlewares/lvgl/src/draw/lv_draw_blend.c ****                 const lv_opa_t * mask_tmp_x = mask;
 2204              		.loc 1 808 41 is_stmt 1 discriminator 2 view .LVU700
 808:Middlewares/lvgl/src/draw/lv_draw_blend.c ****                 const lv_opa_t * mask_tmp_x = mask;
 2205              		.loc 1 808 42 is_stmt 0 discriminator 2 view .LVU701
 2206 05b2 039B     		ldr	r3, [sp, #12]
 2207 05b4 0133     		adds	r3, r3, #1
 2208 05b6 0393     		str	r3, [sp, #12]
 2209              	.LVL251:
 2210              	.L80:
 808:Middlewares/lvgl/src/draw/lv_draw_blend.c ****                 const lv_opa_t * mask_tmp_x = mask;
 2211              		.loc 1 808 24 is_stmt 1 discriminator 1 view .LVU702
 808:Middlewares/lvgl/src/draw/lv_draw_blend.c ****                 const lv_opa_t * mask_tmp_x = mask;
 2212              		.loc 1 808 13 is_stmt 0 discriminator 1 view .LVU703
 2213 05b8 039B     		ldr	r3, [sp, #12]
 2214 05ba 069A     		ldr	r2, [sp, #24]
 2215 05bc 9342     		cmp	r3, r2
 2216 05be BFF688AD 		bge	.L71
 2217              	.LBB150:
 809:Middlewares/lvgl/src/draw/lv_draw_blend.c **** #if 0
 2218              		.loc 1 809 34 view .LVU704
 2219 05c2 189A     		ldr	r2, [sp, #96]
 815:Middlewares/lvgl/src/draw/lv_draw_blend.c **** #if LV_COLOR_SCREEN_TRANSP
 2220              		.loc 1 815 23 view .LVU705
 2221 05c4 0023     		movs	r3, #0
 2222 05c6 16E6     		b	.L100
 2223              	.LVL252:
 2224              	.L109:
 815:Middlewares/lvgl/src/draw/lv_draw_blend.c **** #if LV_COLOR_SCREEN_TRANSP
 2225              		.loc 1 815 23 view .LVU706
 2226              	.LBE150:
 2227              	.LBE153:
 2228              	.LBB154:
 869:Middlewares/lvgl/src/draw/lv_draw_blend.c **** #if LV_COLOR_SCREEN_TRANSP
 2229              		.loc 1 869 34 view .LVU707
 2230 05c8 0199     		ldr	r1, [sp, #4]
 2231              	.L102:
 2232              	.LVL253:
 878:Middlewares/lvgl/src/draw/lv_draw_blend.c ****                         }
 2233              		.loc 1 878 29 is_stmt 1 discriminator 4 view .LVU708
 2234 05ca 36F81870 		ldrh	r7, [r6, r8, lsl #1]
 2235 05ce 34F818C0 		ldrh	ip, [r4, r8, lsl #1]
 2236              	.LVL254:
 2237              	.LBB155:
 2238              	.LBI155:
 459:Middlewares/lvgl/src/draw/../misc/lv_color.h **** {
 2239              		.loc 3 459 48 discriminator 4 view .LVU709
 2240              	.LBB156:
 461:Middlewares/lvgl/src/draw/../misc/lv_color.h **** #if LV_COLOR_DEPTH != 1
ARM GAS  /tmp/ccViN4Ah.s 			page 78


 2241              		.loc 3 461 5 discriminator 4 view .LVU710
 464:Middlewares/lvgl/src/draw/../misc/lv_color.h ****                                         (255 - mix) + LV_COLOR_MIX_ROUND_OFS));
 2242              		.loc 3 464 5 discriminator 4 view .LVU711
 464:Middlewares/lvgl/src/draw/../misc/lv_color.h ****                                         (255 - mix) + LV_COLOR_MIX_ROUND_OFS));
 2243              		.loc 3 464 5 is_stmt 0 discriminator 4 view .LVU712
 2244 05d2 C7F3C42B 		ubfx	fp, r7, #11, #5
 2245              	.LVL255:
 464:Middlewares/lvgl/src/draw/../misc/lv_color.h ****                                         (255 - mix) + LV_COLOR_MIX_ROUND_OFS));
 2246              		.loc 3 464 5 discriminator 4 view .LVU713
 2247 05d6 CCF3C422 		ubfx	r2, ip, #11, #5
 2248 05da C1F1FF03 		rsb	r3, r1, #255
 2249 05de 03FB02F2 		mul	r2, r3, r2
 2250 05e2 01FB0B22 		mla	r2, r1, fp, r2
 2251 05e6 8032     		adds	r2, r2, #128
 2252 05e8 02EB022B 		add	fp, r2, r2, lsl #8
 2253 05ec 02EBCB12 		add	r2, r2, fp, lsl #7
 2254 05f0 C2F3C452 		ubfx	r2, r2, #23, #5
 2255 05f4 62F3CF2E 		bfi	lr, r2, #11, #5
 466:Middlewares/lvgl/src/draw/../misc/lv_color.h ****                                         (255 - mix) + LV_COLOR_MIX_ROUND_OFS));
 2256              		.loc 3 466 5 is_stmt 1 discriminator 4 view .LVU714
 2257 05f8 C7F3451B 		ubfx	fp, r7, #5, #6
 2258 05fc CCF34512 		ubfx	r2, ip, #5, #6
 2259 0600 03FB02F2 		mul	r2, r3, r2
 2260 0604 0BFB0122 		mla	r2, fp, r1, r2
 2261 0608 8032     		adds	r2, r2, #128
 2262 060a 02EB022B 		add	fp, r2, r2, lsl #8
 2263 060e 02EBCB12 		add	r2, r2, fp, lsl #7
 2264 0612 C2F3C552 		ubfx	r2, r2, #23, #6
 2265 0616 62F34A1E 		bfi	lr, r2, #5, #6
 468:Middlewares/lvgl/src/draw/../misc/lv_color.h ****                                         (255 - mix) + LV_COLOR_MIX_ROUND_OFS));
 2266              		.loc 3 468 5 discriminator 4 view .LVU715
 2267 061a 07F01F07 		and	r7, r7, #31
 2268              	.LVL256:
 468:Middlewares/lvgl/src/draw/../misc/lv_color.h ****                                         (255 - mix) + LV_COLOR_MIX_ROUND_OFS));
 2269              		.loc 3 468 5 is_stmt 0 discriminator 4 view .LVU716
 2270 061e 0CF01F0C 		and	ip, ip, #31
 2271              	.LVL257:
 468:Middlewares/lvgl/src/draw/../misc/lv_color.h ****                                         (255 - mix) + LV_COLOR_MIX_ROUND_OFS));
 2272              		.loc 3 468 5 discriminator 4 view .LVU717
 2273 0622 0CFB03F3 		mul	r3, ip, r3
 2274 0626 07FB0131 		mla	r1, r7, r1, r3
 2275              	.LVL258:
 468:Middlewares/lvgl/src/draw/../misc/lv_color.h ****                                         (255 - mix) + LV_COLOR_MIX_ROUND_OFS));
 2276              		.loc 3 468 5 discriminator 4 view .LVU718
 2277 062a 8031     		adds	r1, r1, #128
 2278 062c 01EB0123 		add	r3, r1, r1, lsl #8
 2279 0630 01EBC311 		add	r1, r1, r3, lsl #7
 2280 0634 C1F3C451 		ubfx	r1, r1, #23, #5
 2281 0638 61F3040E 		bfi	lr, r1, #0, #5
 470:Middlewares/lvgl/src/draw/../misc/lv_color.h **** #else
 2282              		.loc 3 470 5 is_stmt 1 discriminator 4 view .LVU719
 470:Middlewares/lvgl/src/draw/../misc/lv_color.h **** #else
 2283              		.loc 3 470 5 discriminator 4 view .LVU720
 470:Middlewares/lvgl/src/draw/../misc/lv_color.h **** #else
 2284              		.loc 3 470 5 discriminator 4 view .LVU721
 2285              		.loc 3 476 5 discriminator 4 view .LVU722
 2286              		.loc 3 476 5 is_stmt 0 discriminator 4 view .LVU723
ARM GAS  /tmp/ccViN4Ah.s 			page 79


 2287              	.LBE156:
 2288              	.LBE155:
 878:Middlewares/lvgl/src/draw/lv_draw_blend.c ****                         }
 2289              		.loc 1 878 49 discriminator 4 view .LVU724
 2290 063c 24F818E0 		strh	lr, [r4, r8, lsl #1]	@ movhi
 2291              	.L101:
 878:Middlewares/lvgl/src/draw/lv_draw_blend.c ****                         }
 2292              		.loc 1 878 49 discriminator 4 view .LVU725
 2293              	.LBE154:
 867:Middlewares/lvgl/src/draw/lv_draw_blend.c ****                     if(mask[x]) {
 2294              		.loc 1 867 45 is_stmt 1 discriminator 2 view .LVU726
 867:Middlewares/lvgl/src/draw/lv_draw_blend.c ****                     if(mask[x]) {
 2295              		.loc 1 867 46 is_stmt 0 discriminator 2 view .LVU727
 2296 0640 0130     		adds	r0, r0, #1
 2297              	.LVL259:
 2298              	.L104:
 867:Middlewares/lvgl/src/draw/lv_draw_blend.c ****                     if(mask[x]) {
 2299              		.loc 1 867 28 is_stmt 1 discriminator 1 view .LVU728
 867:Middlewares/lvgl/src/draw/lv_draw_blend.c ****                     if(mask[x]) {
 2300              		.loc 1 867 17 is_stmt 0 discriminator 1 view .LVU729
 2301 0642 A842     		cmp	r0, r5
 2302 0644 0BDA     		bge	.L122
 868:Middlewares/lvgl/src/draw/lv_draw_blend.c ****                         lv_opa_t opa_tmp = mask[x] >= LV_OPA_MAX ? opa : ((opa * mask[x]) >> 8);
 2303              		.loc 1 868 21 is_stmt 1 view .LVU730
 868:Middlewares/lvgl/src/draw/lv_draw_blend.c ****                         lv_opa_t opa_tmp = mask[x] >= LV_OPA_MAX ? opa : ((opa * mask[x]) >> 8);
 2304              		.loc 1 868 28 is_stmt 0 view .LVU731
 2305 0646 8046     		mov	r8, r0
 2306 0648 19F80010 		ldrb	r1, [r9, r0]	@ zero_extendqisi2
 868:Middlewares/lvgl/src/draw/lv_draw_blend.c ****                         lv_opa_t opa_tmp = mask[x] >= LV_OPA_MAX ? opa : ((opa * mask[x]) >> 8);
 2307              		.loc 1 868 23 view .LVU732
 2308 064c 0029     		cmp	r1, #0
 2309 064e F7D0     		beq	.L101
 2310              	.LBB157:
 869:Middlewares/lvgl/src/draw/lv_draw_blend.c **** #if LV_COLOR_SCREEN_TRANSP
 2311              		.loc 1 869 25 is_stmt 1 view .LVU733
 869:Middlewares/lvgl/src/draw/lv_draw_blend.c **** #if LV_COLOR_SCREEN_TRANSP
 2312              		.loc 1 869 34 is_stmt 0 view .LVU734
 2313 0650 FC29     		cmp	r1, #252
 2314 0652 B9D8     		bhi	.L109
 869:Middlewares/lvgl/src/draw/lv_draw_blend.c **** #if LV_COLOR_SCREEN_TRANSP
 2315              		.loc 1 869 80 discriminator 1 view .LVU735
 2316 0654 019B     		ldr	r3, [sp, #4]
 2317 0656 03FB01F1 		mul	r1, r3, r1
 869:Middlewares/lvgl/src/draw/lv_draw_blend.c **** #if LV_COLOR_SCREEN_TRANSP
 2318              		.loc 1 869 34 discriminator 1 view .LVU736
 2319 065a 090A     		lsrs	r1, r1, #8
 2320 065c B5E7     		b	.L102
 2321              	.L122:
 869:Middlewares/lvgl/src/draw/lv_draw_blend.c **** #if LV_COLOR_SCREEN_TRANSP
 2322              		.loc 1 869 34 discriminator 1 view .LVU737
 2323              	.LBE157:
 882:Middlewares/lvgl/src/draw/lv_draw_blend.c ****                 mask += draw_area_w;
 2324              		.loc 1 882 17 is_stmt 1 discriminator 2 view .LVU738
 882:Middlewares/lvgl/src/draw/lv_draw_blend.c ****                 mask += draw_area_w;
 2325              		.loc 1 882 32 is_stmt 0 discriminator 2 view .LVU739
 2326 065e 059B     		ldr	r3, [sp, #20]
 2327 0660 04EB4304 		add	r4, r4, r3, lsl #1
ARM GAS  /tmp/ccViN4Ah.s 			page 80


 2328              	.LVL260:
 883:Middlewares/lvgl/src/draw/lv_draw_blend.c ****                 map_buf_first += map_w;
 2329              		.loc 1 883 17 is_stmt 1 discriminator 2 view .LVU740
 883:Middlewares/lvgl/src/draw/lv_draw_blend.c ****                 map_buf_first += map_w;
 2330              		.loc 1 883 22 is_stmt 0 discriminator 2 view .LVU741
 2331 0664 A944     		add	r9, r9, r5
 2332              	.LVL261:
 884:Middlewares/lvgl/src/draw/lv_draw_blend.c ****             }
 2333              		.loc 1 884 17 is_stmt 1 discriminator 2 view .LVU742
 884:Middlewares/lvgl/src/draw/lv_draw_blend.c ****             }
 2334              		.loc 1 884 31 is_stmt 0 discriminator 2 view .LVU743
 2335 0666 049B     		ldr	r3, [sp, #16]
 2336 0668 06EB4306 		add	r6, r6, r3, lsl #1
 2337              	.LVL262:
 866:Middlewares/lvgl/src/draw/lv_draw_blend.c ****                 for(x = 0; x < draw_area_w; x++) {
 2338              		.loc 1 866 41 is_stmt 1 discriminator 2 view .LVU744
 866:Middlewares/lvgl/src/draw/lv_draw_blend.c ****                 for(x = 0; x < draw_area_w; x++) {
 2339              		.loc 1 866 42 is_stmt 0 discriminator 2 view .LVU745
 2340 066c 0AF1010A 		add	r10, r10, #1
 2341              	.LVL263:
 2342              	.L79:
 866:Middlewares/lvgl/src/draw/lv_draw_blend.c ****                 for(x = 0; x < draw_area_w; x++) {
 2343              		.loc 1 866 24 is_stmt 1 discriminator 1 view .LVU746
 866:Middlewares/lvgl/src/draw/lv_draw_blend.c ****                 for(x = 0; x < draw_area_w; x++) {
 2344              		.loc 1 866 13 is_stmt 0 discriminator 1 view .LVU747
 2345 0670 069B     		ldr	r3, [sp, #24]
 2346 0672 9A45     		cmp	r10, r3
 2347 0674 BFF62DAD 		bge	.L71
 867:Middlewares/lvgl/src/draw/lv_draw_blend.c ****                     if(mask[x]) {
 2348              		.loc 1 867 23 view .LVU748
 2349 0678 0020     		movs	r0, #0
 2350 067a E2E7     		b	.L104
 2351              	.LVL264:
 2352              	.L107:
 866:Middlewares/lvgl/src/draw/lv_draw_blend.c ****                 for(x = 0; x < draw_area_w; x++) {
 2353              		.loc 1 866 19 view .LVU749
 2354 067c 4FF0000A 		mov	r10, #0
 2355 0680 CDF80480 		str	r8, [sp, #4]
 2356 0684 DDF86090 		ldr	r9, [sp, #96]
 2357 0688 F2E7     		b	.L79
 2358              		.cfi_endproc
 2359              	.LFE153:
 2361              		.section	.text.fill_normal,"ax",%progbits
 2362              		.align	1
 2363              		.syntax unified
 2364              		.thumb
 2365              		.thumb_func
 2366              		.fpu fpv4-sp-d16
 2368              	fill_normal:
 2369              	.LVL265:
 2370              	.LFB150:
 300:Middlewares/lvgl/src/draw/lv_draw_blend.c **** 
 2371              		.loc 1 300 1 is_stmt 1 view -0
 2372              		.cfi_startproc
 2373              		@ args = 12, pretend = 0, frame = 40
 2374              		@ frame_needed = 0, uses_anonymous_args = 0
 300:Middlewares/lvgl/src/draw/lv_draw_blend.c **** 
ARM GAS  /tmp/ccViN4Ah.s 			page 81


 2375              		.loc 1 300 1 is_stmt 0 view .LVU751
 2376 0000 2DE9F04F 		push	{r4, r5, r6, r7, r8, r9, r10, fp, lr}
 2377              	.LCFI17:
 2378              		.cfi_def_cfa_offset 36
 2379              		.cfi_offset 4, -36
 2380              		.cfi_offset 5, -32
 2381              		.cfi_offset 6, -28
 2382              		.cfi_offset 7, -24
 2383              		.cfi_offset 8, -20
 2384              		.cfi_offset 9, -16
 2385              		.cfi_offset 10, -12
 2386              		.cfi_offset 11, -8
 2387              		.cfi_offset 14, -4
 2388 0004 8DB0     		sub	sp, sp, #52
 2389              	.LCFI18:
 2390              		.cfi_def_cfa_offset 88
 2391 0006 0446     		mov	r4, r0
 2392 0008 0291     		str	r1, [sp, #8]
 2393 000a 1646     		mov	r6, r2
 2394 000c 0692     		str	r2, [sp, #24]
 2395 000e 1D46     		mov	r5, r3	@ movhi
 2396              	.LVL266:
 300:Middlewares/lvgl/src/draw/lv_draw_blend.c **** 
 2397              		.loc 1 300 1 view .LVU752
 2398 0010 9DF85830 		ldrb	r3, [sp, #88]	@ zero_extendqisi2
 2399 0014 0393     		str	r3, [sp, #12]
 302:Middlewares/lvgl/src/draw/lv_draw_blend.c **** 
 2400              		.loc 1 302 5 is_stmt 1 view .LVU753
 302:Middlewares/lvgl/src/draw/lv_draw_blend.c **** 
 2401              		.loc 1 302 24 is_stmt 0 view .LVU754
 2402 0016 FFF7FEFF 		bl	_lv_refr_get_disp_refreshing
 2403              	.LVL267:
 302:Middlewares/lvgl/src/draw/lv_draw_blend.c **** 
 2404              		.loc 1 302 24 view .LVU755
 2405 001a 0790     		str	r0, [sp, #28]
 2406              	.LVL268:
 305:Middlewares/lvgl/src/draw/lv_draw_blend.c **** 
 2407              		.loc 1 305 5 is_stmt 1 view .LVU756
 2408              	.LBB192:
 2409              	.LBI192:
 133:Middlewares/lvgl/src/draw/../misc/lv_area.h **** {
 2410              		.loc 2 133 26 view .LVU757
 2411              	.LBB193:
 135:Middlewares/lvgl/src/draw/../misc/lv_area.h **** }
 2412              		.loc 2 135 5 view .LVU758
 135:Middlewares/lvgl/src/draw/../misc/lv_area.h **** }
 2413              		.loc 2 135 31 is_stmt 0 view .LVU759
 2414 001c A388     		ldrh	r3, [r4, #4]
 135:Middlewares/lvgl/src/draw/../misc/lv_area.h **** }
 2415              		.loc 2 135 44 view .LVU760
 2416 001e 2288     		ldrh	r2, [r4]
 135:Middlewares/lvgl/src/draw/../misc/lv_area.h **** }
 2417              		.loc 2 135 36 view .LVU761
 2418 0020 9B1A     		subs	r3, r3, r2
 2419 0022 9BB2     		uxth	r3, r3
 135:Middlewares/lvgl/src/draw/../misc/lv_area.h **** }
 2420              		.loc 2 135 49 view .LVU762
ARM GAS  /tmp/ccViN4Ah.s 			page 82


 2421 0024 0133     		adds	r3, r3, #1
 135:Middlewares/lvgl/src/draw/../misc/lv_area.h **** }
 2422              		.loc 2 135 12 view .LVU763
 2423 0026 1CB2     		sxth	r4, r3
 2424              	.LVL269:
 135:Middlewares/lvgl/src/draw/../misc/lv_area.h **** }
 2425              		.loc 2 135 12 view .LVU764
 2426 0028 0494     		str	r4, [sp, #16]
 2427              	.LVL270:
 135:Middlewares/lvgl/src/draw/../misc/lv_area.h **** }
 2428              		.loc 2 135 12 view .LVU765
 2429              	.LBE193:
 2430              	.LBE192:
 307:Middlewares/lvgl/src/draw/lv_draw_blend.c ****     int32_t draw_area_h = lv_area_get_height(draw_area);
 2431              		.loc 1 307 5 is_stmt 1 view .LVU766
 2432              	.LBB194:
 2433              	.LBI194:
 133:Middlewares/lvgl/src/draw/../misc/lv_area.h **** {
 2434              		.loc 2 133 26 view .LVU767
 2435              	.LBB195:
 135:Middlewares/lvgl/src/draw/../misc/lv_area.h **** }
 2436              		.loc 2 135 5 view .LVU768
 135:Middlewares/lvgl/src/draw/../misc/lv_area.h **** }
 2437              		.loc 2 135 31 is_stmt 0 view .LVU769
 2438 002a 3046     		mov	r0, r6
 2439              	.LVL271:
 135:Middlewares/lvgl/src/draw/../misc/lv_area.h **** }
 2440              		.loc 2 135 31 view .LVU770
 2441 002c B688     		ldrh	r6, [r6, #4]
 2442              	.LVL272:
 135:Middlewares/lvgl/src/draw/../misc/lv_area.h **** }
 2443              		.loc 2 135 44 view .LVU771
 2444 002e B0F90020 		ldrsh	r2, [r0]
 2445 0032 93B2     		uxth	r3, r2
 135:Middlewares/lvgl/src/draw/../misc/lv_area.h **** }
 2446              		.loc 2 135 36 view .LVU772
 2447 0034 F61A     		subs	r6, r6, r3
 2448 0036 B6B2     		uxth	r6, r6
 135:Middlewares/lvgl/src/draw/../misc/lv_area.h **** }
 2449              		.loc 2 135 49 view .LVU773
 2450 0038 0136     		adds	r6, r6, #1
 135:Middlewares/lvgl/src/draw/../misc/lv_area.h **** }
 2451              		.loc 2 135 12 view .LVU774
 2452 003a 36B2     		sxth	r6, r6
 2453              	.LVL273:
 135:Middlewares/lvgl/src/draw/../misc/lv_area.h **** }
 2454              		.loc 2 135 12 view .LVU775
 2455              	.LBE195:
 2456              	.LBE194:
 308:Middlewares/lvgl/src/draw/lv_draw_blend.c **** 
 2457              		.loc 1 308 5 is_stmt 1 view .LVU776
 2458              	.LBB196:
 2459              	.LBI196:
 143:Middlewares/lvgl/src/draw/../misc/lv_area.h **** {
 2460              		.loc 2 143 26 view .LVU777
 2461              	.LBB197:
 2462              		.loc 2 145 5 view .LVU778
ARM GAS  /tmp/ccViN4Ah.s 			page 83


 2463              		.loc 2 145 31 is_stmt 0 view .LVU779
 2464 003c C388     		ldrh	r3, [r0, #6]
 2465              		.loc 2 145 44 view .LVU780
 2466 003e B0F90210 		ldrsh	r1, [r0, #2]
 2467 0042 88B2     		uxth	r0, r1
 2468              	.LVL274:
 2469              		.loc 2 145 36 view .LVU781
 2470 0044 1B1A     		subs	r3, r3, r0
 2471 0046 9BB2     		uxth	r3, r3
 2472              		.loc 2 145 49 view .LVU782
 2473 0048 0133     		adds	r3, r3, #1
 2474              		.loc 2 145 12 view .LVU783
 2475 004a 1BB2     		sxth	r3, r3
 2476 004c 0993     		str	r3, [sp, #36]
 2477              	.LVL275:
 2478              		.loc 2 145 12 view .LVU784
 2479              	.LBE197:
 2480              	.LBE196:
 311:Middlewares/lvgl/src/draw/lv_draw_blend.c **** 
 2481              		.loc 1 311 5 is_stmt 1 view .LVU785
 311:Middlewares/lvgl/src/draw/lv_draw_blend.c **** 
 2482              		.loc 1 311 69 is_stmt 0 view .LVU786
 2483 004e 04FB0122 		mla	r2, r4, r1, r2
 311:Middlewares/lvgl/src/draw/lv_draw_blend.c **** 
 2484              		.loc 1 311 18 view .LVU787
 2485 0052 029B     		ldr	r3, [sp, #8]
 2486              	.LVL276:
 311:Middlewares/lvgl/src/draw/lv_draw_blend.c **** 
 2487              		.loc 1 311 18 view .LVU788
 2488 0054 03EB4204 		add	r4, r3, r2, lsl #1
 2489              	.LVL277:
 313:Middlewares/lvgl/src/draw/lv_draw_blend.c ****     int32_t y;
 2490              		.loc 1 313 5 is_stmt 1 view .LVU789
 314:Middlewares/lvgl/src/draw/lv_draw_blend.c **** 
 2491              		.loc 1 314 5 view .LVU790
 317:Middlewares/lvgl/src/draw/lv_draw_blend.c ****         if(opa > LV_OPA_MAX) {
 2492              		.loc 1 317 5 view .LVU791
 317:Middlewares/lvgl/src/draw/lv_draw_blend.c ****         if(opa > LV_OPA_MAX) {
 2493              		.loc 1 317 7 is_stmt 0 view .LVU792
 2494 0058 9DF86030 		ldrb	r3, [sp, #96]	@ zero_extendqisi2
 2495 005c 012B     		cmp	r3, #1
 2496 005e 0ED0     		beq	.L173
 2497 0060 8C46     		mov	ip, r1
 2498              	.LBB198:
 396:Middlewares/lvgl/src/draw/lv_draw_blend.c ****         lv_color_t last_res_color;
 2499              		.loc 1 396 9 is_stmt 1 view .LVU793
 397:Middlewares/lvgl/src/draw/lv_draw_blend.c ****         lv_opa_t last_mask = LV_OPA_TRANSP;
 2500              		.loc 1 397 9 view .LVU794
 398:Middlewares/lvgl/src/draw/lv_draw_blend.c ****         last_dest_color.full = disp_buf_first[0].full;
 2501              		.loc 1 398 9 view .LVU795
 2502              	.LVL278:
 399:Middlewares/lvgl/src/draw/lv_draw_blend.c ****         last_res_color.full = disp_buf_first[0].full;
 2503              		.loc 1 399 9 view .LVU796
 399:Middlewares/lvgl/src/draw/lv_draw_blend.c ****         last_res_color.full = disp_buf_first[0].full;
 2504              		.loc 1 399 49 is_stmt 0 view .LVU797
 2505 0062 029B     		ldr	r3, [sp, #8]
 2506 0064 33F81210 		ldrh	r1, [r3, r2, lsl #1]
ARM GAS  /tmp/ccViN4Ah.s 			page 84


 399:Middlewares/lvgl/src/draw/lv_draw_blend.c ****         last_res_color.full = disp_buf_first[0].full;
 2507              		.loc 1 399 30 view .LVU798
 2508 0068 0846     		mov	r0, r1	@ movhi
 2509              	.LVL279:
 400:Middlewares/lvgl/src/draw/lv_draw_blend.c **** 
 2510              		.loc 1 400 9 is_stmt 1 view .LVU799
 402:Middlewares/lvgl/src/draw/lv_draw_blend.c **** 
 2511              		.loc 1 402 9 view .LVU800
 402:Middlewares/lvgl/src/draw/lv_draw_blend.c **** 
 2512              		.loc 1 402 17 is_stmt 0 view .LVU801
 2513 006a 331F     		subs	r3, r6, #4
 2514 006c 0293     		str	r3, [sp, #8]
 2515              	.LVL280:
 405:Middlewares/lvgl/src/draw/lv_draw_blend.c ****             for(y = 0; y < draw_area_h; y++) {
 2516              		.loc 1 405 9 is_stmt 1 view .LVU802
 405:Middlewares/lvgl/src/draw/lv_draw_blend.c ****             for(y = 0; y < draw_area_h; y++) {
 2517              		.loc 1 405 11 is_stmt 0 view .LVU803
 2518 006e 039B     		ldr	r3, [sp, #12]
 2519              	.LVL281:
 405:Middlewares/lvgl/src/draw/lv_draw_blend.c ****             for(y = 0; y < draw_area_h; y++) {
 2520              		.loc 1 405 11 view .LVU804
 2521 0070 FD2B     		cmp	r3, #253
 2522 0072 00F29E82 		bhi	.L167
 2523              	.LBB199:
 467:Middlewares/lvgl/src/draw/lv_draw_blend.c ****             for(y = draw_area->y1; y <= draw_area->y2; y++) {
 2524              		.loc 1 467 22 view .LVU805
 2525 0076 4FF0000E 		mov	lr, #0
 2526              	.LBE199:
 398:Middlewares/lvgl/src/draw/lv_draw_blend.c ****         last_dest_color.full = disp_buf_first[0].full;
 2527              		.loc 1 398 18 view .LVU806
 2528 007a F046     		mov	r8, lr
 2529 007c 05E3     		b	.L136
 2530              	.LVL282:
 2531              	.L173:
 398:Middlewares/lvgl/src/draw/lv_draw_blend.c ****         last_dest_color.full = disp_buf_first[0].full;
 2532              		.loc 1 398 18 view .LVU807
 2533              	.LBE198:
 318:Middlewares/lvgl/src/draw/lv_draw_blend.c **** #if LV_USE_GPU_NXP_PXP
 2534              		.loc 1 318 9 is_stmt 1 view .LVU808
 318:Middlewares/lvgl/src/draw/lv_draw_blend.c **** #if LV_USE_GPU_NXP_PXP
 2535              		.loc 1 318 11 is_stmt 0 view .LVU809
 2536 007e 039B     		ldr	r3, [sp, #12]
 2537 0080 FD2B     		cmp	r3, #253
 2538 0082 25D9     		bls	.L125
 338:Middlewares/lvgl/src/draw/lv_draw_blend.c ****                 disp->driver->gpu_fill_cb(disp->driver, disp_buf, disp_w, draw_area, color);
 2539              		.loc 1 338 13 is_stmt 1 view .LVU810
 338:Middlewares/lvgl/src/draw/lv_draw_blend.c ****                 disp->driver->gpu_fill_cb(disp->driver, disp_buf, disp_w, draw_area, color);
 2540              		.loc 1 338 20 is_stmt 0 view .LVU811
 2541 0084 079B     		ldr	r3, [sp, #28]
 2542 0086 1B68     		ldr	r3, [r3]
 338:Middlewares/lvgl/src/draw/lv_draw_blend.c ****                 disp->driver->gpu_fill_cb(disp->driver, disp_buf, disp_w, draw_area, color);
 2543              		.loc 1 338 28 view .LVU812
 2544 0088 DB6A     		ldr	r3, [r3, #44]
 338:Middlewares/lvgl/src/draw/lv_draw_blend.c ****                 disp->driver->gpu_fill_cb(disp->driver, disp_buf, disp_w, draw_area, color);
 2545              		.loc 1 338 15 view .LVU813
 2546 008a 23B1     		cbz	r3, .L126
 338:Middlewares/lvgl/src/draw/lv_draw_blend.c ****                 disp->driver->gpu_fill_cb(disp->driver, disp_buf, disp_w, draw_area, color);
ARM GAS  /tmp/ccViN4Ah.s 			page 85


 2547              		.loc 1 338 45 discriminator 1 view .LVU814
 2548 008c 0698     		ldr	r0, [sp, #24]
 2549 008e FFF7FEFF 		bl	lv_area_get_size
 2550              	.LVL283:
 338:Middlewares/lvgl/src/draw/lv_draw_blend.c ****                 disp->driver->gpu_fill_cb(disp->driver, disp_buf, disp_w, draw_area, color);
 2551              		.loc 1 338 42 discriminator 1 view .LVU815
 2552 0092 F028     		cmp	r0, #240
 2553 0094 05D8     		bhi	.L127
 2554              	.L126:
 300:Middlewares/lvgl/src/draw/lv_draw_blend.c **** 
 2555              		.loc 1 300 1 discriminator 1 view .LVU816
 2556 0096 0027     		movs	r7, #0
 2557 0098 DDF82480 		ldr	r8, [sp, #36]
 2558 009c DDF81090 		ldr	r9, [sp, #16]
 2559 00a0 11E0     		b	.L128
 2560              	.L127:
 339:Middlewares/lvgl/src/draw/lv_draw_blend.c ****                 return;
 2561              		.loc 1 339 17 is_stmt 1 view .LVU817
 339:Middlewares/lvgl/src/draw/lv_draw_blend.c ****                 return;
 2562              		.loc 1 339 21 is_stmt 0 view .LVU818
 2563 00a2 079B     		ldr	r3, [sp, #28]
 2564 00a4 1868     		ldr	r0, [r3]
 339:Middlewares/lvgl/src/draw/lv_draw_blend.c ****                 return;
 2565              		.loc 1 339 29 view .LVU819
 2566 00a6 C46A     		ldr	r4, [r0, #44]
 2567              	.LVL284:
 339:Middlewares/lvgl/src/draw/lv_draw_blend.c ****                 return;
 2568              		.loc 1 339 17 view .LVU820
 2569 00a8 ADF80050 		strh	r5, [sp]	@ movhi
 2570 00ac 069B     		ldr	r3, [sp, #24]
 2571 00ae 049A     		ldr	r2, [sp, #16]
 2572 00b0 0299     		ldr	r1, [sp, #8]
 2573 00b2 A047     		blx	r4
 2574              	.LVL285:
 340:Middlewares/lvgl/src/draw/lv_draw_blend.c ****             }
 2575              		.loc 1 340 17 is_stmt 1 view .LVU821
 2576 00b4 09E0     		b	.L123
 2577              	.LVL286:
 2578              	.L130:
 345:Middlewares/lvgl/src/draw/lv_draw_blend.c ****                 disp_buf_first += disp_w;
 2579              		.loc 1 345 17 discriminator 3 view .LVU822
 2580 00b6 3246     		mov	r2, r6
 2581 00b8 2946     		mov	r1, r5	@ movhi
 2582 00ba 2046     		mov	r0, r4
 2583 00bc FFF7FEFF 		bl	lv_color_fill
 2584              	.LVL287:
 346:Middlewares/lvgl/src/draw/lv_draw_blend.c ****             }
 2585              		.loc 1 346 17 discriminator 3 view .LVU823
 346:Middlewares/lvgl/src/draw/lv_draw_blend.c ****             }
 2586              		.loc 1 346 32 is_stmt 0 discriminator 3 view .LVU824
 2587 00c0 04EB4904 		add	r4, r4, r9, lsl #1
 2588              	.LVL288:
 344:Middlewares/lvgl/src/draw/lv_draw_blend.c ****                 lv_color_fill(disp_buf_first, color, draw_area_w);
 2589              		.loc 1 344 41 is_stmt 1 discriminator 3 view .LVU825
 344:Middlewares/lvgl/src/draw/lv_draw_blend.c ****                 lv_color_fill(disp_buf_first, color, draw_area_w);
 2590              		.loc 1 344 42 is_stmt 0 discriminator 3 view .LVU826
 2591 00c4 0137     		adds	r7, r7, #1
ARM GAS  /tmp/ccViN4Ah.s 			page 86


 2592              	.LVL289:
 2593              	.L128:
 344:Middlewares/lvgl/src/draw/lv_draw_blend.c ****                 lv_color_fill(disp_buf_first, color, draw_area_w);
 2594              		.loc 1 344 24 is_stmt 1 discriminator 1 view .LVU827
 344:Middlewares/lvgl/src/draw/lv_draw_blend.c ****                 lv_color_fill(disp_buf_first, color, draw_area_w);
 2595              		.loc 1 344 13 is_stmt 0 discriminator 1 view .LVU828
 2596 00c6 4745     		cmp	r7, r8
 2597 00c8 F5DB     		blt	.L130
 2598              	.LVL290:
 2599              	.L123:
 498:Middlewares/lvgl/src/draw/lv_draw_blend.c **** 
 2600              		.loc 1 498 1 view .LVU829
 2601 00ca 0DB0     		add	sp, sp, #52
 2602              	.LCFI19:
 2603              		.cfi_remember_state
 2604              		.cfi_def_cfa_offset 36
 2605              		@ sp needed
 2606 00cc BDE8F08F 		pop	{r4, r5, r6, r7, r8, r9, r10, fp, pc}
 2607              	.LVL291:
 2608              	.L125:
 2609              	.LCFI20:
 2610              		.cfi_restore_state
 2611              	.LBB219:
 364:Middlewares/lvgl/src/draw/lv_draw_blend.c ****             lv_color_t last_res_color = lv_color_mix(color, last_dest_color, opa);
 2612              		.loc 1 364 13 is_stmt 1 view .LVU830
 2613              	.LBB220:
 2614              	.LBI220:
 477:Middlewares/lvgl/src/draw/../misc/lv_color.h **** }
 478:Middlewares/lvgl/src/draw/../misc/lv_color.h **** 
 479:Middlewares/lvgl/src/draw/../misc/lv_color.h **** LV_ATTRIBUTE_FAST_MEM static inline void lv_color_premult(lv_color_t c, uint8_t mix, uint16_t * out
 480:Middlewares/lvgl/src/draw/../misc/lv_color.h **** {
 481:Middlewares/lvgl/src/draw/../misc/lv_color.h **** #if LV_COLOR_DEPTH != 1
 482:Middlewares/lvgl/src/draw/../misc/lv_color.h ****     out[0] = (uint16_t) LV_COLOR_GET_R(c) * mix;
 483:Middlewares/lvgl/src/draw/../misc/lv_color.h ****     out[1] = (uint16_t) LV_COLOR_GET_G(c) * mix;
 484:Middlewares/lvgl/src/draw/../misc/lv_color.h ****     out[2] = (uint16_t) LV_COLOR_GET_B(c) * mix;
 485:Middlewares/lvgl/src/draw/../misc/lv_color.h **** #else
 486:Middlewares/lvgl/src/draw/../misc/lv_color.h ****     (void) mix;
 487:Middlewares/lvgl/src/draw/../misc/lv_color.h ****     /*Pre-multiplication can't be used with 1 bpp*/
 488:Middlewares/lvgl/src/draw/../misc/lv_color.h ****     out[0] = LV_COLOR_GET_R(c);
 489:Middlewares/lvgl/src/draw/../misc/lv_color.h ****     out[1] = LV_COLOR_GET_G(c);
 490:Middlewares/lvgl/src/draw/../misc/lv_color.h ****     out[2] = LV_COLOR_GET_B(c);
 491:Middlewares/lvgl/src/draw/../misc/lv_color.h **** #endif
 492:Middlewares/lvgl/src/draw/../misc/lv_color.h **** 
 493:Middlewares/lvgl/src/draw/../misc/lv_color.h **** }
 494:Middlewares/lvgl/src/draw/../misc/lv_color.h **** 
 495:Middlewares/lvgl/src/draw/../misc/lv_color.h **** /**
 496:Middlewares/lvgl/src/draw/../misc/lv_color.h ****  * Mix two colors with a given ratio. It runs faster then `lv_color_mix` but requires some pre comp
 497:Middlewares/lvgl/src/draw/../misc/lv_color.h ****  * @param premult_c1 The first color. Should be preprocessed with `lv_color_premult(c1)`
 498:Middlewares/lvgl/src/draw/../misc/lv_color.h ****  * @param c2 The second color. As it is no pre computation required on it
 499:Middlewares/lvgl/src/draw/../misc/lv_color.h ****  * @param mix The ratio of the colors. 0: full `c1`, 255: full `c2`, 127: half `c1` and half `c2`.
 500:Middlewares/lvgl/src/draw/../misc/lv_color.h ****  *            Should be modified like mix = `255 - mix`
 501:Middlewares/lvgl/src/draw/../misc/lv_color.h ****  * @return the mixed color
 502:Middlewares/lvgl/src/draw/../misc/lv_color.h ****  * @note 255 won't give clearly `c1`.
 503:Middlewares/lvgl/src/draw/../misc/lv_color.h ****  */
 504:Middlewares/lvgl/src/draw/../misc/lv_color.h **** LV_ATTRIBUTE_FAST_MEM static inline lv_color_t lv_color_mix_premult(uint16_t * premult_c1, lv_color
 505:Middlewares/lvgl/src/draw/../misc/lv_color.h **** {
 506:Middlewares/lvgl/src/draw/../misc/lv_color.h ****     lv_color_t ret;
ARM GAS  /tmp/ccViN4Ah.s 			page 87


 507:Middlewares/lvgl/src/draw/../misc/lv_color.h **** #if LV_COLOR_DEPTH != 1
 508:Middlewares/lvgl/src/draw/../misc/lv_color.h ****     /*LV_COLOR_DEPTH == 8, 16 or 32*/
 509:Middlewares/lvgl/src/draw/../misc/lv_color.h ****     LV_COLOR_SET_R(ret, LV_UDIV255(premult_c1[0] + LV_COLOR_GET_R(c2) * mix + LV_COLOR_MIX_ROUND_OF
 510:Middlewares/lvgl/src/draw/../misc/lv_color.h ****     LV_COLOR_SET_G(ret, LV_UDIV255(premult_c1[1] + LV_COLOR_GET_G(c2) * mix + LV_COLOR_MIX_ROUND_OF
 511:Middlewares/lvgl/src/draw/../misc/lv_color.h ****     LV_COLOR_SET_B(ret, LV_UDIV255(premult_c1[2] + LV_COLOR_GET_B(c2) * mix + LV_COLOR_MIX_ROUND_OF
 512:Middlewares/lvgl/src/draw/../misc/lv_color.h ****     LV_COLOR_SET_A(ret, 0xFF);
 513:Middlewares/lvgl/src/draw/../misc/lv_color.h **** #else
 514:Middlewares/lvgl/src/draw/../misc/lv_color.h ****     /*LV_COLOR_DEPTH == 1*/
 515:Middlewares/lvgl/src/draw/../misc/lv_color.h ****     /*Restore color1*/
 516:Middlewares/lvgl/src/draw/../misc/lv_color.h ****     lv_color_t c1;
 517:Middlewares/lvgl/src/draw/../misc/lv_color.h ****     LV_COLOR_SET_R(c1, premult_c1[0]);
 518:Middlewares/lvgl/src/draw/../misc/lv_color.h ****     LV_COLOR_SET_G(c1, premult_c1[1]);
 519:Middlewares/lvgl/src/draw/../misc/lv_color.h ****     LV_COLOR_SET_B(c1, premult_c1[2]);
 520:Middlewares/lvgl/src/draw/../misc/lv_color.h ****     ret.full = mix > LV_OPA_50 ? c2.full : c1.full;
 521:Middlewares/lvgl/src/draw/../misc/lv_color.h **** #endif
 522:Middlewares/lvgl/src/draw/../misc/lv_color.h **** 
 523:Middlewares/lvgl/src/draw/../misc/lv_color.h ****     return ret;
 524:Middlewares/lvgl/src/draw/../misc/lv_color.h **** }
 525:Middlewares/lvgl/src/draw/../misc/lv_color.h **** 
 526:Middlewares/lvgl/src/draw/../misc/lv_color.h **** /**
 527:Middlewares/lvgl/src/draw/../misc/lv_color.h ****  * Mix two colors. Both color can have alpha value.
 528:Middlewares/lvgl/src/draw/../misc/lv_color.h ****  * @param bg_color background color
 529:Middlewares/lvgl/src/draw/../misc/lv_color.h ****  * @param bg_opa alpha of the background color
 530:Middlewares/lvgl/src/draw/../misc/lv_color.h ****  * @param fg_color foreground color
 531:Middlewares/lvgl/src/draw/../misc/lv_color.h ****  * @param fg_opa alpha of the foreground color
 532:Middlewares/lvgl/src/draw/../misc/lv_color.h ****  * @param res_color the result color
 533:Middlewares/lvgl/src/draw/../misc/lv_color.h ****  * @param res_opa the result opacity
 534:Middlewares/lvgl/src/draw/../misc/lv_color.h ****  */
 535:Middlewares/lvgl/src/draw/../misc/lv_color.h **** LV_ATTRIBUTE_FAST_MEM static inline void lv_color_mix_with_alpha(lv_color_t bg_color, lv_opa_t bg_o
 536:Middlewares/lvgl/src/draw/../misc/lv_color.h ****                                                                  lv_color_t fg_color, lv_opa_t fg_o
 537:Middlewares/lvgl/src/draw/../misc/lv_color.h ****                                                                  lv_color_t * res_color, lv_opa_t *
 538:Middlewares/lvgl/src/draw/../misc/lv_color.h **** {
 539:Middlewares/lvgl/src/draw/../misc/lv_color.h ****     /*Pick the foreground if it's fully opaque or the Background is fully transparent*/
 540:Middlewares/lvgl/src/draw/../misc/lv_color.h ****     if(fg_opa >= LV_OPA_MAX || bg_opa <= LV_OPA_MIN) {
 541:Middlewares/lvgl/src/draw/../misc/lv_color.h ****         res_color->full = fg_color.full;
 542:Middlewares/lvgl/src/draw/../misc/lv_color.h ****         *res_opa = fg_opa;
 543:Middlewares/lvgl/src/draw/../misc/lv_color.h ****     }
 544:Middlewares/lvgl/src/draw/../misc/lv_color.h ****     /*Transparent foreground: use the Background*/
 545:Middlewares/lvgl/src/draw/../misc/lv_color.h ****     else if(fg_opa <= LV_OPA_MIN) {
 546:Middlewares/lvgl/src/draw/../misc/lv_color.h ****         res_color->full = bg_color.full;
 547:Middlewares/lvgl/src/draw/../misc/lv_color.h ****         *res_opa = bg_opa;
 548:Middlewares/lvgl/src/draw/../misc/lv_color.h ****     }
 549:Middlewares/lvgl/src/draw/../misc/lv_color.h ****     /*Opaque background: use simple mix*/
 550:Middlewares/lvgl/src/draw/../misc/lv_color.h ****     else if(bg_opa >= LV_OPA_MAX) {
 551:Middlewares/lvgl/src/draw/../misc/lv_color.h ****         *res_color = lv_color_mix(fg_color, bg_color, fg_opa);
 552:Middlewares/lvgl/src/draw/../misc/lv_color.h ****         *res_opa = LV_OPA_COVER;
 553:Middlewares/lvgl/src/draw/../misc/lv_color.h ****     }
 554:Middlewares/lvgl/src/draw/../misc/lv_color.h ****     /*Both colors have alpha. Expensive calculation need to be applied*/
 555:Middlewares/lvgl/src/draw/../misc/lv_color.h ****     else {
 556:Middlewares/lvgl/src/draw/../misc/lv_color.h ****         /*Save the parameters and the result. If they will be asked again don't compute again*/
 557:Middlewares/lvgl/src/draw/../misc/lv_color.h ****         static lv_opa_t fg_opa_save     = 0;
 558:Middlewares/lvgl/src/draw/../misc/lv_color.h ****         static lv_opa_t bg_opa_save     = 0;
 559:Middlewares/lvgl/src/draw/../misc/lv_color.h ****         static lv_color_t fg_color_save = _LV_COLOR_ZERO_INITIALIZER;
 560:Middlewares/lvgl/src/draw/../misc/lv_color.h ****         static lv_color_t bg_color_save = _LV_COLOR_ZERO_INITIALIZER;
 561:Middlewares/lvgl/src/draw/../misc/lv_color.h ****         static lv_color_t res_color_saved = _LV_COLOR_ZERO_INITIALIZER;
 562:Middlewares/lvgl/src/draw/../misc/lv_color.h ****         static lv_opa_t res_opa_saved = 0;
 563:Middlewares/lvgl/src/draw/../misc/lv_color.h **** 
ARM GAS  /tmp/ccViN4Ah.s 			page 88


 564:Middlewares/lvgl/src/draw/../misc/lv_color.h ****         if(fg_opa != fg_opa_save || bg_opa != bg_opa_save || fg_color.full != fg_color_save.full ||
 565:Middlewares/lvgl/src/draw/../misc/lv_color.h ****            bg_color.full != bg_color_save.full) {
 566:Middlewares/lvgl/src/draw/../misc/lv_color.h ****             fg_opa_save        = fg_opa;
 567:Middlewares/lvgl/src/draw/../misc/lv_color.h ****             bg_opa_save        = bg_opa;
 568:Middlewares/lvgl/src/draw/../misc/lv_color.h ****             fg_color_save.full = fg_color.full;
 569:Middlewares/lvgl/src/draw/../misc/lv_color.h ****             bg_color_save.full = bg_color.full;
 570:Middlewares/lvgl/src/draw/../misc/lv_color.h ****             /*Info:
 571:Middlewares/lvgl/src/draw/../misc/lv_color.h ****              * https://en.wikipedia.org/wiki/Alpha_compositing#Analytical_derivation_of_the_over_op
 572:Middlewares/lvgl/src/draw/../misc/lv_color.h ****             res_opa_saved = 255 - ((uint16_t)((uint16_t)(255 - fg_opa) * (255 - bg_opa)) >> 8);
 573:Middlewares/lvgl/src/draw/../misc/lv_color.h ****             if(res_opa_saved == 0) {
 574:Middlewares/lvgl/src/draw/../misc/lv_color.h ****                 while(1)
 575:Middlewares/lvgl/src/draw/../misc/lv_color.h ****                     ;
 576:Middlewares/lvgl/src/draw/../misc/lv_color.h ****             }
 577:Middlewares/lvgl/src/draw/../misc/lv_color.h ****             lv_opa_t ratio = (uint16_t)((uint16_t)fg_opa * 255) / res_opa_saved;
 578:Middlewares/lvgl/src/draw/../misc/lv_color.h ****             res_color_saved = lv_color_mix(fg_color, bg_color, ratio);
 579:Middlewares/lvgl/src/draw/../misc/lv_color.h **** 
 580:Middlewares/lvgl/src/draw/../misc/lv_color.h ****         }
 581:Middlewares/lvgl/src/draw/../misc/lv_color.h **** 
 582:Middlewares/lvgl/src/draw/../misc/lv_color.h ****         res_color->full = res_color_saved.full;
 583:Middlewares/lvgl/src/draw/../misc/lv_color.h ****         *res_opa = res_opa_saved;
 584:Middlewares/lvgl/src/draw/../misc/lv_color.h ****     }
 585:Middlewares/lvgl/src/draw/../misc/lv_color.h **** }
 586:Middlewares/lvgl/src/draw/../misc/lv_color.h **** 
 587:Middlewares/lvgl/src/draw/../misc/lv_color.h **** //! @endcond
 588:Middlewares/lvgl/src/draw/../misc/lv_color.h **** 
 589:Middlewares/lvgl/src/draw/../misc/lv_color.h **** /**
 590:Middlewares/lvgl/src/draw/../misc/lv_color.h ****  * Get the brightness of a color
 591:Middlewares/lvgl/src/draw/../misc/lv_color.h ****  * @param color a color
 592:Middlewares/lvgl/src/draw/../misc/lv_color.h ****  * @return the brightness [0..255]
 593:Middlewares/lvgl/src/draw/../misc/lv_color.h ****  */
 594:Middlewares/lvgl/src/draw/../misc/lv_color.h **** static inline uint8_t lv_color_brightness(lv_color_t color)
 595:Middlewares/lvgl/src/draw/../misc/lv_color.h **** {
 596:Middlewares/lvgl/src/draw/../misc/lv_color.h ****     lv_color32_t c32;
 597:Middlewares/lvgl/src/draw/../misc/lv_color.h ****     c32.full        = lv_color_to32(color);
 598:Middlewares/lvgl/src/draw/../misc/lv_color.h ****     uint16_t bright = (uint16_t)(3u * LV_COLOR_GET_R32(c32) + LV_COLOR_GET_B32(c32) + 4u * LV_COLOR
 599:Middlewares/lvgl/src/draw/../misc/lv_color.h ****     return (uint8_t)(bright >> 3);
 600:Middlewares/lvgl/src/draw/../misc/lv_color.h **** }
 601:Middlewares/lvgl/src/draw/../misc/lv_color.h **** 
 602:Middlewares/lvgl/src/draw/../misc/lv_color.h **** static inline lv_color_t lv_color_make(uint8_t r, uint8_t g, uint8_t b)
 603:Middlewares/lvgl/src/draw/../misc/lv_color.h **** {
 604:Middlewares/lvgl/src/draw/../misc/lv_color.h ****     return _LV_COLOR_MAKE_TYPE_HELPER LV_COLOR_MAKE(r, g, b);
 605:Middlewares/lvgl/src/draw/../misc/lv_color.h **** }
 606:Middlewares/lvgl/src/draw/../misc/lv_color.h **** 
 607:Middlewares/lvgl/src/draw/../misc/lv_color.h **** static inline lv_color_t lv_color_hex(uint32_t c)
 608:Middlewares/lvgl/src/draw/../misc/lv_color.h **** {
 609:Middlewares/lvgl/src/draw/../misc/lv_color.h ****     return lv_color_make((uint8_t)((c >> 16) & 0xFF), (uint8_t)((c >> 8) & 0xFF), (uint8_t)(c & 0xF
 610:Middlewares/lvgl/src/draw/../misc/lv_color.h **** }
 611:Middlewares/lvgl/src/draw/../misc/lv_color.h **** 
 612:Middlewares/lvgl/src/draw/../misc/lv_color.h **** static inline lv_color_t lv_color_hex3(uint32_t c)
 613:Middlewares/lvgl/src/draw/../misc/lv_color.h **** {
 614:Middlewares/lvgl/src/draw/../misc/lv_color.h ****     return lv_color_make((uint8_t)(((c >> 4) & 0xF0) | ((c >> 8) & 0xF)), (uint8_t)((c & 0xF0) | ((
 615:Middlewares/lvgl/src/draw/../misc/lv_color.h ****                          (uint8_t)((c & 0xF) | ((c & 0xF) << 4)));
 616:Middlewares/lvgl/src/draw/../misc/lv_color.h **** }
 617:Middlewares/lvgl/src/draw/../misc/lv_color.h **** 
 618:Middlewares/lvgl/src/draw/../misc/lv_color.h **** static inline void lv_color_filter_dsc_init(lv_color_filter_dsc_t * dsc, lv_color_filter_cb_t cb)
 619:Middlewares/lvgl/src/draw/../misc/lv_color.h **** {
 620:Middlewares/lvgl/src/draw/../misc/lv_color.h ****     dsc->filter_cb = cb;
ARM GAS  /tmp/ccViN4Ah.s 			page 89


 621:Middlewares/lvgl/src/draw/../misc/lv_color.h **** }
 622:Middlewares/lvgl/src/draw/../misc/lv_color.h **** 
 623:Middlewares/lvgl/src/draw/../misc/lv_color.h **** //! @cond Doxygen_Suppress
 624:Middlewares/lvgl/src/draw/../misc/lv_color.h **** //!
 625:Middlewares/lvgl/src/draw/../misc/lv_color.h **** LV_ATTRIBUTE_FAST_MEM void lv_color_fill(lv_color_t * buf, lv_color_t color, uint32_t px_num);
 626:Middlewares/lvgl/src/draw/../misc/lv_color.h **** 
 627:Middlewares/lvgl/src/draw/../misc/lv_color.h **** //! @endcond
 628:Middlewares/lvgl/src/draw/../misc/lv_color.h **** lv_color_t lv_color_lighten(lv_color_t c, lv_opa_t lvl);
 629:Middlewares/lvgl/src/draw/../misc/lv_color.h **** 
 630:Middlewares/lvgl/src/draw/../misc/lv_color.h **** lv_color_t lv_color_darken(lv_color_t c, lv_opa_t lvl);
 631:Middlewares/lvgl/src/draw/../misc/lv_color.h **** 
 632:Middlewares/lvgl/src/draw/../misc/lv_color.h **** lv_color_t lv_color_change_lightness(lv_color_t c, lv_opa_t lvl);
 633:Middlewares/lvgl/src/draw/../misc/lv_color.h **** 
 634:Middlewares/lvgl/src/draw/../misc/lv_color.h **** /**
 635:Middlewares/lvgl/src/draw/../misc/lv_color.h ****  * Convert a HSV color to RGB
 636:Middlewares/lvgl/src/draw/../misc/lv_color.h ****  * @param h hue [0..359]
 637:Middlewares/lvgl/src/draw/../misc/lv_color.h ****  * @param s saturation [0..100]
 638:Middlewares/lvgl/src/draw/../misc/lv_color.h ****  * @param v value [0..100]
 639:Middlewares/lvgl/src/draw/../misc/lv_color.h ****  * @return the given RGB color in RGB (with LV_COLOR_DEPTH depth)
 640:Middlewares/lvgl/src/draw/../misc/lv_color.h ****  */
 641:Middlewares/lvgl/src/draw/../misc/lv_color.h **** lv_color_t lv_color_hsv_to_rgb(uint16_t h, uint8_t s, uint8_t v);
 642:Middlewares/lvgl/src/draw/../misc/lv_color.h **** 
 643:Middlewares/lvgl/src/draw/../misc/lv_color.h **** /**
 644:Middlewares/lvgl/src/draw/../misc/lv_color.h ****  * Convert a 32-bit RGB color to HSV
 645:Middlewares/lvgl/src/draw/../misc/lv_color.h ****  * @param r8 8-bit red
 646:Middlewares/lvgl/src/draw/../misc/lv_color.h ****  * @param g8 8-bit green
 647:Middlewares/lvgl/src/draw/../misc/lv_color.h ****  * @param b8 8-bit blue
 648:Middlewares/lvgl/src/draw/../misc/lv_color.h ****  * @return the given RGB color in HSV
 649:Middlewares/lvgl/src/draw/../misc/lv_color.h ****  */
 650:Middlewares/lvgl/src/draw/../misc/lv_color.h **** lv_color_hsv_t lv_color_rgb_to_hsv(uint8_t r8, uint8_t g8, uint8_t b8);
 651:Middlewares/lvgl/src/draw/../misc/lv_color.h **** 
 652:Middlewares/lvgl/src/draw/../misc/lv_color.h **** /**
 653:Middlewares/lvgl/src/draw/../misc/lv_color.h ****  * Convert a color to HSV
 654:Middlewares/lvgl/src/draw/../misc/lv_color.h ****  * @param color color
 655:Middlewares/lvgl/src/draw/../misc/lv_color.h ****  * @return the given color in HSV
 656:Middlewares/lvgl/src/draw/../misc/lv_color.h ****  */
 657:Middlewares/lvgl/src/draw/../misc/lv_color.h **** lv_color_hsv_t lv_color_to_hsv(lv_color_t color);
 658:Middlewares/lvgl/src/draw/../misc/lv_color.h **** 
 659:Middlewares/lvgl/src/draw/../misc/lv_color.h **** /**
 660:Middlewares/lvgl/src/draw/../misc/lv_color.h ****  * Just a wrapper around LV_COLOR_CHROMA_KEY because it might be more convenient to use a function 
 661:Middlewares/lvgl/src/draw/../misc/lv_color.h ****  * @return LV_COLOR_CHROMA_KEY
 662:Middlewares/lvgl/src/draw/../misc/lv_color.h ****  */
 663:Middlewares/lvgl/src/draw/../misc/lv_color.h **** static inline lv_color_t lv_color_chroma_key(void)
 664:Middlewares/lvgl/src/draw/../misc/lv_color.h **** {
 665:Middlewares/lvgl/src/draw/../misc/lv_color.h ****     return LV_COLOR_CHROMA_KEY;
 666:Middlewares/lvgl/src/draw/../misc/lv_color.h **** }
 667:Middlewares/lvgl/src/draw/../misc/lv_color.h **** 
 668:Middlewares/lvgl/src/draw/../misc/lv_color.h **** /**********************
 669:Middlewares/lvgl/src/draw/../misc/lv_color.h ****  *  PREDEFINED COLORS
 670:Middlewares/lvgl/src/draw/../misc/lv_color.h ****  **********************/
 671:Middlewares/lvgl/src/draw/../misc/lv_color.h **** /*Source: https://vuetifyjs.com/en/styles/colors/#material-colors*/
 672:Middlewares/lvgl/src/draw/../misc/lv_color.h **** 
 673:Middlewares/lvgl/src/draw/../misc/lv_color.h **** lv_color_t lv_palette_main(lv_palette_t p);
 674:Middlewares/lvgl/src/draw/../misc/lv_color.h **** static inline lv_color_t lv_color_white(void) { return lv_color_make(0xff, 0xff, 0xff);}
 675:Middlewares/lvgl/src/draw/../misc/lv_color.h **** static inline lv_color_t lv_color_black(void) { return lv_color_make(0x00, 0x0, 0x00);}
 2615              		.loc 3 675 26 view .LVU831
 2616              	.LBE220:
ARM GAS  /tmp/ccViN4Ah.s 			page 90


 2617              	.LBE219:
 2618              		.loc 3 675 49 view .LVU832
 2619              	.LBB230:
 2620              	.LBB223:
 2621              	.LBB221:
 2622              	.LBI221:
 602:Middlewares/lvgl/src/draw/../misc/lv_color.h **** {
 2623              		.loc 3 602 26 view .LVU833
 2624              	.LBB222:
 604:Middlewares/lvgl/src/draw/../misc/lv_color.h **** }
 2625              		.loc 3 604 5 view .LVU834
 604:Middlewares/lvgl/src/draw/../misc/lv_color.h **** }
 2626              		.loc 3 604 5 is_stmt 0 view .LVU835
 2627 00d0 4FF00001 		mov	r1, #0	@ movhi
 604:Middlewares/lvgl/src/draw/../misc/lv_color.h **** }
 2628              		.loc 3 604 5 view .LVU836
 2629              	.LBE222:
 2630              	.LBE221:
 2631              	.LBE223:
 365:Middlewares/lvgl/src/draw/lv_draw_blend.c **** 
 2632              		.loc 1 365 13 is_stmt 1 view .LVU837
 2633              	.LVL292:
 2634              	.LBB224:
 2635              	.LBI224:
 459:Middlewares/lvgl/src/draw/../misc/lv_color.h **** {
 2636              		.loc 3 459 48 view .LVU838
 2637              	.LBB225:
 461:Middlewares/lvgl/src/draw/../misc/lv_color.h **** #if LV_COLOR_DEPTH != 1
 2638              		.loc 3 461 5 view .LVU839
 464:Middlewares/lvgl/src/draw/../misc/lv_color.h ****                                         (255 - mix) + LV_COLOR_MIX_ROUND_OFS));
 2639              		.loc 3 464 5 view .LVU840
 464:Middlewares/lvgl/src/draw/../misc/lv_color.h ****                                         (255 - mix) + LV_COLOR_MIX_ROUND_OFS));
 2640              		.loc 3 464 5 is_stmt 0 view .LVU841
 2641 00d4 C5F3C423 		ubfx	r3, r5, #11, #5
 2642 00d8 0398     		ldr	r0, [sp, #12]
 2643 00da 00FB03F3 		mul	r3, r0, r3
 2644 00de 8033     		adds	r3, r3, #128
 2645 00e0 03EB0322 		add	r2, r3, r3, lsl #8
 2646 00e4 03EBC213 		add	r3, r3, r2, lsl #7
 2647 00e8 C3F3C453 		ubfx	r3, r3, #23, #5
 2648              	.LVL293:
 464:Middlewares/lvgl/src/draw/../misc/lv_color.h ****                                         (255 - mix) + LV_COLOR_MIX_ROUND_OFS));
 2649              		.loc 3 464 5 view .LVU842
 2650 00ec 8C46     		mov	ip, r1	@ movhi
 464:Middlewares/lvgl/src/draw/../misc/lv_color.h ****                                         (255 - mix) + LV_COLOR_MIX_ROUND_OFS));
 2651              		.loc 3 464 5 view .LVU843
 2652 00ee 63F3CF2C 		bfi	ip, r3, #11, #5
 2653              	.LVL294:
 466:Middlewares/lvgl/src/draw/../misc/lv_color.h ****                                         (255 - mix) + LV_COLOR_MIX_ROUND_OFS));
 2654              		.loc 3 466 5 is_stmt 1 view .LVU844
 2655 00f2 C5F34513 		ubfx	r3, r5, #5, #6
 2656 00f6 00FB03F3 		mul	r3, r0, r3
 2657 00fa 8033     		adds	r3, r3, #128
 2658 00fc 03EB0322 		add	r2, r3, r3, lsl #8
 2659 0100 03EBC213 		add	r3, r3, r2, lsl #7
 2660 0104 C3F3C553 		ubfx	r3, r3, #23, #6
 2661 0108 63F34A1C 		bfi	ip, r3, #5, #6
ARM GAS  /tmp/ccViN4Ah.s 			page 91


 468:Middlewares/lvgl/src/draw/../misc/lv_color.h ****                                         (255 - mix) + LV_COLOR_MIX_ROUND_OFS));
 2662              		.loc 3 468 5 view .LVU845
 2663 010c 05F01F03 		and	r3, r5, #31
 2664 0110 00FB03F3 		mul	r3, r0, r3
 2665 0114 8033     		adds	r3, r3, #128
 2666 0116 03EB0322 		add	r2, r3, r3, lsl #8
 2667 011a 03EBC213 		add	r3, r3, r2, lsl #7
 2668 011e C3F3C453 		ubfx	r3, r3, #23, #5
 2669 0122 63F3040C 		bfi	ip, r3, #0, #5
 470:Middlewares/lvgl/src/draw/../misc/lv_color.h **** #else
 2670              		.loc 3 470 5 view .LVU846
 470:Middlewares/lvgl/src/draw/../misc/lv_color.h **** #else
 2671              		.loc 3 470 5 view .LVU847
 470:Middlewares/lvgl/src/draw/../misc/lv_color.h **** #else
 2672              		.loc 3 470 5 view .LVU848
 476:Middlewares/lvgl/src/draw/../misc/lv_color.h **** }
 2673              		.loc 3 476 5 view .LVU849
 2674              	.LVL295:
 476:Middlewares/lvgl/src/draw/../misc/lv_color.h **** }
 2675              		.loc 3 476 5 is_stmt 0 view .LVU850
 2676              	.LBE225:
 2677              	.LBE224:
 367:Middlewares/lvgl/src/draw/lv_draw_blend.c ****             lv_color_premult(color, opa, color_premult);
 2678              		.loc 1 367 13 is_stmt 1 view .LVU851
 368:Middlewares/lvgl/src/draw/lv_draw_blend.c ****             lv_opa_t opa_inv = 255 - opa;
 2679              		.loc 1 368 13 view .LVU852
 2680              	.LBB226:
 2681              	.LBI226:
 479:Middlewares/lvgl/src/draw/../misc/lv_color.h **** {
 2682              		.loc 3 479 42 view .LVU853
 2683              	.LBB227:
 482:Middlewares/lvgl/src/draw/../misc/lv_color.h ****     out[1] = (uint16_t) LV_COLOR_GET_G(c) * mix;
 2684              		.loc 3 482 5 view .LVU854
 482:Middlewares/lvgl/src/draw/../misc/lv_color.h ****     out[1] = (uint16_t) LV_COLOR_GET_G(c) * mix;
 2685              		.loc 3 482 25 is_stmt 0 view .LVU855
 2686 0126 C5F3C423 		ubfx	r3, r5, #11, #5
 482:Middlewares/lvgl/src/draw/../misc/lv_color.h ****     out[1] = (uint16_t) LV_COLOR_GET_G(c) * mix;
 2687              		.loc 3 482 43 view .LVU856
 2688 012a 00FB03F3 		mul	r3, r0, r3
 482:Middlewares/lvgl/src/draw/../misc/lv_color.h ****     out[1] = (uint16_t) LV_COLOR_GET_G(c) * mix;
 2689              		.loc 3 482 12 view .LVU857
 2690 012e ADF82830 		strh	r3, [sp, #40]	@ movhi
 483:Middlewares/lvgl/src/draw/../misc/lv_color.h ****     out[2] = (uint16_t) LV_COLOR_GET_B(c) * mix;
 2691              		.loc 3 483 5 is_stmt 1 view .LVU858
 483:Middlewares/lvgl/src/draw/../misc/lv_color.h ****     out[2] = (uint16_t) LV_COLOR_GET_B(c) * mix;
 2692              		.loc 3 483 25 is_stmt 0 view .LVU859
 2693 0132 C5F34513 		ubfx	r3, r5, #5, #6
 483:Middlewares/lvgl/src/draw/../misc/lv_color.h ****     out[2] = (uint16_t) LV_COLOR_GET_B(c) * mix;
 2694              		.loc 3 483 43 view .LVU860
 2695 0136 00FB03F3 		mul	r3, r0, r3
 483:Middlewares/lvgl/src/draw/../misc/lv_color.h ****     out[2] = (uint16_t) LV_COLOR_GET_B(c) * mix;
 2696              		.loc 3 483 12 view .LVU861
 2697 013a ADF82A30 		strh	r3, [sp, #42]	@ movhi
 484:Middlewares/lvgl/src/draw/../misc/lv_color.h **** #else
 2698              		.loc 3 484 5 is_stmt 1 view .LVU862
 484:Middlewares/lvgl/src/draw/../misc/lv_color.h **** #else
 2699              		.loc 3 484 25 is_stmt 0 view .LVU863
ARM GAS  /tmp/ccViN4Ah.s 			page 92


 2700 013e 05F01F03 		and	r3, r5, #31
 484:Middlewares/lvgl/src/draw/../misc/lv_color.h **** #else
 2701              		.loc 3 484 43 view .LVU864
 2702 0142 00FB03F3 		mul	r3, r0, r3
 484:Middlewares/lvgl/src/draw/../misc/lv_color.h **** #else
 2703              		.loc 3 484 12 view .LVU865
 2704 0146 ADF82C30 		strh	r3, [sp, #44]	@ movhi
 2705              	.LVL296:
 484:Middlewares/lvgl/src/draw/../misc/lv_color.h **** #else
 2706              		.loc 3 484 12 view .LVU866
 2707              	.LBE227:
 2708              	.LBE226:
 369:Middlewares/lvgl/src/draw/lv_draw_blend.c **** 
 2709              		.loc 1 369 13 is_stmt 1 view .LVU867
 369:Middlewares/lvgl/src/draw/lv_draw_blend.c **** 
 2710              		.loc 1 369 22 is_stmt 0 view .LVU868
 2711 014a C043     		mvns	r0, r0
 2712 014c C0B2     		uxtb	r0, r0
 2713              	.LVL297:
 371:Middlewares/lvgl/src/draw/lv_draw_blend.c ****                 for(x = 0; x < draw_area_w; x++) {
 2714              		.loc 1 371 13 is_stmt 1 view .LVU869
 371:Middlewares/lvgl/src/draw/lv_draw_blend.c ****                 for(x = 0; x < draw_area_w; x++) {
 2715              		.loc 1 371 19 is_stmt 0 view .LVU870
 2716 014e 0027     		movs	r7, #0
 2717 0150 DDF824E0 		ldr	lr, [sp, #36]
 2718 0154 DDF81080 		ldr	r8, [sp, #16]
 371:Middlewares/lvgl/src/draw/lv_draw_blend.c ****                 for(x = 0; x < draw_area_w; x++) {
 2719              		.loc 1 371 13 view .LVU871
 2720 0158 3FE0     		b	.L131
 2721              	.LVL298:
 2722              	.L175:
 374:Middlewares/lvgl/src/draw/lv_draw_blend.c **** 
 2723              		.loc 1 374 25 is_stmt 1 view .LVU872
 374:Middlewares/lvgl/src/draw/lv_draw_blend.c **** 
 2724              		.loc 1 374 41 is_stmt 0 view .LVU873
 2725 015a 34F81210 		ldrh	r1, [r4, r2, lsl #1]
 2726              	.LVL299:
 384:Middlewares/lvgl/src/draw/lv_draw_blend.c ****                         }
 2727              		.loc 1 384 29 is_stmt 1 view .LVU874
 2728              	.LBB228:
 2729              	.LBI228:
 504:Middlewares/lvgl/src/draw/../misc/lv_color.h **** {
 2730              		.loc 3 504 48 view .LVU875
 2731              	.LBB229:
 506:Middlewares/lvgl/src/draw/../misc/lv_color.h **** #if LV_COLOR_DEPTH != 1
 2732              		.loc 3 506 5 view .LVU876
 509:Middlewares/lvgl/src/draw/../misc/lv_color.h ****     LV_COLOR_SET_G(ret, LV_UDIV255(premult_c1[1] + LV_COLOR_GET_G(c2) * mix + LV_COLOR_MIX_ROUND_OF
 2733              		.loc 3 509 5 view .LVU877
 2734 015e BDF82830 		ldrh	r3, [sp, #40]
 2735              	.LVL300:
 509:Middlewares/lvgl/src/draw/../misc/lv_color.h ****     LV_COLOR_SET_G(ret, LV_UDIV255(premult_c1[1] + LV_COLOR_GET_G(c2) * mix + LV_COLOR_MIX_ROUND_OF
 2736              		.loc 3 509 5 is_stmt 0 view .LVU878
 2737 0162 C1F3C42C 		ubfx	ip, r1, #11, #5
 2738              	.LVL301:
 509:Middlewares/lvgl/src/draw/../misc/lv_color.h ****     LV_COLOR_SET_G(ret, LV_UDIV255(premult_c1[1] + LV_COLOR_GET_G(c2) * mix + LV_COLOR_MIX_ROUND_OF
 2739              		.loc 3 509 5 view .LVU879
 2740 0166 00FB0C33 		mla	r3, r0, ip, r3
ARM GAS  /tmp/ccViN4Ah.s 			page 93


 2741 016a 8033     		adds	r3, r3, #128
 2742 016c 03EB032C 		add	ip, r3, r3, lsl #8
 2743 0170 03EBCC13 		add	r3, r3, ip, lsl #7
 2744 0174 C3F3C453 		ubfx	r3, r3, #23, #5
 2745 0178 63F3CF2A 		bfi	r10, r3, #11, #5
 510:Middlewares/lvgl/src/draw/../misc/lv_color.h ****     LV_COLOR_SET_B(ret, LV_UDIV255(premult_c1[2] + LV_COLOR_GET_B(c2) * mix + LV_COLOR_MIX_ROUND_OF
 2746              		.loc 3 510 5 is_stmt 1 view .LVU880
 2747 017c BDF82A30 		ldrh	r3, [sp, #42]
 2748 0180 C1F3451C 		ubfx	ip, r1, #5, #6
 2749 0184 0CFB0033 		mla	r3, ip, r0, r3
 2750 0188 8033     		adds	r3, r3, #128
 2751 018a 03EB032C 		add	ip, r3, r3, lsl #8
 2752 018e 03EBCC13 		add	r3, r3, ip, lsl #7
 2753 0192 C3F3C553 		ubfx	r3, r3, #23, #6
 2754 0196 63F34A1A 		bfi	r10, r3, #5, #6
 511:Middlewares/lvgl/src/draw/../misc/lv_color.h ****     LV_COLOR_SET_A(ret, 0xFF);
 2755              		.loc 3 511 5 view .LVU881
 2756 019a BDF82C30 		ldrh	r3, [sp, #44]
 2757 019e 01F01F0C 		and	ip, r1, #31
 2758 01a2 0CFB0033 		mla	r3, ip, r0, r3
 2759 01a6 8033     		adds	r3, r3, #128
 2760 01a8 03EB032C 		add	ip, r3, r3, lsl #8
 2761 01ac 03EBCC13 		add	r3, r3, ip, lsl #7
 2762 01b0 C3F3C453 		ubfx	r3, r3, #23, #5
 2763 01b4 63F3040A 		bfi	r10, r3, #0, #5
 512:Middlewares/lvgl/src/draw/../misc/lv_color.h **** #else
 2764              		.loc 3 512 5 view .LVU882
 512:Middlewares/lvgl/src/draw/../misc/lv_color.h **** #else
 2765              		.loc 3 512 5 view .LVU883
 512:Middlewares/lvgl/src/draw/../misc/lv_color.h **** #else
 2766              		.loc 3 512 5 view .LVU884
 523:Middlewares/lvgl/src/draw/../misc/lv_color.h **** }
 2767              		.loc 3 523 5 view .LVU885
 2768 01b8 D446     		mov	ip, r10	@ movhi
 2769              	.LVL302:
 2770              	.L132:
 523:Middlewares/lvgl/src/draw/../misc/lv_color.h **** }
 2771              		.loc 3 523 5 is_stmt 0 view .LVU886
 2772              	.LBE229:
 2773              	.LBE228:
 387:Middlewares/lvgl/src/draw/lv_draw_blend.c ****                 }
 2774              		.loc 1 387 21 is_stmt 1 discriminator 2 view .LVU887
 387:Middlewares/lvgl/src/draw/lv_draw_blend.c ****                 }
 2775              		.loc 1 387 39 is_stmt 0 discriminator 2 view .LVU888
 2776 01ba A5F800C0 		strh	ip, [r5]	@ movhi
 372:Middlewares/lvgl/src/draw/lv_draw_blend.c ****                     if(last_dest_color.full != disp_buf_first[x].full) {
 2777              		.loc 1 372 45 is_stmt 1 discriminator 2 view .LVU889
 372:Middlewares/lvgl/src/draw/lv_draw_blend.c ****                     if(last_dest_color.full != disp_buf_first[x].full) {
 2778              		.loc 1 372 46 is_stmt 0 discriminator 2 view .LVU890
 2779 01be 0132     		adds	r2, r2, #1
 2780              	.LVL303:
 2781              	.L134:
 372:Middlewares/lvgl/src/draw/lv_draw_blend.c ****                     if(last_dest_color.full != disp_buf_first[x].full) {
 2782              		.loc 1 372 28 is_stmt 1 discriminator 1 view .LVU891
 372:Middlewares/lvgl/src/draw/lv_draw_blend.c ****                     if(last_dest_color.full != disp_buf_first[x].full) {
 2783              		.loc 1 372 17 is_stmt 0 discriminator 1 view .LVU892
 2784 01c0 B242     		cmp	r2, r6
ARM GAS  /tmp/ccViN4Ah.s 			page 94


 2785 01c2 07DA     		bge	.L174
 373:Middlewares/lvgl/src/draw/lv_draw_blend.c ****                         last_dest_color = disp_buf_first[x];
 2786              		.loc 1 373 21 is_stmt 1 view .LVU893
 373:Middlewares/lvgl/src/draw/lv_draw_blend.c ****                         last_dest_color = disp_buf_first[x];
 2787              		.loc 1 373 39 is_stmt 0 view .LVU894
 2788 01c4 8BB2     		uxth	r3, r1
 373:Middlewares/lvgl/src/draw/lv_draw_blend.c ****                         last_dest_color = disp_buf_first[x];
 2789              		.loc 1 373 62 view .LVU895
 2790 01c6 04EB4205 		add	r5, r4, r2, lsl #1
 2791              	.LVL304:
 373:Middlewares/lvgl/src/draw/lv_draw_blend.c ****                         last_dest_color = disp_buf_first[x];
 2792              		.loc 1 373 65 view .LVU896
 2793 01ca 34F81290 		ldrh	r9, [r4, r2, lsl #1]
 373:Middlewares/lvgl/src/draw/lv_draw_blend.c ****                         last_dest_color = disp_buf_first[x];
 2794              		.loc 1 373 23 view .LVU897
 2795 01ce 4B45     		cmp	r3, r9
 2796 01d0 C3D1     		bne	.L175
 373:Middlewares/lvgl/src/draw/lv_draw_blend.c ****                         last_dest_color = disp_buf_first[x];
 2797              		.loc 1 373 23 view .LVU898
 2798 01d2 F2E7     		b	.L132
 2799              	.LVL305:
 2800              	.L174:
 389:Middlewares/lvgl/src/draw/lv_draw_blend.c ****             }
 2801              		.loc 1 389 17 is_stmt 1 discriminator 2 view .LVU899
 389:Middlewares/lvgl/src/draw/lv_draw_blend.c ****             }
 2802              		.loc 1 389 32 is_stmt 0 discriminator 2 view .LVU900
 2803 01d4 04EB4804 		add	r4, r4, r8, lsl #1
 2804              	.LVL306:
 371:Middlewares/lvgl/src/draw/lv_draw_blend.c ****                 for(x = 0; x < draw_area_w; x++) {
 2805              		.loc 1 371 41 is_stmt 1 discriminator 2 view .LVU901
 371:Middlewares/lvgl/src/draw/lv_draw_blend.c ****                 for(x = 0; x < draw_area_w; x++) {
 2806              		.loc 1 371 42 is_stmt 0 discriminator 2 view .LVU902
 2807 01d8 0137     		adds	r7, r7, #1
 2808              	.LVL307:
 2809              	.L131:
 371:Middlewares/lvgl/src/draw/lv_draw_blend.c ****                 for(x = 0; x < draw_area_w; x++) {
 2810              		.loc 1 371 24 is_stmt 1 discriminator 1 view .LVU903
 371:Middlewares/lvgl/src/draw/lv_draw_blend.c ****                 for(x = 0; x < draw_area_w; x++) {
 2811              		.loc 1 371 13 is_stmt 0 discriminator 1 view .LVU904
 2812 01da 7745     		cmp	r7, lr
 2813 01dc BFF675AF 		bge	.L123
 372:Middlewares/lvgl/src/draw/lv_draw_blend.c ****                     if(last_dest_color.full != disp_buf_first[x].full) {
 2814              		.loc 1 372 23 view .LVU905
 2815 01e0 0022     		movs	r2, #0
 2816 01e2 EDE7     		b	.L134
 2817              	.LVL308:
 2818              	.L138:
 372:Middlewares/lvgl/src/draw/lv_draw_blend.c ****                     if(last_dest_color.full != disp_buf_first[x].full) {
 2819              		.loc 1 372 23 view .LVU906
 2820              	.LBE230:
 2821              	.LBB231:
 2822              	.LBB204:
 421:Middlewares/lvgl/src/draw/lv_draw_blend.c **** #endif
 2823              		.loc 1 421 21 is_stmt 1 discriminator 4 view .LVU907
 2824 01e4 34F813E0 		ldrh	lr, [r4, r3, lsl #1]
 2825              	.LVL309:
 2826              	.LBB205:
ARM GAS  /tmp/ccViN4Ah.s 			page 95


 2827              	.LBI205:
 459:Middlewares/lvgl/src/draw/../misc/lv_color.h **** {
 2828              		.loc 3 459 48 discriminator 4 view .LVU908
 2829              	.LBB206:
 461:Middlewares/lvgl/src/draw/../misc/lv_color.h **** #if LV_COLOR_DEPTH != 1
 2830              		.loc 3 461 5 discriminator 4 view .LVU909
 464:Middlewares/lvgl/src/draw/../misc/lv_color.h ****                                         (255 - mix) + LV_COLOR_MIX_ROUND_OFS));
 2831              		.loc 3 464 5 discriminator 4 view .LVU910
 2832 01e8 C5F3C42C 		ubfx	ip, r5, #11, #5
 2833              	.LVL310:
 464:Middlewares/lvgl/src/draw/../misc/lv_color.h ****                                         (255 - mix) + LV_COLOR_MIX_ROUND_OFS));
 2834              		.loc 3 464 5 is_stmt 0 discriminator 4 view .LVU911
 2835 01ec CEF3C42A 		ubfx	r10, lr, #11, #5
 2836 01f0 C1F1FF00 		rsb	r0, r1, #255
 2837 01f4 00FB0AFA 		mul	r10, r0, r10
 2838 01f8 01FB0CAC 		mla	ip, r1, ip, r10
 2839 01fc 0CF1800C 		add	ip, ip, #128
 2840 0200 0CEB0C2A 		add	r10, ip, ip, lsl #8
 2841 0204 0CEBCA1C 		add	ip, ip, r10, lsl #7
 2842 0208 CCF3C45C 		ubfx	ip, ip, #23, #5
 2843 020c 6CF3CF27 		bfi	r7, ip, #11, #5
 466:Middlewares/lvgl/src/draw/../misc/lv_color.h ****                                         (255 - mix) + LV_COLOR_MIX_ROUND_OFS));
 2844              		.loc 3 466 5 is_stmt 1 discriminator 4 view .LVU912
 2845 0210 C5F3451C 		ubfx	ip, r5, #5, #6
 2846 0214 CEF3451A 		ubfx	r10, lr, #5, #6
 2847 0218 0AFB00FA 		mul	r10, r10, r0
 2848 021c 0CFB01AC 		mla	ip, ip, r1, r10
 2849 0220 0CF1800C 		add	ip, ip, #128
 2850 0224 0CEB0C2A 		add	r10, ip, ip, lsl #8
 2851 0228 0CEBCA1C 		add	ip, ip, r10, lsl #7
 2852 022c CCF3C55C 		ubfx	ip, ip, #23, #6
 2853 0230 6CF34A17 		bfi	r7, ip, #5, #6
 468:Middlewares/lvgl/src/draw/../misc/lv_color.h ****                                         (255 - mix) + LV_COLOR_MIX_ROUND_OFS));
 2854              		.loc 3 468 5 discriminator 4 view .LVU913
 2855 0234 05F01F0C 		and	ip, r5, #31
 2856 0238 0EF01F0E 		and	lr, lr, #31
 2857              	.LVL311:
 468:Middlewares/lvgl/src/draw/../misc/lv_color.h ****                                         (255 - mix) + LV_COLOR_MIX_ROUND_OFS));
 2858              		.loc 3 468 5 is_stmt 0 discriminator 4 view .LVU914
 2859 023c 0EFB00F0 		mul	r0, lr, r0
 2860 0240 0CFB0101 		mla	r1, ip, r1, r0
 2861              	.LVL312:
 468:Middlewares/lvgl/src/draw/../misc/lv_color.h ****                                         (255 - mix) + LV_COLOR_MIX_ROUND_OFS));
 2862              		.loc 3 468 5 discriminator 4 view .LVU915
 2863 0244 8031     		adds	r1, r1, #128
 2864 0246 01EB0120 		add	r0, r1, r1, lsl #8
 2865 024a 01EBC011 		add	r1, r1, r0, lsl #7
 2866 024e C1F3C451 		ubfx	r1, r1, #23, #5
 2867 0252 61F30407 		bfi	r7, r1, #0, #5
 470:Middlewares/lvgl/src/draw/../misc/lv_color.h **** #else
 2868              		.loc 3 470 5 is_stmt 1 discriminator 4 view .LVU916
 470:Middlewares/lvgl/src/draw/../misc/lv_color.h **** #else
 2869              		.loc 3 470 5 discriminator 4 view .LVU917
 470:Middlewares/lvgl/src/draw/../misc/lv_color.h **** #else
 2870              		.loc 3 470 5 discriminator 4 view .LVU918
 476:Middlewares/lvgl/src/draw/../misc/lv_color.h **** }
 2871              		.loc 3 476 5 discriminator 4 view .LVU919
ARM GAS  /tmp/ccViN4Ah.s 			page 96


 476:Middlewares/lvgl/src/draw/../misc/lv_color.h **** }
 2872              		.loc 3 476 5 is_stmt 0 discriminator 4 view .LVU920
 2873              	.LBE206:
 2874              	.LBE205:
 421:Middlewares/lvgl/src/draw/lv_draw_blend.c **** #endif
 2875              		.loc 1 421 21 discriminator 4 view .LVU921
 2876 0256 24F81370 		strh	r7, [r4, r3, lsl #1]	@ movhi
 2877              	.LVL313:
 2878              	.L137:
 421:Middlewares/lvgl/src/draw/lv_draw_blend.c **** #endif
 2879              		.loc 1 421 21 is_stmt 1 discriminator 6 view .LVU922
 2880 025a 0132     		adds	r2, r2, #1
 2881              	.LVL314:
 417:Middlewares/lvgl/src/draw/lv_draw_blend.c **** #if LV_COLOR_SCREEN_TRANSP
 2882              		.loc 1 417 81 discriminator 6 view .LVU923
 417:Middlewares/lvgl/src/draw/lv_draw_blend.c **** #if LV_COLOR_SCREEN_TRANSP
 2883              		.loc 1 417 82 is_stmt 0 discriminator 6 view .LVU924
 2884 025c 0133     		adds	r3, r3, #1
 2885              	.LVL315:
 2886              	.L156:
 417:Middlewares/lvgl/src/draw/lv_draw_blend.c **** #if LV_COLOR_SCREEN_TRANSP
 2887              		.loc 1 417 28 is_stmt 1 discriminator 2 view .LVU925
 417:Middlewares/lvgl/src/draw/lv_draw_blend.c **** #if LV_COLOR_SCREEN_TRANSP
 2888              		.loc 1 417 17 is_stmt 0 discriminator 2 view .LVU926
 2889 025e B342     		cmp	r3, r6
 2890 0260 80F23B81 		bge	.L171
 417:Middlewares/lvgl/src/draw/lv_draw_blend.c **** #if LV_COLOR_SCREEN_TRANSP
 2891              		.loc 1 417 44 discriminator 3 view .LVU927
 2892 0264 12F0030F 		tst	r2, #3
 2893 0268 07D0     		beq	.L176
 421:Middlewares/lvgl/src/draw/lv_draw_blend.c **** #endif
 2894              		.loc 1 421 21 is_stmt 1 view .LVU928
 2895 026a 1178     		ldrb	r1, [r2]	@ zero_extendqisi2
 2896 026c 0029     		cmp	r1, #0
 2897 026e F4D0     		beq	.L137
 421:Middlewares/lvgl/src/draw/lv_draw_blend.c **** #endif
 2898              		.loc 1 421 21 discriminator 1 view .LVU929
 2899 0270 FF29     		cmp	r1, #255
 2900 0272 B7D1     		bne	.L138
 421:Middlewares/lvgl/src/draw/lv_draw_blend.c **** #endif
 2901              		.loc 1 421 21 discriminator 3 view .LVU930
 2902 0274 24F81350 		strh	r5, [r4, r3, lsl #1]	@ movhi
 2903 0278 EFE7     		b	.L137
 2904              	.L176:
 421:Middlewares/lvgl/src/draw/lv_draw_blend.c **** #endif
 2905              		.loc 1 421 21 is_stmt 0 discriminator 3 view .LVU931
 2906 027a 0696     		str	r6, [sp, #24]
 2907 027c ADF81C80 		strh	r8, [sp, #28]	@ movhi
 2908 0280 BDF816C0 		ldrh	ip, [sp, #22]
 2909              	.LVL316:
 421:Middlewares/lvgl/src/draw/lv_draw_blend.c **** #endif
 2910              		.loc 1 421 21 discriminator 3 view .LVU932
 2911 0284 BDF820E0 		ldrh	lr, [sp, #32]
 2912              	.LVL317:
 421:Middlewares/lvgl/src/draw/lv_draw_blend.c **** #endif
 2913              		.loc 1 421 21 discriminator 3 view .LVU933
 2914 0288 ADF82270 		strh	r7, [sp, #34]	@ movhi
ARM GAS  /tmp/ccViN4Ah.s 			page 97


 2915 028c 0CE0     		b	.L150
 2916              	.LVL318:
 2917              	.L178:
 429:Middlewares/lvgl/src/draw/lv_draw_blend.c ****                             disp_buf_first[x + 1] = color;
 2918              		.loc 1 429 29 is_stmt 1 view .LVU934
 429:Middlewares/lvgl/src/draw/lv_draw_blend.c ****                             disp_buf_first[x + 1] = color;
 2919              		.loc 1 429 47 is_stmt 0 view .LVU935
 2920 028e 24F81350 		strh	r5, [r4, r3, lsl #1]	@ movhi
 430:Middlewares/lvgl/src/draw/lv_draw_blend.c ****                             disp_buf_first[x + 2] = color;
 2921              		.loc 1 430 29 is_stmt 1 view .LVU936
 430:Middlewares/lvgl/src/draw/lv_draw_blend.c ****                             disp_buf_first[x + 2] = color;
 2922              		.loc 1 430 43 is_stmt 0 view .LVU937
 2923 0292 591C     		adds	r1, r3, #1
 430:Middlewares/lvgl/src/draw/lv_draw_blend.c ****                             disp_buf_first[x + 2] = color;
 2924              		.loc 1 430 51 view .LVU938
 2925 0294 24F81150 		strh	r5, [r4, r1, lsl #1]	@ movhi
 431:Middlewares/lvgl/src/draw/lv_draw_blend.c ****                             disp_buf_first[x + 3] = color;
 2926              		.loc 1 431 29 is_stmt 1 view .LVU939
 431:Middlewares/lvgl/src/draw/lv_draw_blend.c ****                             disp_buf_first[x + 3] = color;
 2927              		.loc 1 431 43 is_stmt 0 view .LVU940
 2928 0298 991C     		adds	r1, r3, #2
 431:Middlewares/lvgl/src/draw/lv_draw_blend.c ****                             disp_buf_first[x + 3] = color;
 2929              		.loc 1 431 51 view .LVU941
 2930 029a 24F81150 		strh	r5, [r4, r1, lsl #1]	@ movhi
 432:Middlewares/lvgl/src/draw/lv_draw_blend.c ****                         }
 2931              		.loc 1 432 29 is_stmt 1 view .LVU942
 432:Middlewares/lvgl/src/draw/lv_draw_blend.c ****                         }
 2932              		.loc 1 432 43 is_stmt 0 view .LVU943
 2933 029e D91C     		adds	r1, r3, #3
 432:Middlewares/lvgl/src/draw/lv_draw_blend.c ****                         }
 2934              		.loc 1 432 51 view .LVU944
 2935 02a0 24F81150 		strh	r5, [r4, r1, lsl #1]	@ movhi
 2936              	.L141:
 449:Middlewares/lvgl/src/draw/lv_draw_blend.c ****                 }
 2937              		.loc 1 449 21 is_stmt 1 view .LVU945
 449:Middlewares/lvgl/src/draw/lv_draw_blend.c ****                 }
 2938              		.loc 1 449 27 is_stmt 0 view .LVU946
 2939 02a4 0432     		adds	r2, r2, #4
 2940              	.LVL319:
 426:Middlewares/lvgl/src/draw/lv_draw_blend.c ****                     if(*mask32) {
 2941              		.loc 1 426 36 is_stmt 1 view .LVU947
 426:Middlewares/lvgl/src/draw/lv_draw_blend.c ****                     if(*mask32) {
 2942              		.loc 1 426 38 is_stmt 0 view .LVU948
 2943 02a6 0433     		adds	r3, r3, #4
 2944              	.LVL320:
 2945              	.L150:
 426:Middlewares/lvgl/src/draw/lv_draw_blend.c ****                     if(*mask32) {
 2946              		.loc 1 426 23 is_stmt 1 discriminator 1 view .LVU949
 426:Middlewares/lvgl/src/draw/lv_draw_blend.c ****                     if(*mask32) {
 2947              		.loc 1 426 17 is_stmt 0 discriminator 1 view .LVU950
 2948 02a8 0299     		ldr	r1, [sp, #8]
 2949 02aa 8B42     		cmp	r3, r1
 2950 02ac 00F31F81 		bgt	.L177
 427:Middlewares/lvgl/src/draw/lv_draw_blend.c ****                         if((*mask32) == 0xFFFFFFFF) {
 2951              		.loc 1 427 21 is_stmt 1 view .LVU951
 427:Middlewares/lvgl/src/draw/lv_draw_blend.c ****                         if((*mask32) == 0xFFFFFFFF) {
 2952              		.loc 1 427 24 is_stmt 0 view .LVU952
ARM GAS  /tmp/ccViN4Ah.s 			page 98


 2953 02b0 1168     		ldr	r1, [r2]
 427:Middlewares/lvgl/src/draw/lv_draw_blend.c ****                         if((*mask32) == 0xFFFFFFFF) {
 2954              		.loc 1 427 23 view .LVU953
 2955 02b2 0029     		cmp	r1, #0
 2956 02b4 F6D0     		beq	.L141
 428:Middlewares/lvgl/src/draw/lv_draw_blend.c ****                             disp_buf_first[x] = color;
 2957              		.loc 1 428 25 is_stmt 1 view .LVU954
 428:Middlewares/lvgl/src/draw/lv_draw_blend.c ****                             disp_buf_first[x] = color;
 2958              		.loc 1 428 27 is_stmt 0 view .LVU955
 2959 02b6 B1F1FF3F 		cmp	r1, #-1
 2960 02ba E8D0     		beq	.L178
 435:Middlewares/lvgl/src/draw/lv_draw_blend.c **** #if LV_COLOR_SCREEN_TRANSP
 2961              		.loc 1 435 29 is_stmt 1 view .LVU956
 2962              	.LVL321:
 442:Middlewares/lvgl/src/draw/lv_draw_blend.c ****                             FILL_NORMAL_MASK_PX(x + 1, color)
 2963              		.loc 1 442 29 view .LVU957
 2964 02bc 1778     		ldrb	r7, [r2]	@ zero_extendqisi2
 2965              	.LVL322:
 442:Middlewares/lvgl/src/draw/lv_draw_blend.c ****                             FILL_NORMAL_MASK_PX(x + 1, color)
 2966              		.loc 1 442 29 is_stmt 0 view .LVU958
 2967 02be DFB3     		cbz	r7, .L143
 442:Middlewares/lvgl/src/draw/lv_draw_blend.c ****                             FILL_NORMAL_MASK_PX(x + 1, color)
 2968              		.loc 1 442 29 is_stmt 1 discriminator 1 view .LVU959
 2969 02c0 FF2F     		cmp	r7, #255
 2970 02c2 00F0FB80 		beq	.L179
 442:Middlewares/lvgl/src/draw/lv_draw_blend.c ****                             FILL_NORMAL_MASK_PX(x + 1, color)
 2971              		.loc 1 442 29 discriminator 4 view .LVU960
 2972 02c6 34F81310 		ldrh	r1, [r4, r3, lsl #1]
 2973              	.LVL323:
 2974              	.LBB207:
 2975              	.LBI207:
 459:Middlewares/lvgl/src/draw/../misc/lv_color.h **** {
 2976              		.loc 3 459 48 discriminator 4 view .LVU961
 2977              	.LBB208:
 461:Middlewares/lvgl/src/draw/../misc/lv_color.h **** #if LV_COLOR_DEPTH != 1
 2978              		.loc 3 461 5 discriminator 4 view .LVU962
 464:Middlewares/lvgl/src/draw/../misc/lv_color.h ****                                         (255 - mix) + LV_COLOR_MIX_ROUND_OFS));
 2979              		.loc 3 464 5 discriminator 4 view .LVU963
 2980 02ca C5F3C420 		ubfx	r0, r5, #11, #5
 2981              	.LVL324:
 464:Middlewares/lvgl/src/draw/../misc/lv_color.h ****                                         (255 - mix) + LV_COLOR_MIX_ROUND_OFS));
 2982              		.loc 3 464 5 is_stmt 0 discriminator 4 view .LVU964
 2983 02ce C1F3C426 		ubfx	r6, r1, #11, #5
 2984 02d2 C7F1FF08 		rsb	r8, r7, #255
 2985              	.LVL325:
 464:Middlewares/lvgl/src/draw/../misc/lv_color.h ****                                         (255 - mix) + LV_COLOR_MIX_ROUND_OFS));
 2986              		.loc 3 464 5 discriminator 4 view .LVU965
 2987 02d6 08FB06F6 		mul	r6, r8, r6
 2988 02da 07FB0060 		mla	r0, r7, r0, r6
 2989 02de 8030     		adds	r0, r0, #128
 2990 02e0 00EB0026 		add	r6, r0, r0, lsl #8
 2991 02e4 00EBC610 		add	r0, r0, r6, lsl #7
 2992 02e8 C0F3C450 		ubfx	r0, r0, #23, #5
 2993 02ec 60F3CF29 		bfi	r9, r0, #11, #5
 466:Middlewares/lvgl/src/draw/../misc/lv_color.h ****                                         (255 - mix) + LV_COLOR_MIX_ROUND_OFS));
 2994              		.loc 3 466 5 is_stmt 1 discriminator 4 view .LVU966
 2995 02f0 C5F34510 		ubfx	r0, r5, #5, #6
ARM GAS  /tmp/ccViN4Ah.s 			page 99


 2996 02f4 C1F34516 		ubfx	r6, r1, #5, #6
 2997 02f8 06FB08F6 		mul	r6, r6, r8
 2998 02fc 00FB0760 		mla	r0, r0, r7, r6
 2999 0300 8030     		adds	r0, r0, #128
 3000 0302 00EB0026 		add	r6, r0, r0, lsl #8
 3001 0306 00EBC610 		add	r0, r0, r6, lsl #7
 3002 030a C0F3C550 		ubfx	r0, r0, #23, #6
 3003 030e 60F34A19 		bfi	r9, r0, #5, #6
 468:Middlewares/lvgl/src/draw/../misc/lv_color.h ****                                         (255 - mix) + LV_COLOR_MIX_ROUND_OFS));
 3004              		.loc 3 468 5 discriminator 4 view .LVU967
 3005 0312 05F01F00 		and	r0, r5, #31
 3006 0316 01F01F01 		and	r1, r1, #31
 3007              	.LVL326:
 468:Middlewares/lvgl/src/draw/../misc/lv_color.h ****                                         (255 - mix) + LV_COLOR_MIX_ROUND_OFS));
 3008              		.loc 3 468 5 is_stmt 0 discriminator 4 view .LVU968
 3009 031a 01FB08F1 		mul	r1, r1, r8
 3010 031e 00FB0711 		mla	r1, r0, r7, r1
 3011 0322 8031     		adds	r1, r1, #128
 3012 0324 01EB0120 		add	r0, r1, r1, lsl #8
 3013 0328 01EBC011 		add	r1, r1, r0, lsl #7
 3014 032c C1F3C451 		ubfx	r1, r1, #23, #5
 3015 0330 61F30409 		bfi	r9, r1, #0, #5
 470:Middlewares/lvgl/src/draw/../misc/lv_color.h **** #else
 3016              		.loc 3 470 5 is_stmt 1 discriminator 4 view .LVU969
 470:Middlewares/lvgl/src/draw/../misc/lv_color.h **** #else
 3017              		.loc 3 470 5 discriminator 4 view .LVU970
 470:Middlewares/lvgl/src/draw/../misc/lv_color.h **** #else
 3018              		.loc 3 470 5 discriminator 4 view .LVU971
 476:Middlewares/lvgl/src/draw/../misc/lv_color.h **** }
 3019              		.loc 3 476 5 discriminator 4 view .LVU972
 3020              	.LVL327:
 476:Middlewares/lvgl/src/draw/../misc/lv_color.h **** }
 3021              		.loc 3 476 5 is_stmt 0 discriminator 4 view .LVU973
 3022              	.LBE208:
 3023              	.LBE207:
 442:Middlewares/lvgl/src/draw/lv_draw_blend.c ****                             FILL_NORMAL_MASK_PX(x + 1, color)
 3024              		.loc 1 442 29 discriminator 4 view .LVU974
 3025 0334 24F81390 		strh	r9, [r4, r3, lsl #1]	@ movhi
 3026              	.LVL328:
 3027              	.L143:
 442:Middlewares/lvgl/src/draw/lv_draw_blend.c ****                             FILL_NORMAL_MASK_PX(x + 1, color)
 3028              		.loc 1 442 29 is_stmt 1 discriminator 6 view .LVU975
 443:Middlewares/lvgl/src/draw/lv_draw_blend.c ****                             FILL_NORMAL_MASK_PX(x + 2, color)
 3029              		.loc 1 443 29 discriminator 6 view .LVU976
 3030 0338 5778     		ldrb	r7, [r2, #1]	@ zero_extendqisi2
 3031 033a EFB3     		cbz	r7, .L145
 443:Middlewares/lvgl/src/draw/lv_draw_blend.c ****                             FILL_NORMAL_MASK_PX(x + 2, color)
 3032              		.loc 1 443 29 discriminator 1 view .LVU977
 3033 033c FF2F     		cmp	r7, #255
 3034 033e 00F0C080 		beq	.L180
 443:Middlewares/lvgl/src/draw/lv_draw_blend.c ****                             FILL_NORMAL_MASK_PX(x + 2, color)
 3035              		.loc 1 443 29 discriminator 4 view .LVU978
 3036 0342 03F1010A 		add	r10, r3, #1
 3037 0346 34F81A10 		ldrh	r1, [r4, r10, lsl #1]
 3038              	.LVL329:
 3039              	.LBB209:
 3040              	.LBI209:
ARM GAS  /tmp/ccViN4Ah.s 			page 100


 459:Middlewares/lvgl/src/draw/../misc/lv_color.h **** {
 3041              		.loc 3 459 48 discriminator 4 view .LVU979
 3042              	.LBB210:
 461:Middlewares/lvgl/src/draw/../misc/lv_color.h **** #if LV_COLOR_DEPTH != 1
 3043              		.loc 3 461 5 discriminator 4 view .LVU980
 464:Middlewares/lvgl/src/draw/../misc/lv_color.h ****                                         (255 - mix) + LV_COLOR_MIX_ROUND_OFS));
 3044              		.loc 3 464 5 discriminator 4 view .LVU981
 3045 034a C5F3C420 		ubfx	r0, r5, #11, #5
 3046              	.LVL330:
 464:Middlewares/lvgl/src/draw/../misc/lv_color.h ****                                         (255 - mix) + LV_COLOR_MIX_ROUND_OFS));
 3047              		.loc 3 464 5 is_stmt 0 discriminator 4 view .LVU982
 3048 034e C1F3C426 		ubfx	r6, r1, #11, #5
 3049 0352 C7F1FF08 		rsb	r8, r7, #255
 3050              	.LVL331:
 464:Middlewares/lvgl/src/draw/../misc/lv_color.h ****                                         (255 - mix) + LV_COLOR_MIX_ROUND_OFS));
 3051              		.loc 3 464 5 discriminator 4 view .LVU983
 3052 0356 08FB06F6 		mul	r6, r8, r6
 3053 035a 07FB0060 		mla	r0, r7, r0, r6
 3054 035e 8030     		adds	r0, r0, #128
 3055 0360 00EB0026 		add	r6, r0, r0, lsl #8
 3056 0364 00EBC610 		add	r0, r0, r6, lsl #7
 3057 0368 C0F3C450 		ubfx	r0, r0, #23, #5
 3058 036c 60F3CF2E 		bfi	lr, r0, #11, #5
 466:Middlewares/lvgl/src/draw/../misc/lv_color.h ****                                         (255 - mix) + LV_COLOR_MIX_ROUND_OFS));
 3059              		.loc 3 466 5 is_stmt 1 discriminator 4 view .LVU984
 3060 0370 C5F34510 		ubfx	r0, r5, #5, #6
 3061 0374 C1F34516 		ubfx	r6, r1, #5, #6
 3062 0378 06FB08F6 		mul	r6, r6, r8
 3063 037c 00FB0760 		mla	r0, r0, r7, r6
 3064 0380 8030     		adds	r0, r0, #128
 3065 0382 00EB0026 		add	r6, r0, r0, lsl #8
 3066 0386 00EBC610 		add	r0, r0, r6, lsl #7
 3067 038a C0F3C550 		ubfx	r0, r0, #23, #6
 3068 038e 60F34A1E 		bfi	lr, r0, #5, #6
 468:Middlewares/lvgl/src/draw/../misc/lv_color.h ****                                         (255 - mix) + LV_COLOR_MIX_ROUND_OFS));
 3069              		.loc 3 468 5 discriminator 4 view .LVU985
 3070 0392 05F01F00 		and	r0, r5, #31
 3071 0396 01F01F01 		and	r1, r1, #31
 3072              	.LVL332:
 468:Middlewares/lvgl/src/draw/../misc/lv_color.h ****                                         (255 - mix) + LV_COLOR_MIX_ROUND_OFS));
 3073              		.loc 3 468 5 is_stmt 0 discriminator 4 view .LVU986
 3074 039a 01FB08F1 		mul	r1, r1, r8
 3075 039e 00FB0711 		mla	r1, r0, r7, r1
 3076 03a2 8031     		adds	r1, r1, #128
 3077 03a4 01EB0120 		add	r0, r1, r1, lsl #8
 3078 03a8 01EBC010 		add	r0, r1, r0, lsl #7
 3079 03ac C0F3C450 		ubfx	r0, r0, #23, #5
 3080 03b0 60F3040E 		bfi	lr, r0, #0, #5
 470:Middlewares/lvgl/src/draw/../misc/lv_color.h **** #else
 3081              		.loc 3 470 5 is_stmt 1 discriminator 4 view .LVU987
 470:Middlewares/lvgl/src/draw/../misc/lv_color.h **** #else
 3082              		.loc 3 470 5 discriminator 4 view .LVU988
 470:Middlewares/lvgl/src/draw/../misc/lv_color.h **** #else
 3083              		.loc 3 470 5 discriminator 4 view .LVU989
 476:Middlewares/lvgl/src/draw/../misc/lv_color.h **** }
 3084              		.loc 3 476 5 discriminator 4 view .LVU990
 3085              	.LVL333:
ARM GAS  /tmp/ccViN4Ah.s 			page 101


 476:Middlewares/lvgl/src/draw/../misc/lv_color.h **** }
 3086              		.loc 3 476 5 is_stmt 0 discriminator 4 view .LVU991
 3087              	.LBE210:
 3088              	.LBE209:
 443:Middlewares/lvgl/src/draw/lv_draw_blend.c ****                             FILL_NORMAL_MASK_PX(x + 2, color)
 3089              		.loc 1 443 29 discriminator 4 view .LVU992
 3090 03b4 24F81AE0 		strh	lr, [r4, r10, lsl #1]	@ movhi
 3091              	.LVL334:
 3092              	.L145:
 443:Middlewares/lvgl/src/draw/lv_draw_blend.c ****                             FILL_NORMAL_MASK_PX(x + 2, color)
 3093              		.loc 1 443 29 is_stmt 1 discriminator 6 view .LVU993
 444:Middlewares/lvgl/src/draw/lv_draw_blend.c ****                             FILL_NORMAL_MASK_PX(x + 3, color)
 3094              		.loc 1 444 29 discriminator 6 view .LVU994
 3095 03b8 9778     		ldrb	r7, [r2, #2]	@ zero_extendqisi2
 3096 03ba EFB3     		cbz	r7, .L147
 444:Middlewares/lvgl/src/draw/lv_draw_blend.c ****                             FILL_NORMAL_MASK_PX(x + 3, color)
 3097              		.loc 1 444 29 discriminator 1 view .LVU995
 3098 03bc FF2F     		cmp	r7, #255
 3099 03be 00F08480 		beq	.L181
 444:Middlewares/lvgl/src/draw/lv_draw_blend.c ****                             FILL_NORMAL_MASK_PX(x + 3, color)
 3100              		.loc 1 444 29 discriminator 4 view .LVU996
 3101 03c2 03F1020A 		add	r10, r3, #2
 3102 03c6 34F81A10 		ldrh	r1, [r4, r10, lsl #1]
 3103              	.LVL335:
 3104              	.LBB211:
 3105              	.LBI211:
 459:Middlewares/lvgl/src/draw/../misc/lv_color.h **** {
 3106              		.loc 3 459 48 discriminator 4 view .LVU997
 3107              	.LBB212:
 461:Middlewares/lvgl/src/draw/../misc/lv_color.h **** #if LV_COLOR_DEPTH != 1
 3108              		.loc 3 461 5 discriminator 4 view .LVU998
 464:Middlewares/lvgl/src/draw/../misc/lv_color.h ****                                         (255 - mix) + LV_COLOR_MIX_ROUND_OFS));
 3109              		.loc 3 464 5 discriminator 4 view .LVU999
 3110 03ca C5F3C420 		ubfx	r0, r5, #11, #5
 3111              	.LVL336:
 464:Middlewares/lvgl/src/draw/../misc/lv_color.h ****                                         (255 - mix) + LV_COLOR_MIX_ROUND_OFS));
 3112              		.loc 3 464 5 is_stmt 0 discriminator 4 view .LVU1000
 3113 03ce C1F3C426 		ubfx	r6, r1, #11, #5
 3114 03d2 C7F1FF08 		rsb	r8, r7, #255
 3115              	.LVL337:
 464:Middlewares/lvgl/src/draw/../misc/lv_color.h ****                                         (255 - mix) + LV_COLOR_MIX_ROUND_OFS));
 3116              		.loc 3 464 5 discriminator 4 view .LVU1001
 3117 03d6 08FB06F6 		mul	r6, r8, r6
 3118 03da 07FB0060 		mla	r0, r7, r0, r6
 3119 03de 8030     		adds	r0, r0, #128
 3120 03e0 00EB0026 		add	r6, r0, r0, lsl #8
 3121 03e4 00EBC610 		add	r0, r0, r6, lsl #7
 3122 03e8 C0F3C450 		ubfx	r0, r0, #23, #5
 3123 03ec 60F3CF2C 		bfi	ip, r0, #11, #5
 466:Middlewares/lvgl/src/draw/../misc/lv_color.h ****                                         (255 - mix) + LV_COLOR_MIX_ROUND_OFS));
 3124              		.loc 3 466 5 is_stmt 1 discriminator 4 view .LVU1002
 3125 03f0 C5F34510 		ubfx	r0, r5, #5, #6
 3126 03f4 C1F34516 		ubfx	r6, r1, #5, #6
 3127 03f8 06FB08F6 		mul	r6, r6, r8
 3128 03fc 00FB0760 		mla	r0, r0, r7, r6
 3129 0400 8030     		adds	r0, r0, #128
 3130 0402 00EB0026 		add	r6, r0, r0, lsl #8
ARM GAS  /tmp/ccViN4Ah.s 			page 102


 3131 0406 00EBC610 		add	r0, r0, r6, lsl #7
 3132 040a C0F3C550 		ubfx	r0, r0, #23, #6
 3133 040e 60F34A1C 		bfi	ip, r0, #5, #6
 468:Middlewares/lvgl/src/draw/../misc/lv_color.h ****                                         (255 - mix) + LV_COLOR_MIX_ROUND_OFS));
 3134              		.loc 3 468 5 discriminator 4 view .LVU1003
 3135 0412 05F01F00 		and	r0, r5, #31
 3136 0416 01F01F01 		and	r1, r1, #31
 3137              	.LVL338:
 468:Middlewares/lvgl/src/draw/../misc/lv_color.h ****                                         (255 - mix) + LV_COLOR_MIX_ROUND_OFS));
 3138              		.loc 3 468 5 is_stmt 0 discriminator 4 view .LVU1004
 3139 041a 01FB08F1 		mul	r1, r1, r8
 3140 041e 00FB0711 		mla	r1, r0, r7, r1
 3141 0422 8031     		adds	r1, r1, #128
 3142 0424 01EB0120 		add	r0, r1, r1, lsl #8
 3143 0428 01EBC010 		add	r0, r1, r0, lsl #7
 3144 042c C0F3C450 		ubfx	r0, r0, #23, #5
 3145 0430 60F3040C 		bfi	ip, r0, #0, #5
 470:Middlewares/lvgl/src/draw/../misc/lv_color.h **** #else
 3146              		.loc 3 470 5 is_stmt 1 discriminator 4 view .LVU1005
 470:Middlewares/lvgl/src/draw/../misc/lv_color.h **** #else
 3147              		.loc 3 470 5 discriminator 4 view .LVU1006
 470:Middlewares/lvgl/src/draw/../misc/lv_color.h **** #else
 3148              		.loc 3 470 5 discriminator 4 view .LVU1007
 476:Middlewares/lvgl/src/draw/../misc/lv_color.h **** }
 3149              		.loc 3 476 5 discriminator 4 view .LVU1008
 3150              	.LVL339:
 476:Middlewares/lvgl/src/draw/../misc/lv_color.h **** }
 3151              		.loc 3 476 5 is_stmt 0 discriminator 4 view .LVU1009
 3152              	.LBE212:
 3153              	.LBE211:
 444:Middlewares/lvgl/src/draw/lv_draw_blend.c ****                             FILL_NORMAL_MASK_PX(x + 3, color)
 3154              		.loc 1 444 29 discriminator 4 view .LVU1010
 3155 0434 24F81AC0 		strh	ip, [r4, r10, lsl #1]	@ movhi
 3156              	.LVL340:
 3157              	.L147:
 444:Middlewares/lvgl/src/draw/lv_draw_blend.c ****                             FILL_NORMAL_MASK_PX(x + 3, color)
 3158              		.loc 1 444 29 is_stmt 1 discriminator 6 view .LVU1011
 445:Middlewares/lvgl/src/draw/lv_draw_blend.c **** #endif
 3159              		.loc 1 445 29 discriminator 6 view .LVU1012
 3160 0438 D778     		ldrb	r7, [r2, #3]	@ zero_extendqisi2
 3161 043a 002F     		cmp	r7, #0
 3162 043c 3FF432AF 		beq	.L141
 445:Middlewares/lvgl/src/draw/lv_draw_blend.c **** #endif
 3163              		.loc 1 445 29 discriminator 1 view .LVU1013
 3164 0440 FF2F     		cmp	r7, #255
 3165 0442 46D0     		beq	.L182
 445:Middlewares/lvgl/src/draw/lv_draw_blend.c **** #endif
 3166              		.loc 1 445 29 discriminator 4 view .LVU1014
 3167 0444 03F1030A 		add	r10, r3, #3
 3168 0448 34F81A10 		ldrh	r1, [r4, r10, lsl #1]
 3169              	.LVL341:
 3170              	.LBB213:
 3171              	.LBI213:
 459:Middlewares/lvgl/src/draw/../misc/lv_color.h **** {
 3172              		.loc 3 459 48 discriminator 4 view .LVU1015
 3173              	.LBB214:
 461:Middlewares/lvgl/src/draw/../misc/lv_color.h **** #if LV_COLOR_DEPTH != 1
ARM GAS  /tmp/ccViN4Ah.s 			page 103


 3174              		.loc 3 461 5 discriminator 4 view .LVU1016
 464:Middlewares/lvgl/src/draw/../misc/lv_color.h ****                                         (255 - mix) + LV_COLOR_MIX_ROUND_OFS));
 3175              		.loc 3 464 5 discriminator 4 view .LVU1017
 3176 044c C5F3C420 		ubfx	r0, r5, #11, #5
 3177              	.LVL342:
 464:Middlewares/lvgl/src/draw/../misc/lv_color.h ****                                         (255 - mix) + LV_COLOR_MIX_ROUND_OFS));
 3178              		.loc 3 464 5 is_stmt 0 discriminator 4 view .LVU1018
 3179 0450 C1F3C426 		ubfx	r6, r1, #11, #5
 3180 0454 C7F1FF08 		rsb	r8, r7, #255
 3181              	.LVL343:
 464:Middlewares/lvgl/src/draw/../misc/lv_color.h ****                                         (255 - mix) + LV_COLOR_MIX_ROUND_OFS));
 3182              		.loc 3 464 5 discriminator 4 view .LVU1019
 3183 0458 08FB06F6 		mul	r6, r8, r6
 3184 045c 07FB0060 		mla	r0, r7, r0, r6
 3185 0460 8030     		adds	r0, r0, #128
 3186 0462 00EB0026 		add	r6, r0, r0, lsl #8
 3187 0466 00EBC610 		add	r0, r0, r6, lsl #7
 3188 046a C0F3C450 		ubfx	r0, r0, #23, #5
 3189 046e 60F3CF2B 		bfi	fp, r0, #11, #5
 466:Middlewares/lvgl/src/draw/../misc/lv_color.h ****                                         (255 - mix) + LV_COLOR_MIX_ROUND_OFS));
 3190              		.loc 3 466 5 is_stmt 1 discriminator 4 view .LVU1020
 3191 0472 C5F34510 		ubfx	r0, r5, #5, #6
 3192 0476 C1F34516 		ubfx	r6, r1, #5, #6
 3193 047a 06FB08F6 		mul	r6, r6, r8
 3194 047e 00FB0760 		mla	r0, r0, r7, r6
 3195 0482 8030     		adds	r0, r0, #128
 3196 0484 00EB0026 		add	r6, r0, r0, lsl #8
 3197 0488 00EBC610 		add	r0, r0, r6, lsl #7
 3198 048c C0F3C550 		ubfx	r0, r0, #23, #6
 3199 0490 60F34A1B 		bfi	fp, r0, #5, #6
 468:Middlewares/lvgl/src/draw/../misc/lv_color.h ****                                         (255 - mix) + LV_COLOR_MIX_ROUND_OFS));
 3200              		.loc 3 468 5 discriminator 4 view .LVU1021
 3201 0494 05F01F00 		and	r0, r5, #31
 3202 0498 01F01F01 		and	r1, r1, #31
 3203              	.LVL344:
 468:Middlewares/lvgl/src/draw/../misc/lv_color.h ****                                         (255 - mix) + LV_COLOR_MIX_ROUND_OFS));
 3204              		.loc 3 468 5 is_stmt 0 discriminator 4 view .LVU1022
 3205 049c 01FB08F1 		mul	r1, r1, r8
 3206 04a0 00FB0711 		mla	r1, r0, r7, r1
 3207 04a4 8031     		adds	r1, r1, #128
 3208 04a6 01EB0120 		add	r0, r1, r1, lsl #8
 3209 04aa 01EBC010 		add	r0, r1, r0, lsl #7
 3210 04ae C0F3C450 		ubfx	r0, r0, #23, #5
 3211 04b2 60F3040B 		bfi	fp, r0, #0, #5
 470:Middlewares/lvgl/src/draw/../misc/lv_color.h **** #else
 3212              		.loc 3 470 5 is_stmt 1 discriminator 4 view .LVU1023
 470:Middlewares/lvgl/src/draw/../misc/lv_color.h **** #else
 3213              		.loc 3 470 5 discriminator 4 view .LVU1024
 470:Middlewares/lvgl/src/draw/../misc/lv_color.h **** #else
 3214              		.loc 3 470 5 discriminator 4 view .LVU1025
 476:Middlewares/lvgl/src/draw/../misc/lv_color.h **** }
 3215              		.loc 3 476 5 discriminator 4 view .LVU1026
 3216              	.LVL345:
 476:Middlewares/lvgl/src/draw/../misc/lv_color.h **** }
 3217              		.loc 3 476 5 is_stmt 0 discriminator 4 view .LVU1027
 3218              	.LBE214:
 3219              	.LBE213:
ARM GAS  /tmp/ccViN4Ah.s 			page 104


 445:Middlewares/lvgl/src/draw/lv_draw_blend.c **** #endif
 3220              		.loc 1 445 29 discriminator 4 view .LVU1028
 3221 04b6 24F81AB0 		strh	fp, [r4, r10, lsl #1]	@ movhi
 3222 04ba F3E6     		b	.L141
 3223              	.LVL346:
 3224              	.L179:
 442:Middlewares/lvgl/src/draw/lv_draw_blend.c ****                             FILL_NORMAL_MASK_PX(x + 1, color)
 3225              		.loc 1 442 29 is_stmt 1 discriminator 3 view .LVU1029
 3226 04bc 24F81350 		strh	r5, [r4, r3, lsl #1]	@ movhi
 3227 04c0 3AE7     		b	.L143
 3228              	.LVL347:
 3229              	.L180:
 443:Middlewares/lvgl/src/draw/lv_draw_blend.c ****                             FILL_NORMAL_MASK_PX(x + 2, color)
 3230              		.loc 1 443 29 discriminator 3 view .LVU1030
 3231 04c2 591C     		adds	r1, r3, #1
 3232 04c4 24F81150 		strh	r5, [r4, r1, lsl #1]	@ movhi
 3233 04c8 76E7     		b	.L145
 3234              	.LVL348:
 3235              	.L181:
 444:Middlewares/lvgl/src/draw/lv_draw_blend.c ****                             FILL_NORMAL_MASK_PX(x + 3, color)
 3236              		.loc 1 444 29 discriminator 3 view .LVU1031
 3237 04ca 991C     		adds	r1, r3, #2
 3238 04cc 24F81150 		strh	r5, [r4, r1, lsl #1]	@ movhi
 3239 04d0 B2E7     		b	.L147
 3240              	.LVL349:
 3241              	.L182:
 445:Middlewares/lvgl/src/draw/lv_draw_blend.c **** #endif
 3242              		.loc 1 445 29 discriminator 3 view .LVU1032
 3243 04d2 D91C     		adds	r1, r3, #3
 3244 04d4 24F81150 		strh	r5, [r4, r1, lsl #1]	@ movhi
 3245 04d8 E4E6     		b	.L141
 3246              	.LVL350:
 3247              	.L171:
 445:Middlewares/lvgl/src/draw/lv_draw_blend.c **** #endif
 3248              		.loc 1 445 29 is_stmt 0 discriminator 3 view .LVU1033
 3249 04da 0696     		str	r6, [sp, #24]
 3250 04dc ADF81C80 		strh	r8, [sp, #28]	@ movhi
 3251 04e0 BDF816C0 		ldrh	ip, [sp, #22]
 3252              	.LVL351:
 445:Middlewares/lvgl/src/draw/lv_draw_blend.c **** #endif
 3253              		.loc 1 445 29 discriminator 3 view .LVU1034
 3254 04e4 BDF820E0 		ldrh	lr, [sp, #32]
 3255              	.LVL352:
 445:Middlewares/lvgl/src/draw/lv_draw_blend.c **** #endif
 3256              		.loc 1 445 29 discriminator 3 view .LVU1035
 3257 04e8 ADF82270 		strh	r7, [sp, #34]	@ movhi
 3258 04ec DCE6     		b	.L150
 3259              	.LVL353:
 3260              	.L177:
 445:Middlewares/lvgl/src/draw/lv_draw_blend.c **** #endif
 3261              		.loc 1 445 29 discriminator 3 view .LVU1036
 3262 04ee 069E     		ldr	r6, [sp, #24]
 3263 04f0 BDF81C80 		ldrh	r8, [sp, #28]
 3264              	.LVL354:
 445:Middlewares/lvgl/src/draw/lv_draw_blend.c **** #endif
 3265              		.loc 1 445 29 discriminator 3 view .LVU1037
 3266 04f4 ADF816C0 		strh	ip, [sp, #22]	@ movhi
ARM GAS  /tmp/ccViN4Ah.s 			page 105


 3267 04f8 ADF820E0 		strh	lr, [sp, #32]	@ movhi
 3268 04fc BDF82270 		ldrh	r7, [sp, #34]
 3269              	.LVL355:
 445:Middlewares/lvgl/src/draw/lv_draw_blend.c **** #endif
 3270              		.loc 1 445 29 discriminator 3 view .LVU1038
 3271 0500 03E0     		b	.L152
 3272              	.LVL356:
 3273              	.L184:
 457:Middlewares/lvgl/src/draw/lv_draw_blend.c **** #endif
 3274              		.loc 1 457 21 is_stmt 1 discriminator 3 view .LVU1039
 3275 0502 24F81350 		strh	r5, [r4, r3, lsl #1]	@ movhi
 3276              	.L153:
 457:Middlewares/lvgl/src/draw/lv_draw_blend.c **** #endif
 3277              		.loc 1 457 21 discriminator 6 view .LVU1040
 3278 0506 0132     		adds	r2, r2, #1
 3279              	.LVL357:
 453:Middlewares/lvgl/src/draw/lv_draw_blend.c **** #if LV_COLOR_SCREEN_TRANSP
 3280              		.loc 1 453 41 discriminator 6 view .LVU1041
 453:Middlewares/lvgl/src/draw/lv_draw_blend.c **** #if LV_COLOR_SCREEN_TRANSP
 3281              		.loc 1 453 42 is_stmt 0 discriminator 6 view .LVU1042
 3282 0508 0133     		adds	r3, r3, #1
 3283              	.LVL358:
 3284              	.L152:
 453:Middlewares/lvgl/src/draw/lv_draw_blend.c **** #if LV_COLOR_SCREEN_TRANSP
 3285              		.loc 1 453 23 is_stmt 1 discriminator 1 view .LVU1043
 453:Middlewares/lvgl/src/draw/lv_draw_blend.c **** #if LV_COLOR_SCREEN_TRANSP
 3286              		.loc 1 453 17 is_stmt 0 discriminator 1 view .LVU1044
 3287 050a B342     		cmp	r3, r6
 3288 050c 40DA     		bge	.L183
 457:Middlewares/lvgl/src/draw/lv_draw_blend.c **** #endif
 3289              		.loc 1 457 21 is_stmt 1 view .LVU1045
 3290 050e 1178     		ldrb	r1, [r2]	@ zero_extendqisi2
 3291 0510 0029     		cmp	r1, #0
 3292 0512 F8D0     		beq	.L153
 457:Middlewares/lvgl/src/draw/lv_draw_blend.c **** #endif
 3293              		.loc 1 457 21 discriminator 1 view .LVU1046
 3294 0514 FF29     		cmp	r1, #255
 3295 0516 F4D0     		beq	.L184
 457:Middlewares/lvgl/src/draw/lv_draw_blend.c **** #endif
 3296              		.loc 1 457 21 discriminator 4 view .LVU1047
 3297 0518 34F813E0 		ldrh	lr, [r4, r3, lsl #1]
 3298              	.LVL359:
 3299              	.LBB215:
 3300              	.LBI215:
 459:Middlewares/lvgl/src/draw/../misc/lv_color.h **** {
 3301              		.loc 3 459 48 discriminator 4 view .LVU1048
 3302              	.LBB216:
 461:Middlewares/lvgl/src/draw/../misc/lv_color.h **** #if LV_COLOR_DEPTH != 1
 3303              		.loc 3 461 5 discriminator 4 view .LVU1049
 464:Middlewares/lvgl/src/draw/../misc/lv_color.h ****                                         (255 - mix) + LV_COLOR_MIX_ROUND_OFS));
 3304              		.loc 3 464 5 discriminator 4 view .LVU1050
 3305 051c C5F3C42C 		ubfx	ip, r5, #11, #5
 3306              	.LVL360:
 464:Middlewares/lvgl/src/draw/../misc/lv_color.h ****                                         (255 - mix) + LV_COLOR_MIX_ROUND_OFS));
 3307              		.loc 3 464 5 is_stmt 0 discriminator 4 view .LVU1051
 3308 0520 CEF3C42A 		ubfx	r10, lr, #11, #5
 3309 0524 C1F1FF00 		rsb	r0, r1, #255
ARM GAS  /tmp/ccViN4Ah.s 			page 106


 3310 0528 00FB0AFA 		mul	r10, r0, r10
 3311 052c 01FB0CAC 		mla	ip, r1, ip, r10
 3312 0530 0CF1800C 		add	ip, ip, #128
 3313 0534 0CEB0C2A 		add	r10, ip, ip, lsl #8
 3314 0538 0CEBCA1C 		add	ip, ip, r10, lsl #7
 3315 053c CCF3C45C 		ubfx	ip, ip, #23, #5
 3316 0540 6CF3CF28 		bfi	r8, ip, #11, #5
 466:Middlewares/lvgl/src/draw/../misc/lv_color.h ****                                         (255 - mix) + LV_COLOR_MIX_ROUND_OFS));
 3317              		.loc 3 466 5 is_stmt 1 discriminator 4 view .LVU1052
 3318 0544 C5F3451C 		ubfx	ip, r5, #5, #6
 3319 0548 CEF3451A 		ubfx	r10, lr, #5, #6
 3320 054c 0AFB00FA 		mul	r10, r10, r0
 3321 0550 0CFB01AC 		mla	ip, ip, r1, r10
 3322 0554 0CF1800C 		add	ip, ip, #128
 3323 0558 0CEB0C2A 		add	r10, ip, ip, lsl #8
 3324 055c 0CEBCA1C 		add	ip, ip, r10, lsl #7
 3325 0560 CCF3C55C 		ubfx	ip, ip, #23, #6
 3326 0564 6CF34A18 		bfi	r8, ip, #5, #6
 468:Middlewares/lvgl/src/draw/../misc/lv_color.h ****                                         (255 - mix) + LV_COLOR_MIX_ROUND_OFS));
 3327              		.loc 3 468 5 discriminator 4 view .LVU1053
 3328 0568 05F01F0C 		and	ip, r5, #31
 3329 056c 0EF01F0E 		and	lr, lr, #31
 3330              	.LVL361:
 468:Middlewares/lvgl/src/draw/../misc/lv_color.h ****                                         (255 - mix) + LV_COLOR_MIX_ROUND_OFS));
 3331              		.loc 3 468 5 is_stmt 0 discriminator 4 view .LVU1054
 3332 0570 0EFB00F0 		mul	r0, lr, r0
 3333 0574 0CFB0101 		mla	r1, ip, r1, r0
 3334              	.LVL362:
 468:Middlewares/lvgl/src/draw/../misc/lv_color.h ****                                         (255 - mix) + LV_COLOR_MIX_ROUND_OFS));
 3335              		.loc 3 468 5 discriminator 4 view .LVU1055
 3336 0578 8031     		adds	r1, r1, #128
 3337 057a 01EB0120 		add	r0, r1, r1, lsl #8
 3338 057e 01EBC011 		add	r1, r1, r0, lsl #7
 3339 0582 C1F3C451 		ubfx	r1, r1, #23, #5
 3340 0586 61F30408 		bfi	r8, r1, #0, #5
 470:Middlewares/lvgl/src/draw/../misc/lv_color.h **** #else
 3341              		.loc 3 470 5 is_stmt 1 discriminator 4 view .LVU1056
 470:Middlewares/lvgl/src/draw/../misc/lv_color.h **** #else
 3342              		.loc 3 470 5 discriminator 4 view .LVU1057
 470:Middlewares/lvgl/src/draw/../misc/lv_color.h **** #else
 3343              		.loc 3 470 5 discriminator 4 view .LVU1058
 476:Middlewares/lvgl/src/draw/../misc/lv_color.h **** }
 3344              		.loc 3 476 5 discriminator 4 view .LVU1059
 3345              	.LVL363:
 476:Middlewares/lvgl/src/draw/../misc/lv_color.h **** }
 3346              		.loc 3 476 5 is_stmt 0 discriminator 4 view .LVU1060
 3347              	.LBE216:
 3348              	.LBE215:
 457:Middlewares/lvgl/src/draw/lv_draw_blend.c **** #endif
 3349              		.loc 1 457 21 discriminator 4 view .LVU1061
 3350 058a 24F81380 		strh	r8, [r4, r3, lsl #1]	@ movhi
 3351 058e BAE7     		b	.L153
 3352              	.LVL364:
 3353              	.L183:
 461:Middlewares/lvgl/src/draw/lv_draw_blend.c ****                 mask += draw_area_w;
 3354              		.loc 1 461 17 is_stmt 1 discriminator 2 view .LVU1062
 461:Middlewares/lvgl/src/draw/lv_draw_blend.c ****                 mask += draw_area_w;
ARM GAS  /tmp/ccViN4Ah.s 			page 107


 3355              		.loc 1 461 32 is_stmt 0 discriminator 2 view .LVU1063
 3356 0590 049B     		ldr	r3, [sp, #16]
 3357              	.LVL365:
 461:Middlewares/lvgl/src/draw/lv_draw_blend.c ****                 mask += draw_area_w;
 3358              		.loc 1 461 32 discriminator 2 view .LVU1064
 3359 0592 04EB4304 		add	r4, r4, r3, lsl #1
 3360              	.LVL366:
 462:Middlewares/lvgl/src/draw/lv_draw_blend.c ****             }
 3361              		.loc 1 462 17 is_stmt 1 discriminator 2 view .LVU1065
 462:Middlewares/lvgl/src/draw/lv_draw_blend.c ****             }
 3362              		.loc 1 462 22 is_stmt 0 discriminator 2 view .LVU1066
 3363 0596 179B     		ldr	r3, [sp, #92]
 3364 0598 3344     		add	r3, r3, r6
 3365 059a 1793     		str	r3, [sp, #92]
 3366              	.LVL367:
 462:Middlewares/lvgl/src/draw/lv_draw_blend.c ****             }
 3367              		.loc 1 462 22 discriminator 2 view .LVU1067
 3368              	.LBE204:
 406:Middlewares/lvgl/src/draw/lv_draw_blend.c ****                 const lv_opa_t * mask_tmp_x = mask;
 3369              		.loc 1 406 41 is_stmt 1 discriminator 2 view .LVU1068
 406:Middlewares/lvgl/src/draw/lv_draw_blend.c ****                 const lv_opa_t * mask_tmp_x = mask;
 3370              		.loc 1 406 42 is_stmt 0 discriminator 2 view .LVU1069
 3371 059c 039B     		ldr	r3, [sp, #12]
 3372              	.LVL368:
 406:Middlewares/lvgl/src/draw/lv_draw_blend.c ****                 const lv_opa_t * mask_tmp_x = mask;
 3373              		.loc 1 406 42 discriminator 2 view .LVU1070
 3374 059e 0133     		adds	r3, r3, #1
 3375 05a0 0393     		str	r3, [sp, #12]
 3376              	.LVL369:
 3377              	.L135:
 406:Middlewares/lvgl/src/draw/lv_draw_blend.c ****                 const lv_opa_t * mask_tmp_x = mask;
 3378              		.loc 1 406 24 is_stmt 1 discriminator 1 view .LVU1071
 406:Middlewares/lvgl/src/draw/lv_draw_blend.c ****                 const lv_opa_t * mask_tmp_x = mask;
 3379              		.loc 1 406 13 is_stmt 0 discriminator 1 view .LVU1072
 3380 05a2 039B     		ldr	r3, [sp, #12]
 3381 05a4 099A     		ldr	r2, [sp, #36]
 3382 05a6 9342     		cmp	r3, r2
 3383 05a8 BFF68FAD 		bge	.L123
 3384              	.LBB217:
 407:Middlewares/lvgl/src/draw/lv_draw_blend.c **** #if 0
 3385              		.loc 1 407 34 view .LVU1073
 3386 05ac 179A     		ldr	r2, [sp, #92]
 417:Middlewares/lvgl/src/draw/lv_draw_blend.c **** #if LV_COLOR_SCREEN_TRANSP
 3387              		.loc 1 417 23 view .LVU1074
 3388 05ae 0023     		movs	r3, #0
 3389 05b0 55E6     		b	.L156
 3390              	.LVL370:
 3391              	.L167:
 417:Middlewares/lvgl/src/draw/lv_draw_blend.c **** #if LV_COLOR_SCREEN_TRANSP
 3392              		.loc 1 417 23 view .LVU1075
 3393              	.LBE217:
 406:Middlewares/lvgl/src/draw/lv_draw_blend.c ****                 const lv_opa_t * mask_tmp_x = mask;
 3394              		.loc 1 406 19 view .LVU1076
 3395 05b2 0023     		movs	r3, #0
 3396 05b4 0393     		str	r3, [sp, #12]
 3397 05b6 BDF822B0 		ldrh	fp, [sp, #34]
 3398 05ba F2E7     		b	.L135
ARM GAS  /tmp/ccViN4Ah.s 			page 108


 3399              	.LVL371:
 3400              	.L169:
 3401              	.LBB218:
 3402              	.LBB200:
 472:Middlewares/lvgl/src/draw/lv_draw_blend.c ****                                                                    (uint32_t)((uint32_t)(*mask_tmp_
 3403              		.loc 1 472 62 view .LVU1077
 3404 05bc DDF80CE0 		ldr	lr, [sp, #12]
 3405              	.LVL372:
 3406              	.L159:
 474:Middlewares/lvgl/src/draw/lv_draw_blend.c **** #if LV_COLOR_SCREEN_TRANSP
 3407              		.loc 1 474 25 is_stmt 1 view .LVU1078
 474:Middlewares/lvgl/src/draw/lv_draw_blend.c **** #if LV_COLOR_SCREEN_TRANSP
 3408              		.loc 1 474 27 is_stmt 0 view .LVU1079
 3409 05c0 4745     		cmp	r7, r8
 3410 05c2 52D0     		beq	.L185
 3411              	.L160:
 483:Middlewares/lvgl/src/draw/lv_draw_blend.c ****                                 else last_res_color = lv_color_mix(color, disp_buf_first[x], opa_tm
 3412              		.loc 1 483 33 is_stmt 1 view .LVU1080
 483:Middlewares/lvgl/src/draw/lv_draw_blend.c ****                                 else last_res_color = lv_color_mix(color, disp_buf_first[x], opa_tm
 3413              		.loc 1 483 35 is_stmt 0 view .LVU1081
 3414 05c4 BEF1FF0F 		cmp	lr, #255
 3415 05c8 55D0     		beq	.L186
 484:Middlewares/lvgl/src/draw/lv_draw_blend.c ****                             }
 3416              		.loc 1 484 38 is_stmt 1 view .LVU1082
 3417 05ca 34F81380 		ldrh	r8, [r4, r3, lsl #1]
 3418              	.LVL373:
 3419              	.LBB201:
 3420              	.LBI201:
 459:Middlewares/lvgl/src/draw/../misc/lv_color.h **** {
 3421              		.loc 3 459 48 view .LVU1083
 3422              	.LBB202:
 461:Middlewares/lvgl/src/draw/../misc/lv_color.h **** #if LV_COLOR_DEPTH != 1
 3423              		.loc 3 461 5 view .LVU1084
 464:Middlewares/lvgl/src/draw/../misc/lv_color.h ****                                         (255 - mix) + LV_COLOR_MIX_ROUND_OFS));
 3424              		.loc 3 464 5 view .LVU1085
 3425 05ce C5F3C422 		ubfx	r2, r5, #11, #5
 3426              	.LVL374:
 464:Middlewares/lvgl/src/draw/../misc/lv_color.h ****                                         (255 - mix) + LV_COLOR_MIX_ROUND_OFS));
 3427              		.loc 3 464 5 is_stmt 0 view .LVU1086
 3428 05d2 C8F3C420 		ubfx	r0, r8, #11, #5
 3429              	.LVL375:
 464:Middlewares/lvgl/src/draw/../misc/lv_color.h ****                                         (255 - mix) + LV_COLOR_MIX_ROUND_OFS));
 3430              		.loc 3 464 5 view .LVU1087
 3431 05d6 CEF1FF01 		rsb	r1, lr, #255
 3432              	.LVL376:
 464:Middlewares/lvgl/src/draw/../misc/lv_color.h ****                                         (255 - mix) + LV_COLOR_MIX_ROUND_OFS));
 3433              		.loc 3 464 5 view .LVU1088
 3434 05da 01FB00F0 		mul	r0, r1, r0
 3435 05de 0EFB0202 		mla	r2, lr, r2, r0
 3436 05e2 8032     		adds	r2, r2, #128
 3437 05e4 02EB0220 		add	r0, r2, r2, lsl #8
 3438 05e8 02EBC012 		add	r2, r2, r0, lsl #7
 3439 05ec C2F3C452 		ubfx	r2, r2, #23, #5
 3440 05f0 62F3CF2B 		bfi	fp, r2, #11, #5
 466:Middlewares/lvgl/src/draw/../misc/lv_color.h ****                                         (255 - mix) + LV_COLOR_MIX_ROUND_OFS));
 3441              		.loc 3 466 5 is_stmt 1 view .LVU1089
 3442 05f4 C5F34510 		ubfx	r0, r5, #5, #6
ARM GAS  /tmp/ccViN4Ah.s 			page 109


 3443 05f8 C8F34512 		ubfx	r2, r8, #5, #6
 3444 05fc 01FB02F2 		mul	r2, r1, r2
 3445 0600 00FB0E20 		mla	r0, r0, lr, r2
 3446 0604 8030     		adds	r0, r0, #128
 3447 0606 00EB0022 		add	r2, r0, r0, lsl #8
 3448 060a 00EBC210 		add	r0, r0, r2, lsl #7
 3449 060e C0F3C550 		ubfx	r0, r0, #23, #6
 3450 0612 60F34A1B 		bfi	fp, r0, #5, #6
 468:Middlewares/lvgl/src/draw/../misc/lv_color.h ****                                         (255 - mix) + LV_COLOR_MIX_ROUND_OFS));
 3451              		.loc 3 468 5 view .LVU1090
 3452 0616 05F01F02 		and	r2, r5, #31
 3453 061a 08F01F08 		and	r8, r8, #31
 3454              	.LVL377:
 468:Middlewares/lvgl/src/draw/../misc/lv_color.h ****                                         (255 - mix) + LV_COLOR_MIX_ROUND_OFS));
 3455              		.loc 3 468 5 is_stmt 0 view .LVU1091
 3456 061e 08FB01F1 		mul	r1, r8, r1
 3457 0622 02FB0E12 		mla	r2, r2, lr, r1
 3458 0626 8032     		adds	r2, r2, #128
 3459 0628 02EB0221 		add	r1, r2, r2, lsl #8
 3460 062c 02EBC112 		add	r2, r2, r1, lsl #7
 3461 0630 C2F3C452 		ubfx	r2, r2, #23, #5
 3462 0634 62F3040B 		bfi	fp, r2, #0, #5
 470:Middlewares/lvgl/src/draw/../misc/lv_color.h **** #else
 3463              		.loc 3 470 5 is_stmt 1 view .LVU1092
 470:Middlewares/lvgl/src/draw/../misc/lv_color.h **** #else
 3464              		.loc 3 470 5 view .LVU1093
 470:Middlewares/lvgl/src/draw/../misc/lv_color.h **** #else
 3465              		.loc 3 470 5 view .LVU1094
 476:Middlewares/lvgl/src/draw/../misc/lv_color.h **** }
 3466              		.loc 3 476 5 view .LVU1095
 3467 0638 5946     		mov	r1, fp	@ movhi
 3468              	.LVL378:
 3469              	.L163:
 476:Middlewares/lvgl/src/draw/../misc/lv_color.h **** }
 3470              		.loc 3 476 5 is_stmt 0 view .LVU1096
 3471              	.LBE202:
 3472              	.LBE201:
 486:Middlewares/lvgl/src/draw/lv_draw_blend.c ****                             last_dest_color.full = disp_buf_first[x].full;
 3473              		.loc 1 486 29 is_stmt 1 view .LVU1097
 487:Middlewares/lvgl/src/draw/lv_draw_blend.c ****                         }
 3474              		.loc 1 487 29 view .LVU1098
 487:Middlewares/lvgl/src/draw/lv_draw_blend.c ****                         }
 3475              		.loc 1 487 50 is_stmt 0 view .LVU1099
 3476 063a 34F81300 		ldrh	r0, [r4, r3, lsl #1]
 3477              	.LVL379:
 486:Middlewares/lvgl/src/draw/lv_draw_blend.c ****                             last_dest_color.full = disp_buf_first[x].full;
 3478              		.loc 1 486 39 view .LVU1100
 3479 063e B846     		mov	r8, r7
 3480              	.LVL380:
 3481              	.L161:
 489:Middlewares/lvgl/src/draw/lv_draw_blend.c ****                     }
 3482              		.loc 1 489 25 is_stmt 1 view .LVU1101
 489:Middlewares/lvgl/src/draw/lv_draw_blend.c ****                     }
 3483              		.loc 1 489 43 is_stmt 0 view .LVU1102
 3484 0640 24F81310 		strh	r1, [r4, r3, lsl #1]	@ movhi
 3485              	.L158:
 491:Middlewares/lvgl/src/draw/lv_draw_blend.c ****                 }
ARM GAS  /tmp/ccViN4Ah.s 			page 110


 3486              		.loc 1 491 21 is_stmt 1 discriminator 2 view .LVU1103
 491:Middlewares/lvgl/src/draw/lv_draw_blend.c ****                 }
 3487              		.loc 1 491 31 is_stmt 0 discriminator 2 view .LVU1104
 3488 0644 09F10109 		add	r9, r9, #1
 3489              	.LVL381:
 470:Middlewares/lvgl/src/draw/lv_draw_blend.c ****                     if(*mask_tmp_x) {
 3490              		.loc 1 470 45 is_stmt 1 discriminator 2 view .LVU1105
 470:Middlewares/lvgl/src/draw/lv_draw_blend.c ****                     if(*mask_tmp_x) {
 3491              		.loc 1 470 46 is_stmt 0 discriminator 2 view .LVU1106
 3492 0648 0133     		adds	r3, r3, #1
 3493              	.LVL382:
 3494              	.L165:
 470:Middlewares/lvgl/src/draw/lv_draw_blend.c ****                     if(*mask_tmp_x) {
 3495              		.loc 1 470 28 is_stmt 1 discriminator 1 view .LVU1107
 470:Middlewares/lvgl/src/draw/lv_draw_blend.c ****                     if(*mask_tmp_x) {
 3496              		.loc 1 470 17 is_stmt 0 discriminator 1 view .LVU1108
 3497 064a B342     		cmp	r3, r6
 3498 064c 15DA     		bge	.L187
 471:Middlewares/lvgl/src/draw/lv_draw_blend.c ****                         if(*mask_tmp_x != last_mask) opa_tmp = *mask_tmp_x == LV_OPA_COVER ? opa :
 3499              		.loc 1 471 21 is_stmt 1 view .LVU1109
 471:Middlewares/lvgl/src/draw/lv_draw_blend.c ****                         if(*mask_tmp_x != last_mask) opa_tmp = *mask_tmp_x == LV_OPA_COVER ? opa :
 3500              		.loc 1 471 24 is_stmt 0 view .LVU1110
 3501 064e 99F80070 		ldrb	r7, [r9]	@ zero_extendqisi2
 471:Middlewares/lvgl/src/draw/lv_draw_blend.c ****                         if(*mask_tmp_x != last_mask) opa_tmp = *mask_tmp_x == LV_OPA_COVER ? opa :
 3502              		.loc 1 471 23 view .LVU1111
 3503 0652 002F     		cmp	r7, #0
 3504 0654 F6D0     		beq	.L158
 472:Middlewares/lvgl/src/draw/lv_draw_blend.c ****                                                                    (uint32_t)((uint32_t)(*mask_tmp_
 3505              		.loc 1 472 25 is_stmt 1 view .LVU1112
 472:Middlewares/lvgl/src/draw/lv_draw_blend.c ****                                                                    (uint32_t)((uint32_t)(*mask_tmp_
 3506              		.loc 1 472 27 is_stmt 0 view .LVU1113
 3507 0656 4745     		cmp	r7, r8
 3508 0658 B2D0     		beq	.L159
 472:Middlewares/lvgl/src/draw/lv_draw_blend.c ****                                                                    (uint32_t)((uint32_t)(*mask_tmp_
 3509              		.loc 1 472 54 is_stmt 1 discriminator 1 view .LVU1114
 472:Middlewares/lvgl/src/draw/lv_draw_blend.c ****                                                                    (uint32_t)((uint32_t)(*mask_tmp_
 3510              		.loc 1 472 62 is_stmt 0 discriminator 1 view .LVU1115
 3511 065a FF2F     		cmp	r7, #255
 3512 065c AED0     		beq	.L169
 473:Middlewares/lvgl/src/draw/lv_draw_blend.c ****                         if(*mask_tmp_x != last_mask || last_dest_color.full != disp_buf_first[x].fu
 3513              		.loc 1 473 68 discriminator 2 view .LVU1116
 3514 065e 039A     		ldr	r2, [sp, #12]
 3515 0660 07FB02FE 		mul	lr, r7, r2
 3516              	.LVL383:
 472:Middlewares/lvgl/src/draw/lv_draw_blend.c ****                                                                    (uint32_t)((uint32_t)(*mask_tmp_
 3517              		.loc 1 472 62 discriminator 2 view .LVU1117
 3518 0664 4FEA1E2E 		lsr	lr, lr, #8
 3519 0668 AAE7     		b	.L159
 3520              	.LVL384:
 3521              	.L185:
 474:Middlewares/lvgl/src/draw/lv_draw_blend.c **** #if LV_COLOR_SCREEN_TRANSP
 3522              		.loc 1 474 71 discriminator 1 view .LVU1118
 3523 066a 82B2     		uxth	r2, r0
 474:Middlewares/lvgl/src/draw/lv_draw_blend.c **** #if LV_COLOR_SCREEN_TRANSP
 3524              		.loc 1 474 97 discriminator 1 view .LVU1119
 3525 066c 34F813A0 		ldrh	r10, [r4, r3, lsl #1]
 474:Middlewares/lvgl/src/draw/lv_draw_blend.c **** #if LV_COLOR_SCREEN_TRANSP
ARM GAS  /tmp/ccViN4Ah.s 			page 111


 3526              		.loc 1 474 53 discriminator 1 view .LVU1120
 3527 0670 5245     		cmp	r2, r10
 3528 0672 A7D1     		bne	.L160
 474:Middlewares/lvgl/src/draw/lv_draw_blend.c **** #if LV_COLOR_SCREEN_TRANSP
 3529              		.loc 1 474 53 discriminator 1 view .LVU1121
 3530 0674 E4E7     		b	.L161
 3531              	.L186:
 483:Middlewares/lvgl/src/draw/lv_draw_blend.c ****                                 else last_res_color = lv_color_mix(color, disp_buf_first[x], opa_tm
 3532              		.loc 1 483 61 is_stmt 1 discriminator 1 view .LVU1122
 483:Middlewares/lvgl/src/draw/lv_draw_blend.c ****                                 else last_res_color = lv_color_mix(color, disp_buf_first[x], opa_tm
 3533              		.loc 1 483 76 is_stmt 0 discriminator 1 view .LVU1123
 3534 0676 2946     		mov	r1, r5	@ movhi
 3535              	.LVL385:
 483:Middlewares/lvgl/src/draw/lv_draw_blend.c ****                                 else last_res_color = lv_color_mix(color, disp_buf_first[x], opa_tm
 3536              		.loc 1 483 76 discriminator 1 view .LVU1124
 3537 0678 DFE7     		b	.L163
 3538              	.LVL386:
 3539              	.L187:
 493:Middlewares/lvgl/src/draw/lv_draw_blend.c ****                 mask += draw_area_w;
 3540              		.loc 1 493 17 is_stmt 1 discriminator 2 view .LVU1125
 493:Middlewares/lvgl/src/draw/lv_draw_blend.c ****                 mask += draw_area_w;
 3541              		.loc 1 493 32 is_stmt 0 discriminator 2 view .LVU1126
 3542 067a 049B     		ldr	r3, [sp, #16]
 3543              	.LVL387:
 493:Middlewares/lvgl/src/draw/lv_draw_blend.c ****                 mask += draw_area_w;
 3544              		.loc 1 493 32 discriminator 2 view .LVU1127
 3545 067c 04EB4304 		add	r4, r4, r3, lsl #1
 3546              	.LVL388:
 494:Middlewares/lvgl/src/draw/lv_draw_blend.c ****             }
 3547              		.loc 1 494 17 is_stmt 1 discriminator 2 view .LVU1128
 494:Middlewares/lvgl/src/draw/lv_draw_blend.c ****             }
 3548              		.loc 1 494 22 is_stmt 0 discriminator 2 view .LVU1129
 3549 0680 179B     		ldr	r3, [sp, #92]
 3550 0682 3344     		add	r3, r3, r6
 3551 0684 1793     		str	r3, [sp, #92]
 3552              	.LVL389:
 494:Middlewares/lvgl/src/draw/lv_draw_blend.c ****             }
 3553              		.loc 1 494 22 discriminator 2 view .LVU1130
 3554              	.LBE200:
 468:Middlewares/lvgl/src/draw/lv_draw_blend.c ****                 const lv_opa_t * mask_tmp_x = mask;
 3555              		.loc 1 468 56 is_stmt 1 discriminator 2 view .LVU1131
 468:Middlewares/lvgl/src/draw/lv_draw_blend.c ****                 const lv_opa_t * mask_tmp_x = mask;
 3556              		.loc 1 468 57 is_stmt 0 discriminator 2 view .LVU1132
 3557 0686 0CF1010C 		add	ip, ip, #1
 3558              	.LVL390:
 3559              	.L136:
 468:Middlewares/lvgl/src/draw/lv_draw_blend.c ****                 const lv_opa_t * mask_tmp_x = mask;
 3560              		.loc 1 468 36 is_stmt 1 discriminator 1 view .LVU1133
 468:Middlewares/lvgl/src/draw/lv_draw_blend.c ****                 const lv_opa_t * mask_tmp_x = mask;
 3561              		.loc 1 468 50 is_stmt 0 discriminator 1 view .LVU1134
 3562 068a 069B     		ldr	r3, [sp, #24]
 3563 068c B3F90630 		ldrsh	r3, [r3, #6]
 468:Middlewares/lvgl/src/draw/lv_draw_blend.c ****                 const lv_opa_t * mask_tmp_x = mask;
 3564              		.loc 1 468 13 discriminator 1 view .LVU1135
 3565 0690 6345     		cmp	r3, ip
 3566 0692 FFF61AAD 		blt	.L123
 3567              	.LBB203:
ARM GAS  /tmp/ccViN4Ah.s 			page 112


 469:Middlewares/lvgl/src/draw/lv_draw_blend.c ****                 for(x = 0; x < draw_area_w; x++) {
 3568              		.loc 1 469 34 view .LVU1136
 3569 0696 179F     		ldr	r7, [sp, #92]
 470:Middlewares/lvgl/src/draw/lv_draw_blend.c ****                     if(*mask_tmp_x) {
 3570              		.loc 1 470 23 view .LVU1137
 3571 0698 0023     		movs	r3, #0
 3572 069a B946     		mov	r9, r7
 3573 069c D5E7     		b	.L165
 3574              	.LBE203:
 3575              	.LBE218:
 3576              	.LBE231:
 3577              		.cfi_endproc
 3578              	.LFE150:
 3580              		.section	.text.fill_blended,"ax",%progbits
 3581              		.align	1
 3582              		.syntax unified
 3583              		.thumb
 3584              		.thumb_func
 3585              		.fpu fpv4-sp-d16
 3587              	fill_blended:
 3588              	.LVL391:
 3589              	.LFB151:
 518:Middlewares/lvgl/src/draw/lv_draw_blend.c ****     /*Get the width of the `disp_area` it will be used to go to the next line*/
 3590              		.loc 1 518 1 is_stmt 1 view -0
 3591              		.cfi_startproc
 3592              		@ args = 16, pretend = 0, frame = 16
 3593              		@ frame_needed = 0, uses_anonymous_args = 0
 518:Middlewares/lvgl/src/draw/lv_draw_blend.c ****     /*Get the width of the `disp_area` it will be used to go to the next line*/
 3594              		.loc 1 518 1 is_stmt 0 view .LVU1139
 3595 0000 2DE9F04F 		push	{r4, r5, r6, r7, r8, r9, r10, fp, lr}
 3596              	.LCFI21:
 3597              		.cfi_def_cfa_offset 36
 3598              		.cfi_offset 4, -36
 3599              		.cfi_offset 5, -32
 3600              		.cfi_offset 6, -28
 3601              		.cfi_offset 7, -24
 3602              		.cfi_offset 8, -20
 3603              		.cfi_offset 9, -16
 3604              		.cfi_offset 10, -12
 3605              		.cfi_offset 11, -8
 3606              		.cfi_offset 14, -4
 3607 0004 85B0     		sub	sp, sp, #20
 3608              	.LCFI22:
 3609              		.cfi_def_cfa_offset 56
 3610 0006 9046     		mov	r8, r2
 3611 0008 9A46     		mov	r10, r3	@ movhi
 3612              	.LVL392:
 518:Middlewares/lvgl/src/draw/lv_draw_blend.c ****     /*Get the width of the `disp_area` it will be used to go to the next line*/
 3613              		.loc 1 518 1 view .LVU1140
 3614 000a 9DF83830 		ldrb	r3, [sp, #56]	@ zero_extendqisi2
 3615 000e 0093     		str	r3, [sp]
 3616 0010 9DF84440 		ldrb	r4, [sp, #68]	@ zero_extendqisi2
 520:Middlewares/lvgl/src/draw/lv_draw_blend.c **** 
 3617              		.loc 1 520 5 is_stmt 1 view .LVU1141
 3618              	.LVL393:
 3619              	.LBB244:
 3620              	.LBI244:
ARM GAS  /tmp/ccViN4Ah.s 			page 113


 133:Middlewares/lvgl/src/draw/../misc/lv_area.h **** {
 3621              		.loc 2 133 26 view .LVU1142
 3622              	.LBB245:
 135:Middlewares/lvgl/src/draw/../misc/lv_area.h **** }
 3623              		.loc 2 135 5 view .LVU1143
 135:Middlewares/lvgl/src/draw/../misc/lv_area.h **** }
 3624              		.loc 2 135 31 is_stmt 0 view .LVU1144
 3625 0014 8388     		ldrh	r3, [r0, #4]
 135:Middlewares/lvgl/src/draw/../misc/lv_area.h **** }
 3626              		.loc 2 135 44 view .LVU1145
 3627 0016 0288     		ldrh	r2, [r0]
 3628              	.LVL394:
 135:Middlewares/lvgl/src/draw/../misc/lv_area.h **** }
 3629              		.loc 2 135 36 view .LVU1146
 3630 0018 9B1A     		subs	r3, r3, r2
 3631 001a 9BB2     		uxth	r3, r3
 135:Middlewares/lvgl/src/draw/../misc/lv_area.h **** }
 3632              		.loc 2 135 49 view .LVU1147
 3633 001c 0133     		adds	r3, r3, #1
 135:Middlewares/lvgl/src/draw/../misc/lv_area.h **** }
 3634              		.loc 2 135 12 view .LVU1148
 3635 001e 1BB2     		sxth	r3, r3
 3636 0020 0293     		str	r3, [sp, #8]
 3637              	.LVL395:
 135:Middlewares/lvgl/src/draw/../misc/lv_area.h **** }
 3638              		.loc 2 135 12 view .LVU1149
 3639              	.LBE245:
 3640              	.LBE244:
 523:Middlewares/lvgl/src/draw/lv_draw_blend.c **** 
 3641              		.loc 1 523 5 is_stmt 1 view .LVU1150
 523:Middlewares/lvgl/src/draw/lv_draw_blend.c **** 
 3642              		.loc 1 523 62 is_stmt 0 view .LVU1151
 3643 0022 B8F90220 		ldrsh	r2, [r8, #2]
 3644 0026 0192     		str	r2, [sp, #4]
 523:Middlewares/lvgl/src/draw/lv_draw_blend.c **** 
 3645              		.loc 1 523 51 view .LVU1152
 3646 0028 03FB02F2 		mul	r2, r3, r2
 523:Middlewares/lvgl/src/draw/lv_draw_blend.c **** 
 3647              		.loc 1 523 18 view .LVU1153
 3648 002c 01EB4205 		add	r5, r1, r2, lsl #1
 3649              	.LVL396:
 525:Middlewares/lvgl/src/draw/lv_draw_blend.c ****     switch(mode) {
 3650              		.loc 1 525 5 is_stmt 1 view .LVU1154
 526:Middlewares/lvgl/src/draw/lv_draw_blend.c ****         case LV_BLEND_MODE_ADDITIVE:
 3651              		.loc 1 526 5 view .LVU1155
 3652 0030 012C     		cmp	r4, #1
 3653 0032 19D0     		beq	.L205
 3654 0034 022C     		cmp	r4, #2
 3655 0036 40F09F80 		bne	.L188
 531:Middlewares/lvgl/src/draw/lv_draw_blend.c ****             break;
 3656              		.loc 1 531 22 is_stmt 0 view .LVU1156
 3657 003a DFF844B1 		ldr	fp, .L213
 3658              	.L189:
 3659              	.LVL397:
 538:Middlewares/lvgl/src/draw/lv_draw_blend.c ****     int32_t y;
 3660              		.loc 1 538 5 is_stmt 1 view .LVU1157
 539:Middlewares/lvgl/src/draw/lv_draw_blend.c **** 
ARM GAS  /tmp/ccViN4Ah.s 			page 114


 3661              		.loc 1 539 5 view .LVU1158
 542:Middlewares/lvgl/src/draw/lv_draw_blend.c ****         lv_color_t last_dest_color = lv_color_black();
 3662              		.loc 1 542 5 view .LVU1159
 542:Middlewares/lvgl/src/draw/lv_draw_blend.c ****         lv_color_t last_dest_color = lv_color_black();
 3663              		.loc 1 542 7 is_stmt 0 view .LVU1160
 3664 003e 9DF84030 		ldrb	r3, [sp, #64]	@ zero_extendqisi2
 3665              	.LVL398:
 542:Middlewares/lvgl/src/draw/lv_draw_blend.c ****         lv_color_t last_dest_color = lv_color_black();
 3666              		.loc 1 542 7 view .LVU1161
 3667 0042 012B     		cmp	r3, #1
 3668 0044 13D0     		beq	.L208
 3669              	.LBB246:
 559:Middlewares/lvgl/src/draw/lv_draw_blend.c **** 
 3670              		.loc 1 559 9 is_stmt 1 view .LVU1162
 3671              	.LVL399:
 3672              	.LBB247:
 3673              	.LBI247:
 133:Middlewares/lvgl/src/draw/../misc/lv_area.h **** {
 3674              		.loc 2 133 26 view .LVU1163
 3675              	.LBB248:
 135:Middlewares/lvgl/src/draw/../misc/lv_area.h **** }
 3676              		.loc 2 135 5 view .LVU1164
 135:Middlewares/lvgl/src/draw/../misc/lv_area.h **** }
 3677              		.loc 2 135 31 is_stmt 0 view .LVU1165
 3678 0046 B8F80430 		ldrh	r3, [r8, #4]
 135:Middlewares/lvgl/src/draw/../misc/lv_area.h **** }
 3679              		.loc 2 135 44 view .LVU1166
 3680 004a B8F90000 		ldrsh	r0, [r8]
 3681              	.LVL400:
 135:Middlewares/lvgl/src/draw/../misc/lv_area.h **** }
 3682              		.loc 2 135 44 view .LVU1167
 3683 004e 84B2     		uxth	r4, r0
 135:Middlewares/lvgl/src/draw/../misc/lv_area.h **** }
 3684              		.loc 2 135 36 view .LVU1168
 3685 0050 1B1B     		subs	r3, r3, r4
 3686 0052 9BB2     		uxth	r3, r3
 135:Middlewares/lvgl/src/draw/../misc/lv_area.h **** }
 3687              		.loc 2 135 49 view .LVU1169
 3688 0054 0133     		adds	r3, r3, #1
 135:Middlewares/lvgl/src/draw/../misc/lv_area.h **** }
 3689              		.loc 2 135 12 view .LVU1170
 3690 0056 1BB2     		sxth	r3, r3
 3691 0058 0393     		str	r3, [sp, #12]
 3692              	.LVL401:
 135:Middlewares/lvgl/src/draw/../misc/lv_area.h **** }
 3693              		.loc 2 135 12 view .LVU1171
 3694              	.LBE248:
 3695              	.LBE247:
 564:Middlewares/lvgl/src/draw/lv_draw_blend.c **** 
 3696              		.loc 1 564 9 is_stmt 1 view .LVU1172
 564:Middlewares/lvgl/src/draw/lv_draw_blend.c **** 
 3697              		.loc 1 564 26 is_stmt 0 view .LVU1173
 3698 005a 0F9F     		ldr	r7, [sp, #60]
 3699 005c 3F1A     		subs	r7, r7, r0
 3700              	.LVL402:
 567:Middlewares/lvgl/src/draw/lv_draw_blend.c ****         lv_color_t last_res_color;
 3701              		.loc 1 567 9 is_stmt 1 view .LVU1174
ARM GAS  /tmp/ccViN4Ah.s 			page 115


 568:Middlewares/lvgl/src/draw/lv_draw_blend.c ****         lv_opa_t last_mask = LV_OPA_TRANSP;
 3702              		.loc 1 568 9 view .LVU1175
 569:Middlewares/lvgl/src/draw/lv_draw_blend.c ****         last_dest_color.full = disp_buf_tmp[0].full;
 3703              		.loc 1 569 9 view .LVU1176
 570:Middlewares/lvgl/src/draw/lv_draw_blend.c ****         last_res_color.full = disp_buf_tmp[0].full;
 3704              		.loc 1 570 9 view .LVU1177
 570:Middlewares/lvgl/src/draw/lv_draw_blend.c ****         last_res_color.full = disp_buf_tmp[0].full;
 3705              		.loc 1 570 47 is_stmt 0 view .LVU1178
 3706 005e 31F81200 		ldrh	r0, [r1, r2, lsl #1]
 570:Middlewares/lvgl/src/draw/lv_draw_blend.c ****         last_res_color.full = disp_buf_tmp[0].full;
 3707              		.loc 1 570 30 view .LVU1179
 3708 0062 8446     		mov	ip, r0	@ movhi
 3709              	.LVL403:
 571:Middlewares/lvgl/src/draw/lv_draw_blend.c **** 
 3710              		.loc 1 571 9 is_stmt 1 view .LVU1180
 573:Middlewares/lvgl/src/draw/lv_draw_blend.c ****             for(x = draw_area->x1; x <= draw_area->x2; x++) {
 3711              		.loc 1 573 9 view .LVU1181
 569:Middlewares/lvgl/src/draw/lv_draw_blend.c ****         last_dest_color.full = disp_buf_tmp[0].full;
 3712              		.loc 1 569 18 is_stmt 0 view .LVU1182
 3713 0064 0021     		movs	r1, #0
 3714              	.LVL404:
 573:Middlewares/lvgl/src/draw/lv_draw_blend.c ****             for(x = draw_area->x1; x <= draw_area->x2; x++) {
 3715              		.loc 1 573 9 view .LVU1183
 3716 0066 7FE0     		b	.L197
 3717              	.LVL405:
 3718              	.L205:
 573:Middlewares/lvgl/src/draw/lv_draw_blend.c ****             for(x = draw_area->x1; x <= draw_area->x2; x++) {
 3719              		.loc 1 573 9 view .LVU1184
 3720              	.LBE246:
 526:Middlewares/lvgl/src/draw/lv_draw_blend.c ****         case LV_BLEND_MODE_ADDITIVE:
 3721              		.loc 1 526 5 view .LVU1185
 3722 0068 DFF818B1 		ldr	fp, .L213+4
 3723 006c E7E7     		b	.L189
 3724              	.LVL406:
 3725              	.L208:
 3726              	.LBB251:
 543:Middlewares/lvgl/src/draw/lv_draw_blend.c ****         lv_color_t last_res_color = lv_color_mix(color, last_dest_color, opa);
 3727              		.loc 1 543 9 is_stmt 1 view .LVU1186
 3728              	.LBB252:
 3729              	.LBI252:
 3730              		.loc 3 675 26 view .LVU1187
 3731              	.LBE252:
 3732              	.LBE251:
 3733              		.loc 3 675 49 view .LVU1188
 3734              	.LBB258:
 3735              	.LBB255:
 3736              	.LBB253:
 3737              	.LBI253:
 602:Middlewares/lvgl/src/draw/../misc/lv_color.h **** {
 3738              		.loc 3 602 26 view .LVU1189
 3739              	.LBB254:
 604:Middlewares/lvgl/src/draw/../misc/lv_color.h **** }
 3740              		.loc 3 604 5 view .LVU1190
 604:Middlewares/lvgl/src/draw/../misc/lv_color.h **** }
 3741              		.loc 3 604 5 is_stmt 0 view .LVU1191
 3742 006e 4FF00006 		mov	r6, #0	@ movhi
 3743              	.LVL407:
ARM GAS  /tmp/ccViN4Ah.s 			page 116


 604:Middlewares/lvgl/src/draw/../misc/lv_color.h **** }
 3744              		.loc 3 604 5 view .LVU1192
 3745              	.LBE254:
 3746              	.LBE253:
 3747              	.LBE255:
 544:Middlewares/lvgl/src/draw/lv_draw_blend.c ****         for(y = draw_area->y1; y <= draw_area->y2; y++) {
 3748              		.loc 1 544 9 is_stmt 1 view .LVU1193
 3749              	.LBB256:
 3750              	.LBI256:
 459:Middlewares/lvgl/src/draw/../misc/lv_color.h **** {
 3751              		.loc 3 459 48 view .LVU1194
 3752              	.LBB257:
 461:Middlewares/lvgl/src/draw/../misc/lv_color.h **** #if LV_COLOR_DEPTH != 1
 3753              		.loc 3 461 5 view .LVU1195
 464:Middlewares/lvgl/src/draw/../misc/lv_color.h ****                                         (255 - mix) + LV_COLOR_MIX_ROUND_OFS));
 3754              		.loc 3 464 5 view .LVU1196
 464:Middlewares/lvgl/src/draw/../misc/lv_color.h ****                                         (255 - mix) + LV_COLOR_MIX_ROUND_OFS));
 3755              		.loc 3 464 5 is_stmt 0 view .LVU1197
 3756 0072 CAF3C423 		ubfx	r3, r10, #11, #5
 3757 0076 0099     		ldr	r1, [sp]
 3758              	.LVL408:
 464:Middlewares/lvgl/src/draw/../misc/lv_color.h ****                                         (255 - mix) + LV_COLOR_MIX_ROUND_OFS));
 3759              		.loc 3 464 5 view .LVU1198
 3760 0078 01FB03F3 		mul	r3, r1, r3
 3761 007c 8033     		adds	r3, r3, #128
 3762 007e 03EB0322 		add	r2, r3, r3, lsl #8
 3763 0082 03EBC213 		add	r3, r3, r2, lsl #7
 3764 0086 C3F3C453 		ubfx	r3, r3, #23, #5
 3765              	.LVL409:
 464:Middlewares/lvgl/src/draw/../misc/lv_color.h ****                                         (255 - mix) + LV_COLOR_MIX_ROUND_OFS));
 3766              		.loc 3 464 5 view .LVU1199
 3767 008a 3046     		mov	r0, r6	@ movhi
 3768              	.LVL410:
 464:Middlewares/lvgl/src/draw/../misc/lv_color.h ****                                         (255 - mix) + LV_COLOR_MIX_ROUND_OFS));
 3769              		.loc 3 464 5 view .LVU1200
 3770 008c 63F3CF20 		bfi	r0, r3, #11, #5
 3771              	.LVL411:
 466:Middlewares/lvgl/src/draw/../misc/lv_color.h ****                                         (255 - mix) + LV_COLOR_MIX_ROUND_OFS));
 3772              		.loc 3 466 5 is_stmt 1 view .LVU1201
 3773 0090 CAF34513 		ubfx	r3, r10, #5, #6
 3774 0094 01FB03F3 		mul	r3, r1, r3
 3775 0098 8033     		adds	r3, r3, #128
 3776 009a 03EB0322 		add	r2, r3, r3, lsl #8
 3777 009e 03EBC213 		add	r3, r3, r2, lsl #7
 3778 00a2 C3F3C553 		ubfx	r3, r3, #23, #6
 3779 00a6 63F34A10 		bfi	r0, r3, #5, #6
 468:Middlewares/lvgl/src/draw/../misc/lv_color.h ****                                         (255 - mix) + LV_COLOR_MIX_ROUND_OFS));
 3780              		.loc 3 468 5 view .LVU1202
 3781 00aa 0AF01F03 		and	r3, r10, #31
 3782 00ae 01FB03F3 		mul	r3, r1, r3
 3783 00b2 8033     		adds	r3, r3, #128
 3784 00b4 03EB0322 		add	r2, r3, r3, lsl #8
 3785 00b8 03EBC213 		add	r3, r3, r2, lsl #7
 3786 00bc C3F3C453 		ubfx	r3, r3, #23, #5
 3787 00c0 63F30400 		bfi	r0, r3, #0, #5
 470:Middlewares/lvgl/src/draw/../misc/lv_color.h **** #else
 3788              		.loc 3 470 5 view .LVU1203
ARM GAS  /tmp/ccViN4Ah.s 			page 117


 470:Middlewares/lvgl/src/draw/../misc/lv_color.h **** #else
 3789              		.loc 3 470 5 view .LVU1204
 470:Middlewares/lvgl/src/draw/../misc/lv_color.h **** #else
 3790              		.loc 3 470 5 view .LVU1205
 476:Middlewares/lvgl/src/draw/../misc/lv_color.h **** }
 3791              		.loc 3 476 5 view .LVU1206
 3792              	.LVL412:
 476:Middlewares/lvgl/src/draw/../misc/lv_color.h **** }
 3793              		.loc 3 476 5 is_stmt 0 view .LVU1207
 3794              	.LBE257:
 3795              	.LBE256:
 545:Middlewares/lvgl/src/draw/lv_draw_blend.c ****             for(x = draw_area->x1; x <= draw_area->x2; x++) {
 3796              		.loc 1 545 9 is_stmt 1 view .LVU1208
 545:Middlewares/lvgl/src/draw/lv_draw_blend.c ****             for(x = draw_area->x1; x <= draw_area->x2; x++) {
 3797              		.loc 1 545 9 is_stmt 0 view .LVU1209
 3798 00c4 8946     		mov	r9, r1
 3799 00c6 19E0     		b	.L192
 3800              	.LVL413:
 3801              	.L210:
 548:Middlewares/lvgl/src/draw/lv_draw_blend.c ****                     last_res_color = blend_fp(color, disp_buf_tmp[x], opa);
 3802              		.loc 1 548 21 is_stmt 1 view .LVU1210
 548:Middlewares/lvgl/src/draw/lv_draw_blend.c ****                     last_res_color = blend_fp(color, disp_buf_tmp[x], opa);
 3803              		.loc 1 548 37 is_stmt 0 view .LVU1211
 3804 00c8 35F81460 		ldrh	r6, [r5, r4, lsl #1]
 3805              	.LVL414:
 549:Middlewares/lvgl/src/draw/lv_draw_blend.c ****                 }
 3806              		.loc 1 549 21 is_stmt 1 view .LVU1212
 549:Middlewares/lvgl/src/draw/lv_draw_blend.c ****                 }
 3807              		.loc 1 549 38 is_stmt 0 view .LVU1213
 3808 00cc 4A46     		mov	r2, r9
 3809              	.LVL415:
 549:Middlewares/lvgl/src/draw/lv_draw_blend.c ****                 }
 3810              		.loc 1 549 38 view .LVU1214
 3811 00ce 3146     		mov	r1, r6	@ movhi
 3812 00d0 5046     		mov	r0, r10	@ movhi
 3813              	.LVL416:
 549:Middlewares/lvgl/src/draw/lv_draw_blend.c ****                 }
 3814              		.loc 1 549 38 view .LVU1215
 3815 00d2 D847     		blx	fp
 3816              	.LVL417:
 3817              	.L194:
 551:Middlewares/lvgl/src/draw/lv_draw_blend.c ****             }
 3818              		.loc 1 551 17 is_stmt 1 discriminator 2 view .LVU1216
 551:Middlewares/lvgl/src/draw/lv_draw_blend.c ****             }
 3819              		.loc 1 551 33 is_stmt 0 discriminator 2 view .LVU1217
 3820 00d4 3880     		strh	r0, [r7]	@ movhi
 546:Middlewares/lvgl/src/draw/lv_draw_blend.c ****                 if(last_dest_color.full != disp_buf_tmp[x].full) {
 3821              		.loc 1 546 56 is_stmt 1 discriminator 2 view .LVU1218
 546:Middlewares/lvgl/src/draw/lv_draw_blend.c ****                 if(last_dest_color.full != disp_buf_tmp[x].full) {
 3822              		.loc 1 546 57 is_stmt 0 discriminator 2 view .LVU1219
 3823 00d6 0134     		adds	r4, r4, #1
 3824              	.LVL418:
 3825              	.L193:
 546:Middlewares/lvgl/src/draw/lv_draw_blend.c ****                 if(last_dest_color.full != disp_buf_tmp[x].full) {
 3826              		.loc 1 546 36 is_stmt 1 discriminator 1 view .LVU1220
 546:Middlewares/lvgl/src/draw/lv_draw_blend.c ****                 if(last_dest_color.full != disp_buf_tmp[x].full) {
 3827              		.loc 1 546 50 is_stmt 0 discriminator 1 view .LVU1221
ARM GAS  /tmp/ccViN4Ah.s 			page 118


 3828 00d8 B8F90430 		ldrsh	r3, [r8, #4]
 546:Middlewares/lvgl/src/draw/lv_draw_blend.c ****                 if(last_dest_color.full != disp_buf_tmp[x].full) {
 3829              		.loc 1 546 13 discriminator 1 view .LVU1222
 3830 00dc A342     		cmp	r3, r4
 3831 00de 07DB     		blt	.L209
 547:Middlewares/lvgl/src/draw/lv_draw_blend.c ****                     last_dest_color = disp_buf_tmp[x];
 3832              		.loc 1 547 17 is_stmt 1 view .LVU1223
 547:Middlewares/lvgl/src/draw/lv_draw_blend.c ****                     last_dest_color = disp_buf_tmp[x];
 3833              		.loc 1 547 35 is_stmt 0 view .LVU1224
 3834 00e0 B3B2     		uxth	r3, r6
 547:Middlewares/lvgl/src/draw/lv_draw_blend.c ****                     last_dest_color = disp_buf_tmp[x];
 3835              		.loc 1 547 56 view .LVU1225
 3836 00e2 05EB4407 		add	r7, r5, r4, lsl #1
 547:Middlewares/lvgl/src/draw/lv_draw_blend.c ****                     last_dest_color = disp_buf_tmp[x];
 3837              		.loc 1 547 59 view .LVU1226
 3838 00e6 35F81420 		ldrh	r2, [r5, r4, lsl #1]
 547:Middlewares/lvgl/src/draw/lv_draw_blend.c ****                     last_dest_color = disp_buf_tmp[x];
 3839              		.loc 1 547 19 view .LVU1227
 3840 00ea 9342     		cmp	r3, r2
 3841 00ec ECD1     		bne	.L210
 547:Middlewares/lvgl/src/draw/lv_draw_blend.c ****                     last_dest_color = disp_buf_tmp[x];
 3842              		.loc 1 547 19 view .LVU1228
 3843 00ee F1E7     		b	.L194
 3844              	.L209:
 553:Middlewares/lvgl/src/draw/lv_draw_blend.c ****         }
 3845              		.loc 1 553 13 is_stmt 1 discriminator 2 view .LVU1229
 553:Middlewares/lvgl/src/draw/lv_draw_blend.c ****         }
 3846              		.loc 1 553 26 is_stmt 0 discriminator 2 view .LVU1230
 3847 00f0 029B     		ldr	r3, [sp, #8]
 3848 00f2 05EB4305 		add	r5, r5, r3, lsl #1
 3849              	.LVL419:
 545:Middlewares/lvgl/src/draw/lv_draw_blend.c ****             for(x = draw_area->x1; x <= draw_area->x2; x++) {
 3850              		.loc 1 545 52 is_stmt 1 discriminator 2 view .LVU1231
 545:Middlewares/lvgl/src/draw/lv_draw_blend.c ****             for(x = draw_area->x1; x <= draw_area->x2; x++) {
 3851              		.loc 1 545 53 is_stmt 0 discriminator 2 view .LVU1232
 3852 00f6 019B     		ldr	r3, [sp, #4]
 3853 00f8 0133     		adds	r3, r3, #1
 3854 00fa 0193     		str	r3, [sp, #4]
 3855              	.LVL420:
 3856              	.L192:
 545:Middlewares/lvgl/src/draw/lv_draw_blend.c ****             for(x = draw_area->x1; x <= draw_area->x2; x++) {
 3857              		.loc 1 545 32 is_stmt 1 discriminator 1 view .LVU1233
 545:Middlewares/lvgl/src/draw/lv_draw_blend.c ****             for(x = draw_area->x1; x <= draw_area->x2; x++) {
 3858              		.loc 1 545 46 is_stmt 0 discriminator 1 view .LVU1234
 3859 00fc B8F90630 		ldrsh	r3, [r8, #6]
 545:Middlewares/lvgl/src/draw/lv_draw_blend.c ****             for(x = draw_area->x1; x <= draw_area->x2; x++) {
 3860              		.loc 1 545 9 discriminator 1 view .LVU1235
 3861 0100 019A     		ldr	r2, [sp, #4]
 3862 0102 9342     		cmp	r3, r2
 3863 0104 38DB     		blt	.L188
 546:Middlewares/lvgl/src/draw/lv_draw_blend.c ****                 if(last_dest_color.full != disp_buf_tmp[x].full) {
 3864              		.loc 1 546 13 is_stmt 1 view .LVU1236
 546:Middlewares/lvgl/src/draw/lv_draw_blend.c ****                 if(last_dest_color.full != disp_buf_tmp[x].full) {
 3865              		.loc 1 546 30 is_stmt 0 view .LVU1237
 3866 0106 B8F90040 		ldrsh	r4, [r8]
 3867              	.LVL421:
 546:Middlewares/lvgl/src/draw/lv_draw_blend.c ****                 if(last_dest_color.full != disp_buf_tmp[x].full) {
ARM GAS  /tmp/ccViN4Ah.s 			page 119


 3868              		.loc 1 546 13 view .LVU1238
 3869 010a E5E7     		b	.L193
 3870              	.LVL422:
 3871              	.L212:
 546:Middlewares/lvgl/src/draw/lv_draw_blend.c ****                 if(last_dest_color.full != disp_buf_tmp[x].full) {
 3872              		.loc 1 546 13 view .LVU1239
 3873              	.LBE258:
 3874              	.LBB259:
 576:Middlewares/lvgl/src/draw/lv_draw_blend.c ****                     lv_opa_t opa_tmp = mask_tmp[x] >= LV_OPA_MAX ? opa : (uint32_t)((uint32_t)mask_
 3875              		.loc 1 576 63 discriminator 1 view .LVU1240
 3876 010c 1FFA8CF3 		uxth	r3, ip
 576:Middlewares/lvgl/src/draw/lv_draw_blend.c ****                     lv_opa_t opa_tmp = mask_tmp[x] >= LV_OPA_MAX ? opa : (uint32_t)((uint32_t)mask_
 3877              		.loc 1 576 87 discriminator 1 view .LVU1241
 3878 0110 35F814E0 		ldrh	lr, [r5, r4, lsl #1]
 576:Middlewares/lvgl/src/draw/lv_draw_blend.c ****                     lv_opa_t opa_tmp = mask_tmp[x] >= LV_OPA_MAX ? opa : (uint32_t)((uint32_t)mask_
 3879              		.loc 1 576 45 discriminator 1 view .LVU1242
 3880 0114 7345     		cmp	r3, lr
 3881 0116 18D1     		bne	.L200
 576:Middlewares/lvgl/src/draw/lv_draw_blend.c ****                     lv_opa_t opa_tmp = mask_tmp[x] >= LV_OPA_MAX ? opa : (uint32_t)((uint32_t)mask_
 3882              		.loc 1 576 45 discriminator 1 view .LVU1243
 3883 0118 08E0     		b	.L201
 3884              	.L206:
 3885              	.LBB249:
 577:Middlewares/lvgl/src/draw/lv_draw_blend.c **** 
 3886              		.loc 1 577 30 view .LVU1244
 3887 011a 009A     		ldr	r2, [sp]
 3888              	.L202:
 3889              	.LVL423:
 579:Middlewares/lvgl/src/draw/lv_draw_blend.c ****                     last_mask = mask_tmp[x];
 3890              		.loc 1 579 21 is_stmt 1 discriminator 4 view .LVU1245
 579:Middlewares/lvgl/src/draw/lv_draw_blend.c ****                     last_mask = mask_tmp[x];
 3891              		.loc 1 579 38 is_stmt 0 discriminator 4 view .LVU1246
 3892 011c 35F81610 		ldrh	r1, [r5, r6, lsl #1]
 3893              	.LVL424:
 579:Middlewares/lvgl/src/draw/lv_draw_blend.c ****                     last_mask = mask_tmp[x];
 3894              		.loc 1 579 38 discriminator 4 view .LVU1247
 3895 0120 5046     		mov	r0, r10	@ movhi
 3896              	.LVL425:
 579:Middlewares/lvgl/src/draw/lv_draw_blend.c ****                     last_mask = mask_tmp[x];
 3897              		.loc 1 579 38 discriminator 4 view .LVU1248
 3898 0122 D847     		blx	fp
 3899              	.LVL426:
 580:Middlewares/lvgl/src/draw/lv_draw_blend.c ****                     last_dest_color.full = disp_buf_tmp[x].full;
 3900              		.loc 1 580 21 is_stmt 1 discriminator 4 view .LVU1249
 580:Middlewares/lvgl/src/draw/lv_draw_blend.c ****                     last_dest_color.full = disp_buf_tmp[x].full;
 3901              		.loc 1 580 31 is_stmt 0 discriminator 4 view .LVU1250
 3902 0124 99F80010 		ldrb	r1, [r9]	@ zero_extendqisi2
 3903              	.LVL427:
 581:Middlewares/lvgl/src/draw/lv_draw_blend.c ****                 }
 3904              		.loc 1 581 21 is_stmt 1 discriminator 4 view .LVU1251
 581:Middlewares/lvgl/src/draw/lv_draw_blend.c ****                 }
 3905              		.loc 1 581 42 is_stmt 0 discriminator 4 view .LVU1252
 3906 0128 35F816C0 		ldrh	ip, [r5, r6, lsl #1]
 3907              	.LVL428:
 3908              	.L201:
 581:Middlewares/lvgl/src/draw/lv_draw_blend.c ****                 }
 3909              		.loc 1 581 42 discriminator 4 view .LVU1253
ARM GAS  /tmp/ccViN4Ah.s 			page 120


 3910              	.LBE249:
 583:Middlewares/lvgl/src/draw/lv_draw_blend.c ****             }
 3911              		.loc 1 583 17 is_stmt 1 view .LVU1254
 583:Middlewares/lvgl/src/draw/lv_draw_blend.c ****             }
 3912              		.loc 1 583 33 is_stmt 0 view .LVU1255
 3913 012c 25F81600 		strh	r0, [r5, r6, lsl #1]	@ movhi
 3914              	.L199:
 574:Middlewares/lvgl/src/draw/lv_draw_blend.c ****                 if(mask_tmp[x] == 0) continue;
 3915              		.loc 1 574 56 is_stmt 1 discriminator 2 view .LVU1256
 574:Middlewares/lvgl/src/draw/lv_draw_blend.c ****                 if(mask_tmp[x] == 0) continue;
 3916              		.loc 1 574 57 is_stmt 0 discriminator 2 view .LVU1257
 3917 0130 0134     		adds	r4, r4, #1
 3918              	.LVL429:
 3919              	.L198:
 574:Middlewares/lvgl/src/draw/lv_draw_blend.c ****                 if(mask_tmp[x] == 0) continue;
 3920              		.loc 1 574 36 is_stmt 1 discriminator 1 view .LVU1258
 574:Middlewares/lvgl/src/draw/lv_draw_blend.c ****                 if(mask_tmp[x] == 0) continue;
 3921              		.loc 1 574 50 is_stmt 0 discriminator 1 view .LVU1259
 3922 0132 B8F90430 		ldrsh	r3, [r8, #4]
 574:Middlewares/lvgl/src/draw/lv_draw_blend.c ****                 if(mask_tmp[x] == 0) continue;
 3923              		.loc 1 574 13 discriminator 1 view .LVU1260
 3924 0136 A342     		cmp	r3, r4
 3925 0138 0EDB     		blt	.L211
 575:Middlewares/lvgl/src/draw/lv_draw_blend.c ****                 if(mask_tmp[x] != last_mask || last_dest_color.full != disp_buf_tmp[x].full) {
 3926              		.loc 1 575 17 is_stmt 1 view .LVU1261
 575:Middlewares/lvgl/src/draw/lv_draw_blend.c ****                 if(mask_tmp[x] != last_mask || last_dest_color.full != disp_buf_tmp[x].full) {
 3927              		.loc 1 575 28 is_stmt 0 view .LVU1262
 3928 013a 2646     		mov	r6, r4
 3929 013c 07EB0409 		add	r9, r7, r4
 3930 0140 3A5D     		ldrb	r2, [r7, r4]	@ zero_extendqisi2
 575:Middlewares/lvgl/src/draw/lv_draw_blend.c ****                 if(mask_tmp[x] != last_mask || last_dest_color.full != disp_buf_tmp[x].full) {
 3931              		.loc 1 575 19 view .LVU1263
 3932 0142 002A     		cmp	r2, #0
 3933 0144 F4D0     		beq	.L199
 576:Middlewares/lvgl/src/draw/lv_draw_blend.c ****                     lv_opa_t opa_tmp = mask_tmp[x] >= LV_OPA_MAX ? opa : (uint32_t)((uint32_t)mask_
 3934              		.loc 1 576 17 is_stmt 1 view .LVU1264
 576:Middlewares/lvgl/src/draw/lv_draw_blend.c ****                     lv_opa_t opa_tmp = mask_tmp[x] >= LV_OPA_MAX ? opa : (uint32_t)((uint32_t)mask_
 3935              		.loc 1 576 19 is_stmt 0 view .LVU1265
 3936 0146 8A42     		cmp	r2, r1
 3937 0148 E0D0     		beq	.L212
 3938              	.L200:
 3939              	.LBB250:
 577:Middlewares/lvgl/src/draw/lv_draw_blend.c **** 
 3940              		.loc 1 577 21 is_stmt 1 view .LVU1266
 577:Middlewares/lvgl/src/draw/lv_draw_blend.c **** 
 3941              		.loc 1 577 30 is_stmt 0 view .LVU1267
 3942 014a FC2A     		cmp	r2, #252
 3943 014c E5D8     		bhi	.L206
 577:Middlewares/lvgl/src/draw/lv_draw_blend.c **** 
 3944              		.loc 1 577 74 discriminator 1 view .LVU1268
 3945 014e 009B     		ldr	r3, [sp]
 3946 0150 03FB02F2 		mul	r2, r3, r2
 577:Middlewares/lvgl/src/draw/lv_draw_blend.c **** 
 3947              		.loc 1 577 30 discriminator 1 view .LVU1269
 3948 0154 120A     		lsrs	r2, r2, #8
 3949 0156 E1E7     		b	.L202
 3950              	.L211:
ARM GAS  /tmp/ccViN4Ah.s 			page 121


 577:Middlewares/lvgl/src/draw/lv_draw_blend.c **** 
 3951              		.loc 1 577 30 discriminator 1 view .LVU1270
 3952              	.LBE250:
 585:Middlewares/lvgl/src/draw/lv_draw_blend.c ****             mask_tmp += draw_area_w;
 3953              		.loc 1 585 13 is_stmt 1 discriminator 2 view .LVU1271
 585:Middlewares/lvgl/src/draw/lv_draw_blend.c ****             mask_tmp += draw_area_w;
 3954              		.loc 1 585 26 is_stmt 0 discriminator 2 view .LVU1272
 3955 0158 029B     		ldr	r3, [sp, #8]
 3956 015a 05EB4305 		add	r5, r5, r3, lsl #1
 3957              	.LVL430:
 586:Middlewares/lvgl/src/draw/lv_draw_blend.c ****         }
 3958              		.loc 1 586 13 is_stmt 1 discriminator 2 view .LVU1273
 586:Middlewares/lvgl/src/draw/lv_draw_blend.c ****         }
 3959              		.loc 1 586 22 is_stmt 0 discriminator 2 view .LVU1274
 3960 015e 039B     		ldr	r3, [sp, #12]
 3961 0160 1F44     		add	r7, r7, r3
 3962              	.LVL431:
 573:Middlewares/lvgl/src/draw/lv_draw_blend.c ****             for(x = draw_area->x1; x <= draw_area->x2; x++) {
 3963              		.loc 1 573 52 is_stmt 1 discriminator 2 view .LVU1275
 573:Middlewares/lvgl/src/draw/lv_draw_blend.c ****             for(x = draw_area->x1; x <= draw_area->x2; x++) {
 3964              		.loc 1 573 53 is_stmt 0 discriminator 2 view .LVU1276
 3965 0162 019B     		ldr	r3, [sp, #4]
 3966 0164 0133     		adds	r3, r3, #1
 3967 0166 0193     		str	r3, [sp, #4]
 3968              	.LVL432:
 3969              	.L197:
 573:Middlewares/lvgl/src/draw/lv_draw_blend.c ****             for(x = draw_area->x1; x <= draw_area->x2; x++) {
 3970              		.loc 1 573 32 is_stmt 1 discriminator 1 view .LVU1277
 573:Middlewares/lvgl/src/draw/lv_draw_blend.c ****             for(x = draw_area->x1; x <= draw_area->x2; x++) {
 3971              		.loc 1 573 46 is_stmt 0 discriminator 1 view .LVU1278
 3972 0168 B8F90630 		ldrsh	r3, [r8, #6]
 573:Middlewares/lvgl/src/draw/lv_draw_blend.c ****             for(x = draw_area->x1; x <= draw_area->x2; x++) {
 3973              		.loc 1 573 9 discriminator 1 view .LVU1279
 3974 016c 019A     		ldr	r2, [sp, #4]
 3975 016e 9342     		cmp	r3, r2
 3976 0170 02DB     		blt	.L188
 574:Middlewares/lvgl/src/draw/lv_draw_blend.c ****                 if(mask_tmp[x] == 0) continue;
 3977              		.loc 1 574 13 is_stmt 1 view .LVU1280
 574:Middlewares/lvgl/src/draw/lv_draw_blend.c ****                 if(mask_tmp[x] == 0) continue;
 3978              		.loc 1 574 30 is_stmt 0 view .LVU1281
 3979 0172 B8F90040 		ldrsh	r4, [r8]
 3980              	.LVL433:
 574:Middlewares/lvgl/src/draw/lv_draw_blend.c ****                 if(mask_tmp[x] == 0) continue;
 3981              		.loc 1 574 13 view .LVU1282
 3982 0176 DCE7     		b	.L198
 3983              	.LVL434:
 3984              	.L188:
 574:Middlewares/lvgl/src/draw/lv_draw_blend.c ****                 if(mask_tmp[x] == 0) continue;
 3985              		.loc 1 574 13 view .LVU1283
 3986              	.LBE259:
 589:Middlewares/lvgl/src/draw/lv_draw_blend.c **** #endif
 3987              		.loc 1 589 1 view .LVU1284
 3988 0178 05B0     		add	sp, sp, #20
 3989              	.LCFI23:
 3990              		.cfi_def_cfa_offset 36
 3991              		@ sp needed
 3992 017a BDE8F08F 		pop	{r4, r5, r6, r7, r8, r9, r10, fp, pc}
ARM GAS  /tmp/ccViN4Ah.s 			page 122


 3993              	.LVL435:
 3994              	.L214:
 589:Middlewares/lvgl/src/draw/lv_draw_blend.c **** #endif
 3995              		.loc 1 589 1 view .LVU1285
 3996 017e 00BF     		.align	2
 3997              	.L213:
 3998 0180 00000000 		.word	color_blend_true_color_subtractive
 3999 0184 00000000 		.word	color_blend_true_color_additive
 4000              		.cfi_endproc
 4001              	.LFE151:
 4003              		.section	.text._lv_blend_fill,"ax",%progbits
 4004              		.align	1
 4005              		.global	_lv_blend_fill
 4006              		.syntax unified
 4007              		.thumb
 4008              		.thumb_func
 4009              		.fpu fpv4-sp-d16
 4011              	_lv_blend_fill:
 4012              	.LVL436:
 4013              	.LFB147:
 129:Middlewares/lvgl/src/draw/lv_draw_blend.c ****     /*Do not draw transparent things*/
 4014              		.loc 1 129 1 is_stmt 1 view -0
 4015              		.cfi_startproc
 4016              		@ args = 12, pretend = 0, frame = 24
 4017              		@ frame_needed = 0, uses_anonymous_args = 0
 129:Middlewares/lvgl/src/draw/lv_draw_blend.c ****     /*Do not draw transparent things*/
 4018              		.loc 1 129 1 is_stmt 0 view .LVU1287
 4019 0000 2DE9F04F 		push	{r4, r5, r6, r7, r8, r9, r10, fp, lr}
 4020              	.LCFI24:
 4021              		.cfi_def_cfa_offset 36
 4022              		.cfi_offset 4, -36
 4023              		.cfi_offset 5, -32
 4024              		.cfi_offset 6, -28
 4025              		.cfi_offset 7, -24
 4026              		.cfi_offset 8, -20
 4027              		.cfi_offset 9, -16
 4028              		.cfi_offset 10, -12
 4029              		.cfi_offset 11, -8
 4030              		.cfi_offset 14, -4
 4031 0004 8BB0     		sub	sp, sp, #44
 4032              	.LCFI25:
 4033              		.cfi_def_cfa_offset 80
 4034 0006 0590     		str	r0, [sp, #20]
 4035 0008 0691     		str	r1, [sp, #24]
 4036 000a ADF81E20 		strh	r2, [sp, #30]	@ movhi
 4037 000e 9DF85070 		ldrb	r7, [sp, #80]	@ zero_extendqisi2
 4038 0012 9DF85460 		ldrb	r6, [sp, #84]	@ zero_extendqisi2
 4039 0016 9DF85890 		ldrb	r9, [sp, #88]	@ zero_extendqisi2
 131:Middlewares/lvgl/src/draw/lv_draw_blend.c ****     if(mask_res == LV_DRAW_MASK_RES_TRANSP) return;
 4040              		.loc 1 131 5 is_stmt 1 view .LVU1288
 131:Middlewares/lvgl/src/draw/lv_draw_blend.c ****     if(mask_res == LV_DRAW_MASK_RES_TRANSP) return;
 4041              		.loc 1 131 7 is_stmt 0 view .LVU1289
 4042 001a 012E     		cmp	r6, #1
 4043 001c 01D9     		bls	.L215
 4044 001e 1C46     		mov	r4, r3
 132:Middlewares/lvgl/src/draw/lv_draw_blend.c **** 
 4045              		.loc 1 132 5 is_stmt 1 view .LVU1290
ARM GAS  /tmp/ccViN4Ah.s 			page 123


 132:Middlewares/lvgl/src/draw/lv_draw_blend.c **** 
 4046              		.loc 1 132 7 is_stmt 0 view .LVU1291
 4047 0020 17B9     		cbnz	r7, .L228
 4048              	.LVL437:
 4049              	.L215:
 173:Middlewares/lvgl/src/draw/lv_draw_blend.c **** 
 4050              		.loc 1 173 1 view .LVU1292
 4051 0022 0BB0     		add	sp, sp, #44
 4052              	.LCFI26:
 4053              		.cfi_remember_state
 4054              		.cfi_def_cfa_offset 36
 4055              		@ sp needed
 4056 0024 BDE8F08F 		pop	{r4, r5, r6, r7, r8, r9, r10, fp, pc}
 4057              	.LVL438:
 4058              	.L228:
 4059              	.LCFI27:
 4060              		.cfi_restore_state
 134:Middlewares/lvgl/src/draw/lv_draw_blend.c ****     lv_disp_draw_buf_t * draw_buf = lv_disp_get_draw_buf(disp);
 4061              		.loc 1 134 5 is_stmt 1 view .LVU1293
 134:Middlewares/lvgl/src/draw/lv_draw_blend.c ****     lv_disp_draw_buf_t * draw_buf = lv_disp_get_draw_buf(disp);
 4062              		.loc 1 134 24 is_stmt 0 view .LVU1294
 4063 0028 FFF7FEFF 		bl	_lv_refr_get_disp_refreshing
 4064              	.LVL439:
 134:Middlewares/lvgl/src/draw/lv_draw_blend.c ****     lv_disp_draw_buf_t * draw_buf = lv_disp_get_draw_buf(disp);
 4065              		.loc 1 134 24 view .LVU1295
 4066 002c 8046     		mov	r8, r0
 4067              	.LVL440:
 135:Middlewares/lvgl/src/draw/lv_draw_blend.c ****     const lv_area_t * disp_area = &draw_buf->area;
 4068              		.loc 1 135 5 is_stmt 1 view .LVU1296
 135:Middlewares/lvgl/src/draw/lv_draw_blend.c ****     const lv_area_t * disp_area = &draw_buf->area;
 4069              		.loc 1 135 37 is_stmt 0 view .LVU1297
 4070 002e FFF7FEFF 		bl	lv_disp_get_draw_buf
 4071              	.LVL441:
 135:Middlewares/lvgl/src/draw/lv_draw_blend.c ****     const lv_area_t * disp_area = &draw_buf->area;
 4072              		.loc 1 135 37 view .LVU1298
 4073 0032 0546     		mov	r5, r0
 4074              	.LVL442:
 136:Middlewares/lvgl/src/draw/lv_draw_blend.c ****     lv_color_t * disp_buf = draw_buf->buf_act;
 4075              		.loc 1 136 5 is_stmt 1 view .LVU1299
 136:Middlewares/lvgl/src/draw/lv_draw_blend.c ****     lv_color_t * disp_buf = draw_buf->buf_act;
 4076              		.loc 1 136 23 is_stmt 0 view .LVU1300
 4077 0034 00F1100A 		add	r10, r0, #16
 4078              	.LVL443:
 137:Middlewares/lvgl/src/draw/lv_draw_blend.c **** 
 4079              		.loc 1 137 5 is_stmt 1 view .LVU1301
 137:Middlewares/lvgl/src/draw/lv_draw_blend.c **** 
 4080              		.loc 1 137 18 is_stmt 0 view .LVU1302
 4081 0038 D0F808B0 		ldr	fp, [r0, #8]
 4082              	.LVL444:
 139:Middlewares/lvgl/src/draw/lv_draw_blend.c **** 
 4083              		.loc 1 139 5 is_stmt 1 view .LVU1303
 139:Middlewares/lvgl/src/draw/lv_draw_blend.c **** 
 4084              		.loc 1 139 12 is_stmt 0 view .LVU1304
 4085 003c D8F80000 		ldr	r0, [r8]
 4086              	.LVL445:
 139:Middlewares/lvgl/src/draw/lv_draw_blend.c **** 
 4087              		.loc 1 139 20 view .LVU1305
ARM GAS  /tmp/ccViN4Ah.s 			page 124


 4088 0040 436A     		ldr	r3, [r0, #36]
 139:Middlewares/lvgl/src/draw/lv_draw_blend.c **** 
 4089              		.loc 1 139 7 view .LVU1306
 4090 0042 03B1     		cbz	r3, .L217
 139:Middlewares/lvgl/src/draw/lv_draw_blend.c **** 
 4091              		.loc 1 139 35 is_stmt 1 discriminator 1 view .LVU1307
 4092 0044 9847     		blx	r3
 4093              	.LVL446:
 4094              	.L217:
 143:Middlewares/lvgl/src/draw/lv_draw_blend.c ****     bool is_common;
 4095              		.loc 1 143 5 view .LVU1308
 144:Middlewares/lvgl/src/draw/lv_draw_blend.c ****     is_common = _lv_area_intersect(&draw_area, clip_area, fill_area);
 4096              		.loc 1 144 5 view .LVU1309
 145:Middlewares/lvgl/src/draw/lv_draw_blend.c ****     if(!is_common) return;
 4097              		.loc 1 145 5 view .LVU1310
 145:Middlewares/lvgl/src/draw/lv_draw_blend.c ****     if(!is_common) return;
 4098              		.loc 1 145 17 is_stmt 0 view .LVU1311
 4099 0046 069A     		ldr	r2, [sp, #24]
 4100 0048 0599     		ldr	r1, [sp, #20]
 4101 004a 08A8     		add	r0, sp, #32
 4102 004c FFF7FEFF 		bl	_lv_area_intersect
 4103              	.LVL447:
 146:Middlewares/lvgl/src/draw/lv_draw_blend.c **** 
 4104              		.loc 1 146 5 is_stmt 1 view .LVU1312
 146:Middlewares/lvgl/src/draw/lv_draw_blend.c **** 
 4105              		.loc 1 146 7 is_stmt 0 view .LVU1313
 4106 0050 0028     		cmp	r0, #0
 4107 0052 E6D0     		beq	.L215
 150:Middlewares/lvgl/src/draw/lv_draw_blend.c ****     draw_area.y1 -= disp_area->y1;
 4108              		.loc 1 150 5 is_stmt 1 view .LVU1314
 150:Middlewares/lvgl/src/draw/lv_draw_blend.c ****     draw_area.y1 -= disp_area->y1;
 4109              		.loc 1 150 30 is_stmt 0 view .LVU1315
 4110 0054 B5F810C0 		ldrh	ip, [r5, #16]
 150:Middlewares/lvgl/src/draw/lv_draw_blend.c ****     draw_area.y1 -= disp_area->y1;
 4111              		.loc 1 150 18 view .LVU1316
 4112 0058 BDF82020 		ldrh	r2, [sp, #32]
 4113 005c A2EB0C02 		sub	r2, r2, ip
 4114 0060 92B2     		uxth	r2, r2
 4115 0062 ADF82020 		strh	r2, [sp, #32]	@ movhi
 151:Middlewares/lvgl/src/draw/lv_draw_blend.c ****     draw_area.x2 -= disp_area->x1;
 4116              		.loc 1 151 5 is_stmt 1 view .LVU1317
 151:Middlewares/lvgl/src/draw/lv_draw_blend.c ****     draw_area.x2 -= disp_area->x1;
 4117              		.loc 1 151 30 is_stmt 0 view .LVU1318
 4118 0066 688A     		ldrh	r0, [r5, #18]
 4119              	.LVL448:
 151:Middlewares/lvgl/src/draw/lv_draw_blend.c ****     draw_area.x2 -= disp_area->x1;
 4120              		.loc 1 151 18 view .LVU1319
 4121 0068 BDF82210 		ldrh	r1, [sp, #34]
 4122 006c 091A     		subs	r1, r1, r0
 4123 006e ADF82210 		strh	r1, [sp, #34]	@ movhi
 152:Middlewares/lvgl/src/draw/lv_draw_blend.c ****     draw_area.y2 -= disp_area->y1;
 4124              		.loc 1 152 5 is_stmt 1 view .LVU1320
 152:Middlewares/lvgl/src/draw/lv_draw_blend.c ****     draw_area.y2 -= disp_area->y1;
 4125              		.loc 1 152 18 is_stmt 0 view .LVU1321
 4126 0072 BDF82430 		ldrh	r3, [sp, #36]
 4127 0076 A3EB0C03 		sub	r3, r3, ip
 4128 007a 9BB2     		uxth	r3, r3
ARM GAS  /tmp/ccViN4Ah.s 			page 125


 4129 007c ADF82430 		strh	r3, [sp, #36]	@ movhi
 153:Middlewares/lvgl/src/draw/lv_draw_blend.c **** 
 4130              		.loc 1 153 5 is_stmt 1 view .LVU1322
 153:Middlewares/lvgl/src/draw/lv_draw_blend.c **** 
 4131              		.loc 1 153 18 is_stmt 0 view .LVU1323
 4132 0080 BDF82610 		ldrh	r1, [sp, #38]
 4133 0084 091A     		subs	r1, r1, r0
 4134 0086 ADF82610 		strh	r1, [sp, #38]	@ movhi
 156:Middlewares/lvgl/src/draw/lv_draw_blend.c ****         int32_t mask_w = lv_area_get_width(&draw_area);
 4135              		.loc 1 156 5 is_stmt 1 view .LVU1324
 156:Middlewares/lvgl/src/draw/lv_draw_blend.c ****         int32_t mask_w = lv_area_get_width(&draw_area);
 4136              		.loc 1 156 7 is_stmt 0 view .LVU1325
 4137 008a B4B1     		cbz	r4, .L218
 156:Middlewares/lvgl/src/draw/lv_draw_blend.c ****         int32_t mask_w = lv_area_get_width(&draw_area);
 4138              		.loc 1 156 20 discriminator 1 view .LVU1326
 4139 008c D8F80010 		ldr	r1, [r8]
 156:Middlewares/lvgl/src/draw/lv_draw_blend.c ****         int32_t mask_w = lv_area_get_width(&draw_area);
 4140              		.loc 1 156 43 discriminator 1 view .LVU1327
 4141 0090 097A     		ldrb	r1, [r1, #8]	@ zero_extendqisi2
 156:Middlewares/lvgl/src/draw/lv_draw_blend.c ****         int32_t mask_w = lv_area_get_width(&draw_area);
 4142              		.loc 1 156 13 discriminator 1 view .LVU1328
 4143 0092 11F00401 		ands	r1, r1, #4
 4144 0096 10D1     		bne	.L218
 4145              	.LBB260:
 157:Middlewares/lvgl/src/draw/lv_draw_blend.c ****         int32_t i;
 4146              		.loc 1 157 9 is_stmt 1 view .LVU1329
 4147              	.LVL449:
 4148              	.LBB261:
 4149              	.LBI261:
 133:Middlewares/lvgl/src/draw/../misc/lv_area.h **** {
 4150              		.loc 2 133 26 view .LVU1330
 4151              	.LBB262:
 135:Middlewares/lvgl/src/draw/../misc/lv_area.h **** }
 4152              		.loc 2 135 5 view .LVU1331
 135:Middlewares/lvgl/src/draw/../misc/lv_area.h **** }
 4153              		.loc 2 135 36 is_stmt 0 view .LVU1332
 4154 0098 9A1A     		subs	r2, r3, r2
 4155 009a 92B2     		uxth	r2, r2
 135:Middlewares/lvgl/src/draw/../misc/lv_area.h **** }
 4156              		.loc 2 135 49 view .LVU1333
 4157 009c 0132     		adds	r2, r2, #1
 135:Middlewares/lvgl/src/draw/../misc/lv_area.h **** }
 4158              		.loc 2 135 12 view .LVU1334
 4159 009e 12B2     		sxth	r2, r2
 4160              	.LVL450:
 135:Middlewares/lvgl/src/draw/../misc/lv_area.h **** }
 4161              		.loc 2 135 12 view .LVU1335
 4162              	.LBE262:
 4163              	.LBE261:
 158:Middlewares/lvgl/src/draw/lv_draw_blend.c ****         for(i = 0; i < mask_w; i++)  mask[i] = mask[i] > 128 ? LV_OPA_COVER : LV_OPA_TRANSP;
 4164              		.loc 1 158 9 is_stmt 1 view .LVU1336
 159:Middlewares/lvgl/src/draw/lv_draw_blend.c ****     }
 4165              		.loc 1 159 9 view .LVU1337
 159:Middlewares/lvgl/src/draw/lv_draw_blend.c ****     }
 4166              		.loc 1 159 15 is_stmt 0 view .LVU1338
 4167 00a0 0023     		movs	r3, #0
 159:Middlewares/lvgl/src/draw/lv_draw_blend.c ****     }
ARM GAS  /tmp/ccViN4Ah.s 			page 126


 4168              		.loc 1 159 9 view .LVU1339
 4169 00a2 02E0     		b	.L219
 4170              	.LVL451:
 4171              	.L226:
 159:Middlewares/lvgl/src/draw/lv_draw_blend.c ****     }
 4172              		.loc 1 159 46 view .LVU1340
 4173 00a4 0D46     		mov	r5, r1
 4174              	.L220:
 159:Middlewares/lvgl/src/draw/lv_draw_blend.c ****     }
 4175              		.loc 1 159 46 discriminator 5 view .LVU1341
 4176 00a6 0570     		strb	r5, [r0]
 159:Middlewares/lvgl/src/draw/lv_draw_blend.c ****     }
 4177              		.loc 1 159 32 is_stmt 1 discriminator 5 view .LVU1342
 159:Middlewares/lvgl/src/draw/lv_draw_blend.c ****     }
 4178              		.loc 1 159 33 is_stmt 0 discriminator 5 view .LVU1343
 4179 00a8 0133     		adds	r3, r3, #1
 4180              	.LVL452:
 4181              	.L219:
 159:Middlewares/lvgl/src/draw/lv_draw_blend.c ****     }
 4182              		.loc 1 159 20 is_stmt 1 discriminator 6 view .LVU1344
 159:Middlewares/lvgl/src/draw/lv_draw_blend.c ****     }
 4183              		.loc 1 159 9 is_stmt 0 discriminator 6 view .LVU1345
 4184 00aa 9342     		cmp	r3, r2
 4185 00ac 05DA     		bge	.L218
 159:Middlewares/lvgl/src/draw/lv_draw_blend.c ****     }
 4186              		.loc 1 159 38 is_stmt 1 discriminator 7 view .LVU1346
 159:Middlewares/lvgl/src/draw/lv_draw_blend.c ****     }
 4187              		.loc 1 159 52 is_stmt 0 discriminator 7 view .LVU1347
 4188 00ae E018     		adds	r0, r4, r3
 4189 00b0 E55C     		ldrb	r5, [r4, r3]	@ zero_extendqisi2
 159:Middlewares/lvgl/src/draw/lv_draw_blend.c ****     }
 4190              		.loc 1 159 46 discriminator 7 view .LVU1348
 4191 00b2 802D     		cmp	r5, #128
 4192 00b4 F6D9     		bls	.L226
 159:Middlewares/lvgl/src/draw/lv_draw_blend.c ****     }
 4193              		.loc 1 159 46 view .LVU1349
 4194 00b6 FF25     		movs	r5, #255
 4195 00b8 F5E7     		b	.L220
 4196              	.LVL453:
 4197              	.L218:
 159:Middlewares/lvgl/src/draw/lv_draw_blend.c ****     }
 4198              		.loc 1 159 46 view .LVU1350
 4199              	.LBE260:
 162:Middlewares/lvgl/src/draw/lv_draw_blend.c ****         fill_set_px(disp_area, disp_buf, &draw_area, color, opa, mask, mask_res);
 4200              		.loc 1 162 5 is_stmt 1 view .LVU1351
 162:Middlewares/lvgl/src/draw/lv_draw_blend.c ****         fill_set_px(disp_area, disp_buf, &draw_area, color, opa, mask, mask_res);
 4201              		.loc 1 162 12 is_stmt 0 view .LVU1352
 4202 00ba D8F80030 		ldr	r3, [r8]
 162:Middlewares/lvgl/src/draw/lv_draw_blend.c ****         fill_set_px(disp_area, disp_buf, &draw_area, color, opa, mask, mask_res);
 4203              		.loc 1 162 20 view .LVU1353
 4204 00be 5B69     		ldr	r3, [r3, #20]
 162:Middlewares/lvgl/src/draw/lv_draw_blend.c ****         fill_set_px(disp_area, disp_buf, &draw_area, color, opa, mask, mask_res);
 4205              		.loc 1 162 7 view .LVU1354
 4206 00c0 53B1     		cbz	r3, .L222
 163:Middlewares/lvgl/src/draw/lv_draw_blend.c ****     }
 4207              		.loc 1 163 9 is_stmt 1 view .LVU1355
 4208 00c2 0297     		str	r7, [sp, #8]
ARM GAS  /tmp/ccViN4Ah.s 			page 127


 4209 00c4 0194     		str	r4, [sp, #4]
 4210 00c6 0096     		str	r6, [sp]
 4211 00c8 BDF81E30 		ldrh	r3, [sp, #30]
 4212 00cc 08AA     		add	r2, sp, #32
 4213 00ce 5946     		mov	r1, fp
 4214 00d0 5046     		mov	r0, r10
 4215 00d2 FFF7FEFF 		bl	fill_set_px
 4216              	.LVL454:
 4217 00d6 A4E7     		b	.L215
 4218              	.L222:
 165:Middlewares/lvgl/src/draw/lv_draw_blend.c ****         fill_normal(disp_area, disp_buf, &draw_area, color, opa, mask, mask_res);
 4219              		.loc 1 165 10 view .LVU1356
 165:Middlewares/lvgl/src/draw/lv_draw_blend.c ****         fill_normal(disp_area, disp_buf, &draw_area, color, opa, mask, mask_res);
 4220              		.loc 1 165 12 is_stmt 0 view .LVU1357
 4221 00d8 B9F1000F 		cmp	r9, #0
 4222 00dc 0AD1     		bne	.L224
 166:Middlewares/lvgl/src/draw/lv_draw_blend.c ****     }
 4223              		.loc 1 166 9 is_stmt 1 view .LVU1358
 4224 00de 0297     		str	r7, [sp, #8]
 4225 00e0 0194     		str	r4, [sp, #4]
 4226 00e2 0096     		str	r6, [sp]
 4227 00e4 BDF81E30 		ldrh	r3, [sp, #30]
 4228 00e8 08AA     		add	r2, sp, #32
 4229 00ea 5946     		mov	r1, fp
 4230 00ec 5046     		mov	r0, r10
 4231 00ee FFF7FEFF 		bl	fill_normal
 4232              	.LVL455:
 4233 00f2 96E7     		b	.L215
 4234              	.L224:
 170:Middlewares/lvgl/src/draw/lv_draw_blend.c ****     }
 4235              		.loc 1 170 9 view .LVU1359
 4236 00f4 CDF80C90 		str	r9, [sp, #12]
 4237 00f8 0297     		str	r7, [sp, #8]
 4238 00fa 0194     		str	r4, [sp, #4]
 4239 00fc 0096     		str	r6, [sp]
 4240 00fe BDF81E30 		ldrh	r3, [sp, #30]
 4241 0102 08AA     		add	r2, sp, #32
 4242 0104 5946     		mov	r1, fp
 4243 0106 5046     		mov	r0, r10
 4244 0108 FFF7FEFF 		bl	fill_blended
 4245              	.LVL456:
 4246 010c 89E7     		b	.L215
 4247              		.cfi_endproc
 4248              	.LFE147:
 4250              		.section	.text._lv_blend_map,"ax",%progbits
 4251              		.align	1
 4252              		.global	_lv_blend_map
 4253              		.syntax unified
 4254              		.thumb
 4255              		.thumb_func
 4256              		.fpu fpv4-sp-d16
 4258              	_lv_blend_map:
 4259              	.LVL457:
 4260              	.LFB148:
 192:Middlewares/lvgl/src/draw/lv_draw_blend.c ****     /*Do not draw transparent things*/
 4261              		.loc 1 192 1 view -0
 4262              		.cfi_startproc
ARM GAS  /tmp/ccViN4Ah.s 			page 128


 4263              		@ args = 12, pretend = 0, frame = 16
 4264              		@ frame_needed = 0, uses_anonymous_args = 0
 192:Middlewares/lvgl/src/draw/lv_draw_blend.c ****     /*Do not draw transparent things*/
 4265              		.loc 1 192 1 is_stmt 0 view .LVU1361
 4266 0000 2DE9F04F 		push	{r4, r5, r6, r7, r8, r9, r10, fp, lr}
 4267              	.LCFI28:
 4268              		.cfi_def_cfa_offset 36
 4269              		.cfi_offset 4, -36
 4270              		.cfi_offset 5, -32
 4271              		.cfi_offset 6, -28
 4272              		.cfi_offset 7, -24
 4273              		.cfi_offset 8, -20
 4274              		.cfi_offset 9, -16
 4275              		.cfi_offset 10, -12
 4276              		.cfi_offset 11, -8
 4277              		.cfi_offset 14, -4
 4278 0004 8BB0     		sub	sp, sp, #44
 4279              	.LCFI29:
 4280              		.cfi_def_cfa_offset 80
 4281 0006 0692     		str	r2, [sp, #24]
 4282 0008 9DF85070 		ldrb	r7, [sp, #80]	@ zero_extendqisi2
 4283 000c 9DF85460 		ldrb	r6, [sp, #84]	@ zero_extendqisi2
 4284 0010 9DF85890 		ldrb	r9, [sp, #88]	@ zero_extendqisi2
 194:Middlewares/lvgl/src/draw/lv_draw_blend.c ****     if(mask_res == LV_DRAW_MASK_RES_TRANSP) return;
 4285              		.loc 1 194 5 is_stmt 1 view .LVU1362
 194:Middlewares/lvgl/src/draw/lv_draw_blend.c ****     if(mask_res == LV_DRAW_MASK_RES_TRANSP) return;
 4286              		.loc 1 194 7 is_stmt 0 view .LVU1363
 4287 0014 012E     		cmp	r6, #1
 4288 0016 02D9     		bls	.L229
 4289 0018 0D46     		mov	r5, r1
 4290 001a 1C46     		mov	r4, r3
 195:Middlewares/lvgl/src/draw/lv_draw_blend.c **** 
 4291              		.loc 1 195 5 is_stmt 1 view .LVU1364
 195:Middlewares/lvgl/src/draw/lv_draw_blend.c **** 
 4292              		.loc 1 195 7 is_stmt 0 view .LVU1365
 4293 001c 17B9     		cbnz	r7, .L242
 4294              	.LVL458:
 4295              	.L229:
 236:Middlewares/lvgl/src/draw/lv_draw_blend.c **** 
 4296              		.loc 1 236 1 view .LVU1366
 4297 001e 0BB0     		add	sp, sp, #44
 4298              	.LCFI30:
 4299              		.cfi_remember_state
 4300              		.cfi_def_cfa_offset 36
 4301              		@ sp needed
 4302 0020 BDE8F08F 		pop	{r4, r5, r6, r7, r8, r9, r10, fp, pc}
 4303              	.LVL459:
 4304              	.L242:
 4305              	.LCFI31:
 4306              		.cfi_restore_state
 199:Middlewares/lvgl/src/draw/lv_draw_blend.c ****     bool is_common;
 4307              		.loc 1 199 5 is_stmt 1 view .LVU1367
 200:Middlewares/lvgl/src/draw/lv_draw_blend.c ****     is_common = _lv_area_intersect(&draw_area, clip_area, map_area);
 4308              		.loc 1 200 5 view .LVU1368
 201:Middlewares/lvgl/src/draw/lv_draw_blend.c ****     if(!is_common) return;
 4309              		.loc 1 201 5 view .LVU1369
 201:Middlewares/lvgl/src/draw/lv_draw_blend.c ****     if(!is_common) return;
ARM GAS  /tmp/ccViN4Ah.s 			page 129


 4310              		.loc 1 201 17 is_stmt 0 view .LVU1370
 4311 0024 0A46     		mov	r2, r1
 4312              	.LVL460:
 201:Middlewares/lvgl/src/draw/lv_draw_blend.c ****     if(!is_common) return;
 4313              		.loc 1 201 17 view .LVU1371
 4314 0026 0146     		mov	r1, r0
 4315              	.LVL461:
 201:Middlewares/lvgl/src/draw/lv_draw_blend.c ****     if(!is_common) return;
 4316              		.loc 1 201 17 view .LVU1372
 4317 0028 08A8     		add	r0, sp, #32
 4318              	.LVL462:
 201:Middlewares/lvgl/src/draw/lv_draw_blend.c ****     if(!is_common) return;
 4319              		.loc 1 201 17 view .LVU1373
 4320 002a FFF7FEFF 		bl	_lv_area_intersect
 4321              	.LVL463:
 202:Middlewares/lvgl/src/draw/lv_draw_blend.c **** 
 4322              		.loc 1 202 5 is_stmt 1 view .LVU1374
 202:Middlewares/lvgl/src/draw/lv_draw_blend.c **** 
 4323              		.loc 1 202 7 is_stmt 0 view .LVU1375
 4324 002e 0028     		cmp	r0, #0
 4325 0030 F5D0     		beq	.L229
 204:Middlewares/lvgl/src/draw/lv_draw_blend.c ****     lv_disp_draw_buf_t * draw_buf = lv_disp_get_draw_buf(disp);
 4326              		.loc 1 204 5 is_stmt 1 view .LVU1376
 204:Middlewares/lvgl/src/draw/lv_draw_blend.c ****     lv_disp_draw_buf_t * draw_buf = lv_disp_get_draw_buf(disp);
 4327              		.loc 1 204 24 is_stmt 0 view .LVU1377
 4328 0032 FFF7FEFF 		bl	_lv_refr_get_disp_refreshing
 4329              	.LVL464:
 204:Middlewares/lvgl/src/draw/lv_draw_blend.c ****     lv_disp_draw_buf_t * draw_buf = lv_disp_get_draw_buf(disp);
 4330              		.loc 1 204 24 view .LVU1378
 4331 0036 8246     		mov	r10, r0
 4332              	.LVL465:
 205:Middlewares/lvgl/src/draw/lv_draw_blend.c ****     const lv_area_t * disp_area = &draw_buf->area;
 4333              		.loc 1 205 5 is_stmt 1 view .LVU1379
 205:Middlewares/lvgl/src/draw/lv_draw_blend.c ****     const lv_area_t * disp_area = &draw_buf->area;
 4334              		.loc 1 205 37 is_stmt 0 view .LVU1380
 4335 0038 FFF7FEFF 		bl	lv_disp_get_draw_buf
 4336              	.LVL466:
 205:Middlewares/lvgl/src/draw/lv_draw_blend.c ****     const lv_area_t * disp_area = &draw_buf->area;
 4337              		.loc 1 205 37 view .LVU1381
 4338 003c 8046     		mov	r8, r0
 4339              	.LVL467:
 206:Middlewares/lvgl/src/draw/lv_draw_blend.c ****     lv_color_t * disp_buf = draw_buf->buf_act;
 4340              		.loc 1 206 5 is_stmt 1 view .LVU1382
 206:Middlewares/lvgl/src/draw/lv_draw_blend.c ****     lv_color_t * disp_buf = draw_buf->buf_act;
 4341              		.loc 1 206 23 is_stmt 0 view .LVU1383
 4342 003e 00F1100B 		add	fp, r0, #16
 4343              	.LVL468:
 207:Middlewares/lvgl/src/draw/lv_draw_blend.c **** 
 4344              		.loc 1 207 5 is_stmt 1 view .LVU1384
 207:Middlewares/lvgl/src/draw/lv_draw_blend.c **** 
 4345              		.loc 1 207 18 is_stmt 0 view .LVU1385
 4346 0042 8368     		ldr	r3, [r0, #8]
 4347 0044 0793     		str	r3, [sp, #28]
 4348              	.LVL469:
 209:Middlewares/lvgl/src/draw/lv_draw_blend.c **** 
 4349              		.loc 1 209 5 is_stmt 1 view .LVU1386
 209:Middlewares/lvgl/src/draw/lv_draw_blend.c **** 
ARM GAS  /tmp/ccViN4Ah.s 			page 130


 4350              		.loc 1 209 12 is_stmt 0 view .LVU1387
 4351 0046 DAF80000 		ldr	r0, [r10]
 4352              	.LVL470:
 209:Middlewares/lvgl/src/draw/lv_draw_blend.c **** 
 4353              		.loc 1 209 20 view .LVU1388
 4354 004a 436A     		ldr	r3, [r0, #36]
 4355              	.LVL471:
 209:Middlewares/lvgl/src/draw/lv_draw_blend.c **** 
 4356              		.loc 1 209 7 view .LVU1389
 4357 004c 03B1     		cbz	r3, .L231
 209:Middlewares/lvgl/src/draw/lv_draw_blend.c **** 
 4358              		.loc 1 209 35 is_stmt 1 discriminator 1 view .LVU1390
 4359 004e 9847     		blx	r3
 4360              	.LVL472:
 4361              	.L231:
 213:Middlewares/lvgl/src/draw/lv_draw_blend.c ****     draw_area.y1 -= disp_area->y1;
 4362              		.loc 1 213 5 view .LVU1391
 213:Middlewares/lvgl/src/draw/lv_draw_blend.c ****     draw_area.y1 -= disp_area->y1;
 4363              		.loc 1 213 30 is_stmt 0 view .LVU1392
 4364 0050 B8F810C0 		ldrh	ip, [r8, #16]
 213:Middlewares/lvgl/src/draw/lv_draw_blend.c ****     draw_area.y1 -= disp_area->y1;
 4365              		.loc 1 213 18 view .LVU1393
 4366 0054 BDF82020 		ldrh	r2, [sp, #32]
 4367 0058 A2EB0C02 		sub	r2, r2, ip
 4368 005c 92B2     		uxth	r2, r2
 4369 005e ADF82020 		strh	r2, [sp, #32]	@ movhi
 214:Middlewares/lvgl/src/draw/lv_draw_blend.c ****     draw_area.x2 -= disp_area->x1;
 4370              		.loc 1 214 5 is_stmt 1 view .LVU1394
 214:Middlewares/lvgl/src/draw/lv_draw_blend.c ****     draw_area.x2 -= disp_area->x1;
 4371              		.loc 1 214 30 is_stmt 0 view .LVU1395
 4372 0062 B8F81200 		ldrh	r0, [r8, #18]
 214:Middlewares/lvgl/src/draw/lv_draw_blend.c ****     draw_area.x2 -= disp_area->x1;
 4373              		.loc 1 214 18 view .LVU1396
 4374 0066 BDF82210 		ldrh	r1, [sp, #34]
 4375 006a 091A     		subs	r1, r1, r0
 4376 006c ADF82210 		strh	r1, [sp, #34]	@ movhi
 215:Middlewares/lvgl/src/draw/lv_draw_blend.c ****     draw_area.y2 -= disp_area->y1;
 4377              		.loc 1 215 5 is_stmt 1 view .LVU1397
 215:Middlewares/lvgl/src/draw/lv_draw_blend.c ****     draw_area.y2 -= disp_area->y1;
 4378              		.loc 1 215 18 is_stmt 0 view .LVU1398
 4379 0070 BDF82430 		ldrh	r3, [sp, #36]
 4380 0074 A3EB0C03 		sub	r3, r3, ip
 4381 0078 9BB2     		uxth	r3, r3
 4382 007a ADF82430 		strh	r3, [sp, #36]	@ movhi
 216:Middlewares/lvgl/src/draw/lv_draw_blend.c **** 
 4383              		.loc 1 216 5 is_stmt 1 view .LVU1399
 216:Middlewares/lvgl/src/draw/lv_draw_blend.c **** 
 4384              		.loc 1 216 18 is_stmt 0 view .LVU1400
 4385 007e BDF82610 		ldrh	r1, [sp, #38]
 4386 0082 091A     		subs	r1, r1, r0
 4387 0084 ADF82610 		strh	r1, [sp, #38]	@ movhi
 219:Middlewares/lvgl/src/draw/lv_draw_blend.c ****     {
 4388              		.loc 1 219 5 is_stmt 1 view .LVU1401
 219:Middlewares/lvgl/src/draw/lv_draw_blend.c ****     {
 4389              		.loc 1 219 7 is_stmt 0 view .LVU1402
 4390 0088 D4B1     		cbz	r4, .L232
 219:Middlewares/lvgl/src/draw/lv_draw_blend.c ****     {
ARM GAS  /tmp/ccViN4Ah.s 			page 131


 4391              		.loc 1 219 20 discriminator 1 view .LVU1403
 4392 008a DAF80010 		ldr	r1, [r10]
 219:Middlewares/lvgl/src/draw/lv_draw_blend.c ****     {
 4393              		.loc 1 219 43 discriminator 1 view .LVU1404
 4394 008e 097A     		ldrb	r1, [r1, #8]	@ zero_extendqisi2
 219:Middlewares/lvgl/src/draw/lv_draw_blend.c ****     {
 4395              		.loc 1 219 13 discriminator 1 view .LVU1405
 4396 0090 11F00401 		ands	r1, r1, #4
 4397 0094 14D1     		bne	.L232
 4398              	.LBB263:
 221:Middlewares/lvgl/src/draw/lv_draw_blend.c ****         int32_t i;
 4399              		.loc 1 221 9 is_stmt 1 view .LVU1406
 4400              	.LVL473:
 4401              	.LBB264:
 4402              	.LBI264:
 133:Middlewares/lvgl/src/draw/../misc/lv_area.h **** {
 4403              		.loc 2 133 26 view .LVU1407
 4404              	.LBB265:
 135:Middlewares/lvgl/src/draw/../misc/lv_area.h **** }
 4405              		.loc 2 135 5 view .LVU1408
 135:Middlewares/lvgl/src/draw/../misc/lv_area.h **** }
 4406              		.loc 2 135 36 is_stmt 0 view .LVU1409
 4407 0096 9A1A     		subs	r2, r3, r2
 4408 0098 92B2     		uxth	r2, r2
 135:Middlewares/lvgl/src/draw/../misc/lv_area.h **** }
 4409              		.loc 2 135 49 view .LVU1410
 4410 009a 0132     		adds	r2, r2, #1
 135:Middlewares/lvgl/src/draw/../misc/lv_area.h **** }
 4411              		.loc 2 135 12 view .LVU1411
 4412 009c 12B2     		sxth	r2, r2
 4413              	.LVL474:
 135:Middlewares/lvgl/src/draw/../misc/lv_area.h **** }
 4414              		.loc 2 135 12 view .LVU1412
 4415              	.LBE265:
 4416              	.LBE264:
 222:Middlewares/lvgl/src/draw/lv_draw_blend.c ****         for(i = 0; i < mask_w; i++)  mask[i] = mask[i] > 128 ? LV_OPA_COVER : LV_OPA_TRANSP;
 4417              		.loc 1 222 9 is_stmt 1 view .LVU1413
 223:Middlewares/lvgl/src/draw/lv_draw_blend.c ****     }
 4418              		.loc 1 223 9 view .LVU1414
 223:Middlewares/lvgl/src/draw/lv_draw_blend.c ****     }
 4419              		.loc 1 223 15 is_stmt 0 view .LVU1415
 4420 009e 0023     		movs	r3, #0
 223:Middlewares/lvgl/src/draw/lv_draw_blend.c ****     }
 4421              		.loc 1 223 9 view .LVU1416
 4422 00a0 03E0     		b	.L233
 4423              	.LVL475:
 4424              	.L240:
 223:Middlewares/lvgl/src/draw/lv_draw_blend.c ****     }
 4425              		.loc 1 223 46 view .LVU1417
 4426 00a2 8C46     		mov	ip, r1
 4427              	.L234:
 223:Middlewares/lvgl/src/draw/lv_draw_blend.c ****     }
 4428              		.loc 1 223 46 discriminator 5 view .LVU1418
 4429 00a4 80F800C0 		strb	ip, [r0]
 223:Middlewares/lvgl/src/draw/lv_draw_blend.c ****     }
 4430              		.loc 1 223 32 is_stmt 1 discriminator 5 view .LVU1419
 223:Middlewares/lvgl/src/draw/lv_draw_blend.c ****     }
ARM GAS  /tmp/ccViN4Ah.s 			page 132


 4431              		.loc 1 223 33 is_stmt 0 discriminator 5 view .LVU1420
 4432 00a8 0133     		adds	r3, r3, #1
 4433              	.LVL476:
 4434              	.L233:
 223:Middlewares/lvgl/src/draw/lv_draw_blend.c ****     }
 4435              		.loc 1 223 20 is_stmt 1 discriminator 6 view .LVU1421
 223:Middlewares/lvgl/src/draw/lv_draw_blend.c ****     }
 4436              		.loc 1 223 9 is_stmt 0 discriminator 6 view .LVU1422
 4437 00aa 9342     		cmp	r3, r2
 4438 00ac 08DA     		bge	.L232
 223:Middlewares/lvgl/src/draw/lv_draw_blend.c ****     }
 4439              		.loc 1 223 38 is_stmt 1 discriminator 7 view .LVU1423
 223:Middlewares/lvgl/src/draw/lv_draw_blend.c ****     }
 4440              		.loc 1 223 52 is_stmt 0 discriminator 7 view .LVU1424
 4441 00ae E018     		adds	r0, r4, r3
 4442 00b0 14F803C0 		ldrb	ip, [r4, r3]	@ zero_extendqisi2
 223:Middlewares/lvgl/src/draw/lv_draw_blend.c ****     }
 4443              		.loc 1 223 46 discriminator 7 view .LVU1425
 4444 00b4 BCF1800F 		cmp	ip, #128
 4445 00b8 F3D9     		bls	.L240
 223:Middlewares/lvgl/src/draw/lv_draw_blend.c ****     }
 4446              		.loc 1 223 46 view .LVU1426
 4447 00ba 4FF0FF0C 		mov	ip, #255
 4448 00be F1E7     		b	.L234
 4449              	.LVL477:
 4450              	.L232:
 223:Middlewares/lvgl/src/draw/lv_draw_blend.c ****     }
 4451              		.loc 1 223 46 view .LVU1427
 4452              	.LBE263:
 225:Middlewares/lvgl/src/draw/lv_draw_blend.c ****         map_set_px(disp_area, disp_buf, &draw_area, map_area, map_buf, opa, mask, mask_res);
 4453              		.loc 1 225 5 is_stmt 1 view .LVU1428
 225:Middlewares/lvgl/src/draw/lv_draw_blend.c ****         map_set_px(disp_area, disp_buf, &draw_area, map_area, map_buf, opa, mask, mask_res);
 4454              		.loc 1 225 12 is_stmt 0 view .LVU1429
 4455 00c0 DAF80030 		ldr	r3, [r10]
 225:Middlewares/lvgl/src/draw/lv_draw_blend.c ****         map_set_px(disp_area, disp_buf, &draw_area, map_area, map_buf, opa, mask, mask_res);
 4456              		.loc 1 225 20 view .LVU1430
 4457 00c4 5B69     		ldr	r3, [r3, #20]
 225:Middlewares/lvgl/src/draw/lv_draw_blend.c ****         map_set_px(disp_area, disp_buf, &draw_area, map_area, map_buf, opa, mask, mask_res);
 4458              		.loc 1 225 7 view .LVU1431
 4459 00c6 5BB1     		cbz	r3, .L236
 226:Middlewares/lvgl/src/draw/lv_draw_blend.c ****     }
 4460              		.loc 1 226 9 is_stmt 1 view .LVU1432
 4461 00c8 0397     		str	r7, [sp, #12]
 4462 00ca 0294     		str	r4, [sp, #8]
 4463 00cc 0196     		str	r6, [sp, #4]
 4464 00ce 069B     		ldr	r3, [sp, #24]
 4465 00d0 0093     		str	r3, [sp]
 4466 00d2 2B46     		mov	r3, r5
 4467 00d4 08AA     		add	r2, sp, #32
 4468 00d6 0799     		ldr	r1, [sp, #28]
 4469 00d8 5846     		mov	r0, fp
 4470 00da FFF7FEFF 		bl	map_set_px
 4471              	.LVL478:
 4472 00de 9EE7     		b	.L229
 4473              	.L236:
 228:Middlewares/lvgl/src/draw/lv_draw_blend.c ****         map_normal(disp_area, disp_buf, &draw_area, map_area, map_buf, opa, mask, mask_res);
 4474              		.loc 1 228 10 view .LVU1433
ARM GAS  /tmp/ccViN4Ah.s 			page 133


 228:Middlewares/lvgl/src/draw/lv_draw_blend.c ****         map_normal(disp_area, disp_buf, &draw_area, map_area, map_buf, opa, mask, mask_res);
 4475              		.loc 1 228 12 is_stmt 0 view .LVU1434
 4476 00e0 B9F1000F 		cmp	r9, #0
 4477 00e4 0BD1     		bne	.L238
 229:Middlewares/lvgl/src/draw/lv_draw_blend.c ****     }
 4478              		.loc 1 229 9 is_stmt 1 view .LVU1435
 4479 00e6 0397     		str	r7, [sp, #12]
 4480 00e8 0294     		str	r4, [sp, #8]
 4481 00ea 0196     		str	r6, [sp, #4]
 4482 00ec 069B     		ldr	r3, [sp, #24]
 4483 00ee 0093     		str	r3, [sp]
 4484 00f0 2B46     		mov	r3, r5
 4485 00f2 08AA     		add	r2, sp, #32
 4486 00f4 0799     		ldr	r1, [sp, #28]
 4487 00f6 5846     		mov	r0, fp
 4488 00f8 FFF7FEFF 		bl	map_normal
 4489              	.LVL479:
 4490 00fc 8FE7     		b	.L229
 4491              	.L238:
 233:Middlewares/lvgl/src/draw/lv_draw_blend.c ****     }
 4492              		.loc 1 233 9 view .LVU1436
 4493 00fe CDF81090 		str	r9, [sp, #16]
 4494 0102 0397     		str	r7, [sp, #12]
 4495 0104 0294     		str	r4, [sp, #8]
 4496 0106 0196     		str	r6, [sp, #4]
 4497 0108 069B     		ldr	r3, [sp, #24]
 4498 010a 0093     		str	r3, [sp]
 4499 010c 2B46     		mov	r3, r5
 4500 010e 08AA     		add	r2, sp, #32
 4501 0110 0799     		ldr	r1, [sp, #28]
 4502 0112 5846     		mov	r0, fp
 4503 0114 FFF7FEFF 		bl	map_blended
 4504              	.LVL480:
 4505 0118 81E7     		b	.L229
 4506              		.cfi_endproc
 4507              	.LFE148:
 4509              		.text
 4510              	.Letext0:
 4511              		.file 4 "/home/akinya/gcc-arm-none-eabi/arm-none-eabi/include/machine/_default_types.h"
 4512              		.file 5 "/home/akinya/gcc-arm-none-eabi/arm-none-eabi/include/sys/_stdint.h"
 4513              		.file 6 "Middlewares/lvgl/src/draw/../misc/lv_types.h"
 4514              		.file 7 "Middlewares/lvgl/src/draw/../misc/lv_style.h"
 4515              		.file 8 "Middlewares/lvgl/src/draw/lv_draw_mask.h"
 4516              		.file 9 "Middlewares/lvgl/src/draw/../hal/../misc/lv_ll.h"
 4517              		.file 10 "Middlewares/lvgl/src/draw/../hal/../misc/lv_timer.h"
 4518              		.file 11 "Middlewares/lvgl/src/draw/../hal/lv_hal_disp.h"
 4519              		.file 12 "Middlewares/lvgl/src/draw/../core/lv_obj.h"
 4520              		.file 13 "Middlewares/lvgl/src/draw/../core/lv_group.h"
 4521              		.file 14 "Middlewares/lvgl/src/draw/../core/lv_obj_scroll.h"
 4522              		.file 15 "Middlewares/lvgl/src/draw/../core/lv_obj_style.h"
 4523              		.file 16 "Middlewares/lvgl/src/draw/../core/lv_obj_class.h"
 4524              		.file 17 "Middlewares/lvgl/src/draw/../core/lv_event.h"
 4525              		.file 18 "Middlewares/lvgl/src/draw/../hal/../misc/lv_mem.h"
 4526              		.file 19 "Middlewares/lvgl/src/draw/../core/lv_refr.h"
ARM GAS  /tmp/ccViN4Ah.s 			page 134


DEFINED SYMBOLS
                            *ABS*:0000000000000000 lv_draw_blend.c
     /tmp/ccViN4Ah.s:18     .text.map_blended:0000000000000000 $t
     /tmp/ccViN4Ah.s:25     .text.map_blended:0000000000000000 map_blended
     /tmp/ccViN4Ah.s:365    .text.map_blended:000000000000014c $d
     /tmp/ccViN4Ah.s:1084   .text.color_blend_true_color_subtractive:0000000000000000 color_blend_true_color_subtractive
     /tmp/ccViN4Ah.s:935    .text.color_blend_true_color_additive:0000000000000000 color_blend_true_color_additive
     /tmp/ccViN4Ah.s:371    .text.fill_set_px:0000000000000000 $t
     /tmp/ccViN4Ah.s:377    .text.fill_set_px:0000000000000000 fill_set_px
     /tmp/ccViN4Ah.s:620    .text.map_set_px:0000000000000000 $t
     /tmp/ccViN4Ah.s:626    .text.map_set_px:0000000000000000 map_set_px
     /tmp/ccViN4Ah.s:929    .text.color_blend_true_color_additive:0000000000000000 $t
     /tmp/ccViN4Ah.s:1078   .text.color_blend_true_color_subtractive:0000000000000000 $t
     /tmp/ccViN4Ah.s:1232   .text.map_normal:0000000000000000 $t
     /tmp/ccViN4Ah.s:1238   .text.map_normal:0000000000000000 map_normal
     /tmp/ccViN4Ah.s:2362   .text.fill_normal:0000000000000000 $t
     /tmp/ccViN4Ah.s:2368   .text.fill_normal:0000000000000000 fill_normal
     /tmp/ccViN4Ah.s:3581   .text.fill_blended:0000000000000000 $t
     /tmp/ccViN4Ah.s:3587   .text.fill_blended:0000000000000000 fill_blended
     /tmp/ccViN4Ah.s:3998   .text.fill_blended:0000000000000180 $d
     /tmp/ccViN4Ah.s:4004   .text._lv_blend_fill:0000000000000000 $t
     /tmp/ccViN4Ah.s:4011   .text._lv_blend_fill:0000000000000000 _lv_blend_fill
     /tmp/ccViN4Ah.s:4251   .text._lv_blend_map:0000000000000000 $t
     /tmp/ccViN4Ah.s:4258   .text._lv_blend_map:0000000000000000 _lv_blend_map

UNDEFINED SYMBOLS
_lv_refr_get_disp_refreshing
lv_memcpy
lv_area_get_size
lv_color_fill
lv_disp_get_draw_buf
_lv_area_intersect
