ARM GAS  /tmp/cciZpKyv.s 			page 1


   1              		.cpu cortex-m4
   2              		.eabi_attribute 27, 1
   3              		.eabi_attribute 28, 1
   4              		.eabi_attribute 20, 1
   5              		.eabi_attribute 21, 1
   6              		.eabi_attribute 23, 3
   7              		.eabi_attribute 24, 1
   8              		.eabi_attribute 25, 1
   9              		.eabi_attribute 26, 1
  10              		.eabi_attribute 30, 1
  11              		.eabi_attribute 34, 1
  12              		.eabi_attribute 18, 4
  13              		.file	"lv_example_event_1.c"
  14              		.text
  15              	.Ltext0:
  16              		.cfi_sections	.debug_frame
  17              		.section	.rodata.event_cb.str1.4,"aMS",%progbits,1
  18              		.align	2
  19              	.LC0:
  20 0000 256400   		.ascii	"%d\000"
  21              		.section	.text.event_cb,"ax",%progbits
  22              		.align	1
  23              		.arch armv7e-m
  24              		.syntax unified
  25              		.thumb
  26              		.thumb_func
  27              		.fpu fpv4-sp-d16
  29              	event_cb:
  30              	.LVL0:
  31              	.LFB184:
  32              		.file 1 "Middlewares/lvgl/examples/event/lv_example_event_1.c"
   1:Middlewares/lvgl/examples/event/lv_example_event_1.c **** #include "../lv_examples.h"
   2:Middlewares/lvgl/examples/event/lv_example_event_1.c **** #if LV_BUILD_EXAMPLES && LV_USE_SWITCH
   3:Middlewares/lvgl/examples/event/lv_example_event_1.c **** 
   4:Middlewares/lvgl/examples/event/lv_example_event_1.c **** static void event_cb(lv_event_t * e)
   5:Middlewares/lvgl/examples/event/lv_example_event_1.c **** {
  33              		.loc 1 5 1 view -0
  34              		.cfi_startproc
  35              		@ args = 0, pretend = 0, frame = 0
  36              		@ frame_needed = 0, uses_anonymous_args = 0
  37              		.loc 1 5 1 is_stmt 0 view .LVU1
  38 0000 10B5     		push	{r4, lr}
  39              	.LCFI0:
  40              		.cfi_def_cfa_offset 8
  41              		.cfi_offset 4, -8
  42              		.cfi_offset 14, -4
   6:Middlewares/lvgl/examples/event/lv_example_event_1.c ****     LV_LOG_USER("Clicked");
  43              		.loc 1 6 27 is_stmt 1 view .LVU2
   7:Middlewares/lvgl/examples/event/lv_example_event_1.c **** 
   8:Middlewares/lvgl/examples/event/lv_example_event_1.c ****     static uint32_t cnt = 1;
  44              		.loc 1 8 5 view .LVU3
   9:Middlewares/lvgl/examples/event/lv_example_event_1.c ****     lv_obj_t * btn = lv_event_get_target(e);
  45              		.loc 1 9 5 view .LVU4
  46              		.loc 1 9 22 is_stmt 0 view .LVU5
  47 0002 FFF7FEFF 		bl	lv_event_get_target
  48              	.LVL1:
  10:Middlewares/lvgl/examples/event/lv_example_event_1.c ****     lv_obj_t * label = lv_obj_get_child(btn, 0);
ARM GAS  /tmp/cciZpKyv.s 			page 2


  49              		.loc 1 10 5 is_stmt 1 view .LVU6
  50              		.loc 1 10 24 is_stmt 0 view .LVU7
  51 0006 0021     		movs	r1, #0
  52 0008 FFF7FEFF 		bl	lv_obj_get_child
  53              	.LVL2:
  11:Middlewares/lvgl/examples/event/lv_example_event_1.c ****     lv_label_set_text_fmt(label, "%d", cnt);
  54              		.loc 1 11 5 is_stmt 1 view .LVU8
  55 000c 044C     		ldr	r4, .L3
  56 000e 2268     		ldr	r2, [r4]
  57 0010 0449     		ldr	r1, .L3+4
  58 0012 FFF7FEFF 		bl	lv_label_set_text_fmt
  59              	.LVL3:
  12:Middlewares/lvgl/examples/event/lv_example_event_1.c ****     cnt++;
  60              		.loc 1 12 5 view .LVU9
  61              		.loc 1 12 8 is_stmt 0 view .LVU10
  62 0016 2368     		ldr	r3, [r4]
  63 0018 0133     		adds	r3, r3, #1
  64 001a 2360     		str	r3, [r4]
  13:Middlewares/lvgl/examples/event/lv_example_event_1.c **** }
  65              		.loc 1 13 1 view .LVU11
  66 001c 10BD     		pop	{r4, pc}
  67              	.L4:
  68 001e 00BF     		.align	2
  69              	.L3:
  70 0020 00000000 		.word	.LANCHOR0
  71 0024 00000000 		.word	.LC0
  72              		.cfi_endproc
  73              	.LFE184:
  75              		.section	.rodata.lv_example_event_1.str1.4,"aMS",%progbits,1
  76              		.align	2
  77              	.LC1:
  78 0000 436C6963 		.ascii	"Click me!\000"
  78      6B206D65 
  78      2100
  79              		.section	.text.lv_example_event_1,"ax",%progbits
  80              		.align	1
  81              		.global	lv_example_event_1
  82              		.syntax unified
  83              		.thumb
  84              		.thumb_func
  85              		.fpu fpv4-sp-d16
  87              	lv_example_event_1:
  88              	.LFB185:
  14:Middlewares/lvgl/examples/event/lv_example_event_1.c **** 
  15:Middlewares/lvgl/examples/event/lv_example_event_1.c **** /**
  16:Middlewares/lvgl/examples/event/lv_example_event_1.c ****  * Add click event to a button
  17:Middlewares/lvgl/examples/event/lv_example_event_1.c ****  */
  18:Middlewares/lvgl/examples/event/lv_example_event_1.c **** void lv_example_event_1(void)
  19:Middlewares/lvgl/examples/event/lv_example_event_1.c **** {
  89              		.loc 1 19 1 is_stmt 1 view -0
  90              		.cfi_startproc
  91              		@ args = 0, pretend = 0, frame = 0
  92              		@ frame_needed = 0, uses_anonymous_args = 0
  93 0000 10B5     		push	{r4, lr}
  94              	.LCFI1:
  95              		.cfi_def_cfa_offset 8
  96              		.cfi_offset 4, -8
ARM GAS  /tmp/cciZpKyv.s 			page 3


  97              		.cfi_offset 14, -4
  20:Middlewares/lvgl/examples/event/lv_example_event_1.c ****     lv_obj_t * btn = lv_btn_create(lv_scr_act());
  98              		.loc 1 20 5 view .LVU13
  99              	.LBB12:
 100              	.LBI12:
 101              		.file 2 "Middlewares/lvgl/examples/event/../../src/core/lv_disp.h"
   1:Middlewares/lvgl/examples/event/../../src/core/lv_disp.h **** /**
   2:Middlewares/lvgl/examples/event/../../src/core/lv_disp.h ****  * @file lv_disp.h
   3:Middlewares/lvgl/examples/event/../../src/core/lv_disp.h ****  *
   4:Middlewares/lvgl/examples/event/../../src/core/lv_disp.h ****  */
   5:Middlewares/lvgl/examples/event/../../src/core/lv_disp.h **** 
   6:Middlewares/lvgl/examples/event/../../src/core/lv_disp.h **** #ifndef LV_DISP_H
   7:Middlewares/lvgl/examples/event/../../src/core/lv_disp.h **** #define LV_DISP_H
   8:Middlewares/lvgl/examples/event/../../src/core/lv_disp.h **** 
   9:Middlewares/lvgl/examples/event/../../src/core/lv_disp.h **** #ifdef __cplusplus
  10:Middlewares/lvgl/examples/event/../../src/core/lv_disp.h **** extern "C" {
  11:Middlewares/lvgl/examples/event/../../src/core/lv_disp.h **** #endif
  12:Middlewares/lvgl/examples/event/../../src/core/lv_disp.h **** 
  13:Middlewares/lvgl/examples/event/../../src/core/lv_disp.h **** /*********************
  14:Middlewares/lvgl/examples/event/../../src/core/lv_disp.h ****  *      INCLUDES
  15:Middlewares/lvgl/examples/event/../../src/core/lv_disp.h ****  *********************/
  16:Middlewares/lvgl/examples/event/../../src/core/lv_disp.h **** #include "../hal/lv_hal.h"
  17:Middlewares/lvgl/examples/event/../../src/core/lv_disp.h **** #include "lv_obj.h"
  18:Middlewares/lvgl/examples/event/../../src/core/lv_disp.h **** #include "lv_theme.h"
  19:Middlewares/lvgl/examples/event/../../src/core/lv_disp.h **** 
  20:Middlewares/lvgl/examples/event/../../src/core/lv_disp.h **** /*********************
  21:Middlewares/lvgl/examples/event/../../src/core/lv_disp.h ****  *      DEFINES
  22:Middlewares/lvgl/examples/event/../../src/core/lv_disp.h ****  *********************/
  23:Middlewares/lvgl/examples/event/../../src/core/lv_disp.h **** 
  24:Middlewares/lvgl/examples/event/../../src/core/lv_disp.h **** /**********************
  25:Middlewares/lvgl/examples/event/../../src/core/lv_disp.h ****  *      TYPEDEFS
  26:Middlewares/lvgl/examples/event/../../src/core/lv_disp.h ****  **********************/
  27:Middlewares/lvgl/examples/event/../../src/core/lv_disp.h **** 
  28:Middlewares/lvgl/examples/event/../../src/core/lv_disp.h **** typedef enum {
  29:Middlewares/lvgl/examples/event/../../src/core/lv_disp.h ****     LV_SCR_LOAD_ANIM_NONE,
  30:Middlewares/lvgl/examples/event/../../src/core/lv_disp.h ****     LV_SCR_LOAD_ANIM_OVER_LEFT,
  31:Middlewares/lvgl/examples/event/../../src/core/lv_disp.h ****     LV_SCR_LOAD_ANIM_OVER_RIGHT,
  32:Middlewares/lvgl/examples/event/../../src/core/lv_disp.h ****     LV_SCR_LOAD_ANIM_OVER_TOP,
  33:Middlewares/lvgl/examples/event/../../src/core/lv_disp.h ****     LV_SCR_LOAD_ANIM_OVER_BOTTOM,
  34:Middlewares/lvgl/examples/event/../../src/core/lv_disp.h ****     LV_SCR_LOAD_ANIM_MOVE_LEFT,
  35:Middlewares/lvgl/examples/event/../../src/core/lv_disp.h ****     LV_SCR_LOAD_ANIM_MOVE_RIGHT,
  36:Middlewares/lvgl/examples/event/../../src/core/lv_disp.h ****     LV_SCR_LOAD_ANIM_MOVE_TOP,
  37:Middlewares/lvgl/examples/event/../../src/core/lv_disp.h ****     LV_SCR_LOAD_ANIM_MOVE_BOTTOM,
  38:Middlewares/lvgl/examples/event/../../src/core/lv_disp.h ****     LV_SCR_LOAD_ANIM_FADE_ON,
  39:Middlewares/lvgl/examples/event/../../src/core/lv_disp.h **** } lv_scr_load_anim_t;
  40:Middlewares/lvgl/examples/event/../../src/core/lv_disp.h **** 
  41:Middlewares/lvgl/examples/event/../../src/core/lv_disp.h **** /**********************
  42:Middlewares/lvgl/examples/event/../../src/core/lv_disp.h ****  * GLOBAL PROTOTYPES
  43:Middlewares/lvgl/examples/event/../../src/core/lv_disp.h ****  **********************/
  44:Middlewares/lvgl/examples/event/../../src/core/lv_disp.h **** 
  45:Middlewares/lvgl/examples/event/../../src/core/lv_disp.h **** /**
  46:Middlewares/lvgl/examples/event/../../src/core/lv_disp.h ****  * Return with a pointer to the active screen
  47:Middlewares/lvgl/examples/event/../../src/core/lv_disp.h ****  * @param disp pointer to display which active screen should be get. (NULL to use the default
  48:Middlewares/lvgl/examples/event/../../src/core/lv_disp.h ****  * screen)
  49:Middlewares/lvgl/examples/event/../../src/core/lv_disp.h ****  * @return pointer to the active screen object (loaded by 'lv_scr_load()')
  50:Middlewares/lvgl/examples/event/../../src/core/lv_disp.h ****  */
  51:Middlewares/lvgl/examples/event/../../src/core/lv_disp.h **** lv_obj_t * lv_disp_get_scr_act(lv_disp_t * disp);
ARM GAS  /tmp/cciZpKyv.s 			page 4


  52:Middlewares/lvgl/examples/event/../../src/core/lv_disp.h **** 
  53:Middlewares/lvgl/examples/event/../../src/core/lv_disp.h **** /**
  54:Middlewares/lvgl/examples/event/../../src/core/lv_disp.h ****  * Return with a pointer to the previous screen. Only used during screen transitions.
  55:Middlewares/lvgl/examples/event/../../src/core/lv_disp.h ****  * @param disp pointer to display which previous screen should be get. (NULL to use the default
  56:Middlewares/lvgl/examples/event/../../src/core/lv_disp.h ****  * screen)
  57:Middlewares/lvgl/examples/event/../../src/core/lv_disp.h ****  * @return pointer to the previous screen object or NULL if not used now
  58:Middlewares/lvgl/examples/event/../../src/core/lv_disp.h ****  */
  59:Middlewares/lvgl/examples/event/../../src/core/lv_disp.h **** lv_obj_t * lv_disp_get_scr_prev(lv_disp_t * disp);
  60:Middlewares/lvgl/examples/event/../../src/core/lv_disp.h **** 
  61:Middlewares/lvgl/examples/event/../../src/core/lv_disp.h **** /**
  62:Middlewares/lvgl/examples/event/../../src/core/lv_disp.h ****  * Make a screen active
  63:Middlewares/lvgl/examples/event/../../src/core/lv_disp.h ****  * @param scr pointer to a screen
  64:Middlewares/lvgl/examples/event/../../src/core/lv_disp.h ****  */
  65:Middlewares/lvgl/examples/event/../../src/core/lv_disp.h **** void lv_disp_load_scr(lv_obj_t * scr);
  66:Middlewares/lvgl/examples/event/../../src/core/lv_disp.h **** 
  67:Middlewares/lvgl/examples/event/../../src/core/lv_disp.h **** /**
  68:Middlewares/lvgl/examples/event/../../src/core/lv_disp.h ****  * Return with the top layer. (Same on every screen and it is above the normal screen layer)
  69:Middlewares/lvgl/examples/event/../../src/core/lv_disp.h ****  * @param disp pointer to display which top layer should be get. (NULL to use the default screen)
  70:Middlewares/lvgl/examples/event/../../src/core/lv_disp.h ****  * @return pointer to the top layer object  (transparent screen sized lv_obj)
  71:Middlewares/lvgl/examples/event/../../src/core/lv_disp.h ****  */
  72:Middlewares/lvgl/examples/event/../../src/core/lv_disp.h **** lv_obj_t * lv_disp_get_layer_top(lv_disp_t * disp);
  73:Middlewares/lvgl/examples/event/../../src/core/lv_disp.h **** 
  74:Middlewares/lvgl/examples/event/../../src/core/lv_disp.h **** /**
  75:Middlewares/lvgl/examples/event/../../src/core/lv_disp.h ****  * Return with the sys. layer. (Same on every screen and it is above the normal screen and the top
  76:Middlewares/lvgl/examples/event/../../src/core/lv_disp.h ****  * layer)
  77:Middlewares/lvgl/examples/event/../../src/core/lv_disp.h ****  * @param disp pointer to display which sys. layer  should be get. (NULL to use the default screen)
  78:Middlewares/lvgl/examples/event/../../src/core/lv_disp.h ****  * @return pointer to the sys layer object  (transparent screen sized lv_obj)
  79:Middlewares/lvgl/examples/event/../../src/core/lv_disp.h ****  */
  80:Middlewares/lvgl/examples/event/../../src/core/lv_disp.h **** lv_obj_t * lv_disp_get_layer_sys(lv_disp_t * disp);
  81:Middlewares/lvgl/examples/event/../../src/core/lv_disp.h **** 
  82:Middlewares/lvgl/examples/event/../../src/core/lv_disp.h **** /**
  83:Middlewares/lvgl/examples/event/../../src/core/lv_disp.h ****  * Get the theme of a display
  84:Middlewares/lvgl/examples/event/../../src/core/lv_disp.h ****  * @param disp pointer to a display
  85:Middlewares/lvgl/examples/event/../../src/core/lv_disp.h ****  * @return the display's theme (can be NULL)
  86:Middlewares/lvgl/examples/event/../../src/core/lv_disp.h ****  */
  87:Middlewares/lvgl/examples/event/../../src/core/lv_disp.h **** void lv_disp_set_theme(lv_disp_t * disp, lv_theme_t * th);
  88:Middlewares/lvgl/examples/event/../../src/core/lv_disp.h **** 
  89:Middlewares/lvgl/examples/event/../../src/core/lv_disp.h **** /**
  90:Middlewares/lvgl/examples/event/../../src/core/lv_disp.h ****  * Get the theme of a display
  91:Middlewares/lvgl/examples/event/../../src/core/lv_disp.h ****  * @param disp pointer to a display
  92:Middlewares/lvgl/examples/event/../../src/core/lv_disp.h ****  * @return the display's theme (can be NULL)
  93:Middlewares/lvgl/examples/event/../../src/core/lv_disp.h ****  */
  94:Middlewares/lvgl/examples/event/../../src/core/lv_disp.h **** lv_theme_t * lv_disp_get_theme(lv_disp_t * disp);
  95:Middlewares/lvgl/examples/event/../../src/core/lv_disp.h **** 
  96:Middlewares/lvgl/examples/event/../../src/core/lv_disp.h **** /**
  97:Middlewares/lvgl/examples/event/../../src/core/lv_disp.h ****  * Set the background color of a display
  98:Middlewares/lvgl/examples/event/../../src/core/lv_disp.h ****  * @param disp pointer to a display
  99:Middlewares/lvgl/examples/event/../../src/core/lv_disp.h ****  * @param color color of the background
 100:Middlewares/lvgl/examples/event/../../src/core/lv_disp.h ****  */
 101:Middlewares/lvgl/examples/event/../../src/core/lv_disp.h **** void lv_disp_set_bg_color(lv_disp_t * disp, lv_color_t color);
 102:Middlewares/lvgl/examples/event/../../src/core/lv_disp.h **** 
 103:Middlewares/lvgl/examples/event/../../src/core/lv_disp.h **** /**
 104:Middlewares/lvgl/examples/event/../../src/core/lv_disp.h ****  * Set the background image of a display
 105:Middlewares/lvgl/examples/event/../../src/core/lv_disp.h ****  * @param disp pointer to a display
 106:Middlewares/lvgl/examples/event/../../src/core/lv_disp.h ****  * @param img_src path to file or pointer to an `lv_img_dsc_t` variable
 107:Middlewares/lvgl/examples/event/../../src/core/lv_disp.h ****  */
 108:Middlewares/lvgl/examples/event/../../src/core/lv_disp.h **** void lv_disp_set_bg_image(lv_disp_t * disp, const void  * img_src);
ARM GAS  /tmp/cciZpKyv.s 			page 5


 109:Middlewares/lvgl/examples/event/../../src/core/lv_disp.h **** 
 110:Middlewares/lvgl/examples/event/../../src/core/lv_disp.h **** /**
 111:Middlewares/lvgl/examples/event/../../src/core/lv_disp.h ****  * Opacity of the background
 112:Middlewares/lvgl/examples/event/../../src/core/lv_disp.h ****  * @param disp pointer to a display
 113:Middlewares/lvgl/examples/event/../../src/core/lv_disp.h ****  * @param opa opacity (0..255)
 114:Middlewares/lvgl/examples/event/../../src/core/lv_disp.h ****  */
 115:Middlewares/lvgl/examples/event/../../src/core/lv_disp.h **** void lv_disp_set_bg_opa(lv_disp_t * disp, lv_opa_t opa);
 116:Middlewares/lvgl/examples/event/../../src/core/lv_disp.h **** 
 117:Middlewares/lvgl/examples/event/../../src/core/lv_disp.h **** /**
 118:Middlewares/lvgl/examples/event/../../src/core/lv_disp.h ****  * Switch screen with animation
 119:Middlewares/lvgl/examples/event/../../src/core/lv_disp.h ****  * @param scr pointer to the new screen to load
 120:Middlewares/lvgl/examples/event/../../src/core/lv_disp.h ****  * @param anim_type type of the animation from `lv_scr_load_anim_t`. E.g.  `LV_SCR_LOAD_ANIM_MOVE_L
 121:Middlewares/lvgl/examples/event/../../src/core/lv_disp.h ****  * @param time time of the animation
 122:Middlewares/lvgl/examples/event/../../src/core/lv_disp.h ****  * @param delay delay before the transition
 123:Middlewares/lvgl/examples/event/../../src/core/lv_disp.h ****  * @param auto_del true: automatically delete the old screen
 124:Middlewares/lvgl/examples/event/../../src/core/lv_disp.h ****  */
 125:Middlewares/lvgl/examples/event/../../src/core/lv_disp.h **** void lv_scr_load_anim(lv_obj_t * scr, lv_scr_load_anim_t anim_type, uint32_t time, uint32_t delay, 
 126:Middlewares/lvgl/examples/event/../../src/core/lv_disp.h **** 
 127:Middlewares/lvgl/examples/event/../../src/core/lv_disp.h **** /**
 128:Middlewares/lvgl/examples/event/../../src/core/lv_disp.h ****  * Get elapsed time since last user activity on a display (e.g. click)
 129:Middlewares/lvgl/examples/event/../../src/core/lv_disp.h ****  * @param disp pointer to an display (NULL to get the overall smallest inactivity)
 130:Middlewares/lvgl/examples/event/../../src/core/lv_disp.h ****  * @return elapsed ticks (milliseconds) since the last activity
 131:Middlewares/lvgl/examples/event/../../src/core/lv_disp.h ****  */
 132:Middlewares/lvgl/examples/event/../../src/core/lv_disp.h **** uint32_t lv_disp_get_inactive_time(const lv_disp_t * disp);
 133:Middlewares/lvgl/examples/event/../../src/core/lv_disp.h **** 
 134:Middlewares/lvgl/examples/event/../../src/core/lv_disp.h **** /**
 135:Middlewares/lvgl/examples/event/../../src/core/lv_disp.h ****  * Manually trigger an activity on a display
 136:Middlewares/lvgl/examples/event/../../src/core/lv_disp.h ****  * @param disp pointer to an display (NULL to use the default display)
 137:Middlewares/lvgl/examples/event/../../src/core/lv_disp.h ****  */
 138:Middlewares/lvgl/examples/event/../../src/core/lv_disp.h **** void lv_disp_trig_activity(lv_disp_t * disp);
 139:Middlewares/lvgl/examples/event/../../src/core/lv_disp.h **** 
 140:Middlewares/lvgl/examples/event/../../src/core/lv_disp.h **** /**
 141:Middlewares/lvgl/examples/event/../../src/core/lv_disp.h ****  * Clean any CPU cache that is related to the display.
 142:Middlewares/lvgl/examples/event/../../src/core/lv_disp.h ****  * @param disp pointer to an display (NULL to use the default display)
 143:Middlewares/lvgl/examples/event/../../src/core/lv_disp.h ****  */
 144:Middlewares/lvgl/examples/event/../../src/core/lv_disp.h **** void lv_disp_clean_dcache(lv_disp_t * disp);
 145:Middlewares/lvgl/examples/event/../../src/core/lv_disp.h **** 
 146:Middlewares/lvgl/examples/event/../../src/core/lv_disp.h **** /**
 147:Middlewares/lvgl/examples/event/../../src/core/lv_disp.h ****  * Get a pointer to the screen refresher timer to
 148:Middlewares/lvgl/examples/event/../../src/core/lv_disp.h ****  * modify its parameters with `lv_timer_...` functions.
 149:Middlewares/lvgl/examples/event/../../src/core/lv_disp.h ****  * @param disp pointer to a display
 150:Middlewares/lvgl/examples/event/../../src/core/lv_disp.h ****  * @return pointer to the display refresher timer. (NULL on error)
 151:Middlewares/lvgl/examples/event/../../src/core/lv_disp.h ****  */
 152:Middlewares/lvgl/examples/event/../../src/core/lv_disp.h **** lv_timer_t * _lv_disp_get_refr_timer(lv_disp_t * disp);
 153:Middlewares/lvgl/examples/event/../../src/core/lv_disp.h **** 
 154:Middlewares/lvgl/examples/event/../../src/core/lv_disp.h **** /*------------------------------------------------
 155:Middlewares/lvgl/examples/event/../../src/core/lv_disp.h ****  * To improve backward compatibility
 156:Middlewares/lvgl/examples/event/../../src/core/lv_disp.h ****  * Recommended only if you have one display
 157:Middlewares/lvgl/examples/event/../../src/core/lv_disp.h ****  *------------------------------------------------*/
 158:Middlewares/lvgl/examples/event/../../src/core/lv_disp.h **** 
 159:Middlewares/lvgl/examples/event/../../src/core/lv_disp.h **** /**
 160:Middlewares/lvgl/examples/event/../../src/core/lv_disp.h ****  * Get the active screen of the default display
 161:Middlewares/lvgl/examples/event/../../src/core/lv_disp.h ****  * @return pointer to the active screen
 162:Middlewares/lvgl/examples/event/../../src/core/lv_disp.h ****  */
 163:Middlewares/lvgl/examples/event/../../src/core/lv_disp.h **** static inline lv_obj_t * lv_scr_act(void)
 102              		.loc 2 163 26 view .LVU14
 103              	.LBB13:
ARM GAS  /tmp/cciZpKyv.s 			page 6


 164:Middlewares/lvgl/examples/event/../../src/core/lv_disp.h **** {
 165:Middlewares/lvgl/examples/event/../../src/core/lv_disp.h ****     return lv_disp_get_scr_act(lv_disp_get_default());
 104              		.loc 2 165 5 view .LVU15
 105              		.loc 2 165 12 is_stmt 0 view .LVU16
 106 0002 FFF7FEFF 		bl	lv_disp_get_default
 107              	.LVL4:
 108 0006 FFF7FEFF 		bl	lv_disp_get_scr_act
 109              	.LVL5:
 110              	.LBE13:
 111              	.LBE12:
 112              		.loc 1 20 22 view .LVU17
 113 000a FFF7FEFF 		bl	lv_btn_create
 114              	.LVL6:
 115 000e 0446     		mov	r4, r0
 116              	.LVL7:
  21:Middlewares/lvgl/examples/event/lv_example_event_1.c ****     lv_obj_set_size(btn, 100, 50);
 117              		.loc 1 21 5 is_stmt 1 view .LVU18
 118 0010 3222     		movs	r2, #50
 119 0012 6421     		movs	r1, #100
 120 0014 FFF7FEFF 		bl	lv_obj_set_size
 121              	.LVL8:
  22:Middlewares/lvgl/examples/event/lv_example_event_1.c ****     lv_obj_center(btn);
 122              		.loc 1 22 5 view .LVU19
 123              	.LBB14:
 124              	.LBI14:
 125              		.file 3 "Middlewares/lvgl/examples/event/../../src/core/lv_obj_pos.h"
   1:Middlewares/lvgl/examples/event/../../src/core/lv_obj_pos.h **** /**
   2:Middlewares/lvgl/examples/event/../../src/core/lv_obj_pos.h ****  * @file lv_obj_pos.h
   3:Middlewares/lvgl/examples/event/../../src/core/lv_obj_pos.h ****  *
   4:Middlewares/lvgl/examples/event/../../src/core/lv_obj_pos.h ****  */
   5:Middlewares/lvgl/examples/event/../../src/core/lv_obj_pos.h **** 
   6:Middlewares/lvgl/examples/event/../../src/core/lv_obj_pos.h **** #ifndef LV_OBJ_POS_H
   7:Middlewares/lvgl/examples/event/../../src/core/lv_obj_pos.h **** #define LV_OBJ_POS_H
   8:Middlewares/lvgl/examples/event/../../src/core/lv_obj_pos.h **** 
   9:Middlewares/lvgl/examples/event/../../src/core/lv_obj_pos.h **** #ifdef __cplusplus
  10:Middlewares/lvgl/examples/event/../../src/core/lv_obj_pos.h **** extern "C" {
  11:Middlewares/lvgl/examples/event/../../src/core/lv_obj_pos.h **** #endif
  12:Middlewares/lvgl/examples/event/../../src/core/lv_obj_pos.h **** 
  13:Middlewares/lvgl/examples/event/../../src/core/lv_obj_pos.h **** /*********************
  14:Middlewares/lvgl/examples/event/../../src/core/lv_obj_pos.h ****  *      INCLUDES
  15:Middlewares/lvgl/examples/event/../../src/core/lv_obj_pos.h ****  *********************/
  16:Middlewares/lvgl/examples/event/../../src/core/lv_obj_pos.h **** #include "../misc/lv_area.h"
  17:Middlewares/lvgl/examples/event/../../src/core/lv_obj_pos.h **** 
  18:Middlewares/lvgl/examples/event/../../src/core/lv_obj_pos.h **** /*********************
  19:Middlewares/lvgl/examples/event/../../src/core/lv_obj_pos.h ****  *      DEFINES
  20:Middlewares/lvgl/examples/event/../../src/core/lv_obj_pos.h ****  *********************/
  21:Middlewares/lvgl/examples/event/../../src/core/lv_obj_pos.h **** 
  22:Middlewares/lvgl/examples/event/../../src/core/lv_obj_pos.h **** /**********************
  23:Middlewares/lvgl/examples/event/../../src/core/lv_obj_pos.h ****  *      TYPEDEFS
  24:Middlewares/lvgl/examples/event/../../src/core/lv_obj_pos.h ****  **********************/
  25:Middlewares/lvgl/examples/event/../../src/core/lv_obj_pos.h **** struct _lv_obj_t;
  26:Middlewares/lvgl/examples/event/../../src/core/lv_obj_pos.h **** 
  27:Middlewares/lvgl/examples/event/../../src/core/lv_obj_pos.h **** typedef void (*lv_layout_update_cb_t)(struct _lv_obj_t *, void * user_data);
  28:Middlewares/lvgl/examples/event/../../src/core/lv_obj_pos.h **** typedef struct {
  29:Middlewares/lvgl/examples/event/../../src/core/lv_obj_pos.h ****     lv_layout_update_cb_t cb;
  30:Middlewares/lvgl/examples/event/../../src/core/lv_obj_pos.h ****     void * user_data;
  31:Middlewares/lvgl/examples/event/../../src/core/lv_obj_pos.h **** }lv_layout_dsc_t;
ARM GAS  /tmp/cciZpKyv.s 			page 7


  32:Middlewares/lvgl/examples/event/../../src/core/lv_obj_pos.h **** 
  33:Middlewares/lvgl/examples/event/../../src/core/lv_obj_pos.h **** /**********************
  34:Middlewares/lvgl/examples/event/../../src/core/lv_obj_pos.h ****  * GLOBAL PROTOTYPES
  35:Middlewares/lvgl/examples/event/../../src/core/lv_obj_pos.h ****  **********************/
  36:Middlewares/lvgl/examples/event/../../src/core/lv_obj_pos.h **** 
  37:Middlewares/lvgl/examples/event/../../src/core/lv_obj_pos.h **** /**
  38:Middlewares/lvgl/examples/event/../../src/core/lv_obj_pos.h ****  * Set the relative the position of an object (relative to the parent's top left corner)
  39:Middlewares/lvgl/examples/event/../../src/core/lv_obj_pos.h ****  * @param obj       pointer to an object
  40:Middlewares/lvgl/examples/event/../../src/core/lv_obj_pos.h ****  * @param x         new distance from the left side of the parent plus the parent's left padding
  41:Middlewares/lvgl/examples/event/../../src/core/lv_obj_pos.h ****  * @param y         new distance from the top side of the parent  plus the parent's right padding
  42:Middlewares/lvgl/examples/event/../../src/core/lv_obj_pos.h ****  */
  43:Middlewares/lvgl/examples/event/../../src/core/lv_obj_pos.h **** void lv_obj_set_pos(struct _lv_obj_t * obj, lv_coord_t x, lv_coord_t y);
  44:Middlewares/lvgl/examples/event/../../src/core/lv_obj_pos.h **** 
  45:Middlewares/lvgl/examples/event/../../src/core/lv_obj_pos.h **** /**
  46:Middlewares/lvgl/examples/event/../../src/core/lv_obj_pos.h ****  * Set the x coordinate of a object
  47:Middlewares/lvgl/examples/event/../../src/core/lv_obj_pos.h ****  * @param obj       pointer to an object
  48:Middlewares/lvgl/examples/event/../../src/core/lv_obj_pos.h ****  * @param x         new distance from the left side from the parent plus the parent's left padding
  49:Middlewares/lvgl/examples/event/../../src/core/lv_obj_pos.h ****  */
  50:Middlewares/lvgl/examples/event/../../src/core/lv_obj_pos.h **** void lv_obj_set_x(struct _lv_obj_t * obj, lv_coord_t x);
  51:Middlewares/lvgl/examples/event/../../src/core/lv_obj_pos.h **** 
  52:Middlewares/lvgl/examples/event/../../src/core/lv_obj_pos.h **** /**
  53:Middlewares/lvgl/examples/event/../../src/core/lv_obj_pos.h ****  * Set the y coordinate of a object
  54:Middlewares/lvgl/examples/event/../../src/core/lv_obj_pos.h ****  * @param obj       pointer to an object
  55:Middlewares/lvgl/examples/event/../../src/core/lv_obj_pos.h ****  * @param y         new distance from the top of the parent  plus the parent's top padding
  56:Middlewares/lvgl/examples/event/../../src/core/lv_obj_pos.h ****  */
  57:Middlewares/lvgl/examples/event/../../src/core/lv_obj_pos.h **** void lv_obj_set_y(struct _lv_obj_t * obj, lv_coord_t y);
  58:Middlewares/lvgl/examples/event/../../src/core/lv_obj_pos.h **** 
  59:Middlewares/lvgl/examples/event/../../src/core/lv_obj_pos.h **** /**
  60:Middlewares/lvgl/examples/event/../../src/core/lv_obj_pos.h ****  * Set the size of an object.
  61:Middlewares/lvgl/examples/event/../../src/core/lv_obj_pos.h ****  * @param obj       pointer to an object
  62:Middlewares/lvgl/examples/event/../../src/core/lv_obj_pos.h ****  * @param w         the new width
  63:Middlewares/lvgl/examples/event/../../src/core/lv_obj_pos.h ****  * @param h         the new height
  64:Middlewares/lvgl/examples/event/../../src/core/lv_obj_pos.h ****  * @note            possible values are:
  65:Middlewares/lvgl/examples/event/../../src/core/lv_obj_pos.h ****  *                  pixel               simple set the size accordingly
  66:Middlewares/lvgl/examples/event/../../src/core/lv_obj_pos.h ****  *                  LV_SIZE_CONTENT     set the size to involve all children in the given direction
  67:Middlewares/lvgl/examples/event/../../src/core/lv_obj_pos.h ****  *                  LV_SIZE_PCT(x)     to set size in percentage of the parent's content area size 
  68:Middlewares/lvgl/examples/event/../../src/core/lv_obj_pos.h ****  *                                      x should be in [0..1000]% range
  69:Middlewares/lvgl/examples/event/../../src/core/lv_obj_pos.h ****  */
  70:Middlewares/lvgl/examples/event/../../src/core/lv_obj_pos.h **** void lv_obj_set_size(struct _lv_obj_t * obj, lv_coord_t w, lv_coord_t h);
  71:Middlewares/lvgl/examples/event/../../src/core/lv_obj_pos.h **** 
  72:Middlewares/lvgl/examples/event/../../src/core/lv_obj_pos.h **** /**
  73:Middlewares/lvgl/examples/event/../../src/core/lv_obj_pos.h ****  * Recalculate the size of the object
  74:Middlewares/lvgl/examples/event/../../src/core/lv_obj_pos.h ****  * @param obj       pointer to an object
  75:Middlewares/lvgl/examples/event/../../src/core/lv_obj_pos.h ****  * @return          true: the size has been changed
  76:Middlewares/lvgl/examples/event/../../src/core/lv_obj_pos.h ****  */
  77:Middlewares/lvgl/examples/event/../../src/core/lv_obj_pos.h **** bool lv_obj_refr_size(struct _lv_obj_t * obj);
  78:Middlewares/lvgl/examples/event/../../src/core/lv_obj_pos.h **** 
  79:Middlewares/lvgl/examples/event/../../src/core/lv_obj_pos.h **** /**
  80:Middlewares/lvgl/examples/event/../../src/core/lv_obj_pos.h ****  * Set the width of an object
  81:Middlewares/lvgl/examples/event/../../src/core/lv_obj_pos.h ****  * @param obj       pointer to an object
  82:Middlewares/lvgl/examples/event/../../src/core/lv_obj_pos.h ****  * @param w         the new width
  83:Middlewares/lvgl/examples/event/../../src/core/lv_obj_pos.h ****  * @note            possible values are:
  84:Middlewares/lvgl/examples/event/../../src/core/lv_obj_pos.h ****  *                  pixel               simple set the size accordingly
  85:Middlewares/lvgl/examples/event/../../src/core/lv_obj_pos.h ****  *                  LV_SIZE_CONTENT     set the size to involve all children in the given direction
  86:Middlewares/lvgl/examples/event/../../src/core/lv_obj_pos.h ****  *                  lv_pct(x)           to set size in percentage of the parent's content area size
  87:Middlewares/lvgl/examples/event/../../src/core/lv_obj_pos.h ****  *                                      x should be in [0..1000]% range
  88:Middlewares/lvgl/examples/event/../../src/core/lv_obj_pos.h ****  */
ARM GAS  /tmp/cciZpKyv.s 			page 8


  89:Middlewares/lvgl/examples/event/../../src/core/lv_obj_pos.h **** void lv_obj_set_width(struct _lv_obj_t * obj, lv_coord_t w);
  90:Middlewares/lvgl/examples/event/../../src/core/lv_obj_pos.h **** 
  91:Middlewares/lvgl/examples/event/../../src/core/lv_obj_pos.h **** /**
  92:Middlewares/lvgl/examples/event/../../src/core/lv_obj_pos.h ****  * Set the height of an object
  93:Middlewares/lvgl/examples/event/../../src/core/lv_obj_pos.h ****  * @param obj       pointer to an object
  94:Middlewares/lvgl/examples/event/../../src/core/lv_obj_pos.h ****  * @param h         the new height
  95:Middlewares/lvgl/examples/event/../../src/core/lv_obj_pos.h ****  * @note            possible values are:
  96:Middlewares/lvgl/examples/event/../../src/core/lv_obj_pos.h ****  *                  pixel               simple set the size accordingly
  97:Middlewares/lvgl/examples/event/../../src/core/lv_obj_pos.h ****  *                  LV_SIZE_CONTENT     set the size to involve all children in the given direction
  98:Middlewares/lvgl/examples/event/../../src/core/lv_obj_pos.h ****  *                  lv_pct(x)           to set size in percentage of the parent's content area size
  99:Middlewares/lvgl/examples/event/../../src/core/lv_obj_pos.h ****  *                                      x should be in [0..1000]% range
 100:Middlewares/lvgl/examples/event/../../src/core/lv_obj_pos.h ****  */
 101:Middlewares/lvgl/examples/event/../../src/core/lv_obj_pos.h **** void lv_obj_set_height(struct _lv_obj_t * obj, lv_coord_t h);
 102:Middlewares/lvgl/examples/event/../../src/core/lv_obj_pos.h **** 
 103:Middlewares/lvgl/examples/event/../../src/core/lv_obj_pos.h **** /**
 104:Middlewares/lvgl/examples/event/../../src/core/lv_obj_pos.h ****  * Set the width reduced by the left and right padding and the border width.
 105:Middlewares/lvgl/examples/event/../../src/core/lv_obj_pos.h ****  * @param obj       pointer to an object
 106:Middlewares/lvgl/examples/event/../../src/core/lv_obj_pos.h ****  * @param w         the width without paddings in pixels
 107:Middlewares/lvgl/examples/event/../../src/core/lv_obj_pos.h ****  */
 108:Middlewares/lvgl/examples/event/../../src/core/lv_obj_pos.h **** void lv_obj_set_content_width(struct _lv_obj_t * obj, lv_coord_t w);
 109:Middlewares/lvgl/examples/event/../../src/core/lv_obj_pos.h **** 
 110:Middlewares/lvgl/examples/event/../../src/core/lv_obj_pos.h **** /**
 111:Middlewares/lvgl/examples/event/../../src/core/lv_obj_pos.h ****  * Set the height reduced by the top and bottom padding and the border width.
 112:Middlewares/lvgl/examples/event/../../src/core/lv_obj_pos.h ****  * @param obj       pointer to an object
 113:Middlewares/lvgl/examples/event/../../src/core/lv_obj_pos.h ****  * @param h         the height without paddings in pixels
 114:Middlewares/lvgl/examples/event/../../src/core/lv_obj_pos.h ****  */
 115:Middlewares/lvgl/examples/event/../../src/core/lv_obj_pos.h **** void lv_obj_set_content_height(struct _lv_obj_t * obj, lv_coord_t h);
 116:Middlewares/lvgl/examples/event/../../src/core/lv_obj_pos.h **** 
 117:Middlewares/lvgl/examples/event/../../src/core/lv_obj_pos.h **** /**
 118:Middlewares/lvgl/examples/event/../../src/core/lv_obj_pos.h ****  * Set a layout for an object
 119:Middlewares/lvgl/examples/event/../../src/core/lv_obj_pos.h ****  * @param obj       pointer to an object
 120:Middlewares/lvgl/examples/event/../../src/core/lv_obj_pos.h ****  * @param layout    pointer to a layout descriptor to set
 121:Middlewares/lvgl/examples/event/../../src/core/lv_obj_pos.h ****  */
 122:Middlewares/lvgl/examples/event/../../src/core/lv_obj_pos.h **** void lv_obj_set_layout(struct _lv_obj_t * obj, uint32_t layout);
 123:Middlewares/lvgl/examples/event/../../src/core/lv_obj_pos.h **** 
 124:Middlewares/lvgl/examples/event/../../src/core/lv_obj_pos.h **** /**
 125:Middlewares/lvgl/examples/event/../../src/core/lv_obj_pos.h ****  * Test whether the and object is positioned by a layout or not
 126:Middlewares/lvgl/examples/event/../../src/core/lv_obj_pos.h ****  * @param obj       pointer to an object to test
 127:Middlewares/lvgl/examples/event/../../src/core/lv_obj_pos.h ****  * @return true:    positioned by a layout; false: not positioned by a layout
 128:Middlewares/lvgl/examples/event/../../src/core/lv_obj_pos.h ****  */
 129:Middlewares/lvgl/examples/event/../../src/core/lv_obj_pos.h **** bool lv_obj_is_layout_positioned(const struct _lv_obj_t * obj);
 130:Middlewares/lvgl/examples/event/../../src/core/lv_obj_pos.h **** 
 131:Middlewares/lvgl/examples/event/../../src/core/lv_obj_pos.h **** /**
 132:Middlewares/lvgl/examples/event/../../src/core/lv_obj_pos.h ****  * Mark the object for layout update.
 133:Middlewares/lvgl/examples/event/../../src/core/lv_obj_pos.h ****  * @param obj      pointer to an object whose children needs to be updated
 134:Middlewares/lvgl/examples/event/../../src/core/lv_obj_pos.h ****  */
 135:Middlewares/lvgl/examples/event/../../src/core/lv_obj_pos.h **** void lv_obj_mark_layout_as_dirty(struct _lv_obj_t * obj);
 136:Middlewares/lvgl/examples/event/../../src/core/lv_obj_pos.h **** 
 137:Middlewares/lvgl/examples/event/../../src/core/lv_obj_pos.h **** /**
 138:Middlewares/lvgl/examples/event/../../src/core/lv_obj_pos.h ****  * Update the layout of an object.
 139:Middlewares/lvgl/examples/event/../../src/core/lv_obj_pos.h ****  * @param obj      pointer to an object whose children needs to be updated
 140:Middlewares/lvgl/examples/event/../../src/core/lv_obj_pos.h ****  */
 141:Middlewares/lvgl/examples/event/../../src/core/lv_obj_pos.h **** void lv_obj_update_layout(const struct _lv_obj_t * obj);
 142:Middlewares/lvgl/examples/event/../../src/core/lv_obj_pos.h **** 
 143:Middlewares/lvgl/examples/event/../../src/core/lv_obj_pos.h **** /**
 144:Middlewares/lvgl/examples/event/../../src/core/lv_obj_pos.h ****  * Regsiter a new layout
 145:Middlewares/lvgl/examples/event/../../src/core/lv_obj_pos.h ****  * @param cb        the layout update callback
ARM GAS  /tmp/cciZpKyv.s 			page 9


 146:Middlewares/lvgl/examples/event/../../src/core/lv_obj_pos.h ****  * @param user_data custom data that will be passed to `cb`
 147:Middlewares/lvgl/examples/event/../../src/core/lv_obj_pos.h ****  * @return          the ID of the new layout
 148:Middlewares/lvgl/examples/event/../../src/core/lv_obj_pos.h ****  */
 149:Middlewares/lvgl/examples/event/../../src/core/lv_obj_pos.h **** uint32_t lv_layout_register(lv_layout_update_cb_t cb, void * user_data);
 150:Middlewares/lvgl/examples/event/../../src/core/lv_obj_pos.h **** 
 151:Middlewares/lvgl/examples/event/../../src/core/lv_obj_pos.h **** /**
 152:Middlewares/lvgl/examples/event/../../src/core/lv_obj_pos.h ****  * Change the alignment of an object.
 153:Middlewares/lvgl/examples/event/../../src/core/lv_obj_pos.h ****  * @param obj       pointer to an object to align
 154:Middlewares/lvgl/examples/event/../../src/core/lv_obj_pos.h ****  * @param align     type of alignment (see 'lv_align_t' enum) `LV_ALIGN_OUT_...` can't be used.
 155:Middlewares/lvgl/examples/event/../../src/core/lv_obj_pos.h ****  */
 156:Middlewares/lvgl/examples/event/../../src/core/lv_obj_pos.h **** void lv_obj_set_align(struct _lv_obj_t * obj, lv_align_t align);
 157:Middlewares/lvgl/examples/event/../../src/core/lv_obj_pos.h **** 
 158:Middlewares/lvgl/examples/event/../../src/core/lv_obj_pos.h **** /**
 159:Middlewares/lvgl/examples/event/../../src/core/lv_obj_pos.h ****  * Change the alignment of an object and set new coordinates.
 160:Middlewares/lvgl/examples/event/../../src/core/lv_obj_pos.h ****  * Equivalent to:
 161:Middlewares/lvgl/examples/event/../../src/core/lv_obj_pos.h ****  * lv_obj_set_align(obj, align);
 162:Middlewares/lvgl/examples/event/../../src/core/lv_obj_pos.h ****  * lv_obj_set_pos(obj, x_ofs, y_ofs);
 163:Middlewares/lvgl/examples/event/../../src/core/lv_obj_pos.h ****  * @param obj       pointer to an object to align
 164:Middlewares/lvgl/examples/event/../../src/core/lv_obj_pos.h ****  * @param align     type of alignment (see 'lv_align_t' enum) `LV_ALIGN_OUT_...` can't be used.
 165:Middlewares/lvgl/examples/event/../../src/core/lv_obj_pos.h ****  * @param x_ofs     x coordinate offset after alignment
 166:Middlewares/lvgl/examples/event/../../src/core/lv_obj_pos.h ****  * @param y_ofs     y coordinate offset after alignment
 167:Middlewares/lvgl/examples/event/../../src/core/lv_obj_pos.h ****  */
 168:Middlewares/lvgl/examples/event/../../src/core/lv_obj_pos.h **** void lv_obj_align(struct _lv_obj_t * obj, lv_align_t align, lv_coord_t x_ofs, lv_coord_t y_ofs);
 169:Middlewares/lvgl/examples/event/../../src/core/lv_obj_pos.h **** 
 170:Middlewares/lvgl/examples/event/../../src/core/lv_obj_pos.h **** /**
 171:Middlewares/lvgl/examples/event/../../src/core/lv_obj_pos.h ****  * Align an object to an other object.
 172:Middlewares/lvgl/examples/event/../../src/core/lv_obj_pos.h ****  * @param obj       pointer to an object to align
 173:Middlewares/lvgl/examples/event/../../src/core/lv_obj_pos.h ****  * @param base      pointer to an other object (if NULL `obj`s parent is used). 'obj' will be align
 174:Middlewares/lvgl/examples/event/../../src/core/lv_obj_pos.h ****  * @param align     type of alignment (see 'lv_align_t' enum)
 175:Middlewares/lvgl/examples/event/../../src/core/lv_obj_pos.h ****  * @param x_ofs     x coordinate offset after alignment
 176:Middlewares/lvgl/examples/event/../../src/core/lv_obj_pos.h ****  * @param y_ofs     y coordinate offset after alignment
 177:Middlewares/lvgl/examples/event/../../src/core/lv_obj_pos.h ****  * @note            if the position or size of `base` changes `obj` needs to be aligned manually ag
 178:Middlewares/lvgl/examples/event/../../src/core/lv_obj_pos.h ****  */
 179:Middlewares/lvgl/examples/event/../../src/core/lv_obj_pos.h **** void lv_obj_align_to(struct _lv_obj_t * obj, const struct _lv_obj_t * base, lv_align_t align, lv_co
 180:Middlewares/lvgl/examples/event/../../src/core/lv_obj_pos.h **** 
 181:Middlewares/lvgl/examples/event/../../src/core/lv_obj_pos.h **** /**
 182:Middlewares/lvgl/examples/event/../../src/core/lv_obj_pos.h ****  * Align an object to the center on its parent.
 183:Middlewares/lvgl/examples/event/../../src/core/lv_obj_pos.h ****  * @param obj       pointer to an object to align
 184:Middlewares/lvgl/examples/event/../../src/core/lv_obj_pos.h ****  * @note            if the parent size changes `obj` needs to be aligned manually again
 185:Middlewares/lvgl/examples/event/../../src/core/lv_obj_pos.h ****  */
 186:Middlewares/lvgl/examples/event/../../src/core/lv_obj_pos.h **** static inline void lv_obj_center(struct _lv_obj_t * obj)
 126              		.loc 3 186 20 view .LVU20
 127              	.LBB15:
 187:Middlewares/lvgl/examples/event/../../src/core/lv_obj_pos.h **** {
 188:Middlewares/lvgl/examples/event/../../src/core/lv_obj_pos.h ****     lv_obj_align(obj, LV_ALIGN_CENTER, 0, 0);
 128              		.loc 3 188 5 view .LVU21
 129 0018 0023     		movs	r3, #0
 130 001a 1A46     		mov	r2, r3
 131 001c 0921     		movs	r1, #9
 132 001e 2046     		mov	r0, r4
 133 0020 FFF7FEFF 		bl	lv_obj_align
 134              	.LVL9:
 135              		.loc 3 188 5 is_stmt 0 view .LVU22
 136              	.LBE15:
 137              	.LBE14:
  23:Middlewares/lvgl/examples/event/lv_example_event_1.c ****     lv_obj_add_event_cb(btn, event_cb, LV_EVENT_CLICKED, NULL);
 138              		.loc 1 23 5 is_stmt 1 view .LVU23
ARM GAS  /tmp/cciZpKyv.s 			page 10


 139 0024 0023     		movs	r3, #0
 140 0026 0722     		movs	r2, #7
 141 0028 0849     		ldr	r1, .L7
 142 002a 2046     		mov	r0, r4
 143 002c FFF7FEFF 		bl	lv_obj_add_event_cb
 144              	.LVL10:
  24:Middlewares/lvgl/examples/event/lv_example_event_1.c **** 
  25:Middlewares/lvgl/examples/event/lv_example_event_1.c ****     lv_obj_t * label = lv_label_create(btn);
 145              		.loc 1 25 5 view .LVU24
 146              		.loc 1 25 24 is_stmt 0 view .LVU25
 147 0030 2046     		mov	r0, r4
 148 0032 FFF7FEFF 		bl	lv_label_create
 149              	.LVL11:
 150 0036 0446     		mov	r4, r0
 151              	.LVL12:
  26:Middlewares/lvgl/examples/event/lv_example_event_1.c ****     lv_label_set_text(label, "Click me!");
 152              		.loc 1 26 5 is_stmt 1 view .LVU26
 153 0038 0549     		ldr	r1, .L7+4
 154 003a FFF7FEFF 		bl	lv_label_set_text
 155              	.LVL13:
  27:Middlewares/lvgl/examples/event/lv_example_event_1.c ****     lv_obj_center(label);
 156              		.loc 1 27 5 view .LVU27
 157              	.LBB16:
 158              	.LBI16:
 186:Middlewares/lvgl/examples/event/../../src/core/lv_obj_pos.h **** {
 159              		.loc 3 186 20 view .LVU28
 160              	.LBB17:
 161              		.loc 3 188 5 view .LVU29
 162 003e 0023     		movs	r3, #0
 163 0040 1A46     		mov	r2, r3
 164 0042 0921     		movs	r1, #9
 165 0044 2046     		mov	r0, r4
 166 0046 FFF7FEFF 		bl	lv_obj_align
 167              	.LVL14:
 168              		.loc 3 188 5 is_stmt 0 view .LVU30
 169              	.LBE17:
 170              	.LBE16:
  28:Middlewares/lvgl/examples/event/lv_example_event_1.c **** }
 171              		.loc 1 28 1 view .LVU31
 172 004a 10BD     		pop	{r4, pc}
 173              	.LVL15:
 174              	.L8:
 175              		.loc 1 28 1 view .LVU32
 176              		.align	2
 177              	.L7:
 178 004c 00000000 		.word	event_cb
 179 0050 00000000 		.word	.LC1
 180              		.cfi_endproc
 181              	.LFE185:
 183              		.section	.data.cnt.0,"aw"
 184              		.align	2
 185              		.set	.LANCHOR0,. + 0
 188              	cnt.0:
 189 0000 01000000 		.word	1
 190              		.text
 191              	.Letext0:
 192              		.file 4 "/home/akinya/gcc-arm-none-eabi/arm-none-eabi/include/machine/_default_types.h"
ARM GAS  /tmp/cciZpKyv.s 			page 11


 193              		.file 5 "/home/akinya/gcc-arm-none-eabi/arm-none-eabi/include/sys/_stdint.h"
 194              		.file 6 "Middlewares/lvgl/examples/event/../../src/misc/lv_ll.h"
 195              		.file 7 "Middlewares/lvgl/examples/event/../../src/hal/../misc/lv_color.h"
 196              		.file 8 "Middlewares/lvgl/examples/event/../../src/hal/../misc/lv_area.h"
 197              		.file 9 "Middlewares/lvgl/examples/event/../../src/core/lv_obj.h"
 198              		.file 10 "Middlewares/lvgl/examples/event/../../src/core/lv_group.h"
 199              		.file 11 "Middlewares/lvgl/examples/event/../../src/core/../misc/lv_style.h"
 200              		.file 12 "Middlewares/lvgl/examples/event/../../src/core/lv_obj_scroll.h"
 201              		.file 13 "Middlewares/lvgl/examples/event/../../src/core/lv_obj_style.h"
 202              		.file 14 "Middlewares/lvgl/examples/event/../../src/core/lv_obj_class.h"
 203              		.file 15 "Middlewares/lvgl/examples/event/../../src/core/lv_event.h"
 204              		.file 16 "Middlewares/lvgl/examples/event/../../src/hal/lv_hal_disp.h"
 205              		.file 17 "Middlewares/lvgl/examples/event/../../src/widgets/lv_btn.h"
 206              		.file 18 "Middlewares/lvgl/examples/event/../../src/widgets/lv_label.h"
 207              		.file 19 "Middlewares/lvgl/examples/event/../../src/core/lv_obj_tree.h"
ARM GAS  /tmp/cciZpKyv.s 			page 12

