ARM GAS  /tmp/ccEp6R0U.s 			page 1


   1              		.cpu cortex-m4
   2              		.eabi_attribute 27, 1
   3              		.eabi_attribute 28, 1
   4              		.eabi_attribute 20, 1
   5              		.eabi_attribute 21, 1
   6              		.eabi_attribute 23, 3
   7              		.eabi_attribute 24, 1
   8              		.eabi_attribute 25, 1
   9              		.eabi_attribute 26, 1
  10              		.eabi_attribute 30, 1
  11              		.eabi_attribute 34, 1
  12              		.eabi_attribute 18, 4
  13              		.file	"lv_example_flex_5.c"
  14              		.text
  15              	.Ltext0:
  16              		.cfi_sections	.debug_frame
  17              		.section	.text.column_gap_anim,"ax",%progbits
  18              		.align	1
  19              		.arch armv7e-m
  20              		.syntax unified
  21              		.thumb
  22              		.thumb_func
  23              		.fpu fpv4-sp-d16
  25              	column_gap_anim:
  26              	.LVL0:
  27              	.LFB185:
  28              		.file 1 "Middlewares/lvgl/examples/layouts/flex/lv_example_flex_5.c"
   1:Middlewares/lvgl/examples/layouts/flex/lv_example_flex_5.c **** #include "../../lv_examples.h"
   2:Middlewares/lvgl/examples/layouts/flex/lv_example_flex_5.c **** #if LV_USE_FLEX && LV_BUILD_EXAMPLES
   3:Middlewares/lvgl/examples/layouts/flex/lv_example_flex_5.c **** 
   4:Middlewares/lvgl/examples/layouts/flex/lv_example_flex_5.c **** static void row_gap_anim(void * obj, int32_t v)
   5:Middlewares/lvgl/examples/layouts/flex/lv_example_flex_5.c **** {
   6:Middlewares/lvgl/examples/layouts/flex/lv_example_flex_5.c ****     lv_obj_set_style_pad_row(obj, v, 0);
   7:Middlewares/lvgl/examples/layouts/flex/lv_example_flex_5.c **** }
   8:Middlewares/lvgl/examples/layouts/flex/lv_example_flex_5.c **** 
   9:Middlewares/lvgl/examples/layouts/flex/lv_example_flex_5.c **** static void column_gap_anim(void * obj, int32_t v)
  10:Middlewares/lvgl/examples/layouts/flex/lv_example_flex_5.c **** {
  29              		.loc 1 10 1 view -0
  30              		.cfi_startproc
  31              		@ args = 0, pretend = 0, frame = 0
  32              		@ frame_needed = 0, uses_anonymous_args = 0
  33              		.loc 1 10 1 is_stmt 0 view .LVU1
  34 0000 08B5     		push	{r3, lr}
  35              	.LCFI0:
  36              		.cfi_def_cfa_offset 8
  37              		.cfi_offset 3, -8
  38              		.cfi_offset 14, -4
  11:Middlewares/lvgl/examples/layouts/flex/lv_example_flex_5.c ****     lv_obj_set_style_pad_column(obj, v, 0);
  39              		.loc 1 11 5 is_stmt 1 view .LVU2
  40 0002 0022     		movs	r2, #0
  41 0004 09B2     		sxth	r1, r1
  42              	.LVL1:
  43              		.loc 1 11 5 is_stmt 0 view .LVU3
  44 0006 FFF7FEFF 		bl	lv_obj_set_style_pad_column
  45              	.LVL2:
  12:Middlewares/lvgl/examples/layouts/flex/lv_example_flex_5.c **** }
  46              		.loc 1 12 1 view .LVU4
ARM GAS  /tmp/ccEp6R0U.s 			page 2


  47 000a 08BD     		pop	{r3, pc}
  48              		.cfi_endproc
  49              	.LFE185:
  51              		.section	.text.row_gap_anim,"ax",%progbits
  52              		.align	1
  53              		.syntax unified
  54              		.thumb
  55              		.thumb_func
  56              		.fpu fpv4-sp-d16
  58              	row_gap_anim:
  59              	.LVL3:
  60              	.LFB184:
   5:Middlewares/lvgl/examples/layouts/flex/lv_example_flex_5.c ****     lv_obj_set_style_pad_row(obj, v, 0);
  61              		.loc 1 5 1 is_stmt 1 view -0
  62              		.cfi_startproc
  63              		@ args = 0, pretend = 0, frame = 0
  64              		@ frame_needed = 0, uses_anonymous_args = 0
   5:Middlewares/lvgl/examples/layouts/flex/lv_example_flex_5.c ****     lv_obj_set_style_pad_row(obj, v, 0);
  65              		.loc 1 5 1 is_stmt 0 view .LVU6
  66 0000 08B5     		push	{r3, lr}
  67              	.LCFI1:
  68              		.cfi_def_cfa_offset 8
  69              		.cfi_offset 3, -8
  70              		.cfi_offset 14, -4
   6:Middlewares/lvgl/examples/layouts/flex/lv_example_flex_5.c **** }
  71              		.loc 1 6 5 is_stmt 1 view .LVU7
  72 0002 0022     		movs	r2, #0
  73 0004 09B2     		sxth	r1, r1
  74              	.LVL4:
   6:Middlewares/lvgl/examples/layouts/flex/lv_example_flex_5.c **** }
  75              		.loc 1 6 5 is_stmt 0 view .LVU8
  76 0006 FFF7FEFF 		bl	lv_obj_set_style_pad_row
  77              	.LVL5:
   7:Middlewares/lvgl/examples/layouts/flex/lv_example_flex_5.c **** 
  78              		.loc 1 7 1 view .LVU9
  79 000a 08BD     		pop	{r3, pc}
  80              		.cfi_endproc
  81              	.LFE184:
  83              		.section	.rodata.lv_example_flex_5.str1.4,"aMS",%progbits,1
  84              		.align	2
  85              	.LC0:
  86 0000 256400   		.ascii	"%d\000"
  87              		.section	.text.lv_example_flex_5,"ax",%progbits
  88              		.align	1
  89              		.global	lv_example_flex_5
  90              		.syntax unified
  91              		.thumb
  92              		.thumb_func
  93              		.fpu fpv4-sp-d16
  95              	lv_example_flex_5:
  96              	.LFB186:
  13:Middlewares/lvgl/examples/layouts/flex/lv_example_flex_5.c **** 
  14:Middlewares/lvgl/examples/layouts/flex/lv_example_flex_5.c **** /**
  15:Middlewares/lvgl/examples/layouts/flex/lv_example_flex_5.c ****  * Demonstrate the effect of column and row gap style properties
  16:Middlewares/lvgl/examples/layouts/flex/lv_example_flex_5.c ****  */
  17:Middlewares/lvgl/examples/layouts/flex/lv_example_flex_5.c **** void lv_example_flex_5(void)
  18:Middlewares/lvgl/examples/layouts/flex/lv_example_flex_5.c **** {
ARM GAS  /tmp/ccEp6R0U.s 			page 3


  97              		.loc 1 18 1 is_stmt 1 view -0
  98              		.cfi_startproc
  99              		@ args = 0, pretend = 0, frame = 72
 100              		@ frame_needed = 0, uses_anonymous_args = 0
 101 0000 70B5     		push	{r4, r5, r6, lr}
 102              	.LCFI2:
 103              		.cfi_def_cfa_offset 16
 104              		.cfi_offset 4, -16
 105              		.cfi_offset 5, -12
 106              		.cfi_offset 6, -8
 107              		.cfi_offset 14, -4
 108 0002 92B0     		sub	sp, sp, #72
 109              	.LCFI3:
 110              		.cfi_def_cfa_offset 88
  19:Middlewares/lvgl/examples/layouts/flex/lv_example_flex_5.c ****     lv_obj_t * cont = lv_obj_create(lv_scr_act());
 111              		.loc 1 19 5 view .LVU11
 112              	.LBB50:
 113              	.LBI50:
 114              		.file 2 "Middlewares/lvgl/examples/layouts/flex/../../../src/core/lv_disp.h"
   1:Middlewares/lvgl/examples/layouts/flex/../../../src/core/lv_disp.h **** /**
   2:Middlewares/lvgl/examples/layouts/flex/../../../src/core/lv_disp.h ****  * @file lv_disp.h
   3:Middlewares/lvgl/examples/layouts/flex/../../../src/core/lv_disp.h ****  *
   4:Middlewares/lvgl/examples/layouts/flex/../../../src/core/lv_disp.h ****  */
   5:Middlewares/lvgl/examples/layouts/flex/../../../src/core/lv_disp.h **** 
   6:Middlewares/lvgl/examples/layouts/flex/../../../src/core/lv_disp.h **** #ifndef LV_DISP_H
   7:Middlewares/lvgl/examples/layouts/flex/../../../src/core/lv_disp.h **** #define LV_DISP_H
   8:Middlewares/lvgl/examples/layouts/flex/../../../src/core/lv_disp.h **** 
   9:Middlewares/lvgl/examples/layouts/flex/../../../src/core/lv_disp.h **** #ifdef __cplusplus
  10:Middlewares/lvgl/examples/layouts/flex/../../../src/core/lv_disp.h **** extern "C" {
  11:Middlewares/lvgl/examples/layouts/flex/../../../src/core/lv_disp.h **** #endif
  12:Middlewares/lvgl/examples/layouts/flex/../../../src/core/lv_disp.h **** 
  13:Middlewares/lvgl/examples/layouts/flex/../../../src/core/lv_disp.h **** /*********************
  14:Middlewares/lvgl/examples/layouts/flex/../../../src/core/lv_disp.h ****  *      INCLUDES
  15:Middlewares/lvgl/examples/layouts/flex/../../../src/core/lv_disp.h ****  *********************/
  16:Middlewares/lvgl/examples/layouts/flex/../../../src/core/lv_disp.h **** #include "../hal/lv_hal.h"
  17:Middlewares/lvgl/examples/layouts/flex/../../../src/core/lv_disp.h **** #include "lv_obj.h"
  18:Middlewares/lvgl/examples/layouts/flex/../../../src/core/lv_disp.h **** #include "lv_theme.h"
  19:Middlewares/lvgl/examples/layouts/flex/../../../src/core/lv_disp.h **** 
  20:Middlewares/lvgl/examples/layouts/flex/../../../src/core/lv_disp.h **** /*********************
  21:Middlewares/lvgl/examples/layouts/flex/../../../src/core/lv_disp.h ****  *      DEFINES
  22:Middlewares/lvgl/examples/layouts/flex/../../../src/core/lv_disp.h ****  *********************/
  23:Middlewares/lvgl/examples/layouts/flex/../../../src/core/lv_disp.h **** 
  24:Middlewares/lvgl/examples/layouts/flex/../../../src/core/lv_disp.h **** /**********************
  25:Middlewares/lvgl/examples/layouts/flex/../../../src/core/lv_disp.h ****  *      TYPEDEFS
  26:Middlewares/lvgl/examples/layouts/flex/../../../src/core/lv_disp.h ****  **********************/
  27:Middlewares/lvgl/examples/layouts/flex/../../../src/core/lv_disp.h **** 
  28:Middlewares/lvgl/examples/layouts/flex/../../../src/core/lv_disp.h **** typedef enum {
  29:Middlewares/lvgl/examples/layouts/flex/../../../src/core/lv_disp.h ****     LV_SCR_LOAD_ANIM_NONE,
  30:Middlewares/lvgl/examples/layouts/flex/../../../src/core/lv_disp.h ****     LV_SCR_LOAD_ANIM_OVER_LEFT,
  31:Middlewares/lvgl/examples/layouts/flex/../../../src/core/lv_disp.h ****     LV_SCR_LOAD_ANIM_OVER_RIGHT,
  32:Middlewares/lvgl/examples/layouts/flex/../../../src/core/lv_disp.h ****     LV_SCR_LOAD_ANIM_OVER_TOP,
  33:Middlewares/lvgl/examples/layouts/flex/../../../src/core/lv_disp.h ****     LV_SCR_LOAD_ANIM_OVER_BOTTOM,
  34:Middlewares/lvgl/examples/layouts/flex/../../../src/core/lv_disp.h ****     LV_SCR_LOAD_ANIM_MOVE_LEFT,
  35:Middlewares/lvgl/examples/layouts/flex/../../../src/core/lv_disp.h ****     LV_SCR_LOAD_ANIM_MOVE_RIGHT,
  36:Middlewares/lvgl/examples/layouts/flex/../../../src/core/lv_disp.h ****     LV_SCR_LOAD_ANIM_MOVE_TOP,
  37:Middlewares/lvgl/examples/layouts/flex/../../../src/core/lv_disp.h ****     LV_SCR_LOAD_ANIM_MOVE_BOTTOM,
  38:Middlewares/lvgl/examples/layouts/flex/../../../src/core/lv_disp.h ****     LV_SCR_LOAD_ANIM_FADE_ON,
ARM GAS  /tmp/ccEp6R0U.s 			page 4


  39:Middlewares/lvgl/examples/layouts/flex/../../../src/core/lv_disp.h **** } lv_scr_load_anim_t;
  40:Middlewares/lvgl/examples/layouts/flex/../../../src/core/lv_disp.h **** 
  41:Middlewares/lvgl/examples/layouts/flex/../../../src/core/lv_disp.h **** /**********************
  42:Middlewares/lvgl/examples/layouts/flex/../../../src/core/lv_disp.h ****  * GLOBAL PROTOTYPES
  43:Middlewares/lvgl/examples/layouts/flex/../../../src/core/lv_disp.h ****  **********************/
  44:Middlewares/lvgl/examples/layouts/flex/../../../src/core/lv_disp.h **** 
  45:Middlewares/lvgl/examples/layouts/flex/../../../src/core/lv_disp.h **** /**
  46:Middlewares/lvgl/examples/layouts/flex/../../../src/core/lv_disp.h ****  * Return with a pointer to the active screen
  47:Middlewares/lvgl/examples/layouts/flex/../../../src/core/lv_disp.h ****  * @param disp pointer to display which active screen should be get. (NULL to use the default
  48:Middlewares/lvgl/examples/layouts/flex/../../../src/core/lv_disp.h ****  * screen)
  49:Middlewares/lvgl/examples/layouts/flex/../../../src/core/lv_disp.h ****  * @return pointer to the active screen object (loaded by 'lv_scr_load()')
  50:Middlewares/lvgl/examples/layouts/flex/../../../src/core/lv_disp.h ****  */
  51:Middlewares/lvgl/examples/layouts/flex/../../../src/core/lv_disp.h **** lv_obj_t * lv_disp_get_scr_act(lv_disp_t * disp);
  52:Middlewares/lvgl/examples/layouts/flex/../../../src/core/lv_disp.h **** 
  53:Middlewares/lvgl/examples/layouts/flex/../../../src/core/lv_disp.h **** /**
  54:Middlewares/lvgl/examples/layouts/flex/../../../src/core/lv_disp.h ****  * Return with a pointer to the previous screen. Only used during screen transitions.
  55:Middlewares/lvgl/examples/layouts/flex/../../../src/core/lv_disp.h ****  * @param disp pointer to display which previous screen should be get. (NULL to use the default
  56:Middlewares/lvgl/examples/layouts/flex/../../../src/core/lv_disp.h ****  * screen)
  57:Middlewares/lvgl/examples/layouts/flex/../../../src/core/lv_disp.h ****  * @return pointer to the previous screen object or NULL if not used now
  58:Middlewares/lvgl/examples/layouts/flex/../../../src/core/lv_disp.h ****  */
  59:Middlewares/lvgl/examples/layouts/flex/../../../src/core/lv_disp.h **** lv_obj_t * lv_disp_get_scr_prev(lv_disp_t * disp);
  60:Middlewares/lvgl/examples/layouts/flex/../../../src/core/lv_disp.h **** 
  61:Middlewares/lvgl/examples/layouts/flex/../../../src/core/lv_disp.h **** /**
  62:Middlewares/lvgl/examples/layouts/flex/../../../src/core/lv_disp.h ****  * Make a screen active
  63:Middlewares/lvgl/examples/layouts/flex/../../../src/core/lv_disp.h ****  * @param scr pointer to a screen
  64:Middlewares/lvgl/examples/layouts/flex/../../../src/core/lv_disp.h ****  */
  65:Middlewares/lvgl/examples/layouts/flex/../../../src/core/lv_disp.h **** void lv_disp_load_scr(lv_obj_t * scr);
  66:Middlewares/lvgl/examples/layouts/flex/../../../src/core/lv_disp.h **** 
  67:Middlewares/lvgl/examples/layouts/flex/../../../src/core/lv_disp.h **** /**
  68:Middlewares/lvgl/examples/layouts/flex/../../../src/core/lv_disp.h ****  * Return with the top layer. (Same on every screen and it is above the normal screen layer)
  69:Middlewares/lvgl/examples/layouts/flex/../../../src/core/lv_disp.h ****  * @param disp pointer to display which top layer should be get. (NULL to use the default screen)
  70:Middlewares/lvgl/examples/layouts/flex/../../../src/core/lv_disp.h ****  * @return pointer to the top layer object  (transparent screen sized lv_obj)
  71:Middlewares/lvgl/examples/layouts/flex/../../../src/core/lv_disp.h ****  */
  72:Middlewares/lvgl/examples/layouts/flex/../../../src/core/lv_disp.h **** lv_obj_t * lv_disp_get_layer_top(lv_disp_t * disp);
  73:Middlewares/lvgl/examples/layouts/flex/../../../src/core/lv_disp.h **** 
  74:Middlewares/lvgl/examples/layouts/flex/../../../src/core/lv_disp.h **** /**
  75:Middlewares/lvgl/examples/layouts/flex/../../../src/core/lv_disp.h ****  * Return with the sys. layer. (Same on every screen and it is above the normal screen and the top
  76:Middlewares/lvgl/examples/layouts/flex/../../../src/core/lv_disp.h ****  * layer)
  77:Middlewares/lvgl/examples/layouts/flex/../../../src/core/lv_disp.h ****  * @param disp pointer to display which sys. layer  should be get. (NULL to use the default screen)
  78:Middlewares/lvgl/examples/layouts/flex/../../../src/core/lv_disp.h ****  * @return pointer to the sys layer object  (transparent screen sized lv_obj)
  79:Middlewares/lvgl/examples/layouts/flex/../../../src/core/lv_disp.h ****  */
  80:Middlewares/lvgl/examples/layouts/flex/../../../src/core/lv_disp.h **** lv_obj_t * lv_disp_get_layer_sys(lv_disp_t * disp);
  81:Middlewares/lvgl/examples/layouts/flex/../../../src/core/lv_disp.h **** 
  82:Middlewares/lvgl/examples/layouts/flex/../../../src/core/lv_disp.h **** /**
  83:Middlewares/lvgl/examples/layouts/flex/../../../src/core/lv_disp.h ****  * Get the theme of a display
  84:Middlewares/lvgl/examples/layouts/flex/../../../src/core/lv_disp.h ****  * @param disp pointer to a display
  85:Middlewares/lvgl/examples/layouts/flex/../../../src/core/lv_disp.h ****  * @return the display's theme (can be NULL)
  86:Middlewares/lvgl/examples/layouts/flex/../../../src/core/lv_disp.h ****  */
  87:Middlewares/lvgl/examples/layouts/flex/../../../src/core/lv_disp.h **** void lv_disp_set_theme(lv_disp_t * disp, lv_theme_t * th);
  88:Middlewares/lvgl/examples/layouts/flex/../../../src/core/lv_disp.h **** 
  89:Middlewares/lvgl/examples/layouts/flex/../../../src/core/lv_disp.h **** /**
  90:Middlewares/lvgl/examples/layouts/flex/../../../src/core/lv_disp.h ****  * Get the theme of a display
  91:Middlewares/lvgl/examples/layouts/flex/../../../src/core/lv_disp.h ****  * @param disp pointer to a display
  92:Middlewares/lvgl/examples/layouts/flex/../../../src/core/lv_disp.h ****  * @return the display's theme (can be NULL)
  93:Middlewares/lvgl/examples/layouts/flex/../../../src/core/lv_disp.h ****  */
  94:Middlewares/lvgl/examples/layouts/flex/../../../src/core/lv_disp.h **** lv_theme_t * lv_disp_get_theme(lv_disp_t * disp);
  95:Middlewares/lvgl/examples/layouts/flex/../../../src/core/lv_disp.h **** 
ARM GAS  /tmp/ccEp6R0U.s 			page 5


  96:Middlewares/lvgl/examples/layouts/flex/../../../src/core/lv_disp.h **** /**
  97:Middlewares/lvgl/examples/layouts/flex/../../../src/core/lv_disp.h ****  * Set the background color of a display
  98:Middlewares/lvgl/examples/layouts/flex/../../../src/core/lv_disp.h ****  * @param disp pointer to a display
  99:Middlewares/lvgl/examples/layouts/flex/../../../src/core/lv_disp.h ****  * @param color color of the background
 100:Middlewares/lvgl/examples/layouts/flex/../../../src/core/lv_disp.h ****  */
 101:Middlewares/lvgl/examples/layouts/flex/../../../src/core/lv_disp.h **** void lv_disp_set_bg_color(lv_disp_t * disp, lv_color_t color);
 102:Middlewares/lvgl/examples/layouts/flex/../../../src/core/lv_disp.h **** 
 103:Middlewares/lvgl/examples/layouts/flex/../../../src/core/lv_disp.h **** /**
 104:Middlewares/lvgl/examples/layouts/flex/../../../src/core/lv_disp.h ****  * Set the background image of a display
 105:Middlewares/lvgl/examples/layouts/flex/../../../src/core/lv_disp.h ****  * @param disp pointer to a display
 106:Middlewares/lvgl/examples/layouts/flex/../../../src/core/lv_disp.h ****  * @param img_src path to file or pointer to an `lv_img_dsc_t` variable
 107:Middlewares/lvgl/examples/layouts/flex/../../../src/core/lv_disp.h ****  */
 108:Middlewares/lvgl/examples/layouts/flex/../../../src/core/lv_disp.h **** void lv_disp_set_bg_image(lv_disp_t * disp, const void  * img_src);
 109:Middlewares/lvgl/examples/layouts/flex/../../../src/core/lv_disp.h **** 
 110:Middlewares/lvgl/examples/layouts/flex/../../../src/core/lv_disp.h **** /**
 111:Middlewares/lvgl/examples/layouts/flex/../../../src/core/lv_disp.h ****  * Opacity of the background
 112:Middlewares/lvgl/examples/layouts/flex/../../../src/core/lv_disp.h ****  * @param disp pointer to a display
 113:Middlewares/lvgl/examples/layouts/flex/../../../src/core/lv_disp.h ****  * @param opa opacity (0..255)
 114:Middlewares/lvgl/examples/layouts/flex/../../../src/core/lv_disp.h ****  */
 115:Middlewares/lvgl/examples/layouts/flex/../../../src/core/lv_disp.h **** void lv_disp_set_bg_opa(lv_disp_t * disp, lv_opa_t opa);
 116:Middlewares/lvgl/examples/layouts/flex/../../../src/core/lv_disp.h **** 
 117:Middlewares/lvgl/examples/layouts/flex/../../../src/core/lv_disp.h **** /**
 118:Middlewares/lvgl/examples/layouts/flex/../../../src/core/lv_disp.h ****  * Switch screen with animation
 119:Middlewares/lvgl/examples/layouts/flex/../../../src/core/lv_disp.h ****  * @param scr pointer to the new screen to load
 120:Middlewares/lvgl/examples/layouts/flex/../../../src/core/lv_disp.h ****  * @param anim_type type of the animation from `lv_scr_load_anim_t`. E.g.  `LV_SCR_LOAD_ANIM_MOVE_L
 121:Middlewares/lvgl/examples/layouts/flex/../../../src/core/lv_disp.h ****  * @param time time of the animation
 122:Middlewares/lvgl/examples/layouts/flex/../../../src/core/lv_disp.h ****  * @param delay delay before the transition
 123:Middlewares/lvgl/examples/layouts/flex/../../../src/core/lv_disp.h ****  * @param auto_del true: automatically delete the old screen
 124:Middlewares/lvgl/examples/layouts/flex/../../../src/core/lv_disp.h ****  */
 125:Middlewares/lvgl/examples/layouts/flex/../../../src/core/lv_disp.h **** void lv_scr_load_anim(lv_obj_t * scr, lv_scr_load_anim_t anim_type, uint32_t time, uint32_t delay, 
 126:Middlewares/lvgl/examples/layouts/flex/../../../src/core/lv_disp.h **** 
 127:Middlewares/lvgl/examples/layouts/flex/../../../src/core/lv_disp.h **** /**
 128:Middlewares/lvgl/examples/layouts/flex/../../../src/core/lv_disp.h ****  * Get elapsed time since last user activity on a display (e.g. click)
 129:Middlewares/lvgl/examples/layouts/flex/../../../src/core/lv_disp.h ****  * @param disp pointer to an display (NULL to get the overall smallest inactivity)
 130:Middlewares/lvgl/examples/layouts/flex/../../../src/core/lv_disp.h ****  * @return elapsed ticks (milliseconds) since the last activity
 131:Middlewares/lvgl/examples/layouts/flex/../../../src/core/lv_disp.h ****  */
 132:Middlewares/lvgl/examples/layouts/flex/../../../src/core/lv_disp.h **** uint32_t lv_disp_get_inactive_time(const lv_disp_t * disp);
 133:Middlewares/lvgl/examples/layouts/flex/../../../src/core/lv_disp.h **** 
 134:Middlewares/lvgl/examples/layouts/flex/../../../src/core/lv_disp.h **** /**
 135:Middlewares/lvgl/examples/layouts/flex/../../../src/core/lv_disp.h ****  * Manually trigger an activity on a display
 136:Middlewares/lvgl/examples/layouts/flex/../../../src/core/lv_disp.h ****  * @param disp pointer to an display (NULL to use the default display)
 137:Middlewares/lvgl/examples/layouts/flex/../../../src/core/lv_disp.h ****  */
 138:Middlewares/lvgl/examples/layouts/flex/../../../src/core/lv_disp.h **** void lv_disp_trig_activity(lv_disp_t * disp);
 139:Middlewares/lvgl/examples/layouts/flex/../../../src/core/lv_disp.h **** 
 140:Middlewares/lvgl/examples/layouts/flex/../../../src/core/lv_disp.h **** /**
 141:Middlewares/lvgl/examples/layouts/flex/../../../src/core/lv_disp.h ****  * Clean any CPU cache that is related to the display.
 142:Middlewares/lvgl/examples/layouts/flex/../../../src/core/lv_disp.h ****  * @param disp pointer to an display (NULL to use the default display)
 143:Middlewares/lvgl/examples/layouts/flex/../../../src/core/lv_disp.h ****  */
 144:Middlewares/lvgl/examples/layouts/flex/../../../src/core/lv_disp.h **** void lv_disp_clean_dcache(lv_disp_t * disp);
 145:Middlewares/lvgl/examples/layouts/flex/../../../src/core/lv_disp.h **** 
 146:Middlewares/lvgl/examples/layouts/flex/../../../src/core/lv_disp.h **** /**
 147:Middlewares/lvgl/examples/layouts/flex/../../../src/core/lv_disp.h ****  * Get a pointer to the screen refresher timer to
 148:Middlewares/lvgl/examples/layouts/flex/../../../src/core/lv_disp.h ****  * modify its parameters with `lv_timer_...` functions.
 149:Middlewares/lvgl/examples/layouts/flex/../../../src/core/lv_disp.h ****  * @param disp pointer to a display
 150:Middlewares/lvgl/examples/layouts/flex/../../../src/core/lv_disp.h ****  * @return pointer to the display refresher timer. (NULL on error)
 151:Middlewares/lvgl/examples/layouts/flex/../../../src/core/lv_disp.h ****  */
 152:Middlewares/lvgl/examples/layouts/flex/../../../src/core/lv_disp.h **** lv_timer_t * _lv_disp_get_refr_timer(lv_disp_t * disp);
ARM GAS  /tmp/ccEp6R0U.s 			page 6


 153:Middlewares/lvgl/examples/layouts/flex/../../../src/core/lv_disp.h **** 
 154:Middlewares/lvgl/examples/layouts/flex/../../../src/core/lv_disp.h **** /*------------------------------------------------
 155:Middlewares/lvgl/examples/layouts/flex/../../../src/core/lv_disp.h ****  * To improve backward compatibility
 156:Middlewares/lvgl/examples/layouts/flex/../../../src/core/lv_disp.h ****  * Recommended only if you have one display
 157:Middlewares/lvgl/examples/layouts/flex/../../../src/core/lv_disp.h ****  *------------------------------------------------*/
 158:Middlewares/lvgl/examples/layouts/flex/../../../src/core/lv_disp.h **** 
 159:Middlewares/lvgl/examples/layouts/flex/../../../src/core/lv_disp.h **** /**
 160:Middlewares/lvgl/examples/layouts/flex/../../../src/core/lv_disp.h ****  * Get the active screen of the default display
 161:Middlewares/lvgl/examples/layouts/flex/../../../src/core/lv_disp.h ****  * @return pointer to the active screen
 162:Middlewares/lvgl/examples/layouts/flex/../../../src/core/lv_disp.h ****  */
 163:Middlewares/lvgl/examples/layouts/flex/../../../src/core/lv_disp.h **** static inline lv_obj_t * lv_scr_act(void)
 115              		.loc 2 163 26 view .LVU12
 116              	.LBB51:
 164:Middlewares/lvgl/examples/layouts/flex/../../../src/core/lv_disp.h **** {
 165:Middlewares/lvgl/examples/layouts/flex/../../../src/core/lv_disp.h ****     return lv_disp_get_scr_act(lv_disp_get_default());
 117              		.loc 2 165 5 view .LVU13
 118              		.loc 2 165 12 is_stmt 0 view .LVU14
 119 0004 FFF7FEFF 		bl	lv_disp_get_default
 120              	.LVL6:
 121 0008 FFF7FEFF 		bl	lv_disp_get_scr_act
 122              	.LVL7:
 123              	.LBE51:
 124              	.LBE50:
 125              		.loc 1 19 23 view .LVU15
 126 000c FFF7FEFF 		bl	lv_obj_create
 127              	.LVL8:
 128 0010 0646     		mov	r6, r0
 129              	.LVL9:
  20:Middlewares/lvgl/examples/layouts/flex/lv_example_flex_5.c ****     lv_obj_set_size(cont, 300, 220);
 130              		.loc 1 20 5 is_stmt 1 view .LVU16
 131 0012 DC22     		movs	r2, #220
 132 0014 4FF49671 		mov	r1, #300
 133 0018 FFF7FEFF 		bl	lv_obj_set_size
 134              	.LVL10:
  21:Middlewares/lvgl/examples/layouts/flex/lv_example_flex_5.c ****     lv_obj_center(cont);
 135              		.loc 1 21 5 view .LVU17
 136              	.LBB52:
 137              	.LBI52:
 138              		.file 3 "Middlewares/lvgl/examples/layouts/flex/../../../src/core/lv_obj_pos.h"
   1:Middlewares/lvgl/examples/layouts/flex/../../../src/core/lv_obj_pos.h **** /**
   2:Middlewares/lvgl/examples/layouts/flex/../../../src/core/lv_obj_pos.h ****  * @file lv_obj_pos.h
   3:Middlewares/lvgl/examples/layouts/flex/../../../src/core/lv_obj_pos.h ****  *
   4:Middlewares/lvgl/examples/layouts/flex/../../../src/core/lv_obj_pos.h ****  */
   5:Middlewares/lvgl/examples/layouts/flex/../../../src/core/lv_obj_pos.h **** 
   6:Middlewares/lvgl/examples/layouts/flex/../../../src/core/lv_obj_pos.h **** #ifndef LV_OBJ_POS_H
   7:Middlewares/lvgl/examples/layouts/flex/../../../src/core/lv_obj_pos.h **** #define LV_OBJ_POS_H
   8:Middlewares/lvgl/examples/layouts/flex/../../../src/core/lv_obj_pos.h **** 
   9:Middlewares/lvgl/examples/layouts/flex/../../../src/core/lv_obj_pos.h **** #ifdef __cplusplus
  10:Middlewares/lvgl/examples/layouts/flex/../../../src/core/lv_obj_pos.h **** extern "C" {
  11:Middlewares/lvgl/examples/layouts/flex/../../../src/core/lv_obj_pos.h **** #endif
  12:Middlewares/lvgl/examples/layouts/flex/../../../src/core/lv_obj_pos.h **** 
  13:Middlewares/lvgl/examples/layouts/flex/../../../src/core/lv_obj_pos.h **** /*********************
  14:Middlewares/lvgl/examples/layouts/flex/../../../src/core/lv_obj_pos.h ****  *      INCLUDES
  15:Middlewares/lvgl/examples/layouts/flex/../../../src/core/lv_obj_pos.h ****  *********************/
  16:Middlewares/lvgl/examples/layouts/flex/../../../src/core/lv_obj_pos.h **** #include "../misc/lv_area.h"
  17:Middlewares/lvgl/examples/layouts/flex/../../../src/core/lv_obj_pos.h **** 
  18:Middlewares/lvgl/examples/layouts/flex/../../../src/core/lv_obj_pos.h **** /*********************
ARM GAS  /tmp/ccEp6R0U.s 			page 7


  19:Middlewares/lvgl/examples/layouts/flex/../../../src/core/lv_obj_pos.h ****  *      DEFINES
  20:Middlewares/lvgl/examples/layouts/flex/../../../src/core/lv_obj_pos.h ****  *********************/
  21:Middlewares/lvgl/examples/layouts/flex/../../../src/core/lv_obj_pos.h **** 
  22:Middlewares/lvgl/examples/layouts/flex/../../../src/core/lv_obj_pos.h **** /**********************
  23:Middlewares/lvgl/examples/layouts/flex/../../../src/core/lv_obj_pos.h ****  *      TYPEDEFS
  24:Middlewares/lvgl/examples/layouts/flex/../../../src/core/lv_obj_pos.h ****  **********************/
  25:Middlewares/lvgl/examples/layouts/flex/../../../src/core/lv_obj_pos.h **** struct _lv_obj_t;
  26:Middlewares/lvgl/examples/layouts/flex/../../../src/core/lv_obj_pos.h **** 
  27:Middlewares/lvgl/examples/layouts/flex/../../../src/core/lv_obj_pos.h **** typedef void (*lv_layout_update_cb_t)(struct _lv_obj_t *, void * user_data);
  28:Middlewares/lvgl/examples/layouts/flex/../../../src/core/lv_obj_pos.h **** typedef struct {
  29:Middlewares/lvgl/examples/layouts/flex/../../../src/core/lv_obj_pos.h ****     lv_layout_update_cb_t cb;
  30:Middlewares/lvgl/examples/layouts/flex/../../../src/core/lv_obj_pos.h ****     void * user_data;
  31:Middlewares/lvgl/examples/layouts/flex/../../../src/core/lv_obj_pos.h **** }lv_layout_dsc_t;
  32:Middlewares/lvgl/examples/layouts/flex/../../../src/core/lv_obj_pos.h **** 
  33:Middlewares/lvgl/examples/layouts/flex/../../../src/core/lv_obj_pos.h **** /**********************
  34:Middlewares/lvgl/examples/layouts/flex/../../../src/core/lv_obj_pos.h ****  * GLOBAL PROTOTYPES
  35:Middlewares/lvgl/examples/layouts/flex/../../../src/core/lv_obj_pos.h ****  **********************/
  36:Middlewares/lvgl/examples/layouts/flex/../../../src/core/lv_obj_pos.h **** 
  37:Middlewares/lvgl/examples/layouts/flex/../../../src/core/lv_obj_pos.h **** /**
  38:Middlewares/lvgl/examples/layouts/flex/../../../src/core/lv_obj_pos.h ****  * Set the relative the position of an object (relative to the parent's top left corner)
  39:Middlewares/lvgl/examples/layouts/flex/../../../src/core/lv_obj_pos.h ****  * @param obj       pointer to an object
  40:Middlewares/lvgl/examples/layouts/flex/../../../src/core/lv_obj_pos.h ****  * @param x         new distance from the left side of the parent plus the parent's left padding
  41:Middlewares/lvgl/examples/layouts/flex/../../../src/core/lv_obj_pos.h ****  * @param y         new distance from the top side of the parent  plus the parent's right padding
  42:Middlewares/lvgl/examples/layouts/flex/../../../src/core/lv_obj_pos.h ****  */
  43:Middlewares/lvgl/examples/layouts/flex/../../../src/core/lv_obj_pos.h **** void lv_obj_set_pos(struct _lv_obj_t * obj, lv_coord_t x, lv_coord_t y);
  44:Middlewares/lvgl/examples/layouts/flex/../../../src/core/lv_obj_pos.h **** 
  45:Middlewares/lvgl/examples/layouts/flex/../../../src/core/lv_obj_pos.h **** /**
  46:Middlewares/lvgl/examples/layouts/flex/../../../src/core/lv_obj_pos.h ****  * Set the x coordinate of a object
  47:Middlewares/lvgl/examples/layouts/flex/../../../src/core/lv_obj_pos.h ****  * @param obj       pointer to an object
  48:Middlewares/lvgl/examples/layouts/flex/../../../src/core/lv_obj_pos.h ****  * @param x         new distance from the left side from the parent plus the parent's left padding
  49:Middlewares/lvgl/examples/layouts/flex/../../../src/core/lv_obj_pos.h ****  */
  50:Middlewares/lvgl/examples/layouts/flex/../../../src/core/lv_obj_pos.h **** void lv_obj_set_x(struct _lv_obj_t * obj, lv_coord_t x);
  51:Middlewares/lvgl/examples/layouts/flex/../../../src/core/lv_obj_pos.h **** 
  52:Middlewares/lvgl/examples/layouts/flex/../../../src/core/lv_obj_pos.h **** /**
  53:Middlewares/lvgl/examples/layouts/flex/../../../src/core/lv_obj_pos.h ****  * Set the y coordinate of a object
  54:Middlewares/lvgl/examples/layouts/flex/../../../src/core/lv_obj_pos.h ****  * @param obj       pointer to an object
  55:Middlewares/lvgl/examples/layouts/flex/../../../src/core/lv_obj_pos.h ****  * @param y         new distance from the top of the parent  plus the parent's top padding
  56:Middlewares/lvgl/examples/layouts/flex/../../../src/core/lv_obj_pos.h ****  */
  57:Middlewares/lvgl/examples/layouts/flex/../../../src/core/lv_obj_pos.h **** void lv_obj_set_y(struct _lv_obj_t * obj, lv_coord_t y);
  58:Middlewares/lvgl/examples/layouts/flex/../../../src/core/lv_obj_pos.h **** 
  59:Middlewares/lvgl/examples/layouts/flex/../../../src/core/lv_obj_pos.h **** /**
  60:Middlewares/lvgl/examples/layouts/flex/../../../src/core/lv_obj_pos.h ****  * Set the size of an object.
  61:Middlewares/lvgl/examples/layouts/flex/../../../src/core/lv_obj_pos.h ****  * @param obj       pointer to an object
  62:Middlewares/lvgl/examples/layouts/flex/../../../src/core/lv_obj_pos.h ****  * @param w         the new width
  63:Middlewares/lvgl/examples/layouts/flex/../../../src/core/lv_obj_pos.h ****  * @param h         the new height
  64:Middlewares/lvgl/examples/layouts/flex/../../../src/core/lv_obj_pos.h ****  * @note            possible values are:
  65:Middlewares/lvgl/examples/layouts/flex/../../../src/core/lv_obj_pos.h ****  *                  pixel               simple set the size accordingly
  66:Middlewares/lvgl/examples/layouts/flex/../../../src/core/lv_obj_pos.h ****  *                  LV_SIZE_CONTENT     set the size to involve all children in the given direction
  67:Middlewares/lvgl/examples/layouts/flex/../../../src/core/lv_obj_pos.h ****  *                  LV_SIZE_PCT(x)     to set size in percentage of the parent's content area size 
  68:Middlewares/lvgl/examples/layouts/flex/../../../src/core/lv_obj_pos.h ****  *                                      x should be in [0..1000]% range
  69:Middlewares/lvgl/examples/layouts/flex/../../../src/core/lv_obj_pos.h ****  */
  70:Middlewares/lvgl/examples/layouts/flex/../../../src/core/lv_obj_pos.h **** void lv_obj_set_size(struct _lv_obj_t * obj, lv_coord_t w, lv_coord_t h);
  71:Middlewares/lvgl/examples/layouts/flex/../../../src/core/lv_obj_pos.h **** 
  72:Middlewares/lvgl/examples/layouts/flex/../../../src/core/lv_obj_pos.h **** /**
  73:Middlewares/lvgl/examples/layouts/flex/../../../src/core/lv_obj_pos.h ****  * Recalculate the size of the object
  74:Middlewares/lvgl/examples/layouts/flex/../../../src/core/lv_obj_pos.h ****  * @param obj       pointer to an object
  75:Middlewares/lvgl/examples/layouts/flex/../../../src/core/lv_obj_pos.h ****  * @return          true: the size has been changed
ARM GAS  /tmp/ccEp6R0U.s 			page 8


  76:Middlewares/lvgl/examples/layouts/flex/../../../src/core/lv_obj_pos.h ****  */
  77:Middlewares/lvgl/examples/layouts/flex/../../../src/core/lv_obj_pos.h **** bool lv_obj_refr_size(struct _lv_obj_t * obj);
  78:Middlewares/lvgl/examples/layouts/flex/../../../src/core/lv_obj_pos.h **** 
  79:Middlewares/lvgl/examples/layouts/flex/../../../src/core/lv_obj_pos.h **** /**
  80:Middlewares/lvgl/examples/layouts/flex/../../../src/core/lv_obj_pos.h ****  * Set the width of an object
  81:Middlewares/lvgl/examples/layouts/flex/../../../src/core/lv_obj_pos.h ****  * @param obj       pointer to an object
  82:Middlewares/lvgl/examples/layouts/flex/../../../src/core/lv_obj_pos.h ****  * @param w         the new width
  83:Middlewares/lvgl/examples/layouts/flex/../../../src/core/lv_obj_pos.h ****  * @note            possible values are:
  84:Middlewares/lvgl/examples/layouts/flex/../../../src/core/lv_obj_pos.h ****  *                  pixel               simple set the size accordingly
  85:Middlewares/lvgl/examples/layouts/flex/../../../src/core/lv_obj_pos.h ****  *                  LV_SIZE_CONTENT     set the size to involve all children in the given direction
  86:Middlewares/lvgl/examples/layouts/flex/../../../src/core/lv_obj_pos.h ****  *                  lv_pct(x)           to set size in percentage of the parent's content area size
  87:Middlewares/lvgl/examples/layouts/flex/../../../src/core/lv_obj_pos.h ****  *                                      x should be in [0..1000]% range
  88:Middlewares/lvgl/examples/layouts/flex/../../../src/core/lv_obj_pos.h ****  */
  89:Middlewares/lvgl/examples/layouts/flex/../../../src/core/lv_obj_pos.h **** void lv_obj_set_width(struct _lv_obj_t * obj, lv_coord_t w);
  90:Middlewares/lvgl/examples/layouts/flex/../../../src/core/lv_obj_pos.h **** 
  91:Middlewares/lvgl/examples/layouts/flex/../../../src/core/lv_obj_pos.h **** /**
  92:Middlewares/lvgl/examples/layouts/flex/../../../src/core/lv_obj_pos.h ****  * Set the height of an object
  93:Middlewares/lvgl/examples/layouts/flex/../../../src/core/lv_obj_pos.h ****  * @param obj       pointer to an object
  94:Middlewares/lvgl/examples/layouts/flex/../../../src/core/lv_obj_pos.h ****  * @param h         the new height
  95:Middlewares/lvgl/examples/layouts/flex/../../../src/core/lv_obj_pos.h ****  * @note            possible values are:
  96:Middlewares/lvgl/examples/layouts/flex/../../../src/core/lv_obj_pos.h ****  *                  pixel               simple set the size accordingly
  97:Middlewares/lvgl/examples/layouts/flex/../../../src/core/lv_obj_pos.h ****  *                  LV_SIZE_CONTENT     set the size to involve all children in the given direction
  98:Middlewares/lvgl/examples/layouts/flex/../../../src/core/lv_obj_pos.h ****  *                  lv_pct(x)           to set size in percentage of the parent's content area size
  99:Middlewares/lvgl/examples/layouts/flex/../../../src/core/lv_obj_pos.h ****  *                                      x should be in [0..1000]% range
 100:Middlewares/lvgl/examples/layouts/flex/../../../src/core/lv_obj_pos.h ****  */
 101:Middlewares/lvgl/examples/layouts/flex/../../../src/core/lv_obj_pos.h **** void lv_obj_set_height(struct _lv_obj_t * obj, lv_coord_t h);
 102:Middlewares/lvgl/examples/layouts/flex/../../../src/core/lv_obj_pos.h **** 
 103:Middlewares/lvgl/examples/layouts/flex/../../../src/core/lv_obj_pos.h **** /**
 104:Middlewares/lvgl/examples/layouts/flex/../../../src/core/lv_obj_pos.h ****  * Set the width reduced by the left and right padding and the border width.
 105:Middlewares/lvgl/examples/layouts/flex/../../../src/core/lv_obj_pos.h ****  * @param obj       pointer to an object
 106:Middlewares/lvgl/examples/layouts/flex/../../../src/core/lv_obj_pos.h ****  * @param w         the width without paddings in pixels
 107:Middlewares/lvgl/examples/layouts/flex/../../../src/core/lv_obj_pos.h ****  */
 108:Middlewares/lvgl/examples/layouts/flex/../../../src/core/lv_obj_pos.h **** void lv_obj_set_content_width(struct _lv_obj_t * obj, lv_coord_t w);
 109:Middlewares/lvgl/examples/layouts/flex/../../../src/core/lv_obj_pos.h **** 
 110:Middlewares/lvgl/examples/layouts/flex/../../../src/core/lv_obj_pos.h **** /**
 111:Middlewares/lvgl/examples/layouts/flex/../../../src/core/lv_obj_pos.h ****  * Set the height reduced by the top and bottom padding and the border width.
 112:Middlewares/lvgl/examples/layouts/flex/../../../src/core/lv_obj_pos.h ****  * @param obj       pointer to an object
 113:Middlewares/lvgl/examples/layouts/flex/../../../src/core/lv_obj_pos.h ****  * @param h         the height without paddings in pixels
 114:Middlewares/lvgl/examples/layouts/flex/../../../src/core/lv_obj_pos.h ****  */
 115:Middlewares/lvgl/examples/layouts/flex/../../../src/core/lv_obj_pos.h **** void lv_obj_set_content_height(struct _lv_obj_t * obj, lv_coord_t h);
 116:Middlewares/lvgl/examples/layouts/flex/../../../src/core/lv_obj_pos.h **** 
 117:Middlewares/lvgl/examples/layouts/flex/../../../src/core/lv_obj_pos.h **** /**
 118:Middlewares/lvgl/examples/layouts/flex/../../../src/core/lv_obj_pos.h ****  * Set a layout for an object
 119:Middlewares/lvgl/examples/layouts/flex/../../../src/core/lv_obj_pos.h ****  * @param obj       pointer to an object
 120:Middlewares/lvgl/examples/layouts/flex/../../../src/core/lv_obj_pos.h ****  * @param layout    pointer to a layout descriptor to set
 121:Middlewares/lvgl/examples/layouts/flex/../../../src/core/lv_obj_pos.h ****  */
 122:Middlewares/lvgl/examples/layouts/flex/../../../src/core/lv_obj_pos.h **** void lv_obj_set_layout(struct _lv_obj_t * obj, uint32_t layout);
 123:Middlewares/lvgl/examples/layouts/flex/../../../src/core/lv_obj_pos.h **** 
 124:Middlewares/lvgl/examples/layouts/flex/../../../src/core/lv_obj_pos.h **** /**
 125:Middlewares/lvgl/examples/layouts/flex/../../../src/core/lv_obj_pos.h ****  * Test whether the and object is positioned by a layout or not
 126:Middlewares/lvgl/examples/layouts/flex/../../../src/core/lv_obj_pos.h ****  * @param obj       pointer to an object to test
 127:Middlewares/lvgl/examples/layouts/flex/../../../src/core/lv_obj_pos.h ****  * @return true:    positioned by a layout; false: not positioned by a layout
 128:Middlewares/lvgl/examples/layouts/flex/../../../src/core/lv_obj_pos.h ****  */
 129:Middlewares/lvgl/examples/layouts/flex/../../../src/core/lv_obj_pos.h **** bool lv_obj_is_layout_positioned(const struct _lv_obj_t * obj);
 130:Middlewares/lvgl/examples/layouts/flex/../../../src/core/lv_obj_pos.h **** 
 131:Middlewares/lvgl/examples/layouts/flex/../../../src/core/lv_obj_pos.h **** /**
 132:Middlewares/lvgl/examples/layouts/flex/../../../src/core/lv_obj_pos.h ****  * Mark the object for layout update.
ARM GAS  /tmp/ccEp6R0U.s 			page 9


 133:Middlewares/lvgl/examples/layouts/flex/../../../src/core/lv_obj_pos.h ****  * @param obj      pointer to an object whose children needs to be updated
 134:Middlewares/lvgl/examples/layouts/flex/../../../src/core/lv_obj_pos.h ****  */
 135:Middlewares/lvgl/examples/layouts/flex/../../../src/core/lv_obj_pos.h **** void lv_obj_mark_layout_as_dirty(struct _lv_obj_t * obj);
 136:Middlewares/lvgl/examples/layouts/flex/../../../src/core/lv_obj_pos.h **** 
 137:Middlewares/lvgl/examples/layouts/flex/../../../src/core/lv_obj_pos.h **** /**
 138:Middlewares/lvgl/examples/layouts/flex/../../../src/core/lv_obj_pos.h ****  * Update the layout of an object.
 139:Middlewares/lvgl/examples/layouts/flex/../../../src/core/lv_obj_pos.h ****  * @param obj      pointer to an object whose children needs to be updated
 140:Middlewares/lvgl/examples/layouts/flex/../../../src/core/lv_obj_pos.h ****  */
 141:Middlewares/lvgl/examples/layouts/flex/../../../src/core/lv_obj_pos.h **** void lv_obj_update_layout(const struct _lv_obj_t * obj);
 142:Middlewares/lvgl/examples/layouts/flex/../../../src/core/lv_obj_pos.h **** 
 143:Middlewares/lvgl/examples/layouts/flex/../../../src/core/lv_obj_pos.h **** /**
 144:Middlewares/lvgl/examples/layouts/flex/../../../src/core/lv_obj_pos.h ****  * Regsiter a new layout
 145:Middlewares/lvgl/examples/layouts/flex/../../../src/core/lv_obj_pos.h ****  * @param cb        the layout update callback
 146:Middlewares/lvgl/examples/layouts/flex/../../../src/core/lv_obj_pos.h ****  * @param user_data custom data that will be passed to `cb`
 147:Middlewares/lvgl/examples/layouts/flex/../../../src/core/lv_obj_pos.h ****  * @return          the ID of the new layout
 148:Middlewares/lvgl/examples/layouts/flex/../../../src/core/lv_obj_pos.h ****  */
 149:Middlewares/lvgl/examples/layouts/flex/../../../src/core/lv_obj_pos.h **** uint32_t lv_layout_register(lv_layout_update_cb_t cb, void * user_data);
 150:Middlewares/lvgl/examples/layouts/flex/../../../src/core/lv_obj_pos.h **** 
 151:Middlewares/lvgl/examples/layouts/flex/../../../src/core/lv_obj_pos.h **** /**
 152:Middlewares/lvgl/examples/layouts/flex/../../../src/core/lv_obj_pos.h ****  * Change the alignment of an object.
 153:Middlewares/lvgl/examples/layouts/flex/../../../src/core/lv_obj_pos.h ****  * @param obj       pointer to an object to align
 154:Middlewares/lvgl/examples/layouts/flex/../../../src/core/lv_obj_pos.h ****  * @param align     type of alignment (see 'lv_align_t' enum) `LV_ALIGN_OUT_...` can't be used.
 155:Middlewares/lvgl/examples/layouts/flex/../../../src/core/lv_obj_pos.h ****  */
 156:Middlewares/lvgl/examples/layouts/flex/../../../src/core/lv_obj_pos.h **** void lv_obj_set_align(struct _lv_obj_t * obj, lv_align_t align);
 157:Middlewares/lvgl/examples/layouts/flex/../../../src/core/lv_obj_pos.h **** 
 158:Middlewares/lvgl/examples/layouts/flex/../../../src/core/lv_obj_pos.h **** /**
 159:Middlewares/lvgl/examples/layouts/flex/../../../src/core/lv_obj_pos.h ****  * Change the alignment of an object and set new coordinates.
 160:Middlewares/lvgl/examples/layouts/flex/../../../src/core/lv_obj_pos.h ****  * Equivalent to:
 161:Middlewares/lvgl/examples/layouts/flex/../../../src/core/lv_obj_pos.h ****  * lv_obj_set_align(obj, align);
 162:Middlewares/lvgl/examples/layouts/flex/../../../src/core/lv_obj_pos.h ****  * lv_obj_set_pos(obj, x_ofs, y_ofs);
 163:Middlewares/lvgl/examples/layouts/flex/../../../src/core/lv_obj_pos.h ****  * @param obj       pointer to an object to align
 164:Middlewares/lvgl/examples/layouts/flex/../../../src/core/lv_obj_pos.h ****  * @param align     type of alignment (see 'lv_align_t' enum) `LV_ALIGN_OUT_...` can't be used.
 165:Middlewares/lvgl/examples/layouts/flex/../../../src/core/lv_obj_pos.h ****  * @param x_ofs     x coordinate offset after alignment
 166:Middlewares/lvgl/examples/layouts/flex/../../../src/core/lv_obj_pos.h ****  * @param y_ofs     y coordinate offset after alignment
 167:Middlewares/lvgl/examples/layouts/flex/../../../src/core/lv_obj_pos.h ****  */
 168:Middlewares/lvgl/examples/layouts/flex/../../../src/core/lv_obj_pos.h **** void lv_obj_align(struct _lv_obj_t * obj, lv_align_t align, lv_coord_t x_ofs, lv_coord_t y_ofs);
 169:Middlewares/lvgl/examples/layouts/flex/../../../src/core/lv_obj_pos.h **** 
 170:Middlewares/lvgl/examples/layouts/flex/../../../src/core/lv_obj_pos.h **** /**
 171:Middlewares/lvgl/examples/layouts/flex/../../../src/core/lv_obj_pos.h ****  * Align an object to an other object.
 172:Middlewares/lvgl/examples/layouts/flex/../../../src/core/lv_obj_pos.h ****  * @param obj       pointer to an object to align
 173:Middlewares/lvgl/examples/layouts/flex/../../../src/core/lv_obj_pos.h ****  * @param base      pointer to an other object (if NULL `obj`s parent is used). 'obj' will be align
 174:Middlewares/lvgl/examples/layouts/flex/../../../src/core/lv_obj_pos.h ****  * @param align     type of alignment (see 'lv_align_t' enum)
 175:Middlewares/lvgl/examples/layouts/flex/../../../src/core/lv_obj_pos.h ****  * @param x_ofs     x coordinate offset after alignment
 176:Middlewares/lvgl/examples/layouts/flex/../../../src/core/lv_obj_pos.h ****  * @param y_ofs     y coordinate offset after alignment
 177:Middlewares/lvgl/examples/layouts/flex/../../../src/core/lv_obj_pos.h ****  * @note            if the position or size of `base` changes `obj` needs to be aligned manually ag
 178:Middlewares/lvgl/examples/layouts/flex/../../../src/core/lv_obj_pos.h ****  */
 179:Middlewares/lvgl/examples/layouts/flex/../../../src/core/lv_obj_pos.h **** void lv_obj_align_to(struct _lv_obj_t * obj, const struct _lv_obj_t * base, lv_align_t align, lv_co
 180:Middlewares/lvgl/examples/layouts/flex/../../../src/core/lv_obj_pos.h **** 
 181:Middlewares/lvgl/examples/layouts/flex/../../../src/core/lv_obj_pos.h **** /**
 182:Middlewares/lvgl/examples/layouts/flex/../../../src/core/lv_obj_pos.h ****  * Align an object to the center on its parent.
 183:Middlewares/lvgl/examples/layouts/flex/../../../src/core/lv_obj_pos.h ****  * @param obj       pointer to an object to align
 184:Middlewares/lvgl/examples/layouts/flex/../../../src/core/lv_obj_pos.h ****  * @note            if the parent size changes `obj` needs to be aligned manually again
 185:Middlewares/lvgl/examples/layouts/flex/../../../src/core/lv_obj_pos.h ****  */
 186:Middlewares/lvgl/examples/layouts/flex/../../../src/core/lv_obj_pos.h **** static inline void lv_obj_center(struct _lv_obj_t * obj)
 139              		.loc 3 186 20 view .LVU18
 140              	.LBB53:
 187:Middlewares/lvgl/examples/layouts/flex/../../../src/core/lv_obj_pos.h **** {
ARM GAS  /tmp/ccEp6R0U.s 			page 10


 188:Middlewares/lvgl/examples/layouts/flex/../../../src/core/lv_obj_pos.h ****     lv_obj_align(obj, LV_ALIGN_CENTER, 0, 0);
 141              		.loc 3 188 5 view .LVU19
 142 001c 0023     		movs	r3, #0
 143 001e 1A46     		mov	r2, r3
 144 0020 0921     		movs	r1, #9
 145 0022 3046     		mov	r0, r6
 146 0024 FFF7FEFF 		bl	lv_obj_align
 147              	.LVL11:
 148              		.loc 3 188 5 is_stmt 0 view .LVU20
 149              	.LBE53:
 150              	.LBE52:
  22:Middlewares/lvgl/examples/layouts/flex/lv_example_flex_5.c ****     lv_obj_set_flex_flow(cont, LV_FLEX_FLOW_ROW_WRAP);
 151              		.loc 1 22 5 is_stmt 1 view .LVU21
 152 0028 0421     		movs	r1, #4
 153 002a 3046     		mov	r0, r6
 154 002c FFF7FEFF 		bl	lv_obj_set_flex_flow
 155              	.LVL12:
  23:Middlewares/lvgl/examples/layouts/flex/lv_example_flex_5.c **** 
  24:Middlewares/lvgl/examples/layouts/flex/lv_example_flex_5.c ****     uint32_t i;
 156              		.loc 1 24 5 view .LVU22
  25:Middlewares/lvgl/examples/layouts/flex/lv_example_flex_5.c ****     for(i = 0; i < 9; i++) {
 157              		.loc 1 25 5 view .LVU23
 158              		.loc 1 25 11 is_stmt 0 view .LVU24
 159 0030 0024     		movs	r4, #0
 160              		.loc 1 25 5 view .LVU25
 161 0032 17E0     		b	.L6
 162              	.LVL13:
 163              	.L7:
 164              	.LBB54:
  26:Middlewares/lvgl/examples/layouts/flex/lv_example_flex_5.c ****         lv_obj_t * obj = lv_obj_create(cont);
 165              		.loc 1 26 9 is_stmt 1 discriminator 3 view .LVU26
 166              		.loc 1 26 26 is_stmt 0 discriminator 3 view .LVU27
 167 0034 3046     		mov	r0, r6
 168 0036 FFF7FEFF 		bl	lv_obj_create
 169              	.LVL14:
 170 003a 0546     		mov	r5, r0
 171              	.LVL15:
  27:Middlewares/lvgl/examples/layouts/flex/lv_example_flex_5.c ****         lv_obj_set_size(obj, 70, LV_SIZE_CONTENT);
 172              		.loc 1 27 9 is_stmt 1 discriminator 3 view .LVU28
 173 003c 42F2D172 		movw	r2, #10193
 174 0040 4621     		movs	r1, #70
 175 0042 FFF7FEFF 		bl	lv_obj_set_size
 176              	.LVL16:
  28:Middlewares/lvgl/examples/layouts/flex/lv_example_flex_5.c **** 
  29:Middlewares/lvgl/examples/layouts/flex/lv_example_flex_5.c ****         lv_obj_t * label = lv_label_create(obj);
 177              		.loc 1 29 9 discriminator 3 view .LVU29
 178              		.loc 1 29 28 is_stmt 0 discriminator 3 view .LVU30
 179 0046 2846     		mov	r0, r5
 180 0048 FFF7FEFF 		bl	lv_label_create
 181              	.LVL17:
 182 004c 0546     		mov	r5, r0
 183              	.LVL18:
  30:Middlewares/lvgl/examples/layouts/flex/lv_example_flex_5.c ****         lv_label_set_text_fmt(label, "%d", i);
 184              		.loc 1 30 9 is_stmt 1 discriminator 3 view .LVU31
 185 004e 2246     		mov	r2, r4
 186 0050 1649     		ldr	r1, .L9
 187 0052 FFF7FEFF 		bl	lv_label_set_text_fmt
ARM GAS  /tmp/ccEp6R0U.s 			page 11


 188              	.LVL19:
  31:Middlewares/lvgl/examples/layouts/flex/lv_example_flex_5.c ****         lv_obj_center(label);
 189              		.loc 1 31 9 discriminator 3 view .LVU32
 190              	.LBB55:
 191              	.LBI55:
 186:Middlewares/lvgl/examples/layouts/flex/../../../src/core/lv_obj_pos.h **** {
 192              		.loc 3 186 20 discriminator 3 view .LVU33
 193              	.LBB56:
 194              		.loc 3 188 5 discriminator 3 view .LVU34
 195 0056 0023     		movs	r3, #0
 196 0058 1A46     		mov	r2, r3
 197 005a 0921     		movs	r1, #9
 198 005c 2846     		mov	r0, r5
 199 005e FFF7FEFF 		bl	lv_obj_align
 200              	.LVL20:
 201              		.loc 3 188 5 is_stmt 0 discriminator 3 view .LVU35
 202              	.LBE56:
 203              	.LBE55:
 204              	.LBE54:
  25:Middlewares/lvgl/examples/layouts/flex/lv_example_flex_5.c ****         lv_obj_t * obj = lv_obj_create(cont);
 205              		.loc 1 25 23 is_stmt 1 discriminator 3 view .LVU36
  25:Middlewares/lvgl/examples/layouts/flex/lv_example_flex_5.c ****         lv_obj_t * obj = lv_obj_create(cont);
 206              		.loc 1 25 24 is_stmt 0 discriminator 3 view .LVU37
 207 0062 0134     		adds	r4, r4, #1
 208              	.LVL21:
 209              	.L6:
  25:Middlewares/lvgl/examples/layouts/flex/lv_example_flex_5.c ****         lv_obj_t * obj = lv_obj_create(cont);
 210              		.loc 1 25 16 is_stmt 1 discriminator 1 view .LVU38
  25:Middlewares/lvgl/examples/layouts/flex/lv_example_flex_5.c ****         lv_obj_t * obj = lv_obj_create(cont);
 211              		.loc 1 25 5 is_stmt 0 discriminator 1 view .LVU39
 212 0064 082C     		cmp	r4, #8
 213 0066 E5D9     		bls	.L7
  32:Middlewares/lvgl/examples/layouts/flex/lv_example_flex_5.c ****     }
  33:Middlewares/lvgl/examples/layouts/flex/lv_example_flex_5.c **** 
  34:Middlewares/lvgl/examples/layouts/flex/lv_example_flex_5.c ****     lv_anim_t a;
 214              		.loc 1 34 5 is_stmt 1 view .LVU40
  35:Middlewares/lvgl/examples/layouts/flex/lv_example_flex_5.c ****     lv_anim_init(&a);
 215              		.loc 1 35 5 view .LVU41
 216 0068 01A8     		add	r0, sp, #4
 217 006a FFF7FEFF 		bl	lv_anim_init
 218              	.LVL22:
  36:Middlewares/lvgl/examples/layouts/flex/lv_example_flex_5.c ****     lv_anim_set_var(&a, cont);
 219              		.loc 1 36 5 view .LVU42
 220              	.LBB57:
 221              	.LBI57:
 222              		.file 4 "Middlewares/lvgl/examples/layouts/flex/../../../src/core/../misc/lv_anim.h"
   1:Middlewares/lvgl/examples/layouts/flex/../../../src/core/../misc/lv_anim.h **** /**
   2:Middlewares/lvgl/examples/layouts/flex/../../../src/core/../misc/lv_anim.h ****  * @file lv_anim.h
   3:Middlewares/lvgl/examples/layouts/flex/../../../src/core/../misc/lv_anim.h ****  *
   4:Middlewares/lvgl/examples/layouts/flex/../../../src/core/../misc/lv_anim.h ****  */
   5:Middlewares/lvgl/examples/layouts/flex/../../../src/core/../misc/lv_anim.h **** 
   6:Middlewares/lvgl/examples/layouts/flex/../../../src/core/../misc/lv_anim.h **** #ifndef LV_ANIM_H
   7:Middlewares/lvgl/examples/layouts/flex/../../../src/core/../misc/lv_anim.h **** #define LV_ANIM_H
   8:Middlewares/lvgl/examples/layouts/flex/../../../src/core/../misc/lv_anim.h **** 
   9:Middlewares/lvgl/examples/layouts/flex/../../../src/core/../misc/lv_anim.h **** #ifdef __cplusplus
  10:Middlewares/lvgl/examples/layouts/flex/../../../src/core/../misc/lv_anim.h **** extern "C" {
  11:Middlewares/lvgl/examples/layouts/flex/../../../src/core/../misc/lv_anim.h **** #endif
ARM GAS  /tmp/ccEp6R0U.s 			page 12


  12:Middlewares/lvgl/examples/layouts/flex/../../../src/core/../misc/lv_anim.h **** 
  13:Middlewares/lvgl/examples/layouts/flex/../../../src/core/../misc/lv_anim.h **** /*********************
  14:Middlewares/lvgl/examples/layouts/flex/../../../src/core/../misc/lv_anim.h ****  *      INCLUDES
  15:Middlewares/lvgl/examples/layouts/flex/../../../src/core/../misc/lv_anim.h ****  *********************/
  16:Middlewares/lvgl/examples/layouts/flex/../../../src/core/../misc/lv_anim.h **** #include "../lv_conf_internal.h"
  17:Middlewares/lvgl/examples/layouts/flex/../../../src/core/../misc/lv_anim.h **** 
  18:Middlewares/lvgl/examples/layouts/flex/../../../src/core/../misc/lv_anim.h **** #include <stdint.h>
  19:Middlewares/lvgl/examples/layouts/flex/../../../src/core/../misc/lv_anim.h **** #include <stdbool.h>
  20:Middlewares/lvgl/examples/layouts/flex/../../../src/core/../misc/lv_anim.h **** #include <string.h>
  21:Middlewares/lvgl/examples/layouts/flex/../../../src/core/../misc/lv_anim.h **** 
  22:Middlewares/lvgl/examples/layouts/flex/../../../src/core/../misc/lv_anim.h **** /*********************
  23:Middlewares/lvgl/examples/layouts/flex/../../../src/core/../misc/lv_anim.h ****  *      DEFINES
  24:Middlewares/lvgl/examples/layouts/flex/../../../src/core/../misc/lv_anim.h ****  *********************/
  25:Middlewares/lvgl/examples/layouts/flex/../../../src/core/../misc/lv_anim.h **** 
  26:Middlewares/lvgl/examples/layouts/flex/../../../src/core/../misc/lv_anim.h **** /**********************
  27:Middlewares/lvgl/examples/layouts/flex/../../../src/core/../misc/lv_anim.h ****  *      TYPEDEFS
  28:Middlewares/lvgl/examples/layouts/flex/../../../src/core/../misc/lv_anim.h ****  **********************/
  29:Middlewares/lvgl/examples/layouts/flex/../../../src/core/../misc/lv_anim.h **** 
  30:Middlewares/lvgl/examples/layouts/flex/../../../src/core/../misc/lv_anim.h **** /** Can be used to indicate if animations are enabled or disabled in a case*/
  31:Middlewares/lvgl/examples/layouts/flex/../../../src/core/../misc/lv_anim.h **** typedef enum {
  32:Middlewares/lvgl/examples/layouts/flex/../../../src/core/../misc/lv_anim.h ****     LV_ANIM_OFF,
  33:Middlewares/lvgl/examples/layouts/flex/../../../src/core/../misc/lv_anim.h ****     LV_ANIM_ON,
  34:Middlewares/lvgl/examples/layouts/flex/../../../src/core/../misc/lv_anim.h **** }lv_anim_enable_t;
  35:Middlewares/lvgl/examples/layouts/flex/../../../src/core/../misc/lv_anim.h **** 
  36:Middlewares/lvgl/examples/layouts/flex/../../../src/core/../misc/lv_anim.h **** #define LV_ANIM_REPEAT_INFINITE      0xFFFF
  37:Middlewares/lvgl/examples/layouts/flex/../../../src/core/../misc/lv_anim.h **** LV_EXPORT_CONST_INT(LV_ANIM_REPEAT_INFINITE);
  38:Middlewares/lvgl/examples/layouts/flex/../../../src/core/../misc/lv_anim.h **** 
  39:Middlewares/lvgl/examples/layouts/flex/../../../src/core/../misc/lv_anim.h **** struct _lv_anim_t;
  40:Middlewares/lvgl/examples/layouts/flex/../../../src/core/../misc/lv_anim.h **** 
  41:Middlewares/lvgl/examples/layouts/flex/../../../src/core/../misc/lv_anim.h **** /** Get the current value during an animation*/
  42:Middlewares/lvgl/examples/layouts/flex/../../../src/core/../misc/lv_anim.h **** typedef int32_t (*lv_anim_path_cb_t)(const struct _lv_anim_t *);
  43:Middlewares/lvgl/examples/layouts/flex/../../../src/core/../misc/lv_anim.h **** 
  44:Middlewares/lvgl/examples/layouts/flex/../../../src/core/../misc/lv_anim.h **** /** Generic prototype of "animator" functions.
  45:Middlewares/lvgl/examples/layouts/flex/../../../src/core/../misc/lv_anim.h ****  * First parameter is the variable to animate.
  46:Middlewares/lvgl/examples/layouts/flex/../../../src/core/../misc/lv_anim.h ****  * Second parameter is the value to set.
  47:Middlewares/lvgl/examples/layouts/flex/../../../src/core/../misc/lv_anim.h ****  * Compatible with `lv_xxx_set_yyy(obj, value)` functions
  48:Middlewares/lvgl/examples/layouts/flex/../../../src/core/../misc/lv_anim.h ****  * The `x` in `_xcb_t` means its not a fully generic prototype because
  49:Middlewares/lvgl/examples/layouts/flex/../../../src/core/../misc/lv_anim.h ****  * it doesn't receive `lv_anim_t *` as its first argument*/
  50:Middlewares/lvgl/examples/layouts/flex/../../../src/core/../misc/lv_anim.h **** typedef void (*lv_anim_exec_xcb_t)(void *, int32_t);
  51:Middlewares/lvgl/examples/layouts/flex/../../../src/core/../misc/lv_anim.h **** 
  52:Middlewares/lvgl/examples/layouts/flex/../../../src/core/../misc/lv_anim.h **** /** Same as `lv_anim_exec_xcb_t` but receives `lv_anim_t *` as the first parameter.
  53:Middlewares/lvgl/examples/layouts/flex/../../../src/core/../misc/lv_anim.h ****  * It's more consistent but less convenient. Might be used by binding generator functions.*/
  54:Middlewares/lvgl/examples/layouts/flex/../../../src/core/../misc/lv_anim.h **** typedef void (*lv_anim_custom_exec_cb_t)(struct _lv_anim_t *, int32_t);
  55:Middlewares/lvgl/examples/layouts/flex/../../../src/core/../misc/lv_anim.h **** 
  56:Middlewares/lvgl/examples/layouts/flex/../../../src/core/../misc/lv_anim.h **** /** Callback to call when the animation is ready*/
  57:Middlewares/lvgl/examples/layouts/flex/../../../src/core/../misc/lv_anim.h **** typedef void (*lv_anim_ready_cb_t)(struct _lv_anim_t *);
  58:Middlewares/lvgl/examples/layouts/flex/../../../src/core/../misc/lv_anim.h **** 
  59:Middlewares/lvgl/examples/layouts/flex/../../../src/core/../misc/lv_anim.h **** /** Callback to call when the animation really stars (considering `delay`)*/
  60:Middlewares/lvgl/examples/layouts/flex/../../../src/core/../misc/lv_anim.h **** typedef void (*lv_anim_start_cb_t)(struct _lv_anim_t *);
  61:Middlewares/lvgl/examples/layouts/flex/../../../src/core/../misc/lv_anim.h **** 
  62:Middlewares/lvgl/examples/layouts/flex/../../../src/core/../misc/lv_anim.h **** /** Callback used when the animation values are relative to get the current value*/
  63:Middlewares/lvgl/examples/layouts/flex/../../../src/core/../misc/lv_anim.h **** typedef int32_t (*lv_anim_get_value_cb_t)(struct _lv_anim_t *);
  64:Middlewares/lvgl/examples/layouts/flex/../../../src/core/../misc/lv_anim.h **** 
  65:Middlewares/lvgl/examples/layouts/flex/../../../src/core/../misc/lv_anim.h **** /** Describes an animation*/
  66:Middlewares/lvgl/examples/layouts/flex/../../../src/core/../misc/lv_anim.h **** typedef struct _lv_anim_t {
  67:Middlewares/lvgl/examples/layouts/flex/../../../src/core/../misc/lv_anim.h ****     void * var;                          /**<Variable to animate*/
  68:Middlewares/lvgl/examples/layouts/flex/../../../src/core/../misc/lv_anim.h ****     lv_anim_exec_xcb_t exec_cb;          /**< Function to execute to animate*/
ARM GAS  /tmp/ccEp6R0U.s 			page 13


  69:Middlewares/lvgl/examples/layouts/flex/../../../src/core/../misc/lv_anim.h ****     lv_anim_start_cb_t start_cb;         /**< Call it when the animation is starts (considering `de
  70:Middlewares/lvgl/examples/layouts/flex/../../../src/core/../misc/lv_anim.h ****     lv_anim_ready_cb_t ready_cb;         /**< Call it when the animation is ready*/
  71:Middlewares/lvgl/examples/layouts/flex/../../../src/core/../misc/lv_anim.h ****     lv_anim_get_value_cb_t get_value_cb; /**< Get the current value in relative mode*/
  72:Middlewares/lvgl/examples/layouts/flex/../../../src/core/../misc/lv_anim.h **** #if LV_USE_USER_DATA
  73:Middlewares/lvgl/examples/layouts/flex/../../../src/core/../misc/lv_anim.h ****     void * user_data; /**< Custom user data*/
  74:Middlewares/lvgl/examples/layouts/flex/../../../src/core/../misc/lv_anim.h **** #endif
  75:Middlewares/lvgl/examples/layouts/flex/../../../src/core/../misc/lv_anim.h ****     lv_anim_path_cb_t path_cb;         /**< Describe the path (curve) of animations*/
  76:Middlewares/lvgl/examples/layouts/flex/../../../src/core/../misc/lv_anim.h ****     int32_t start_value;               /**< Start value*/
  77:Middlewares/lvgl/examples/layouts/flex/../../../src/core/../misc/lv_anim.h ****     int32_t current_value;             /**< Current value*/
  78:Middlewares/lvgl/examples/layouts/flex/../../../src/core/../misc/lv_anim.h ****     int32_t end_value;                 /**< End value*/
  79:Middlewares/lvgl/examples/layouts/flex/../../../src/core/../misc/lv_anim.h ****     int32_t time;                /**< Animation time in ms*/
  80:Middlewares/lvgl/examples/layouts/flex/../../../src/core/../misc/lv_anim.h ****     int32_t act_time;            /**< Current time in animation. Set to negative to make delay.*/
  81:Middlewares/lvgl/examples/layouts/flex/../../../src/core/../misc/lv_anim.h ****     uint32_t playback_delay;     /**< Wait before play back*/
  82:Middlewares/lvgl/examples/layouts/flex/../../../src/core/../misc/lv_anim.h ****     uint32_t playback_time;      /**< Duration of playback animation*/
  83:Middlewares/lvgl/examples/layouts/flex/../../../src/core/../misc/lv_anim.h ****     uint32_t repeat_delay;       /**< Wait before repeat*/
  84:Middlewares/lvgl/examples/layouts/flex/../../../src/core/../misc/lv_anim.h ****     uint16_t repeat_cnt;         /**< Repeat count for the animation*/
  85:Middlewares/lvgl/examples/layouts/flex/../../../src/core/../misc/lv_anim.h ****     uint8_t early_apply  : 1;    /**< 1: Apply start value immediately even is there is `delay`*/
  86:Middlewares/lvgl/examples/layouts/flex/../../../src/core/../misc/lv_anim.h **** 
  87:Middlewares/lvgl/examples/layouts/flex/../../../src/core/../misc/lv_anim.h ****     /*Animation system use these - user shouldn't set*/
  88:Middlewares/lvgl/examples/layouts/flex/../../../src/core/../misc/lv_anim.h ****     uint8_t playback_now : 1; /**< Play back is in progress*/
  89:Middlewares/lvgl/examples/layouts/flex/../../../src/core/../misc/lv_anim.h ****     uint8_t run_round : 1;    /**< Indicates the animation has run in this round*/
  90:Middlewares/lvgl/examples/layouts/flex/../../../src/core/../misc/lv_anim.h ****     uint8_t start_cb_called : 1;    /**< Indicates that the `start_cb` was already called*/
  91:Middlewares/lvgl/examples/layouts/flex/../../../src/core/../misc/lv_anim.h ****     uint32_t time_orig;
  92:Middlewares/lvgl/examples/layouts/flex/../../../src/core/../misc/lv_anim.h **** } lv_anim_t;
  93:Middlewares/lvgl/examples/layouts/flex/../../../src/core/../misc/lv_anim.h **** 
  94:Middlewares/lvgl/examples/layouts/flex/../../../src/core/../misc/lv_anim.h **** /**********************
  95:Middlewares/lvgl/examples/layouts/flex/../../../src/core/../misc/lv_anim.h ****  * GLOBAL PROTOTYPES
  96:Middlewares/lvgl/examples/layouts/flex/../../../src/core/../misc/lv_anim.h ****  **********************/
  97:Middlewares/lvgl/examples/layouts/flex/../../../src/core/../misc/lv_anim.h **** 
  98:Middlewares/lvgl/examples/layouts/flex/../../../src/core/../misc/lv_anim.h **** /**
  99:Middlewares/lvgl/examples/layouts/flex/../../../src/core/../misc/lv_anim.h ****  * Init. the animation module
 100:Middlewares/lvgl/examples/layouts/flex/../../../src/core/../misc/lv_anim.h ****  */
 101:Middlewares/lvgl/examples/layouts/flex/../../../src/core/../misc/lv_anim.h **** void _lv_anim_core_init(void);
 102:Middlewares/lvgl/examples/layouts/flex/../../../src/core/../misc/lv_anim.h **** 
 103:Middlewares/lvgl/examples/layouts/flex/../../../src/core/../misc/lv_anim.h **** /**
 104:Middlewares/lvgl/examples/layouts/flex/../../../src/core/../misc/lv_anim.h ****  * Initialize an animation variable.
 105:Middlewares/lvgl/examples/layouts/flex/../../../src/core/../misc/lv_anim.h ****  * E.g.:
 106:Middlewares/lvgl/examples/layouts/flex/../../../src/core/../misc/lv_anim.h ****  * lv_anim_t a;
 107:Middlewares/lvgl/examples/layouts/flex/../../../src/core/../misc/lv_anim.h ****  * lv_anim_init(&a);
 108:Middlewares/lvgl/examples/layouts/flex/../../../src/core/../misc/lv_anim.h ****  * lv_anim_set_...(&a);
 109:Middlewares/lvgl/examples/layouts/flex/../../../src/core/../misc/lv_anim.h ****  * lv_anim_start(&a);
 110:Middlewares/lvgl/examples/layouts/flex/../../../src/core/../misc/lv_anim.h ****  * @param a     pointer to an `lv_anim_t` variable to initialize
 111:Middlewares/lvgl/examples/layouts/flex/../../../src/core/../misc/lv_anim.h ****  */
 112:Middlewares/lvgl/examples/layouts/flex/../../../src/core/../misc/lv_anim.h **** void lv_anim_init(lv_anim_t * a);
 113:Middlewares/lvgl/examples/layouts/flex/../../../src/core/../misc/lv_anim.h **** 
 114:Middlewares/lvgl/examples/layouts/flex/../../../src/core/../misc/lv_anim.h **** /**
 115:Middlewares/lvgl/examples/layouts/flex/../../../src/core/../misc/lv_anim.h ****  * Set a variable to animate
 116:Middlewares/lvgl/examples/layouts/flex/../../../src/core/../misc/lv_anim.h ****  * @param a     pointer to an initialized `lv_anim_t` variable
 117:Middlewares/lvgl/examples/layouts/flex/../../../src/core/../misc/lv_anim.h ****  * @param var   pointer to a variable to animate
 118:Middlewares/lvgl/examples/layouts/flex/../../../src/core/../misc/lv_anim.h ****  */
 119:Middlewares/lvgl/examples/layouts/flex/../../../src/core/../misc/lv_anim.h **** static inline void lv_anim_set_var(lv_anim_t * a, void * var)
 223              		.loc 4 119 20 view .LVU43
 224              	.LBB58:
 120:Middlewares/lvgl/examples/layouts/flex/../../../src/core/../misc/lv_anim.h **** {
 121:Middlewares/lvgl/examples/layouts/flex/../../../src/core/../misc/lv_anim.h ****     a->var = var;
 225              		.loc 4 121 5 view .LVU44
 226              		.loc 4 121 12 is_stmt 0 view .LVU45
ARM GAS  /tmp/ccEp6R0U.s 			page 14


 227 006e 0196     		str	r6, [sp, #4]
 228              	.LVL23:
 229              		.loc 4 121 12 view .LVU46
 230              	.LBE58:
 231              	.LBE57:
  37:Middlewares/lvgl/examples/layouts/flex/lv_example_flex_5.c ****     lv_anim_set_values(&a, 0, 10);
 232              		.loc 1 37 5 is_stmt 1 view .LVU47
 233              	.LBB59:
 234              	.LBI59:
 122:Middlewares/lvgl/examples/layouts/flex/../../../src/core/../misc/lv_anim.h **** }
 123:Middlewares/lvgl/examples/layouts/flex/../../../src/core/../misc/lv_anim.h **** 
 124:Middlewares/lvgl/examples/layouts/flex/../../../src/core/../misc/lv_anim.h **** /**
 125:Middlewares/lvgl/examples/layouts/flex/../../../src/core/../misc/lv_anim.h ****  * Set a function to animate `var`
 126:Middlewares/lvgl/examples/layouts/flex/../../../src/core/../misc/lv_anim.h ****  * @param a         pointer to an initialized `lv_anim_t` variable
 127:Middlewares/lvgl/examples/layouts/flex/../../../src/core/../misc/lv_anim.h ****  * @param exec_cb   a function to execute during animation
 128:Middlewares/lvgl/examples/layouts/flex/../../../src/core/../misc/lv_anim.h ****  *                  LVGL's built-in functions can be used.
 129:Middlewares/lvgl/examples/layouts/flex/../../../src/core/../misc/lv_anim.h ****  *                  E.g. lv_obj_set_x
 130:Middlewares/lvgl/examples/layouts/flex/../../../src/core/../misc/lv_anim.h ****  */
 131:Middlewares/lvgl/examples/layouts/flex/../../../src/core/../misc/lv_anim.h **** static inline void lv_anim_set_exec_cb(lv_anim_t * a, lv_anim_exec_xcb_t exec_cb)
 132:Middlewares/lvgl/examples/layouts/flex/../../../src/core/../misc/lv_anim.h **** {
 133:Middlewares/lvgl/examples/layouts/flex/../../../src/core/../misc/lv_anim.h ****     a->exec_cb = exec_cb;
 134:Middlewares/lvgl/examples/layouts/flex/../../../src/core/../misc/lv_anim.h **** }
 135:Middlewares/lvgl/examples/layouts/flex/../../../src/core/../misc/lv_anim.h **** 
 136:Middlewares/lvgl/examples/layouts/flex/../../../src/core/../misc/lv_anim.h **** /**
 137:Middlewares/lvgl/examples/layouts/flex/../../../src/core/../misc/lv_anim.h ****  * Set the duration of an animation
 138:Middlewares/lvgl/examples/layouts/flex/../../../src/core/../misc/lv_anim.h ****  * @param a         pointer to an initialized `lv_anim_t` variable
 139:Middlewares/lvgl/examples/layouts/flex/../../../src/core/../misc/lv_anim.h ****  * @param duration  duration of the animation in milliseconds
 140:Middlewares/lvgl/examples/layouts/flex/../../../src/core/../misc/lv_anim.h ****  */
 141:Middlewares/lvgl/examples/layouts/flex/../../../src/core/../misc/lv_anim.h **** static inline void lv_anim_set_time(lv_anim_t * a, uint32_t duration)
 142:Middlewares/lvgl/examples/layouts/flex/../../../src/core/../misc/lv_anim.h **** {
 143:Middlewares/lvgl/examples/layouts/flex/../../../src/core/../misc/lv_anim.h ****     a->time = duration;
 144:Middlewares/lvgl/examples/layouts/flex/../../../src/core/../misc/lv_anim.h **** }
 145:Middlewares/lvgl/examples/layouts/flex/../../../src/core/../misc/lv_anim.h **** 
 146:Middlewares/lvgl/examples/layouts/flex/../../../src/core/../misc/lv_anim.h **** /**
 147:Middlewares/lvgl/examples/layouts/flex/../../../src/core/../misc/lv_anim.h ****  * Set a delay before starting the animation
 148:Middlewares/lvgl/examples/layouts/flex/../../../src/core/../misc/lv_anim.h ****  * @param a         pointer to an initialized `lv_anim_t` variable
 149:Middlewares/lvgl/examples/layouts/flex/../../../src/core/../misc/lv_anim.h ****  * @param delay     delay before the animation in milliseconds
 150:Middlewares/lvgl/examples/layouts/flex/../../../src/core/../misc/lv_anim.h ****  */
 151:Middlewares/lvgl/examples/layouts/flex/../../../src/core/../misc/lv_anim.h **** static inline void lv_anim_set_delay(lv_anim_t * a, uint32_t delay)
 152:Middlewares/lvgl/examples/layouts/flex/../../../src/core/../misc/lv_anim.h **** {
 153:Middlewares/lvgl/examples/layouts/flex/../../../src/core/../misc/lv_anim.h ****     a->act_time = -(int32_t)(delay);
 154:Middlewares/lvgl/examples/layouts/flex/../../../src/core/../misc/lv_anim.h **** }
 155:Middlewares/lvgl/examples/layouts/flex/../../../src/core/../misc/lv_anim.h **** 
 156:Middlewares/lvgl/examples/layouts/flex/../../../src/core/../misc/lv_anim.h **** /**
 157:Middlewares/lvgl/examples/layouts/flex/../../../src/core/../misc/lv_anim.h ****  * Set the start and end values of an animation
 158:Middlewares/lvgl/examples/layouts/flex/../../../src/core/../misc/lv_anim.h ****  * @param a         pointer to an initialized `lv_anim_t` variable
 159:Middlewares/lvgl/examples/layouts/flex/../../../src/core/../misc/lv_anim.h ****  * @param start     the start value
 160:Middlewares/lvgl/examples/layouts/flex/../../../src/core/../misc/lv_anim.h ****  * @param end       the end value
 161:Middlewares/lvgl/examples/layouts/flex/../../../src/core/../misc/lv_anim.h ****  */
 162:Middlewares/lvgl/examples/layouts/flex/../../../src/core/../misc/lv_anim.h **** static inline void lv_anim_set_values(lv_anim_t * a, int32_t start, int32_t end)
 235              		.loc 4 162 20 view .LVU48
 236              	.LBB60:
 163:Middlewares/lvgl/examples/layouts/flex/../../../src/core/../misc/lv_anim.h **** {
 164:Middlewares/lvgl/examples/layouts/flex/../../../src/core/../misc/lv_anim.h ****     a->start_value = start;
 237              		.loc 4 164 5 view .LVU49
 238              		.loc 4 164 20 is_stmt 0 view .LVU50
 239 0070 0023     		movs	r3, #0
ARM GAS  /tmp/ccEp6R0U.s 			page 15


 240 0072 0893     		str	r3, [sp, #32]
 165:Middlewares/lvgl/examples/layouts/flex/../../../src/core/../misc/lv_anim.h ****     a->current_value = start;
 241              		.loc 4 165 5 is_stmt 1 view .LVU51
 242              		.loc 4 165 22 is_stmt 0 view .LVU52
 243 0074 0993     		str	r3, [sp, #36]
 166:Middlewares/lvgl/examples/layouts/flex/../../../src/core/../misc/lv_anim.h ****     a->end_value = end;
 244              		.loc 4 166 5 is_stmt 1 view .LVU53
 245              		.loc 4 166 18 is_stmt 0 view .LVU54
 246 0076 0A23     		movs	r3, #10
 247 0078 0A93     		str	r3, [sp, #40]
 248              	.LVL24:
 249              		.loc 4 166 18 view .LVU55
 250              	.LBE60:
 251              	.LBE59:
  38:Middlewares/lvgl/examples/layouts/flex/lv_example_flex_5.c ****     lv_anim_set_repeat_count(&a, LV_ANIM_REPEAT_INFINITE);
 252              		.loc 1 38 5 is_stmt 1 view .LVU56
 253              	.LBB61:
 254              	.LBI61:
 167:Middlewares/lvgl/examples/layouts/flex/../../../src/core/../misc/lv_anim.h **** }
 168:Middlewares/lvgl/examples/layouts/flex/../../../src/core/../misc/lv_anim.h **** 
 169:Middlewares/lvgl/examples/layouts/flex/../../../src/core/../misc/lv_anim.h **** /**
 170:Middlewares/lvgl/examples/layouts/flex/../../../src/core/../misc/lv_anim.h ****  * Similar to `lv_anim_set_exec_cb` but `lv_anim_custom_exec_cb_t` receives
 171:Middlewares/lvgl/examples/layouts/flex/../../../src/core/../misc/lv_anim.h ****  * `lv_anim_t * ` as its first parameter instead of `void *`.
 172:Middlewares/lvgl/examples/layouts/flex/../../../src/core/../misc/lv_anim.h ****  * This function might be used when LVGL is binded to other languages because
 173:Middlewares/lvgl/examples/layouts/flex/../../../src/core/../misc/lv_anim.h ****  * it's more consistent to have `lv_anim_t *` as first parameter.
 174:Middlewares/lvgl/examples/layouts/flex/../../../src/core/../misc/lv_anim.h ****  * The variable to animate can be stored in the animation's `user_sata`
 175:Middlewares/lvgl/examples/layouts/flex/../../../src/core/../misc/lv_anim.h ****  * @param a         pointer to an initialized `lv_anim_t` variable
 176:Middlewares/lvgl/examples/layouts/flex/../../../src/core/../misc/lv_anim.h ****  * @param exec_cb   a function to execute.
 177:Middlewares/lvgl/examples/layouts/flex/../../../src/core/../misc/lv_anim.h ****  */
 178:Middlewares/lvgl/examples/layouts/flex/../../../src/core/../misc/lv_anim.h **** static inline void lv_anim_set_custom_exec_cb(lv_anim_t * a, lv_anim_custom_exec_cb_t exec_cb)
 179:Middlewares/lvgl/examples/layouts/flex/../../../src/core/../misc/lv_anim.h **** {
 180:Middlewares/lvgl/examples/layouts/flex/../../../src/core/../misc/lv_anim.h ****     a->var     = a;
 181:Middlewares/lvgl/examples/layouts/flex/../../../src/core/../misc/lv_anim.h ****     a->exec_cb = (lv_anim_exec_xcb_t)exec_cb;
 182:Middlewares/lvgl/examples/layouts/flex/../../../src/core/../misc/lv_anim.h **** }
 183:Middlewares/lvgl/examples/layouts/flex/../../../src/core/../misc/lv_anim.h **** 
 184:Middlewares/lvgl/examples/layouts/flex/../../../src/core/../misc/lv_anim.h **** /**
 185:Middlewares/lvgl/examples/layouts/flex/../../../src/core/../misc/lv_anim.h ****  * Set the path (curve) of the animation.
 186:Middlewares/lvgl/examples/layouts/flex/../../../src/core/../misc/lv_anim.h ****  * @param a         pointer to an initialized `lv_anim_t` variable
 187:Middlewares/lvgl/examples/layouts/flex/../../../src/core/../misc/lv_anim.h ****  * @param path_cb a function the get the current value of the animation.
 188:Middlewares/lvgl/examples/layouts/flex/../../../src/core/../misc/lv_anim.h ****  */
 189:Middlewares/lvgl/examples/layouts/flex/../../../src/core/../misc/lv_anim.h **** static inline void lv_anim_set_path_cb(lv_anim_t * a, lv_anim_path_cb_t path_cb)
 190:Middlewares/lvgl/examples/layouts/flex/../../../src/core/../misc/lv_anim.h **** {
 191:Middlewares/lvgl/examples/layouts/flex/../../../src/core/../misc/lv_anim.h ****     a->path_cb = path_cb;
 192:Middlewares/lvgl/examples/layouts/flex/../../../src/core/../misc/lv_anim.h **** }
 193:Middlewares/lvgl/examples/layouts/flex/../../../src/core/../misc/lv_anim.h **** 
 194:Middlewares/lvgl/examples/layouts/flex/../../../src/core/../misc/lv_anim.h **** /**
 195:Middlewares/lvgl/examples/layouts/flex/../../../src/core/../misc/lv_anim.h ****  * Set a function call when the animation really starts (considering `delay`)
 196:Middlewares/lvgl/examples/layouts/flex/../../../src/core/../misc/lv_anim.h ****  * @param a         pointer to an initialized `lv_anim_t` variable
 197:Middlewares/lvgl/examples/layouts/flex/../../../src/core/../misc/lv_anim.h ****  * @param start_cb  a function call when the animation starts
 198:Middlewares/lvgl/examples/layouts/flex/../../../src/core/../misc/lv_anim.h ****  */
 199:Middlewares/lvgl/examples/layouts/flex/../../../src/core/../misc/lv_anim.h **** static inline void lv_anim_set_start_cb(lv_anim_t * a, lv_anim_ready_cb_t start_cb)
 200:Middlewares/lvgl/examples/layouts/flex/../../../src/core/../misc/lv_anim.h **** {
 201:Middlewares/lvgl/examples/layouts/flex/../../../src/core/../misc/lv_anim.h ****     a->start_cb = start_cb;
 202:Middlewares/lvgl/examples/layouts/flex/../../../src/core/../misc/lv_anim.h **** }
 203:Middlewares/lvgl/examples/layouts/flex/../../../src/core/../misc/lv_anim.h **** 
 204:Middlewares/lvgl/examples/layouts/flex/../../../src/core/../misc/lv_anim.h **** /**
 205:Middlewares/lvgl/examples/layouts/flex/../../../src/core/../misc/lv_anim.h ****  * Set a function to use the current value of the variable and make start and end value
ARM GAS  /tmp/ccEp6R0U.s 			page 16


 206:Middlewares/lvgl/examples/layouts/flex/../../../src/core/../misc/lv_anim.h ****  * relative the the returned current value.
 207:Middlewares/lvgl/examples/layouts/flex/../../../src/core/../misc/lv_anim.h ****  * @param a             pointer to an initialized `lv_anim_t` variable
 208:Middlewares/lvgl/examples/layouts/flex/../../../src/core/../misc/lv_anim.h ****  * @param get_value_cb  a function call when the animation starts
 209:Middlewares/lvgl/examples/layouts/flex/../../../src/core/../misc/lv_anim.h ****  */
 210:Middlewares/lvgl/examples/layouts/flex/../../../src/core/../misc/lv_anim.h **** static inline void lv_anim_set_get_value_cb(lv_anim_t * a, lv_anim_get_value_cb_t get_value_cb)
 211:Middlewares/lvgl/examples/layouts/flex/../../../src/core/../misc/lv_anim.h **** {
 212:Middlewares/lvgl/examples/layouts/flex/../../../src/core/../misc/lv_anim.h ****     a->get_value_cb = get_value_cb;
 213:Middlewares/lvgl/examples/layouts/flex/../../../src/core/../misc/lv_anim.h **** }
 214:Middlewares/lvgl/examples/layouts/flex/../../../src/core/../misc/lv_anim.h **** 
 215:Middlewares/lvgl/examples/layouts/flex/../../../src/core/../misc/lv_anim.h **** /**
 216:Middlewares/lvgl/examples/layouts/flex/../../../src/core/../misc/lv_anim.h ****  * Set a function call when the animation is ready
 217:Middlewares/lvgl/examples/layouts/flex/../../../src/core/../misc/lv_anim.h ****  * @param a         pointer to an initialized `lv_anim_t` variable
 218:Middlewares/lvgl/examples/layouts/flex/../../../src/core/../misc/lv_anim.h ****  * @param ready_cb  a function call when the animation is ready
 219:Middlewares/lvgl/examples/layouts/flex/../../../src/core/../misc/lv_anim.h ****  */
 220:Middlewares/lvgl/examples/layouts/flex/../../../src/core/../misc/lv_anim.h **** static inline void lv_anim_set_ready_cb(lv_anim_t * a, lv_anim_ready_cb_t ready_cb)
 221:Middlewares/lvgl/examples/layouts/flex/../../../src/core/../misc/lv_anim.h **** {
 222:Middlewares/lvgl/examples/layouts/flex/../../../src/core/../misc/lv_anim.h ****     a->ready_cb = ready_cb;
 223:Middlewares/lvgl/examples/layouts/flex/../../../src/core/../misc/lv_anim.h **** }
 224:Middlewares/lvgl/examples/layouts/flex/../../../src/core/../misc/lv_anim.h **** /**
 225:Middlewares/lvgl/examples/layouts/flex/../../../src/core/../misc/lv_anim.h ****  * Make the animation to play back to when the forward direction is ready
 226:Middlewares/lvgl/examples/layouts/flex/../../../src/core/../misc/lv_anim.h ****  * @param a         pointer to an initialized `lv_anim_t` variable
 227:Middlewares/lvgl/examples/layouts/flex/../../../src/core/../misc/lv_anim.h ****  * @param time      the duration of the playback animation in in milliseconds. 0: disable playback
 228:Middlewares/lvgl/examples/layouts/flex/../../../src/core/../misc/lv_anim.h ****  */
 229:Middlewares/lvgl/examples/layouts/flex/../../../src/core/../misc/lv_anim.h **** static inline void lv_anim_set_playback_time(lv_anim_t * a, uint32_t time)
 230:Middlewares/lvgl/examples/layouts/flex/../../../src/core/../misc/lv_anim.h **** {
 231:Middlewares/lvgl/examples/layouts/flex/../../../src/core/../misc/lv_anim.h ****     a->playback_time = time;
 232:Middlewares/lvgl/examples/layouts/flex/../../../src/core/../misc/lv_anim.h **** }
 233:Middlewares/lvgl/examples/layouts/flex/../../../src/core/../misc/lv_anim.h **** 
 234:Middlewares/lvgl/examples/layouts/flex/../../../src/core/../misc/lv_anim.h **** /**
 235:Middlewares/lvgl/examples/layouts/flex/../../../src/core/../misc/lv_anim.h ****  * Make the animation to play back to when the forward direction is ready
 236:Middlewares/lvgl/examples/layouts/flex/../../../src/core/../misc/lv_anim.h ****  * @param a         pointer to an initialized `lv_anim_t` variable
 237:Middlewares/lvgl/examples/layouts/flex/../../../src/core/../misc/lv_anim.h ****  * @param delay     delay in milliseconds before starting the playback animation.
 238:Middlewares/lvgl/examples/layouts/flex/../../../src/core/../misc/lv_anim.h ****  */
 239:Middlewares/lvgl/examples/layouts/flex/../../../src/core/../misc/lv_anim.h **** static inline void lv_anim_set_playback_delay(lv_anim_t * a, uint32_t delay)
 240:Middlewares/lvgl/examples/layouts/flex/../../../src/core/../misc/lv_anim.h **** {
 241:Middlewares/lvgl/examples/layouts/flex/../../../src/core/../misc/lv_anim.h ****     a->playback_delay = delay;
 242:Middlewares/lvgl/examples/layouts/flex/../../../src/core/../misc/lv_anim.h **** }
 243:Middlewares/lvgl/examples/layouts/flex/../../../src/core/../misc/lv_anim.h **** 
 244:Middlewares/lvgl/examples/layouts/flex/../../../src/core/../misc/lv_anim.h **** /**
 245:Middlewares/lvgl/examples/layouts/flex/../../../src/core/../misc/lv_anim.h ****  * Make the animation repeat itself.
 246:Middlewares/lvgl/examples/layouts/flex/../../../src/core/../misc/lv_anim.h ****  * @param a         pointer to an initialized `lv_anim_t` variable
 247:Middlewares/lvgl/examples/layouts/flex/../../../src/core/../misc/lv_anim.h ****  * @param cnt       repeat count or `LV_ANIM_REPEAT_INFINITE` for infinite repetition. 0: to disabl
 248:Middlewares/lvgl/examples/layouts/flex/../../../src/core/../misc/lv_anim.h ****  */
 249:Middlewares/lvgl/examples/layouts/flex/../../../src/core/../misc/lv_anim.h **** static inline void lv_anim_set_repeat_count(lv_anim_t * a, uint16_t cnt)
 255              		.loc 4 249 20 view .LVU57
 256              	.LBB62:
 250:Middlewares/lvgl/examples/layouts/flex/../../../src/core/../misc/lv_anim.h **** {
 251:Middlewares/lvgl/examples/layouts/flex/../../../src/core/../misc/lv_anim.h ****     a->repeat_cnt = cnt;
 257              		.loc 4 251 5 view .LVU58
 258              		.loc 4 251 19 is_stmt 0 view .LVU59
 259 007a 4FF6FF73 		movw	r3, #65535
 260 007e ADF84030 		strh	r3, [sp, #64]	@ movhi
 261              	.LVL25:
 262              		.loc 4 251 19 view .LVU60
 263              	.LBE62:
 264              	.LBE61:
  39:Middlewares/lvgl/examples/layouts/flex/lv_example_flex_5.c **** 
ARM GAS  /tmp/ccEp6R0U.s 			page 17


  40:Middlewares/lvgl/examples/layouts/flex/lv_example_flex_5.c ****     lv_anim_set_exec_cb(&a, row_gap_anim);
 265              		.loc 1 40 5 is_stmt 1 view .LVU61
 266              	.LBB63:
 267              	.LBI63:
 131:Middlewares/lvgl/examples/layouts/flex/../../../src/core/../misc/lv_anim.h **** {
 268              		.loc 4 131 20 view .LVU62
 269              	.LBB64:
 133:Middlewares/lvgl/examples/layouts/flex/../../../src/core/../misc/lv_anim.h **** }
 270              		.loc 4 133 5 view .LVU63
 133:Middlewares/lvgl/examples/layouts/flex/../../../src/core/../misc/lv_anim.h **** }
 271              		.loc 4 133 16 is_stmt 0 view .LVU64
 272 0082 0B4B     		ldr	r3, .L9+4
 273 0084 0293     		str	r3, [sp, #8]
 274              	.LVL26:
 133:Middlewares/lvgl/examples/layouts/flex/../../../src/core/../misc/lv_anim.h **** }
 275              		.loc 4 133 16 view .LVU65
 276              	.LBE64:
 277              	.LBE63:
  41:Middlewares/lvgl/examples/layouts/flex/lv_example_flex_5.c ****     lv_anim_set_time(&a, 500);
 278              		.loc 1 41 5 is_stmt 1 view .LVU66
 279              	.LBB65:
 280              	.LBI65:
 141:Middlewares/lvgl/examples/layouts/flex/../../../src/core/../misc/lv_anim.h **** {
 281              		.loc 4 141 20 view .LVU67
 282              	.LBB66:
 143:Middlewares/lvgl/examples/layouts/flex/../../../src/core/../misc/lv_anim.h **** }
 283              		.loc 4 143 5 view .LVU68
 143:Middlewares/lvgl/examples/layouts/flex/../../../src/core/../misc/lv_anim.h **** }
 284              		.loc 4 143 13 is_stmt 0 view .LVU69
 285 0086 4FF4FA73 		mov	r3, #500
 286 008a 0B93     		str	r3, [sp, #44]
 287              	.LVL27:
 143:Middlewares/lvgl/examples/layouts/flex/../../../src/core/../misc/lv_anim.h **** }
 288              		.loc 4 143 13 view .LVU70
 289              	.LBE66:
 290              	.LBE65:
  42:Middlewares/lvgl/examples/layouts/flex/lv_example_flex_5.c ****     lv_anim_set_playback_time(&a, 500);
 291              		.loc 1 42 5 is_stmt 1 view .LVU71
 292              	.LBB67:
 293              	.LBI67:
 229:Middlewares/lvgl/examples/layouts/flex/../../../src/core/../misc/lv_anim.h **** {
 294              		.loc 4 229 20 view .LVU72
 295              	.LBB68:
 231:Middlewares/lvgl/examples/layouts/flex/../../../src/core/../misc/lv_anim.h **** }
 296              		.loc 4 231 5 view .LVU73
 231:Middlewares/lvgl/examples/layouts/flex/../../../src/core/../misc/lv_anim.h **** }
 297              		.loc 4 231 22 is_stmt 0 view .LVU74
 298 008c 0E93     		str	r3, [sp, #56]
 299              	.LVL28:
 231:Middlewares/lvgl/examples/layouts/flex/../../../src/core/../misc/lv_anim.h **** }
 300              		.loc 4 231 22 view .LVU75
 301              	.LBE68:
 302              	.LBE67:
  43:Middlewares/lvgl/examples/layouts/flex/lv_example_flex_5.c ****     lv_anim_start(&a);
 303              		.loc 1 43 5 is_stmt 1 view .LVU76
 304 008e 01A8     		add	r0, sp, #4
 305 0090 FFF7FEFF 		bl	lv_anim_start
ARM GAS  /tmp/ccEp6R0U.s 			page 18


 306              	.LVL29:
  44:Middlewares/lvgl/examples/layouts/flex/lv_example_flex_5.c **** 
  45:Middlewares/lvgl/examples/layouts/flex/lv_example_flex_5.c ****     lv_anim_set_exec_cb(&a, column_gap_anim);
 307              		.loc 1 45 5 view .LVU77
 308              	.LBB69:
 309              	.LBI69:
 131:Middlewares/lvgl/examples/layouts/flex/../../../src/core/../misc/lv_anim.h **** {
 310              		.loc 4 131 20 view .LVU78
 311              	.LBB70:
 133:Middlewares/lvgl/examples/layouts/flex/../../../src/core/../misc/lv_anim.h **** }
 312              		.loc 4 133 5 view .LVU79
 133:Middlewares/lvgl/examples/layouts/flex/../../../src/core/../misc/lv_anim.h **** }
 313              		.loc 4 133 16 is_stmt 0 view .LVU80
 314 0094 074B     		ldr	r3, .L9+8
 315 0096 0293     		str	r3, [sp, #8]
 316              	.LVL30:
 133:Middlewares/lvgl/examples/layouts/flex/../../../src/core/../misc/lv_anim.h **** }
 317              		.loc 4 133 16 view .LVU81
 318              	.LBE70:
 319              	.LBE69:
  46:Middlewares/lvgl/examples/layouts/flex/lv_example_flex_5.c ****     lv_anim_set_time(&a, 3000);
 320              		.loc 1 46 5 is_stmt 1 view .LVU82
 321              	.LBB71:
 322              	.LBI71:
 141:Middlewares/lvgl/examples/layouts/flex/../../../src/core/../misc/lv_anim.h **** {
 323              		.loc 4 141 20 view .LVU83
 324              	.LBB72:
 143:Middlewares/lvgl/examples/layouts/flex/../../../src/core/../misc/lv_anim.h **** }
 325              		.loc 4 143 5 view .LVU84
 143:Middlewares/lvgl/examples/layouts/flex/../../../src/core/../misc/lv_anim.h **** }
 326              		.loc 4 143 13 is_stmt 0 view .LVU85
 327 0098 40F6B833 		movw	r3, #3000
 328 009c 0B93     		str	r3, [sp, #44]
 329              	.LVL31:
 143:Middlewares/lvgl/examples/layouts/flex/../../../src/core/../misc/lv_anim.h **** }
 330              		.loc 4 143 13 view .LVU86
 331              	.LBE72:
 332              	.LBE71:
  47:Middlewares/lvgl/examples/layouts/flex/lv_example_flex_5.c ****     lv_anim_set_playback_time(&a, 3000);
 333              		.loc 1 47 5 is_stmt 1 view .LVU87
 334              	.LBB73:
 335              	.LBI73:
 229:Middlewares/lvgl/examples/layouts/flex/../../../src/core/../misc/lv_anim.h **** {
 336              		.loc 4 229 20 view .LVU88
 337              	.LBB74:
 231:Middlewares/lvgl/examples/layouts/flex/../../../src/core/../misc/lv_anim.h **** }
 338              		.loc 4 231 5 view .LVU89
 231:Middlewares/lvgl/examples/layouts/flex/../../../src/core/../misc/lv_anim.h **** }
 339              		.loc 4 231 22 is_stmt 0 view .LVU90
 340 009e 0E93     		str	r3, [sp, #56]
 341              	.LVL32:
 231:Middlewares/lvgl/examples/layouts/flex/../../../src/core/../misc/lv_anim.h **** }
 342              		.loc 4 231 22 view .LVU91
 343              	.LBE74:
 344              	.LBE73:
  48:Middlewares/lvgl/examples/layouts/flex/lv_example_flex_5.c ****     lv_anim_start(&a);
 345              		.loc 1 48 5 is_stmt 1 view .LVU92
ARM GAS  /tmp/ccEp6R0U.s 			page 19


 346 00a0 01A8     		add	r0, sp, #4
 347 00a2 FFF7FEFF 		bl	lv_anim_start
 348              	.LVL33:
  49:Middlewares/lvgl/examples/layouts/flex/lv_example_flex_5.c **** }
 349              		.loc 1 49 1 is_stmt 0 view .LVU93
 350 00a6 12B0     		add	sp, sp, #72
 351              	.LCFI4:
 352              		.cfi_def_cfa_offset 16
 353              		@ sp needed
 354 00a8 70BD     		pop	{r4, r5, r6, pc}
 355              	.LVL34:
 356              	.L10:
 357              		.loc 1 49 1 view .LVU94
 358 00aa 00BF     		.align	2
 359              	.L9:
 360 00ac 00000000 		.word	.LC0
 361 00b0 00000000 		.word	row_gap_anim
 362 00b4 00000000 		.word	column_gap_anim
 363              		.cfi_endproc
 364              	.LFE186:
 366              		.text
 367              	.Letext0:
 368              		.file 5 "/home/akinya/gcc-arm-none-eabi/arm-none-eabi/include/machine/_default_types.h"
 369              		.file 6 "/home/akinya/gcc-arm-none-eabi/arm-none-eabi/include/sys/_stdint.h"
 370              		.file 7 "Middlewares/lvgl/examples/layouts/flex/../../../src/misc/lv_ll.h"
 371              		.file 8 "Middlewares/lvgl/examples/layouts/flex/../../../src/hal/../misc/lv_color.h"
 372              		.file 9 "Middlewares/lvgl/examples/layouts/flex/../../../src/hal/../misc/lv_area.h"
 373              		.file 10 "Middlewares/lvgl/examples/layouts/flex/../../../src/core/lv_obj.h"
 374              		.file 11 "Middlewares/lvgl/examples/layouts/flex/../../../src/core/lv_group.h"
 375              		.file 12 "Middlewares/lvgl/examples/layouts/flex/../../../src/core/../misc/lv_style.h"
 376              		.file 13 "Middlewares/lvgl/examples/layouts/flex/../../../src/core/lv_obj_scroll.h"
 377              		.file 14 "Middlewares/lvgl/examples/layouts/flex/../../../src/core/lv_obj_style.h"
 378              		.file 15 "Middlewares/lvgl/examples/layouts/flex/../../../src/core/lv_obj_class.h"
 379              		.file 16 "Middlewares/lvgl/examples/layouts/flex/../../../src/core/lv_event.h"
 380              		.file 17 "Middlewares/lvgl/examples/layouts/flex/../../../src/extra/widgets/list/../../layouts/fle
 381              		.file 18 "Middlewares/lvgl/examples/layouts/flex/../../../src/widgets/lv_label.h"
 382              		.file 19 "Middlewares/lvgl/examples/layouts/flex/../../../src/hal/lv_hal_disp.h"
 383              		.file 20 "Middlewares/lvgl/examples/layouts/flex/../../../src/core/lv_obj_style_gen.h"
ARM GAS  /tmp/ccEp6R0U.s 			page 20

