ARM GAS  /tmp/cc2Wv7Zs.s 			page 1


   1              		.cpu cortex-m4
   2              		.eabi_attribute 27, 1
   3              		.eabi_attribute 28, 1
   4              		.eabi_attribute 20, 1
   5              		.eabi_attribute 21, 1
   6              		.eabi_attribute 23, 3
   7              		.eabi_attribute 24, 1
   8              		.eabi_attribute 25, 1
   9              		.eabi_attribute 26, 1
  10              		.eabi_attribute 30, 1
  11              		.eabi_attribute 34, 1
  12              		.eabi_attribute 18, 4
  13              		.file	"lv_fs.c"
  14              		.text
  15              	.Ltext0:
  16              		.cfi_sections	.debug_frame
  17              		.section	.text.lv_fs_get_real_path,"ax",%progbits
  18              		.align	1
  19              		.arch armv7e-m
  20              		.syntax unified
  21              		.thumb
  22              		.thumb_func
  23              		.fpu fpv4-sp-d16
  25              	lv_fs_get_real_path:
  26              	.LVL0:
  27              	.LFB41:
  28              		.file 1 "Middlewares/lvgl/src/misc/lv_fs.c"
   1:Middlewares/lvgl/src/misc/lv_fs.c **** /**
   2:Middlewares/lvgl/src/misc/lv_fs.c ****  * @file lv_fs.c
   3:Middlewares/lvgl/src/misc/lv_fs.c ****  *
   4:Middlewares/lvgl/src/misc/lv_fs.c ****  */
   5:Middlewares/lvgl/src/misc/lv_fs.c **** 
   6:Middlewares/lvgl/src/misc/lv_fs.c **** /*********************
   7:Middlewares/lvgl/src/misc/lv_fs.c ****  *      INCLUDES
   8:Middlewares/lvgl/src/misc/lv_fs.c ****  *********************/
   9:Middlewares/lvgl/src/misc/lv_fs.c **** #include "lv_fs.h"
  10:Middlewares/lvgl/src/misc/lv_fs.c **** 
  11:Middlewares/lvgl/src/misc/lv_fs.c **** #include "../misc/lv_assert.h"
  12:Middlewares/lvgl/src/misc/lv_fs.c **** #include "lv_ll.h"
  13:Middlewares/lvgl/src/misc/lv_fs.c **** #include <string.h>
  14:Middlewares/lvgl/src/misc/lv_fs.c **** #include "lv_gc.h"
  15:Middlewares/lvgl/src/misc/lv_fs.c **** 
  16:Middlewares/lvgl/src/misc/lv_fs.c **** /*********************
  17:Middlewares/lvgl/src/misc/lv_fs.c ****  *      DEFINES
  18:Middlewares/lvgl/src/misc/lv_fs.c ****  *********************/
  19:Middlewares/lvgl/src/misc/lv_fs.c **** 
  20:Middlewares/lvgl/src/misc/lv_fs.c **** /**
  21:Middlewares/lvgl/src/misc/lv_fs.c ****  * "free" is used as a function pointer (in lv_fs_drv_t).
  22:Middlewares/lvgl/src/misc/lv_fs.c ****  * We must make sure "free" was not defined to a platform specific
  23:Middlewares/lvgl/src/misc/lv_fs.c ****  * free function, otherwise compilation would fail.
  24:Middlewares/lvgl/src/misc/lv_fs.c ****  */
  25:Middlewares/lvgl/src/misc/lv_fs.c **** #ifdef free
  26:Middlewares/lvgl/src/misc/lv_fs.c ****     #undef free
  27:Middlewares/lvgl/src/misc/lv_fs.c **** #endif
  28:Middlewares/lvgl/src/misc/lv_fs.c **** 
  29:Middlewares/lvgl/src/misc/lv_fs.c **** /**********************
  30:Middlewares/lvgl/src/misc/lv_fs.c ****  *      TYPEDEFS
ARM GAS  /tmp/cc2Wv7Zs.s 			page 2


  31:Middlewares/lvgl/src/misc/lv_fs.c ****  **********************/
  32:Middlewares/lvgl/src/misc/lv_fs.c **** 
  33:Middlewares/lvgl/src/misc/lv_fs.c **** /**********************
  34:Middlewares/lvgl/src/misc/lv_fs.c ****  *  STATIC PROTOTYPES
  35:Middlewares/lvgl/src/misc/lv_fs.c ****  **********************/
  36:Middlewares/lvgl/src/misc/lv_fs.c **** static const char * lv_fs_get_real_path(const char * path);
  37:Middlewares/lvgl/src/misc/lv_fs.c **** 
  38:Middlewares/lvgl/src/misc/lv_fs.c **** /**********************
  39:Middlewares/lvgl/src/misc/lv_fs.c ****  *  STATIC VARIABLES
  40:Middlewares/lvgl/src/misc/lv_fs.c ****  **********************/
  41:Middlewares/lvgl/src/misc/lv_fs.c **** 
  42:Middlewares/lvgl/src/misc/lv_fs.c **** /**********************
  43:Middlewares/lvgl/src/misc/lv_fs.c ****  *      MACROS
  44:Middlewares/lvgl/src/misc/lv_fs.c ****  **********************/
  45:Middlewares/lvgl/src/misc/lv_fs.c **** 
  46:Middlewares/lvgl/src/misc/lv_fs.c **** /**********************
  47:Middlewares/lvgl/src/misc/lv_fs.c ****  *   GLOBAL FUNCTIONS
  48:Middlewares/lvgl/src/misc/lv_fs.c ****  **********************/
  49:Middlewares/lvgl/src/misc/lv_fs.c **** 
  50:Middlewares/lvgl/src/misc/lv_fs.c **** void _lv_fs_init(void)
  51:Middlewares/lvgl/src/misc/lv_fs.c **** {
  52:Middlewares/lvgl/src/misc/lv_fs.c ****     _lv_ll_init(&LV_GC_ROOT(_lv_fsdrv_ll), sizeof(lv_fs_drv_t *));
  53:Middlewares/lvgl/src/misc/lv_fs.c **** }
  54:Middlewares/lvgl/src/misc/lv_fs.c **** 
  55:Middlewares/lvgl/src/misc/lv_fs.c **** bool lv_fs_is_ready(char letter)
  56:Middlewares/lvgl/src/misc/lv_fs.c **** {
  57:Middlewares/lvgl/src/misc/lv_fs.c ****     lv_fs_drv_t * drv = lv_fs_get_drv(letter);
  58:Middlewares/lvgl/src/misc/lv_fs.c **** 
  59:Middlewares/lvgl/src/misc/lv_fs.c ****     if(drv == NULL) return false; /*An unknown driver in not ready*/
  60:Middlewares/lvgl/src/misc/lv_fs.c **** 
  61:Middlewares/lvgl/src/misc/lv_fs.c ****     if(drv->ready_cb == NULL) return true; /*Assume the driver is always ready if no handler provid
  62:Middlewares/lvgl/src/misc/lv_fs.c **** 
  63:Middlewares/lvgl/src/misc/lv_fs.c ****     return drv->ready_cb(drv);
  64:Middlewares/lvgl/src/misc/lv_fs.c **** }
  65:Middlewares/lvgl/src/misc/lv_fs.c **** 
  66:Middlewares/lvgl/src/misc/lv_fs.c **** lv_fs_res_t lv_fs_open(lv_fs_file_t * file_p, const char * path, lv_fs_mode_t mode)
  67:Middlewares/lvgl/src/misc/lv_fs.c **** {
  68:Middlewares/lvgl/src/misc/lv_fs.c ****     if(path == NULL) {
  69:Middlewares/lvgl/src/misc/lv_fs.c ****         LV_LOG_WARN("Can't open file: path is NULL");
  70:Middlewares/lvgl/src/misc/lv_fs.c ****         return LV_FS_RES_INV_PARAM;
  71:Middlewares/lvgl/src/misc/lv_fs.c ****     }
  72:Middlewares/lvgl/src/misc/lv_fs.c **** 
  73:Middlewares/lvgl/src/misc/lv_fs.c ****     char letter = path[0];
  74:Middlewares/lvgl/src/misc/lv_fs.c ****     lv_fs_drv_t * drv = lv_fs_get_drv(letter);
  75:Middlewares/lvgl/src/misc/lv_fs.c **** 
  76:Middlewares/lvgl/src/misc/lv_fs.c ****     if(drv == NULL) {
  77:Middlewares/lvgl/src/misc/lv_fs.c ****         LV_LOG_WARN("Can't open file (%s): unknown driver letter", path);
  78:Middlewares/lvgl/src/misc/lv_fs.c ****         return LV_FS_RES_NOT_EX;
  79:Middlewares/lvgl/src/misc/lv_fs.c ****     }
  80:Middlewares/lvgl/src/misc/lv_fs.c **** 
  81:Middlewares/lvgl/src/misc/lv_fs.c ****     if(drv->ready_cb) {
  82:Middlewares/lvgl/src/misc/lv_fs.c ****         if(drv->ready_cb(drv) == false) {
  83:Middlewares/lvgl/src/misc/lv_fs.c ****             LV_LOG_WARN("Can't open file (%s): driver not ready", path);
  84:Middlewares/lvgl/src/misc/lv_fs.c ****             return LV_FS_RES_HW_ERR;
  85:Middlewares/lvgl/src/misc/lv_fs.c ****         }
  86:Middlewares/lvgl/src/misc/lv_fs.c ****     }
  87:Middlewares/lvgl/src/misc/lv_fs.c **** 
ARM GAS  /tmp/cc2Wv7Zs.s 			page 3


  88:Middlewares/lvgl/src/misc/lv_fs.c ****     if(drv->open_cb == NULL) {
  89:Middlewares/lvgl/src/misc/lv_fs.c ****         LV_LOG_WARN("Can't open file (%s): open function not exists", path);
  90:Middlewares/lvgl/src/misc/lv_fs.c ****         return LV_FS_RES_NOT_IMP;
  91:Middlewares/lvgl/src/misc/lv_fs.c ****     }
  92:Middlewares/lvgl/src/misc/lv_fs.c **** 
  93:Middlewares/lvgl/src/misc/lv_fs.c ****     const char * real_path = lv_fs_get_real_path(path);
  94:Middlewares/lvgl/src/misc/lv_fs.c ****     void *file_d = drv->open_cb(drv, real_path, mode);
  95:Middlewares/lvgl/src/misc/lv_fs.c **** 
  96:Middlewares/lvgl/src/misc/lv_fs.c ****     if(file_d == NULL || file_d == (void*)(-1)) {
  97:Middlewares/lvgl/src/misc/lv_fs.c ****         return LV_FS_RES_UNKNOWN;
  98:Middlewares/lvgl/src/misc/lv_fs.c ****     }
  99:Middlewares/lvgl/src/misc/lv_fs.c **** 
 100:Middlewares/lvgl/src/misc/lv_fs.c ****     file_p->drv = drv;
 101:Middlewares/lvgl/src/misc/lv_fs.c ****     file_p->file_d = file_d;
 102:Middlewares/lvgl/src/misc/lv_fs.c **** 
 103:Middlewares/lvgl/src/misc/lv_fs.c ****     return LV_FS_RES_OK;
 104:Middlewares/lvgl/src/misc/lv_fs.c **** }
 105:Middlewares/lvgl/src/misc/lv_fs.c **** 
 106:Middlewares/lvgl/src/misc/lv_fs.c **** lv_fs_res_t lv_fs_close(lv_fs_file_t * file_p)
 107:Middlewares/lvgl/src/misc/lv_fs.c **** {
 108:Middlewares/lvgl/src/misc/lv_fs.c ****     if(file_p->drv == NULL) {
 109:Middlewares/lvgl/src/misc/lv_fs.c ****         return LV_FS_RES_INV_PARAM;
 110:Middlewares/lvgl/src/misc/lv_fs.c ****     }
 111:Middlewares/lvgl/src/misc/lv_fs.c **** 
 112:Middlewares/lvgl/src/misc/lv_fs.c ****     if(file_p->drv->close_cb == NULL) {
 113:Middlewares/lvgl/src/misc/lv_fs.c ****         return LV_FS_RES_NOT_IMP;
 114:Middlewares/lvgl/src/misc/lv_fs.c ****     }
 115:Middlewares/lvgl/src/misc/lv_fs.c **** 
 116:Middlewares/lvgl/src/misc/lv_fs.c ****     lv_fs_res_t res = file_p->drv->close_cb(file_p->drv, file_p->file_d);
 117:Middlewares/lvgl/src/misc/lv_fs.c **** 
 118:Middlewares/lvgl/src/misc/lv_fs.c ****     file_p->file_d = NULL;
 119:Middlewares/lvgl/src/misc/lv_fs.c ****     file_p->drv    = NULL;
 120:Middlewares/lvgl/src/misc/lv_fs.c **** 
 121:Middlewares/lvgl/src/misc/lv_fs.c ****     return res;
 122:Middlewares/lvgl/src/misc/lv_fs.c **** }
 123:Middlewares/lvgl/src/misc/lv_fs.c **** 
 124:Middlewares/lvgl/src/misc/lv_fs.c **** lv_fs_res_t lv_fs_read(lv_fs_file_t * file_p, void * buf, uint32_t btr, uint32_t * br)
 125:Middlewares/lvgl/src/misc/lv_fs.c **** {
 126:Middlewares/lvgl/src/misc/lv_fs.c ****     if(br != NULL) *br = 0;
 127:Middlewares/lvgl/src/misc/lv_fs.c ****     if(file_p->drv == NULL) return LV_FS_RES_INV_PARAM;
 128:Middlewares/lvgl/src/misc/lv_fs.c ****     if(file_p->drv->read_cb == NULL) return LV_FS_RES_NOT_IMP;
 129:Middlewares/lvgl/src/misc/lv_fs.c **** 
 130:Middlewares/lvgl/src/misc/lv_fs.c ****     uint32_t br_tmp = 0;
 131:Middlewares/lvgl/src/misc/lv_fs.c ****     lv_fs_res_t res = file_p->drv->read_cb(file_p->drv, file_p->file_d, buf, btr, &br_tmp);
 132:Middlewares/lvgl/src/misc/lv_fs.c ****     if(br != NULL) *br = br_tmp;
 133:Middlewares/lvgl/src/misc/lv_fs.c **** 
 134:Middlewares/lvgl/src/misc/lv_fs.c ****     return res;
 135:Middlewares/lvgl/src/misc/lv_fs.c **** }
 136:Middlewares/lvgl/src/misc/lv_fs.c **** 
 137:Middlewares/lvgl/src/misc/lv_fs.c **** lv_fs_res_t lv_fs_write(lv_fs_file_t * file_p, const void * buf, uint32_t btw, uint32_t * bw)
 138:Middlewares/lvgl/src/misc/lv_fs.c **** {
 139:Middlewares/lvgl/src/misc/lv_fs.c ****     if(bw != NULL) *bw = 0;
 140:Middlewares/lvgl/src/misc/lv_fs.c **** 
 141:Middlewares/lvgl/src/misc/lv_fs.c ****     if(file_p->drv == NULL) {
 142:Middlewares/lvgl/src/misc/lv_fs.c ****         return LV_FS_RES_INV_PARAM;
 143:Middlewares/lvgl/src/misc/lv_fs.c ****     }
 144:Middlewares/lvgl/src/misc/lv_fs.c **** 
ARM GAS  /tmp/cc2Wv7Zs.s 			page 4


 145:Middlewares/lvgl/src/misc/lv_fs.c ****     if(file_p->drv->write_cb == NULL) {
 146:Middlewares/lvgl/src/misc/lv_fs.c ****         return LV_FS_RES_NOT_IMP;
 147:Middlewares/lvgl/src/misc/lv_fs.c ****     }
 148:Middlewares/lvgl/src/misc/lv_fs.c **** 
 149:Middlewares/lvgl/src/misc/lv_fs.c ****     uint32_t bw_tmp = 0;
 150:Middlewares/lvgl/src/misc/lv_fs.c ****     lv_fs_res_t res = file_p->drv->write_cb(file_p->drv, file_p->file_d, buf, btw, &bw_tmp);
 151:Middlewares/lvgl/src/misc/lv_fs.c ****     if(bw != NULL) *bw = bw_tmp;
 152:Middlewares/lvgl/src/misc/lv_fs.c **** 
 153:Middlewares/lvgl/src/misc/lv_fs.c ****     return res;
 154:Middlewares/lvgl/src/misc/lv_fs.c **** }
 155:Middlewares/lvgl/src/misc/lv_fs.c **** 
 156:Middlewares/lvgl/src/misc/lv_fs.c **** lv_fs_res_t lv_fs_seek(lv_fs_file_t * file_p, uint32_t pos, lv_fs_whence_t whence)
 157:Middlewares/lvgl/src/misc/lv_fs.c **** {
 158:Middlewares/lvgl/src/misc/lv_fs.c ****     if(file_p->drv == NULL) {
 159:Middlewares/lvgl/src/misc/lv_fs.c ****         return LV_FS_RES_INV_PARAM;
 160:Middlewares/lvgl/src/misc/lv_fs.c ****     }
 161:Middlewares/lvgl/src/misc/lv_fs.c **** 
 162:Middlewares/lvgl/src/misc/lv_fs.c ****     if(file_p->drv->seek_cb == NULL) {
 163:Middlewares/lvgl/src/misc/lv_fs.c ****         return LV_FS_RES_NOT_IMP;
 164:Middlewares/lvgl/src/misc/lv_fs.c ****     }
 165:Middlewares/lvgl/src/misc/lv_fs.c **** 
 166:Middlewares/lvgl/src/misc/lv_fs.c ****     lv_fs_res_t res = file_p->drv->seek_cb(file_p->drv, file_p->file_d, pos, whence);
 167:Middlewares/lvgl/src/misc/lv_fs.c **** 
 168:Middlewares/lvgl/src/misc/lv_fs.c ****     return res;
 169:Middlewares/lvgl/src/misc/lv_fs.c **** }
 170:Middlewares/lvgl/src/misc/lv_fs.c **** 
 171:Middlewares/lvgl/src/misc/lv_fs.c **** lv_fs_res_t lv_fs_tell(lv_fs_file_t * file_p, uint32_t * pos)
 172:Middlewares/lvgl/src/misc/lv_fs.c **** {
 173:Middlewares/lvgl/src/misc/lv_fs.c ****     if(file_p->drv == NULL) {
 174:Middlewares/lvgl/src/misc/lv_fs.c ****         *pos = 0;
 175:Middlewares/lvgl/src/misc/lv_fs.c ****         return LV_FS_RES_INV_PARAM;
 176:Middlewares/lvgl/src/misc/lv_fs.c ****     }
 177:Middlewares/lvgl/src/misc/lv_fs.c **** 
 178:Middlewares/lvgl/src/misc/lv_fs.c ****     if(file_p->drv->tell_cb == NULL) {
 179:Middlewares/lvgl/src/misc/lv_fs.c ****         *pos = 0;
 180:Middlewares/lvgl/src/misc/lv_fs.c ****         return LV_FS_RES_NOT_IMP;
 181:Middlewares/lvgl/src/misc/lv_fs.c ****     }
 182:Middlewares/lvgl/src/misc/lv_fs.c **** 
 183:Middlewares/lvgl/src/misc/lv_fs.c ****     lv_fs_res_t res = file_p->drv->tell_cb(file_p->drv, file_p->file_d, pos);
 184:Middlewares/lvgl/src/misc/lv_fs.c **** 
 185:Middlewares/lvgl/src/misc/lv_fs.c ****     return res;
 186:Middlewares/lvgl/src/misc/lv_fs.c **** }
 187:Middlewares/lvgl/src/misc/lv_fs.c **** 
 188:Middlewares/lvgl/src/misc/lv_fs.c **** lv_fs_res_t lv_fs_dir_open(lv_fs_dir_t * rddir_p, const char * path)
 189:Middlewares/lvgl/src/misc/lv_fs.c **** {
 190:Middlewares/lvgl/src/misc/lv_fs.c ****     if(path == NULL) return LV_FS_RES_INV_PARAM;
 191:Middlewares/lvgl/src/misc/lv_fs.c **** 
 192:Middlewares/lvgl/src/misc/lv_fs.c ****     char letter = path[0];
 193:Middlewares/lvgl/src/misc/lv_fs.c ****     lv_fs_drv_t * drv = lv_fs_get_drv(letter);
 194:Middlewares/lvgl/src/misc/lv_fs.c **** 
 195:Middlewares/lvgl/src/misc/lv_fs.c ****     if(drv == NULL) {
 196:Middlewares/lvgl/src/misc/lv_fs.c ****         return LV_FS_RES_NOT_EX;
 197:Middlewares/lvgl/src/misc/lv_fs.c ****     }
 198:Middlewares/lvgl/src/misc/lv_fs.c **** 
 199:Middlewares/lvgl/src/misc/lv_fs.c ****     if(drv->ready_cb) {
 200:Middlewares/lvgl/src/misc/lv_fs.c ****         if(drv->ready_cb(drv) == false) {
 201:Middlewares/lvgl/src/misc/lv_fs.c ****             return LV_FS_RES_HW_ERR;
ARM GAS  /tmp/cc2Wv7Zs.s 			page 5


 202:Middlewares/lvgl/src/misc/lv_fs.c ****         }
 203:Middlewares/lvgl/src/misc/lv_fs.c ****     }
 204:Middlewares/lvgl/src/misc/lv_fs.c **** 
 205:Middlewares/lvgl/src/misc/lv_fs.c ****     if(drv->dir_open_cb == NULL) {
 206:Middlewares/lvgl/src/misc/lv_fs.c ****         return LV_FS_RES_NOT_IMP;
 207:Middlewares/lvgl/src/misc/lv_fs.c ****     }
 208:Middlewares/lvgl/src/misc/lv_fs.c **** 
 209:Middlewares/lvgl/src/misc/lv_fs.c ****     const char * real_path = lv_fs_get_real_path(path);
 210:Middlewares/lvgl/src/misc/lv_fs.c ****     void *dir_d = drv->dir_open_cb(drv, real_path);
 211:Middlewares/lvgl/src/misc/lv_fs.c **** 
 212:Middlewares/lvgl/src/misc/lv_fs.c ****     if(dir_d == NULL || dir_d == (void*)(-1)) {
 213:Middlewares/lvgl/src/misc/lv_fs.c ****         return LV_FS_RES_UNKNOWN;
 214:Middlewares/lvgl/src/misc/lv_fs.c ****     }
 215:Middlewares/lvgl/src/misc/lv_fs.c **** 
 216:Middlewares/lvgl/src/misc/lv_fs.c ****     rddir_p->drv = drv;
 217:Middlewares/lvgl/src/misc/lv_fs.c ****     rddir_p->dir_d = dir_d;
 218:Middlewares/lvgl/src/misc/lv_fs.c **** 
 219:Middlewares/lvgl/src/misc/lv_fs.c ****     return LV_FS_RES_OK;
 220:Middlewares/lvgl/src/misc/lv_fs.c **** }
 221:Middlewares/lvgl/src/misc/lv_fs.c **** 
 222:Middlewares/lvgl/src/misc/lv_fs.c **** lv_fs_res_t lv_fs_dir_read(lv_fs_dir_t * rddir_p, char * fn)
 223:Middlewares/lvgl/src/misc/lv_fs.c **** {
 224:Middlewares/lvgl/src/misc/lv_fs.c ****     if(rddir_p->drv == NULL || rddir_p->dir_d == NULL) {
 225:Middlewares/lvgl/src/misc/lv_fs.c ****         fn[0] = '\0';
 226:Middlewares/lvgl/src/misc/lv_fs.c ****         return LV_FS_RES_INV_PARAM;
 227:Middlewares/lvgl/src/misc/lv_fs.c ****     }
 228:Middlewares/lvgl/src/misc/lv_fs.c **** 
 229:Middlewares/lvgl/src/misc/lv_fs.c ****     if(rddir_p->drv->dir_read_cb == NULL) {
 230:Middlewares/lvgl/src/misc/lv_fs.c ****         fn[0] = '\0';
 231:Middlewares/lvgl/src/misc/lv_fs.c ****         return LV_FS_RES_NOT_IMP;
 232:Middlewares/lvgl/src/misc/lv_fs.c ****     }
 233:Middlewares/lvgl/src/misc/lv_fs.c **** 
 234:Middlewares/lvgl/src/misc/lv_fs.c ****     lv_fs_res_t res = rddir_p->drv->dir_read_cb(rddir_p->drv, rddir_p->dir_d, fn);
 235:Middlewares/lvgl/src/misc/lv_fs.c **** 
 236:Middlewares/lvgl/src/misc/lv_fs.c ****     return res;
 237:Middlewares/lvgl/src/misc/lv_fs.c **** }
 238:Middlewares/lvgl/src/misc/lv_fs.c **** 
 239:Middlewares/lvgl/src/misc/lv_fs.c **** lv_fs_res_t lv_fs_dir_close(lv_fs_dir_t * rddir_p)
 240:Middlewares/lvgl/src/misc/lv_fs.c **** {
 241:Middlewares/lvgl/src/misc/lv_fs.c ****     if(rddir_p->drv == NULL || rddir_p->dir_d == NULL) {
 242:Middlewares/lvgl/src/misc/lv_fs.c ****         return LV_FS_RES_INV_PARAM;
 243:Middlewares/lvgl/src/misc/lv_fs.c ****     }
 244:Middlewares/lvgl/src/misc/lv_fs.c **** 
 245:Middlewares/lvgl/src/misc/lv_fs.c ****     if(rddir_p->drv->dir_close_cb == NULL) {
 246:Middlewares/lvgl/src/misc/lv_fs.c ****         return LV_FS_RES_NOT_IMP;
 247:Middlewares/lvgl/src/misc/lv_fs.c ****     }
 248:Middlewares/lvgl/src/misc/lv_fs.c **** 
 249:Middlewares/lvgl/src/misc/lv_fs.c ****     lv_fs_res_t res = rddir_p->drv->dir_close_cb(rddir_p->drv, rddir_p->dir_d);
 250:Middlewares/lvgl/src/misc/lv_fs.c **** 
 251:Middlewares/lvgl/src/misc/lv_fs.c ****     rddir_p->dir_d = NULL;
 252:Middlewares/lvgl/src/misc/lv_fs.c ****     rddir_p->drv   = NULL;
 253:Middlewares/lvgl/src/misc/lv_fs.c **** 
 254:Middlewares/lvgl/src/misc/lv_fs.c ****     return res;
 255:Middlewares/lvgl/src/misc/lv_fs.c **** }
 256:Middlewares/lvgl/src/misc/lv_fs.c **** 
 257:Middlewares/lvgl/src/misc/lv_fs.c **** void lv_fs_drv_init(lv_fs_drv_t * drv)
 258:Middlewares/lvgl/src/misc/lv_fs.c **** {
ARM GAS  /tmp/cc2Wv7Zs.s 			page 6


 259:Middlewares/lvgl/src/misc/lv_fs.c ****     lv_memset_00(drv, sizeof(lv_fs_drv_t));
 260:Middlewares/lvgl/src/misc/lv_fs.c **** }
 261:Middlewares/lvgl/src/misc/lv_fs.c **** 
 262:Middlewares/lvgl/src/misc/lv_fs.c **** void lv_fs_drv_register(lv_fs_drv_t * drv_p)
 263:Middlewares/lvgl/src/misc/lv_fs.c **** {
 264:Middlewares/lvgl/src/misc/lv_fs.c ****     /*Save the new driver*/
 265:Middlewares/lvgl/src/misc/lv_fs.c ****     lv_fs_drv_t ** new_drv;
 266:Middlewares/lvgl/src/misc/lv_fs.c ****     new_drv = _lv_ll_ins_head(&LV_GC_ROOT(_lv_fsdrv_ll));
 267:Middlewares/lvgl/src/misc/lv_fs.c ****     LV_ASSERT_MALLOC(new_drv);
 268:Middlewares/lvgl/src/misc/lv_fs.c ****     if(new_drv == NULL) return;
 269:Middlewares/lvgl/src/misc/lv_fs.c **** 
 270:Middlewares/lvgl/src/misc/lv_fs.c ****     *new_drv = drv_p;
 271:Middlewares/lvgl/src/misc/lv_fs.c **** }
 272:Middlewares/lvgl/src/misc/lv_fs.c **** 
 273:Middlewares/lvgl/src/misc/lv_fs.c **** lv_fs_drv_t * lv_fs_get_drv(char letter)
 274:Middlewares/lvgl/src/misc/lv_fs.c **** {
 275:Middlewares/lvgl/src/misc/lv_fs.c ****     lv_fs_drv_t ** drv;
 276:Middlewares/lvgl/src/misc/lv_fs.c **** 
 277:Middlewares/lvgl/src/misc/lv_fs.c ****     _LV_LL_READ(&LV_GC_ROOT(_lv_fsdrv_ll), drv) {
 278:Middlewares/lvgl/src/misc/lv_fs.c ****         if((*drv)->letter == letter) {
 279:Middlewares/lvgl/src/misc/lv_fs.c ****             return *drv;
 280:Middlewares/lvgl/src/misc/lv_fs.c ****         }
 281:Middlewares/lvgl/src/misc/lv_fs.c ****     }
 282:Middlewares/lvgl/src/misc/lv_fs.c **** 
 283:Middlewares/lvgl/src/misc/lv_fs.c ****     return NULL;
 284:Middlewares/lvgl/src/misc/lv_fs.c **** }
 285:Middlewares/lvgl/src/misc/lv_fs.c **** 
 286:Middlewares/lvgl/src/misc/lv_fs.c **** char * lv_fs_get_letters(char * buf)
 287:Middlewares/lvgl/src/misc/lv_fs.c **** {
 288:Middlewares/lvgl/src/misc/lv_fs.c ****     lv_fs_drv_t ** drv;
 289:Middlewares/lvgl/src/misc/lv_fs.c ****     uint8_t i = 0;
 290:Middlewares/lvgl/src/misc/lv_fs.c **** 
 291:Middlewares/lvgl/src/misc/lv_fs.c ****     _LV_LL_READ(&LV_GC_ROOT(_lv_fsdrv_ll), drv) {
 292:Middlewares/lvgl/src/misc/lv_fs.c ****         buf[i] = (*drv)->letter;
 293:Middlewares/lvgl/src/misc/lv_fs.c ****         i++;
 294:Middlewares/lvgl/src/misc/lv_fs.c ****     }
 295:Middlewares/lvgl/src/misc/lv_fs.c **** 
 296:Middlewares/lvgl/src/misc/lv_fs.c ****     buf[i] = '\0';
 297:Middlewares/lvgl/src/misc/lv_fs.c **** 
 298:Middlewares/lvgl/src/misc/lv_fs.c ****     return buf;
 299:Middlewares/lvgl/src/misc/lv_fs.c **** }
 300:Middlewares/lvgl/src/misc/lv_fs.c **** 
 301:Middlewares/lvgl/src/misc/lv_fs.c **** const char * lv_fs_get_ext(const char * fn)
 302:Middlewares/lvgl/src/misc/lv_fs.c **** {
 303:Middlewares/lvgl/src/misc/lv_fs.c ****     size_t i;
 304:Middlewares/lvgl/src/misc/lv_fs.c ****     for(i = strlen(fn); i > 0; i--) {
 305:Middlewares/lvgl/src/misc/lv_fs.c ****         if(fn[i] == '.') {
 306:Middlewares/lvgl/src/misc/lv_fs.c ****             return &fn[i + 1];
 307:Middlewares/lvgl/src/misc/lv_fs.c ****         }
 308:Middlewares/lvgl/src/misc/lv_fs.c ****         else if(fn[i] == '/' || fn[i] == '\\') {
 309:Middlewares/lvgl/src/misc/lv_fs.c ****             return ""; /*No extension if a '\' or '/' found*/
 310:Middlewares/lvgl/src/misc/lv_fs.c ****         }
 311:Middlewares/lvgl/src/misc/lv_fs.c ****     }
 312:Middlewares/lvgl/src/misc/lv_fs.c **** 
 313:Middlewares/lvgl/src/misc/lv_fs.c ****     return ""; /*Empty string if no '.' in the file name.*/
 314:Middlewares/lvgl/src/misc/lv_fs.c **** }
 315:Middlewares/lvgl/src/misc/lv_fs.c **** 
ARM GAS  /tmp/cc2Wv7Zs.s 			page 7


 316:Middlewares/lvgl/src/misc/lv_fs.c **** char * lv_fs_up(char * path)
 317:Middlewares/lvgl/src/misc/lv_fs.c **** {
 318:Middlewares/lvgl/src/misc/lv_fs.c ****     size_t len = strlen(path);
 319:Middlewares/lvgl/src/misc/lv_fs.c ****     if(len == 0) return path;
 320:Middlewares/lvgl/src/misc/lv_fs.c **** 
 321:Middlewares/lvgl/src/misc/lv_fs.c ****     len--; /*Go before the trailing '\0'*/
 322:Middlewares/lvgl/src/misc/lv_fs.c **** 
 323:Middlewares/lvgl/src/misc/lv_fs.c ****     /*Ignore trailing '/' or '\'*/
 324:Middlewares/lvgl/src/misc/lv_fs.c ****     while(path[len] == '/' || path[len] == '\\') {
 325:Middlewares/lvgl/src/misc/lv_fs.c ****         path[len] = '\0';
 326:Middlewares/lvgl/src/misc/lv_fs.c ****         if(len > 0)
 327:Middlewares/lvgl/src/misc/lv_fs.c ****             len--;
 328:Middlewares/lvgl/src/misc/lv_fs.c ****         else
 329:Middlewares/lvgl/src/misc/lv_fs.c ****             return path;
 330:Middlewares/lvgl/src/misc/lv_fs.c ****     }
 331:Middlewares/lvgl/src/misc/lv_fs.c **** 
 332:Middlewares/lvgl/src/misc/lv_fs.c ****     size_t i;
 333:Middlewares/lvgl/src/misc/lv_fs.c ****     for(i = len; i > 0; i--) {
 334:Middlewares/lvgl/src/misc/lv_fs.c ****         if(path[i] == '/' || path[i] == '\\') break;
 335:Middlewares/lvgl/src/misc/lv_fs.c ****     }
 336:Middlewares/lvgl/src/misc/lv_fs.c **** 
 337:Middlewares/lvgl/src/misc/lv_fs.c ****     if(i > 0) path[i] = '\0';
 338:Middlewares/lvgl/src/misc/lv_fs.c **** 
 339:Middlewares/lvgl/src/misc/lv_fs.c ****     return path;
 340:Middlewares/lvgl/src/misc/lv_fs.c **** }
 341:Middlewares/lvgl/src/misc/lv_fs.c **** 
 342:Middlewares/lvgl/src/misc/lv_fs.c **** const char * lv_fs_get_last(const char * path)
 343:Middlewares/lvgl/src/misc/lv_fs.c **** {
 344:Middlewares/lvgl/src/misc/lv_fs.c ****     size_t len = strlen(path);
 345:Middlewares/lvgl/src/misc/lv_fs.c ****     if(len == 0) return path;
 346:Middlewares/lvgl/src/misc/lv_fs.c **** 
 347:Middlewares/lvgl/src/misc/lv_fs.c ****     len--; /*Go before the trailing '\0'*/
 348:Middlewares/lvgl/src/misc/lv_fs.c **** 
 349:Middlewares/lvgl/src/misc/lv_fs.c ****     /*Ignore trailing '/' or '\'*/
 350:Middlewares/lvgl/src/misc/lv_fs.c ****     while(path[len] == '/' || path[len] == '\\') {
 351:Middlewares/lvgl/src/misc/lv_fs.c ****         if(len > 0)
 352:Middlewares/lvgl/src/misc/lv_fs.c ****             len--;
 353:Middlewares/lvgl/src/misc/lv_fs.c ****         else
 354:Middlewares/lvgl/src/misc/lv_fs.c ****             return path;
 355:Middlewares/lvgl/src/misc/lv_fs.c ****     }
 356:Middlewares/lvgl/src/misc/lv_fs.c **** 
 357:Middlewares/lvgl/src/misc/lv_fs.c ****     size_t i;
 358:Middlewares/lvgl/src/misc/lv_fs.c ****     for(i = len; i > 0; i--) {
 359:Middlewares/lvgl/src/misc/lv_fs.c ****         if(path[i] == '/' || path[i] == '\\') break;
 360:Middlewares/lvgl/src/misc/lv_fs.c ****     }
 361:Middlewares/lvgl/src/misc/lv_fs.c **** 
 362:Middlewares/lvgl/src/misc/lv_fs.c ****     /*No '/' or '\' in the path so return with path itself*/
 363:Middlewares/lvgl/src/misc/lv_fs.c ****     if(i == 0) return path;
 364:Middlewares/lvgl/src/misc/lv_fs.c **** 
 365:Middlewares/lvgl/src/misc/lv_fs.c ****     return &path[i + 1];
 366:Middlewares/lvgl/src/misc/lv_fs.c **** }
 367:Middlewares/lvgl/src/misc/lv_fs.c **** /**********************
 368:Middlewares/lvgl/src/misc/lv_fs.c ****  *   STATIC FUNCTIONS
 369:Middlewares/lvgl/src/misc/lv_fs.c ****  **********************/
 370:Middlewares/lvgl/src/misc/lv_fs.c **** 
 371:Middlewares/lvgl/src/misc/lv_fs.c **** /**
 372:Middlewares/lvgl/src/misc/lv_fs.c ****  * Skip the driver letter and the possible : after the letter
ARM GAS  /tmp/cc2Wv7Zs.s 			page 8


 373:Middlewares/lvgl/src/misc/lv_fs.c ****  * @param path path string (E.g. S:/folder/file.txt)
 374:Middlewares/lvgl/src/misc/lv_fs.c ****  * @return pointer to the beginning of the real path (E.g. /folder/file.txt)
 375:Middlewares/lvgl/src/misc/lv_fs.c ****  */
 376:Middlewares/lvgl/src/misc/lv_fs.c **** static const char * lv_fs_get_real_path(const char * path)
 377:Middlewares/lvgl/src/misc/lv_fs.c **** {
  29              		.loc 1 377 1 view -0
  30              		.cfi_startproc
  31              		@ args = 0, pretend = 0, frame = 0
  32              		@ frame_needed = 0, uses_anonymous_args = 0
  33              		@ link register save eliminated.
  34              		.loc 1 377 1 is_stmt 0 view .LVU1
  35 0000 0346     		mov	r3, r0
 378:Middlewares/lvgl/src/misc/lv_fs.c ****     path++; /*Ignore the driver letter*/
  36              		.loc 1 378 5 is_stmt 1 view .LVU2
  37              		.loc 1 378 9 is_stmt 0 view .LVU3
  38 0002 0130     		adds	r0, r0, #1
  39              	.LVL1:
 379:Middlewares/lvgl/src/misc/lv_fs.c ****     if(*path == ':') path++;
  40              		.loc 1 379 5 is_stmt 1 view .LVU4
  41              		.loc 1 379 8 is_stmt 0 view .LVU5
  42 0004 5A78     		ldrb	r2, [r3, #1]	@ zero_extendqisi2
  43              		.loc 1 379 7 view .LVU6
  44 0006 3A2A     		cmp	r2, #58
  45 0008 00D0     		beq	.L3
  46              	.L1:
 380:Middlewares/lvgl/src/misc/lv_fs.c **** 
 381:Middlewares/lvgl/src/misc/lv_fs.c ****     return path;
 382:Middlewares/lvgl/src/misc/lv_fs.c **** }
  47              		.loc 1 382 1 view .LVU7
  48 000a 7047     		bx	lr
  49              	.L3:
 379:Middlewares/lvgl/src/misc/lv_fs.c ****     if(*path == ':') path++;
  50              		.loc 1 379 22 is_stmt 1 discriminator 1 view .LVU8
 379:Middlewares/lvgl/src/misc/lv_fs.c ****     if(*path == ':') path++;
  51              		.loc 1 379 26 is_stmt 0 discriminator 1 view .LVU9
  52 000c 981C     		adds	r0, r3, #2
  53              	.LVL2:
 381:Middlewares/lvgl/src/misc/lv_fs.c **** }
  54              		.loc 1 381 5 is_stmt 1 discriminator 1 view .LVU10
 381:Middlewares/lvgl/src/misc/lv_fs.c **** }
  55              		.loc 1 381 12 is_stmt 0 discriminator 1 view .LVU11
  56 000e FCE7     		b	.L1
  57              		.cfi_endproc
  58              	.LFE41:
  60              		.section	.text._lv_fs_init,"ax",%progbits
  61              		.align	1
  62              		.global	_lv_fs_init
  63              		.syntax unified
  64              		.thumb
  65              		.thumb_func
  66              		.fpu fpv4-sp-d16
  68              	_lv_fs_init:
  69              	.LFB23:
  51:Middlewares/lvgl/src/misc/lv_fs.c ****     _lv_ll_init(&LV_GC_ROOT(_lv_fsdrv_ll), sizeof(lv_fs_drv_t *));
  70              		.loc 1 51 1 is_stmt 1 view -0
  71              		.cfi_startproc
  72              		@ args = 0, pretend = 0, frame = 0
ARM GAS  /tmp/cc2Wv7Zs.s 			page 9


  73              		@ frame_needed = 0, uses_anonymous_args = 0
  74 0000 08B5     		push	{r3, lr}
  75              	.LCFI0:
  76              		.cfi_def_cfa_offset 8
  77              		.cfi_offset 3, -8
  78              		.cfi_offset 14, -4
  52:Middlewares/lvgl/src/misc/lv_fs.c **** }
  79              		.loc 1 52 5 view .LVU13
  80 0002 0421     		movs	r1, #4
  81 0004 0148     		ldr	r0, .L6
  82 0006 FFF7FEFF 		bl	_lv_ll_init
  83              	.LVL3:
  53:Middlewares/lvgl/src/misc/lv_fs.c **** 
  84              		.loc 1 53 1 is_stmt 0 view .LVU14
  85 000a 08BD     		pop	{r3, pc}
  86              	.L7:
  87              		.align	2
  88              	.L6:
  89 000c 00000000 		.word	_lv_fsdrv_ll
  90              		.cfi_endproc
  91              	.LFE23:
  93              		.section	.text.lv_fs_close,"ax",%progbits
  94              		.align	1
  95              		.global	lv_fs_close
  96              		.syntax unified
  97              		.thumb
  98              		.thumb_func
  99              		.fpu fpv4-sp-d16
 101              	lv_fs_close:
 102              	.LVL4:
 103              	.LFB26:
 107:Middlewares/lvgl/src/misc/lv_fs.c ****     if(file_p->drv == NULL) {
 104              		.loc 1 107 1 is_stmt 1 view -0
 105              		.cfi_startproc
 106              		@ args = 0, pretend = 0, frame = 0
 107              		@ frame_needed = 0, uses_anonymous_args = 0
 107:Middlewares/lvgl/src/misc/lv_fs.c ****     if(file_p->drv == NULL) {
 108              		.loc 1 107 1 is_stmt 0 view .LVU16
 109 0000 10B5     		push	{r4, lr}
 110              	.LCFI1:
 111              		.cfi_def_cfa_offset 8
 112              		.cfi_offset 4, -8
 113              		.cfi_offset 14, -4
 114 0002 0446     		mov	r4, r0
 108:Middlewares/lvgl/src/misc/lv_fs.c ****         return LV_FS_RES_INV_PARAM;
 115              		.loc 1 108 5 is_stmt 1 view .LVU17
 108:Middlewares/lvgl/src/misc/lv_fs.c ****         return LV_FS_RES_INV_PARAM;
 116              		.loc 1 108 14 is_stmt 0 view .LVU18
 117 0004 4068     		ldr	r0, [r0, #4]
 118              	.LVL5:
 108:Middlewares/lvgl/src/misc/lv_fs.c ****         return LV_FS_RES_INV_PARAM;
 119              		.loc 1 108 7 view .LVU19
 120 0006 38B1     		cbz	r0, .L10
 112:Middlewares/lvgl/src/misc/lv_fs.c ****         return LV_FS_RES_NOT_IMP;
 121              		.loc 1 112 5 is_stmt 1 view .LVU20
 112:Middlewares/lvgl/src/misc/lv_fs.c ****         return LV_FS_RES_NOT_IMP;
 122              		.loc 1 112 19 is_stmt 0 view .LVU21
ARM GAS  /tmp/cc2Wv7Zs.s 			page 10


 123 0008 C368     		ldr	r3, [r0, #12]
 112:Middlewares/lvgl/src/misc/lv_fs.c ****         return LV_FS_RES_NOT_IMP;
 124              		.loc 1 112 7 view .LVU22
 125 000a 3BB1     		cbz	r3, .L11
 116:Middlewares/lvgl/src/misc/lv_fs.c **** 
 126              		.loc 1 116 5 is_stmt 1 view .LVU23
 116:Middlewares/lvgl/src/misc/lv_fs.c **** 
 127              		.loc 1 116 23 is_stmt 0 view .LVU24
 128 000c 2168     		ldr	r1, [r4]
 129 000e 9847     		blx	r3
 130              	.LVL6:
 118:Middlewares/lvgl/src/misc/lv_fs.c ****     file_p->drv    = NULL;
 131              		.loc 1 118 5 is_stmt 1 view .LVU25
 118:Middlewares/lvgl/src/misc/lv_fs.c ****     file_p->drv    = NULL;
 132              		.loc 1 118 20 is_stmt 0 view .LVU26
 133 0010 0023     		movs	r3, #0
 134 0012 2360     		str	r3, [r4]
 119:Middlewares/lvgl/src/misc/lv_fs.c **** 
 135              		.loc 1 119 5 is_stmt 1 view .LVU27
 119:Middlewares/lvgl/src/misc/lv_fs.c **** 
 136              		.loc 1 119 20 is_stmt 0 view .LVU28
 137 0014 6360     		str	r3, [r4, #4]
 121:Middlewares/lvgl/src/misc/lv_fs.c **** }
 138              		.loc 1 121 5 is_stmt 1 view .LVU29
 139              	.LVL7:
 140              	.L9:
 122:Middlewares/lvgl/src/misc/lv_fs.c **** 
 141              		.loc 1 122 1 is_stmt 0 view .LVU30
 142 0016 10BD     		pop	{r4, pc}
 143              	.LVL8:
 144              	.L10:
 109:Middlewares/lvgl/src/misc/lv_fs.c ****     }
 145              		.loc 1 109 16 view .LVU31
 146 0018 0B20     		movs	r0, #11
 147 001a FCE7     		b	.L9
 148              	.L11:
 113:Middlewares/lvgl/src/misc/lv_fs.c ****     }
 149              		.loc 1 113 16 view .LVU32
 150 001c 0920     		movs	r0, #9
 151 001e FAE7     		b	.L9
 152              		.cfi_endproc
 153              	.LFE26:
 155              		.section	.text.lv_fs_read,"ax",%progbits
 156              		.align	1
 157              		.global	lv_fs_read
 158              		.syntax unified
 159              		.thumb
 160              		.thumb_func
 161              		.fpu fpv4-sp-d16
 163              	lv_fs_read:
 164              	.LVL9:
 165              	.LFB27:
 125:Middlewares/lvgl/src/misc/lv_fs.c ****     if(br != NULL) *br = 0;
 166              		.loc 1 125 1 is_stmt 1 view -0
 167              		.cfi_startproc
 168              		@ args = 0, pretend = 0, frame = 8
 169              		@ frame_needed = 0, uses_anonymous_args = 0
ARM GAS  /tmp/cc2Wv7Zs.s 			page 11


 125:Middlewares/lvgl/src/misc/lv_fs.c ****     if(br != NULL) *br = 0;
 170              		.loc 1 125 1 is_stmt 0 view .LVU34
 171 0000 30B5     		push	{r4, r5, lr}
 172              	.LCFI2:
 173              		.cfi_def_cfa_offset 12
 174              		.cfi_offset 4, -12
 175              		.cfi_offset 5, -8
 176              		.cfi_offset 14, -4
 177 0002 85B0     		sub	sp, sp, #20
 178              	.LCFI3:
 179              		.cfi_def_cfa_offset 32
 180 0004 8446     		mov	ip, r0
 126:Middlewares/lvgl/src/misc/lv_fs.c ****     if(file_p->drv == NULL) return LV_FS_RES_INV_PARAM;
 181              		.loc 1 126 5 is_stmt 1 view .LVU35
 126:Middlewares/lvgl/src/misc/lv_fs.c ****     if(file_p->drv == NULL) return LV_FS_RES_INV_PARAM;
 182              		.loc 1 126 7 is_stmt 0 view .LVU36
 183 0006 1C46     		mov	r4, r3
 184 0008 0BB1     		cbz	r3, .L14
 126:Middlewares/lvgl/src/misc/lv_fs.c ****     if(file_p->drv == NULL) return LV_FS_RES_INV_PARAM;
 185              		.loc 1 126 20 is_stmt 1 discriminator 1 view .LVU37
 126:Middlewares/lvgl/src/misc/lv_fs.c ****     if(file_p->drv == NULL) return LV_FS_RES_INV_PARAM;
 186              		.loc 1 126 24 is_stmt 0 discriminator 1 view .LVU38
 187 000a 0023     		movs	r3, #0
 188              	.LVL10:
 126:Middlewares/lvgl/src/misc/lv_fs.c ****     if(file_p->drv == NULL) return LV_FS_RES_INV_PARAM;
 189              		.loc 1 126 24 discriminator 1 view .LVU39
 190 000c 2360     		str	r3, [r4]
 191              	.L14:
 127:Middlewares/lvgl/src/misc/lv_fs.c ****     if(file_p->drv->read_cb == NULL) return LV_FS_RES_NOT_IMP;
 192              		.loc 1 127 5 is_stmt 1 view .LVU40
 127:Middlewares/lvgl/src/misc/lv_fs.c ****     if(file_p->drv->read_cb == NULL) return LV_FS_RES_NOT_IMP;
 193              		.loc 1 127 14 is_stmt 0 view .LVU41
 194 000e DCF80400 		ldr	r0, [ip, #4]
 195              	.LVL11:
 127:Middlewares/lvgl/src/misc/lv_fs.c ****     if(file_p->drv->read_cb == NULL) return LV_FS_RES_NOT_IMP;
 196              		.loc 1 127 7 view .LVU42
 197 0012 78B1     		cbz	r0, .L16
 128:Middlewares/lvgl/src/misc/lv_fs.c **** 
 198              		.loc 1 128 5 is_stmt 1 view .LVU43
 128:Middlewares/lvgl/src/misc/lv_fs.c **** 
 199              		.loc 1 128 19 is_stmt 0 view .LVU44
 200 0014 0569     		ldr	r5, [r0, #16]
 128:Middlewares/lvgl/src/misc/lv_fs.c **** 
 201              		.loc 1 128 7 view .LVU45
 202 0016 7DB1     		cbz	r5, .L17
 130:Middlewares/lvgl/src/misc/lv_fs.c ****     lv_fs_res_t res = file_p->drv->read_cb(file_p->drv, file_p->file_d, buf, btr, &br_tmp);
 203              		.loc 1 130 5 is_stmt 1 view .LVU46
 130:Middlewares/lvgl/src/misc/lv_fs.c ****     lv_fs_res_t res = file_p->drv->read_cb(file_p->drv, file_p->file_d, buf, btr, &br_tmp);
 204              		.loc 1 130 14 is_stmt 0 view .LVU47
 205 0018 0023     		movs	r3, #0
 206 001a 0393     		str	r3, [sp, #12]
 131:Middlewares/lvgl/src/misc/lv_fs.c ****     if(br != NULL) *br = br_tmp;
 207              		.loc 1 131 5 is_stmt 1 view .LVU48
 131:Middlewares/lvgl/src/misc/lv_fs.c ****     if(br != NULL) *br = br_tmp;
 208              		.loc 1 131 23 is_stmt 0 view .LVU49
 209 001c 03AB     		add	r3, sp, #12
 210 001e 0093     		str	r3, [sp]
ARM GAS  /tmp/cc2Wv7Zs.s 			page 12


 211 0020 1346     		mov	r3, r2
 212 0022 0A46     		mov	r2, r1
 213              	.LVL12:
 131:Middlewares/lvgl/src/misc/lv_fs.c ****     if(br != NULL) *br = br_tmp;
 214              		.loc 1 131 23 view .LVU50
 215 0024 DCF80010 		ldr	r1, [ip]
 216              	.LVL13:
 131:Middlewares/lvgl/src/misc/lv_fs.c ****     if(br != NULL) *br = br_tmp;
 217              		.loc 1 131 23 view .LVU51
 218 0028 A847     		blx	r5
 219              	.LVL14:
 132:Middlewares/lvgl/src/misc/lv_fs.c **** 
 220              		.loc 1 132 5 is_stmt 1 view .LVU52
 132:Middlewares/lvgl/src/misc/lv_fs.c **** 
 221              		.loc 1 132 7 is_stmt 0 view .LVU53
 222 002a 0CB1     		cbz	r4, .L15
 132:Middlewares/lvgl/src/misc/lv_fs.c **** 
 223              		.loc 1 132 20 is_stmt 1 discriminator 1 view .LVU54
 132:Middlewares/lvgl/src/misc/lv_fs.c **** 
 224              		.loc 1 132 24 is_stmt 0 discriminator 1 view .LVU55
 225 002c 039B     		ldr	r3, [sp, #12]
 226 002e 2360     		str	r3, [r4]
 227              	.LVL15:
 228              	.L15:
 135:Middlewares/lvgl/src/misc/lv_fs.c **** 
 229              		.loc 1 135 1 view .LVU56
 230 0030 05B0     		add	sp, sp, #20
 231              	.LCFI4:
 232              		.cfi_remember_state
 233              		.cfi_def_cfa_offset 12
 234              		@ sp needed
 235 0032 30BD     		pop	{r4, r5, pc}
 236              	.LVL16:
 237              	.L16:
 238              	.LCFI5:
 239              		.cfi_restore_state
 127:Middlewares/lvgl/src/misc/lv_fs.c ****     if(file_p->drv->read_cb == NULL) return LV_FS_RES_NOT_IMP;
 240              		.loc 1 127 36 view .LVU57
 241 0034 0B20     		movs	r0, #11
 242 0036 FBE7     		b	.L15
 243              	.L17:
 128:Middlewares/lvgl/src/misc/lv_fs.c **** 
 244              		.loc 1 128 45 view .LVU58
 245 0038 0920     		movs	r0, #9
 246 003a F9E7     		b	.L15
 247              		.cfi_endproc
 248              	.LFE27:
 250              		.section	.text.lv_fs_write,"ax",%progbits
 251              		.align	1
 252              		.global	lv_fs_write
 253              		.syntax unified
 254              		.thumb
 255              		.thumb_func
 256              		.fpu fpv4-sp-d16
 258              	lv_fs_write:
 259              	.LVL17:
 260              	.LFB28:
ARM GAS  /tmp/cc2Wv7Zs.s 			page 13


 138:Middlewares/lvgl/src/misc/lv_fs.c ****     if(bw != NULL) *bw = 0;
 261              		.loc 1 138 1 is_stmt 1 view -0
 262              		.cfi_startproc
 263              		@ args = 0, pretend = 0, frame = 8
 264              		@ frame_needed = 0, uses_anonymous_args = 0
 138:Middlewares/lvgl/src/misc/lv_fs.c ****     if(bw != NULL) *bw = 0;
 265              		.loc 1 138 1 is_stmt 0 view .LVU60
 266 0000 30B5     		push	{r4, r5, lr}
 267              	.LCFI6:
 268              		.cfi_def_cfa_offset 12
 269              		.cfi_offset 4, -12
 270              		.cfi_offset 5, -8
 271              		.cfi_offset 14, -4
 272 0002 85B0     		sub	sp, sp, #20
 273              	.LCFI7:
 274              		.cfi_def_cfa_offset 32
 275 0004 8446     		mov	ip, r0
 139:Middlewares/lvgl/src/misc/lv_fs.c **** 
 276              		.loc 1 139 5 is_stmt 1 view .LVU61
 139:Middlewares/lvgl/src/misc/lv_fs.c **** 
 277              		.loc 1 139 7 is_stmt 0 view .LVU62
 278 0006 1C46     		mov	r4, r3
 279 0008 0BB1     		cbz	r3, .L20
 139:Middlewares/lvgl/src/misc/lv_fs.c **** 
 280              		.loc 1 139 20 is_stmt 1 discriminator 1 view .LVU63
 139:Middlewares/lvgl/src/misc/lv_fs.c **** 
 281              		.loc 1 139 24 is_stmt 0 discriminator 1 view .LVU64
 282 000a 0023     		movs	r3, #0
 283              	.LVL18:
 139:Middlewares/lvgl/src/misc/lv_fs.c **** 
 284              		.loc 1 139 24 discriminator 1 view .LVU65
 285 000c 2360     		str	r3, [r4]
 286              	.L20:
 141:Middlewares/lvgl/src/misc/lv_fs.c ****         return LV_FS_RES_INV_PARAM;
 287              		.loc 1 141 5 is_stmt 1 view .LVU66
 141:Middlewares/lvgl/src/misc/lv_fs.c ****         return LV_FS_RES_INV_PARAM;
 288              		.loc 1 141 14 is_stmt 0 view .LVU67
 289 000e DCF80400 		ldr	r0, [ip, #4]
 290              	.LVL19:
 141:Middlewares/lvgl/src/misc/lv_fs.c ****         return LV_FS_RES_INV_PARAM;
 291              		.loc 1 141 7 view .LVU68
 292 0012 78B1     		cbz	r0, .L22
 145:Middlewares/lvgl/src/misc/lv_fs.c ****         return LV_FS_RES_NOT_IMP;
 293              		.loc 1 145 5 is_stmt 1 view .LVU69
 145:Middlewares/lvgl/src/misc/lv_fs.c ****         return LV_FS_RES_NOT_IMP;
 294              		.loc 1 145 19 is_stmt 0 view .LVU70
 295 0014 4569     		ldr	r5, [r0, #20]
 145:Middlewares/lvgl/src/misc/lv_fs.c ****         return LV_FS_RES_NOT_IMP;
 296              		.loc 1 145 7 view .LVU71
 297 0016 7DB1     		cbz	r5, .L23
 149:Middlewares/lvgl/src/misc/lv_fs.c ****     lv_fs_res_t res = file_p->drv->write_cb(file_p->drv, file_p->file_d, buf, btw, &bw_tmp);
 298              		.loc 1 149 5 is_stmt 1 view .LVU72
 149:Middlewares/lvgl/src/misc/lv_fs.c ****     lv_fs_res_t res = file_p->drv->write_cb(file_p->drv, file_p->file_d, buf, btw, &bw_tmp);
 299              		.loc 1 149 14 is_stmt 0 view .LVU73
 300 0018 0023     		movs	r3, #0
 301 001a 0393     		str	r3, [sp, #12]
 150:Middlewares/lvgl/src/misc/lv_fs.c ****     if(bw != NULL) *bw = bw_tmp;
ARM GAS  /tmp/cc2Wv7Zs.s 			page 14


 302              		.loc 1 150 5 is_stmt 1 view .LVU74
 150:Middlewares/lvgl/src/misc/lv_fs.c ****     if(bw != NULL) *bw = bw_tmp;
 303              		.loc 1 150 23 is_stmt 0 view .LVU75
 304 001c 03AB     		add	r3, sp, #12
 305 001e 0093     		str	r3, [sp]
 306 0020 1346     		mov	r3, r2
 307 0022 0A46     		mov	r2, r1
 308              	.LVL20:
 150:Middlewares/lvgl/src/misc/lv_fs.c ****     if(bw != NULL) *bw = bw_tmp;
 309              		.loc 1 150 23 view .LVU76
 310 0024 DCF80010 		ldr	r1, [ip]
 311              	.LVL21:
 150:Middlewares/lvgl/src/misc/lv_fs.c ****     if(bw != NULL) *bw = bw_tmp;
 312              		.loc 1 150 23 view .LVU77
 313 0028 A847     		blx	r5
 314              	.LVL22:
 151:Middlewares/lvgl/src/misc/lv_fs.c **** 
 315              		.loc 1 151 5 is_stmt 1 view .LVU78
 151:Middlewares/lvgl/src/misc/lv_fs.c **** 
 316              		.loc 1 151 7 is_stmt 0 view .LVU79
 317 002a 0CB1     		cbz	r4, .L21
 151:Middlewares/lvgl/src/misc/lv_fs.c **** 
 318              		.loc 1 151 20 is_stmt 1 discriminator 1 view .LVU80
 151:Middlewares/lvgl/src/misc/lv_fs.c **** 
 319              		.loc 1 151 24 is_stmt 0 discriminator 1 view .LVU81
 320 002c 039B     		ldr	r3, [sp, #12]
 321 002e 2360     		str	r3, [r4]
 322              	.LVL23:
 323              	.L21:
 154:Middlewares/lvgl/src/misc/lv_fs.c **** 
 324              		.loc 1 154 1 view .LVU82
 325 0030 05B0     		add	sp, sp, #20
 326              	.LCFI8:
 327              		.cfi_remember_state
 328              		.cfi_def_cfa_offset 12
 329              		@ sp needed
 330 0032 30BD     		pop	{r4, r5, pc}
 331              	.LVL24:
 332              	.L22:
 333              	.LCFI9:
 334              		.cfi_restore_state
 142:Middlewares/lvgl/src/misc/lv_fs.c ****     }
 335              		.loc 1 142 16 view .LVU83
 336 0034 0B20     		movs	r0, #11
 337 0036 FBE7     		b	.L21
 338              	.L23:
 146:Middlewares/lvgl/src/misc/lv_fs.c ****     }
 339              		.loc 1 146 16 view .LVU84
 340 0038 0920     		movs	r0, #9
 341 003a F9E7     		b	.L21
 342              		.cfi_endproc
 343              	.LFE28:
 345              		.section	.text.lv_fs_seek,"ax",%progbits
 346              		.align	1
 347              		.global	lv_fs_seek
 348              		.syntax unified
 349              		.thumb
ARM GAS  /tmp/cc2Wv7Zs.s 			page 15


 350              		.thumb_func
 351              		.fpu fpv4-sp-d16
 353              	lv_fs_seek:
 354              	.LVL25:
 355              	.LFB29:
 157:Middlewares/lvgl/src/misc/lv_fs.c ****     if(file_p->drv == NULL) {
 356              		.loc 1 157 1 is_stmt 1 view -0
 357              		.cfi_startproc
 358              		@ args = 0, pretend = 0, frame = 0
 359              		@ frame_needed = 0, uses_anonymous_args = 0
 157:Middlewares/lvgl/src/misc/lv_fs.c ****     if(file_p->drv == NULL) {
 360              		.loc 1 157 1 is_stmt 0 view .LVU86
 361 0000 8446     		mov	ip, r0
 158:Middlewares/lvgl/src/misc/lv_fs.c ****         return LV_FS_RES_INV_PARAM;
 362              		.loc 1 158 5 is_stmt 1 view .LVU87
 158:Middlewares/lvgl/src/misc/lv_fs.c ****         return LV_FS_RES_INV_PARAM;
 363              		.loc 1 158 14 is_stmt 0 view .LVU88
 364 0002 4068     		ldr	r0, [r0, #4]
 365              	.LVL26:
 158:Middlewares/lvgl/src/misc/lv_fs.c ****         return LV_FS_RES_INV_PARAM;
 366              		.loc 1 158 7 view .LVU89
 367 0004 40B1     		cbz	r0, .L27
 157:Middlewares/lvgl/src/misc/lv_fs.c ****     if(file_p->drv == NULL) {
 368              		.loc 1 157 1 view .LVU90
 369 0006 10B5     		push	{r4, lr}
 370              	.LCFI10:
 371              		.cfi_def_cfa_offset 8
 372              		.cfi_offset 4, -8
 373              		.cfi_offset 14, -4
 374 0008 1346     		mov	r3, r2
 162:Middlewares/lvgl/src/misc/lv_fs.c ****         return LV_FS_RES_NOT_IMP;
 375              		.loc 1 162 5 is_stmt 1 view .LVU91
 162:Middlewares/lvgl/src/misc/lv_fs.c ****         return LV_FS_RES_NOT_IMP;
 376              		.loc 1 162 19 is_stmt 0 view .LVU92
 377 000a 8469     		ldr	r4, [r0, #24]
 162:Middlewares/lvgl/src/misc/lv_fs.c ****         return LV_FS_RES_NOT_IMP;
 378              		.loc 1 162 7 view .LVU93
 379 000c 34B1     		cbz	r4, .L28
 166:Middlewares/lvgl/src/misc/lv_fs.c **** 
 380              		.loc 1 166 5 is_stmt 1 view .LVU94
 166:Middlewares/lvgl/src/misc/lv_fs.c **** 
 381              		.loc 1 166 23 is_stmt 0 view .LVU95
 382 000e 0A46     		mov	r2, r1
 383              	.LVL27:
 166:Middlewares/lvgl/src/misc/lv_fs.c **** 
 384              		.loc 1 166 23 view .LVU96
 385 0010 DCF80010 		ldr	r1, [ip]
 386              	.LVL28:
 166:Middlewares/lvgl/src/misc/lv_fs.c **** 
 387              		.loc 1 166 23 view .LVU97
 388 0014 A047     		blx	r4
 389              	.LVL29:
 168:Middlewares/lvgl/src/misc/lv_fs.c **** }
 390              		.loc 1 168 5 is_stmt 1 view .LVU98
 391              	.L26:
 169:Middlewares/lvgl/src/misc/lv_fs.c **** 
 392              		.loc 1 169 1 is_stmt 0 view .LVU99
ARM GAS  /tmp/cc2Wv7Zs.s 			page 16


 393 0016 10BD     		pop	{r4, pc}
 394              	.LVL30:
 395              	.L27:
 396              	.LCFI11:
 397              		.cfi_def_cfa_offset 0
 398              		.cfi_restore 4
 399              		.cfi_restore 14
 159:Middlewares/lvgl/src/misc/lv_fs.c ****     }
 400              		.loc 1 159 16 view .LVU100
 401 0018 0B20     		movs	r0, #11
 169:Middlewares/lvgl/src/misc/lv_fs.c **** 
 402              		.loc 1 169 1 view .LVU101
 403 001a 7047     		bx	lr
 404              	.L28:
 405              	.LCFI12:
 406              		.cfi_def_cfa_offset 8
 407              		.cfi_offset 4, -8
 408              		.cfi_offset 14, -4
 163:Middlewares/lvgl/src/misc/lv_fs.c ****     }
 409              		.loc 1 163 16 view .LVU102
 410 001c 0920     		movs	r0, #9
 411 001e FAE7     		b	.L26
 412              		.cfi_endproc
 413              	.LFE29:
 415              		.section	.text.lv_fs_tell,"ax",%progbits
 416              		.align	1
 417              		.global	lv_fs_tell
 418              		.syntax unified
 419              		.thumb
 420              		.thumb_func
 421              		.fpu fpv4-sp-d16
 423              	lv_fs_tell:
 424              	.LVL31:
 425              	.LFB30:
 172:Middlewares/lvgl/src/misc/lv_fs.c ****     if(file_p->drv == NULL) {
 426              		.loc 1 172 1 is_stmt 1 view -0
 427              		.cfi_startproc
 428              		@ args = 0, pretend = 0, frame = 0
 429              		@ frame_needed = 0, uses_anonymous_args = 0
 172:Middlewares/lvgl/src/misc/lv_fs.c ****     if(file_p->drv == NULL) {
 430              		.loc 1 172 1 is_stmt 0 view .LVU104
 431 0000 0346     		mov	r3, r0
 432 0002 0A46     		mov	r2, r1
 173:Middlewares/lvgl/src/misc/lv_fs.c ****         *pos = 0;
 433              		.loc 1 173 5 is_stmt 1 view .LVU105
 173:Middlewares/lvgl/src/misc/lv_fs.c ****         *pos = 0;
 434              		.loc 1 173 14 is_stmt 0 view .LVU106
 435 0004 4068     		ldr	r0, [r0, #4]
 436              	.LVL32:
 173:Middlewares/lvgl/src/misc/lv_fs.c ****         *pos = 0;
 437              		.loc 1 173 7 view .LVU107
 438 0006 28B1     		cbz	r0, .L40
 172:Middlewares/lvgl/src/misc/lv_fs.c ****     if(file_p->drv == NULL) {
 439              		.loc 1 172 1 view .LVU108
 440 0008 10B5     		push	{r4, lr}
 441              	.LCFI13:
 442              		.cfi_def_cfa_offset 8
ARM GAS  /tmp/cc2Wv7Zs.s 			page 17


 443              		.cfi_offset 4, -8
 444              		.cfi_offset 14, -4
 178:Middlewares/lvgl/src/misc/lv_fs.c ****         *pos = 0;
 445              		.loc 1 178 5 is_stmt 1 view .LVU109
 178:Middlewares/lvgl/src/misc/lv_fs.c ****         *pos = 0;
 446              		.loc 1 178 19 is_stmt 0 view .LVU110
 447 000a C469     		ldr	r4, [r0, #28]
 178:Middlewares/lvgl/src/misc/lv_fs.c ****         *pos = 0;
 448              		.loc 1 178 7 view .LVU111
 449 000c 34B1     		cbz	r4, .L41
 183:Middlewares/lvgl/src/misc/lv_fs.c **** 
 450              		.loc 1 183 5 is_stmt 1 view .LVU112
 183:Middlewares/lvgl/src/misc/lv_fs.c **** 
 451              		.loc 1 183 23 is_stmt 0 view .LVU113
 452 000e 1968     		ldr	r1, [r3]
 453              	.LVL33:
 183:Middlewares/lvgl/src/misc/lv_fs.c **** 
 454              		.loc 1 183 23 view .LVU114
 455 0010 A047     		blx	r4
 456              	.LVL34:
 185:Middlewares/lvgl/src/misc/lv_fs.c **** }
 457              		.loc 1 185 5 is_stmt 1 view .LVU115
 458              	.L35:
 186:Middlewares/lvgl/src/misc/lv_fs.c **** 
 459              		.loc 1 186 1 is_stmt 0 view .LVU116
 460 0012 10BD     		pop	{r4, pc}
 461              	.LVL35:
 462              	.L40:
 463              	.LCFI14:
 464              		.cfi_def_cfa_offset 0
 465              		.cfi_restore 4
 466              		.cfi_restore 14
 174:Middlewares/lvgl/src/misc/lv_fs.c ****         return LV_FS_RES_INV_PARAM;
 467              		.loc 1 174 9 is_stmt 1 view .LVU117
 174:Middlewares/lvgl/src/misc/lv_fs.c ****         return LV_FS_RES_INV_PARAM;
 468              		.loc 1 174 14 is_stmt 0 view .LVU118
 469 0014 0023     		movs	r3, #0
 470              	.LVL36:
 174:Middlewares/lvgl/src/misc/lv_fs.c ****         return LV_FS_RES_INV_PARAM;
 471              		.loc 1 174 14 view .LVU119
 472 0016 0B60     		str	r3, [r1]
 175:Middlewares/lvgl/src/misc/lv_fs.c ****     }
 473              		.loc 1 175 9 is_stmt 1 view .LVU120
 175:Middlewares/lvgl/src/misc/lv_fs.c ****     }
 474              		.loc 1 175 16 is_stmt 0 view .LVU121
 475 0018 0B20     		movs	r0, #11
 186:Middlewares/lvgl/src/misc/lv_fs.c **** 
 476              		.loc 1 186 1 view .LVU122
 477 001a 7047     		bx	lr
 478              	.LVL37:
 479              	.L41:
 480              	.LCFI15:
 481              		.cfi_def_cfa_offset 8
 482              		.cfi_offset 4, -8
 483              		.cfi_offset 14, -4
 179:Middlewares/lvgl/src/misc/lv_fs.c ****         return LV_FS_RES_NOT_IMP;
 484              		.loc 1 179 9 is_stmt 1 view .LVU123
ARM GAS  /tmp/cc2Wv7Zs.s 			page 18


 179:Middlewares/lvgl/src/misc/lv_fs.c ****         return LV_FS_RES_NOT_IMP;
 485              		.loc 1 179 14 is_stmt 0 view .LVU124
 486 001c 0023     		movs	r3, #0
 487              	.LVL38:
 179:Middlewares/lvgl/src/misc/lv_fs.c ****         return LV_FS_RES_NOT_IMP;
 488              		.loc 1 179 14 view .LVU125
 489 001e 0B60     		str	r3, [r1]
 180:Middlewares/lvgl/src/misc/lv_fs.c ****     }
 490              		.loc 1 180 9 is_stmt 1 view .LVU126
 180:Middlewares/lvgl/src/misc/lv_fs.c ****     }
 491              		.loc 1 180 16 is_stmt 0 view .LVU127
 492 0020 0920     		movs	r0, #9
 493 0022 F6E7     		b	.L35
 494              		.cfi_endproc
 495              	.LFE30:
 497              		.section	.text.lv_fs_dir_read,"ax",%progbits
 498              		.align	1
 499              		.global	lv_fs_dir_read
 500              		.syntax unified
 501              		.thumb
 502              		.thumb_func
 503              		.fpu fpv4-sp-d16
 505              	lv_fs_dir_read:
 506              	.LVL39:
 507              	.LFB32:
 223:Middlewares/lvgl/src/misc/lv_fs.c ****     if(rddir_p->drv == NULL || rddir_p->dir_d == NULL) {
 508              		.loc 1 223 1 is_stmt 1 view -0
 509              		.cfi_startproc
 510              		@ args = 0, pretend = 0, frame = 0
 511              		@ frame_needed = 0, uses_anonymous_args = 0
 223:Middlewares/lvgl/src/misc/lv_fs.c ****     if(rddir_p->drv == NULL || rddir_p->dir_d == NULL) {
 512              		.loc 1 223 1 is_stmt 0 view .LVU129
 513 0000 08B5     		push	{r3, lr}
 514              	.LCFI16:
 515              		.cfi_def_cfa_offset 8
 516              		.cfi_offset 3, -8
 517              		.cfi_offset 14, -4
 518 0002 0346     		mov	r3, r0
 519 0004 0A46     		mov	r2, r1
 224:Middlewares/lvgl/src/misc/lv_fs.c ****         fn[0] = '\0';
 520              		.loc 1 224 5 is_stmt 1 view .LVU130
 224:Middlewares/lvgl/src/misc/lv_fs.c ****         fn[0] = '\0';
 521              		.loc 1 224 15 is_stmt 0 view .LVU131
 522 0006 4068     		ldr	r0, [r0, #4]
 523              	.LVL40:
 224:Middlewares/lvgl/src/misc/lv_fs.c ****         fn[0] = '\0';
 524              		.loc 1 224 7 view .LVU132
 525 0008 28B1     		cbz	r0, .L43
 224:Middlewares/lvgl/src/misc/lv_fs.c ****         fn[0] = '\0';
 526              		.loc 1 224 39 discriminator 1 view .LVU133
 527 000a 1968     		ldr	r1, [r3]
 528              	.LVL41:
 224:Middlewares/lvgl/src/misc/lv_fs.c ****         fn[0] = '\0';
 529              		.loc 1 224 29 discriminator 1 view .LVU134
 530 000c 19B1     		cbz	r1, .L43
 229:Middlewares/lvgl/src/misc/lv_fs.c ****         fn[0] = '\0';
 531              		.loc 1 229 5 is_stmt 1 view .LVU135
ARM GAS  /tmp/cc2Wv7Zs.s 			page 19


 229:Middlewares/lvgl/src/misc/lv_fs.c ****         fn[0] = '\0';
 532              		.loc 1 229 20 is_stmt 0 view .LVU136
 533 000e 436A     		ldr	r3, [r0, #36]
 534              	.LVL42:
 229:Middlewares/lvgl/src/misc/lv_fs.c ****         fn[0] = '\0';
 535              		.loc 1 229 7 view .LVU137
 536 0010 2BB1     		cbz	r3, .L48
 234:Middlewares/lvgl/src/misc/lv_fs.c **** 
 537              		.loc 1 234 5 is_stmt 1 view .LVU138
 234:Middlewares/lvgl/src/misc/lv_fs.c **** 
 538              		.loc 1 234 23 is_stmt 0 view .LVU139
 539 0012 9847     		blx	r3
 540              	.LVL43:
 236:Middlewares/lvgl/src/misc/lv_fs.c **** }
 541              		.loc 1 236 5 is_stmt 1 view .LVU140
 542              	.L45:
 237:Middlewares/lvgl/src/misc/lv_fs.c **** 
 543              		.loc 1 237 1 is_stmt 0 view .LVU141
 544 0014 08BD     		pop	{r3, pc}
 545              	.LVL44:
 546              	.L43:
 225:Middlewares/lvgl/src/misc/lv_fs.c ****         return LV_FS_RES_INV_PARAM;
 547              		.loc 1 225 9 is_stmt 1 view .LVU142
 225:Middlewares/lvgl/src/misc/lv_fs.c ****         return LV_FS_RES_INV_PARAM;
 548              		.loc 1 225 15 is_stmt 0 view .LVU143
 549 0016 0023     		movs	r3, #0
 550              	.LVL45:
 225:Middlewares/lvgl/src/misc/lv_fs.c ****         return LV_FS_RES_INV_PARAM;
 551              		.loc 1 225 15 view .LVU144
 552 0018 1370     		strb	r3, [r2]
 226:Middlewares/lvgl/src/misc/lv_fs.c ****     }
 553              		.loc 1 226 9 is_stmt 1 view .LVU145
 226:Middlewares/lvgl/src/misc/lv_fs.c ****     }
 554              		.loc 1 226 16 is_stmt 0 view .LVU146
 555 001a 0B20     		movs	r0, #11
 556 001c FAE7     		b	.L45
 557              	.L48:
 230:Middlewares/lvgl/src/misc/lv_fs.c ****         return LV_FS_RES_NOT_IMP;
 558              		.loc 1 230 9 is_stmt 1 view .LVU147
 230:Middlewares/lvgl/src/misc/lv_fs.c ****         return LV_FS_RES_NOT_IMP;
 559              		.loc 1 230 15 is_stmt 0 view .LVU148
 560 001e 1370     		strb	r3, [r2]
 231:Middlewares/lvgl/src/misc/lv_fs.c ****     }
 561              		.loc 1 231 9 is_stmt 1 view .LVU149
 231:Middlewares/lvgl/src/misc/lv_fs.c ****     }
 562              		.loc 1 231 16 is_stmt 0 view .LVU150
 563 0020 0920     		movs	r0, #9
 564 0022 F7E7     		b	.L45
 565              		.cfi_endproc
 566              	.LFE32:
 568              		.section	.text.lv_fs_dir_close,"ax",%progbits
 569              		.align	1
 570              		.global	lv_fs_dir_close
 571              		.syntax unified
 572              		.thumb
 573              		.thumb_func
 574              		.fpu fpv4-sp-d16
ARM GAS  /tmp/cc2Wv7Zs.s 			page 20


 576              	lv_fs_dir_close:
 577              	.LVL46:
 578              	.LFB33:
 240:Middlewares/lvgl/src/misc/lv_fs.c ****     if(rddir_p->drv == NULL || rddir_p->dir_d == NULL) {
 579              		.loc 1 240 1 is_stmt 1 view -0
 580              		.cfi_startproc
 581              		@ args = 0, pretend = 0, frame = 0
 582              		@ frame_needed = 0, uses_anonymous_args = 0
 240:Middlewares/lvgl/src/misc/lv_fs.c ****     if(rddir_p->drv == NULL || rddir_p->dir_d == NULL) {
 583              		.loc 1 240 1 is_stmt 0 view .LVU152
 584 0000 10B5     		push	{r4, lr}
 585              	.LCFI17:
 586              		.cfi_def_cfa_offset 8
 587              		.cfi_offset 4, -8
 588              		.cfi_offset 14, -4
 589 0002 0446     		mov	r4, r0
 241:Middlewares/lvgl/src/misc/lv_fs.c ****         return LV_FS_RES_INV_PARAM;
 590              		.loc 1 241 5 is_stmt 1 view .LVU153
 241:Middlewares/lvgl/src/misc/lv_fs.c ****         return LV_FS_RES_INV_PARAM;
 591              		.loc 1 241 15 is_stmt 0 view .LVU154
 592 0004 4068     		ldr	r0, [r0, #4]
 593              	.LVL47:
 241:Middlewares/lvgl/src/misc/lv_fs.c ****         return LV_FS_RES_INV_PARAM;
 594              		.loc 1 241 7 view .LVU155
 595 0006 40B1     		cbz	r0, .L51
 241:Middlewares/lvgl/src/misc/lv_fs.c ****         return LV_FS_RES_INV_PARAM;
 596              		.loc 1 241 39 discriminator 1 view .LVU156
 597 0008 2168     		ldr	r1, [r4]
 241:Middlewares/lvgl/src/misc/lv_fs.c ****         return LV_FS_RES_INV_PARAM;
 598              		.loc 1 241 29 discriminator 1 view .LVU157
 599 000a 41B1     		cbz	r1, .L52
 245:Middlewares/lvgl/src/misc/lv_fs.c ****         return LV_FS_RES_NOT_IMP;
 600              		.loc 1 245 5 is_stmt 1 view .LVU158
 245:Middlewares/lvgl/src/misc/lv_fs.c ****         return LV_FS_RES_NOT_IMP;
 601              		.loc 1 245 20 is_stmt 0 view .LVU159
 602 000c 836A     		ldr	r3, [r0, #40]
 245:Middlewares/lvgl/src/misc/lv_fs.c ****         return LV_FS_RES_NOT_IMP;
 603              		.loc 1 245 7 view .LVU160
 604 000e 43B1     		cbz	r3, .L53
 249:Middlewares/lvgl/src/misc/lv_fs.c **** 
 605              		.loc 1 249 5 is_stmt 1 view .LVU161
 249:Middlewares/lvgl/src/misc/lv_fs.c **** 
 606              		.loc 1 249 23 is_stmt 0 view .LVU162
 607 0010 9847     		blx	r3
 608              	.LVL48:
 251:Middlewares/lvgl/src/misc/lv_fs.c ****     rddir_p->drv   = NULL;
 609              		.loc 1 251 5 is_stmt 1 view .LVU163
 251:Middlewares/lvgl/src/misc/lv_fs.c ****     rddir_p->drv   = NULL;
 610              		.loc 1 251 20 is_stmt 0 view .LVU164
 611 0012 0023     		movs	r3, #0
 612 0014 2360     		str	r3, [r4]
 252:Middlewares/lvgl/src/misc/lv_fs.c **** 
 613              		.loc 1 252 5 is_stmt 1 view .LVU165
 252:Middlewares/lvgl/src/misc/lv_fs.c **** 
 614              		.loc 1 252 20 is_stmt 0 view .LVU166
 615 0016 6360     		str	r3, [r4, #4]
 254:Middlewares/lvgl/src/misc/lv_fs.c **** }
ARM GAS  /tmp/cc2Wv7Zs.s 			page 21


 616              		.loc 1 254 5 is_stmt 1 view .LVU167
 617              	.LVL49:
 618              	.L50:
 255:Middlewares/lvgl/src/misc/lv_fs.c **** 
 619              		.loc 1 255 1 is_stmt 0 view .LVU168
 620 0018 10BD     		pop	{r4, pc}
 621              	.LVL50:
 622              	.L51:
 242:Middlewares/lvgl/src/misc/lv_fs.c ****     }
 623              		.loc 1 242 16 view .LVU169
 624 001a 0B20     		movs	r0, #11
 625 001c FCE7     		b	.L50
 626              	.L52:
 627 001e 0B20     		movs	r0, #11
 628 0020 FAE7     		b	.L50
 629              	.L53:
 246:Middlewares/lvgl/src/misc/lv_fs.c ****     }
 630              		.loc 1 246 16 view .LVU170
 631 0022 0920     		movs	r0, #9
 632 0024 F8E7     		b	.L50
 633              		.cfi_endproc
 634              	.LFE33:
 636              		.section	.text.lv_fs_drv_init,"ax",%progbits
 637              		.align	1
 638              		.global	lv_fs_drv_init
 639              		.syntax unified
 640              		.thumb
 641              		.thumb_func
 642              		.fpu fpv4-sp-d16
 644              	lv_fs_drv_init:
 645              	.LVL51:
 646              	.LFB34:
 258:Middlewares/lvgl/src/misc/lv_fs.c ****     lv_memset_00(drv, sizeof(lv_fs_drv_t));
 647              		.loc 1 258 1 is_stmt 1 view -0
 648              		.cfi_startproc
 649              		@ args = 0, pretend = 0, frame = 0
 650              		@ frame_needed = 0, uses_anonymous_args = 0
 258:Middlewares/lvgl/src/misc/lv_fs.c ****     lv_memset_00(drv, sizeof(lv_fs_drv_t));
 651              		.loc 1 258 1 is_stmt 0 view .LVU172
 652 0000 08B5     		push	{r3, lr}
 653              	.LCFI18:
 654              		.cfi_def_cfa_offset 8
 655              		.cfi_offset 3, -8
 656              		.cfi_offset 14, -4
 259:Middlewares/lvgl/src/misc/lv_fs.c **** }
 657              		.loc 1 259 5 is_stmt 1 view .LVU173
 658 0002 3021     		movs	r1, #48
 659 0004 FFF7FEFF 		bl	lv_memset_00
 660              	.LVL52:
 260:Middlewares/lvgl/src/misc/lv_fs.c **** 
 661              		.loc 1 260 1 is_stmt 0 view .LVU174
 662 0008 08BD     		pop	{r3, pc}
 663              		.cfi_endproc
 664              	.LFE34:
 666              		.section	.text.lv_fs_drv_register,"ax",%progbits
 667              		.align	1
 668              		.global	lv_fs_drv_register
ARM GAS  /tmp/cc2Wv7Zs.s 			page 22


 669              		.syntax unified
 670              		.thumb
 671              		.thumb_func
 672              		.fpu fpv4-sp-d16
 674              	lv_fs_drv_register:
 675              	.LVL53:
 676              	.LFB35:
 263:Middlewares/lvgl/src/misc/lv_fs.c ****     /*Save the new driver*/
 677              		.loc 1 263 1 is_stmt 1 view -0
 678              		.cfi_startproc
 679              		@ args = 0, pretend = 0, frame = 0
 680              		@ frame_needed = 0, uses_anonymous_args = 0
 263:Middlewares/lvgl/src/misc/lv_fs.c ****     /*Save the new driver*/
 681              		.loc 1 263 1 is_stmt 0 view .LVU176
 682 0000 10B5     		push	{r4, lr}
 683              	.LCFI19:
 684              		.cfi_def_cfa_offset 8
 685              		.cfi_offset 4, -8
 686              		.cfi_offset 14, -4
 687 0002 0446     		mov	r4, r0
 265:Middlewares/lvgl/src/misc/lv_fs.c ****     new_drv = _lv_ll_ins_head(&LV_GC_ROOT(_lv_fsdrv_ll));
 688              		.loc 1 265 5 is_stmt 1 view .LVU177
 266:Middlewares/lvgl/src/misc/lv_fs.c ****     LV_ASSERT_MALLOC(new_drv);
 689              		.loc 1 266 5 view .LVU178
 266:Middlewares/lvgl/src/misc/lv_fs.c ****     LV_ASSERT_MALLOC(new_drv);
 690              		.loc 1 266 15 is_stmt 0 view .LVU179
 691 0004 0348     		ldr	r0, .L61
 692              	.LVL54:
 266:Middlewares/lvgl/src/misc/lv_fs.c ****     LV_ASSERT_MALLOC(new_drv);
 693              		.loc 1 266 15 view .LVU180
 694 0006 FFF7FEFF 		bl	_lv_ll_ins_head
 695              	.LVL55:
 267:Middlewares/lvgl/src/misc/lv_fs.c ****     if(new_drv == NULL) return;
 696              		.loc 1 267 5 is_stmt 1 view .LVU181
 267:Middlewares/lvgl/src/misc/lv_fs.c ****     if(new_drv == NULL) return;
 697              		.loc 1 267 5 view .LVU182
 698 000a 08B1     		cbz	r0, .L59
 267:Middlewares/lvgl/src/misc/lv_fs.c ****     if(new_drv == NULL) return;
 699              		.loc 1 267 5 view .LVU183
 267:Middlewares/lvgl/src/misc/lv_fs.c ****     if(new_drv == NULL) return;
 700              		.loc 1 267 30 view .LVU184
 268:Middlewares/lvgl/src/misc/lv_fs.c **** 
 701              		.loc 1 268 5 view .LVU185
 270:Middlewares/lvgl/src/misc/lv_fs.c **** }
 702              		.loc 1 270 5 view .LVU186
 270:Middlewares/lvgl/src/misc/lv_fs.c **** }
 703              		.loc 1 270 14 is_stmt 0 view .LVU187
 704 000c 0460     		str	r4, [r0]
 271:Middlewares/lvgl/src/misc/lv_fs.c **** 
 705              		.loc 1 271 1 view .LVU188
 706 000e 10BD     		pop	{r4, pc}
 707              	.LVL56:
 708              	.L59:
 267:Middlewares/lvgl/src/misc/lv_fs.c ****     if(new_drv == NULL) return;
 709              		.loc 1 267 5 is_stmt 1 discriminator 1 view .LVU189
 267:Middlewares/lvgl/src/misc/lv_fs.c ****     if(new_drv == NULL) return;
 710              		.loc 1 267 5 discriminator 1 view .LVU190
ARM GAS  /tmp/cc2Wv7Zs.s 			page 23


 267:Middlewares/lvgl/src/misc/lv_fs.c ****     if(new_drv == NULL) return;
 711              		.loc 1 267 5 discriminator 1 view .LVU191
 267:Middlewares/lvgl/src/misc/lv_fs.c ****     if(new_drv == NULL) return;
 712              		.loc 1 267 5 discriminator 1 view .LVU192
 713 0010 FEE7     		b	.L59
 714              	.L62:
 715 0012 00BF     		.align	2
 716              	.L61:
 717 0014 00000000 		.word	_lv_fsdrv_ll
 718              		.cfi_endproc
 719              	.LFE35:
 721              		.section	.text.lv_fs_get_drv,"ax",%progbits
 722              		.align	1
 723              		.global	lv_fs_get_drv
 724              		.syntax unified
 725              		.thumb
 726              		.thumb_func
 727              		.fpu fpv4-sp-d16
 729              	lv_fs_get_drv:
 730              	.LVL57:
 731              	.LFB36:
 274:Middlewares/lvgl/src/misc/lv_fs.c ****     lv_fs_drv_t ** drv;
 732              		.loc 1 274 1 view -0
 733              		.cfi_startproc
 734              		@ args = 0, pretend = 0, frame = 0
 735              		@ frame_needed = 0, uses_anonymous_args = 0
 274:Middlewares/lvgl/src/misc/lv_fs.c ****     lv_fs_drv_t ** drv;
 736              		.loc 1 274 1 is_stmt 0 view .LVU194
 737 0000 10B5     		push	{r4, lr}
 738              	.LCFI20:
 739              		.cfi_def_cfa_offset 8
 740              		.cfi_offset 4, -8
 741              		.cfi_offset 14, -4
 742 0002 0446     		mov	r4, r0
 275:Middlewares/lvgl/src/misc/lv_fs.c **** 
 743              		.loc 1 275 5 is_stmt 1 view .LVU195
 277:Middlewares/lvgl/src/misc/lv_fs.c ****         if((*drv)->letter == letter) {
 744              		.loc 1 277 5 view .LVU196
 745 0004 0848     		ldr	r0, .L70
 746              	.LVL58:
 277:Middlewares/lvgl/src/misc/lv_fs.c ****         if((*drv)->letter == letter) {
 747              		.loc 1 277 5 is_stmt 0 view .LVU197
 748 0006 FFF7FEFF 		bl	_lv_ll_get_head
 749              	.LVL59:
 750 000a 0146     		mov	r1, r0
 751              	.LVL60:
 277:Middlewares/lvgl/src/misc/lv_fs.c ****         if((*drv)->letter == letter) {
 752              		.loc 1 277 5 view .LVU198
 753 000c 03E0     		b	.L64
 754              	.L69:
 277:Middlewares/lvgl/src/misc/lv_fs.c ****         if((*drv)->letter == letter) {
 755              		.loc 1 277 5 is_stmt 1 discriminator 2 view .LVU199
 756 000e 0648     		ldr	r0, .L70
 757              	.LVL61:
 277:Middlewares/lvgl/src/misc/lv_fs.c ****         if((*drv)->letter == letter) {
 758              		.loc 1 277 5 is_stmt 0 discriminator 2 view .LVU200
 759 0010 FFF7FEFF 		bl	_lv_ll_get_next
ARM GAS  /tmp/cc2Wv7Zs.s 			page 24


 760              	.LVL62:
 277:Middlewares/lvgl/src/misc/lv_fs.c ****         if((*drv)->letter == letter) {
 761              		.loc 1 277 5 discriminator 2 view .LVU201
 762 0014 0146     		mov	r1, r0
 763              	.LVL63:
 764              	.L64:
 277:Middlewares/lvgl/src/misc/lv_fs.c ****         if((*drv)->letter == letter) {
 765              		.loc 1 277 5 is_stmt 1 discriminator 1 view .LVU202
 766 0016 21B1     		cbz	r1, .L63
 278:Middlewares/lvgl/src/misc/lv_fs.c ****             return *drv;
 767              		.loc 1 278 9 view .LVU203
 278:Middlewares/lvgl/src/misc/lv_fs.c ****             return *drv;
 768              		.loc 1 278 13 is_stmt 0 view .LVU204
 769 0018 0B68     		ldr	r3, [r1]
 278:Middlewares/lvgl/src/misc/lv_fs.c ****             return *drv;
 770              		.loc 1 278 18 view .LVU205
 771 001a 1A78     		ldrb	r2, [r3]	@ zero_extendqisi2
 278:Middlewares/lvgl/src/misc/lv_fs.c ****             return *drv;
 772              		.loc 1 278 11 view .LVU206
 773 001c A242     		cmp	r2, r4
 774 001e F6D1     		bne	.L69
 279:Middlewares/lvgl/src/misc/lv_fs.c ****         }
 775              		.loc 1 279 20 view .LVU207
 776 0020 1946     		mov	r1, r3
 777              	.L63:
 284:Middlewares/lvgl/src/misc/lv_fs.c **** 
 778              		.loc 1 284 1 view .LVU208
 779 0022 0846     		mov	r0, r1
 780              	.LVL64:
 284:Middlewares/lvgl/src/misc/lv_fs.c **** 
 781              		.loc 1 284 1 view .LVU209
 782 0024 10BD     		pop	{r4, pc}
 783              	.L71:
 784 0026 00BF     		.align	2
 785              	.L70:
 786 0028 00000000 		.word	_lv_fsdrv_ll
 787              		.cfi_endproc
 788              	.LFE36:
 790              		.section	.text.lv_fs_is_ready,"ax",%progbits
 791              		.align	1
 792              		.global	lv_fs_is_ready
 793              		.syntax unified
 794              		.thumb
 795              		.thumb_func
 796              		.fpu fpv4-sp-d16
 798              	lv_fs_is_ready:
 799              	.LVL65:
 800              	.LFB24:
  56:Middlewares/lvgl/src/misc/lv_fs.c ****     lv_fs_drv_t * drv = lv_fs_get_drv(letter);
 801              		.loc 1 56 1 is_stmt 1 view -0
 802              		.cfi_startproc
 803              		@ args = 0, pretend = 0, frame = 0
 804              		@ frame_needed = 0, uses_anonymous_args = 0
  56:Middlewares/lvgl/src/misc/lv_fs.c ****     lv_fs_drv_t * drv = lv_fs_get_drv(letter);
 805              		.loc 1 56 1 is_stmt 0 view .LVU211
 806 0000 08B5     		push	{r3, lr}
 807              	.LCFI21:
ARM GAS  /tmp/cc2Wv7Zs.s 			page 25


 808              		.cfi_def_cfa_offset 8
 809              		.cfi_offset 3, -8
 810              		.cfi_offset 14, -4
  57:Middlewares/lvgl/src/misc/lv_fs.c **** 
 811              		.loc 1 57 5 is_stmt 1 view .LVU212
  57:Middlewares/lvgl/src/misc/lv_fs.c **** 
 812              		.loc 1 57 25 is_stmt 0 view .LVU213
 813 0002 FFF7FEFF 		bl	lv_fs_get_drv
 814              	.LVL66:
  59:Middlewares/lvgl/src/misc/lv_fs.c **** 
 815              		.loc 1 59 5 is_stmt 1 view .LVU214
  59:Middlewares/lvgl/src/misc/lv_fs.c **** 
 816              		.loc 1 59 7 is_stmt 0 view .LVU215
 817 0006 18B1     		cbz	r0, .L74
  61:Middlewares/lvgl/src/misc/lv_fs.c **** 
 818              		.loc 1 61 5 is_stmt 1 view .LVU216
  61:Middlewares/lvgl/src/misc/lv_fs.c **** 
 819              		.loc 1 61 11 is_stmt 0 view .LVU217
 820 0008 4268     		ldr	r2, [r0, #4]
  61:Middlewares/lvgl/src/misc/lv_fs.c **** 
 821              		.loc 1 61 7 view .LVU218
 822 000a 1AB1     		cbz	r2, .L75
  63:Middlewares/lvgl/src/misc/lv_fs.c **** }
 823              		.loc 1 63 5 is_stmt 1 view .LVU219
  63:Middlewares/lvgl/src/misc/lv_fs.c **** }
 824              		.loc 1 63 12 is_stmt 0 view .LVU220
 825 000c 9047     		blx	r2
 826              	.LVL67:
 827              	.L73:
  64:Middlewares/lvgl/src/misc/lv_fs.c **** 
 828              		.loc 1 64 1 view .LVU221
 829 000e 08BD     		pop	{r3, pc}
 830              	.LVL68:
 831              	.L74:
  59:Middlewares/lvgl/src/misc/lv_fs.c **** 
 832              		.loc 1 59 28 view .LVU222
 833 0010 0020     		movs	r0, #0
 834              	.LVL69:
  59:Middlewares/lvgl/src/misc/lv_fs.c **** 
 835              		.loc 1 59 28 view .LVU223
 836 0012 FCE7     		b	.L73
 837              	.LVL70:
 838              	.L75:
  61:Middlewares/lvgl/src/misc/lv_fs.c **** 
 839              		.loc 1 61 38 view .LVU224
 840 0014 0120     		movs	r0, #1
 841              	.LVL71:
  61:Middlewares/lvgl/src/misc/lv_fs.c **** 
 842              		.loc 1 61 38 view .LVU225
 843 0016 FAE7     		b	.L73
 844              		.cfi_endproc
 845              	.LFE24:
 847              		.section	.text.lv_fs_open,"ax",%progbits
 848              		.align	1
 849              		.global	lv_fs_open
 850              		.syntax unified
 851              		.thumb
ARM GAS  /tmp/cc2Wv7Zs.s 			page 26


 852              		.thumb_func
 853              		.fpu fpv4-sp-d16
 855              	lv_fs_open:
 856              	.LVL72:
 857              	.LFB25:
  67:Middlewares/lvgl/src/misc/lv_fs.c ****     if(path == NULL) {
 858              		.loc 1 67 1 is_stmt 1 view -0
 859              		.cfi_startproc
 860              		@ args = 0, pretend = 0, frame = 0
 861              		@ frame_needed = 0, uses_anonymous_args = 0
  68:Middlewares/lvgl/src/misc/lv_fs.c ****         LV_LOG_WARN("Can't open file: path is NULL");
 862              		.loc 1 68 5 view .LVU227
  68:Middlewares/lvgl/src/misc/lv_fs.c ****         LV_LOG_WARN("Can't open file: path is NULL");
 863              		.loc 1 68 7 is_stmt 0 view .LVU228
 864 0000 11B3     		cbz	r1, .L80
  67:Middlewares/lvgl/src/misc/lv_fs.c ****     if(path == NULL) {
 865              		.loc 1 67 1 view .LVU229
 866 0002 2DE9F041 		push	{r4, r5, r6, r7, r8, lr}
 867              	.LCFI22:
 868              		.cfi_def_cfa_offset 24
 869              		.cfi_offset 4, -24
 870              		.cfi_offset 5, -20
 871              		.cfi_offset 6, -16
 872              		.cfi_offset 7, -12
 873              		.cfi_offset 8, -8
 874              		.cfi_offset 14, -4
 875 0006 0446     		mov	r4, r0
 876 0008 1546     		mov	r5, r2
 877 000a 0F46     		mov	r7, r1
  73:Middlewares/lvgl/src/misc/lv_fs.c ****     lv_fs_drv_t * drv = lv_fs_get_drv(letter);
 878              		.loc 1 73 5 is_stmt 1 view .LVU230
 879              	.LVL73:
  74:Middlewares/lvgl/src/misc/lv_fs.c **** 
 880              		.loc 1 74 5 view .LVU231
  74:Middlewares/lvgl/src/misc/lv_fs.c **** 
 881              		.loc 1 74 25 is_stmt 0 view .LVU232
 882 000c 0878     		ldrb	r0, [r1]	@ zero_extendqisi2
 883              	.LVL74:
  74:Middlewares/lvgl/src/misc/lv_fs.c **** 
 884              		.loc 1 74 25 view .LVU233
 885 000e FFF7FEFF 		bl	lv_fs_get_drv
 886              	.LVL75:
  76:Middlewares/lvgl/src/misc/lv_fs.c ****         LV_LOG_WARN("Can't open file (%s): unknown driver letter", path);
 887              		.loc 1 76 5 is_stmt 1 view .LVU234
  76:Middlewares/lvgl/src/misc/lv_fs.c ****         LV_LOG_WARN("Can't open file (%s): unknown driver letter", path);
 888              		.loc 1 76 7 is_stmt 0 view .LVU235
 889 0012 0646     		mov	r6, r0
 890 0014 D0B1     		cbz	r0, .L81
  81:Middlewares/lvgl/src/misc/lv_fs.c ****         if(drv->ready_cb(drv) == false) {
 891              		.loc 1 81 5 is_stmt 1 view .LVU236
  81:Middlewares/lvgl/src/misc/lv_fs.c ****         if(drv->ready_cb(drv) == false) {
 892              		.loc 1 81 11 is_stmt 0 view .LVU237
 893 0016 4368     		ldr	r3, [r0, #4]
  81:Middlewares/lvgl/src/misc/lv_fs.c ****         if(drv->ready_cb(drv) == false) {
 894              		.loc 1 81 7 view .LVU238
 895 0018 0BB1     		cbz	r3, .L79
  82:Middlewares/lvgl/src/misc/lv_fs.c ****             LV_LOG_WARN("Can't open file (%s): driver not ready", path);
ARM GAS  /tmp/cc2Wv7Zs.s 			page 27


 896              		.loc 1 82 9 is_stmt 1 view .LVU239
  82:Middlewares/lvgl/src/misc/lv_fs.c ****             LV_LOG_WARN("Can't open file (%s): driver not ready", path);
 897              		.loc 1 82 12 is_stmt 0 view .LVU240
 898 001a 9847     		blx	r3
 899              	.LVL76:
  82:Middlewares/lvgl/src/misc/lv_fs.c ****             LV_LOG_WARN("Can't open file (%s): driver not ready", path);
 900              		.loc 1 82 11 view .LVU241
 901 001c C0B1     		cbz	r0, .L82
 902              	.L79:
  88:Middlewares/lvgl/src/misc/lv_fs.c ****         LV_LOG_WARN("Can't open file (%s): open function not exists", path);
 903              		.loc 1 88 5 is_stmt 1 view .LVU242
  88:Middlewares/lvgl/src/misc/lv_fs.c ****         LV_LOG_WARN("Can't open file (%s): open function not exists", path);
 904              		.loc 1 88 11 is_stmt 0 view .LVU243
 905 001e D6F80880 		ldr	r8, [r6, #8]
  88:Middlewares/lvgl/src/misc/lv_fs.c ****         LV_LOG_WARN("Can't open file (%s): open function not exists", path);
 906              		.loc 1 88 7 view .LVU244
 907 0022 B8F1000F 		cmp	r8, #0
 908 0026 15D0     		beq	.L83
  93:Middlewares/lvgl/src/misc/lv_fs.c ****     void *file_d = drv->open_cb(drv, real_path, mode);
 909              		.loc 1 93 5 is_stmt 1 view .LVU245
  93:Middlewares/lvgl/src/misc/lv_fs.c ****     void *file_d = drv->open_cb(drv, real_path, mode);
 910              		.loc 1 93 30 is_stmt 0 view .LVU246
 911 0028 3846     		mov	r0, r7
 912 002a FFF7FEFF 		bl	lv_fs_get_real_path
 913              	.LVL77:
 914 002e 0146     		mov	r1, r0
 915              	.LVL78:
  94:Middlewares/lvgl/src/misc/lv_fs.c **** 
 916              		.loc 1 94 5 is_stmt 1 view .LVU247
  94:Middlewares/lvgl/src/misc/lv_fs.c **** 
 917              		.loc 1 94 20 is_stmt 0 view .LVU248
 918 0030 2A46     		mov	r2, r5
 919 0032 3046     		mov	r0, r6
 920              	.LVL79:
  94:Middlewares/lvgl/src/misc/lv_fs.c **** 
 921              		.loc 1 94 20 view .LVU249
 922 0034 C047     		blx	r8
 923              	.LVL80:
  96:Middlewares/lvgl/src/misc/lv_fs.c ****         return LV_FS_RES_UNKNOWN;
 924              		.loc 1 96 5 is_stmt 1 view .LVU250
  96:Middlewares/lvgl/src/misc/lv_fs.c ****         return LV_FS_RES_UNKNOWN;
 925              		.loc 1 96 23 is_stmt 0 view .LVU251
 926 0036 431E     		subs	r3, r0, #1
  96:Middlewares/lvgl/src/misc/lv_fs.c ****         return LV_FS_RES_UNKNOWN;
 927              		.loc 1 96 7 view .LVU252
 928 0038 13F1030F 		cmn	r3, #3
 929 003c 0CD8     		bhi	.L84
 100:Middlewares/lvgl/src/misc/lv_fs.c ****     file_p->file_d = file_d;
 930              		.loc 1 100 5 is_stmt 1 view .LVU253
 100:Middlewares/lvgl/src/misc/lv_fs.c ****     file_p->file_d = file_d;
 931              		.loc 1 100 17 is_stmt 0 view .LVU254
 932 003e 6660     		str	r6, [r4, #4]
 101:Middlewares/lvgl/src/misc/lv_fs.c **** 
 933              		.loc 1 101 5 is_stmt 1 view .LVU255
 101:Middlewares/lvgl/src/misc/lv_fs.c **** 
 934              		.loc 1 101 20 is_stmt 0 view .LVU256
 935 0040 2060     		str	r0, [r4]
ARM GAS  /tmp/cc2Wv7Zs.s 			page 28


 103:Middlewares/lvgl/src/misc/lv_fs.c **** }
 936              		.loc 1 103 5 is_stmt 1 view .LVU257
 103:Middlewares/lvgl/src/misc/lv_fs.c **** }
 937              		.loc 1 103 12 is_stmt 0 view .LVU258
 938 0042 0020     		movs	r0, #0
 939              	.LVL81:
 940              	.L78:
 104:Middlewares/lvgl/src/misc/lv_fs.c **** 
 941              		.loc 1 104 1 view .LVU259
 942 0044 BDE8F081 		pop	{r4, r5, r6, r7, r8, pc}
 943              	.LVL82:
 944              	.L80:
 945              	.LCFI23:
 946              		.cfi_def_cfa_offset 0
 947              		.cfi_restore 4
 948              		.cfi_restore 5
 949              		.cfi_restore 6
 950              		.cfi_restore 7
 951              		.cfi_restore 8
 952              		.cfi_restore 14
  70:Middlewares/lvgl/src/misc/lv_fs.c ****     }
 953              		.loc 1 70 16 view .LVU260
 954 0048 0B20     		movs	r0, #11
 955              	.LVL83:
 104:Middlewares/lvgl/src/misc/lv_fs.c **** 
 956              		.loc 1 104 1 view .LVU261
 957 004a 7047     		bx	lr
 958              	.LVL84:
 959              	.L81:
 960              	.LCFI24:
 961              		.cfi_def_cfa_offset 24
 962              		.cfi_offset 4, -24
 963              		.cfi_offset 5, -20
 964              		.cfi_offset 6, -16
 965              		.cfi_offset 7, -12
 966              		.cfi_offset 8, -8
 967              		.cfi_offset 14, -4
  78:Middlewares/lvgl/src/misc/lv_fs.c ****     }
 968              		.loc 1 78 16 view .LVU262
 969 004c 0320     		movs	r0, #3
 970              	.LVL85:
  78:Middlewares/lvgl/src/misc/lv_fs.c ****     }
 971              		.loc 1 78 16 view .LVU263
 972 004e F9E7     		b	.L78
 973              	.L82:
  84:Middlewares/lvgl/src/misc/lv_fs.c ****         }
 974              		.loc 1 84 20 view .LVU264
 975 0050 0120     		movs	r0, #1
 976 0052 F7E7     		b	.L78
 977              	.L83:
  90:Middlewares/lvgl/src/misc/lv_fs.c ****     }
 978              		.loc 1 90 16 view .LVU265
 979 0054 0920     		movs	r0, #9
 980 0056 F5E7     		b	.L78
 981              	.LVL86:
 982              	.L84:
  97:Middlewares/lvgl/src/misc/lv_fs.c ****     }
ARM GAS  /tmp/cc2Wv7Zs.s 			page 29


 983              		.loc 1 97 16 view .LVU266
 984 0058 0C20     		movs	r0, #12
 985              	.LVL87:
  97:Middlewares/lvgl/src/misc/lv_fs.c ****     }
 986              		.loc 1 97 16 view .LVU267
 987 005a F3E7     		b	.L78
 988              		.cfi_endproc
 989              	.LFE25:
 991              		.section	.text.lv_fs_dir_open,"ax",%progbits
 992              		.align	1
 993              		.global	lv_fs_dir_open
 994              		.syntax unified
 995              		.thumb
 996              		.thumb_func
 997              		.fpu fpv4-sp-d16
 999              	lv_fs_dir_open:
 1000              	.LVL88:
 1001              	.LFB31:
 189:Middlewares/lvgl/src/misc/lv_fs.c ****     if(path == NULL) return LV_FS_RES_INV_PARAM;
 1002              		.loc 1 189 1 is_stmt 1 view -0
 1003              		.cfi_startproc
 1004              		@ args = 0, pretend = 0, frame = 0
 1005              		@ frame_needed = 0, uses_anonymous_args = 0
 190:Middlewares/lvgl/src/misc/lv_fs.c **** 
 1006              		.loc 1 190 5 view .LVU269
 190:Middlewares/lvgl/src/misc/lv_fs.c **** 
 1007              		.loc 1 190 7 is_stmt 0 view .LVU270
 1008 0000 D9B1     		cbz	r1, .L92
 189:Middlewares/lvgl/src/misc/lv_fs.c ****     if(path == NULL) return LV_FS_RES_INV_PARAM;
 1009              		.loc 1 189 1 view .LVU271
 1010 0002 F8B5     		push	{r3, r4, r5, r6, r7, lr}
 1011              	.LCFI25:
 1012              		.cfi_def_cfa_offset 24
 1013              		.cfi_offset 3, -24
 1014              		.cfi_offset 4, -20
 1015              		.cfi_offset 5, -16
 1016              		.cfi_offset 6, -12
 1017              		.cfi_offset 7, -8
 1018              		.cfi_offset 14, -4
 1019 0004 0646     		mov	r6, r0
 1020 0006 0D46     		mov	r5, r1
 192:Middlewares/lvgl/src/misc/lv_fs.c ****     lv_fs_drv_t * drv = lv_fs_get_drv(letter);
 1021              		.loc 1 192 5 is_stmt 1 view .LVU272
 1022              	.LVL89:
 193:Middlewares/lvgl/src/misc/lv_fs.c **** 
 1023              		.loc 1 193 5 view .LVU273
 193:Middlewares/lvgl/src/misc/lv_fs.c **** 
 1024              		.loc 1 193 25 is_stmt 0 view .LVU274
 1025 0008 0878     		ldrb	r0, [r1]	@ zero_extendqisi2
 1026              	.LVL90:
 193:Middlewares/lvgl/src/misc/lv_fs.c **** 
 1027              		.loc 1 193 25 view .LVU275
 1028 000a FFF7FEFF 		bl	lv_fs_get_drv
 1029              	.LVL91:
 195:Middlewares/lvgl/src/misc/lv_fs.c ****         return LV_FS_RES_NOT_EX;
 1030              		.loc 1 195 5 is_stmt 1 view .LVU276
 195:Middlewares/lvgl/src/misc/lv_fs.c ****         return LV_FS_RES_NOT_EX;
ARM GAS  /tmp/cc2Wv7Zs.s 			page 30


 1031              		.loc 1 195 7 is_stmt 0 view .LVU277
 1032 000e 0446     		mov	r4, r0
 1033 0010 A8B1     		cbz	r0, .L93
 199:Middlewares/lvgl/src/misc/lv_fs.c ****         if(drv->ready_cb(drv) == false) {
 1034              		.loc 1 199 5 is_stmt 1 view .LVU278
 199:Middlewares/lvgl/src/misc/lv_fs.c ****         if(drv->ready_cb(drv) == false) {
 1035              		.loc 1 199 11 is_stmt 0 view .LVU279
 1036 0012 4368     		ldr	r3, [r0, #4]
 199:Middlewares/lvgl/src/misc/lv_fs.c ****         if(drv->ready_cb(drv) == false) {
 1037              		.loc 1 199 7 view .LVU280
 1038 0014 0BB1     		cbz	r3, .L91
 200:Middlewares/lvgl/src/misc/lv_fs.c ****             return LV_FS_RES_HW_ERR;
 1039              		.loc 1 200 9 is_stmt 1 view .LVU281
 200:Middlewares/lvgl/src/misc/lv_fs.c ****             return LV_FS_RES_HW_ERR;
 1040              		.loc 1 200 12 is_stmt 0 view .LVU282
 1041 0016 9847     		blx	r3
 1042              	.LVL92:
 200:Middlewares/lvgl/src/misc/lv_fs.c ****             return LV_FS_RES_HW_ERR;
 1043              		.loc 1 200 11 view .LVU283
 1044 0018 98B1     		cbz	r0, .L94
 1045              	.L91:
 205:Middlewares/lvgl/src/misc/lv_fs.c ****         return LV_FS_RES_NOT_IMP;
 1046              		.loc 1 205 5 is_stmt 1 view .LVU284
 205:Middlewares/lvgl/src/misc/lv_fs.c ****         return LV_FS_RES_NOT_IMP;
 1047              		.loc 1 205 11 is_stmt 0 view .LVU285
 1048 001a 276A     		ldr	r7, [r4, #32]
 205:Middlewares/lvgl/src/misc/lv_fs.c ****         return LV_FS_RES_NOT_IMP;
 1049              		.loc 1 205 7 view .LVU286
 1050 001c 9FB1     		cbz	r7, .L95
 209:Middlewares/lvgl/src/misc/lv_fs.c ****     void *dir_d = drv->dir_open_cb(drv, real_path);
 1051              		.loc 1 209 5 is_stmt 1 view .LVU287
 209:Middlewares/lvgl/src/misc/lv_fs.c ****     void *dir_d = drv->dir_open_cb(drv, real_path);
 1052              		.loc 1 209 30 is_stmt 0 view .LVU288
 1053 001e 2846     		mov	r0, r5
 1054 0020 FFF7FEFF 		bl	lv_fs_get_real_path
 1055              	.LVL93:
 1056 0024 0146     		mov	r1, r0
 1057              	.LVL94:
 210:Middlewares/lvgl/src/misc/lv_fs.c **** 
 1058              		.loc 1 210 5 is_stmt 1 view .LVU289
 210:Middlewares/lvgl/src/misc/lv_fs.c **** 
 1059              		.loc 1 210 19 is_stmt 0 view .LVU290
 1060 0026 2046     		mov	r0, r4
 1061              	.LVL95:
 210:Middlewares/lvgl/src/misc/lv_fs.c **** 
 1062              		.loc 1 210 19 view .LVU291
 1063 0028 B847     		blx	r7
 1064              	.LVL96:
 212:Middlewares/lvgl/src/misc/lv_fs.c ****         return LV_FS_RES_UNKNOWN;
 1065              		.loc 1 212 5 is_stmt 1 view .LVU292
 212:Middlewares/lvgl/src/misc/lv_fs.c ****         return LV_FS_RES_UNKNOWN;
 1066              		.loc 1 212 22 is_stmt 0 view .LVU293
 1067 002a 421E     		subs	r2, r0, #1
 212:Middlewares/lvgl/src/misc/lv_fs.c ****         return LV_FS_RES_UNKNOWN;
 1068              		.loc 1 212 7 view .LVU294
 1069 002c 12F1030F 		cmn	r2, #3
 1070 0030 0BD8     		bhi	.L96
ARM GAS  /tmp/cc2Wv7Zs.s 			page 31


 216:Middlewares/lvgl/src/misc/lv_fs.c ****     rddir_p->dir_d = dir_d;
 1071              		.loc 1 216 5 is_stmt 1 view .LVU295
 216:Middlewares/lvgl/src/misc/lv_fs.c ****     rddir_p->dir_d = dir_d;
 1072              		.loc 1 216 18 is_stmt 0 view .LVU296
 1073 0032 7460     		str	r4, [r6, #4]
 217:Middlewares/lvgl/src/misc/lv_fs.c **** 
 1074              		.loc 1 217 5 is_stmt 1 view .LVU297
 217:Middlewares/lvgl/src/misc/lv_fs.c **** 
 1075              		.loc 1 217 20 is_stmt 0 view .LVU298
 1076 0034 3060     		str	r0, [r6]
 219:Middlewares/lvgl/src/misc/lv_fs.c **** }
 1077              		.loc 1 219 5 is_stmt 1 view .LVU299
 219:Middlewares/lvgl/src/misc/lv_fs.c **** }
 1078              		.loc 1 219 12 is_stmt 0 view .LVU300
 1079 0036 0020     		movs	r0, #0
 1080              	.LVL97:
 1081              	.L90:
 220:Middlewares/lvgl/src/misc/lv_fs.c **** 
 1082              		.loc 1 220 1 view .LVU301
 1083 0038 F8BD     		pop	{r3, r4, r5, r6, r7, pc}
 1084              	.LVL98:
 1085              	.L92:
 1086              	.LCFI26:
 1087              		.cfi_def_cfa_offset 0
 1088              		.cfi_restore 3
 1089              		.cfi_restore 4
 1090              		.cfi_restore 5
 1091              		.cfi_restore 6
 1092              		.cfi_restore 7
 1093              		.cfi_restore 14
 190:Middlewares/lvgl/src/misc/lv_fs.c **** 
 1094              		.loc 1 190 29 view .LVU302
 1095 003a 0B20     		movs	r0, #11
 1096              	.LVL99:
 220:Middlewares/lvgl/src/misc/lv_fs.c **** 
 1097              		.loc 1 220 1 view .LVU303
 1098 003c 7047     		bx	lr
 1099              	.LVL100:
 1100              	.L93:
 1101              	.LCFI27:
 1102              		.cfi_def_cfa_offset 24
 1103              		.cfi_offset 3, -24
 1104              		.cfi_offset 4, -20
 1105              		.cfi_offset 5, -16
 1106              		.cfi_offset 6, -12
 1107              		.cfi_offset 7, -8
 1108              		.cfi_offset 14, -4
 196:Middlewares/lvgl/src/misc/lv_fs.c ****     }
 1109              		.loc 1 196 16 view .LVU304
 1110 003e 0320     		movs	r0, #3
 1111              	.LVL101:
 196:Middlewares/lvgl/src/misc/lv_fs.c ****     }
 1112              		.loc 1 196 16 view .LVU305
 1113 0040 FAE7     		b	.L90
 1114              	.L94:
 201:Middlewares/lvgl/src/misc/lv_fs.c ****         }
 1115              		.loc 1 201 20 view .LVU306
ARM GAS  /tmp/cc2Wv7Zs.s 			page 32


 1116 0042 0120     		movs	r0, #1
 1117 0044 F8E7     		b	.L90
 1118              	.L95:
 206:Middlewares/lvgl/src/misc/lv_fs.c ****     }
 1119              		.loc 1 206 16 view .LVU307
 1120 0046 0920     		movs	r0, #9
 1121 0048 F6E7     		b	.L90
 1122              	.LVL102:
 1123              	.L96:
 213:Middlewares/lvgl/src/misc/lv_fs.c ****     }
 1124              		.loc 1 213 16 view .LVU308
 1125 004a 0C20     		movs	r0, #12
 1126              	.LVL103:
 213:Middlewares/lvgl/src/misc/lv_fs.c ****     }
 1127              		.loc 1 213 16 view .LVU309
 1128 004c F4E7     		b	.L90
 1129              		.cfi_endproc
 1130              	.LFE31:
 1132              		.section	.text.lv_fs_get_letters,"ax",%progbits
 1133              		.align	1
 1134              		.global	lv_fs_get_letters
 1135              		.syntax unified
 1136              		.thumb
 1137              		.thumb_func
 1138              		.fpu fpv4-sp-d16
 1140              	lv_fs_get_letters:
 1141              	.LVL104:
 1142              	.LFB37:
 287:Middlewares/lvgl/src/misc/lv_fs.c ****     lv_fs_drv_t ** drv;
 1143              		.loc 1 287 1 is_stmt 1 view -0
 1144              		.cfi_startproc
 1145              		@ args = 0, pretend = 0, frame = 0
 1146              		@ frame_needed = 0, uses_anonymous_args = 0
 287:Middlewares/lvgl/src/misc/lv_fs.c ****     lv_fs_drv_t ** drv;
 1147              		.loc 1 287 1 is_stmt 0 view .LVU311
 1148 0000 38B5     		push	{r3, r4, r5, lr}
 1149              	.LCFI28:
 1150              		.cfi_def_cfa_offset 16
 1151              		.cfi_offset 3, -16
 1152              		.cfi_offset 4, -12
 1153              		.cfi_offset 5, -8
 1154              		.cfi_offset 14, -4
 1155 0002 0546     		mov	r5, r0
 288:Middlewares/lvgl/src/misc/lv_fs.c ****     uint8_t i = 0;
 1156              		.loc 1 288 5 is_stmt 1 view .LVU312
 289:Middlewares/lvgl/src/misc/lv_fs.c **** 
 1157              		.loc 1 289 5 view .LVU313
 1158              	.LVL105:
 291:Middlewares/lvgl/src/misc/lv_fs.c ****         buf[i] = (*drv)->letter;
 1159              		.loc 1 291 5 view .LVU314
 1160 0004 0A48     		ldr	r0, .L105
 1161              	.LVL106:
 291:Middlewares/lvgl/src/misc/lv_fs.c ****         buf[i] = (*drv)->letter;
 1162              		.loc 1 291 5 is_stmt 0 view .LVU315
 1163 0006 FFF7FEFF 		bl	_lv_ll_get_head
 1164              	.LVL107:
 1165 000a 0146     		mov	r1, r0
ARM GAS  /tmp/cc2Wv7Zs.s 			page 33


 1166              	.LVL108:
 289:Middlewares/lvgl/src/misc/lv_fs.c **** 
 1167              		.loc 1 289 13 view .LVU316
 1168 000c 0024     		movs	r4, #0
 291:Middlewares/lvgl/src/misc/lv_fs.c ****         buf[i] = (*drv)->letter;
 1169              		.loc 1 291 5 view .LVU317
 1170 000e 08E0     		b	.L102
 1171              	.LVL109:
 1172              	.L103:
 292:Middlewares/lvgl/src/misc/lv_fs.c ****         i++;
 1173              		.loc 1 292 9 is_stmt 1 discriminator 3 view .LVU318
 292:Middlewares/lvgl/src/misc/lv_fs.c ****         i++;
 1174              		.loc 1 292 19 is_stmt 0 discriminator 3 view .LVU319
 1175 0010 0B68     		ldr	r3, [r1]
 292:Middlewares/lvgl/src/misc/lv_fs.c ****         i++;
 1176              		.loc 1 292 24 discriminator 3 view .LVU320
 1177 0012 1B78     		ldrb	r3, [r3]	@ zero_extendqisi2
 292:Middlewares/lvgl/src/misc/lv_fs.c ****         i++;
 1178              		.loc 1 292 16 discriminator 3 view .LVU321
 1179 0014 2B55     		strb	r3, [r5, r4]
 293:Middlewares/lvgl/src/misc/lv_fs.c ****     }
 1180              		.loc 1 293 9 is_stmt 1 discriminator 3 view .LVU322
 293:Middlewares/lvgl/src/misc/lv_fs.c ****     }
 1181              		.loc 1 293 10 is_stmt 0 discriminator 3 view .LVU323
 1182 0016 0134     		adds	r4, r4, #1
 1183              	.LVL110:
 293:Middlewares/lvgl/src/misc/lv_fs.c ****     }
 1184              		.loc 1 293 10 discriminator 3 view .LVU324
 1185 0018 E4B2     		uxtb	r4, r4
 1186              	.LVL111:
 291:Middlewares/lvgl/src/misc/lv_fs.c ****         buf[i] = (*drv)->letter;
 1187              		.loc 1 291 5 is_stmt 1 discriminator 3 view .LVU325
 1188 001a 0548     		ldr	r0, .L105
 1189              	.LVL112:
 291:Middlewares/lvgl/src/misc/lv_fs.c ****         buf[i] = (*drv)->letter;
 1190              		.loc 1 291 5 is_stmt 0 discriminator 3 view .LVU326
 1191 001c FFF7FEFF 		bl	_lv_ll_get_next
 1192              	.LVL113:
 291:Middlewares/lvgl/src/misc/lv_fs.c ****         buf[i] = (*drv)->letter;
 1193              		.loc 1 291 5 discriminator 3 view .LVU327
 1194 0020 0146     		mov	r1, r0
 1195              	.LVL114:
 1196              	.L102:
 291:Middlewares/lvgl/src/misc/lv_fs.c ****         buf[i] = (*drv)->letter;
 1197              		.loc 1 291 5 is_stmt 1 discriminator 1 view .LVU328
 1198 0022 0029     		cmp	r1, #0
 1199 0024 F4D1     		bne	.L103
 296:Middlewares/lvgl/src/misc/lv_fs.c **** 
 1200              		.loc 1 296 5 view .LVU329
 296:Middlewares/lvgl/src/misc/lv_fs.c **** 
 1201              		.loc 1 296 12 is_stmt 0 view .LVU330
 1202 0026 0023     		movs	r3, #0
 1203 0028 2B55     		strb	r3, [r5, r4]
 298:Middlewares/lvgl/src/misc/lv_fs.c **** }
 1204              		.loc 1 298 5 is_stmt 1 view .LVU331
 299:Middlewares/lvgl/src/misc/lv_fs.c **** 
 1205              		.loc 1 299 1 is_stmt 0 view .LVU332
ARM GAS  /tmp/cc2Wv7Zs.s 			page 34


 1206 002a 2846     		mov	r0, r5
 1207              	.LVL115:
 299:Middlewares/lvgl/src/misc/lv_fs.c **** 
 1208              		.loc 1 299 1 view .LVU333
 1209 002c 38BD     		pop	{r3, r4, r5, pc}
 1210              	.LVL116:
 1211              	.L106:
 299:Middlewares/lvgl/src/misc/lv_fs.c **** 
 1212              		.loc 1 299 1 view .LVU334
 1213 002e 00BF     		.align	2
 1214              	.L105:
 1215 0030 00000000 		.word	_lv_fsdrv_ll
 1216              		.cfi_endproc
 1217              	.LFE37:
 1219              		.section	.rodata.lv_fs_get_ext.str1.4,"aMS",%progbits,1
 1220              		.align	2
 1221              	.LC0:
 1222 0000 00       		.ascii	"\000"
 1223              		.section	.text.lv_fs_get_ext,"ax",%progbits
 1224              		.align	1
 1225              		.global	lv_fs_get_ext
 1226              		.syntax unified
 1227              		.thumb
 1228              		.thumb_func
 1229              		.fpu fpv4-sp-d16
 1231              	lv_fs_get_ext:
 1232              	.LVL117:
 1233              	.LFB38:
 302:Middlewares/lvgl/src/misc/lv_fs.c ****     size_t i;
 1234              		.loc 1 302 1 is_stmt 1 view -0
 1235              		.cfi_startproc
 1236              		@ args = 0, pretend = 0, frame = 0
 1237              		@ frame_needed = 0, uses_anonymous_args = 0
 302:Middlewares/lvgl/src/misc/lv_fs.c ****     size_t i;
 1238              		.loc 1 302 1 is_stmt 0 view .LVU336
 1239 0000 10B5     		push	{r4, lr}
 1240              	.LCFI29:
 1241              		.cfi_def_cfa_offset 8
 1242              		.cfi_offset 4, -8
 1243              		.cfi_offset 14, -4
 1244 0002 0446     		mov	r4, r0
 303:Middlewares/lvgl/src/misc/lv_fs.c ****     for(i = strlen(fn); i > 0; i--) {
 1245              		.loc 1 303 5 is_stmt 1 view .LVU337
 304:Middlewares/lvgl/src/misc/lv_fs.c ****         if(fn[i] == '.') {
 1246              		.loc 1 304 5 view .LVU338
 304:Middlewares/lvgl/src/misc/lv_fs.c ****         if(fn[i] == '.') {
 1247              		.loc 1 304 13 is_stmt 0 view .LVU339
 1248 0004 FFF7FEFF 		bl	strlen
 1249              	.LVL118:
 1250              	.L108:
 304:Middlewares/lvgl/src/misc/lv_fs.c ****         if(fn[i] == '.') {
 1251              		.loc 1 304 25 is_stmt 1 discriminator 1 view .LVU340
 304:Middlewares/lvgl/src/misc/lv_fs.c ****         if(fn[i] == '.') {
 1252              		.loc 1 304 5 is_stmt 0 discriminator 1 view .LVU341
 1253 0008 58B1     		cbz	r0, .L115
 305:Middlewares/lvgl/src/misc/lv_fs.c ****             return &fn[i + 1];
 1254              		.loc 1 305 9 is_stmt 1 view .LVU342
ARM GAS  /tmp/cc2Wv7Zs.s 			page 35


 305:Middlewares/lvgl/src/misc/lv_fs.c ****             return &fn[i + 1];
 1255              		.loc 1 305 14 is_stmt 0 view .LVU343
 1256 000a 235C     		ldrb	r3, [r4, r0]	@ zero_extendqisi2
 305:Middlewares/lvgl/src/misc/lv_fs.c ****             return &fn[i + 1];
 1257              		.loc 1 305 11 view .LVU344
 1258 000c 2E2B     		cmp	r3, #46
 1259 000e 05D0     		beq	.L116
 308:Middlewares/lvgl/src/misc/lv_fs.c ****             return ""; /*No extension if a '\' or '/' found*/
 1260              		.loc 1 308 14 is_stmt 1 view .LVU345
 308:Middlewares/lvgl/src/misc/lv_fs.c ****             return ""; /*No extension if a '\' or '/' found*/
 1261              		.loc 1 308 16 is_stmt 0 view .LVU346
 1262 0010 2F2B     		cmp	r3, #47
 1263 0012 08D0     		beq	.L112
 308:Middlewares/lvgl/src/misc/lv_fs.c ****             return ""; /*No extension if a '\' or '/' found*/
 1264              		.loc 1 308 30 discriminator 1 view .LVU347
 1265 0014 5C2B     		cmp	r3, #92
 1266 0016 08D0     		beq	.L113
 304:Middlewares/lvgl/src/misc/lv_fs.c ****         if(fn[i] == '.') {
 1267              		.loc 1 304 32 is_stmt 1 discriminator 2 view .LVU348
 304:Middlewares/lvgl/src/misc/lv_fs.c ****         if(fn[i] == '.') {
 1268              		.loc 1 304 33 is_stmt 0 discriminator 2 view .LVU349
 1269 0018 0138     		subs	r0, r0, #1
 1270              	.LVL119:
 304:Middlewares/lvgl/src/misc/lv_fs.c ****         if(fn[i] == '.') {
 1271              		.loc 1 304 33 discriminator 2 view .LVU350
 1272 001a F5E7     		b	.L108
 1273              	.L116:
 306:Middlewares/lvgl/src/misc/lv_fs.c ****         }
 1274              		.loc 1 306 13 is_stmt 1 view .LVU351
 306:Middlewares/lvgl/src/misc/lv_fs.c ****         }
 1275              		.loc 1 306 23 is_stmt 0 view .LVU352
 1276 001c 431C     		adds	r3, r0, #1
 306:Middlewares/lvgl/src/misc/lv_fs.c ****         }
 1277              		.loc 1 306 20 view .LVU353
 1278 001e E018     		adds	r0, r4, r3
 1279              	.LVL120:
 306:Middlewares/lvgl/src/misc/lv_fs.c ****         }
 1280              		.loc 1 306 20 view .LVU354
 1281 0020 00E0     		b	.L107
 1282              	.LVL121:
 1283              	.L115:
 313:Middlewares/lvgl/src/misc/lv_fs.c **** }
 1284              		.loc 1 313 12 view .LVU355
 1285 0022 0348     		ldr	r0, .L117
 1286              	.LVL122:
 1287              	.L107:
 314:Middlewares/lvgl/src/misc/lv_fs.c **** 
 1288              		.loc 1 314 1 view .LVU356
 1289 0024 10BD     		pop	{r4, pc}
 1290              	.LVL123:
 1291              	.L112:
 309:Middlewares/lvgl/src/misc/lv_fs.c ****         }
 1292              		.loc 1 309 20 view .LVU357
 1293 0026 0248     		ldr	r0, .L117
 1294              	.LVL124:
 309:Middlewares/lvgl/src/misc/lv_fs.c ****         }
 1295              		.loc 1 309 20 view .LVU358
ARM GAS  /tmp/cc2Wv7Zs.s 			page 36


 1296 0028 FCE7     		b	.L107
 1297              	.LVL125:
 1298              	.L113:
 309:Middlewares/lvgl/src/misc/lv_fs.c ****         }
 1299              		.loc 1 309 20 view .LVU359
 1300 002a 0148     		ldr	r0, .L117
 1301              	.LVL126:
 309:Middlewares/lvgl/src/misc/lv_fs.c ****         }
 1302              		.loc 1 309 20 view .LVU360
 1303 002c FAE7     		b	.L107
 1304              	.L118:
 1305 002e 00BF     		.align	2
 1306              	.L117:
 1307 0030 00000000 		.word	.LC0
 1308              		.cfi_endproc
 1309              	.LFE38:
 1311              		.section	.text.lv_fs_up,"ax",%progbits
 1312              		.align	1
 1313              		.global	lv_fs_up
 1314              		.syntax unified
 1315              		.thumb
 1316              		.thumb_func
 1317              		.fpu fpv4-sp-d16
 1319              	lv_fs_up:
 1320              	.LVL127:
 1321              	.LFB39:
 317:Middlewares/lvgl/src/misc/lv_fs.c ****     size_t len = strlen(path);
 1322              		.loc 1 317 1 is_stmt 1 view -0
 1323              		.cfi_startproc
 1324              		@ args = 0, pretend = 0, frame = 0
 1325              		@ frame_needed = 0, uses_anonymous_args = 0
 317:Middlewares/lvgl/src/misc/lv_fs.c ****     size_t len = strlen(path);
 1326              		.loc 1 317 1 is_stmt 0 view .LVU362
 1327 0000 10B5     		push	{r4, lr}
 1328              	.LCFI30:
 1329              		.cfi_def_cfa_offset 8
 1330              		.cfi_offset 4, -8
 1331              		.cfi_offset 14, -4
 1332 0002 0446     		mov	r4, r0
 318:Middlewares/lvgl/src/misc/lv_fs.c ****     if(len == 0) return path;
 1333              		.loc 1 318 5 is_stmt 1 view .LVU363
 318:Middlewares/lvgl/src/misc/lv_fs.c ****     if(len == 0) return path;
 1334              		.loc 1 318 18 is_stmt 0 view .LVU364
 1335 0004 FFF7FEFF 		bl	strlen
 1336              	.LVL128:
 319:Middlewares/lvgl/src/misc/lv_fs.c **** 
 1337              		.loc 1 319 5 is_stmt 1 view .LVU365
 319:Middlewares/lvgl/src/misc/lv_fs.c **** 
 1338              		.loc 1 319 7 is_stmt 0 view .LVU366
 1339 0008 B0B1     		cbz	r0, .L120
 321:Middlewares/lvgl/src/misc/lv_fs.c **** 
 1340              		.loc 1 321 5 is_stmt 1 view .LVU367
 321:Middlewares/lvgl/src/misc/lv_fs.c **** 
 1341              		.loc 1 321 8 is_stmt 0 view .LVU368
 1342 000a 431E     		subs	r3, r0, #1
 1343              	.LVL129:
 324:Middlewares/lvgl/src/misc/lv_fs.c ****         path[len] = '\0';
ARM GAS  /tmp/cc2Wv7Zs.s 			page 37


 1344              		.loc 1 324 5 is_stmt 1 view .LVU369
 324:Middlewares/lvgl/src/misc/lv_fs.c ****         path[len] = '\0';
 1345              		.loc 1 324 10 is_stmt 0 view .LVU370
 1346 000c 03E0     		b	.L121
 1347              	.L122:
 325:Middlewares/lvgl/src/misc/lv_fs.c ****         if(len > 0)
 1348              		.loc 1 325 9 is_stmt 1 view .LVU371
 325:Middlewares/lvgl/src/misc/lv_fs.c ****         if(len > 0)
 1349              		.loc 1 325 19 is_stmt 0 view .LVU372
 1350 000e 0022     		movs	r2, #0
 1351 0010 0A70     		strb	r2, [r1]
 326:Middlewares/lvgl/src/misc/lv_fs.c ****             len--;
 1352              		.loc 1 326 9 is_stmt 1 view .LVU373
 326:Middlewares/lvgl/src/misc/lv_fs.c ****             len--;
 1353              		.loc 1 326 11 is_stmt 0 view .LVU374
 1354 0012 8BB1     		cbz	r3, .L120
 327:Middlewares/lvgl/src/misc/lv_fs.c ****         else
 1355              		.loc 1 327 13 is_stmt 1 view .LVU375
 327:Middlewares/lvgl/src/misc/lv_fs.c ****         else
 1356              		.loc 1 327 16 is_stmt 0 view .LVU376
 1357 0014 013B     		subs	r3, r3, #1
 1358              	.LVL130:
 1359              	.L121:
 324:Middlewares/lvgl/src/misc/lv_fs.c ****         path[len] = '\0';
 1360              		.loc 1 324 10 is_stmt 1 view .LVU377
 324:Middlewares/lvgl/src/misc/lv_fs.c ****         path[len] = '\0';
 1361              		.loc 1 324 15 is_stmt 0 view .LVU378
 1362 0016 E118     		adds	r1, r4, r3
 1363 0018 E25C     		ldrb	r2, [r4, r3]	@ zero_extendqisi2
 324:Middlewares/lvgl/src/misc/lv_fs.c ****         path[len] = '\0';
 1364              		.loc 1 324 10 view .LVU379
 1365 001a 2F2A     		cmp	r2, #47
 1366 001c F7D0     		beq	.L122
 324:Middlewares/lvgl/src/misc/lv_fs.c ****         path[len] = '\0';
 1367              		.loc 1 324 28 discriminator 1 view .LVU380
 1368 001e 5C2A     		cmp	r2, #92
 1369 0020 F5D0     		beq	.L122
 1370              	.LVL131:
 1371              	.L123:
 333:Middlewares/lvgl/src/misc/lv_fs.c ****         if(path[i] == '/' || path[i] == '\\') break;
 1372              		.loc 1 333 18 is_stmt 1 discriminator 1 view .LVU381
 333:Middlewares/lvgl/src/misc/lv_fs.c ****         if(path[i] == '/' || path[i] == '\\') break;
 1373              		.loc 1 333 5 is_stmt 0 discriminator 1 view .LVU382
 1374 0022 33B1     		cbz	r3, .L124
 334:Middlewares/lvgl/src/misc/lv_fs.c ****     }
 1375              		.loc 1 334 9 is_stmt 1 view .LVU383
 334:Middlewares/lvgl/src/misc/lv_fs.c ****     }
 1376              		.loc 1 334 16 is_stmt 0 view .LVU384
 1377 0024 E25C     		ldrb	r2, [r4, r3]	@ zero_extendqisi2
 334:Middlewares/lvgl/src/misc/lv_fs.c ****     }
 1378              		.loc 1 334 11 view .LVU385
 1379 0026 2F2A     		cmp	r2, #47
 1380 0028 03D0     		beq	.L124
 334:Middlewares/lvgl/src/misc/lv_fs.c ****     }
 1381              		.loc 1 334 27 discriminator 1 view .LVU386
 1382 002a 5C2A     		cmp	r2, #92
 1383 002c 01D0     		beq	.L124
ARM GAS  /tmp/cc2Wv7Zs.s 			page 38


 333:Middlewares/lvgl/src/misc/lv_fs.c ****         if(path[i] == '/' || path[i] == '\\') break;
 1384              		.loc 1 333 25 is_stmt 1 discriminator 2 view .LVU387
 333:Middlewares/lvgl/src/misc/lv_fs.c ****         if(path[i] == '/' || path[i] == '\\') break;
 1385              		.loc 1 333 26 is_stmt 0 discriminator 2 view .LVU388
 1386 002e 013B     		subs	r3, r3, #1
 1387              	.LVL132:
 333:Middlewares/lvgl/src/misc/lv_fs.c ****         if(path[i] == '/' || path[i] == '\\') break;
 1388              		.loc 1 333 26 discriminator 2 view .LVU389
 1389 0030 F7E7     		b	.L123
 1390              	.L124:
 337:Middlewares/lvgl/src/misc/lv_fs.c **** 
 1391              		.loc 1 337 5 is_stmt 1 view .LVU390
 337:Middlewares/lvgl/src/misc/lv_fs.c **** 
 1392              		.loc 1 337 7 is_stmt 0 view .LVU391
 1393 0032 0BB1     		cbz	r3, .L120
 337:Middlewares/lvgl/src/misc/lv_fs.c **** 
 1394              		.loc 1 337 15 is_stmt 1 discriminator 1 view .LVU392
 337:Middlewares/lvgl/src/misc/lv_fs.c **** 
 1395              		.loc 1 337 23 is_stmt 0 discriminator 1 view .LVU393
 1396 0034 0022     		movs	r2, #0
 1397 0036 E254     		strb	r2, [r4, r3]
 1398              	.LVL133:
 1399              	.L120:
 340:Middlewares/lvgl/src/misc/lv_fs.c **** 
 1400              		.loc 1 340 1 view .LVU394
 1401 0038 2046     		mov	r0, r4
 1402 003a 10BD     		pop	{r4, pc}
 340:Middlewares/lvgl/src/misc/lv_fs.c **** 
 1403              		.loc 1 340 1 view .LVU395
 1404              		.cfi_endproc
 1405              	.LFE39:
 1407              		.section	.text.lv_fs_get_last,"ax",%progbits
 1408              		.align	1
 1409              		.global	lv_fs_get_last
 1410              		.syntax unified
 1411              		.thumb
 1412              		.thumb_func
 1413              		.fpu fpv4-sp-d16
 1415              	lv_fs_get_last:
 1416              	.LVL134:
 1417              	.LFB40:
 343:Middlewares/lvgl/src/misc/lv_fs.c ****     size_t len = strlen(path);
 1418              		.loc 1 343 1 is_stmt 1 view -0
 1419              		.cfi_startproc
 1420              		@ args = 0, pretend = 0, frame = 0
 1421              		@ frame_needed = 0, uses_anonymous_args = 0
 343:Middlewares/lvgl/src/misc/lv_fs.c ****     size_t len = strlen(path);
 1422              		.loc 1 343 1 is_stmt 0 view .LVU397
 1423 0000 10B5     		push	{r4, lr}
 1424              	.LCFI31:
 1425              		.cfi_def_cfa_offset 8
 1426              		.cfi_offset 4, -8
 1427              		.cfi_offset 14, -4
 1428 0002 0446     		mov	r4, r0
 344:Middlewares/lvgl/src/misc/lv_fs.c ****     if(len == 0) return path;
 1429              		.loc 1 344 5 is_stmt 1 view .LVU398
 344:Middlewares/lvgl/src/misc/lv_fs.c ****     if(len == 0) return path;
ARM GAS  /tmp/cc2Wv7Zs.s 			page 39


 1430              		.loc 1 344 18 is_stmt 0 view .LVU399
 1431 0004 FFF7FEFF 		bl	strlen
 1432              	.LVL135:
 345:Middlewares/lvgl/src/misc/lv_fs.c **** 
 1433              		.loc 1 345 5 is_stmt 1 view .LVU400
 345:Middlewares/lvgl/src/misc/lv_fs.c **** 
 1434              		.loc 1 345 7 is_stmt 0 view .LVU401
 1435 0008 98B1     		cbz	r0, .L128
 347:Middlewares/lvgl/src/misc/lv_fs.c **** 
 1436              		.loc 1 347 5 is_stmt 1 view .LVU402
 347:Middlewares/lvgl/src/misc/lv_fs.c **** 
 1437              		.loc 1 347 8 is_stmt 0 view .LVU403
 1438 000a 431E     		subs	r3, r0, #1
 1439              	.LVL136:
 350:Middlewares/lvgl/src/misc/lv_fs.c ****         if(len > 0)
 1440              		.loc 1 350 5 is_stmt 1 view .LVU404
 350:Middlewares/lvgl/src/misc/lv_fs.c ****         if(len > 0)
 1441              		.loc 1 350 10 is_stmt 0 view .LVU405
 1442 000c 01E0     		b	.L129
 1443              	.L130:
 351:Middlewares/lvgl/src/misc/lv_fs.c ****             len--;
 1444              		.loc 1 351 9 is_stmt 1 view .LVU406
 351:Middlewares/lvgl/src/misc/lv_fs.c ****             len--;
 1445              		.loc 1 351 11 is_stmt 0 view .LVU407
 1446 000e 83B1     		cbz	r3, .L128
 352:Middlewares/lvgl/src/misc/lv_fs.c ****         else
 1447              		.loc 1 352 13 is_stmt 1 view .LVU408
 352:Middlewares/lvgl/src/misc/lv_fs.c ****         else
 1448              		.loc 1 352 16 is_stmt 0 view .LVU409
 1449 0010 013B     		subs	r3, r3, #1
 1450              	.LVL137:
 1451              	.L129:
 350:Middlewares/lvgl/src/misc/lv_fs.c ****         if(len > 0)
 1452              		.loc 1 350 10 is_stmt 1 view .LVU410
 350:Middlewares/lvgl/src/misc/lv_fs.c ****         if(len > 0)
 1453              		.loc 1 350 15 is_stmt 0 view .LVU411
 1454 0012 E25C     		ldrb	r2, [r4, r3]	@ zero_extendqisi2
 350:Middlewares/lvgl/src/misc/lv_fs.c ****         if(len > 0)
 1455              		.loc 1 350 10 view .LVU412
 1456 0014 2F2A     		cmp	r2, #47
 1457 0016 FAD0     		beq	.L130
 350:Middlewares/lvgl/src/misc/lv_fs.c ****         if(len > 0)
 1458              		.loc 1 350 28 discriminator 1 view .LVU413
 1459 0018 5C2A     		cmp	r2, #92
 1460 001a F8D0     		beq	.L130
 1461              	.LVL138:
 1462              	.L131:
 358:Middlewares/lvgl/src/misc/lv_fs.c ****         if(path[i] == '/' || path[i] == '\\') break;
 1463              		.loc 1 358 18 is_stmt 1 discriminator 1 view .LVU414
 358:Middlewares/lvgl/src/misc/lv_fs.c ****         if(path[i] == '/' || path[i] == '\\') break;
 1464              		.loc 1 358 5 is_stmt 0 discriminator 1 view .LVU415
 1465 001c 33B1     		cbz	r3, .L132
 359:Middlewares/lvgl/src/misc/lv_fs.c ****     }
 1466              		.loc 1 359 9 is_stmt 1 view .LVU416
 359:Middlewares/lvgl/src/misc/lv_fs.c ****     }
 1467              		.loc 1 359 16 is_stmt 0 view .LVU417
 1468 001e E25C     		ldrb	r2, [r4, r3]	@ zero_extendqisi2
ARM GAS  /tmp/cc2Wv7Zs.s 			page 40


 359:Middlewares/lvgl/src/misc/lv_fs.c ****     }
 1469              		.loc 1 359 11 view .LVU418
 1470 0020 2F2A     		cmp	r2, #47
 1471 0022 03D0     		beq	.L132
 359:Middlewares/lvgl/src/misc/lv_fs.c ****     }
 1472              		.loc 1 359 27 discriminator 1 view .LVU419
 1473 0024 5C2A     		cmp	r2, #92
 1474 0026 01D0     		beq	.L132
 358:Middlewares/lvgl/src/misc/lv_fs.c ****         if(path[i] == '/' || path[i] == '\\') break;
 1475              		.loc 1 358 25 is_stmt 1 discriminator 2 view .LVU420
 358:Middlewares/lvgl/src/misc/lv_fs.c ****         if(path[i] == '/' || path[i] == '\\') break;
 1476              		.loc 1 358 26 is_stmt 0 discriminator 2 view .LVU421
 1477 0028 013B     		subs	r3, r3, #1
 1478              	.LVL139:
 358:Middlewares/lvgl/src/misc/lv_fs.c ****         if(path[i] == '/' || path[i] == '\\') break;
 1479              		.loc 1 358 26 discriminator 2 view .LVU422
 1480 002a F7E7     		b	.L131
 1481              	.L132:
 363:Middlewares/lvgl/src/misc/lv_fs.c **** 
 1482              		.loc 1 363 5 is_stmt 1 view .LVU423
 363:Middlewares/lvgl/src/misc/lv_fs.c **** 
 1483              		.loc 1 363 7 is_stmt 0 view .LVU424
 1484 002c 0BB1     		cbz	r3, .L128
 365:Middlewares/lvgl/src/misc/lv_fs.c **** }
 1485              		.loc 1 365 5 is_stmt 1 view .LVU425
 365:Middlewares/lvgl/src/misc/lv_fs.c **** }
 1486              		.loc 1 365 17 is_stmt 0 view .LVU426
 1487 002e 0133     		adds	r3, r3, #1
 1488              	.LVL140:
 365:Middlewares/lvgl/src/misc/lv_fs.c **** }
 1489              		.loc 1 365 12 view .LVU427
 1490 0030 1C44     		add	r4, r4, r3
 1491              	.LVL141:
 1492              	.L128:
 366:Middlewares/lvgl/src/misc/lv_fs.c **** /**********************
 1493              		.loc 1 366 1 view .LVU428
 1494 0032 2046     		mov	r0, r4
 1495 0034 10BD     		pop	{r4, pc}
 1496              		.cfi_endproc
 1497              	.LFE40:
 1499              		.text
 1500              	.Letext0:
 1501              		.file 2 "/home/akinya/gcc-arm-none-eabi/arm-none-eabi/include/machine/_default_types.h"
 1502              		.file 3 "/home/akinya/gcc-arm-none-eabi/arm-none-eabi/include/sys/_stdint.h"
 1503              		.file 4 "Middlewares/lvgl/src/misc/lv_fs.h"
 1504              		.file 5 "/home/akinya/gcc-arm-none-eabi/lib/gcc/arm-none-eabi/10.3.1/include/stddef.h"
 1505              		.file 6 "Middlewares/lvgl/src/misc/lv_ll.h"
 1506              		.file 7 "Middlewares/lvgl/src/misc/lv_gc.h"
 1507              		.file 8 "/home/akinya/gcc-arm-none-eabi/arm-none-eabi/include/string.h"
 1508              		.file 9 "Middlewares/lvgl/src/misc/lv_mem.h"
ARM GAS  /tmp/cc2Wv7Zs.s 			page 41

