ARM GAS  /tmp/ccU94mph.s 			page 1


   1              		.cpu cortex-m4
   2              		.eabi_attribute 27, 1
   3              		.eabi_attribute 28, 1
   4              		.eabi_attribute 20, 1
   5              		.eabi_attribute 21, 1
   6              		.eabi_attribute 23, 3
   7              		.eabi_attribute 24, 1
   8              		.eabi_attribute 25, 1
   9              		.eabi_attribute 26, 1
  10              		.eabi_attribute 30, 1
  11              		.eabi_attribute 34, 1
  12              		.eabi_attribute 18, 4
  13              		.file	"lv_flex.c"
  14              		.text
  15              	.Ltext0:
  16              		.cfi_sections	.debug_frame
  17              		.section	.text.lv_area_get_width,"ax",%progbits
  18              		.align	1
  19              		.arch armv7e-m
  20              		.syntax unified
  21              		.thumb
  22              		.thumb_func
  23              		.fpu fpv4-sp-d16
  25              	lv_area_get_width:
  26              	.LVL0:
  27              	.LFB1:
  28              		.file 1 "Middlewares/lvgl/src/extra/layouts/flex/../flex/../../../core/../misc/../font/../misc/lv_
   1:Middlewares/lvgl/src/extra/layouts/flex/../flex/../../../core/../misc/../font/../misc/lv_area.h **** /**
   2:Middlewares/lvgl/src/extra/layouts/flex/../flex/../../../core/../misc/../font/../misc/lv_area.h ****  * @file lv_area.h
   3:Middlewares/lvgl/src/extra/layouts/flex/../flex/../../../core/../misc/../font/../misc/lv_area.h ****  *
   4:Middlewares/lvgl/src/extra/layouts/flex/../flex/../../../core/../misc/../font/../misc/lv_area.h ****  */
   5:Middlewares/lvgl/src/extra/layouts/flex/../flex/../../../core/../misc/../font/../misc/lv_area.h **** 
   6:Middlewares/lvgl/src/extra/layouts/flex/../flex/../../../core/../misc/../font/../misc/lv_area.h **** #ifndef LV_AREA_H
   7:Middlewares/lvgl/src/extra/layouts/flex/../flex/../../../core/../misc/../font/../misc/lv_area.h **** #define LV_AREA_H
   8:Middlewares/lvgl/src/extra/layouts/flex/../flex/../../../core/../misc/../font/../misc/lv_area.h **** 
   9:Middlewares/lvgl/src/extra/layouts/flex/../flex/../../../core/../misc/../font/../misc/lv_area.h **** #ifdef __cplusplus
  10:Middlewares/lvgl/src/extra/layouts/flex/../flex/../../../core/../misc/../font/../misc/lv_area.h **** extern "C" {
  11:Middlewares/lvgl/src/extra/layouts/flex/../flex/../../../core/../misc/../font/../misc/lv_area.h **** #endif
  12:Middlewares/lvgl/src/extra/layouts/flex/../flex/../../../core/../misc/../font/../misc/lv_area.h **** 
  13:Middlewares/lvgl/src/extra/layouts/flex/../flex/../../../core/../misc/../font/../misc/lv_area.h **** /*********************
  14:Middlewares/lvgl/src/extra/layouts/flex/../flex/../../../core/../misc/../font/../misc/lv_area.h ****  *      INCLUDES
  15:Middlewares/lvgl/src/extra/layouts/flex/../flex/../../../core/../misc/../font/../misc/lv_area.h ****  *********************/
  16:Middlewares/lvgl/src/extra/layouts/flex/../flex/../../../core/../misc/../font/../misc/lv_area.h **** #include "../lv_conf_internal.h"
  17:Middlewares/lvgl/src/extra/layouts/flex/../flex/../../../core/../misc/../font/../misc/lv_area.h **** #include <string.h>
  18:Middlewares/lvgl/src/extra/layouts/flex/../flex/../../../core/../misc/../font/../misc/lv_area.h **** #include <stdbool.h>
  19:Middlewares/lvgl/src/extra/layouts/flex/../flex/../../../core/../misc/../font/../misc/lv_area.h **** #include <stdint.h>
  20:Middlewares/lvgl/src/extra/layouts/flex/../flex/../../../core/../misc/../font/../misc/lv_area.h **** 
  21:Middlewares/lvgl/src/extra/layouts/flex/../flex/../../../core/../misc/../font/../misc/lv_area.h **** /*********************
  22:Middlewares/lvgl/src/extra/layouts/flex/../flex/../../../core/../misc/../font/../misc/lv_area.h ****  *      DEFINES
  23:Middlewares/lvgl/src/extra/layouts/flex/../flex/../../../core/../misc/../font/../misc/lv_area.h ****  *********************/
  24:Middlewares/lvgl/src/extra/layouts/flex/../flex/../../../core/../misc/../font/../misc/lv_area.h **** 
  25:Middlewares/lvgl/src/extra/layouts/flex/../flex/../../../core/../misc/../font/../misc/lv_area.h **** #define _LV_COORD_MAX_REDUCE    8192
  26:Middlewares/lvgl/src/extra/layouts/flex/../flex/../../../core/../misc/../font/../misc/lv_area.h **** 
  27:Middlewares/lvgl/src/extra/layouts/flex/../flex/../../../core/../misc/../font/../misc/lv_area.h **** #if LV_USE_LARGE_COORD
  28:Middlewares/lvgl/src/extra/layouts/flex/../flex/../../../core/../misc/../font/../misc/lv_area.h **** typedef int32_t lv_coord_t;
  29:Middlewares/lvgl/src/extra/layouts/flex/../flex/../../../core/../misc/../font/../misc/lv_area.h **** #else
  30:Middlewares/lvgl/src/extra/layouts/flex/../flex/../../../core/../misc/../font/../misc/lv_area.h **** typedef int16_t lv_coord_t;
ARM GAS  /tmp/ccU94mph.s 			page 2


  31:Middlewares/lvgl/src/extra/layouts/flex/../flex/../../../core/../misc/../font/../misc/lv_area.h **** #endif
  32:Middlewares/lvgl/src/extra/layouts/flex/../flex/../../../core/../misc/../font/../misc/lv_area.h **** 
  33:Middlewares/lvgl/src/extra/layouts/flex/../flex/../../../core/../misc/../font/../misc/lv_area.h **** /*To allow some special values in the end reduce the max value*/
  34:Middlewares/lvgl/src/extra/layouts/flex/../flex/../../../core/../misc/../font/../misc/lv_area.h **** #define LV_COORD_MAX ((lv_coord_t)((uint32_t)((uint32_t)1 << (8 * sizeof(lv_coord_t) - 1)) - _LV_CO
  35:Middlewares/lvgl/src/extra/layouts/flex/../flex/../../../core/../misc/../font/../misc/lv_area.h **** #define LV_COORD_MIN (-LV_COORD_MAX)
  36:Middlewares/lvgl/src/extra/layouts/flex/../flex/../../../core/../misc/../font/../misc/lv_area.h **** 
  37:Middlewares/lvgl/src/extra/layouts/flex/../flex/../../../core/../misc/../font/../misc/lv_area.h **** LV_EXPORT_CONST_INT(LV_COORD_MAX);
  38:Middlewares/lvgl/src/extra/layouts/flex/../flex/../../../core/../misc/../font/../misc/lv_area.h **** LV_EXPORT_CONST_INT(LV_COORD_MIN);
  39:Middlewares/lvgl/src/extra/layouts/flex/../flex/../../../core/../misc/../font/../misc/lv_area.h **** 
  40:Middlewares/lvgl/src/extra/layouts/flex/../flex/../../../core/../misc/../font/../misc/lv_area.h **** /**********************
  41:Middlewares/lvgl/src/extra/layouts/flex/../flex/../../../core/../misc/../font/../misc/lv_area.h ****  *      TYPEDEFS
  42:Middlewares/lvgl/src/extra/layouts/flex/../flex/../../../core/../misc/../font/../misc/lv_area.h ****  **********************/
  43:Middlewares/lvgl/src/extra/layouts/flex/../flex/../../../core/../misc/../font/../misc/lv_area.h **** 
  44:Middlewares/lvgl/src/extra/layouts/flex/../flex/../../../core/../misc/../font/../misc/lv_area.h **** /**
  45:Middlewares/lvgl/src/extra/layouts/flex/../flex/../../../core/../misc/../font/../misc/lv_area.h ****  * Represents a point on the screen.
  46:Middlewares/lvgl/src/extra/layouts/flex/../flex/../../../core/../misc/../font/../misc/lv_area.h ****  */
  47:Middlewares/lvgl/src/extra/layouts/flex/../flex/../../../core/../misc/../font/../misc/lv_area.h **** typedef struct {
  48:Middlewares/lvgl/src/extra/layouts/flex/../flex/../../../core/../misc/../font/../misc/lv_area.h ****     lv_coord_t x;
  49:Middlewares/lvgl/src/extra/layouts/flex/../flex/../../../core/../misc/../font/../misc/lv_area.h ****     lv_coord_t y;
  50:Middlewares/lvgl/src/extra/layouts/flex/../flex/../../../core/../misc/../font/../misc/lv_area.h **** } lv_point_t;
  51:Middlewares/lvgl/src/extra/layouts/flex/../flex/../../../core/../misc/../font/../misc/lv_area.h **** 
  52:Middlewares/lvgl/src/extra/layouts/flex/../flex/../../../core/../misc/../font/../misc/lv_area.h **** /** Represents an area of the screen.*/
  53:Middlewares/lvgl/src/extra/layouts/flex/../flex/../../../core/../misc/../font/../misc/lv_area.h **** typedef struct {
  54:Middlewares/lvgl/src/extra/layouts/flex/../flex/../../../core/../misc/../font/../misc/lv_area.h ****     lv_coord_t x1;
  55:Middlewares/lvgl/src/extra/layouts/flex/../flex/../../../core/../misc/../font/../misc/lv_area.h ****     lv_coord_t y1;
  56:Middlewares/lvgl/src/extra/layouts/flex/../flex/../../../core/../misc/../font/../misc/lv_area.h ****     lv_coord_t x2;
  57:Middlewares/lvgl/src/extra/layouts/flex/../flex/../../../core/../misc/../font/../misc/lv_area.h ****     lv_coord_t y2;
  58:Middlewares/lvgl/src/extra/layouts/flex/../flex/../../../core/../misc/../font/../misc/lv_area.h **** } lv_area_t;
  59:Middlewares/lvgl/src/extra/layouts/flex/../flex/../../../core/../misc/../font/../misc/lv_area.h **** 
  60:Middlewares/lvgl/src/extra/layouts/flex/../flex/../../../core/../misc/../font/../misc/lv_area.h **** /** Alignments*/
  61:Middlewares/lvgl/src/extra/layouts/flex/../flex/../../../core/../misc/../font/../misc/lv_area.h **** enum {
  62:Middlewares/lvgl/src/extra/layouts/flex/../flex/../../../core/../misc/../font/../misc/lv_area.h ****     LV_ALIGN_DEFAULT = 0,
  63:Middlewares/lvgl/src/extra/layouts/flex/../flex/../../../core/../misc/../font/../misc/lv_area.h ****     LV_ALIGN_TOP_LEFT,
  64:Middlewares/lvgl/src/extra/layouts/flex/../flex/../../../core/../misc/../font/../misc/lv_area.h ****     LV_ALIGN_TOP_MID,
  65:Middlewares/lvgl/src/extra/layouts/flex/../flex/../../../core/../misc/../font/../misc/lv_area.h ****     LV_ALIGN_TOP_RIGHT,
  66:Middlewares/lvgl/src/extra/layouts/flex/../flex/../../../core/../misc/../font/../misc/lv_area.h ****     LV_ALIGN_BOTTOM_LEFT,
  67:Middlewares/lvgl/src/extra/layouts/flex/../flex/../../../core/../misc/../font/../misc/lv_area.h ****     LV_ALIGN_BOTTOM_MID,
  68:Middlewares/lvgl/src/extra/layouts/flex/../flex/../../../core/../misc/../font/../misc/lv_area.h ****     LV_ALIGN_BOTTOM_RIGHT,
  69:Middlewares/lvgl/src/extra/layouts/flex/../flex/../../../core/../misc/../font/../misc/lv_area.h ****     LV_ALIGN_LEFT_MID,
  70:Middlewares/lvgl/src/extra/layouts/flex/../flex/../../../core/../misc/../font/../misc/lv_area.h ****     LV_ALIGN_RIGHT_MID,
  71:Middlewares/lvgl/src/extra/layouts/flex/../flex/../../../core/../misc/../font/../misc/lv_area.h ****     LV_ALIGN_CENTER,
  72:Middlewares/lvgl/src/extra/layouts/flex/../flex/../../../core/../misc/../font/../misc/lv_area.h **** 
  73:Middlewares/lvgl/src/extra/layouts/flex/../flex/../../../core/../misc/../font/../misc/lv_area.h ****     LV_ALIGN_OUT_TOP_LEFT,
  74:Middlewares/lvgl/src/extra/layouts/flex/../flex/../../../core/../misc/../font/../misc/lv_area.h ****     LV_ALIGN_OUT_TOP_MID,
  75:Middlewares/lvgl/src/extra/layouts/flex/../flex/../../../core/../misc/../font/../misc/lv_area.h ****     LV_ALIGN_OUT_TOP_RIGHT,
  76:Middlewares/lvgl/src/extra/layouts/flex/../flex/../../../core/../misc/../font/../misc/lv_area.h ****     LV_ALIGN_OUT_BOTTOM_LEFT,
  77:Middlewares/lvgl/src/extra/layouts/flex/../flex/../../../core/../misc/../font/../misc/lv_area.h ****     LV_ALIGN_OUT_BOTTOM_MID,
  78:Middlewares/lvgl/src/extra/layouts/flex/../flex/../../../core/../misc/../font/../misc/lv_area.h ****     LV_ALIGN_OUT_BOTTOM_RIGHT,
  79:Middlewares/lvgl/src/extra/layouts/flex/../flex/../../../core/../misc/../font/../misc/lv_area.h ****     LV_ALIGN_OUT_LEFT_TOP,
  80:Middlewares/lvgl/src/extra/layouts/flex/../flex/../../../core/../misc/../font/../misc/lv_area.h ****     LV_ALIGN_OUT_LEFT_MID,
  81:Middlewares/lvgl/src/extra/layouts/flex/../flex/../../../core/../misc/../font/../misc/lv_area.h ****     LV_ALIGN_OUT_LEFT_BOTTOM,
  82:Middlewares/lvgl/src/extra/layouts/flex/../flex/../../../core/../misc/../font/../misc/lv_area.h ****     LV_ALIGN_OUT_RIGHT_TOP,
  83:Middlewares/lvgl/src/extra/layouts/flex/../flex/../../../core/../misc/../font/../misc/lv_area.h ****     LV_ALIGN_OUT_RIGHT_MID,
  84:Middlewares/lvgl/src/extra/layouts/flex/../flex/../../../core/../misc/../font/../misc/lv_area.h ****     LV_ALIGN_OUT_RIGHT_BOTTOM,
  85:Middlewares/lvgl/src/extra/layouts/flex/../flex/../../../core/../misc/../font/../misc/lv_area.h **** };
  86:Middlewares/lvgl/src/extra/layouts/flex/../flex/../../../core/../misc/../font/../misc/lv_area.h **** typedef uint8_t lv_align_t;
  87:Middlewares/lvgl/src/extra/layouts/flex/../flex/../../../core/../misc/../font/../misc/lv_area.h **** 
ARM GAS  /tmp/ccU94mph.s 			page 3


  88:Middlewares/lvgl/src/extra/layouts/flex/../flex/../../../core/../misc/../font/../misc/lv_area.h **** enum {
  89:Middlewares/lvgl/src/extra/layouts/flex/../flex/../../../core/../misc/../font/../misc/lv_area.h ****     LV_DIR_NONE     = 0x00,
  90:Middlewares/lvgl/src/extra/layouts/flex/../flex/../../../core/../misc/../font/../misc/lv_area.h ****     LV_DIR_LEFT     = (1 << 0),
  91:Middlewares/lvgl/src/extra/layouts/flex/../flex/../../../core/../misc/../font/../misc/lv_area.h ****     LV_DIR_RIGHT    = (1 << 1),
  92:Middlewares/lvgl/src/extra/layouts/flex/../flex/../../../core/../misc/../font/../misc/lv_area.h ****     LV_DIR_TOP      = (1 << 2),
  93:Middlewares/lvgl/src/extra/layouts/flex/../flex/../../../core/../misc/../font/../misc/lv_area.h ****     LV_DIR_BOTTOM   = (1 << 3),
  94:Middlewares/lvgl/src/extra/layouts/flex/../flex/../../../core/../misc/../font/../misc/lv_area.h ****     LV_DIR_HOR      = LV_DIR_LEFT | LV_DIR_RIGHT,
  95:Middlewares/lvgl/src/extra/layouts/flex/../flex/../../../core/../misc/../font/../misc/lv_area.h ****     LV_DIR_VER      = LV_DIR_TOP | LV_DIR_BOTTOM,
  96:Middlewares/lvgl/src/extra/layouts/flex/../flex/../../../core/../misc/../font/../misc/lv_area.h ****     LV_DIR_ALL      = LV_DIR_HOR | LV_DIR_VER,
  97:Middlewares/lvgl/src/extra/layouts/flex/../flex/../../../core/../misc/../font/../misc/lv_area.h **** };
  98:Middlewares/lvgl/src/extra/layouts/flex/../flex/../../../core/../misc/../font/../misc/lv_area.h **** 
  99:Middlewares/lvgl/src/extra/layouts/flex/../flex/../../../core/../misc/../font/../misc/lv_area.h **** typedef uint8_t lv_dir_t;
 100:Middlewares/lvgl/src/extra/layouts/flex/../flex/../../../core/../misc/../font/../misc/lv_area.h **** 
 101:Middlewares/lvgl/src/extra/layouts/flex/../flex/../../../core/../misc/../font/../misc/lv_area.h **** /**********************
 102:Middlewares/lvgl/src/extra/layouts/flex/../flex/../../../core/../misc/../font/../misc/lv_area.h ****  * GLOBAL PROTOTYPES
 103:Middlewares/lvgl/src/extra/layouts/flex/../flex/../../../core/../misc/../font/../misc/lv_area.h ****  **********************/
 104:Middlewares/lvgl/src/extra/layouts/flex/../flex/../../../core/../misc/../font/../misc/lv_area.h **** 
 105:Middlewares/lvgl/src/extra/layouts/flex/../flex/../../../core/../misc/../font/../misc/lv_area.h **** /**
 106:Middlewares/lvgl/src/extra/layouts/flex/../flex/../../../core/../misc/../font/../misc/lv_area.h ****  * Initialize an area
 107:Middlewares/lvgl/src/extra/layouts/flex/../flex/../../../core/../misc/../font/../misc/lv_area.h ****  * @param area_p pointer to an area
 108:Middlewares/lvgl/src/extra/layouts/flex/../flex/../../../core/../misc/../font/../misc/lv_area.h ****  * @param x1 left coordinate of the area
 109:Middlewares/lvgl/src/extra/layouts/flex/../flex/../../../core/../misc/../font/../misc/lv_area.h ****  * @param y1 top coordinate of the area
 110:Middlewares/lvgl/src/extra/layouts/flex/../flex/../../../core/../misc/../font/../misc/lv_area.h ****  * @param x2 right coordinate of the area
 111:Middlewares/lvgl/src/extra/layouts/flex/../flex/../../../core/../misc/../font/../misc/lv_area.h ****  * @param y2 bottom coordinate of the area
 112:Middlewares/lvgl/src/extra/layouts/flex/../flex/../../../core/../misc/../font/../misc/lv_area.h ****  */
 113:Middlewares/lvgl/src/extra/layouts/flex/../flex/../../../core/../misc/../font/../misc/lv_area.h **** void lv_area_set(lv_area_t * area_p, lv_coord_t x1, lv_coord_t y1, lv_coord_t x2, lv_coord_t y2);
 114:Middlewares/lvgl/src/extra/layouts/flex/../flex/../../../core/../misc/../font/../misc/lv_area.h **** 
 115:Middlewares/lvgl/src/extra/layouts/flex/../flex/../../../core/../misc/../font/../misc/lv_area.h **** /**
 116:Middlewares/lvgl/src/extra/layouts/flex/../flex/../../../core/../misc/../font/../misc/lv_area.h ****  * Copy an area
 117:Middlewares/lvgl/src/extra/layouts/flex/../flex/../../../core/../misc/../font/../misc/lv_area.h ****  * @param dest pointer to the destination area
 118:Middlewares/lvgl/src/extra/layouts/flex/../flex/../../../core/../misc/../font/../misc/lv_area.h ****  * @param src pointer to the source area
 119:Middlewares/lvgl/src/extra/layouts/flex/../flex/../../../core/../misc/../font/../misc/lv_area.h ****  */
 120:Middlewares/lvgl/src/extra/layouts/flex/../flex/../../../core/../misc/../font/../misc/lv_area.h **** inline static void lv_area_copy(lv_area_t * dest, const lv_area_t * src)
 121:Middlewares/lvgl/src/extra/layouts/flex/../flex/../../../core/../misc/../font/../misc/lv_area.h **** {
 122:Middlewares/lvgl/src/extra/layouts/flex/../flex/../../../core/../misc/../font/../misc/lv_area.h ****     dest->x1 = src->x1;
 123:Middlewares/lvgl/src/extra/layouts/flex/../flex/../../../core/../misc/../font/../misc/lv_area.h ****     dest->y1 = src->y1;
 124:Middlewares/lvgl/src/extra/layouts/flex/../flex/../../../core/../misc/../font/../misc/lv_area.h ****     dest->x2 = src->x2;
 125:Middlewares/lvgl/src/extra/layouts/flex/../flex/../../../core/../misc/../font/../misc/lv_area.h ****     dest->y2 = src->y2;
 126:Middlewares/lvgl/src/extra/layouts/flex/../flex/../../../core/../misc/../font/../misc/lv_area.h **** }
 127:Middlewares/lvgl/src/extra/layouts/flex/../flex/../../../core/../misc/../font/../misc/lv_area.h **** 
 128:Middlewares/lvgl/src/extra/layouts/flex/../flex/../../../core/../misc/../font/../misc/lv_area.h **** /**
 129:Middlewares/lvgl/src/extra/layouts/flex/../flex/../../../core/../misc/../font/../misc/lv_area.h ****  * Get the width of an area
 130:Middlewares/lvgl/src/extra/layouts/flex/../flex/../../../core/../misc/../font/../misc/lv_area.h ****  * @param area_p pointer to an area
 131:Middlewares/lvgl/src/extra/layouts/flex/../flex/../../../core/../misc/../font/../misc/lv_area.h ****  * @return the width of the area (if x1 == x2 -> width = 1)
 132:Middlewares/lvgl/src/extra/layouts/flex/../flex/../../../core/../misc/../font/../misc/lv_area.h ****  */
 133:Middlewares/lvgl/src/extra/layouts/flex/../flex/../../../core/../misc/../font/../misc/lv_area.h **** static inline lv_coord_t lv_area_get_width(const lv_area_t * area_p)
 134:Middlewares/lvgl/src/extra/layouts/flex/../flex/../../../core/../misc/../font/../misc/lv_area.h **** {
  29              		.loc 1 134 1 view -0
  30              		.cfi_startproc
  31              		@ args = 0, pretend = 0, frame = 0
  32              		@ frame_needed = 0, uses_anonymous_args = 0
  33              		@ link register save eliminated.
  34              		.loc 1 134 1 is_stmt 0 view .LVU1
  35 0000 0346     		mov	r3, r0
 135:Middlewares/lvgl/src/extra/layouts/flex/../flex/../../../core/../misc/../font/../misc/lv_area.h ****     return (lv_coord_t)(area_p->x2 - area_p->x1 + 1);
  36              		.loc 1 135 5 is_stmt 1 view .LVU2
  37              		.loc 1 135 31 is_stmt 0 view .LVU3
ARM GAS  /tmp/ccU94mph.s 			page 4


  38 0002 8088     		ldrh	r0, [r0, #4]
  39              	.LVL1:
  40              		.loc 1 135 44 view .LVU4
  41 0004 1B88     		ldrh	r3, [r3]
  42              	.LVL2:
  43              		.loc 1 135 36 view .LVU5
  44 0006 C01A     		subs	r0, r0, r3
  45 0008 80B2     		uxth	r0, r0
  46              		.loc 1 135 49 view .LVU6
  47 000a 0130     		adds	r0, r0, #1
 136:Middlewares/lvgl/src/extra/layouts/flex/../flex/../../../core/../misc/../font/../misc/lv_area.h **** }
  48              		.loc 1 136 1 view .LVU7
  49 000c 00B2     		sxth	r0, r0
  50 000e 7047     		bx	lr
  51              		.cfi_endproc
  52              	.LFE1:
  54              		.section	.text.lv_area_get_height,"ax",%progbits
  55              		.align	1
  56              		.syntax unified
  57              		.thumb
  58              		.thumb_func
  59              		.fpu fpv4-sp-d16
  61              	lv_area_get_height:
  62              	.LVL3:
  63              	.LFB2:
 137:Middlewares/lvgl/src/extra/layouts/flex/../flex/../../../core/../misc/../font/../misc/lv_area.h **** 
 138:Middlewares/lvgl/src/extra/layouts/flex/../flex/../../../core/../misc/../font/../misc/lv_area.h **** /**
 139:Middlewares/lvgl/src/extra/layouts/flex/../flex/../../../core/../misc/../font/../misc/lv_area.h ****  * Get the height of an area
 140:Middlewares/lvgl/src/extra/layouts/flex/../flex/../../../core/../misc/../font/../misc/lv_area.h ****  * @param area_p pointer to an area
 141:Middlewares/lvgl/src/extra/layouts/flex/../flex/../../../core/../misc/../font/../misc/lv_area.h ****  * @return the height of the area (if y1 == y2 -> height = 1)
 142:Middlewares/lvgl/src/extra/layouts/flex/../flex/../../../core/../misc/../font/../misc/lv_area.h ****  */
 143:Middlewares/lvgl/src/extra/layouts/flex/../flex/../../../core/../misc/../font/../misc/lv_area.h **** static inline lv_coord_t lv_area_get_height(const lv_area_t * area_p)
 144:Middlewares/lvgl/src/extra/layouts/flex/../flex/../../../core/../misc/../font/../misc/lv_area.h **** {
  64              		.loc 1 144 1 is_stmt 1 view -0
  65              		.cfi_startproc
  66              		@ args = 0, pretend = 0, frame = 0
  67              		@ frame_needed = 0, uses_anonymous_args = 0
  68              		@ link register save eliminated.
  69              		.loc 1 144 1 is_stmt 0 view .LVU9
  70 0000 0346     		mov	r3, r0
 145:Middlewares/lvgl/src/extra/layouts/flex/../flex/../../../core/../misc/../font/../misc/lv_area.h ****     return (lv_coord_t)(area_p->y2 - area_p->y1 + 1);
  71              		.loc 1 145 5 is_stmt 1 view .LVU10
  72              		.loc 1 145 31 is_stmt 0 view .LVU11
  73 0002 C088     		ldrh	r0, [r0, #6]
  74              	.LVL4:
  75              		.loc 1 145 44 view .LVU12
  76 0004 5B88     		ldrh	r3, [r3, #2]
  77              	.LVL5:
  78              		.loc 1 145 36 view .LVU13
  79 0006 C01A     		subs	r0, r0, r3
  80 0008 80B2     		uxth	r0, r0
  81              		.loc 1 145 49 view .LVU14
  82 000a 0130     		adds	r0, r0, #1
 146:Middlewares/lvgl/src/extra/layouts/flex/../flex/../../../core/../misc/../font/../misc/lv_area.h **** }
  83              		.loc 1 146 1 view .LVU15
  84 000c 00B2     		sxth	r0, r0
  85 000e 7047     		bx	lr
ARM GAS  /tmp/ccU94mph.s 			page 5


  86              		.cfi_endproc
  87              	.LFE2:
  89              		.section	.text.place_content,"ax",%progbits
  90              		.align	1
  91              		.syntax unified
  92              		.thumb
  93              		.thumb_func
  94              		.fpu fpv4-sp-d16
  96              	place_content:
  97              	.LVL6:
  98              	.LFB180:
  99              		.file 2 "Middlewares/lvgl/src/extra/layouts/flex/lv_flex.c"
   1:Middlewares/lvgl/src/extra/layouts/flex/lv_flex.c **** /**
   2:Middlewares/lvgl/src/extra/layouts/flex/lv_flex.c ****  * @file lv_flex.c
   3:Middlewares/lvgl/src/extra/layouts/flex/lv_flex.c ****  *
   4:Middlewares/lvgl/src/extra/layouts/flex/lv_flex.c ****  */
   5:Middlewares/lvgl/src/extra/layouts/flex/lv_flex.c **** 
   6:Middlewares/lvgl/src/extra/layouts/flex/lv_flex.c **** /*********************
   7:Middlewares/lvgl/src/extra/layouts/flex/lv_flex.c ****  *      INCLUDES
   8:Middlewares/lvgl/src/extra/layouts/flex/lv_flex.c ****  *********************/
   9:Middlewares/lvgl/src/extra/layouts/flex/lv_flex.c **** #include "../lv_layouts.h"
  10:Middlewares/lvgl/src/extra/layouts/flex/lv_flex.c **** 
  11:Middlewares/lvgl/src/extra/layouts/flex/lv_flex.c **** #if LV_USE_FLEX
  12:Middlewares/lvgl/src/extra/layouts/flex/lv_flex.c **** 
  13:Middlewares/lvgl/src/extra/layouts/flex/lv_flex.c **** /*********************
  14:Middlewares/lvgl/src/extra/layouts/flex/lv_flex.c ****  *      DEFINES
  15:Middlewares/lvgl/src/extra/layouts/flex/lv_flex.c ****  *********************/
  16:Middlewares/lvgl/src/extra/layouts/flex/lv_flex.c **** 
  17:Middlewares/lvgl/src/extra/layouts/flex/lv_flex.c **** /**********************
  18:Middlewares/lvgl/src/extra/layouts/flex/lv_flex.c ****  *      TYPEDEFS
  19:Middlewares/lvgl/src/extra/layouts/flex/lv_flex.c ****  **********************/
  20:Middlewares/lvgl/src/extra/layouts/flex/lv_flex.c **** typedef struct {
  21:Middlewares/lvgl/src/extra/layouts/flex/lv_flex.c ****     lv_flex_align_t main_place;
  22:Middlewares/lvgl/src/extra/layouts/flex/lv_flex.c ****     lv_flex_align_t cross_place;
  23:Middlewares/lvgl/src/extra/layouts/flex/lv_flex.c ****     lv_flex_align_t track_place;
  24:Middlewares/lvgl/src/extra/layouts/flex/lv_flex.c ****     uint8_t row :1;
  25:Middlewares/lvgl/src/extra/layouts/flex/lv_flex.c ****     uint8_t wrap :1;
  26:Middlewares/lvgl/src/extra/layouts/flex/lv_flex.c ****     uint8_t rev :1;
  27:Middlewares/lvgl/src/extra/layouts/flex/lv_flex.c **** }flex_t;
  28:Middlewares/lvgl/src/extra/layouts/flex/lv_flex.c **** 
  29:Middlewares/lvgl/src/extra/layouts/flex/lv_flex.c **** typedef struct {
  30:Middlewares/lvgl/src/extra/layouts/flex/lv_flex.c ****     lv_obj_t * item;
  31:Middlewares/lvgl/src/extra/layouts/flex/lv_flex.c ****     lv_coord_t min_size;
  32:Middlewares/lvgl/src/extra/layouts/flex/lv_flex.c ****     lv_coord_t max_size;
  33:Middlewares/lvgl/src/extra/layouts/flex/lv_flex.c ****     lv_coord_t final_size;
  34:Middlewares/lvgl/src/extra/layouts/flex/lv_flex.c ****     uint32_t grow_value;
  35:Middlewares/lvgl/src/extra/layouts/flex/lv_flex.c ****     uint32_t clamped :1;
  36:Middlewares/lvgl/src/extra/layouts/flex/lv_flex.c **** }grow_dsc_t;
  37:Middlewares/lvgl/src/extra/layouts/flex/lv_flex.c **** 
  38:Middlewares/lvgl/src/extra/layouts/flex/lv_flex.c **** typedef struct {
  39:Middlewares/lvgl/src/extra/layouts/flex/lv_flex.c ****     lv_coord_t track_cross_size;
  40:Middlewares/lvgl/src/extra/layouts/flex/lv_flex.c ****     lv_coord_t track_main_size;         /*For all items*/
  41:Middlewares/lvgl/src/extra/layouts/flex/lv_flex.c ****     lv_coord_t track_fix_main_size;     /*For non grow items*/
  42:Middlewares/lvgl/src/extra/layouts/flex/lv_flex.c ****     uint32_t item_cnt;
  43:Middlewares/lvgl/src/extra/layouts/flex/lv_flex.c ****     grow_dsc_t * grow_dsc;
  44:Middlewares/lvgl/src/extra/layouts/flex/lv_flex.c ****     uint32_t grow_item_cnt;
  45:Middlewares/lvgl/src/extra/layouts/flex/lv_flex.c ****     uint32_t grow_dsc_calc :1;
ARM GAS  /tmp/ccU94mph.s 			page 6


  46:Middlewares/lvgl/src/extra/layouts/flex/lv_flex.c **** }track_t;
  47:Middlewares/lvgl/src/extra/layouts/flex/lv_flex.c **** 
  48:Middlewares/lvgl/src/extra/layouts/flex/lv_flex.c **** 
  49:Middlewares/lvgl/src/extra/layouts/flex/lv_flex.c **** /**********************
  50:Middlewares/lvgl/src/extra/layouts/flex/lv_flex.c ****  *  GLOBAL PROTOTYPES
  51:Middlewares/lvgl/src/extra/layouts/flex/lv_flex.c ****  **********************/
  52:Middlewares/lvgl/src/extra/layouts/flex/lv_flex.c **** 
  53:Middlewares/lvgl/src/extra/layouts/flex/lv_flex.c **** /**********************
  54:Middlewares/lvgl/src/extra/layouts/flex/lv_flex.c ****  *  STATIC PROTOTYPES
  55:Middlewares/lvgl/src/extra/layouts/flex/lv_flex.c ****  **********************/
  56:Middlewares/lvgl/src/extra/layouts/flex/lv_flex.c **** static void flex_update(lv_obj_t * cont, void * user_data);
  57:Middlewares/lvgl/src/extra/layouts/flex/lv_flex.c **** static int32_t find_track_end(lv_obj_t * cont, flex_t * f, int32_t item_start_id, lv_coord_t item_g
  58:Middlewares/lvgl/src/extra/layouts/flex/lv_flex.c **** static void children_repos(lv_obj_t * cont, flex_t * f, int32_t item_first_id, int32_t item_last_id
  59:Middlewares/lvgl/src/extra/layouts/flex/lv_flex.c **** static void place_content(lv_flex_align_t place, lv_coord_t max_size, lv_coord_t content_size, lv_c
  60:Middlewares/lvgl/src/extra/layouts/flex/lv_flex.c **** static lv_obj_t * get_next_item(lv_obj_t * cont, bool rev, int32_t * item_id);
  61:Middlewares/lvgl/src/extra/layouts/flex/lv_flex.c **** 
  62:Middlewares/lvgl/src/extra/layouts/flex/lv_flex.c **** /**********************
  63:Middlewares/lvgl/src/extra/layouts/flex/lv_flex.c ****  *  GLOBAL VARIABLES
  64:Middlewares/lvgl/src/extra/layouts/flex/lv_flex.c ****  **********************/
  65:Middlewares/lvgl/src/extra/layouts/flex/lv_flex.c **** uint32_t LV_LAYOUT_FLEX;
  66:Middlewares/lvgl/src/extra/layouts/flex/lv_flex.c **** lv_style_prop_t LV_STYLE_FLEX_FLOW;
  67:Middlewares/lvgl/src/extra/layouts/flex/lv_flex.c **** lv_style_prop_t LV_STYLE_FLEX_MAIN_PLACE;
  68:Middlewares/lvgl/src/extra/layouts/flex/lv_flex.c **** lv_style_prop_t LV_STYLE_FLEX_CROSS_PLACE;
  69:Middlewares/lvgl/src/extra/layouts/flex/lv_flex.c **** lv_style_prop_t LV_STYLE_FLEX_TRACK_PLACE;
  70:Middlewares/lvgl/src/extra/layouts/flex/lv_flex.c **** lv_style_prop_t LV_STYLE_FLEX_GROW;
  71:Middlewares/lvgl/src/extra/layouts/flex/lv_flex.c **** 
  72:Middlewares/lvgl/src/extra/layouts/flex/lv_flex.c **** 
  73:Middlewares/lvgl/src/extra/layouts/flex/lv_flex.c **** /**********************
  74:Middlewares/lvgl/src/extra/layouts/flex/lv_flex.c ****  *  STATIC VARIABLES
  75:Middlewares/lvgl/src/extra/layouts/flex/lv_flex.c ****  **********************/
  76:Middlewares/lvgl/src/extra/layouts/flex/lv_flex.c **** 
  77:Middlewares/lvgl/src/extra/layouts/flex/lv_flex.c **** /**********************
  78:Middlewares/lvgl/src/extra/layouts/flex/lv_flex.c ****  *      MACROS
  79:Middlewares/lvgl/src/extra/layouts/flex/lv_flex.c ****  **********************/
  80:Middlewares/lvgl/src/extra/layouts/flex/lv_flex.c **** 
  81:Middlewares/lvgl/src/extra/layouts/flex/lv_flex.c **** /**********************
  82:Middlewares/lvgl/src/extra/layouts/flex/lv_flex.c ****  *   GLOBAL FUNCTIONS
  83:Middlewares/lvgl/src/extra/layouts/flex/lv_flex.c ****  **********************/
  84:Middlewares/lvgl/src/extra/layouts/flex/lv_flex.c **** 
  85:Middlewares/lvgl/src/extra/layouts/flex/lv_flex.c **** /*=====================
  86:Middlewares/lvgl/src/extra/layouts/flex/lv_flex.c ****  * Setter functions
  87:Middlewares/lvgl/src/extra/layouts/flex/lv_flex.c ****  *====================*/
  88:Middlewares/lvgl/src/extra/layouts/flex/lv_flex.c **** 
  89:Middlewares/lvgl/src/extra/layouts/flex/lv_flex.c **** void lv_flex_init(void)
  90:Middlewares/lvgl/src/extra/layouts/flex/lv_flex.c **** {
  91:Middlewares/lvgl/src/extra/layouts/flex/lv_flex.c ****     LV_LAYOUT_FLEX = lv_layout_register(flex_update, NULL);
  92:Middlewares/lvgl/src/extra/layouts/flex/lv_flex.c **** 
  93:Middlewares/lvgl/src/extra/layouts/flex/lv_flex.c ****     LV_STYLE_FLEX_FLOW = lv_style_register_prop();
  94:Middlewares/lvgl/src/extra/layouts/flex/lv_flex.c ****     LV_STYLE_FLEX_MAIN_PLACE = lv_style_register_prop() | LV_STYLE_PROP_LAYOUT_REFR;
  95:Middlewares/lvgl/src/extra/layouts/flex/lv_flex.c ****     LV_STYLE_FLEX_CROSS_PLACE = lv_style_register_prop() | LV_STYLE_PROP_LAYOUT_REFR;
  96:Middlewares/lvgl/src/extra/layouts/flex/lv_flex.c ****     LV_STYLE_FLEX_TRACK_PLACE = lv_style_register_prop() | LV_STYLE_PROP_LAYOUT_REFR;
  97:Middlewares/lvgl/src/extra/layouts/flex/lv_flex.c **** }
  98:Middlewares/lvgl/src/extra/layouts/flex/lv_flex.c **** 
  99:Middlewares/lvgl/src/extra/layouts/flex/lv_flex.c **** void lv_obj_set_flex_flow(lv_obj_t * obj, lv_flex_flow_t flow)
 100:Middlewares/lvgl/src/extra/layouts/flex/lv_flex.c **** {
 101:Middlewares/lvgl/src/extra/layouts/flex/lv_flex.c ****     lv_obj_set_style_flex_flow(obj, flow, 0);
 102:Middlewares/lvgl/src/extra/layouts/flex/lv_flex.c ****     lv_obj_set_style_layout(obj, LV_LAYOUT_FLEX, 0);
ARM GAS  /tmp/ccU94mph.s 			page 7


 103:Middlewares/lvgl/src/extra/layouts/flex/lv_flex.c **** }
 104:Middlewares/lvgl/src/extra/layouts/flex/lv_flex.c **** 
 105:Middlewares/lvgl/src/extra/layouts/flex/lv_flex.c **** void lv_obj_set_flex_align(lv_obj_t * obj, lv_flex_align_t main_place, lv_flex_align_t cross_place,
 106:Middlewares/lvgl/src/extra/layouts/flex/lv_flex.c **** {
 107:Middlewares/lvgl/src/extra/layouts/flex/lv_flex.c ****     lv_obj_set_style_flex_main_place(obj, main_place, 0);
 108:Middlewares/lvgl/src/extra/layouts/flex/lv_flex.c ****     lv_obj_set_style_flex_cross_place(obj, cross_place, 0);
 109:Middlewares/lvgl/src/extra/layouts/flex/lv_flex.c ****     lv_obj_set_style_flex_track_place(obj, track_place, 0);
 110:Middlewares/lvgl/src/extra/layouts/flex/lv_flex.c ****     lv_obj_set_style_layout(obj, LV_LAYOUT_FLEX, 0);
 111:Middlewares/lvgl/src/extra/layouts/flex/lv_flex.c **** }
 112:Middlewares/lvgl/src/extra/layouts/flex/lv_flex.c **** 
 113:Middlewares/lvgl/src/extra/layouts/flex/lv_flex.c **** void lv_obj_set_flex_grow(lv_obj_t * obj, uint8_t grow)
 114:Middlewares/lvgl/src/extra/layouts/flex/lv_flex.c **** {
 115:Middlewares/lvgl/src/extra/layouts/flex/lv_flex.c ****     lv_obj_set_style_flex_grow(obj, grow, 0);
 116:Middlewares/lvgl/src/extra/layouts/flex/lv_flex.c ****     lv_obj_mark_layout_as_dirty(lv_obj_get_parent(obj));
 117:Middlewares/lvgl/src/extra/layouts/flex/lv_flex.c **** }
 118:Middlewares/lvgl/src/extra/layouts/flex/lv_flex.c **** 
 119:Middlewares/lvgl/src/extra/layouts/flex/lv_flex.c **** 
 120:Middlewares/lvgl/src/extra/layouts/flex/lv_flex.c **** void lv_style_set_flex_flow(lv_style_t * style, lv_flex_flow_t value)
 121:Middlewares/lvgl/src/extra/layouts/flex/lv_flex.c **** {
 122:Middlewares/lvgl/src/extra/layouts/flex/lv_flex.c ****     lv_style_value_t v = {
 123:Middlewares/lvgl/src/extra/layouts/flex/lv_flex.c ****         .num = (int32_t)value
 124:Middlewares/lvgl/src/extra/layouts/flex/lv_flex.c ****     };
 125:Middlewares/lvgl/src/extra/layouts/flex/lv_flex.c ****     lv_style_set_prop(style, LV_STYLE_FLEX_FLOW, v);
 126:Middlewares/lvgl/src/extra/layouts/flex/lv_flex.c **** }
 127:Middlewares/lvgl/src/extra/layouts/flex/lv_flex.c **** 
 128:Middlewares/lvgl/src/extra/layouts/flex/lv_flex.c **** void lv_style_set_flex_main_place(lv_style_t * style, lv_flex_align_t value)
 129:Middlewares/lvgl/src/extra/layouts/flex/lv_flex.c **** {
 130:Middlewares/lvgl/src/extra/layouts/flex/lv_flex.c ****     lv_style_value_t v = {
 131:Middlewares/lvgl/src/extra/layouts/flex/lv_flex.c ****         .num = (int32_t)value
 132:Middlewares/lvgl/src/extra/layouts/flex/lv_flex.c ****     };
 133:Middlewares/lvgl/src/extra/layouts/flex/lv_flex.c ****     lv_style_set_prop(style, LV_STYLE_FLEX_MAIN_PLACE, v);
 134:Middlewares/lvgl/src/extra/layouts/flex/lv_flex.c **** }
 135:Middlewares/lvgl/src/extra/layouts/flex/lv_flex.c **** 
 136:Middlewares/lvgl/src/extra/layouts/flex/lv_flex.c **** void lv_style_set_flex_cross_place(lv_style_t * style, lv_flex_align_t value)
 137:Middlewares/lvgl/src/extra/layouts/flex/lv_flex.c **** {
 138:Middlewares/lvgl/src/extra/layouts/flex/lv_flex.c ****     lv_style_value_t v = {
 139:Middlewares/lvgl/src/extra/layouts/flex/lv_flex.c ****         .num = (int32_t)value
 140:Middlewares/lvgl/src/extra/layouts/flex/lv_flex.c ****     };
 141:Middlewares/lvgl/src/extra/layouts/flex/lv_flex.c ****     lv_style_set_prop(style, LV_STYLE_FLEX_CROSS_PLACE, v);
 142:Middlewares/lvgl/src/extra/layouts/flex/lv_flex.c **** }
 143:Middlewares/lvgl/src/extra/layouts/flex/lv_flex.c **** 
 144:Middlewares/lvgl/src/extra/layouts/flex/lv_flex.c **** void lv_style_set_flex_track_place(lv_style_t * style, lv_flex_align_t value)
 145:Middlewares/lvgl/src/extra/layouts/flex/lv_flex.c **** {
 146:Middlewares/lvgl/src/extra/layouts/flex/lv_flex.c ****     lv_style_value_t v = {
 147:Middlewares/lvgl/src/extra/layouts/flex/lv_flex.c ****         .num = (int32_t)value
 148:Middlewares/lvgl/src/extra/layouts/flex/lv_flex.c ****     };
 149:Middlewares/lvgl/src/extra/layouts/flex/lv_flex.c ****     lv_style_set_prop(style, LV_STYLE_FLEX_TRACK_PLACE, v);
 150:Middlewares/lvgl/src/extra/layouts/flex/lv_flex.c **** }
 151:Middlewares/lvgl/src/extra/layouts/flex/lv_flex.c **** 
 152:Middlewares/lvgl/src/extra/layouts/flex/lv_flex.c **** void lv_style_set_flex_grow(lv_style_t * style, uint8_t value)
 153:Middlewares/lvgl/src/extra/layouts/flex/lv_flex.c **** {
 154:Middlewares/lvgl/src/extra/layouts/flex/lv_flex.c ****     lv_style_value_t v = {
 155:Middlewares/lvgl/src/extra/layouts/flex/lv_flex.c ****             .num = (int32_t)value
 156:Middlewares/lvgl/src/extra/layouts/flex/lv_flex.c ****     };
 157:Middlewares/lvgl/src/extra/layouts/flex/lv_flex.c ****     lv_style_set_prop(style, LV_STYLE_FLEX_GROW, v);
 158:Middlewares/lvgl/src/extra/layouts/flex/lv_flex.c **** }
 159:Middlewares/lvgl/src/extra/layouts/flex/lv_flex.c **** 
ARM GAS  /tmp/ccU94mph.s 			page 8


 160:Middlewares/lvgl/src/extra/layouts/flex/lv_flex.c **** 
 161:Middlewares/lvgl/src/extra/layouts/flex/lv_flex.c **** void lv_obj_set_style_flex_flow(lv_obj_t * obj, lv_flex_flow_t value, lv_style_selector_t selector)
 162:Middlewares/lvgl/src/extra/layouts/flex/lv_flex.c **** {
 163:Middlewares/lvgl/src/extra/layouts/flex/lv_flex.c ****     lv_style_value_t v = {
 164:Middlewares/lvgl/src/extra/layouts/flex/lv_flex.c ****         .num = (int32_t) value
 165:Middlewares/lvgl/src/extra/layouts/flex/lv_flex.c ****     };
 166:Middlewares/lvgl/src/extra/layouts/flex/lv_flex.c ****     lv_obj_set_local_style_prop(obj, LV_STYLE_FLEX_FLOW, v, selector);
 167:Middlewares/lvgl/src/extra/layouts/flex/lv_flex.c **** }
 168:Middlewares/lvgl/src/extra/layouts/flex/lv_flex.c **** 
 169:Middlewares/lvgl/src/extra/layouts/flex/lv_flex.c **** void lv_obj_set_style_flex_main_place(lv_obj_t * obj, lv_flex_align_t value, lv_style_selector_t se
 170:Middlewares/lvgl/src/extra/layouts/flex/lv_flex.c **** {
 171:Middlewares/lvgl/src/extra/layouts/flex/lv_flex.c ****     lv_style_value_t v = {
 172:Middlewares/lvgl/src/extra/layouts/flex/lv_flex.c ****         .num = (int32_t) value
 173:Middlewares/lvgl/src/extra/layouts/flex/lv_flex.c ****     };
 174:Middlewares/lvgl/src/extra/layouts/flex/lv_flex.c ****     lv_obj_set_local_style_prop(obj, LV_STYLE_FLEX_MAIN_PLACE, v, selector);
 175:Middlewares/lvgl/src/extra/layouts/flex/lv_flex.c **** }
 176:Middlewares/lvgl/src/extra/layouts/flex/lv_flex.c **** 
 177:Middlewares/lvgl/src/extra/layouts/flex/lv_flex.c **** void lv_obj_set_style_flex_cross_place(lv_obj_t * obj, lv_flex_align_t value, lv_style_selector_t s
 178:Middlewares/lvgl/src/extra/layouts/flex/lv_flex.c **** {
 179:Middlewares/lvgl/src/extra/layouts/flex/lv_flex.c ****     lv_style_value_t v = {
 180:Middlewares/lvgl/src/extra/layouts/flex/lv_flex.c ****         .num = (int32_t) value
 181:Middlewares/lvgl/src/extra/layouts/flex/lv_flex.c ****     };
 182:Middlewares/lvgl/src/extra/layouts/flex/lv_flex.c ****     lv_obj_set_local_style_prop(obj, LV_STYLE_FLEX_CROSS_PLACE, v, selector);
 183:Middlewares/lvgl/src/extra/layouts/flex/lv_flex.c **** }
 184:Middlewares/lvgl/src/extra/layouts/flex/lv_flex.c **** 
 185:Middlewares/lvgl/src/extra/layouts/flex/lv_flex.c **** void lv_obj_set_style_flex_track_place(lv_obj_t * obj, lv_flex_align_t value, lv_style_selector_t s
 186:Middlewares/lvgl/src/extra/layouts/flex/lv_flex.c **** {
 187:Middlewares/lvgl/src/extra/layouts/flex/lv_flex.c ****     lv_style_value_t v = {
 188:Middlewares/lvgl/src/extra/layouts/flex/lv_flex.c ****         .num = (int32_t) value
 189:Middlewares/lvgl/src/extra/layouts/flex/lv_flex.c ****     };
 190:Middlewares/lvgl/src/extra/layouts/flex/lv_flex.c ****     lv_obj_set_local_style_prop(obj, LV_STYLE_FLEX_TRACK_PLACE, v, selector);
 191:Middlewares/lvgl/src/extra/layouts/flex/lv_flex.c **** }
 192:Middlewares/lvgl/src/extra/layouts/flex/lv_flex.c **** 
 193:Middlewares/lvgl/src/extra/layouts/flex/lv_flex.c **** void lv_obj_set_style_flex_grow(lv_obj_t * obj, uint8_t value, lv_style_selector_t selector)
 194:Middlewares/lvgl/src/extra/layouts/flex/lv_flex.c **** {
 195:Middlewares/lvgl/src/extra/layouts/flex/lv_flex.c ****     lv_style_value_t v = {
 196:Middlewares/lvgl/src/extra/layouts/flex/lv_flex.c ****         .num = (int32_t) value
 197:Middlewares/lvgl/src/extra/layouts/flex/lv_flex.c ****     };
 198:Middlewares/lvgl/src/extra/layouts/flex/lv_flex.c ****     lv_obj_set_local_style_prop(obj, LV_STYLE_FLEX_GROW, v, selector);
 199:Middlewares/lvgl/src/extra/layouts/flex/lv_flex.c **** }
 200:Middlewares/lvgl/src/extra/layouts/flex/lv_flex.c **** 
 201:Middlewares/lvgl/src/extra/layouts/flex/lv_flex.c **** /**********************
 202:Middlewares/lvgl/src/extra/layouts/flex/lv_flex.c ****  *   STATIC FUNCTIONS
 203:Middlewares/lvgl/src/extra/layouts/flex/lv_flex.c ****  **********************/
 204:Middlewares/lvgl/src/extra/layouts/flex/lv_flex.c **** 
 205:Middlewares/lvgl/src/extra/layouts/flex/lv_flex.c **** static void flex_update(lv_obj_t * cont, void * user_data)
 206:Middlewares/lvgl/src/extra/layouts/flex/lv_flex.c **** {
 207:Middlewares/lvgl/src/extra/layouts/flex/lv_flex.c ****     LV_LOG_INFO("update %p container", cont);
 208:Middlewares/lvgl/src/extra/layouts/flex/lv_flex.c ****     LV_UNUSED(user_data);
 209:Middlewares/lvgl/src/extra/layouts/flex/lv_flex.c **** 
 210:Middlewares/lvgl/src/extra/layouts/flex/lv_flex.c ****     flex_t f;
 211:Middlewares/lvgl/src/extra/layouts/flex/lv_flex.c ****     lv_flex_flow_t flow = lv_obj_get_style_flex_flow(cont, LV_PART_MAIN);
 212:Middlewares/lvgl/src/extra/layouts/flex/lv_flex.c ****     f.row = flow & _LV_FLEX_COLUMN ? 0 : 1;
 213:Middlewares/lvgl/src/extra/layouts/flex/lv_flex.c ****     f.wrap = flow & _LV_FLEX_WRAP ? 1 : 0;
 214:Middlewares/lvgl/src/extra/layouts/flex/lv_flex.c ****     f.rev = flow & _LV_FLEX_REVERSE ? 1 : 0;
 215:Middlewares/lvgl/src/extra/layouts/flex/lv_flex.c ****     f.main_place = lv_obj_get_style_flex_main_place(cont, LV_PART_MAIN);
 216:Middlewares/lvgl/src/extra/layouts/flex/lv_flex.c ****     f.cross_place = lv_obj_get_style_flex_cross_place(cont, LV_PART_MAIN);
ARM GAS  /tmp/ccU94mph.s 			page 9


 217:Middlewares/lvgl/src/extra/layouts/flex/lv_flex.c ****     f.track_place = lv_obj_get_style_flex_track_place(cont, LV_PART_MAIN);
 218:Middlewares/lvgl/src/extra/layouts/flex/lv_flex.c **** 
 219:Middlewares/lvgl/src/extra/layouts/flex/lv_flex.c ****     bool rtl = lv_obj_get_style_base_dir(cont, LV_PART_MAIN) == LV_BASE_DIR_RTL ? true : false;
 220:Middlewares/lvgl/src/extra/layouts/flex/lv_flex.c ****     lv_coord_t track_gap = !f.row ? lv_obj_get_style_pad_column(cont, LV_PART_MAIN) : lv_obj_get_st
 221:Middlewares/lvgl/src/extra/layouts/flex/lv_flex.c ****     lv_coord_t item_gap = f.row ? lv_obj_get_style_pad_column(cont, LV_PART_MAIN) : lv_obj_get_styl
 222:Middlewares/lvgl/src/extra/layouts/flex/lv_flex.c ****     lv_coord_t max_main_size = (f.row ? lv_obj_get_content_width(cont) : lv_obj_get_content_height(
 223:Middlewares/lvgl/src/extra/layouts/flex/lv_flex.c ****     lv_coord_t border_widt = lv_obj_get_style_border_width(cont, LV_PART_MAIN);
 224:Middlewares/lvgl/src/extra/layouts/flex/lv_flex.c ****     lv_coord_t abs_y = cont->coords.y1 + lv_obj_get_style_pad_top(cont, LV_PART_MAIN) + border_widt
 225:Middlewares/lvgl/src/extra/layouts/flex/lv_flex.c ****     lv_coord_t abs_x = cont->coords.x1 + lv_obj_get_style_pad_left(cont, LV_PART_MAIN) + border_wid
 226:Middlewares/lvgl/src/extra/layouts/flex/lv_flex.c **** 
 227:Middlewares/lvgl/src/extra/layouts/flex/lv_flex.c ****     lv_flex_align_t track_cross_place = f.track_place;
 228:Middlewares/lvgl/src/extra/layouts/flex/lv_flex.c ****     lv_coord_t * cross_pos = (f.row ? &abs_y : &abs_x);
 229:Middlewares/lvgl/src/extra/layouts/flex/lv_flex.c **** 
 230:Middlewares/lvgl/src/extra/layouts/flex/lv_flex.c ****     lv_coord_t w_set = lv_obj_get_style_width(cont, LV_PART_MAIN);
 231:Middlewares/lvgl/src/extra/layouts/flex/lv_flex.c ****     lv_coord_t h_set = lv_obj_get_style_height(cont, LV_PART_MAIN);
 232:Middlewares/lvgl/src/extra/layouts/flex/lv_flex.c **** 
 233:Middlewares/lvgl/src/extra/layouts/flex/lv_flex.c ****     /*Content sized objects should squeezed the gap between the children, therefore any alignment w
 234:Middlewares/lvgl/src/extra/layouts/flex/lv_flex.c ****     if((f.row && h_set == LV_SIZE_CONTENT && cont->h_layout == 0) ||
 235:Middlewares/lvgl/src/extra/layouts/flex/lv_flex.c ****     	(!f.row && w_set == LV_SIZE_CONTENT && cont->w_layout == 0))
 236:Middlewares/lvgl/src/extra/layouts/flex/lv_flex.c ****     {
 237:Middlewares/lvgl/src/extra/layouts/flex/lv_flex.c ****         track_cross_place = LV_FLEX_ALIGN_START;
 238:Middlewares/lvgl/src/extra/layouts/flex/lv_flex.c ****     }
 239:Middlewares/lvgl/src/extra/layouts/flex/lv_flex.c **** 
 240:Middlewares/lvgl/src/extra/layouts/flex/lv_flex.c ****     if(rtl && !f.row) {
 241:Middlewares/lvgl/src/extra/layouts/flex/lv_flex.c ****         if(track_cross_place == LV_FLEX_ALIGN_START) track_cross_place = LV_FLEX_ALIGN_END;
 242:Middlewares/lvgl/src/extra/layouts/flex/lv_flex.c ****         else if(track_cross_place == LV_FLEX_ALIGN_END) track_cross_place = LV_FLEX_ALIGN_START;
 243:Middlewares/lvgl/src/extra/layouts/flex/lv_flex.c ****     }
 244:Middlewares/lvgl/src/extra/layouts/flex/lv_flex.c **** 
 245:Middlewares/lvgl/src/extra/layouts/flex/lv_flex.c ****     lv_coord_t total_track_cross_size = 0;
 246:Middlewares/lvgl/src/extra/layouts/flex/lv_flex.c ****     lv_coord_t gap = 0;
 247:Middlewares/lvgl/src/extra/layouts/flex/lv_flex.c ****     uint32_t track_cnt = 0;
 248:Middlewares/lvgl/src/extra/layouts/flex/lv_flex.c ****     int32_t track_first_item;
 249:Middlewares/lvgl/src/extra/layouts/flex/lv_flex.c ****     int32_t next_track_first_item;
 250:Middlewares/lvgl/src/extra/layouts/flex/lv_flex.c **** 
 251:Middlewares/lvgl/src/extra/layouts/flex/lv_flex.c ****     if(track_cross_place != LV_FLEX_ALIGN_START) {
 252:Middlewares/lvgl/src/extra/layouts/flex/lv_flex.c ****         track_first_item = f.rev ? cont->spec_attr->child_cnt - 1 : 0;
 253:Middlewares/lvgl/src/extra/layouts/flex/lv_flex.c ****         track_t t;
 254:Middlewares/lvgl/src/extra/layouts/flex/lv_flex.c ****         while(track_first_item < (int32_t)cont->spec_attr->child_cnt && track_first_item >= 0) {
 255:Middlewares/lvgl/src/extra/layouts/flex/lv_flex.c ****             /*Search the first item of the next row*/
 256:Middlewares/lvgl/src/extra/layouts/flex/lv_flex.c ****             t.grow_dsc_calc = 0;
 257:Middlewares/lvgl/src/extra/layouts/flex/lv_flex.c ****             next_track_first_item = find_track_end(cont, &f, track_first_item, max_main_size, item_
 258:Middlewares/lvgl/src/extra/layouts/flex/lv_flex.c ****             total_track_cross_size += t.track_cross_size + track_gap;
 259:Middlewares/lvgl/src/extra/layouts/flex/lv_flex.c ****             track_cnt++;
 260:Middlewares/lvgl/src/extra/layouts/flex/lv_flex.c ****             track_first_item = next_track_first_item;
 261:Middlewares/lvgl/src/extra/layouts/flex/lv_flex.c ****         }
 262:Middlewares/lvgl/src/extra/layouts/flex/lv_flex.c **** 
 263:Middlewares/lvgl/src/extra/layouts/flex/lv_flex.c ****         if(track_cnt) total_track_cross_size -= track_gap;   /*No gap after the last track*/
 264:Middlewares/lvgl/src/extra/layouts/flex/lv_flex.c **** 
 265:Middlewares/lvgl/src/extra/layouts/flex/lv_flex.c ****         /*Place the tracks to get the start position*/
 266:Middlewares/lvgl/src/extra/layouts/flex/lv_flex.c ****         lv_coord_t max_cross_size = (f.row ? lv_obj_get_content_height(cont) : lv_obj_get_content_w
 267:Middlewares/lvgl/src/extra/layouts/flex/lv_flex.c ****         place_content(track_cross_place, max_cross_size, total_track_cross_size, track_cnt, cross_p
 268:Middlewares/lvgl/src/extra/layouts/flex/lv_flex.c ****     }
 269:Middlewares/lvgl/src/extra/layouts/flex/lv_flex.c **** 
 270:Middlewares/lvgl/src/extra/layouts/flex/lv_flex.c ****     track_first_item =  f.rev ? cont->spec_attr->child_cnt - 1 : 0;
 271:Middlewares/lvgl/src/extra/layouts/flex/lv_flex.c **** 
 272:Middlewares/lvgl/src/extra/layouts/flex/lv_flex.c ****     if(rtl && !f.row) {
 273:Middlewares/lvgl/src/extra/layouts/flex/lv_flex.c ****          *cross_pos += total_track_cross_size;
ARM GAS  /tmp/ccU94mph.s 			page 10


 274:Middlewares/lvgl/src/extra/layouts/flex/lv_flex.c ****     }
 275:Middlewares/lvgl/src/extra/layouts/flex/lv_flex.c **** 
 276:Middlewares/lvgl/src/extra/layouts/flex/lv_flex.c ****     while(track_first_item < (int32_t)cont->spec_attr->child_cnt && track_first_item >= 0) {
 277:Middlewares/lvgl/src/extra/layouts/flex/lv_flex.c ****         track_t t;
 278:Middlewares/lvgl/src/extra/layouts/flex/lv_flex.c ****         t.grow_dsc_calc = 1;
 279:Middlewares/lvgl/src/extra/layouts/flex/lv_flex.c ****         /*Search the first item of the next row*/
 280:Middlewares/lvgl/src/extra/layouts/flex/lv_flex.c ****         next_track_first_item = find_track_end(cont, &f, track_first_item, max_main_size, item_gap,
 281:Middlewares/lvgl/src/extra/layouts/flex/lv_flex.c **** 
 282:Middlewares/lvgl/src/extra/layouts/flex/lv_flex.c ****         if(rtl && !f.row) {
 283:Middlewares/lvgl/src/extra/layouts/flex/lv_flex.c ****             *cross_pos -= t.track_cross_size;
 284:Middlewares/lvgl/src/extra/layouts/flex/lv_flex.c ****         }
 285:Middlewares/lvgl/src/extra/layouts/flex/lv_flex.c ****         children_repos(cont, &f, track_first_item, next_track_first_item, abs_x, abs_y, max_main_si
 286:Middlewares/lvgl/src/extra/layouts/flex/lv_flex.c ****         track_first_item = next_track_first_item;
 287:Middlewares/lvgl/src/extra/layouts/flex/lv_flex.c ****         lv_mem_buf_release(t.grow_dsc);
 288:Middlewares/lvgl/src/extra/layouts/flex/lv_flex.c ****         t.grow_dsc = NULL;
 289:Middlewares/lvgl/src/extra/layouts/flex/lv_flex.c ****         if(rtl && !f.row) {
 290:Middlewares/lvgl/src/extra/layouts/flex/lv_flex.c ****             *cross_pos -= gap + track_gap;
 291:Middlewares/lvgl/src/extra/layouts/flex/lv_flex.c ****         } else {
 292:Middlewares/lvgl/src/extra/layouts/flex/lv_flex.c ****             *cross_pos += t.track_cross_size + gap + track_gap;
 293:Middlewares/lvgl/src/extra/layouts/flex/lv_flex.c ****         }
 294:Middlewares/lvgl/src/extra/layouts/flex/lv_flex.c ****     }
 295:Middlewares/lvgl/src/extra/layouts/flex/lv_flex.c ****     LV_ASSERT_MEM_INTEGRITY();
 296:Middlewares/lvgl/src/extra/layouts/flex/lv_flex.c **** 
 297:Middlewares/lvgl/src/extra/layouts/flex/lv_flex.c ****     if(w_set == LV_SIZE_CONTENT || h_set == LV_SIZE_CONTENT) {
 298:Middlewares/lvgl/src/extra/layouts/flex/lv_flex.c ****         lv_obj_refr_size(cont);
 299:Middlewares/lvgl/src/extra/layouts/flex/lv_flex.c ****     }
 300:Middlewares/lvgl/src/extra/layouts/flex/lv_flex.c **** 
 301:Middlewares/lvgl/src/extra/layouts/flex/lv_flex.c ****     lv_event_send(cont, LV_EVENT_LAYOUT_CHANGED, NULL);
 302:Middlewares/lvgl/src/extra/layouts/flex/lv_flex.c **** 
 303:Middlewares/lvgl/src/extra/layouts/flex/lv_flex.c ****     LV_TRACE_LAYOUT("finished");
 304:Middlewares/lvgl/src/extra/layouts/flex/lv_flex.c **** }
 305:Middlewares/lvgl/src/extra/layouts/flex/lv_flex.c **** 
 306:Middlewares/lvgl/src/extra/layouts/flex/lv_flex.c **** /**
 307:Middlewares/lvgl/src/extra/layouts/flex/lv_flex.c ****  * Find the last item of a track
 308:Middlewares/lvgl/src/extra/layouts/flex/lv_flex.c ****  */
 309:Middlewares/lvgl/src/extra/layouts/flex/lv_flex.c **** static int32_t find_track_end(lv_obj_t * cont, flex_t * f, int32_t item_start_id, lv_coord_t max_ma
 310:Middlewares/lvgl/src/extra/layouts/flex/lv_flex.c **** {
 311:Middlewares/lvgl/src/extra/layouts/flex/lv_flex.c ****     lv_coord_t w_set = lv_obj_get_style_width(cont, LV_PART_MAIN);
 312:Middlewares/lvgl/src/extra/layouts/flex/lv_flex.c ****     lv_coord_t h_set = lv_obj_get_style_height(cont, LV_PART_MAIN);
 313:Middlewares/lvgl/src/extra/layouts/flex/lv_flex.c **** 
 314:Middlewares/lvgl/src/extra/layouts/flex/lv_flex.c ****     /*Can't wrap if the size if auto (i.e. the size depends on the children)*/
 315:Middlewares/lvgl/src/extra/layouts/flex/lv_flex.c ****     if(f->wrap && ((f->row && w_set == LV_SIZE_CONTENT) || (!f->row && h_set == LV_SIZE_CONTENT))) 
 316:Middlewares/lvgl/src/extra/layouts/flex/lv_flex.c ****         f->wrap = false;
 317:Middlewares/lvgl/src/extra/layouts/flex/lv_flex.c ****     }
 318:Middlewares/lvgl/src/extra/layouts/flex/lv_flex.c ****     lv_coord_t(*get_main_size)(const lv_obj_t *) = (f->row ? lv_obj_get_width : lv_obj_get_height);
 319:Middlewares/lvgl/src/extra/layouts/flex/lv_flex.c ****     lv_coord_t(*get_cross_size)(const lv_obj_t *) = (!f->row ? lv_obj_get_width : lv_obj_get_height
 320:Middlewares/lvgl/src/extra/layouts/flex/lv_flex.c **** 
 321:Middlewares/lvgl/src/extra/layouts/flex/lv_flex.c ****     lv_coord_t grow_sum = 0;
 322:Middlewares/lvgl/src/extra/layouts/flex/lv_flex.c ****     t->track_main_size = 0;
 323:Middlewares/lvgl/src/extra/layouts/flex/lv_flex.c ****     t->track_fix_main_size = 0;
 324:Middlewares/lvgl/src/extra/layouts/flex/lv_flex.c ****     t->grow_item_cnt = 0;
 325:Middlewares/lvgl/src/extra/layouts/flex/lv_flex.c ****     t->track_cross_size = 0;
 326:Middlewares/lvgl/src/extra/layouts/flex/lv_flex.c ****     t->item_cnt = 0;
 327:Middlewares/lvgl/src/extra/layouts/flex/lv_flex.c ****     t->grow_dsc = NULL;
 328:Middlewares/lvgl/src/extra/layouts/flex/lv_flex.c **** 
 329:Middlewares/lvgl/src/extra/layouts/flex/lv_flex.c ****     int32_t item_id = item_start_id;
 330:Middlewares/lvgl/src/extra/layouts/flex/lv_flex.c **** 
ARM GAS  /tmp/ccU94mph.s 			page 11


 331:Middlewares/lvgl/src/extra/layouts/flex/lv_flex.c ****     lv_obj_t * item = lv_obj_get_child(cont, item_id);
 332:Middlewares/lvgl/src/extra/layouts/flex/lv_flex.c ****     while(item) {
 333:Middlewares/lvgl/src/extra/layouts/flex/lv_flex.c ****         if(item_id != item_start_id && lv_obj_has_flag(item, LV_OBJ_FLAG_FLEX_IN_NEW_TRACK)) break;
 334:Middlewares/lvgl/src/extra/layouts/flex/lv_flex.c **** 
 335:Middlewares/lvgl/src/extra/layouts/flex/lv_flex.c ****         if(!lv_obj_has_flag_any(item, LV_OBJ_FLAG_IGNORE_LAYOUT | LV_OBJ_FLAG_HIDDEN | LV_OBJ_FLAG_
 336:Middlewares/lvgl/src/extra/layouts/flex/lv_flex.c ****             uint8_t grow_value = lv_obj_get_style_flex_grow(item, LV_PART_MAIN);
 337:Middlewares/lvgl/src/extra/layouts/flex/lv_flex.c ****             if(grow_value) {
 338:Middlewares/lvgl/src/extra/layouts/flex/lv_flex.c ****                 grow_sum += grow_value;
 339:Middlewares/lvgl/src/extra/layouts/flex/lv_flex.c ****                 t->grow_item_cnt++;
 340:Middlewares/lvgl/src/extra/layouts/flex/lv_flex.c ****                 t->track_fix_main_size += item_gap;
 341:Middlewares/lvgl/src/extra/layouts/flex/lv_flex.c ****                 if(t->grow_dsc_calc) {
 342:Middlewares/lvgl/src/extra/layouts/flex/lv_flex.c ****                     grow_dsc_t * new_dsc = lv_mem_buf_get(sizeof(grow_dsc_t) * (t->grow_item_cnt));
 343:Middlewares/lvgl/src/extra/layouts/flex/lv_flex.c ****                     LV_ASSERT_MALLOC(new_dsc);
 344:Middlewares/lvgl/src/extra/layouts/flex/lv_flex.c ****                     if(new_dsc == NULL) return item_id;
 345:Middlewares/lvgl/src/extra/layouts/flex/lv_flex.c **** 
 346:Middlewares/lvgl/src/extra/layouts/flex/lv_flex.c ****                     if(t->grow_dsc) {
 347:Middlewares/lvgl/src/extra/layouts/flex/lv_flex.c ****                         lv_memcpy(new_dsc, t->grow_dsc, sizeof(grow_dsc_t) * (t->grow_item_cnt - 1)
 348:Middlewares/lvgl/src/extra/layouts/flex/lv_flex.c ****                         lv_mem_buf_release(t->grow_dsc);
 349:Middlewares/lvgl/src/extra/layouts/flex/lv_flex.c ****                     }
 350:Middlewares/lvgl/src/extra/layouts/flex/lv_flex.c ****                     new_dsc[t->grow_item_cnt - 1].item = item;
 351:Middlewares/lvgl/src/extra/layouts/flex/lv_flex.c ****                     new_dsc[t->grow_item_cnt - 1].min_size = f->row ? lv_obj_get_style_min_width(it
 352:Middlewares/lvgl/src/extra/layouts/flex/lv_flex.c ****                     new_dsc[t->grow_item_cnt - 1].max_size = f->row ? lv_obj_get_style_max_width(it
 353:Middlewares/lvgl/src/extra/layouts/flex/lv_flex.c ****                     new_dsc[t->grow_item_cnt - 1].grow_value = grow_value;
 354:Middlewares/lvgl/src/extra/layouts/flex/lv_flex.c ****                     new_dsc[t->grow_item_cnt - 1].clamped = 0;
 355:Middlewares/lvgl/src/extra/layouts/flex/lv_flex.c ****                     t->grow_dsc = new_dsc;
 356:Middlewares/lvgl/src/extra/layouts/flex/lv_flex.c ****                 }
 357:Middlewares/lvgl/src/extra/layouts/flex/lv_flex.c ****             } else {
 358:Middlewares/lvgl/src/extra/layouts/flex/lv_flex.c ****                 lv_coord_t item_size = get_main_size(item);
 359:Middlewares/lvgl/src/extra/layouts/flex/lv_flex.c ****                 if(f->wrap && t->track_fix_main_size + item_size > max_main_size) break;
 360:Middlewares/lvgl/src/extra/layouts/flex/lv_flex.c ****                 t->track_fix_main_size += item_size + item_gap;
 361:Middlewares/lvgl/src/extra/layouts/flex/lv_flex.c ****             }
 362:Middlewares/lvgl/src/extra/layouts/flex/lv_flex.c **** 
 363:Middlewares/lvgl/src/extra/layouts/flex/lv_flex.c **** 
 364:Middlewares/lvgl/src/extra/layouts/flex/lv_flex.c ****             t->track_cross_size = LV_MAX(get_cross_size(item), t->track_cross_size);
 365:Middlewares/lvgl/src/extra/layouts/flex/lv_flex.c ****             t->item_cnt++;
 366:Middlewares/lvgl/src/extra/layouts/flex/lv_flex.c ****         }
 367:Middlewares/lvgl/src/extra/layouts/flex/lv_flex.c **** 
 368:Middlewares/lvgl/src/extra/layouts/flex/lv_flex.c ****         item_id += f->rev ? -1 : +1;
 369:Middlewares/lvgl/src/extra/layouts/flex/lv_flex.c ****         if(item_id < 0) break;
 370:Middlewares/lvgl/src/extra/layouts/flex/lv_flex.c ****         item = lv_obj_get_child(cont, item_id);
 371:Middlewares/lvgl/src/extra/layouts/flex/lv_flex.c ****     }
 372:Middlewares/lvgl/src/extra/layouts/flex/lv_flex.c **** 
 373:Middlewares/lvgl/src/extra/layouts/flex/lv_flex.c ****     if(t->track_fix_main_size > 0) t->track_fix_main_size -= item_gap; /*There is no gap after the 
 374:Middlewares/lvgl/src/extra/layouts/flex/lv_flex.c **** 
 375:Middlewares/lvgl/src/extra/layouts/flex/lv_flex.c ****     /*If there is at least one "grow item" the track takes the full space*/
 376:Middlewares/lvgl/src/extra/layouts/flex/lv_flex.c ****     t->track_main_size = t->grow_item_cnt ? max_main_size : t->track_fix_main_size;
 377:Middlewares/lvgl/src/extra/layouts/flex/lv_flex.c **** 
 378:Middlewares/lvgl/src/extra/layouts/flex/lv_flex.c ****     /*Have at least one item in a row*/
 379:Middlewares/lvgl/src/extra/layouts/flex/lv_flex.c ****     if(item && item_id == item_start_id) {
 380:Middlewares/lvgl/src/extra/layouts/flex/lv_flex.c ****         item = cont->spec_attr->children[item_id];
 381:Middlewares/lvgl/src/extra/layouts/flex/lv_flex.c ****         get_next_item(cont, f->rev, &item_id);
 382:Middlewares/lvgl/src/extra/layouts/flex/lv_flex.c ****         if(item) {
 383:Middlewares/lvgl/src/extra/layouts/flex/lv_flex.c ****             t->track_cross_size = get_cross_size(item);
 384:Middlewares/lvgl/src/extra/layouts/flex/lv_flex.c ****             t->track_main_size = get_main_size(item);
 385:Middlewares/lvgl/src/extra/layouts/flex/lv_flex.c ****             t->item_cnt = 1;
 386:Middlewares/lvgl/src/extra/layouts/flex/lv_flex.c ****         }
 387:Middlewares/lvgl/src/extra/layouts/flex/lv_flex.c ****     }
ARM GAS  /tmp/ccU94mph.s 			page 12


 388:Middlewares/lvgl/src/extra/layouts/flex/lv_flex.c **** 
 389:Middlewares/lvgl/src/extra/layouts/flex/lv_flex.c ****     return item_id;
 390:Middlewares/lvgl/src/extra/layouts/flex/lv_flex.c **** }
 391:Middlewares/lvgl/src/extra/layouts/flex/lv_flex.c **** 
 392:Middlewares/lvgl/src/extra/layouts/flex/lv_flex.c **** /**
 393:Middlewares/lvgl/src/extra/layouts/flex/lv_flex.c ****  * Position the children in the same track
 394:Middlewares/lvgl/src/extra/layouts/flex/lv_flex.c ****  */
 395:Middlewares/lvgl/src/extra/layouts/flex/lv_flex.c **** static void children_repos(lv_obj_t * cont, flex_t * f, int32_t item_first_id, int32_t item_last_id
 396:Middlewares/lvgl/src/extra/layouts/flex/lv_flex.c **** {
 397:Middlewares/lvgl/src/extra/layouts/flex/lv_flex.c ****     void (*area_set_main_size)(lv_area_t *, lv_coord_t) = (f->row ? lv_area_set_width : lv_area_set
 398:Middlewares/lvgl/src/extra/layouts/flex/lv_flex.c ****     lv_coord_t (*area_get_main_size)(const lv_area_t *) = (f->row ? lv_area_get_width : lv_area_get
 399:Middlewares/lvgl/src/extra/layouts/flex/lv_flex.c ****     lv_coord_t (*area_get_cross_size)(const lv_area_t *) = (!f->row ? lv_area_get_width : lv_area_g
 400:Middlewares/lvgl/src/extra/layouts/flex/lv_flex.c **** 
 401:Middlewares/lvgl/src/extra/layouts/flex/lv_flex.c ****     /*Calculate the size of grow items first*/
 402:Middlewares/lvgl/src/extra/layouts/flex/lv_flex.c ****     uint32_t i;
 403:Middlewares/lvgl/src/extra/layouts/flex/lv_flex.c ****     bool grow_reiterate  = true;
 404:Middlewares/lvgl/src/extra/layouts/flex/lv_flex.c ****     while(grow_reiterate) {
 405:Middlewares/lvgl/src/extra/layouts/flex/lv_flex.c ****         grow_reiterate = false;
 406:Middlewares/lvgl/src/extra/layouts/flex/lv_flex.c ****         lv_coord_t grow_value_sum = 0;
 407:Middlewares/lvgl/src/extra/layouts/flex/lv_flex.c ****         lv_coord_t grow_max_size = t->track_main_size - t->track_fix_main_size;
 408:Middlewares/lvgl/src/extra/layouts/flex/lv_flex.c ****         for(i = 0; i < t->grow_item_cnt; i++) {
 409:Middlewares/lvgl/src/extra/layouts/flex/lv_flex.c ****             if(t->grow_dsc[i].clamped == 0) {
 410:Middlewares/lvgl/src/extra/layouts/flex/lv_flex.c ****                 grow_value_sum += t->grow_dsc[i].grow_value;
 411:Middlewares/lvgl/src/extra/layouts/flex/lv_flex.c ****             } else {
 412:Middlewares/lvgl/src/extra/layouts/flex/lv_flex.c ****                 grow_max_size -= t->grow_dsc[i].final_size;
 413:Middlewares/lvgl/src/extra/layouts/flex/lv_flex.c ****             }
 414:Middlewares/lvgl/src/extra/layouts/flex/lv_flex.c ****         }
 415:Middlewares/lvgl/src/extra/layouts/flex/lv_flex.c ****         lv_coord_t grow_unit;
 416:Middlewares/lvgl/src/extra/layouts/flex/lv_flex.c **** 
 417:Middlewares/lvgl/src/extra/layouts/flex/lv_flex.c ****         for(i = 0; i < t->grow_item_cnt; i++) {
 418:Middlewares/lvgl/src/extra/layouts/flex/lv_flex.c ****             if(t->grow_dsc[i].clamped == 0) {
 419:Middlewares/lvgl/src/extra/layouts/flex/lv_flex.c ****                 grow_unit = grow_max_size / grow_value_sum;
 420:Middlewares/lvgl/src/extra/layouts/flex/lv_flex.c ****                 lv_coord_t size = grow_unit * t->grow_dsc[i].grow_value;
 421:Middlewares/lvgl/src/extra/layouts/flex/lv_flex.c ****                 lv_coord_t size_clamp = LV_CLAMP(t->grow_dsc[i].min_size, size, t->grow_dsc[i].max_
 422:Middlewares/lvgl/src/extra/layouts/flex/lv_flex.c **** 
 423:Middlewares/lvgl/src/extra/layouts/flex/lv_flex.c ****                 if(size_clamp != size) {
 424:Middlewares/lvgl/src/extra/layouts/flex/lv_flex.c ****                     t->grow_dsc[i].clamped = 1;
 425:Middlewares/lvgl/src/extra/layouts/flex/lv_flex.c ****                     grow_reiterate = true;
 426:Middlewares/lvgl/src/extra/layouts/flex/lv_flex.c ****                 }
 427:Middlewares/lvgl/src/extra/layouts/flex/lv_flex.c ****                 t->grow_dsc[i].final_size = size_clamp;
 428:Middlewares/lvgl/src/extra/layouts/flex/lv_flex.c ****                 grow_value_sum -= t->grow_dsc[i].grow_value;
 429:Middlewares/lvgl/src/extra/layouts/flex/lv_flex.c ****                 grow_max_size  -= t->grow_dsc[i].final_size;
 430:Middlewares/lvgl/src/extra/layouts/flex/lv_flex.c ****             }
 431:Middlewares/lvgl/src/extra/layouts/flex/lv_flex.c ****         }
 432:Middlewares/lvgl/src/extra/layouts/flex/lv_flex.c ****     }
 433:Middlewares/lvgl/src/extra/layouts/flex/lv_flex.c **** 
 434:Middlewares/lvgl/src/extra/layouts/flex/lv_flex.c **** 
 435:Middlewares/lvgl/src/extra/layouts/flex/lv_flex.c ****     bool rtl = lv_obj_get_style_base_dir(cont, LV_PART_MAIN) == LV_BASE_DIR_RTL ? true : false;
 436:Middlewares/lvgl/src/extra/layouts/flex/lv_flex.c **** 
 437:Middlewares/lvgl/src/extra/layouts/flex/lv_flex.c ****     lv_coord_t main_pos = 0;
 438:Middlewares/lvgl/src/extra/layouts/flex/lv_flex.c **** 
 439:Middlewares/lvgl/src/extra/layouts/flex/lv_flex.c ****     lv_coord_t place_gap = 0;
 440:Middlewares/lvgl/src/extra/layouts/flex/lv_flex.c ****     place_content(f->main_place, max_main_size, t->track_main_size, t->item_cnt, &main_pos, &place_
 441:Middlewares/lvgl/src/extra/layouts/flex/lv_flex.c ****     if(f->row && rtl) main_pos += lv_obj_get_content_width(cont);
 442:Middlewares/lvgl/src/extra/layouts/flex/lv_flex.c **** 
 443:Middlewares/lvgl/src/extra/layouts/flex/lv_flex.c ****     lv_obj_t * item = lv_obj_get_child(cont, item_first_id);
 444:Middlewares/lvgl/src/extra/layouts/flex/lv_flex.c ****     /*Reposition the children*/
ARM GAS  /tmp/ccU94mph.s 			page 13


 445:Middlewares/lvgl/src/extra/layouts/flex/lv_flex.c ****     while(item && item_first_id != item_last_id) {
 446:Middlewares/lvgl/src/extra/layouts/flex/lv_flex.c ****         if(lv_obj_has_flag_any(item, LV_OBJ_FLAG_IGNORE_LAYOUT | LV_OBJ_FLAG_HIDDEN | LV_OBJ_FLAG_F
 447:Middlewares/lvgl/src/extra/layouts/flex/lv_flex.c ****             item = get_next_item(cont, f->rev, &item_first_id);
 448:Middlewares/lvgl/src/extra/layouts/flex/lv_flex.c ****             continue;
 449:Middlewares/lvgl/src/extra/layouts/flex/lv_flex.c ****         }
 450:Middlewares/lvgl/src/extra/layouts/flex/lv_flex.c ****         lv_coord_t grow_size = lv_obj_get_style_flex_grow(item, LV_PART_MAIN);
 451:Middlewares/lvgl/src/extra/layouts/flex/lv_flex.c ****         if(grow_size) {
 452:Middlewares/lvgl/src/extra/layouts/flex/lv_flex.c ****             lv_coord_t s = 0;
 453:Middlewares/lvgl/src/extra/layouts/flex/lv_flex.c ****             for(i = 0; i < t->grow_item_cnt; i++) {
 454:Middlewares/lvgl/src/extra/layouts/flex/lv_flex.c ****                 if(t->grow_dsc[i].item == item) {
 455:Middlewares/lvgl/src/extra/layouts/flex/lv_flex.c ****                     s = t->grow_dsc[i].final_size;
 456:Middlewares/lvgl/src/extra/layouts/flex/lv_flex.c ****                     break;
 457:Middlewares/lvgl/src/extra/layouts/flex/lv_flex.c ****                 }
 458:Middlewares/lvgl/src/extra/layouts/flex/lv_flex.c ****             }
 459:Middlewares/lvgl/src/extra/layouts/flex/lv_flex.c **** 
 460:Middlewares/lvgl/src/extra/layouts/flex/lv_flex.c ****             if(f->row) item->w_layout = 1;
 461:Middlewares/lvgl/src/extra/layouts/flex/lv_flex.c ****             else item->h_layout = 1;
 462:Middlewares/lvgl/src/extra/layouts/flex/lv_flex.c **** 
 463:Middlewares/lvgl/src/extra/layouts/flex/lv_flex.c ****             if(s != area_get_main_size(&item->coords)) {
 464:Middlewares/lvgl/src/extra/layouts/flex/lv_flex.c ****                 lv_obj_invalidate(item);
 465:Middlewares/lvgl/src/extra/layouts/flex/lv_flex.c **** 
 466:Middlewares/lvgl/src/extra/layouts/flex/lv_flex.c ****                 lv_area_t old_coords;
 467:Middlewares/lvgl/src/extra/layouts/flex/lv_flex.c ****                 lv_area_copy(&old_coords, &item->coords);
 468:Middlewares/lvgl/src/extra/layouts/flex/lv_flex.c ****                 area_set_main_size(&item->coords, s);
 469:Middlewares/lvgl/src/extra/layouts/flex/lv_flex.c ****                 lv_event_send(item, LV_EVENT_SIZE_CHANGED, &old_coords);
 470:Middlewares/lvgl/src/extra/layouts/flex/lv_flex.c ****                 lv_event_send(lv_obj_get_parent(item), LV_EVENT_CHILD_CHANGED, item);
 471:Middlewares/lvgl/src/extra/layouts/flex/lv_flex.c ****                 lv_obj_invalidate(item);
 472:Middlewares/lvgl/src/extra/layouts/flex/lv_flex.c ****             }
 473:Middlewares/lvgl/src/extra/layouts/flex/lv_flex.c ****         } else {
 474:Middlewares/lvgl/src/extra/layouts/flex/lv_flex.c ****             item->w_layout = 0;
 475:Middlewares/lvgl/src/extra/layouts/flex/lv_flex.c ****             item->h_layout = 0;
 476:Middlewares/lvgl/src/extra/layouts/flex/lv_flex.c ****         }
 477:Middlewares/lvgl/src/extra/layouts/flex/lv_flex.c **** 
 478:Middlewares/lvgl/src/extra/layouts/flex/lv_flex.c ****         lv_coord_t cross_pos = 0;
 479:Middlewares/lvgl/src/extra/layouts/flex/lv_flex.c ****         switch(f->cross_place) {
 480:Middlewares/lvgl/src/extra/layouts/flex/lv_flex.c ****         case LV_FLEX_ALIGN_CENTER:
 481:Middlewares/lvgl/src/extra/layouts/flex/lv_flex.c ****             /*Round up the cross size to avoid rounding error when dividing by 2
 482:Middlewares/lvgl/src/extra/layouts/flex/lv_flex.c ****              *The issue comes up e,g, with column direction with center cross direction if an eleme
 483:Middlewares/lvgl/src/extra/layouts/flex/lv_flex.c ****             cross_pos = (((t->track_cross_size + 1) & (~1)) - area_get_cross_size(&item->coords)) /
 484:Middlewares/lvgl/src/extra/layouts/flex/lv_flex.c ****             break;
 485:Middlewares/lvgl/src/extra/layouts/flex/lv_flex.c ****         case LV_FLEX_ALIGN_END:
 486:Middlewares/lvgl/src/extra/layouts/flex/lv_flex.c ****             cross_pos = t->track_cross_size - area_get_cross_size(&item->coords);
 487:Middlewares/lvgl/src/extra/layouts/flex/lv_flex.c ****             break;
 488:Middlewares/lvgl/src/extra/layouts/flex/lv_flex.c ****         default:
 489:Middlewares/lvgl/src/extra/layouts/flex/lv_flex.c ****             break;
 490:Middlewares/lvgl/src/extra/layouts/flex/lv_flex.c ****         }
 491:Middlewares/lvgl/src/extra/layouts/flex/lv_flex.c **** 
 492:Middlewares/lvgl/src/extra/layouts/flex/lv_flex.c ****         if(f->row && rtl) main_pos -= area_get_main_size(&item->coords);
 493:Middlewares/lvgl/src/extra/layouts/flex/lv_flex.c **** 
 494:Middlewares/lvgl/src/extra/layouts/flex/lv_flex.c **** 
 495:Middlewares/lvgl/src/extra/layouts/flex/lv_flex.c ****         /*Handle percentage value of translate*/
 496:Middlewares/lvgl/src/extra/layouts/flex/lv_flex.c ****         lv_coord_t tr_x = lv_obj_get_style_translate_x(item, LV_PART_MAIN);
 497:Middlewares/lvgl/src/extra/layouts/flex/lv_flex.c ****         lv_coord_t tr_y = lv_obj_get_style_translate_y(item, LV_PART_MAIN);
 498:Middlewares/lvgl/src/extra/layouts/flex/lv_flex.c ****         lv_coord_t w = lv_obj_get_width(item);
 499:Middlewares/lvgl/src/extra/layouts/flex/lv_flex.c ****         lv_coord_t h = lv_obj_get_height(item);
 500:Middlewares/lvgl/src/extra/layouts/flex/lv_flex.c ****         if(LV_COORD_IS_PCT(tr_x)) tr_x = (w * LV_COORD_GET_PCT(tr_x)) / 100;
 501:Middlewares/lvgl/src/extra/layouts/flex/lv_flex.c ****         if(LV_COORD_IS_PCT(tr_y)) tr_y = (h * LV_COORD_GET_PCT(tr_y)) / 100;
ARM GAS  /tmp/ccU94mph.s 			page 14


 502:Middlewares/lvgl/src/extra/layouts/flex/lv_flex.c **** 
 503:Middlewares/lvgl/src/extra/layouts/flex/lv_flex.c ****         lv_coord_t diff_x = abs_x - item->coords.x1 + tr_x;
 504:Middlewares/lvgl/src/extra/layouts/flex/lv_flex.c ****         lv_coord_t diff_y = abs_y - item->coords.y1 + tr_y;
 505:Middlewares/lvgl/src/extra/layouts/flex/lv_flex.c ****         diff_x += f->row ? main_pos : cross_pos;
 506:Middlewares/lvgl/src/extra/layouts/flex/lv_flex.c ****         diff_y += f->row ? cross_pos : main_pos;
 507:Middlewares/lvgl/src/extra/layouts/flex/lv_flex.c **** 
 508:Middlewares/lvgl/src/extra/layouts/flex/lv_flex.c ****         if(diff_x || diff_y) {
 509:Middlewares/lvgl/src/extra/layouts/flex/lv_flex.c ****             lv_obj_invalidate(item);
 510:Middlewares/lvgl/src/extra/layouts/flex/lv_flex.c ****             item->coords.x1 += diff_x;
 511:Middlewares/lvgl/src/extra/layouts/flex/lv_flex.c ****             item->coords.x2 += diff_x;
 512:Middlewares/lvgl/src/extra/layouts/flex/lv_flex.c ****             item->coords.y1 += diff_y;
 513:Middlewares/lvgl/src/extra/layouts/flex/lv_flex.c ****             item->coords.y2 += diff_y;
 514:Middlewares/lvgl/src/extra/layouts/flex/lv_flex.c ****             lv_obj_invalidate(item);
 515:Middlewares/lvgl/src/extra/layouts/flex/lv_flex.c ****             lv_obj_move_children_by(item, diff_x, diff_y, true);
 516:Middlewares/lvgl/src/extra/layouts/flex/lv_flex.c ****         }
 517:Middlewares/lvgl/src/extra/layouts/flex/lv_flex.c **** 
 518:Middlewares/lvgl/src/extra/layouts/flex/lv_flex.c ****         if(!(f->row && rtl)) main_pos += area_get_main_size(&item->coords) + item_gap + place_gap;
 519:Middlewares/lvgl/src/extra/layouts/flex/lv_flex.c ****         else main_pos -= item_gap + place_gap;
 520:Middlewares/lvgl/src/extra/layouts/flex/lv_flex.c **** 
 521:Middlewares/lvgl/src/extra/layouts/flex/lv_flex.c ****         item = get_next_item(cont, f->rev, &item_first_id);
 522:Middlewares/lvgl/src/extra/layouts/flex/lv_flex.c ****     }
 523:Middlewares/lvgl/src/extra/layouts/flex/lv_flex.c **** }
 524:Middlewares/lvgl/src/extra/layouts/flex/lv_flex.c **** 
 525:Middlewares/lvgl/src/extra/layouts/flex/lv_flex.c **** /**
 526:Middlewares/lvgl/src/extra/layouts/flex/lv_flex.c ****  * Tell a start coordinate and gap for a placement type.
 527:Middlewares/lvgl/src/extra/layouts/flex/lv_flex.c ****  */
 528:Middlewares/lvgl/src/extra/layouts/flex/lv_flex.c **** static void place_content(lv_flex_align_t place, lv_coord_t max_size, lv_coord_t content_size, lv_c
 529:Middlewares/lvgl/src/extra/layouts/flex/lv_flex.c **** {
 100              		.loc 2 529 1 is_stmt 1 view -0
 101              		.cfi_startproc
 102              		@ args = 8, pretend = 0, frame = 0
 103              		@ frame_needed = 0, uses_anonymous_args = 0
 104              		@ link register save eliminated.
 105              		.loc 2 529 1 is_stmt 0 view .LVU17
 106 0000 10B4     		push	{r4}
 107              	.LCFI0:
 108              		.cfi_def_cfa_offset 4
 109              		.cfi_offset 4, -4
 110 0002 019C     		ldr	r4, [sp, #4]
 530:Middlewares/lvgl/src/extra/layouts/flex/lv_flex.c ****     if(item_cnt <= 1) {
 111              		.loc 2 530 5 is_stmt 1 view .LVU18
 112              		.loc 2 530 7 is_stmt 0 view .LVU19
 113 0004 012B     		cmp	r3, #1
 114 0006 07DD     		ble	.L14
 115              	.L4:
 531:Middlewares/lvgl/src/extra/layouts/flex/lv_flex.c ****         switch(place) {
 532:Middlewares/lvgl/src/extra/layouts/flex/lv_flex.c ****             case LV_FLEX_ALIGN_SPACE_BETWEEN:
 533:Middlewares/lvgl/src/extra/layouts/flex/lv_flex.c ****             case LV_FLEX_ALIGN_SPACE_AROUND:
 534:Middlewares/lvgl/src/extra/layouts/flex/lv_flex.c ****             case LV_FLEX_ALIGN_SPACE_EVENLY:
 535:Middlewares/lvgl/src/extra/layouts/flex/lv_flex.c ****                 place = LV_FLEX_ALIGN_CENTER;
 536:Middlewares/lvgl/src/extra/layouts/flex/lv_flex.c ****                 break;
 537:Middlewares/lvgl/src/extra/layouts/flex/lv_flex.c ****             default:
 538:Middlewares/lvgl/src/extra/layouts/flex/lv_flex.c ****                 break;
 539:Middlewares/lvgl/src/extra/layouts/flex/lv_flex.c ****         }
 540:Middlewares/lvgl/src/extra/layouts/flex/lv_flex.c ****     }
 541:Middlewares/lvgl/src/extra/layouts/flex/lv_flex.c **** 
 542:Middlewares/lvgl/src/extra/layouts/flex/lv_flex.c ****     switch(place) {
ARM GAS  /tmp/ccU94mph.s 			page 15


 116              		.loc 2 542 5 is_stmt 1 view .LVU20
 117 0008 0138     		subs	r0, r0, #1
 118              	.LVL7:
 119              		.loc 2 542 5 is_stmt 0 view .LVU21
 120 000a 0428     		cmp	r0, #4
 121 000c 47D8     		bhi	.L6
 122 000e DFE800F0 		tbb	[pc, r0]
 123              	.L8:
 124 0012 15       		.byte	(.L11-.L8)/2
 125 0013 08       		.byte	(.L5-.L8)/2
 126 0014 38       		.byte	(.L10-.L8)/2
 127 0015 27       		.byte	(.L9-.L8)/2
 128 0016 1E       		.byte	(.L7-.L8)/2
 129              	.LVL8:
 130 0017 00       		.p2align 1
 131              	.L14:
 531:Middlewares/lvgl/src/extra/layouts/flex/lv_flex.c ****         switch(place) {
 132              		.loc 2 531 9 is_stmt 1 view .LVU22
 133 0018 A0F1030C 		sub	ip, r0, #3
 134 001c BCF1020F 		cmp	ip, #2
 135 0020 F2D8     		bhi	.L4
 136              	.LVL9:
 137              	.L5:
 543:Middlewares/lvgl/src/extra/layouts/flex/lv_flex.c ****     case LV_FLEX_ALIGN_CENTER:
 544:Middlewares/lvgl/src/extra/layouts/flex/lv_flex.c ****         *gap = 0;
 138              		.loc 2 544 9 view .LVU23
 139              		.loc 2 544 14 is_stmt 0 view .LVU24
 140 0022 0023     		movs	r3, #0
 141              	.LVL10:
 142              		.loc 2 544 14 view .LVU25
 143 0024 0298     		ldr	r0, [sp, #8]
 144 0026 0380     		strh	r3, [r0]	@ movhi
 545:Middlewares/lvgl/src/extra/layouts/flex/lv_flex.c ****         *start_pos += (max_size - content_size) / 2;
 145              		.loc 2 545 9 is_stmt 1 view .LVU26
 146              		.loc 2 545 33 is_stmt 0 view .LVU27
 147 0028 891A     		subs	r1, r1, r2
 148              	.LVL11:
 149              		.loc 2 545 49 view .LVU28
 150 002a 01EBD171 		add	r1, r1, r1, lsr #31
 151              		.loc 2 545 20 view .LVU29
 152 002e 2388     		ldrh	r3, [r4]
 153 0030 03EB6101 		add	r1, r3, r1, asr #1
 154 0034 2180     		strh	r1, [r4]	@ movhi
 546:Middlewares/lvgl/src/extra/layouts/flex/lv_flex.c ****         break;
 155              		.loc 2 546 9 is_stmt 1 view .LVU30
 156              	.LVL12:
 157              	.L3:
 547:Middlewares/lvgl/src/extra/layouts/flex/lv_flex.c ****     case LV_FLEX_ALIGN_END:
 548:Middlewares/lvgl/src/extra/layouts/flex/lv_flex.c ****         *gap = 0;
 549:Middlewares/lvgl/src/extra/layouts/flex/lv_flex.c ****         *start_pos += max_size - content_size;
 550:Middlewares/lvgl/src/extra/layouts/flex/lv_flex.c ****         break;
 551:Middlewares/lvgl/src/extra/layouts/flex/lv_flex.c ****     case LV_FLEX_ALIGN_SPACE_BETWEEN:
 552:Middlewares/lvgl/src/extra/layouts/flex/lv_flex.c ****        *gap = (lv_coord_t)(max_size - content_size) / (lv_coord_t)(item_cnt - 1);
 553:Middlewares/lvgl/src/extra/layouts/flex/lv_flex.c ****        break;
 554:Middlewares/lvgl/src/extra/layouts/flex/lv_flex.c ****    case LV_FLEX_ALIGN_SPACE_AROUND:
 555:Middlewares/lvgl/src/extra/layouts/flex/lv_flex.c ****        *gap += (lv_coord_t)(max_size - content_size) / (lv_coord_t)(item_cnt);
 556:Middlewares/lvgl/src/extra/layouts/flex/lv_flex.c ****        *start_pos += *gap / 2;
ARM GAS  /tmp/ccU94mph.s 			page 16


 557:Middlewares/lvgl/src/extra/layouts/flex/lv_flex.c ****        break;
 558:Middlewares/lvgl/src/extra/layouts/flex/lv_flex.c ****    case LV_FLEX_ALIGN_SPACE_EVENLY:
 559:Middlewares/lvgl/src/extra/layouts/flex/lv_flex.c ****        *gap = (lv_coord_t)(max_size - content_size) / (lv_coord_t)(item_cnt + 1);
 560:Middlewares/lvgl/src/extra/layouts/flex/lv_flex.c ****        *start_pos += *gap;
 561:Middlewares/lvgl/src/extra/layouts/flex/lv_flex.c ****        break;
 562:Middlewares/lvgl/src/extra/layouts/flex/lv_flex.c ****    default:
 563:Middlewares/lvgl/src/extra/layouts/flex/lv_flex.c ****        *gap = 0;
 564:Middlewares/lvgl/src/extra/layouts/flex/lv_flex.c ****     }
 565:Middlewares/lvgl/src/extra/layouts/flex/lv_flex.c **** }
 158              		.loc 2 565 1 is_stmt 0 view .LVU31
 159 0036 5DF8044B 		ldr	r4, [sp], #4
 160              	.LCFI1:
 161              		.cfi_remember_state
 162              		.cfi_restore 4
 163              		.cfi_def_cfa_offset 0
 164              	.LVL13:
 165              		.loc 2 565 1 view .LVU32
 166 003a 7047     		bx	lr
 167              	.LVL14:
 168              	.L11:
 169              	.LCFI2:
 170              		.cfi_restore_state
 548:Middlewares/lvgl/src/extra/layouts/flex/lv_flex.c ****         *start_pos += max_size - content_size;
 171              		.loc 2 548 9 is_stmt 1 view .LVU33
 548:Middlewares/lvgl/src/extra/layouts/flex/lv_flex.c ****         *start_pos += max_size - content_size;
 172              		.loc 2 548 14 is_stmt 0 view .LVU34
 173 003c 0023     		movs	r3, #0
 174              	.LVL15:
 548:Middlewares/lvgl/src/extra/layouts/flex/lv_flex.c ****         *start_pos += max_size - content_size;
 175              		.loc 2 548 14 view .LVU35
 176 003e 0298     		ldr	r0, [sp, #8]
 177 0040 0380     		strh	r3, [r0]	@ movhi
 549:Middlewares/lvgl/src/extra/layouts/flex/lv_flex.c ****         break;
 178              		.loc 2 549 9 is_stmt 1 view .LVU36
 549:Middlewares/lvgl/src/extra/layouts/flex/lv_flex.c ****         break;
 179              		.loc 2 549 32 is_stmt 0 view .LVU37
 180 0042 891A     		subs	r1, r1, r2
 181              	.LVL16:
 549:Middlewares/lvgl/src/extra/layouts/flex/lv_flex.c ****         break;
 182              		.loc 2 549 20 view .LVU38
 183 0044 2388     		ldrh	r3, [r4]
 184 0046 13FA81F1 		uxtah	r1, r3, r1
 185 004a 2180     		strh	r1, [r4]	@ movhi
 550:Middlewares/lvgl/src/extra/layouts/flex/lv_flex.c ****     case LV_FLEX_ALIGN_SPACE_BETWEEN:
 186              		.loc 2 550 9 is_stmt 1 view .LVU39
 187 004c F3E7     		b	.L3
 188              	.LVL17:
 189              	.L7:
 552:Middlewares/lvgl/src/extra/layouts/flex/lv_flex.c ****        break;
 190              		.loc 2 552 8 view .LVU40
 552:Middlewares/lvgl/src/extra/layouts/flex/lv_flex.c ****        break;
 191              		.loc 2 552 37 is_stmt 0 view .LVU41
 192 004e 891A     		subs	r1, r1, r2
 193              	.LVL18:
 552:Middlewares/lvgl/src/extra/layouts/flex/lv_flex.c ****        break;
 194              		.loc 2 552 15 view .LVU42
 195 0050 09B2     		sxth	r1, r1
ARM GAS  /tmp/ccU94mph.s 			page 17


 552:Middlewares/lvgl/src/extra/layouts/flex/lv_flex.c ****        break;
 196              		.loc 2 552 77 view .LVU43
 197 0052 013B     		subs	r3, r3, #1
 198              	.LVL19:
 552:Middlewares/lvgl/src/extra/layouts/flex/lv_flex.c ****        break;
 199              		.loc 2 552 55 view .LVU44
 200 0054 1BB2     		sxth	r3, r3
 552:Middlewares/lvgl/src/extra/layouts/flex/lv_flex.c ****        break;
 201              		.loc 2 552 53 view .LVU45
 202 0056 91FBF3F1 		sdiv	r1, r1, r3
 552:Middlewares/lvgl/src/extra/layouts/flex/lv_flex.c ****        break;
 203              		.loc 2 552 13 view .LVU46
 204 005a 029B     		ldr	r3, [sp, #8]
 205 005c 1980     		strh	r1, [r3]	@ movhi
 553:Middlewares/lvgl/src/extra/layouts/flex/lv_flex.c ****    case LV_FLEX_ALIGN_SPACE_AROUND:
 206              		.loc 2 553 8 is_stmt 1 view .LVU47
 207 005e EAE7     		b	.L3
 208              	.LVL20:
 209              	.L9:
 555:Middlewares/lvgl/src/extra/layouts/flex/lv_flex.c ****        *start_pos += *gap / 2;
 210              		.loc 2 555 8 view .LVU48
 555:Middlewares/lvgl/src/extra/layouts/flex/lv_flex.c ****        *start_pos += *gap / 2;
 211              		.loc 2 555 38 is_stmt 0 view .LVU49
 212 0060 891A     		subs	r1, r1, r2
 213              	.LVL21:
 555:Middlewares/lvgl/src/extra/layouts/flex/lv_flex.c ****        *start_pos += *gap / 2;
 214              		.loc 2 555 16 view .LVU50
 215 0062 09B2     		sxth	r1, r1
 555:Middlewares/lvgl/src/extra/layouts/flex/lv_flex.c ****        *start_pos += *gap / 2;
 216              		.loc 2 555 54 view .LVU51
 217 0064 91FBF3F3 		sdiv	r3, r1, r3
 218              	.LVL22:
 555:Middlewares/lvgl/src/extra/layouts/flex/lv_flex.c ****        *start_pos += *gap / 2;
 219              		.loc 2 555 13 view .LVU52
 220 0068 029A     		ldr	r2, [sp, #8]
 221              	.LVL23:
 555:Middlewares/lvgl/src/extra/layouts/flex/lv_flex.c ****        *start_pos += *gap / 2;
 222              		.loc 2 555 13 view .LVU53
 223 006a 1288     		ldrh	r2, [r2]
 224 006c 1344     		add	r3, r3, r2
 225 006e 1BB2     		sxth	r3, r3
 226 0070 029A     		ldr	r2, [sp, #8]
 227 0072 1380     		strh	r3, [r2]	@ movhi
 556:Middlewares/lvgl/src/extra/layouts/flex/lv_flex.c ****        break;
 228              		.loc 2 556 8 is_stmt 1 view .LVU54
 556:Middlewares/lvgl/src/extra/layouts/flex/lv_flex.c ****        break;
 229              		.loc 2 556 19 is_stmt 0 view .LVU55
 230 0074 03EBD373 		add	r3, r3, r3, lsr #31
 231 0078 2288     		ldrh	r2, [r4]
 232 007a 02EB6303 		add	r3, r2, r3, asr #1
 233 007e 2380     		strh	r3, [r4]	@ movhi
 557:Middlewares/lvgl/src/extra/layouts/flex/lv_flex.c ****    case LV_FLEX_ALIGN_SPACE_EVENLY:
 234              		.loc 2 557 8 is_stmt 1 view .LVU56
 235 0080 D9E7     		b	.L3
 236              	.LVL24:
 237              	.L10:
 559:Middlewares/lvgl/src/extra/layouts/flex/lv_flex.c ****        *start_pos += *gap;
ARM GAS  /tmp/ccU94mph.s 			page 18


 238              		.loc 2 559 8 view .LVU57
 559:Middlewares/lvgl/src/extra/layouts/flex/lv_flex.c ****        *start_pos += *gap;
 239              		.loc 2 559 37 is_stmt 0 view .LVU58
 240 0082 891A     		subs	r1, r1, r2
 241              	.LVL25:
 559:Middlewares/lvgl/src/extra/layouts/flex/lv_flex.c ****        *start_pos += *gap;
 242              		.loc 2 559 15 view .LVU59
 243 0084 09B2     		sxth	r1, r1
 559:Middlewares/lvgl/src/extra/layouts/flex/lv_flex.c ****        *start_pos += *gap;
 244              		.loc 2 559 77 view .LVU60
 245 0086 0133     		adds	r3, r3, #1
 246              	.LVL26:
 559:Middlewares/lvgl/src/extra/layouts/flex/lv_flex.c ****        *start_pos += *gap;
 247              		.loc 2 559 55 view .LVU61
 248 0088 1BB2     		sxth	r3, r3
 559:Middlewares/lvgl/src/extra/layouts/flex/lv_flex.c ****        *start_pos += *gap;
 249              		.loc 2 559 53 view .LVU62
 250 008a 91FBF3F3 		sdiv	r3, r1, r3
 559:Middlewares/lvgl/src/extra/layouts/flex/lv_flex.c ****        *start_pos += *gap;
 251              		.loc 2 559 13 view .LVU63
 252 008e 1BB2     		sxth	r3, r3
 253 0090 029A     		ldr	r2, [sp, #8]
 254              	.LVL27:
 559:Middlewares/lvgl/src/extra/layouts/flex/lv_flex.c ****        *start_pos += *gap;
 255              		.loc 2 559 13 view .LVU64
 256 0092 1380     		strh	r3, [r2]	@ movhi
 560:Middlewares/lvgl/src/extra/layouts/flex/lv_flex.c ****        break;
 257              		.loc 2 560 8 is_stmt 1 view .LVU65
 560:Middlewares/lvgl/src/extra/layouts/flex/lv_flex.c ****        break;
 258              		.loc 2 560 19 is_stmt 0 view .LVU66
 259 0094 2288     		ldrh	r2, [r4]
 260 0096 12FA83F3 		uxtah	r3, r2, r3
 261 009a 2380     		strh	r3, [r4]	@ movhi
 561:Middlewares/lvgl/src/extra/layouts/flex/lv_flex.c ****    default:
 262              		.loc 2 561 8 is_stmt 1 view .LVU67
 263 009c CBE7     		b	.L3
 264              	.LVL28:
 265              	.L6:
 563:Middlewares/lvgl/src/extra/layouts/flex/lv_flex.c ****     }
 266              		.loc 2 563 8 view .LVU68
 563:Middlewares/lvgl/src/extra/layouts/flex/lv_flex.c ****     }
 267              		.loc 2 563 13 is_stmt 0 view .LVU69
 268 009e 0023     		movs	r3, #0
 269              	.LVL29:
 563:Middlewares/lvgl/src/extra/layouts/flex/lv_flex.c ****     }
 270              		.loc 2 563 13 view .LVU70
 271 00a0 029A     		ldr	r2, [sp, #8]
 272              	.LVL30:
 563:Middlewares/lvgl/src/extra/layouts/flex/lv_flex.c ****     }
 273              		.loc 2 563 13 view .LVU71
 274 00a2 1380     		strh	r3, [r2]	@ movhi
 275              		.loc 2 565 1 view .LVU72
 276 00a4 C7E7     		b	.L3
 277              		.cfi_endproc
 278              	.LFE180:
 280              		.section	.text.get_next_item,"ax",%progbits
 281              		.align	1
ARM GAS  /tmp/ccU94mph.s 			page 19


 282              		.syntax unified
 283              		.thumb
 284              		.thumb_func
 285              		.fpu fpv4-sp-d16
 287              	get_next_item:
 288              	.LVL31:
 289              	.LFB181:
 566:Middlewares/lvgl/src/extra/layouts/flex/lv_flex.c **** 
 567:Middlewares/lvgl/src/extra/layouts/flex/lv_flex.c **** static lv_obj_t * get_next_item(lv_obj_t * cont, bool rev, int32_t * item_id)
 568:Middlewares/lvgl/src/extra/layouts/flex/lv_flex.c **** {
 290              		.loc 2 568 1 is_stmt 1 view -0
 291              		.cfi_startproc
 292              		@ args = 0, pretend = 0, frame = 0
 293              		@ frame_needed = 0, uses_anonymous_args = 0
 294              		@ link register save eliminated.
 569:Middlewares/lvgl/src/extra/layouts/flex/lv_flex.c ****     if(rev) {
 295              		.loc 2 569 5 view .LVU74
 296              		.loc 2 569 7 is_stmt 0 view .LVU75
 297 0000 49B1     		cbz	r1, .L16
 570:Middlewares/lvgl/src/extra/layouts/flex/lv_flex.c ****         (*item_id)--;
 298              		.loc 2 570 9 is_stmt 1 view .LVU76
 299              		.loc 2 570 10 is_stmt 0 view .LVU77
 300 0002 1368     		ldr	r3, [r2]
 301              		.loc 2 570 19 view .LVU78
 302 0004 013B     		subs	r3, r3, #1
 303 0006 1360     		str	r3, [r2]
 571:Middlewares/lvgl/src/extra/layouts/flex/lv_flex.c ****         if(*item_id >= 0) return cont->spec_attr->children[*item_id];
 304              		.loc 2 571 9 is_stmt 1 view .LVU79
 305              		.loc 2 571 11 is_stmt 0 view .LVU80
 306 0008 002B     		cmp	r3, #0
 307 000a 0FDB     		blt	.L18
 308              		.loc 2 571 27 is_stmt 1 discriminator 1 view .LVU81
 309              		.loc 2 571 38 is_stmt 0 discriminator 1 view .LVU82
 310 000c 8268     		ldr	r2, [r0, #8]
 311              	.LVL32:
 312              		.loc 2 571 49 discriminator 1 view .LVU83
 313 000e 1268     		ldr	r2, [r2]
 314              		.loc 2 571 59 discriminator 1 view .LVU84
 315 0010 52F82300 		ldr	r0, [r2, r3, lsl #2]
 316              	.LVL33:
 317              		.loc 2 571 59 discriminator 1 view .LVU85
 318 0014 7047     		bx	lr
 319              	.LVL34:
 320              	.L16:
 572:Middlewares/lvgl/src/extra/layouts/flex/lv_flex.c ****         else return NULL;
 573:Middlewares/lvgl/src/extra/layouts/flex/lv_flex.c ****     } else {
 574:Middlewares/lvgl/src/extra/layouts/flex/lv_flex.c ****         (*item_id)++;
 321              		.loc 2 574 9 is_stmt 1 view .LVU86
 322              		.loc 2 574 10 is_stmt 0 view .LVU87
 323 0016 1368     		ldr	r3, [r2]
 324              		.loc 2 574 19 view .LVU88
 325 0018 0133     		adds	r3, r3, #1
 326 001a 1360     		str	r3, [r2]
 575:Middlewares/lvgl/src/extra/layouts/flex/lv_flex.c ****         if((*item_id) < (int32_t)cont->spec_attr->child_cnt) return cont->spec_attr->children[*item
 327              		.loc 2 575 9 is_stmt 1 view .LVU89
 328              		.loc 2 575 38 is_stmt 0 view .LVU90
 329 001c 8268     		ldr	r2, [r0, #8]
ARM GAS  /tmp/ccU94mph.s 			page 20


 330              	.LVL35:
 331              		.loc 2 575 49 view .LVU91
 332 001e 5168     		ldr	r1, [r2, #4]
 333              	.LVL36:
 334              		.loc 2 575 11 view .LVU92
 335 0020 8B42     		cmp	r3, r1
 336 0022 05DA     		bge	.L19
 337              		.loc 2 575 62 is_stmt 1 discriminator 1 view .LVU93
 338              		.loc 2 575 84 is_stmt 0 discriminator 1 view .LVU94
 339 0024 1268     		ldr	r2, [r2]
 340              		.loc 2 575 94 discriminator 1 view .LVU95
 341 0026 52F82300 		ldr	r0, [r2, r3, lsl #2]
 342              	.LVL37:
 343              		.loc 2 575 94 discriminator 1 view .LVU96
 344 002a 7047     		bx	lr
 345              	.LVL38:
 346              	.L18:
 572:Middlewares/lvgl/src/extra/layouts/flex/lv_flex.c ****         else return NULL;
 347              		.loc 2 572 21 view .LVU97
 348 002c 0020     		movs	r0, #0
 349              	.LVL39:
 572:Middlewares/lvgl/src/extra/layouts/flex/lv_flex.c ****         else return NULL;
 350              		.loc 2 572 21 view .LVU98
 351 002e 7047     		bx	lr
 352              	.LVL40:
 353              	.L19:
 576:Middlewares/lvgl/src/extra/layouts/flex/lv_flex.c ****         else return NULL;
 354              		.loc 2 576 21 view .LVU99
 355 0030 0020     		movs	r0, #0
 356              	.LVL41:
 577:Middlewares/lvgl/src/extra/layouts/flex/lv_flex.c ****     }
 578:Middlewares/lvgl/src/extra/layouts/flex/lv_flex.c **** }
 357              		.loc 2 578 1 view .LVU100
 358 0032 7047     		bx	lr
 359              		.cfi_endproc
 360              	.LFE181:
 362              		.section	.text.find_track_end,"ax",%progbits
 363              		.align	1
 364              		.syntax unified
 365              		.thumb
 366              		.thumb_func
 367              		.fpu fpv4-sp-d16
 369              	find_track_end:
 370              	.LVL42:
 371              	.LFB178:
 310:Middlewares/lvgl/src/extra/layouts/flex/lv_flex.c ****     lv_coord_t w_set = lv_obj_get_style_width(cont, LV_PART_MAIN);
 372              		.loc 2 310 1 is_stmt 1 view -0
 373              		.cfi_startproc
 374              		@ args = 8, pretend = 0, frame = 24
 375              		@ frame_needed = 0, uses_anonymous_args = 0
 310:Middlewares/lvgl/src/extra/layouts/flex/lv_flex.c ****     lv_coord_t w_set = lv_obj_get_style_width(cont, LV_PART_MAIN);
 376              		.loc 2 310 1 is_stmt 0 view .LVU102
 377 0000 2DE9F04F 		push	{r4, r5, r6, r7, r8, r9, r10, fp, lr}
 378              	.LCFI3:
 379              		.cfi_def_cfa_offset 36
 380              		.cfi_offset 4, -36
 381              		.cfi_offset 5, -32
ARM GAS  /tmp/ccU94mph.s 			page 21


 382              		.cfi_offset 6, -28
 383              		.cfi_offset 7, -24
 384              		.cfi_offset 8, -20
 385              		.cfi_offset 9, -16
 386              		.cfi_offset 10, -12
 387              		.cfi_offset 11, -8
 388              		.cfi_offset 14, -4
 389 0004 87B0     		sub	sp, sp, #28
 390              	.LCFI4:
 391              		.cfi_def_cfa_offset 64
 392 0006 8146     		mov	r9, r0
 393 0008 0E46     		mov	r6, r1
 394 000a 9046     		mov	r8, r2
 395 000c 0293     		str	r3, [sp, #8]
 396 000e BDF940B0 		ldrsh	fp, [sp, #64]
 397 0012 119D     		ldr	r5, [sp, #68]
 311:Middlewares/lvgl/src/extra/layouts/flex/lv_flex.c ****     lv_coord_t h_set = lv_obj_get_style_height(cont, LV_PART_MAIN);
 398              		.loc 2 311 5 is_stmt 1 view .LVU103
 399              	.LVL43:
 400              	.LBB64:
 401              	.LBI64:
 402              		.file 3 "Middlewares/lvgl/src/extra/layouts/flex/../flex/../../../core/lv_obj_style_gen.h"
   1:Middlewares/lvgl/src/extra/layouts/flex/../flex/../../../core/lv_obj_style_gen.h **** static inline lv_coord_t lv_obj_get_style_width(const struct _lv_obj_t * obj, uint32_t part)
 403              		.loc 3 1 26 view .LVU104
 404              	.LBB65:
   2:Middlewares/lvgl/src/extra/layouts/flex/../flex/../../../core/lv_obj_style_gen.h **** {
   3:Middlewares/lvgl/src/extra/layouts/flex/../flex/../../../core/lv_obj_style_gen.h ****     lv_style_value_t v = lv_obj_get_style_prop(obj, part, LV_STYLE_WIDTH);
 405              		.loc 3 3 5 view .LVU105
 406              		.loc 3 3 26 is_stmt 0 view .LVU106
 407 0014 41F20102 		movw	r2, #4097
 408              	.LVL44:
 409              		.loc 3 3 26 view .LVU107
 410 0018 0021     		movs	r1, #0
 411              	.LVL45:
 412              		.loc 3 3 26 view .LVU108
 413 001a FFF7FEFF 		bl	lv_obj_get_style_prop
 414              	.LVL46:
   4:Middlewares/lvgl/src/extra/layouts/flex/../flex/../../../core/lv_obj_style_gen.h ****     return (lv_coord_t)v.num;
 415              		.loc 3 4 5 is_stmt 1 view .LVU109
 416              		.loc 3 4 12 is_stmt 0 view .LVU110
 417 001e 04B2     		sxth	r4, r0
 418              	.LVL47:
 419              		.loc 3 4 12 view .LVU111
 420              	.LBE65:
 421              	.LBE64:
 312:Middlewares/lvgl/src/extra/layouts/flex/lv_flex.c **** 
 422              		.loc 2 312 5 is_stmt 1 view .LVU112
 423              	.LBB66:
 424              	.LBI66:
   5:Middlewares/lvgl/src/extra/layouts/flex/../flex/../../../core/lv_obj_style_gen.h **** }
   6:Middlewares/lvgl/src/extra/layouts/flex/../flex/../../../core/lv_obj_style_gen.h **** 
   7:Middlewares/lvgl/src/extra/layouts/flex/../flex/../../../core/lv_obj_style_gen.h **** static inline lv_coord_t lv_obj_get_style_min_width(const struct _lv_obj_t * obj, uint32_t part)
   8:Middlewares/lvgl/src/extra/layouts/flex/../flex/../../../core/lv_obj_style_gen.h **** {
   9:Middlewares/lvgl/src/extra/layouts/flex/../flex/../../../core/lv_obj_style_gen.h ****     lv_style_value_t v = lv_obj_get_style_prop(obj, part, LV_STYLE_MIN_WIDTH);
  10:Middlewares/lvgl/src/extra/layouts/flex/../flex/../../../core/lv_obj_style_gen.h ****     return (lv_coord_t)v.num;
  11:Middlewares/lvgl/src/extra/layouts/flex/../flex/../../../core/lv_obj_style_gen.h **** }
  12:Middlewares/lvgl/src/extra/layouts/flex/../flex/../../../core/lv_obj_style_gen.h **** 
ARM GAS  /tmp/ccU94mph.s 			page 22


  13:Middlewares/lvgl/src/extra/layouts/flex/../flex/../../../core/lv_obj_style_gen.h **** static inline lv_coord_t lv_obj_get_style_max_width(const struct _lv_obj_t * obj, uint32_t part)
  14:Middlewares/lvgl/src/extra/layouts/flex/../flex/../../../core/lv_obj_style_gen.h **** {
  15:Middlewares/lvgl/src/extra/layouts/flex/../flex/../../../core/lv_obj_style_gen.h ****     lv_style_value_t v = lv_obj_get_style_prop(obj, part, LV_STYLE_MAX_WIDTH);
  16:Middlewares/lvgl/src/extra/layouts/flex/../flex/../../../core/lv_obj_style_gen.h ****     return (lv_coord_t)v.num;
  17:Middlewares/lvgl/src/extra/layouts/flex/../flex/../../../core/lv_obj_style_gen.h **** }
  18:Middlewares/lvgl/src/extra/layouts/flex/../flex/../../../core/lv_obj_style_gen.h **** 
  19:Middlewares/lvgl/src/extra/layouts/flex/../flex/../../../core/lv_obj_style_gen.h **** static inline lv_coord_t lv_obj_get_style_height(const struct _lv_obj_t * obj, uint32_t part)
 425              		.loc 3 19 26 view .LVU113
 426              	.LBB67:
  20:Middlewares/lvgl/src/extra/layouts/flex/../flex/../../../core/lv_obj_style_gen.h **** {
  21:Middlewares/lvgl/src/extra/layouts/flex/../flex/../../../core/lv_obj_style_gen.h ****     lv_style_value_t v = lv_obj_get_style_prop(obj, part, LV_STYLE_HEIGHT);
 427              		.loc 3 21 5 view .LVU114
 428              		.loc 3 21 26 is_stmt 0 view .LVU115
 429 0020 41F20402 		movw	r2, #4100
 430 0024 0021     		movs	r1, #0
 431 0026 4846     		mov	r0, r9
 432 0028 FFF7FEFF 		bl	lv_obj_get_style_prop
 433              	.LVL48:
  22:Middlewares/lvgl/src/extra/layouts/flex/../flex/../../../core/lv_obj_style_gen.h ****     return (lv_coord_t)v.num;
 434              		.loc 3 22 5 is_stmt 1 view .LVU116
 435              		.loc 3 22 5 is_stmt 0 view .LVU117
 436              	.LBE67:
 437              	.LBE66:
 315:Middlewares/lvgl/src/extra/layouts/flex/lv_flex.c ****         f->wrap = false;
 438              		.loc 2 315 5 is_stmt 1 view .LVU118
 315:Middlewares/lvgl/src/extra/layouts/flex/lv_flex.c ****         f->wrap = false;
 439              		.loc 2 315 8 is_stmt 0 view .LVU119
 440 002c F378     		ldrb	r3, [r6, #3]	@ zero_extendqisi2
 315:Middlewares/lvgl/src/extra/layouts/flex/lv_flex.c ****         f->wrap = false;
 441              		.loc 2 315 7 view .LVU120
 442 002e 13F0020F 		tst	r3, #2
 443 0032 10D0     		beq	.L21
 444 0034 00B2     		sxth	r0, r0
 315:Middlewares/lvgl/src/extra/layouts/flex/lv_flex.c ****         f->wrap = false;
 445              		.loc 2 315 16 discriminator 1 view .LVU121
 446 0036 13F00103 		ands	r3, r3, #1
 447 003a 03D0     		beq	.L22
 315:Middlewares/lvgl/src/extra/layouts/flex/lv_flex.c ****         f->wrap = false;
 448              		.loc 2 315 28 discriminator 2 view .LVU122
 449 003c 42F2D172 		movw	r2, #10193
 450 0040 9442     		cmp	r4, r2
 451 0042 04D0     		beq	.L23
 452              	.L22:
 315:Middlewares/lvgl/src/extra/layouts/flex/lv_flex.c ****         f->wrap = false;
 453              		.loc 2 315 57 discriminator 4 view .LVU123
 454 0044 3BB9     		cbnz	r3, .L21
 315:Middlewares/lvgl/src/extra/layouts/flex/lv_flex.c ****         f->wrap = false;
 455              		.loc 2 315 69 discriminator 5 view .LVU124
 456 0046 42F2D173 		movw	r3, #10193
 457 004a 9842     		cmp	r0, r3
 458 004c 03D1     		bne	.L21
 459              	.L23:
 316:Middlewares/lvgl/src/extra/layouts/flex/lv_flex.c ****     }
 460              		.loc 2 316 9 is_stmt 1 view .LVU125
 316:Middlewares/lvgl/src/extra/layouts/flex/lv_flex.c ****     }
 461              		.loc 2 316 17 is_stmt 0 view .LVU126
 462 004e F378     		ldrb	r3, [r6, #3]	@ zero_extendqisi2
ARM GAS  /tmp/ccU94mph.s 			page 23


 463 0050 6FF34103 		bfc	r3, #1, #1
 464 0054 F370     		strb	r3, [r6, #3]
 465              	.LVL49:
 466              	.L21:
 318:Middlewares/lvgl/src/extra/layouts/flex/lv_flex.c ****     lv_coord_t(*get_cross_size)(const lv_obj_t *) = (!f->row ? lv_obj_get_width : lv_obj_get_height
 467              		.loc 2 318 5 is_stmt 1 view .LVU127
 318:Middlewares/lvgl/src/extra/layouts/flex/lv_flex.c ****     lv_coord_t(*get_cross_size)(const lv_obj_t *) = (!f->row ? lv_obj_get_width : lv_obj_get_height
 468              		.loc 2 318 60 is_stmt 0 view .LVU128
 469 0056 F378     		ldrb	r3, [r6, #3]	@ zero_extendqisi2
 318:Middlewares/lvgl/src/extra/layouts/flex/lv_flex.c ****     lv_coord_t(*get_cross_size)(const lv_obj_t *) = (!f->row ? lv_obj_get_width : lv_obj_get_height
 470              		.loc 2 318 17 view .LVU129
 471 0058 13F00103 		ands	r3, r3, #1
 472 005c 13D0     		beq	.L46
 473 005e 824A     		ldr	r2, .L52
 474 0060 0392     		str	r2, [sp, #12]
 475              	.L24:
 476              	.LVL50:
 319:Middlewares/lvgl/src/extra/layouts/flex/lv_flex.c **** 
 477              		.loc 2 319 5 is_stmt 1 discriminator 4 view .LVU130
 319:Middlewares/lvgl/src/extra/layouts/flex/lv_flex.c **** 
 478              		.loc 2 319 17 is_stmt 0 discriminator 4 view .LVU131
 479 0062 9BB9     		cbnz	r3, .L47
 319:Middlewares/lvgl/src/extra/layouts/flex/lv_flex.c **** 
 480              		.loc 2 319 17 view .LVU132
 481 0064 DFF800A2 		ldr	r10, .L52
 482              	.L25:
 483              	.LVL51:
 321:Middlewares/lvgl/src/extra/layouts/flex/lv_flex.c ****     t->track_main_size = 0;
 484              		.loc 2 321 5 is_stmt 1 discriminator 4 view .LVU133
 322:Middlewares/lvgl/src/extra/layouts/flex/lv_flex.c ****     t->track_fix_main_size = 0;
 485              		.loc 2 322 5 discriminator 4 view .LVU134
 322:Middlewares/lvgl/src/extra/layouts/flex/lv_flex.c ****     t->track_fix_main_size = 0;
 486              		.loc 2 322 24 is_stmt 0 discriminator 4 view .LVU135
 487 0068 0023     		movs	r3, #0
 488 006a 6B80     		strh	r3, [r5, #2]	@ movhi
 323:Middlewares/lvgl/src/extra/layouts/flex/lv_flex.c ****     t->grow_item_cnt = 0;
 489              		.loc 2 323 5 is_stmt 1 discriminator 4 view .LVU136
 323:Middlewares/lvgl/src/extra/layouts/flex/lv_flex.c ****     t->grow_item_cnt = 0;
 490              		.loc 2 323 28 is_stmt 0 discriminator 4 view .LVU137
 491 006c AB80     		strh	r3, [r5, #4]	@ movhi
 324:Middlewares/lvgl/src/extra/layouts/flex/lv_flex.c ****     t->track_cross_size = 0;
 492              		.loc 2 324 5 is_stmt 1 discriminator 4 view .LVU138
 324:Middlewares/lvgl/src/extra/layouts/flex/lv_flex.c ****     t->track_cross_size = 0;
 493              		.loc 2 324 22 is_stmt 0 discriminator 4 view .LVU139
 494 006e 2B61     		str	r3, [r5, #16]
 325:Middlewares/lvgl/src/extra/layouts/flex/lv_flex.c ****     t->item_cnt = 0;
 495              		.loc 2 325 5 is_stmt 1 discriminator 4 view .LVU140
 325:Middlewares/lvgl/src/extra/layouts/flex/lv_flex.c ****     t->item_cnt = 0;
 496              		.loc 2 325 25 is_stmt 0 discriminator 4 view .LVU141
 497 0070 2B80     		strh	r3, [r5]	@ movhi
 326:Middlewares/lvgl/src/extra/layouts/flex/lv_flex.c ****     t->grow_dsc = NULL;
 498              		.loc 2 326 5 is_stmt 1 discriminator 4 view .LVU142
 326:Middlewares/lvgl/src/extra/layouts/flex/lv_flex.c ****     t->grow_dsc = NULL;
 499              		.loc 2 326 17 is_stmt 0 discriminator 4 view .LVU143
 500 0072 AB60     		str	r3, [r5, #8]
 327:Middlewares/lvgl/src/extra/layouts/flex/lv_flex.c **** 
 501              		.loc 2 327 5 is_stmt 1 discriminator 4 view .LVU144
ARM GAS  /tmp/ccU94mph.s 			page 24


 327:Middlewares/lvgl/src/extra/layouts/flex/lv_flex.c **** 
 502              		.loc 2 327 17 is_stmt 0 discriminator 4 view .LVU145
 503 0074 EB60     		str	r3, [r5, #12]
 329:Middlewares/lvgl/src/extra/layouts/flex/lv_flex.c **** 
 504              		.loc 2 329 5 is_stmt 1 discriminator 4 view .LVU146
 329:Middlewares/lvgl/src/extra/layouts/flex/lv_flex.c **** 
 505              		.loc 2 329 13 is_stmt 0 discriminator 4 view .LVU147
 506 0076 CDF81480 		str	r8, [sp, #20]
 331:Middlewares/lvgl/src/extra/layouts/flex/lv_flex.c ****     while(item) {
 507              		.loc 2 331 5 is_stmt 1 discriminator 4 view .LVU148
 331:Middlewares/lvgl/src/extra/layouts/flex/lv_flex.c ****     while(item) {
 508              		.loc 2 331 23 is_stmt 0 discriminator 4 view .LVU149
 509 007a 4146     		mov	r1, r8
 510 007c 4846     		mov	r0, r9
 511 007e FFF7FEFF 		bl	lv_obj_get_child
 512              	.LVL52:
 513 0082 0446     		mov	r4, r0
 514              	.LVL53:
 332:Middlewares/lvgl/src/extra/layouts/flex/lv_flex.c ****         if(item_id != item_start_id && lv_obj_has_flag(item, LV_OBJ_FLAG_FLEX_IN_NEW_TRACK)) break;
 515              		.loc 2 332 5 is_stmt 1 discriminator 4 view .LVU150
 332:Middlewares/lvgl/src/extra/layouts/flex/lv_flex.c ****         if(item_id != item_start_id && lv_obj_has_flag(item, LV_OBJ_FLAG_FLEX_IN_NEW_TRACK)) break;
 516              		.loc 2 332 10 is_stmt 0 discriminator 4 view .LVU151
 517 0084 AAE0     		b	.L26
 518              	.LVL54:
 519              	.L46:
 318:Middlewares/lvgl/src/extra/layouts/flex/lv_flex.c ****     lv_coord_t(*get_cross_size)(const lv_obj_t *) = (!f->row ? lv_obj_get_width : lv_obj_get_height
 520              		.loc 2 318 17 view .LVU152
 521 0086 794A     		ldr	r2, .L52+4
 522 0088 0392     		str	r2, [sp, #12]
 523 008a EAE7     		b	.L24
 524              	.LVL55:
 525              	.L47:
 319:Middlewares/lvgl/src/extra/layouts/flex/lv_flex.c **** 
 526              		.loc 2 319 17 view .LVU153
 527 008c DFF8DCA1 		ldr	r10, .L52+4
 528 0090 EAE7     		b	.L25
 529              	.LVL56:
 530              	.L50:
 531              	.LBB68:
 336:Middlewares/lvgl/src/extra/layouts/flex/lv_flex.c ****             if(grow_value) {
 532              		.loc 2 336 13 is_stmt 1 view .LVU154
 533              	.LBB69:
 534              	.LBI69:
 535              		.file 4 "Middlewares/lvgl/src/extra/layouts/flex/../flex/lv_flex.h"
   1:Middlewares/lvgl/src/extra/layouts/flex/../flex/lv_flex.h **** /**
   2:Middlewares/lvgl/src/extra/layouts/flex/../flex/lv_flex.h ****  * @file lv_flex.h
   3:Middlewares/lvgl/src/extra/layouts/flex/../flex/lv_flex.h ****  *
   4:Middlewares/lvgl/src/extra/layouts/flex/../flex/lv_flex.h ****  */
   5:Middlewares/lvgl/src/extra/layouts/flex/../flex/lv_flex.h **** 
   6:Middlewares/lvgl/src/extra/layouts/flex/../flex/lv_flex.h **** #ifndef LV_FLEX_H
   7:Middlewares/lvgl/src/extra/layouts/flex/../flex/lv_flex.h **** #define LV_FLEX_H
   8:Middlewares/lvgl/src/extra/layouts/flex/../flex/lv_flex.h **** 
   9:Middlewares/lvgl/src/extra/layouts/flex/../flex/lv_flex.h **** #ifdef __cplusplus
  10:Middlewares/lvgl/src/extra/layouts/flex/../flex/lv_flex.h **** extern "C" {
  11:Middlewares/lvgl/src/extra/layouts/flex/../flex/lv_flex.h **** #endif
  12:Middlewares/lvgl/src/extra/layouts/flex/../flex/lv_flex.h **** 
  13:Middlewares/lvgl/src/extra/layouts/flex/../flex/lv_flex.h **** /*********************
ARM GAS  /tmp/ccU94mph.s 			page 25


  14:Middlewares/lvgl/src/extra/layouts/flex/../flex/lv_flex.h ****  *      INCLUDES
  15:Middlewares/lvgl/src/extra/layouts/flex/../flex/lv_flex.h ****  *********************/
  16:Middlewares/lvgl/src/extra/layouts/flex/../flex/lv_flex.h **** #include "../../../core/lv_obj.h"
  17:Middlewares/lvgl/src/extra/layouts/flex/../flex/lv_flex.h **** #if LV_USE_FLEX
  18:Middlewares/lvgl/src/extra/layouts/flex/../flex/lv_flex.h **** 
  19:Middlewares/lvgl/src/extra/layouts/flex/../flex/lv_flex.h **** /*********************
  20:Middlewares/lvgl/src/extra/layouts/flex/../flex/lv_flex.h ****  *      DEFINES
  21:Middlewares/lvgl/src/extra/layouts/flex/../flex/lv_flex.h ****  *********************/
  22:Middlewares/lvgl/src/extra/layouts/flex/../flex/lv_flex.h **** 
  23:Middlewares/lvgl/src/extra/layouts/flex/../flex/lv_flex.h **** #define LV_OBJ_FLAG_FLEX_IN_NEW_TRACK   LV_OBJ_FLAG_LAYOUT_1
  24:Middlewares/lvgl/src/extra/layouts/flex/../flex/lv_flex.h **** LV_EXPORT_CONST_INT(LV_OBJ_FLAG_FLEX_IN_NEW_TRACK);
  25:Middlewares/lvgl/src/extra/layouts/flex/../flex/lv_flex.h **** 
  26:Middlewares/lvgl/src/extra/layouts/flex/../flex/lv_flex.h **** #define _LV_FLEX_COLUMN        (1 << 0)
  27:Middlewares/lvgl/src/extra/layouts/flex/../flex/lv_flex.h **** #define _LV_FLEX_WRAP       (1 << 2)
  28:Middlewares/lvgl/src/extra/layouts/flex/../flex/lv_flex.h **** #define _LV_FLEX_REVERSE    (1 << 3)
  29:Middlewares/lvgl/src/extra/layouts/flex/../flex/lv_flex.h **** 
  30:Middlewares/lvgl/src/extra/layouts/flex/../flex/lv_flex.h **** /**********************
  31:Middlewares/lvgl/src/extra/layouts/flex/../flex/lv_flex.h ****  *      TYPEDEFS
  32:Middlewares/lvgl/src/extra/layouts/flex/../flex/lv_flex.h ****  **********************/
  33:Middlewares/lvgl/src/extra/layouts/flex/../flex/lv_flex.h **** 
  34:Middlewares/lvgl/src/extra/layouts/flex/../flex/lv_flex.h **** /*Can't include lv_obj.h because it includes this header file*/
  35:Middlewares/lvgl/src/extra/layouts/flex/../flex/lv_flex.h **** struct _lv_obj_t;
  36:Middlewares/lvgl/src/extra/layouts/flex/../flex/lv_flex.h **** 
  37:Middlewares/lvgl/src/extra/layouts/flex/../flex/lv_flex.h **** typedef enum {
  38:Middlewares/lvgl/src/extra/layouts/flex/../flex/lv_flex.h ****     LV_FLEX_ALIGN_START,
  39:Middlewares/lvgl/src/extra/layouts/flex/../flex/lv_flex.h ****     LV_FLEX_ALIGN_END,
  40:Middlewares/lvgl/src/extra/layouts/flex/../flex/lv_flex.h ****     LV_FLEX_ALIGN_CENTER,
  41:Middlewares/lvgl/src/extra/layouts/flex/../flex/lv_flex.h ****     LV_FLEX_ALIGN_SPACE_EVENLY,
  42:Middlewares/lvgl/src/extra/layouts/flex/../flex/lv_flex.h ****     LV_FLEX_ALIGN_SPACE_AROUND,
  43:Middlewares/lvgl/src/extra/layouts/flex/../flex/lv_flex.h ****     LV_FLEX_ALIGN_SPACE_BETWEEN,
  44:Middlewares/lvgl/src/extra/layouts/flex/../flex/lv_flex.h **** }lv_flex_align_t;
  45:Middlewares/lvgl/src/extra/layouts/flex/../flex/lv_flex.h **** 
  46:Middlewares/lvgl/src/extra/layouts/flex/../flex/lv_flex.h **** typedef enum {
  47:Middlewares/lvgl/src/extra/layouts/flex/../flex/lv_flex.h ****     LV_FLEX_FLOW_ROW                 = 0x00,
  48:Middlewares/lvgl/src/extra/layouts/flex/../flex/lv_flex.h ****     LV_FLEX_FLOW_COLUMN              = _LV_FLEX_COLUMN,
  49:Middlewares/lvgl/src/extra/layouts/flex/../flex/lv_flex.h ****     LV_FLEX_FLOW_ROW_WRAP            = LV_FLEX_FLOW_ROW | _LV_FLEX_WRAP,
  50:Middlewares/lvgl/src/extra/layouts/flex/../flex/lv_flex.h ****     LV_FLEX_FLOW_ROW_REVERSE         = LV_FLEX_FLOW_ROW | _LV_FLEX_REVERSE,
  51:Middlewares/lvgl/src/extra/layouts/flex/../flex/lv_flex.h ****     LV_FLEX_FLOW_ROW_WRAP_REVERSE    = LV_FLEX_FLOW_ROW | _LV_FLEX_WRAP | _LV_FLEX_REVERSE,
  52:Middlewares/lvgl/src/extra/layouts/flex/../flex/lv_flex.h ****     LV_FLEX_FLOW_COLUMN_WRAP         = LV_FLEX_FLOW_COLUMN | _LV_FLEX_WRAP,
  53:Middlewares/lvgl/src/extra/layouts/flex/../flex/lv_flex.h ****     LV_FLEX_FLOW_COLUMN_REVERSE      = LV_FLEX_FLOW_COLUMN | _LV_FLEX_REVERSE,
  54:Middlewares/lvgl/src/extra/layouts/flex/../flex/lv_flex.h ****     LV_FLEX_FLOW_COLUMN_WRAP_REVERSE = LV_FLEX_FLOW_COLUMN | _LV_FLEX_WRAP | _LV_FLEX_REVERSE,
  55:Middlewares/lvgl/src/extra/layouts/flex/../flex/lv_flex.h **** }lv_flex_flow_t;
  56:Middlewares/lvgl/src/extra/layouts/flex/../flex/lv_flex.h **** 
  57:Middlewares/lvgl/src/extra/layouts/flex/../flex/lv_flex.h **** /**********************
  58:Middlewares/lvgl/src/extra/layouts/flex/../flex/lv_flex.h ****  * GLOBAL VARIABLES
  59:Middlewares/lvgl/src/extra/layouts/flex/../flex/lv_flex.h ****  **********************/
  60:Middlewares/lvgl/src/extra/layouts/flex/../flex/lv_flex.h **** extern uint32_t LV_LAYOUT_FLEX;
  61:Middlewares/lvgl/src/extra/layouts/flex/../flex/lv_flex.h **** extern lv_style_prop_t LV_STYLE_FLEX_FLOW;
  62:Middlewares/lvgl/src/extra/layouts/flex/../flex/lv_flex.h **** extern lv_style_prop_t LV_STYLE_FLEX_MAIN_PLACE;
  63:Middlewares/lvgl/src/extra/layouts/flex/../flex/lv_flex.h **** extern lv_style_prop_t LV_STYLE_FLEX_CROSS_PLACE;
  64:Middlewares/lvgl/src/extra/layouts/flex/../flex/lv_flex.h **** extern lv_style_prop_t LV_STYLE_FLEX_TRACK_PLACE;
  65:Middlewares/lvgl/src/extra/layouts/flex/../flex/lv_flex.h **** extern lv_style_prop_t LV_STYLE_FLEX_GROW;
  66:Middlewares/lvgl/src/extra/layouts/flex/../flex/lv_flex.h **** 
  67:Middlewares/lvgl/src/extra/layouts/flex/../flex/lv_flex.h **** /**********************
  68:Middlewares/lvgl/src/extra/layouts/flex/../flex/lv_flex.h ****  * GLOBAL PROTOTYPES
  69:Middlewares/lvgl/src/extra/layouts/flex/../flex/lv_flex.h ****  **********************/
  70:Middlewares/lvgl/src/extra/layouts/flex/../flex/lv_flex.h **** 
ARM GAS  /tmp/ccU94mph.s 			page 26


  71:Middlewares/lvgl/src/extra/layouts/flex/../flex/lv_flex.h **** /**
  72:Middlewares/lvgl/src/extra/layouts/flex/../flex/lv_flex.h ****  * Initialize a felx layout the default values
  73:Middlewares/lvgl/src/extra/layouts/flex/../flex/lv_flex.h ****  * @param flex pointer to a flex layout descriptor
  74:Middlewares/lvgl/src/extra/layouts/flex/../flex/lv_flex.h ****  */
  75:Middlewares/lvgl/src/extra/layouts/flex/../flex/lv_flex.h **** void lv_flex_init(void);
  76:Middlewares/lvgl/src/extra/layouts/flex/../flex/lv_flex.h **** 
  77:Middlewares/lvgl/src/extra/layouts/flex/../flex/lv_flex.h **** /**
  78:Middlewares/lvgl/src/extra/layouts/flex/../flex/lv_flex.h ****  * Set hot the item should flow
  79:Middlewares/lvgl/src/extra/layouts/flex/../flex/lv_flex.h ****  * @param flex pointer to a flex layout descriptor
  80:Middlewares/lvgl/src/extra/layouts/flex/../flex/lv_flex.h ****  * @param flow an element of `lv_flex_flow_t`.
  81:Middlewares/lvgl/src/extra/layouts/flex/../flex/lv_flex.h ****  */
  82:Middlewares/lvgl/src/extra/layouts/flex/../flex/lv_flex.h **** void lv_obj_set_flex_flow(lv_obj_t * obj, lv_flex_flow_t flow);
  83:Middlewares/lvgl/src/extra/layouts/flex/../flex/lv_flex.h **** 
  84:Middlewares/lvgl/src/extra/layouts/flex/../flex/lv_flex.h **** /**
  85:Middlewares/lvgl/src/extra/layouts/flex/../flex/lv_flex.h ****  * Set how to place (where to align) the items an tracks
  86:Middlewares/lvgl/src/extra/layouts/flex/../flex/lv_flex.h ****  * @param flex pointer: to a flex layout descriptor
  87:Middlewares/lvgl/src/extra/layouts/flex/../flex/lv_flex.h ****  * @param main_place where to place the items on main axis (in their track). Any value of `lv_flex_
  88:Middlewares/lvgl/src/extra/layouts/flex/../flex/lv_flex.h ****  * @param cross_place where to place the item in their track on the cross axis. `LV_FLEX_ALIGN_STAR
  89:Middlewares/lvgl/src/extra/layouts/flex/../flex/lv_flex.h ****  * @param track_place where to place the tracks in the cross direction. Any value of `lv_flex_align
  90:Middlewares/lvgl/src/extra/layouts/flex/../flex/lv_flex.h ****  */
  91:Middlewares/lvgl/src/extra/layouts/flex/../flex/lv_flex.h **** void lv_obj_set_flex_align(lv_obj_t * obj, lv_flex_align_t main_place, lv_flex_align_t cross_place,
  92:Middlewares/lvgl/src/extra/layouts/flex/../flex/lv_flex.h **** 
  93:Middlewares/lvgl/src/extra/layouts/flex/../flex/lv_flex.h **** /**
  94:Middlewares/lvgl/src/extra/layouts/flex/../flex/lv_flex.h ****  * Sets the width or height (on main axis) to grow the object in order fill the free space
  95:Middlewares/lvgl/src/extra/layouts/flex/../flex/lv_flex.h ****  * @param obj pointer to an object. The parent must have flex layout else nothing will happen.
  96:Middlewares/lvgl/src/extra/layouts/flex/../flex/lv_flex.h ****  * @param grow a value to set how much free space to take proportionally to other growing items.
  97:Middlewares/lvgl/src/extra/layouts/flex/../flex/lv_flex.h ****  */
  98:Middlewares/lvgl/src/extra/layouts/flex/../flex/lv_flex.h **** void lv_obj_set_flex_grow(lv_obj_t * obj, uint8_t grow);
  99:Middlewares/lvgl/src/extra/layouts/flex/../flex/lv_flex.h **** 
 100:Middlewares/lvgl/src/extra/layouts/flex/../flex/lv_flex.h **** void lv_style_set_flex_flow(lv_style_t * style, lv_flex_flow_t value);
 101:Middlewares/lvgl/src/extra/layouts/flex/../flex/lv_flex.h **** void lv_style_set_flex_main_place(lv_style_t * style, lv_flex_align_t value);
 102:Middlewares/lvgl/src/extra/layouts/flex/../flex/lv_flex.h **** void lv_style_set_flex_cross_place(lv_style_t * style, lv_flex_align_t value);
 103:Middlewares/lvgl/src/extra/layouts/flex/../flex/lv_flex.h **** void lv_style_set_flex_track_place(lv_style_t * style, lv_flex_align_t value);
 104:Middlewares/lvgl/src/extra/layouts/flex/../flex/lv_flex.h **** void lv_style_set_flex_grow(lv_style_t * style, uint8_t value);
 105:Middlewares/lvgl/src/extra/layouts/flex/../flex/lv_flex.h **** void lv_obj_set_style_flex_flow(lv_obj_t * obj, lv_flex_flow_t value, lv_style_selector_t selector)
 106:Middlewares/lvgl/src/extra/layouts/flex/../flex/lv_flex.h **** void lv_obj_set_style_flex_main_place(lv_obj_t * obj, lv_flex_align_t value, lv_style_selector_t se
 107:Middlewares/lvgl/src/extra/layouts/flex/../flex/lv_flex.h **** void lv_obj_set_style_flex_cross_place(lv_obj_t * obj, lv_flex_align_t value, lv_style_selector_t s
 108:Middlewares/lvgl/src/extra/layouts/flex/../flex/lv_flex.h **** void lv_obj_set_style_flex_track_place(lv_obj_t * obj, lv_flex_align_t value, lv_style_selector_t s
 109:Middlewares/lvgl/src/extra/layouts/flex/../flex/lv_flex.h **** void lv_obj_set_style_flex_grow(lv_obj_t * obj, uint8_t value, lv_style_selector_t selector);
 110:Middlewares/lvgl/src/extra/layouts/flex/../flex/lv_flex.h **** 
 111:Middlewares/lvgl/src/extra/layouts/flex/../flex/lv_flex.h **** static inline lv_flex_flow_t lv_obj_get_style_flex_flow(const lv_obj_t * obj, uint32_t part)
 112:Middlewares/lvgl/src/extra/layouts/flex/../flex/lv_flex.h **** {
 113:Middlewares/lvgl/src/extra/layouts/flex/../flex/lv_flex.h ****     lv_style_value_t v = lv_obj_get_style_prop(obj, part, LV_STYLE_FLEX_FLOW);
 114:Middlewares/lvgl/src/extra/layouts/flex/../flex/lv_flex.h ****     return (lv_flex_flow_t)v.num;
 115:Middlewares/lvgl/src/extra/layouts/flex/../flex/lv_flex.h **** }
 116:Middlewares/lvgl/src/extra/layouts/flex/../flex/lv_flex.h **** 
 117:Middlewares/lvgl/src/extra/layouts/flex/../flex/lv_flex.h **** static inline lv_flex_align_t lv_obj_get_style_flex_main_place(const lv_obj_t * obj, uint32_t part)
 118:Middlewares/lvgl/src/extra/layouts/flex/../flex/lv_flex.h **** {
 119:Middlewares/lvgl/src/extra/layouts/flex/../flex/lv_flex.h ****     lv_style_value_t v = lv_obj_get_style_prop(obj, part, LV_STYLE_FLEX_MAIN_PLACE);
 120:Middlewares/lvgl/src/extra/layouts/flex/../flex/lv_flex.h ****     return (lv_flex_align_t)v.num;
 121:Middlewares/lvgl/src/extra/layouts/flex/../flex/lv_flex.h **** }
 122:Middlewares/lvgl/src/extra/layouts/flex/../flex/lv_flex.h **** 
 123:Middlewares/lvgl/src/extra/layouts/flex/../flex/lv_flex.h **** static inline lv_flex_align_t lv_obj_get_style_flex_cross_place(const lv_obj_t * obj, uint32_t part
 124:Middlewares/lvgl/src/extra/layouts/flex/../flex/lv_flex.h **** {
 125:Middlewares/lvgl/src/extra/layouts/flex/../flex/lv_flex.h ****     lv_style_value_t v = lv_obj_get_style_prop(obj, part, LV_STYLE_FLEX_CROSS_PLACE);
 126:Middlewares/lvgl/src/extra/layouts/flex/../flex/lv_flex.h ****     return (lv_flex_align_t)v.num;
 127:Middlewares/lvgl/src/extra/layouts/flex/../flex/lv_flex.h **** }
ARM GAS  /tmp/ccU94mph.s 			page 27


 128:Middlewares/lvgl/src/extra/layouts/flex/../flex/lv_flex.h **** 
 129:Middlewares/lvgl/src/extra/layouts/flex/../flex/lv_flex.h **** static inline lv_flex_align_t lv_obj_get_style_flex_track_place(const lv_obj_t * obj, uint32_t part
 130:Middlewares/lvgl/src/extra/layouts/flex/../flex/lv_flex.h **** {
 131:Middlewares/lvgl/src/extra/layouts/flex/../flex/lv_flex.h ****     lv_style_value_t v = lv_obj_get_style_prop(obj, part, LV_STYLE_FLEX_TRACK_PLACE);
 132:Middlewares/lvgl/src/extra/layouts/flex/../flex/lv_flex.h ****     return (lv_flex_align_t)v.num;
 133:Middlewares/lvgl/src/extra/layouts/flex/../flex/lv_flex.h **** }
 134:Middlewares/lvgl/src/extra/layouts/flex/../flex/lv_flex.h **** 
 135:Middlewares/lvgl/src/extra/layouts/flex/../flex/lv_flex.h **** static inline uint8_t lv_obj_get_style_flex_grow(const lv_obj_t * obj, uint32_t part)
 536              		.loc 4 135 23 view .LVU155
 537              	.LBB70:
 136:Middlewares/lvgl/src/extra/layouts/flex/../flex/lv_flex.h **** {
 137:Middlewares/lvgl/src/extra/layouts/flex/../flex/lv_flex.h ****     lv_style_value_t v = lv_obj_get_style_prop(obj, part, LV_STYLE_FLEX_GROW);
 538              		.loc 4 137 5 view .LVU156
 539              		.loc 4 137 26 is_stmt 0 view .LVU157
 540 0092 774B     		ldr	r3, .L52+8
 541 0094 1A88     		ldrh	r2, [r3]
 542 0096 0021     		movs	r1, #0
 543 0098 2046     		mov	r0, r4
 544 009a FFF7FEFF 		bl	lv_obj_get_style_prop
 545              	.LVL57:
 546 009e 0746     		mov	r7, r0
 138:Middlewares/lvgl/src/extra/layouts/flex/../flex/lv_flex.h ****     return (uint8_t)v.num;
 547              		.loc 4 138 5 is_stmt 1 view .LVU158
 548              	.LVL58:
 549              		.loc 4 138 5 is_stmt 0 view .LVU159
 550              	.LBE70:
 551              	.LBE69:
 337:Middlewares/lvgl/src/extra/layouts/flex/lv_flex.c ****                 grow_sum += grow_value;
 552              		.loc 2 337 13 is_stmt 1 view .LVU160
 337:Middlewares/lvgl/src/extra/layouts/flex/lv_flex.c ****                 grow_sum += grow_value;
 553              		.loc 2 337 15 is_stmt 0 view .LVU161
 554 00a0 10F0FF0F 		tst	r0, #255
 555 00a4 70D0     		beq	.L30
 338:Middlewares/lvgl/src/extra/layouts/flex/lv_flex.c ****                 t->grow_item_cnt++;
 556              		.loc 2 338 17 is_stmt 1 view .LVU162
 339:Middlewares/lvgl/src/extra/layouts/flex/lv_flex.c ****                 t->track_fix_main_size += item_gap;
 557              		.loc 2 339 17 view .LVU163
 339:Middlewares/lvgl/src/extra/layouts/flex/lv_flex.c ****                 t->track_fix_main_size += item_gap;
 558              		.loc 2 339 18 is_stmt 0 view .LVU164
 559 00a6 2869     		ldr	r0, [r5, #16]
 560              	.LVL59:
 339:Middlewares/lvgl/src/extra/layouts/flex/lv_flex.c ****                 t->track_fix_main_size += item_gap;
 561              		.loc 2 339 33 view .LVU165
 562 00a8 0130     		adds	r0, r0, #1
 563 00aa 2861     		str	r0, [r5, #16]
 340:Middlewares/lvgl/src/extra/layouts/flex/lv_flex.c ****                 if(t->grow_dsc_calc) {
 564              		.loc 2 340 17 is_stmt 1 view .LVU166
 340:Middlewares/lvgl/src/extra/layouts/flex/lv_flex.c ****                 if(t->grow_dsc_calc) {
 565              		.loc 2 340 40 is_stmt 0 view .LVU167
 566 00ac AB88     		ldrh	r3, [r5, #4]
 567 00ae 5B44     		add	r3, r3, fp
 568 00b0 AB80     		strh	r3, [r5, #4]	@ movhi
 341:Middlewares/lvgl/src/extra/layouts/flex/lv_flex.c ****                     grow_dsc_t * new_dsc = lv_mem_buf_get(sizeof(grow_dsc_t) * (t->grow_item_cnt));
 569              		.loc 2 341 17 is_stmt 1 view .LVU168
 341:Middlewares/lvgl/src/extra/layouts/flex/lv_flex.c ****                     grow_dsc_t * new_dsc = lv_mem_buf_get(sizeof(grow_dsc_t) * (t->grow_item_cnt));
 570              		.loc 2 341 20 is_stmt 0 view .LVU169
 571 00b2 2B7D     		ldrb	r3, [r5, #20]	@ zero_extendqisi2
ARM GAS  /tmp/ccU94mph.s 			page 28


 341:Middlewares/lvgl/src/extra/layouts/flex/lv_flex.c ****                     grow_dsc_t * new_dsc = lv_mem_buf_get(sizeof(grow_dsc_t) * (t->grow_item_cnt));
 572              		.loc 2 341 19 view .LVU170
 573 00b4 13F0010F 		tst	r3, #1
 574 00b8 78D0     		beq	.L31
 575              	.LBB71:
 342:Middlewares/lvgl/src/extra/layouts/flex/lv_flex.c ****                     LV_ASSERT_MALLOC(new_dsc);
 576              		.loc 2 342 21 is_stmt 1 view .LVU171
 342:Middlewares/lvgl/src/extra/layouts/flex/lv_flex.c ****                     LV_ASSERT_MALLOC(new_dsc);
 577              		.loc 2 342 44 is_stmt 0 view .LVU172
 578 00ba 00EB8000 		add	r0, r0, r0, lsl #2
 579 00be 8000     		lsls	r0, r0, #2
 580 00c0 FFF7FEFF 		bl	lv_mem_buf_get
 581              	.LVL60:
 343:Middlewares/lvgl/src/extra/layouts/flex/lv_flex.c ****                     if(new_dsc == NULL) return item_id;
 582              		.loc 2 343 21 is_stmt 1 view .LVU173
 343:Middlewares/lvgl/src/extra/layouts/flex/lv_flex.c ****                     if(new_dsc == NULL) return item_id;
 583              		.loc 2 343 21 view .LVU174
 584 00c4 0190     		str	r0, [sp, #4]
 585 00c6 0028     		cmp	r0, #0
 586 00c8 4DD0     		beq	.L33
 343:Middlewares/lvgl/src/extra/layouts/flex/lv_flex.c ****                     if(new_dsc == NULL) return item_id;
 587              		.loc 2 343 21 view .LVU175
 343:Middlewares/lvgl/src/extra/layouts/flex/lv_flex.c ****                     if(new_dsc == NULL) return item_id;
 588              		.loc 2 343 46 view .LVU176
 344:Middlewares/lvgl/src/extra/layouts/flex/lv_flex.c **** 
 589              		.loc 2 344 21 view .LVU177
 346:Middlewares/lvgl/src/extra/layouts/flex/lv_flex.c ****                         lv_memcpy(new_dsc, t->grow_dsc, sizeof(grow_dsc_t) * (t->grow_item_cnt - 1)
 590              		.loc 2 346 21 view .LVU178
 346:Middlewares/lvgl/src/extra/layouts/flex/lv_flex.c ****                         lv_memcpy(new_dsc, t->grow_dsc, sizeof(grow_dsc_t) * (t->grow_item_cnt - 1)
 591              		.loc 2 346 25 is_stmt 0 view .LVU179
 592 00ca E968     		ldr	r1, [r5, #12]
 346:Middlewares/lvgl/src/extra/layouts/flex/lv_flex.c ****                         lv_memcpy(new_dsc, t->grow_dsc, sizeof(grow_dsc_t) * (t->grow_item_cnt - 1)
 593              		.loc 2 346 23 view .LVU180
 594 00cc 51B1     		cbz	r1, .L34
 347:Middlewares/lvgl/src/extra/layouts/flex/lv_flex.c ****                         lv_mem_buf_release(t->grow_dsc);
 595              		.loc 2 347 25 is_stmt 1 view .LVU181
 347:Middlewares/lvgl/src/extra/layouts/flex/lv_flex.c ****                         lv_mem_buf_release(t->grow_dsc);
 596              		.loc 2 347 80 is_stmt 0 view .LVU182
 597 00ce 2B69     		ldr	r3, [r5, #16]
 347:Middlewares/lvgl/src/extra/layouts/flex/lv_flex.c ****                         lv_mem_buf_release(t->grow_dsc);
 598              		.loc 2 347 25 view .LVU183
 599 00d0 03EB8303 		add	r3, r3, r3, lsl #2
 600 00d4 9A00     		lsls	r2, r3, #2
 601 00d6 143A     		subs	r2, r2, #20
 602 00d8 0198     		ldr	r0, [sp, #4]
 347:Middlewares/lvgl/src/extra/layouts/flex/lv_flex.c ****                         lv_mem_buf_release(t->grow_dsc);
 603              		.loc 2 347 25 view .LVU184
 604 00da FFF7FEFF 		bl	lv_memcpy
 605              	.LVL61:
 348:Middlewares/lvgl/src/extra/layouts/flex/lv_flex.c ****                     }
 606              		.loc 2 348 25 is_stmt 1 view .LVU185
 607 00de E868     		ldr	r0, [r5, #12]
 608 00e0 FFF7FEFF 		bl	lv_mem_buf_release
 609              	.LVL62:
 610              	.L34:
 350:Middlewares/lvgl/src/extra/layouts/flex/lv_flex.c ****                     new_dsc[t->grow_item_cnt - 1].min_size = f->row ? lv_obj_get_style_min_width(it
 611              		.loc 2 350 21 view .LVU186
ARM GAS  /tmp/ccU94mph.s 			page 29


 350:Middlewares/lvgl/src/extra/layouts/flex/lv_flex.c ****                     new_dsc[t->grow_item_cnt - 1].min_size = f->row ? lv_obj_get_style_min_width(it
 612              		.loc 2 350 30 is_stmt 0 view .LVU187
 613 00e4 2B69     		ldr	r3, [r5, #16]
 350:Middlewares/lvgl/src/extra/layouts/flex/lv_flex.c ****                     new_dsc[t->grow_item_cnt - 1].min_size = f->row ? lv_obj_get_style_min_width(it
 614              		.loc 2 350 28 view .LVU188
 615 00e6 03EB8303 		add	r3, r3, r3, lsl #2
 616 00ea 9B00     		lsls	r3, r3, #2
 617 00ec 143B     		subs	r3, r3, #20
 350:Middlewares/lvgl/src/extra/layouts/flex/lv_flex.c ****                     new_dsc[t->grow_item_cnt - 1].min_size = f->row ? lv_obj_get_style_min_width(it
 618              		.loc 2 350 56 view .LVU189
 619 00ee 019A     		ldr	r2, [sp, #4]
 620 00f0 D450     		str	r4, [r2, r3]
 351:Middlewares/lvgl/src/extra/layouts/flex/lv_flex.c ****                     new_dsc[t->grow_item_cnt - 1].max_size = f->row ? lv_obj_get_style_max_width(it
 621              		.loc 2 351 21 is_stmt 1 view .LVU190
 351:Middlewares/lvgl/src/extra/layouts/flex/lv_flex.c ****                     new_dsc[t->grow_item_cnt - 1].max_size = f->row ? lv_obj_get_style_max_width(it
 622              		.loc 2 351 69 is_stmt 0 view .LVU191
 623 00f2 F378     		ldrb	r3, [r6, #3]	@ zero_extendqisi2
 351:Middlewares/lvgl/src/extra/layouts/flex/lv_flex.c ****                     new_dsc[t->grow_item_cnt - 1].max_size = f->row ? lv_obj_get_style_max_width(it
 624              		.loc 2 351 60 view .LVU192
 625 00f4 13F0010F 		tst	r3, #1
 626 00f8 36D0     		beq	.L35
 627              	.LVL63:
 628              	.LBB72:
 629              	.LBI72:
   7:Middlewares/lvgl/src/extra/layouts/flex/../flex/../../../core/lv_obj_style_gen.h **** {
 630              		.loc 3 7 26 is_stmt 1 view .LVU193
 631              	.LBB73:
   9:Middlewares/lvgl/src/extra/layouts/flex/../flex/../../../core/lv_obj_style_gen.h ****     return (lv_coord_t)v.num;
 632              		.loc 3 9 5 view .LVU194
   9:Middlewares/lvgl/src/extra/layouts/flex/../flex/../../../core/lv_obj_style_gen.h ****     return (lv_coord_t)v.num;
 633              		.loc 3 9 26 is_stmt 0 view .LVU195
 634 00fa 41F20202 		movw	r2, #4098
 635 00fe 0021     		movs	r1, #0
 636 0100 2046     		mov	r0, r4
 637 0102 FFF7FEFF 		bl	lv_obj_get_style_prop
 638              	.LVL64:
  10:Middlewares/lvgl/src/extra/layouts/flex/../flex/../../../core/lv_obj_style_gen.h **** }
 639              		.loc 3 10 5 is_stmt 1 view .LVU196
  10:Middlewares/lvgl/src/extra/layouts/flex/../flex/../../../core/lv_obj_style_gen.h **** }
 640              		.loc 3 10 12 is_stmt 0 view .LVU197
 641 0106 00B2     		sxth	r0, r0
 642              	.LVL65:
 643              	.L36:
  10:Middlewares/lvgl/src/extra/layouts/flex/../flex/../../../core/lv_obj_style_gen.h **** }
 644              		.loc 3 10 12 view .LVU198
 645              	.LBE73:
 646              	.LBE72:
 351:Middlewares/lvgl/src/extra/layouts/flex/lv_flex.c ****                     new_dsc[t->grow_item_cnt - 1].max_size = f->row ? lv_obj_get_style_max_width(it
 647              		.loc 2 351 30 discriminator 4 view .LVU199
 648 0108 2B69     		ldr	r3, [r5, #16]
 351:Middlewares/lvgl/src/extra/layouts/flex/lv_flex.c ****                     new_dsc[t->grow_item_cnt - 1].max_size = f->row ? lv_obj_get_style_max_width(it
 649              		.loc 2 351 28 discriminator 4 view .LVU200
 650 010a 03EB8303 		add	r3, r3, r3, lsl #2
 651 010e 9B00     		lsls	r3, r3, #2
 652 0110 143B     		subs	r3, r3, #20
 653 0112 019A     		ldr	r2, [sp, #4]
 654 0114 1344     		add	r3, r3, r2
ARM GAS  /tmp/ccU94mph.s 			page 30


 351:Middlewares/lvgl/src/extra/layouts/flex/lv_flex.c ****                     new_dsc[t->grow_item_cnt - 1].max_size = f->row ? lv_obj_get_style_max_width(it
 655              		.loc 2 351 60 discriminator 4 view .LVU201
 656 0116 9880     		strh	r0, [r3, #4]	@ movhi
 352:Middlewares/lvgl/src/extra/layouts/flex/lv_flex.c ****                     new_dsc[t->grow_item_cnt - 1].grow_value = grow_value;
 657              		.loc 2 352 21 is_stmt 1 discriminator 4 view .LVU202
 352:Middlewares/lvgl/src/extra/layouts/flex/lv_flex.c ****                     new_dsc[t->grow_item_cnt - 1].grow_value = grow_value;
 658              		.loc 2 352 69 is_stmt 0 discriminator 4 view .LVU203
 659 0118 F378     		ldrb	r3, [r6, #3]	@ zero_extendqisi2
 352:Middlewares/lvgl/src/extra/layouts/flex/lv_flex.c ****                     new_dsc[t->grow_item_cnt - 1].grow_value = grow_value;
 660              		.loc 2 352 60 discriminator 4 view .LVU204
 661 011a 13F0010F 		tst	r3, #1
 662 011e 2BD0     		beq	.L37
 663              	.LVL66:
 664              	.LBB74:
 665              	.LBI74:
  13:Middlewares/lvgl/src/extra/layouts/flex/../flex/../../../core/lv_obj_style_gen.h **** {
 666              		.loc 3 13 26 is_stmt 1 view .LVU205
 667              	.LBB75:
  15:Middlewares/lvgl/src/extra/layouts/flex/../flex/../../../core/lv_obj_style_gen.h ****     return (lv_coord_t)v.num;
 668              		.loc 3 15 5 view .LVU206
  15:Middlewares/lvgl/src/extra/layouts/flex/../flex/../../../core/lv_obj_style_gen.h ****     return (lv_coord_t)v.num;
 669              		.loc 3 15 26 is_stmt 0 view .LVU207
 670 0120 41F20302 		movw	r2, #4099
 671 0124 0021     		movs	r1, #0
 672 0126 2046     		mov	r0, r4
 673 0128 FFF7FEFF 		bl	lv_obj_get_style_prop
 674              	.LVL67:
  16:Middlewares/lvgl/src/extra/layouts/flex/../flex/../../../core/lv_obj_style_gen.h **** }
 675              		.loc 3 16 5 is_stmt 1 view .LVU208
  16:Middlewares/lvgl/src/extra/layouts/flex/../flex/../../../core/lv_obj_style_gen.h **** }
 676              		.loc 3 16 12 is_stmt 0 view .LVU209
 677 012c 00B2     		sxth	r0, r0
 678              	.LVL68:
 679              	.L38:
  16:Middlewares/lvgl/src/extra/layouts/flex/../flex/../../../core/lv_obj_style_gen.h **** }
 680              		.loc 3 16 12 view .LVU210
 681              	.LBE75:
 682              	.LBE74:
 352:Middlewares/lvgl/src/extra/layouts/flex/lv_flex.c ****                     new_dsc[t->grow_item_cnt - 1].grow_value = grow_value;
 683              		.loc 2 352 30 discriminator 4 view .LVU211
 684 012e 2B69     		ldr	r3, [r5, #16]
 352:Middlewares/lvgl/src/extra/layouts/flex/lv_flex.c ****                     new_dsc[t->grow_item_cnt - 1].grow_value = grow_value;
 685              		.loc 2 352 28 discriminator 4 view .LVU212
 686 0130 03EB8303 		add	r3, r3, r3, lsl #2
 687 0134 9B00     		lsls	r3, r3, #2
 688 0136 143B     		subs	r3, r3, #20
 689 0138 0199     		ldr	r1, [sp, #4]
 690 013a 0B44     		add	r3, r3, r1
 352:Middlewares/lvgl/src/extra/layouts/flex/lv_flex.c ****                     new_dsc[t->grow_item_cnt - 1].grow_value = grow_value;
 691              		.loc 2 352 60 discriminator 4 view .LVU213
 692 013c D880     		strh	r0, [r3, #6]	@ movhi
 353:Middlewares/lvgl/src/extra/layouts/flex/lv_flex.c ****                     new_dsc[t->grow_item_cnt - 1].clamped = 0;
 693              		.loc 2 353 21 is_stmt 1 discriminator 4 view .LVU214
 353:Middlewares/lvgl/src/extra/layouts/flex/lv_flex.c ****                     new_dsc[t->grow_item_cnt - 1].clamped = 0;
 694              		.loc 2 353 30 is_stmt 0 discriminator 4 view .LVU215
 695 013e 2B69     		ldr	r3, [r5, #16]
 353:Middlewares/lvgl/src/extra/layouts/flex/lv_flex.c ****                     new_dsc[t->grow_item_cnt - 1].clamped = 0;
ARM GAS  /tmp/ccU94mph.s 			page 31


 696              		.loc 2 353 28 discriminator 4 view .LVU216
 697 0140 03EB8303 		add	r3, r3, r3, lsl #2
 698 0144 9B00     		lsls	r3, r3, #2
 699 0146 143B     		subs	r3, r3, #20
 700 0148 0B44     		add	r3, r3, r1
 353:Middlewares/lvgl/src/extra/layouts/flex/lv_flex.c ****                     new_dsc[t->grow_item_cnt - 1].clamped = 0;
 701              		.loc 2 353 62 discriminator 4 view .LVU217
 702 014a FFB2     		uxtb	r7, r7
 703 014c DF60     		str	r7, [r3, #12]
 354:Middlewares/lvgl/src/extra/layouts/flex/lv_flex.c ****                     t->grow_dsc = new_dsc;
 704              		.loc 2 354 21 is_stmt 1 discriminator 4 view .LVU218
 354:Middlewares/lvgl/src/extra/layouts/flex/lv_flex.c ****                     t->grow_dsc = new_dsc;
 705              		.loc 2 354 30 is_stmt 0 discriminator 4 view .LVU219
 706 014e 2B69     		ldr	r3, [r5, #16]
 354:Middlewares/lvgl/src/extra/layouts/flex/lv_flex.c ****                     t->grow_dsc = new_dsc;
 707              		.loc 2 354 28 discriminator 4 view .LVU220
 708 0150 03EB8303 		add	r3, r3, r3, lsl #2
 709 0154 9B00     		lsls	r3, r3, #2
 710 0156 143B     		subs	r3, r3, #20
 711 0158 0B44     		add	r3, r3, r1
 354:Middlewares/lvgl/src/extra/layouts/flex/lv_flex.c ****                     t->grow_dsc = new_dsc;
 712              		.loc 2 354 59 discriminator 4 view .LVU221
 713 015a 1A7C     		ldrb	r2, [r3, #16]	@ zero_extendqisi2
 714 015c 6FF30002 		bfc	r2, #0, #1
 715 0160 1A74     		strb	r2, [r3, #16]
 355:Middlewares/lvgl/src/extra/layouts/flex/lv_flex.c ****                 }
 716              		.loc 2 355 21 is_stmt 1 discriminator 4 view .LVU222
 355:Middlewares/lvgl/src/extra/layouts/flex/lv_flex.c ****                 }
 717              		.loc 2 355 33 is_stmt 0 discriminator 4 view .LVU223
 718 0162 E960     		str	r1, [r5, #12]
 719 0164 22E0     		b	.L31
 720              	.LVL69:
 721              	.L33:
 343:Middlewares/lvgl/src/extra/layouts/flex/lv_flex.c ****                     if(new_dsc == NULL) return item_id;
 722              		.loc 2 343 21 is_stmt 1 discriminator 1 view .LVU224
 343:Middlewares/lvgl/src/extra/layouts/flex/lv_flex.c ****                     if(new_dsc == NULL) return item_id;
 723              		.loc 2 343 21 discriminator 1 view .LVU225
 343:Middlewares/lvgl/src/extra/layouts/flex/lv_flex.c ****                     if(new_dsc == NULL) return item_id;
 724              		.loc 2 343 21 discriminator 1 view .LVU226
 343:Middlewares/lvgl/src/extra/layouts/flex/lv_flex.c ****                     if(new_dsc == NULL) return item_id;
 725              		.loc 2 343 21 discriminator 1 view .LVU227
 726 0166 FEE7     		b	.L33
 727              	.LVL70:
 728              	.L35:
 729              	.LBB76:
 730              	.LBI76:
  23:Middlewares/lvgl/src/extra/layouts/flex/../flex/../../../core/lv_obj_style_gen.h **** }
  24:Middlewares/lvgl/src/extra/layouts/flex/../flex/../../../core/lv_obj_style_gen.h **** 
  25:Middlewares/lvgl/src/extra/layouts/flex/../flex/../../../core/lv_obj_style_gen.h **** static inline lv_coord_t lv_obj_get_style_min_height(const struct _lv_obj_t * obj, uint32_t part)
 731              		.loc 3 25 26 view .LVU228
 732              	.LBB77:
  26:Middlewares/lvgl/src/extra/layouts/flex/../flex/../../../core/lv_obj_style_gen.h **** {
  27:Middlewares/lvgl/src/extra/layouts/flex/../flex/../../../core/lv_obj_style_gen.h ****     lv_style_value_t v = lv_obj_get_style_prop(obj, part, LV_STYLE_MIN_HEIGHT);
 733              		.loc 3 27 5 view .LVU229
 734              		.loc 3 27 26 is_stmt 0 view .LVU230
 735 0168 41F20502 		movw	r2, #4101
 736 016c 0021     		movs	r1, #0
ARM GAS  /tmp/ccU94mph.s 			page 32


 737 016e 2046     		mov	r0, r4
 738 0170 FFF7FEFF 		bl	lv_obj_get_style_prop
 739              	.LVL71:
  28:Middlewares/lvgl/src/extra/layouts/flex/../flex/../../../core/lv_obj_style_gen.h ****     return (lv_coord_t)v.num;
 740              		.loc 3 28 5 is_stmt 1 view .LVU231
 741              		.loc 3 28 12 is_stmt 0 view .LVU232
 742 0174 00B2     		sxth	r0, r0
 743              	.LVL72:
 744              		.loc 3 28 12 view .LVU233
 745 0176 C7E7     		b	.L36
 746              	.L37:
 747              	.LVL73:
 748              		.loc 3 28 12 view .LVU234
 749              	.LBE77:
 750              	.LBE76:
 751              	.LBB78:
 752              	.LBI78:
  29:Middlewares/lvgl/src/extra/layouts/flex/../flex/../../../core/lv_obj_style_gen.h **** }
  30:Middlewares/lvgl/src/extra/layouts/flex/../flex/../../../core/lv_obj_style_gen.h **** 
  31:Middlewares/lvgl/src/extra/layouts/flex/../flex/../../../core/lv_obj_style_gen.h **** static inline lv_coord_t lv_obj_get_style_max_height(const struct _lv_obj_t * obj, uint32_t part)
 753              		.loc 3 31 26 is_stmt 1 view .LVU235
 754              	.LBB79:
  32:Middlewares/lvgl/src/extra/layouts/flex/../flex/../../../core/lv_obj_style_gen.h **** {
  33:Middlewares/lvgl/src/extra/layouts/flex/../flex/../../../core/lv_obj_style_gen.h ****     lv_style_value_t v = lv_obj_get_style_prop(obj, part, LV_STYLE_MAX_HEIGHT);
 755              		.loc 3 33 5 view .LVU236
 756              		.loc 3 33 26 is_stmt 0 view .LVU237
 757 0178 41F20602 		movw	r2, #4102
 758 017c 0021     		movs	r1, #0
 759 017e 2046     		mov	r0, r4
 760 0180 FFF7FEFF 		bl	lv_obj_get_style_prop
 761              	.LVL74:
  34:Middlewares/lvgl/src/extra/layouts/flex/../flex/../../../core/lv_obj_style_gen.h ****     return (lv_coord_t)v.num;
 762              		.loc 3 34 5 is_stmt 1 view .LVU238
 763              		.loc 3 34 12 is_stmt 0 view .LVU239
 764 0184 00B2     		sxth	r0, r0
 765              	.LVL75:
 766              		.loc 3 34 12 view .LVU240
 767 0186 D2E7     		b	.L38
 768              	.LVL76:
 769              	.L30:
 770              		.loc 3 34 12 view .LVU241
 771              	.LBE79:
 772              	.LBE78:
 773              	.LBE71:
 774              	.LBB80:
 358:Middlewares/lvgl/src/extra/layouts/flex/lv_flex.c ****                 if(f->wrap && t->track_fix_main_size + item_size > max_main_size) break;
 775              		.loc 2 358 17 is_stmt 1 view .LVU242
 358:Middlewares/lvgl/src/extra/layouts/flex/lv_flex.c ****                 if(f->wrap && t->track_fix_main_size + item_size > max_main_size) break;
 776              		.loc 2 358 40 is_stmt 0 view .LVU243
 777 0188 2046     		mov	r0, r4
 778              	.LVL77:
 358:Middlewares/lvgl/src/extra/layouts/flex/lv_flex.c ****                 if(f->wrap && t->track_fix_main_size + item_size > max_main_size) break;
 779              		.loc 2 358 40 view .LVU244
 780 018a 039B     		ldr	r3, [sp, #12]
 781 018c 9847     		blx	r3
 782              	.LVL78:
 359:Middlewares/lvgl/src/extra/layouts/flex/lv_flex.c ****                 t->track_fix_main_size += item_size + item_gap;
ARM GAS  /tmp/ccU94mph.s 			page 33


 783              		.loc 2 359 17 is_stmt 1 view .LVU245
 359:Middlewares/lvgl/src/extra/layouts/flex/lv_flex.c ****                 t->track_fix_main_size += item_size + item_gap;
 784              		.loc 2 359 20 is_stmt 0 view .LVU246
 785 018e F378     		ldrb	r3, [r6, #3]	@ zero_extendqisi2
 359:Middlewares/lvgl/src/extra/layouts/flex/lv_flex.c ****                 t->track_fix_main_size += item_size + item_gap;
 786              		.loc 2 359 19 view .LVU247
 787 0190 13F0020F 		tst	r3, #2
 788 0194 05D0     		beq	.L39
 359:Middlewares/lvgl/src/extra/layouts/flex/lv_flex.c ****                 t->track_fix_main_size += item_size + item_gap;
 789              		.loc 2 359 32 discriminator 1 view .LVU248
 790 0196 B5F90430 		ldrsh	r3, [r5, #4]
 359:Middlewares/lvgl/src/extra/layouts/flex/lv_flex.c ****                 t->track_fix_main_size += item_size + item_gap;
 791              		.loc 2 359 54 discriminator 1 view .LVU249
 792 019a 0344     		add	r3, r3, r0
 359:Middlewares/lvgl/src/extra/layouts/flex/lv_flex.c ****                 t->track_fix_main_size += item_size + item_gap;
 793              		.loc 2 359 28 discriminator 1 view .LVU250
 794 019c 029A     		ldr	r2, [sp, #8]
 795 019e 9342     		cmp	r3, r2
 796 01a0 34DC     		bgt	.L28
 797              	.L39:
 360:Middlewares/lvgl/src/extra/layouts/flex/lv_flex.c ****             }
 798              		.loc 2 360 17 is_stmt 1 view .LVU251
 360:Middlewares/lvgl/src/extra/layouts/flex/lv_flex.c ****             }
 799              		.loc 2 360 53 is_stmt 0 view .LVU252
 800 01a2 5844     		add	r0, r0, fp
 801              	.LVL79:
 360:Middlewares/lvgl/src/extra/layouts/flex/lv_flex.c ****             }
 802              		.loc 2 360 40 view .LVU253
 803 01a4 AB88     		ldrh	r3, [r5, #4]
 804 01a6 13FA80F0 		uxtah	r0, r3, r0
 805 01aa A880     		strh	r0, [r5, #4]	@ movhi
 806              	.L31:
 360:Middlewares/lvgl/src/extra/layouts/flex/lv_flex.c ****             }
 807              		.loc 2 360 40 view .LVU254
 808              	.LBE80:
 364:Middlewares/lvgl/src/extra/layouts/flex/lv_flex.c ****             t->item_cnt++;
 809              		.loc 2 364 13 is_stmt 1 view .LVU255
 364:Middlewares/lvgl/src/extra/layouts/flex/lv_flex.c ****             t->item_cnt++;
 810              		.loc 2 364 35 is_stmt 0 view .LVU256
 811 01ac 2046     		mov	r0, r4
 812 01ae D047     		blx	r10
 813              	.LVL80:
 814 01b0 B5F90030 		ldrsh	r3, [r5]
 364:Middlewares/lvgl/src/extra/layouts/flex/lv_flex.c ****             t->item_cnt++;
 815              		.loc 2 364 33 view .LVU257
 816 01b4 9842     		cmp	r0, r3
 817 01b6 02DD     		ble	.L40
 364:Middlewares/lvgl/src/extra/layouts/flex/lv_flex.c ****             t->item_cnt++;
 818              		.loc 2 364 35 discriminator 1 view .LVU258
 819 01b8 2046     		mov	r0, r4
 820 01ba D047     		blx	r10
 821              	.LVL81:
 822 01bc 0346     		mov	r3, r0
 823              	.L40:
 364:Middlewares/lvgl/src/extra/layouts/flex/lv_flex.c ****             t->item_cnt++;
 824              		.loc 2 364 33 discriminator 4 view .LVU259
 825 01be 2B80     		strh	r3, [r5]	@ movhi
ARM GAS  /tmp/ccU94mph.s 			page 34


 365:Middlewares/lvgl/src/extra/layouts/flex/lv_flex.c ****         }
 826              		.loc 2 365 13 is_stmt 1 discriminator 4 view .LVU260
 365:Middlewares/lvgl/src/extra/layouts/flex/lv_flex.c ****         }
 827              		.loc 2 365 14 is_stmt 0 discriminator 4 view .LVU261
 828 01c0 AB68     		ldr	r3, [r5, #8]
 365:Middlewares/lvgl/src/extra/layouts/flex/lv_flex.c ****         }
 829              		.loc 2 365 24 discriminator 4 view .LVU262
 830 01c2 0133     		adds	r3, r3, #1
 831 01c4 AB60     		str	r3, [r5, #8]
 832 01c6 1AE0     		b	.L29
 833              	.L48:
 365:Middlewares/lvgl/src/extra/layouts/flex/lv_flex.c ****         }
 834              		.loc 2 365 24 discriminator 4 view .LVU263
 835              	.LBE68:
 368:Middlewares/lvgl/src/extra/layouts/flex/lv_flex.c ****         if(item_id < 0) break;
 836              		.loc 2 368 32 view .LVU264
 837 01c8 0121     		movs	r1, #1
 838              	.L41:
 368:Middlewares/lvgl/src/extra/layouts/flex/lv_flex.c ****         if(item_id < 0) break;
 839              		.loc 2 368 17 discriminator 4 view .LVU265
 840 01ca 059B     		ldr	r3, [sp, #20]
 841 01cc 1944     		add	r1, r1, r3
 842 01ce 0591     		str	r1, [sp, #20]
 369:Middlewares/lvgl/src/extra/layouts/flex/lv_flex.c ****         item = lv_obj_get_child(cont, item_id);
 843              		.loc 2 369 9 is_stmt 1 discriminator 4 view .LVU266
 369:Middlewares/lvgl/src/extra/layouts/flex/lv_flex.c ****         item = lv_obj_get_child(cont, item_id);
 844              		.loc 2 369 11 is_stmt 0 discriminator 4 view .LVU267
 845 01d0 0029     		cmp	r1, #0
 846 01d2 1BDB     		blt	.L28
 370:Middlewares/lvgl/src/extra/layouts/flex/lv_flex.c ****     }
 847              		.loc 2 370 9 is_stmt 1 view .LVU268
 370:Middlewares/lvgl/src/extra/layouts/flex/lv_flex.c ****     }
 848              		.loc 2 370 16 is_stmt 0 view .LVU269
 849 01d4 4846     		mov	r0, r9
 850 01d6 FFF7FEFF 		bl	lv_obj_get_child
 851              	.LVL82:
 852 01da 0446     		mov	r4, r0
 853              	.LVL83:
 854              	.L26:
 332:Middlewares/lvgl/src/extra/layouts/flex/lv_flex.c ****         if(item_id != item_start_id && lv_obj_has_flag(item, LV_OBJ_FLAG_FLEX_IN_NEW_TRACK)) break;
 855              		.loc 2 332 10 is_stmt 1 view .LVU270
 856 01dc B4B1     		cbz	r4, .L28
 333:Middlewares/lvgl/src/extra/layouts/flex/lv_flex.c **** 
 857              		.loc 2 333 9 view .LVU271
 333:Middlewares/lvgl/src/extra/layouts/flex/lv_flex.c **** 
 858              		.loc 2 333 20 is_stmt 0 view .LVU272
 859 01de 059B     		ldr	r3, [sp, #20]
 333:Middlewares/lvgl/src/extra/layouts/flex/lv_flex.c **** 
 860              		.loc 2 333 11 view .LVU273
 861 01e0 4345     		cmp	r3, r8
 862 01e2 05D0     		beq	.L27
 333:Middlewares/lvgl/src/extra/layouts/flex/lv_flex.c **** 
 863              		.loc 2 333 40 discriminator 1 view .LVU274
 864 01e4 4FF40001 		mov	r1, #8388608
 865 01e8 2046     		mov	r0, r4
 333:Middlewares/lvgl/src/extra/layouts/flex/lv_flex.c **** 
 866              		.loc 2 333 40 discriminator 1 view .LVU275
ARM GAS  /tmp/ccU94mph.s 			page 35


 867 01ea FFF7FEFF 		bl	lv_obj_has_flag
 868              	.LVL84:
 333:Middlewares/lvgl/src/extra/layouts/flex/lv_flex.c **** 
 869              		.loc 2 333 37 discriminator 1 view .LVU276
 870 01ee 68B9     		cbnz	r0, .L28
 871              	.L27:
 335:Middlewares/lvgl/src/extra/layouts/flex/lv_flex.c ****             uint8_t grow_value = lv_obj_get_style_flex_grow(item, LV_PART_MAIN);
 872              		.loc 2 335 9 is_stmt 1 view .LVU277
 335:Middlewares/lvgl/src/extra/layouts/flex/lv_flex.c ****             uint8_t grow_value = lv_obj_get_style_flex_grow(item, LV_PART_MAIN);
 873              		.loc 2 335 13 is_stmt 0 view .LVU278
 874 01f0 2049     		ldr	r1, .L52+12
 875 01f2 2046     		mov	r0, r4
 876 01f4 FFF7FEFF 		bl	lv_obj_has_flag_any
 877              	.LVL85:
 335:Middlewares/lvgl/src/extra/layouts/flex/lv_flex.c ****             uint8_t grow_value = lv_obj_get_style_flex_grow(item, LV_PART_MAIN);
 878              		.loc 2 335 11 view .LVU279
 879 01f8 0028     		cmp	r0, #0
 880 01fa 3FF44AAF 		beq	.L50
 881              	.L29:
 368:Middlewares/lvgl/src/extra/layouts/flex/lv_flex.c ****         if(item_id < 0) break;
 882              		.loc 2 368 9 is_stmt 1 view .LVU280
 368:Middlewares/lvgl/src/extra/layouts/flex/lv_flex.c ****         if(item_id < 0) break;
 883              		.loc 2 368 27 is_stmt 0 view .LVU281
 884 01fe F378     		ldrb	r3, [r6, #3]	@ zero_extendqisi2
 368:Middlewares/lvgl/src/extra/layouts/flex/lv_flex.c ****         if(item_id < 0) break;
 885              		.loc 2 368 32 view .LVU282
 886 0200 13F0040F 		tst	r3, #4
 887 0204 E0D0     		beq	.L48
 888 0206 4FF0FF31 		mov	r1, #-1
 889 020a DEE7     		b	.L41
 890              	.L28:
 373:Middlewares/lvgl/src/extra/layouts/flex/lv_flex.c **** 
 891              		.loc 2 373 5 is_stmt 1 view .LVU283
 373:Middlewares/lvgl/src/extra/layouts/flex/lv_flex.c **** 
 892              		.loc 2 373 9 is_stmt 0 view .LVU284
 893 020c B5F90430 		ldrsh	r3, [r5, #4]
 373:Middlewares/lvgl/src/extra/layouts/flex/lv_flex.c **** 
 894              		.loc 2 373 7 view .LVU285
 895 0210 002B     		cmp	r3, #0
 896 0212 02DD     		ble	.L43
 373:Middlewares/lvgl/src/extra/layouts/flex/lv_flex.c **** 
 897              		.loc 2 373 36 is_stmt 1 discriminator 1 view .LVU286
 373:Middlewares/lvgl/src/extra/layouts/flex/lv_flex.c **** 
 898              		.loc 2 373 59 is_stmt 0 discriminator 1 view .LVU287
 899 0214 A3EB0B03 		sub	r3, r3, fp
 900 0218 AB80     		strh	r3, [r5, #4]	@ movhi
 901              	.L43:
 376:Middlewares/lvgl/src/extra/layouts/flex/lv_flex.c **** 
 902              		.loc 2 376 5 is_stmt 1 view .LVU288
 376:Middlewares/lvgl/src/extra/layouts/flex/lv_flex.c **** 
 903              		.loc 2 376 27 is_stmt 0 view .LVU289
 904 021a 2B69     		ldr	r3, [r5, #16]
 376:Middlewares/lvgl/src/extra/layouts/flex/lv_flex.c **** 
 905              		.loc 2 376 24 view .LVU290
 906 021c 13B9     		cbnz	r3, .L44
 376:Middlewares/lvgl/src/extra/layouts/flex/lv_flex.c **** 
 907              		.loc 2 376 24 discriminator 1 view .LVU291
ARM GAS  /tmp/ccU94mph.s 			page 36


 908 021e B5F90430 		ldrsh	r3, [r5, #4]
 909 0222 0293     		str	r3, [sp, #8]
 910              	.L44:
 376:Middlewares/lvgl/src/extra/layouts/flex/lv_flex.c **** 
 911              		.loc 2 376 24 discriminator 4 view .LVU292
 912 0224 029B     		ldr	r3, [sp, #8]
 913 0226 6B80     		strh	r3, [r5, #2]	@ movhi
 379:Middlewares/lvgl/src/extra/layouts/flex/lv_flex.c ****         item = cont->spec_attr->children[item_id];
 914              		.loc 2 379 5 is_stmt 1 discriminator 4 view .LVU293
 379:Middlewares/lvgl/src/extra/layouts/flex/lv_flex.c ****         item = cont->spec_attr->children[item_id];
 915              		.loc 2 379 7 is_stmt 0 discriminator 4 view .LVU294
 916 0228 14B1     		cbz	r4, .L45
 379:Middlewares/lvgl/src/extra/layouts/flex/lv_flex.c ****         item = cont->spec_attr->children[item_id];
 917              		.loc 2 379 24 discriminator 1 view .LVU295
 918 022a 059B     		ldr	r3, [sp, #20]
 379:Middlewares/lvgl/src/extra/layouts/flex/lv_flex.c ****         item = cont->spec_attr->children[item_id];
 919              		.loc 2 379 13 discriminator 1 view .LVU296
 920 022c 4345     		cmp	r3, r8
 921 022e 03D0     		beq	.L51
 922              	.L45:
 389:Middlewares/lvgl/src/extra/layouts/flex/lv_flex.c **** }
 923              		.loc 2 389 5 is_stmt 1 view .LVU297
 390:Middlewares/lvgl/src/extra/layouts/flex/lv_flex.c **** 
 924              		.loc 2 390 1 is_stmt 0 view .LVU298
 925 0230 0598     		ldr	r0, [sp, #20]
 926 0232 07B0     		add	sp, sp, #28
 927              	.LCFI5:
 928              		.cfi_remember_state
 929              		.cfi_def_cfa_offset 36
 930              		@ sp needed
 931 0234 BDE8F08F 		pop	{r4, r5, r6, r7, r8, r9, r10, fp, pc}
 932              	.LVL86:
 933              	.L51:
 934              	.LCFI6:
 935              		.cfi_restore_state
 380:Middlewares/lvgl/src/extra/layouts/flex/lv_flex.c ****         get_next_item(cont, f->rev, &item_id);
 936              		.loc 2 380 9 is_stmt 1 view .LVU299
 380:Middlewares/lvgl/src/extra/layouts/flex/lv_flex.c ****         get_next_item(cont, f->rev, &item_id);
 937              		.loc 2 380 20 is_stmt 0 view .LVU300
 938 0238 D9F80820 		ldr	r2, [r9, #8]
 380:Middlewares/lvgl/src/extra/layouts/flex/lv_flex.c ****         get_next_item(cont, f->rev, &item_id);
 939              		.loc 2 380 31 view .LVU301
 940 023c 1268     		ldr	r2, [r2]
 380:Middlewares/lvgl/src/extra/layouts/flex/lv_flex.c ****         get_next_item(cont, f->rev, &item_id);
 941              		.loc 2 380 14 view .LVU302
 942 023e 52F82340 		ldr	r4, [r2, r3, lsl #2]
 943              	.LVL87:
 381:Middlewares/lvgl/src/extra/layouts/flex/lv_flex.c ****         if(item) {
 944              		.loc 2 381 9 is_stmt 1 view .LVU303
 381:Middlewares/lvgl/src/extra/layouts/flex/lv_flex.c ****         if(item) {
 945              		.loc 2 381 30 is_stmt 0 view .LVU304
 946 0242 F178     		ldrb	r1, [r6, #3]	@ zero_extendqisi2
 381:Middlewares/lvgl/src/extra/layouts/flex/lv_flex.c ****         if(item) {
 947              		.loc 2 381 9 view .LVU305
 948 0244 05AA     		add	r2, sp, #20
 949 0246 C1F38001 		ubfx	r1, r1, #2, #1
 950 024a 4846     		mov	r0, r9
ARM GAS  /tmp/ccU94mph.s 			page 37


 951 024c FFF7FEFF 		bl	get_next_item
 952              	.LVL88:
 382:Middlewares/lvgl/src/extra/layouts/flex/lv_flex.c ****             t->track_cross_size = get_cross_size(item);
 953              		.loc 2 382 9 is_stmt 1 view .LVU306
 382:Middlewares/lvgl/src/extra/layouts/flex/lv_flex.c ****             t->track_cross_size = get_cross_size(item);
 954              		.loc 2 382 11 is_stmt 0 view .LVU307
 955 0250 002C     		cmp	r4, #0
 956 0252 EDD0     		beq	.L45
 383:Middlewares/lvgl/src/extra/layouts/flex/lv_flex.c ****             t->track_main_size = get_main_size(item);
 957              		.loc 2 383 13 is_stmt 1 view .LVU308
 383:Middlewares/lvgl/src/extra/layouts/flex/lv_flex.c ****             t->track_main_size = get_main_size(item);
 958              		.loc 2 383 35 is_stmt 0 view .LVU309
 959 0254 2046     		mov	r0, r4
 960 0256 D047     		blx	r10
 961              	.LVL89:
 383:Middlewares/lvgl/src/extra/layouts/flex/lv_flex.c ****             t->track_main_size = get_main_size(item);
 962              		.loc 2 383 33 view .LVU310
 963 0258 2880     		strh	r0, [r5]	@ movhi
 384:Middlewares/lvgl/src/extra/layouts/flex/lv_flex.c ****             t->item_cnt = 1;
 964              		.loc 2 384 13 is_stmt 1 view .LVU311
 384:Middlewares/lvgl/src/extra/layouts/flex/lv_flex.c ****             t->item_cnt = 1;
 965              		.loc 2 384 34 is_stmt 0 view .LVU312
 966 025a 2046     		mov	r0, r4
 967 025c 039B     		ldr	r3, [sp, #12]
 968 025e 9847     		blx	r3
 969              	.LVL90:
 384:Middlewares/lvgl/src/extra/layouts/flex/lv_flex.c ****             t->item_cnt = 1;
 970              		.loc 2 384 32 view .LVU313
 971 0260 6880     		strh	r0, [r5, #2]	@ movhi
 385:Middlewares/lvgl/src/extra/layouts/flex/lv_flex.c ****         }
 972              		.loc 2 385 13 is_stmt 1 view .LVU314
 385:Middlewares/lvgl/src/extra/layouts/flex/lv_flex.c ****         }
 973              		.loc 2 385 25 is_stmt 0 view .LVU315
 974 0262 0123     		movs	r3, #1
 975 0264 AB60     		str	r3, [r5, #8]
 976 0266 E3E7     		b	.L45
 977              	.L53:
 978              		.align	2
 979              	.L52:
 980 0268 00000000 		.word	lv_obj_get_width
 981 026c 00000000 		.word	lv_obj_get_height
 982 0270 00000000 		.word	.LANCHOR0
 983 0274 01800100 		.word	98305
 984              		.cfi_endproc
 985              	.LFE178:
 987              		.section	.text.children_repos,"ax",%progbits
 988              		.align	1
 989              		.syntax unified
 990              		.thumb
 991              		.thumb_func
 992              		.fpu fpv4-sp-d16
 994              	children_repos:
 995              	.LVL91:
 996              	.LFB179:
 396:Middlewares/lvgl/src/extra/layouts/flex/lv_flex.c ****     void (*area_set_main_size)(lv_area_t *, lv_coord_t) = (f->row ? lv_area_set_width : lv_area_set
 997              		.loc 2 396 1 is_stmt 1 view -0
 998              		.cfi_startproc
ARM GAS  /tmp/ccU94mph.s 			page 38


 999              		@ args = 20, pretend = 0, frame = 64
 1000              		@ frame_needed = 0, uses_anonymous_args = 0
 396:Middlewares/lvgl/src/extra/layouts/flex/lv_flex.c ****     void (*area_set_main_size)(lv_area_t *, lv_coord_t) = (f->row ? lv_area_set_width : lv_area_set
 1001              		.loc 2 396 1 is_stmt 0 view .LVU317
 1002 0000 2DE9F04F 		push	{r4, r5, r6, r7, r8, r9, r10, fp, lr}
 1003              	.LCFI7:
 1004              		.cfi_def_cfa_offset 36
 1005              		.cfi_offset 4, -36
 1006              		.cfi_offset 5, -32
 1007              		.cfi_offset 6, -28
 1008              		.cfi_offset 7, -24
 1009              		.cfi_offset 8, -20
 1010              		.cfi_offset 9, -16
 1011              		.cfi_offset 10, -12
 1012              		.cfi_offset 11, -8
 1013              		.cfi_offset 14, -4
 1014 0004 93B0     		sub	sp, sp, #76
 1015              	.LCFI8:
 1016              		.cfi_def_cfa_offset 112
 1017 0006 0490     		str	r0, [sp, #16]
 1018 0008 8946     		mov	r9, r1
 1019 000a 0D92     		str	r2, [sp, #52]
 1020 000c 0593     		str	r3, [sp, #20]
 1021 000e BDF97030 		ldrsh	r3, [sp, #112]
 1022              	.LVL92:
 396:Middlewares/lvgl/src/extra/layouts/flex/lv_flex.c ****     void (*area_set_main_size)(lv_area_t *, lv_coord_t) = (f->row ? lv_area_set_width : lv_area_set
 1023              		.loc 2 396 1 view .LVU318
 1024 0012 0893     		str	r3, [sp, #32]
 1025 0014 BDF97430 		ldrsh	r3, [sp, #116]
 1026 0018 0993     		str	r3, [sp, #36]
 1027 001a BDF97C30 		ldrsh	r3, [sp, #124]
 1028 001e 0A93     		str	r3, [sp, #40]
 1029 0020 209C     		ldr	r4, [sp, #128]
 397:Middlewares/lvgl/src/extra/layouts/flex/lv_flex.c ****     lv_coord_t (*area_get_main_size)(const lv_area_t *) = (f->row ? lv_area_get_width : lv_area_get
 1030              		.loc 2 397 5 is_stmt 1 view .LVU319
 397:Middlewares/lvgl/src/extra/layouts/flex/lv_flex.c ****     lv_coord_t (*area_get_main_size)(const lv_area_t *) = (f->row ? lv_area_get_width : lv_area_get
 1031              		.loc 2 397 67 is_stmt 0 view .LVU320
 1032 0022 CB78     		ldrb	r3, [r1, #3]	@ zero_extendqisi2
 397:Middlewares/lvgl/src/extra/layouts/flex/lv_flex.c ****     lv_coord_t (*area_get_main_size)(const lv_area_t *) = (f->row ? lv_area_get_width : lv_area_get
 1033              		.loc 2 397 87 view .LVU321
 1034 0024 13F00103 		ands	r3, r3, #1
 1035 0028 0AD0     		beq	.L100
 1036 002a 814A     		ldr	r2, .L119
 1037              	.LVL93:
 397:Middlewares/lvgl/src/extra/layouts/flex/lv_flex.c ****     lv_coord_t (*area_get_main_size)(const lv_area_t *) = (f->row ? lv_area_get_width : lv_area_get
 1038              		.loc 2 397 87 view .LVU322
 1039 002c 0C92     		str	r2, [sp, #48]
 1040              	.L55:
 1041              	.LVL94:
 398:Middlewares/lvgl/src/extra/layouts/flex/lv_flex.c ****     lv_coord_t (*area_get_cross_size)(const lv_area_t *) = (!f->row ? lv_area_get_width : lv_area_g
 1042              		.loc 2 398 5 is_stmt 1 discriminator 4 view .LVU323
 398:Middlewares/lvgl/src/extra/layouts/flex/lv_flex.c ****     lv_coord_t (*area_get_cross_size)(const lv_area_t *) = (!f->row ? lv_area_get_width : lv_area_g
 1043              		.loc 2 398 87 is_stmt 0 discriminator 4 view .LVU324
 1044 002e 53B1     		cbz	r3, .L101
 398:Middlewares/lvgl/src/extra/layouts/flex/lv_flex.c ****     lv_coord_t (*area_get_cross_size)(const lv_area_t *) = (!f->row ? lv_area_get_width : lv_area_g
 1045              		.loc 2 398 87 view .LVU325
 1046 0030 804A     		ldr	r2, .L119+4
ARM GAS  /tmp/ccU94mph.s 			page 39


 1047 0032 0692     		str	r2, [sp, #24]
 1048              	.L56:
 1049              	.LVL95:
 399:Middlewares/lvgl/src/extra/layouts/flex/lv_flex.c **** 
 1050              		.loc 2 399 5 is_stmt 1 discriminator 4 view .LVU326
 399:Middlewares/lvgl/src/extra/layouts/flex/lv_flex.c **** 
 1051              		.loc 2 399 89 is_stmt 0 discriminator 4 view .LVU327
 1052 0034 53B9     		cbnz	r3, .L102
 399:Middlewares/lvgl/src/extra/layouts/flex/lv_flex.c **** 
 1053              		.loc 2 399 89 view .LVU328
 1054 0036 7F4B     		ldr	r3, .L119+4
 1055 0038 0B93     		str	r3, [sp, #44]
 1056              	.L57:
 1057              	.LVL96:
 402:Middlewares/lvgl/src/extra/layouts/flex/lv_flex.c ****     bool grow_reiterate  = true;
 1058              		.loc 2 402 5 is_stmt 1 discriminator 4 view .LVU329
 403:Middlewares/lvgl/src/extra/layouts/flex/lv_flex.c ****     while(grow_reiterate) {
 1059              		.loc 2 403 5 discriminator 4 view .LVU330
 404:Middlewares/lvgl/src/extra/layouts/flex/lv_flex.c ****         grow_reiterate = false;
 1060              		.loc 2 404 5 discriminator 4 view .LVU331
 403:Middlewares/lvgl/src/extra/layouts/flex/lv_flex.c ****     while(grow_reiterate) {
 1061              		.loc 2 403 10 is_stmt 0 discriminator 4 view .LVU332
 1062 003a 4FF0010C 		mov	ip, #1
 404:Middlewares/lvgl/src/extra/layouts/flex/lv_flex.c ****         grow_reiterate = false;
 1063              		.loc 2 404 10 discriminator 4 view .LVU333
 1064 003e 52E0     		b	.L58
 1065              	.LVL97:
 1066              	.L100:
 397:Middlewares/lvgl/src/extra/layouts/flex/lv_flex.c ****     lv_coord_t (*area_get_main_size)(const lv_area_t *) = (f->row ? lv_area_get_width : lv_area_get
 1067              		.loc 2 397 87 view .LVU334
 1068 0040 7D4A     		ldr	r2, .L119+8
 1069              	.LVL98:
 397:Middlewares/lvgl/src/extra/layouts/flex/lv_flex.c ****     lv_coord_t (*area_get_main_size)(const lv_area_t *) = (f->row ? lv_area_get_width : lv_area_get
 1070              		.loc 2 397 87 view .LVU335
 1071 0042 0C92     		str	r2, [sp, #48]
 1072 0044 F3E7     		b	.L55
 1073              	.LVL99:
 1074              	.L101:
 398:Middlewares/lvgl/src/extra/layouts/flex/lv_flex.c ****     lv_coord_t (*area_get_cross_size)(const lv_area_t *) = (!f->row ? lv_area_get_width : lv_area_g
 1075              		.loc 2 398 87 view .LVU336
 1076 0046 7D4A     		ldr	r2, .L119+12
 1077 0048 0692     		str	r2, [sp, #24]
 1078 004a F3E7     		b	.L56
 1079              	.LVL100:
 1080              	.L102:
 399:Middlewares/lvgl/src/extra/layouts/flex/lv_flex.c **** 
 1081              		.loc 2 399 89 view .LVU337
 1082 004c 7B4B     		ldr	r3, .L119+12
 1083 004e 0B93     		str	r3, [sp, #44]
 1084 0050 F3E7     		b	.L57
 1085              	.LVL101:
 1086              	.L60:
 1087              	.LBB81:
 412:Middlewares/lvgl/src/extra/layouts/flex/lv_flex.c ****             }
 1088              		.loc 2 412 17 is_stmt 1 view .LVU338
 412:Middlewares/lvgl/src/extra/layouts/flex/lv_flex.c ****             }
 1089              		.loc 2 412 48 is_stmt 0 view .LVU339
ARM GAS  /tmp/ccU94mph.s 			page 40


 1090 0052 0089     		ldrh	r0, [r0, #8]
 412:Middlewares/lvgl/src/extra/layouts/flex/lv_flex.c ****             }
 1091              		.loc 2 412 31 view .LVU340
 1092 0054 121A     		subs	r2, r2, r0
 1093              	.LVL102:
 412:Middlewares/lvgl/src/extra/layouts/flex/lv_flex.c ****             }
 1094              		.loc 2 412 31 view .LVU341
 1095 0056 12B2     		sxth	r2, r2
 1096              	.LVL103:
 1097              	.L61:
 408:Middlewares/lvgl/src/extra/layouts/flex/lv_flex.c ****             if(t->grow_dsc[i].clamped == 0) {
 1098              		.loc 2 408 42 is_stmt 1 discriminator 2 view .LVU342
 408:Middlewares/lvgl/src/extra/layouts/flex/lv_flex.c ****             if(t->grow_dsc[i].clamped == 0) {
 1099              		.loc 2 408 43 is_stmt 0 discriminator 2 view .LVU343
 1100 0058 0133     		adds	r3, r3, #1
 1101              	.LVL104:
 1102              	.L59:
 408:Middlewares/lvgl/src/extra/layouts/flex/lv_flex.c ****             if(t->grow_dsc[i].clamped == 0) {
 1103              		.loc 2 408 20 is_stmt 1 discriminator 1 view .LVU344
 408:Middlewares/lvgl/src/extra/layouts/flex/lv_flex.c ****             if(t->grow_dsc[i].clamped == 0) {
 1104              		.loc 2 408 25 is_stmt 0 discriminator 1 view .LVU345
 1105 005a 2069     		ldr	r0, [r4, #16]
 408:Middlewares/lvgl/src/extra/layouts/flex/lv_flex.c ****             if(t->grow_dsc[i].clamped == 0) {
 1106              		.loc 2 408 9 discriminator 1 view .LVU346
 1107 005c 9842     		cmp	r0, r3
 1108 005e 0CD9     		bls	.L107
 409:Middlewares/lvgl/src/extra/layouts/flex/lv_flex.c ****                 grow_value_sum += t->grow_dsc[i].grow_value;
 1109              		.loc 2 409 13 is_stmt 1 view .LVU347
 409:Middlewares/lvgl/src/extra/layouts/flex/lv_flex.c ****                 grow_value_sum += t->grow_dsc[i].grow_value;
 1110              		.loc 2 409 17 is_stmt 0 view .LVU348
 1111 0060 E068     		ldr	r0, [r4, #12]
 409:Middlewares/lvgl/src/extra/layouts/flex/lv_flex.c ****                 grow_value_sum += t->grow_dsc[i].grow_value;
 1112              		.loc 2 409 27 view .LVU349
 1113 0062 03EB8305 		add	r5, r3, r3, lsl #2
 1114 0066 00EB8500 		add	r0, r0, r5, lsl #2
 409:Middlewares/lvgl/src/extra/layouts/flex/lv_flex.c ****                 grow_value_sum += t->grow_dsc[i].grow_value;
 1115              		.loc 2 409 39 view .LVU350
 1116 006a 057C     		ldrb	r5, [r0, #16]	@ zero_extendqisi2
 409:Middlewares/lvgl/src/extra/layouts/flex/lv_flex.c ****                 grow_value_sum += t->grow_dsc[i].grow_value;
 1117              		.loc 2 409 15 view .LVU351
 1118 006c 15F0010F 		tst	r5, #1
 1119 0070 EFD1     		bne	.L60
 410:Middlewares/lvgl/src/extra/layouts/flex/lv_flex.c ****             } else {
 1120              		.loc 2 410 17 is_stmt 1 view .LVU352
 410:Middlewares/lvgl/src/extra/layouts/flex/lv_flex.c ****             } else {
 1121              		.loc 2 410 49 is_stmt 0 view .LVU353
 1122 0072 C068     		ldr	r0, [r0, #12]
 410:Middlewares/lvgl/src/extra/layouts/flex/lv_flex.c ****             } else {
 1123              		.loc 2 410 32 view .LVU354
 1124 0074 0144     		add	r1, r1, r0
 1125              	.LVL105:
 410:Middlewares/lvgl/src/extra/layouts/flex/lv_flex.c ****             } else {
 1126              		.loc 2 410 32 view .LVU355
 1127 0076 09B2     		sxth	r1, r1
 1128              	.LVL106:
 410:Middlewares/lvgl/src/extra/layouts/flex/lv_flex.c ****             } else {
 1129              		.loc 2 410 32 view .LVU356
ARM GAS  /tmp/ccU94mph.s 			page 41


 1130 0078 EEE7     		b	.L61
 1131              	.L107:
 405:Middlewares/lvgl/src/extra/layouts/flex/lv_flex.c ****         lv_coord_t grow_value_sum = 0;
 1132              		.loc 2 405 24 view .LVU357
 1133 007a 4FF0000E 		mov	lr, #0
 417:Middlewares/lvgl/src/extra/layouts/flex/lv_flex.c ****             if(t->grow_dsc[i].clamped == 0) {
 1134              		.loc 2 417 15 view .LVU358
 1135 007e 7046     		mov	r0, lr
 1136 0080 10E0     		b	.L63
 1137              	.LVL107:
 1138              	.L109:
 1139              	.LBB82:
 424:Middlewares/lvgl/src/extra/layouts/flex/lv_flex.c ****                     grow_reiterate = true;
 1140              		.loc 2 424 21 is_stmt 1 view .LVU359
 424:Middlewares/lvgl/src/extra/layouts/flex/lv_flex.c ****                     grow_reiterate = true;
 1141              		.loc 2 424 44 is_stmt 0 view .LVU360
 1142 0082 1D7C     		ldrb	r5, [r3, #16]	@ zero_extendqisi2
 1143              	.LVL108:
 424:Middlewares/lvgl/src/extra/layouts/flex/lv_flex.c ****                     grow_reiterate = true;
 1144              		.loc 2 424 44 view .LVU361
 1145 0084 45F00105 		orr	r5, r5, #1
 1146 0088 1D74     		strb	r5, [r3, #16]
 1147              	.LVL109:
 425:Middlewares/lvgl/src/extra/layouts/flex/lv_flex.c ****                 }
 1148              		.loc 2 425 21 is_stmt 1 view .LVU362
 425:Middlewares/lvgl/src/extra/layouts/flex/lv_flex.c ****                 }
 1149              		.loc 2 425 36 is_stmt 0 view .LVU363
 1150 008a E646     		mov	lr, ip
 1151              	.LVL110:
 1152              	.L65:
 427:Middlewares/lvgl/src/extra/layouts/flex/lv_flex.c ****                 grow_value_sum -= t->grow_dsc[i].grow_value;
 1153              		.loc 2 427 17 is_stmt 1 view .LVU364
 427:Middlewares/lvgl/src/extra/layouts/flex/lv_flex.c ****                 grow_value_sum -= t->grow_dsc[i].grow_value;
 1154              		.loc 2 427 18 is_stmt 0 view .LVU365
 1155 008c E368     		ldr	r3, [r4, #12]
 427:Middlewares/lvgl/src/extra/layouts/flex/lv_flex.c ****                 grow_value_sum -= t->grow_dsc[i].grow_value;
 1156              		.loc 2 427 28 view .LVU366
 1157 008e 3344     		add	r3, r3, r6
 427:Middlewares/lvgl/src/extra/layouts/flex/lv_flex.c ****                 grow_value_sum -= t->grow_dsc[i].grow_value;
 1158              		.loc 2 427 43 view .LVU367
 1159 0090 1F81     		strh	r7, [r3, #8]	@ movhi
 428:Middlewares/lvgl/src/extra/layouts/flex/lv_flex.c ****                 grow_max_size  -= t->grow_dsc[i].final_size;
 1160              		.loc 2 428 17 is_stmt 1 view .LVU368
 428:Middlewares/lvgl/src/extra/layouts/flex/lv_flex.c ****                 grow_max_size  -= t->grow_dsc[i].final_size;
 1161              		.loc 2 428 36 is_stmt 0 view .LVU369
 1162 0092 E368     		ldr	r3, [r4, #12]
 428:Middlewares/lvgl/src/extra/layouts/flex/lv_flex.c ****                 grow_max_size  -= t->grow_dsc[i].final_size;
 1163              		.loc 2 428 46 view .LVU370
 1164 0094 3344     		add	r3, r3, r6
 428:Middlewares/lvgl/src/extra/layouts/flex/lv_flex.c ****                 grow_max_size  -= t->grow_dsc[i].final_size;
 1165              		.loc 2 428 49 view .LVU371
 1166 0096 DD68     		ldr	r5, [r3, #12]
 428:Middlewares/lvgl/src/extra/layouts/flex/lv_flex.c ****                 grow_max_size  -= t->grow_dsc[i].final_size;
 1167              		.loc 2 428 32 view .LVU372
 1168 0098 491B     		subs	r1, r1, r5
 1169              	.LVL111:
 428:Middlewares/lvgl/src/extra/layouts/flex/lv_flex.c ****                 grow_max_size  -= t->grow_dsc[i].final_size;
ARM GAS  /tmp/ccU94mph.s 			page 42


 1170              		.loc 2 428 32 view .LVU373
 1171 009a 09B2     		sxth	r1, r1
 1172              	.LVL112:
 429:Middlewares/lvgl/src/extra/layouts/flex/lv_flex.c ****             }
 1173              		.loc 2 429 17 is_stmt 1 view .LVU374
 429:Middlewares/lvgl/src/extra/layouts/flex/lv_flex.c ****             }
 1174              		.loc 2 429 49 is_stmt 0 view .LVU375
 1175 009c 1B89     		ldrh	r3, [r3, #8]
 429:Middlewares/lvgl/src/extra/layouts/flex/lv_flex.c ****             }
 1176              		.loc 2 429 32 view .LVU376
 1177 009e D21A     		subs	r2, r2, r3
 1178              	.LVL113:
 429:Middlewares/lvgl/src/extra/layouts/flex/lv_flex.c ****             }
 1179              		.loc 2 429 32 view .LVU377
 1180 00a0 12B2     		sxth	r2, r2
 1181              	.LVL114:
 1182              	.L64:
 429:Middlewares/lvgl/src/extra/layouts/flex/lv_flex.c ****             }
 1183              		.loc 2 429 32 view .LVU378
 1184              	.LBE82:
 417:Middlewares/lvgl/src/extra/layouts/flex/lv_flex.c ****             if(t->grow_dsc[i].clamped == 0) {
 1185              		.loc 2 417 42 is_stmt 1 discriminator 2 view .LVU379
 417:Middlewares/lvgl/src/extra/layouts/flex/lv_flex.c ****             if(t->grow_dsc[i].clamped == 0) {
 1186              		.loc 2 417 43 is_stmt 0 discriminator 2 view .LVU380
 1187 00a2 0130     		adds	r0, r0, #1
 1188              	.LVL115:
 1189              	.L63:
 417:Middlewares/lvgl/src/extra/layouts/flex/lv_flex.c ****             if(t->grow_dsc[i].clamped == 0) {
 1190              		.loc 2 417 20 is_stmt 1 discriminator 1 view .LVU381
 417:Middlewares/lvgl/src/extra/layouts/flex/lv_flex.c ****             if(t->grow_dsc[i].clamped == 0) {
 1191              		.loc 2 417 25 is_stmt 0 discriminator 1 view .LVU382
 1192 00a4 2369     		ldr	r3, [r4, #16]
 417:Middlewares/lvgl/src/extra/layouts/flex/lv_flex.c ****             if(t->grow_dsc[i].clamped == 0) {
 1193              		.loc 2 417 9 discriminator 1 view .LVU383
 1194 00a6 8342     		cmp	r3, r0
 1195 00a8 1CD9     		bls	.L108
 418:Middlewares/lvgl/src/extra/layouts/flex/lv_flex.c ****                 grow_unit = grow_max_size / grow_value_sum;
 1196              		.loc 2 418 13 is_stmt 1 view .LVU384
 418:Middlewares/lvgl/src/extra/layouts/flex/lv_flex.c ****                 grow_unit = grow_max_size / grow_value_sum;
 1197              		.loc 2 418 17 is_stmt 0 view .LVU385
 1198 00aa E368     		ldr	r3, [r4, #12]
 418:Middlewares/lvgl/src/extra/layouts/flex/lv_flex.c ****                 grow_unit = grow_max_size / grow_value_sum;
 1199              		.loc 2 418 27 view .LVU386
 1200 00ac 00EB8005 		add	r5, r0, r0, lsl #2
 1201 00b0 AE00     		lsls	r6, r5, #2
 1202 00b2 03EB8503 		add	r3, r3, r5, lsl #2
 418:Middlewares/lvgl/src/extra/layouts/flex/lv_flex.c ****                 grow_unit = grow_max_size / grow_value_sum;
 1203              		.loc 2 418 39 view .LVU387
 1204 00b6 1D7C     		ldrb	r5, [r3, #16]	@ zero_extendqisi2
 418:Middlewares/lvgl/src/extra/layouts/flex/lv_flex.c ****                 grow_unit = grow_max_size / grow_value_sum;
 1205              		.loc 2 418 15 view .LVU388
 1206 00b8 15F0010F 		tst	r5, #1
 1207 00bc F1D1     		bne	.L64
 1208              	.LBB83:
 419:Middlewares/lvgl/src/extra/layouts/flex/lv_flex.c ****                 lv_coord_t size = grow_unit * t->grow_dsc[i].grow_value;
 1209              		.loc 2 419 17 is_stmt 1 view .LVU389
 419:Middlewares/lvgl/src/extra/layouts/flex/lv_flex.c ****                 lv_coord_t size = grow_unit * t->grow_dsc[i].grow_value;
ARM GAS  /tmp/ccU94mph.s 			page 43


 1210              		.loc 2 419 43 is_stmt 0 view .LVU390
 1211 00be 92FBF1F5 		sdiv	r5, r2, r1
 420:Middlewares/lvgl/src/extra/layouts/flex/lv_flex.c ****                 lv_coord_t size_clamp = LV_CLAMP(t->grow_dsc[i].min_size, size, t->grow_dsc[i].max_
 1212              		.loc 2 420 17 is_stmt 1 view .LVU391
 420:Middlewares/lvgl/src/extra/layouts/flex/lv_flex.c ****                 lv_coord_t size_clamp = LV_CLAMP(t->grow_dsc[i].min_size, size, t->grow_dsc[i].max_
 1213              		.loc 2 420 61 is_stmt 0 view .LVU392
 1214 00c2 DF68     		ldr	r7, [r3, #12]
 420:Middlewares/lvgl/src/extra/layouts/flex/lv_flex.c ****                 lv_coord_t size_clamp = LV_CLAMP(t->grow_dsc[i].min_size, size, t->grow_dsc[i].max_
 1215              		.loc 2 420 28 view .LVU393
 1216 00c4 15FB07F5 		smulbb	r5, r5, r7
 1217 00c8 2DB2     		sxth	r5, r5
 1218              	.LVL116:
 421:Middlewares/lvgl/src/extra/layouts/flex/lv_flex.c **** 
 1219              		.loc 2 421 17 is_stmt 1 view .LVU394
 421:Middlewares/lvgl/src/extra/layouts/flex/lv_flex.c **** 
 1220              		.loc 2 421 41 is_stmt 0 view .LVU395
 1221 00ca B3F90670 		ldrsh	r7, [r3, #6]
 1222 00ce AF42     		cmp	r7, r5
 1223 00d0 A8BF     		it	ge
 1224 00d2 2F46     		movge	r7, r5
 1225 00d4 B3F90480 		ldrsh	r8, [r3, #4]
 421:Middlewares/lvgl/src/extra/layouts/flex/lv_flex.c **** 
 1226              		.loc 2 421 28 view .LVU396
 1227 00d8 4745     		cmp	r7, r8
 1228 00da B8BF     		it	lt
 1229 00dc 4746     		movlt	r7, r8
 1230              	.LVL117:
 423:Middlewares/lvgl/src/extra/layouts/flex/lv_flex.c ****                     t->grow_dsc[i].clamped = 1;
 1231              		.loc 2 423 17 is_stmt 1 view .LVU397
 423:Middlewares/lvgl/src/extra/layouts/flex/lv_flex.c ****                     t->grow_dsc[i].clamped = 1;
 1232              		.loc 2 423 19 is_stmt 0 view .LVU398
 1233 00de BD42     		cmp	r5, r7
 1234 00e0 CFD1     		bne	.L109
 1235 00e2 D3E7     		b	.L65
 1236              	.LVL118:
 1237              	.L108:
 423:Middlewares/lvgl/src/extra/layouts/flex/lv_flex.c ****                     t->grow_dsc[i].clamped = 1;
 1238              		.loc 2 423 19 view .LVU399
 1239              	.LBE83:
 1240 00e4 F446     		mov	ip, lr
 1241              	.LVL119:
 1242              	.L58:
 423:Middlewares/lvgl/src/extra/layouts/flex/lv_flex.c ****                     t->grow_dsc[i].clamped = 1;
 1243              		.loc 2 423 19 view .LVU400
 1244              	.LBE81:
 404:Middlewares/lvgl/src/extra/layouts/flex/lv_flex.c ****         grow_reiterate = false;
 1245              		.loc 2 404 10 is_stmt 1 view .LVU401
 1246 00e6 BCF1000F 		cmp	ip, #0
 1247 00ea 06D0     		beq	.L110
 1248              	.LBB84:
 405:Middlewares/lvgl/src/extra/layouts/flex/lv_flex.c ****         lv_coord_t grow_value_sum = 0;
 1249              		.loc 2 405 9 view .LVU402
 1250              	.LVL120:
 406:Middlewares/lvgl/src/extra/layouts/flex/lv_flex.c ****         lv_coord_t grow_max_size = t->track_main_size - t->track_fix_main_size;
 1251              		.loc 2 406 9 view .LVU403
 407:Middlewares/lvgl/src/extra/layouts/flex/lv_flex.c ****         for(i = 0; i < t->grow_item_cnt; i++) {
 1252              		.loc 2 407 9 view .LVU404
ARM GAS  /tmp/ccU94mph.s 			page 44


 407:Middlewares/lvgl/src/extra/layouts/flex/lv_flex.c ****         for(i = 0; i < t->grow_item_cnt; i++) {
 1253              		.loc 2 407 37 is_stmt 0 view .LVU405
 1254 00ec 6288     		ldrh	r2, [r4, #2]
 407:Middlewares/lvgl/src/extra/layouts/flex/lv_flex.c ****         for(i = 0; i < t->grow_item_cnt; i++) {
 1255              		.loc 2 407 58 view .LVU406
 1256 00ee A388     		ldrh	r3, [r4, #4]
 407:Middlewares/lvgl/src/extra/layouts/flex/lv_flex.c ****         for(i = 0; i < t->grow_item_cnt; i++) {
 1257              		.loc 2 407 55 view .LVU407
 1258 00f0 D21A     		subs	r2, r2, r3
 407:Middlewares/lvgl/src/extra/layouts/flex/lv_flex.c ****         for(i = 0; i < t->grow_item_cnt; i++) {
 1259              		.loc 2 407 20 view .LVU408
 1260 00f2 12B2     		sxth	r2, r2
 1261              	.LVL121:
 408:Middlewares/lvgl/src/extra/layouts/flex/lv_flex.c ****             if(t->grow_dsc[i].clamped == 0) {
 1262              		.loc 2 408 9 is_stmt 1 view .LVU409
 406:Middlewares/lvgl/src/extra/layouts/flex/lv_flex.c ****         lv_coord_t grow_max_size = t->track_main_size - t->track_fix_main_size;
 1263              		.loc 2 406 20 is_stmt 0 view .LVU410
 1264 00f4 0021     		movs	r1, #0
 408:Middlewares/lvgl/src/extra/layouts/flex/lv_flex.c ****             if(t->grow_dsc[i].clamped == 0) {
 1265              		.loc 2 408 15 view .LVU411
 1266 00f6 0B46     		mov	r3, r1
 408:Middlewares/lvgl/src/extra/layouts/flex/lv_flex.c ****             if(t->grow_dsc[i].clamped == 0) {
 1267              		.loc 2 408 9 view .LVU412
 1268 00f8 AFE7     		b	.L59
 1269              	.LVL122:
 1270              	.L110:
 408:Middlewares/lvgl/src/extra/layouts/flex/lv_flex.c ****             if(t->grow_dsc[i].clamped == 0) {
 1271              		.loc 2 408 9 view .LVU413
 1272              	.LBE84:
 435:Middlewares/lvgl/src/extra/layouts/flex/lv_flex.c **** 
 1273              		.loc 2 435 5 is_stmt 1 view .LVU414
 1274              	.LBB85:
 1275              	.LBI85:
  35:Middlewares/lvgl/src/extra/layouts/flex/../flex/../../../core/lv_obj_style_gen.h **** }
  36:Middlewares/lvgl/src/extra/layouts/flex/../flex/../../../core/lv_obj_style_gen.h **** 
  37:Middlewares/lvgl/src/extra/layouts/flex/../flex/../../../core/lv_obj_style_gen.h **** static inline lv_coord_t lv_obj_get_style_x(const struct _lv_obj_t * obj, uint32_t part)
  38:Middlewares/lvgl/src/extra/layouts/flex/../flex/../../../core/lv_obj_style_gen.h **** {
  39:Middlewares/lvgl/src/extra/layouts/flex/../flex/../../../core/lv_obj_style_gen.h ****     lv_style_value_t v = lv_obj_get_style_prop(obj, part, LV_STYLE_X);
  40:Middlewares/lvgl/src/extra/layouts/flex/../flex/../../../core/lv_obj_style_gen.h ****     return (lv_coord_t)v.num;
  41:Middlewares/lvgl/src/extra/layouts/flex/../flex/../../../core/lv_obj_style_gen.h **** }
  42:Middlewares/lvgl/src/extra/layouts/flex/../flex/../../../core/lv_obj_style_gen.h **** 
  43:Middlewares/lvgl/src/extra/layouts/flex/../flex/../../../core/lv_obj_style_gen.h **** static inline lv_coord_t lv_obj_get_style_y(const struct _lv_obj_t * obj, uint32_t part)
  44:Middlewares/lvgl/src/extra/layouts/flex/../flex/../../../core/lv_obj_style_gen.h **** {
  45:Middlewares/lvgl/src/extra/layouts/flex/../flex/../../../core/lv_obj_style_gen.h ****     lv_style_value_t v = lv_obj_get_style_prop(obj, part, LV_STYLE_Y);
  46:Middlewares/lvgl/src/extra/layouts/flex/../flex/../../../core/lv_obj_style_gen.h ****     return (lv_coord_t)v.num;
  47:Middlewares/lvgl/src/extra/layouts/flex/../flex/../../../core/lv_obj_style_gen.h **** }
  48:Middlewares/lvgl/src/extra/layouts/flex/../flex/../../../core/lv_obj_style_gen.h **** 
  49:Middlewares/lvgl/src/extra/layouts/flex/../flex/../../../core/lv_obj_style_gen.h **** static inline lv_align_t lv_obj_get_style_align(const struct _lv_obj_t * obj, uint32_t part)
  50:Middlewares/lvgl/src/extra/layouts/flex/../flex/../../../core/lv_obj_style_gen.h **** {
  51:Middlewares/lvgl/src/extra/layouts/flex/../flex/../../../core/lv_obj_style_gen.h ****     lv_style_value_t v = lv_obj_get_style_prop(obj, part, LV_STYLE_ALIGN);
  52:Middlewares/lvgl/src/extra/layouts/flex/../flex/../../../core/lv_obj_style_gen.h ****     return (lv_align_t)v.num;
  53:Middlewares/lvgl/src/extra/layouts/flex/../flex/../../../core/lv_obj_style_gen.h **** }
  54:Middlewares/lvgl/src/extra/layouts/flex/../flex/../../../core/lv_obj_style_gen.h **** 
  55:Middlewares/lvgl/src/extra/layouts/flex/../flex/../../../core/lv_obj_style_gen.h **** static inline lv_coord_t lv_obj_get_style_transform_width(const struct _lv_obj_t * obj, uint32_t pa
  56:Middlewares/lvgl/src/extra/layouts/flex/../flex/../../../core/lv_obj_style_gen.h **** {
  57:Middlewares/lvgl/src/extra/layouts/flex/../flex/../../../core/lv_obj_style_gen.h ****     lv_style_value_t v = lv_obj_get_style_prop(obj, part, LV_STYLE_TRANSFORM_WIDTH);
  58:Middlewares/lvgl/src/extra/layouts/flex/../flex/../../../core/lv_obj_style_gen.h ****     return (lv_coord_t)v.num;
ARM GAS  /tmp/ccU94mph.s 			page 45


  59:Middlewares/lvgl/src/extra/layouts/flex/../flex/../../../core/lv_obj_style_gen.h **** }
  60:Middlewares/lvgl/src/extra/layouts/flex/../flex/../../../core/lv_obj_style_gen.h **** 
  61:Middlewares/lvgl/src/extra/layouts/flex/../flex/../../../core/lv_obj_style_gen.h **** static inline lv_coord_t lv_obj_get_style_transform_height(const struct _lv_obj_t * obj, uint32_t p
  62:Middlewares/lvgl/src/extra/layouts/flex/../flex/../../../core/lv_obj_style_gen.h **** {
  63:Middlewares/lvgl/src/extra/layouts/flex/../flex/../../../core/lv_obj_style_gen.h ****     lv_style_value_t v = lv_obj_get_style_prop(obj, part, LV_STYLE_TRANSFORM_HEIGHT);
  64:Middlewares/lvgl/src/extra/layouts/flex/../flex/../../../core/lv_obj_style_gen.h ****     return (lv_coord_t)v.num;
  65:Middlewares/lvgl/src/extra/layouts/flex/../flex/../../../core/lv_obj_style_gen.h **** }
  66:Middlewares/lvgl/src/extra/layouts/flex/../flex/../../../core/lv_obj_style_gen.h **** 
  67:Middlewares/lvgl/src/extra/layouts/flex/../flex/../../../core/lv_obj_style_gen.h **** static inline lv_coord_t lv_obj_get_style_translate_x(const struct _lv_obj_t * obj, uint32_t part)
  68:Middlewares/lvgl/src/extra/layouts/flex/../flex/../../../core/lv_obj_style_gen.h **** {
  69:Middlewares/lvgl/src/extra/layouts/flex/../flex/../../../core/lv_obj_style_gen.h ****     lv_style_value_t v = lv_obj_get_style_prop(obj, part, LV_STYLE_TRANSLATE_X);
  70:Middlewares/lvgl/src/extra/layouts/flex/../flex/../../../core/lv_obj_style_gen.h ****     return (lv_coord_t)v.num;
  71:Middlewares/lvgl/src/extra/layouts/flex/../flex/../../../core/lv_obj_style_gen.h **** }
  72:Middlewares/lvgl/src/extra/layouts/flex/../flex/../../../core/lv_obj_style_gen.h **** 
  73:Middlewares/lvgl/src/extra/layouts/flex/../flex/../../../core/lv_obj_style_gen.h **** static inline lv_coord_t lv_obj_get_style_translate_y(const struct _lv_obj_t * obj, uint32_t part)
  74:Middlewares/lvgl/src/extra/layouts/flex/../flex/../../../core/lv_obj_style_gen.h **** {
  75:Middlewares/lvgl/src/extra/layouts/flex/../flex/../../../core/lv_obj_style_gen.h ****     lv_style_value_t v = lv_obj_get_style_prop(obj, part, LV_STYLE_TRANSLATE_Y);
  76:Middlewares/lvgl/src/extra/layouts/flex/../flex/../../../core/lv_obj_style_gen.h ****     return (lv_coord_t)v.num;
  77:Middlewares/lvgl/src/extra/layouts/flex/../flex/../../../core/lv_obj_style_gen.h **** }
  78:Middlewares/lvgl/src/extra/layouts/flex/../flex/../../../core/lv_obj_style_gen.h **** 
  79:Middlewares/lvgl/src/extra/layouts/flex/../flex/../../../core/lv_obj_style_gen.h **** static inline lv_coord_t lv_obj_get_style_transform_zoom(const struct _lv_obj_t * obj, uint32_t par
  80:Middlewares/lvgl/src/extra/layouts/flex/../flex/../../../core/lv_obj_style_gen.h **** {
  81:Middlewares/lvgl/src/extra/layouts/flex/../flex/../../../core/lv_obj_style_gen.h ****     lv_style_value_t v = lv_obj_get_style_prop(obj, part, LV_STYLE_TRANSFORM_ZOOM);
  82:Middlewares/lvgl/src/extra/layouts/flex/../flex/../../../core/lv_obj_style_gen.h ****     return (lv_coord_t)v.num;
  83:Middlewares/lvgl/src/extra/layouts/flex/../flex/../../../core/lv_obj_style_gen.h **** }
  84:Middlewares/lvgl/src/extra/layouts/flex/../flex/../../../core/lv_obj_style_gen.h **** 
  85:Middlewares/lvgl/src/extra/layouts/flex/../flex/../../../core/lv_obj_style_gen.h **** static inline lv_coord_t lv_obj_get_style_transform_angle(const struct _lv_obj_t * obj, uint32_t pa
  86:Middlewares/lvgl/src/extra/layouts/flex/../flex/../../../core/lv_obj_style_gen.h **** {
  87:Middlewares/lvgl/src/extra/layouts/flex/../flex/../../../core/lv_obj_style_gen.h ****     lv_style_value_t v = lv_obj_get_style_prop(obj, part, LV_STYLE_TRANSFORM_ANGLE);
  88:Middlewares/lvgl/src/extra/layouts/flex/../flex/../../../core/lv_obj_style_gen.h ****     return (lv_coord_t)v.num;
  89:Middlewares/lvgl/src/extra/layouts/flex/../flex/../../../core/lv_obj_style_gen.h **** }
  90:Middlewares/lvgl/src/extra/layouts/flex/../flex/../../../core/lv_obj_style_gen.h **** 
  91:Middlewares/lvgl/src/extra/layouts/flex/../flex/../../../core/lv_obj_style_gen.h **** static inline lv_coord_t lv_obj_get_style_pad_top(const struct _lv_obj_t * obj, uint32_t part)
  92:Middlewares/lvgl/src/extra/layouts/flex/../flex/../../../core/lv_obj_style_gen.h **** {
  93:Middlewares/lvgl/src/extra/layouts/flex/../flex/../../../core/lv_obj_style_gen.h ****     lv_style_value_t v = lv_obj_get_style_prop(obj, part, LV_STYLE_PAD_TOP);
  94:Middlewares/lvgl/src/extra/layouts/flex/../flex/../../../core/lv_obj_style_gen.h ****     return (lv_coord_t)v.num;
  95:Middlewares/lvgl/src/extra/layouts/flex/../flex/../../../core/lv_obj_style_gen.h **** }
  96:Middlewares/lvgl/src/extra/layouts/flex/../flex/../../../core/lv_obj_style_gen.h **** 
  97:Middlewares/lvgl/src/extra/layouts/flex/../flex/../../../core/lv_obj_style_gen.h **** static inline lv_coord_t lv_obj_get_style_pad_bottom(const struct _lv_obj_t * obj, uint32_t part)
  98:Middlewares/lvgl/src/extra/layouts/flex/../flex/../../../core/lv_obj_style_gen.h **** {
  99:Middlewares/lvgl/src/extra/layouts/flex/../flex/../../../core/lv_obj_style_gen.h ****     lv_style_value_t v = lv_obj_get_style_prop(obj, part, LV_STYLE_PAD_BOTTOM);
 100:Middlewares/lvgl/src/extra/layouts/flex/../flex/../../../core/lv_obj_style_gen.h ****     return (lv_coord_t)v.num;
 101:Middlewares/lvgl/src/extra/layouts/flex/../flex/../../../core/lv_obj_style_gen.h **** }
 102:Middlewares/lvgl/src/extra/layouts/flex/../flex/../../../core/lv_obj_style_gen.h **** 
 103:Middlewares/lvgl/src/extra/layouts/flex/../flex/../../../core/lv_obj_style_gen.h **** static inline lv_coord_t lv_obj_get_style_pad_left(const struct _lv_obj_t * obj, uint32_t part)
 104:Middlewares/lvgl/src/extra/layouts/flex/../flex/../../../core/lv_obj_style_gen.h **** {
 105:Middlewares/lvgl/src/extra/layouts/flex/../flex/../../../core/lv_obj_style_gen.h ****     lv_style_value_t v = lv_obj_get_style_prop(obj, part, LV_STYLE_PAD_LEFT);
 106:Middlewares/lvgl/src/extra/layouts/flex/../flex/../../../core/lv_obj_style_gen.h ****     return (lv_coord_t)v.num;
 107:Middlewares/lvgl/src/extra/layouts/flex/../flex/../../../core/lv_obj_style_gen.h **** }
 108:Middlewares/lvgl/src/extra/layouts/flex/../flex/../../../core/lv_obj_style_gen.h **** 
 109:Middlewares/lvgl/src/extra/layouts/flex/../flex/../../../core/lv_obj_style_gen.h **** static inline lv_coord_t lv_obj_get_style_pad_right(const struct _lv_obj_t * obj, uint32_t part)
 110:Middlewares/lvgl/src/extra/layouts/flex/../flex/../../../core/lv_obj_style_gen.h **** {
 111:Middlewares/lvgl/src/extra/layouts/flex/../flex/../../../core/lv_obj_style_gen.h ****     lv_style_value_t v = lv_obj_get_style_prop(obj, part, LV_STYLE_PAD_RIGHT);
 112:Middlewares/lvgl/src/extra/layouts/flex/../flex/../../../core/lv_obj_style_gen.h ****     return (lv_coord_t)v.num;
 113:Middlewares/lvgl/src/extra/layouts/flex/../flex/../../../core/lv_obj_style_gen.h **** }
 114:Middlewares/lvgl/src/extra/layouts/flex/../flex/../../../core/lv_obj_style_gen.h **** 
 115:Middlewares/lvgl/src/extra/layouts/flex/../flex/../../../core/lv_obj_style_gen.h **** static inline lv_coord_t lv_obj_get_style_pad_row(const struct _lv_obj_t * obj, uint32_t part)
ARM GAS  /tmp/ccU94mph.s 			page 46


 116:Middlewares/lvgl/src/extra/layouts/flex/../flex/../../../core/lv_obj_style_gen.h **** {
 117:Middlewares/lvgl/src/extra/layouts/flex/../flex/../../../core/lv_obj_style_gen.h ****     lv_style_value_t v = lv_obj_get_style_prop(obj, part, LV_STYLE_PAD_ROW);
 118:Middlewares/lvgl/src/extra/layouts/flex/../flex/../../../core/lv_obj_style_gen.h ****     return (lv_coord_t)v.num;
 119:Middlewares/lvgl/src/extra/layouts/flex/../flex/../../../core/lv_obj_style_gen.h **** }
 120:Middlewares/lvgl/src/extra/layouts/flex/../flex/../../../core/lv_obj_style_gen.h **** 
 121:Middlewares/lvgl/src/extra/layouts/flex/../flex/../../../core/lv_obj_style_gen.h **** static inline lv_coord_t lv_obj_get_style_pad_column(const struct _lv_obj_t * obj, uint32_t part)
 122:Middlewares/lvgl/src/extra/layouts/flex/../flex/../../../core/lv_obj_style_gen.h **** {
 123:Middlewares/lvgl/src/extra/layouts/flex/../flex/../../../core/lv_obj_style_gen.h ****     lv_style_value_t v = lv_obj_get_style_prop(obj, part, LV_STYLE_PAD_COLUMN);
 124:Middlewares/lvgl/src/extra/layouts/flex/../flex/../../../core/lv_obj_style_gen.h ****     return (lv_coord_t)v.num;
 125:Middlewares/lvgl/src/extra/layouts/flex/../flex/../../../core/lv_obj_style_gen.h **** }
 126:Middlewares/lvgl/src/extra/layouts/flex/../flex/../../../core/lv_obj_style_gen.h **** 
 127:Middlewares/lvgl/src/extra/layouts/flex/../flex/../../../core/lv_obj_style_gen.h **** static inline lv_coord_t lv_obj_get_style_radius(const struct _lv_obj_t * obj, uint32_t part)
 128:Middlewares/lvgl/src/extra/layouts/flex/../flex/../../../core/lv_obj_style_gen.h **** {
 129:Middlewares/lvgl/src/extra/layouts/flex/../flex/../../../core/lv_obj_style_gen.h ****     lv_style_value_t v = lv_obj_get_style_prop(obj, part, LV_STYLE_RADIUS);
 130:Middlewares/lvgl/src/extra/layouts/flex/../flex/../../../core/lv_obj_style_gen.h ****     return (lv_coord_t)v.num;
 131:Middlewares/lvgl/src/extra/layouts/flex/../flex/../../../core/lv_obj_style_gen.h **** }
 132:Middlewares/lvgl/src/extra/layouts/flex/../flex/../../../core/lv_obj_style_gen.h **** 
 133:Middlewares/lvgl/src/extra/layouts/flex/../flex/../../../core/lv_obj_style_gen.h **** static inline bool lv_obj_get_style_clip_corner(const struct _lv_obj_t * obj, uint32_t part)
 134:Middlewares/lvgl/src/extra/layouts/flex/../flex/../../../core/lv_obj_style_gen.h **** {
 135:Middlewares/lvgl/src/extra/layouts/flex/../flex/../../../core/lv_obj_style_gen.h ****     lv_style_value_t v = lv_obj_get_style_prop(obj, part, LV_STYLE_CLIP_CORNER);
 136:Middlewares/lvgl/src/extra/layouts/flex/../flex/../../../core/lv_obj_style_gen.h ****     return (bool)v.num;
 137:Middlewares/lvgl/src/extra/layouts/flex/../flex/../../../core/lv_obj_style_gen.h **** }
 138:Middlewares/lvgl/src/extra/layouts/flex/../flex/../../../core/lv_obj_style_gen.h **** 
 139:Middlewares/lvgl/src/extra/layouts/flex/../flex/../../../core/lv_obj_style_gen.h **** static inline lv_opa_t lv_obj_get_style_opa(const struct _lv_obj_t * obj, uint32_t part)
 140:Middlewares/lvgl/src/extra/layouts/flex/../flex/../../../core/lv_obj_style_gen.h **** {
 141:Middlewares/lvgl/src/extra/layouts/flex/../flex/../../../core/lv_obj_style_gen.h ****     lv_style_value_t v = lv_obj_get_style_prop(obj, part, LV_STYLE_OPA);
 142:Middlewares/lvgl/src/extra/layouts/flex/../flex/../../../core/lv_obj_style_gen.h ****     return (lv_opa_t)v.num;
 143:Middlewares/lvgl/src/extra/layouts/flex/../flex/../../../core/lv_obj_style_gen.h **** }
 144:Middlewares/lvgl/src/extra/layouts/flex/../flex/../../../core/lv_obj_style_gen.h **** 
 145:Middlewares/lvgl/src/extra/layouts/flex/../flex/../../../core/lv_obj_style_gen.h **** static inline const lv_color_filter_dsc_t * lv_obj_get_style_color_filter_dsc(const struct _lv_obj_
 146:Middlewares/lvgl/src/extra/layouts/flex/../flex/../../../core/lv_obj_style_gen.h **** {
 147:Middlewares/lvgl/src/extra/layouts/flex/../flex/../../../core/lv_obj_style_gen.h ****     lv_style_value_t v = lv_obj_get_style_prop(obj, part, LV_STYLE_COLOR_FILTER_DSC);
 148:Middlewares/lvgl/src/extra/layouts/flex/../flex/../../../core/lv_obj_style_gen.h ****     return (const lv_color_filter_dsc_t *)v.ptr;
 149:Middlewares/lvgl/src/extra/layouts/flex/../flex/../../../core/lv_obj_style_gen.h **** }
 150:Middlewares/lvgl/src/extra/layouts/flex/../flex/../../../core/lv_obj_style_gen.h **** 
 151:Middlewares/lvgl/src/extra/layouts/flex/../flex/../../../core/lv_obj_style_gen.h **** static inline lv_opa_t lv_obj_get_style_color_filter_opa(const struct _lv_obj_t * obj, uint32_t par
 152:Middlewares/lvgl/src/extra/layouts/flex/../flex/../../../core/lv_obj_style_gen.h **** {
 153:Middlewares/lvgl/src/extra/layouts/flex/../flex/../../../core/lv_obj_style_gen.h ****     lv_style_value_t v = lv_obj_get_style_prop(obj, part, LV_STYLE_COLOR_FILTER_OPA);
 154:Middlewares/lvgl/src/extra/layouts/flex/../flex/../../../core/lv_obj_style_gen.h ****     return (lv_opa_t)v.num;
 155:Middlewares/lvgl/src/extra/layouts/flex/../flex/../../../core/lv_obj_style_gen.h **** }
 156:Middlewares/lvgl/src/extra/layouts/flex/../flex/../../../core/lv_obj_style_gen.h **** 
 157:Middlewares/lvgl/src/extra/layouts/flex/../flex/../../../core/lv_obj_style_gen.h **** static inline uint32_t lv_obj_get_style_anim_time(const struct _lv_obj_t * obj, uint32_t part)
 158:Middlewares/lvgl/src/extra/layouts/flex/../flex/../../../core/lv_obj_style_gen.h **** {
 159:Middlewares/lvgl/src/extra/layouts/flex/../flex/../../../core/lv_obj_style_gen.h ****     lv_style_value_t v = lv_obj_get_style_prop(obj, part, LV_STYLE_ANIM_TIME);
 160:Middlewares/lvgl/src/extra/layouts/flex/../flex/../../../core/lv_obj_style_gen.h ****     return (uint32_t)v.num;
 161:Middlewares/lvgl/src/extra/layouts/flex/../flex/../../../core/lv_obj_style_gen.h **** }
 162:Middlewares/lvgl/src/extra/layouts/flex/../flex/../../../core/lv_obj_style_gen.h **** 
 163:Middlewares/lvgl/src/extra/layouts/flex/../flex/../../../core/lv_obj_style_gen.h **** static inline uint32_t lv_obj_get_style_anim_speed(const struct _lv_obj_t * obj, uint32_t part)
 164:Middlewares/lvgl/src/extra/layouts/flex/../flex/../../../core/lv_obj_style_gen.h **** {
 165:Middlewares/lvgl/src/extra/layouts/flex/../flex/../../../core/lv_obj_style_gen.h ****     lv_style_value_t v = lv_obj_get_style_prop(obj, part, LV_STYLE_ANIM_SPEED);
 166:Middlewares/lvgl/src/extra/layouts/flex/../flex/../../../core/lv_obj_style_gen.h ****     return (uint32_t)v.num;
 167:Middlewares/lvgl/src/extra/layouts/flex/../flex/../../../core/lv_obj_style_gen.h **** }
 168:Middlewares/lvgl/src/extra/layouts/flex/../flex/../../../core/lv_obj_style_gen.h **** 
 169:Middlewares/lvgl/src/extra/layouts/flex/../flex/../../../core/lv_obj_style_gen.h **** static inline const lv_style_transition_dsc_t * lv_obj_get_style_transition(const struct _lv_obj_t 
 170:Middlewares/lvgl/src/extra/layouts/flex/../flex/../../../core/lv_obj_style_gen.h **** {
 171:Middlewares/lvgl/src/extra/layouts/flex/../flex/../../../core/lv_obj_style_gen.h ****     lv_style_value_t v = lv_obj_get_style_prop(obj, part, LV_STYLE_TRANSITION);
 172:Middlewares/lvgl/src/extra/layouts/flex/../flex/../../../core/lv_obj_style_gen.h ****     return (const lv_style_transition_dsc_t *)v.ptr;
ARM GAS  /tmp/ccU94mph.s 			page 47


 173:Middlewares/lvgl/src/extra/layouts/flex/../flex/../../../core/lv_obj_style_gen.h **** }
 174:Middlewares/lvgl/src/extra/layouts/flex/../flex/../../../core/lv_obj_style_gen.h **** 
 175:Middlewares/lvgl/src/extra/layouts/flex/../flex/../../../core/lv_obj_style_gen.h **** static inline lv_blend_mode_t lv_obj_get_style_blend_mode(const struct _lv_obj_t * obj, uint32_t pa
 176:Middlewares/lvgl/src/extra/layouts/flex/../flex/../../../core/lv_obj_style_gen.h **** {
 177:Middlewares/lvgl/src/extra/layouts/flex/../flex/../../../core/lv_obj_style_gen.h ****     lv_style_value_t v = lv_obj_get_style_prop(obj, part, LV_STYLE_BLEND_MODE);
 178:Middlewares/lvgl/src/extra/layouts/flex/../flex/../../../core/lv_obj_style_gen.h ****     return (lv_blend_mode_t)v.num;
 179:Middlewares/lvgl/src/extra/layouts/flex/../flex/../../../core/lv_obj_style_gen.h **** }
 180:Middlewares/lvgl/src/extra/layouts/flex/../flex/../../../core/lv_obj_style_gen.h **** 
 181:Middlewares/lvgl/src/extra/layouts/flex/../flex/../../../core/lv_obj_style_gen.h **** static inline uint16_t lv_obj_get_style_layout(const struct _lv_obj_t * obj, uint32_t part)
 182:Middlewares/lvgl/src/extra/layouts/flex/../flex/../../../core/lv_obj_style_gen.h **** {
 183:Middlewares/lvgl/src/extra/layouts/flex/../flex/../../../core/lv_obj_style_gen.h ****     lv_style_value_t v = lv_obj_get_style_prop(obj, part, LV_STYLE_LAYOUT);
 184:Middlewares/lvgl/src/extra/layouts/flex/../flex/../../../core/lv_obj_style_gen.h ****     return (uint16_t)v.num;
 185:Middlewares/lvgl/src/extra/layouts/flex/../flex/../../../core/lv_obj_style_gen.h **** }
 186:Middlewares/lvgl/src/extra/layouts/flex/../flex/../../../core/lv_obj_style_gen.h **** 
 187:Middlewares/lvgl/src/extra/layouts/flex/../flex/../../../core/lv_obj_style_gen.h **** static inline lv_base_dir_t lv_obj_get_style_base_dir(const struct _lv_obj_t * obj, uint32_t part)
 1276              		.loc 3 187 29 view .LVU415
 1277              	.LBB86:
 188:Middlewares/lvgl/src/extra/layouts/flex/../flex/../../../core/lv_obj_style_gen.h **** {
 189:Middlewares/lvgl/src/extra/layouts/flex/../flex/../../../core/lv_obj_style_gen.h ****     lv_style_value_t v = lv_obj_get_style_prop(obj, part, LV_STYLE_BASE_DIR);
 1278              		.loc 3 189 5 view .LVU416
 1279              		.loc 3 189 26 is_stmt 0 view .LVU417
 1280 00fa 41F26A42 		movw	r2, #5226
 1281 00fe 0021     		movs	r1, #0
 1282 0100 0498     		ldr	r0, [sp, #16]
 1283 0102 FFF7FEFF 		bl	lv_obj_get_style_prop
 1284              	.LVL123:
 190:Middlewares/lvgl/src/extra/layouts/flex/../flex/../../../core/lv_obj_style_gen.h ****     return (lv_base_dir_t)v.num;
 1285              		.loc 3 190 5 is_stmt 1 view .LVU418
 1286              		.loc 3 190 12 is_stmt 0 view .LVU419
 1287 0106 C5B2     		uxtb	r5, r0
 1288 0108 0795     		str	r5, [sp, #28]
 1289              	.LVL124:
 1290              		.loc 3 190 12 view .LVU420
 1291              	.LBE86:
 1292              	.LBE85:
 437:Middlewares/lvgl/src/extra/layouts/flex/lv_flex.c **** 
 1293              		.loc 2 437 5 is_stmt 1 view .LVU421
 437:Middlewares/lvgl/src/extra/layouts/flex/lv_flex.c **** 
 1294              		.loc 2 437 16 is_stmt 0 view .LVU422
 1295 010a 0023     		movs	r3, #0
 1296 010c ADF84630 		strh	r3, [sp, #70]	@ movhi
 439:Middlewares/lvgl/src/extra/layouts/flex/lv_flex.c ****     place_content(f->main_place, max_main_size, t->track_main_size, t->item_cnt, &main_pos, &place_
 1297              		.loc 2 439 5 is_stmt 1 view .LVU423
 439:Middlewares/lvgl/src/extra/layouts/flex/lv_flex.c ****     place_content(f->main_place, max_main_size, t->track_main_size, t->item_cnt, &main_pos, &place_
 1298              		.loc 2 439 16 is_stmt 0 view .LVU424
 1299 0110 ADF84430 		strh	r3, [sp, #68]	@ movhi
 440:Middlewares/lvgl/src/extra/layouts/flex/lv_flex.c ****     if(f->row && rtl) main_pos += lv_obj_get_content_width(cont);
 1300              		.loc 2 440 5 is_stmt 1 view .LVU425
 1301 0114 11AB     		add	r3, sp, #68
 1302 0116 0193     		str	r3, [sp, #4]
 1303 0118 0DF14603 		add	r3, sp, #70
 1304 011c 0093     		str	r3, [sp]
 1305 011e B4F90830 		ldrsh	r3, [r4, #8]
 1306 0122 B4F90220 		ldrsh	r2, [r4, #2]
 1307 0126 BDF97810 		ldrsh	r1, [sp, #120]
 1308 012a 99F80000 		ldrb	r0, [r9]	@ zero_extendqisi2
 1309 012e FFF7FEFF 		bl	place_content
ARM GAS  /tmp/ccU94mph.s 			page 48


 1310              	.LVL125:
 441:Middlewares/lvgl/src/extra/layouts/flex/lv_flex.c **** 
 1311              		.loc 2 441 5 view .LVU426
 441:Middlewares/lvgl/src/extra/layouts/flex/lv_flex.c **** 
 1312              		.loc 2 441 8 is_stmt 0 view .LVU427
 1313 0132 99F80330 		ldrb	r3, [r9, #3]	@ zero_extendqisi2
 441:Middlewares/lvgl/src/extra/layouts/flex/lv_flex.c **** 
 1314              		.loc 2 441 7 view .LVU428
 1315 0136 13F0010F 		tst	r3, #1
 1316 013a 01D0     		beq	.L68
 441:Middlewares/lvgl/src/extra/layouts/flex/lv_flex.c **** 
 1317              		.loc 2 441 15 discriminator 1 view .LVU429
 1318 013c 012D     		cmp	r5, #1
 1319 013e 05D0     		beq	.L111
 1320              	.L68:
 443:Middlewares/lvgl/src/extra/layouts/flex/lv_flex.c ****     /*Reposition the children*/
 1321              		.loc 2 443 5 is_stmt 1 view .LVU430
 443:Middlewares/lvgl/src/extra/layouts/flex/lv_flex.c ****     /*Reposition the children*/
 1322              		.loc 2 443 23 is_stmt 0 view .LVU431
 1323 0140 0D99     		ldr	r1, [sp, #52]
 1324 0142 0498     		ldr	r0, [sp, #16]
 1325 0144 FFF7FEFF 		bl	lv_obj_get_child
 1326              	.LVL126:
 1327 0148 0546     		mov	r5, r0
 1328              	.LVL127:
 445:Middlewares/lvgl/src/extra/layouts/flex/lv_flex.c ****         if(lv_obj_has_flag_any(item, LV_OBJ_FLAG_IGNORE_LAYOUT | LV_OBJ_FLAG_HIDDEN | LV_OBJ_FLAG_F
 1329              		.loc 2 445 5 is_stmt 1 view .LVU432
 445:Middlewares/lvgl/src/extra/layouts/flex/lv_flex.c ****         if(lv_obj_has_flag_any(item, LV_OBJ_FLAG_IGNORE_LAYOUT | LV_OBJ_FLAG_HIDDEN | LV_OBJ_FLAG_F
 1330              		.loc 2 445 10 is_stmt 0 view .LVU433
 1331 014a 06E1     		b	.L69
 1332              	.LVL128:
 1333              	.L111:
 441:Middlewares/lvgl/src/extra/layouts/flex/lv_flex.c **** 
 1334              		.loc 2 441 23 is_stmt 1 discriminator 2 view .LVU434
 441:Middlewares/lvgl/src/extra/layouts/flex/lv_flex.c **** 
 1335              		.loc 2 441 35 is_stmt 0 discriminator 2 view .LVU435
 1336 014c 0498     		ldr	r0, [sp, #16]
 1337 014e FFF7FEFF 		bl	lv_obj_get_content_width
 1338              	.LVL129:
 441:Middlewares/lvgl/src/extra/layouts/flex/lv_flex.c **** 
 1339              		.loc 2 441 32 discriminator 2 view .LVU436
 1340 0152 BDF84630 		ldrh	r3, [sp, #70]
 1341 0156 13FA80F3 		uxtah	r3, r3, r0
 1342 015a ADF84630 		strh	r3, [sp, #70]	@ movhi
 1343 015e EFE7     		b	.L68
 1344              	.LVL130:
 1345              	.L117:
 1346              	.LBB87:
 447:Middlewares/lvgl/src/extra/layouts/flex/lv_flex.c ****             continue;
 1347              		.loc 2 447 13 is_stmt 1 view .LVU437
 447:Middlewares/lvgl/src/extra/layouts/flex/lv_flex.c ****             continue;
 1348              		.loc 2 447 41 is_stmt 0 view .LVU438
 1349 0160 99F80310 		ldrb	r1, [r9, #3]	@ zero_extendqisi2
 447:Middlewares/lvgl/src/extra/layouts/flex/lv_flex.c ****             continue;
 1350              		.loc 2 447 20 view .LVU439
 1351 0164 0DAA     		add	r2, sp, #52
 1352 0166 C1F38001 		ubfx	r1, r1, #2, #1
ARM GAS  /tmp/ccU94mph.s 			page 49


 1353 016a 0498     		ldr	r0, [sp, #16]
 1354 016c FFF7FEFF 		bl	get_next_item
 1355              	.LVL131:
 1356 0170 0546     		mov	r5, r0
 1357              	.LVL132:
 448:Middlewares/lvgl/src/extra/layouts/flex/lv_flex.c ****         }
 1358              		.loc 2 448 13 is_stmt 1 view .LVU440
 1359 0172 F2E0     		b	.L69
 1360              	.LVL133:
 1361              	.L113:
 1362              	.LBB88:
 455:Middlewares/lvgl/src/extra/layouts/flex/lv_flex.c ****                     break;
 1363              		.loc 2 455 21 view .LVU441
 455:Middlewares/lvgl/src/extra/layouts/flex/lv_flex.c ****                     break;
 1364              		.loc 2 455 23 is_stmt 0 view .LVU442
 1365 0174 B0F90870 		ldrsh	r7, [r0, #8]
 1366              	.LVL134:
 456:Middlewares/lvgl/src/extra/layouts/flex/lv_flex.c ****                 }
 1367              		.loc 2 456 21 is_stmt 1 view .LVU443
 1368 0178 0FE0     		b	.L75
 1369              	.LVL135:
 1370              	.L118:
 453:Middlewares/lvgl/src/extra/layouts/flex/lv_flex.c ****                 if(t->grow_dsc[i].item == item) {
 1371              		.loc 2 453 19 is_stmt 0 view .LVU444
 1372 017a 0023     		movs	r3, #0
 1373              	.LVL136:
 1374              	.L72:
 453:Middlewares/lvgl/src/extra/layouts/flex/lv_flex.c ****                 if(t->grow_dsc[i].item == item) {
 1375              		.loc 2 453 24 is_stmt 1 discriminator 1 view .LVU445
 453:Middlewares/lvgl/src/extra/layouts/flex/lv_flex.c ****                 if(t->grow_dsc[i].item == item) {
 1376              		.loc 2 453 29 is_stmt 0 discriminator 1 view .LVU446
 1377 017c 2269     		ldr	r2, [r4, #16]
 453:Middlewares/lvgl/src/extra/layouts/flex/lv_flex.c ****                 if(t->grow_dsc[i].item == item) {
 1378              		.loc 2 453 13 discriminator 1 view .LVU447
 1379 017e 9A42     		cmp	r2, r3
 1380 0180 0AD9     		bls	.L112
 454:Middlewares/lvgl/src/extra/layouts/flex/lv_flex.c ****                     s = t->grow_dsc[i].final_size;
 1381              		.loc 2 454 17 is_stmt 1 view .LVU448
 454:Middlewares/lvgl/src/extra/layouts/flex/lv_flex.c ****                     s = t->grow_dsc[i].final_size;
 1382              		.loc 2 454 21 is_stmt 0 view .LVU449
 1383 0182 E268     		ldr	r2, [r4, #12]
 454:Middlewares/lvgl/src/extra/layouts/flex/lv_flex.c ****                     s = t->grow_dsc[i].final_size;
 1384              		.loc 2 454 31 view .LVU450
 1385 0184 03EB8301 		add	r1, r3, r3, lsl #2
 1386 0188 02EB8100 		add	r0, r2, r1, lsl #2
 454:Middlewares/lvgl/src/extra/layouts/flex/lv_flex.c ****                     s = t->grow_dsc[i].final_size;
 1387              		.loc 2 454 34 view .LVU451
 1388 018c 52F82120 		ldr	r2, [r2, r1, lsl #2]
 454:Middlewares/lvgl/src/extra/layouts/flex/lv_flex.c ****                     s = t->grow_dsc[i].final_size;
 1389              		.loc 2 454 19 view .LVU452
 1390 0190 AA42     		cmp	r2, r5
 1391 0192 EFD0     		beq	.L113
 453:Middlewares/lvgl/src/extra/layouts/flex/lv_flex.c ****                 if(t->grow_dsc[i].item == item) {
 1392              		.loc 2 453 46 is_stmt 1 discriminator 2 view .LVU453
 453:Middlewares/lvgl/src/extra/layouts/flex/lv_flex.c ****                 if(t->grow_dsc[i].item == item) {
 1393              		.loc 2 453 47 is_stmt 0 discriminator 2 view .LVU454
 1394 0194 0133     		adds	r3, r3, #1
ARM GAS  /tmp/ccU94mph.s 			page 50


 1395              	.LVL137:
 453:Middlewares/lvgl/src/extra/layouts/flex/lv_flex.c ****                 if(t->grow_dsc[i].item == item) {
 1396              		.loc 2 453 47 discriminator 2 view .LVU455
 1397 0196 F1E7     		b	.L72
 1398              	.L112:
 452:Middlewares/lvgl/src/extra/layouts/flex/lv_flex.c ****             for(i = 0; i < t->grow_item_cnt; i++) {
 1399              		.loc 2 452 24 view .LVU456
 1400 0198 0027     		movs	r7, #0
 1401              	.L75:
 1402              	.LVL138:
 460:Middlewares/lvgl/src/extra/layouts/flex/lv_flex.c ****             else item->h_layout = 1;
 1403              		.loc 2 460 13 is_stmt 1 view .LVU457
 460:Middlewares/lvgl/src/extra/layouts/flex/lv_flex.c ****             else item->h_layout = 1;
 1404              		.loc 2 460 16 is_stmt 0 view .LVU458
 1405 019a 99F80330 		ldrb	r3, [r9, #3]	@ zero_extendqisi2
 1406              	.LVL139:
 460:Middlewares/lvgl/src/extra/layouts/flex/lv_flex.c ****             else item->h_layout = 1;
 1407              		.loc 2 460 15 view .LVU459
 1408 019e 13F0010F 		tst	r3, #1
 1409 01a2 34D0     		beq	.L77
 460:Middlewares/lvgl/src/extra/layouts/flex/lv_flex.c ****             else item->h_layout = 1;
 1410              		.loc 2 460 24 is_stmt 1 discriminator 1 view .LVU460
 460:Middlewares/lvgl/src/extra/layouts/flex/lv_flex.c ****             else item->h_layout = 1;
 1411              		.loc 2 460 39 is_stmt 0 discriminator 1 view .LVU461
 1412 01a4 95F82330 		ldrb	r3, [r5, #35]	@ zero_extendqisi2
 1413 01a8 43F00403 		orr	r3, r3, #4
 1414 01ac 85F82330 		strb	r3, [r5, #35]
 1415              	.L78:
 463:Middlewares/lvgl/src/extra/layouts/flex/lv_flex.c ****                 lv_obj_invalidate(item);
 1416              		.loc 2 463 13 is_stmt 1 view .LVU462
 463:Middlewares/lvgl/src/extra/layouts/flex/lv_flex.c ****                 lv_obj_invalidate(item);
 1417              		.loc 2 463 40 is_stmt 0 view .LVU463
 1418 01b0 05F11406 		add	r6, r5, #20
 463:Middlewares/lvgl/src/extra/layouts/flex/lv_flex.c ****                 lv_obj_invalidate(item);
 1419              		.loc 2 463 21 view .LVU464
 1420 01b4 3046     		mov	r0, r6
 1421 01b6 069B     		ldr	r3, [sp, #24]
 1422 01b8 9847     		blx	r3
 1423              	.LVL140:
 463:Middlewares/lvgl/src/extra/layouts/flex/lv_flex.c ****                 lv_obj_invalidate(item);
 1424              		.loc 2 463 15 view .LVU465
 1425 01ba B842     		cmp	r0, r7
 1426 01bc 00F0F080 		beq	.L79
 1427              	.LBB89:
 464:Middlewares/lvgl/src/extra/layouts/flex/lv_flex.c **** 
 1428              		.loc 2 464 17 is_stmt 1 view .LVU466
 1429 01c0 2846     		mov	r0, r5
 1430 01c2 FFF7FEFF 		bl	lv_obj_invalidate
 1431              	.LVL141:
 466:Middlewares/lvgl/src/extra/layouts/flex/lv_flex.c ****                 lv_area_copy(&old_coords, &item->coords);
 1432              		.loc 2 466 17 view .LVU467
 467:Middlewares/lvgl/src/extra/layouts/flex/lv_flex.c ****                 area_set_main_size(&item->coords, s);
 1433              		.loc 2 467 17 view .LVU468
 1434              	.LBB90:
 1435              	.LBI90:
 120:Middlewares/lvgl/src/extra/layouts/flex/../flex/../../../core/../misc/../font/../misc/lv_area.h **** {
 1436              		.loc 1 120 20 view .LVU469
ARM GAS  /tmp/ccU94mph.s 			page 51


 1437              	.LBB91:
 122:Middlewares/lvgl/src/extra/layouts/flex/../flex/../../../core/../misc/../font/../misc/lv_area.h ****     dest->y1 = src->y1;
 1438              		.loc 1 122 5 view .LVU470
 122:Middlewares/lvgl/src/extra/layouts/flex/../flex/../../../core/../misc/../font/../misc/lv_area.h ****     dest->y1 = src->y1;
 1439              		.loc 1 122 19 is_stmt 0 view .LVU471
 1440 01c6 B5F91430 		ldrsh	r3, [r5, #20]
 122:Middlewares/lvgl/src/extra/layouts/flex/../flex/../../../core/../misc/../font/../misc/lv_area.h ****     dest->y1 = src->y1;
 1441              		.loc 1 122 14 view .LVU472
 1442 01ca ADF83C30 		strh	r3, [sp, #60]	@ movhi
 123:Middlewares/lvgl/src/extra/layouts/flex/../flex/../../../core/../misc/../font/../misc/lv_area.h ****     dest->x2 = src->x2;
 1443              		.loc 1 123 5 is_stmt 1 view .LVU473
 123:Middlewares/lvgl/src/extra/layouts/flex/../flex/../../../core/../misc/../font/../misc/lv_area.h ****     dest->x2 = src->x2;
 1444              		.loc 1 123 19 is_stmt 0 view .LVU474
 1445 01ce B5F91630 		ldrsh	r3, [r5, #22]
 123:Middlewares/lvgl/src/extra/layouts/flex/../flex/../../../core/../misc/../font/../misc/lv_area.h ****     dest->x2 = src->x2;
 1446              		.loc 1 123 14 view .LVU475
 1447 01d2 ADF83E30 		strh	r3, [sp, #62]	@ movhi
 124:Middlewares/lvgl/src/extra/layouts/flex/../flex/../../../core/../misc/../font/../misc/lv_area.h ****     dest->y2 = src->y2;
 1448              		.loc 1 124 5 is_stmt 1 view .LVU476
 124:Middlewares/lvgl/src/extra/layouts/flex/../flex/../../../core/../misc/../font/../misc/lv_area.h ****     dest->y2 = src->y2;
 1449              		.loc 1 124 19 is_stmt 0 view .LVU477
 1450 01d6 B5F91830 		ldrsh	r3, [r5, #24]
 124:Middlewares/lvgl/src/extra/layouts/flex/../flex/../../../core/../misc/../font/../misc/lv_area.h ****     dest->y2 = src->y2;
 1451              		.loc 1 124 14 view .LVU478
 1452 01da ADF84030 		strh	r3, [sp, #64]	@ movhi
 125:Middlewares/lvgl/src/extra/layouts/flex/../flex/../../../core/../misc/../font/../misc/lv_area.h **** }
 1453              		.loc 1 125 5 is_stmt 1 view .LVU479
 125:Middlewares/lvgl/src/extra/layouts/flex/../flex/../../../core/../misc/../font/../misc/lv_area.h **** }
 1454              		.loc 1 125 19 is_stmt 0 view .LVU480
 1455 01de B5F91A30 		ldrsh	r3, [r5, #26]
 125:Middlewares/lvgl/src/extra/layouts/flex/../flex/../../../core/../misc/../font/../misc/lv_area.h **** }
 1456              		.loc 1 125 14 view .LVU481
 1457 01e2 ADF84230 		strh	r3, [sp, #66]	@ movhi
 1458              	.LVL142:
 125:Middlewares/lvgl/src/extra/layouts/flex/../flex/../../../core/../misc/../font/../misc/lv_area.h **** }
 1459              		.loc 1 125 14 view .LVU482
 1460              	.LBE91:
 1461              	.LBE90:
 468:Middlewares/lvgl/src/extra/layouts/flex/lv_flex.c ****                 lv_event_send(item, LV_EVENT_SIZE_CHANGED, &old_coords);
 1462              		.loc 2 468 17 is_stmt 1 view .LVU483
 1463 01e6 3946     		mov	r1, r7
 1464 01e8 3046     		mov	r0, r6
 1465 01ea 0C9B     		ldr	r3, [sp, #48]
 1466 01ec 9847     		blx	r3
 1467              	.LVL143:
 469:Middlewares/lvgl/src/extra/layouts/flex/lv_flex.c ****                 lv_event_send(lv_obj_get_parent(item), LV_EVENT_CHILD_CHANGED, item);
 1468              		.loc 2 469 17 view .LVU484
 1469 01ee 0FAA     		add	r2, sp, #60
 1470 01f0 2321     		movs	r1, #35
 1471 01f2 2846     		mov	r0, r5
 1472 01f4 FFF7FEFF 		bl	lv_event_send
 1473              	.LVL144:
 470:Middlewares/lvgl/src/extra/layouts/flex/lv_flex.c ****                 lv_obj_invalidate(item);
 1474              		.loc 2 470 17 view .LVU485
 1475 01f8 2846     		mov	r0, r5
 1476 01fa FFF7FEFF 		bl	lv_obj_get_parent
 1477              	.LVL145:
ARM GAS  /tmp/ccU94mph.s 			page 52


 1478 01fe 2A46     		mov	r2, r5
 1479 0200 2221     		movs	r1, #34
 1480 0202 FFF7FEFF 		bl	lv_event_send
 1481              	.LVL146:
 471:Middlewares/lvgl/src/extra/layouts/flex/lv_flex.c ****             }
 1482              		.loc 2 471 17 view .LVU486
 1483 0206 2846     		mov	r0, r5
 1484 0208 FFF7FEFF 		bl	lv_obj_invalidate
 1485              	.LVL147:
 1486 020c C8E0     		b	.L79
 1487              	.L77:
 471:Middlewares/lvgl/src/extra/layouts/flex/lv_flex.c ****             }
 1488              		.loc 2 471 17 is_stmt 0 view .LVU487
 1489              	.LBE89:
 461:Middlewares/lvgl/src/extra/layouts/flex/lv_flex.c **** 
 1490              		.loc 2 461 18 is_stmt 1 view .LVU488
 461:Middlewares/lvgl/src/extra/layouts/flex/lv_flex.c **** 
 1491              		.loc 2 461 33 is_stmt 0 view .LVU489
 1492 020e 95F82330 		ldrb	r3, [r5, #35]	@ zero_extendqisi2
 1493 0212 43F00203 		orr	r3, r3, #2
 1494 0216 85F82330 		strb	r3, [r5, #35]
 1495 021a C9E7     		b	.L78
 1496              	.LVL148:
 1497              	.L80:
 461:Middlewares/lvgl/src/extra/layouts/flex/lv_flex.c **** 
 1498              		.loc 2 461 33 view .LVU490
 1499              	.LBE88:
 486:Middlewares/lvgl/src/extra/layouts/flex/lv_flex.c ****             break;
 1500              		.loc 2 486 13 is_stmt 1 view .LVU491
 486:Middlewares/lvgl/src/extra/layouts/flex/lv_flex.c ****             break;
 1501              		.loc 2 486 26 is_stmt 0 view .LVU492
 1502 021c 2688     		ldrh	r6, [r4]
 486:Middlewares/lvgl/src/extra/layouts/flex/lv_flex.c ****             break;
 1503              		.loc 2 486 47 view .LVU493
 1504 021e 05F11400 		add	r0, r5, #20
 1505 0222 0B9B     		ldr	r3, [sp, #44]
 1506 0224 9847     		blx	r3
 1507              	.LVL149:
 1508 0226 80B2     		uxth	r0, r0
 486:Middlewares/lvgl/src/extra/layouts/flex/lv_flex.c ****             break;
 1509              		.loc 2 486 45 view .LVU494
 1510 0228 361A     		subs	r6, r6, r0
 486:Middlewares/lvgl/src/extra/layouts/flex/lv_flex.c ****             break;
 1511              		.loc 2 486 23 view .LVU495
 1512 022a 33B2     		sxth	r3, r6
 1513 022c 0393     		str	r3, [sp, #12]
 1514              	.LVL150:
 487:Middlewares/lvgl/src/extra/layouts/flex/lv_flex.c ****         default:
 1515              		.loc 2 487 13 is_stmt 1 view .LVU496
 1516 022e 09E0     		b	.L81
 1517              	.L120:
 1518              		.align	2
 1519              	.L119:
 1520 0230 00000000 		.word	lv_area_set_width
 1521 0234 00000000 		.word	lv_area_get_width
 1522 0238 00000000 		.word	lv_area_set_height
 1523 023c 00000000 		.word	lv_area_get_height
ARM GAS  /tmp/ccU94mph.s 			page 53


 1524              	.LVL151:
 1525              	.L104:
 479:Middlewares/lvgl/src/extra/layouts/flex/lv_flex.c ****         case LV_FLEX_ALIGN_CENTER:
 1526              		.loc 2 479 9 is_stmt 0 view .LVU497
 1527 0240 0023     		movs	r3, #0
 1528 0242 0393     		str	r3, [sp, #12]
 1529              	.LVL152:
 1530              	.L81:
 492:Middlewares/lvgl/src/extra/layouts/flex/lv_flex.c **** 
 1531              		.loc 2 492 9 is_stmt 1 view .LVU498
 492:Middlewares/lvgl/src/extra/layouts/flex/lv_flex.c **** 
 1532              		.loc 2 492 12 is_stmt 0 view .LVU499
 1533 0244 99F80330 		ldrb	r3, [r9, #3]	@ zero_extendqisi2
 492:Middlewares/lvgl/src/extra/layouts/flex/lv_flex.c **** 
 1534              		.loc 2 492 11 view .LVU500
 1535 0248 13F0010F 		tst	r3, #1
 1536 024c 03D0     		beq	.L82
 492:Middlewares/lvgl/src/extra/layouts/flex/lv_flex.c **** 
 1537              		.loc 2 492 19 discriminator 1 view .LVU501
 1538 024e 079B     		ldr	r3, [sp, #28]
 1539 0250 012B     		cmp	r3, #1
 1540 0252 00F0BD80 		beq	.L114
 1541              	.L82:
 496:Middlewares/lvgl/src/extra/layouts/flex/lv_flex.c ****         lv_coord_t tr_y = lv_obj_get_style_translate_y(item, LV_PART_MAIN);
 1542              		.loc 2 496 9 is_stmt 1 view .LVU502
 1543              	.LVL153:
 1544              	.LBB92:
 1545              	.LBI92:
  67:Middlewares/lvgl/src/extra/layouts/flex/../flex/../../../core/lv_obj_style_gen.h **** {
 1546              		.loc 3 67 26 view .LVU503
 1547              	.LBB93:
  69:Middlewares/lvgl/src/extra/layouts/flex/../flex/../../../core/lv_obj_style_gen.h ****     return (lv_coord_t)v.num;
 1548              		.loc 3 69 5 view .LVU504
  69:Middlewares/lvgl/src/extra/layouts/flex/../flex/../../../core/lv_obj_style_gen.h ****     return (lv_coord_t)v.num;
 1549              		.loc 3 69 26 is_stmt 0 view .LVU505
 1550 0256 43F20C02 		movw	r2, #12300
 1551 025a 0021     		movs	r1, #0
 1552 025c 2846     		mov	r0, r5
 1553 025e FFF7FEFF 		bl	lv_obj_get_style_prop
 1554              	.LVL154:
 1555 0262 0746     		mov	r7, r0
 1556              	.LVL155:
  70:Middlewares/lvgl/src/extra/layouts/flex/../flex/../../../core/lv_obj_style_gen.h **** }
 1557              		.loc 3 70 5 is_stmt 1 view .LVU506
  70:Middlewares/lvgl/src/extra/layouts/flex/../flex/../../../core/lv_obj_style_gen.h **** }
 1558              		.loc 3 70 12 is_stmt 0 view .LVU507
 1559 0264 0FFA80FB 		sxth	fp, r0
 1560              	.LVL156:
  70:Middlewares/lvgl/src/extra/layouts/flex/../flex/../../../core/lv_obj_style_gen.h **** }
 1561              		.loc 3 70 12 view .LVU508
 1562              	.LBE93:
 1563              	.LBE92:
 497:Middlewares/lvgl/src/extra/layouts/flex/lv_flex.c ****         lv_coord_t w = lv_obj_get_width(item);
 1564              		.loc 2 497 9 is_stmt 1 view .LVU509
 1565              	.LBB94:
 1566              	.LBI94:
  73:Middlewares/lvgl/src/extra/layouts/flex/../flex/../../../core/lv_obj_style_gen.h **** {
ARM GAS  /tmp/ccU94mph.s 			page 54


 1567              		.loc 3 73 26 view .LVU510
 1568              	.LBB95:
  75:Middlewares/lvgl/src/extra/layouts/flex/../flex/../../../core/lv_obj_style_gen.h ****     return (lv_coord_t)v.num;
 1569              		.loc 3 75 5 view .LVU511
  75:Middlewares/lvgl/src/extra/layouts/flex/../flex/../../../core/lv_obj_style_gen.h ****     return (lv_coord_t)v.num;
 1570              		.loc 3 75 26 is_stmt 0 view .LVU512
 1571 0268 43F20D02 		movw	r2, #12301
 1572 026c 0021     		movs	r1, #0
 1573 026e 2846     		mov	r0, r5
  75:Middlewares/lvgl/src/extra/layouts/flex/../flex/../../../core/lv_obj_style_gen.h ****     return (lv_coord_t)v.num;
 1574              		.loc 3 75 26 view .LVU513
 1575 0270 FFF7FEFF 		bl	lv_obj_get_style_prop
 1576              	.LVL157:
 1577 0274 0646     		mov	r6, r0
  76:Middlewares/lvgl/src/extra/layouts/flex/../flex/../../../core/lv_obj_style_gen.h **** }
 1578              		.loc 3 76 5 is_stmt 1 view .LVU514
  76:Middlewares/lvgl/src/extra/layouts/flex/../flex/../../../core/lv_obj_style_gen.h **** }
 1579              		.loc 3 76 12 is_stmt 0 view .LVU515
 1580 0276 0FFA80FA 		sxth	r10, r0
 1581              	.LVL158:
  76:Middlewares/lvgl/src/extra/layouts/flex/../flex/../../../core/lv_obj_style_gen.h **** }
 1582              		.loc 3 76 12 view .LVU516
 1583              	.LBE95:
 1584              	.LBE94:
 498:Middlewares/lvgl/src/extra/layouts/flex/lv_flex.c ****         lv_coord_t h = lv_obj_get_height(item);
 1585              		.loc 2 498 9 is_stmt 1 view .LVU517
 498:Middlewares/lvgl/src/extra/layouts/flex/lv_flex.c ****         lv_coord_t h = lv_obj_get_height(item);
 1586              		.loc 2 498 24 is_stmt 0 view .LVU518
 1587 027a 2846     		mov	r0, r5
 1588 027c FFF7FEFF 		bl	lv_obj_get_width
 1589              	.LVL159:
 1590 0280 8046     		mov	r8, r0
 1591              	.LVL160:
 499:Middlewares/lvgl/src/extra/layouts/flex/lv_flex.c ****         if(LV_COORD_IS_PCT(tr_x)) tr_x = (w * LV_COORD_GET_PCT(tr_x)) / 100;
 1592              		.loc 2 499 9 is_stmt 1 view .LVU519
 499:Middlewares/lvgl/src/extra/layouts/flex/lv_flex.c ****         if(LV_COORD_IS_PCT(tr_x)) tr_x = (w * LV_COORD_GET_PCT(tr_x)) / 100;
 1593              		.loc 2 499 24 is_stmt 0 view .LVU520
 1594 0282 2846     		mov	r0, r5
 1595 0284 FFF7FEFF 		bl	lv_obj_get_height
 1596              	.LVL161:
 500:Middlewares/lvgl/src/extra/layouts/flex/lv_flex.c ****         if(LV_COORD_IS_PCT(tr_y)) tr_y = (h * LV_COORD_GET_PCT(tr_y)) / 100;
 1597              		.loc 2 500 9 is_stmt 1 view .LVU521
 500:Middlewares/lvgl/src/extra/layouts/flex/lv_flex.c ****         if(LV_COORD_IS_PCT(tr_y)) tr_y = (h * LV_COORD_GET_PCT(tr_y)) / 100;
 1598              		.loc 2 500 12 is_stmt 0 view .LVU522
 1599 0288 07F4C047 		and	r7, r7, #24576
 1600              	.LVL162:
 500:Middlewares/lvgl/src/extra/layouts/flex/lv_flex.c ****         if(LV_COORD_IS_PCT(tr_y)) tr_y = (h * LV_COORD_GET_PCT(tr_y)) / 100;
 1601              		.loc 2 500 11 view .LVU523
 1602 028c B7F5005F 		cmp	r7, #8192
 1603 0290 00F0A980 		beq	.L115
 1604              	.LVL163:
 1605              	.L83:
 501:Middlewares/lvgl/src/extra/layouts/flex/lv_flex.c **** 
 1606              		.loc 2 501 9 is_stmt 1 view .LVU524
 501:Middlewares/lvgl/src/extra/layouts/flex/lv_flex.c **** 
 1607              		.loc 2 501 12 is_stmt 0 view .LVU525
 1608 0294 06F4C046 		and	r6, r6, #24576
ARM GAS  /tmp/ccU94mph.s 			page 55


 501:Middlewares/lvgl/src/extra/layouts/flex/lv_flex.c **** 
 1609              		.loc 2 501 11 view .LVU526
 1610 0298 B6F5005F 		cmp	r6, #8192
 1611 029c 00F0BA80 		beq	.L116
 1612              	.L86:
 503:Middlewares/lvgl/src/extra/layouts/flex/lv_flex.c ****         lv_coord_t diff_y = abs_y - item->coords.y1 + tr_y;
 1613              		.loc 2 503 9 is_stmt 1 view .LVU527
 503:Middlewares/lvgl/src/extra/layouts/flex/lv_flex.c ****         lv_coord_t diff_y = abs_y - item->coords.y1 + tr_y;
 1614              		.loc 2 503 49 is_stmt 0 view .LVU528
 1615 02a0 AE8A     		ldrh	r6, [r5, #20]
 503:Middlewares/lvgl/src/extra/layouts/flex/lv_flex.c ****         lv_coord_t diff_y = abs_y - item->coords.y1 + tr_y;
 1616              		.loc 2 503 35 view .LVU529
 1617 02a2 089B     		ldr	r3, [sp, #32]
 1618 02a4 9E1B     		subs	r6, r3, r6
 503:Middlewares/lvgl/src/extra/layouts/flex/lv_flex.c ****         lv_coord_t diff_y = abs_y - item->coords.y1 + tr_y;
 1619              		.loc 2 503 53 view .LVU530
 1620 02a6 1BFA86F6 		uxtah	r6, fp, r6
 1621 02aa B6B2     		uxth	r6, r6
 1622              	.LVL164:
 504:Middlewares/lvgl/src/extra/layouts/flex/lv_flex.c ****         diff_x += f->row ? main_pos : cross_pos;
 1623              		.loc 2 504 9 is_stmt 1 view .LVU531
 504:Middlewares/lvgl/src/extra/layouts/flex/lv_flex.c ****         diff_x += f->row ? main_pos : cross_pos;
 1624              		.loc 2 504 49 is_stmt 0 view .LVU532
 1625 02ac EA8A     		ldrh	r2, [r5, #22]
 504:Middlewares/lvgl/src/extra/layouts/flex/lv_flex.c ****         diff_x += f->row ? main_pos : cross_pos;
 1626              		.loc 2 504 35 view .LVU533
 1627 02ae 099B     		ldr	r3, [sp, #36]
 1628 02b0 9A1A     		subs	r2, r3, r2
 504:Middlewares/lvgl/src/extra/layouts/flex/lv_flex.c ****         diff_x += f->row ? main_pos : cross_pos;
 1629              		.loc 2 504 53 view .LVU534
 1630 02b2 1AFA82F2 		uxtah	r2, r10, r2
 1631 02b6 92B2     		uxth	r2, r2
 1632              	.LVL165:
 505:Middlewares/lvgl/src/extra/layouts/flex/lv_flex.c ****         diff_y += f->row ? cross_pos : main_pos;
 1633              		.loc 2 505 9 is_stmt 1 view .LVU535
 505:Middlewares/lvgl/src/extra/layouts/flex/lv_flex.c ****         diff_y += f->row ? cross_pos : main_pos;
 1634              		.loc 2 505 26 is_stmt 0 view .LVU536
 1635 02b8 99F80330 		ldrb	r3, [r9, #3]	@ zero_extendqisi2
 505:Middlewares/lvgl/src/extra/layouts/flex/lv_flex.c ****         diff_y += f->row ? cross_pos : main_pos;
 1636              		.loc 2 505 16 view .LVU537
 1637 02bc 13F00103 		ands	r3, r3, #1
 1638 02c0 00F0BF80 		beq	.L89
 505:Middlewares/lvgl/src/extra/layouts/flex/lv_flex.c ****         diff_y += f->row ? cross_pos : main_pos;
 1639              		.loc 2 505 16 discriminator 1 view .LVU538
 1640 02c4 BDF846B0 		ldrh	fp, [sp, #70]
 1641              	.LVL166:
 1642              	.L90:
 505:Middlewares/lvgl/src/extra/layouts/flex/lv_flex.c ****         diff_y += f->row ? cross_pos : main_pos;
 1643              		.loc 2 505 16 discriminator 4 view .LVU539
 1644 02c8 5E44     		add	r6, r6, fp
 1645              	.LVL167:
 505:Middlewares/lvgl/src/extra/layouts/flex/lv_flex.c ****         diff_y += f->row ? cross_pos : main_pos;
 1646              		.loc 2 505 16 discriminator 4 view .LVU540
 1647 02ca 1FFA86F8 		uxth	r8, r6
 1648 02ce 36B2     		sxth	r6, r6
 1649              	.LVL168:
 506:Middlewares/lvgl/src/extra/layouts/flex/lv_flex.c **** 
ARM GAS  /tmp/ccU94mph.s 			page 56


 1650              		.loc 2 506 9 is_stmt 1 discriminator 4 view .LVU541
 506:Middlewares/lvgl/src/extra/layouts/flex/lv_flex.c **** 
 1651              		.loc 2 506 16 is_stmt 0 discriminator 4 view .LVU542
 1652 02d0 002B     		cmp	r3, #0
 1653 02d2 00F0B980 		beq	.L91
 506:Middlewares/lvgl/src/extra/layouts/flex/lv_flex.c **** 
 1654              		.loc 2 506 16 discriminator 1 view .LVU543
 1655 02d6 BDF80CA0 		ldrh	r10, [sp, #12]
 1656              	.LVL169:
 1657              	.L92:
 506:Middlewares/lvgl/src/extra/layouts/flex/lv_flex.c **** 
 1658              		.loc 2 506 16 discriminator 4 view .LVU544
 1659 02da 5244     		add	r2, r2, r10
 1660              	.LVL170:
 506:Middlewares/lvgl/src/extra/layouts/flex/lv_flex.c **** 
 1661              		.loc 2 506 16 discriminator 4 view .LVU545
 1662 02dc 1FFA82FA 		uxth	r10, r2
 1663 02e0 17B2     		sxth	r7, r2
 1664              	.LVL171:
 508:Middlewares/lvgl/src/extra/layouts/flex/lv_flex.c ****             lv_obj_invalidate(item);
 1665              		.loc 2 508 9 is_stmt 1 discriminator 4 view .LVU546
 508:Middlewares/lvgl/src/extra/layouts/flex/lv_flex.c ****             lv_obj_invalidate(item);
 1666              		.loc 2 508 11 is_stmt 0 discriminator 4 view .LVU547
 1667 02e2 06B9     		cbnz	r6, .L93
 508:Middlewares/lvgl/src/extra/layouts/flex/lv_flex.c ****             lv_obj_invalidate(item);
 1668              		.loc 2 508 19 discriminator 1 view .LVU548
 1669 02e4 CFB1     		cbz	r7, .L94
 1670              	.L93:
 509:Middlewares/lvgl/src/extra/layouts/flex/lv_flex.c ****             item->coords.x1 += diff_x;
 1671              		.loc 2 509 13 is_stmt 1 view .LVU549
 1672 02e6 2846     		mov	r0, r5
 1673              	.LVL172:
 509:Middlewares/lvgl/src/extra/layouts/flex/lv_flex.c ****             item->coords.x1 += diff_x;
 1674              		.loc 2 509 13 is_stmt 0 view .LVU550
 1675 02e8 FFF7FEFF 		bl	lv_obj_invalidate
 1676              	.LVL173:
 510:Middlewares/lvgl/src/extra/layouts/flex/lv_flex.c ****             item->coords.x2 += diff_x;
 1677              		.loc 2 510 13 is_stmt 1 view .LVU551
 510:Middlewares/lvgl/src/extra/layouts/flex/lv_flex.c ****             item->coords.x2 += diff_x;
 1678              		.loc 2 510 29 is_stmt 0 view .LVU552
 1679 02ec AB8A     		ldrh	r3, [r5, #20]
 1680 02ee 4344     		add	r3, r3, r8
 1681 02f0 AB82     		strh	r3, [r5, #20]	@ movhi
 511:Middlewares/lvgl/src/extra/layouts/flex/lv_flex.c ****             item->coords.y1 += diff_y;
 1682              		.loc 2 511 13 is_stmt 1 view .LVU553
 511:Middlewares/lvgl/src/extra/layouts/flex/lv_flex.c ****             item->coords.y1 += diff_y;
 1683              		.loc 2 511 29 is_stmt 0 view .LVU554
 1684 02f2 2B8B     		ldrh	r3, [r5, #24]
 1685 02f4 9844     		add	r8, r8, r3
 1686 02f6 A5F81880 		strh	r8, [r5, #24]	@ movhi
 512:Middlewares/lvgl/src/extra/layouts/flex/lv_flex.c ****             item->coords.y2 += diff_y;
 1687              		.loc 2 512 13 is_stmt 1 view .LVU555
 512:Middlewares/lvgl/src/extra/layouts/flex/lv_flex.c ****             item->coords.y2 += diff_y;
 1688              		.loc 2 512 29 is_stmt 0 view .LVU556
 1689 02fa EB8A     		ldrh	r3, [r5, #22]
 1690 02fc 5344     		add	r3, r3, r10
 1691 02fe EB82     		strh	r3, [r5, #22]	@ movhi
ARM GAS  /tmp/ccU94mph.s 			page 57


 513:Middlewares/lvgl/src/extra/layouts/flex/lv_flex.c ****             lv_obj_invalidate(item);
 1692              		.loc 2 513 13 is_stmt 1 view .LVU557
 513:Middlewares/lvgl/src/extra/layouts/flex/lv_flex.c ****             lv_obj_invalidate(item);
 1693              		.loc 2 513 29 is_stmt 0 view .LVU558
 1694 0300 6B8B     		ldrh	r3, [r5, #26]
 1695 0302 9A44     		add	r10, r10, r3
 1696 0304 A5F81AA0 		strh	r10, [r5, #26]	@ movhi
 514:Middlewares/lvgl/src/extra/layouts/flex/lv_flex.c ****             lv_obj_move_children_by(item, diff_x, diff_y, true);
 1697              		.loc 2 514 13 is_stmt 1 view .LVU559
 1698 0308 2846     		mov	r0, r5
 1699 030a FFF7FEFF 		bl	lv_obj_invalidate
 1700              	.LVL174:
 515:Middlewares/lvgl/src/extra/layouts/flex/lv_flex.c ****         }
 1701              		.loc 2 515 13 view .LVU560
 1702 030e 0123     		movs	r3, #1
 1703 0310 3A46     		mov	r2, r7
 1704 0312 3146     		mov	r1, r6
 1705 0314 2846     		mov	r0, r5
 1706 0316 FFF7FEFF 		bl	lv_obj_move_children_by
 1707              	.LVL175:
 1708              	.L94:
 518:Middlewares/lvgl/src/extra/layouts/flex/lv_flex.c ****         else main_pos -= item_gap + place_gap;
 1709              		.loc 2 518 9 view .LVU561
 518:Middlewares/lvgl/src/extra/layouts/flex/lv_flex.c ****         else main_pos -= item_gap + place_gap;
 1710              		.loc 2 518 14 is_stmt 0 view .LVU562
 1711 031a 99F80330 		ldrb	r3, [r9, #3]	@ zero_extendqisi2
 518:Middlewares/lvgl/src/extra/layouts/flex/lv_flex.c ****         else main_pos -= item_gap + place_gap;
 1712              		.loc 2 518 11 view .LVU563
 1713 031e 13F0010F 		tst	r3, #1
 1714 0322 03D0     		beq	.L95
 518:Middlewares/lvgl/src/extra/layouts/flex/lv_flex.c ****         else main_pos -= item_gap + place_gap;
 1715              		.loc 2 518 12 discriminator 2 view .LVU564
 1716 0324 079B     		ldr	r3, [sp, #28]
 1717 0326 012B     		cmp	r3, #1
 1718 0328 00F09180 		beq	.L96
 1719              	.L95:
 518:Middlewares/lvgl/src/extra/layouts/flex/lv_flex.c ****         else main_pos -= item_gap + place_gap;
 1720              		.loc 2 518 30 is_stmt 1 discriminator 3 view .LVU565
 518:Middlewares/lvgl/src/extra/layouts/flex/lv_flex.c ****         else main_pos -= item_gap + place_gap;
 1721              		.loc 2 518 42 is_stmt 0 discriminator 3 view .LVU566
 1722 032c 05F11400 		add	r0, r5, #20
 1723 0330 069B     		ldr	r3, [sp, #24]
 1724 0332 9847     		blx	r3
 1725              	.LVL176:
 518:Middlewares/lvgl/src/extra/layouts/flex/lv_flex.c ****         else main_pos -= item_gap + place_gap;
 1726              		.loc 2 518 76 discriminator 3 view .LVU567
 1727 0334 0A9B     		ldr	r3, [sp, #40]
 1728 0336 1844     		add	r0, r0, r3
 518:Middlewares/lvgl/src/extra/layouts/flex/lv_flex.c ****         else main_pos -= item_gap + place_gap;
 1729              		.loc 2 518 87 discriminator 3 view .LVU568
 1730 0338 BDF94430 		ldrsh	r3, [sp, #68]
 1731 033c 0344     		add	r3, r3, r0
 518:Middlewares/lvgl/src/extra/layouts/flex/lv_flex.c ****         else main_pos -= item_gap + place_gap;
 1732              		.loc 2 518 39 discriminator 3 view .LVU569
 1733 033e BDF84620 		ldrh	r2, [sp, #70]
 1734 0342 1344     		add	r3, r3, r2
 1735 0344 ADF84630 		strh	r3, [sp, #70]	@ movhi
ARM GAS  /tmp/ccU94mph.s 			page 58


 1736              	.L97:
 521:Middlewares/lvgl/src/extra/layouts/flex/lv_flex.c ****     }
 1737              		.loc 2 521 9 is_stmt 1 view .LVU570
 521:Middlewares/lvgl/src/extra/layouts/flex/lv_flex.c ****     }
 1738              		.loc 2 521 37 is_stmt 0 view .LVU571
 1739 0348 99F80310 		ldrb	r1, [r9, #3]	@ zero_extendqisi2
 521:Middlewares/lvgl/src/extra/layouts/flex/lv_flex.c ****     }
 1740              		.loc 2 521 16 view .LVU572
 1741 034c 0DAA     		add	r2, sp, #52
 1742 034e C1F38001 		ubfx	r1, r1, #2, #1
 1743 0352 0498     		ldr	r0, [sp, #16]
 1744 0354 FFF7FEFF 		bl	get_next_item
 1745              	.LVL177:
 1746 0358 0546     		mov	r5, r0
 1747              	.LVL178:
 1748              	.L69:
 521:Middlewares/lvgl/src/extra/layouts/flex/lv_flex.c ****     }
 1749              		.loc 2 521 16 view .LVU573
 1750              	.LBE87:
 445:Middlewares/lvgl/src/extra/layouts/flex/lv_flex.c ****         if(lv_obj_has_flag_any(item, LV_OBJ_FLAG_IGNORE_LAYOUT | LV_OBJ_FLAG_HIDDEN | LV_OBJ_FLAG_F
 1751              		.loc 2 445 10 is_stmt 1 view .LVU574
 1752 035a 002D     		cmp	r5, #0
 1753 035c 00F08280 		beq	.L54
 445:Middlewares/lvgl/src/extra/layouts/flex/lv_flex.c ****         if(lv_obj_has_flag_any(item, LV_OBJ_FLAG_IGNORE_LAYOUT | LV_OBJ_FLAG_HIDDEN | LV_OBJ_FLAG_F
 1754              		.loc 2 445 33 is_stmt 0 discriminator 1 view .LVU575
 1755 0360 0D9B     		ldr	r3, [sp, #52]
 445:Middlewares/lvgl/src/extra/layouts/flex/lv_flex.c ****         if(lv_obj_has_flag_any(item, LV_OBJ_FLAG_IGNORE_LAYOUT | LV_OBJ_FLAG_HIDDEN | LV_OBJ_FLAG_F
 1756              		.loc 2 445 16 discriminator 1 view .LVU576
 1757 0362 059A     		ldr	r2, [sp, #20]
 1758 0364 9342     		cmp	r3, r2
 1759 0366 7DD0     		beq	.L54
 1760              	.LBB98:
 446:Middlewares/lvgl/src/extra/layouts/flex/lv_flex.c ****             item = get_next_item(cont, f->rev, &item_first_id);
 1761              		.loc 2 446 9 is_stmt 1 view .LVU577
 446:Middlewares/lvgl/src/extra/layouts/flex/lv_flex.c ****             item = get_next_item(cont, f->rev, &item_first_id);
 1762              		.loc 2 446 12 is_stmt 0 view .LVU578
 1763 0368 4049     		ldr	r1, .L121
 1764 036a 2846     		mov	r0, r5
 446:Middlewares/lvgl/src/extra/layouts/flex/lv_flex.c ****             item = get_next_item(cont, f->rev, &item_first_id);
 1765              		.loc 2 446 12 view .LVU579
 1766 036c FFF7FEFF 		bl	lv_obj_has_flag_any
 1767              	.LVL179:
 446:Middlewares/lvgl/src/extra/layouts/flex/lv_flex.c ****             item = get_next_item(cont, f->rev, &item_first_id);
 1768              		.loc 2 446 11 view .LVU580
 1769 0370 0028     		cmp	r0, #0
 1770 0372 7FF4F5AE 		bne	.L117
 450:Middlewares/lvgl/src/extra/layouts/flex/lv_flex.c ****         if(grow_size) {
 1771              		.loc 2 450 9 is_stmt 1 view .LVU581
 1772              	.LVL180:
 1773              	.LBB96:
 1774              	.LBI96:
 135:Middlewares/lvgl/src/extra/layouts/flex/../flex/lv_flex.h **** {
 1775              		.loc 4 135 23 view .LVU582
 1776              	.LBB97:
 137:Middlewares/lvgl/src/extra/layouts/flex/../flex/lv_flex.h ****     return (uint8_t)v.num;
 1777              		.loc 4 137 5 view .LVU583
 137:Middlewares/lvgl/src/extra/layouts/flex/../flex/lv_flex.h ****     return (uint8_t)v.num;
ARM GAS  /tmp/ccU94mph.s 			page 59


 1778              		.loc 4 137 26 is_stmt 0 view .LVU584
 1779 0376 3E4B     		ldr	r3, .L121+4
 1780 0378 1A88     		ldrh	r2, [r3]
 1781 037a 0021     		movs	r1, #0
 1782 037c 2846     		mov	r0, r5
 1783 037e FFF7FEFF 		bl	lv_obj_get_style_prop
 1784              	.LVL181:
 1785              		.loc 4 138 5 is_stmt 1 view .LVU585
 1786              		.loc 4 138 5 is_stmt 0 view .LVU586
 1787              	.LBE97:
 1788              	.LBE96:
 451:Middlewares/lvgl/src/extra/layouts/flex/lv_flex.c ****             lv_coord_t s = 0;
 1789              		.loc 2 451 9 is_stmt 1 view .LVU587
 451:Middlewares/lvgl/src/extra/layouts/flex/lv_flex.c ****             lv_coord_t s = 0;
 1790              		.loc 2 451 11 is_stmt 0 view .LVU588
 1791 0382 10F0FF0F 		tst	r0, #255
 1792 0386 7FF4F8AE 		bne	.L118
 474:Middlewares/lvgl/src/extra/layouts/flex/lv_flex.c ****             item->h_layout = 0;
 1793              		.loc 2 474 13 is_stmt 1 view .LVU589
 474:Middlewares/lvgl/src/extra/layouts/flex/lv_flex.c ****             item->h_layout = 0;
 1794              		.loc 2 474 28 is_stmt 0 view .LVU590
 1795 038a 95F82330 		ldrb	r3, [r5, #35]	@ zero_extendqisi2
 1796 038e 6FF38203 		bfc	r3, #2, #1
 1797 0392 85F82330 		strb	r3, [r5, #35]
 475:Middlewares/lvgl/src/extra/layouts/flex/lv_flex.c ****         }
 1798              		.loc 2 475 13 is_stmt 1 view .LVU591
 475:Middlewares/lvgl/src/extra/layouts/flex/lv_flex.c ****         }
 1799              		.loc 2 475 28 is_stmt 0 view .LVU592
 1800 0396 DBB2     		uxtb	r3, r3
 1801 0398 6FF34103 		bfc	r3, #1, #1
 1802 039c 85F82330 		strb	r3, [r5, #35]
 1803              	.LVL182:
 1804              	.L79:
 478:Middlewares/lvgl/src/extra/layouts/flex/lv_flex.c ****         switch(f->cross_place) {
 1805              		.loc 2 478 9 is_stmt 1 view .LVU593
 479:Middlewares/lvgl/src/extra/layouts/flex/lv_flex.c ****         case LV_FLEX_ALIGN_CENTER:
 1806              		.loc 2 479 9 view .LVU594
 479:Middlewares/lvgl/src/extra/layouts/flex/lv_flex.c ****         case LV_FLEX_ALIGN_CENTER:
 1807              		.loc 2 479 17 is_stmt 0 view .LVU595
 1808 03a0 99F80130 		ldrb	r3, [r9, #1]	@ zero_extendqisi2
 479:Middlewares/lvgl/src/extra/layouts/flex/lv_flex.c ****         case LV_FLEX_ALIGN_CENTER:
 1809              		.loc 2 479 9 view .LVU596
 1810 03a4 012B     		cmp	r3, #1
 1811 03a6 3FF439AF 		beq	.L80
 1812 03aa 022B     		cmp	r3, #2
 1813 03ac 7FF448AF 		bne	.L104
 483:Middlewares/lvgl/src/extra/layouts/flex/lv_flex.c ****             break;
 1814              		.loc 2 483 13 is_stmt 1 view .LVU597
 483:Middlewares/lvgl/src/extra/layouts/flex/lv_flex.c ****             break;
 1815              		.loc 2 483 29 is_stmt 0 view .LVU598
 1816 03b0 B4F90000 		ldrsh	r0, [r4]
 483:Middlewares/lvgl/src/extra/layouts/flex/lv_flex.c ****             break;
 1817              		.loc 2 483 48 view .LVU599
 1818 03b4 0130     		adds	r0, r0, #1
 483:Middlewares/lvgl/src/extra/layouts/flex/lv_flex.c ****             break;
 1819              		.loc 2 483 53 view .LVU600
 1820 03b6 20F00106 		bic	r6, r0, #1
ARM GAS  /tmp/ccU94mph.s 			page 60


 483:Middlewares/lvgl/src/extra/layouts/flex/lv_flex.c ****             break;
 1821              		.loc 2 483 63 view .LVU601
 1822 03ba 05F11400 		add	r0, r5, #20
 1823 03be 0B9B     		ldr	r3, [sp, #44]
 1824 03c0 9847     		blx	r3
 1825              	.LVL183:
 483:Middlewares/lvgl/src/extra/layouts/flex/lv_flex.c ****             break;
 1826              		.loc 2 483 61 view .LVU602
 1827 03c2 301A     		subs	r0, r6, r0
 483:Middlewares/lvgl/src/extra/layouts/flex/lv_flex.c ****             break;
 1828              		.loc 2 483 99 view .LVU603
 1829 03c4 00EBD070 		add	r0, r0, r0, lsr #31
 483:Middlewares/lvgl/src/extra/layouts/flex/lv_flex.c ****             break;
 1830              		.loc 2 483 23 view .LVU604
 1831 03c8 40F34F03 		sbfx	r3, r0, #1, #16
 1832 03cc 0393     		str	r3, [sp, #12]
 1833              	.LVL184:
 484:Middlewares/lvgl/src/extra/layouts/flex/lv_flex.c ****         case LV_FLEX_ALIGN_END:
 1834              		.loc 2 484 13 is_stmt 1 view .LVU605
 1835 03ce 39E7     		b	.L81
 1836              	.L114:
 492:Middlewares/lvgl/src/extra/layouts/flex/lv_flex.c **** 
 1837              		.loc 2 492 27 discriminator 2 view .LVU606
 492:Middlewares/lvgl/src/extra/layouts/flex/lv_flex.c **** 
 1838              		.loc 2 492 39 is_stmt 0 discriminator 2 view .LVU607
 1839 03d0 05F11400 		add	r0, r5, #20
 1840 03d4 069B     		ldr	r3, [sp, #24]
 1841 03d6 9847     		blx	r3
 1842              	.LVL185:
 1843 03d8 82B2     		uxth	r2, r0
 492:Middlewares/lvgl/src/extra/layouts/flex/lv_flex.c **** 
 1844              		.loc 2 492 36 discriminator 2 view .LVU608
 1845 03da BDF84630 		ldrh	r3, [sp, #70]
 1846 03de 9B1A     		subs	r3, r3, r2
 1847 03e0 ADF84630 		strh	r3, [sp, #70]	@ movhi
 1848 03e4 37E7     		b	.L82
 1849              	.LVL186:
 1850              	.L115:
 500:Middlewares/lvgl/src/extra/layouts/flex/lv_flex.c ****         if(LV_COORD_IS_PCT(tr_y)) tr_y = (h * LV_COORD_GET_PCT(tr_y)) / 100;
 1851              		.loc 2 500 12 discriminator 1 view .LVU609
 1852 03e6 2BF4C043 		bic	r3, fp, #24576
 1853 03ea B3F5FA6F 		cmp	r3, #2000
 1854 03ee 3FF751AF 		bgt	.L83
 500:Middlewares/lvgl/src/extra/layouts/flex/lv_flex.c ****         if(LV_COORD_IS_PCT(tr_y)) tr_y = (h * LV_COORD_GET_PCT(tr_y)) / 100;
 1855              		.loc 2 500 35 is_stmt 1 discriminator 2 view .LVU610
 500:Middlewares/lvgl/src/extra/layouts/flex/lv_flex.c ****         if(LV_COORD_IS_PCT(tr_y)) tr_y = (h * LV_COORD_GET_PCT(tr_y)) / 100;
 1856              		.loc 2 500 47 is_stmt 0 discriminator 2 view .LVU611
 1857 03f2 B3F57A7F 		cmp	r3, #1000
 1858 03f6 01DD     		ble	.L85
 500:Middlewares/lvgl/src/extra/layouts/flex/lv_flex.c ****         if(LV_COORD_IS_PCT(tr_y)) tr_y = (h * LV_COORD_GET_PCT(tr_y)) / 100;
 1859              		.loc 2 500 47 discriminator 3 view .LVU612
 1860 03f8 C3F57A73 		rsb	r3, r3, #1000
 1861              	.L85:
 500:Middlewares/lvgl/src/extra/layouts/flex/lv_flex.c ****         if(LV_COORD_IS_PCT(tr_y)) tr_y = (h * LV_COORD_GET_PCT(tr_y)) / 100;
 1862              		.loc 2 500 45 discriminator 6 view .LVU613
 1863 03fc 03FB08F8 		mul	r8, r3, r8
 1864              	.LVL187:
ARM GAS  /tmp/ccU94mph.s 			page 61


 500:Middlewares/lvgl/src/extra/layouts/flex/lv_flex.c ****         if(LV_COORD_IS_PCT(tr_y)) tr_y = (h * LV_COORD_GET_PCT(tr_y)) / 100;
 1865              		.loc 2 500 71 discriminator 6 view .LVU614
 1866 0400 1C4B     		ldr	r3, .L121+8
 1867 0402 83FB083B 		smull	r3, fp, r3, r8
 1868              	.LVL188:
 500:Middlewares/lvgl/src/extra/layouts/flex/lv_flex.c ****         if(LV_COORD_IS_PCT(tr_y)) tr_y = (h * LV_COORD_GET_PCT(tr_y)) / 100;
 1869              		.loc 2 500 71 discriminator 6 view .LVU615
 1870 0406 4FEAE878 		asr	r8, r8, #31
 1871 040a C8EB6B1B 		rsb	fp, r8, fp, asr #5
 500:Middlewares/lvgl/src/extra/layouts/flex/lv_flex.c ****         if(LV_COORD_IS_PCT(tr_y)) tr_y = (h * LV_COORD_GET_PCT(tr_y)) / 100;
 1872              		.loc 2 500 40 discriminator 6 view .LVU616
 1873 040e 0FFA8BFB 		sxth	fp, fp
 1874              	.LVL189:
 500:Middlewares/lvgl/src/extra/layouts/flex/lv_flex.c ****         if(LV_COORD_IS_PCT(tr_y)) tr_y = (h * LV_COORD_GET_PCT(tr_y)) / 100;
 1875              		.loc 2 500 40 discriminator 6 view .LVU617
 1876 0412 3FE7     		b	.L83
 1877              	.L116:
 501:Middlewares/lvgl/src/extra/layouts/flex/lv_flex.c **** 
 1878              		.loc 2 501 12 discriminator 1 view .LVU618
 1879 0414 2AF4C043 		bic	r3, r10, #24576
 1880 0418 B3F5FA6F 		cmp	r3, #2000
 1881 041c 3FF740AF 		bgt	.L86
 501:Middlewares/lvgl/src/extra/layouts/flex/lv_flex.c **** 
 1882              		.loc 2 501 35 is_stmt 1 discriminator 2 view .LVU619
 501:Middlewares/lvgl/src/extra/layouts/flex/lv_flex.c **** 
 1883              		.loc 2 501 47 is_stmt 0 discriminator 2 view .LVU620
 1884 0420 B3F57A7F 		cmp	r3, #1000
 1885 0424 01DD     		ble	.L88
 501:Middlewares/lvgl/src/extra/layouts/flex/lv_flex.c **** 
 1886              		.loc 2 501 47 discriminator 3 view .LVU621
 1887 0426 C3F57A73 		rsb	r3, r3, #1000
 1888              	.L88:
 501:Middlewares/lvgl/src/extra/layouts/flex/lv_flex.c **** 
 1889              		.loc 2 501 45 discriminator 6 view .LVU622
 1890 042a 00FB03F3 		mul	r3, r0, r3
 501:Middlewares/lvgl/src/extra/layouts/flex/lv_flex.c **** 
 1891              		.loc 2 501 71 discriminator 6 view .LVU623
 1892 042e 114A     		ldr	r2, .L121+8
 1893 0430 82FB0312 		smull	r1, r2, r2, r3
 1894 0434 4FEAE37A 		asr	r10, r3, #31
 1895              	.LVL190:
 501:Middlewares/lvgl/src/extra/layouts/flex/lv_flex.c **** 
 1896              		.loc 2 501 71 discriminator 6 view .LVU624
 1897 0438 CAEB621A 		rsb	r10, r10, r2, asr #5
 501:Middlewares/lvgl/src/extra/layouts/flex/lv_flex.c **** 
 1898              		.loc 2 501 40 discriminator 6 view .LVU625
 1899 043c 0FFA8AFA 		sxth	r10, r10
 1900              	.LVL191:
 501:Middlewares/lvgl/src/extra/layouts/flex/lv_flex.c **** 
 1901              		.loc 2 501 40 discriminator 6 view .LVU626
 1902 0440 2EE7     		b	.L86
 1903              	.LVL192:
 1904              	.L89:
 505:Middlewares/lvgl/src/extra/layouts/flex/lv_flex.c ****         diff_y += f->row ? cross_pos : main_pos;
 1905              		.loc 2 505 16 discriminator 2 view .LVU627
 1906 0442 BDF80CB0 		ldrh	fp, [sp, #12]
 1907              	.LVL193:
ARM GAS  /tmp/ccU94mph.s 			page 62


 505:Middlewares/lvgl/src/extra/layouts/flex/lv_flex.c ****         diff_y += f->row ? cross_pos : main_pos;
 1908              		.loc 2 505 16 discriminator 2 view .LVU628
 1909 0446 3FE7     		b	.L90
 1910              	.L91:
 506:Middlewares/lvgl/src/extra/layouts/flex/lv_flex.c **** 
 1911              		.loc 2 506 16 discriminator 2 view .LVU629
 1912 0448 BDF846A0 		ldrh	r10, [sp, #70]
 1913              	.LVL194:
 506:Middlewares/lvgl/src/extra/layouts/flex/lv_flex.c **** 
 1914              		.loc 2 506 16 discriminator 2 view .LVU630
 1915 044c 45E7     		b	.L92
 1916              	.LVL195:
 1917              	.L96:
 519:Middlewares/lvgl/src/extra/layouts/flex/lv_flex.c **** 
 1918              		.loc 2 519 14 is_stmt 1 view .LVU631
 519:Middlewares/lvgl/src/extra/layouts/flex/lv_flex.c **** 
 1919              		.loc 2 519 35 is_stmt 0 view .LVU632
 1920 044e BDF84430 		ldrh	r3, [sp, #68]
 1921 0452 0A9A     		ldr	r2, [sp, #40]
 1922 0454 1344     		add	r3, r3, r2
 1923 0456 9BB2     		uxth	r3, r3
 519:Middlewares/lvgl/src/extra/layouts/flex/lv_flex.c **** 
 1924              		.loc 2 519 23 view .LVU633
 1925 0458 BDF84620 		ldrh	r2, [sp, #70]
 1926 045c D31A     		subs	r3, r2, r3
 1927 045e ADF84630 		strh	r3, [sp, #70]	@ movhi
 1928 0462 71E7     		b	.L97
 1929              	.LVL196:
 1930              	.L54:
 519:Middlewares/lvgl/src/extra/layouts/flex/lv_flex.c **** 
 1931              		.loc 2 519 23 view .LVU634
 1932              	.LBE98:
 523:Middlewares/lvgl/src/extra/layouts/flex/lv_flex.c **** 
 1933              		.loc 2 523 1 view .LVU635
 1934 0464 13B0     		add	sp, sp, #76
 1935              	.LCFI9:
 1936              		.cfi_def_cfa_offset 36
 1937              		@ sp needed
 1938 0466 BDE8F08F 		pop	{r4, r5, r6, r7, r8, r9, r10, fp, pc}
 1939              	.LVL197:
 1940              	.L122:
 523:Middlewares/lvgl/src/extra/layouts/flex/lv_flex.c **** 
 1941              		.loc 2 523 1 view .LVU636
 1942 046a 00BF     		.align	2
 1943              	.L121:
 1944 046c 01800100 		.word	98305
 1945 0470 00000000 		.word	.LANCHOR0
 1946 0474 1F85EB51 		.word	1374389535
 1947              		.cfi_endproc
 1948              	.LFE179:
 1950              		.section	.text.flex_update,"ax",%progbits
 1951              		.align	1
 1952              		.syntax unified
 1953              		.thumb
 1954              		.thumb_func
 1955              		.fpu fpv4-sp-d16
 1957              	flex_update:
ARM GAS  /tmp/ccU94mph.s 			page 63


 1958              	.LVL198:
 1959              	.LFB177:
 206:Middlewares/lvgl/src/extra/layouts/flex/lv_flex.c ****     LV_LOG_INFO("update %p container", cont);
 1960              		.loc 2 206 1 is_stmt 1 view -0
 1961              		.cfi_startproc
 1962              		@ args = 0, pretend = 0, frame = 56
 1963              		@ frame_needed = 0, uses_anonymous_args = 0
 206:Middlewares/lvgl/src/extra/layouts/flex/lv_flex.c ****     LV_LOG_INFO("update %p container", cont);
 1964              		.loc 2 206 1 is_stmt 0 view .LVU638
 1965 0000 2DE9F04F 		push	{r4, r5, r6, r7, r8, r9, r10, fp, lr}
 1966              	.LCFI10:
 1967              		.cfi_def_cfa_offset 36
 1968              		.cfi_offset 4, -36
 1969              		.cfi_offset 5, -32
 1970              		.cfi_offset 6, -28
 1971              		.cfi_offset 7, -24
 1972              		.cfi_offset 8, -20
 1973              		.cfi_offset 9, -16
 1974              		.cfi_offset 10, -12
 1975              		.cfi_offset 11, -8
 1976              		.cfi_offset 14, -4
 1977 0004 95B0     		sub	sp, sp, #84
 1978              	.LCFI11:
 1979              		.cfi_def_cfa_offset 120
 1980 0006 0446     		mov	r4, r0
 207:Middlewares/lvgl/src/extra/layouts/flex/lv_flex.c ****     LV_UNUSED(user_data);
 1981              		.loc 2 207 45 is_stmt 1 view .LVU639
 208:Middlewares/lvgl/src/extra/layouts/flex/lv_flex.c **** 
 1982              		.loc 2 208 5 view .LVU640
 210:Middlewares/lvgl/src/extra/layouts/flex/lv_flex.c ****     lv_flex_flow_t flow = lv_obj_get_style_flex_flow(cont, LV_PART_MAIN);
 1983              		.loc 2 210 5 view .LVU641
 211:Middlewares/lvgl/src/extra/layouts/flex/lv_flex.c ****     f.row = flow & _LV_FLEX_COLUMN ? 0 : 1;
 1984              		.loc 2 211 5 view .LVU642
 1985              	.LVL199:
 1986              	.LBB99:
 1987              	.LBI99:
 111:Middlewares/lvgl/src/extra/layouts/flex/../flex/lv_flex.h **** {
 1988              		.loc 4 111 30 view .LVU643
 1989              	.LBB100:
 113:Middlewares/lvgl/src/extra/layouts/flex/../flex/lv_flex.h ****     return (lv_flex_flow_t)v.num;
 1990              		.loc 4 113 5 view .LVU644
 113:Middlewares/lvgl/src/extra/layouts/flex/../flex/lv_flex.h ****     return (lv_flex_flow_t)v.num;
 1991              		.loc 4 113 26 is_stmt 0 view .LVU645
 1992 0008 B74B     		ldr	r3, .L167
 1993 000a 1A88     		ldrh	r2, [r3]
 1994 000c 0021     		movs	r1, #0
 1995              	.LVL200:
 113:Middlewares/lvgl/src/extra/layouts/flex/../flex/lv_flex.h ****     return (lv_flex_flow_t)v.num;
 1996              		.loc 4 113 26 view .LVU646
 1997 000e FFF7FEFF 		bl	lv_obj_get_style_prop
 1998              	.LVL201:
 114:Middlewares/lvgl/src/extra/layouts/flex/../flex/lv_flex.h **** }
 1999              		.loc 4 114 5 is_stmt 1 view .LVU647
 114:Middlewares/lvgl/src/extra/layouts/flex/../flex/lv_flex.h **** }
 2000              		.loc 4 114 5 is_stmt 0 view .LVU648
 2001              	.LBE100:
 2002              	.LBE99:
ARM GAS  /tmp/ccU94mph.s 			page 64


 212:Middlewares/lvgl/src/extra/layouts/flex/lv_flex.c ****     f.wrap = flow & _LV_FLEX_WRAP ? 1 : 0;
 2003              		.loc 2 212 5 is_stmt 1 view .LVU649
 212:Middlewares/lvgl/src/extra/layouts/flex/lv_flex.c ****     f.wrap = flow & _LV_FLEX_WRAP ? 1 : 0;
 2004              		.loc 2 212 40 is_stmt 0 view .LVU650
 2005 0012 10F0010F 		tst	r0, #1
 2006 0016 0CBF     		ite	eq
 2007 0018 0122     		moveq	r2, #1
 2008 001a 0022     		movne	r2, #0
 212:Middlewares/lvgl/src/extra/layouts/flex/lv_flex.c ****     f.wrap = flow & _LV_FLEX_WRAP ? 1 : 0;
 2009              		.loc 2 212 11 view .LVU651
 2010 001c 9DF84F30 		ldrb	r3, [sp, #79]	@ zero_extendqisi2
 2011 0020 62F30003 		bfi	r3, r2, #0, #1
 2012 0024 8DF84F30 		strb	r3, [sp, #79]
 213:Middlewares/lvgl/src/extra/layouts/flex/lv_flex.c ****     f.rev = flow & _LV_FLEX_REVERSE ? 1 : 0;
 2013              		.loc 2 213 5 is_stmt 1 view .LVU652
 213:Middlewares/lvgl/src/extra/layouts/flex/lv_flex.c ****     f.rev = flow & _LV_FLEX_REVERSE ? 1 : 0;
 2014              		.loc 2 213 39 is_stmt 0 view .LVU653
 2015 0028 C0F38002 		ubfx	r2, r0, #2, #1
 213:Middlewares/lvgl/src/extra/layouts/flex/lv_flex.c ****     f.rev = flow & _LV_FLEX_REVERSE ? 1 : 0;
 2016              		.loc 2 213 12 view .LVU654
 2017 002c DBB2     		uxtb	r3, r3
 2018 002e 62F34103 		bfi	r3, r2, #1, #1
 2019 0032 8DF84F30 		strb	r3, [sp, #79]
 214:Middlewares/lvgl/src/extra/layouts/flex/lv_flex.c ****     f.main_place = lv_obj_get_style_flex_main_place(cont, LV_PART_MAIN);
 2020              		.loc 2 214 5 is_stmt 1 view .LVU655
 214:Middlewares/lvgl/src/extra/layouts/flex/lv_flex.c ****     f.main_place = lv_obj_get_style_flex_main_place(cont, LV_PART_MAIN);
 2021              		.loc 2 214 41 is_stmt 0 view .LVU656
 2022 0036 C0F3C000 		ubfx	r0, r0, #3, #1
 2023              	.LVL202:
 214:Middlewares/lvgl/src/extra/layouts/flex/lv_flex.c ****     f.main_place = lv_obj_get_style_flex_main_place(cont, LV_PART_MAIN);
 2024              		.loc 2 214 11 view .LVU657
 2025 003a DBB2     		uxtb	r3, r3
 2026 003c 60F38203 		bfi	r3, r0, #2, #1
 2027 0040 8DF84F30 		strb	r3, [sp, #79]
 215:Middlewares/lvgl/src/extra/layouts/flex/lv_flex.c ****     f.cross_place = lv_obj_get_style_flex_cross_place(cont, LV_PART_MAIN);
 2028              		.loc 2 215 5 is_stmt 1 view .LVU658
 2029              	.LVL203:
 2030              	.LBB101:
 2031              	.LBI101:
 117:Middlewares/lvgl/src/extra/layouts/flex/../flex/lv_flex.h **** {
 2032              		.loc 4 117 31 view .LVU659
 2033              	.LBB102:
 119:Middlewares/lvgl/src/extra/layouts/flex/../flex/lv_flex.h ****     return (lv_flex_align_t)v.num;
 2034              		.loc 4 119 5 view .LVU660
 119:Middlewares/lvgl/src/extra/layouts/flex/../flex/lv_flex.h ****     return (lv_flex_align_t)v.num;
 2035              		.loc 4 119 26 is_stmt 0 view .LVU661
 2036 0044 A94B     		ldr	r3, .L167+4
 2037 0046 1A88     		ldrh	r2, [r3]
 2038 0048 0021     		movs	r1, #0
 2039 004a 2046     		mov	r0, r4
 2040 004c FFF7FEFF 		bl	lv_obj_get_style_prop
 2041              	.LVL204:
 120:Middlewares/lvgl/src/extra/layouts/flex/../flex/lv_flex.h **** }
 2042              		.loc 4 120 5 is_stmt 1 view .LVU662
 120:Middlewares/lvgl/src/extra/layouts/flex/../flex/lv_flex.h **** }
 2043              		.loc 4 120 5 is_stmt 0 view .LVU663
 2044              	.LBE102:
ARM GAS  /tmp/ccU94mph.s 			page 65


 2045              	.LBE101:
 215:Middlewares/lvgl/src/extra/layouts/flex/lv_flex.c ****     f.cross_place = lv_obj_get_style_flex_cross_place(cont, LV_PART_MAIN);
 2046              		.loc 2 215 18 view .LVU664
 2047 0050 8DF84C00 		strb	r0, [sp, #76]
 216:Middlewares/lvgl/src/extra/layouts/flex/lv_flex.c ****     f.track_place = lv_obj_get_style_flex_track_place(cont, LV_PART_MAIN);
 2048              		.loc 2 216 5 is_stmt 1 view .LVU665
 2049              	.LVL205:
 2050              	.LBB103:
 2051              	.LBI103:
 123:Middlewares/lvgl/src/extra/layouts/flex/../flex/lv_flex.h **** {
 2052              		.loc 4 123 31 view .LVU666
 2053              	.LBB104:
 125:Middlewares/lvgl/src/extra/layouts/flex/../flex/lv_flex.h ****     return (lv_flex_align_t)v.num;
 2054              		.loc 4 125 5 view .LVU667
 125:Middlewares/lvgl/src/extra/layouts/flex/../flex/lv_flex.h ****     return (lv_flex_align_t)v.num;
 2055              		.loc 4 125 26 is_stmt 0 view .LVU668
 2056 0054 A64B     		ldr	r3, .L167+8
 2057 0056 1A88     		ldrh	r2, [r3]
 2058 0058 0021     		movs	r1, #0
 2059 005a 2046     		mov	r0, r4
 2060 005c FFF7FEFF 		bl	lv_obj_get_style_prop
 2061              	.LVL206:
 126:Middlewares/lvgl/src/extra/layouts/flex/../flex/lv_flex.h **** }
 2062              		.loc 4 126 5 is_stmt 1 view .LVU669
 126:Middlewares/lvgl/src/extra/layouts/flex/../flex/lv_flex.h **** }
 2063              		.loc 4 126 5 is_stmt 0 view .LVU670
 2064              	.LBE104:
 2065              	.LBE103:
 216:Middlewares/lvgl/src/extra/layouts/flex/lv_flex.c ****     f.track_place = lv_obj_get_style_flex_track_place(cont, LV_PART_MAIN);
 2066              		.loc 2 216 19 view .LVU671
 2067 0060 8DF84D00 		strb	r0, [sp, #77]
 217:Middlewares/lvgl/src/extra/layouts/flex/lv_flex.c **** 
 2068              		.loc 2 217 5 is_stmt 1 view .LVU672
 2069              	.LVL207:
 2070              	.LBB105:
 2071              	.LBI105:
 129:Middlewares/lvgl/src/extra/layouts/flex/../flex/lv_flex.h **** {
 2072              		.loc 4 129 31 view .LVU673
 2073              	.LBB106:
 131:Middlewares/lvgl/src/extra/layouts/flex/../flex/lv_flex.h ****     return (lv_flex_align_t)v.num;
 2074              		.loc 4 131 5 view .LVU674
 131:Middlewares/lvgl/src/extra/layouts/flex/../flex/lv_flex.h ****     return (lv_flex_align_t)v.num;
 2075              		.loc 4 131 26 is_stmt 0 view .LVU675
 2076 0064 A34B     		ldr	r3, .L167+12
 2077 0066 1A88     		ldrh	r2, [r3]
 2078 0068 0021     		movs	r1, #0
 2079 006a 2046     		mov	r0, r4
 2080 006c FFF7FEFF 		bl	lv_obj_get_style_prop
 2081              	.LVL208:
 132:Middlewares/lvgl/src/extra/layouts/flex/../flex/lv_flex.h **** }
 2082              		.loc 4 132 5 is_stmt 1 view .LVU676
 132:Middlewares/lvgl/src/extra/layouts/flex/../flex/lv_flex.h **** }
 2083              		.loc 4 132 5 is_stmt 0 view .LVU677
 2084              	.LBE106:
 2085              	.LBE105:
 217:Middlewares/lvgl/src/extra/layouts/flex/lv_flex.c **** 
 2086              		.loc 2 217 19 view .LVU678
ARM GAS  /tmp/ccU94mph.s 			page 66


 2087 0070 8DF84E00 		strb	r0, [sp, #78]
 219:Middlewares/lvgl/src/extra/layouts/flex/lv_flex.c ****     lv_coord_t track_gap = !f.row ? lv_obj_get_style_pad_column(cont, LV_PART_MAIN) : lv_obj_get_st
 2088              		.loc 2 219 5 is_stmt 1 view .LVU679
 2089              	.LVL209:
 2090              	.LBB107:
 2091              	.LBI107:
 187:Middlewares/lvgl/src/extra/layouts/flex/../flex/../../../core/lv_obj_style_gen.h **** {
 2092              		.loc 3 187 29 view .LVU680
 2093              	.LBB108:
 189:Middlewares/lvgl/src/extra/layouts/flex/../flex/../../../core/lv_obj_style_gen.h ****     return (lv_base_dir_t)v.num;
 2094              		.loc 3 189 5 view .LVU681
 189:Middlewares/lvgl/src/extra/layouts/flex/../flex/../../../core/lv_obj_style_gen.h ****     return (lv_base_dir_t)v.num;
 2095              		.loc 3 189 26 is_stmt 0 view .LVU682
 2096 0074 41F26A42 		movw	r2, #5226
 2097 0078 0021     		movs	r1, #0
 2098 007a 2046     		mov	r0, r4
 2099 007c FFF7FEFF 		bl	lv_obj_get_style_prop
 2100              	.LVL210:
 2101              		.loc 3 190 5 is_stmt 1 view .LVU683
 2102              		.loc 3 190 12 is_stmt 0 view .LVU684
 2103 0080 5FFA80F8 		uxtb	r8, r0
 2104              	.LVL211:
 2105              		.loc 3 190 12 view .LVU685
 2106              	.LBE108:
 2107              	.LBE107:
 220:Middlewares/lvgl/src/extra/layouts/flex/lv_flex.c ****     lv_coord_t item_gap = f.row ? lv_obj_get_style_pad_column(cont, LV_PART_MAIN) : lv_obj_get_styl
 2108              		.loc 2 220 5 is_stmt 1 view .LVU686
 220:Middlewares/lvgl/src/extra/layouts/flex/lv_flex.c ****     lv_coord_t item_gap = f.row ? lv_obj_get_style_pad_column(cont, LV_PART_MAIN) : lv_obj_get_styl
 2109              		.loc 2 220 28 is_stmt 0 view .LVU687
 2110 0084 9DF84F30 		ldrb	r3, [sp, #79]	@ zero_extendqisi2
 220:Middlewares/lvgl/src/extra/layouts/flex/lv_flex.c ****     lv_coord_t item_gap = f.row ? lv_obj_get_style_pad_column(cont, LV_PART_MAIN) : lv_obj_get_styl
 2111              		.loc 2 220 16 view .LVU688
 2112 0088 13F0010F 		tst	r3, #1
 2113 008c 40F08D80 		bne	.L124
 2114              	.LVL212:
 2115              	.LBB109:
 2116              	.LBI109:
 121:Middlewares/lvgl/src/extra/layouts/flex/../flex/../../../core/lv_obj_style_gen.h **** {
 2117              		.loc 3 121 26 is_stmt 1 view .LVU689
 2118              	.LBB110:
 123:Middlewares/lvgl/src/extra/layouts/flex/../flex/../../../core/lv_obj_style_gen.h ****     return (lv_coord_t)v.num;
 2119              		.loc 3 123 5 view .LVU690
 123:Middlewares/lvgl/src/extra/layouts/flex/../flex/../../../core/lv_obj_style_gen.h ****     return (lv_coord_t)v.num;
 2120              		.loc 3 123 26 is_stmt 0 view .LVU691
 2121 0090 41F21502 		movw	r2, #4117
 2122 0094 0021     		movs	r1, #0
 2123 0096 2046     		mov	r0, r4
 2124 0098 FFF7FEFF 		bl	lv_obj_get_style_prop
 2125              	.LVL213:
 124:Middlewares/lvgl/src/extra/layouts/flex/../flex/../../../core/lv_obj_style_gen.h **** }
 2126              		.loc 3 124 5 is_stmt 1 view .LVU692
 124:Middlewares/lvgl/src/extra/layouts/flex/../flex/../../../core/lv_obj_style_gen.h **** }
 2127              		.loc 3 124 12 is_stmt 0 view .LVU693
 2128 009c 0FFA80FA 		sxth	r10, r0
 2129              	.LVL214:
 2130              	.L125:
 124:Middlewares/lvgl/src/extra/layouts/flex/../flex/../../../core/lv_obj_style_gen.h **** }
ARM GAS  /tmp/ccU94mph.s 			page 67


 2131              		.loc 3 124 12 view .LVU694
 2132              	.LBE110:
 2133              	.LBE109:
 221:Middlewares/lvgl/src/extra/layouts/flex/lv_flex.c ****     lv_coord_t max_main_size = (f.row ? lv_obj_get_content_width(cont) : lv_obj_get_content_height(
 2134              		.loc 2 221 5 is_stmt 1 discriminator 4 view .LVU695
 221:Middlewares/lvgl/src/extra/layouts/flex/lv_flex.c ****     lv_coord_t max_main_size = (f.row ? lv_obj_get_content_width(cont) : lv_obj_get_content_height(
 2135              		.loc 2 221 33 is_stmt 0 discriminator 4 view .LVU696
 2136 00a0 9DF84F30 		ldrb	r3, [sp, #79]	@ zero_extendqisi2
 221:Middlewares/lvgl/src/extra/layouts/flex/lv_flex.c ****     lv_coord_t max_main_size = (f.row ? lv_obj_get_content_width(cont) : lv_obj_get_content_height(
 2137              		.loc 2 221 16 discriminator 4 view .LVU697
 2138 00a4 13F0010F 		tst	r3, #1
 2139 00a8 00F08880 		beq	.L126
 2140              	.LVL215:
 2141              	.LBB111:
 2142              	.LBI111:
 121:Middlewares/lvgl/src/extra/layouts/flex/../flex/../../../core/lv_obj_style_gen.h **** {
 2143              		.loc 3 121 26 is_stmt 1 view .LVU698
 2144              	.LBB112:
 123:Middlewares/lvgl/src/extra/layouts/flex/../flex/../../../core/lv_obj_style_gen.h ****     return (lv_coord_t)v.num;
 2145              		.loc 3 123 5 view .LVU699
 123:Middlewares/lvgl/src/extra/layouts/flex/../flex/../../../core/lv_obj_style_gen.h ****     return (lv_coord_t)v.num;
 2146              		.loc 3 123 26 is_stmt 0 view .LVU700
 2147 00ac 41F21502 		movw	r2, #4117
 2148 00b0 0021     		movs	r1, #0
 2149 00b2 2046     		mov	r0, r4
 2150 00b4 FFF7FEFF 		bl	lv_obj_get_style_prop
 2151              	.LVL216:
 124:Middlewares/lvgl/src/extra/layouts/flex/../flex/../../../core/lv_obj_style_gen.h **** }
 2152              		.loc 3 124 5 is_stmt 1 view .LVU701
 124:Middlewares/lvgl/src/extra/layouts/flex/../flex/../../../core/lv_obj_style_gen.h **** }
 2153              		.loc 3 124 12 is_stmt 0 view .LVU702
 2154 00b8 06B2     		sxth	r6, r0
 2155              	.LVL217:
 2156              	.L127:
 124:Middlewares/lvgl/src/extra/layouts/flex/../flex/../../../core/lv_obj_style_gen.h **** }
 2157              		.loc 3 124 12 view .LVU703
 2158              	.LBE112:
 2159              	.LBE111:
 222:Middlewares/lvgl/src/extra/layouts/flex/lv_flex.c ****     lv_coord_t border_widt = lv_obj_get_style_border_width(cont, LV_PART_MAIN);
 2160              		.loc 2 222 5 is_stmt 1 discriminator 4 view .LVU704
 222:Middlewares/lvgl/src/extra/layouts/flex/lv_flex.c ****     lv_coord_t border_widt = lv_obj_get_style_border_width(cont, LV_PART_MAIN);
 2161              		.loc 2 222 39 is_stmt 0 discriminator 4 view .LVU705
 2162 00ba 9DF84F30 		ldrb	r3, [sp, #79]	@ zero_extendqisi2
 222:Middlewares/lvgl/src/extra/layouts/flex/lv_flex.c ****     lv_coord_t border_widt = lv_obj_get_style_border_width(cont, LV_PART_MAIN);
 2163              		.loc 2 222 16 discriminator 4 view .LVU706
 2164 00be 13F0010F 		tst	r3, #1
 2165 00c2 00F08380 		beq	.L128
 222:Middlewares/lvgl/src/extra/layouts/flex/lv_flex.c ****     lv_coord_t border_widt = lv_obj_get_style_border_width(cont, LV_PART_MAIN);
 2166              		.loc 2 222 41 discriminator 1 view .LVU707
 2167 00c6 2046     		mov	r0, r4
 2168 00c8 FFF7FEFF 		bl	lv_obj_get_content_width
 2169              	.LVL218:
 2170 00cc 0746     		mov	r7, r0
 2171              	.L129:
 2172              	.LVL219:
 223:Middlewares/lvgl/src/extra/layouts/flex/lv_flex.c ****     lv_coord_t abs_y = cont->coords.y1 + lv_obj_get_style_pad_top(cont, LV_PART_MAIN) + border_widt
 2173              		.loc 2 223 5 is_stmt 1 discriminator 4 view .LVU708
ARM GAS  /tmp/ccU94mph.s 			page 68


 2174              	.LBB113:
 2175              	.LBI113:
 191:Middlewares/lvgl/src/extra/layouts/flex/../flex/../../../core/lv_obj_style_gen.h **** }
 192:Middlewares/lvgl/src/extra/layouts/flex/../flex/../../../core/lv_obj_style_gen.h **** 
 193:Middlewares/lvgl/src/extra/layouts/flex/../flex/../../../core/lv_obj_style_gen.h **** static inline lv_color_t lv_obj_get_style_bg_color(const struct _lv_obj_t * obj, uint32_t part)
 194:Middlewares/lvgl/src/extra/layouts/flex/../flex/../../../core/lv_obj_style_gen.h **** {
 195:Middlewares/lvgl/src/extra/layouts/flex/../flex/../../../core/lv_obj_style_gen.h ****     lv_style_value_t v = lv_obj_get_style_prop(obj, part, LV_STYLE_BG_COLOR);
 196:Middlewares/lvgl/src/extra/layouts/flex/../flex/../../../core/lv_obj_style_gen.h ****     return v.color;
 197:Middlewares/lvgl/src/extra/layouts/flex/../flex/../../../core/lv_obj_style_gen.h **** }
 198:Middlewares/lvgl/src/extra/layouts/flex/../flex/../../../core/lv_obj_style_gen.h **** 
 199:Middlewares/lvgl/src/extra/layouts/flex/../flex/../../../core/lv_obj_style_gen.h **** static inline lv_color_t lv_obj_get_style_bg_color_filtered(const struct _lv_obj_t * obj, uint32_t 
 200:Middlewares/lvgl/src/extra/layouts/flex/../flex/../../../core/lv_obj_style_gen.h **** {
 201:Middlewares/lvgl/src/extra/layouts/flex/../flex/../../../core/lv_obj_style_gen.h ****     lv_style_value_t v = lv_obj_get_style_prop(obj, part, LV_STYLE_BG_COLOR_FILTERED);
 202:Middlewares/lvgl/src/extra/layouts/flex/../flex/../../../core/lv_obj_style_gen.h ****     return v.color;
 203:Middlewares/lvgl/src/extra/layouts/flex/../flex/../../../core/lv_obj_style_gen.h **** }
 204:Middlewares/lvgl/src/extra/layouts/flex/../flex/../../../core/lv_obj_style_gen.h **** 
 205:Middlewares/lvgl/src/extra/layouts/flex/../flex/../../../core/lv_obj_style_gen.h **** static inline lv_opa_t lv_obj_get_style_bg_opa(const struct _lv_obj_t * obj, uint32_t part)
 206:Middlewares/lvgl/src/extra/layouts/flex/../flex/../../../core/lv_obj_style_gen.h **** {
 207:Middlewares/lvgl/src/extra/layouts/flex/../flex/../../../core/lv_obj_style_gen.h ****     lv_style_value_t v = lv_obj_get_style_prop(obj, part, LV_STYLE_BG_OPA);
 208:Middlewares/lvgl/src/extra/layouts/flex/../flex/../../../core/lv_obj_style_gen.h ****     return (lv_opa_t)v.num;
 209:Middlewares/lvgl/src/extra/layouts/flex/../flex/../../../core/lv_obj_style_gen.h **** }
 210:Middlewares/lvgl/src/extra/layouts/flex/../flex/../../../core/lv_obj_style_gen.h **** 
 211:Middlewares/lvgl/src/extra/layouts/flex/../flex/../../../core/lv_obj_style_gen.h **** static inline lv_color_t lv_obj_get_style_bg_grad_color(const struct _lv_obj_t * obj, uint32_t part
 212:Middlewares/lvgl/src/extra/layouts/flex/../flex/../../../core/lv_obj_style_gen.h **** {
 213:Middlewares/lvgl/src/extra/layouts/flex/../flex/../../../core/lv_obj_style_gen.h ****     lv_style_value_t v = lv_obj_get_style_prop(obj, part, LV_STYLE_BG_GRAD_COLOR);
 214:Middlewares/lvgl/src/extra/layouts/flex/../flex/../../../core/lv_obj_style_gen.h ****     return v.color;
 215:Middlewares/lvgl/src/extra/layouts/flex/../flex/../../../core/lv_obj_style_gen.h **** }
 216:Middlewares/lvgl/src/extra/layouts/flex/../flex/../../../core/lv_obj_style_gen.h **** 
 217:Middlewares/lvgl/src/extra/layouts/flex/../flex/../../../core/lv_obj_style_gen.h **** static inline lv_color_t lv_obj_get_style_bg_grad_color_filtered(const struct _lv_obj_t * obj, uint
 218:Middlewares/lvgl/src/extra/layouts/flex/../flex/../../../core/lv_obj_style_gen.h **** {
 219:Middlewares/lvgl/src/extra/layouts/flex/../flex/../../../core/lv_obj_style_gen.h ****     lv_style_value_t v = lv_obj_get_style_prop(obj, part, LV_STYLE_BG_GRAD_COLOR_FILTERED);
 220:Middlewares/lvgl/src/extra/layouts/flex/../flex/../../../core/lv_obj_style_gen.h ****     return v.color;
 221:Middlewares/lvgl/src/extra/layouts/flex/../flex/../../../core/lv_obj_style_gen.h **** }
 222:Middlewares/lvgl/src/extra/layouts/flex/../flex/../../../core/lv_obj_style_gen.h **** 
 223:Middlewares/lvgl/src/extra/layouts/flex/../flex/../../../core/lv_obj_style_gen.h **** static inline lv_grad_dir_t lv_obj_get_style_bg_grad_dir(const struct _lv_obj_t * obj, uint32_t par
 224:Middlewares/lvgl/src/extra/layouts/flex/../flex/../../../core/lv_obj_style_gen.h **** {
 225:Middlewares/lvgl/src/extra/layouts/flex/../flex/../../../core/lv_obj_style_gen.h ****     lv_style_value_t v = lv_obj_get_style_prop(obj, part, LV_STYLE_BG_GRAD_DIR);
 226:Middlewares/lvgl/src/extra/layouts/flex/../flex/../../../core/lv_obj_style_gen.h ****     return (lv_grad_dir_t)v.num;
 227:Middlewares/lvgl/src/extra/layouts/flex/../flex/../../../core/lv_obj_style_gen.h **** }
 228:Middlewares/lvgl/src/extra/layouts/flex/../flex/../../../core/lv_obj_style_gen.h **** 
 229:Middlewares/lvgl/src/extra/layouts/flex/../flex/../../../core/lv_obj_style_gen.h **** static inline lv_coord_t lv_obj_get_style_bg_main_stop(const struct _lv_obj_t * obj, uint32_t part)
 230:Middlewares/lvgl/src/extra/layouts/flex/../flex/../../../core/lv_obj_style_gen.h **** {
 231:Middlewares/lvgl/src/extra/layouts/flex/../flex/../../../core/lv_obj_style_gen.h ****     lv_style_value_t v = lv_obj_get_style_prop(obj, part, LV_STYLE_BG_MAIN_STOP);
 232:Middlewares/lvgl/src/extra/layouts/flex/../flex/../../../core/lv_obj_style_gen.h ****     return (lv_coord_t)v.num;
 233:Middlewares/lvgl/src/extra/layouts/flex/../flex/../../../core/lv_obj_style_gen.h **** }
 234:Middlewares/lvgl/src/extra/layouts/flex/../flex/../../../core/lv_obj_style_gen.h **** 
 235:Middlewares/lvgl/src/extra/layouts/flex/../flex/../../../core/lv_obj_style_gen.h **** static inline lv_coord_t lv_obj_get_style_bg_grad_stop(const struct _lv_obj_t * obj, uint32_t part)
 236:Middlewares/lvgl/src/extra/layouts/flex/../flex/../../../core/lv_obj_style_gen.h **** {
 237:Middlewares/lvgl/src/extra/layouts/flex/../flex/../../../core/lv_obj_style_gen.h ****     lv_style_value_t v = lv_obj_get_style_prop(obj, part, LV_STYLE_BG_GRAD_STOP);
 238:Middlewares/lvgl/src/extra/layouts/flex/../flex/../../../core/lv_obj_style_gen.h ****     return (lv_coord_t)v.num;
 239:Middlewares/lvgl/src/extra/layouts/flex/../flex/../../../core/lv_obj_style_gen.h **** }
 240:Middlewares/lvgl/src/extra/layouts/flex/../flex/../../../core/lv_obj_style_gen.h **** 
 241:Middlewares/lvgl/src/extra/layouts/flex/../flex/../../../core/lv_obj_style_gen.h **** static inline const void * lv_obj_get_style_bg_img_src(const struct _lv_obj_t * obj, uint32_t part)
 242:Middlewares/lvgl/src/extra/layouts/flex/../flex/../../../core/lv_obj_style_gen.h **** {
 243:Middlewares/lvgl/src/extra/layouts/flex/../flex/../../../core/lv_obj_style_gen.h ****     lv_style_value_t v = lv_obj_get_style_prop(obj, part, LV_STYLE_BG_IMG_SRC);
 244:Middlewares/lvgl/src/extra/layouts/flex/../flex/../../../core/lv_obj_style_gen.h ****     return (const void *)v.ptr;
 245:Middlewares/lvgl/src/extra/layouts/flex/../flex/../../../core/lv_obj_style_gen.h **** }
ARM GAS  /tmp/ccU94mph.s 			page 69


 246:Middlewares/lvgl/src/extra/layouts/flex/../flex/../../../core/lv_obj_style_gen.h **** 
 247:Middlewares/lvgl/src/extra/layouts/flex/../flex/../../../core/lv_obj_style_gen.h **** static inline lv_opa_t lv_obj_get_style_bg_img_opa(const struct _lv_obj_t * obj, uint32_t part)
 248:Middlewares/lvgl/src/extra/layouts/flex/../flex/../../../core/lv_obj_style_gen.h **** {
 249:Middlewares/lvgl/src/extra/layouts/flex/../flex/../../../core/lv_obj_style_gen.h ****     lv_style_value_t v = lv_obj_get_style_prop(obj, part, LV_STYLE_BG_IMG_OPA);
 250:Middlewares/lvgl/src/extra/layouts/flex/../flex/../../../core/lv_obj_style_gen.h ****     return (lv_opa_t)v.num;
 251:Middlewares/lvgl/src/extra/layouts/flex/../flex/../../../core/lv_obj_style_gen.h **** }
 252:Middlewares/lvgl/src/extra/layouts/flex/../flex/../../../core/lv_obj_style_gen.h **** 
 253:Middlewares/lvgl/src/extra/layouts/flex/../flex/../../../core/lv_obj_style_gen.h **** static inline lv_color_t lv_obj_get_style_bg_img_recolor(const struct _lv_obj_t * obj, uint32_t par
 254:Middlewares/lvgl/src/extra/layouts/flex/../flex/../../../core/lv_obj_style_gen.h **** {
 255:Middlewares/lvgl/src/extra/layouts/flex/../flex/../../../core/lv_obj_style_gen.h ****     lv_style_value_t v = lv_obj_get_style_prop(obj, part, LV_STYLE_BG_IMG_RECOLOR);
 256:Middlewares/lvgl/src/extra/layouts/flex/../flex/../../../core/lv_obj_style_gen.h ****     return v.color;
 257:Middlewares/lvgl/src/extra/layouts/flex/../flex/../../../core/lv_obj_style_gen.h **** }
 258:Middlewares/lvgl/src/extra/layouts/flex/../flex/../../../core/lv_obj_style_gen.h **** 
 259:Middlewares/lvgl/src/extra/layouts/flex/../flex/../../../core/lv_obj_style_gen.h **** static inline lv_color_t lv_obj_get_style_bg_img_recolor_filtered(const struct _lv_obj_t * obj, uin
 260:Middlewares/lvgl/src/extra/layouts/flex/../flex/../../../core/lv_obj_style_gen.h **** {
 261:Middlewares/lvgl/src/extra/layouts/flex/../flex/../../../core/lv_obj_style_gen.h ****     lv_style_value_t v = lv_obj_get_style_prop(obj, part, LV_STYLE_BG_IMG_RECOLOR_FILTERED);
 262:Middlewares/lvgl/src/extra/layouts/flex/../flex/../../../core/lv_obj_style_gen.h ****     return v.color;
 263:Middlewares/lvgl/src/extra/layouts/flex/../flex/../../../core/lv_obj_style_gen.h **** }
 264:Middlewares/lvgl/src/extra/layouts/flex/../flex/../../../core/lv_obj_style_gen.h **** 
 265:Middlewares/lvgl/src/extra/layouts/flex/../flex/../../../core/lv_obj_style_gen.h **** static inline lv_opa_t lv_obj_get_style_bg_img_recolor_opa(const struct _lv_obj_t * obj, uint32_t p
 266:Middlewares/lvgl/src/extra/layouts/flex/../flex/../../../core/lv_obj_style_gen.h **** {
 267:Middlewares/lvgl/src/extra/layouts/flex/../flex/../../../core/lv_obj_style_gen.h ****     lv_style_value_t v = lv_obj_get_style_prop(obj, part, LV_STYLE_BG_IMG_RECOLOR_OPA);
 268:Middlewares/lvgl/src/extra/layouts/flex/../flex/../../../core/lv_obj_style_gen.h ****     return (lv_opa_t)v.num;
 269:Middlewares/lvgl/src/extra/layouts/flex/../flex/../../../core/lv_obj_style_gen.h **** }
 270:Middlewares/lvgl/src/extra/layouts/flex/../flex/../../../core/lv_obj_style_gen.h **** 
 271:Middlewares/lvgl/src/extra/layouts/flex/../flex/../../../core/lv_obj_style_gen.h **** static inline bool lv_obj_get_style_bg_img_tiled(const struct _lv_obj_t * obj, uint32_t part)
 272:Middlewares/lvgl/src/extra/layouts/flex/../flex/../../../core/lv_obj_style_gen.h **** {
 273:Middlewares/lvgl/src/extra/layouts/flex/../flex/../../../core/lv_obj_style_gen.h ****     lv_style_value_t v = lv_obj_get_style_prop(obj, part, LV_STYLE_BG_IMG_TILED);
 274:Middlewares/lvgl/src/extra/layouts/flex/../flex/../../../core/lv_obj_style_gen.h ****     return (bool)v.num;
 275:Middlewares/lvgl/src/extra/layouts/flex/../flex/../../../core/lv_obj_style_gen.h **** }
 276:Middlewares/lvgl/src/extra/layouts/flex/../flex/../../../core/lv_obj_style_gen.h **** 
 277:Middlewares/lvgl/src/extra/layouts/flex/../flex/../../../core/lv_obj_style_gen.h **** static inline lv_color_t lv_obj_get_style_border_color(const struct _lv_obj_t * obj, uint32_t part)
 278:Middlewares/lvgl/src/extra/layouts/flex/../flex/../../../core/lv_obj_style_gen.h **** {
 279:Middlewares/lvgl/src/extra/layouts/flex/../flex/../../../core/lv_obj_style_gen.h ****     lv_style_value_t v = lv_obj_get_style_prop(obj, part, LV_STYLE_BORDER_COLOR);
 280:Middlewares/lvgl/src/extra/layouts/flex/../flex/../../../core/lv_obj_style_gen.h ****     return v.color;
 281:Middlewares/lvgl/src/extra/layouts/flex/../flex/../../../core/lv_obj_style_gen.h **** }
 282:Middlewares/lvgl/src/extra/layouts/flex/../flex/../../../core/lv_obj_style_gen.h **** 
 283:Middlewares/lvgl/src/extra/layouts/flex/../flex/../../../core/lv_obj_style_gen.h **** static inline lv_color_t lv_obj_get_style_border_color_filtered(const struct _lv_obj_t * obj, uint3
 284:Middlewares/lvgl/src/extra/layouts/flex/../flex/../../../core/lv_obj_style_gen.h **** {
 285:Middlewares/lvgl/src/extra/layouts/flex/../flex/../../../core/lv_obj_style_gen.h ****     lv_style_value_t v = lv_obj_get_style_prop(obj, part, LV_STYLE_BORDER_COLOR_FILTERED);
 286:Middlewares/lvgl/src/extra/layouts/flex/../flex/../../../core/lv_obj_style_gen.h ****     return v.color;
 287:Middlewares/lvgl/src/extra/layouts/flex/../flex/../../../core/lv_obj_style_gen.h **** }
 288:Middlewares/lvgl/src/extra/layouts/flex/../flex/../../../core/lv_obj_style_gen.h **** 
 289:Middlewares/lvgl/src/extra/layouts/flex/../flex/../../../core/lv_obj_style_gen.h **** static inline lv_opa_t lv_obj_get_style_border_opa(const struct _lv_obj_t * obj, uint32_t part)
 290:Middlewares/lvgl/src/extra/layouts/flex/../flex/../../../core/lv_obj_style_gen.h **** {
 291:Middlewares/lvgl/src/extra/layouts/flex/../flex/../../../core/lv_obj_style_gen.h ****     lv_style_value_t v = lv_obj_get_style_prop(obj, part, LV_STYLE_BORDER_OPA);
 292:Middlewares/lvgl/src/extra/layouts/flex/../flex/../../../core/lv_obj_style_gen.h ****     return (lv_opa_t)v.num;
 293:Middlewares/lvgl/src/extra/layouts/flex/../flex/../../../core/lv_obj_style_gen.h **** }
 294:Middlewares/lvgl/src/extra/layouts/flex/../flex/../../../core/lv_obj_style_gen.h **** 
 295:Middlewares/lvgl/src/extra/layouts/flex/../flex/../../../core/lv_obj_style_gen.h **** static inline lv_coord_t lv_obj_get_style_border_width(const struct _lv_obj_t * obj, uint32_t part)
 2176              		.loc 3 295 26 discriminator 4 view .LVU709
 2177              	.LBB114:
 296:Middlewares/lvgl/src/extra/layouts/flex/../flex/../../../core/lv_obj_style_gen.h **** {
 297:Middlewares/lvgl/src/extra/layouts/flex/../flex/../../../core/lv_obj_style_gen.h ****     lv_style_value_t v = lv_obj_get_style_prop(obj, part, LV_STYLE_BORDER_WIDTH);
 2178              		.loc 3 297 5 discriminator 4 view .LVU710
 2179              		.loc 3 297 26 is_stmt 0 discriminator 4 view .LVU711
 2180 00ce 41F23202 		movw	r2, #4146
ARM GAS  /tmp/ccU94mph.s 			page 70


 2181 00d2 0021     		movs	r1, #0
 2182 00d4 2046     		mov	r0, r4
 2183 00d6 FFF7FEFF 		bl	lv_obj_get_style_prop
 2184              	.LVL220:
 2185 00da 8146     		mov	r9, r0
 2186              	.LVL221:
 298:Middlewares/lvgl/src/extra/layouts/flex/../flex/../../../core/lv_obj_style_gen.h ****     return (lv_coord_t)v.num;
 2187              		.loc 3 298 5 is_stmt 1 discriminator 4 view .LVU712
 2188              		.loc 3 298 5 is_stmt 0 discriminator 4 view .LVU713
 2189              	.LBE114:
 2190              	.LBE113:
 224:Middlewares/lvgl/src/extra/layouts/flex/lv_flex.c ****     lv_coord_t abs_x = cont->coords.x1 + lv_obj_get_style_pad_left(cont, LV_PART_MAIN) + border_wid
 2191              		.loc 2 224 5 is_stmt 1 discriminator 4 view .LVU714
 224:Middlewares/lvgl/src/extra/layouts/flex/lv_flex.c ****     lv_coord_t abs_x = cont->coords.x1 + lv_obj_get_style_pad_left(cont, LV_PART_MAIN) + border_wid
 2192              		.loc 2 224 36 is_stmt 0 discriminator 4 view .LVU715
 2193 00dc E58A     		ldrh	r5, [r4, #22]
 2194              	.LVL222:
 2195              	.LBB115:
 2196              	.LBI115:
  91:Middlewares/lvgl/src/extra/layouts/flex/../flex/../../../core/lv_obj_style_gen.h **** {
 2197              		.loc 3 91 26 is_stmt 1 discriminator 4 view .LVU716
 2198              	.LBB116:
  93:Middlewares/lvgl/src/extra/layouts/flex/../flex/../../../core/lv_obj_style_gen.h ****     return (lv_coord_t)v.num;
 2199              		.loc 3 93 5 discriminator 4 view .LVU717
  93:Middlewares/lvgl/src/extra/layouts/flex/../flex/../../../core/lv_obj_style_gen.h ****     return (lv_coord_t)v.num;
 2200              		.loc 3 93 26 is_stmt 0 discriminator 4 view .LVU718
 2201 00de 41F21002 		movw	r2, #4112
 2202 00e2 0021     		movs	r1, #0
 2203 00e4 2046     		mov	r0, r4
 2204 00e6 FFF7FEFF 		bl	lv_obj_get_style_prop
 2205              	.LVL223:
  94:Middlewares/lvgl/src/extra/layouts/flex/../flex/../../../core/lv_obj_style_gen.h **** }
 2206              		.loc 3 94 5 is_stmt 1 discriminator 4 view .LVU719
  94:Middlewares/lvgl/src/extra/layouts/flex/../flex/../../../core/lv_obj_style_gen.h **** }
 2207              		.loc 3 94 5 is_stmt 0 discriminator 4 view .LVU720
 2208              	.LBE116:
 2209              	.LBE115:
 224:Middlewares/lvgl/src/extra/layouts/flex/lv_flex.c ****     lv_coord_t abs_x = cont->coords.x1 + lv_obj_get_style_pad_left(cont, LV_PART_MAIN) + border_wid
 2210              		.loc 2 224 40 discriminator 4 view .LVU721
 2211 00ea 15FA80F5 		uxtah	r5, r5, r0
 224:Middlewares/lvgl/src/extra/layouts/flex/lv_flex.c ****     lv_coord_t abs_x = cont->coords.x1 + lv_obj_get_style_pad_left(cont, LV_PART_MAIN) + border_wid
 2212              		.loc 2 224 87 discriminator 4 view .LVU722
 2213 00ee 1FFA89F9 		uxth	r9, r9
 224:Middlewares/lvgl/src/extra/layouts/flex/lv_flex.c ****     lv_coord_t abs_x = cont->coords.x1 + lv_obj_get_style_pad_left(cont, LV_PART_MAIN) + border_wid
 2214              		.loc 2 224 87 discriminator 4 view .LVU723
 2215 00f2 19FA85F5 		uxtah	r5, r9, r5
 2216 00f6 ADB2     		uxth	r5, r5
 224:Middlewares/lvgl/src/extra/layouts/flex/lv_flex.c ****     lv_coord_t abs_x = cont->coords.x1 + lv_obj_get_style_pad_left(cont, LV_PART_MAIN) + border_wid
 2217              		.loc 2 224 103 discriminator 4 view .LVU724
 2218 00f8 2046     		mov	r0, r4
 2219 00fa FFF7FEFF 		bl	lv_obj_get_scroll_y
 2220              	.LVL224:
 2221 00fe 80B2     		uxth	r0, r0
 224:Middlewares/lvgl/src/extra/layouts/flex/lv_flex.c ****     lv_coord_t abs_x = cont->coords.x1 + lv_obj_get_style_pad_left(cont, LV_PART_MAIN) + border_wid
 2222              		.loc 2 224 101 discriminator 4 view .LVU725
 2223 0100 2D1A     		subs	r5, r5, r0
 224:Middlewares/lvgl/src/extra/layouts/flex/lv_flex.c ****     lv_coord_t abs_x = cont->coords.x1 + lv_obj_get_style_pad_left(cont, LV_PART_MAIN) + border_wid
ARM GAS  /tmp/ccU94mph.s 			page 71


 2224              		.loc 2 224 16 discriminator 4 view .LVU726
 2225 0102 ADF84A50 		strh	r5, [sp, #74]	@ movhi
 225:Middlewares/lvgl/src/extra/layouts/flex/lv_flex.c **** 
 2226              		.loc 2 225 5 is_stmt 1 discriminator 4 view .LVU727
 225:Middlewares/lvgl/src/extra/layouts/flex/lv_flex.c **** 
 2227              		.loc 2 225 36 is_stmt 0 discriminator 4 view .LVU728
 2228 0106 A58A     		ldrh	r5, [r4, #20]
 2229              	.LVL225:
 2230              	.LBB117:
 2231              	.LBI117:
 103:Middlewares/lvgl/src/extra/layouts/flex/../flex/../../../core/lv_obj_style_gen.h **** {
 2232              		.loc 3 103 26 is_stmt 1 discriminator 4 view .LVU729
 2233              	.LBB118:
 105:Middlewares/lvgl/src/extra/layouts/flex/../flex/../../../core/lv_obj_style_gen.h ****     return (lv_coord_t)v.num;
 2234              		.loc 3 105 5 discriminator 4 view .LVU730
 105:Middlewares/lvgl/src/extra/layouts/flex/../flex/../../../core/lv_obj_style_gen.h ****     return (lv_coord_t)v.num;
 2235              		.loc 3 105 26 is_stmt 0 discriminator 4 view .LVU731
 2236 0108 41F21202 		movw	r2, #4114
 2237 010c 0021     		movs	r1, #0
 2238 010e 2046     		mov	r0, r4
 2239 0110 FFF7FEFF 		bl	lv_obj_get_style_prop
 2240              	.LVL226:
 106:Middlewares/lvgl/src/extra/layouts/flex/../flex/../../../core/lv_obj_style_gen.h **** }
 2241              		.loc 3 106 5 is_stmt 1 discriminator 4 view .LVU732
 106:Middlewares/lvgl/src/extra/layouts/flex/../flex/../../../core/lv_obj_style_gen.h **** }
 2242              		.loc 3 106 5 is_stmt 0 discriminator 4 view .LVU733
 2243              	.LBE118:
 2244              	.LBE117:
 225:Middlewares/lvgl/src/extra/layouts/flex/lv_flex.c **** 
 2245              		.loc 2 225 40 discriminator 4 view .LVU734
 2246 0114 15FA80F5 		uxtah	r5, r5, r0
 225:Middlewares/lvgl/src/extra/layouts/flex/lv_flex.c **** 
 2247              		.loc 2 225 88 discriminator 4 view .LVU735
 2248 0118 19FA85F5 		uxtah	r5, r9, r5
 2249 011c ADB2     		uxth	r5, r5
 225:Middlewares/lvgl/src/extra/layouts/flex/lv_flex.c **** 
 2250              		.loc 2 225 104 discriminator 4 view .LVU736
 2251 011e 2046     		mov	r0, r4
 2252 0120 FFF7FEFF 		bl	lv_obj_get_scroll_x
 2253              	.LVL227:
 2254 0124 80B2     		uxth	r0, r0
 225:Middlewares/lvgl/src/extra/layouts/flex/lv_flex.c **** 
 2255              		.loc 2 225 102 discriminator 4 view .LVU737
 2256 0126 2D1A     		subs	r5, r5, r0
 225:Middlewares/lvgl/src/extra/layouts/flex/lv_flex.c **** 
 2257              		.loc 2 225 16 discriminator 4 view .LVU738
 2258 0128 ADF84850 		strh	r5, [sp, #72]	@ movhi
 227:Middlewares/lvgl/src/extra/layouts/flex/lv_flex.c ****     lv_coord_t * cross_pos = (f.row ? &abs_y : &abs_x);
 2259              		.loc 2 227 5 is_stmt 1 discriminator 4 view .LVU739
 227:Middlewares/lvgl/src/extra/layouts/flex/lv_flex.c ****     lv_coord_t * cross_pos = (f.row ? &abs_y : &abs_x);
 2260              		.loc 2 227 21 is_stmt 0 discriminator 4 view .LVU740
 2261 012c 9DF84E30 		ldrb	r3, [sp, #78]	@ zero_extendqisi2
 2262 0130 0793     		str	r3, [sp, #28]
 2263              	.LVL228:
 228:Middlewares/lvgl/src/extra/layouts/flex/lv_flex.c **** 
 2264              		.loc 2 228 5 is_stmt 1 discriminator 4 view .LVU741
 228:Middlewares/lvgl/src/extra/layouts/flex/lv_flex.c **** 
ARM GAS  /tmp/ccU94mph.s 			page 72


 2265              		.loc 2 228 37 is_stmt 0 discriminator 4 view .LVU742
 2266 0132 9DF84F30 		ldrb	r3, [sp, #79]	@ zero_extendqisi2
 228:Middlewares/lvgl/src/extra/layouts/flex/lv_flex.c **** 
 2267              		.loc 2 228 46 discriminator 4 view .LVU743
 2268 0136 13F0010F 		tst	r3, #1
 2269 013a 4CD0     		beq	.L154
 228:Middlewares/lvgl/src/extra/layouts/flex/lv_flex.c **** 
 2270              		.loc 2 228 46 view .LVU744
 2271 013c 0DF14A09 		add	r9, sp, #74
 2272              	.LVL229:
 2273              	.L130:
 230:Middlewares/lvgl/src/extra/layouts/flex/lv_flex.c ****     lv_coord_t h_set = lv_obj_get_style_height(cont, LV_PART_MAIN);
 2274              		.loc 2 230 5 is_stmt 1 discriminator 4 view .LVU745
 2275              	.LBB119:
 2276              	.LBI119:
   1:Middlewares/lvgl/src/extra/layouts/flex/../flex/../../../core/lv_obj_style_gen.h **** {
 2277              		.loc 3 1 26 discriminator 4 view .LVU746
 2278              	.LBB120:
   3:Middlewares/lvgl/src/extra/layouts/flex/../flex/../../../core/lv_obj_style_gen.h ****     return (lv_coord_t)v.num;
 2279              		.loc 3 3 5 discriminator 4 view .LVU747
   3:Middlewares/lvgl/src/extra/layouts/flex/../flex/../../../core/lv_obj_style_gen.h ****     return (lv_coord_t)v.num;
 2280              		.loc 3 3 26 is_stmt 0 discriminator 4 view .LVU748
 2281 0140 41F20102 		movw	r2, #4097
 2282 0144 0021     		movs	r1, #0
 2283 0146 2046     		mov	r0, r4
 2284 0148 FFF7FEFF 		bl	lv_obj_get_style_prop
 2285              	.LVL230:
   4:Middlewares/lvgl/src/extra/layouts/flex/../flex/../../../core/lv_obj_style_gen.h **** }
 2286              		.loc 3 4 5 is_stmt 1 discriminator 4 view .LVU749
   4:Middlewares/lvgl/src/extra/layouts/flex/../flex/../../../core/lv_obj_style_gen.h **** }
 2287              		.loc 3 4 12 is_stmt 0 discriminator 4 view .LVU750
 2288 014c 03B2     		sxth	r3, r0
 2289 014e 0893     		str	r3, [sp, #32]
 2290              	.LVL231:
   4:Middlewares/lvgl/src/extra/layouts/flex/../flex/../../../core/lv_obj_style_gen.h **** }
 2291              		.loc 3 4 12 discriminator 4 view .LVU751
 2292              	.LBE120:
 2293              	.LBE119:
 231:Middlewares/lvgl/src/extra/layouts/flex/lv_flex.c **** 
 2294              		.loc 2 231 5 is_stmt 1 discriminator 4 view .LVU752
 2295              	.LBB121:
 2296              	.LBI121:
  19:Middlewares/lvgl/src/extra/layouts/flex/../flex/../../../core/lv_obj_style_gen.h **** {
 2297              		.loc 3 19 26 discriminator 4 view .LVU753
 2298              	.LBB122:
  21:Middlewares/lvgl/src/extra/layouts/flex/../flex/../../../core/lv_obj_style_gen.h ****     return (lv_coord_t)v.num;
 2299              		.loc 3 21 5 discriminator 4 view .LVU754
  21:Middlewares/lvgl/src/extra/layouts/flex/../flex/../../../core/lv_obj_style_gen.h ****     return (lv_coord_t)v.num;
 2300              		.loc 3 21 26 is_stmt 0 discriminator 4 view .LVU755
 2301 0150 41F20402 		movw	r2, #4100
 2302 0154 0021     		movs	r1, #0
 2303 0156 2046     		mov	r0, r4
 2304 0158 FFF7FEFF 		bl	lv_obj_get_style_prop
 2305              	.LVL232:
  22:Middlewares/lvgl/src/extra/layouts/flex/../flex/../../../core/lv_obj_style_gen.h **** }
 2306              		.loc 3 22 5 is_stmt 1 discriminator 4 view .LVU756
  22:Middlewares/lvgl/src/extra/layouts/flex/../flex/../../../core/lv_obj_style_gen.h **** }
ARM GAS  /tmp/ccU94mph.s 			page 73


 2307              		.loc 3 22 12 is_stmt 0 discriminator 4 view .LVU757
 2308 015c 03B2     		sxth	r3, r0
 2309 015e 1846     		mov	r0, r3
 2310 0160 0993     		str	r3, [sp, #36]
 2311              	.LVL233:
  22:Middlewares/lvgl/src/extra/layouts/flex/../flex/../../../core/lv_obj_style_gen.h **** }
 2312              		.loc 3 22 12 discriminator 4 view .LVU758
 2313              	.LBE122:
 2314              	.LBE121:
 234:Middlewares/lvgl/src/extra/layouts/flex/lv_flex.c ****     	(!f.row && w_set == LV_SIZE_CONTENT && cont->w_layout == 0))
 2315              		.loc 2 234 5 is_stmt 1 discriminator 4 view .LVU759
 234:Middlewares/lvgl/src/extra/layouts/flex/lv_flex.c ****     	(!f.row && w_set == LV_SIZE_CONTENT && cont->w_layout == 0))
 2316              		.loc 2 234 9 is_stmt 0 discriminator 4 view .LVU760
 2317 0162 9DF84F30 		ldrb	r3, [sp, #79]	@ zero_extendqisi2
 234:Middlewares/lvgl/src/extra/layouts/flex/lv_flex.c ****     	(!f.row && w_set == LV_SIZE_CONTENT && cont->w_layout == 0))
 2318              		.loc 2 234 7 discriminator 4 view .LVU761
 2319 0166 13F00102 		ands	r2, r3, #1
 2320 016a 03D0     		beq	.L131
 234:Middlewares/lvgl/src/extra/layouts/flex/lv_flex.c ****     	(!f.row && w_set == LV_SIZE_CONTENT && cont->w_layout == 0))
 2321              		.loc 2 234 15 discriminator 1 view .LVU762
 2322 016c 42F2D171 		movw	r1, #10193
 2323 0170 8842     		cmp	r0, r1
 2324 0172 33D0     		beq	.L163
 2325              	.L131:
 234:Middlewares/lvgl/src/extra/layouts/flex/lv_flex.c ****     	(!f.row && w_set == LV_SIZE_CONTENT && cont->w_layout == 0))
 2326              		.loc 2 234 67 discriminator 5 view .LVU763
 2327 0174 22B9     		cbnz	r2, .L132
 235:Middlewares/lvgl/src/extra/layouts/flex/lv_flex.c ****     {
 2328              		.loc 2 235 14 view .LVU764
 2329 0176 42F2D171 		movw	r1, #10193
 2330 017a 0898     		ldr	r0, [sp, #32]
 2331              	.LVL234:
 235:Middlewares/lvgl/src/extra/layouts/flex/lv_flex.c ****     {
 2332              		.loc 2 235 14 view .LVU765
 2333 017c 8842     		cmp	r0, r1
 2334 017e 35D0     		beq	.L164
 2335              	.LVL235:
 2336              	.L132:
 240:Middlewares/lvgl/src/extra/layouts/flex/lv_flex.c ****         if(track_cross_place == LV_FLEX_ALIGN_START) track_cross_place = LV_FLEX_ALIGN_END;
 2337              		.loc 2 240 5 is_stmt 1 view .LVU766
 240:Middlewares/lvgl/src/extra/layouts/flex/lv_flex.c ****         if(track_cross_place == LV_FLEX_ALIGN_START) track_cross_place = LV_FLEX_ALIGN_END;
 2338              		.loc 2 240 7 is_stmt 0 view .LVU767
 2339 0180 B8F1010F 		cmp	r8, #1
 2340 0184 3AD0     		beq	.L165
 2341              	.L133:
 245:Middlewares/lvgl/src/extra/layouts/flex/lv_flex.c ****     lv_coord_t gap = 0;
 2342              		.loc 2 245 5 is_stmt 1 view .LVU768
 2343              	.LVL236:
 246:Middlewares/lvgl/src/extra/layouts/flex/lv_flex.c ****     uint32_t track_cnt = 0;
 2344              		.loc 2 246 5 view .LVU769
 246:Middlewares/lvgl/src/extra/layouts/flex/lv_flex.c ****     uint32_t track_cnt = 0;
 2345              		.loc 2 246 16 is_stmt 0 view .LVU770
 2346 0186 0022     		movs	r2, #0
 2347 0188 ADF84620 		strh	r2, [sp, #70]	@ movhi
 247:Middlewares/lvgl/src/extra/layouts/flex/lv_flex.c ****     int32_t track_first_item;
 2348              		.loc 2 247 5 is_stmt 1 view .LVU771
 2349              	.LVL237:
ARM GAS  /tmp/ccU94mph.s 			page 74


 248:Middlewares/lvgl/src/extra/layouts/flex/lv_flex.c ****     int32_t next_track_first_item;
 2350              		.loc 2 248 5 view .LVU772
 249:Middlewares/lvgl/src/extra/layouts/flex/lv_flex.c **** 
 2351              		.loc 2 249 5 view .LVU773
 251:Middlewares/lvgl/src/extra/layouts/flex/lv_flex.c ****         track_first_item = f.rev ? cont->spec_attr->child_cnt - 1 : 0;
 2352              		.loc 2 251 5 view .LVU774
 251:Middlewares/lvgl/src/extra/layouts/flex/lv_flex.c ****         track_first_item = f.rev ? cont->spec_attr->child_cnt - 1 : 0;
 2353              		.loc 2 251 7 is_stmt 0 view .LVU775
 2354 018c 079A     		ldr	r2, [sp, #28]
 2355 018e 002A     		cmp	r2, #0
 2356 0190 00F09780 		beq	.L157
 2357              	.LVL238:
 2358              	.L135:
 2359              	.LBB123:
 252:Middlewares/lvgl/src/extra/layouts/flex/lv_flex.c ****         track_t t;
 2360              		.loc 2 252 9 is_stmt 1 view .LVU776
 252:Middlewares/lvgl/src/extra/layouts/flex/lv_flex.c ****         track_t t;
 2361              		.loc 2 252 67 is_stmt 0 view .LVU777
 2362 0194 13F0040F 		tst	r3, #4
 2363 0198 00F08C80 		beq	.L158
 252:Middlewares/lvgl/src/extra/layouts/flex/lv_flex.c ****         track_t t;
 2364              		.loc 2 252 40 discriminator 1 view .LVU778
 2365 019c A368     		ldr	r3, [r4, #8]
 252:Middlewares/lvgl/src/extra/layouts/flex/lv_flex.c ****         track_t t;
 2366              		.loc 2 252 51 discriminator 1 view .LVU779
 2367 019e 5A68     		ldr	r2, [r3, #4]
 252:Middlewares/lvgl/src/extra/layouts/flex/lv_flex.c ****         track_t t;
 2368              		.loc 2 252 63 discriminator 1 view .LVU780
 2369 01a0 013A     		subs	r2, r2, #1
 2370              	.L137:
 252:Middlewares/lvgl/src/extra/layouts/flex/lv_flex.c ****         track_t t;
 2371              		.loc 2 252 67 view .LVU781
 2372 01a2 4FF0000B 		mov	fp, #0
 2373 01a6 5D46     		mov	r5, fp
 2374 01a8 4FE0     		b	.L138
 2375              	.LVL239:
 2376              	.L124:
 252:Middlewares/lvgl/src/extra/layouts/flex/lv_flex.c ****         track_t t;
 2377              		.loc 2 252 67 view .LVU782
 2378              	.LBE123:
 2379              	.LBB124:
 2380              	.LBI124:
 115:Middlewares/lvgl/src/extra/layouts/flex/../flex/../../../core/lv_obj_style_gen.h **** {
 2381              		.loc 3 115 26 is_stmt 1 view .LVU783
 2382              	.LBB125:
 117:Middlewares/lvgl/src/extra/layouts/flex/../flex/../../../core/lv_obj_style_gen.h ****     return (lv_coord_t)v.num;
 2383              		.loc 3 117 5 view .LVU784
 117:Middlewares/lvgl/src/extra/layouts/flex/../flex/../../../core/lv_obj_style_gen.h ****     return (lv_coord_t)v.num;
 2384              		.loc 3 117 26 is_stmt 0 view .LVU785
 2385 01aa 41F21402 		movw	r2, #4116
 2386 01ae 0021     		movs	r1, #0
 2387 01b0 2046     		mov	r0, r4
 2388 01b2 FFF7FEFF 		bl	lv_obj_get_style_prop
 2389              	.LVL240:
 118:Middlewares/lvgl/src/extra/layouts/flex/../flex/../../../core/lv_obj_style_gen.h **** }
 2390              		.loc 3 118 5 is_stmt 1 view .LVU786
 118:Middlewares/lvgl/src/extra/layouts/flex/../flex/../../../core/lv_obj_style_gen.h **** }
ARM GAS  /tmp/ccU94mph.s 			page 75


 2391              		.loc 3 118 12 is_stmt 0 view .LVU787
 2392 01b6 0FFA80FA 		sxth	r10, r0
 2393              	.LVL241:
 118:Middlewares/lvgl/src/extra/layouts/flex/../flex/../../../core/lv_obj_style_gen.h **** }
 2394              		.loc 3 118 12 view .LVU788
 2395 01ba 71E7     		b	.L125
 2396              	.LVL242:
 2397              	.L126:
 118:Middlewares/lvgl/src/extra/layouts/flex/../flex/../../../core/lv_obj_style_gen.h **** }
 2398              		.loc 3 118 12 view .LVU789
 2399              	.LBE125:
 2400              	.LBE124:
 2401              	.LBB126:
 2402              	.LBI126:
 115:Middlewares/lvgl/src/extra/layouts/flex/../flex/../../../core/lv_obj_style_gen.h **** {
 2403              		.loc 3 115 26 is_stmt 1 view .LVU790
 2404              	.LBB127:
 117:Middlewares/lvgl/src/extra/layouts/flex/../flex/../../../core/lv_obj_style_gen.h ****     return (lv_coord_t)v.num;
 2405              		.loc 3 117 5 view .LVU791
 117:Middlewares/lvgl/src/extra/layouts/flex/../flex/../../../core/lv_obj_style_gen.h ****     return (lv_coord_t)v.num;
 2406              		.loc 3 117 26 is_stmt 0 view .LVU792
 2407 01bc 41F21402 		movw	r2, #4116
 2408 01c0 0021     		movs	r1, #0
 2409 01c2 2046     		mov	r0, r4
 2410 01c4 FFF7FEFF 		bl	lv_obj_get_style_prop
 2411              	.LVL243:
 118:Middlewares/lvgl/src/extra/layouts/flex/../flex/../../../core/lv_obj_style_gen.h **** }
 2412              		.loc 3 118 5 is_stmt 1 view .LVU793
 118:Middlewares/lvgl/src/extra/layouts/flex/../flex/../../../core/lv_obj_style_gen.h **** }
 2413              		.loc 3 118 12 is_stmt 0 view .LVU794
 2414 01c8 06B2     		sxth	r6, r0
 2415              	.LVL244:
 118:Middlewares/lvgl/src/extra/layouts/flex/../flex/../../../core/lv_obj_style_gen.h **** }
 2416              		.loc 3 118 12 view .LVU795
 2417 01ca 76E7     		b	.L127
 2418              	.LVL245:
 2419              	.L128:
 118:Middlewares/lvgl/src/extra/layouts/flex/../flex/../../../core/lv_obj_style_gen.h **** }
 2420              		.loc 3 118 12 view .LVU796
 2421              	.LBE127:
 2422              	.LBE126:
 222:Middlewares/lvgl/src/extra/layouts/flex/lv_flex.c ****     lv_coord_t border_widt = lv_obj_get_style_border_width(cont, LV_PART_MAIN);
 2423              		.loc 2 222 74 discriminator 2 view .LVU797
 2424 01cc 2046     		mov	r0, r4
 2425 01ce FFF7FEFF 		bl	lv_obj_get_content_height
 2426              	.LVL246:
 2427 01d2 0746     		mov	r7, r0
 2428 01d4 7BE7     		b	.L129
 2429              	.LVL247:
 2430              	.L154:
 228:Middlewares/lvgl/src/extra/layouts/flex/lv_flex.c **** 
 2431              		.loc 2 228 46 view .LVU798
 2432 01d6 0DF14809 		add	r9, sp, #72
 2433              	.LVL248:
 228:Middlewares/lvgl/src/extra/layouts/flex/lv_flex.c **** 
 2434              		.loc 2 228 46 view .LVU799
 2435 01da B1E7     		b	.L130
ARM GAS  /tmp/ccU94mph.s 			page 76


 2436              	.LVL249:
 2437              	.L163:
 234:Middlewares/lvgl/src/extra/layouts/flex/lv_flex.c ****     	(!f.row && w_set == LV_SIZE_CONTENT && cont->w_layout == 0))
 2438              		.loc 2 234 61 discriminator 3 view .LVU800
 2439 01dc 94F82310 		ldrb	r1, [r4, #35]	@ zero_extendqisi2
 234:Middlewares/lvgl/src/extra/layouts/flex/lv_flex.c ****     	(!f.row && w_set == LV_SIZE_CONTENT && cont->w_layout == 0))
 2440              		.loc 2 234 43 discriminator 3 view .LVU801
 2441 01e0 11F0020F 		tst	r1, #2
 2442 01e4 C6D1     		bne	.L131
 237:Middlewares/lvgl/src/extra/layouts/flex/lv_flex.c ****     }
 2443              		.loc 2 237 27 view .LVU802
 2444 01e6 0021     		movs	r1, #0
 2445 01e8 0791     		str	r1, [sp, #28]
 2446              	.LVL250:
 237:Middlewares/lvgl/src/extra/layouts/flex/lv_flex.c ****     }
 2447              		.loc 2 237 27 view .LVU803
 2448 01ea C9E7     		b	.L132
 2449              	.LVL251:
 2450              	.L164:
 235:Middlewares/lvgl/src/extra/layouts/flex/lv_flex.c ****     {
 2451              		.loc 2 235 60 discriminator 1 view .LVU804
 2452 01ec 94F82310 		ldrb	r1, [r4, #35]	@ zero_extendqisi2
 235:Middlewares/lvgl/src/extra/layouts/flex/lv_flex.c ****     {
 2453              		.loc 2 235 42 discriminator 1 view .LVU805
 2454 01f0 11F0040F 		tst	r1, #4
 2455 01f4 C4D1     		bne	.L132
 237:Middlewares/lvgl/src/extra/layouts/flex/lv_flex.c ****     }
 2456              		.loc 2 237 27 view .LVU806
 2457 01f6 0021     		movs	r1, #0
 2458 01f8 0791     		str	r1, [sp, #28]
 2459              	.LVL252:
 237:Middlewares/lvgl/src/extra/layouts/flex/lv_flex.c ****     }
 2460              		.loc 2 237 27 view .LVU807
 2461 01fa C1E7     		b	.L132
 2462              	.LVL253:
 2463              	.L165:
 240:Middlewares/lvgl/src/extra/layouts/flex/lv_flex.c ****         if(track_cross_place == LV_FLEX_ALIGN_START) track_cross_place = LV_FLEX_ALIGN_END;
 2464              		.loc 2 240 12 discriminator 1 view .LVU808
 2465 01fc 002A     		cmp	r2, #0
 2466 01fe C2D1     		bne	.L133
 241:Middlewares/lvgl/src/extra/layouts/flex/lv_flex.c ****         else if(track_cross_place == LV_FLEX_ALIGN_END) track_cross_place = LV_FLEX_ALIGN_START;
 2467              		.loc 2 241 9 is_stmt 1 view .LVU809
 241:Middlewares/lvgl/src/extra/layouts/flex/lv_flex.c ****         else if(track_cross_place == LV_FLEX_ALIGN_END) track_cross_place = LV_FLEX_ALIGN_START;
 2468              		.loc 2 241 11 is_stmt 0 view .LVU810
 2469 0200 079A     		ldr	r2, [sp, #28]
 2470 0202 22B9     		cbnz	r2, .L134
 2471              	.LVL254:
 245:Middlewares/lvgl/src/extra/layouts/flex/lv_flex.c ****     lv_coord_t gap = 0;
 2472              		.loc 2 245 5 is_stmt 1 view .LVU811
 246:Middlewares/lvgl/src/extra/layouts/flex/lv_flex.c ****     uint32_t track_cnt = 0;
 2473              		.loc 2 246 5 view .LVU812
 246:Middlewares/lvgl/src/extra/layouts/flex/lv_flex.c ****     uint32_t track_cnt = 0;
 2474              		.loc 2 246 16 is_stmt 0 view .LVU813
 2475 0204 ADF84620 		strh	r2, [sp, #70]	@ movhi
 247:Middlewares/lvgl/src/extra/layouts/flex/lv_flex.c ****     int32_t track_first_item;
 2476              		.loc 2 247 5 is_stmt 1 view .LVU814
 2477              	.LVL255:
ARM GAS  /tmp/ccU94mph.s 			page 77


 248:Middlewares/lvgl/src/extra/layouts/flex/lv_flex.c ****     int32_t next_track_first_item;
 2478              		.loc 2 248 5 view .LVU815
 249:Middlewares/lvgl/src/extra/layouts/flex/lv_flex.c **** 
 2479              		.loc 2 249 5 view .LVU816
 251:Middlewares/lvgl/src/extra/layouts/flex/lv_flex.c ****         track_first_item = f.rev ? cont->spec_attr->child_cnt - 1 : 0;
 2480              		.loc 2 251 5 view .LVU817
 241:Middlewares/lvgl/src/extra/layouts/flex/lv_flex.c ****         else if(track_cross_place == LV_FLEX_ALIGN_END) track_cross_place = LV_FLEX_ALIGN_START;
 2481              		.loc 2 241 72 is_stmt 0 view .LVU818
 2482 0208 CDF81C80 		str	r8, [sp, #28]
 2483 020c C2E7     		b	.L135
 2484              	.LVL256:
 2485              	.L134:
 242:Middlewares/lvgl/src/extra/layouts/flex/lv_flex.c ****     }
 2486              		.loc 2 242 14 is_stmt 1 view .LVU819
 242:Middlewares/lvgl/src/extra/layouts/flex/lv_flex.c ****     }
 2487              		.loc 2 242 16 is_stmt 0 view .LVU820
 2488 020e 079A     		ldr	r2, [sp, #28]
 2489 0210 012A     		cmp	r2, #1
 2490 0212 B8D1     		bne	.L133
 242:Middlewares/lvgl/src/extra/layouts/flex/lv_flex.c ****     }
 2491              		.loc 2 242 57 is_stmt 1 view .LVU821
 2492              	.LVL257:
 245:Middlewares/lvgl/src/extra/layouts/flex/lv_flex.c ****     lv_coord_t gap = 0;
 2493              		.loc 2 245 5 view .LVU822
 246:Middlewares/lvgl/src/extra/layouts/flex/lv_flex.c ****     uint32_t track_cnt = 0;
 2494              		.loc 2 246 5 view .LVU823
 246:Middlewares/lvgl/src/extra/layouts/flex/lv_flex.c ****     uint32_t track_cnt = 0;
 2495              		.loc 2 246 16 is_stmt 0 view .LVU824
 2496 0214 0025     		movs	r5, #0
 2497 0216 ADF84650 		strh	r5, [sp, #70]	@ movhi
 247:Middlewares/lvgl/src/extra/layouts/flex/lv_flex.c ****     int32_t track_first_item;
 2498              		.loc 2 247 5 is_stmt 1 view .LVU825
 2499              	.LVL258:
 248:Middlewares/lvgl/src/extra/layouts/flex/lv_flex.c ****     int32_t next_track_first_item;
 2500              		.loc 2 248 5 view .LVU826
 249:Middlewares/lvgl/src/extra/layouts/flex/lv_flex.c **** 
 2501              		.loc 2 249 5 view .LVU827
 251:Middlewares/lvgl/src/extra/layouts/flex/lv_flex.c ****         track_first_item = f.rev ? cont->spec_attr->child_cnt - 1 : 0;
 2502              		.loc 2 251 5 view .LVU828
 2503 021a 36E0     		b	.L136
 2504              	.LVL259:
 2505              	.L140:
 2506              	.LBB128:
 256:Middlewares/lvgl/src/extra/layouts/flex/lv_flex.c ****             next_track_first_item = find_track_end(cont, &f, track_first_item, max_main_size, item_
 2507              		.loc 2 256 13 view .LVU829
 256:Middlewares/lvgl/src/extra/layouts/flex/lv_flex.c ****             next_track_first_item = find_track_end(cont, &f, track_first_item, max_main_size, item_
 2508              		.loc 2 256 29 is_stmt 0 view .LVU830
 2509 021c 9DF84030 		ldrb	r3, [sp, #64]	@ zero_extendqisi2
 2510 0220 6FF30003 		bfc	r3, #0, #1
 2511 0224 8DF84030 		strb	r3, [sp, #64]
 257:Middlewares/lvgl/src/extra/layouts/flex/lv_flex.c ****             total_track_cross_size += t.track_cross_size + track_gap;
 2512              		.loc 2 257 13 is_stmt 1 view .LVU831
 257:Middlewares/lvgl/src/extra/layouts/flex/lv_flex.c ****             total_track_cross_size += t.track_cross_size + track_gap;
 2513              		.loc 2 257 37 is_stmt 0 view .LVU832
 2514 0228 0BAB     		add	r3, sp, #44
 2515 022a 0193     		str	r3, [sp, #4]
 2516 022c 0096     		str	r6, [sp]
ARM GAS  /tmp/ccU94mph.s 			page 78


 2517 022e 3B46     		mov	r3, r7
 2518 0230 13A9     		add	r1, sp, #76
 2519 0232 2046     		mov	r0, r4
 2520 0234 FFF7FEFF 		bl	find_track_end
 2521              	.LVL260:
 257:Middlewares/lvgl/src/extra/layouts/flex/lv_flex.c ****             total_track_cross_size += t.track_cross_size + track_gap;
 2522              		.loc 2 257 37 view .LVU833
 2523 0238 0246     		mov	r2, r0
 2524              	.LVL261:
 258:Middlewares/lvgl/src/extra/layouts/flex/lv_flex.c ****             track_cnt++;
 2525              		.loc 2 258 13 is_stmt 1 view .LVU834
 258:Middlewares/lvgl/src/extra/layouts/flex/lv_flex.c ****             track_cnt++;
 2526              		.loc 2 258 40 is_stmt 0 view .LVU835
 2527 023a BDF82C30 		ldrh	r3, [sp, #44]
 258:Middlewares/lvgl/src/extra/layouts/flex/lv_flex.c ****             track_cnt++;
 2528              		.loc 2 258 58 view .LVU836
 2529 023e 5344     		add	r3, r3, r10
 258:Middlewares/lvgl/src/extra/layouts/flex/lv_flex.c ****             track_cnt++;
 2530              		.loc 2 258 36 view .LVU837
 2531 0240 15FA83F5 		uxtah	r5, r5, r3
 2532              	.LVL262:
 258:Middlewares/lvgl/src/extra/layouts/flex/lv_flex.c ****             track_cnt++;
 2533              		.loc 2 258 36 view .LVU838
 2534 0244 2DB2     		sxth	r5, r5
 2535              	.LVL263:
 259:Middlewares/lvgl/src/extra/layouts/flex/lv_flex.c ****             track_first_item = next_track_first_item;
 2536              		.loc 2 259 13 is_stmt 1 view .LVU839
 259:Middlewares/lvgl/src/extra/layouts/flex/lv_flex.c ****             track_first_item = next_track_first_item;
 2537              		.loc 2 259 22 is_stmt 0 view .LVU840
 2538 0246 0BF1010B 		add	fp, fp, #1
 2539              	.LVL264:
 260:Middlewares/lvgl/src/extra/layouts/flex/lv_flex.c ****         }
 2540              		.loc 2 260 13 is_stmt 1 view .LVU841
 2541              	.L138:
 254:Middlewares/lvgl/src/extra/layouts/flex/lv_flex.c ****             /*Search the first item of the next row*/
 2542              		.loc 2 254 14 view .LVU842
 254:Middlewares/lvgl/src/extra/layouts/flex/lv_flex.c ****             /*Search the first item of the next row*/
 2543              		.loc 2 254 47 is_stmt 0 view .LVU843
 2544 024a A368     		ldr	r3, [r4, #8]
 254:Middlewares/lvgl/src/extra/layouts/flex/lv_flex.c ****             /*Search the first item of the next row*/
 2545              		.loc 2 254 58 view .LVU844
 2546 024c 5B68     		ldr	r3, [r3, #4]
 254:Middlewares/lvgl/src/extra/layouts/flex/lv_flex.c ****             /*Search the first item of the next row*/
 2547              		.loc 2 254 14 view .LVU845
 2548 024e 9342     		cmp	r3, r2
 2549 0250 01DD     		ble	.L139
 254:Middlewares/lvgl/src/extra/layouts/flex/lv_flex.c ****             /*Search the first item of the next row*/
 2550              		.loc 2 254 70 discriminator 1 view .LVU846
 2551 0252 002A     		cmp	r2, #0
 2552 0254 E2DA     		bge	.L140
 2553              	.L139:
 263:Middlewares/lvgl/src/extra/layouts/flex/lv_flex.c **** 
 2554              		.loc 2 263 9 is_stmt 1 view .LVU847
 263:Middlewares/lvgl/src/extra/layouts/flex/lv_flex.c **** 
 2555              		.loc 2 263 11 is_stmt 0 view .LVU848
 2556 0256 BBF1000F 		cmp	fp, #0
 2557 025a 02D0     		beq	.L141
ARM GAS  /tmp/ccU94mph.s 			page 79


 263:Middlewares/lvgl/src/extra/layouts/flex/lv_flex.c **** 
 2558              		.loc 2 263 23 is_stmt 1 discriminator 1 view .LVU849
 263:Middlewares/lvgl/src/extra/layouts/flex/lv_flex.c **** 
 2559              		.loc 2 263 46 is_stmt 0 discriminator 1 view .LVU850
 2560 025c A5EB0A05 		sub	r5, r5, r10
 2561              	.LVL265:
 263:Middlewares/lvgl/src/extra/layouts/flex/lv_flex.c **** 
 2562              		.loc 2 263 46 discriminator 1 view .LVU851
 2563 0260 2DB2     		sxth	r5, r5
 2564              	.LVL266:
 2565              	.L141:
 266:Middlewares/lvgl/src/extra/layouts/flex/lv_flex.c ****         place_content(track_cross_place, max_cross_size, total_track_cross_size, track_cnt, cross_p
 2566              		.loc 2 266 9 is_stmt 1 view .LVU852
 266:Middlewares/lvgl/src/extra/layouts/flex/lv_flex.c ****         place_content(track_cross_place, max_cross_size, total_track_cross_size, track_cnt, cross_p
 2567              		.loc 2 266 44 is_stmt 0 view .LVU853
 2568 0262 9DF84F30 		ldrb	r3, [sp, #79]	@ zero_extendqisi2
 266:Middlewares/lvgl/src/extra/layouts/flex/lv_flex.c ****         place_content(track_cross_place, max_cross_size, total_track_cross_size, track_cnt, cross_p
 2569              		.loc 2 266 20 view .LVU854
 2570 0266 13F0010F 		tst	r3, #1
 2571 026a 25D0     		beq	.L142
 266:Middlewares/lvgl/src/extra/layouts/flex/lv_flex.c ****         place_content(track_cross_place, max_cross_size, total_track_cross_size, track_cnt, cross_p
 2572              		.loc 2 266 46 discriminator 1 view .LVU855
 2573 026c 2046     		mov	r0, r4
 2574 026e FFF7FEFF 		bl	lv_obj_get_content_height
 2575              	.LVL267:
 266:Middlewares/lvgl/src/extra/layouts/flex/lv_flex.c ****         place_content(track_cross_place, max_cross_size, total_track_cross_size, track_cnt, cross_p
 2576              		.loc 2 266 46 discriminator 1 view .LVU856
 2577 0272 0146     		mov	r1, r0
 2578              	.L143:
 2579              	.LVL268:
 267:Middlewares/lvgl/src/extra/layouts/flex/lv_flex.c ****     }
 2580              		.loc 2 267 9 is_stmt 1 discriminator 4 view .LVU857
 2581 0274 0DF14603 		add	r3, sp, #70
 2582 0278 0193     		str	r3, [sp, #4]
 2583 027a CDF80090 		str	r9, [sp]
 2584 027e 0FFA8BF3 		sxth	r3, fp
 2585 0282 2A46     		mov	r2, r5
 2586 0284 0798     		ldr	r0, [sp, #28]
 2587 0286 FFF7FEFF 		bl	place_content
 2588              	.LVL269:
 2589              	.L136:
 267:Middlewares/lvgl/src/extra/layouts/flex/lv_flex.c ****     }
 2590              		.loc 2 267 9 is_stmt 0 discriminator 4 view .LVU858
 2591              	.LBE128:
 270:Middlewares/lvgl/src/extra/layouts/flex/lv_flex.c **** 
 2592              		.loc 2 270 5 is_stmt 1 view .LVU859
 270:Middlewares/lvgl/src/extra/layouts/flex/lv_flex.c **** 
 2593              		.loc 2 270 31 is_stmt 0 view .LVU860
 2594 028a 9DF84F30 		ldrb	r3, [sp, #79]	@ zero_extendqisi2
 270:Middlewares/lvgl/src/extra/layouts/flex/lv_flex.c **** 
 2595              		.loc 2 270 64 view .LVU861
 2596 028e 13F0040F 		tst	r3, #4
 2597 0292 18D0     		beq	.L159
 270:Middlewares/lvgl/src/extra/layouts/flex/lv_flex.c **** 
 2598              		.loc 2 270 37 discriminator 1 view .LVU862
 2599 0294 A268     		ldr	r2, [r4, #8]
 270:Middlewares/lvgl/src/extra/layouts/flex/lv_flex.c **** 
ARM GAS  /tmp/ccU94mph.s 			page 80


 2600              		.loc 2 270 48 discriminator 1 view .LVU863
 2601 0296 5268     		ldr	r2, [r2, #4]
 270:Middlewares/lvgl/src/extra/layouts/flex/lv_flex.c **** 
 2602              		.loc 2 270 60 discriminator 1 view .LVU864
 2603 0298 02F1FF3B 		add	fp, r2, #-1
 2604              	.L144:
 2605              	.LVL270:
 272:Middlewares/lvgl/src/extra/layouts/flex/lv_flex.c ****          *cross_pos += total_track_cross_size;
 2606              		.loc 2 272 5 is_stmt 1 discriminator 4 view .LVU865
 272:Middlewares/lvgl/src/extra/layouts/flex/lv_flex.c ****          *cross_pos += total_track_cross_size;
 2607              		.loc 2 272 7 is_stmt 0 discriminator 4 view .LVU866
 2608 029c B8F1010F 		cmp	r8, #1
 2609 02a0 38D1     		bne	.L149
 272:Middlewares/lvgl/src/extra/layouts/flex/lv_flex.c ****          *cross_pos += total_track_cross_size;
 2610              		.loc 2 272 12 discriminator 1 view .LVU867
 2611 02a2 13F0010F 		tst	r3, #1
 2612 02a6 35D1     		bne	.L149
 273:Middlewares/lvgl/src/extra/layouts/flex/lv_flex.c ****     }
 2613              		.loc 2 273 10 is_stmt 1 view .LVU868
 273:Middlewares/lvgl/src/extra/layouts/flex/lv_flex.c ****     }
 2614              		.loc 2 273 21 is_stmt 0 view .LVU869
 2615 02a8 B9F80030 		ldrh	r3, [r9]
 2616 02ac 1D44     		add	r5, r5, r3
 2617              	.LVL271:
 273:Middlewares/lvgl/src/extra/layouts/flex/lv_flex.c ****     }
 2618              		.loc 2 273 21 view .LVU870
 2619 02ae A9F80050 		strh	r5, [r9]	@ movhi
 2620 02b2 2FE0     		b	.L149
 2621              	.LVL272:
 2622              	.L158:
 2623              	.LBB129:
 252:Middlewares/lvgl/src/extra/layouts/flex/lv_flex.c ****         track_t t;
 2624              		.loc 2 252 67 view .LVU871
 2625 02b4 0022     		movs	r2, #0
 2626 02b6 74E7     		b	.L137
 2627              	.LVL273:
 2628              	.L142:
 266:Middlewares/lvgl/src/extra/layouts/flex/lv_flex.c ****         place_content(track_cross_place, max_cross_size, total_track_cross_size, track_cnt, cross_p
 2629              		.loc 2 266 80 discriminator 2 view .LVU872
 2630 02b8 2046     		mov	r0, r4
 2631 02ba FFF7FEFF 		bl	lv_obj_get_content_width
 2632              	.LVL274:
 266:Middlewares/lvgl/src/extra/layouts/flex/lv_flex.c ****         place_content(track_cross_place, max_cross_size, total_track_cross_size, track_cnt, cross_p
 2633              		.loc 2 266 80 discriminator 2 view .LVU873
 2634 02be 0146     		mov	r1, r0
 2635 02c0 D8E7     		b	.L143
 2636              	.LVL275:
 2637              	.L157:
 266:Middlewares/lvgl/src/extra/layouts/flex/lv_flex.c ****         place_content(track_cross_place, max_cross_size, total_track_cross_size, track_cnt, cross_p
 2638              		.loc 2 266 80 discriminator 2 view .LVU874
 2639              	.LBE129:
 245:Middlewares/lvgl/src/extra/layouts/flex/lv_flex.c ****     lv_coord_t gap = 0;
 2640              		.loc 2 245 16 view .LVU875
 2641 02c2 0025     		movs	r5, #0
 2642 02c4 E1E7     		b	.L136
 2643              	.LVL276:
 2644              	.L159:
ARM GAS  /tmp/ccU94mph.s 			page 81


 270:Middlewares/lvgl/src/extra/layouts/flex/lv_flex.c **** 
 2645              		.loc 2 270 64 view .LVU876
 2646 02c6 4FF0000B 		mov	fp, #0
 2647 02ca E7E7     		b	.L144
 2648              	.LVL277:
 2649              	.L166:
 2650              	.LBB130:
 282:Middlewares/lvgl/src/extra/layouts/flex/lv_flex.c ****             *cross_pos -= t.track_cross_size;
 2651              		.loc 2 282 19 discriminator 1 view .LVU877
 2652 02cc 9DF84F30 		ldrb	r3, [sp, #79]	@ zero_extendqisi2
 282:Middlewares/lvgl/src/extra/layouts/flex/lv_flex.c ****             *cross_pos -= t.track_cross_size;
 2653              		.loc 2 282 16 discriminator 1 view .LVU878
 2654 02d0 13F0010F 		tst	r3, #1
 2655 02d4 38D1     		bne	.L146
 283:Middlewares/lvgl/src/extra/layouts/flex/lv_flex.c ****         }
 2656              		.loc 2 283 13 is_stmt 1 view .LVU879
 283:Middlewares/lvgl/src/extra/layouts/flex/lv_flex.c ****         }
 2657              		.loc 2 283 28 is_stmt 0 view .LVU880
 2658 02d6 BDF82C20 		ldrh	r2, [sp, #44]
 283:Middlewares/lvgl/src/extra/layouts/flex/lv_flex.c ****         }
 2659              		.loc 2 283 24 view .LVU881
 2660 02da B9F80030 		ldrh	r3, [r9]
 2661 02de 9B1A     		subs	r3, r3, r2
 2662 02e0 A9F80030 		strh	r3, [r9]	@ movhi
 2663 02e4 30E0     		b	.L146
 2664              	.L168:
 2665 02e6 00BF     		.align	2
 2666              	.L167:
 2667 02e8 00000000 		.word	.LANCHOR1
 2668 02ec 00000000 		.word	.LANCHOR2
 2669 02f0 00000000 		.word	.LANCHOR3
 2670 02f4 00000000 		.word	.LANCHOR4
 2671              	.LVL278:
 2672              	.L147:
 292:Middlewares/lvgl/src/extra/layouts/flex/lv_flex.c ****         }
 2673              		.loc 2 292 13 is_stmt 1 view .LVU882
 292:Middlewares/lvgl/src/extra/layouts/flex/lv_flex.c ****         }
 2674              		.loc 2 292 28 is_stmt 0 view .LVU883
 2675 02f8 BDF82C20 		ldrh	r2, [sp, #44]
 292:Middlewares/lvgl/src/extra/layouts/flex/lv_flex.c ****         }
 2676              		.loc 2 292 46 view .LVU884
 2677 02fc BDF84630 		ldrh	r3, [sp, #70]
 2678 0300 1A44     		add	r2, r2, r3
 292:Middlewares/lvgl/src/extra/layouts/flex/lv_flex.c ****         }
 2679              		.loc 2 292 52 view .LVU885
 2680 0302 1AFA82F2 		uxtah	r2, r10, r2
 292:Middlewares/lvgl/src/extra/layouts/flex/lv_flex.c ****         }
 2681              		.loc 2 292 24 view .LVU886
 2682 0306 B9F80030 		ldrh	r3, [r9]
 2683 030a 13FA82F2 		uxtah	r2, r3, r2
 2684 030e A9F80020 		strh	r2, [r9]	@ movhi
 2685              	.L148:
 286:Middlewares/lvgl/src/extra/layouts/flex/lv_flex.c ****         lv_mem_buf_release(t.grow_dsc);
 2686              		.loc 2 286 26 view .LVU887
 2687 0312 AB46     		mov	fp, r5
 2688              	.LVL279:
 2689              	.L149:
ARM GAS  /tmp/ccU94mph.s 			page 82


 286:Middlewares/lvgl/src/extra/layouts/flex/lv_flex.c ****         lv_mem_buf_release(t.grow_dsc);
 2690              		.loc 2 286 26 view .LVU888
 2691              	.LBE130:
 276:Middlewares/lvgl/src/extra/layouts/flex/lv_flex.c ****         track_t t;
 2692              		.loc 2 276 10 is_stmt 1 view .LVU889
 276:Middlewares/lvgl/src/extra/layouts/flex/lv_flex.c ****         track_t t;
 2693              		.loc 2 276 43 is_stmt 0 view .LVU890
 2694 0314 A368     		ldr	r3, [r4, #8]
 276:Middlewares/lvgl/src/extra/layouts/flex/lv_flex.c ****         track_t t;
 2695              		.loc 2 276 54 view .LVU891
 2696 0316 5B68     		ldr	r3, [r3, #4]
 276:Middlewares/lvgl/src/extra/layouts/flex/lv_flex.c ****         track_t t;
 2697              		.loc 2 276 10 view .LVU892
 2698 0318 5B45     		cmp	r3, fp
 2699 031a 3CDD     		ble	.L150
 276:Middlewares/lvgl/src/extra/layouts/flex/lv_flex.c ****         track_t t;
 2700              		.loc 2 276 66 discriminator 1 view .LVU893
 2701 031c BBF1000F 		cmp	fp, #0
 2702 0320 39DB     		blt	.L150
 2703              	.LBB131:
 277:Middlewares/lvgl/src/extra/layouts/flex/lv_flex.c ****         t.grow_dsc_calc = 1;
 2704              		.loc 2 277 9 is_stmt 1 view .LVU894
 278:Middlewares/lvgl/src/extra/layouts/flex/lv_flex.c ****         /*Search the first item of the next row*/
 2705              		.loc 2 278 9 view .LVU895
 278:Middlewares/lvgl/src/extra/layouts/flex/lv_flex.c ****         /*Search the first item of the next row*/
 2706              		.loc 2 278 25 is_stmt 0 view .LVU896
 2707 0322 9DF84030 		ldrb	r3, [sp, #64]	@ zero_extendqisi2
 2708 0326 43F00103 		orr	r3, r3, #1
 2709 032a 8DF84030 		strb	r3, [sp, #64]
 280:Middlewares/lvgl/src/extra/layouts/flex/lv_flex.c **** 
 2710              		.loc 2 280 9 is_stmt 1 view .LVU897
 280:Middlewares/lvgl/src/extra/layouts/flex/lv_flex.c **** 
 2711              		.loc 2 280 33 is_stmt 0 view .LVU898
 2712 032e 0BAB     		add	r3, sp, #44
 2713 0330 0193     		str	r3, [sp, #4]
 2714 0332 0096     		str	r6, [sp]
 2715 0334 3B46     		mov	r3, r7
 2716 0336 5A46     		mov	r2, fp
 2717 0338 13A9     		add	r1, sp, #76
 2718 033a 2046     		mov	r0, r4
 2719 033c FFF7FEFF 		bl	find_track_end
 2720              	.LVL280:
 2721 0340 0546     		mov	r5, r0
 2722              	.LVL281:
 282:Middlewares/lvgl/src/extra/layouts/flex/lv_flex.c ****             *cross_pos -= t.track_cross_size;
 2723              		.loc 2 282 9 is_stmt 1 view .LVU899
 282:Middlewares/lvgl/src/extra/layouts/flex/lv_flex.c ****             *cross_pos -= t.track_cross_size;
 2724              		.loc 2 282 11 is_stmt 0 view .LVU900
 2725 0342 B8F1010F 		cmp	r8, #1
 2726 0346 C1D0     		beq	.L166
 2727              	.L146:
 285:Middlewares/lvgl/src/extra/layouts/flex/lv_flex.c ****         track_first_item = next_track_first_item;
 2728              		.loc 2 285 9 is_stmt 1 view .LVU901
 2729 0348 0BAB     		add	r3, sp, #44
 2730 034a 0493     		str	r3, [sp, #16]
 2731 034c 0396     		str	r6, [sp, #12]
 2732 034e 0297     		str	r7, [sp, #8]
ARM GAS  /tmp/ccU94mph.s 			page 83


 2733 0350 BDF94A30 		ldrsh	r3, [sp, #74]
 2734 0354 0193     		str	r3, [sp, #4]
 2735 0356 BDF94830 		ldrsh	r3, [sp, #72]
 2736 035a 0093     		str	r3, [sp]
 2737 035c 2B46     		mov	r3, r5
 2738 035e 5A46     		mov	r2, fp
 2739 0360 13A9     		add	r1, sp, #76
 2740 0362 2046     		mov	r0, r4
 2741              	.LVL282:
 285:Middlewares/lvgl/src/extra/layouts/flex/lv_flex.c ****         track_first_item = next_track_first_item;
 2742              		.loc 2 285 9 is_stmt 0 view .LVU902
 2743 0364 FFF7FEFF 		bl	children_repos
 2744              	.LVL283:
 286:Middlewares/lvgl/src/extra/layouts/flex/lv_flex.c ****         lv_mem_buf_release(t.grow_dsc);
 2745              		.loc 2 286 9 is_stmt 1 view .LVU903
 287:Middlewares/lvgl/src/extra/layouts/flex/lv_flex.c ****         t.grow_dsc = NULL;
 2746              		.loc 2 287 9 view .LVU904
 2747 0368 0E98     		ldr	r0, [sp, #56]
 2748 036a FFF7FEFF 		bl	lv_mem_buf_release
 2749              	.LVL284:
 288:Middlewares/lvgl/src/extra/layouts/flex/lv_flex.c ****         if(rtl && !f.row) {
 2750              		.loc 2 288 9 view .LVU905
 288:Middlewares/lvgl/src/extra/layouts/flex/lv_flex.c ****         if(rtl && !f.row) {
 2751              		.loc 2 288 20 is_stmt 0 view .LVU906
 2752 036e 0023     		movs	r3, #0
 2753 0370 0E93     		str	r3, [sp, #56]
 289:Middlewares/lvgl/src/extra/layouts/flex/lv_flex.c ****             *cross_pos -= gap + track_gap;
 2754              		.loc 2 289 9 is_stmt 1 view .LVU907
 289:Middlewares/lvgl/src/extra/layouts/flex/lv_flex.c ****             *cross_pos -= gap + track_gap;
 2755              		.loc 2 289 11 is_stmt 0 view .LVU908
 2756 0372 B8F1010F 		cmp	r8, #1
 2757 0376 BFD1     		bne	.L147
 289:Middlewares/lvgl/src/extra/layouts/flex/lv_flex.c ****             *cross_pos -= gap + track_gap;
 2758              		.loc 2 289 19 discriminator 1 view .LVU909
 2759 0378 9DF84F30 		ldrb	r3, [sp, #79]	@ zero_extendqisi2
 289:Middlewares/lvgl/src/extra/layouts/flex/lv_flex.c ****             *cross_pos -= gap + track_gap;
 2760              		.loc 2 289 16 discriminator 1 view .LVU910
 2761 037c 13F0010F 		tst	r3, #1
 2762 0380 BAD1     		bne	.L147
 290:Middlewares/lvgl/src/extra/layouts/flex/lv_flex.c ****         } else {
 2763              		.loc 2 290 13 is_stmt 1 view .LVU911
 290:Middlewares/lvgl/src/extra/layouts/flex/lv_flex.c ****         } else {
 2764              		.loc 2 290 31 is_stmt 0 view .LVU912
 2765 0382 BDF84630 		ldrh	r3, [sp, #70]
 2766 0386 5344     		add	r3, r3, r10
 2767 0388 9BB2     		uxth	r3, r3
 290:Middlewares/lvgl/src/extra/layouts/flex/lv_flex.c ****         } else {
 2768              		.loc 2 290 24 view .LVU913
 2769 038a B9F80020 		ldrh	r2, [r9]
 2770 038e D31A     		subs	r3, r2, r3
 2771 0390 A9F80030 		strh	r3, [r9]	@ movhi
 2772 0394 BDE7     		b	.L148
 2773              	.LVL285:
 2774              	.L150:
 290:Middlewares/lvgl/src/extra/layouts/flex/lv_flex.c ****         } else {
 2775              		.loc 2 290 24 view .LVU914
 2776              	.LBE131:
ARM GAS  /tmp/ccU94mph.s 			page 84


 295:Middlewares/lvgl/src/extra/layouts/flex/lv_flex.c **** 
 2777              		.loc 2 295 30 is_stmt 1 view .LVU915
 297:Middlewares/lvgl/src/extra/layouts/flex/lv_flex.c ****         lv_obj_refr_size(cont);
 2778              		.loc 2 297 5 view .LVU916
 297:Middlewares/lvgl/src/extra/layouts/flex/lv_flex.c ****         lv_obj_refr_size(cont);
 2779              		.loc 2 297 7 is_stmt 0 view .LVU917
 2780 0396 42F2D173 		movw	r3, #10193
 2781 039a 089A     		ldr	r2, [sp, #32]
 2782 039c 9A42     		cmp	r2, r3
 2783 039e 0AD0     		beq	.L152
 297:Middlewares/lvgl/src/extra/layouts/flex/lv_flex.c ****         lv_obj_refr_size(cont);
 2784              		.loc 2 297 33 discriminator 1 view .LVU918
 2785 03a0 099A     		ldr	r2, [sp, #36]
 2786 03a2 9A42     		cmp	r2, r3
 2787 03a4 07D0     		beq	.L152
 2788              	.L153:
 301:Middlewares/lvgl/src/extra/layouts/flex/lv_flex.c **** 
 2789              		.loc 2 301 5 is_stmt 1 view .LVU919
 2790 03a6 0022     		movs	r2, #0
 2791 03a8 2521     		movs	r1, #37
 2792 03aa 2046     		mov	r0, r4
 2793 03ac FFF7FEFF 		bl	lv_event_send
 2794              	.LVL286:
 303:Middlewares/lvgl/src/extra/layouts/flex/lv_flex.c **** }
 2795              		.loc 2 303 32 view .LVU920
 304:Middlewares/lvgl/src/extra/layouts/flex/lv_flex.c **** 
 2796              		.loc 2 304 1 is_stmt 0 view .LVU921
 2797 03b0 15B0     		add	sp, sp, #84
 2798              	.LCFI12:
 2799              		.cfi_remember_state
 2800              		.cfi_def_cfa_offset 36
 2801              		@ sp needed
 2802 03b2 BDE8F08F 		pop	{r4, r5, r6, r7, r8, r9, r10, fp, pc}
 2803              	.LVL287:
 2804              	.L152:
 2805              	.LCFI13:
 2806              		.cfi_restore_state
 298:Middlewares/lvgl/src/extra/layouts/flex/lv_flex.c ****     }
 2807              		.loc 2 298 9 is_stmt 1 view .LVU922
 2808 03b6 2046     		mov	r0, r4
 2809 03b8 FFF7FEFF 		bl	lv_obj_refr_size
 2810              	.LVL288:
 2811 03bc F3E7     		b	.L153
 2812              		.cfi_endproc
 2813              	.LFE177:
 2815 03be 00BF     		.section	.text.lv_flex_init,"ax",%progbits
 2816              		.align	1
 2817              		.global	lv_flex_init
 2818              		.syntax unified
 2819              		.thumb
 2820              		.thumb_func
 2821              		.fpu fpv4-sp-d16
 2823              	lv_flex_init:
 2824              	.LFB163:
  90:Middlewares/lvgl/src/extra/layouts/flex/lv_flex.c ****     LV_LAYOUT_FLEX = lv_layout_register(flex_update, NULL);
 2825              		.loc 2 90 1 view -0
 2826              		.cfi_startproc
ARM GAS  /tmp/ccU94mph.s 			page 85


 2827              		@ args = 0, pretend = 0, frame = 0
 2828              		@ frame_needed = 0, uses_anonymous_args = 0
 2829 0000 08B5     		push	{r3, lr}
 2830              	.LCFI14:
 2831              		.cfi_def_cfa_offset 8
 2832              		.cfi_offset 3, -8
 2833              		.cfi_offset 14, -4
  91:Middlewares/lvgl/src/extra/layouts/flex/lv_flex.c **** 
 2834              		.loc 2 91 5 view .LVU924
  91:Middlewares/lvgl/src/extra/layouts/flex/lv_flex.c **** 
 2835              		.loc 2 91 22 is_stmt 0 view .LVU925
 2836 0002 0021     		movs	r1, #0
 2837 0004 0D48     		ldr	r0, .L171
 2838 0006 FFF7FEFF 		bl	lv_layout_register
 2839              	.LVL289:
  91:Middlewares/lvgl/src/extra/layouts/flex/lv_flex.c **** 
 2840              		.loc 2 91 20 view .LVU926
 2841 000a 0D4B     		ldr	r3, .L171+4
 2842 000c 1860     		str	r0, [r3]
  93:Middlewares/lvgl/src/extra/layouts/flex/lv_flex.c ****     LV_STYLE_FLEX_MAIN_PLACE = lv_style_register_prop() | LV_STYLE_PROP_LAYOUT_REFR;
 2843              		.loc 2 93 5 is_stmt 1 view .LVU927
  93:Middlewares/lvgl/src/extra/layouts/flex/lv_flex.c ****     LV_STYLE_FLEX_MAIN_PLACE = lv_style_register_prop() | LV_STYLE_PROP_LAYOUT_REFR;
 2844              		.loc 2 93 26 is_stmt 0 view .LVU928
 2845 000e FFF7FEFF 		bl	lv_style_register_prop
 2846              	.LVL290:
  93:Middlewares/lvgl/src/extra/layouts/flex/lv_flex.c ****     LV_STYLE_FLEX_MAIN_PLACE = lv_style_register_prop() | LV_STYLE_PROP_LAYOUT_REFR;
 2847              		.loc 2 93 24 view .LVU929
 2848 0012 0C4B     		ldr	r3, .L171+8
 2849 0014 1880     		strh	r0, [r3]	@ movhi
  94:Middlewares/lvgl/src/extra/layouts/flex/lv_flex.c ****     LV_STYLE_FLEX_CROSS_PLACE = lv_style_register_prop() | LV_STYLE_PROP_LAYOUT_REFR;
 2850              		.loc 2 94 5 is_stmt 1 view .LVU930
  94:Middlewares/lvgl/src/extra/layouts/flex/lv_flex.c ****     LV_STYLE_FLEX_CROSS_PLACE = lv_style_register_prop() | LV_STYLE_PROP_LAYOUT_REFR;
 2851              		.loc 2 94 32 is_stmt 0 view .LVU931
 2852 0016 FFF7FEFF 		bl	lv_style_register_prop
 2853              	.LVL291:
  94:Middlewares/lvgl/src/extra/layouts/flex/lv_flex.c ****     LV_STYLE_FLEX_CROSS_PLACE = lv_style_register_prop() | LV_STYLE_PROP_LAYOUT_REFR;
 2854              		.loc 2 94 30 view .LVU932
 2855 001a 40F48050 		orr	r0, r0, #4096
 2856 001e 0A4B     		ldr	r3, .L171+12
 2857 0020 1880     		strh	r0, [r3]	@ movhi
  95:Middlewares/lvgl/src/extra/layouts/flex/lv_flex.c ****     LV_STYLE_FLEX_TRACK_PLACE = lv_style_register_prop() | LV_STYLE_PROP_LAYOUT_REFR;
 2858              		.loc 2 95 5 is_stmt 1 view .LVU933
  95:Middlewares/lvgl/src/extra/layouts/flex/lv_flex.c ****     LV_STYLE_FLEX_TRACK_PLACE = lv_style_register_prop() | LV_STYLE_PROP_LAYOUT_REFR;
 2859              		.loc 2 95 33 is_stmt 0 view .LVU934
 2860 0022 FFF7FEFF 		bl	lv_style_register_prop
 2861              	.LVL292:
  95:Middlewares/lvgl/src/extra/layouts/flex/lv_flex.c ****     LV_STYLE_FLEX_TRACK_PLACE = lv_style_register_prop() | LV_STYLE_PROP_LAYOUT_REFR;
 2862              		.loc 2 95 31 view .LVU935
 2863 0026 40F48050 		orr	r0, r0, #4096
 2864 002a 084B     		ldr	r3, .L171+16
 2865 002c 1880     		strh	r0, [r3]	@ movhi
  96:Middlewares/lvgl/src/extra/layouts/flex/lv_flex.c **** }
 2866              		.loc 2 96 5 is_stmt 1 view .LVU936
  96:Middlewares/lvgl/src/extra/layouts/flex/lv_flex.c **** }
 2867              		.loc 2 96 33 is_stmt 0 view .LVU937
 2868 002e FFF7FEFF 		bl	lv_style_register_prop
 2869              	.LVL293:
ARM GAS  /tmp/ccU94mph.s 			page 86


  96:Middlewares/lvgl/src/extra/layouts/flex/lv_flex.c **** }
 2870              		.loc 2 96 31 view .LVU938
 2871 0032 40F48050 		orr	r0, r0, #4096
 2872 0036 064B     		ldr	r3, .L171+20
 2873 0038 1880     		strh	r0, [r3]	@ movhi
  97:Middlewares/lvgl/src/extra/layouts/flex/lv_flex.c **** 
 2874              		.loc 2 97 1 view .LVU939
 2875 003a 08BD     		pop	{r3, pc}
 2876              	.L172:
 2877              		.align	2
 2878              	.L171:
 2879 003c 00000000 		.word	flex_update
 2880 0040 00000000 		.word	.LANCHOR5
 2881 0044 00000000 		.word	.LANCHOR1
 2882 0048 00000000 		.word	.LANCHOR2
 2883 004c 00000000 		.word	.LANCHOR3
 2884 0050 00000000 		.word	.LANCHOR4
 2885              		.cfi_endproc
 2886              	.LFE163:
 2888              		.section	.text.lv_style_set_flex_flow,"ax",%progbits
 2889              		.align	1
 2890              		.global	lv_style_set_flex_flow
 2891              		.syntax unified
 2892              		.thumb
 2893              		.thumb_func
 2894              		.fpu fpv4-sp-d16
 2896              	lv_style_set_flex_flow:
 2897              	.LVL294:
 2898              	.LFB167:
 121:Middlewares/lvgl/src/extra/layouts/flex/lv_flex.c ****     lv_style_value_t v = {
 2899              		.loc 2 121 1 is_stmt 1 view -0
 2900              		.cfi_startproc
 2901              		@ args = 0, pretend = 0, frame = 0
 2902              		@ frame_needed = 0, uses_anonymous_args = 0
 121:Middlewares/lvgl/src/extra/layouts/flex/lv_flex.c ****     lv_style_value_t v = {
 2903              		.loc 2 121 1 is_stmt 0 view .LVU941
 2904 0000 08B5     		push	{r3, lr}
 2905              	.LCFI15:
 2906              		.cfi_def_cfa_offset 8
 2907              		.cfi_offset 3, -8
 2908              		.cfi_offset 14, -4
 2909 0002 0A46     		mov	r2, r1
 122:Middlewares/lvgl/src/extra/layouts/flex/lv_flex.c ****         .num = (int32_t)value
 2910              		.loc 2 122 5 is_stmt 1 view .LVU942
 125:Middlewares/lvgl/src/extra/layouts/flex/lv_flex.c **** }
 2911              		.loc 2 125 5 view .LVU943
 2912 0004 024B     		ldr	r3, .L175
 2913 0006 1988     		ldrh	r1, [r3]
 2914              	.LVL295:
 125:Middlewares/lvgl/src/extra/layouts/flex/lv_flex.c **** }
 2915              		.loc 2 125 5 is_stmt 0 view .LVU944
 2916 0008 FFF7FEFF 		bl	lv_style_set_prop
 2917              	.LVL296:
 126:Middlewares/lvgl/src/extra/layouts/flex/lv_flex.c **** 
 2918              		.loc 2 126 1 view .LVU945
 2919 000c 08BD     		pop	{r3, pc}
 2920              	.L176:
ARM GAS  /tmp/ccU94mph.s 			page 87


 2921 000e 00BF     		.align	2
 2922              	.L175:
 2923 0010 00000000 		.word	.LANCHOR1
 2924              		.cfi_endproc
 2925              	.LFE167:
 2927              		.section	.text.lv_style_set_flex_main_place,"ax",%progbits
 2928              		.align	1
 2929              		.global	lv_style_set_flex_main_place
 2930              		.syntax unified
 2931              		.thumb
 2932              		.thumb_func
 2933              		.fpu fpv4-sp-d16
 2935              	lv_style_set_flex_main_place:
 2936              	.LVL297:
 2937              	.LFB168:
 129:Middlewares/lvgl/src/extra/layouts/flex/lv_flex.c ****     lv_style_value_t v = {
 2938              		.loc 2 129 1 is_stmt 1 view -0
 2939              		.cfi_startproc
 2940              		@ args = 0, pretend = 0, frame = 0
 2941              		@ frame_needed = 0, uses_anonymous_args = 0
 129:Middlewares/lvgl/src/extra/layouts/flex/lv_flex.c ****     lv_style_value_t v = {
 2942              		.loc 2 129 1 is_stmt 0 view .LVU947
 2943 0000 08B5     		push	{r3, lr}
 2944              	.LCFI16:
 2945              		.cfi_def_cfa_offset 8
 2946              		.cfi_offset 3, -8
 2947              		.cfi_offset 14, -4
 2948 0002 0A46     		mov	r2, r1
 130:Middlewares/lvgl/src/extra/layouts/flex/lv_flex.c ****         .num = (int32_t)value
 2949              		.loc 2 130 5 is_stmt 1 view .LVU948
 133:Middlewares/lvgl/src/extra/layouts/flex/lv_flex.c **** }
 2950              		.loc 2 133 5 view .LVU949
 2951 0004 024B     		ldr	r3, .L179
 2952 0006 1988     		ldrh	r1, [r3]
 2953              	.LVL298:
 133:Middlewares/lvgl/src/extra/layouts/flex/lv_flex.c **** }
 2954              		.loc 2 133 5 is_stmt 0 view .LVU950
 2955 0008 FFF7FEFF 		bl	lv_style_set_prop
 2956              	.LVL299:
 134:Middlewares/lvgl/src/extra/layouts/flex/lv_flex.c **** 
 2957              		.loc 2 134 1 view .LVU951
 2958 000c 08BD     		pop	{r3, pc}
 2959              	.L180:
 2960 000e 00BF     		.align	2
 2961              	.L179:
 2962 0010 00000000 		.word	.LANCHOR2
 2963              		.cfi_endproc
 2964              	.LFE168:
 2966              		.section	.text.lv_style_set_flex_cross_place,"ax",%progbits
 2967              		.align	1
 2968              		.global	lv_style_set_flex_cross_place
 2969              		.syntax unified
 2970              		.thumb
 2971              		.thumb_func
 2972              		.fpu fpv4-sp-d16
 2974              	lv_style_set_flex_cross_place:
 2975              	.LVL300:
ARM GAS  /tmp/ccU94mph.s 			page 88


 2976              	.LFB169:
 137:Middlewares/lvgl/src/extra/layouts/flex/lv_flex.c ****     lv_style_value_t v = {
 2977              		.loc 2 137 1 is_stmt 1 view -0
 2978              		.cfi_startproc
 2979              		@ args = 0, pretend = 0, frame = 0
 2980              		@ frame_needed = 0, uses_anonymous_args = 0
 137:Middlewares/lvgl/src/extra/layouts/flex/lv_flex.c ****     lv_style_value_t v = {
 2981              		.loc 2 137 1 is_stmt 0 view .LVU953
 2982 0000 08B5     		push	{r3, lr}
 2983              	.LCFI17:
 2984              		.cfi_def_cfa_offset 8
 2985              		.cfi_offset 3, -8
 2986              		.cfi_offset 14, -4
 2987 0002 0A46     		mov	r2, r1
 138:Middlewares/lvgl/src/extra/layouts/flex/lv_flex.c ****         .num = (int32_t)value
 2988              		.loc 2 138 5 is_stmt 1 view .LVU954
 141:Middlewares/lvgl/src/extra/layouts/flex/lv_flex.c **** }
 2989              		.loc 2 141 5 view .LVU955
 2990 0004 024B     		ldr	r3, .L183
 2991 0006 1988     		ldrh	r1, [r3]
 2992              	.LVL301:
 141:Middlewares/lvgl/src/extra/layouts/flex/lv_flex.c **** }
 2993              		.loc 2 141 5 is_stmt 0 view .LVU956
 2994 0008 FFF7FEFF 		bl	lv_style_set_prop
 2995              	.LVL302:
 142:Middlewares/lvgl/src/extra/layouts/flex/lv_flex.c **** 
 2996              		.loc 2 142 1 view .LVU957
 2997 000c 08BD     		pop	{r3, pc}
 2998              	.L184:
 2999 000e 00BF     		.align	2
 3000              	.L183:
 3001 0010 00000000 		.word	.LANCHOR3
 3002              		.cfi_endproc
 3003              	.LFE169:
 3005              		.section	.text.lv_style_set_flex_track_place,"ax",%progbits
 3006              		.align	1
 3007              		.global	lv_style_set_flex_track_place
 3008              		.syntax unified
 3009              		.thumb
 3010              		.thumb_func
 3011              		.fpu fpv4-sp-d16
 3013              	lv_style_set_flex_track_place:
 3014              	.LVL303:
 3015              	.LFB170:
 145:Middlewares/lvgl/src/extra/layouts/flex/lv_flex.c ****     lv_style_value_t v = {
 3016              		.loc 2 145 1 is_stmt 1 view -0
 3017              		.cfi_startproc
 3018              		@ args = 0, pretend = 0, frame = 0
 3019              		@ frame_needed = 0, uses_anonymous_args = 0
 145:Middlewares/lvgl/src/extra/layouts/flex/lv_flex.c ****     lv_style_value_t v = {
 3020              		.loc 2 145 1 is_stmt 0 view .LVU959
 3021 0000 08B5     		push	{r3, lr}
 3022              	.LCFI18:
 3023              		.cfi_def_cfa_offset 8
 3024              		.cfi_offset 3, -8
 3025              		.cfi_offset 14, -4
 3026 0002 0A46     		mov	r2, r1
ARM GAS  /tmp/ccU94mph.s 			page 89


 146:Middlewares/lvgl/src/extra/layouts/flex/lv_flex.c ****         .num = (int32_t)value
 3027              		.loc 2 146 5 is_stmt 1 view .LVU960
 149:Middlewares/lvgl/src/extra/layouts/flex/lv_flex.c **** }
 3028              		.loc 2 149 5 view .LVU961
 3029 0004 024B     		ldr	r3, .L187
 3030 0006 1988     		ldrh	r1, [r3]
 3031              	.LVL304:
 149:Middlewares/lvgl/src/extra/layouts/flex/lv_flex.c **** }
 3032              		.loc 2 149 5 is_stmt 0 view .LVU962
 3033 0008 FFF7FEFF 		bl	lv_style_set_prop
 3034              	.LVL305:
 150:Middlewares/lvgl/src/extra/layouts/flex/lv_flex.c **** 
 3035              		.loc 2 150 1 view .LVU963
 3036 000c 08BD     		pop	{r3, pc}
 3037              	.L188:
 3038 000e 00BF     		.align	2
 3039              	.L187:
 3040 0010 00000000 		.word	.LANCHOR4
 3041              		.cfi_endproc
 3042              	.LFE170:
 3044              		.section	.text.lv_style_set_flex_grow,"ax",%progbits
 3045              		.align	1
 3046              		.global	lv_style_set_flex_grow
 3047              		.syntax unified
 3048              		.thumb
 3049              		.thumb_func
 3050              		.fpu fpv4-sp-d16
 3052              	lv_style_set_flex_grow:
 3053              	.LVL306:
 3054              	.LFB171:
 153:Middlewares/lvgl/src/extra/layouts/flex/lv_flex.c ****     lv_style_value_t v = {
 3055              		.loc 2 153 1 is_stmt 1 view -0
 3056              		.cfi_startproc
 3057              		@ args = 0, pretend = 0, frame = 0
 3058              		@ frame_needed = 0, uses_anonymous_args = 0
 153:Middlewares/lvgl/src/extra/layouts/flex/lv_flex.c ****     lv_style_value_t v = {
 3059              		.loc 2 153 1 is_stmt 0 view .LVU965
 3060 0000 08B5     		push	{r3, lr}
 3061              	.LCFI19:
 3062              		.cfi_def_cfa_offset 8
 3063              		.cfi_offset 3, -8
 3064              		.cfi_offset 14, -4
 3065 0002 0A46     		mov	r2, r1
 154:Middlewares/lvgl/src/extra/layouts/flex/lv_flex.c ****             .num = (int32_t)value
 3066              		.loc 2 154 5 is_stmt 1 view .LVU966
 157:Middlewares/lvgl/src/extra/layouts/flex/lv_flex.c **** }
 3067              		.loc 2 157 5 view .LVU967
 3068 0004 024B     		ldr	r3, .L191
 3069 0006 1988     		ldrh	r1, [r3]
 3070              	.LVL307:
 157:Middlewares/lvgl/src/extra/layouts/flex/lv_flex.c **** }
 3071              		.loc 2 157 5 is_stmt 0 view .LVU968
 3072 0008 FFF7FEFF 		bl	lv_style_set_prop
 3073              	.LVL308:
 158:Middlewares/lvgl/src/extra/layouts/flex/lv_flex.c **** 
 3074              		.loc 2 158 1 view .LVU969
 3075 000c 08BD     		pop	{r3, pc}
ARM GAS  /tmp/ccU94mph.s 			page 90


 3076              	.L192:
 3077 000e 00BF     		.align	2
 3078              	.L191:
 3079 0010 00000000 		.word	.LANCHOR0
 3080              		.cfi_endproc
 3081              	.LFE171:
 3083              		.section	.text.lv_obj_set_style_flex_flow,"ax",%progbits
 3084              		.align	1
 3085              		.global	lv_obj_set_style_flex_flow
 3086              		.syntax unified
 3087              		.thumb
 3088              		.thumb_func
 3089              		.fpu fpv4-sp-d16
 3091              	lv_obj_set_style_flex_flow:
 3092              	.LVL309:
 3093              	.LFB172:
 162:Middlewares/lvgl/src/extra/layouts/flex/lv_flex.c ****     lv_style_value_t v = {
 3094              		.loc 2 162 1 is_stmt 1 view -0
 3095              		.cfi_startproc
 3096              		@ args = 0, pretend = 0, frame = 0
 3097              		@ frame_needed = 0, uses_anonymous_args = 0
 162:Middlewares/lvgl/src/extra/layouts/flex/lv_flex.c ****     lv_style_value_t v = {
 3098              		.loc 2 162 1 is_stmt 0 view .LVU971
 3099 0000 08B5     		push	{r3, lr}
 3100              	.LCFI20:
 3101              		.cfi_def_cfa_offset 8
 3102              		.cfi_offset 3, -8
 3103              		.cfi_offset 14, -4
 3104 0002 1346     		mov	r3, r2
 163:Middlewares/lvgl/src/extra/layouts/flex/lv_flex.c ****         .num = (int32_t) value
 3105              		.loc 2 163 5 is_stmt 1 view .LVU972
 166:Middlewares/lvgl/src/extra/layouts/flex/lv_flex.c **** }
 3106              		.loc 2 166 5 view .LVU973
 3107 0004 0A46     		mov	r2, r1
 3108              	.LVL310:
 166:Middlewares/lvgl/src/extra/layouts/flex/lv_flex.c **** }
 3109              		.loc 2 166 5 is_stmt 0 view .LVU974
 3110 0006 0249     		ldr	r1, .L195
 3111              	.LVL311:
 166:Middlewares/lvgl/src/extra/layouts/flex/lv_flex.c **** }
 3112              		.loc 2 166 5 view .LVU975
 3113 0008 0988     		ldrh	r1, [r1]
 3114 000a FFF7FEFF 		bl	lv_obj_set_local_style_prop
 3115              	.LVL312:
 167:Middlewares/lvgl/src/extra/layouts/flex/lv_flex.c **** 
 3116              		.loc 2 167 1 view .LVU976
 3117 000e 08BD     		pop	{r3, pc}
 3118              	.L196:
 3119              		.align	2
 3120              	.L195:
 3121 0010 00000000 		.word	.LANCHOR1
 3122              		.cfi_endproc
 3123              	.LFE172:
 3125              		.section	.text.lv_obj_set_flex_flow,"ax",%progbits
 3126              		.align	1
 3127              		.global	lv_obj_set_flex_flow
 3128              		.syntax unified
ARM GAS  /tmp/ccU94mph.s 			page 91


 3129              		.thumb
 3130              		.thumb_func
 3131              		.fpu fpv4-sp-d16
 3133              	lv_obj_set_flex_flow:
 3134              	.LVL313:
 3135              	.LFB164:
 100:Middlewares/lvgl/src/extra/layouts/flex/lv_flex.c ****     lv_obj_set_style_flex_flow(obj, flow, 0);
 3136              		.loc 2 100 1 is_stmt 1 view -0
 3137              		.cfi_startproc
 3138              		@ args = 0, pretend = 0, frame = 0
 3139              		@ frame_needed = 0, uses_anonymous_args = 0
 100:Middlewares/lvgl/src/extra/layouts/flex/lv_flex.c ****     lv_obj_set_style_flex_flow(obj, flow, 0);
 3140              		.loc 2 100 1 is_stmt 0 view .LVU978
 3141 0000 10B5     		push	{r4, lr}
 3142              	.LCFI21:
 3143              		.cfi_def_cfa_offset 8
 3144              		.cfi_offset 4, -8
 3145              		.cfi_offset 14, -4
 3146 0002 0446     		mov	r4, r0
 101:Middlewares/lvgl/src/extra/layouts/flex/lv_flex.c ****     lv_obj_set_style_layout(obj, LV_LAYOUT_FLEX, 0);
 3147              		.loc 2 101 5 is_stmt 1 view .LVU979
 3148 0004 0022     		movs	r2, #0
 3149 0006 FFF7FEFF 		bl	lv_obj_set_style_flex_flow
 3150              	.LVL314:
 102:Middlewares/lvgl/src/extra/layouts/flex/lv_flex.c **** }
 3151              		.loc 2 102 5 view .LVU980
 3152 000a 0022     		movs	r2, #0
 3153 000c 024B     		ldr	r3, .L199
 3154 000e 1988     		ldrh	r1, [r3]
 3155 0010 2046     		mov	r0, r4
 3156 0012 FFF7FEFF 		bl	lv_obj_set_style_layout
 3157              	.LVL315:
 103:Middlewares/lvgl/src/extra/layouts/flex/lv_flex.c **** 
 3158              		.loc 2 103 1 is_stmt 0 view .LVU981
 3159 0016 10BD     		pop	{r4, pc}
 3160              	.LVL316:
 3161              	.L200:
 103:Middlewares/lvgl/src/extra/layouts/flex/lv_flex.c **** 
 3162              		.loc 2 103 1 view .LVU982
 3163              		.align	2
 3164              	.L199:
 3165 0018 00000000 		.word	.LANCHOR5
 3166              		.cfi_endproc
 3167              	.LFE164:
 3169              		.section	.text.lv_obj_set_style_flex_main_place,"ax",%progbits
 3170              		.align	1
 3171              		.global	lv_obj_set_style_flex_main_place
 3172              		.syntax unified
 3173              		.thumb
 3174              		.thumb_func
 3175              		.fpu fpv4-sp-d16
 3177              	lv_obj_set_style_flex_main_place:
 3178              	.LVL317:
 3179              	.LFB173:
 170:Middlewares/lvgl/src/extra/layouts/flex/lv_flex.c ****     lv_style_value_t v = {
 3180              		.loc 2 170 1 is_stmt 1 view -0
 3181              		.cfi_startproc
ARM GAS  /tmp/ccU94mph.s 			page 92


 3182              		@ args = 0, pretend = 0, frame = 0
 3183              		@ frame_needed = 0, uses_anonymous_args = 0
 170:Middlewares/lvgl/src/extra/layouts/flex/lv_flex.c ****     lv_style_value_t v = {
 3184              		.loc 2 170 1 is_stmt 0 view .LVU984
 3185 0000 08B5     		push	{r3, lr}
 3186              	.LCFI22:
 3187              		.cfi_def_cfa_offset 8
 3188              		.cfi_offset 3, -8
 3189              		.cfi_offset 14, -4
 3190 0002 1346     		mov	r3, r2
 171:Middlewares/lvgl/src/extra/layouts/flex/lv_flex.c ****         .num = (int32_t) value
 3191              		.loc 2 171 5 is_stmt 1 view .LVU985
 174:Middlewares/lvgl/src/extra/layouts/flex/lv_flex.c **** }
 3192              		.loc 2 174 5 view .LVU986
 3193 0004 0A46     		mov	r2, r1
 3194              	.LVL318:
 174:Middlewares/lvgl/src/extra/layouts/flex/lv_flex.c **** }
 3195              		.loc 2 174 5 is_stmt 0 view .LVU987
 3196 0006 0249     		ldr	r1, .L203
 3197              	.LVL319:
 174:Middlewares/lvgl/src/extra/layouts/flex/lv_flex.c **** }
 3198              		.loc 2 174 5 view .LVU988
 3199 0008 0988     		ldrh	r1, [r1]
 3200 000a FFF7FEFF 		bl	lv_obj_set_local_style_prop
 3201              	.LVL320:
 175:Middlewares/lvgl/src/extra/layouts/flex/lv_flex.c **** 
 3202              		.loc 2 175 1 view .LVU989
 3203 000e 08BD     		pop	{r3, pc}
 3204              	.L204:
 3205              		.align	2
 3206              	.L203:
 3207 0010 00000000 		.word	.LANCHOR2
 3208              		.cfi_endproc
 3209              	.LFE173:
 3211              		.section	.text.lv_obj_set_style_flex_cross_place,"ax",%progbits
 3212              		.align	1
 3213              		.global	lv_obj_set_style_flex_cross_place
 3214              		.syntax unified
 3215              		.thumb
 3216              		.thumb_func
 3217              		.fpu fpv4-sp-d16
 3219              	lv_obj_set_style_flex_cross_place:
 3220              	.LVL321:
 3221              	.LFB174:
 178:Middlewares/lvgl/src/extra/layouts/flex/lv_flex.c ****     lv_style_value_t v = {
 3222              		.loc 2 178 1 is_stmt 1 view -0
 3223              		.cfi_startproc
 3224              		@ args = 0, pretend = 0, frame = 0
 3225              		@ frame_needed = 0, uses_anonymous_args = 0
 178:Middlewares/lvgl/src/extra/layouts/flex/lv_flex.c ****     lv_style_value_t v = {
 3226              		.loc 2 178 1 is_stmt 0 view .LVU991
 3227 0000 08B5     		push	{r3, lr}
 3228              	.LCFI23:
 3229              		.cfi_def_cfa_offset 8
 3230              		.cfi_offset 3, -8
 3231              		.cfi_offset 14, -4
 3232 0002 1346     		mov	r3, r2
ARM GAS  /tmp/ccU94mph.s 			page 93


 179:Middlewares/lvgl/src/extra/layouts/flex/lv_flex.c ****         .num = (int32_t) value
 3233              		.loc 2 179 5 is_stmt 1 view .LVU992
 182:Middlewares/lvgl/src/extra/layouts/flex/lv_flex.c **** }
 3234              		.loc 2 182 5 view .LVU993
 3235 0004 0A46     		mov	r2, r1
 3236              	.LVL322:
 182:Middlewares/lvgl/src/extra/layouts/flex/lv_flex.c **** }
 3237              		.loc 2 182 5 is_stmt 0 view .LVU994
 3238 0006 0249     		ldr	r1, .L207
 3239              	.LVL323:
 182:Middlewares/lvgl/src/extra/layouts/flex/lv_flex.c **** }
 3240              		.loc 2 182 5 view .LVU995
 3241 0008 0988     		ldrh	r1, [r1]
 3242 000a FFF7FEFF 		bl	lv_obj_set_local_style_prop
 3243              	.LVL324:
 183:Middlewares/lvgl/src/extra/layouts/flex/lv_flex.c **** 
 3244              		.loc 2 183 1 view .LVU996
 3245 000e 08BD     		pop	{r3, pc}
 3246              	.L208:
 3247              		.align	2
 3248              	.L207:
 3249 0010 00000000 		.word	.LANCHOR3
 3250              		.cfi_endproc
 3251              	.LFE174:
 3253              		.section	.text.lv_obj_set_style_flex_track_place,"ax",%progbits
 3254              		.align	1
 3255              		.global	lv_obj_set_style_flex_track_place
 3256              		.syntax unified
 3257              		.thumb
 3258              		.thumb_func
 3259              		.fpu fpv4-sp-d16
 3261              	lv_obj_set_style_flex_track_place:
 3262              	.LVL325:
 3263              	.LFB175:
 186:Middlewares/lvgl/src/extra/layouts/flex/lv_flex.c ****     lv_style_value_t v = {
 3264              		.loc 2 186 1 is_stmt 1 view -0
 3265              		.cfi_startproc
 3266              		@ args = 0, pretend = 0, frame = 0
 3267              		@ frame_needed = 0, uses_anonymous_args = 0
 186:Middlewares/lvgl/src/extra/layouts/flex/lv_flex.c ****     lv_style_value_t v = {
 3268              		.loc 2 186 1 is_stmt 0 view .LVU998
 3269 0000 08B5     		push	{r3, lr}
 3270              	.LCFI24:
 3271              		.cfi_def_cfa_offset 8
 3272              		.cfi_offset 3, -8
 3273              		.cfi_offset 14, -4
 3274 0002 1346     		mov	r3, r2
 187:Middlewares/lvgl/src/extra/layouts/flex/lv_flex.c ****         .num = (int32_t) value
 3275              		.loc 2 187 5 is_stmt 1 view .LVU999
 190:Middlewares/lvgl/src/extra/layouts/flex/lv_flex.c **** }
 3276              		.loc 2 190 5 view .LVU1000
 3277 0004 0A46     		mov	r2, r1
 3278              	.LVL326:
 190:Middlewares/lvgl/src/extra/layouts/flex/lv_flex.c **** }
 3279              		.loc 2 190 5 is_stmt 0 view .LVU1001
 3280 0006 0249     		ldr	r1, .L211
 3281              	.LVL327:
ARM GAS  /tmp/ccU94mph.s 			page 94


 190:Middlewares/lvgl/src/extra/layouts/flex/lv_flex.c **** }
 3282              		.loc 2 190 5 view .LVU1002
 3283 0008 0988     		ldrh	r1, [r1]
 3284 000a FFF7FEFF 		bl	lv_obj_set_local_style_prop
 3285              	.LVL328:
 191:Middlewares/lvgl/src/extra/layouts/flex/lv_flex.c **** 
 3286              		.loc 2 191 1 view .LVU1003
 3287 000e 08BD     		pop	{r3, pc}
 3288              	.L212:
 3289              		.align	2
 3290              	.L211:
 3291 0010 00000000 		.word	.LANCHOR4
 3292              		.cfi_endproc
 3293              	.LFE175:
 3295              		.section	.text.lv_obj_set_flex_align,"ax",%progbits
 3296              		.align	1
 3297              		.global	lv_obj_set_flex_align
 3298              		.syntax unified
 3299              		.thumb
 3300              		.thumb_func
 3301              		.fpu fpv4-sp-d16
 3303              	lv_obj_set_flex_align:
 3304              	.LVL329:
 3305              	.LFB165:
 106:Middlewares/lvgl/src/extra/layouts/flex/lv_flex.c ****     lv_obj_set_style_flex_main_place(obj, main_place, 0);
 3306              		.loc 2 106 1 is_stmt 1 view -0
 3307              		.cfi_startproc
 3308              		@ args = 0, pretend = 0, frame = 0
 3309              		@ frame_needed = 0, uses_anonymous_args = 0
 106:Middlewares/lvgl/src/extra/layouts/flex/lv_flex.c ****     lv_obj_set_style_flex_main_place(obj, main_place, 0);
 3310              		.loc 2 106 1 is_stmt 0 view .LVU1005
 3311 0000 70B5     		push	{r4, r5, r6, lr}
 3312              	.LCFI25:
 3313              		.cfi_def_cfa_offset 16
 3314              		.cfi_offset 4, -16
 3315              		.cfi_offset 5, -12
 3316              		.cfi_offset 6, -8
 3317              		.cfi_offset 14, -4
 3318 0002 0446     		mov	r4, r0
 3319 0004 1646     		mov	r6, r2
 3320 0006 1D46     		mov	r5, r3
 107:Middlewares/lvgl/src/extra/layouts/flex/lv_flex.c ****     lv_obj_set_style_flex_cross_place(obj, cross_place, 0);
 3321              		.loc 2 107 5 is_stmt 1 view .LVU1006
 3322 0008 0022     		movs	r2, #0
 3323              	.LVL330:
 107:Middlewares/lvgl/src/extra/layouts/flex/lv_flex.c ****     lv_obj_set_style_flex_cross_place(obj, cross_place, 0);
 3324              		.loc 2 107 5 is_stmt 0 view .LVU1007
 3325 000a FFF7FEFF 		bl	lv_obj_set_style_flex_main_place
 3326              	.LVL331:
 108:Middlewares/lvgl/src/extra/layouts/flex/lv_flex.c ****     lv_obj_set_style_flex_track_place(obj, track_place, 0);
 3327              		.loc 2 108 5 is_stmt 1 view .LVU1008
 3328 000e 0022     		movs	r2, #0
 3329 0010 3146     		mov	r1, r6
 3330 0012 2046     		mov	r0, r4
 3331 0014 FFF7FEFF 		bl	lv_obj_set_style_flex_cross_place
 3332              	.LVL332:
 109:Middlewares/lvgl/src/extra/layouts/flex/lv_flex.c ****     lv_obj_set_style_layout(obj, LV_LAYOUT_FLEX, 0);
ARM GAS  /tmp/ccU94mph.s 			page 95


 3333              		.loc 2 109 5 view .LVU1009
 3334 0018 0022     		movs	r2, #0
 3335 001a 2946     		mov	r1, r5
 3336 001c 2046     		mov	r0, r4
 3337 001e FFF7FEFF 		bl	lv_obj_set_style_flex_track_place
 3338              	.LVL333:
 110:Middlewares/lvgl/src/extra/layouts/flex/lv_flex.c **** }
 3339              		.loc 2 110 5 view .LVU1010
 3340 0022 0022     		movs	r2, #0
 3341 0024 024B     		ldr	r3, .L215
 3342 0026 1988     		ldrh	r1, [r3]
 3343 0028 2046     		mov	r0, r4
 3344 002a FFF7FEFF 		bl	lv_obj_set_style_layout
 3345              	.LVL334:
 111:Middlewares/lvgl/src/extra/layouts/flex/lv_flex.c **** 
 3346              		.loc 2 111 1 is_stmt 0 view .LVU1011
 3347 002e 70BD     		pop	{r4, r5, r6, pc}
 3348              	.LVL335:
 3349              	.L216:
 111:Middlewares/lvgl/src/extra/layouts/flex/lv_flex.c **** 
 3350              		.loc 2 111 1 view .LVU1012
 3351              		.align	2
 3352              	.L215:
 3353 0030 00000000 		.word	.LANCHOR5
 3354              		.cfi_endproc
 3355              	.LFE165:
 3357              		.section	.text.lv_obj_set_style_flex_grow,"ax",%progbits
 3358              		.align	1
 3359              		.global	lv_obj_set_style_flex_grow
 3360              		.syntax unified
 3361              		.thumb
 3362              		.thumb_func
 3363              		.fpu fpv4-sp-d16
 3365              	lv_obj_set_style_flex_grow:
 3366              	.LVL336:
 3367              	.LFB176:
 194:Middlewares/lvgl/src/extra/layouts/flex/lv_flex.c ****     lv_style_value_t v = {
 3368              		.loc 2 194 1 is_stmt 1 view -0
 3369              		.cfi_startproc
 3370              		@ args = 0, pretend = 0, frame = 0
 3371              		@ frame_needed = 0, uses_anonymous_args = 0
 194:Middlewares/lvgl/src/extra/layouts/flex/lv_flex.c ****     lv_style_value_t v = {
 3372              		.loc 2 194 1 is_stmt 0 view .LVU1014
 3373 0000 08B5     		push	{r3, lr}
 3374              	.LCFI26:
 3375              		.cfi_def_cfa_offset 8
 3376              		.cfi_offset 3, -8
 3377              		.cfi_offset 14, -4
 3378 0002 1346     		mov	r3, r2
 195:Middlewares/lvgl/src/extra/layouts/flex/lv_flex.c ****         .num = (int32_t) value
 3379              		.loc 2 195 5 is_stmt 1 view .LVU1015
 198:Middlewares/lvgl/src/extra/layouts/flex/lv_flex.c **** }
 3380              		.loc 2 198 5 view .LVU1016
 3381 0004 0A46     		mov	r2, r1
 3382              	.LVL337:
 198:Middlewares/lvgl/src/extra/layouts/flex/lv_flex.c **** }
 3383              		.loc 2 198 5 is_stmt 0 view .LVU1017
ARM GAS  /tmp/ccU94mph.s 			page 96


 3384 0006 0249     		ldr	r1, .L219
 3385              	.LVL338:
 198:Middlewares/lvgl/src/extra/layouts/flex/lv_flex.c **** }
 3386              		.loc 2 198 5 view .LVU1018
 3387 0008 0988     		ldrh	r1, [r1]
 3388 000a FFF7FEFF 		bl	lv_obj_set_local_style_prop
 3389              	.LVL339:
 199:Middlewares/lvgl/src/extra/layouts/flex/lv_flex.c **** 
 3390              		.loc 2 199 1 view .LVU1019
 3391 000e 08BD     		pop	{r3, pc}
 3392              	.L220:
 3393              		.align	2
 3394              	.L219:
 3395 0010 00000000 		.word	.LANCHOR0
 3396              		.cfi_endproc
 3397              	.LFE176:
 3399              		.section	.text.lv_obj_set_flex_grow,"ax",%progbits
 3400              		.align	1
 3401              		.global	lv_obj_set_flex_grow
 3402              		.syntax unified
 3403              		.thumb
 3404              		.thumb_func
 3405              		.fpu fpv4-sp-d16
 3407              	lv_obj_set_flex_grow:
 3408              	.LVL340:
 3409              	.LFB166:
 114:Middlewares/lvgl/src/extra/layouts/flex/lv_flex.c ****     lv_obj_set_style_flex_grow(obj, grow, 0);
 3410              		.loc 2 114 1 is_stmt 1 view -0
 3411              		.cfi_startproc
 3412              		@ args = 0, pretend = 0, frame = 0
 3413              		@ frame_needed = 0, uses_anonymous_args = 0
 114:Middlewares/lvgl/src/extra/layouts/flex/lv_flex.c ****     lv_obj_set_style_flex_grow(obj, grow, 0);
 3414              		.loc 2 114 1 is_stmt 0 view .LVU1021
 3415 0000 10B5     		push	{r4, lr}
 3416              	.LCFI27:
 3417              		.cfi_def_cfa_offset 8
 3418              		.cfi_offset 4, -8
 3419              		.cfi_offset 14, -4
 3420 0002 0446     		mov	r4, r0
 115:Middlewares/lvgl/src/extra/layouts/flex/lv_flex.c ****     lv_obj_mark_layout_as_dirty(lv_obj_get_parent(obj));
 3421              		.loc 2 115 5 is_stmt 1 view .LVU1022
 3422 0004 0022     		movs	r2, #0
 3423 0006 FFF7FEFF 		bl	lv_obj_set_style_flex_grow
 3424              	.LVL341:
 116:Middlewares/lvgl/src/extra/layouts/flex/lv_flex.c **** }
 3425              		.loc 2 116 5 view .LVU1023
 3426 000a 2046     		mov	r0, r4
 3427 000c FFF7FEFF 		bl	lv_obj_get_parent
 3428              	.LVL342:
 3429 0010 FFF7FEFF 		bl	lv_obj_mark_layout_as_dirty
 3430              	.LVL343:
 117:Middlewares/lvgl/src/extra/layouts/flex/lv_flex.c **** 
 3431              		.loc 2 117 1 is_stmt 0 view .LVU1024
 3432 0014 10BD     		pop	{r4, pc}
 117:Middlewares/lvgl/src/extra/layouts/flex/lv_flex.c **** 
 3433              		.loc 2 117 1 view .LVU1025
 3434              		.cfi_endproc
ARM GAS  /tmp/ccU94mph.s 			page 97


 3435              	.LFE166:
 3437              		.global	LV_STYLE_FLEX_GROW
 3438              		.global	LV_STYLE_FLEX_TRACK_PLACE
 3439              		.global	LV_STYLE_FLEX_CROSS_PLACE
 3440              		.global	LV_STYLE_FLEX_MAIN_PLACE
 3441              		.global	LV_STYLE_FLEX_FLOW
 3442              		.global	LV_LAYOUT_FLEX
 3443              		.section	.bss.LV_LAYOUT_FLEX,"aw",%nobits
 3444              		.align	2
 3445              		.set	.LANCHOR5,. + 0
 3448              	LV_LAYOUT_FLEX:
 3449 0000 00000000 		.space	4
 3450              		.section	.bss.LV_STYLE_FLEX_CROSS_PLACE,"aw",%nobits
 3451              		.align	1
 3452              		.set	.LANCHOR3,. + 0
 3455              	LV_STYLE_FLEX_CROSS_PLACE:
 3456 0000 0000     		.space	2
 3457              		.section	.bss.LV_STYLE_FLEX_FLOW,"aw",%nobits
 3458              		.align	1
 3459              		.set	.LANCHOR1,. + 0
 3462              	LV_STYLE_FLEX_FLOW:
 3463 0000 0000     		.space	2
 3464              		.section	.bss.LV_STYLE_FLEX_GROW,"aw",%nobits
 3465              		.align	1
 3466              		.set	.LANCHOR0,. + 0
 3469              	LV_STYLE_FLEX_GROW:
 3470 0000 0000     		.space	2
 3471              		.section	.bss.LV_STYLE_FLEX_MAIN_PLACE,"aw",%nobits
 3472              		.align	1
 3473              		.set	.LANCHOR2,. + 0
 3476              	LV_STYLE_FLEX_MAIN_PLACE:
 3477 0000 0000     		.space	2
 3478              		.section	.bss.LV_STYLE_FLEX_TRACK_PLACE,"aw",%nobits
 3479              		.align	1
 3480              		.set	.LANCHOR4,. + 0
 3483              	LV_STYLE_FLEX_TRACK_PLACE:
 3484 0000 0000     		.space	2
 3485              		.text
 3486              	.Letext0:
 3487              		.file 5 "/home/akinya/gcc-arm-none-eabi/arm-none-eabi/include/machine/_default_types.h"
 3488              		.file 6 "/home/akinya/gcc-arm-none-eabi/arm-none-eabi/include/sys/_stdint.h"
 3489              		.file 7 "Middlewares/lvgl/src/extra/layouts/flex/../flex/../../../core/../misc/lv_color.h"
 3490              		.file 8 "Middlewares/lvgl/src/extra/layouts/flex/../flex/../../../core/../misc/lv_bidi.h"
 3491              		.file 9 "Middlewares/lvgl/src/extra/layouts/flex/../flex/../../../core/../misc/lv_style.h"
 3492              		.file 10 "Middlewares/lvgl/src/extra/layouts/flex/../flex/../../../core/../hal/../misc/lv_ll.h"
 3493              		.file 11 "Middlewares/lvgl/src/extra/layouts/flex/../flex/../../../core/lv_obj.h"
 3494              		.file 12 "Middlewares/lvgl/src/extra/layouts/flex/../flex/../../../core/lv_group.h"
 3495              		.file 13 "Middlewares/lvgl/src/extra/layouts/flex/../flex/../../../core/lv_obj_scroll.h"
 3496              		.file 14 "Middlewares/lvgl/src/extra/layouts/flex/../flex/../../../core/lv_obj_style.h"
 3497              		.file 15 "Middlewares/lvgl/src/extra/layouts/flex/../flex/../../../core/lv_obj_class.h"
 3498              		.file 16 "Middlewares/lvgl/src/extra/layouts/flex/../flex/../../../core/lv_event.h"
 3499              		.file 17 "Middlewares/lvgl/src/extra/layouts/flex/../flex/../../../core/lv_obj_pos.h"
 3500              		.file 18 "Middlewares/lvgl/src/extra/layouts/flex/../flex/../../../core/lv_obj_tree.h"
 3501              		.file 19 "Middlewares/lvgl/src/extra/layouts/flex/../flex/../../../core/../hal/../misc/lv_mem.h"
ARM GAS  /tmp/ccU94mph.s 			page 98


DEFINED SYMBOLS
                            *ABS*:0000000000000000 lv_flex.c
     /tmp/ccU94mph.s:18     .text.lv_area_get_width:0000000000000000 $t
     /tmp/ccU94mph.s:25     .text.lv_area_get_width:0000000000000000 lv_area_get_width
     /tmp/ccU94mph.s:55     .text.lv_area_get_height:0000000000000000 $t
     /tmp/ccU94mph.s:61     .text.lv_area_get_height:0000000000000000 lv_area_get_height
     /tmp/ccU94mph.s:90     .text.place_content:0000000000000000 $t
     /tmp/ccU94mph.s:96     .text.place_content:0000000000000000 place_content
     /tmp/ccU94mph.s:124    .text.place_content:0000000000000012 $d
     /tmp/ccU94mph.s:281    .text.get_next_item:0000000000000000 $t
     /tmp/ccU94mph.s:287    .text.get_next_item:0000000000000000 get_next_item
     /tmp/ccU94mph.s:363    .text.find_track_end:0000000000000000 $t
     /tmp/ccU94mph.s:369    .text.find_track_end:0000000000000000 find_track_end
     /tmp/ccU94mph.s:980    .text.find_track_end:0000000000000268 $d
     /tmp/ccU94mph.s:988    .text.children_repos:0000000000000000 $t
     /tmp/ccU94mph.s:994    .text.children_repos:0000000000000000 children_repos
     /tmp/ccU94mph.s:1520   .text.children_repos:0000000000000230 $d
     /tmp/ccU94mph.s:1527   .text.children_repos:0000000000000240 $t
     /tmp/ccU94mph.s:1944   .text.children_repos:000000000000046c $d
     /tmp/ccU94mph.s:1951   .text.flex_update:0000000000000000 $t
     /tmp/ccU94mph.s:1957   .text.flex_update:0000000000000000 flex_update
     /tmp/ccU94mph.s:2667   .text.flex_update:00000000000002e8 $d
     /tmp/ccU94mph.s:2675   .text.flex_update:00000000000002f8 $t
     /tmp/ccU94mph.s:2816   .text.lv_flex_init:0000000000000000 $t
     /tmp/ccU94mph.s:2823   .text.lv_flex_init:0000000000000000 lv_flex_init
     /tmp/ccU94mph.s:2879   .text.lv_flex_init:000000000000003c $d
     /tmp/ccU94mph.s:2889   .text.lv_style_set_flex_flow:0000000000000000 $t
     /tmp/ccU94mph.s:2896   .text.lv_style_set_flex_flow:0000000000000000 lv_style_set_flex_flow
     /tmp/ccU94mph.s:2923   .text.lv_style_set_flex_flow:0000000000000010 $d
     /tmp/ccU94mph.s:2928   .text.lv_style_set_flex_main_place:0000000000000000 $t
     /tmp/ccU94mph.s:2935   .text.lv_style_set_flex_main_place:0000000000000000 lv_style_set_flex_main_place
     /tmp/ccU94mph.s:2962   .text.lv_style_set_flex_main_place:0000000000000010 $d
     /tmp/ccU94mph.s:2967   .text.lv_style_set_flex_cross_place:0000000000000000 $t
     /tmp/ccU94mph.s:2974   .text.lv_style_set_flex_cross_place:0000000000000000 lv_style_set_flex_cross_place
     /tmp/ccU94mph.s:3001   .text.lv_style_set_flex_cross_place:0000000000000010 $d
     /tmp/ccU94mph.s:3006   .text.lv_style_set_flex_track_place:0000000000000000 $t
     /tmp/ccU94mph.s:3013   .text.lv_style_set_flex_track_place:0000000000000000 lv_style_set_flex_track_place
     /tmp/ccU94mph.s:3040   .text.lv_style_set_flex_track_place:0000000000000010 $d
     /tmp/ccU94mph.s:3045   .text.lv_style_set_flex_grow:0000000000000000 $t
     /tmp/ccU94mph.s:3052   .text.lv_style_set_flex_grow:0000000000000000 lv_style_set_flex_grow
     /tmp/ccU94mph.s:3079   .text.lv_style_set_flex_grow:0000000000000010 $d
     /tmp/ccU94mph.s:3084   .text.lv_obj_set_style_flex_flow:0000000000000000 $t
     /tmp/ccU94mph.s:3091   .text.lv_obj_set_style_flex_flow:0000000000000000 lv_obj_set_style_flex_flow
     /tmp/ccU94mph.s:3121   .text.lv_obj_set_style_flex_flow:0000000000000010 $d
     /tmp/ccU94mph.s:3126   .text.lv_obj_set_flex_flow:0000000000000000 $t
     /tmp/ccU94mph.s:3133   .text.lv_obj_set_flex_flow:0000000000000000 lv_obj_set_flex_flow
     /tmp/ccU94mph.s:3165   .text.lv_obj_set_flex_flow:0000000000000018 $d
     /tmp/ccU94mph.s:3170   .text.lv_obj_set_style_flex_main_place:0000000000000000 $t
     /tmp/ccU94mph.s:3177   .text.lv_obj_set_style_flex_main_place:0000000000000000 lv_obj_set_style_flex_main_place
     /tmp/ccU94mph.s:3207   .text.lv_obj_set_style_flex_main_place:0000000000000010 $d
     /tmp/ccU94mph.s:3212   .text.lv_obj_set_style_flex_cross_place:0000000000000000 $t
     /tmp/ccU94mph.s:3219   .text.lv_obj_set_style_flex_cross_place:0000000000000000 lv_obj_set_style_flex_cross_place
     /tmp/ccU94mph.s:3249   .text.lv_obj_set_style_flex_cross_place:0000000000000010 $d
     /tmp/ccU94mph.s:3254   .text.lv_obj_set_style_flex_track_place:0000000000000000 $t
     /tmp/ccU94mph.s:3261   .text.lv_obj_set_style_flex_track_place:0000000000000000 lv_obj_set_style_flex_track_place
     /tmp/ccU94mph.s:3291   .text.lv_obj_set_style_flex_track_place:0000000000000010 $d
     /tmp/ccU94mph.s:3296   .text.lv_obj_set_flex_align:0000000000000000 $t
ARM GAS  /tmp/ccU94mph.s 			page 99


     /tmp/ccU94mph.s:3303   .text.lv_obj_set_flex_align:0000000000000000 lv_obj_set_flex_align
     /tmp/ccU94mph.s:3353   .text.lv_obj_set_flex_align:0000000000000030 $d
     /tmp/ccU94mph.s:3358   .text.lv_obj_set_style_flex_grow:0000000000000000 $t
     /tmp/ccU94mph.s:3365   .text.lv_obj_set_style_flex_grow:0000000000000000 lv_obj_set_style_flex_grow
     /tmp/ccU94mph.s:3395   .text.lv_obj_set_style_flex_grow:0000000000000010 $d
     /tmp/ccU94mph.s:3400   .text.lv_obj_set_flex_grow:0000000000000000 $t
     /tmp/ccU94mph.s:3407   .text.lv_obj_set_flex_grow:0000000000000000 lv_obj_set_flex_grow
     /tmp/ccU94mph.s:3469   .bss.LV_STYLE_FLEX_GROW:0000000000000000 LV_STYLE_FLEX_GROW
     /tmp/ccU94mph.s:3483   .bss.LV_STYLE_FLEX_TRACK_PLACE:0000000000000000 LV_STYLE_FLEX_TRACK_PLACE
     /tmp/ccU94mph.s:3455   .bss.LV_STYLE_FLEX_CROSS_PLACE:0000000000000000 LV_STYLE_FLEX_CROSS_PLACE
     /tmp/ccU94mph.s:3476   .bss.LV_STYLE_FLEX_MAIN_PLACE:0000000000000000 LV_STYLE_FLEX_MAIN_PLACE
     /tmp/ccU94mph.s:3462   .bss.LV_STYLE_FLEX_FLOW:0000000000000000 LV_STYLE_FLEX_FLOW
     /tmp/ccU94mph.s:3448   .bss.LV_LAYOUT_FLEX:0000000000000000 LV_LAYOUT_FLEX
     /tmp/ccU94mph.s:3444   .bss.LV_LAYOUT_FLEX:0000000000000000 $d
     /tmp/ccU94mph.s:3451   .bss.LV_STYLE_FLEX_CROSS_PLACE:0000000000000000 $d
     /tmp/ccU94mph.s:3458   .bss.LV_STYLE_FLEX_FLOW:0000000000000000 $d
     /tmp/ccU94mph.s:3465   .bss.LV_STYLE_FLEX_GROW:0000000000000000 $d
     /tmp/ccU94mph.s:3472   .bss.LV_STYLE_FLEX_MAIN_PLACE:0000000000000000 $d
     /tmp/ccU94mph.s:3479   .bss.LV_STYLE_FLEX_TRACK_PLACE:0000000000000000 $d
     /tmp/ccU94mph.s:130    .text.place_content:0000000000000017 $d
     /tmp/ccU94mph.s:130    .text.place_content:0000000000000018 $t

UNDEFINED SYMBOLS
lv_obj_get_style_prop
lv_obj_get_child
lv_mem_buf_get
lv_memcpy
lv_mem_buf_release
lv_obj_has_flag
lv_obj_has_flag_any
lv_obj_get_width
lv_obj_get_height
lv_obj_get_content_width
lv_obj_invalidate
lv_event_send
lv_obj_get_parent
lv_area_set_width
lv_area_set_height
lv_obj_move_children_by
lv_obj_get_scroll_y
lv_obj_get_scroll_x
lv_obj_get_content_height
lv_obj_refr_size
lv_layout_register
lv_style_register_prop
lv_style_set_prop
lv_obj_set_local_style_prop
lv_obj_set_style_layout
lv_obj_mark_layout_as_dirty
