ARM GAS  /tmp/ccTdGo64.s 			page 1


   1              		.cpu cortex-m4
   2              		.eabi_attribute 27, 1
   3              		.eabi_attribute 28, 1
   4              		.eabi_attribute 20, 1
   5              		.eabi_attribute 21, 1
   6              		.eabi_attribute 23, 3
   7              		.eabi_attribute 24, 1
   8              		.eabi_attribute 25, 1
   9              		.eabi_attribute 26, 1
  10              		.eabi_attribute 30, 1
  11              		.eabi_attribute 34, 1
  12              		.eabi_attribute 18, 4
  13              		.file	"lv_img_buf.c"
  14              		.text
  15              	.Ltext0:
  16              		.cfi_sections	.debug_frame
  17              		.section	.text.lv_img_buf_get_px_color,"ax",%progbits
  18              		.align	1
  19              		.global	lv_img_buf_get_px_color
  20              		.arch armv7e-m
  21              		.syntax unified
  22              		.thumb
  23              		.thumb_func
  24              		.fpu fpv4-sp-d16
  26              	lv_img_buf_get_px_color:
  27              	.LVL0:
  28              	.LFB48:
  29              		.file 1 "Middlewares/lvgl/src/draw/lv_img_buf.c"
   1:Middlewares/lvgl/src/draw/lv_img_buf.c **** /**
   2:Middlewares/lvgl/src/draw/lv_img_buf.c ****  * @file lv_img_buf.c
   3:Middlewares/lvgl/src/draw/lv_img_buf.c ****  *
   4:Middlewares/lvgl/src/draw/lv_img_buf.c ****  */
   5:Middlewares/lvgl/src/draw/lv_img_buf.c **** 
   6:Middlewares/lvgl/src/draw/lv_img_buf.c **** /*********************
   7:Middlewares/lvgl/src/draw/lv_img_buf.c ****  *      INCLUDES
   8:Middlewares/lvgl/src/draw/lv_img_buf.c ****  *********************/
   9:Middlewares/lvgl/src/draw/lv_img_buf.c **** #include <stddef.h>
  10:Middlewares/lvgl/src/draw/lv_img_buf.c **** #include <string.h>
  11:Middlewares/lvgl/src/draw/lv_img_buf.c **** #include "lv_img_buf.h"
  12:Middlewares/lvgl/src/draw/lv_img_buf.c **** #include "lv_draw_img.h"
  13:Middlewares/lvgl/src/draw/lv_img_buf.c **** #include "../misc/lv_math.h"
  14:Middlewares/lvgl/src/draw/lv_img_buf.c **** #include "../misc/lv_log.h"
  15:Middlewares/lvgl/src/draw/lv_img_buf.c **** #include "../misc/lv_mem.h"
  16:Middlewares/lvgl/src/draw/lv_img_buf.c **** 
  17:Middlewares/lvgl/src/draw/lv_img_buf.c **** /*********************
  18:Middlewares/lvgl/src/draw/lv_img_buf.c ****  *      DEFINES
  19:Middlewares/lvgl/src/draw/lv_img_buf.c ****  *********************/
  20:Middlewares/lvgl/src/draw/lv_img_buf.c **** 
  21:Middlewares/lvgl/src/draw/lv_img_buf.c **** /**********************
  22:Middlewares/lvgl/src/draw/lv_img_buf.c ****  *      TYPEDEFS
  23:Middlewares/lvgl/src/draw/lv_img_buf.c ****  **********************/
  24:Middlewares/lvgl/src/draw/lv_img_buf.c **** 
  25:Middlewares/lvgl/src/draw/lv_img_buf.c **** /**********************
  26:Middlewares/lvgl/src/draw/lv_img_buf.c ****  *  STATIC PROTOTYPES
  27:Middlewares/lvgl/src/draw/lv_img_buf.c ****  **********************/
  28:Middlewares/lvgl/src/draw/lv_img_buf.c **** 
  29:Middlewares/lvgl/src/draw/lv_img_buf.c **** /**********************
ARM GAS  /tmp/ccTdGo64.s 			page 2


  30:Middlewares/lvgl/src/draw/lv_img_buf.c ****  *  STATIC VARIABLES
  31:Middlewares/lvgl/src/draw/lv_img_buf.c ****  **********************/
  32:Middlewares/lvgl/src/draw/lv_img_buf.c **** 
  33:Middlewares/lvgl/src/draw/lv_img_buf.c **** /**********************
  34:Middlewares/lvgl/src/draw/lv_img_buf.c ****  *      MACROS
  35:Middlewares/lvgl/src/draw/lv_img_buf.c ****  **********************/
  36:Middlewares/lvgl/src/draw/lv_img_buf.c **** 
  37:Middlewares/lvgl/src/draw/lv_img_buf.c **** /**********************
  38:Middlewares/lvgl/src/draw/lv_img_buf.c ****  *   GLOBAL FUNCTIONS
  39:Middlewares/lvgl/src/draw/lv_img_buf.c ****  **********************/
  40:Middlewares/lvgl/src/draw/lv_img_buf.c **** 
  41:Middlewares/lvgl/src/draw/lv_img_buf.c **** /**
  42:Middlewares/lvgl/src/draw/lv_img_buf.c ****  * Get the color of an image's pixel
  43:Middlewares/lvgl/src/draw/lv_img_buf.c ****  * @param dsc an image descriptor
  44:Middlewares/lvgl/src/draw/lv_img_buf.c ****  * @param x x coordinate of the point to get
  45:Middlewares/lvgl/src/draw/lv_img_buf.c ****  * @param y x coordinate of the point to get
  46:Middlewares/lvgl/src/draw/lv_img_buf.c ****  * @param color the color of the image. In case of `LV_IMG_CF_ALPHA_1/2/4/8` this color is used.
  47:Middlewares/lvgl/src/draw/lv_img_buf.c ****  * Not used in other cases.
  48:Middlewares/lvgl/src/draw/lv_img_buf.c ****  * @param safe true: check out of bounds
  49:Middlewares/lvgl/src/draw/lv_img_buf.c ****  * @return color of the point
  50:Middlewares/lvgl/src/draw/lv_img_buf.c ****  */
  51:Middlewares/lvgl/src/draw/lv_img_buf.c **** lv_color_t lv_img_buf_get_px_color(lv_img_dsc_t * dsc, lv_coord_t x, lv_coord_t y, lv_color_t color
  52:Middlewares/lvgl/src/draw/lv_img_buf.c **** {
  30              		.loc 1 52 1 view -0
  31              		.cfi_startproc
  32              		@ args = 0, pretend = 0, frame = 8
  33              		@ frame_needed = 0, uses_anonymous_args = 0
  34              		.loc 1 52 1 is_stmt 0 view .LVU1
  35 0000 F0B5     		push	{r4, r5, r6, r7, lr}
  36              	.LCFI0:
  37              		.cfi_def_cfa_offset 20
  38              		.cfi_offset 4, -20
  39              		.cfi_offset 5, -16
  40              		.cfi_offset 6, -12
  41              		.cfi_offset 7, -8
  42              		.cfi_offset 14, -4
  43 0002 83B0     		sub	sp, sp, #12
  44              	.LCFI1:
  45              		.cfi_def_cfa_offset 32
  46 0004 0546     		mov	r5, r0
  47 0006 0C46     		mov	r4, r1
  48 0008 1746     		mov	r7, r2
  53:Middlewares/lvgl/src/draw/lv_img_buf.c ****     lv_color_t p_color = lv_color_black();
  49              		.loc 1 53 5 is_stmt 1 view .LVU2
  50              	.LBB45:
  51              	.LBI45:
  52              		.file 2 "Middlewares/lvgl/src/draw/../misc/lv_color.h"
   1:Middlewares/lvgl/src/draw/../misc/lv_color.h **** /**
   2:Middlewares/lvgl/src/draw/../misc/lv_color.h ****  * @file lv_color.h
   3:Middlewares/lvgl/src/draw/../misc/lv_color.h ****  *
   4:Middlewares/lvgl/src/draw/../misc/lv_color.h ****  */
   5:Middlewares/lvgl/src/draw/../misc/lv_color.h **** 
   6:Middlewares/lvgl/src/draw/../misc/lv_color.h **** #ifndef LV_COLOR_H
   7:Middlewares/lvgl/src/draw/../misc/lv_color.h **** #define LV_COLOR_H
   8:Middlewares/lvgl/src/draw/../misc/lv_color.h **** 
   9:Middlewares/lvgl/src/draw/../misc/lv_color.h **** #ifdef __cplusplus
  10:Middlewares/lvgl/src/draw/../misc/lv_color.h **** extern "C" {
ARM GAS  /tmp/ccTdGo64.s 			page 3


  11:Middlewares/lvgl/src/draw/../misc/lv_color.h **** #endif
  12:Middlewares/lvgl/src/draw/../misc/lv_color.h **** 
  13:Middlewares/lvgl/src/draw/../misc/lv_color.h **** /*********************
  14:Middlewares/lvgl/src/draw/../misc/lv_color.h ****  *      INCLUDES
  15:Middlewares/lvgl/src/draw/../misc/lv_color.h ****  *********************/
  16:Middlewares/lvgl/src/draw/../misc/lv_color.h **** #include "../lv_conf_internal.h"
  17:Middlewares/lvgl/src/draw/../misc/lv_color.h **** #include "lv_math.h"
  18:Middlewares/lvgl/src/draw/../misc/lv_color.h **** #include "lv_types.h"
  19:Middlewares/lvgl/src/draw/../misc/lv_color.h **** 
  20:Middlewares/lvgl/src/draw/../misc/lv_color.h **** /*Error checking*/
  21:Middlewares/lvgl/src/draw/../misc/lv_color.h **** #if LV_COLOR_DEPTH == 24
  22:Middlewares/lvgl/src/draw/../misc/lv_color.h **** #error "LV_COLOR_DEPTH 24 is deprecated. Use LV_COLOR_DEPTH 32 instead (lv_conf.h)"
  23:Middlewares/lvgl/src/draw/../misc/lv_color.h **** #endif
  24:Middlewares/lvgl/src/draw/../misc/lv_color.h **** 
  25:Middlewares/lvgl/src/draw/../misc/lv_color.h **** #if LV_COLOR_DEPTH != 32 && LV_COLOR_SCREEN_TRANSP != 0
  26:Middlewares/lvgl/src/draw/../misc/lv_color.h **** #error "LV_COLOR_SCREEN_TRANSP requires LV_COLOR_DEPTH == 32. Set it in lv_conf.h"
  27:Middlewares/lvgl/src/draw/../misc/lv_color.h **** #endif
  28:Middlewares/lvgl/src/draw/../misc/lv_color.h **** 
  29:Middlewares/lvgl/src/draw/../misc/lv_color.h **** #if LV_COLOR_DEPTH != 16 && LV_COLOR_16_SWAP != 0
  30:Middlewares/lvgl/src/draw/../misc/lv_color.h **** #error "LV_COLOR_16_SWAP requires LV_COLOR_DEPTH == 16. Set it in lv_conf.h"
  31:Middlewares/lvgl/src/draw/../misc/lv_color.h **** #endif
  32:Middlewares/lvgl/src/draw/../misc/lv_color.h **** 
  33:Middlewares/lvgl/src/draw/../misc/lv_color.h **** #include <stdint.h>
  34:Middlewares/lvgl/src/draw/../misc/lv_color.h **** 
  35:Middlewares/lvgl/src/draw/../misc/lv_color.h **** /*********************
  36:Middlewares/lvgl/src/draw/../misc/lv_color.h ****  *      DEFINES
  37:Middlewares/lvgl/src/draw/../misc/lv_color.h ****  *********************/
  38:Middlewares/lvgl/src/draw/../misc/lv_color.h **** 
  39:Middlewares/lvgl/src/draw/../misc/lv_color.h **** /**
  40:Middlewares/lvgl/src/draw/../misc/lv_color.h ****  * Opacity percentages.
  41:Middlewares/lvgl/src/draw/../misc/lv_color.h ****  */
  42:Middlewares/lvgl/src/draw/../misc/lv_color.h **** enum {
  43:Middlewares/lvgl/src/draw/../misc/lv_color.h ****     LV_OPA_TRANSP = 0,
  44:Middlewares/lvgl/src/draw/../misc/lv_color.h ****     LV_OPA_0      = 0,
  45:Middlewares/lvgl/src/draw/../misc/lv_color.h ****     LV_OPA_10     = 25,
  46:Middlewares/lvgl/src/draw/../misc/lv_color.h ****     LV_OPA_20     = 51,
  47:Middlewares/lvgl/src/draw/../misc/lv_color.h ****     LV_OPA_30     = 76,
  48:Middlewares/lvgl/src/draw/../misc/lv_color.h ****     LV_OPA_40     = 102,
  49:Middlewares/lvgl/src/draw/../misc/lv_color.h ****     LV_OPA_50     = 127,
  50:Middlewares/lvgl/src/draw/../misc/lv_color.h ****     LV_OPA_60     = 153,
  51:Middlewares/lvgl/src/draw/../misc/lv_color.h ****     LV_OPA_70     = 178,
  52:Middlewares/lvgl/src/draw/../misc/lv_color.h ****     LV_OPA_80     = 204,
  53:Middlewares/lvgl/src/draw/../misc/lv_color.h ****     LV_OPA_90     = 229,
  54:Middlewares/lvgl/src/draw/../misc/lv_color.h ****     LV_OPA_100    = 255,
  55:Middlewares/lvgl/src/draw/../misc/lv_color.h ****     LV_OPA_COVER  = 255,
  56:Middlewares/lvgl/src/draw/../misc/lv_color.h **** };
  57:Middlewares/lvgl/src/draw/../misc/lv_color.h **** 
  58:Middlewares/lvgl/src/draw/../misc/lv_color.h **** #define LV_OPA_MIN 2    /*Opacities below this will be transparent*/
  59:Middlewares/lvgl/src/draw/../misc/lv_color.h **** #define LV_OPA_MAX 253  /*Opacities above this will fully cover*/
  60:Middlewares/lvgl/src/draw/../misc/lv_color.h **** 
  61:Middlewares/lvgl/src/draw/../misc/lv_color.h **** #if LV_COLOR_DEPTH == 1
  62:Middlewares/lvgl/src/draw/../misc/lv_color.h **** #define LV_COLOR_SIZE 8
  63:Middlewares/lvgl/src/draw/../misc/lv_color.h **** #elif LV_COLOR_DEPTH == 8
  64:Middlewares/lvgl/src/draw/../misc/lv_color.h **** #define LV_COLOR_SIZE 8
  65:Middlewares/lvgl/src/draw/../misc/lv_color.h **** #elif LV_COLOR_DEPTH == 16
  66:Middlewares/lvgl/src/draw/../misc/lv_color.h **** #define LV_COLOR_SIZE 16
  67:Middlewares/lvgl/src/draw/../misc/lv_color.h **** #elif LV_COLOR_DEPTH == 32
ARM GAS  /tmp/ccTdGo64.s 			page 4


  68:Middlewares/lvgl/src/draw/../misc/lv_color.h **** #define LV_COLOR_SIZE 32
  69:Middlewares/lvgl/src/draw/../misc/lv_color.h **** #else
  70:Middlewares/lvgl/src/draw/../misc/lv_color.h **** #error "Invalid LV_COLOR_DEPTH in lv_conf.h! Set it to 1, 8, 16 or 32!"
  71:Middlewares/lvgl/src/draw/../misc/lv_color.h **** #endif
  72:Middlewares/lvgl/src/draw/../misc/lv_color.h **** 
  73:Middlewares/lvgl/src/draw/../misc/lv_color.h **** /**
  74:Middlewares/lvgl/src/draw/../misc/lv_color.h ****  * Adjust color mix functions rounding.
  75:Middlewares/lvgl/src/draw/../misc/lv_color.h ****  * GPUs might calculate color mix (blending) differently.
  76:Middlewares/lvgl/src/draw/../misc/lv_color.h ****  * Should be in range of 0..254
  77:Middlewares/lvgl/src/draw/../misc/lv_color.h ****  * 0: no adjustment, get the integer part of the result (round down)
  78:Middlewares/lvgl/src/draw/../misc/lv_color.h ****  * 64: round up from x.75
  79:Middlewares/lvgl/src/draw/../misc/lv_color.h ****  * 128: round up from half
  80:Middlewares/lvgl/src/draw/../misc/lv_color.h ****  * 192: round up from x.25
  81:Middlewares/lvgl/src/draw/../misc/lv_color.h ****  * 254: round up*/
  82:Middlewares/lvgl/src/draw/../misc/lv_color.h **** #ifndef LV_COLOR_MIX_ROUND_OFS
  83:Middlewares/lvgl/src/draw/../misc/lv_color.h **** #if LV_COLOR_DEPTH == 32
  84:Middlewares/lvgl/src/draw/../misc/lv_color.h **** #define LV_COLOR_MIX_ROUND_OFS 0
  85:Middlewares/lvgl/src/draw/../misc/lv_color.h **** #else
  86:Middlewares/lvgl/src/draw/../misc/lv_color.h **** #define LV_COLOR_MIX_ROUND_OFS 128
  87:Middlewares/lvgl/src/draw/../misc/lv_color.h **** #endif
  88:Middlewares/lvgl/src/draw/../misc/lv_color.h **** #endif
  89:Middlewares/lvgl/src/draw/../misc/lv_color.h **** 
  90:Middlewares/lvgl/src/draw/../misc/lv_color.h **** #if defined(__cplusplus) && !defined(_LV_COLOR_HAS_MODERN_CPP)
  91:Middlewares/lvgl/src/draw/../misc/lv_color.h **** /**
  92:Middlewares/lvgl/src/draw/../misc/lv_color.h **** * MSVC compiler's definition of the __cplusplus indicating 199711L regardless to C++ standard versi
  93:Middlewares/lvgl/src/draw/../misc/lv_color.h **** * see https://devblogs.microsoft.com/cppblog/msvc-now-correctly-reports-cplusplus
  94:Middlewares/lvgl/src/draw/../misc/lv_color.h **** * so we use _MSC_VER macro instead of __cplusplus
  95:Middlewares/lvgl/src/draw/../misc/lv_color.h **** */
  96:Middlewares/lvgl/src/draw/../misc/lv_color.h **** #ifdef _MSC_VER
  97:Middlewares/lvgl/src/draw/../misc/lv_color.h **** #if _MSC_VER >= 1900 /*Visual Studio 2015*/
  98:Middlewares/lvgl/src/draw/../misc/lv_color.h **** #define _LV_COLOR_HAS_MODERN_CPP 1
  99:Middlewares/lvgl/src/draw/../misc/lv_color.h **** #endif
 100:Middlewares/lvgl/src/draw/../misc/lv_color.h **** #else
 101:Middlewares/lvgl/src/draw/../misc/lv_color.h **** #if __cplusplus >= 201103L
 102:Middlewares/lvgl/src/draw/../misc/lv_color.h **** #define _LV_COLOR_HAS_MODERN_CPP 1
 103:Middlewares/lvgl/src/draw/../misc/lv_color.h **** #endif
 104:Middlewares/lvgl/src/draw/../misc/lv_color.h **** #endif
 105:Middlewares/lvgl/src/draw/../misc/lv_color.h **** #endif /*__cplusplus*/
 106:Middlewares/lvgl/src/draw/../misc/lv_color.h **** 
 107:Middlewares/lvgl/src/draw/../misc/lv_color.h **** #ifndef _LV_COLOR_HAS_MODERN_CPP
 108:Middlewares/lvgl/src/draw/../misc/lv_color.h **** #define _LV_COLOR_HAS_MODERN_CPP 0
 109:Middlewares/lvgl/src/draw/../misc/lv_color.h **** #endif
 110:Middlewares/lvgl/src/draw/../misc/lv_color.h **** 
 111:Middlewares/lvgl/src/draw/../misc/lv_color.h **** #if _LV_COLOR_HAS_MODERN_CPP
 112:Middlewares/lvgl/src/draw/../misc/lv_color.h **** /*Fix msvc compiler error C4576 inside C++ code*/
 113:Middlewares/lvgl/src/draw/../misc/lv_color.h **** #define _LV_COLOR_MAKE_TYPE_HELPER lv_color_t
 114:Middlewares/lvgl/src/draw/../misc/lv_color.h **** #else
 115:Middlewares/lvgl/src/draw/../misc/lv_color.h **** #define _LV_COLOR_MAKE_TYPE_HELPER (lv_color_t)
 116:Middlewares/lvgl/src/draw/../misc/lv_color.h **** #endif
 117:Middlewares/lvgl/src/draw/../misc/lv_color.h **** 
 118:Middlewares/lvgl/src/draw/../misc/lv_color.h **** /*---------------------------------------
 119:Middlewares/lvgl/src/draw/../misc/lv_color.h ****  * Macros for all existing color depths
 120:Middlewares/lvgl/src/draw/../misc/lv_color.h ****  * to set/get values of the color channels
 121:Middlewares/lvgl/src/draw/../misc/lv_color.h ****  *------------------------------------------*/
 122:Middlewares/lvgl/src/draw/../misc/lv_color.h **** # define LV_COLOR_SET_R1(c, v) (c).ch.red = (uint8_t)((v) & 0x1)
 123:Middlewares/lvgl/src/draw/../misc/lv_color.h **** # define LV_COLOR_SET_G1(c, v) (c).ch.green = (uint8_t)((v) & 0x1)
 124:Middlewares/lvgl/src/draw/../misc/lv_color.h **** # define LV_COLOR_SET_B1(c, v) (c).ch.blue = (uint8_t)((v) & 0x1)
ARM GAS  /tmp/ccTdGo64.s 			page 5


 125:Middlewares/lvgl/src/draw/../misc/lv_color.h **** # define LV_COLOR_SET_A1(c, v) do {} while(0)
 126:Middlewares/lvgl/src/draw/../misc/lv_color.h **** 
 127:Middlewares/lvgl/src/draw/../misc/lv_color.h **** # define LV_COLOR_GET_R1(c) (c).ch.red
 128:Middlewares/lvgl/src/draw/../misc/lv_color.h **** # define LV_COLOR_GET_G1(c) (c).ch.green
 129:Middlewares/lvgl/src/draw/../misc/lv_color.h **** # define LV_COLOR_GET_B1(c) (c).ch.blue
 130:Middlewares/lvgl/src/draw/../misc/lv_color.h **** # define LV_COLOR_GET_A1(c) 0xFF
 131:Middlewares/lvgl/src/draw/../misc/lv_color.h **** 
 132:Middlewares/lvgl/src/draw/../misc/lv_color.h **** # define _LV_COLOR_ZERO_INITIALIZER1 {0x00}
 133:Middlewares/lvgl/src/draw/../misc/lv_color.h **** # define LV_COLOR_MAKE1(r8, g8, b8)  {(uint8_t)((b8 >> 7) | (g8 >> 7) | (r8 >> 7))}
 134:Middlewares/lvgl/src/draw/../misc/lv_color.h **** 
 135:Middlewares/lvgl/src/draw/../misc/lv_color.h **** # define LV_COLOR_SET_R8(c, v) (c).ch.red = (uint8_t)((v) & 0x7U)
 136:Middlewares/lvgl/src/draw/../misc/lv_color.h **** # define LV_COLOR_SET_G8(c, v) (c).ch.green = (uint8_t)((v) & 0x7U)
 137:Middlewares/lvgl/src/draw/../misc/lv_color.h **** # define LV_COLOR_SET_B8(c, v) (c).ch.blue = (uint8_t)((v) & 0x3U)
 138:Middlewares/lvgl/src/draw/../misc/lv_color.h **** # define LV_COLOR_SET_A8(c, v) do {} while(0)
 139:Middlewares/lvgl/src/draw/../misc/lv_color.h **** 
 140:Middlewares/lvgl/src/draw/../misc/lv_color.h **** # define LV_COLOR_GET_R8(c) (c).ch.red
 141:Middlewares/lvgl/src/draw/../misc/lv_color.h **** # define LV_COLOR_GET_G8(c) (c).ch.green
 142:Middlewares/lvgl/src/draw/../misc/lv_color.h **** # define LV_COLOR_GET_B8(c) (c).ch.blue
 143:Middlewares/lvgl/src/draw/../misc/lv_color.h **** # define LV_COLOR_GET_A8(c) 0xFF
 144:Middlewares/lvgl/src/draw/../misc/lv_color.h **** 
 145:Middlewares/lvgl/src/draw/../misc/lv_color.h **** # define _LV_COLOR_ZERO_INITIALIZER8 _LV_COLOR_MAKE_TYPE_HELPER {{0x00, 0x00, 0x00}}
 146:Middlewares/lvgl/src/draw/../misc/lv_color.h **** # define LV_COLOR_MAKE8(r8, g8, b8) _LV_COLOR_MAKE_TYPE_HELPER  {{(uint8_t)((b8 >> 6) & 0x3U), (uin
 147:Middlewares/lvgl/src/draw/../misc/lv_color.h **** 
 148:Middlewares/lvgl/src/draw/../misc/lv_color.h **** # define LV_COLOR_SET_R16(c, v) (c).ch.red = (uint8_t)((v) & 0x1FU)
 149:Middlewares/lvgl/src/draw/../misc/lv_color.h **** #if LV_COLOR_16_SWAP == 0
 150:Middlewares/lvgl/src/draw/../misc/lv_color.h **** # define LV_COLOR_SET_G16(c, v) (c).ch.green = (uint8_t)((v) & 0x3FU)
 151:Middlewares/lvgl/src/draw/../misc/lv_color.h **** #else
 152:Middlewares/lvgl/src/draw/../misc/lv_color.h **** # define LV_COLOR_SET_G16(c, v) {(c).ch.green_h = (uint8_t)(((v) >> 3) & 0x7); (c).ch.green_l = (ui
 153:Middlewares/lvgl/src/draw/../misc/lv_color.h **** #endif
 154:Middlewares/lvgl/src/draw/../misc/lv_color.h **** # define LV_COLOR_SET_B16(c, v) (c).ch.blue = (uint8_t)((v) & 0x1FU)
 155:Middlewares/lvgl/src/draw/../misc/lv_color.h **** # define LV_COLOR_SET_A16(c, v) do {} while(0)
 156:Middlewares/lvgl/src/draw/../misc/lv_color.h **** 
 157:Middlewares/lvgl/src/draw/../misc/lv_color.h **** # define LV_COLOR_GET_R16(c) (c).ch.red
 158:Middlewares/lvgl/src/draw/../misc/lv_color.h **** #if LV_COLOR_16_SWAP == 0
 159:Middlewares/lvgl/src/draw/../misc/lv_color.h **** # define LV_COLOR_GET_G16(c) (c).ch.green
 160:Middlewares/lvgl/src/draw/../misc/lv_color.h **** #else
 161:Middlewares/lvgl/src/draw/../misc/lv_color.h **** # define LV_COLOR_GET_G16(c) (((c).ch.green_h << 3) + (c).ch.green_l)
 162:Middlewares/lvgl/src/draw/../misc/lv_color.h **** #endif
 163:Middlewares/lvgl/src/draw/../misc/lv_color.h **** # define LV_COLOR_GET_B16(c) (c).ch.blue
 164:Middlewares/lvgl/src/draw/../misc/lv_color.h **** # define LV_COLOR_GET_A16(c) 0xFF
 165:Middlewares/lvgl/src/draw/../misc/lv_color.h **** 
 166:Middlewares/lvgl/src/draw/../misc/lv_color.h **** #if LV_COLOR_16_SWAP == 0
 167:Middlewares/lvgl/src/draw/../misc/lv_color.h **** # define _LV_COLOR_ZERO_INITIALIZER16  {{0x00, 0x00, 0x00}}
 168:Middlewares/lvgl/src/draw/../misc/lv_color.h **** # define LV_COLOR_MAKE16(r8, g8, b8) {{(uint8_t)((b8 >> 3) & 0x1FU), (uint8_t)((g8 >> 2) & 0x3FU), 
 169:Middlewares/lvgl/src/draw/../misc/lv_color.h **** #else
 170:Middlewares/lvgl/src/draw/../misc/lv_color.h **** # define _LV_COLOR_ZERO_INITIALIZER16 {{0x00, 0x00, 0x00, 0x00}}
 171:Middlewares/lvgl/src/draw/../misc/lv_color.h **** # define LV_COLOR_MAKE16(r8, g8, b8) {{(uint8_t)((g8 >> 5) & 0x7U), (uint8_t)((r8 >> 3) & 0x1FU), (
 172:Middlewares/lvgl/src/draw/../misc/lv_color.h **** #endif
 173:Middlewares/lvgl/src/draw/../misc/lv_color.h **** 
 174:Middlewares/lvgl/src/draw/../misc/lv_color.h **** # define LV_COLOR_SET_R32(c, v) (c).ch.red = (uint8_t)((v) & 0xFF)
 175:Middlewares/lvgl/src/draw/../misc/lv_color.h **** # define LV_COLOR_SET_G32(c, v) (c).ch.green = (uint8_t)((v) & 0xFF)
 176:Middlewares/lvgl/src/draw/../misc/lv_color.h **** # define LV_COLOR_SET_B32(c, v) (c).ch.blue = (uint8_t)((v) & 0xFF)
 177:Middlewares/lvgl/src/draw/../misc/lv_color.h **** # define LV_COLOR_SET_A32(c, v) (c).ch.alpha = (uint8_t)((v) & 0xFF)
 178:Middlewares/lvgl/src/draw/../misc/lv_color.h **** 
 179:Middlewares/lvgl/src/draw/../misc/lv_color.h **** # define LV_COLOR_GET_R32(c) (c).ch.red
 180:Middlewares/lvgl/src/draw/../misc/lv_color.h **** # define LV_COLOR_GET_G32(c) (c).ch.green
 181:Middlewares/lvgl/src/draw/../misc/lv_color.h **** # define LV_COLOR_GET_B32(c) (c).ch.blue
ARM GAS  /tmp/ccTdGo64.s 			page 6


 182:Middlewares/lvgl/src/draw/../misc/lv_color.h **** # define LV_COLOR_GET_A32(c) (c).ch.alpha
 183:Middlewares/lvgl/src/draw/../misc/lv_color.h **** 
 184:Middlewares/lvgl/src/draw/../misc/lv_color.h **** # define _LV_COLOR_ZERO_INITIALIZER32  {{0x00, 0x00, 0x00, 0x00}}
 185:Middlewares/lvgl/src/draw/../misc/lv_color.h **** # define LV_COLOR_MAKE32(r8, g8, b8) {{b8, g8, r8, 0xff}} /*Fix 0xff alpha*/
 186:Middlewares/lvgl/src/draw/../misc/lv_color.h **** 
 187:Middlewares/lvgl/src/draw/../misc/lv_color.h **** /*---------------------------------------
 188:Middlewares/lvgl/src/draw/../misc/lv_color.h ****  * Macros for the current color depth
 189:Middlewares/lvgl/src/draw/../misc/lv_color.h ****  * to set/get values of the color channels
 190:Middlewares/lvgl/src/draw/../misc/lv_color.h ****  *------------------------------------------*/
 191:Middlewares/lvgl/src/draw/../misc/lv_color.h **** #define LV_COLOR_SET_R(c, v) LV_CONCAT(LV_COLOR_SET_R, LV_COLOR_DEPTH)(c, v)
 192:Middlewares/lvgl/src/draw/../misc/lv_color.h **** #define LV_COLOR_SET_G(c, v) LV_CONCAT(LV_COLOR_SET_G, LV_COLOR_DEPTH)(c, v)
 193:Middlewares/lvgl/src/draw/../misc/lv_color.h **** #define LV_COLOR_SET_B(c, v) LV_CONCAT(LV_COLOR_SET_B, LV_COLOR_DEPTH)(c, v)
 194:Middlewares/lvgl/src/draw/../misc/lv_color.h **** #define LV_COLOR_SET_A(c, v) LV_CONCAT(LV_COLOR_SET_A, LV_COLOR_DEPTH)(c, v)
 195:Middlewares/lvgl/src/draw/../misc/lv_color.h **** 
 196:Middlewares/lvgl/src/draw/../misc/lv_color.h **** #define LV_COLOR_GET_R(c) LV_CONCAT(LV_COLOR_GET_R, LV_COLOR_DEPTH)(c)
 197:Middlewares/lvgl/src/draw/../misc/lv_color.h **** #define LV_COLOR_GET_G(c) LV_CONCAT(LV_COLOR_GET_G, LV_COLOR_DEPTH)(c)
 198:Middlewares/lvgl/src/draw/../misc/lv_color.h **** #define LV_COLOR_GET_B(c) LV_CONCAT(LV_COLOR_GET_B, LV_COLOR_DEPTH)(c)
 199:Middlewares/lvgl/src/draw/../misc/lv_color.h **** #define LV_COLOR_GET_A(c) LV_CONCAT(LV_COLOR_GET_A, LV_COLOR_DEPTH)(c)
 200:Middlewares/lvgl/src/draw/../misc/lv_color.h **** 
 201:Middlewares/lvgl/src/draw/../misc/lv_color.h **** #define _LV_COLOR_ZERO_INITIALIZER LV_CONCAT(_LV_COLOR_ZERO_INITIALIZER, LV_COLOR_DEPTH)
 202:Middlewares/lvgl/src/draw/../misc/lv_color.h **** #define LV_COLOR_MAKE(r8, g8, b8) LV_CONCAT(LV_COLOR_MAKE, LV_COLOR_DEPTH)(r8, g8, b8)
 203:Middlewares/lvgl/src/draw/../misc/lv_color.h **** 
 204:Middlewares/lvgl/src/draw/../misc/lv_color.h **** #define LV_UDIV255(x) ((uint32_t)((uint32_t) (x) * 0x8081) >> 0x17)
 205:Middlewares/lvgl/src/draw/../misc/lv_color.h **** 
 206:Middlewares/lvgl/src/draw/../misc/lv_color.h **** /**********************
 207:Middlewares/lvgl/src/draw/../misc/lv_color.h ****  *      TYPEDEFS
 208:Middlewares/lvgl/src/draw/../misc/lv_color.h ****  **********************/
 209:Middlewares/lvgl/src/draw/../misc/lv_color.h **** 
 210:Middlewares/lvgl/src/draw/../misc/lv_color.h **** typedef union {
 211:Middlewares/lvgl/src/draw/../misc/lv_color.h ****     uint8_t full; /*must be declared first to set all bits of byte via initializer list*/
 212:Middlewares/lvgl/src/draw/../misc/lv_color.h ****     union {
 213:Middlewares/lvgl/src/draw/../misc/lv_color.h ****         uint8_t blue : 1;
 214:Middlewares/lvgl/src/draw/../misc/lv_color.h ****         uint8_t green : 1;
 215:Middlewares/lvgl/src/draw/../misc/lv_color.h ****         uint8_t red : 1;
 216:Middlewares/lvgl/src/draw/../misc/lv_color.h ****     } ch;
 217:Middlewares/lvgl/src/draw/../misc/lv_color.h **** } lv_color1_t;
 218:Middlewares/lvgl/src/draw/../misc/lv_color.h **** 
 219:Middlewares/lvgl/src/draw/../misc/lv_color.h **** typedef union {
 220:Middlewares/lvgl/src/draw/../misc/lv_color.h ****     struct {
 221:Middlewares/lvgl/src/draw/../misc/lv_color.h ****         uint8_t blue : 2;
 222:Middlewares/lvgl/src/draw/../misc/lv_color.h ****         uint8_t green : 3;
 223:Middlewares/lvgl/src/draw/../misc/lv_color.h ****         uint8_t red : 3;
 224:Middlewares/lvgl/src/draw/../misc/lv_color.h ****     } ch;
 225:Middlewares/lvgl/src/draw/../misc/lv_color.h ****     uint8_t full;
 226:Middlewares/lvgl/src/draw/../misc/lv_color.h **** } lv_color8_t;
 227:Middlewares/lvgl/src/draw/../misc/lv_color.h **** 
 228:Middlewares/lvgl/src/draw/../misc/lv_color.h **** typedef union {
 229:Middlewares/lvgl/src/draw/../misc/lv_color.h ****     struct {
 230:Middlewares/lvgl/src/draw/../misc/lv_color.h **** #if LV_COLOR_16_SWAP == 0
 231:Middlewares/lvgl/src/draw/../misc/lv_color.h ****         uint16_t blue : 5;
 232:Middlewares/lvgl/src/draw/../misc/lv_color.h ****         uint16_t green : 6;
 233:Middlewares/lvgl/src/draw/../misc/lv_color.h ****         uint16_t red : 5;
 234:Middlewares/lvgl/src/draw/../misc/lv_color.h **** #else
 235:Middlewares/lvgl/src/draw/../misc/lv_color.h ****         uint16_t green_h : 3;
 236:Middlewares/lvgl/src/draw/../misc/lv_color.h ****         uint16_t red : 5;
 237:Middlewares/lvgl/src/draw/../misc/lv_color.h ****         uint16_t blue : 5;
 238:Middlewares/lvgl/src/draw/../misc/lv_color.h ****         uint16_t green_l : 3;
ARM GAS  /tmp/ccTdGo64.s 			page 7


 239:Middlewares/lvgl/src/draw/../misc/lv_color.h **** #endif
 240:Middlewares/lvgl/src/draw/../misc/lv_color.h ****     } ch;
 241:Middlewares/lvgl/src/draw/../misc/lv_color.h ****     uint16_t full;
 242:Middlewares/lvgl/src/draw/../misc/lv_color.h **** } lv_color16_t;
 243:Middlewares/lvgl/src/draw/../misc/lv_color.h **** 
 244:Middlewares/lvgl/src/draw/../misc/lv_color.h **** typedef union {
 245:Middlewares/lvgl/src/draw/../misc/lv_color.h ****     struct {
 246:Middlewares/lvgl/src/draw/../misc/lv_color.h ****         uint8_t blue;
 247:Middlewares/lvgl/src/draw/../misc/lv_color.h ****         uint8_t green;
 248:Middlewares/lvgl/src/draw/../misc/lv_color.h ****         uint8_t red;
 249:Middlewares/lvgl/src/draw/../misc/lv_color.h ****         uint8_t alpha;
 250:Middlewares/lvgl/src/draw/../misc/lv_color.h ****     } ch;
 251:Middlewares/lvgl/src/draw/../misc/lv_color.h ****     uint32_t full;
 252:Middlewares/lvgl/src/draw/../misc/lv_color.h **** } lv_color32_t;
 253:Middlewares/lvgl/src/draw/../misc/lv_color.h **** 
 254:Middlewares/lvgl/src/draw/../misc/lv_color.h **** typedef LV_CONCAT3(uint, LV_COLOR_SIZE, _t) lv_color_int_t;
 255:Middlewares/lvgl/src/draw/../misc/lv_color.h **** typedef LV_CONCAT3(lv_color, LV_COLOR_DEPTH, _t) lv_color_t;
 256:Middlewares/lvgl/src/draw/../misc/lv_color.h **** 
 257:Middlewares/lvgl/src/draw/../misc/lv_color.h **** typedef struct {
 258:Middlewares/lvgl/src/draw/../misc/lv_color.h ****     uint16_t h;
 259:Middlewares/lvgl/src/draw/../misc/lv_color.h ****     uint8_t s;
 260:Middlewares/lvgl/src/draw/../misc/lv_color.h ****     uint8_t v;
 261:Middlewares/lvgl/src/draw/../misc/lv_color.h **** } lv_color_hsv_t;
 262:Middlewares/lvgl/src/draw/../misc/lv_color.h **** 
 263:Middlewares/lvgl/src/draw/../misc/lv_color.h **** //! @cond Doxygen_Suppress
 264:Middlewares/lvgl/src/draw/../misc/lv_color.h **** /*No idea where the guard is required but else throws warnings in the docs*/
 265:Middlewares/lvgl/src/draw/../misc/lv_color.h **** typedef uint8_t lv_opa_t;
 266:Middlewares/lvgl/src/draw/../misc/lv_color.h **** //! @endcond
 267:Middlewares/lvgl/src/draw/../misc/lv_color.h **** 
 268:Middlewares/lvgl/src/draw/../misc/lv_color.h **** struct _lv_color_filter_dsc_t;
 269:Middlewares/lvgl/src/draw/../misc/lv_color.h **** 
 270:Middlewares/lvgl/src/draw/../misc/lv_color.h **** typedef lv_color_t (*lv_color_filter_cb_t)(const struct _lv_color_filter_dsc_t *, lv_color_t, lv_op
 271:Middlewares/lvgl/src/draw/../misc/lv_color.h **** 
 272:Middlewares/lvgl/src/draw/../misc/lv_color.h **** typedef struct _lv_color_filter_dsc_t {
 273:Middlewares/lvgl/src/draw/../misc/lv_color.h ****     lv_color_filter_cb_t filter_cb;
 274:Middlewares/lvgl/src/draw/../misc/lv_color.h ****     void * user_data;
 275:Middlewares/lvgl/src/draw/../misc/lv_color.h **** }lv_color_filter_dsc_t;
 276:Middlewares/lvgl/src/draw/../misc/lv_color.h **** 
 277:Middlewares/lvgl/src/draw/../misc/lv_color.h **** 
 278:Middlewares/lvgl/src/draw/../misc/lv_color.h **** typedef enum {
 279:Middlewares/lvgl/src/draw/../misc/lv_color.h ****     LV_PALETTE_RED,
 280:Middlewares/lvgl/src/draw/../misc/lv_color.h ****     LV_PALETTE_PINK,
 281:Middlewares/lvgl/src/draw/../misc/lv_color.h ****     LV_PALETTE_PURPLE,
 282:Middlewares/lvgl/src/draw/../misc/lv_color.h ****     LV_PALETTE_DEEP_PURPLE,
 283:Middlewares/lvgl/src/draw/../misc/lv_color.h ****     LV_PALETTE_INDIGO,
 284:Middlewares/lvgl/src/draw/../misc/lv_color.h ****     LV_PALETTE_BLUE,
 285:Middlewares/lvgl/src/draw/../misc/lv_color.h ****     LV_PALETTE_LIGHT_BLUE,
 286:Middlewares/lvgl/src/draw/../misc/lv_color.h ****     LV_PALETTE_CYAN,
 287:Middlewares/lvgl/src/draw/../misc/lv_color.h ****     LV_PALETTE_TEAL,
 288:Middlewares/lvgl/src/draw/../misc/lv_color.h ****     LV_PALETTE_GREEN,
 289:Middlewares/lvgl/src/draw/../misc/lv_color.h ****     LV_PALETTE_LIGHT_GREEN,
 290:Middlewares/lvgl/src/draw/../misc/lv_color.h ****     LV_PALETTE_LIME,
 291:Middlewares/lvgl/src/draw/../misc/lv_color.h ****     LV_PALETTE_YELLOW,
 292:Middlewares/lvgl/src/draw/../misc/lv_color.h ****     LV_PALETTE_AMBER,
 293:Middlewares/lvgl/src/draw/../misc/lv_color.h ****     LV_PALETTE_ORANGE,
 294:Middlewares/lvgl/src/draw/../misc/lv_color.h ****     LV_PALETTE_DEEP_ORANGE,
 295:Middlewares/lvgl/src/draw/../misc/lv_color.h ****     LV_PALETTE_BROWN,
ARM GAS  /tmp/ccTdGo64.s 			page 8


 296:Middlewares/lvgl/src/draw/../misc/lv_color.h ****     LV_PALETTE_BLUE_GREY,
 297:Middlewares/lvgl/src/draw/../misc/lv_color.h ****     LV_PALETTE_GREY,
 298:Middlewares/lvgl/src/draw/../misc/lv_color.h ****     _LV_PALETTE_LAST,
 299:Middlewares/lvgl/src/draw/../misc/lv_color.h ****     LV_PALETTE_NONE = 0xff,
 300:Middlewares/lvgl/src/draw/../misc/lv_color.h **** }lv_palette_t;
 301:Middlewares/lvgl/src/draw/../misc/lv_color.h **** 
 302:Middlewares/lvgl/src/draw/../misc/lv_color.h **** /**********************
 303:Middlewares/lvgl/src/draw/../misc/lv_color.h ****  * GLOBAL PROTOTYPES
 304:Middlewares/lvgl/src/draw/../misc/lv_color.h ****  **********************/
 305:Middlewares/lvgl/src/draw/../misc/lv_color.h **** 
 306:Middlewares/lvgl/src/draw/../misc/lv_color.h **** /*In color conversations:
 307:Middlewares/lvgl/src/draw/../misc/lv_color.h ****  * - When converting to bigger color type the LSB weight of 1 LSB is calculated
 308:Middlewares/lvgl/src/draw/../misc/lv_color.h ****  *   E.g. 16 bit Red has 5 bits
 309:Middlewares/lvgl/src/draw/../misc/lv_color.h ****  *         8 bit Red has 3 bits
 310:Middlewares/lvgl/src/draw/../misc/lv_color.h ****  *        ----------------------
 311:Middlewares/lvgl/src/draw/../misc/lv_color.h ****  *        8 bit red LSB = (2^5 - 1) / (2^3 - 1) = 31 / 7 = 4
 312:Middlewares/lvgl/src/draw/../misc/lv_color.h ****  *
 313:Middlewares/lvgl/src/draw/../misc/lv_color.h ****  * - When calculating to smaller color type simply shift out the LSBs
 314:Middlewares/lvgl/src/draw/../misc/lv_color.h ****  *   E.g.  8 bit Red has 3 bits
 315:Middlewares/lvgl/src/draw/../misc/lv_color.h ****  *        16 bit Red has 5 bits
 316:Middlewares/lvgl/src/draw/../misc/lv_color.h ****  *        ----------------------
 317:Middlewares/lvgl/src/draw/../misc/lv_color.h ****  *         Shift right with 5 - 3 = 2
 318:Middlewares/lvgl/src/draw/../misc/lv_color.h ****  */
 319:Middlewares/lvgl/src/draw/../misc/lv_color.h **** static inline uint8_t lv_color_to1(lv_color_t color)
 320:Middlewares/lvgl/src/draw/../misc/lv_color.h **** {
 321:Middlewares/lvgl/src/draw/../misc/lv_color.h **** #if LV_COLOR_DEPTH == 1
 322:Middlewares/lvgl/src/draw/../misc/lv_color.h ****     return color.full;
 323:Middlewares/lvgl/src/draw/../misc/lv_color.h **** #elif LV_COLOR_DEPTH == 8
 324:Middlewares/lvgl/src/draw/../misc/lv_color.h ****     if((LV_COLOR_GET_R(color) & 0x4) || (LV_COLOR_GET_G(color) & 0x4) || (LV_COLOR_GET_B(color) & 0
 325:Middlewares/lvgl/src/draw/../misc/lv_color.h ****         return 1;
 326:Middlewares/lvgl/src/draw/../misc/lv_color.h ****     }
 327:Middlewares/lvgl/src/draw/../misc/lv_color.h ****     else {
 328:Middlewares/lvgl/src/draw/../misc/lv_color.h ****         return 0;
 329:Middlewares/lvgl/src/draw/../misc/lv_color.h ****     }
 330:Middlewares/lvgl/src/draw/../misc/lv_color.h **** #elif LV_COLOR_DEPTH == 16
 331:Middlewares/lvgl/src/draw/../misc/lv_color.h ****     if((LV_COLOR_GET_R(color) & 0x10) || (LV_COLOR_GET_G(color) & 0x20) || (LV_COLOR_GET_B(color) &
 332:Middlewares/lvgl/src/draw/../misc/lv_color.h ****         return 1;
 333:Middlewares/lvgl/src/draw/../misc/lv_color.h ****     }
 334:Middlewares/lvgl/src/draw/../misc/lv_color.h ****     else {
 335:Middlewares/lvgl/src/draw/../misc/lv_color.h ****         return 0;
 336:Middlewares/lvgl/src/draw/../misc/lv_color.h ****     }
 337:Middlewares/lvgl/src/draw/../misc/lv_color.h **** #elif LV_COLOR_DEPTH == 32
 338:Middlewares/lvgl/src/draw/../misc/lv_color.h ****     if((LV_COLOR_GET_R(color) & 0x80) || (LV_COLOR_GET_G(color) & 0x80) || (LV_COLOR_GET_B(color) &
 339:Middlewares/lvgl/src/draw/../misc/lv_color.h ****         return 1;
 340:Middlewares/lvgl/src/draw/../misc/lv_color.h ****     }
 341:Middlewares/lvgl/src/draw/../misc/lv_color.h ****     else {
 342:Middlewares/lvgl/src/draw/../misc/lv_color.h ****         return 0;
 343:Middlewares/lvgl/src/draw/../misc/lv_color.h ****     }
 344:Middlewares/lvgl/src/draw/../misc/lv_color.h **** #endif
 345:Middlewares/lvgl/src/draw/../misc/lv_color.h **** }
 346:Middlewares/lvgl/src/draw/../misc/lv_color.h **** 
 347:Middlewares/lvgl/src/draw/../misc/lv_color.h **** static inline uint8_t lv_color_to8(lv_color_t color)
 348:Middlewares/lvgl/src/draw/../misc/lv_color.h **** {
 349:Middlewares/lvgl/src/draw/../misc/lv_color.h **** #if LV_COLOR_DEPTH == 1
 350:Middlewares/lvgl/src/draw/../misc/lv_color.h ****     if(color.full == 0)
 351:Middlewares/lvgl/src/draw/../misc/lv_color.h ****         return 0;
 352:Middlewares/lvgl/src/draw/../misc/lv_color.h ****     else
ARM GAS  /tmp/ccTdGo64.s 			page 9


 353:Middlewares/lvgl/src/draw/../misc/lv_color.h ****         return 0xFF;
 354:Middlewares/lvgl/src/draw/../misc/lv_color.h **** #elif LV_COLOR_DEPTH == 8
 355:Middlewares/lvgl/src/draw/../misc/lv_color.h ****     return color.full;
 356:Middlewares/lvgl/src/draw/../misc/lv_color.h **** #elif LV_COLOR_DEPTH == 16
 357:Middlewares/lvgl/src/draw/../misc/lv_color.h ****     lv_color8_t ret;
 358:Middlewares/lvgl/src/draw/../misc/lv_color.h ****     LV_COLOR_SET_R8(ret, LV_COLOR_GET_R(color) >> 2); /*5 - 3  = 2*/
 359:Middlewares/lvgl/src/draw/../misc/lv_color.h ****     LV_COLOR_SET_G8(ret, LV_COLOR_GET_G(color) >> 3); /*6 - 3  = 3*/
 360:Middlewares/lvgl/src/draw/../misc/lv_color.h ****     LV_COLOR_SET_B8(ret, LV_COLOR_GET_B(color) >> 3); /*5 - 2  = 3*/
 361:Middlewares/lvgl/src/draw/../misc/lv_color.h ****     return ret.full;
 362:Middlewares/lvgl/src/draw/../misc/lv_color.h **** #elif LV_COLOR_DEPTH == 32
 363:Middlewares/lvgl/src/draw/../misc/lv_color.h ****     lv_color8_t ret;
 364:Middlewares/lvgl/src/draw/../misc/lv_color.h ****     LV_COLOR_SET_R8(ret, LV_COLOR_GET_R(color) >> 5); /*8 - 3  = 5*/
 365:Middlewares/lvgl/src/draw/../misc/lv_color.h ****     LV_COLOR_SET_G8(ret, LV_COLOR_GET_G(color) >> 5); /*8 - 3  = 5*/
 366:Middlewares/lvgl/src/draw/../misc/lv_color.h ****     LV_COLOR_SET_B8(ret, LV_COLOR_GET_B(color) >> 6); /*8 - 2  = 6*/
 367:Middlewares/lvgl/src/draw/../misc/lv_color.h ****     return ret.full;
 368:Middlewares/lvgl/src/draw/../misc/lv_color.h **** #endif
 369:Middlewares/lvgl/src/draw/../misc/lv_color.h **** }
 370:Middlewares/lvgl/src/draw/../misc/lv_color.h **** 
 371:Middlewares/lvgl/src/draw/../misc/lv_color.h **** static inline uint16_t lv_color_to16(lv_color_t color)
 372:Middlewares/lvgl/src/draw/../misc/lv_color.h **** {
 373:Middlewares/lvgl/src/draw/../misc/lv_color.h **** #if LV_COLOR_DEPTH == 1
 374:Middlewares/lvgl/src/draw/../misc/lv_color.h ****     if(color.full == 0)
 375:Middlewares/lvgl/src/draw/../misc/lv_color.h ****         return 0;
 376:Middlewares/lvgl/src/draw/../misc/lv_color.h ****     else
 377:Middlewares/lvgl/src/draw/../misc/lv_color.h ****         return 0xFFFF;
 378:Middlewares/lvgl/src/draw/../misc/lv_color.h **** #elif LV_COLOR_DEPTH == 8
 379:Middlewares/lvgl/src/draw/../misc/lv_color.h ****     lv_color16_t ret;
 380:Middlewares/lvgl/src/draw/../misc/lv_color.h ****     LV_COLOR_SET_R16(ret, LV_COLOR_GET_R(color) * 4);  /*(2^5 - 1)/(2^3 - 1) = 31/7 = 4*/
 381:Middlewares/lvgl/src/draw/../misc/lv_color.h ****     LV_COLOR_SET_G16(ret, LV_COLOR_GET_G(color) * 9);  /*(2^6 - 1)/(2^3 - 1) = 63/7 = 9*/
 382:Middlewares/lvgl/src/draw/../misc/lv_color.h ****     LV_COLOR_SET_B16(ret, LV_COLOR_GET_B(color) * 10); /*(2^5 - 1)/(2^2 - 1) = 31/3 = 10*/
 383:Middlewares/lvgl/src/draw/../misc/lv_color.h ****     return ret.full;
 384:Middlewares/lvgl/src/draw/../misc/lv_color.h **** #elif LV_COLOR_DEPTH == 16
 385:Middlewares/lvgl/src/draw/../misc/lv_color.h ****     return color.full;
 386:Middlewares/lvgl/src/draw/../misc/lv_color.h **** #elif LV_COLOR_DEPTH == 32
 387:Middlewares/lvgl/src/draw/../misc/lv_color.h ****     lv_color16_t ret;
 388:Middlewares/lvgl/src/draw/../misc/lv_color.h ****     LV_COLOR_SET_R16(ret, LV_COLOR_GET_R(color) >> 3); /*8 - 5  = 3*/
 389:Middlewares/lvgl/src/draw/../misc/lv_color.h ****     LV_COLOR_SET_G16(ret, LV_COLOR_GET_G(color) >> 2); /*8 - 6  = 2*/
 390:Middlewares/lvgl/src/draw/../misc/lv_color.h ****     LV_COLOR_SET_B16(ret, LV_COLOR_GET_B(color) >> 3); /*8 - 5  = 3*/
 391:Middlewares/lvgl/src/draw/../misc/lv_color.h ****     return ret.full;
 392:Middlewares/lvgl/src/draw/../misc/lv_color.h **** #endif
 393:Middlewares/lvgl/src/draw/../misc/lv_color.h **** }
 394:Middlewares/lvgl/src/draw/../misc/lv_color.h **** 
 395:Middlewares/lvgl/src/draw/../misc/lv_color.h **** static inline uint32_t lv_color_to32(lv_color_t color)
 396:Middlewares/lvgl/src/draw/../misc/lv_color.h **** {
 397:Middlewares/lvgl/src/draw/../misc/lv_color.h **** #if LV_COLOR_DEPTH == 1
 398:Middlewares/lvgl/src/draw/../misc/lv_color.h ****     if(color.full == 0)
 399:Middlewares/lvgl/src/draw/../misc/lv_color.h ****         return 0xFF000000;
 400:Middlewares/lvgl/src/draw/../misc/lv_color.h ****     else
 401:Middlewares/lvgl/src/draw/../misc/lv_color.h ****         return 0xFFFFFFFF;
 402:Middlewares/lvgl/src/draw/../misc/lv_color.h **** #elif LV_COLOR_DEPTH == 8
 403:Middlewares/lvgl/src/draw/../misc/lv_color.h ****     lv_color32_t ret;
 404:Middlewares/lvgl/src/draw/../misc/lv_color.h ****     LV_COLOR_SET_R32(ret, LV_COLOR_GET_R(color) * 36); /*(2^8 - 1)/(2^3 - 1) = 255/7 = 36*/
 405:Middlewares/lvgl/src/draw/../misc/lv_color.h ****     LV_COLOR_SET_G32(ret, LV_COLOR_GET_G(color) * 36); /*(2^8 - 1)/(2^3 - 1) = 255/7 = 36*/
 406:Middlewares/lvgl/src/draw/../misc/lv_color.h ****     LV_COLOR_SET_B32(ret, LV_COLOR_GET_B(color) * 85); /*(2^8 - 1)/(2^2 - 1) = 255/3 = 85*/
 407:Middlewares/lvgl/src/draw/../misc/lv_color.h ****     LV_COLOR_SET_A32(ret, 0xFF);
 408:Middlewares/lvgl/src/draw/../misc/lv_color.h ****     return ret.full;
 409:Middlewares/lvgl/src/draw/../misc/lv_color.h **** #elif LV_COLOR_DEPTH == 16
ARM GAS  /tmp/ccTdGo64.s 			page 10


 410:Middlewares/lvgl/src/draw/../misc/lv_color.h ****     /**
 411:Middlewares/lvgl/src/draw/../misc/lv_color.h ****      * The floating point math for conversion is:
 412:Middlewares/lvgl/src/draw/../misc/lv_color.h ****      *  valueto = valuefrom * ( (2^bitsto - 1) / (float)(2^bitsfrom - 1) )
 413:Middlewares/lvgl/src/draw/../misc/lv_color.h ****      * The faster integer math for conversion is:
 414:Middlewares/lvgl/src/draw/../misc/lv_color.h ****      *  valueto = ( valuefrom * multiplier + adder ) >> divisor
 415:Middlewares/lvgl/src/draw/../misc/lv_color.h ****      *   multiplier = FLOOR( ( (2^bitsto - 1) << divisor ) / (float)(2^bitsfrom - 1) )
 416:Middlewares/lvgl/src/draw/../misc/lv_color.h ****      *
 417:Middlewares/lvgl/src/draw/../misc/lv_color.h ****      * Find the first divisor where ( adder >> divisor ) <= 0
 418:Middlewares/lvgl/src/draw/../misc/lv_color.h ****      *
 419:Middlewares/lvgl/src/draw/../misc/lv_color.h ****      * 5-bit to 8-bit: ( 31 * multiplier + adder ) >> divisor = 255
 420:Middlewares/lvgl/src/draw/../misc/lv_color.h ****      * divisor  multiplier  adder  min (0)  max (31)
 421:Middlewares/lvgl/src/draw/../misc/lv_color.h ****      *       0           8      7        7       255
 422:Middlewares/lvgl/src/draw/../misc/lv_color.h ****      *       1          16     14        7       255
 423:Middlewares/lvgl/src/draw/../misc/lv_color.h ****      *       2          32     28        7       255
 424:Middlewares/lvgl/src/draw/../misc/lv_color.h ****      *       3          65     25        3       255
 425:Middlewares/lvgl/src/draw/../misc/lv_color.h ****      *       4         131     19        1       255
 426:Middlewares/lvgl/src/draw/../misc/lv_color.h ****      *       5         263      7        0       255
 427:Middlewares/lvgl/src/draw/../misc/lv_color.h ****      *
 428:Middlewares/lvgl/src/draw/../misc/lv_color.h ****      * 6-bit to 8-bit: 255 = ( 63 * multiplier + adder ) >> divisor
 429:Middlewares/lvgl/src/draw/../misc/lv_color.h ****      * divisor  multiplier  adder  min (0)  max (63)
 430:Middlewares/lvgl/src/draw/../misc/lv_color.h ****      *       0           4      3        3       255
 431:Middlewares/lvgl/src/draw/../misc/lv_color.h ****      *       1           8      6        3       255
 432:Middlewares/lvgl/src/draw/../misc/lv_color.h ****      *       2          16     12        3       255
 433:Middlewares/lvgl/src/draw/../misc/lv_color.h ****      *       3          32     24        3       255
 434:Middlewares/lvgl/src/draw/../misc/lv_color.h ****      *       4          64     48        3       255
 435:Middlewares/lvgl/src/draw/../misc/lv_color.h ****      *       5         129     33        1       255
 436:Middlewares/lvgl/src/draw/../misc/lv_color.h ****      *       6         259      3        0       255
 437:Middlewares/lvgl/src/draw/../misc/lv_color.h ****      */
 438:Middlewares/lvgl/src/draw/../misc/lv_color.h **** 
 439:Middlewares/lvgl/src/draw/../misc/lv_color.h ****     lv_color32_t ret;
 440:Middlewares/lvgl/src/draw/../misc/lv_color.h ****     LV_COLOR_SET_R32(ret, (LV_COLOR_GET_R(color) * 263 + 7) >> 5);
 441:Middlewares/lvgl/src/draw/../misc/lv_color.h ****     LV_COLOR_SET_G32(ret, (LV_COLOR_GET_G(color) * 259 + 3) >> 6);
 442:Middlewares/lvgl/src/draw/../misc/lv_color.h ****     LV_COLOR_SET_B32(ret, (LV_COLOR_GET_B(color) * 263 + 7) >> 5);
 443:Middlewares/lvgl/src/draw/../misc/lv_color.h ****     LV_COLOR_SET_A32(ret, 0xFF);
 444:Middlewares/lvgl/src/draw/../misc/lv_color.h ****     return ret.full;
 445:Middlewares/lvgl/src/draw/../misc/lv_color.h **** #elif LV_COLOR_DEPTH == 32
 446:Middlewares/lvgl/src/draw/../misc/lv_color.h ****     return color.full;
 447:Middlewares/lvgl/src/draw/../misc/lv_color.h **** #endif
 448:Middlewares/lvgl/src/draw/../misc/lv_color.h **** }
 449:Middlewares/lvgl/src/draw/../misc/lv_color.h **** 
 450:Middlewares/lvgl/src/draw/../misc/lv_color.h **** //! @cond Doxygen_Suppress
 451:Middlewares/lvgl/src/draw/../misc/lv_color.h **** 
 452:Middlewares/lvgl/src/draw/../misc/lv_color.h **** /**
 453:Middlewares/lvgl/src/draw/../misc/lv_color.h ****  * Mix two colors with a given ratio.
 454:Middlewares/lvgl/src/draw/../misc/lv_color.h ****  * @param c1 the first color to mix (usually the foreground)
 455:Middlewares/lvgl/src/draw/../misc/lv_color.h ****  * @param c2 the second color to mix (usually the background)
 456:Middlewares/lvgl/src/draw/../misc/lv_color.h ****  * @param mix The ratio of the colors. 0: full `c2`, 255: full `c1`, 127: half `c1` and half`c2`
 457:Middlewares/lvgl/src/draw/../misc/lv_color.h ****  * @return the mixed color
 458:Middlewares/lvgl/src/draw/../misc/lv_color.h ****  */
 459:Middlewares/lvgl/src/draw/../misc/lv_color.h **** LV_ATTRIBUTE_FAST_MEM static inline lv_color_t lv_color_mix(lv_color_t c1, lv_color_t c2, uint8_t m
 460:Middlewares/lvgl/src/draw/../misc/lv_color.h **** {
 461:Middlewares/lvgl/src/draw/../misc/lv_color.h ****     lv_color_t ret;
 462:Middlewares/lvgl/src/draw/../misc/lv_color.h **** #if LV_COLOR_DEPTH != 1
 463:Middlewares/lvgl/src/draw/../misc/lv_color.h ****     /*LV_COLOR_DEPTH == 8, 16 or 32*/
 464:Middlewares/lvgl/src/draw/../misc/lv_color.h ****     LV_COLOR_SET_R(ret, LV_UDIV255((uint16_t) LV_COLOR_GET_R(c1) * mix + LV_COLOR_GET_R(c2) *
 465:Middlewares/lvgl/src/draw/../misc/lv_color.h ****                                         (255 - mix) + LV_COLOR_MIX_ROUND_OFS));
 466:Middlewares/lvgl/src/draw/../misc/lv_color.h ****     LV_COLOR_SET_G(ret, LV_UDIV255((uint16_t) LV_COLOR_GET_G(c1) * mix + LV_COLOR_GET_G(c2) *
ARM GAS  /tmp/ccTdGo64.s 			page 11


 467:Middlewares/lvgl/src/draw/../misc/lv_color.h ****                                         (255 - mix) + LV_COLOR_MIX_ROUND_OFS));
 468:Middlewares/lvgl/src/draw/../misc/lv_color.h ****     LV_COLOR_SET_B(ret, LV_UDIV255((uint16_t) LV_COLOR_GET_B(c1) * mix + LV_COLOR_GET_B(c2) *
 469:Middlewares/lvgl/src/draw/../misc/lv_color.h ****                                         (255 - mix) + LV_COLOR_MIX_ROUND_OFS));
 470:Middlewares/lvgl/src/draw/../misc/lv_color.h ****     LV_COLOR_SET_A(ret, 0xFF);
 471:Middlewares/lvgl/src/draw/../misc/lv_color.h **** #else
 472:Middlewares/lvgl/src/draw/../misc/lv_color.h ****     /*LV_COLOR_DEPTH == 1*/
 473:Middlewares/lvgl/src/draw/../misc/lv_color.h ****     ret.full = mix > LV_OPA_50 ? c1.full : c2.full;
 474:Middlewares/lvgl/src/draw/../misc/lv_color.h **** #endif
 475:Middlewares/lvgl/src/draw/../misc/lv_color.h **** 
 476:Middlewares/lvgl/src/draw/../misc/lv_color.h ****     return ret;
 477:Middlewares/lvgl/src/draw/../misc/lv_color.h **** }
 478:Middlewares/lvgl/src/draw/../misc/lv_color.h **** 
 479:Middlewares/lvgl/src/draw/../misc/lv_color.h **** LV_ATTRIBUTE_FAST_MEM static inline void lv_color_premult(lv_color_t c, uint8_t mix, uint16_t * out
 480:Middlewares/lvgl/src/draw/../misc/lv_color.h **** {
 481:Middlewares/lvgl/src/draw/../misc/lv_color.h **** #if LV_COLOR_DEPTH != 1
 482:Middlewares/lvgl/src/draw/../misc/lv_color.h ****     out[0] = (uint16_t) LV_COLOR_GET_R(c) * mix;
 483:Middlewares/lvgl/src/draw/../misc/lv_color.h ****     out[1] = (uint16_t) LV_COLOR_GET_G(c) * mix;
 484:Middlewares/lvgl/src/draw/../misc/lv_color.h ****     out[2] = (uint16_t) LV_COLOR_GET_B(c) * mix;
 485:Middlewares/lvgl/src/draw/../misc/lv_color.h **** #else
 486:Middlewares/lvgl/src/draw/../misc/lv_color.h ****     (void) mix;
 487:Middlewares/lvgl/src/draw/../misc/lv_color.h ****     /*Pre-multiplication can't be used with 1 bpp*/
 488:Middlewares/lvgl/src/draw/../misc/lv_color.h ****     out[0] = LV_COLOR_GET_R(c);
 489:Middlewares/lvgl/src/draw/../misc/lv_color.h ****     out[1] = LV_COLOR_GET_G(c);
 490:Middlewares/lvgl/src/draw/../misc/lv_color.h ****     out[2] = LV_COLOR_GET_B(c);
 491:Middlewares/lvgl/src/draw/../misc/lv_color.h **** #endif
 492:Middlewares/lvgl/src/draw/../misc/lv_color.h **** 
 493:Middlewares/lvgl/src/draw/../misc/lv_color.h **** }
 494:Middlewares/lvgl/src/draw/../misc/lv_color.h **** 
 495:Middlewares/lvgl/src/draw/../misc/lv_color.h **** /**
 496:Middlewares/lvgl/src/draw/../misc/lv_color.h ****  * Mix two colors with a given ratio. It runs faster then `lv_color_mix` but requires some pre comp
 497:Middlewares/lvgl/src/draw/../misc/lv_color.h ****  * @param premult_c1 The first color. Should be preprocessed with `lv_color_premult(c1)`
 498:Middlewares/lvgl/src/draw/../misc/lv_color.h ****  * @param c2 The second color. As it is no pre computation required on it
 499:Middlewares/lvgl/src/draw/../misc/lv_color.h ****  * @param mix The ratio of the colors. 0: full `c1`, 255: full `c2`, 127: half `c1` and half `c2`.
 500:Middlewares/lvgl/src/draw/../misc/lv_color.h ****  *            Should be modified like mix = `255 - mix`
 501:Middlewares/lvgl/src/draw/../misc/lv_color.h ****  * @return the mixed color
 502:Middlewares/lvgl/src/draw/../misc/lv_color.h ****  * @note 255 won't give clearly `c1`.
 503:Middlewares/lvgl/src/draw/../misc/lv_color.h ****  */
 504:Middlewares/lvgl/src/draw/../misc/lv_color.h **** LV_ATTRIBUTE_FAST_MEM static inline lv_color_t lv_color_mix_premult(uint16_t * premult_c1, lv_color
 505:Middlewares/lvgl/src/draw/../misc/lv_color.h **** {
 506:Middlewares/lvgl/src/draw/../misc/lv_color.h ****     lv_color_t ret;
 507:Middlewares/lvgl/src/draw/../misc/lv_color.h **** #if LV_COLOR_DEPTH != 1
 508:Middlewares/lvgl/src/draw/../misc/lv_color.h ****     /*LV_COLOR_DEPTH == 8, 16 or 32*/
 509:Middlewares/lvgl/src/draw/../misc/lv_color.h ****     LV_COLOR_SET_R(ret, LV_UDIV255(premult_c1[0] + LV_COLOR_GET_R(c2) * mix + LV_COLOR_MIX_ROUND_OF
 510:Middlewares/lvgl/src/draw/../misc/lv_color.h ****     LV_COLOR_SET_G(ret, LV_UDIV255(premult_c1[1] + LV_COLOR_GET_G(c2) * mix + LV_COLOR_MIX_ROUND_OF
 511:Middlewares/lvgl/src/draw/../misc/lv_color.h ****     LV_COLOR_SET_B(ret, LV_UDIV255(premult_c1[2] + LV_COLOR_GET_B(c2) * mix + LV_COLOR_MIX_ROUND_OF
 512:Middlewares/lvgl/src/draw/../misc/lv_color.h ****     LV_COLOR_SET_A(ret, 0xFF);
 513:Middlewares/lvgl/src/draw/../misc/lv_color.h **** #else
 514:Middlewares/lvgl/src/draw/../misc/lv_color.h ****     /*LV_COLOR_DEPTH == 1*/
 515:Middlewares/lvgl/src/draw/../misc/lv_color.h ****     /*Restore color1*/
 516:Middlewares/lvgl/src/draw/../misc/lv_color.h ****     lv_color_t c1;
 517:Middlewares/lvgl/src/draw/../misc/lv_color.h ****     LV_COLOR_SET_R(c1, premult_c1[0]);
 518:Middlewares/lvgl/src/draw/../misc/lv_color.h ****     LV_COLOR_SET_G(c1, premult_c1[1]);
 519:Middlewares/lvgl/src/draw/../misc/lv_color.h ****     LV_COLOR_SET_B(c1, premult_c1[2]);
 520:Middlewares/lvgl/src/draw/../misc/lv_color.h ****     ret.full = mix > LV_OPA_50 ? c2.full : c1.full;
 521:Middlewares/lvgl/src/draw/../misc/lv_color.h **** #endif
 522:Middlewares/lvgl/src/draw/../misc/lv_color.h **** 
 523:Middlewares/lvgl/src/draw/../misc/lv_color.h ****     return ret;
ARM GAS  /tmp/ccTdGo64.s 			page 12


 524:Middlewares/lvgl/src/draw/../misc/lv_color.h **** }
 525:Middlewares/lvgl/src/draw/../misc/lv_color.h **** 
 526:Middlewares/lvgl/src/draw/../misc/lv_color.h **** /**
 527:Middlewares/lvgl/src/draw/../misc/lv_color.h ****  * Mix two colors. Both color can have alpha value.
 528:Middlewares/lvgl/src/draw/../misc/lv_color.h ****  * @param bg_color background color
 529:Middlewares/lvgl/src/draw/../misc/lv_color.h ****  * @param bg_opa alpha of the background color
 530:Middlewares/lvgl/src/draw/../misc/lv_color.h ****  * @param fg_color foreground color
 531:Middlewares/lvgl/src/draw/../misc/lv_color.h ****  * @param fg_opa alpha of the foreground color
 532:Middlewares/lvgl/src/draw/../misc/lv_color.h ****  * @param res_color the result color
 533:Middlewares/lvgl/src/draw/../misc/lv_color.h ****  * @param res_opa the result opacity
 534:Middlewares/lvgl/src/draw/../misc/lv_color.h ****  */
 535:Middlewares/lvgl/src/draw/../misc/lv_color.h **** LV_ATTRIBUTE_FAST_MEM static inline void lv_color_mix_with_alpha(lv_color_t bg_color, lv_opa_t bg_o
 536:Middlewares/lvgl/src/draw/../misc/lv_color.h ****                                                                  lv_color_t fg_color, lv_opa_t fg_o
 537:Middlewares/lvgl/src/draw/../misc/lv_color.h ****                                                                  lv_color_t * res_color, lv_opa_t *
 538:Middlewares/lvgl/src/draw/../misc/lv_color.h **** {
 539:Middlewares/lvgl/src/draw/../misc/lv_color.h ****     /*Pick the foreground if it's fully opaque or the Background is fully transparent*/
 540:Middlewares/lvgl/src/draw/../misc/lv_color.h ****     if(fg_opa >= LV_OPA_MAX || bg_opa <= LV_OPA_MIN) {
 541:Middlewares/lvgl/src/draw/../misc/lv_color.h ****         res_color->full = fg_color.full;
 542:Middlewares/lvgl/src/draw/../misc/lv_color.h ****         *res_opa = fg_opa;
 543:Middlewares/lvgl/src/draw/../misc/lv_color.h ****     }
 544:Middlewares/lvgl/src/draw/../misc/lv_color.h ****     /*Transparent foreground: use the Background*/
 545:Middlewares/lvgl/src/draw/../misc/lv_color.h ****     else if(fg_opa <= LV_OPA_MIN) {
 546:Middlewares/lvgl/src/draw/../misc/lv_color.h ****         res_color->full = bg_color.full;
 547:Middlewares/lvgl/src/draw/../misc/lv_color.h ****         *res_opa = bg_opa;
 548:Middlewares/lvgl/src/draw/../misc/lv_color.h ****     }
 549:Middlewares/lvgl/src/draw/../misc/lv_color.h ****     /*Opaque background: use simple mix*/
 550:Middlewares/lvgl/src/draw/../misc/lv_color.h ****     else if(bg_opa >= LV_OPA_MAX) {
 551:Middlewares/lvgl/src/draw/../misc/lv_color.h ****         *res_color = lv_color_mix(fg_color, bg_color, fg_opa);
 552:Middlewares/lvgl/src/draw/../misc/lv_color.h ****         *res_opa = LV_OPA_COVER;
 553:Middlewares/lvgl/src/draw/../misc/lv_color.h ****     }
 554:Middlewares/lvgl/src/draw/../misc/lv_color.h ****     /*Both colors have alpha. Expensive calculation need to be applied*/
 555:Middlewares/lvgl/src/draw/../misc/lv_color.h ****     else {
 556:Middlewares/lvgl/src/draw/../misc/lv_color.h ****         /*Save the parameters and the result. If they will be asked again don't compute again*/
 557:Middlewares/lvgl/src/draw/../misc/lv_color.h ****         static lv_opa_t fg_opa_save     = 0;
 558:Middlewares/lvgl/src/draw/../misc/lv_color.h ****         static lv_opa_t bg_opa_save     = 0;
 559:Middlewares/lvgl/src/draw/../misc/lv_color.h ****         static lv_color_t fg_color_save = _LV_COLOR_ZERO_INITIALIZER;
 560:Middlewares/lvgl/src/draw/../misc/lv_color.h ****         static lv_color_t bg_color_save = _LV_COLOR_ZERO_INITIALIZER;
 561:Middlewares/lvgl/src/draw/../misc/lv_color.h ****         static lv_color_t res_color_saved = _LV_COLOR_ZERO_INITIALIZER;
 562:Middlewares/lvgl/src/draw/../misc/lv_color.h ****         static lv_opa_t res_opa_saved = 0;
 563:Middlewares/lvgl/src/draw/../misc/lv_color.h **** 
 564:Middlewares/lvgl/src/draw/../misc/lv_color.h ****         if(fg_opa != fg_opa_save || bg_opa != bg_opa_save || fg_color.full != fg_color_save.full ||
 565:Middlewares/lvgl/src/draw/../misc/lv_color.h ****            bg_color.full != bg_color_save.full) {
 566:Middlewares/lvgl/src/draw/../misc/lv_color.h ****             fg_opa_save        = fg_opa;
 567:Middlewares/lvgl/src/draw/../misc/lv_color.h ****             bg_opa_save        = bg_opa;
 568:Middlewares/lvgl/src/draw/../misc/lv_color.h ****             fg_color_save.full = fg_color.full;
 569:Middlewares/lvgl/src/draw/../misc/lv_color.h ****             bg_color_save.full = bg_color.full;
 570:Middlewares/lvgl/src/draw/../misc/lv_color.h ****             /*Info:
 571:Middlewares/lvgl/src/draw/../misc/lv_color.h ****              * https://en.wikipedia.org/wiki/Alpha_compositing#Analytical_derivation_of_the_over_op
 572:Middlewares/lvgl/src/draw/../misc/lv_color.h ****             res_opa_saved = 255 - ((uint16_t)((uint16_t)(255 - fg_opa) * (255 - bg_opa)) >> 8);
 573:Middlewares/lvgl/src/draw/../misc/lv_color.h ****             if(res_opa_saved == 0) {
 574:Middlewares/lvgl/src/draw/../misc/lv_color.h ****                 while(1)
 575:Middlewares/lvgl/src/draw/../misc/lv_color.h ****                     ;
 576:Middlewares/lvgl/src/draw/../misc/lv_color.h ****             }
 577:Middlewares/lvgl/src/draw/../misc/lv_color.h ****             lv_opa_t ratio = (uint16_t)((uint16_t)fg_opa * 255) / res_opa_saved;
 578:Middlewares/lvgl/src/draw/../misc/lv_color.h ****             res_color_saved = lv_color_mix(fg_color, bg_color, ratio);
 579:Middlewares/lvgl/src/draw/../misc/lv_color.h **** 
 580:Middlewares/lvgl/src/draw/../misc/lv_color.h ****         }
ARM GAS  /tmp/ccTdGo64.s 			page 13


 581:Middlewares/lvgl/src/draw/../misc/lv_color.h **** 
 582:Middlewares/lvgl/src/draw/../misc/lv_color.h ****         res_color->full = res_color_saved.full;
 583:Middlewares/lvgl/src/draw/../misc/lv_color.h ****         *res_opa = res_opa_saved;
 584:Middlewares/lvgl/src/draw/../misc/lv_color.h ****     }
 585:Middlewares/lvgl/src/draw/../misc/lv_color.h **** }
 586:Middlewares/lvgl/src/draw/../misc/lv_color.h **** 
 587:Middlewares/lvgl/src/draw/../misc/lv_color.h **** //! @endcond
 588:Middlewares/lvgl/src/draw/../misc/lv_color.h **** 
 589:Middlewares/lvgl/src/draw/../misc/lv_color.h **** /**
 590:Middlewares/lvgl/src/draw/../misc/lv_color.h ****  * Get the brightness of a color
 591:Middlewares/lvgl/src/draw/../misc/lv_color.h ****  * @param color a color
 592:Middlewares/lvgl/src/draw/../misc/lv_color.h ****  * @return the brightness [0..255]
 593:Middlewares/lvgl/src/draw/../misc/lv_color.h ****  */
 594:Middlewares/lvgl/src/draw/../misc/lv_color.h **** static inline uint8_t lv_color_brightness(lv_color_t color)
 595:Middlewares/lvgl/src/draw/../misc/lv_color.h **** {
 596:Middlewares/lvgl/src/draw/../misc/lv_color.h ****     lv_color32_t c32;
 597:Middlewares/lvgl/src/draw/../misc/lv_color.h ****     c32.full        = lv_color_to32(color);
 598:Middlewares/lvgl/src/draw/../misc/lv_color.h ****     uint16_t bright = (uint16_t)(3u * LV_COLOR_GET_R32(c32) + LV_COLOR_GET_B32(c32) + 4u * LV_COLOR
 599:Middlewares/lvgl/src/draw/../misc/lv_color.h ****     return (uint8_t)(bright >> 3);
 600:Middlewares/lvgl/src/draw/../misc/lv_color.h **** }
 601:Middlewares/lvgl/src/draw/../misc/lv_color.h **** 
 602:Middlewares/lvgl/src/draw/../misc/lv_color.h **** static inline lv_color_t lv_color_make(uint8_t r, uint8_t g, uint8_t b)
 603:Middlewares/lvgl/src/draw/../misc/lv_color.h **** {
 604:Middlewares/lvgl/src/draw/../misc/lv_color.h ****     return _LV_COLOR_MAKE_TYPE_HELPER LV_COLOR_MAKE(r, g, b);
 605:Middlewares/lvgl/src/draw/../misc/lv_color.h **** }
 606:Middlewares/lvgl/src/draw/../misc/lv_color.h **** 
 607:Middlewares/lvgl/src/draw/../misc/lv_color.h **** static inline lv_color_t lv_color_hex(uint32_t c)
 608:Middlewares/lvgl/src/draw/../misc/lv_color.h **** {
 609:Middlewares/lvgl/src/draw/../misc/lv_color.h ****     return lv_color_make((uint8_t)((c >> 16) & 0xFF), (uint8_t)((c >> 8) & 0xFF), (uint8_t)(c & 0xF
 610:Middlewares/lvgl/src/draw/../misc/lv_color.h **** }
 611:Middlewares/lvgl/src/draw/../misc/lv_color.h **** 
 612:Middlewares/lvgl/src/draw/../misc/lv_color.h **** static inline lv_color_t lv_color_hex3(uint32_t c)
 613:Middlewares/lvgl/src/draw/../misc/lv_color.h **** {
 614:Middlewares/lvgl/src/draw/../misc/lv_color.h ****     return lv_color_make((uint8_t)(((c >> 4) & 0xF0) | ((c >> 8) & 0xF)), (uint8_t)((c & 0xF0) | ((
 615:Middlewares/lvgl/src/draw/../misc/lv_color.h ****                          (uint8_t)((c & 0xF) | ((c & 0xF) << 4)));
 616:Middlewares/lvgl/src/draw/../misc/lv_color.h **** }
 617:Middlewares/lvgl/src/draw/../misc/lv_color.h **** 
 618:Middlewares/lvgl/src/draw/../misc/lv_color.h **** static inline void lv_color_filter_dsc_init(lv_color_filter_dsc_t * dsc, lv_color_filter_cb_t cb)
 619:Middlewares/lvgl/src/draw/../misc/lv_color.h **** {
 620:Middlewares/lvgl/src/draw/../misc/lv_color.h ****     dsc->filter_cb = cb;
 621:Middlewares/lvgl/src/draw/../misc/lv_color.h **** }
 622:Middlewares/lvgl/src/draw/../misc/lv_color.h **** 
 623:Middlewares/lvgl/src/draw/../misc/lv_color.h **** //! @cond Doxygen_Suppress
 624:Middlewares/lvgl/src/draw/../misc/lv_color.h **** //!
 625:Middlewares/lvgl/src/draw/../misc/lv_color.h **** LV_ATTRIBUTE_FAST_MEM void lv_color_fill(lv_color_t * buf, lv_color_t color, uint32_t px_num);
 626:Middlewares/lvgl/src/draw/../misc/lv_color.h **** 
 627:Middlewares/lvgl/src/draw/../misc/lv_color.h **** //! @endcond
 628:Middlewares/lvgl/src/draw/../misc/lv_color.h **** lv_color_t lv_color_lighten(lv_color_t c, lv_opa_t lvl);
 629:Middlewares/lvgl/src/draw/../misc/lv_color.h **** 
 630:Middlewares/lvgl/src/draw/../misc/lv_color.h **** lv_color_t lv_color_darken(lv_color_t c, lv_opa_t lvl);
 631:Middlewares/lvgl/src/draw/../misc/lv_color.h **** 
 632:Middlewares/lvgl/src/draw/../misc/lv_color.h **** lv_color_t lv_color_change_lightness(lv_color_t c, lv_opa_t lvl);
 633:Middlewares/lvgl/src/draw/../misc/lv_color.h **** 
 634:Middlewares/lvgl/src/draw/../misc/lv_color.h **** /**
 635:Middlewares/lvgl/src/draw/../misc/lv_color.h ****  * Convert a HSV color to RGB
 636:Middlewares/lvgl/src/draw/../misc/lv_color.h ****  * @param h hue [0..359]
 637:Middlewares/lvgl/src/draw/../misc/lv_color.h ****  * @param s saturation [0..100]
ARM GAS  /tmp/ccTdGo64.s 			page 14


 638:Middlewares/lvgl/src/draw/../misc/lv_color.h ****  * @param v value [0..100]
 639:Middlewares/lvgl/src/draw/../misc/lv_color.h ****  * @return the given RGB color in RGB (with LV_COLOR_DEPTH depth)
 640:Middlewares/lvgl/src/draw/../misc/lv_color.h ****  */
 641:Middlewares/lvgl/src/draw/../misc/lv_color.h **** lv_color_t lv_color_hsv_to_rgb(uint16_t h, uint8_t s, uint8_t v);
 642:Middlewares/lvgl/src/draw/../misc/lv_color.h **** 
 643:Middlewares/lvgl/src/draw/../misc/lv_color.h **** /**
 644:Middlewares/lvgl/src/draw/../misc/lv_color.h ****  * Convert a 32-bit RGB color to HSV
 645:Middlewares/lvgl/src/draw/../misc/lv_color.h ****  * @param r8 8-bit red
 646:Middlewares/lvgl/src/draw/../misc/lv_color.h ****  * @param g8 8-bit green
 647:Middlewares/lvgl/src/draw/../misc/lv_color.h ****  * @param b8 8-bit blue
 648:Middlewares/lvgl/src/draw/../misc/lv_color.h ****  * @return the given RGB color in HSV
 649:Middlewares/lvgl/src/draw/../misc/lv_color.h ****  */
 650:Middlewares/lvgl/src/draw/../misc/lv_color.h **** lv_color_hsv_t lv_color_rgb_to_hsv(uint8_t r8, uint8_t g8, uint8_t b8);
 651:Middlewares/lvgl/src/draw/../misc/lv_color.h **** 
 652:Middlewares/lvgl/src/draw/../misc/lv_color.h **** /**
 653:Middlewares/lvgl/src/draw/../misc/lv_color.h ****  * Convert a color to HSV
 654:Middlewares/lvgl/src/draw/../misc/lv_color.h ****  * @param color color
 655:Middlewares/lvgl/src/draw/../misc/lv_color.h ****  * @return the given color in HSV
 656:Middlewares/lvgl/src/draw/../misc/lv_color.h ****  */
 657:Middlewares/lvgl/src/draw/../misc/lv_color.h **** lv_color_hsv_t lv_color_to_hsv(lv_color_t color);
 658:Middlewares/lvgl/src/draw/../misc/lv_color.h **** 
 659:Middlewares/lvgl/src/draw/../misc/lv_color.h **** /**
 660:Middlewares/lvgl/src/draw/../misc/lv_color.h ****  * Just a wrapper around LV_COLOR_CHROMA_KEY because it might be more convenient to use a function 
 661:Middlewares/lvgl/src/draw/../misc/lv_color.h ****  * @return LV_COLOR_CHROMA_KEY
 662:Middlewares/lvgl/src/draw/../misc/lv_color.h ****  */
 663:Middlewares/lvgl/src/draw/../misc/lv_color.h **** static inline lv_color_t lv_color_chroma_key(void)
 664:Middlewares/lvgl/src/draw/../misc/lv_color.h **** {
 665:Middlewares/lvgl/src/draw/../misc/lv_color.h ****     return LV_COLOR_CHROMA_KEY;
 666:Middlewares/lvgl/src/draw/../misc/lv_color.h **** }
 667:Middlewares/lvgl/src/draw/../misc/lv_color.h **** 
 668:Middlewares/lvgl/src/draw/../misc/lv_color.h **** /**********************
 669:Middlewares/lvgl/src/draw/../misc/lv_color.h ****  *  PREDEFINED COLORS
 670:Middlewares/lvgl/src/draw/../misc/lv_color.h ****  **********************/
 671:Middlewares/lvgl/src/draw/../misc/lv_color.h **** /*Source: https://vuetifyjs.com/en/styles/colors/#material-colors*/
 672:Middlewares/lvgl/src/draw/../misc/lv_color.h **** 
 673:Middlewares/lvgl/src/draw/../misc/lv_color.h **** lv_color_t lv_palette_main(lv_palette_t p);
 674:Middlewares/lvgl/src/draw/../misc/lv_color.h **** static inline lv_color_t lv_color_white(void) { return lv_color_make(0xff, 0xff, 0xff);}
 675:Middlewares/lvgl/src/draw/../misc/lv_color.h **** static inline lv_color_t lv_color_black(void) { return lv_color_make(0x00, 0x0, 0x00);}
  53              		.loc 2 675 26 view .LVU3
  54              	.LBE45:
  55              		.loc 2 675 49 view .LVU4
  56              	.LVL1:
  57              	.LBB48:
  58              	.LBB46:
  59              	.LBI46:
 602:Middlewares/lvgl/src/draw/../misc/lv_color.h **** {
  60              		.loc 2 602 26 view .LVU5
  61              	.LBB47:
 604:Middlewares/lvgl/src/draw/../misc/lv_color.h **** }
  62              		.loc 2 604 5 view .LVU6
 604:Middlewares/lvgl/src/draw/../misc/lv_color.h **** }
  63              		.loc 2 604 12 is_stmt 0 view .LVU7
  64 000a 4FF00002 		mov	r2, #0	@ movhi
  65              	.LVL2:
 604:Middlewares/lvgl/src/draw/../misc/lv_color.h **** }
  66              		.loc 2 604 12 view .LVU8
  67              	.LBE47:
ARM GAS  /tmp/ccTdGo64.s 			page 15


  68              	.LBE46:
  69              	.LBE48:
  70              		.loc 1 53 26 view .LVU9
  71 000e ADF80420 		strh	r2, [sp, #4]	@ movhi
  54:Middlewares/lvgl/src/draw/lv_img_buf.c ****     uint8_t * buf_u8 = (uint8_t *)dsc->data;
  72              		.loc 1 54 5 is_stmt 1 view .LVU10
  73              		.loc 1 54 15 is_stmt 0 view .LVU11
  74 0012 8668     		ldr	r6, [r0, #8]
  75              	.LVL3:
  55:Middlewares/lvgl/src/draw/lv_img_buf.c **** 
  56:Middlewares/lvgl/src/draw/lv_img_buf.c ****     if(dsc->header.cf == LV_IMG_CF_TRUE_COLOR || dsc->header.cf == LV_IMG_CF_TRUE_COLOR_CHROMA_KEYE
  76              		.loc 1 56 5 is_stmt 1 view .LVU12
  77              		.loc 1 56 23 is_stmt 0 view .LVU13
  78 0014 0178     		ldrb	r1, [r0]	@ zero_extendqisi2
  79              	.LVL4:
  80              		.loc 1 56 23 view .LVU14
  81 0016 01F01F01 		and	r1, r1, #31
  82              		.loc 1 56 7 view .LVU15
  83 001a 0429     		cmp	r1, #4
  84 001c 13D0     		beq	.L2
  85              		.loc 1 56 47 discriminator 1 view .LVU16
  86 001e 0629     		cmp	r1, #6
  87 0020 11D0     		beq	.L2
  88              		.loc 1 56 102 discriminator 2 view .LVU17
  89 0022 0529     		cmp	r1, #5
  90 0024 0FD0     		beq	.L2
  57:Middlewares/lvgl/src/draw/lv_img_buf.c ****        dsc->header.cf == LV_IMG_CF_TRUE_COLOR_ALPHA) {
  58:Middlewares/lvgl/src/draw/lv_img_buf.c ****         uint8_t px_size = lv_img_cf_get_px_size(dsc->header.cf) >> 3;
  59:Middlewares/lvgl/src/draw/lv_img_buf.c ****         uint32_t px     = dsc->header.w * y * px_size + x * px_size;
  60:Middlewares/lvgl/src/draw/lv_img_buf.c ****         lv_memcpy_small(&p_color, &buf_u8[px], sizeof(lv_color_t));
  61:Middlewares/lvgl/src/draw/lv_img_buf.c **** #if LV_COLOR_SIZE == 32
  62:Middlewares/lvgl/src/draw/lv_img_buf.c ****         p_color.ch.alpha = 0xFF; /*Only the color should be get so use a default alpha value*/
  63:Middlewares/lvgl/src/draw/lv_img_buf.c **** #endif
  64:Middlewares/lvgl/src/draw/lv_img_buf.c ****     }
  65:Middlewares/lvgl/src/draw/lv_img_buf.c ****     else if(dsc->header.cf == LV_IMG_CF_INDEXED_1BIT) {
  91              		.loc 1 65 10 is_stmt 1 view .LVU18
  92              		.loc 1 65 12 is_stmt 0 view .LVU19
  93 0026 0729     		cmp	r1, #7
  94 0028 2CD0     		beq	.L12
  66:Middlewares/lvgl/src/draw/lv_img_buf.c ****         buf_u8 += 4 * 2;
  67:Middlewares/lvgl/src/draw/lv_img_buf.c ****         uint8_t bit = x & 0x7;
  68:Middlewares/lvgl/src/draw/lv_img_buf.c ****         x           = x >> 3;
  69:Middlewares/lvgl/src/draw/lv_img_buf.c **** 
  70:Middlewares/lvgl/src/draw/lv_img_buf.c ****         /*Get the current pixel.
  71:Middlewares/lvgl/src/draw/lv_img_buf.c ****          *dsc->header.w + 7 means rounding up to 8 because the lines are byte aligned
  72:Middlewares/lvgl/src/draw/lv_img_buf.c ****          *so the possible real width are 8, 16, 24 ...*/
  73:Middlewares/lvgl/src/draw/lv_img_buf.c ****         uint32_t px  = ((dsc->header.w + 7) >> 3) * y + x;
  74:Middlewares/lvgl/src/draw/lv_img_buf.c ****         p_color.full = (buf_u8[px] & (1 << (7 - bit))) >> (7 - bit);
  75:Middlewares/lvgl/src/draw/lv_img_buf.c ****     }
  76:Middlewares/lvgl/src/draw/lv_img_buf.c ****     else if(dsc->header.cf == LV_IMG_CF_INDEXED_2BIT) {
  95              		.loc 1 76 10 is_stmt 1 view .LVU20
  96              		.loc 1 76 12 is_stmt 0 view .LVU21
  97 002a 0829     		cmp	r1, #8
  98 002c 40D0     		beq	.L13
  77:Middlewares/lvgl/src/draw/lv_img_buf.c ****         buf_u8 += 4 * 4;
  78:Middlewares/lvgl/src/draw/lv_img_buf.c ****         uint8_t bit = (x & 0x3) * 2;
  79:Middlewares/lvgl/src/draw/lv_img_buf.c ****         x           = x >> 2;
ARM GAS  /tmp/ccTdGo64.s 			page 16


  80:Middlewares/lvgl/src/draw/lv_img_buf.c **** 
  81:Middlewares/lvgl/src/draw/lv_img_buf.c ****         /*Get the current pixel.
  82:Middlewares/lvgl/src/draw/lv_img_buf.c ****          *dsc->header.w + 3 means rounding up to 4 because the lines are byte aligned
  83:Middlewares/lvgl/src/draw/lv_img_buf.c ****          *so the possible real width are 4, 8, 12 ...*/
  84:Middlewares/lvgl/src/draw/lv_img_buf.c ****         uint32_t px  = ((dsc->header.w + 3) >> 2) * y + x;
  85:Middlewares/lvgl/src/draw/lv_img_buf.c ****         p_color.full = (buf_u8[px] & (3 << (6 - bit))) >> (6 - bit);
  86:Middlewares/lvgl/src/draw/lv_img_buf.c ****     }
  87:Middlewares/lvgl/src/draw/lv_img_buf.c ****     else if(dsc->header.cf == LV_IMG_CF_INDEXED_4BIT) {
  99              		.loc 1 87 10 is_stmt 1 view .LVU22
 100              		.loc 1 87 12 is_stmt 0 view .LVU23
 101 002e 0929     		cmp	r1, #9
 102 0030 56D0     		beq	.L14
  88:Middlewares/lvgl/src/draw/lv_img_buf.c ****         buf_u8 += 4 * 16;
  89:Middlewares/lvgl/src/draw/lv_img_buf.c ****         uint8_t bit = (x & 0x1) * 4;
  90:Middlewares/lvgl/src/draw/lv_img_buf.c ****         x           = x >> 1;
  91:Middlewares/lvgl/src/draw/lv_img_buf.c **** 
  92:Middlewares/lvgl/src/draw/lv_img_buf.c ****         /*Get the current pixel.
  93:Middlewares/lvgl/src/draw/lv_img_buf.c ****          *dsc->header.w + 1 means rounding up to 2 because the lines are byte aligned
  94:Middlewares/lvgl/src/draw/lv_img_buf.c ****          *so the possible real width are 2, 4, 6 ...*/
  95:Middlewares/lvgl/src/draw/lv_img_buf.c ****         uint32_t px  = ((dsc->header.w + 1) >> 1) * y + x;
  96:Middlewares/lvgl/src/draw/lv_img_buf.c ****         p_color.full = (buf_u8[px] & (0xF << (4 - bit))) >> (4 - bit);
  97:Middlewares/lvgl/src/draw/lv_img_buf.c ****     }
  98:Middlewares/lvgl/src/draw/lv_img_buf.c ****     else if(dsc->header.cf == LV_IMG_CF_INDEXED_8BIT) {
 103              		.loc 1 98 10 is_stmt 1 view .LVU24
 104              		.loc 1 98 12 is_stmt 0 view .LVU25
 105 0032 0A29     		cmp	r1, #10
 106 0034 6DD0     		beq	.L15
  99:Middlewares/lvgl/src/draw/lv_img_buf.c ****         buf_u8 += 4 * 256;
 100:Middlewares/lvgl/src/draw/lv_img_buf.c ****         uint32_t px  = dsc->header.w * y + x;
 101:Middlewares/lvgl/src/draw/lv_img_buf.c ****         p_color.full = buf_u8[px];
 102:Middlewares/lvgl/src/draw/lv_img_buf.c ****     }
 103:Middlewares/lvgl/src/draw/lv_img_buf.c ****     else if(dsc->header.cf == LV_IMG_CF_ALPHA_1BIT || dsc->header.cf == LV_IMG_CF_ALPHA_2BIT ||
 107              		.loc 1 103 10 is_stmt 1 view .LVU26
 104:Middlewares/lvgl/src/draw/lv_img_buf.c ****             dsc->header.cf == LV_IMG_CF_ALPHA_4BIT || dsc->header.cf == LV_IMG_CF_ALPHA_8BIT) {
 108              		.loc 1 104 52 is_stmt 0 view .LVU27
 109 0036 A1F10B02 		sub	r2, r1, #11
 110 003a D2B2     		uxtb	r2, r2
 103:Middlewares/lvgl/src/draw/lv_img_buf.c ****             dsc->header.cf == LV_IMG_CF_ALPHA_4BIT || dsc->header.cf == LV_IMG_CF_ALPHA_8BIT) {
 111              		.loc 1 103 12 view .LVU28
 112 003c 032A     		cmp	r2, #3
 113 003e 1DD8     		bhi	.L6
 105:Middlewares/lvgl/src/draw/lv_img_buf.c ****         p_color = color;
 114              		.loc 1 105 9 is_stmt 1 view .LVU29
 115              		.loc 1 105 17 is_stmt 0 view .LVU30
 116 0040 ADF80430 		strh	r3, [sp, #4]	@ movhi
 117 0044 1AE0     		b	.L6
 118              	.L2:
 119              	.LBB49:
  58:Middlewares/lvgl/src/draw/lv_img_buf.c ****         uint32_t px     = dsc->header.w * y * px_size + x * px_size;
 120              		.loc 1 58 9 is_stmt 1 view .LVU31
  58:Middlewares/lvgl/src/draw/lv_img_buf.c ****         uint32_t px     = dsc->header.w * y * px_size + x * px_size;
 121              		.loc 1 58 60 is_stmt 0 view .LVU32
 122 0046 2878     		ldrb	r0, [r5]	@ zero_extendqisi2
 123              	.LVL5:
  58:Middlewares/lvgl/src/draw/lv_img_buf.c ****         uint32_t px     = dsc->header.w * y * px_size + x * px_size;
 124              		.loc 1 58 27 view .LVU33
 125 0048 00F01F00 		and	r0, r0, #31
ARM GAS  /tmp/ccTdGo64.s 			page 17


 126 004c FFF7FEFF 		bl	lv_img_cf_get_px_size
 127              	.LVL6:
  58:Middlewares/lvgl/src/draw/lv_img_buf.c ****         uint32_t px     = dsc->header.w * y * px_size + x * px_size;
 128              		.loc 1 58 17 view .LVU34
 129 0050 C0F3C700 		ubfx	r0, r0, #3, #8
 130              	.LVL7:
  59:Middlewares/lvgl/src/draw/lv_img_buf.c ****         lv_memcpy_small(&p_color, &buf_u8[px], sizeof(lv_color_t));
 131              		.loc 1 59 9 is_stmt 1 view .LVU35
  59:Middlewares/lvgl/src/draw/lv_img_buf.c ****         lv_memcpy_small(&p_color, &buf_u8[px], sizeof(lv_color_t));
 132              		.loc 1 59 38 is_stmt 0 view .LVU36
 133 0054 2B68     		ldr	r3, [r5]
 134 0056 C3F38A23 		ubfx	r3, r3, #10, #11
  59:Middlewares/lvgl/src/draw/lv_img_buf.c ****         lv_memcpy_small(&p_color, &buf_u8[px], sizeof(lv_color_t));
 135              		.loc 1 59 41 view .LVU37
 136 005a 07FB03F3 		mul	r3, r7, r3
  59:Middlewares/lvgl/src/draw/lv_img_buf.c ****         lv_memcpy_small(&p_color, &buf_u8[px], sizeof(lv_color_t));
 137              		.loc 1 59 59 view .LVU38
 138 005e 00FB04F2 		mul	r2, r0, r4
  59:Middlewares/lvgl/src/draw/lv_img_buf.c ****         lv_memcpy_small(&p_color, &buf_u8[px], sizeof(lv_color_t));
 139              		.loc 1 59 55 view .LVU39
 140 0062 00FB0322 		mla	r2, r0, r3, r2
 141              	.LVL8:
  60:Middlewares/lvgl/src/draw/lv_img_buf.c **** #if LV_COLOR_SIZE == 32
 142              		.loc 1 60 9 is_stmt 1 view .LVU40
  60:Middlewares/lvgl/src/draw/lv_img_buf.c **** #if LV_COLOR_SIZE == 32
 143              		.loc 1 60 35 is_stmt 0 view .LVU41
 144 0066 3244     		add	r2, r2, r6
 145              	.LVL9:
 146              	.LBB50:
 147              	.LBI50:
 148              		.file 3 "Middlewares/lvgl/src/draw/../misc/lv_mem.h"
   1:Middlewares/lvgl/src/draw/../misc/lv_mem.h **** /**
   2:Middlewares/lvgl/src/draw/../misc/lv_mem.h ****  * @file lv_mem.h
   3:Middlewares/lvgl/src/draw/../misc/lv_mem.h ****  *
   4:Middlewares/lvgl/src/draw/../misc/lv_mem.h ****  */
   5:Middlewares/lvgl/src/draw/../misc/lv_mem.h **** 
   6:Middlewares/lvgl/src/draw/../misc/lv_mem.h **** #ifndef LV_MEM_H
   7:Middlewares/lvgl/src/draw/../misc/lv_mem.h **** #define LV_MEM_H
   8:Middlewares/lvgl/src/draw/../misc/lv_mem.h **** 
   9:Middlewares/lvgl/src/draw/../misc/lv_mem.h **** #ifdef __cplusplus
  10:Middlewares/lvgl/src/draw/../misc/lv_mem.h **** extern "C" {
  11:Middlewares/lvgl/src/draw/../misc/lv_mem.h **** #endif
  12:Middlewares/lvgl/src/draw/../misc/lv_mem.h **** 
  13:Middlewares/lvgl/src/draw/../misc/lv_mem.h **** /*********************
  14:Middlewares/lvgl/src/draw/../misc/lv_mem.h ****  *      INCLUDES
  15:Middlewares/lvgl/src/draw/../misc/lv_mem.h ****  *********************/
  16:Middlewares/lvgl/src/draw/../misc/lv_mem.h **** #include "../lv_conf_internal.h"
  17:Middlewares/lvgl/src/draw/../misc/lv_mem.h **** 
  18:Middlewares/lvgl/src/draw/../misc/lv_mem.h **** #include <stdint.h>
  19:Middlewares/lvgl/src/draw/../misc/lv_mem.h **** #include <stddef.h>
  20:Middlewares/lvgl/src/draw/../misc/lv_mem.h **** #include "lv_log.h"
  21:Middlewares/lvgl/src/draw/../misc/lv_mem.h **** #include "lv_types.h"
  22:Middlewares/lvgl/src/draw/../misc/lv_mem.h **** 
  23:Middlewares/lvgl/src/draw/../misc/lv_mem.h **** #if LV_MEMCPY_MEMSET_STD
  24:Middlewares/lvgl/src/draw/../misc/lv_mem.h **** #include <string.h>
  25:Middlewares/lvgl/src/draw/../misc/lv_mem.h **** #endif
  26:Middlewares/lvgl/src/draw/../misc/lv_mem.h **** 
ARM GAS  /tmp/ccTdGo64.s 			page 18


  27:Middlewares/lvgl/src/draw/../misc/lv_mem.h **** /*********************
  28:Middlewares/lvgl/src/draw/../misc/lv_mem.h ****  *      DEFINES
  29:Middlewares/lvgl/src/draw/../misc/lv_mem.h ****  *********************/
  30:Middlewares/lvgl/src/draw/../misc/lv_mem.h **** 
  31:Middlewares/lvgl/src/draw/../misc/lv_mem.h **** #ifndef LV_MEM_BUF_MAX_NUM
  32:Middlewares/lvgl/src/draw/../misc/lv_mem.h **** #define LV_MEM_BUF_MAX_NUM    16
  33:Middlewares/lvgl/src/draw/../misc/lv_mem.h **** #endif
  34:Middlewares/lvgl/src/draw/../misc/lv_mem.h **** 
  35:Middlewares/lvgl/src/draw/../misc/lv_mem.h **** /**********************
  36:Middlewares/lvgl/src/draw/../misc/lv_mem.h ****  *      TYPEDEFS
  37:Middlewares/lvgl/src/draw/../misc/lv_mem.h ****  **********************/
  38:Middlewares/lvgl/src/draw/../misc/lv_mem.h **** 
  39:Middlewares/lvgl/src/draw/../misc/lv_mem.h **** /**
  40:Middlewares/lvgl/src/draw/../misc/lv_mem.h ****  * Heap information structure.
  41:Middlewares/lvgl/src/draw/../misc/lv_mem.h ****  */
  42:Middlewares/lvgl/src/draw/../misc/lv_mem.h **** typedef struct {
  43:Middlewares/lvgl/src/draw/../misc/lv_mem.h ****     uint32_t total_size; /**< Total heap size*/
  44:Middlewares/lvgl/src/draw/../misc/lv_mem.h ****     uint32_t free_cnt;
  45:Middlewares/lvgl/src/draw/../misc/lv_mem.h ****     uint32_t free_size; /**< Size of available memory*/
  46:Middlewares/lvgl/src/draw/../misc/lv_mem.h ****     uint32_t free_biggest_size;
  47:Middlewares/lvgl/src/draw/../misc/lv_mem.h ****     uint32_t used_cnt;
  48:Middlewares/lvgl/src/draw/../misc/lv_mem.h ****     uint32_t max_used; /**< Max size of Heap memory used*/
  49:Middlewares/lvgl/src/draw/../misc/lv_mem.h ****     uint8_t used_pct; /**< Percentage used*/
  50:Middlewares/lvgl/src/draw/../misc/lv_mem.h ****     uint8_t frag_pct; /**< Amount of fragmentation*/
  51:Middlewares/lvgl/src/draw/../misc/lv_mem.h **** } lv_mem_monitor_t;
  52:Middlewares/lvgl/src/draw/../misc/lv_mem.h **** 
  53:Middlewares/lvgl/src/draw/../misc/lv_mem.h **** typedef struct {
  54:Middlewares/lvgl/src/draw/../misc/lv_mem.h ****     void * p;
  55:Middlewares/lvgl/src/draw/../misc/lv_mem.h ****     uint16_t size;
  56:Middlewares/lvgl/src/draw/../misc/lv_mem.h ****     uint8_t used : 1;
  57:Middlewares/lvgl/src/draw/../misc/lv_mem.h **** } lv_mem_buf_t;
  58:Middlewares/lvgl/src/draw/../misc/lv_mem.h **** 
  59:Middlewares/lvgl/src/draw/../misc/lv_mem.h **** typedef lv_mem_buf_t lv_mem_buf_arr_t[LV_MEM_BUF_MAX_NUM];
  60:Middlewares/lvgl/src/draw/../misc/lv_mem.h **** 
  61:Middlewares/lvgl/src/draw/../misc/lv_mem.h **** /**********************
  62:Middlewares/lvgl/src/draw/../misc/lv_mem.h ****  * GLOBAL PROTOTYPES
  63:Middlewares/lvgl/src/draw/../misc/lv_mem.h ****  **********************/
  64:Middlewares/lvgl/src/draw/../misc/lv_mem.h **** 
  65:Middlewares/lvgl/src/draw/../misc/lv_mem.h **** /**
  66:Middlewares/lvgl/src/draw/../misc/lv_mem.h ****  * Initialize the dyn_mem module (work memory and other variables)
  67:Middlewares/lvgl/src/draw/../misc/lv_mem.h ****  */
  68:Middlewares/lvgl/src/draw/../misc/lv_mem.h **** void lv_mem_init(void);
  69:Middlewares/lvgl/src/draw/../misc/lv_mem.h **** 
  70:Middlewares/lvgl/src/draw/../misc/lv_mem.h **** /**
  71:Middlewares/lvgl/src/draw/../misc/lv_mem.h ****  * Clean up the memory buffer which frees all the allocated memories.
  72:Middlewares/lvgl/src/draw/../misc/lv_mem.h ****  * @note It work only if `LV_MEM_CUSTOM == 0`
  73:Middlewares/lvgl/src/draw/../misc/lv_mem.h ****  */
  74:Middlewares/lvgl/src/draw/../misc/lv_mem.h **** void lv_mem_deinit(void);
  75:Middlewares/lvgl/src/draw/../misc/lv_mem.h **** 
  76:Middlewares/lvgl/src/draw/../misc/lv_mem.h **** /**
  77:Middlewares/lvgl/src/draw/../misc/lv_mem.h ****  * Allocate a memory dynamically
  78:Middlewares/lvgl/src/draw/../misc/lv_mem.h ****  * @param size size of the memory to allocate in bytes
  79:Middlewares/lvgl/src/draw/../misc/lv_mem.h ****  * @return pointer to the allocated memory
  80:Middlewares/lvgl/src/draw/../misc/lv_mem.h ****  */
  81:Middlewares/lvgl/src/draw/../misc/lv_mem.h **** void * lv_mem_alloc(size_t size);
  82:Middlewares/lvgl/src/draw/../misc/lv_mem.h **** 
  83:Middlewares/lvgl/src/draw/../misc/lv_mem.h **** /**
ARM GAS  /tmp/ccTdGo64.s 			page 19


  84:Middlewares/lvgl/src/draw/../misc/lv_mem.h ****  * Free an allocated data
  85:Middlewares/lvgl/src/draw/../misc/lv_mem.h ****  * @param data pointer to an allocated memory
  86:Middlewares/lvgl/src/draw/../misc/lv_mem.h ****  */
  87:Middlewares/lvgl/src/draw/../misc/lv_mem.h **** void lv_mem_free(void * data);
  88:Middlewares/lvgl/src/draw/../misc/lv_mem.h **** 
  89:Middlewares/lvgl/src/draw/../misc/lv_mem.h **** /**
  90:Middlewares/lvgl/src/draw/../misc/lv_mem.h ****  * Reallocate a memory with a new size. The old content will be kept.
  91:Middlewares/lvgl/src/draw/../misc/lv_mem.h ****  * @param data pointer to an allocated memory.
  92:Middlewares/lvgl/src/draw/../misc/lv_mem.h ****  * Its content will be copied to the new memory block and freed
  93:Middlewares/lvgl/src/draw/../misc/lv_mem.h ****  * @param new_size the desired new size in byte
  94:Middlewares/lvgl/src/draw/../misc/lv_mem.h ****  * @return pointer to the new memory
  95:Middlewares/lvgl/src/draw/../misc/lv_mem.h ****  */
  96:Middlewares/lvgl/src/draw/../misc/lv_mem.h **** void * lv_mem_realloc(void * data_p, size_t new_size);
  97:Middlewares/lvgl/src/draw/../misc/lv_mem.h **** 
  98:Middlewares/lvgl/src/draw/../misc/lv_mem.h **** /**
  99:Middlewares/lvgl/src/draw/../misc/lv_mem.h ****  *
 100:Middlewares/lvgl/src/draw/../misc/lv_mem.h ****  * @return
 101:Middlewares/lvgl/src/draw/../misc/lv_mem.h ****  */
 102:Middlewares/lvgl/src/draw/../misc/lv_mem.h **** lv_res_t lv_mem_test(void);
 103:Middlewares/lvgl/src/draw/../misc/lv_mem.h **** 
 104:Middlewares/lvgl/src/draw/../misc/lv_mem.h **** /**
 105:Middlewares/lvgl/src/draw/../misc/lv_mem.h ****  * Give information about the work memory of dynamic allocation
 106:Middlewares/lvgl/src/draw/../misc/lv_mem.h ****  * @param mon_p pointer to a dm_mon_p variable,
 107:Middlewares/lvgl/src/draw/../misc/lv_mem.h ****  *              the result of the analysis will be stored here
 108:Middlewares/lvgl/src/draw/../misc/lv_mem.h ****  */
 109:Middlewares/lvgl/src/draw/../misc/lv_mem.h **** void lv_mem_monitor(lv_mem_monitor_t * mon_p);
 110:Middlewares/lvgl/src/draw/../misc/lv_mem.h **** 
 111:Middlewares/lvgl/src/draw/../misc/lv_mem.h **** 
 112:Middlewares/lvgl/src/draw/../misc/lv_mem.h **** /**
 113:Middlewares/lvgl/src/draw/../misc/lv_mem.h ****  * Get a temporal buffer with the given size.
 114:Middlewares/lvgl/src/draw/../misc/lv_mem.h ****  * @param size the required size
 115:Middlewares/lvgl/src/draw/../misc/lv_mem.h ****  */
 116:Middlewares/lvgl/src/draw/../misc/lv_mem.h **** void * lv_mem_buf_get(uint32_t size);
 117:Middlewares/lvgl/src/draw/../misc/lv_mem.h **** 
 118:Middlewares/lvgl/src/draw/../misc/lv_mem.h **** /**
 119:Middlewares/lvgl/src/draw/../misc/lv_mem.h ****  * Release a memory buffer
 120:Middlewares/lvgl/src/draw/../misc/lv_mem.h ****  * @param p buffer to release
 121:Middlewares/lvgl/src/draw/../misc/lv_mem.h ****  */
 122:Middlewares/lvgl/src/draw/../misc/lv_mem.h **** void lv_mem_buf_release(void * p);
 123:Middlewares/lvgl/src/draw/../misc/lv_mem.h **** 
 124:Middlewares/lvgl/src/draw/../misc/lv_mem.h **** /**
 125:Middlewares/lvgl/src/draw/../misc/lv_mem.h ****  * Free all memory buffers
 126:Middlewares/lvgl/src/draw/../misc/lv_mem.h ****  */
 127:Middlewares/lvgl/src/draw/../misc/lv_mem.h **** void lv_mem_buf_free_all(void);
 128:Middlewares/lvgl/src/draw/../misc/lv_mem.h **** 
 129:Middlewares/lvgl/src/draw/../misc/lv_mem.h **** //! @cond Doxygen_Suppress
 130:Middlewares/lvgl/src/draw/../misc/lv_mem.h **** 
 131:Middlewares/lvgl/src/draw/../misc/lv_mem.h **** #if LV_MEMCPY_MEMSET_STD
 132:Middlewares/lvgl/src/draw/../misc/lv_mem.h **** 
 133:Middlewares/lvgl/src/draw/../misc/lv_mem.h **** /**
 134:Middlewares/lvgl/src/draw/../misc/lv_mem.h ****  * Wrapper for the standard memcpy
 135:Middlewares/lvgl/src/draw/../misc/lv_mem.h ****  * @param dst pointer to the destination buffer
 136:Middlewares/lvgl/src/draw/../misc/lv_mem.h ****  * @param src pointer to the source buffer
 137:Middlewares/lvgl/src/draw/../misc/lv_mem.h ****  * @param len number of byte to copy
 138:Middlewares/lvgl/src/draw/../misc/lv_mem.h ****  */
 139:Middlewares/lvgl/src/draw/../misc/lv_mem.h **** static inline void * lv_memcpy(void * dst, const void * src, size_t len)
 140:Middlewares/lvgl/src/draw/../misc/lv_mem.h **** {
ARM GAS  /tmp/ccTdGo64.s 			page 20


 141:Middlewares/lvgl/src/draw/../misc/lv_mem.h ****     return memcpy(dst, src, len);
 142:Middlewares/lvgl/src/draw/../misc/lv_mem.h **** }
 143:Middlewares/lvgl/src/draw/../misc/lv_mem.h **** 
 144:Middlewares/lvgl/src/draw/../misc/lv_mem.h **** /**
 145:Middlewares/lvgl/src/draw/../misc/lv_mem.h ****  * Wrapper for the standard memcpy
 146:Middlewares/lvgl/src/draw/../misc/lv_mem.h ****  * @param dst pointer to the destination buffer
 147:Middlewares/lvgl/src/draw/../misc/lv_mem.h ****  * @param src pointer to the source buffer
 148:Middlewares/lvgl/src/draw/../misc/lv_mem.h ****  * @param len number of byte to copy
 149:Middlewares/lvgl/src/draw/../misc/lv_mem.h ****  */
 150:Middlewares/lvgl/src/draw/../misc/lv_mem.h **** static inline void * lv_memcpy_small(void * dst, const void * src, size_t len)
 151:Middlewares/lvgl/src/draw/../misc/lv_mem.h **** {
 152:Middlewares/lvgl/src/draw/../misc/lv_mem.h ****     return memcpy(dst, src, len);
 153:Middlewares/lvgl/src/draw/../misc/lv_mem.h **** }
 154:Middlewares/lvgl/src/draw/../misc/lv_mem.h **** 
 155:Middlewares/lvgl/src/draw/../misc/lv_mem.h **** /**
 156:Middlewares/lvgl/src/draw/../misc/lv_mem.h ****  * Wrapper for the standard memset
 157:Middlewares/lvgl/src/draw/../misc/lv_mem.h ****  * @param dst pointer to the destination buffer
 158:Middlewares/lvgl/src/draw/../misc/lv_mem.h ****  * @param v value to set [0..255]
 159:Middlewares/lvgl/src/draw/../misc/lv_mem.h ****  * @param len number of byte to set
 160:Middlewares/lvgl/src/draw/../misc/lv_mem.h ****  */
 161:Middlewares/lvgl/src/draw/../misc/lv_mem.h **** static inline void lv_memset(void * dst, uint8_t v, size_t len)
 162:Middlewares/lvgl/src/draw/../misc/lv_mem.h **** {
 163:Middlewares/lvgl/src/draw/../misc/lv_mem.h ****     memset(dst, v, len);
 164:Middlewares/lvgl/src/draw/../misc/lv_mem.h **** }
 165:Middlewares/lvgl/src/draw/../misc/lv_mem.h **** 
 166:Middlewares/lvgl/src/draw/../misc/lv_mem.h **** /**
 167:Middlewares/lvgl/src/draw/../misc/lv_mem.h ****  * Wrapper for the standard memset with fixed 0x00 value
 168:Middlewares/lvgl/src/draw/../misc/lv_mem.h ****  * @param dst pointer to the destination buffer
 169:Middlewares/lvgl/src/draw/../misc/lv_mem.h ****  * @param len number of byte to set
 170:Middlewares/lvgl/src/draw/../misc/lv_mem.h ****  */
 171:Middlewares/lvgl/src/draw/../misc/lv_mem.h **** static inline void lv_memset_00(void * dst, size_t len)
 172:Middlewares/lvgl/src/draw/../misc/lv_mem.h **** {
 173:Middlewares/lvgl/src/draw/../misc/lv_mem.h ****     memset(dst, 0x00, len);
 174:Middlewares/lvgl/src/draw/../misc/lv_mem.h **** }
 175:Middlewares/lvgl/src/draw/../misc/lv_mem.h **** 
 176:Middlewares/lvgl/src/draw/../misc/lv_mem.h **** /**
 177:Middlewares/lvgl/src/draw/../misc/lv_mem.h ****  * Wrapper for the standard memset with fixed 0xFF value
 178:Middlewares/lvgl/src/draw/../misc/lv_mem.h ****  * @param dst pointer to the destination buffer
 179:Middlewares/lvgl/src/draw/../misc/lv_mem.h ****  * @param len number of byte to set
 180:Middlewares/lvgl/src/draw/../misc/lv_mem.h ****  */
 181:Middlewares/lvgl/src/draw/../misc/lv_mem.h **** static inline void lv_memset_ff(void * dst, size_t len)
 182:Middlewares/lvgl/src/draw/../misc/lv_mem.h **** {
 183:Middlewares/lvgl/src/draw/../misc/lv_mem.h ****     memset(dst, 0xFF, len);
 184:Middlewares/lvgl/src/draw/../misc/lv_mem.h **** }
 185:Middlewares/lvgl/src/draw/../misc/lv_mem.h **** 
 186:Middlewares/lvgl/src/draw/../misc/lv_mem.h **** #else
 187:Middlewares/lvgl/src/draw/../misc/lv_mem.h **** /**
 188:Middlewares/lvgl/src/draw/../misc/lv_mem.h ****  * Same as `memcpy` but optimized for 4 byte operation.
 189:Middlewares/lvgl/src/draw/../misc/lv_mem.h ****  * @param dst pointer to the destination buffer
 190:Middlewares/lvgl/src/draw/../misc/lv_mem.h ****  * @param src pointer to the source buffer
 191:Middlewares/lvgl/src/draw/../misc/lv_mem.h ****  * @param len number of byte to copy
 192:Middlewares/lvgl/src/draw/../misc/lv_mem.h ****  */
 193:Middlewares/lvgl/src/draw/../misc/lv_mem.h **** LV_ATTRIBUTE_FAST_MEM void * lv_memcpy(void * dst, const void * src, size_t len);
 194:Middlewares/lvgl/src/draw/../misc/lv_mem.h **** 
 195:Middlewares/lvgl/src/draw/../misc/lv_mem.h **** /**
 196:Middlewares/lvgl/src/draw/../misc/lv_mem.h ****  * Same as `memcpy` but optimized to copy only a few bytes.
 197:Middlewares/lvgl/src/draw/../misc/lv_mem.h ****  * @param dst pointer to the destination buffer
ARM GAS  /tmp/ccTdGo64.s 			page 21


 198:Middlewares/lvgl/src/draw/../misc/lv_mem.h ****  * @param src pointer to the source buffer
 199:Middlewares/lvgl/src/draw/../misc/lv_mem.h ****  * @param len number of byte to copy
 200:Middlewares/lvgl/src/draw/../misc/lv_mem.h ****  */
 201:Middlewares/lvgl/src/draw/../misc/lv_mem.h **** LV_ATTRIBUTE_FAST_MEM static inline void * lv_memcpy_small(void * dst, const void * src, size_t len
 149              		.loc 3 201 44 is_stmt 1 view .LVU42
 150              	.LBB51:
 202:Middlewares/lvgl/src/draw/../misc/lv_mem.h **** {
 203:Middlewares/lvgl/src/draw/../misc/lv_mem.h ****     uint8_t * d8 = (uint8_t *)dst;
 151              		.loc 3 203 5 view .LVU43
 204:Middlewares/lvgl/src/draw/../misc/lv_mem.h ****     const uint8_t * s8 = (const uint8_t *)src;
 152              		.loc 3 204 5 view .LVU44
 205:Middlewares/lvgl/src/draw/../misc/lv_mem.h **** 
 206:Middlewares/lvgl/src/draw/../misc/lv_mem.h ****     while(len) {
 153              		.loc 3 206 5 view .LVU45
 203:Middlewares/lvgl/src/draw/../misc/lv_mem.h ****     const uint8_t * s8 = (const uint8_t *)src;
 154              		.loc 3 203 15 is_stmt 0 view .LVU46
 155 0068 01A9     		add	r1, sp, #4
 156              	.LVL10:
 157              		.loc 3 206 10 view .LVU47
 158 006a 0223     		movs	r3, #2
 159              	.LVL11:
 160              		.loc 3 206 10 view .LVU48
 161 006c 04E0     		b	.L4
 162              	.LVL12:
 163              	.L5:
 207:Middlewares/lvgl/src/draw/../misc/lv_mem.h ****         *d8 = *s8;
 164              		.loc 3 207 9 is_stmt 1 view .LVU49
 165              		.loc 3 207 15 is_stmt 0 view .LVU50
 166 006e 12F8010B 		ldrb	r0, [r2], #1	@ zero_extendqisi2
 167              	.LVL13:
 168              		.loc 3 207 13 view .LVU51
 169 0072 01F8010B 		strb	r0, [r1], #1
 170              	.LVL14:
 208:Middlewares/lvgl/src/draw/../misc/lv_mem.h ****         d8++;
 171              		.loc 3 208 9 is_stmt 1 view .LVU52
 209:Middlewares/lvgl/src/draw/../misc/lv_mem.h ****         s8++;
 172              		.loc 3 209 9 view .LVU53
 210:Middlewares/lvgl/src/draw/../misc/lv_mem.h ****         len--;
 173              		.loc 3 210 9 view .LVU54
 174              		.loc 3 210 12 is_stmt 0 view .LVU55
 175 0076 013B     		subs	r3, r3, #1
 176              	.LVL15:
 177              	.L4:
 206:Middlewares/lvgl/src/draw/../misc/lv_mem.h ****         *d8 = *s8;
 178              		.loc 3 206 10 is_stmt 1 view .LVU56
 179 0078 002B     		cmp	r3, #0
 180 007a F8D1     		bne	.L5
 181              	.LVL16:
 182              	.L6:
 206:Middlewares/lvgl/src/draw/../misc/lv_mem.h ****         *d8 = *s8;
 183              		.loc 3 206 10 is_stmt 0 view .LVU57
 184              	.LBE51:
 185              	.LBE50:
 186              	.LBE49:
 106:Middlewares/lvgl/src/draw/lv_img_buf.c ****     }
 107:Middlewares/lvgl/src/draw/lv_img_buf.c ****     return p_color;
 187              		.loc 1 107 5 is_stmt 1 view .LVU58
ARM GAS  /tmp/ccTdGo64.s 			page 22


 108:Middlewares/lvgl/src/draw/lv_img_buf.c **** }
 188              		.loc 1 108 1 is_stmt 0 view .LVU59
 189 007c BDF80400 		ldrh	r0, [sp, #4]
 190 0080 03B0     		add	sp, sp, #12
 191              	.LCFI2:
 192              		.cfi_remember_state
 193              		.cfi_def_cfa_offset 20
 194              		@ sp needed
 195 0082 F0BD     		pop	{r4, r5, r6, r7, pc}
 196              	.LVL17:
 197              	.L12:
 198              	.LCFI3:
 199              		.cfi_restore_state
 200              	.LBB52:
  66:Middlewares/lvgl/src/draw/lv_img_buf.c ****         uint8_t bit = x & 0x7;
 201              		.loc 1 66 9 is_stmt 1 view .LVU60
  67:Middlewares/lvgl/src/draw/lv_img_buf.c ****         x           = x >> 3;
 202              		.loc 1 67 9 view .LVU61
  67:Middlewares/lvgl/src/draw/lv_img_buf.c ****         x           = x >> 3;
 203              		.loc 1 67 17 is_stmt 0 view .LVU62
 204 0084 04F00701 		and	r1, r4, #7
 205              	.LVL18:
  68:Middlewares/lvgl/src/draw/lv_img_buf.c **** 
 206              		.loc 1 68 9 is_stmt 1 view .LVU63
  73:Middlewares/lvgl/src/draw/lv_img_buf.c ****         p_color.full = (buf_u8[px] & (1 << (7 - bit))) >> (7 - bit);
 207              		.loc 1 73 9 view .LVU64
  73:Middlewares/lvgl/src/draw/lv_img_buf.c ****         p_color.full = (buf_u8[px] & (1 << (7 - bit))) >> (7 - bit);
 208              		.loc 1 73 37 is_stmt 0 view .LVU65
 209 0088 0268     		ldr	r2, [r0]
 210 008a C2F38A22 		ubfx	r2, r2, #10, #11
  73:Middlewares/lvgl/src/draw/lv_img_buf.c ****         p_color.full = (buf_u8[px] & (1 << (7 - bit))) >> (7 - bit);
 211              		.loc 1 73 40 view .LVU66
 212 008e 0732     		adds	r2, r2, #7
  73:Middlewares/lvgl/src/draw/lv_img_buf.c ****         p_color.full = (buf_u8[px] & (1 << (7 - bit))) >> (7 - bit);
 213              		.loc 1 73 45 view .LVU67
 214 0090 D210     		asrs	r2, r2, #3
  73:Middlewares/lvgl/src/draw/lv_img_buf.c ****         p_color.full = (buf_u8[px] & (1 << (7 - bit))) >> (7 - bit);
 215              		.loc 1 73 51 view .LVU68
 216 0092 07FB02F2 		mul	r2, r7, r2
  73:Middlewares/lvgl/src/draw/lv_img_buf.c ****         p_color.full = (buf_u8[px] & (1 << (7 - bit))) >> (7 - bit);
 217              		.loc 1 73 55 view .LVU69
 218 0096 02EBE402 		add	r2, r2, r4, asr #3
 219              	.LVL19:
  74:Middlewares/lvgl/src/draw/lv_img_buf.c ****     }
 220              		.loc 1 74 9 is_stmt 1 view .LVU70
  74:Middlewares/lvgl/src/draw/lv_img_buf.c ****     }
 221              		.loc 1 74 31 is_stmt 0 view .LVU71
 222 009a 3244     		add	r2, r2, r6
 223              	.LVL20:
  74:Middlewares/lvgl/src/draw/lv_img_buf.c ****     }
 224              		.loc 1 74 31 view .LVU72
 225 009c 137A     		ldrb	r3, [r2, #8]	@ zero_extendqisi2
 226              	.LVL21:
  74:Middlewares/lvgl/src/draw/lv_img_buf.c ****     }
 227              		.loc 1 74 47 view .LVU73
 228 009e C1F10702 		rsb	r2, r1, #7
  74:Middlewares/lvgl/src/draw/lv_img_buf.c ****     }
ARM GAS  /tmp/ccTdGo64.s 			page 23


 229              		.loc 1 74 41 view .LVU74
 230 00a2 0121     		movs	r1, #1
 231              	.LVL22:
  74:Middlewares/lvgl/src/draw/lv_img_buf.c ****     }
 232              		.loc 1 74 41 view .LVU75
 233 00a4 9140     		lsls	r1, r1, r2
  74:Middlewares/lvgl/src/draw/lv_img_buf.c ****     }
 234              		.loc 1 74 36 view .LVU76
 235 00a6 0B40     		ands	r3, r3, r1
  74:Middlewares/lvgl/src/draw/lv_img_buf.c ****     }
 236              		.loc 1 74 56 view .LVU77
 237 00a8 1341     		asrs	r3, r3, r2
  74:Middlewares/lvgl/src/draw/lv_img_buf.c ****     }
 238              		.loc 1 74 22 view .LVU78
 239 00aa ADF80430 		strh	r3, [sp, #4]	@ movhi
 240              	.LVL23:
  74:Middlewares/lvgl/src/draw/lv_img_buf.c ****     }
 241              		.loc 1 74 22 view .LVU79
 242              	.LBE52:
 243 00ae E5E7     		b	.L6
 244              	.LVL24:
 245              	.L13:
 246              	.LBB53:
  77:Middlewares/lvgl/src/draw/lv_img_buf.c ****         uint8_t bit = (x & 0x3) * 2;
 247              		.loc 1 77 9 is_stmt 1 view .LVU80
  78:Middlewares/lvgl/src/draw/lv_img_buf.c ****         x           = x >> 2;
 248              		.loc 1 78 9 view .LVU81
  78:Middlewares/lvgl/src/draw/lv_img_buf.c ****         x           = x >> 2;
 249              		.loc 1 78 17 is_stmt 0 view .LVU82
 250 00b0 04F00303 		and	r3, r4, #3
 251              	.LVL25:
  78:Middlewares/lvgl/src/draw/lv_img_buf.c ****         x           = x >> 2;
 252              		.loc 1 78 17 view .LVU83
 253 00b4 5B00     		lsls	r3, r3, #1
 254              	.LVL26:
  79:Middlewares/lvgl/src/draw/lv_img_buf.c **** 
 255              		.loc 1 79 9 is_stmt 1 view .LVU84
  84:Middlewares/lvgl/src/draw/lv_img_buf.c ****         p_color.full = (buf_u8[px] & (3 << (6 - bit))) >> (6 - bit);
 256              		.loc 1 84 9 view .LVU85
  84:Middlewares/lvgl/src/draw/lv_img_buf.c ****         p_color.full = (buf_u8[px] & (3 << (6 - bit))) >> (6 - bit);
 257              		.loc 1 84 37 is_stmt 0 view .LVU86
 258 00b6 0268     		ldr	r2, [r0]
 259 00b8 C2F38A22 		ubfx	r2, r2, #10, #11
  84:Middlewares/lvgl/src/draw/lv_img_buf.c ****         p_color.full = (buf_u8[px] & (3 << (6 - bit))) >> (6 - bit);
 260              		.loc 1 84 40 view .LVU87
 261 00bc 0332     		adds	r2, r2, #3
  84:Middlewares/lvgl/src/draw/lv_img_buf.c ****         p_color.full = (buf_u8[px] & (3 << (6 - bit))) >> (6 - bit);
 262              		.loc 1 84 45 view .LVU88
 263 00be 9210     		asrs	r2, r2, #2
  84:Middlewares/lvgl/src/draw/lv_img_buf.c ****         p_color.full = (buf_u8[px] & (3 << (6 - bit))) >> (6 - bit);
 264              		.loc 1 84 51 view .LVU89
 265 00c0 07FB02F2 		mul	r2, r7, r2
  84:Middlewares/lvgl/src/draw/lv_img_buf.c ****         p_color.full = (buf_u8[px] & (3 << (6 - bit))) >> (6 - bit);
 266              		.loc 1 84 55 view .LVU90
 267 00c4 02EBA402 		add	r2, r2, r4, asr #2
 268              	.LVL27:
  85:Middlewares/lvgl/src/draw/lv_img_buf.c ****     }
ARM GAS  /tmp/ccTdGo64.s 			page 24


 269              		.loc 1 85 9 is_stmt 1 view .LVU91
  85:Middlewares/lvgl/src/draw/lv_img_buf.c ****     }
 270              		.loc 1 85 31 is_stmt 0 view .LVU92
 271 00c8 3244     		add	r2, r2, r6
 272              	.LVL28:
  85:Middlewares/lvgl/src/draw/lv_img_buf.c ****     }
 273              		.loc 1 85 31 view .LVU93
 274 00ca 127C     		ldrb	r2, [r2, #16]	@ zero_extendqisi2
  85:Middlewares/lvgl/src/draw/lv_img_buf.c ****     }
 275              		.loc 1 85 47 view .LVU94
 276 00cc C3F10603 		rsb	r3, r3, #6
 277              	.LVL29:
  85:Middlewares/lvgl/src/draw/lv_img_buf.c ****     }
 278              		.loc 1 85 41 view .LVU95
 279 00d0 0321     		movs	r1, #3
 280 00d2 9940     		lsls	r1, r1, r3
  85:Middlewares/lvgl/src/draw/lv_img_buf.c ****     }
 281              		.loc 1 85 36 view .LVU96
 282 00d4 0A40     		ands	r2, r2, r1
  85:Middlewares/lvgl/src/draw/lv_img_buf.c ****     }
 283              		.loc 1 85 56 view .LVU97
 284 00d6 42FA03F3 		asr	r3, r2, r3
  85:Middlewares/lvgl/src/draw/lv_img_buf.c ****     }
 285              		.loc 1 85 22 view .LVU98
 286 00da ADF80430 		strh	r3, [sp, #4]	@ movhi
 287              	.LVL30:
  85:Middlewares/lvgl/src/draw/lv_img_buf.c ****     }
 288              		.loc 1 85 22 view .LVU99
 289              	.LBE53:
 290 00de CDE7     		b	.L6
 291              	.LVL31:
 292              	.L14:
 293              	.LBB54:
  88:Middlewares/lvgl/src/draw/lv_img_buf.c ****         uint8_t bit = (x & 0x1) * 4;
 294              		.loc 1 88 9 is_stmt 1 view .LVU100
  89:Middlewares/lvgl/src/draw/lv_img_buf.c ****         x           = x >> 1;
 295              		.loc 1 89 9 view .LVU101
  89:Middlewares/lvgl/src/draw/lv_img_buf.c ****         x           = x >> 1;
 296              		.loc 1 89 17 is_stmt 0 view .LVU102
 297 00e0 04F00103 		and	r3, r4, #1
 298              	.LVL32:
  89:Middlewares/lvgl/src/draw/lv_img_buf.c ****         x           = x >> 1;
 299              		.loc 1 89 17 view .LVU103
 300 00e4 9B00     		lsls	r3, r3, #2
 301              	.LVL33:
  90:Middlewares/lvgl/src/draw/lv_img_buf.c **** 
 302              		.loc 1 90 9 is_stmt 1 view .LVU104
  95:Middlewares/lvgl/src/draw/lv_img_buf.c ****         p_color.full = (buf_u8[px] & (0xF << (4 - bit))) >> (4 - bit);
 303              		.loc 1 95 9 view .LVU105
  95:Middlewares/lvgl/src/draw/lv_img_buf.c ****         p_color.full = (buf_u8[px] & (0xF << (4 - bit))) >> (4 - bit);
 304              		.loc 1 95 37 is_stmt 0 view .LVU106
 305 00e6 0268     		ldr	r2, [r0]
 306 00e8 C2F38A22 		ubfx	r2, r2, #10, #11
  95:Middlewares/lvgl/src/draw/lv_img_buf.c ****         p_color.full = (buf_u8[px] & (0xF << (4 - bit))) >> (4 - bit);
 307              		.loc 1 95 40 view .LVU107
 308 00ec 0132     		adds	r2, r2, #1
  95:Middlewares/lvgl/src/draw/lv_img_buf.c ****         p_color.full = (buf_u8[px] & (0xF << (4 - bit))) >> (4 - bit);
ARM GAS  /tmp/ccTdGo64.s 			page 25


 309              		.loc 1 95 45 view .LVU108
 310 00ee 5210     		asrs	r2, r2, #1
  95:Middlewares/lvgl/src/draw/lv_img_buf.c ****         p_color.full = (buf_u8[px] & (0xF << (4 - bit))) >> (4 - bit);
 311              		.loc 1 95 51 view .LVU109
 312 00f0 07FB02F2 		mul	r2, r7, r2
  95:Middlewares/lvgl/src/draw/lv_img_buf.c ****         p_color.full = (buf_u8[px] & (0xF << (4 - bit))) >> (4 - bit);
 313              		.loc 1 95 55 view .LVU110
 314 00f4 02EB6402 		add	r2, r2, r4, asr #1
 315              	.LVL34:
  96:Middlewares/lvgl/src/draw/lv_img_buf.c ****     }
 316              		.loc 1 96 9 is_stmt 1 view .LVU111
  96:Middlewares/lvgl/src/draw/lv_img_buf.c ****     }
 317              		.loc 1 96 31 is_stmt 0 view .LVU112
 318 00f8 3244     		add	r2, r2, r6
 319              	.LVL35:
  96:Middlewares/lvgl/src/draw/lv_img_buf.c ****     }
 320              		.loc 1 96 31 view .LVU113
 321 00fa 92F84020 		ldrb	r2, [r2, #64]	@ zero_extendqisi2
  96:Middlewares/lvgl/src/draw/lv_img_buf.c ****     }
 322              		.loc 1 96 49 view .LVU114
 323 00fe C3F10403 		rsb	r3, r3, #4
 324              	.LVL36:
  96:Middlewares/lvgl/src/draw/lv_img_buf.c ****     }
 325              		.loc 1 96 43 view .LVU115
 326 0102 0F21     		movs	r1, #15
 327 0104 9940     		lsls	r1, r1, r3
  96:Middlewares/lvgl/src/draw/lv_img_buf.c ****     }
 328              		.loc 1 96 36 view .LVU116
 329 0106 0A40     		ands	r2, r2, r1
  96:Middlewares/lvgl/src/draw/lv_img_buf.c ****     }
 330              		.loc 1 96 58 view .LVU117
 331 0108 42FA03F3 		asr	r3, r2, r3
  96:Middlewares/lvgl/src/draw/lv_img_buf.c ****     }
 332              		.loc 1 96 22 view .LVU118
 333 010c ADF80430 		strh	r3, [sp, #4]	@ movhi
 334              	.LVL37:
  96:Middlewares/lvgl/src/draw/lv_img_buf.c ****     }
 335              		.loc 1 96 22 view .LVU119
 336              	.LBE54:
 337 0110 B4E7     		b	.L6
 338              	.LVL38:
 339              	.L15:
 340              	.LBB55:
  99:Middlewares/lvgl/src/draw/lv_img_buf.c ****         uint32_t px  = dsc->header.w * y + x;
 341              		.loc 1 99 9 is_stmt 1 view .LVU120
 100:Middlewares/lvgl/src/draw/lv_img_buf.c ****         p_color.full = buf_u8[px];
 342              		.loc 1 100 9 view .LVU121
 100:Middlewares/lvgl/src/draw/lv_img_buf.c ****         p_color.full = buf_u8[px];
 343              		.loc 1 100 35 is_stmt 0 view .LVU122
 344 0112 0368     		ldr	r3, [r0]
 345              	.LVL39:
 100:Middlewares/lvgl/src/draw/lv_img_buf.c ****         p_color.full = buf_u8[px];
 346              		.loc 1 100 35 view .LVU123
 347 0114 C3F38A23 		ubfx	r3, r3, #10, #11
 100:Middlewares/lvgl/src/draw/lv_img_buf.c ****         p_color.full = buf_u8[px];
 348              		.loc 1 100 42 view .LVU124
 349 0118 03FB0743 		mla	r3, r3, r7, r4
ARM GAS  /tmp/ccTdGo64.s 			page 26


 350              	.LVL40:
 101:Middlewares/lvgl/src/draw/lv_img_buf.c ****     }
 351              		.loc 1 101 9 is_stmt 1 view .LVU125
 101:Middlewares/lvgl/src/draw/lv_img_buf.c ****     }
 352              		.loc 1 101 30 is_stmt 0 view .LVU126
 353 011c 3344     		add	r3, r3, r6
 354              	.LVL41:
 101:Middlewares/lvgl/src/draw/lv_img_buf.c ****     }
 355              		.loc 1 101 30 view .LVU127
 356 011e 93F80034 		ldrb	r3, [r3, #1024]	@ zero_extendqisi2
 101:Middlewares/lvgl/src/draw/lv_img_buf.c ****     }
 357              		.loc 1 101 22 view .LVU128
 358 0122 ADF80430 		strh	r3, [sp, #4]	@ movhi
 359              	.LVL42:
 101:Middlewares/lvgl/src/draw/lv_img_buf.c ****     }
 360              		.loc 1 101 22 view .LVU129
 361              	.LBE55:
 362 0126 A9E7     		b	.L6
 363              		.cfi_endproc
 364              	.LFE48:
 366              		.section	.text.lv_img_buf_get_px_alpha,"ax",%progbits
 367              		.align	1
 368              		.global	lv_img_buf_get_px_alpha
 369              		.syntax unified
 370              		.thumb
 371              		.thumb_func
 372              		.fpu fpv4-sp-d16
 374              	lv_img_buf_get_px_alpha:
 375              	.LVL43:
 376              	.LFB49:
 109:Middlewares/lvgl/src/draw/lv_img_buf.c **** 
 110:Middlewares/lvgl/src/draw/lv_img_buf.c **** /**
 111:Middlewares/lvgl/src/draw/lv_img_buf.c ****  * Get the alpha value of an image's pixel
 112:Middlewares/lvgl/src/draw/lv_img_buf.c ****  * @param dsc pointer to an image descriptor
 113:Middlewares/lvgl/src/draw/lv_img_buf.c ****  * @param x x coordinate of the point to set
 114:Middlewares/lvgl/src/draw/lv_img_buf.c ****  * @param y x coordinate of the point to set
 115:Middlewares/lvgl/src/draw/lv_img_buf.c ****  * @param safe true: check out of bounds
 116:Middlewares/lvgl/src/draw/lv_img_buf.c ****  * @return alpha value of the point
 117:Middlewares/lvgl/src/draw/lv_img_buf.c ****  */
 118:Middlewares/lvgl/src/draw/lv_img_buf.c **** lv_opa_t lv_img_buf_get_px_alpha(lv_img_dsc_t * dsc, lv_coord_t x, lv_coord_t y)
 119:Middlewares/lvgl/src/draw/lv_img_buf.c **** {
 377              		.loc 1 119 1 is_stmt 1 view -0
 378              		.cfi_startproc
 379              		@ args = 0, pretend = 0, frame = 16
 380              		@ frame_needed = 0, uses_anonymous_args = 0
 381              		.loc 1 119 1 is_stmt 0 view .LVU131
 382 0000 70B5     		push	{r4, r5, r6, lr}
 383              	.LCFI4:
 384              		.cfi_def_cfa_offset 16
 385              		.cfi_offset 4, -16
 386              		.cfi_offset 5, -12
 387              		.cfi_offset 6, -8
 388              		.cfi_offset 14, -4
 389 0002 84B0     		sub	sp, sp, #16
 390              	.LCFI5:
 391              		.cfi_def_cfa_offset 32
 392 0004 8446     		mov	ip, r0
ARM GAS  /tmp/ccTdGo64.s 			page 27


 393 0006 8E46     		mov	lr, r1
 394 0008 1546     		mov	r5, r2
 120:Middlewares/lvgl/src/draw/lv_img_buf.c ****     uint8_t * buf_u8 = (uint8_t *)dsc->data;
 395              		.loc 1 120 5 is_stmt 1 view .LVU132
 396              		.loc 1 120 15 is_stmt 0 view .LVU133
 397 000a 8468     		ldr	r4, [r0, #8]
 398              	.LVL44:
 121:Middlewares/lvgl/src/draw/lv_img_buf.c **** 
 122:Middlewares/lvgl/src/draw/lv_img_buf.c ****     if(dsc->header.cf == LV_IMG_CF_TRUE_COLOR_ALPHA) {
 399              		.loc 1 122 5 is_stmt 1 view .LVU134
 400              		.loc 1 122 23 is_stmt 0 view .LVU135
 401 000c 0378     		ldrb	r3, [r0]	@ zero_extendqisi2
 402 000e 03F01F03 		and	r3, r3, #31
 403              		.loc 1 122 7 view .LVU136
 404 0012 052B     		cmp	r3, #5
 405 0014 0AD0     		beq	.L26
 123:Middlewares/lvgl/src/draw/lv_img_buf.c ****         uint32_t px = dsc->header.w * y * LV_IMG_PX_SIZE_ALPHA_BYTE + x * LV_IMG_PX_SIZE_ALPHA_BYTE
 124:Middlewares/lvgl/src/draw/lv_img_buf.c ****         return buf_u8[px + LV_IMG_PX_SIZE_ALPHA_BYTE - 1];
 125:Middlewares/lvgl/src/draw/lv_img_buf.c ****     }
 126:Middlewares/lvgl/src/draw/lv_img_buf.c ****     else if(dsc->header.cf == LV_IMG_CF_ALPHA_1BIT) {
 406              		.loc 1 126 10 is_stmt 1 view .LVU137
 407              		.loc 1 126 12 is_stmt 0 view .LVU138
 408 0016 0B2B     		cmp	r3, #11
 409 0018 12D0     		beq	.L27
 127:Middlewares/lvgl/src/draw/lv_img_buf.c ****         uint8_t bit = x & 0x7;
 128:Middlewares/lvgl/src/draw/lv_img_buf.c ****         x           = x >> 3;
 129:Middlewares/lvgl/src/draw/lv_img_buf.c **** 
 130:Middlewares/lvgl/src/draw/lv_img_buf.c ****         /*Get the current pixel.
 131:Middlewares/lvgl/src/draw/lv_img_buf.c ****          *dsc->header.w + 7 means rounding up to 8 because the lines are byte aligned
 132:Middlewares/lvgl/src/draw/lv_img_buf.c ****          *so the possible real width are 8 ,16, 24 ...*/
 133:Middlewares/lvgl/src/draw/lv_img_buf.c ****         uint32_t px    = ((dsc->header.w + 7) >> 3) * y + x;
 134:Middlewares/lvgl/src/draw/lv_img_buf.c ****         uint8_t px_opa = (buf_u8[px] & (1 << (7 - bit))) >> (7 - bit);
 135:Middlewares/lvgl/src/draw/lv_img_buf.c ****         return px_opa ? LV_OPA_TRANSP : LV_OPA_COVER;
 136:Middlewares/lvgl/src/draw/lv_img_buf.c ****     }
 137:Middlewares/lvgl/src/draw/lv_img_buf.c ****     else if(dsc->header.cf == LV_IMG_CF_ALPHA_2BIT) {
 410              		.loc 1 137 10 is_stmt 1 view .LVU139
 411              		.loc 1 137 12 is_stmt 0 view .LVU140
 412 001a 0C2B     		cmp	r3, #12
 413 001c 29D0     		beq	.L28
 138:Middlewares/lvgl/src/draw/lv_img_buf.c ****         const uint8_t opa_table[4] = {0, 85, 170, 255}; /*Opacity mapping with bpp = 2*/
 139:Middlewares/lvgl/src/draw/lv_img_buf.c **** 
 140:Middlewares/lvgl/src/draw/lv_img_buf.c ****         uint8_t bit = (x & 0x3) * 2;
 141:Middlewares/lvgl/src/draw/lv_img_buf.c ****         x           = x >> 2;
 142:Middlewares/lvgl/src/draw/lv_img_buf.c **** 
 143:Middlewares/lvgl/src/draw/lv_img_buf.c ****         /*Get the current pixel.
 144:Middlewares/lvgl/src/draw/lv_img_buf.c ****          *dsc->header.w + 4 means rounding up to 8 because the lines are byte aligned
 145:Middlewares/lvgl/src/draw/lv_img_buf.c ****          *so the possible real width are 4 ,8, 12 ...*/
 146:Middlewares/lvgl/src/draw/lv_img_buf.c ****         uint32_t px    = ((dsc->header.w + 3) >> 2) * y + x;
 147:Middlewares/lvgl/src/draw/lv_img_buf.c ****         uint8_t px_opa = (buf_u8[px] & (3 << (6 - bit))) >> (6 - bit);
 148:Middlewares/lvgl/src/draw/lv_img_buf.c ****         return opa_table[px_opa];
 149:Middlewares/lvgl/src/draw/lv_img_buf.c ****     }
 150:Middlewares/lvgl/src/draw/lv_img_buf.c ****     else if(dsc->header.cf == LV_IMG_CF_ALPHA_4BIT) {
 414              		.loc 1 150 10 is_stmt 1 view .LVU141
 415              		.loc 1 150 12 is_stmt 0 view .LVU142
 416 001e 0D2B     		cmp	r3, #13
 417 0020 42D0     		beq	.L29
 151:Middlewares/lvgl/src/draw/lv_img_buf.c ****         const uint8_t opa_table[16] = {0,  17, 34,  51, /*Opacity mapping with bpp = 4*/
ARM GAS  /tmp/ccTdGo64.s 			page 28


 152:Middlewares/lvgl/src/draw/lv_img_buf.c ****                                        68, 85, 102, 119, 136, 153, 170, 187, 204, 221, 238, 255
 153:Middlewares/lvgl/src/draw/lv_img_buf.c ****                                       };
 154:Middlewares/lvgl/src/draw/lv_img_buf.c **** 
 155:Middlewares/lvgl/src/draw/lv_img_buf.c ****         uint8_t bit = (x & 0x1) * 4;
 156:Middlewares/lvgl/src/draw/lv_img_buf.c ****         x           = x >> 1;
 157:Middlewares/lvgl/src/draw/lv_img_buf.c **** 
 158:Middlewares/lvgl/src/draw/lv_img_buf.c ****         /*Get the current pixel.
 159:Middlewares/lvgl/src/draw/lv_img_buf.c ****          *dsc->header.w + 1 means rounding up to 8 because the lines are byte aligned
 160:Middlewares/lvgl/src/draw/lv_img_buf.c ****          *so the possible real width are 2 ,4, 6 ...*/
 161:Middlewares/lvgl/src/draw/lv_img_buf.c ****         uint32_t px    = ((dsc->header.w + 1) >> 1) * y + x;
 162:Middlewares/lvgl/src/draw/lv_img_buf.c ****         uint8_t px_opa = (buf_u8[px] & (0xF << (4 - bit))) >> (4 - bit);
 163:Middlewares/lvgl/src/draw/lv_img_buf.c ****         return opa_table[px_opa];
 164:Middlewares/lvgl/src/draw/lv_img_buf.c ****     }
 165:Middlewares/lvgl/src/draw/lv_img_buf.c ****     else if(dsc->header.cf == LV_IMG_CF_ALPHA_8BIT) {
 418              		.loc 1 165 10 is_stmt 1 view .LVU143
 419              		.loc 1 165 12 is_stmt 0 view .LVU144
 420 0022 0E2B     		cmp	r3, #14
 421 0024 5ED0     		beq	.L30
 166:Middlewares/lvgl/src/draw/lv_img_buf.c ****         uint32_t px = dsc->header.w * y + x;
 167:Middlewares/lvgl/src/draw/lv_img_buf.c ****         return buf_u8[px];
 168:Middlewares/lvgl/src/draw/lv_img_buf.c ****     }
 169:Middlewares/lvgl/src/draw/lv_img_buf.c **** 
 170:Middlewares/lvgl/src/draw/lv_img_buf.c ****     return LV_OPA_COVER;
 422              		.loc 1 170 12 view .LVU145
 423 0026 FF20     		movs	r0, #255
 424              	.LVL45:
 425              	.L18:
 171:Middlewares/lvgl/src/draw/lv_img_buf.c **** }
 426              		.loc 1 171 1 discriminator 1 view .LVU146
 427 0028 04B0     		add	sp, sp, #16
 428              	.LCFI6:
 429              		.cfi_remember_state
 430              		.cfi_def_cfa_offset 16
 431              		@ sp needed
 432 002a 70BD     		pop	{r4, r5, r6, pc}
 433              	.LVL46:
 434              	.L26:
 435              	.LCFI7:
 436              		.cfi_restore_state
 437              	.LBB56:
 123:Middlewares/lvgl/src/draw/lv_img_buf.c ****         return buf_u8[px + LV_IMG_PX_SIZE_ALPHA_BYTE - 1];
 438              		.loc 1 123 9 is_stmt 1 view .LVU147
 123:Middlewares/lvgl/src/draw/lv_img_buf.c ****         return buf_u8[px + LV_IMG_PX_SIZE_ALPHA_BYTE - 1];
 439              		.loc 1 123 34 is_stmt 0 view .LVU148
 440 002c 0368     		ldr	r3, [r0]
 441 002e C3F38A23 		ubfx	r3, r3, #10, #11
 123:Middlewares/lvgl/src/draw/lv_img_buf.c ****         return buf_u8[px + LV_IMG_PX_SIZE_ALPHA_BYTE - 1];
 442              		.loc 1 123 69 view .LVU149
 443 0032 03FB0212 		mla	r2, r3, r2, r1
 444              	.LVL47:
 123:Middlewares/lvgl/src/draw/lv_img_buf.c ****         return buf_u8[px + LV_IMG_PX_SIZE_ALPHA_BYTE - 1];
 445              		.loc 1 123 69 view .LVU150
 446 0036 02EB4202 		add	r2, r2, r2, lsl #1
 447              	.LVL48:
 124:Middlewares/lvgl/src/draw/lv_img_buf.c ****     }
 448              		.loc 1 124 9 is_stmt 1 view .LVU151
 124:Middlewares/lvgl/src/draw/lv_img_buf.c ****     }
ARM GAS  /tmp/ccTdGo64.s 			page 29


 449              		.loc 1 124 22 is_stmt 0 view .LVU152
 450 003a 2244     		add	r2, r2, r4
 451              	.LVL49:
 124:Middlewares/lvgl/src/draw/lv_img_buf.c ****     }
 452              		.loc 1 124 22 view .LVU153
 453 003c 9078     		ldrb	r0, [r2, #2]	@ zero_extendqisi2
 454              	.LVL50:
 124:Middlewares/lvgl/src/draw/lv_img_buf.c ****     }
 455              		.loc 1 124 22 view .LVU154
 456 003e F3E7     		b	.L18
 457              	.LVL51:
 458              	.L27:
 124:Middlewares/lvgl/src/draw/lv_img_buf.c ****     }
 459              		.loc 1 124 22 view .LVU155
 460              	.LBE56:
 461              	.LBB57:
 127:Middlewares/lvgl/src/draw/lv_img_buf.c ****         x           = x >> 3;
 462              		.loc 1 127 9 is_stmt 1 view .LVU156
 127:Middlewares/lvgl/src/draw/lv_img_buf.c ****         x           = x >> 3;
 463              		.loc 1 127 17 is_stmt 0 view .LVU157
 464 0040 01F00701 		and	r1, r1, #7
 465              	.LVL52:
 128:Middlewares/lvgl/src/draw/lv_img_buf.c **** 
 466              		.loc 1 128 9 is_stmt 1 view .LVU158
 133:Middlewares/lvgl/src/draw/lv_img_buf.c ****         uint8_t px_opa = (buf_u8[px] & (1 << (7 - bit))) >> (7 - bit);
 467              		.loc 1 133 9 view .LVU159
 133:Middlewares/lvgl/src/draw/lv_img_buf.c ****         uint8_t px_opa = (buf_u8[px] & (1 << (7 - bit))) >> (7 - bit);
 468              		.loc 1 133 39 is_stmt 0 view .LVU160
 469 0044 0268     		ldr	r2, [r0]
 470              	.LVL53:
 133:Middlewares/lvgl/src/draw/lv_img_buf.c ****         uint8_t px_opa = (buf_u8[px] & (1 << (7 - bit))) >> (7 - bit);
 471              		.loc 1 133 39 view .LVU161
 472 0046 C2F38A22 		ubfx	r2, r2, #10, #11
 133:Middlewares/lvgl/src/draw/lv_img_buf.c ****         uint8_t px_opa = (buf_u8[px] & (1 << (7 - bit))) >> (7 - bit);
 473              		.loc 1 133 42 view .LVU162
 474 004a 0732     		adds	r2, r2, #7
 133:Middlewares/lvgl/src/draw/lv_img_buf.c ****         uint8_t px_opa = (buf_u8[px] & (1 << (7 - bit))) >> (7 - bit);
 475              		.loc 1 133 47 view .LVU163
 476 004c D210     		asrs	r2, r2, #3
 133:Middlewares/lvgl/src/draw/lv_img_buf.c ****         uint8_t px_opa = (buf_u8[px] & (1 << (7 - bit))) >> (7 - bit);
 477              		.loc 1 133 53 view .LVU164
 478 004e 05FB02F2 		mul	r2, r5, r2
 133:Middlewares/lvgl/src/draw/lv_img_buf.c ****         uint8_t px_opa = (buf_u8[px] & (1 << (7 - bit))) >> (7 - bit);
 479              		.loc 1 133 57 view .LVU165
 480 0052 02EBEE02 		add	r2, r2, lr, asr #3
 481              	.LVL54:
 134:Middlewares/lvgl/src/draw/lv_img_buf.c ****         return px_opa ? LV_OPA_TRANSP : LV_OPA_COVER;
 482              		.loc 1 134 9 is_stmt 1 view .LVU166
 134:Middlewares/lvgl/src/draw/lv_img_buf.c ****         return px_opa ? LV_OPA_TRANSP : LV_OPA_COVER;
 483              		.loc 1 134 33 is_stmt 0 view .LVU167
 484 0056 A35C     		ldrb	r3, [r4, r2]	@ zero_extendqisi2
 134:Middlewares/lvgl/src/draw/lv_img_buf.c ****         return px_opa ? LV_OPA_TRANSP : LV_OPA_COVER;
 485              		.loc 1 134 49 view .LVU168
 486 0058 C1F10702 		rsb	r2, r1, #7
 487              	.LVL55:
 134:Middlewares/lvgl/src/draw/lv_img_buf.c ****         return px_opa ? LV_OPA_TRANSP : LV_OPA_COVER;
 488              		.loc 1 134 43 view .LVU169
ARM GAS  /tmp/ccTdGo64.s 			page 30


 489 005c 0121     		movs	r1, #1
 490              	.LVL56:
 134:Middlewares/lvgl/src/draw/lv_img_buf.c ****         return px_opa ? LV_OPA_TRANSP : LV_OPA_COVER;
 491              		.loc 1 134 43 view .LVU170
 492 005e 9140     		lsls	r1, r1, r2
 134:Middlewares/lvgl/src/draw/lv_img_buf.c ****         return px_opa ? LV_OPA_TRANSP : LV_OPA_COVER;
 493              		.loc 1 134 38 view .LVU171
 494 0060 0B40     		ands	r3, r3, r1
 134:Middlewares/lvgl/src/draw/lv_img_buf.c ****         return px_opa ? LV_OPA_TRANSP : LV_OPA_COVER;
 495              		.loc 1 134 58 view .LVU172
 496 0062 1341     		asrs	r3, r3, r2
 497              	.LVL57:
 135:Middlewares/lvgl/src/draw/lv_img_buf.c ****     }
 498              		.loc 1 135 9 is_stmt 1 view .LVU173
 135:Middlewares/lvgl/src/draw/lv_img_buf.c ****     }
 499              		.loc 1 135 39 is_stmt 0 view .LVU174
 500 0064 13F0FF0F 		tst	r3, #255
 501 0068 01D0     		beq	.L23
 502 006a 0020     		movs	r0, #0
 503              	.LVL58:
 135:Middlewares/lvgl/src/draw/lv_img_buf.c ****     }
 504              		.loc 1 135 39 view .LVU175
 505 006c DCE7     		b	.L18
 506              	.LVL59:
 507              	.L23:
 135:Middlewares/lvgl/src/draw/lv_img_buf.c ****     }
 508              		.loc 1 135 39 view .LVU176
 509 006e FF20     		movs	r0, #255
 510              	.LVL60:
 135:Middlewares/lvgl/src/draw/lv_img_buf.c ****     }
 511              		.loc 1 135 39 view .LVU177
 512 0070 DAE7     		b	.L18
 513              	.LVL61:
 514              	.L28:
 135:Middlewares/lvgl/src/draw/lv_img_buf.c ****     }
 515              		.loc 1 135 39 view .LVU178
 516              	.LBE57:
 517              	.LBB58:
 138:Middlewares/lvgl/src/draw/lv_img_buf.c **** 
 518              		.loc 1 138 9 is_stmt 1 view .LVU179
 138:Middlewares/lvgl/src/draw/lv_img_buf.c **** 
 519              		.loc 1 138 23 is_stmt 0 view .LVU180
 520 0072 204B     		ldr	r3, .L31
 521 0074 0093     		str	r3, [sp]
 140:Middlewares/lvgl/src/draw/lv_img_buf.c ****         x           = x >> 2;
 522              		.loc 1 140 9 is_stmt 1 view .LVU181
 140:Middlewares/lvgl/src/draw/lv_img_buf.c ****         x           = x >> 2;
 523              		.loc 1 140 17 is_stmt 0 view .LVU182
 524 0076 01F00302 		and	r2, r1, #3
 525              	.LVL62:
 140:Middlewares/lvgl/src/draw/lv_img_buf.c ****         x           = x >> 2;
 526              		.loc 1 140 17 view .LVU183
 527 007a 5100     		lsls	r1, r2, #1
 528              	.LVL63:
 141:Middlewares/lvgl/src/draw/lv_img_buf.c **** 
 529              		.loc 1 141 9 is_stmt 1 view .LVU184
 146:Middlewares/lvgl/src/draw/lv_img_buf.c ****         uint8_t px_opa = (buf_u8[px] & (3 << (6 - bit))) >> (6 - bit);
ARM GAS  /tmp/ccTdGo64.s 			page 31


 530              		.loc 1 146 9 view .LVU185
 146:Middlewares/lvgl/src/draw/lv_img_buf.c ****         uint8_t px_opa = (buf_u8[px] & (3 << (6 - bit))) >> (6 - bit);
 531              		.loc 1 146 39 is_stmt 0 view .LVU186
 532 007c 0268     		ldr	r2, [r0]
 533 007e C2F38A22 		ubfx	r2, r2, #10, #11
 146:Middlewares/lvgl/src/draw/lv_img_buf.c ****         uint8_t px_opa = (buf_u8[px] & (3 << (6 - bit))) >> (6 - bit);
 534              		.loc 1 146 42 view .LVU187
 535 0082 0332     		adds	r2, r2, #3
 146:Middlewares/lvgl/src/draw/lv_img_buf.c ****         uint8_t px_opa = (buf_u8[px] & (3 << (6 - bit))) >> (6 - bit);
 536              		.loc 1 146 47 view .LVU188
 537 0084 9210     		asrs	r2, r2, #2
 146:Middlewares/lvgl/src/draw/lv_img_buf.c ****         uint8_t px_opa = (buf_u8[px] & (3 << (6 - bit))) >> (6 - bit);
 538              		.loc 1 146 53 view .LVU189
 539 0086 05FB02F2 		mul	r2, r5, r2
 146:Middlewares/lvgl/src/draw/lv_img_buf.c ****         uint8_t px_opa = (buf_u8[px] & (3 << (6 - bit))) >> (6 - bit);
 540              		.loc 1 146 57 view .LVU190
 541 008a 02EBAE02 		add	r2, r2, lr, asr #2
 542              	.LVL64:
 147:Middlewares/lvgl/src/draw/lv_img_buf.c ****         return opa_table[px_opa];
 543              		.loc 1 147 9 is_stmt 1 view .LVU191
 147:Middlewares/lvgl/src/draw/lv_img_buf.c ****         return opa_table[px_opa];
 544              		.loc 1 147 33 is_stmt 0 view .LVU192
 545 008e A35C     		ldrb	r3, [r4, r2]	@ zero_extendqisi2
 147:Middlewares/lvgl/src/draw/lv_img_buf.c ****         return opa_table[px_opa];
 546              		.loc 1 147 49 view .LVU193
 547 0090 C1F10602 		rsb	r2, r1, #6
 548              	.LVL65:
 147:Middlewares/lvgl/src/draw/lv_img_buf.c ****         return opa_table[px_opa];
 549              		.loc 1 147 43 view .LVU194
 550 0094 0321     		movs	r1, #3
 551              	.LVL66:
 147:Middlewares/lvgl/src/draw/lv_img_buf.c ****         return opa_table[px_opa];
 552              		.loc 1 147 43 view .LVU195
 553 0096 9140     		lsls	r1, r1, r2
 147:Middlewares/lvgl/src/draw/lv_img_buf.c ****         return opa_table[px_opa];
 554              		.loc 1 147 38 view .LVU196
 555 0098 0B40     		ands	r3, r3, r1
 147:Middlewares/lvgl/src/draw/lv_img_buf.c ****         return opa_table[px_opa];
 556              		.loc 1 147 58 view .LVU197
 557 009a 1341     		asrs	r3, r3, r2
 558              	.LVL67:
 148:Middlewares/lvgl/src/draw/lv_img_buf.c ****     }
 559              		.loc 1 148 9 is_stmt 1 view .LVU198
 148:Middlewares/lvgl/src/draw/lv_img_buf.c ****     }
 560              		.loc 1 148 25 is_stmt 0 view .LVU199
 561 009c 04AA     		add	r2, sp, #16
 562 009e 52FA83F3 		uxtab	r3, r2, r3
 563              	.LVL68:
 148:Middlewares/lvgl/src/draw/lv_img_buf.c ****     }
 564              		.loc 1 148 25 view .LVU200
 565 00a2 13F8100C 		ldrb	r0, [r3, #-16]	@ zero_extendqisi2
 566              	.LVL69:
 148:Middlewares/lvgl/src/draw/lv_img_buf.c ****     }
 567              		.loc 1 148 25 view .LVU201
 568 00a6 BFE7     		b	.L18
 569              	.LVL70:
 570              	.L29:
ARM GAS  /tmp/ccTdGo64.s 			page 32


 148:Middlewares/lvgl/src/draw/lv_img_buf.c ****     }
 571              		.loc 1 148 25 view .LVU202
 572              	.LBE58:
 573              	.LBB59:
 151:Middlewares/lvgl/src/draw/lv_img_buf.c ****                                        68, 85, 102, 119, 136, 153, 170, 187, 204, 221, 238, 255
 574              		.loc 1 151 9 is_stmt 1 view .LVU203
 151:Middlewares/lvgl/src/draw/lv_img_buf.c ****                                        68, 85, 102, 119, 136, 153, 170, 187, 204, 221, 238, 255
 575              		.loc 1 151 23 is_stmt 0 view .LVU204
 576 00a8 134B     		ldr	r3, .L31+4
 577 00aa 0FCB     		ldm	r3, {r0, r1, r2, r3}
 578              	.LVL71:
 151:Middlewares/lvgl/src/draw/lv_img_buf.c ****                                        68, 85, 102, 119, 136, 153, 170, 187, 204, 221, 238, 255
 579              		.loc 1 151 23 view .LVU205
 580 00ac 04AE     		add	r6, sp, #16
 581 00ae 06E90F00 		stmdb	r6, {r0, r1, r2, r3}
 155:Middlewares/lvgl/src/draw/lv_img_buf.c ****         x           = x >> 1;
 582              		.loc 1 155 9 is_stmt 1 view .LVU206
 155:Middlewares/lvgl/src/draw/lv_img_buf.c ****         x           = x >> 1;
 583              		.loc 1 155 17 is_stmt 0 view .LVU207
 584 00b2 0EF00102 		and	r2, lr, #1
 585 00b6 9100     		lsls	r1, r2, #2
 586              	.LVL72:
 156:Middlewares/lvgl/src/draw/lv_img_buf.c **** 
 587              		.loc 1 156 9 is_stmt 1 view .LVU208
 161:Middlewares/lvgl/src/draw/lv_img_buf.c ****         uint8_t px_opa = (buf_u8[px] & (0xF << (4 - bit))) >> (4 - bit);
 588              		.loc 1 161 9 view .LVU209
 161:Middlewares/lvgl/src/draw/lv_img_buf.c ****         uint8_t px_opa = (buf_u8[px] & (0xF << (4 - bit))) >> (4 - bit);
 589              		.loc 1 161 39 is_stmt 0 view .LVU210
 590 00b8 DCF80020 		ldr	r2, [ip]
 591 00bc C2F38A22 		ubfx	r2, r2, #10, #11
 161:Middlewares/lvgl/src/draw/lv_img_buf.c ****         uint8_t px_opa = (buf_u8[px] & (0xF << (4 - bit))) >> (4 - bit);
 592              		.loc 1 161 42 view .LVU211
 593 00c0 0132     		adds	r2, r2, #1
 161:Middlewares/lvgl/src/draw/lv_img_buf.c ****         uint8_t px_opa = (buf_u8[px] & (0xF << (4 - bit))) >> (4 - bit);
 594              		.loc 1 161 47 view .LVU212
 595 00c2 5210     		asrs	r2, r2, #1
 161:Middlewares/lvgl/src/draw/lv_img_buf.c ****         uint8_t px_opa = (buf_u8[px] & (0xF << (4 - bit))) >> (4 - bit);
 596              		.loc 1 161 53 view .LVU213
 597 00c4 05FB02F2 		mul	r2, r5, r2
 161:Middlewares/lvgl/src/draw/lv_img_buf.c ****         uint8_t px_opa = (buf_u8[px] & (0xF << (4 - bit))) >> (4 - bit);
 598              		.loc 1 161 57 view .LVU214
 599 00c8 02EB6E02 		add	r2, r2, lr, asr #1
 600              	.LVL73:
 162:Middlewares/lvgl/src/draw/lv_img_buf.c ****         return opa_table[px_opa];
 601              		.loc 1 162 9 is_stmt 1 view .LVU215
 162:Middlewares/lvgl/src/draw/lv_img_buf.c ****         return opa_table[px_opa];
 602              		.loc 1 162 33 is_stmt 0 view .LVU216
 603 00cc A35C     		ldrb	r3, [r4, r2]	@ zero_extendqisi2
 162:Middlewares/lvgl/src/draw/lv_img_buf.c ****         return opa_table[px_opa];
 604              		.loc 1 162 51 view .LVU217
 605 00ce C1F10402 		rsb	r2, r1, #4
 606              	.LVL74:
 162:Middlewares/lvgl/src/draw/lv_img_buf.c ****         return opa_table[px_opa];
 607              		.loc 1 162 45 view .LVU218
 608 00d2 0F21     		movs	r1, #15
 609              	.LVL75:
 162:Middlewares/lvgl/src/draw/lv_img_buf.c ****         return opa_table[px_opa];
ARM GAS  /tmp/ccTdGo64.s 			page 33


 610              		.loc 1 162 45 view .LVU219
 611 00d4 9140     		lsls	r1, r1, r2
 162:Middlewares/lvgl/src/draw/lv_img_buf.c ****         return opa_table[px_opa];
 612              		.loc 1 162 38 view .LVU220
 613 00d6 0B40     		ands	r3, r3, r1
 162:Middlewares/lvgl/src/draw/lv_img_buf.c ****         return opa_table[px_opa];
 614              		.loc 1 162 60 view .LVU221
 615 00d8 1341     		asrs	r3, r3, r2
 616              	.LVL76:
 163:Middlewares/lvgl/src/draw/lv_img_buf.c ****     }
 617              		.loc 1 163 9 is_stmt 1 view .LVU222
 163:Middlewares/lvgl/src/draw/lv_img_buf.c ****     }
 618              		.loc 1 163 25 is_stmt 0 view .LVU223
 619 00da 56FA83F3 		uxtab	r3, r6, r3
 620              	.LVL77:
 163:Middlewares/lvgl/src/draw/lv_img_buf.c ****     }
 621              		.loc 1 163 25 view .LVU224
 622 00de 13F8100C 		ldrb	r0, [r3, #-16]	@ zero_extendqisi2
 623 00e2 A1E7     		b	.L18
 624              	.LVL78:
 625              	.L30:
 163:Middlewares/lvgl/src/draw/lv_img_buf.c ****     }
 626              		.loc 1 163 25 view .LVU225
 627              	.LBE59:
 628              	.LBB60:
 166:Middlewares/lvgl/src/draw/lv_img_buf.c ****         return buf_u8[px];
 629              		.loc 1 166 9 is_stmt 1 view .LVU226
 166:Middlewares/lvgl/src/draw/lv_img_buf.c ****         return buf_u8[px];
 630              		.loc 1 166 34 is_stmt 0 view .LVU227
 631 00e4 0268     		ldr	r2, [r0]
 632              	.LVL79:
 166:Middlewares/lvgl/src/draw/lv_img_buf.c ****         return buf_u8[px];
 633              		.loc 1 166 34 view .LVU228
 634 00e6 C2F38A22 		ubfx	r2, r2, #10, #11
 166:Middlewares/lvgl/src/draw/lv_img_buf.c ****         return buf_u8[px];
 635              		.loc 1 166 41 view .LVU229
 636 00ea 02FB0512 		mla	r2, r2, r5, r1
 637              	.LVL80:
 167:Middlewares/lvgl/src/draw/lv_img_buf.c ****     }
 638              		.loc 1 167 9 is_stmt 1 view .LVU230
 167:Middlewares/lvgl/src/draw/lv_img_buf.c ****     }
 639              		.loc 1 167 22 is_stmt 0 view .LVU231
 640 00ee A05C     		ldrb	r0, [r4, r2]	@ zero_extendqisi2
 641              	.LVL81:
 167:Middlewares/lvgl/src/draw/lv_img_buf.c ****     }
 642              		.loc 1 167 22 view .LVU232
 643 00f0 9AE7     		b	.L18
 644              	.L32:
 645 00f2 00BF     		.align	2
 646              	.L31:
 647 00f4 0055AAFF 		.word	-5614336
 648 00f8 00000000 		.word	.LANCHOR0
 649              	.LBE60:
 650              		.cfi_endproc
 651              	.LFE49:
 653              		.section	.text.lv_img_buf_set_px_alpha,"ax",%progbits
 654              		.align	1
ARM GAS  /tmp/ccTdGo64.s 			page 34


 655              		.global	lv_img_buf_set_px_alpha
 656              		.syntax unified
 657              		.thumb
 658              		.thumb_func
 659              		.fpu fpv4-sp-d16
 661              	lv_img_buf_set_px_alpha:
 662              	.LVL82:
 663              	.LFB50:
 172:Middlewares/lvgl/src/draw/lv_img_buf.c **** 
 173:Middlewares/lvgl/src/draw/lv_img_buf.c **** /**
 174:Middlewares/lvgl/src/draw/lv_img_buf.c ****  * Set the alpha value of a pixel of an image. The color won't be affected
 175:Middlewares/lvgl/src/draw/lv_img_buf.c ****  * @param dsc pointer to an image descriptor
 176:Middlewares/lvgl/src/draw/lv_img_buf.c ****  * @param x x coordinate of the point to set
 177:Middlewares/lvgl/src/draw/lv_img_buf.c ****  * @param y x coordinate of the point to set
 178:Middlewares/lvgl/src/draw/lv_img_buf.c ****  * @param opa the desired opacity
 179:Middlewares/lvgl/src/draw/lv_img_buf.c ****  * @param safe true: check out of bounds
 180:Middlewares/lvgl/src/draw/lv_img_buf.c ****  */
 181:Middlewares/lvgl/src/draw/lv_img_buf.c **** void lv_img_buf_set_px_alpha(lv_img_dsc_t * dsc, lv_coord_t x, lv_coord_t y, lv_opa_t opa)
 182:Middlewares/lvgl/src/draw/lv_img_buf.c **** {
 664              		.loc 1 182 1 is_stmt 1 view -0
 665              		.cfi_startproc
 666              		@ args = 0, pretend = 0, frame = 0
 667              		@ frame_needed = 0, uses_anonymous_args = 0
 668              		.loc 1 182 1 is_stmt 0 view .LVU234
 669 0000 2DE9F041 		push	{r4, r5, r6, r7, r8, lr}
 670              	.LCFI8:
 671              		.cfi_def_cfa_offset 24
 672              		.cfi_offset 4, -24
 673              		.cfi_offset 5, -20
 674              		.cfi_offset 6, -16
 675              		.cfi_offset 7, -12
 676              		.cfi_offset 8, -8
 677              		.cfi_offset 14, -4
 678 0004 0546     		mov	r5, r0
 679 0006 0E46     		mov	r6, r1
 680 0008 1746     		mov	r7, r2
 681 000a 1C46     		mov	r4, r3
 183:Middlewares/lvgl/src/draw/lv_img_buf.c ****     uint8_t * buf_u8 = (uint8_t *)dsc->data;
 682              		.loc 1 183 5 is_stmt 1 view .LVU235
 683              		.loc 1 183 15 is_stmt 0 view .LVU236
 684 000c D0F80880 		ldr	r8, [r0, #8]
 685              	.LVL83:
 184:Middlewares/lvgl/src/draw/lv_img_buf.c **** 
 185:Middlewares/lvgl/src/draw/lv_img_buf.c ****     if(dsc->header.cf == LV_IMG_CF_TRUE_COLOR_ALPHA) {
 686              		.loc 1 185 5 is_stmt 1 view .LVU237
 687              		.loc 1 185 23 is_stmt 0 view .LVU238
 688 0010 0378     		ldrb	r3, [r0]	@ zero_extendqisi2
 689              	.LVL84:
 690              		.loc 1 185 23 view .LVU239
 691 0012 03F01F03 		and	r3, r3, #31
 692              		.loc 1 185 7 view .LVU240
 693 0016 052B     		cmp	r3, #5
 694 0018 0FD0     		beq	.L40
 186:Middlewares/lvgl/src/draw/lv_img_buf.c ****         uint8_t px_size          = lv_img_cf_get_px_size(dsc->header.cf) >> 3;
 187:Middlewares/lvgl/src/draw/lv_img_buf.c ****         uint32_t px              = dsc->header.w * y * px_size + x * px_size;
 188:Middlewares/lvgl/src/draw/lv_img_buf.c ****         buf_u8[px + px_size - 1] = opa;
 189:Middlewares/lvgl/src/draw/lv_img_buf.c ****     }
ARM GAS  /tmp/ccTdGo64.s 			page 35


 190:Middlewares/lvgl/src/draw/lv_img_buf.c ****     else if(dsc->header.cf == LV_IMG_CF_ALPHA_1BIT) {
 695              		.loc 1 190 10 is_stmt 1 view .LVU241
 696              		.loc 1 190 12 is_stmt 0 view .LVU242
 697 001a 0B2B     		cmp	r3, #11
 698 001c 20D0     		beq	.L41
 191:Middlewares/lvgl/src/draw/lv_img_buf.c ****         opa         = opa >> 7; /*opa -> [0,1]*/
 192:Middlewares/lvgl/src/draw/lv_img_buf.c ****         uint8_t bit = x & 0x7;
 193:Middlewares/lvgl/src/draw/lv_img_buf.c ****         x           = x >> 3;
 194:Middlewares/lvgl/src/draw/lv_img_buf.c **** 
 195:Middlewares/lvgl/src/draw/lv_img_buf.c ****         /*Get the current pixel.
 196:Middlewares/lvgl/src/draw/lv_img_buf.c ****          *dsc->header.w + 7 means rounding up to 8 because the lines are byte aligned
 197:Middlewares/lvgl/src/draw/lv_img_buf.c ****          *so the possible real width are 8 ,16, 24 ...*/
 198:Middlewares/lvgl/src/draw/lv_img_buf.c ****         uint32_t px = ((dsc->header.w + 7) >> 3) * y + x;
 199:Middlewares/lvgl/src/draw/lv_img_buf.c ****         buf_u8[px]  = buf_u8[px] & ~(1 << (7 - bit));
 200:Middlewares/lvgl/src/draw/lv_img_buf.c ****         buf_u8[px]  = buf_u8[px] | ((opa & 0x1) << (7 - bit));
 201:Middlewares/lvgl/src/draw/lv_img_buf.c ****     }
 202:Middlewares/lvgl/src/draw/lv_img_buf.c ****     else if(dsc->header.cf == LV_IMG_CF_ALPHA_2BIT) {
 699              		.loc 1 202 10 is_stmt 1 view .LVU243
 700              		.loc 1 202 12 is_stmt 0 view .LVU244
 701 001e 0C2B     		cmp	r3, #12
 702 0020 3BD0     		beq	.L42
 203:Middlewares/lvgl/src/draw/lv_img_buf.c ****         opa         = opa >> 6; /*opa -> [0,3]*/
 204:Middlewares/lvgl/src/draw/lv_img_buf.c ****         uint8_t bit = (x & 0x3) * 2;
 205:Middlewares/lvgl/src/draw/lv_img_buf.c ****         x           = x >> 2;
 206:Middlewares/lvgl/src/draw/lv_img_buf.c **** 
 207:Middlewares/lvgl/src/draw/lv_img_buf.c ****         /*Get the current pixel.
 208:Middlewares/lvgl/src/draw/lv_img_buf.c ****          *dsc->header.w + 4 means rounding up to 8 because the lines are byte aligned
 209:Middlewares/lvgl/src/draw/lv_img_buf.c ****          *so the possible real width are 4 ,8, 12 ...*/
 210:Middlewares/lvgl/src/draw/lv_img_buf.c ****         uint32_t px = ((dsc->header.w + 3) >> 2) * y + x;
 211:Middlewares/lvgl/src/draw/lv_img_buf.c ****         buf_u8[px]  = buf_u8[px] & ~(3 << (6 - bit));
 212:Middlewares/lvgl/src/draw/lv_img_buf.c ****         buf_u8[px]  = buf_u8[px] | ((opa & 0x3) << (6 - bit));
 213:Middlewares/lvgl/src/draw/lv_img_buf.c ****     }
 214:Middlewares/lvgl/src/draw/lv_img_buf.c ****     else if(dsc->header.cf == LV_IMG_CF_ALPHA_4BIT) {
 703              		.loc 1 214 10 is_stmt 1 view .LVU245
 704              		.loc 1 214 12 is_stmt 0 view .LVU246
 705 0022 0D2B     		cmp	r3, #13
 706 0024 56D0     		beq	.L43
 215:Middlewares/lvgl/src/draw/lv_img_buf.c ****         opa         = opa >> 4; /*opa -> [0,15]*/
 216:Middlewares/lvgl/src/draw/lv_img_buf.c ****         uint8_t bit = (x & 0x1) * 4;
 217:Middlewares/lvgl/src/draw/lv_img_buf.c ****         x           = x >> 1;
 218:Middlewares/lvgl/src/draw/lv_img_buf.c **** 
 219:Middlewares/lvgl/src/draw/lv_img_buf.c ****         /*Get the current pixel.
 220:Middlewares/lvgl/src/draw/lv_img_buf.c ****          *dsc->header.w + 1 means rounding up to 8 because the lines are byte aligned
 221:Middlewares/lvgl/src/draw/lv_img_buf.c ****          *so the possible real width are 2 ,4, 6 ...*/
 222:Middlewares/lvgl/src/draw/lv_img_buf.c ****         uint32_t px = ((dsc->header.w + 1) >> 1) * y + x;
 223:Middlewares/lvgl/src/draw/lv_img_buf.c ****         buf_u8[px]  = buf_u8[px] & ~(0xF << (4 - bit));
 224:Middlewares/lvgl/src/draw/lv_img_buf.c ****         buf_u8[px]  = buf_u8[px] | ((opa & 0xF) << (4 - bit));
 225:Middlewares/lvgl/src/draw/lv_img_buf.c ****     }
 226:Middlewares/lvgl/src/draw/lv_img_buf.c ****     else if(dsc->header.cf == LV_IMG_CF_ALPHA_8BIT) {
 707              		.loc 1 226 10 is_stmt 1 view .LVU247
 708              		.loc 1 226 12 is_stmt 0 view .LVU248
 709 0026 0E2B     		cmp	r3, #14
 710 0028 35D1     		bne	.L33
 711              	.LBB61:
 227:Middlewares/lvgl/src/draw/lv_img_buf.c ****         uint32_t px = dsc->header.w * y + x;
 712              		.loc 1 227 9 is_stmt 1 view .LVU249
 713              		.loc 1 227 34 is_stmt 0 view .LVU250
ARM GAS  /tmp/ccTdGo64.s 			page 36


 714 002a 0268     		ldr	r2, [r0]
 715              	.LVL85:
 716              		.loc 1 227 34 view .LVU251
 717 002c C2F38A22 		ubfx	r2, r2, #10, #11
 718              		.loc 1 227 41 view .LVU252
 719 0030 02FB0716 		mla	r6, r2, r7, r1
 720              	.LVL86:
 228:Middlewares/lvgl/src/draw/lv_img_buf.c ****         buf_u8[px]  = opa;
 721              		.loc 1 228 9 is_stmt 1 view .LVU253
 722              		.loc 1 228 21 is_stmt 0 view .LVU254
 723 0034 08F80640 		strb	r4, [r8, r6]
 724              	.LBE61:
 229:Middlewares/lvgl/src/draw/lv_img_buf.c ****     }
 230:Middlewares/lvgl/src/draw/lv_img_buf.c **** }
 725              		.loc 1 230 1 view .LVU255
 726 0038 2DE0     		b	.L33
 727              	.LVL87:
 728              	.L40:
 729              	.LBB62:
 186:Middlewares/lvgl/src/draw/lv_img_buf.c ****         uint32_t px              = dsc->header.w * y * px_size + x * px_size;
 730              		.loc 1 186 9 is_stmt 1 view .LVU256
 186:Middlewares/lvgl/src/draw/lv_img_buf.c ****         uint32_t px              = dsc->header.w * y * px_size + x * px_size;
 731              		.loc 1 186 36 is_stmt 0 view .LVU257
 732 003a 1846     		mov	r0, r3
 733              	.LVL88:
 186:Middlewares/lvgl/src/draw/lv_img_buf.c ****         uint32_t px              = dsc->header.w * y * px_size + x * px_size;
 734              		.loc 1 186 36 view .LVU258
 735 003c FFF7FEFF 		bl	lv_img_cf_get_px_size
 736              	.LVL89:
 186:Middlewares/lvgl/src/draw/lv_img_buf.c ****         uint32_t px              = dsc->header.w * y * px_size + x * px_size;
 737              		.loc 1 186 17 view .LVU259
 738 0040 C0F3C700 		ubfx	r0, r0, #3, #8
 739              	.LVL90:
 187:Middlewares/lvgl/src/draw/lv_img_buf.c ****         buf_u8[px + px_size - 1] = opa;
 740              		.loc 1 187 9 is_stmt 1 view .LVU260
 187:Middlewares/lvgl/src/draw/lv_img_buf.c ****         buf_u8[px + px_size - 1] = opa;
 741              		.loc 1 187 47 is_stmt 0 view .LVU261
 742 0044 2A68     		ldr	r2, [r5]
 743 0046 C2F38A22 		ubfx	r2, r2, #10, #11
 187:Middlewares/lvgl/src/draw/lv_img_buf.c ****         buf_u8[px + px_size - 1] = opa;
 744              		.loc 1 187 50 view .LVU262
 745 004a 02FB07F7 		mul	r7, r2, r7
 187:Middlewares/lvgl/src/draw/lv_img_buf.c ****         buf_u8[px + px_size - 1] = opa;
 746              		.loc 1 187 68 view .LVU263
 747 004e 00FB06F6 		mul	r6, r0, r6
 187:Middlewares/lvgl/src/draw/lv_img_buf.c ****         buf_u8[px + px_size - 1] = opa;
 748              		.loc 1 187 64 view .LVU264
 749 0052 00FB0767 		mla	r7, r0, r7, r6
 750              	.LVL91:
 188:Middlewares/lvgl/src/draw/lv_img_buf.c ****     }
 751              		.loc 1 188 9 is_stmt 1 view .LVU265
 188:Middlewares/lvgl/src/draw/lv_img_buf.c ****     }
 752              		.loc 1 188 19 is_stmt 0 view .LVU266
 753 0056 3844     		add	r0, r0, r7
 754              	.LVL92:
 188:Middlewares/lvgl/src/draw/lv_img_buf.c ****     }
 755              		.loc 1 188 15 view .LVU267
ARM GAS  /tmp/ccTdGo64.s 			page 37


 756 0058 0138     		subs	r0, r0, #1
 188:Middlewares/lvgl/src/draw/lv_img_buf.c ****     }
 757              		.loc 1 188 34 view .LVU268
 758 005a 08F80040 		strb	r4, [r8, r0]
 759              	.LBE62:
 760 005e 1AE0     		b	.L33
 761              	.LVL93:
 762              	.L41:
 763              	.LBB63:
 191:Middlewares/lvgl/src/draw/lv_img_buf.c ****         uint8_t bit = x & 0x7;
 764              		.loc 1 191 9 is_stmt 1 view .LVU269
 191:Middlewares/lvgl/src/draw/lv_img_buf.c ****         uint8_t bit = x & 0x7;
 765              		.loc 1 191 21 is_stmt 0 view .LVU270
 766 0060 E409     		lsrs	r4, r4, #7
 767              	.LVL94:
 192:Middlewares/lvgl/src/draw/lv_img_buf.c ****         x           = x >> 3;
 768              		.loc 1 192 9 is_stmt 1 view .LVU271
 192:Middlewares/lvgl/src/draw/lv_img_buf.c ****         x           = x >> 3;
 769              		.loc 1 192 17 is_stmt 0 view .LVU272
 770 0062 01F00701 		and	r1, r1, #7
 771              	.LVL95:
 193:Middlewares/lvgl/src/draw/lv_img_buf.c **** 
 772              		.loc 1 193 9 is_stmt 1 view .LVU273
 198:Middlewares/lvgl/src/draw/lv_img_buf.c ****         buf_u8[px]  = buf_u8[px] & ~(1 << (7 - bit));
 773              		.loc 1 198 9 view .LVU274
 198:Middlewares/lvgl/src/draw/lv_img_buf.c ****         buf_u8[px]  = buf_u8[px] & ~(1 << (7 - bit));
 774              		.loc 1 198 36 is_stmt 0 view .LVU275
 775 0066 0268     		ldr	r2, [r0]
 776              	.LVL96:
 198:Middlewares/lvgl/src/draw/lv_img_buf.c ****         buf_u8[px]  = buf_u8[px] & ~(1 << (7 - bit));
 777              		.loc 1 198 36 view .LVU276
 778 0068 C2F38A22 		ubfx	r2, r2, #10, #11
 198:Middlewares/lvgl/src/draw/lv_img_buf.c ****         buf_u8[px]  = buf_u8[px] & ~(1 << (7 - bit));
 779              		.loc 1 198 39 view .LVU277
 780 006c 0732     		adds	r2, r2, #7
 198:Middlewares/lvgl/src/draw/lv_img_buf.c ****         buf_u8[px]  = buf_u8[px] & ~(1 << (7 - bit));
 781              		.loc 1 198 44 view .LVU278
 782 006e D210     		asrs	r2, r2, #3
 198:Middlewares/lvgl/src/draw/lv_img_buf.c ****         buf_u8[px]  = buf_u8[px] & ~(1 << (7 - bit));
 783              		.loc 1 198 50 view .LVU279
 784 0070 02FB07F7 		mul	r7, r2, r7
 198:Middlewares/lvgl/src/draw/lv_img_buf.c ****         buf_u8[px]  = buf_u8[px] & ~(1 << (7 - bit));
 785              		.loc 1 198 54 view .LVU280
 786 0074 07EBE606 		add	r6, r7, r6, asr #3
 787              	.LVL97:
 199:Middlewares/lvgl/src/draw/lv_img_buf.c ****         buf_u8[px]  = buf_u8[px] | ((opa & 0x1) << (7 - bit));
 788              		.loc 1 199 9 is_stmt 1 view .LVU281
 199:Middlewares/lvgl/src/draw/lv_img_buf.c ****         buf_u8[px]  = buf_u8[px] | ((opa & 0x1) << (7 - bit));
 789              		.loc 1 199 29 is_stmt 0 view .LVU282
 790 0078 18F90630 		ldrsb	r3, [r8, r6]
 199:Middlewares/lvgl/src/draw/lv_img_buf.c ****         buf_u8[px]  = buf_u8[px] | ((opa & 0x1) << (7 - bit));
 791              		.loc 1 199 46 view .LVU283
 792 007c C1F10702 		rsb	r2, r1, #7
 199:Middlewares/lvgl/src/draw/lv_img_buf.c ****         buf_u8[px]  = buf_u8[px] | ((opa & 0x1) << (7 - bit));
 793              		.loc 1 199 40 view .LVU284
 794 0080 0121     		movs	r1, #1
 795              	.LVL98:
ARM GAS  /tmp/ccTdGo64.s 			page 38


 199:Middlewares/lvgl/src/draw/lv_img_buf.c ****         buf_u8[px]  = buf_u8[px] | ((opa & 0x1) << (7 - bit));
 796              		.loc 1 199 40 view .LVU285
 797 0082 9140     		lsls	r1, r1, r2
 199:Middlewares/lvgl/src/draw/lv_img_buf.c ****         buf_u8[px]  = buf_u8[px] | ((opa & 0x1) << (7 - bit));
 798              		.loc 1 199 34 view .LVU286
 799 0084 23EA0101 		bic	r1, r3, r1
 800 0088 48B2     		sxtb	r0, r1
 801              	.LVL99:
 199:Middlewares/lvgl/src/draw/lv_img_buf.c ****         buf_u8[px]  = buf_u8[px] | ((opa & 0x1) << (7 - bit));
 802              		.loc 1 199 21 view .LVU287
 803 008a 08F80610 		strb	r1, [r8, r6]
 200:Middlewares/lvgl/src/draw/lv_img_buf.c ****     }
 804              		.loc 1 200 9 is_stmt 1 view .LVU288
 200:Middlewares/lvgl/src/draw/lv_img_buf.c ****     }
 805              		.loc 1 200 49 is_stmt 0 view .LVU289
 806 008e 9440     		lsls	r4, r4, r2
 807              	.LVL100:
 200:Middlewares/lvgl/src/draw/lv_img_buf.c ****     }
 808              		.loc 1 200 34 view .LVU290
 809 0090 0443     		orrs	r4, r4, r0
 200:Middlewares/lvgl/src/draw/lv_img_buf.c ****     }
 810              		.loc 1 200 21 view .LVU291
 811 0092 08F80640 		strb	r4, [r8, r6]
 812              	.LVL101:
 813              	.L33:
 200:Middlewares/lvgl/src/draw/lv_img_buf.c ****     }
 814              		.loc 1 200 21 view .LVU292
 815              	.LBE63:
 816              		.loc 1 230 1 view .LVU293
 817 0096 BDE8F081 		pop	{r4, r5, r6, r7, r8, pc}
 818              	.LVL102:
 819              	.L42:
 820              	.LBB64:
 203:Middlewares/lvgl/src/draw/lv_img_buf.c ****         uint8_t bit = (x & 0x3) * 2;
 821              		.loc 1 203 9 is_stmt 1 view .LVU294
 203:Middlewares/lvgl/src/draw/lv_img_buf.c ****         uint8_t bit = (x & 0x3) * 2;
 822              		.loc 1 203 21 is_stmt 0 view .LVU295
 823 009a A409     		lsrs	r4, r4, #6
 824              	.LVL103:
 204:Middlewares/lvgl/src/draw/lv_img_buf.c ****         x           = x >> 2;
 825              		.loc 1 204 9 is_stmt 1 view .LVU296
 204:Middlewares/lvgl/src/draw/lv_img_buf.c ****         x           = x >> 2;
 826              		.loc 1 204 17 is_stmt 0 view .LVU297
 827 009c 01F00302 		and	r2, r1, #3
 828              	.LVL104:
 204:Middlewares/lvgl/src/draw/lv_img_buf.c ****         x           = x >> 2;
 829              		.loc 1 204 17 view .LVU298
 830 00a0 5100     		lsls	r1, r2, #1
 831              	.LVL105:
 205:Middlewares/lvgl/src/draw/lv_img_buf.c **** 
 832              		.loc 1 205 9 is_stmt 1 view .LVU299
 210:Middlewares/lvgl/src/draw/lv_img_buf.c ****         buf_u8[px]  = buf_u8[px] & ~(3 << (6 - bit));
 833              		.loc 1 210 9 view .LVU300
 210:Middlewares/lvgl/src/draw/lv_img_buf.c ****         buf_u8[px]  = buf_u8[px] & ~(3 << (6 - bit));
 834              		.loc 1 210 36 is_stmt 0 view .LVU301
 835 00a2 0268     		ldr	r2, [r0]
 836 00a4 C2F38A22 		ubfx	r2, r2, #10, #11
ARM GAS  /tmp/ccTdGo64.s 			page 39


 210:Middlewares/lvgl/src/draw/lv_img_buf.c ****         buf_u8[px]  = buf_u8[px] & ~(3 << (6 - bit));
 837              		.loc 1 210 39 view .LVU302
 838 00a8 0332     		adds	r2, r2, #3
 210:Middlewares/lvgl/src/draw/lv_img_buf.c ****         buf_u8[px]  = buf_u8[px] & ~(3 << (6 - bit));
 839              		.loc 1 210 44 view .LVU303
 840 00aa 9210     		asrs	r2, r2, #2
 210:Middlewares/lvgl/src/draw/lv_img_buf.c ****         buf_u8[px]  = buf_u8[px] & ~(3 << (6 - bit));
 841              		.loc 1 210 50 view .LVU304
 842 00ac 02FB07F7 		mul	r7, r2, r7
 210:Middlewares/lvgl/src/draw/lv_img_buf.c ****         buf_u8[px]  = buf_u8[px] & ~(3 << (6 - bit));
 843              		.loc 1 210 54 view .LVU305
 844 00b0 07EBA606 		add	r6, r7, r6, asr #2
 845              	.LVL106:
 211:Middlewares/lvgl/src/draw/lv_img_buf.c ****         buf_u8[px]  = buf_u8[px] | ((opa & 0x3) << (6 - bit));
 846              		.loc 1 211 9 is_stmt 1 view .LVU306
 211:Middlewares/lvgl/src/draw/lv_img_buf.c ****         buf_u8[px]  = buf_u8[px] | ((opa & 0x3) << (6 - bit));
 847              		.loc 1 211 29 is_stmt 0 view .LVU307
 848 00b4 18F90630 		ldrsb	r3, [r8, r6]
 211:Middlewares/lvgl/src/draw/lv_img_buf.c ****         buf_u8[px]  = buf_u8[px] | ((opa & 0x3) << (6 - bit));
 849              		.loc 1 211 46 view .LVU308
 850 00b8 C1F10602 		rsb	r2, r1, #6
 211:Middlewares/lvgl/src/draw/lv_img_buf.c ****         buf_u8[px]  = buf_u8[px] | ((opa & 0x3) << (6 - bit));
 851              		.loc 1 211 40 view .LVU309
 852 00bc 0321     		movs	r1, #3
 853              	.LVL107:
 211:Middlewares/lvgl/src/draw/lv_img_buf.c ****         buf_u8[px]  = buf_u8[px] | ((opa & 0x3) << (6 - bit));
 854              		.loc 1 211 40 view .LVU310
 855 00be 9140     		lsls	r1, r1, r2
 211:Middlewares/lvgl/src/draw/lv_img_buf.c ****         buf_u8[px]  = buf_u8[px] | ((opa & 0x3) << (6 - bit));
 856              		.loc 1 211 34 view .LVU311
 857 00c0 23EA0103 		bic	r3, r3, r1
 858 00c4 59B2     		sxtb	r1, r3
 211:Middlewares/lvgl/src/draw/lv_img_buf.c ****         buf_u8[px]  = buf_u8[px] | ((opa & 0x3) << (6 - bit));
 859              		.loc 1 211 21 view .LVU312
 860 00c6 08F80630 		strb	r3, [r8, r6]
 212:Middlewares/lvgl/src/draw/lv_img_buf.c ****     }
 861              		.loc 1 212 9 is_stmt 1 view .LVU313
 212:Middlewares/lvgl/src/draw/lv_img_buf.c ****     }
 862              		.loc 1 212 49 is_stmt 0 view .LVU314
 863 00ca 9440     		lsls	r4, r4, r2
 864              	.LVL108:
 212:Middlewares/lvgl/src/draw/lv_img_buf.c ****     }
 865              		.loc 1 212 34 view .LVU315
 866 00cc 0C43     		orrs	r4, r4, r1
 212:Middlewares/lvgl/src/draw/lv_img_buf.c ****     }
 867              		.loc 1 212 21 view .LVU316
 868 00ce 08F80640 		strb	r4, [r8, r6]
 869              	.LBE64:
 870 00d2 E0E7     		b	.L33
 871              	.LVL109:
 872              	.L43:
 873              	.LBB65:
 215:Middlewares/lvgl/src/draw/lv_img_buf.c ****         uint8_t bit = (x & 0x1) * 4;
 874              		.loc 1 215 9 is_stmt 1 view .LVU317
 215:Middlewares/lvgl/src/draw/lv_img_buf.c ****         uint8_t bit = (x & 0x1) * 4;
 875              		.loc 1 215 21 is_stmt 0 view .LVU318
 876 00d4 2409     		lsrs	r4, r4, #4
ARM GAS  /tmp/ccTdGo64.s 			page 40


 877              	.LVL110:
 216:Middlewares/lvgl/src/draw/lv_img_buf.c ****         x           = x >> 1;
 878              		.loc 1 216 9 is_stmt 1 view .LVU319
 216:Middlewares/lvgl/src/draw/lv_img_buf.c ****         x           = x >> 1;
 879              		.loc 1 216 17 is_stmt 0 view .LVU320
 880 00d6 01F00102 		and	r2, r1, #1
 881              	.LVL111:
 216:Middlewares/lvgl/src/draw/lv_img_buf.c ****         x           = x >> 1;
 882              		.loc 1 216 17 view .LVU321
 883 00da 9100     		lsls	r1, r2, #2
 884              	.LVL112:
 217:Middlewares/lvgl/src/draw/lv_img_buf.c **** 
 885              		.loc 1 217 9 is_stmt 1 view .LVU322
 222:Middlewares/lvgl/src/draw/lv_img_buf.c ****         buf_u8[px]  = buf_u8[px] & ~(0xF << (4 - bit));
 886              		.loc 1 222 9 view .LVU323
 222:Middlewares/lvgl/src/draw/lv_img_buf.c ****         buf_u8[px]  = buf_u8[px] & ~(0xF << (4 - bit));
 887              		.loc 1 222 36 is_stmt 0 view .LVU324
 888 00dc 0268     		ldr	r2, [r0]
 889 00de C2F38A22 		ubfx	r2, r2, #10, #11
 222:Middlewares/lvgl/src/draw/lv_img_buf.c ****         buf_u8[px]  = buf_u8[px] & ~(0xF << (4 - bit));
 890              		.loc 1 222 39 view .LVU325
 891 00e2 0132     		adds	r2, r2, #1
 222:Middlewares/lvgl/src/draw/lv_img_buf.c ****         buf_u8[px]  = buf_u8[px] & ~(0xF << (4 - bit));
 892              		.loc 1 222 44 view .LVU326
 893 00e4 5210     		asrs	r2, r2, #1
 222:Middlewares/lvgl/src/draw/lv_img_buf.c ****         buf_u8[px]  = buf_u8[px] & ~(0xF << (4 - bit));
 894              		.loc 1 222 50 view .LVU327
 895 00e6 02FB07F7 		mul	r7, r2, r7
 222:Middlewares/lvgl/src/draw/lv_img_buf.c ****         buf_u8[px]  = buf_u8[px] & ~(0xF << (4 - bit));
 896              		.loc 1 222 54 view .LVU328
 897 00ea 07EB6606 		add	r6, r7, r6, asr #1
 898              	.LVL113:
 223:Middlewares/lvgl/src/draw/lv_img_buf.c ****         buf_u8[px]  = buf_u8[px] | ((opa & 0xF) << (4 - bit));
 899              		.loc 1 223 9 is_stmt 1 view .LVU329
 223:Middlewares/lvgl/src/draw/lv_img_buf.c ****         buf_u8[px]  = buf_u8[px] | ((opa & 0xF) << (4 - bit));
 900              		.loc 1 223 29 is_stmt 0 view .LVU330
 901 00ee 18F90630 		ldrsb	r3, [r8, r6]
 223:Middlewares/lvgl/src/draw/lv_img_buf.c ****         buf_u8[px]  = buf_u8[px] | ((opa & 0xF) << (4 - bit));
 902              		.loc 1 223 48 view .LVU331
 903 00f2 C1F10402 		rsb	r2, r1, #4
 223:Middlewares/lvgl/src/draw/lv_img_buf.c ****         buf_u8[px]  = buf_u8[px] | ((opa & 0xF) << (4 - bit));
 904              		.loc 1 223 42 view .LVU332
 905 00f6 0F21     		movs	r1, #15
 906              	.LVL114:
 223:Middlewares/lvgl/src/draw/lv_img_buf.c ****         buf_u8[px]  = buf_u8[px] | ((opa & 0xF) << (4 - bit));
 907              		.loc 1 223 42 view .LVU333
 908 00f8 9140     		lsls	r1, r1, r2
 223:Middlewares/lvgl/src/draw/lv_img_buf.c ****         buf_u8[px]  = buf_u8[px] | ((opa & 0xF) << (4 - bit));
 909              		.loc 1 223 34 view .LVU334
 910 00fa 23EA0103 		bic	r3, r3, r1
 911 00fe 59B2     		sxtb	r1, r3
 223:Middlewares/lvgl/src/draw/lv_img_buf.c ****         buf_u8[px]  = buf_u8[px] | ((opa & 0xF) << (4 - bit));
 912              		.loc 1 223 21 view .LVU335
 913 0100 08F80630 		strb	r3, [r8, r6]
 224:Middlewares/lvgl/src/draw/lv_img_buf.c ****     }
 914              		.loc 1 224 9 is_stmt 1 view .LVU336
 224:Middlewares/lvgl/src/draw/lv_img_buf.c ****     }
ARM GAS  /tmp/ccTdGo64.s 			page 41


 915              		.loc 1 224 49 is_stmt 0 view .LVU337
 916 0104 9440     		lsls	r4, r4, r2
 917              	.LVL115:
 224:Middlewares/lvgl/src/draw/lv_img_buf.c ****     }
 918              		.loc 1 224 34 view .LVU338
 919 0106 0C43     		orrs	r4, r4, r1
 224:Middlewares/lvgl/src/draw/lv_img_buf.c ****     }
 920              		.loc 1 224 21 view .LVU339
 921 0108 08F80640 		strb	r4, [r8, r6]
 922              	.LBE65:
 923 010c C3E7     		b	.L33
 924              		.cfi_endproc
 925              	.LFE50:
 927              		.section	.text.lv_img_buf_set_px_color,"ax",%progbits
 928              		.align	1
 929              		.global	lv_img_buf_set_px_color
 930              		.syntax unified
 931              		.thumb
 932              		.thumb_func
 933              		.fpu fpv4-sp-d16
 935              	lv_img_buf_set_px_color:
 936              	.LVL116:
 937              	.LFB51:
 231:Middlewares/lvgl/src/draw/lv_img_buf.c **** 
 232:Middlewares/lvgl/src/draw/lv_img_buf.c **** /**
 233:Middlewares/lvgl/src/draw/lv_img_buf.c ****  * Set the color of a pixel of an image. The alpha channel won't be affected.
 234:Middlewares/lvgl/src/draw/lv_img_buf.c ****  * @param dsc pointer to an image descriptor
 235:Middlewares/lvgl/src/draw/lv_img_buf.c ****  * @param x x coordinate of the point to set
 236:Middlewares/lvgl/src/draw/lv_img_buf.c ****  * @param y x coordinate of the point to set
 237:Middlewares/lvgl/src/draw/lv_img_buf.c ****  * @param c color of the point
 238:Middlewares/lvgl/src/draw/lv_img_buf.c ****  * @param safe true: check out of bounds
 239:Middlewares/lvgl/src/draw/lv_img_buf.c ****  */
 240:Middlewares/lvgl/src/draw/lv_img_buf.c **** void lv_img_buf_set_px_color(lv_img_dsc_t * dsc, lv_coord_t x, lv_coord_t y, lv_color_t c)
 241:Middlewares/lvgl/src/draw/lv_img_buf.c **** {
 938              		.loc 1 241 1 is_stmt 1 view -0
 939              		.cfi_startproc
 940              		@ args = 0, pretend = 0, frame = 8
 941              		@ frame_needed = 0, uses_anonymous_args = 0
 942              		.loc 1 241 1 is_stmt 0 view .LVU341
 943 0000 F0B5     		push	{r4, r5, r6, r7, lr}
 944              	.LCFI9:
 945              		.cfi_def_cfa_offset 20
 946              		.cfi_offset 4, -20
 947              		.cfi_offset 5, -16
 948              		.cfi_offset 6, -12
 949              		.cfi_offset 7, -8
 950              		.cfi_offset 14, -4
 951 0002 83B0     		sub	sp, sp, #12
 952              	.LCFI10:
 953              		.cfi_def_cfa_offset 32
 954 0004 0546     		mov	r5, r0
 955 0006 0C46     		mov	r4, r1
 956 0008 1746     		mov	r7, r2
 957 000a ADF80430 		strh	r3, [sp, #4]	@ movhi
 242:Middlewares/lvgl/src/draw/lv_img_buf.c ****     uint8_t * buf_u8 = (uint8_t *)dsc->data;
 958              		.loc 1 242 5 is_stmt 1 view .LVU342
 959              		.loc 1 242 15 is_stmt 0 view .LVU343
ARM GAS  /tmp/ccTdGo64.s 			page 42


 960 000e 8668     		ldr	r6, [r0, #8]
 961              	.LVL117:
 243:Middlewares/lvgl/src/draw/lv_img_buf.c **** 
 244:Middlewares/lvgl/src/draw/lv_img_buf.c ****     if(dsc->header.cf == LV_IMG_CF_TRUE_COLOR || dsc->header.cf == LV_IMG_CF_TRUE_COLOR_CHROMA_KEYE
 962              		.loc 1 244 5 is_stmt 1 view .LVU344
 963              		.loc 1 244 23 is_stmt 0 view .LVU345
 964 0010 0178     		ldrb	r1, [r0]	@ zero_extendqisi2
 965              	.LVL118:
 966              		.loc 1 244 23 view .LVU346
 967 0012 01F01F01 		and	r1, r1, #31
 968              		.loc 1 244 7 view .LVU347
 969 0016 0429     		cmp	r1, #4
 970 0018 17D0     		beq	.L45
 971              		.loc 1 244 47 discriminator 1 view .LVU348
 972 001a 0629     		cmp	r1, #6
 973 001c 15D0     		beq	.L45
 245:Middlewares/lvgl/src/draw/lv_img_buf.c ****         uint8_t px_size = lv_img_cf_get_px_size(dsc->header.cf) >> 3;
 246:Middlewares/lvgl/src/draw/lv_img_buf.c ****         uint32_t px     = dsc->header.w * y * px_size + x * px_size;
 247:Middlewares/lvgl/src/draw/lv_img_buf.c ****         lv_memcpy_small(&buf_u8[px], &c, px_size);
 248:Middlewares/lvgl/src/draw/lv_img_buf.c ****     }
 249:Middlewares/lvgl/src/draw/lv_img_buf.c ****     else if(dsc->header.cf == LV_IMG_CF_TRUE_COLOR_ALPHA) {
 974              		.loc 1 249 10 is_stmt 1 view .LVU349
 975              		.loc 1 249 12 is_stmt 0 view .LVU350
 976 001e 0529     		cmp	r1, #5
 977 0020 2FD0     		beq	.L57
 250:Middlewares/lvgl/src/draw/lv_img_buf.c ****         uint8_t px_size = lv_img_cf_get_px_size(dsc->header.cf) >> 3;
 251:Middlewares/lvgl/src/draw/lv_img_buf.c ****         uint32_t px     = dsc->header.w * y * px_size + x * px_size;
 252:Middlewares/lvgl/src/draw/lv_img_buf.c ****         lv_memcpy_small(&buf_u8[px], &c, px_size - 1); /*-1 to not overwrite the alpha value*/
 253:Middlewares/lvgl/src/draw/lv_img_buf.c ****     }
 254:Middlewares/lvgl/src/draw/lv_img_buf.c ****     else if(dsc->header.cf == LV_IMG_CF_INDEXED_1BIT) {
 978              		.loc 1 254 10 is_stmt 1 view .LVU351
 979              		.loc 1 254 12 is_stmt 0 view .LVU352
 980 0022 0729     		cmp	r1, #7
 981 0024 49D0     		beq	.L58
 255:Middlewares/lvgl/src/draw/lv_img_buf.c ****         buf_u8 += sizeof(lv_color32_t) * 2; /*Skip the palette*/
 256:Middlewares/lvgl/src/draw/lv_img_buf.c **** 
 257:Middlewares/lvgl/src/draw/lv_img_buf.c ****         uint8_t bit = x & 0x7;
 258:Middlewares/lvgl/src/draw/lv_img_buf.c ****         x           = x >> 3;
 259:Middlewares/lvgl/src/draw/lv_img_buf.c **** 
 260:Middlewares/lvgl/src/draw/lv_img_buf.c ****         /*Get the current pixel.
 261:Middlewares/lvgl/src/draw/lv_img_buf.c ****          *dsc->header.w + 7 means rounding up to 8 because the lines are byte aligned
 262:Middlewares/lvgl/src/draw/lv_img_buf.c ****          *so the possible real width are 8 ,16, 24 ...*/
 263:Middlewares/lvgl/src/draw/lv_img_buf.c ****         uint32_t px = ((dsc->header.w + 7) >> 3) * y + x;
 264:Middlewares/lvgl/src/draw/lv_img_buf.c ****         buf_u8[px]  = buf_u8[px] & ~(1 << (7 - bit));
 265:Middlewares/lvgl/src/draw/lv_img_buf.c ****         buf_u8[px]  = buf_u8[px] | ((c.full & 0x1) << (7 - bit));
 266:Middlewares/lvgl/src/draw/lv_img_buf.c ****     }
 267:Middlewares/lvgl/src/draw/lv_img_buf.c ****     else if(dsc->header.cf == LV_IMG_CF_INDEXED_2BIT) {
 982              		.loc 1 267 10 is_stmt 1 view .LVU353
 983              		.loc 1 267 12 is_stmt 0 view .LVU354
 984 0026 0829     		cmp	r1, #8
 985 0028 65D0     		beq	.L59
 268:Middlewares/lvgl/src/draw/lv_img_buf.c ****         buf_u8 += sizeof(lv_color32_t) * 4; /*Skip the palette*/
 269:Middlewares/lvgl/src/draw/lv_img_buf.c ****         uint8_t bit = (x & 0x3) * 2;
 270:Middlewares/lvgl/src/draw/lv_img_buf.c ****         x           = x >> 2;
 271:Middlewares/lvgl/src/draw/lv_img_buf.c **** 
 272:Middlewares/lvgl/src/draw/lv_img_buf.c ****         /*Get the current pixel.
 273:Middlewares/lvgl/src/draw/lv_img_buf.c ****          *dsc->header.w + 3 means rounding up to 4 because the lines are byte aligned
ARM GAS  /tmp/ccTdGo64.s 			page 43


 274:Middlewares/lvgl/src/draw/lv_img_buf.c ****          *so the possible real width are 4, 8 ,12 ...*/
 275:Middlewares/lvgl/src/draw/lv_img_buf.c ****         uint32_t px = ((dsc->header.w + 3) >> 2) * y + x;
 276:Middlewares/lvgl/src/draw/lv_img_buf.c **** 
 277:Middlewares/lvgl/src/draw/lv_img_buf.c ****         buf_u8[px] = buf_u8[px] & ~(3 << (6 - bit));
 278:Middlewares/lvgl/src/draw/lv_img_buf.c ****         buf_u8[px] = buf_u8[px] | ((c.full & 0x3) << (6 - bit));
 279:Middlewares/lvgl/src/draw/lv_img_buf.c ****     }
 280:Middlewares/lvgl/src/draw/lv_img_buf.c ****     else if(dsc->header.cf == LV_IMG_CF_INDEXED_4BIT) {
 986              		.loc 1 280 10 is_stmt 1 view .LVU355
 987              		.loc 1 280 12 is_stmt 0 view .LVU356
 988 002a 0929     		cmp	r1, #9
 989 002c 00F08380 		beq	.L60
 281:Middlewares/lvgl/src/draw/lv_img_buf.c ****         buf_u8 += sizeof(lv_color32_t) * 16; /*Skip the palette*/
 282:Middlewares/lvgl/src/draw/lv_img_buf.c ****         uint8_t bit = (x & 0x1) * 4;
 283:Middlewares/lvgl/src/draw/lv_img_buf.c ****         x           = x >> 1;
 284:Middlewares/lvgl/src/draw/lv_img_buf.c **** 
 285:Middlewares/lvgl/src/draw/lv_img_buf.c ****         /*Get the current pixel.
 286:Middlewares/lvgl/src/draw/lv_img_buf.c ****          *dsc->header.w + 1 means rounding up to 2 because the lines are byte aligned
 287:Middlewares/lvgl/src/draw/lv_img_buf.c ****          *so the possible real width are 2 ,4, 6 ...*/
 288:Middlewares/lvgl/src/draw/lv_img_buf.c ****         uint32_t px = ((dsc->header.w + 1) >> 1) * y + x;
 289:Middlewares/lvgl/src/draw/lv_img_buf.c ****         buf_u8[px]  = buf_u8[px] & ~(0xF << (4 - bit));
 290:Middlewares/lvgl/src/draw/lv_img_buf.c ****         buf_u8[px]  = buf_u8[px] | ((c.full & 0xF) << (4 - bit));
 291:Middlewares/lvgl/src/draw/lv_img_buf.c ****     }
 292:Middlewares/lvgl/src/draw/lv_img_buf.c ****     else if(dsc->header.cf == LV_IMG_CF_INDEXED_8BIT) {
 990              		.loc 1 292 10 is_stmt 1 view .LVU357
 991              		.loc 1 292 12 is_stmt 0 view .LVU358
 992 0030 0A29     		cmp	r1, #10
 993 0032 24D1     		bne	.L44
 994              	.LBB66:
 293:Middlewares/lvgl/src/draw/lv_img_buf.c ****         buf_u8 += sizeof(lv_color32_t) * 256; /*Skip the palette*/
 995              		.loc 1 293 9 is_stmt 1 view .LVU359
 996              	.LVL119:
 294:Middlewares/lvgl/src/draw/lv_img_buf.c ****         uint32_t px = dsc->header.w * y + x;
 997              		.loc 1 294 9 view .LVU360
 998              		.loc 1 294 34 is_stmt 0 view .LVU361
 999 0034 0368     		ldr	r3, [r0]
 1000 0036 C3F38A23 		ubfx	r3, r3, #10, #11
 1001              		.loc 1 294 41 view .LVU362
 1002 003a 03FB0243 		mla	r3, r3, r2, r4
 1003              	.LVL120:
 295:Middlewares/lvgl/src/draw/lv_img_buf.c ****         buf_u8[px]  = c.full;
 1004              		.loc 1 295 9 is_stmt 1 view .LVU363
 1005              		.loc 1 295 24 is_stmt 0 view .LVU364
 1006 003e BDF80420 		ldrh	r2, [sp, #4]
 1007              	.LVL121:
 1008              		.loc 1 295 15 view .LVU365
 1009 0042 03F58063 		add	r3, r3, #1024
 1010              	.LVL122:
 1011              		.loc 1 295 21 view .LVU366
 1012 0046 F254     		strb	r2, [r6, r3]
 1013              	.LBE66:
 296:Middlewares/lvgl/src/draw/lv_img_buf.c ****     }
 297:Middlewares/lvgl/src/draw/lv_img_buf.c **** }
 1014              		.loc 1 297 1 view .LVU367
 1015 0048 19E0     		b	.L44
 1016              	.LVL123:
 1017              	.L45:
 1018              	.LBB67:
ARM GAS  /tmp/ccTdGo64.s 			page 44


 245:Middlewares/lvgl/src/draw/lv_img_buf.c ****         uint32_t px     = dsc->header.w * y * px_size + x * px_size;
 1019              		.loc 1 245 9 is_stmt 1 view .LVU368
 245:Middlewares/lvgl/src/draw/lv_img_buf.c ****         uint32_t px     = dsc->header.w * y * px_size + x * px_size;
 1020              		.loc 1 245 60 is_stmt 0 view .LVU369
 1021 004a 2878     		ldrb	r0, [r5]	@ zero_extendqisi2
 1022              	.LVL124:
 245:Middlewares/lvgl/src/draw/lv_img_buf.c ****         uint32_t px     = dsc->header.w * y * px_size + x * px_size;
 1023              		.loc 1 245 27 view .LVU370
 1024 004c 00F01F00 		and	r0, r0, #31
 1025 0050 FFF7FEFF 		bl	lv_img_cf_get_px_size
 1026              	.LVL125:
 245:Middlewares/lvgl/src/draw/lv_img_buf.c ****         uint32_t px     = dsc->header.w * y * px_size + x * px_size;
 1027              		.loc 1 245 17 view .LVU371
 1028 0054 C0F3C700 		ubfx	r0, r0, #3, #8
 1029              	.LVL126:
 246:Middlewares/lvgl/src/draw/lv_img_buf.c ****         lv_memcpy_small(&buf_u8[px], &c, px_size);
 1030              		.loc 1 246 9 is_stmt 1 view .LVU372
 246:Middlewares/lvgl/src/draw/lv_img_buf.c ****         lv_memcpy_small(&buf_u8[px], &c, px_size);
 1031              		.loc 1 246 38 is_stmt 0 view .LVU373
 1032 0058 2B68     		ldr	r3, [r5]
 1033 005a C3F38A23 		ubfx	r3, r3, #10, #11
 246:Middlewares/lvgl/src/draw/lv_img_buf.c ****         lv_memcpy_small(&buf_u8[px], &c, px_size);
 1034              		.loc 1 246 41 view .LVU374
 1035 005e 03FB07F7 		mul	r7, r3, r7
 246:Middlewares/lvgl/src/draw/lv_img_buf.c ****         lv_memcpy_small(&buf_u8[px], &c, px_size);
 1036              		.loc 1 246 59 view .LVU375
 1037 0062 00FB04F3 		mul	r3, r0, r4
 246:Middlewares/lvgl/src/draw/lv_img_buf.c ****         lv_memcpy_small(&buf_u8[px], &c, px_size);
 1038              		.loc 1 246 55 view .LVU376
 1039 0066 00FB0733 		mla	r3, r0, r7, r3
 1040              	.LVL127:
 247:Middlewares/lvgl/src/draw/lv_img_buf.c ****     }
 1041              		.loc 1 247 9 is_stmt 1 view .LVU377
 247:Middlewares/lvgl/src/draw/lv_img_buf.c ****     }
 1042              		.loc 1 247 25 is_stmt 0 view .LVU378
 1043 006a 3344     		add	r3, r3, r6
 1044              	.LVL128:
 1045              	.LBB68:
 1046              	.LBI68:
 201:Middlewares/lvgl/src/draw/../misc/lv_mem.h **** {
 1047              		.loc 3 201 44 is_stmt 1 view .LVU379
 1048              	.LBB69:
 203:Middlewares/lvgl/src/draw/../misc/lv_mem.h ****     const uint8_t * s8 = (const uint8_t *)src;
 1049              		.loc 3 203 5 view .LVU380
 204:Middlewares/lvgl/src/draw/../misc/lv_mem.h **** 
 1050              		.loc 3 204 5 view .LVU381
 206:Middlewares/lvgl/src/draw/../misc/lv_mem.h ****         *d8 = *s8;
 1051              		.loc 3 206 5 view .LVU382
 204:Middlewares/lvgl/src/draw/../misc/lv_mem.h **** 
 1052              		.loc 3 204 21 is_stmt 0 view .LVU383
 1053 006c 01AA     		add	r2, sp, #4
 1054              	.LVL129:
 206:Middlewares/lvgl/src/draw/../misc/lv_mem.h ****         *d8 = *s8;
 1055              		.loc 3 206 10 view .LVU384
 1056 006e 04E0     		b	.L47
 1057              	.LVL130:
 1058              	.L48:
ARM GAS  /tmp/ccTdGo64.s 			page 45


 207:Middlewares/lvgl/src/draw/../misc/lv_mem.h ****         d8++;
 1059              		.loc 3 207 9 is_stmt 1 view .LVU385
 207:Middlewares/lvgl/src/draw/../misc/lv_mem.h ****         d8++;
 1060              		.loc 3 207 15 is_stmt 0 view .LVU386
 1061 0070 12F8011B 		ldrb	r1, [r2], #1	@ zero_extendqisi2
 1062              	.LVL131:
 207:Middlewares/lvgl/src/draw/../misc/lv_mem.h ****         d8++;
 1063              		.loc 3 207 13 view .LVU387
 1064 0074 03F8011B 		strb	r1, [r3], #1
 1065              	.LVL132:
 208:Middlewares/lvgl/src/draw/../misc/lv_mem.h ****         s8++;
 1066              		.loc 3 208 9 is_stmt 1 view .LVU388
 209:Middlewares/lvgl/src/draw/../misc/lv_mem.h ****         len--;
 1067              		.loc 3 209 9 view .LVU389
 1068              		.loc 3 210 9 view .LVU390
 1069              		.loc 3 210 12 is_stmt 0 view .LVU391
 1070 0078 0138     		subs	r0, r0, #1
 1071              	.LVL133:
 1072              	.L47:
 206:Middlewares/lvgl/src/draw/../misc/lv_mem.h ****         *d8 = *s8;
 1073              		.loc 3 206 10 is_stmt 1 view .LVU392
 1074 007a 0028     		cmp	r0, #0
 1075 007c F8D1     		bne	.L48
 1076              	.LVL134:
 1077              	.L44:
 206:Middlewares/lvgl/src/draw/../misc/lv_mem.h ****         *d8 = *s8;
 1078              		.loc 3 206 10 is_stmt 0 view .LVU393
 1079              	.LBE69:
 1080              	.LBE68:
 1081              	.LBE67:
 1082              		.loc 1 297 1 view .LVU394
 1083 007e 03B0     		add	sp, sp, #12
 1084              	.LCFI11:
 1085              		.cfi_remember_state
 1086              		.cfi_def_cfa_offset 20
 1087              		@ sp needed
 1088 0080 F0BD     		pop	{r4, r5, r6, r7, pc}
 1089              	.LVL135:
 1090              	.L57:
 1091              	.LCFI12:
 1092              		.cfi_restore_state
 1093              	.LBB70:
 250:Middlewares/lvgl/src/draw/lv_img_buf.c ****         uint32_t px     = dsc->header.w * y * px_size + x * px_size;
 1094              		.loc 1 250 9 is_stmt 1 view .LVU395
 250:Middlewares/lvgl/src/draw/lv_img_buf.c ****         uint32_t px     = dsc->header.w * y * px_size + x * px_size;
 1095              		.loc 1 250 60 is_stmt 0 view .LVU396
 1096 0082 0078     		ldrb	r0, [r0]	@ zero_extendqisi2
 1097              	.LVL136:
 250:Middlewares/lvgl/src/draw/lv_img_buf.c ****         uint32_t px     = dsc->header.w * y * px_size + x * px_size;
 1098              		.loc 1 250 27 view .LVU397
 1099 0084 00F01F00 		and	r0, r0, #31
 1100 0088 FFF7FEFF 		bl	lv_img_cf_get_px_size
 1101              	.LVL137:
 250:Middlewares/lvgl/src/draw/lv_img_buf.c ****         uint32_t px     = dsc->header.w * y * px_size + x * px_size;
 1102              		.loc 1 250 17 view .LVU398
 1103 008c C0F3C702 		ubfx	r2, r0, #3, #8
 1104              	.LVL138:
ARM GAS  /tmp/ccTdGo64.s 			page 46


 251:Middlewares/lvgl/src/draw/lv_img_buf.c ****         lv_memcpy_small(&buf_u8[px], &c, px_size - 1); /*-1 to not overwrite the alpha value*/
 1105              		.loc 1 251 9 is_stmt 1 view .LVU399
 251:Middlewares/lvgl/src/draw/lv_img_buf.c ****         lv_memcpy_small(&buf_u8[px], &c, px_size - 1); /*-1 to not overwrite the alpha value*/
 1106              		.loc 1 251 38 is_stmt 0 view .LVU400
 1107 0090 2B68     		ldr	r3, [r5]
 1108 0092 C3F38A23 		ubfx	r3, r3, #10, #11
 251:Middlewares/lvgl/src/draw/lv_img_buf.c ****         lv_memcpy_small(&buf_u8[px], &c, px_size - 1); /*-1 to not overwrite the alpha value*/
 1109              		.loc 1 251 41 view .LVU401
 1110 0096 03FB07F7 		mul	r7, r3, r7
 251:Middlewares/lvgl/src/draw/lv_img_buf.c ****         lv_memcpy_small(&buf_u8[px], &c, px_size - 1); /*-1 to not overwrite the alpha value*/
 1111              		.loc 1 251 59 view .LVU402
 1112 009a 02FB04F3 		mul	r3, r2, r4
 251:Middlewares/lvgl/src/draw/lv_img_buf.c ****         lv_memcpy_small(&buf_u8[px], &c, px_size - 1); /*-1 to not overwrite the alpha value*/
 1113              		.loc 1 251 55 view .LVU403
 1114 009e 02FB0733 		mla	r3, r2, r7, r3
 1115              	.LVL139:
 252:Middlewares/lvgl/src/draw/lv_img_buf.c ****     }
 1116              		.loc 1 252 9 is_stmt 1 view .LVU404
 252:Middlewares/lvgl/src/draw/lv_img_buf.c ****     }
 1117              		.loc 1 252 25 is_stmt 0 view .LVU405
 1118 00a2 3344     		add	r3, r3, r6
 1119              	.LVL140:
 252:Middlewares/lvgl/src/draw/lv_img_buf.c ****     }
 1120              		.loc 1 252 50 view .LVU406
 1121 00a4 013A     		subs	r2, r2, #1
 1122              	.LVL141:
 1123              	.LBB71:
 1124              	.LBI71:
 201:Middlewares/lvgl/src/draw/../misc/lv_mem.h **** {
 1125              		.loc 3 201 44 is_stmt 1 view .LVU407
 1126              	.LBB72:
 203:Middlewares/lvgl/src/draw/../misc/lv_mem.h ****     const uint8_t * s8 = (const uint8_t *)src;
 1127              		.loc 3 203 5 view .LVU408
 204:Middlewares/lvgl/src/draw/../misc/lv_mem.h **** 
 1128              		.loc 3 204 5 view .LVU409
 206:Middlewares/lvgl/src/draw/../misc/lv_mem.h ****         *d8 = *s8;
 1129              		.loc 3 206 5 view .LVU410
 204:Middlewares/lvgl/src/draw/../misc/lv_mem.h **** 
 1130              		.loc 3 204 21 is_stmt 0 view .LVU411
 1131 00a6 01A9     		add	r1, sp, #4
 1132              	.LVL142:
 206:Middlewares/lvgl/src/draw/../misc/lv_mem.h ****         *d8 = *s8;
 1133              		.loc 3 206 10 view .LVU412
 1134 00a8 04E0     		b	.L51
 1135              	.LVL143:
 1136              	.L52:
 207:Middlewares/lvgl/src/draw/../misc/lv_mem.h ****         d8++;
 1137              		.loc 3 207 9 is_stmt 1 view .LVU413
 207:Middlewares/lvgl/src/draw/../misc/lv_mem.h ****         d8++;
 1138              		.loc 3 207 15 is_stmt 0 view .LVU414
 1139 00aa 11F8010B 		ldrb	r0, [r1], #1	@ zero_extendqisi2
 1140              	.LVL144:
 207:Middlewares/lvgl/src/draw/../misc/lv_mem.h ****         d8++;
 1141              		.loc 3 207 13 view .LVU415
 1142 00ae 03F8010B 		strb	r0, [r3], #1
 1143              	.LVL145:
 208:Middlewares/lvgl/src/draw/../misc/lv_mem.h ****         s8++;
ARM GAS  /tmp/ccTdGo64.s 			page 47


 1144              		.loc 3 208 9 is_stmt 1 view .LVU416
 209:Middlewares/lvgl/src/draw/../misc/lv_mem.h ****         len--;
 1145              		.loc 3 209 9 view .LVU417
 1146              		.loc 3 210 9 view .LVU418
 1147              		.loc 3 210 12 is_stmt 0 view .LVU419
 1148 00b2 013A     		subs	r2, r2, #1
 1149              	.LVL146:
 1150              	.L51:
 206:Middlewares/lvgl/src/draw/../misc/lv_mem.h ****         *d8 = *s8;
 1151              		.loc 3 206 10 is_stmt 1 view .LVU420
 1152 00b4 002A     		cmp	r2, #0
 1153 00b6 F8D1     		bne	.L52
 206:Middlewares/lvgl/src/draw/../misc/lv_mem.h ****         *d8 = *s8;
 1154              		.loc 3 206 10 is_stmt 0 view .LVU421
 1155 00b8 E1E7     		b	.L44
 1156              	.LVL147:
 1157              	.L58:
 206:Middlewares/lvgl/src/draw/../misc/lv_mem.h ****         *d8 = *s8;
 1158              		.loc 3 206 10 view .LVU422
 1159              	.LBE72:
 1160              	.LBE71:
 1161              	.LBE70:
 1162              	.LBB73:
 255:Middlewares/lvgl/src/draw/lv_img_buf.c **** 
 1163              		.loc 1 255 9 is_stmt 1 view .LVU423
 255:Middlewares/lvgl/src/draw/lv_img_buf.c **** 
 1164              		.loc 1 255 16 is_stmt 0 view .LVU424
 1165 00ba 06F10803 		add	r3, r6, #8
 1166              	.LVL148:
 257:Middlewares/lvgl/src/draw/lv_img_buf.c ****         x           = x >> 3;
 1167              		.loc 1 257 9 is_stmt 1 view .LVU425
 257:Middlewares/lvgl/src/draw/lv_img_buf.c ****         x           = x >> 3;
 1168              		.loc 1 257 17 is_stmt 0 view .LVU426
 1169 00be 04F00701 		and	r1, r4, #7
 1170              	.LVL149:
 258:Middlewares/lvgl/src/draw/lv_img_buf.c **** 
 1171              		.loc 1 258 9 is_stmt 1 view .LVU427
 263:Middlewares/lvgl/src/draw/lv_img_buf.c ****         buf_u8[px]  = buf_u8[px] & ~(1 << (7 - bit));
 1172              		.loc 1 263 9 view .LVU428
 263:Middlewares/lvgl/src/draw/lv_img_buf.c ****         buf_u8[px]  = buf_u8[px] & ~(1 << (7 - bit));
 1173              		.loc 1 263 36 is_stmt 0 view .LVU429
 1174 00c2 0268     		ldr	r2, [r0]
 1175              	.LVL150:
 263:Middlewares/lvgl/src/draw/lv_img_buf.c ****         buf_u8[px]  = buf_u8[px] & ~(1 << (7 - bit));
 1176              		.loc 1 263 36 view .LVU430
 1177 00c4 C2F38A22 		ubfx	r2, r2, #10, #11
 263:Middlewares/lvgl/src/draw/lv_img_buf.c ****         buf_u8[px]  = buf_u8[px] & ~(1 << (7 - bit));
 1178              		.loc 1 263 39 view .LVU431
 1179 00c8 0732     		adds	r2, r2, #7
 263:Middlewares/lvgl/src/draw/lv_img_buf.c ****         buf_u8[px]  = buf_u8[px] & ~(1 << (7 - bit));
 1180              		.loc 1 263 44 view .LVU432
 1181 00ca D210     		asrs	r2, r2, #3
 263:Middlewares/lvgl/src/draw/lv_img_buf.c ****         buf_u8[px]  = buf_u8[px] & ~(1 << (7 - bit));
 1182              		.loc 1 263 50 view .LVU433
 1183 00cc 02FB07F7 		mul	r7, r2, r7
 263:Middlewares/lvgl/src/draw/lv_img_buf.c ****         buf_u8[px]  = buf_u8[px] & ~(1 << (7 - bit));
 1184              		.loc 1 263 54 view .LVU434
ARM GAS  /tmp/ccTdGo64.s 			page 48


 1185 00d0 07EBE404 		add	r4, r7, r4, asr #3
 1186              	.LVL151:
 264:Middlewares/lvgl/src/draw/lv_img_buf.c ****         buf_u8[px]  = buf_u8[px] | ((c.full & 0x1) << (7 - bit));
 1187              		.loc 1 264 9 is_stmt 1 view .LVU435
 264:Middlewares/lvgl/src/draw/lv_img_buf.c ****         buf_u8[px]  = buf_u8[px] | ((c.full & 0x1) << (7 - bit));
 1188              		.loc 1 264 29 is_stmt 0 view .LVU436
 1189 00d4 1A57     		ldrsb	r2, [r3, r4]
 264:Middlewares/lvgl/src/draw/lv_img_buf.c ****         buf_u8[px]  = buf_u8[px] | ((c.full & 0x1) << (7 - bit));
 1190              		.loc 1 264 46 view .LVU437
 1191 00d6 C1F10701 		rsb	r1, r1, #7
 1192              	.LVL152:
 264:Middlewares/lvgl/src/draw/lv_img_buf.c ****         buf_u8[px]  = buf_u8[px] | ((c.full & 0x1) << (7 - bit));
 1193              		.loc 1 264 40 view .LVU438
 1194 00da 0120     		movs	r0, #1
 1195              	.LVL153:
 264:Middlewares/lvgl/src/draw/lv_img_buf.c ****         buf_u8[px]  = buf_u8[px] | ((c.full & 0x1) << (7 - bit));
 1196              		.loc 1 264 40 view .LVU439
 1197 00dc 8840     		lsls	r0, r0, r1
 264:Middlewares/lvgl/src/draw/lv_img_buf.c ****         buf_u8[px]  = buf_u8[px] | ((c.full & 0x1) << (7 - bit));
 1198              		.loc 1 264 34 view .LVU440
 1199 00de 22EA0002 		bic	r2, r2, r0
 1200 00e2 50B2     		sxtb	r0, r2
 264:Middlewares/lvgl/src/draw/lv_img_buf.c ****         buf_u8[px]  = buf_u8[px] | ((c.full & 0x1) << (7 - bit));
 1201              		.loc 1 264 21 view .LVU441
 1202 00e4 1A55     		strb	r2, [r3, r4]
 265:Middlewares/lvgl/src/draw/lv_img_buf.c ****     }
 1203              		.loc 1 265 9 is_stmt 1 view .LVU442
 265:Middlewares/lvgl/src/draw/lv_img_buf.c ****     }
 1204              		.loc 1 265 39 is_stmt 0 view .LVU443
 1205 00e6 BDF80420 		ldrh	r2, [sp, #4]
 265:Middlewares/lvgl/src/draw/lv_img_buf.c ****     }
 1206              		.loc 1 265 45 view .LVU444
 1207 00ea 02F00102 		and	r2, r2, #1
 265:Middlewares/lvgl/src/draw/lv_img_buf.c ****     }
 1208              		.loc 1 265 52 view .LVU445
 1209 00ee 8A40     		lsls	r2, r2, r1
 265:Middlewares/lvgl/src/draw/lv_img_buf.c ****     }
 1210              		.loc 1 265 34 view .LVU446
 1211 00f0 0243     		orrs	r2, r2, r0
 265:Middlewares/lvgl/src/draw/lv_img_buf.c ****     }
 1212              		.loc 1 265 21 view .LVU447
 1213 00f2 1A55     		strb	r2, [r3, r4]
 1214              	.LBE73:
 1215 00f4 C3E7     		b	.L44
 1216              	.LVL154:
 1217              	.L59:
 1218              	.LBB74:
 268:Middlewares/lvgl/src/draw/lv_img_buf.c ****         uint8_t bit = (x & 0x3) * 2;
 1219              		.loc 1 268 9 is_stmt 1 view .LVU448
 268:Middlewares/lvgl/src/draw/lv_img_buf.c ****         uint8_t bit = (x & 0x3) * 2;
 1220              		.loc 1 268 16 is_stmt 0 view .LVU449
 1221 00f6 06F11003 		add	r3, r6, #16
 1222              	.LVL155:
 269:Middlewares/lvgl/src/draw/lv_img_buf.c ****         x           = x >> 2;
 1223              		.loc 1 269 9 is_stmt 1 view .LVU450
 269:Middlewares/lvgl/src/draw/lv_img_buf.c ****         x           = x >> 2;
 1224              		.loc 1 269 17 is_stmt 0 view .LVU451
ARM GAS  /tmp/ccTdGo64.s 			page 49


 1225 00fa 04F00302 		and	r2, r4, #3
 1226              	.LVL156:
 269:Middlewares/lvgl/src/draw/lv_img_buf.c ****         x           = x >> 2;
 1227              		.loc 1 269 17 view .LVU452
 1228 00fe 5100     		lsls	r1, r2, #1
 1229              	.LVL157:
 270:Middlewares/lvgl/src/draw/lv_img_buf.c **** 
 1230              		.loc 1 270 9 is_stmt 1 view .LVU453
 275:Middlewares/lvgl/src/draw/lv_img_buf.c **** 
 1231              		.loc 1 275 9 view .LVU454
 275:Middlewares/lvgl/src/draw/lv_img_buf.c **** 
 1232              		.loc 1 275 36 is_stmt 0 view .LVU455
 1233 0100 0268     		ldr	r2, [r0]
 1234 0102 C2F38A22 		ubfx	r2, r2, #10, #11
 275:Middlewares/lvgl/src/draw/lv_img_buf.c **** 
 1235              		.loc 1 275 39 view .LVU456
 1236 0106 0332     		adds	r2, r2, #3
 275:Middlewares/lvgl/src/draw/lv_img_buf.c **** 
 1237              		.loc 1 275 44 view .LVU457
 1238 0108 9210     		asrs	r2, r2, #2
 275:Middlewares/lvgl/src/draw/lv_img_buf.c **** 
 1239              		.loc 1 275 50 view .LVU458
 1240 010a 02FB07F7 		mul	r7, r2, r7
 275:Middlewares/lvgl/src/draw/lv_img_buf.c **** 
 1241              		.loc 1 275 54 view .LVU459
 1242 010e 07EBA404 		add	r4, r7, r4, asr #2
 1243              	.LVL158:
 277:Middlewares/lvgl/src/draw/lv_img_buf.c ****         buf_u8[px] = buf_u8[px] | ((c.full & 0x3) << (6 - bit));
 1244              		.loc 1 277 9 is_stmt 1 view .LVU460
 277:Middlewares/lvgl/src/draw/lv_img_buf.c ****         buf_u8[px] = buf_u8[px] | ((c.full & 0x3) << (6 - bit));
 1245              		.loc 1 277 28 is_stmt 0 view .LVU461
 1246 0112 1857     		ldrsb	r0, [r3, r4]
 1247              	.LVL159:
 277:Middlewares/lvgl/src/draw/lv_img_buf.c ****         buf_u8[px] = buf_u8[px] | ((c.full & 0x3) << (6 - bit));
 1248              		.loc 1 277 45 view .LVU462
 1249 0114 C1F10602 		rsb	r2, r1, #6
 277:Middlewares/lvgl/src/draw/lv_img_buf.c ****         buf_u8[px] = buf_u8[px] | ((c.full & 0x3) << (6 - bit));
 1250              		.loc 1 277 39 view .LVU463
 1251 0118 0321     		movs	r1, #3
 1252              	.LVL160:
 277:Middlewares/lvgl/src/draw/lv_img_buf.c ****         buf_u8[px] = buf_u8[px] | ((c.full & 0x3) << (6 - bit));
 1253              		.loc 1 277 39 view .LVU464
 1254 011a 9140     		lsls	r1, r1, r2
 277:Middlewares/lvgl/src/draw/lv_img_buf.c ****         buf_u8[px] = buf_u8[px] | ((c.full & 0x3) << (6 - bit));
 1255              		.loc 1 277 33 view .LVU465
 1256 011c 20EA0101 		bic	r1, r0, r1
 1257 0120 48B2     		sxtb	r0, r1
 277:Middlewares/lvgl/src/draw/lv_img_buf.c ****         buf_u8[px] = buf_u8[px] | ((c.full & 0x3) << (6 - bit));
 1258              		.loc 1 277 20 view .LVU466
 1259 0122 1955     		strb	r1, [r3, r4]
 278:Middlewares/lvgl/src/draw/lv_img_buf.c ****     }
 1260              		.loc 1 278 9 is_stmt 1 view .LVU467
 278:Middlewares/lvgl/src/draw/lv_img_buf.c ****     }
 1261              		.loc 1 278 38 is_stmt 0 view .LVU468
 1262 0124 BDF80410 		ldrh	r1, [sp, #4]
 278:Middlewares/lvgl/src/draw/lv_img_buf.c ****     }
 1263              		.loc 1 278 44 view .LVU469
ARM GAS  /tmp/ccTdGo64.s 			page 50


 1264 0128 01F00301 		and	r1, r1, #3
 278:Middlewares/lvgl/src/draw/lv_img_buf.c ****     }
 1265              		.loc 1 278 51 view .LVU470
 1266 012c 01FA02F2 		lsl	r2, r1, r2
 278:Middlewares/lvgl/src/draw/lv_img_buf.c ****     }
 1267              		.loc 1 278 33 view .LVU471
 1268 0130 0243     		orrs	r2, r2, r0
 278:Middlewares/lvgl/src/draw/lv_img_buf.c ****     }
 1269              		.loc 1 278 20 view .LVU472
 1270 0132 1A55     		strb	r2, [r3, r4]
 1271              	.LBE74:
 1272 0134 A3E7     		b	.L44
 1273              	.LVL161:
 1274              	.L60:
 1275              	.LBB75:
 281:Middlewares/lvgl/src/draw/lv_img_buf.c ****         uint8_t bit = (x & 0x1) * 4;
 1276              		.loc 1 281 9 is_stmt 1 view .LVU473
 281:Middlewares/lvgl/src/draw/lv_img_buf.c ****         uint8_t bit = (x & 0x1) * 4;
 1277              		.loc 1 281 16 is_stmt 0 view .LVU474
 1278 0136 06F14003 		add	r3, r6, #64
 1279              	.LVL162:
 282:Middlewares/lvgl/src/draw/lv_img_buf.c ****         x           = x >> 1;
 1280              		.loc 1 282 9 is_stmt 1 view .LVU475
 282:Middlewares/lvgl/src/draw/lv_img_buf.c ****         x           = x >> 1;
 1281              		.loc 1 282 17 is_stmt 0 view .LVU476
 1282 013a 04F00102 		and	r2, r4, #1
 1283              	.LVL163:
 282:Middlewares/lvgl/src/draw/lv_img_buf.c ****         x           = x >> 1;
 1284              		.loc 1 282 17 view .LVU477
 1285 013e 9100     		lsls	r1, r2, #2
 1286              	.LVL164:
 283:Middlewares/lvgl/src/draw/lv_img_buf.c **** 
 1287              		.loc 1 283 9 is_stmt 1 view .LVU478
 288:Middlewares/lvgl/src/draw/lv_img_buf.c ****         buf_u8[px]  = buf_u8[px] & ~(0xF << (4 - bit));
 1288              		.loc 1 288 9 view .LVU479
 288:Middlewares/lvgl/src/draw/lv_img_buf.c ****         buf_u8[px]  = buf_u8[px] & ~(0xF << (4 - bit));
 1289              		.loc 1 288 36 is_stmt 0 view .LVU480
 1290 0140 0268     		ldr	r2, [r0]
 1291 0142 C2F38A22 		ubfx	r2, r2, #10, #11
 288:Middlewares/lvgl/src/draw/lv_img_buf.c ****         buf_u8[px]  = buf_u8[px] & ~(0xF << (4 - bit));
 1292              		.loc 1 288 39 view .LVU481
 1293 0146 0132     		adds	r2, r2, #1
 288:Middlewares/lvgl/src/draw/lv_img_buf.c ****         buf_u8[px]  = buf_u8[px] & ~(0xF << (4 - bit));
 1294              		.loc 1 288 44 view .LVU482
 1295 0148 5210     		asrs	r2, r2, #1
 288:Middlewares/lvgl/src/draw/lv_img_buf.c ****         buf_u8[px]  = buf_u8[px] & ~(0xF << (4 - bit));
 1296              		.loc 1 288 50 view .LVU483
 1297 014a 02FB07F7 		mul	r7, r2, r7
 288:Middlewares/lvgl/src/draw/lv_img_buf.c ****         buf_u8[px]  = buf_u8[px] & ~(0xF << (4 - bit));
 1298              		.loc 1 288 54 view .LVU484
 1299 014e 07EB6404 		add	r4, r7, r4, asr #1
 1300              	.LVL165:
 289:Middlewares/lvgl/src/draw/lv_img_buf.c ****         buf_u8[px]  = buf_u8[px] | ((c.full & 0xF) << (4 - bit));
 1301              		.loc 1 289 9 is_stmt 1 view .LVU485
 289:Middlewares/lvgl/src/draw/lv_img_buf.c ****         buf_u8[px]  = buf_u8[px] | ((c.full & 0xF) << (4 - bit));
 1302              		.loc 1 289 29 is_stmt 0 view .LVU486
 1303 0152 1857     		ldrsb	r0, [r3, r4]
ARM GAS  /tmp/ccTdGo64.s 			page 51


 1304              	.LVL166:
 289:Middlewares/lvgl/src/draw/lv_img_buf.c ****         buf_u8[px]  = buf_u8[px] | ((c.full & 0xF) << (4 - bit));
 1305              		.loc 1 289 48 view .LVU487
 1306 0154 C1F10402 		rsb	r2, r1, #4
 289:Middlewares/lvgl/src/draw/lv_img_buf.c ****         buf_u8[px]  = buf_u8[px] | ((c.full & 0xF) << (4 - bit));
 1307              		.loc 1 289 42 view .LVU488
 1308 0158 0F21     		movs	r1, #15
 1309              	.LVL167:
 289:Middlewares/lvgl/src/draw/lv_img_buf.c ****         buf_u8[px]  = buf_u8[px] | ((c.full & 0xF) << (4 - bit));
 1310              		.loc 1 289 42 view .LVU489
 1311 015a 9140     		lsls	r1, r1, r2
 289:Middlewares/lvgl/src/draw/lv_img_buf.c ****         buf_u8[px]  = buf_u8[px] | ((c.full & 0xF) << (4 - bit));
 1312              		.loc 1 289 34 view .LVU490
 1313 015c 20EA0101 		bic	r1, r0, r1
 1314 0160 48B2     		sxtb	r0, r1
 289:Middlewares/lvgl/src/draw/lv_img_buf.c ****         buf_u8[px]  = buf_u8[px] | ((c.full & 0xF) << (4 - bit));
 1315              		.loc 1 289 21 view .LVU491
 1316 0162 1955     		strb	r1, [r3, r4]
 290:Middlewares/lvgl/src/draw/lv_img_buf.c ****     }
 1317              		.loc 1 290 9 is_stmt 1 view .LVU492
 290:Middlewares/lvgl/src/draw/lv_img_buf.c ****     }
 1318              		.loc 1 290 39 is_stmt 0 view .LVU493
 1319 0164 BDF80410 		ldrh	r1, [sp, #4]
 290:Middlewares/lvgl/src/draw/lv_img_buf.c ****     }
 1320              		.loc 1 290 45 view .LVU494
 1321 0168 01F00F01 		and	r1, r1, #15
 290:Middlewares/lvgl/src/draw/lv_img_buf.c ****     }
 1322              		.loc 1 290 52 view .LVU495
 1323 016c 01FA02F2 		lsl	r2, r1, r2
 290:Middlewares/lvgl/src/draw/lv_img_buf.c ****     }
 1324              		.loc 1 290 34 view .LVU496
 1325 0170 0243     		orrs	r2, r2, r0
 290:Middlewares/lvgl/src/draw/lv_img_buf.c ****     }
 1326              		.loc 1 290 21 view .LVU497
 1327 0172 1A55     		strb	r2, [r3, r4]
 1328              	.LBE75:
 1329 0174 83E7     		b	.L44
 1330              		.cfi_endproc
 1331              	.LFE51:
 1333              		.section	.text.lv_img_buf_set_palette,"ax",%progbits
 1334              		.align	1
 1335              		.global	lv_img_buf_set_palette
 1336              		.syntax unified
 1337              		.thumb
 1338              		.thumb_func
 1339              		.fpu fpv4-sp-d16
 1341              	lv_img_buf_set_palette:
 1342              	.LVL168:
 1343              	.LFB52:
 298:Middlewares/lvgl/src/draw/lv_img_buf.c **** 
 299:Middlewares/lvgl/src/draw/lv_img_buf.c **** /**
 300:Middlewares/lvgl/src/draw/lv_img_buf.c ****  * Set the palette color of an indexed image. Valid only for `LV_IMG_CF_INDEXED1/2/4/8`
 301:Middlewares/lvgl/src/draw/lv_img_buf.c ****  * @param dsc pointer to an image descriptor
 302:Middlewares/lvgl/src/draw/lv_img_buf.c ****  * @param id the palette color to set:
 303:Middlewares/lvgl/src/draw/lv_img_buf.c ****  *   - for `LV_IMG_CF_INDEXED1`: 0..1
 304:Middlewares/lvgl/src/draw/lv_img_buf.c ****  *   - for `LV_IMG_CF_INDEXED2`: 0..3
 305:Middlewares/lvgl/src/draw/lv_img_buf.c ****  *   - for `LV_IMG_CF_INDEXED4`: 0..15
ARM GAS  /tmp/ccTdGo64.s 			page 52


 306:Middlewares/lvgl/src/draw/lv_img_buf.c ****  *   - for `LV_IMG_CF_INDEXED8`: 0..255
 307:Middlewares/lvgl/src/draw/lv_img_buf.c ****  * @param c the color to set
 308:Middlewares/lvgl/src/draw/lv_img_buf.c ****  */
 309:Middlewares/lvgl/src/draw/lv_img_buf.c **** void lv_img_buf_set_palette(lv_img_dsc_t * dsc, uint8_t id, lv_color_t c)
 310:Middlewares/lvgl/src/draw/lv_img_buf.c **** {
 1344              		.loc 1 310 1 is_stmt 1 view -0
 1345              		.cfi_startproc
 1346              		@ args = 0, pretend = 0, frame = 8
 1347              		@ frame_needed = 0, uses_anonymous_args = 0
 1348              		@ link register save eliminated.
 311:Middlewares/lvgl/src/draw/lv_img_buf.c ****     if((dsc->header.cf == LV_IMG_CF_ALPHA_1BIT && id > 1) || (dsc->header.cf == LV_IMG_CF_ALPHA_2BI
 1349              		.loc 1 311 5 view .LVU499
 1350              		.loc 1 311 24 is_stmt 0 view .LVU500
 1351 0000 0378     		ldrb	r3, [r0]	@ zero_extendqisi2
 1352 0002 03F01F03 		and	r3, r3, #31
 1353              		.loc 1 311 7 view .LVU501
 1354 0006 0B2B     		cmp	r3, #11
 1355 0008 32D0     		beq	.L74
 1356              	.L62:
 1357              		.loc 1 311 59 discriminator 3 view .LVU502
 1358 000a 0C2B     		cmp	r3, #12
 1359 000c 33D0     		beq	.L75
 1360              	.L64:
 1361              		.loc 1 311 113 discriminator 6 view .LVU503
 1362 000e 0D2B     		cmp	r3, #13
 1363 0010 34D0     		beq	.L76
 1364              	.L65:
 312:Middlewares/lvgl/src/draw/lv_img_buf.c ****        (dsc->header.cf == LV_IMG_CF_ALPHA_4BIT && id > 15) || (dsc->header.cf == LV_IMG_CF_ALPHA_8B
 1365              		.loc 1 312 60 discriminator 1 view .LVU504
 1366 0012 0E2B     		cmp	r3, #14
 1367 0014 2ED0     		beq	.L71
 310:Middlewares/lvgl/src/draw/lv_img_buf.c ****     if((dsc->header.cf == LV_IMG_CF_ALPHA_1BIT && id > 1) || (dsc->header.cf == LV_IMG_CF_ALPHA_2BI
 1368              		.loc 1 310 1 view .LVU505
 1369 0016 10B4     		push	{r4}
 1370              	.LCFI13:
 1371              		.cfi_def_cfa_offset 4
 1372              		.cfi_offset 4, -4
 1373 0018 83B0     		sub	sp, sp, #12
 1374              	.LCFI14:
 1375              		.cfi_def_cfa_offset 16
 313:Middlewares/lvgl/src/draw/lv_img_buf.c ****         LV_LOG_WARN("lv_img_buf_set_px_alpha: invalid 'id'");
 314:Middlewares/lvgl/src/draw/lv_img_buf.c ****         return;
 315:Middlewares/lvgl/src/draw/lv_img_buf.c ****     }
 316:Middlewares/lvgl/src/draw/lv_img_buf.c **** 
 317:Middlewares/lvgl/src/draw/lv_img_buf.c ****     lv_color32_t c32;
 1376              		.loc 1 317 5 is_stmt 1 view .LVU506
 318:Middlewares/lvgl/src/draw/lv_img_buf.c ****     c32.full      = lv_color_to32(c);
 1377              		.loc 1 318 5 view .LVU507
 1378              	.LBB80:
 1379              	.LBI80:
 395:Middlewares/lvgl/src/draw/../misc/lv_color.h **** {
 1380              		.loc 2 395 24 view .LVU508
 1381              	.LBB81:
 439:Middlewares/lvgl/src/draw/../misc/lv_color.h ****     LV_COLOR_SET_R32(ret, (LV_COLOR_GET_R(color) * 263 + 7) >> 5);
 1382              		.loc 2 439 5 view .LVU509
 440:Middlewares/lvgl/src/draw/../misc/lv_color.h ****     LV_COLOR_SET_G32(ret, (LV_COLOR_GET_G(color) * 259 + 3) >> 6);
 1383              		.loc 2 440 5 view .LVU510
ARM GAS  /tmp/ccTdGo64.s 			page 53


 1384 001a C2F3C423 		ubfx	r3, r2, #11, #5
 1385 001e 03EB4314 		add	r4, r3, r3, lsl #5
 1386 0022 C3EBC403 		rsb	r3, r3, r4, lsl #3
 1387 0026 0733     		adds	r3, r3, #7
 1388 0028 C3F34713 		ubfx	r3, r3, #5, #8
 1389 002c 0024     		movs	r4, #0
 1390              	.LVL169:
 440:Middlewares/lvgl/src/draw/../misc/lv_color.h ****     LV_COLOR_SET_G32(ret, (LV_COLOR_GET_G(color) * 259 + 3) >> 6);
 1391              		.loc 2 440 5 is_stmt 0 view .LVU511
 1392 002e 63F31744 		bfi	r4, r3, #16, #8
 1393              	.LVL170:
 441:Middlewares/lvgl/src/draw/../misc/lv_color.h ****     LV_COLOR_SET_B32(ret, (LV_COLOR_GET_B(color) * 263 + 7) >> 5);
 1394              		.loc 2 441 5 is_stmt 1 view .LVU512
 1395 0032 C2F34513 		ubfx	r3, r2, #5, #6
 1396 0036 03EBC31C 		add	ip, r3, r3, lsl #7
 1397 003a 03EB4C03 		add	r3, r3, ip, lsl #1
 1398 003e 0333     		adds	r3, r3, #3
 1399 0040 C3F38713 		ubfx	r3, r3, #6, #8
 1400 0044 63F30F24 		bfi	r4, r3, #8, #8
 442:Middlewares/lvgl/src/draw/../misc/lv_color.h ****     LV_COLOR_SET_A32(ret, 0xFF);
 1401              		.loc 2 442 5 view .LVU513
 1402 0048 02F01F02 		and	r2, r2, #31
 1403              	.LVL171:
 442:Middlewares/lvgl/src/draw/../misc/lv_color.h ****     LV_COLOR_SET_A32(ret, 0xFF);
 1404              		.loc 2 442 5 is_stmt 0 view .LVU514
 1405 004c 02EB4213 		add	r3, r2, r2, lsl #5
 1406 0050 C2EBC302 		rsb	r2, r2, r3, lsl #3
 1407 0054 0732     		adds	r2, r2, #7
 1408 0056 C2F34712 		ubfx	r2, r2, #5, #8
 1409 005a 62F30704 		bfi	r4, r2, #0, #8
 443:Middlewares/lvgl/src/draw/../misc/lv_color.h ****     return ret.full;
 1410              		.loc 2 443 5 is_stmt 1 view .LVU515
 1411 005e 44F07F44 		orr	r4, r4, #-16777216
 1412              	.LVL172:
 444:Middlewares/lvgl/src/draw/../misc/lv_color.h **** #elif LV_COLOR_DEPTH == 32
 1413              		.loc 2 444 5 view .LVU516
 444:Middlewares/lvgl/src/draw/../misc/lv_color.h **** #elif LV_COLOR_DEPTH == 32
 1414              		.loc 2 444 5 is_stmt 0 view .LVU517
 1415              	.LBE81:
 1416              	.LBE80:
 1417              		.loc 1 318 19 view .LVU518
 1418 0062 0194     		str	r4, [sp, #4]
 319:Middlewares/lvgl/src/draw/lv_img_buf.c ****     uint8_t * buf = (uint8_t *)dsc->data;
 1419              		.loc 1 319 5 is_stmt 1 view .LVU519
 1420              		.loc 1 319 15 is_stmt 0 view .LVU520
 1421 0064 8368     		ldr	r3, [r0, #8]
 1422              	.LVL173:
 320:Middlewares/lvgl/src/draw/lv_img_buf.c ****     lv_memcpy_small(&buf[id * sizeof(c32)], &c32, sizeof(c32));
 1423              		.loc 1 320 5 is_stmt 1 view .LVU521
 1424              		.loc 1 320 21 is_stmt 0 view .LVU522
 1425 0066 03EB8101 		add	r1, r3, r1, lsl #2
 1426              	.LVL174:
 1427              	.LBB82:
 1428              	.LBI82:
 201:Middlewares/lvgl/src/draw/../misc/lv_mem.h **** {
 1429              		.loc 3 201 44 is_stmt 1 view .LVU523
 1430              	.LBB83:
ARM GAS  /tmp/ccTdGo64.s 			page 54


 203:Middlewares/lvgl/src/draw/../misc/lv_mem.h ****     const uint8_t * s8 = (const uint8_t *)src;
 1431              		.loc 3 203 5 view .LVU524
 204:Middlewares/lvgl/src/draw/../misc/lv_mem.h **** 
 1432              		.loc 3 204 5 view .LVU525
 206:Middlewares/lvgl/src/draw/../misc/lv_mem.h ****         *d8 = *s8;
 1433              		.loc 3 206 5 view .LVU526
 204:Middlewares/lvgl/src/draw/../misc/lv_mem.h **** 
 1434              		.loc 3 204 21 is_stmt 0 view .LVU527
 1435 006a 01AA     		add	r2, sp, #4
 1436              	.LVL175:
 206:Middlewares/lvgl/src/draw/../misc/lv_mem.h ****         *d8 = *s8;
 1437              		.loc 3 206 10 view .LVU528
 1438 006c 0423     		movs	r3, #4
 1439              	.LVL176:
 206:Middlewares/lvgl/src/draw/../misc/lv_mem.h ****         *d8 = *s8;
 1440              		.loc 3 206 10 view .LVU529
 1441 006e 0DE0     		b	.L68
 1442              	.LVL177:
 1443              	.L74:
 1444              	.LCFI15:
 1445              		.cfi_def_cfa_offset 0
 1446              		.cfi_restore 4
 206:Middlewares/lvgl/src/draw/../misc/lv_mem.h ****         *d8 = *s8;
 1447              		.loc 3 206 10 view .LVU530
 1448              	.LBE83:
 1449              	.LBE82:
 311:Middlewares/lvgl/src/draw/lv_img_buf.c ****        (dsc->header.cf == LV_IMG_CF_ALPHA_4BIT && id > 15) || (dsc->header.cf == LV_IMG_CF_ALPHA_8B
 1450              		.loc 1 311 48 discriminator 1 view .LVU531
 1451 0070 0129     		cmp	r1, #1
 1452 0072 CAD9     		bls	.L62
 1453              	.L71:
 1454 0074 7047     		bx	lr
 1455              	.L75:
 311:Middlewares/lvgl/src/draw/lv_img_buf.c ****        (dsc->header.cf == LV_IMG_CF_ALPHA_4BIT && id > 15) || (dsc->header.cf == LV_IMG_CF_ALPHA_8B
 1456              		.loc 1 311 102 discriminator 4 view .LVU532
 1457 0076 0329     		cmp	r1, #3
 1458 0078 C9D9     		bls	.L64
 1459 007a FBE7     		b	.L71
 1460              	.L76:
 312:Middlewares/lvgl/src/draw/lv_img_buf.c ****         LV_LOG_WARN("lv_img_buf_set_px_alpha: invalid 'id'");
 1461              		.loc 1 312 48 view .LVU533
 1462 007c 0F29     		cmp	r1, #15
 1463 007e C8D9     		bls	.L65
 1464 0080 F8E7     		b	.L71
 1465              	.LVL178:
 1466              	.L69:
 1467              	.LCFI16:
 1468              		.cfi_def_cfa_offset 16
 1469              		.cfi_offset 4, -4
 1470              	.LBB85:
 1471              	.LBB84:
 207:Middlewares/lvgl/src/draw/../misc/lv_mem.h ****         d8++;
 1472              		.loc 3 207 9 is_stmt 1 view .LVU534
 207:Middlewares/lvgl/src/draw/../misc/lv_mem.h ****         d8++;
 1473              		.loc 3 207 15 is_stmt 0 view .LVU535
 1474 0082 12F8010B 		ldrb	r0, [r2], #1	@ zero_extendqisi2
 1475              	.LVL179:
ARM GAS  /tmp/ccTdGo64.s 			page 55


 207:Middlewares/lvgl/src/draw/../misc/lv_mem.h ****         d8++;
 1476              		.loc 3 207 13 view .LVU536
 1477 0086 01F8010B 		strb	r0, [r1], #1
 1478              	.LVL180:
 208:Middlewares/lvgl/src/draw/../misc/lv_mem.h ****         s8++;
 1479              		.loc 3 208 9 is_stmt 1 view .LVU537
 209:Middlewares/lvgl/src/draw/../misc/lv_mem.h ****         len--;
 1480              		.loc 3 209 9 view .LVU538
 1481              		.loc 3 210 9 view .LVU539
 1482              		.loc 3 210 12 is_stmt 0 view .LVU540
 1483 008a 013B     		subs	r3, r3, #1
 1484              	.LVL181:
 1485              	.L68:
 206:Middlewares/lvgl/src/draw/../misc/lv_mem.h ****         *d8 = *s8;
 1486              		.loc 3 206 10 is_stmt 1 view .LVU541
 1487 008c 002B     		cmp	r3, #0
 1488 008e F8D1     		bne	.L69
 206:Middlewares/lvgl/src/draw/../misc/lv_mem.h ****         *d8 = *s8;
 1489              		.loc 3 206 10 is_stmt 0 view .LVU542
 1490              	.LBE84:
 1491              	.LBE85:
 321:Middlewares/lvgl/src/draw/lv_img_buf.c **** }
 1492              		.loc 1 321 1 view .LVU543
 1493 0090 03B0     		add	sp, sp, #12
 1494              	.LCFI17:
 1495              		.cfi_def_cfa_offset 4
 1496              		@ sp needed
 1497 0092 5DF8044B 		ldr	r4, [sp], #4
 1498              	.LCFI18:
 1499              		.cfi_restore 4
 1500              		.cfi_def_cfa_offset 0
 1501              	.LVL182:
 1502              		.loc 1 321 1 view .LVU544
 1503 0096 7047     		bx	lr
 1504              		.cfi_endproc
 1505              	.LFE52:
 1507              		.section	.text.lv_img_buf_free,"ax",%progbits
 1508              		.align	1
 1509              		.global	lv_img_buf_free
 1510              		.syntax unified
 1511              		.thumb
 1512              		.thumb_func
 1513              		.fpu fpv4-sp-d16
 1515              	lv_img_buf_free:
 1516              	.LVL183:
 1517              	.LFB54:
 322:Middlewares/lvgl/src/draw/lv_img_buf.c **** 
 323:Middlewares/lvgl/src/draw/lv_img_buf.c **** /**
 324:Middlewares/lvgl/src/draw/lv_img_buf.c ****  * Allocate an image buffer in RAM
 325:Middlewares/lvgl/src/draw/lv_img_buf.c ****  * @param w width of image
 326:Middlewares/lvgl/src/draw/lv_img_buf.c ****  * @param h height of image
 327:Middlewares/lvgl/src/draw/lv_img_buf.c ****  * @param cf a color format (`LV_IMG_CF_...`)
 328:Middlewares/lvgl/src/draw/lv_img_buf.c ****  * @return an allocated image, or NULL on failure
 329:Middlewares/lvgl/src/draw/lv_img_buf.c ****  */
 330:Middlewares/lvgl/src/draw/lv_img_buf.c **** lv_img_dsc_t * lv_img_buf_alloc(lv_coord_t w, lv_coord_t h, lv_img_cf_t cf)
 331:Middlewares/lvgl/src/draw/lv_img_buf.c **** {
 332:Middlewares/lvgl/src/draw/lv_img_buf.c ****     /*Allocate image descriptor*/
ARM GAS  /tmp/ccTdGo64.s 			page 56


 333:Middlewares/lvgl/src/draw/lv_img_buf.c ****     lv_img_dsc_t * dsc = lv_mem_alloc(sizeof(lv_img_dsc_t));
 334:Middlewares/lvgl/src/draw/lv_img_buf.c ****     if(dsc == NULL)
 335:Middlewares/lvgl/src/draw/lv_img_buf.c ****         return NULL;
 336:Middlewares/lvgl/src/draw/lv_img_buf.c **** 
 337:Middlewares/lvgl/src/draw/lv_img_buf.c ****     lv_memset_00(dsc, sizeof(lv_img_dsc_t));
 338:Middlewares/lvgl/src/draw/lv_img_buf.c **** 
 339:Middlewares/lvgl/src/draw/lv_img_buf.c ****     /*Get image data size*/
 340:Middlewares/lvgl/src/draw/lv_img_buf.c ****     dsc->data_size = lv_img_buf_get_img_size(w, h, cf);
 341:Middlewares/lvgl/src/draw/lv_img_buf.c ****     if(dsc->data_size == 0) {
 342:Middlewares/lvgl/src/draw/lv_img_buf.c ****         lv_mem_free(dsc);
 343:Middlewares/lvgl/src/draw/lv_img_buf.c ****         return NULL;
 344:Middlewares/lvgl/src/draw/lv_img_buf.c ****     }
 345:Middlewares/lvgl/src/draw/lv_img_buf.c **** 
 346:Middlewares/lvgl/src/draw/lv_img_buf.c ****     /*Allocate raw buffer*/
 347:Middlewares/lvgl/src/draw/lv_img_buf.c ****     dsc->data = lv_mem_alloc(dsc->data_size);
 348:Middlewares/lvgl/src/draw/lv_img_buf.c ****     if(dsc->data == NULL) {
 349:Middlewares/lvgl/src/draw/lv_img_buf.c ****         lv_mem_free(dsc);
 350:Middlewares/lvgl/src/draw/lv_img_buf.c ****         return NULL;
 351:Middlewares/lvgl/src/draw/lv_img_buf.c ****     }
 352:Middlewares/lvgl/src/draw/lv_img_buf.c ****     lv_memset_00((uint8_t *)dsc->data, dsc->data_size);
 353:Middlewares/lvgl/src/draw/lv_img_buf.c **** 
 354:Middlewares/lvgl/src/draw/lv_img_buf.c ****     /*Fill in header*/
 355:Middlewares/lvgl/src/draw/lv_img_buf.c ****     dsc->header.always_zero = 0;
 356:Middlewares/lvgl/src/draw/lv_img_buf.c ****     dsc->header.w = w;
 357:Middlewares/lvgl/src/draw/lv_img_buf.c ****     dsc->header.h = h;
 358:Middlewares/lvgl/src/draw/lv_img_buf.c ****     dsc->header.cf = cf;
 359:Middlewares/lvgl/src/draw/lv_img_buf.c ****     return dsc;
 360:Middlewares/lvgl/src/draw/lv_img_buf.c **** }
 361:Middlewares/lvgl/src/draw/lv_img_buf.c **** 
 362:Middlewares/lvgl/src/draw/lv_img_buf.c **** /**
 363:Middlewares/lvgl/src/draw/lv_img_buf.c ****  * Free an allocated image buffer
 364:Middlewares/lvgl/src/draw/lv_img_buf.c ****  * @param dsc image buffer to free
 365:Middlewares/lvgl/src/draw/lv_img_buf.c ****  */
 366:Middlewares/lvgl/src/draw/lv_img_buf.c **** void lv_img_buf_free(lv_img_dsc_t * dsc)
 367:Middlewares/lvgl/src/draw/lv_img_buf.c **** {
 1518              		.loc 1 367 1 is_stmt 1 view -0
 1519              		.cfi_startproc
 1520              		@ args = 0, pretend = 0, frame = 0
 1521              		@ frame_needed = 0, uses_anonymous_args = 0
 368:Middlewares/lvgl/src/draw/lv_img_buf.c ****     if(dsc != NULL) {
 1522              		.loc 1 368 5 view .LVU546
 1523              		.loc 1 368 7 is_stmt 0 view .LVU547
 1524 0000 48B1     		cbz	r0, .L81
 367:Middlewares/lvgl/src/draw/lv_img_buf.c ****     if(dsc != NULL) {
 1525              		.loc 1 367 1 view .LVU548
 1526 0002 10B5     		push	{r4, lr}
 1527              	.LCFI19:
 1528              		.cfi_def_cfa_offset 8
 1529              		.cfi_offset 4, -8
 1530              		.cfi_offset 14, -4
 1531 0004 0446     		mov	r4, r0
 369:Middlewares/lvgl/src/draw/lv_img_buf.c ****         if(dsc->data != NULL)
 1532              		.loc 1 369 9 is_stmt 1 view .LVU549
 1533              		.loc 1 369 15 is_stmt 0 view .LVU550
 1534 0006 8068     		ldr	r0, [r0, #8]
 1535              	.LVL184:
 1536              		.loc 1 369 11 view .LVU551
ARM GAS  /tmp/ccTdGo64.s 			page 57


 1537 0008 08B1     		cbz	r0, .L79
 370:Middlewares/lvgl/src/draw/lv_img_buf.c ****             lv_mem_free((void*)dsc->data);
 1538              		.loc 1 370 13 is_stmt 1 view .LVU552
 1539 000a FFF7FEFF 		bl	lv_mem_free
 1540              	.LVL185:
 1541              	.L79:
 371:Middlewares/lvgl/src/draw/lv_img_buf.c **** 
 372:Middlewares/lvgl/src/draw/lv_img_buf.c ****         lv_mem_free(dsc);
 1542              		.loc 1 372 9 view .LVU553
 1543 000e 2046     		mov	r0, r4
 1544 0010 FFF7FEFF 		bl	lv_mem_free
 1545              	.LVL186:
 373:Middlewares/lvgl/src/draw/lv_img_buf.c ****     }
 374:Middlewares/lvgl/src/draw/lv_img_buf.c **** }
 1546              		.loc 1 374 1 is_stmt 0 view .LVU554
 1547 0014 10BD     		pop	{r4, pc}
 1548              	.LVL187:
 1549              	.L81:
 1550              	.LCFI20:
 1551              		.cfi_def_cfa_offset 0
 1552              		.cfi_restore 4
 1553              		.cfi_restore 14
 1554              		.loc 1 374 1 view .LVU555
 1555 0016 7047     		bx	lr
 1556              		.cfi_endproc
 1557              	.LFE54:
 1559              		.section	.text.lv_img_buf_get_img_size,"ax",%progbits
 1560              		.align	1
 1561              		.global	lv_img_buf_get_img_size
 1562              		.syntax unified
 1563              		.thumb
 1564              		.thumb_func
 1565              		.fpu fpv4-sp-d16
 1567              	lv_img_buf_get_img_size:
 1568              	.LVL188:
 1569              	.LFB55:
 375:Middlewares/lvgl/src/draw/lv_img_buf.c **** 
 376:Middlewares/lvgl/src/draw/lv_img_buf.c **** /**
 377:Middlewares/lvgl/src/draw/lv_img_buf.c ****  * Get the memory consumption of a raw bitmap, given color format and dimensions.
 378:Middlewares/lvgl/src/draw/lv_img_buf.c ****  * @param w width
 379:Middlewares/lvgl/src/draw/lv_img_buf.c ****  * @param h height
 380:Middlewares/lvgl/src/draw/lv_img_buf.c ****  * @param cf color format
 381:Middlewares/lvgl/src/draw/lv_img_buf.c ****  * @return size in bytes
 382:Middlewares/lvgl/src/draw/lv_img_buf.c ****  */
 383:Middlewares/lvgl/src/draw/lv_img_buf.c **** uint32_t lv_img_buf_get_img_size(lv_coord_t w, lv_coord_t h, lv_img_cf_t cf)
 384:Middlewares/lvgl/src/draw/lv_img_buf.c **** {
 1570              		.loc 1 384 1 is_stmt 1 view -0
 1571              		.cfi_startproc
 1572              		@ args = 0, pretend = 0, frame = 0
 1573              		@ frame_needed = 0, uses_anonymous_args = 0
 1574              		@ link register save eliminated.
 1575              		.loc 1 384 1 is_stmt 0 view .LVU557
 1576 0000 0346     		mov	r3, r0
 385:Middlewares/lvgl/src/draw/lv_img_buf.c ****     switch(cf) {
 1577              		.loc 1 385 5 is_stmt 1 view .LVU558
 1578 0002 043A     		subs	r2, r2, #4
 1579              	.LVL189:
ARM GAS  /tmp/ccTdGo64.s 			page 58


 1580              		.loc 1 385 5 is_stmt 0 view .LVU559
 1581 0004 0A2A     		cmp	r2, #10
 1582 0006 50D8     		bhi	.L102
 1583 0008 DFE802F0 		tbb	[pc, r2]
 1584              	.LVL190:
 1585              	.L87:
 1586 000c 06       		.byte	(.L97-.L87)/2
 1587 000d 0A       		.byte	(.L96-.L87)/2
 1588 000e 0F       		.byte	(.L95-.L87)/2
 1589 000f 2E       		.byte	(.L94-.L87)/2
 1590 0010 38       		.byte	(.L93-.L87)/2
 1591 0011 42       		.byte	(.L92-.L87)/2
 1592 0012 4A       		.byte	(.L91-.L87)/2
 1593 0013 13       		.byte	(.L90-.L87)/2
 1594 0014 1C       		.byte	(.L89-.L87)/2
 1595 0015 25       		.byte	(.L88-.L87)/2
 1596 0016 2B       		.byte	(.L86-.L87)/2
 1597 0017 00       		.p2align 1
 1598              	.L97:
 386:Middlewares/lvgl/src/draw/lv_img_buf.c ****         case LV_IMG_CF_TRUE_COLOR:
 387:Middlewares/lvgl/src/draw/lv_img_buf.c ****             return LV_IMG_BUF_SIZE_TRUE_COLOR(w, h);
 1599              		.loc 1 387 13 is_stmt 1 view .LVU560
 1600              		.loc 1 387 20 is_stmt 0 view .LVU561
 1601 0018 01FB03F0 		mul	r0, r1, r3
 1602 001c 4000     		lsls	r0, r0, #1
 1603 001e 7047     		bx	lr
 1604              	.L96:
 388:Middlewares/lvgl/src/draw/lv_img_buf.c ****         case LV_IMG_CF_TRUE_COLOR_ALPHA:
 389:Middlewares/lvgl/src/draw/lv_img_buf.c ****             return LV_IMG_BUF_SIZE_TRUE_COLOR_ALPHA(w, h);
 1605              		.loc 1 389 13 is_stmt 1 view .LVU562
 1606              		.loc 1 389 20 is_stmt 0 view .LVU563
 1607 0020 01FB03F0 		mul	r0, r1, r3
 1608 0024 00EB4000 		add	r0, r0, r0, lsl #1
 1609 0028 7047     		bx	lr
 1610              	.L95:
 390:Middlewares/lvgl/src/draw/lv_img_buf.c ****         case LV_IMG_CF_TRUE_COLOR_CHROMA_KEYED:
 391:Middlewares/lvgl/src/draw/lv_img_buf.c ****             return LV_IMG_BUF_SIZE_TRUE_COLOR_CHROMA_KEYED(w, h);
 1611              		.loc 1 391 13 is_stmt 1 view .LVU564
 1612              		.loc 1 391 20 is_stmt 0 view .LVU565
 1613 002a 01FB03F0 		mul	r0, r1, r3
 1614 002e 4000     		lsls	r0, r0, #1
 1615 0030 7047     		bx	lr
 1616              	.L90:
 392:Middlewares/lvgl/src/draw/lv_img_buf.c ****         case LV_IMG_CF_ALPHA_1BIT:
 393:Middlewares/lvgl/src/draw/lv_img_buf.c ****             return LV_IMG_BUF_SIZE_ALPHA_1BIT(w, h);
 1617              		.loc 1 393 13 is_stmt 1 view .LVU566
 1618              		.loc 1 393 20 is_stmt 0 view .LVU567
 1619 0032 1846     		mov	r0, r3
 1620 0034 002B     		cmp	r3, #0
 1621 0036 03DB     		blt	.L103
 1622              	.L98:
 1623 0038 C010     		asrs	r0, r0, #3
 1624 003a 00FB0110 		mla	r0, r0, r1, r1
 1625 003e 7047     		bx	lr
 1626              	.L103:
 1627 0040 D81D     		adds	r0, r3, #7
 1628 0042 F9E7     		b	.L98
ARM GAS  /tmp/ccTdGo64.s 			page 59


 1629              	.L89:
 394:Middlewares/lvgl/src/draw/lv_img_buf.c ****         case LV_IMG_CF_ALPHA_2BIT:
 395:Middlewares/lvgl/src/draw/lv_img_buf.c ****             return LV_IMG_BUF_SIZE_ALPHA_2BIT(w, h);
 1630              		.loc 1 395 13 is_stmt 1 view .LVU568
 1631              		.loc 1 395 20 is_stmt 0 view .LVU569
 1632 0044 1846     		mov	r0, r3
 1633 0046 002B     		cmp	r3, #0
 1634 0048 03DB     		blt	.L104
 1635              	.L99:
 1636 004a 8010     		asrs	r0, r0, #2
 1637 004c 00FB0110 		mla	r0, r0, r1, r1
 1638 0050 7047     		bx	lr
 1639              	.L104:
 1640 0052 D81C     		adds	r0, r3, #3
 1641 0054 F9E7     		b	.L99
 1642              	.L88:
 396:Middlewares/lvgl/src/draw/lv_img_buf.c ****         case LV_IMG_CF_ALPHA_4BIT:
 397:Middlewares/lvgl/src/draw/lv_img_buf.c ****             return LV_IMG_BUF_SIZE_ALPHA_4BIT(w, h);
 1643              		.loc 1 397 13 is_stmt 1 view .LVU570
 1644              		.loc 1 397 20 is_stmt 0 view .LVU571
 1645 0056 03EBD370 		add	r0, r3, r3, lsr #31
 1646 005a 4010     		asrs	r0, r0, #1
 1647 005c 00FB0110 		mla	r0, r0, r1, r1
 1648 0060 7047     		bx	lr
 1649              	.L86:
 398:Middlewares/lvgl/src/draw/lv_img_buf.c ****         case LV_IMG_CF_ALPHA_8BIT:
 399:Middlewares/lvgl/src/draw/lv_img_buf.c ****             return LV_IMG_BUF_SIZE_ALPHA_8BIT(w, h);
 1650              		.loc 1 399 13 is_stmt 1 view .LVU572
 1651              		.loc 1 399 20 is_stmt 0 view .LVU573
 1652 0062 01FB03F0 		mul	r0, r1, r3
 1653 0066 7047     		bx	lr
 1654              	.L94:
 400:Middlewares/lvgl/src/draw/lv_img_buf.c ****         case LV_IMG_CF_INDEXED_1BIT:
 401:Middlewares/lvgl/src/draw/lv_img_buf.c ****             return LV_IMG_BUF_SIZE_INDEXED_1BIT(w, h);
 1655              		.loc 1 401 13 is_stmt 1 view .LVU574
 1656              		.loc 1 401 20 is_stmt 0 view .LVU575
 1657 0068 1846     		mov	r0, r3
 1658 006a 002B     		cmp	r3, #0
 1659 006c 04DB     		blt	.L105
 1660              	.L100:
 1661 006e C010     		asrs	r0, r0, #3
 1662 0070 00FB0110 		mla	r0, r0, r1, r1
 1663 0074 0830     		adds	r0, r0, #8
 1664 0076 7047     		bx	lr
 1665              	.L105:
 1666 0078 D81D     		adds	r0, r3, #7
 1667 007a F8E7     		b	.L100
 1668              	.L93:
 402:Middlewares/lvgl/src/draw/lv_img_buf.c ****         case LV_IMG_CF_INDEXED_2BIT:
 403:Middlewares/lvgl/src/draw/lv_img_buf.c ****             return LV_IMG_BUF_SIZE_INDEXED_2BIT(w, h);
 1669              		.loc 1 403 13 is_stmt 1 view .LVU576
 1670              		.loc 1 403 20 is_stmt 0 view .LVU577
 1671 007c 1846     		mov	r0, r3
 1672 007e 002B     		cmp	r3, #0
 1673 0080 04DB     		blt	.L106
 1674              	.L101:
 1675 0082 8010     		asrs	r0, r0, #2
ARM GAS  /tmp/ccTdGo64.s 			page 60


 1676 0084 00FB0110 		mla	r0, r0, r1, r1
 1677 0088 1030     		adds	r0, r0, #16
 1678 008a 7047     		bx	lr
 1679              	.L106:
 1680 008c D81C     		adds	r0, r3, #3
 1681 008e F8E7     		b	.L101
 1682              	.L92:
 404:Middlewares/lvgl/src/draw/lv_img_buf.c ****         case LV_IMG_CF_INDEXED_4BIT:
 405:Middlewares/lvgl/src/draw/lv_img_buf.c ****             return LV_IMG_BUF_SIZE_INDEXED_4BIT(w, h);
 1683              		.loc 1 405 13 is_stmt 1 view .LVU578
 1684              		.loc 1 405 20 is_stmt 0 view .LVU579
 1685 0090 03EBD370 		add	r0, r3, r3, lsr #31
 1686 0094 4010     		asrs	r0, r0, #1
 1687 0096 00FB0111 		mla	r1, r0, r1, r1
 1688              	.LVL191:
 1689              		.loc 1 405 20 view .LVU580
 1690 009a 01F14000 		add	r0, r1, #64
 1691 009e 7047     		bx	lr
 1692              	.LVL192:
 1693              	.L91:
 406:Middlewares/lvgl/src/draw/lv_img_buf.c ****         case LV_IMG_CF_INDEXED_8BIT:
 407:Middlewares/lvgl/src/draw/lv_img_buf.c ****             return LV_IMG_BUF_SIZE_INDEXED_8BIT(w, h);
 1694              		.loc 1 407 13 is_stmt 1 view .LVU581
 1695              		.loc 1 407 20 is_stmt 0 view .LVU582
 1696 00a0 01FB03F0 		mul	r0, r1, r3
 1697 00a4 00F58060 		add	r0, r0, #1024
 1698 00a8 7047     		bx	lr
 1699              	.L102:
 384:Middlewares/lvgl/src/draw/lv_img_buf.c ****     switch(cf) {
 1700              		.loc 1 384 1 view .LVU583
 1701 00aa 0020     		movs	r0, #0
 408:Middlewares/lvgl/src/draw/lv_img_buf.c ****         default:
 409:Middlewares/lvgl/src/draw/lv_img_buf.c ****             return 0;
 410:Middlewares/lvgl/src/draw/lv_img_buf.c ****     }
 411:Middlewares/lvgl/src/draw/lv_img_buf.c **** }
 1702              		.loc 1 411 1 view .LVU584
 1703 00ac 7047     		bx	lr
 1704              		.cfi_endproc
 1705              	.LFE55:
 1707              		.section	.text.lv_img_buf_alloc,"ax",%progbits
 1708              		.align	1
 1709              		.global	lv_img_buf_alloc
 1710              		.syntax unified
 1711              		.thumb
 1712              		.thumb_func
 1713              		.fpu fpv4-sp-d16
 1715              	lv_img_buf_alloc:
 1716              	.LVL193:
 1717              	.LFB53:
 331:Middlewares/lvgl/src/draw/lv_img_buf.c ****     /*Allocate image descriptor*/
 1718              		.loc 1 331 1 is_stmt 1 view -0
 1719              		.cfi_startproc
 1720              		@ args = 0, pretend = 0, frame = 0
 1721              		@ frame_needed = 0, uses_anonymous_args = 0
 331:Middlewares/lvgl/src/draw/lv_img_buf.c ****     /*Allocate image descriptor*/
 1722              		.loc 1 331 1 is_stmt 0 view .LVU586
 1723 0000 2DE9F041 		push	{r4, r5, r6, r7, r8, lr}
ARM GAS  /tmp/ccTdGo64.s 			page 61


 1724              	.LCFI21:
 1725              		.cfi_def_cfa_offset 24
 1726              		.cfi_offset 4, -24
 1727              		.cfi_offset 5, -20
 1728              		.cfi_offset 6, -16
 1729              		.cfi_offset 7, -12
 1730              		.cfi_offset 8, -8
 1731              		.cfi_offset 14, -4
 1732 0004 0746     		mov	r7, r0
 1733 0006 0E46     		mov	r6, r1
 1734 0008 1546     		mov	r5, r2
 333:Middlewares/lvgl/src/draw/lv_img_buf.c ****     if(dsc == NULL)
 1735              		.loc 1 333 5 is_stmt 1 view .LVU587
 333:Middlewares/lvgl/src/draw/lv_img_buf.c ****     if(dsc == NULL)
 1736              		.loc 1 333 26 is_stmt 0 view .LVU588
 1737 000a 0C20     		movs	r0, #12
 1738              	.LVL194:
 333:Middlewares/lvgl/src/draw/lv_img_buf.c ****     if(dsc == NULL)
 1739              		.loc 1 333 26 view .LVU589
 1740 000c FFF7FEFF 		bl	lv_mem_alloc
 1741              	.LVL195:
 334:Middlewares/lvgl/src/draw/lv_img_buf.c ****         return NULL;
 1742              		.loc 1 334 5 is_stmt 1 view .LVU590
 334:Middlewares/lvgl/src/draw/lv_img_buf.c ****         return NULL;
 1743              		.loc 1 334 7 is_stmt 0 view .LVU591
 1744 0010 0446     		mov	r4, r0
 1745 0012 08B3     		cbz	r0, .L107
 337:Middlewares/lvgl/src/draw/lv_img_buf.c **** 
 1746              		.loc 1 337 5 is_stmt 1 view .LVU592
 1747 0014 0C21     		movs	r1, #12
 1748 0016 FFF7FEFF 		bl	lv_memset_00
 1749              	.LVL196:
 340:Middlewares/lvgl/src/draw/lv_img_buf.c ****     if(dsc->data_size == 0) {
 1750              		.loc 1 340 5 view .LVU593
 340:Middlewares/lvgl/src/draw/lv_img_buf.c ****     if(dsc->data_size == 0) {
 1751              		.loc 1 340 22 is_stmt 0 view .LVU594
 1752 001a 2A46     		mov	r2, r5
 1753 001c 3146     		mov	r1, r6
 1754 001e 3846     		mov	r0, r7
 1755 0020 FFF7FEFF 		bl	lv_img_buf_get_img_size
 1756              	.LVL197:
 340:Middlewares/lvgl/src/draw/lv_img_buf.c ****     if(dsc->data_size == 0) {
 1757              		.loc 1 340 20 view .LVU595
 1758 0024 6060     		str	r0, [r4, #4]
 341:Middlewares/lvgl/src/draw/lv_img_buf.c ****         lv_mem_free(dsc);
 1759              		.loc 1 341 5 is_stmt 1 view .LVU596
 341:Middlewares/lvgl/src/draw/lv_img_buf.c ****         lv_mem_free(dsc);
 1760              		.loc 1 341 7 is_stmt 0 view .LVU597
 1761 0026 D0B1     		cbz	r0, .L112
 347:Middlewares/lvgl/src/draw/lv_img_buf.c ****     if(dsc->data == NULL) {
 1762              		.loc 1 347 5 is_stmt 1 view .LVU598
 347:Middlewares/lvgl/src/draw/lv_img_buf.c ****     if(dsc->data == NULL) {
 1763              		.loc 1 347 17 is_stmt 0 view .LVU599
 1764 0028 FFF7FEFF 		bl	lv_mem_alloc
 1765              	.LVL198:
 1766 002c 8046     		mov	r8, r0
 347:Middlewares/lvgl/src/draw/lv_img_buf.c ****     if(dsc->data == NULL) {
ARM GAS  /tmp/ccTdGo64.s 			page 62


 1767              		.loc 1 347 15 view .LVU600
 1768 002e A060     		str	r0, [r4, #8]
 348:Middlewares/lvgl/src/draw/lv_img_buf.c ****         lv_mem_free(dsc);
 1769              		.loc 1 348 5 is_stmt 1 view .LVU601
 348:Middlewares/lvgl/src/draw/lv_img_buf.c ****         lv_mem_free(dsc);
 1770              		.loc 1 348 7 is_stmt 0 view .LVU602
 1771 0030 D0B1     		cbz	r0, .L113
 352:Middlewares/lvgl/src/draw/lv_img_buf.c **** 
 1772              		.loc 1 352 5 is_stmt 1 view .LVU603
 1773 0032 6168     		ldr	r1, [r4, #4]
 1774 0034 FFF7FEFF 		bl	lv_memset_00
 1775              	.LVL199:
 355:Middlewares/lvgl/src/draw/lv_img_buf.c ****     dsc->header.w = w;
 1776              		.loc 1 355 5 view .LVU604
 355:Middlewares/lvgl/src/draw/lv_img_buf.c ****     dsc->header.w = w;
 1777              		.loc 1 355 29 is_stmt 0 view .LVU605
 1778 0038 2378     		ldrb	r3, [r4]	@ zero_extendqisi2
 1779 003a 6FF34713 		bfc	r3, #5, #3
 1780 003e 2370     		strb	r3, [r4]
 356:Middlewares/lvgl/src/draw/lv_img_buf.c ****     dsc->header.h = h;
 1781              		.loc 1 356 5 is_stmt 1 view .LVU606
 356:Middlewares/lvgl/src/draw/lv_img_buf.c ****     dsc->header.h = h;
 1782              		.loc 1 356 19 is_stmt 0 view .LVU607
 1783 0040 2368     		ldr	r3, [r4]
 1784 0042 67F39423 		bfi	r3, r7, #10, #11
 1785 0046 2360     		str	r3, [r4]
 357:Middlewares/lvgl/src/draw/lv_img_buf.c ****     dsc->header.cf = cf;
 1786              		.loc 1 357 5 is_stmt 1 view .LVU608
 357:Middlewares/lvgl/src/draw/lv_img_buf.c ****     dsc->header.cf = cf;
 1787              		.loc 1 357 19 is_stmt 0 view .LVU609
 1788 0048 6388     		ldrh	r3, [r4, #2]
 1789 004a 66F34F13 		bfi	r3, r6, #5, #11
 1790 004e 6380     		strh	r3, [r4, #2]	@ movhi
 358:Middlewares/lvgl/src/draw/lv_img_buf.c ****     return dsc;
 1791              		.loc 1 358 5 is_stmt 1 view .LVU610
 358:Middlewares/lvgl/src/draw/lv_img_buf.c ****     return dsc;
 1792              		.loc 1 358 20 is_stmt 0 view .LVU611
 1793 0050 2378     		ldrb	r3, [r4]	@ zero_extendqisi2
 1794 0052 65F30403 		bfi	r3, r5, #0, #5
 1795 0056 2370     		strb	r3, [r4]
 359:Middlewares/lvgl/src/draw/lv_img_buf.c **** }
 1796              		.loc 1 359 5 is_stmt 1 view .LVU612
 1797              	.LVL200:
 1798              	.L107:
 360:Middlewares/lvgl/src/draw/lv_img_buf.c **** 
 1799              		.loc 1 360 1 is_stmt 0 view .LVU613
 1800 0058 2046     		mov	r0, r4
 1801 005a BDE8F081 		pop	{r4, r5, r6, r7, r8, pc}
 1802              	.LVL201:
 1803              	.L112:
 342:Middlewares/lvgl/src/draw/lv_img_buf.c ****         return NULL;
 1804              		.loc 1 342 9 is_stmt 1 view .LVU614
 1805 005e 2046     		mov	r0, r4
 1806 0060 FFF7FEFF 		bl	lv_mem_free
 1807              	.LVL202:
 343:Middlewares/lvgl/src/draw/lv_img_buf.c ****     }
 1808              		.loc 1 343 9 view .LVU615
ARM GAS  /tmp/ccTdGo64.s 			page 63


 343:Middlewares/lvgl/src/draw/lv_img_buf.c ****     }
 1809              		.loc 1 343 16 is_stmt 0 view .LVU616
 1810 0064 0024     		movs	r4, #0
 1811              	.LVL203:
 343:Middlewares/lvgl/src/draw/lv_img_buf.c ****     }
 1812              		.loc 1 343 16 view .LVU617
 1813 0066 F7E7     		b	.L107
 1814              	.LVL204:
 1815              	.L113:
 349:Middlewares/lvgl/src/draw/lv_img_buf.c ****         return NULL;
 1816              		.loc 1 349 9 is_stmt 1 view .LVU618
 1817 0068 2046     		mov	r0, r4
 1818 006a FFF7FEFF 		bl	lv_mem_free
 1819              	.LVL205:
 350:Middlewares/lvgl/src/draw/lv_img_buf.c ****     }
 1820              		.loc 1 350 9 view .LVU619
 350:Middlewares/lvgl/src/draw/lv_img_buf.c ****     }
 1821              		.loc 1 350 16 is_stmt 0 view .LVU620
 1822 006e 4446     		mov	r4, r8
 1823              	.LVL206:
 350:Middlewares/lvgl/src/draw/lv_img_buf.c ****     }
 1824              		.loc 1 350 16 view .LVU621
 1825 0070 F2E7     		b	.L107
 1826              		.cfi_endproc
 1827              	.LFE53:
 1829              		.section	.text._lv_img_buf_transform_init,"ax",%progbits
 1830              		.align	1
 1831              		.global	_lv_img_buf_transform_init
 1832              		.syntax unified
 1833              		.thumb
 1834              		.thumb_func
 1835              		.fpu fpv4-sp-d16
 1837              	_lv_img_buf_transform_init:
 1838              	.LVL207:
 1839              	.LFB56:
 412:Middlewares/lvgl/src/draw/lv_img_buf.c **** 
 413:Middlewares/lvgl/src/draw/lv_img_buf.c **** #if LV_DRAW_COMPLEX
 414:Middlewares/lvgl/src/draw/lv_img_buf.c **** /**
 415:Middlewares/lvgl/src/draw/lv_img_buf.c ****  * Initialize a descriptor to transform an image
 416:Middlewares/lvgl/src/draw/lv_img_buf.c ****  * @param dsc pointer to an `lv_img_transform_dsc_t` variable whose `cfg` field is initialized
 417:Middlewares/lvgl/src/draw/lv_img_buf.c ****  */
 418:Middlewares/lvgl/src/draw/lv_img_buf.c **** void _lv_img_buf_transform_init(lv_img_transform_dsc_t * dsc)
 419:Middlewares/lvgl/src/draw/lv_img_buf.c **** {
 1840              		.loc 1 419 1 is_stmt 1 view -0
 1841              		.cfi_startproc
 1842              		@ args = 0, pretend = 0, frame = 0
 1843              		@ frame_needed = 0, uses_anonymous_args = 0
 1844              		.loc 1 419 1 is_stmt 0 view .LVU623
 1845 0000 2DE9F047 		push	{r4, r5, r6, r7, r8, r9, r10, lr}
 1846              	.LCFI22:
 1847              		.cfi_def_cfa_offset 32
 1848              		.cfi_offset 4, -32
 1849              		.cfi_offset 5, -28
 1850              		.cfi_offset 6, -24
 1851              		.cfi_offset 7, -20
 1852              		.cfi_offset 8, -16
 1853              		.cfi_offset 9, -12
ARM GAS  /tmp/ccTdGo64.s 			page 64


 1854              		.cfi_offset 10, -8
 1855              		.cfi_offset 14, -4
 1856 0004 0446     		mov	r4, r0
 420:Middlewares/lvgl/src/draw/lv_img_buf.c ****     dsc->tmp.pivot_x_256 = dsc->cfg.pivot_x * 256;
 1857              		.loc 1 420 5 is_stmt 1 view .LVU624
 1858              		.loc 1 420 36 is_stmt 0 view .LVU625
 1859 0006 B0F90830 		ldrsh	r3, [r0, #8]
 1860              		.loc 1 420 45 view .LVU626
 1861 000a 1B02     		lsls	r3, r3, #8
 1862              		.loc 1 420 26 view .LVU627
 1863 000c 4362     		str	r3, [r0, #36]
 421:Middlewares/lvgl/src/draw/lv_img_buf.c ****     dsc->tmp.pivot_y_256 = dsc->cfg.pivot_y * 256;
 1864              		.loc 1 421 5 is_stmt 1 view .LVU628
 1865              		.loc 1 421 36 is_stmt 0 view .LVU629
 1866 000e B0F90A30 		ldrsh	r3, [r0, #10]
 1867              		.loc 1 421 45 view .LVU630
 1868 0012 1B02     		lsls	r3, r3, #8
 1869              		.loc 1 421 26 view .LVU631
 1870 0014 8362     		str	r3, [r0, #40]
 422:Middlewares/lvgl/src/draw/lv_img_buf.c **** 
 423:Middlewares/lvgl/src/draw/lv_img_buf.c ****     int32_t angle_low = dsc->cfg.angle / 10;
 1871              		.loc 1 423 5 is_stmt 1 view .LVU632
 1872              		.loc 1 423 33 is_stmt 0 view .LVU633
 1873 0016 B0F90C50 		ldrsh	r5, [r0, #12]
 1874              		.loc 1 423 40 view .LVU634
 1875 001a 434F     		ldr	r7, .L118
 1876 001c 87FB0523 		smull	r2, r3, r7, r5
 1877 0020 E817     		asrs	r0, r5, #31
 1878              	.LVL208:
 1879              		.loc 1 423 40 view .LVU635
 1880 0022 C0EBA300 		rsb	r0, r0, r3, asr #2
 1881 0026 00B2     		sxth	r0, r0
 1882              	.LVL209:
 424:Middlewares/lvgl/src/draw/lv_img_buf.c ****     int32_t angle_high = angle_low + 1;
 1883              		.loc 1 424 5 is_stmt 1 view .LVU636
 1884              		.loc 1 424 13 is_stmt 0 view .LVU637
 1885 0028 00F1010A 		add	r10, r0, #1
 1886              	.LVL210:
 425:Middlewares/lvgl/src/draw/lv_img_buf.c ****     int32_t angle_rem = dsc->cfg.angle  - (angle_low * 10);
 1887              		.loc 1 425 5 is_stmt 1 view .LVU638
 1888              		.loc 1 425 13 is_stmt 0 view .LVU639
 1889 002c 6FF00903 		mvn	r3, #9
 1890 0030 03FB0055 		mla	r5, r3, r0, r5
 1891              	.LVL211:
 426:Middlewares/lvgl/src/draw/lv_img_buf.c **** 
 427:Middlewares/lvgl/src/draw/lv_img_buf.c ****     int32_t s1 = lv_trigo_sin(-angle_low);
 1892              		.loc 1 427 5 is_stmt 1 view .LVU640
 1893              		.loc 1 427 18 is_stmt 0 view .LVU641
 1894 0034 1FFA80F8 		uxth	r8, r0
 1895 0038 C8F10000 		rsb	r0, r8, #0
 1896              	.LVL212:
 1897              		.loc 1 427 18 view .LVU642
 1898 003c 00B2     		sxth	r0, r0
 1899 003e FFF7FEFF 		bl	lv_trigo_sin
 1900              	.LVL213:
 1901 0042 8146     		mov	r9, r0
 1902              	.LVL214:
ARM GAS  /tmp/ccTdGo64.s 			page 65


 428:Middlewares/lvgl/src/draw/lv_img_buf.c ****     int32_t s2 = lv_trigo_sin(-angle_high);
 1903              		.loc 1 428 5 is_stmt 1 view .LVU643
 1904              		.loc 1 428 18 is_stmt 0 view .LVU644
 1905 0044 1FFA8AFA 		uxth	r10, r10
 1906              	.LVL215:
 1907              		.loc 1 428 18 view .LVU645
 1908 0048 CAF10000 		rsb	r0, r10, #0
 1909              	.LVL216:
 1910              		.loc 1 428 18 view .LVU646
 1911 004c 00B2     		sxth	r0, r0
 1912 004e FFF7FEFF 		bl	lv_trigo_sin
 1913              	.LVL217:
 1914 0052 0646     		mov	r6, r0
 1915              	.LVL218:
 429:Middlewares/lvgl/src/draw/lv_img_buf.c **** 
 430:Middlewares/lvgl/src/draw/lv_img_buf.c ****     int32_t c1 = lv_trigo_sin(-angle_low + 90);
 1916              		.loc 1 430 5 is_stmt 1 view .LVU647
 1917              		.loc 1 430 42 is_stmt 0 view .LVU648
 1918 0054 C8F15A00 		rsb	r0, r8, #90
 1919              	.LVL219:
 1920              		.loc 1 430 18 view .LVU649
 1921 0058 00B2     		sxth	r0, r0
 1922 005a FFF7FEFF 		bl	lv_trigo_sin
 1923              	.LVL220:
 1924 005e 8046     		mov	r8, r0
 1925              	.LVL221:
 431:Middlewares/lvgl/src/draw/lv_img_buf.c ****     int32_t c2 = lv_trigo_sin(-angle_high + 90);
 1926              		.loc 1 431 5 is_stmt 1 view .LVU650
 1927              		.loc 1 431 43 is_stmt 0 view .LVU651
 1928 0060 CAF15A00 		rsb	r0, r10, #90
 1929              	.LVL222:
 1930              		.loc 1 431 18 view .LVU652
 1931 0064 00B2     		sxth	r0, r0
 1932 0066 FFF7FEFF 		bl	lv_trigo_sin
 1933              	.LVL223:
 432:Middlewares/lvgl/src/draw/lv_img_buf.c **** 
 433:Middlewares/lvgl/src/draw/lv_img_buf.c ****     dsc->tmp.sinma = (s1 * (10 - angle_rem) + s2 * angle_rem) / 10;
 1934              		.loc 1 433 5 is_stmt 1 view .LVU653
 1935              		.loc 1 433 32 is_stmt 0 view .LVU654
 1936 006a C5F10A02 		rsb	r2, r5, #10
 1937              		.loc 1 433 50 view .LVU655
 1938 006e 06FB05F3 		mul	r3, r6, r5
 1939              		.loc 1 433 45 view .LVU656
 1940 0072 09FB0233 		mla	r3, r9, r2, r3
 1941              		.loc 1 433 63 view .LVU657
 1942 0076 87FB0361 		smull	r6, r1, r7, r3
 1943              	.LVL224:
 1944              		.loc 1 433 63 view .LVU658
 1945 007a DB17     		asrs	r3, r3, #31
 1946 007c C3EBA103 		rsb	r3, r3, r1, asr #2
 1947              		.loc 1 433 20 view .LVU659
 1948 0080 E362     		str	r3, [r4, #44]
 434:Middlewares/lvgl/src/draw/lv_img_buf.c ****     dsc->tmp.cosma = (c1 * (10 - angle_rem) + c2 * angle_rem) / 10;
 1949              		.loc 1 434 5 is_stmt 1 view .LVU660
 1950              		.loc 1 434 50 is_stmt 0 view .LVU661
 1951 0082 00FB05F5 		mul	r5, r0, r5
 1952              	.LVL225:
ARM GAS  /tmp/ccTdGo64.s 			page 66


 1953              		.loc 1 434 45 view .LVU662
 1954 0086 08FB0250 		mla	r0, r8, r2, r5
 1955              	.LVL226:
 1956              		.loc 1 434 63 view .LVU663
 1957 008a 87FB0027 		smull	r2, r7, r7, r0
 1958 008e C517     		asrs	r5, r0, #31
 1959 0090 C5EBA705 		rsb	r5, r5, r7, asr #2
 1960              		.loc 1 434 20 view .LVU664
 1961 0094 2563     		str	r5, [r4, #48]
 435:Middlewares/lvgl/src/draw/lv_img_buf.c **** 
 436:Middlewares/lvgl/src/draw/lv_img_buf.c ****     /*Use smaller value to avoid overflow*/
 437:Middlewares/lvgl/src/draw/lv_img_buf.c ****     dsc->tmp.sinma = dsc->tmp.sinma >> (LV_TRIGO_SHIFT - _LV_TRANSFORM_TRIGO_SHIFT);
 1962              		.loc 1 437 5 is_stmt 1 view .LVU665
 1963              		.loc 1 437 37 is_stmt 0 view .LVU666
 1964 0096 5B11     		asrs	r3, r3, #5
 1965              		.loc 1 437 20 view .LVU667
 1966 0098 E362     		str	r3, [r4, #44]
 438:Middlewares/lvgl/src/draw/lv_img_buf.c ****     dsc->tmp.cosma = dsc->tmp.cosma >> (LV_TRIGO_SHIFT - _LV_TRANSFORM_TRIGO_SHIFT);
 1967              		.loc 1 438 5 is_stmt 1 view .LVU668
 1968              		.loc 1 438 37 is_stmt 0 view .LVU669
 1969 009a 6D11     		asrs	r5, r5, #5
 1970              		.loc 1 438 20 view .LVU670
 1971 009c 2563     		str	r5, [r4, #48]
 439:Middlewares/lvgl/src/draw/lv_img_buf.c **** 
 440:Middlewares/lvgl/src/draw/lv_img_buf.c ****     dsc->tmp.chroma_keyed = lv_img_cf_is_chroma_keyed(dsc->cfg.cf) ? 1 : 0;
 1972              		.loc 1 440 5 is_stmt 1 view .LVU671
 1973              		.loc 1 440 29 is_stmt 0 view .LVU672
 1974 009e A07C     		ldrb	r0, [r4, #18]	@ zero_extendqisi2
 1975 00a0 FFF7FEFF 		bl	lv_img_cf_is_chroma_keyed
 1976              	.LVL227:
 1977              		.loc 1 440 27 view .LVU673
 1978 00a4 94F83430 		ldrb	r3, [r4, #52]	@ zero_extendqisi2
 1979 00a8 60F30003 		bfi	r3, r0, #0, #1
 1980 00ac 84F83430 		strb	r3, [r4, #52]
 441:Middlewares/lvgl/src/draw/lv_img_buf.c ****     dsc->tmp.has_alpha = lv_img_cf_has_alpha(dsc->cfg.cf) ? 1 : 0;
 1981              		.loc 1 441 5 is_stmt 1 view .LVU674
 1982              		.loc 1 441 26 is_stmt 0 view .LVU675
 1983 00b0 A07C     		ldrb	r0, [r4, #18]	@ zero_extendqisi2
 1984 00b2 FFF7FEFF 		bl	lv_img_cf_has_alpha
 1985              	.LVL228:
 1986              		.loc 1 441 24 view .LVU676
 1987 00b6 94F83430 		ldrb	r3, [r4, #52]	@ zero_extendqisi2
 1988 00ba 60F34103 		bfi	r3, r0, #1, #1
 1989 00be 84F83430 		strb	r3, [r4, #52]
 442:Middlewares/lvgl/src/draw/lv_img_buf.c ****     if(dsc->cfg.cf == LV_IMG_CF_TRUE_COLOR || dsc->cfg.cf == LV_IMG_CF_TRUE_COLOR_ALPHA ||
 1990              		.loc 1 442 5 is_stmt 1 view .LVU677
 1991              		.loc 1 442 16 is_stmt 0 view .LVU678
 1992 00c2 A27C     		ldrb	r2, [r4, #18]	@ zero_extendqisi2
 1993              		.loc 1 442 89 view .LVU679
 1994 00c4 131F     		subs	r3, r2, #4
 1995 00c6 DBB2     		uxtb	r3, r3
 1996              		.loc 1 442 7 view .LVU680
 1997 00c8 022B     		cmp	r3, #2
 1998 00ca 26D8     		bhi	.L115
 443:Middlewares/lvgl/src/draw/lv_img_buf.c ****        dsc->cfg.cf == LV_IMG_CF_TRUE_COLOR_CHROMA_KEYED) {
 444:Middlewares/lvgl/src/draw/lv_img_buf.c ****         dsc->tmp.native_color = 1;
 1999              		.loc 1 444 9 is_stmt 1 view .LVU681
ARM GAS  /tmp/ccTdGo64.s 			page 67


 2000              		.loc 1 444 31 is_stmt 0 view .LVU682
 2001 00cc 94F83430 		ldrb	r3, [r4, #52]	@ zero_extendqisi2
 2002 00d0 43F00403 		orr	r3, r3, #4
 2003 00d4 84F83430 		strb	r3, [r4, #52]
 2004              	.L116:
 445:Middlewares/lvgl/src/draw/lv_img_buf.c ****     }
 446:Middlewares/lvgl/src/draw/lv_img_buf.c ****     else {
 447:Middlewares/lvgl/src/draw/lv_img_buf.c ****         dsc->tmp.native_color = 0;
 448:Middlewares/lvgl/src/draw/lv_img_buf.c ****     }
 449:Middlewares/lvgl/src/draw/lv_img_buf.c **** 
 450:Middlewares/lvgl/src/draw/lv_img_buf.c ****     dsc->tmp.img_dsc.data = dsc->cfg.src;
 2005              		.loc 1 450 5 is_stmt 1 view .LVU683
 2006              		.loc 1 450 37 is_stmt 0 view .LVU684
 2007 00d8 2368     		ldr	r3, [r4]
 2008              		.loc 1 450 27 view .LVU685
 2009 00da 2362     		str	r3, [r4, #32]
 451:Middlewares/lvgl/src/draw/lv_img_buf.c ****     dsc->tmp.img_dsc.header.always_zero = 0;
 2010              		.loc 1 451 5 is_stmt 1 view .LVU686
 2011              		.loc 1 451 41 is_stmt 0 view .LVU687
 2012 00dc 237E     		ldrb	r3, [r4, #24]	@ zero_extendqisi2
 2013 00de 6FF34713 		bfc	r3, #5, #3
 2014 00e2 2376     		strb	r3, [r4, #24]
 452:Middlewares/lvgl/src/draw/lv_img_buf.c ****     dsc->tmp.img_dsc.header.cf = dsc->cfg.cf;
 2015              		.loc 1 452 5 is_stmt 1 view .LVU688
 2016              		.loc 1 452 32 is_stmt 0 view .LVU689
 2017 00e4 DBB2     		uxtb	r3, r3
 2018 00e6 62F30403 		bfi	r3, r2, #0, #5
 2019 00ea 2376     		strb	r3, [r4, #24]
 453:Middlewares/lvgl/src/draw/lv_img_buf.c ****     dsc->tmp.img_dsc.header.w = dsc->cfg.src_w;
 2020              		.loc 1 453 5 is_stmt 1 view .LVU690
 2021              		.loc 1 453 41 is_stmt 0 view .LVU691
 2022 00ec A288     		ldrh	r2, [r4, #4]
 2023              		.loc 1 453 31 view .LVU692
 2024 00ee A369     		ldr	r3, [r4, #24]
 2025 00f0 62F39423 		bfi	r3, r2, #10, #11
 2026 00f4 A361     		str	r3, [r4, #24]
 454:Middlewares/lvgl/src/draw/lv_img_buf.c ****     dsc->tmp.img_dsc.header.h = dsc->cfg.src_h;
 2027              		.loc 1 454 5 is_stmt 1 view .LVU693
 2028              		.loc 1 454 41 is_stmt 0 view .LVU694
 2029 00f6 E288     		ldrh	r2, [r4, #6]
 2030              		.loc 1 454 31 view .LVU695
 2031 00f8 638B     		ldrh	r3, [r4, #26]
 2032 00fa 62F34F13 		bfi	r3, r2, #5, #11
 2033 00fe 6383     		strh	r3, [r4, #26]	@ movhi
 455:Middlewares/lvgl/src/draw/lv_img_buf.c **** 
 456:Middlewares/lvgl/src/draw/lv_img_buf.c ****     /*The inverse of the zoom will be sued during the transformation
 457:Middlewares/lvgl/src/draw/lv_img_buf.c ****      * + dsc->cfg.zoom / 2 for rounding*/
 458:Middlewares/lvgl/src/draw/lv_img_buf.c ****     dsc->tmp.zoom_inv = (((256 * 256) << _LV_ZOOM_INV_UPSCALE) + dsc->cfg.zoom / 2) / dsc->cfg.zoom
 2034              		.loc 1 458 5 is_stmt 1 view .LVU696
 2035              		.loc 1 458 74 is_stmt 0 view .LVU697
 2036 0100 E289     		ldrh	r2, [r4, #14]
 2037              		.loc 1 458 80 view .LVU698
 2038 0102 5308     		lsrs	r3, r2, #1
 2039              		.loc 1 458 64 view .LVU699
 2040 0104 03F50013 		add	r3, r3, #2097152
 2041              		.loc 1 458 85 view .LVU700
 2042 0108 93FBF2F3 		sdiv	r3, r3, r2
ARM GAS  /tmp/ccTdGo64.s 			page 68


 2043              		.loc 1 458 23 view .LVU701
 2044 010c A363     		str	r3, [r4, #56]
 459:Middlewares/lvgl/src/draw/lv_img_buf.c **** 
 460:Middlewares/lvgl/src/draw/lv_img_buf.c ****     dsc->res.opa = LV_OPA_COVER;
 2045              		.loc 1 460 5 is_stmt 1 view .LVU702
 2046              		.loc 1 460 18 is_stmt 0 view .LVU703
 2047 010e FF23     		movs	r3, #255
 2048 0110 A375     		strb	r3, [r4, #22]
 461:Middlewares/lvgl/src/draw/lv_img_buf.c ****     dsc->res.color = dsc->cfg.color;
 2049              		.loc 1 461 5 is_stmt 1 view .LVU704
 2050              		.loc 1 461 20 is_stmt 0 view .LVU705
 2051 0112 238A     		ldrh	r3, [r4, #16]
 2052 0114 A382     		strh	r3, [r4, #20]	@ movhi
 462:Middlewares/lvgl/src/draw/lv_img_buf.c **** }
 2053              		.loc 1 462 1 view .LVU706
 2054 0116 BDE8F087 		pop	{r4, r5, r6, r7, r8, r9, r10, pc}
 2055              	.LVL229:
 2056              	.L115:
 447:Middlewares/lvgl/src/draw/lv_img_buf.c ****     }
 2057              		.loc 1 447 9 is_stmt 1 view .LVU707
 447:Middlewares/lvgl/src/draw/lv_img_buf.c ****     }
 2058              		.loc 1 447 31 is_stmt 0 view .LVU708
 2059 011a 94F83430 		ldrb	r3, [r4, #52]	@ zero_extendqisi2
 2060 011e 6FF38203 		bfc	r3, #2, #1
 2061 0122 84F83430 		strb	r3, [r4, #52]
 2062 0126 D7E7     		b	.L116
 2063              	.L119:
 2064              		.align	2
 2065              	.L118:
 2066 0128 67666666 		.word	1717986919
 2067              		.cfi_endproc
 2068              	.LFE56:
 2070              		.section	.text._lv_img_buf_get_transformed_area,"ax",%progbits
 2071              		.align	1
 2072              		.global	_lv_img_buf_get_transformed_area
 2073              		.syntax unified
 2074              		.thumb
 2075              		.thumb_func
 2076              		.fpu fpv4-sp-d16
 2078              	_lv_img_buf_get_transformed_area:
 2079              	.LVL230:
 2080              	.LFB57:
 463:Middlewares/lvgl/src/draw/lv_img_buf.c **** #endif
 464:Middlewares/lvgl/src/draw/lv_img_buf.c **** 
 465:Middlewares/lvgl/src/draw/lv_img_buf.c **** /**
 466:Middlewares/lvgl/src/draw/lv_img_buf.c ****  * Get the area of a rectangle if its rotated and scaled
 467:Middlewares/lvgl/src/draw/lv_img_buf.c ****  * @param res store the coordinates here
 468:Middlewares/lvgl/src/draw/lv_img_buf.c ****  * @param w width of the rectangle to transform
 469:Middlewares/lvgl/src/draw/lv_img_buf.c ****  * @param h height of the rectangle to transform
 470:Middlewares/lvgl/src/draw/lv_img_buf.c ****  * @param angle angle of rotation
 471:Middlewares/lvgl/src/draw/lv_img_buf.c ****  * @param zoom zoom, (256 no zoom)
 472:Middlewares/lvgl/src/draw/lv_img_buf.c ****  * @param pivot x,y pivot coordinates of rotation
 473:Middlewares/lvgl/src/draw/lv_img_buf.c ****  */
 474:Middlewares/lvgl/src/draw/lv_img_buf.c **** void _lv_img_buf_get_transformed_area(lv_area_t * res, lv_coord_t w, lv_coord_t h, int16_t angle, u
 475:Middlewares/lvgl/src/draw/lv_img_buf.c ****                                       const lv_point_t * pivot)
 476:Middlewares/lvgl/src/draw/lv_img_buf.c **** {
 2081              		.loc 1 476 1 is_stmt 1 view -0
ARM GAS  /tmp/ccTdGo64.s 			page 69


 2082              		.cfi_startproc
 2083              		@ args = 8, pretend = 0, frame = 16
 2084              		@ frame_needed = 0, uses_anonymous_args = 0
 2085              		.loc 1 476 1 is_stmt 0 view .LVU710
 2086 0000 2DE9F04F 		push	{r4, r5, r6, r7, r8, r9, r10, fp, lr}
 2087              	.LCFI23:
 2088              		.cfi_def_cfa_offset 36
 2089              		.cfi_offset 4, -36
 2090              		.cfi_offset 5, -32
 2091              		.cfi_offset 6, -28
 2092              		.cfi_offset 7, -24
 2093              		.cfi_offset 8, -20
 2094              		.cfi_offset 9, -16
 2095              		.cfi_offset 10, -12
 2096              		.cfi_offset 11, -8
 2097              		.cfi_offset 14, -4
 2098 0004 85B0     		sub	sp, sp, #20
 2099              	.LCFI24:
 2100              		.cfi_def_cfa_offset 56
 2101 0006 0446     		mov	r4, r0
 2102 0008 BDF83800 		ldrh	r0, [sp, #56]
 2103              	.LVL231:
 2104              		.loc 1 476 1 view .LVU711
 2105 000c 0F9D     		ldr	r5, [sp, #60]
 477:Middlewares/lvgl/src/draw/lv_img_buf.c **** #if LV_DRAW_COMPLEX
 478:Middlewares/lvgl/src/draw/lv_img_buf.c ****     if(angle == 0 && zoom == LV_IMG_ZOOM_NONE) {
 2106              		.loc 1 478 5 is_stmt 1 view .LVU712
 2107              		.loc 1 478 7 is_stmt 0 view .LVU713
 2108 000e 1E46     		mov	r6, r3
 2109 0010 13B9     		cbnz	r3, .L121
 2110              		.loc 1 478 19 discriminator 1 view .LVU714
 2111 0012 B0F5807F 		cmp	r0, #256
 2112 0016 37D0     		beq	.L126
 2113              	.L121:
 479:Middlewares/lvgl/src/draw/lv_img_buf.c ****         res->x1 = 0;
 480:Middlewares/lvgl/src/draw/lv_img_buf.c ****         res->y1 = 0;
 481:Middlewares/lvgl/src/draw/lv_img_buf.c ****         res->x2 = w - 1;
 482:Middlewares/lvgl/src/draw/lv_img_buf.c ****         res->y2 = h - 1;
 483:Middlewares/lvgl/src/draw/lv_img_buf.c ****         return;
 484:Middlewares/lvgl/src/draw/lv_img_buf.c ****     }
 485:Middlewares/lvgl/src/draw/lv_img_buf.c **** 
 486:Middlewares/lvgl/src/draw/lv_img_buf.c ****     res->x1 = (((-pivot->x) * zoom) >> 8) - 1;
 2114              		.loc 1 486 5 is_stmt 1 view .LVU715
 2115              		.loc 1 486 24 is_stmt 0 view .LVU716
 2116 0018 B5F90030 		ldrsh	r3, [r5]
 2117              	.LVL232:
 2118              		.loc 1 486 18 view .LVU717
 2119 001c 5B42     		rsbs	r3, r3, #0
 2120              		.loc 1 486 29 view .LVU718
 2121 001e 00FB03F3 		mul	r3, r0, r3
 2122              		.loc 1 486 37 view .LVU719
 2123 0022 1B12     		asrs	r3, r3, #8
 2124              		.loc 1 486 43 view .LVU720
 2125 0024 013B     		subs	r3, r3, #1
 2126 0026 1FFA83FE 		uxth	lr, r3
 2127              		.loc 1 486 13 view .LVU721
 2128 002a 2380     		strh	r3, [r4]	@ movhi
ARM GAS  /tmp/ccTdGo64.s 			page 70


 487:Middlewares/lvgl/src/draw/lv_img_buf.c ****     res->y1 = (((-pivot->y) * zoom) >> 8) - 1;
 2129              		.loc 1 487 5 is_stmt 1 view .LVU722
 2130              		.loc 1 487 24 is_stmt 0 view .LVU723
 2131 002c B5F90270 		ldrsh	r7, [r5, #2]
 2132              		.loc 1 487 18 view .LVU724
 2133 0030 7F42     		rsbs	r7, r7, #0
 2134              		.loc 1 487 29 view .LVU725
 2135 0032 00FB07F7 		mul	r7, r0, r7
 2136              		.loc 1 487 37 view .LVU726
 2137 0036 3F12     		asrs	r7, r7, #8
 2138              		.loc 1 487 43 view .LVU727
 2139 0038 013F     		subs	r7, r7, #1
 2140 003a 1FFA87FC 		uxth	ip, r7
 2141              		.loc 1 487 13 view .LVU728
 2142 003e 6780     		strh	r7, [r4, #2]	@ movhi
 488:Middlewares/lvgl/src/draw/lv_img_buf.c ****     res->x2 = (((w - pivot->x) * zoom) >> 8) + 2;
 2143              		.loc 1 488 5 is_stmt 1 view .LVU729
 2144              		.loc 1 488 27 is_stmt 0 view .LVU730
 2145 0040 B5F90030 		ldrsh	r3, [r5]
 2146              		.loc 1 488 20 view .LVU731
 2147 0044 C91A     		subs	r1, r1, r3
 2148              	.LVL233:
 2149              		.loc 1 488 32 view .LVU732
 2150 0046 00FB01F1 		mul	r1, r0, r1
 2151              		.loc 1 488 40 view .LVU733
 2152 004a 0912     		asrs	r1, r1, #8
 2153              		.loc 1 488 46 view .LVU734
 2154 004c 0231     		adds	r1, r1, #2
 2155 004e 8FB2     		uxth	r7, r1
 2156              		.loc 1 488 13 view .LVU735
 2157 0050 A180     		strh	r1, [r4, #4]	@ movhi
 489:Middlewares/lvgl/src/draw/lv_img_buf.c ****     res->y2 = (((h - pivot->y) * zoom) >> 8) + 2;
 2158              		.loc 1 489 5 is_stmt 1 view .LVU736
 2159              		.loc 1 489 27 is_stmt 0 view .LVU737
 2160 0052 B5F90230 		ldrsh	r3, [r5, #2]
 2161              		.loc 1 489 20 view .LVU738
 2162 0056 D31A     		subs	r3, r2, r3
 2163              		.loc 1 489 32 view .LVU739
 2164 0058 00FB03F3 		mul	r3, r0, r3
 2165              		.loc 1 489 40 view .LVU740
 2166 005c 1B12     		asrs	r3, r3, #8
 2167              		.loc 1 489 46 view .LVU741
 2168 005e 0233     		adds	r3, r3, #2
 2169 0060 9AB2     		uxth	r2, r3
 2170              	.LVL234:
 2171              		.loc 1 489 13 view .LVU742
 2172 0062 E380     		strh	r3, [r4, #6]	@ movhi
 490:Middlewares/lvgl/src/draw/lv_img_buf.c **** 
 491:Middlewares/lvgl/src/draw/lv_img_buf.c ****     if(angle == 0) {
 2173              		.loc 1 491 5 is_stmt 1 view .LVU743
 2174              		.loc 1 491 7 is_stmt 0 view .LVU744
 2175 0064 BEB9     		cbnz	r6, .L123
 492:Middlewares/lvgl/src/draw/lv_img_buf.c ****         res->x1 += pivot->x;
 2176              		.loc 1 492 9 is_stmt 1 view .LVU745
 2177              		.loc 1 492 25 is_stmt 0 view .LVU746
 2178 0066 2B88     		ldrh	r3, [r5]
 2179              		.loc 1 492 17 view .LVU747
ARM GAS  /tmp/ccTdGo64.s 			page 71


 2180 0068 9E44     		add	lr, lr, r3
 2181 006a A4F800E0 		strh	lr, [r4]	@ movhi
 493:Middlewares/lvgl/src/draw/lv_img_buf.c ****         res->y1 += pivot->y;
 2182              		.loc 1 493 9 is_stmt 1 view .LVU748
 2183              		.loc 1 493 25 is_stmt 0 view .LVU749
 2184 006e 6B88     		ldrh	r3, [r5, #2]
 2185              		.loc 1 493 17 view .LVU750
 2186 0070 9C44     		add	ip, ip, r3
 2187 0072 A4F802C0 		strh	ip, [r4, #2]	@ movhi
 494:Middlewares/lvgl/src/draw/lv_img_buf.c ****         res->x2 += pivot->x;
 2188              		.loc 1 494 9 is_stmt 1 view .LVU751
 2189              		.loc 1 494 25 is_stmt 0 view .LVU752
 2190 0076 2B88     		ldrh	r3, [r5]
 2191              		.loc 1 494 17 view .LVU753
 2192 0078 1F44     		add	r7, r7, r3
 2193 007a A780     		strh	r7, [r4, #4]	@ movhi
 495:Middlewares/lvgl/src/draw/lv_img_buf.c ****         res->y2 += pivot->y;
 2194              		.loc 1 495 9 is_stmt 1 view .LVU754
 2195              		.loc 1 495 25 is_stmt 0 view .LVU755
 2196 007c 6B88     		ldrh	r3, [r5, #2]
 2197              		.loc 1 495 17 view .LVU756
 2198 007e 1A44     		add	r2, r2, r3
 2199 0080 E280     		strh	r2, [r4, #6]	@ movhi
 496:Middlewares/lvgl/src/draw/lv_img_buf.c ****         return;
 2200              		.loc 1 496 9 is_stmt 1 view .LVU757
 2201              	.L120:
 497:Middlewares/lvgl/src/draw/lv_img_buf.c ****     }
 498:Middlewares/lvgl/src/draw/lv_img_buf.c **** 
 499:Middlewares/lvgl/src/draw/lv_img_buf.c ****     int32_t angle_low = angle / 10;
 500:Middlewares/lvgl/src/draw/lv_img_buf.c ****     int32_t angle_high = angle_low + 1;
 501:Middlewares/lvgl/src/draw/lv_img_buf.c ****     int32_t angle_rem = angle  - (angle_low * 10);
 502:Middlewares/lvgl/src/draw/lv_img_buf.c **** 
 503:Middlewares/lvgl/src/draw/lv_img_buf.c ****     int32_t s1 = lv_trigo_sin(angle_low);
 504:Middlewares/lvgl/src/draw/lv_img_buf.c ****     int32_t s2 = lv_trigo_sin(angle_high);
 505:Middlewares/lvgl/src/draw/lv_img_buf.c **** 
 506:Middlewares/lvgl/src/draw/lv_img_buf.c ****     int32_t c1 = lv_trigo_sin(angle_low + 90);
 507:Middlewares/lvgl/src/draw/lv_img_buf.c ****     int32_t c2 = lv_trigo_sin(angle_high + 90);
 508:Middlewares/lvgl/src/draw/lv_img_buf.c **** 
 509:Middlewares/lvgl/src/draw/lv_img_buf.c ****     int32_t sinma = (s1 * (10 - angle_rem) + s2 * angle_rem) / 10;
 510:Middlewares/lvgl/src/draw/lv_img_buf.c ****     int32_t cosma = (c1 * (10 - angle_rem) + c2 * angle_rem) / 10;
 511:Middlewares/lvgl/src/draw/lv_img_buf.c **** 
 512:Middlewares/lvgl/src/draw/lv_img_buf.c ****     /*Use smaller value to avoid overflow*/
 513:Middlewares/lvgl/src/draw/lv_img_buf.c ****     sinma = sinma >> (LV_TRIGO_SHIFT - _LV_TRANSFORM_TRIGO_SHIFT);
 514:Middlewares/lvgl/src/draw/lv_img_buf.c ****     cosma = cosma >> (LV_TRIGO_SHIFT - _LV_TRANSFORM_TRIGO_SHIFT);
 515:Middlewares/lvgl/src/draw/lv_img_buf.c **** 
 516:Middlewares/lvgl/src/draw/lv_img_buf.c ****     lv_point_t lt;
 517:Middlewares/lvgl/src/draw/lv_img_buf.c ****     lv_point_t rt;
 518:Middlewares/lvgl/src/draw/lv_img_buf.c ****     lv_point_t lb;
 519:Middlewares/lvgl/src/draw/lv_img_buf.c ****     lv_point_t rb;
 520:Middlewares/lvgl/src/draw/lv_img_buf.c **** 
 521:Middlewares/lvgl/src/draw/lv_img_buf.c ****     lv_coord_t xt;
 522:Middlewares/lvgl/src/draw/lv_img_buf.c ****     lv_coord_t yt;
 523:Middlewares/lvgl/src/draw/lv_img_buf.c **** 
 524:Middlewares/lvgl/src/draw/lv_img_buf.c ****     xt = res->x1;
 525:Middlewares/lvgl/src/draw/lv_img_buf.c ****     yt = res->y1;
