ARM GAS  /tmp/ccTdGo64.s 			page 1


   1              		.cpu cortex-m4
   2              		.eabi_attribute 27, 1
   3              		.eabi_attribute 28, 1
   4              		.eabi_attribute 20, 1
   5              		.eabi_attribute 21, 1
   6              		.eabi_attribute 23, 3
   7              		.eabi_attribute 24, 1
   8              		.eabi_attribute 25, 1
   9              		.eabi_attribute 26, 1
  10              		.eabi_attribute 30, 1
  11              		.eabi_attribute 34, 1
  12              		.eabi_attribute 18, 4
  13              		.file	"lv_img_buf.c"
  14              		.text
  15              	.Ltext0:
  16              		.cfi_sections	.debug_frame
  17              		.section	.text.lv_img_buf_get_px_color,"ax",%progbits
  18              		.align	1
  19              		.global	lv_img_buf_get_px_color
  20              		.arch armv7e-m
  21              		.syntax unified
  22              		.thumb
  23              		.thumb_func
  24              		.fpu fpv4-sp-d16
  26              	lv_img_buf_get_px_color:
  27              	.LVL0:
  28              	.LFB48:
  29              		.file 1 "Middlewares/lvgl/src/draw/lv_img_buf.c"
   1:Middlewares/lvgl/src/draw/lv_img_buf.c **** /**
   2:Middlewares/lvgl/src/draw/lv_img_buf.c ****  * @file lv_img_buf.c
   3:Middlewares/lvgl/src/draw/lv_img_buf.c ****  *
   4:Middlewares/lvgl/src/draw/lv_img_buf.c ****  */
   5:Middlewares/lvgl/src/draw/lv_img_buf.c **** 
   6:Middlewares/lvgl/src/draw/lv_img_buf.c **** /*********************
   7:Middlewares/lvgl/src/draw/lv_img_buf.c ****  *      INCLUDES
   8:Middlewares/lvgl/src/draw/lv_img_buf.c ****  *********************/
   9:Middlewares/lvgl/src/draw/lv_img_buf.c **** #include <stddef.h>
  10:Middlewares/lvgl/src/draw/lv_img_buf.c **** #include <string.h>
  11:Middlewares/lvgl/src/draw/lv_img_buf.c **** #include "lv_img_buf.h"
  12:Middlewares/lvgl/src/draw/lv_img_buf.c **** #include "lv_draw_img.h"
  13:Middlewares/lvgl/src/draw/lv_img_buf.c **** #include "../misc/lv_math.h"
  14:Middlewares/lvgl/src/draw/lv_img_buf.c **** #include "../misc/lv_log.h"
  15:Middlewares/lvgl/src/draw/lv_img_buf.c **** #include "../misc/lv_mem.h"
  16:Middlewares/lvgl/src/draw/lv_img_buf.c **** 
  17:Middlewares/lvgl/src/draw/lv_img_buf.c **** /*********************
  18:Middlewares/lvgl/src/draw/lv_img_buf.c ****  *      DEFINES
  19:Middlewares/lvgl/src/draw/lv_img_buf.c ****  *********************/
  20:Middlewares/lvgl/src/draw/lv_img_buf.c **** 
  21:Middlewares/lvgl/src/draw/lv_img_buf.c **** /**********************
  22:Middlewares/lvgl/src/draw/lv_img_buf.c ****  *      TYPEDEFS
  23:Middlewares/lvgl/src/draw/lv_img_buf.c ****  **********************/
  24:Middlewares/lvgl/src/draw/lv_img_buf.c **** 
  25:Middlewares/lvgl/src/draw/lv_img_buf.c **** /**********************
  26:Middlewares/lvgl/src/draw/lv_img_buf.c ****  *  STATIC PROTOTYPES
  27:Middlewares/lvgl/src/draw/lv_img_buf.c ****  **********************/
  28:Middlewares/lvgl/src/draw/lv_img_buf.c **** 
  29:Middlewares/lvgl/src/draw/lv_img_buf.c **** /**********************
ARM GAS  /tmp/ccTdGo64.s 			page 2


  30:Middlewares/lvgl/src/draw/lv_img_buf.c ****  *  STATIC VARIABLES
  31:Middlewares/lvgl/src/draw/lv_img_buf.c ****  **********************/
  32:Middlewares/lvgl/src/draw/lv_img_buf.c **** 
  33:Middlewares/lvgl/src/draw/lv_img_buf.c **** /**********************
  34:Middlewares/lvgl/src/draw/lv_img_buf.c ****  *      MACROS
  35:Middlewares/lvgl/src/draw/lv_img_buf.c ****  **********************/
  36:Middlewares/lvgl/src/draw/lv_img_buf.c **** 
  37:Middlewares/lvgl/src/draw/lv_img_buf.c **** /**********************
  38:Middlewares/lvgl/src/draw/lv_img_buf.c ****  *   GLOBAL FUNCTIONS
  39:Middlewares/lvgl/src/draw/lv_img_buf.c ****  **********************/
  40:Middlewares/lvgl/src/draw/lv_img_buf.c **** 
  41:Middlewares/lvgl/src/draw/lv_img_buf.c **** /**
  42:Middlewares/lvgl/src/draw/lv_img_buf.c ****  * Get the color of an image's pixel
  43:Middlewares/lvgl/src/draw/lv_img_buf.c ****  * @param dsc an image descriptor
  44:Middlewares/lvgl/src/draw/lv_img_buf.c ****  * @param x x coordinate of the point to get
  45:Middlewares/lvgl/src/draw/lv_img_buf.c ****  * @param y x coordinate of the point to get
  46:Middlewares/lvgl/src/draw/lv_img_buf.c ****  * @param color the color of the image. In case of `LV_IMG_CF_ALPHA_1/2/4/8` this color is used.
  47:Middlewares/lvgl/src/draw/lv_img_buf.c ****  * Not used in other cases.
  48:Middlewares/lvgl/src/draw/lv_img_buf.c ****  * @param safe true: check out of bounds
  49:Middlewares/lvgl/src/draw/lv_img_buf.c ****  * @return color of the point
  50:Middlewares/lvgl/src/draw/lv_img_buf.c ****  */
  51:Middlewares/lvgl/src/draw/lv_img_buf.c **** lv_color_t lv_img_buf_get_px_color(lv_img_dsc_t * dsc, lv_coord_t x, lv_coord_t y, lv_color_t color
  52:Middlewares/lvgl/src/draw/lv_img_buf.c **** {
  30              		.loc 1 52 1 view -0
  31              		.cfi_startproc
  32              		@ args = 0, pretend = 0, frame = 8
  33              		@ frame_needed = 0, uses_anonymous_args = 0
  34              		.loc 1 52 1 is_stmt 0 view .LVU1
  35 0000 F0B5     		push	{r4, r5, r6, r7, lr}
  36              	.LCFI0:
  37              		.cfi_def_cfa_offset 20
  38              		.cfi_offset 4, -20
  39              		.cfi_offset 5, -16
  40              		.cfi_offset 6, -12
  41              		.cfi_offset 7, -8
  42              		.cfi_offset 14, -4
  43 0002 83B0     		sub	sp, sp, #12
  44              	.LCFI1:
  45              		.cfi_def_cfa_offset 32
  46 0004 0546     		mov	r5, r0
  47 0006 0C46     		mov	r4, r1
  48 0008 1746     		mov	r7, r2
  53:Middlewares/lvgl/src/draw/lv_img_buf.c ****     lv_color_t p_color = lv_color_black();
  49              		.loc 1 53 5 is_stmt 1 view .LVU2
  50              	.LBB45:
  51              	.LBI45:
  52              		.file 2 "Middlewares/lvgl/src/draw/../misc/lv_color.h"
   1:Middlewares/lvgl/src/draw/../misc/lv_color.h **** /**
   2:Middlewares/lvgl/src/draw/../misc/lv_color.h ****  * @file lv_color.h
   3:Middlewares/lvgl/src/draw/../misc/lv_color.h ****  *
   4:Middlewares/lvgl/src/draw/../misc/lv_color.h ****  */
   5:Middlewares/lvgl/src/draw/../misc/lv_color.h **** 
   6:Middlewares/lvgl/src/draw/../misc/lv_color.h **** #ifndef LV_COLOR_H
   7:Middlewares/lvgl/src/draw/../misc/lv_color.h **** #define LV_COLOR_H
   8:Middlewares/lvgl/src/draw/../misc/lv_color.h **** 
   9:Middlewares/lvgl/src/draw/../misc/lv_color.h **** #ifdef __cplusplus
  10:Middlewares/lvgl/src/draw/../misc/lv_color.h **** extern "C" {
ARM GAS  /tmp/ccTdGo64.s 			page 3


  11:Middlewares/lvgl/src/draw/../misc/lv_color.h **** #endif
  12:Middlewares/lvgl/src/draw/../misc/lv_color.h **** 
  13:Middlewares/lvgl/src/draw/../misc/lv_color.h **** /*********************
  14:Middlewares/lvgl/src/draw/../misc/lv_color.h ****  *      INCLUDES
  15:Middlewares/lvgl/src/draw/../misc/lv_color.h ****  *********************/
  16:Middlewares/lvgl/src/draw/../misc/lv_color.h **** #include "../lv_conf_internal.h"
  17:Middlewares/lvgl/src/draw/../misc/lv_color.h **** #include "lv_math.h"
  18:Middlewares/lvgl/src/draw/../misc/lv_color.h **** #include "lv_types.h"
  19:Middlewares/lvgl/src/draw/../misc/lv_color.h **** 
  20:Middlewares/lvgl/src/draw/../misc/lv_color.h **** /*Error checking*/
  21:Middlewares/lvgl/src/draw/../misc/lv_color.h **** #if LV_COLOR_DEPTH == 24
  22:Middlewares/lvgl/src/draw/../misc/lv_color.h **** #error "LV_COLOR_DEPTH 24 is deprecated. Use LV_COLOR_DEPTH 32 instead (lv_conf.h)"
  23:Middlewares/lvgl/src/draw/../misc/lv_color.h **** #endif
  24:Middlewares/lvgl/src/draw/../misc/lv_color.h **** 
  25:Middlewares/lvgl/src/draw/../misc/lv_color.h **** #if LV_COLOR_DEPTH != 32 && LV_COLOR_SCREEN_TRANSP != 0
  26:Middlewares/lvgl/src/draw/../misc/lv_color.h **** #error "LV_COLOR_SCREEN_TRANSP requires LV_COLOR_DEPTH == 32. Set it in lv_conf.h"
  27:Middlewares/lvgl/src/draw/../misc/lv_color.h **** #endif
  28:Middlewares/lvgl/src/draw/../misc/lv_color.h **** 
  29:Middlewares/lvgl/src/draw/../misc/lv_color.h **** #if LV_COLOR_DEPTH != 16 && LV_COLOR_16_SWAP != 0
  30:Middlewares/lvgl/src/draw/../misc/lv_color.h **** #error "LV_COLOR_16_SWAP requires LV_COLOR_DEPTH == 16. Set it in lv_conf.h"
  31:Middlewares/lvgl/src/draw/../misc/lv_color.h **** #endif
  32:Middlewares/lvgl/src/draw/../misc/lv_color.h **** 
  33:Middlewares/lvgl/src/draw/../misc/lv_color.h **** #include <stdint.h>
  34:Middlewares/lvgl/src/draw/../misc/lv_color.h **** 
  35:Middlewares/lvgl/src/draw/../misc/lv_color.h **** /*********************
  36:Middlewares/lvgl/src/draw/../misc/lv_color.h ****  *      DEFINES
  37:Middlewares/lvgl/src/draw/../misc/lv_color.h ****  *********************/
  38:Middlewares/lvgl/src/draw/../misc/lv_color.h **** 
  39:Middlewares/lvgl/src/draw/../misc/lv_color.h **** /**
  40:Middlewares/lvgl/src/draw/../misc/lv_color.h ****  * Opacity percentages.
  41:Middlewares/lvgl/src/draw/../misc/lv_color.h ****  */
  42:Middlewares/lvgl/src/draw/../misc/lv_color.h **** enum {
  43:Middlewares/lvgl/src/draw/../misc/lv_color.h ****     LV_OPA_TRANSP = 0,
  44:Middlewares/lvgl/src/draw/../misc/lv_color.h ****     LV_OPA_0      = 0,
  45:Middlewares/lvgl/src/draw/../misc/lv_color.h ****     LV_OPA_10     = 25,
  46:Middlewares/lvgl/src/draw/../misc/lv_color.h ****     LV_OPA_20     = 51,
  47:Middlewares/lvgl/src/draw/../misc/lv_color.h ****     LV_OPA_30     = 76,
  48:Middlewares/lvgl/src/draw/../misc/lv_color.h ****     LV_OPA_40     = 102,
  49:Middlewares/lvgl/src/draw/../misc/lv_color.h ****     LV_OPA_50     = 127,
  50:Middlewares/lvgl/src/draw/../misc/lv_color.h ****     LV_OPA_60     = 153,
  51:Middlewares/lvgl/src/draw/../misc/lv_color.h ****     LV_OPA_70     = 178,
  52:Middlewares/lvgl/src/draw/../misc/lv_color.h ****     LV_OPA_80     = 204,
  53:Middlewares/lvgl/src/draw/../misc/lv_color.h ****     LV_OPA_90     = 229,
  54:Middlewares/lvgl/src/draw/../misc/lv_color.h ****     LV_OPA_100    = 255,
  55:Middlewares/lvgl/src/draw/../misc/lv_color.h ****     LV_OPA_COVER  = 255,
  56:Middlewares/lvgl/src/draw/../misc/lv_color.h **** };
  57:Middlewares/lvgl/src/draw/../misc/lv_color.h **** 
  58:Middlewares/lvgl/src/draw/../misc/lv_color.h **** #define LV_OPA_MIN 2    /*Opacities below this will be transparent*/
  59:Middlewares/lvgl/src/draw/../misc/lv_color.h **** #define LV_OPA_MAX 253  /*Opacities above this will fully cover*/
  60:Middlewares/lvgl/src/draw/../misc/lv_color.h **** 
  61:Middlewares/lvgl/src/draw/../misc/lv_color.h **** #if LV_COLOR_DEPTH == 1
  62:Middlewares/lvgl/src/draw/../misc/lv_color.h **** #define LV_COLOR_SIZE 8
  63:Middlewares/lvgl/src/draw/../misc/lv_color.h **** #elif LV_COLOR_DEPTH == 8
  64:Middlewares/lvgl/src/draw/../misc/lv_color.h **** #define LV_COLOR_SIZE 8
  65:Middlewares/lvgl/src/draw/../misc/lv_color.h **** #elif LV_COLOR_DEPTH == 16
  66:Middlewares/lvgl/src/draw/../misc/lv_color.h **** #define LV_COLOR_SIZE 16
  67:Middlewares/lvgl/src/draw/../misc/lv_color.h **** #elif LV_COLOR_DEPTH == 32
ARM GAS  /tmp/ccTdGo64.s 			page 4


  68:Middlewares/lvgl/src/draw/../misc/lv_color.h **** #define LV_COLOR_SIZE 32
  69:Middlewares/lvgl/src/draw/../misc/lv_color.h **** #else
  70:Middlewares/lvgl/src/draw/../misc/lv_color.h **** #error "Invalid LV_COLOR_DEPTH in lv_conf.h! Set it to 1, 8, 16 or 32!"
  71:Middlewares/lvgl/src/draw/../misc/lv_color.h **** #endif
  72:Middlewares/lvgl/src/draw/../misc/lv_color.h **** 
  73:Middlewares/lvgl/src/draw/../misc/lv_color.h **** /**
  74:Middlewares/lvgl/src/draw/../misc/lv_color.h ****  * Adjust color mix functions rounding.
  75:Middlewares/lvgl/src/draw/../misc/lv_color.h ****  * GPUs might calculate color mix (blending) differently.
  76:Middlewares/lvgl/src/draw/../misc/lv_color.h ****  * Should be in range of 0..254
  77:Middlewares/lvgl/src/draw/../misc/lv_color.h ****  * 0: no adjustment, get the integer part of the result (round down)
  78:Middlewares/lvgl/src/draw/../misc/lv_color.h ****  * 64: round up from x.75
  79:Middlewares/lvgl/src/draw/../misc/lv_color.h ****  * 128: round up from half
  80:Middlewares/lvgl/src/draw/../misc/lv_color.h ****  * 192: round up from x.25
  81:Middlewares/lvgl/src/draw/../misc/lv_color.h ****  * 254: round up*/
  82:Middlewares/lvgl/src/draw/../misc/lv_color.h **** #ifndef LV_COLOR_MIX_ROUND_OFS
  83:Middlewares/lvgl/src/draw/../misc/lv_color.h **** #if LV_COLOR_DEPTH == 32
  84:Middlewares/lvgl/src/draw/../misc/lv_color.h **** #define LV_COLOR_MIX_ROUND_OFS 0
  85:Middlewares/lvgl/src/draw/../misc/lv_color.h **** #else
  86:Middlewares/lvgl/src/draw/../misc/lv_color.h **** #define LV_COLOR_MIX_ROUND_OFS 128
  87:Middlewares/lvgl/src/draw/../misc/lv_color.h **** #endif
  88:Middlewares/lvgl/src/draw/../misc/lv_color.h **** #endif
  89:Middlewares/lvgl/src/draw/../misc/lv_color.h **** 
  90:Middlewares/lvgl/src/draw/../misc/lv_color.h **** #if defined(__cplusplus) && !defined(_LV_COLOR_HAS_MODERN_CPP)
  91:Middlewares/lvgl/src/draw/../misc/lv_color.h **** /**
  92:Middlewares/lvgl/src/draw/../misc/lv_color.h **** * MSVC compiler's definition of the __cplusplus indicating 199711L regardless to C++ standard versi
  93:Middlewares/lvgl/src/draw/../misc/lv_color.h **** * see https://devblogs.microsoft.com/cppblog/msvc-now-correctly-reports-cplusplus
  94:Middlewares/lvgl/src/draw/../misc/lv_color.h **** * so we use _MSC_VER macro instead of __cplusplus
  95:Middlewares/lvgl/src/draw/../misc/lv_color.h **** */
  96:Middlewares/lvgl/src/draw/../misc/lv_color.h **** #ifdef _MSC_VER
  97:Middlewares/lvgl/src/draw/../misc/lv_color.h **** #if _MSC_VER >= 1900 /*Visual Studio 2015*/
  98:Middlewares/lvgl/src/draw/../misc/lv_color.h **** #define _LV_COLOR_HAS_MODERN_CPP 1
  99:Middlewares/lvgl/src/draw/../misc/lv_color.h **** #endif
 100:Middlewares/lvgl/src/draw/../misc/lv_color.h **** #else
 101:Middlewares/lvgl/src/draw/../misc/lv_color.h **** #if __cplusplus >= 201103L
 102:Middlewares/lvgl/src/draw/../misc/lv_color.h **** #define _LV_COLOR_HAS_MODERN_CPP 1
 103:Middlewares/lvgl/src/draw/../misc/lv_color.h **** #endif
 104:Middlewares/lvgl/src/draw/../misc/lv_color.h **** #endif
 105:Middlewares/lvgl/src/draw/../misc/lv_color.h **** #endif /*__cplusplus*/
 106:Middlewares/lvgl/src/draw/../misc/lv_color.h **** 
 107:Middlewares/lvgl/src/draw/../misc/lv_color.h **** #ifndef _LV_COLOR_HAS_MODERN_CPP
 108:Middlewares/lvgl/src/draw/../misc/lv_color.h **** #define _LV_COLOR_HAS_MODERN_CPP 0
 109:Middlewares/lvgl/src/draw/../misc/lv_color.h **** #endif
 110:Middlewares/lvgl/src/draw/../misc/lv_color.h **** 
 111:Middlewares/lvgl/src/draw/../misc/lv_color.h **** #if _LV_COLOR_HAS_MODERN_CPP
 112:Middlewares/lvgl/src/draw/../misc/lv_color.h **** /*Fix msvc compiler error C4576 inside C++ code*/
 113:Middlewares/lvgl/src/draw/../misc/lv_color.h **** #define _LV_COLOR_MAKE_TYPE_HELPER lv_color_t
 114:Middlewares/lvgl/src/draw/../misc/lv_color.h **** #else
 115:Middlewares/lvgl/src/draw/../misc/lv_color.h **** #define _LV_COLOR_MAKE_TYPE_HELPER (lv_color_t)
 116:Middlewares/lvgl/src/draw/../misc/lv_color.h **** #endif
 117:Middlewares/lvgl/src/draw/../misc/lv_color.h **** 
 118:Middlewares/lvgl/src/draw/../misc/lv_color.h **** /*---------------------------------------
 119:Middlewares/lvgl/src/draw/../misc/lv_color.h ****  * Macros for all existing color depths
 120:Middlewares/lvgl/src/draw/../misc/lv_color.h ****  * to set/get values of the color channels
 121:Middlewares/lvgl/src/draw/../misc/lv_color.h ****  *------------------------------------------*/
 122:Middlewares/lvgl/src/draw/../misc/lv_color.h **** # define LV_COLOR_SET_R1(c, v) (c).ch.red = (uint8_t)((v) & 0x1)
 123:Middlewares/lvgl/src/draw/../misc/lv_color.h **** # define LV_COLOR_SET_G1(c, v) (c).ch.green = (uint8_t)((v) & 0x1)
 124:Middlewares/lvgl/src/draw/../misc/lv_color.h **** # define LV_COLOR_SET_B1(c, v) (c).ch.blue = (uint8_t)((v) & 0x1)
ARM GAS  /tmp/ccTdGo64.s 			page 5


 125:Middlewares/lvgl/src/draw/../misc/lv_color.h **** # define LV_COLOR_SET_A1(c, v) do {} while(0)
 126:Middlewares/lvgl/src/draw/../misc/lv_color.h **** 
 127:Middlewares/lvgl/src/draw/../misc/lv_color.h **** # define LV_COLOR_GET_R1(c) (c).ch.red
 128:Middlewares/lvgl/src/draw/../misc/lv_color.h **** # define LV_COLOR_GET_G1(c) (c).ch.green
 129:Middlewares/lvgl/src/draw/../misc/lv_color.h **** # define LV_COLOR_GET_B1(c) (c).ch.blue
 130:Middlewares/lvgl/src/draw/../misc/lv_color.h **** # define LV_COLOR_GET_A1(c) 0xFF
 131:Middlewares/lvgl/src/draw/../misc/lv_color.h **** 
 132:Middlewares/lvgl/src/draw/../misc/lv_color.h **** # define _LV_COLOR_ZERO_INITIALIZER1 {0x00}
 133:Middlewares/lvgl/src/draw/../misc/lv_color.h **** # define LV_COLOR_MAKE1(r8, g8, b8)  {(uint8_t)((b8 >> 7) | (g8 >> 7) | (r8 >> 7))}
 134:Middlewares/lvgl/src/draw/../misc/lv_color.h **** 
 135:Middlewares/lvgl/src/draw/../misc/lv_color.h **** # define LV_COLOR_SET_R8(c, v) (c).ch.red = (uint8_t)((v) & 0x7U)
 136:Middlewares/lvgl/src/draw/../misc/lv_color.h **** # define LV_COLOR_SET_G8(c, v) (c).ch.green = (uint8_t)((v) & 0x7U)
 137:Middlewares/lvgl/src/draw/../misc/lv_color.h **** # define LV_COLOR_SET_B8(c, v) (c).ch.blue = (uint8_t)((v) & 0x3U)
 138:Middlewares/lvgl/src/draw/../misc/lv_color.h **** # define LV_COLOR_SET_A8(c, v) do {} while(0)
 139:Middlewares/lvgl/src/draw/../misc/lv_color.h **** 
 140:Middlewares/lvgl/src/draw/../misc/lv_color.h **** # define LV_COLOR_GET_R8(c) (c).ch.red
 141:Middlewares/lvgl/src/draw/../misc/lv_color.h **** # define LV_COLOR_GET_G8(c) (c).ch.green
 142:Middlewares/lvgl/src/draw/../misc/lv_color.h **** # define LV_COLOR_GET_B8(c) (c).ch.blue
 143:Middlewares/lvgl/src/draw/../misc/lv_color.h **** # define LV_COLOR_GET_A8(c) 0xFF
 144:Middlewares/lvgl/src/draw/../misc/lv_color.h **** 
 145:Middlewares/lvgl/src/draw/../misc/lv_color.h **** # define _LV_COLOR_ZERO_INITIALIZER8 _LV_COLOR_MAKE_TYPE_HELPER {{0x00, 0x00, 0x00}}
 146:Middlewares/lvgl/src/draw/../misc/lv_color.h **** # define LV_COLOR_MAKE8(r8, g8, b8) _LV_COLOR_MAKE_TYPE_HELPER  {{(uint8_t)((b8 >> 6) & 0x3U), (uin
 147:Middlewares/lvgl/src/draw/../misc/lv_color.h **** 
 148:Middlewares/lvgl/src/draw/../misc/lv_color.h **** # define LV_COLOR_SET_R16(c, v) (c).ch.red = (uint8_t)((v) & 0x1FU)
 149:Middlewares/lvgl/src/draw/../misc/lv_color.h **** #if LV_COLOR_16_SWAP == 0
 150:Middlewares/lvgl/src/draw/../misc/lv_color.h **** # define LV_COLOR_SET_G16(c, v) (c).ch.green = (uint8_t)((v) & 0x3FU)
 151:Middlewares/lvgl/src/draw/../misc/lv_color.h **** #else
 152:Middlewares/lvgl/src/draw/../misc/lv_color.h **** # define LV_COLOR_SET_G16(c, v) {(c).ch.green_h = (uint8_t)(((v) >> 3) & 0x7); (c).ch.green_l = (ui
 153:Middlewares/lvgl/src/draw/../misc/lv_color.h **** #endif
 154:Middlewares/lvgl/src/draw/../misc/lv_color.h **** # define LV_COLOR_SET_B16(c, v) (c).ch.blue = (uint8_t)((v) & 0x1FU)
 155:Middlewares/lvgl/src/draw/../misc/lv_color.h **** # define LV_COLOR_SET_A16(c, v) do {} while(0)
 156:Middlewares/lvgl/src/draw/../misc/lv_color.h **** 
 157:Middlewares/lvgl/src/draw/../misc/lv_color.h **** # define LV_COLOR_GET_R16(c) (c).ch.red
 158:Middlewares/lvgl/src/draw/../misc/lv_color.h **** #if LV_COLOR_16_SWAP == 0
 159:Middlewares/lvgl/src/draw/../misc/lv_color.h **** # define LV_COLOR_GET_G16(c) (c).ch.green
 160:Middlewares/lvgl/src/draw/../misc/lv_color.h **** #else
 161:Middlewares/lvgl/src/draw/../misc/lv_color.h **** # define LV_COLOR_GET_G16(c) (((c).ch.green_h << 3) + (c).ch.green_l)
 162:Middlewares/lvgl/src/draw/../misc/lv_color.h **** #endif
 163:Middlewares/lvgl/src/draw/../misc/lv_color.h **** # define LV_COLOR_GET_B16(c) (c).ch.blue
 164:Middlewares/lvgl/src/draw/../misc/lv_color.h **** # define LV_COLOR_GET_A16(c) 0xFF
 165:Middlewares/lvgl/src/draw/../misc/lv_color.h **** 
 166:Middlewares/lvgl/src/draw/../misc/lv_color.h **** #if LV_COLOR_16_SWAP == 0
 167:Middlewares/lvgl/src/draw/../misc/lv_color.h **** # define _LV_COLOR_ZERO_INITIALIZER16  {{0x00, 0x00, 0x00}}
 168:Middlewares/lvgl/src/draw/../misc/lv_color.h **** # define LV_COLOR_MAKE16(r8, g8, b8) {{(uint8_t)((b8 >> 3) & 0x1FU), (uint8_t)((g8 >> 2) & 0x3FU), 
 169:Middlewares/lvgl/src/draw/../misc/lv_color.h **** #else
 170:Middlewares/lvgl/src/draw/../misc/lv_color.h **** # define _LV_COLOR_ZERO_INITIALIZER16 {{0x00, 0x00, 0x00, 0x00}}
 171:Middlewares/lvgl/src/draw/../misc/lv_color.h **** # define LV_COLOR_MAKE16(r8, g8, b8) {{(uint8_t)((g8 >> 5) & 0x7U), (uint8_t)((r8 >> 3) & 0x1FU), (
 172:Middlewares/lvgl/src/draw/../misc/lv_color.h **** #endif
 173:Middlewares/lvgl/src/draw/../misc/lv_color.h **** 
 174:Middlewares/lvgl/src/draw/../misc/lv_color.h **** # define LV_COLOR_SET_R32(c, v) (c).ch.red = (uint8_t)((v) & 0xFF)
 175:Middlewares/lvgl/src/draw/../misc/lv_color.h **** # define LV_COLOR_SET_G32(c, v) (c).ch.green = (uint8_t)((v) & 0xFF)
 176:Middlewares/lvgl/src/draw/../misc/lv_color.h **** # define LV_COLOR_SET_B32(c, v) (c).ch.blue = (uint8_t)((v) & 0xFF)
 177:Middlewares/lvgl/src/draw/../misc/lv_color.h **** # define LV_COLOR_SET_A32(c, v) (c).ch.alpha = (uint8_t)((v) & 0xFF)
 178:Middlewares/lvgl/src/draw/../misc/lv_color.h **** 
 179:Middlewares/lvgl/src/draw/../misc/lv_color.h **** # define LV_COLOR_GET_R32(c) (c).ch.red
 180:Middlewares/lvgl/src/draw/../misc/lv_color.h **** # define LV_COLOR_GET_G32(c) (c).ch.green
 181:Middlewares/lvgl/src/draw/../misc/lv_color.h **** # define LV_COLOR_GET_B32(c) (c).ch.blue
ARM GAS  /tmp/ccTdGo64.s 			page 6


 182:Middlewares/lvgl/src/draw/../misc/lv_color.h **** # define LV_COLOR_GET_A32(c) (c).ch.alpha
 183:Middlewares/lvgl/src/draw/../misc/lv_color.h **** 
 184:Middlewares/lvgl/src/draw/../misc/lv_color.h **** # define _LV_COLOR_ZERO_INITIALIZER32  {{0x00, 0x00, 0x00, 0x00}}
 185:Middlewares/lvgl/src/draw/../misc/lv_color.h **** # define LV_COLOR_MAKE32(r8, g8, b8) {{b8, g8, r8, 0xff}} /*Fix 0xff alpha*/
 186:Middlewares/lvgl/src/draw/../misc/lv_color.h **** 
 187:Middlewares/lvgl/src/draw/../misc/lv_color.h **** /*---------------------------------------
 188:Middlewares/lvgl/src/draw/../misc/lv_color.h ****  * Macros for the current color depth
 189:Middlewares/lvgl/src/draw/../misc/lv_color.h ****  * to set/get values of the color channels
 190:Middlewares/lvgl/src/draw/../misc/lv_color.h ****  *------------------------------------------*/
 191:Middlewares/lvgl/src/draw/../misc/lv_color.h **** #define LV_COLOR_SET_R(c, v) LV_CONCAT(LV_COLOR_SET_R, LV_COLOR_DEPTH)(c, v)
 192:Middlewares/lvgl/src/draw/../misc/lv_color.h **** #define LV_COLOR_SET_G(c, v) LV_CONCAT(LV_COLOR_SET_G, LV_COLOR_DEPTH)(c, v)
 193:Middlewares/lvgl/src/draw/../misc/lv_color.h **** #define LV_COLOR_SET_B(c, v) LV_CONCAT(LV_COLOR_SET_B, LV_COLOR_DEPTH)(c, v)
 194:Middlewares/lvgl/src/draw/../misc/lv_color.h **** #define LV_COLOR_SET_A(c, v) LV_CONCAT(LV_COLOR_SET_A, LV_COLOR_DEPTH)(c, v)
 195:Middlewares/lvgl/src/draw/../misc/lv_color.h **** 
 196:Middlewares/lvgl/src/draw/../misc/lv_color.h **** #define LV_COLOR_GET_R(c) LV_CONCAT(LV_COLOR_GET_R, LV_COLOR_DEPTH)(c)
 197:Middlewares/lvgl/src/draw/../misc/lv_color.h **** #define LV_COLOR_GET_G(c) LV_CONCAT(LV_COLOR_GET_G, LV_COLOR_DEPTH)(c)
 198:Middlewares/lvgl/src/draw/../misc/lv_color.h **** #define LV_COLOR_GET_B(c) LV_CONCAT(LV_COLOR_GET_B, LV_COLOR_DEPTH)(c)
 199:Middlewares/lvgl/src/draw/../misc/lv_color.h **** #define LV_COLOR_GET_A(c) LV_CONCAT(LV_COLOR_GET_A, LV_COLOR_DEPTH)(c)
 200:Middlewares/lvgl/src/draw/../misc/lv_color.h **** 
 201:Middlewares/lvgl/src/draw/../misc/lv_color.h **** #define _LV_COLOR_ZERO_INITIALIZER LV_CONCAT(_LV_COLOR_ZERO_INITIALIZER, LV_COLOR_DEPTH)
 202:Middlewares/lvgl/src/draw/../misc/lv_color.h **** #define LV_COLOR_MAKE(r8, g8, b8) LV_CONCAT(LV_COLOR_MAKE, LV_COLOR_DEPTH)(r8, g8, b8)
 203:Middlewares/lvgl/src/draw/../misc/lv_color.h **** 
 204:Middlewares/lvgl/src/draw/../misc/lv_color.h **** #define LV_UDIV255(x) ((uint32_t)((uint32_t) (x) * 0x8081) >> 0x17)
 205:Middlewares/lvgl/src/draw/../misc/lv_color.h **** 
 206:Middlewares/lvgl/src/draw/../misc/lv_color.h **** /**********************
 207:Middlewares/lvgl/src/draw/../misc/lv_color.h ****  *      TYPEDEFS
 208:Middlewares/lvgl/src/draw/../misc/lv_color.h ****  **********************/
 209:Middlewares/lvgl/src/draw/../misc/lv_color.h **** 
 210:Middlewares/lvgl/src/draw/../misc/lv_color.h **** typedef union {
 211:Middlewares/lvgl/src/draw/../misc/lv_color.h ****     uint8_t full; /*must be declared first to set all bits of byte via initializer list*/
 212:Middlewares/lvgl/src/draw/../misc/lv_color.h ****     union {
 213:Middlewares/lvgl/src/draw/../misc/lv_color.h ****         uint8_t blue : 1;
 214:Middlewares/lvgl/src/draw/../misc/lv_color.h ****         uint8_t green : 1;
 215:Middlewares/lvgl/src/draw/../misc/lv_color.h ****         uint8_t red : 1;
 216:Middlewares/lvgl/src/draw/../misc/lv_color.h ****     } ch;
 217:Middlewares/lvgl/src/draw/../misc/lv_color.h **** } lv_color1_t;
 218:Middlewares/lvgl/src/draw/../misc/lv_color.h **** 
 219:Middlewares/lvgl/src/draw/../misc/lv_color.h **** typedef union {
 220:Middlewares/lvgl/src/draw/../misc/lv_color.h ****     struct {
 221:Middlewares/lvgl/src/draw/../misc/lv_color.h ****         uint8_t blue : 2;
 222:Middlewares/lvgl/src/draw/../misc/lv_color.h ****         uint8_t green : 3;
 223:Middlewares/lvgl/src/draw/../misc/lv_color.h ****         uint8_t red : 3;
 224:Middlewares/lvgl/src/draw/../misc/lv_color.h ****     } ch;
 225:Middlewares/lvgl/src/draw/../misc/lv_color.h ****     uint8_t full;
 226:Middlewares/lvgl/src/draw/../misc/lv_color.h **** } lv_color8_t;
 227:Middlewares/lvgl/src/draw/../misc/lv_color.h **** 
 228:Middlewares/lvgl/src/draw/../misc/lv_color.h **** typedef union {
 229:Middlewares/lvgl/src/draw/../misc/lv_color.h ****     struct {
 230:Middlewares/lvgl/src/draw/../misc/lv_color.h **** #if LV_COLOR_16_SWAP == 0
 231:Middlewares/lvgl/src/draw/../misc/lv_color.h ****         uint16_t blue : 5;
 232:Middlewares/lvgl/src/draw/../misc/lv_color.h ****         uint16_t green : 6;
 233:Middlewares/lvgl/src/draw/../misc/lv_color.h ****         uint16_t red : 5;
 234:Middlewares/lvgl/src/draw/../misc/lv_color.h **** #else
 235:Middlewares/lvgl/src/draw/../misc/lv_color.h ****         uint16_t green_h : 3;
 236:Middlewares/lvgl/src/draw/../misc/lv_color.h ****         uint16_t red : 5;
 237:Middlewares/lvgl/src/draw/../misc/lv_color.h ****         uint16_t blue : 5;
 238:Middlewares/lvgl/src/draw/../misc/lv_color.h ****         uint16_t green_l : 3;
ARM GAS  /tmp/ccTdGo64.s 			page 7


 239:Middlewares/lvgl/src/draw/../misc/lv_color.h **** #endif
 240:Middlewares/lvgl/src/draw/../misc/lv_color.h ****     } ch;
 241:Middlewares/lvgl/src/draw/../misc/lv_color.h ****     uint16_t full;
 242:Middlewares/lvgl/src/draw/../misc/lv_color.h **** } lv_color16_t;
 243:Middlewares/lvgl/src/draw/../misc/lv_color.h **** 
 244:Middlewares/lvgl/src/draw/../misc/lv_color.h **** typedef union {
 245:Middlewares/lvgl/src/draw/../misc/lv_color.h ****     struct {
 246:Middlewares/lvgl/src/draw/../misc/lv_color.h ****         uint8_t blue;
 247:Middlewares/lvgl/src/draw/../misc/lv_color.h ****         uint8_t green;
 248:Middlewares/lvgl/src/draw/../misc/lv_color.h ****         uint8_t red;
 249:Middlewares/lvgl/src/draw/../misc/lv_color.h ****         uint8_t alpha;
 250:Middlewares/lvgl/src/draw/../misc/lv_color.h ****     } ch;
 251:Middlewares/lvgl/src/draw/../misc/lv_color.h ****     uint32_t full;
 252:Middlewares/lvgl/src/draw/../misc/lv_color.h **** } lv_color32_t;
 253:Middlewares/lvgl/src/draw/../misc/lv_color.h **** 
 254:Middlewares/lvgl/src/draw/../misc/lv_color.h **** typedef LV_CONCAT3(uint, LV_COLOR_SIZE, _t) lv_color_int_t;
 255:Middlewares/lvgl/src/draw/../misc/lv_color.h **** typedef LV_CONCAT3(lv_color, LV_COLOR_DEPTH, _t) lv_color_t;
 256:Middlewares/lvgl/src/draw/../misc/lv_color.h **** 
 257:Middlewares/lvgl/src/draw/../misc/lv_color.h **** typedef struct {
 258:Middlewares/lvgl/src/draw/../misc/lv_color.h ****     uint16_t h;
 259:Middlewares/lvgl/src/draw/../misc/lv_color.h ****     uint8_t s;
 260:Middlewares/lvgl/src/draw/../misc/lv_color.h ****     uint8_t v;
 261:Middlewares/lvgl/src/draw/../misc/lv_color.h **** } lv_color_hsv_t;
 262:Middlewares/lvgl/src/draw/../misc/lv_color.h **** 
 263:Middlewares/lvgl/src/draw/../misc/lv_color.h **** //! @cond Doxygen_Suppress
 264:Middlewares/lvgl/src/draw/../misc/lv_color.h **** /*No idea where the guard is required but else throws warnings in the docs*/
 265:Middlewares/lvgl/src/draw/../misc/lv_color.h **** typedef uint8_t lv_opa_t;
 266:Middlewares/lvgl/src/draw/../misc/lv_color.h **** //! @endcond
 267:Middlewares/lvgl/src/draw/../misc/lv_color.h **** 
 268:Middlewares/lvgl/src/draw/../misc/lv_color.h **** struct _lv_color_filter_dsc_t;
 269:Middlewares/lvgl/src/draw/../misc/lv_color.h **** 
 270:Middlewares/lvgl/src/draw/../misc/lv_color.h **** typedef lv_color_t (*lv_color_filter_cb_t)(const struct _lv_color_filter_dsc_t *, lv_color_t, lv_op
 271:Middlewares/lvgl/src/draw/../misc/lv_color.h **** 
 272:Middlewares/lvgl/src/draw/../misc/lv_color.h **** typedef struct _lv_color_filter_dsc_t {
 273:Middlewares/lvgl/src/draw/../misc/lv_color.h ****     lv_color_filter_cb_t filter_cb;
 274:Middlewares/lvgl/src/draw/../misc/lv_color.h ****     void * user_data;
 275:Middlewares/lvgl/src/draw/../misc/lv_color.h **** }lv_color_filter_dsc_t;
 276:Middlewares/lvgl/src/draw/../misc/lv_color.h **** 
 277:Middlewares/lvgl/src/draw/../misc/lv_color.h **** 
 278:Middlewares/lvgl/src/draw/../misc/lv_color.h **** typedef enum {
 279:Middlewares/lvgl/src/draw/../misc/lv_color.h ****     LV_PALETTE_RED,
 280:Middlewares/lvgl/src/draw/../misc/lv_color.h ****     LV_PALETTE_PINK,
 281:Middlewares/lvgl/src/draw/../misc/lv_color.h ****     LV_PALETTE_PURPLE,
 282:Middlewares/lvgl/src/draw/../misc/lv_color.h ****     LV_PALETTE_DEEP_PURPLE,
 283:Middlewares/lvgl/src/draw/../misc/lv_color.h ****     LV_PALETTE_INDIGO,
 284:Middlewares/lvgl/src/draw/../misc/lv_color.h ****     LV_PALETTE_BLUE,
 285:Middlewares/lvgl/src/draw/../misc/lv_color.h ****     LV_PALETTE_LIGHT_BLUE,
 286:Middlewares/lvgl/src/draw/../misc/lv_color.h ****     LV_PALETTE_CYAN,
 287:Middlewares/lvgl/src/draw/../misc/lv_color.h ****     LV_PALETTE_TEAL,
 288:Middlewares/lvgl/src/draw/../misc/lv_color.h ****     LV_PALETTE_GREEN,
 289:Middlewares/lvgl/src/draw/../misc/lv_color.h ****     LV_PALETTE_LIGHT_GREEN,
 290:Middlewares/lvgl/src/draw/../misc/lv_color.h ****     LV_PALETTE_LIME,
 291:Middlewares/lvgl/src/draw/../misc/lv_color.h ****     LV_PALETTE_YELLOW,
 292:Middlewares/lvgl/src/draw/../misc/lv_color.h ****     LV_PALETTE_AMBER,
 293:Middlewares/lvgl/src/draw/../misc/lv_color.h ****     LV_PALETTE_ORANGE,
 294:Middlewares/lvgl/src/draw/../misc/lv_color.h ****     LV_PALETTE_DEEP_ORANGE,
 295:Middlewares/lvgl/src/draw/../misc/lv_color.h ****     LV_PALETTE_BROWN,
ARM GAS  /tmp/ccTdGo64.s 			page 8


 296:Middlewares/lvgl/src/draw/../misc/lv_color.h ****     LV_PALETTE_BLUE_GREY,
 297:Middlewares/lvgl/src/draw/../misc/lv_color.h ****     LV_PALETTE_GREY,
 298:Middlewares/lvgl/src/draw/../misc/lv_color.h ****     _LV_PALETTE_LAST,
 299:Middlewares/lvgl/src/draw/../misc/lv_color.h ****     LV_PALETTE_NONE = 0xff,
 300:Middlewares/lvgl/src/draw/../misc/lv_color.h **** }lv_palette_t;
 301:Middlewares/lvgl/src/draw/../misc/lv_color.h **** 
 302:Middlewares/lvgl/src/draw/../misc/lv_color.h **** /**********************
 303:Middlewares/lvgl/src/draw/../misc/lv_color.h ****  * GLOBAL PROTOTYPES
 304:Middlewares/lvgl/src/draw/../misc/lv_color.h ****  **********************/
 305:Middlewares/lvgl/src/draw/../misc/lv_color.h **** 
 306:Middlewares/lvgl/src/draw/../misc/lv_color.h **** /*In color conversations:
 307:Middlewares/lvgl/src/draw/../misc/lv_color.h ****  * - When converting to bigger color type the LSB weight of 1 LSB is calculated
 308:Middlewares/lvgl/src/draw/../misc/lv_color.h ****  *   E.g. 16 bit Red has 5 bits
 309:Middlewares/lvgl/src/draw/../misc/lv_color.h ****  *         8 bit Red has 3 bits
 310:Middlewares/lvgl/src/draw/../misc/lv_color.h ****  *        ----------------------
 311:Middlewares/lvgl/src/draw/../misc/lv_color.h ****  *        8 bit red LSB = (2^5 - 1) / (2^3 - 1) = 31 / 7 = 4
 312:Middlewares/lvgl/src/draw/../misc/lv_color.h ****  *
 313:Middlewares/lvgl/src/draw/../misc/lv_color.h ****  * - When calculating to smaller color type simply shift out the LSBs
 314:Middlewares/lvgl/src/draw/../misc/lv_color.h ****  *   E.g.  8 bit Red has 3 bits
 315:Middlewares/lvgl/src/draw/../misc/lv_color.h ****  *        16 bit Red has 5 bits
 316:Middlewares/lvgl/src/draw/../misc/lv_color.h ****  *        ----------------------
 317:Middlewares/lvgl/src/draw/../misc/lv_color.h ****  *         Shift right with 5 - 3 = 2
 318:Middlewares/lvgl/src/draw/../misc/lv_color.h ****  */
 319:Middlewares/lvgl/src/draw/../misc/lv_color.h **** static inline uint8_t lv_color_to1(lv_color_t color)
 320:Middlewares/lvgl/src/draw/../misc/lv_color.h **** {
 321:Middlewares/lvgl/src/draw/../misc/lv_color.h **** #if LV_COLOR_DEPTH == 1
 322:Middlewares/lvgl/src/draw/../misc/lv_color.h ****     return color.full;
 323:Middlewares/lvgl/src/draw/../misc/lv_color.h **** #elif LV_COLOR_DEPTH == 8
 324:Middlewares/lvgl/src/draw/../misc/lv_color.h ****     if((LV_COLOR_GET_R(color) & 0x4) || (LV_COLOR_GET_G(color) & 0x4) || (LV_COLOR_GET_B(color) & 0
 325:Middlewares/lvgl/src/draw/../misc/lv_color.h ****         return 1;
 326:Middlewares/lvgl/src/draw/../misc/lv_color.h ****     }
 327:Middlewares/lvgl/src/draw/../misc/lv_color.h ****     else {
 328:Middlewares/lvgl/src/draw/../misc/lv_color.h ****         return 0;
 329:Middlewares/lvgl/src/draw/../misc/lv_color.h ****     }
 330:Middlewares/lvgl/src/draw/../misc/lv_color.h **** #elif LV_COLOR_DEPTH == 16
 331:Middlewares/lvgl/src/draw/../misc/lv_color.h ****     if((LV_COLOR_GET_R(color) & 0x10) || (LV_COLOR_GET_G(color) & 0x20) || (LV_COLOR_GET_B(color) &
 332:Middlewares/lvgl/src/draw/../misc/lv_color.h ****         return 1;
 333:Middlewares/lvgl/src/draw/../misc/lv_color.h ****     }
 334:Middlewares/lvgl/src/draw/../misc/lv_color.h ****     else {
 335:Middlewares/lvgl/src/draw/../misc/lv_color.h ****         return 0;
 336:Middlewares/lvgl/src/draw/../misc/lv_color.h ****     }
 337:Middlewares/lvgl/src/draw/../misc/lv_color.h **** #elif LV_COLOR_DEPTH == 32
 338:Middlewares/lvgl/src/draw/../misc/lv_color.h ****     if((LV_COLOR_GET_R(color) & 0x80) || (LV_COLOR_GET_G(color) & 0x80) || (LV_COLOR_GET_B(color) &
 339:Middlewares/lvgl/src/draw/../misc/lv_color.h ****         return 1;
 340:Middlewares/lvgl/src/draw/../misc/lv_color.h ****     }
 341:Middlewares/lvgl/src/draw/../misc/lv_color.h ****     else {
 342:Middlewares/lvgl/src/draw/../misc/lv_color.h ****         return 0;
 343:Middlewares/lvgl/src/draw/../misc/lv_color.h ****     }
 344:Middlewares/lvgl/src/draw/../misc/lv_color.h **** #endif
 345:Middlewares/lvgl/src/draw/../misc/lv_color.h **** }
 346:Middlewares/lvgl/src/draw/../misc/lv_color.h **** 
 347:Middlewares/lvgl/src/draw/../misc/lv_color.h **** static inline uint8_t lv_color_to8(lv_color_t color)
 348:Middlewares/lvgl/src/draw/../misc/lv_color.h **** {
 349:Middlewares/lvgl/src/draw/../misc/lv_color.h **** #if LV_COLOR_DEPTH == 1
 350:Middlewares/lvgl/src/draw/../misc/lv_color.h ****     if(color.full == 0)
 351:Middlewares/lvgl/src/draw/../misc/lv_color.h ****         return 0;
 352:Middlewares/lvgl/src/draw/../misc/lv_color.h ****     else
ARM GAS  /tmp/ccTdGo64.s 			page 9


 353:Middlewares/lvgl/src/draw/../misc/lv_color.h ****         return 0xFF;
 354:Middlewares/lvgl/src/draw/../misc/lv_color.h **** #elif LV_COLOR_DEPTH == 8
 355:Middlewares/lvgl/src/draw/../misc/lv_color.h ****     return color.full;
 356:Middlewares/lvgl/src/draw/../misc/lv_color.h **** #elif LV_COLOR_DEPTH == 16
 357:Middlewares/lvgl/src/draw/../misc/lv_color.h ****     lv_color8_t ret;
 358:Middlewares/lvgl/src/draw/../misc/lv_color.h ****     LV_COLOR_SET_R8(ret, LV_COLOR_GET_R(color) >> 2); /*5 - 3  = 2*/
 359:Middlewares/lvgl/src/draw/../misc/lv_color.h ****     LV_COLOR_SET_G8(ret, LV_COLOR_GET_G(color) >> 3); /*6 - 3  = 3*/
 360:Middlewares/lvgl/src/draw/../misc/lv_color.h ****     LV_COLOR_SET_B8(ret, LV_COLOR_GET_B(color) >> 3); /*5 - 2  = 3*/
 361:Middlewares/lvgl/src/draw/../misc/lv_color.h ****     return ret.full;
 362:Middlewares/lvgl/src/draw/../misc/lv_color.h **** #elif LV_COLOR_DEPTH == 32
 363:Middlewares/lvgl/src/draw/../misc/lv_color.h ****     lv_color8_t ret;
 364:Middlewares/lvgl/src/draw/../misc/lv_color.h ****     LV_COLOR_SET_R8(ret, LV_COLOR_GET_R(color) >> 5); /*8 - 3  = 5*/
 365:Middlewares/lvgl/src/draw/../misc/lv_color.h ****     LV_COLOR_SET_G8(ret, LV_COLOR_GET_G(color) >> 5); /*8 - 3  = 5*/
 366:Middlewares/lvgl/src/draw/../misc/lv_color.h ****     LV_COLOR_SET_B8(ret, LV_COLOR_GET_B(color) >> 6); /*8 - 2  = 6*/
 367:Middlewares/lvgl/src/draw/../misc/lv_color.h ****     return ret.full;
 368:Middlewares/lvgl/src/draw/../misc/lv_color.h **** #endif
 369:Middlewares/lvgl/src/draw/../misc/lv_color.h **** }
 370:Middlewares/lvgl/src/draw/../misc/lv_color.h **** 
 371:Middlewares/lvgl/src/draw/../misc/lv_color.h **** static inline uint16_t lv_color_to16(lv_color_t color)
 372:Middlewares/lvgl/src/draw/../misc/lv_color.h **** {
 373:Middlewares/lvgl/src/draw/../misc/lv_color.h **** #if LV_COLOR_DEPTH == 1
 374:Middlewares/lvgl/src/draw/../misc/lv_color.h ****     if(color.full == 0)
 375:Middlewares/lvgl/src/draw/../misc/lv_color.h ****         return 0;
 376:Middlewares/lvgl/src/draw/../misc/lv_color.h ****     else
 377:Middlewares/lvgl/src/draw/../misc/lv_color.h ****         return 0xFFFF;
 378:Middlewares/lvgl/src/draw/../misc/lv_color.h **** #elif LV_COLOR_DEPTH == 8
 379:Middlewares/lvgl/src/draw/../misc/lv_color.h ****     lv_color16_t ret;
 380:Middlewares/lvgl/src/draw/../misc/lv_color.h ****     LV_COLOR_SET_R16(ret, LV_COLOR_GET_R(color) * 4);  /*(2^5 - 1)/(2^3 - 1) = 31/7 = 4*/
 381:Middlewares/lvgl/src/draw/../misc/lv_color.h ****     LV_COLOR_SET_G16(ret, LV_COLOR_GET_G(color) * 9);  /*(2^6 - 1)/(2^3 - 1) = 63/7 = 9*/
 382:Middlewares/lvgl/src/draw/../misc/lv_color.h ****     LV_COLOR_SET_B16(ret, LV_COLOR_GET_B(color) * 10); /*(2^5 - 1)/(2^2 - 1) = 31/3 = 10*/
 383:Middlewares/lvgl/src/draw/../misc/lv_color.h ****     return ret.full;
 384:Middlewares/lvgl/src/draw/../misc/lv_color.h **** #elif LV_COLOR_DEPTH == 16
 385:Middlewares/lvgl/src/draw/../misc/lv_color.h ****     return color.full;
 386:Middlewares/lvgl/src/draw/../misc/lv_color.h **** #elif LV_COLOR_DEPTH == 32
 387:Middlewares/lvgl/src/draw/../misc/lv_color.h ****     lv_color16_t ret;
 388:Middlewares/lvgl/src/draw/../misc/lv_color.h ****     LV_COLOR_SET_R16(ret, LV_COLOR_GET_R(color) >> 3); /*8 - 5  = 3*/
 389:Middlewares/lvgl/src/draw/../misc/lv_color.h ****     LV_COLOR_SET_G16(ret, LV_COLOR_GET_G(color) >> 2); /*8 - 6  = 2*/
 390:Middlewares/lvgl/src/draw/../misc/lv_color.h ****     LV_COLOR_SET_B16(ret, LV_COLOR_GET_B(color) >> 3); /*8 - 5  = 3*/
 391:Middlewares/lvgl/src/draw/../misc/lv_color.h ****     return ret.full;
 392:Middlewares/lvgl/src/draw/../misc/lv_color.h **** #endif
 393:Middlewares/lvgl/src/draw/../misc/lv_color.h **** }
 394:Middlewares/lvgl/src/draw/../misc/lv_color.h **** 
 395:Middlewares/lvgl/src/draw/../misc/lv_color.h **** static inline uint32_t lv_color_to32(lv_color_t color)
 396:Middlewares/lvgl/src/draw/../misc/lv_color.h **** {
 397:Middlewares/lvgl/src/draw/../misc/lv_color.h **** #if LV_COLOR_DEPTH == 1
 398:Middlewares/lvgl/src/draw/../misc/lv_color.h ****     if(color.full == 0)
 399:Middlewares/lvgl/src/draw/../misc/lv_color.h ****         return 0xFF000000;
 400:Middlewares/lvgl/src/draw/../misc/lv_color.h ****     else
 401:Middlewares/lvgl/src/draw/../misc/lv_color.h ****         return 0xFFFFFFFF;
 402:Middlewares/lvgl/src/draw/../misc/lv_color.h **** #elif LV_COLOR_DEPTH == 8
 403:Middlewares/lvgl/src/draw/../misc/lv_color.h ****     lv_color32_t ret;
 404:Middlewares/lvgl/src/draw/../misc/lv_color.h ****     LV_COLOR_SET_R32(ret, LV_COLOR_GET_R(color) * 36); /*(2^8 - 1)/(2^3 - 1) = 255/7 = 36*/
 405:Middlewares/lvgl/src/draw/../misc/lv_color.h ****     LV_COLOR_SET_G32(ret, LV_COLOR_GET_G(color) * 36); /*(2^8 - 1)/(2^3 - 1) = 255/7 = 36*/
 406:Middlewares/lvgl/src/draw/../misc/lv_color.h ****     LV_COLOR_SET_B32(ret, LV_COLOR_GET_B(color) * 85); /*(2^8 - 1)/(2^2 - 1) = 255/3 = 85*/
 407:Middlewares/lvgl/src/draw/../misc/lv_color.h ****     LV_COLOR_SET_A32(ret, 0xFF);
 408:Middlewares/lvgl/src/draw/../misc/lv_color.h ****     return ret.full;
 409:Middlewares/lvgl/src/draw/../misc/lv_color.h **** #elif LV_COLOR_DEPTH == 16
ARM GAS  /tmp/ccTdGo64.s 			page 10


 410:Middlewares/lvgl/src/draw/../misc/lv_color.h ****     /**
 411:Middlewares/lvgl/src/draw/../misc/lv_color.h ****      * The floating point math for conversion is:
 412:Middlewares/lvgl/src/draw/../misc/lv_color.h ****      *  valueto = valuefrom * ( (2^bitsto - 1) / (float)(2^bitsfrom - 1) )
 413:Middlewares/lvgl/src/draw/../misc/lv_color.h ****      * The faster integer math for conversion is:
 414:Middlewares/lvgl/src/draw/../misc/lv_color.h ****      *  valueto = ( valuefrom * multiplier + adder ) >> divisor
 415:Middlewares/lvgl/src/draw/../misc/lv_color.h ****      *   multiplier = FLOOR( ( (2^bitsto - 1) << divisor ) / (float)(2^bitsfrom - 1) )
 416:Middlewares/lvgl/src/draw/../misc/lv_color.h ****      *
 417:Middlewares/lvgl/src/draw/../misc/lv_color.h ****      * Find the first divisor where ( adder >> divisor ) <= 0
 418:Middlewares/lvgl/src/draw/../misc/lv_color.h ****      *
 419:Middlewares/lvgl/src/draw/../misc/lv_color.h ****      * 5-bit to 8-bit: ( 31 * multiplier + adder ) >> divisor = 255
 420:Middlewares/lvgl/src/draw/../misc/lv_color.h ****      * divisor  multiplier  adder  min (0)  max (31)
 421:Middlewares/lvgl/src/draw/../misc/lv_color.h ****      *       0           8      7        7       255
 422:Middlewares/lvgl/src/draw/../misc/lv_color.h ****      *       1          16     14        7       255
 423:Middlewares/lvgl/src/draw/../misc/lv_color.h ****      *       2          32     28        7       255
 424:Middlewares/lvgl/src/draw/../misc/lv_color.h ****      *       3          65     25        3       255
 425:Middlewares/lvgl/src/draw/../misc/lv_color.h ****      *       4         131     19        1       255
 426:Middlewares/lvgl/src/draw/../misc/lv_color.h ****      *       5         263      7        0       255
 427:Middlewares/lvgl/src/draw/../misc/lv_color.h ****      *
 428:Middlewares/lvgl/src/draw/../misc/lv_color.h ****      * 6-bit to 8-bit: 255 = ( 63 * multiplier + adder ) >> divisor
 429:Middlewares/lvgl/src/draw/../misc/lv_color.h ****      * divisor  multiplier  adder  min (0)  max (63)
 430:Middlewares/lvgl/src/draw/../misc/lv_color.h ****      *       0           4      3        3       255
 431:Middlewares/lvgl/src/draw/../misc/lv_color.h ****      *       1           8      6        3       255
 432:Middlewares/lvgl/src/draw/../misc/lv_color.h ****      *       2          16     12        3       255
 433:Middlewares/lvgl/src/draw/../misc/lv_color.h ****      *       3          32     24        3       255
 434:Middlewares/lvgl/src/draw/../misc/lv_color.h ****      *       4          64     48        3       255
 435:Middlewares/lvgl/src/draw/../misc/lv_color.h ****      *       5         129     33        1       255
 436:Middlewares/lvgl/src/draw/../misc/lv_color.h ****      *       6         259      3        0       255
 437:Middlewares/lvgl/src/draw/../misc/lv_color.h ****      */
 438:Middlewares/lvgl/src/draw/../misc/lv_color.h **** 
 439:Middlewares/lvgl/src/draw/../misc/lv_color.h ****     lv_color32_t ret;
 440:Middlewares/lvgl/src/draw/../misc/lv_color.h ****     LV_COLOR_SET_R32(ret, (LV_COLOR_GET_R(color) * 263 + 7) >> 5);
 441:Middlewares/lvgl/src/draw/../misc/lv_color.h ****     LV_COLOR_SET_G32(ret, (LV_COLOR_GET_G(color) * 259 + 3) >> 6);
 442:Middlewares/lvgl/src/draw/../misc/lv_color.h ****     LV_COLOR_SET_B32(ret, (LV_COLOR_GET_B(color) * 263 + 7) >> 5);
 443:Middlewares/lvgl/src/draw/../misc/lv_color.h ****     LV_COLOR_SET_A32(ret, 0xFF);
 444:Middlewares/lvgl/src/draw/../misc/lv_color.h ****     return ret.full;
 445:Middlewares/lvgl/src/draw/../misc/lv_color.h **** #elif LV_COLOR_DEPTH == 32
 446:Middlewares/lvgl/src/draw/../misc/lv_color.h ****     return color.full;
 447:Middlewares/lvgl/src/draw/../misc/lv_color.h **** #endif
 448:Middlewares/lvgl/src/draw/../misc/lv_color.h **** }
 449:Middlewares/lvgl/src/draw/../misc/lv_color.h **** 
 450:Middlewares/lvgl/src/draw/../misc/lv_color.h **** //! @cond Doxygen_Suppress
 451:Middlewares/lvgl/src/draw/../misc/lv_color.h **** 
 452:Middlewares/lvgl/src/draw/../misc/lv_color.h **** /**
 453:Middlewares/lvgl/src/draw/../misc/lv_color.h ****  * Mix two colors with a given ratio.
 454:Middlewares/lvgl/src/draw/../misc/lv_color.h ****  * @param c1 the first color to mix (usually the foreground)
 455:Middlewares/lvgl/src/draw/../misc/lv_color.h ****  * @param c2 the second color to mix (usually the background)
 456:Middlewares/lvgl/src/draw/../misc/lv_color.h ****  * @param mix The ratio of the colors. 0: full `c2`, 255: full `c1`, 127: half `c1` and half`c2`
 457:Middlewares/lvgl/src/draw/../misc/lv_color.h ****  * @return the mixed color
 458:Middlewares/lvgl/src/draw/../misc/lv_color.h ****  */
 459:Middlewares/lvgl/src/draw/../misc/lv_color.h **** LV_ATTRIBUTE_FAST_MEM static inline lv_color_t lv_color_mix(lv_color_t c1, lv_color_t c2, uint8_t m
 460:Middlewares/lvgl/src/draw/../misc/lv_color.h **** {
 461:Middlewares/lvgl/src/draw/../misc/lv_color.h ****     lv_color_t ret;
 462:Middlewares/lvgl/src/draw/../misc/lv_color.h **** #if LV_COLOR_DEPTH != 1
 463:Middlewares/lvgl/src/draw/../misc/lv_color.h ****     /*LV_COLOR_DEPTH == 8, 16 or 32*/
 464:Middlewares/lvgl/src/draw/../misc/lv_color.h ****     LV_COLOR_SET_R(ret, LV_UDIV255((uint16_t) LV_COLOR_GET_R(c1) * mix + LV_COLOR_GET_R(c2) *
 465:Middlewares/lvgl/src/draw/../misc/lv_color.h ****                                         (255 - mix) + LV_COLOR_MIX_ROUND_OFS));
 466:Middlewares/lvgl/src/draw/../misc/lv_color.h ****     LV_COLOR_SET_G(ret, LV_UDIV255((uint16_t) LV_COLOR_GET_G(c1) * mix + LV_COLOR_GET_G(c2) *
ARM GAS  /tmp/ccTdGo64.s 			page 11


 467:Middlewares/lvgl/src/draw/../misc/lv_color.h ****                                         (255 - mix) + LV_COLOR_MIX_ROUND_OFS));
 468:Middlewares/lvgl/src/draw/../misc/lv_color.h ****     LV_COLOR_SET_B(ret, LV_UDIV255((uint16_t) LV_COLOR_GET_B(c1) * mix + LV_COLOR_GET_B(c2) *
 469:Middlewares/lvgl/src/draw/../misc/lv_color.h ****                                         (255 - mix) + LV_COLOR_MIX_ROUND_OFS));
 470:Middlewares/lvgl/src/draw/../misc/lv_color.h ****     LV_COLOR_SET_A(ret, 0xFF);
 471:Middlewares/lvgl/src/draw/../misc/lv_color.h **** #else
 472:Middlewares/lvgl/src/draw/../misc/lv_color.h ****     /*LV_COLOR_DEPTH == 1*/
 473:Middlewares/lvgl/src/draw/../misc/lv_color.h ****     ret.full = mix > LV_OPA_50 ? c1.full : c2.full;
 474:Middlewares/lvgl/src/draw/../misc/lv_color.h **** #endif
 475:Middlewares/lvgl/src/draw/../misc/lv_color.h **** 
 476:Middlewares/lvgl/src/draw/../misc/lv_color.h ****     return ret;
 477:Middlewares/lvgl/src/draw/../misc/lv_color.h **** }
 478:Middlewares/lvgl/src/draw/../misc/lv_color.h **** 
 479:Middlewares/lvgl/src/draw/../misc/lv_color.h **** LV_ATTRIBUTE_FAST_MEM static inline void lv_color_premult(lv_color_t c, uint8_t mix, uint16_t * out
 480:Middlewares/lvgl/src/draw/../misc/lv_color.h **** {
 481:Middlewares/lvgl/src/draw/../misc/lv_color.h **** #if LV_COLOR_DEPTH != 1
 482:Middlewares/lvgl/src/draw/../misc/lv_color.h ****     out[0] = (uint16_t) LV_COLOR_GET_R(c) * mix;
 483:Middlewares/lvgl/src/draw/../misc/lv_color.h ****     out[1] = (uint16_t) LV_COLOR_GET_G(c) * mix;
 484:Middlewares/lvgl/src/draw/../misc/lv_color.h ****     out[2] = (uint16_t) LV_COLOR_GET_B(c) * mix;
 485:Middlewares/lvgl/src/draw/../misc/lv_color.h **** #else
 486:Middlewares/lvgl/src/draw/../misc/lv_color.h ****     (void) mix;
 487:Middlewares/lvgl/src/draw/../misc/lv_color.h ****     /*Pre-multiplication can't be used with 1 bpp*/
 488:Middlewares/lvgl/src/draw/../misc/lv_color.h ****     out[0] = LV_COLOR_GET_R(c);
 489:Middlewares/lvgl/src/draw/../misc/lv_color.h ****     out[1] = LV_COLOR_GET_G(c);
 490:Middlewares/lvgl/src/draw/../misc/lv_color.h ****     out[2] = LV_COLOR_GET_B(c);
 491:Middlewares/lvgl/src/draw/../misc/lv_color.h **** #endif
 492:Middlewares/lvgl/src/draw/../misc/lv_color.h **** 
 493:Middlewares/lvgl/src/draw/../misc/lv_color.h **** }
 494:Middlewares/lvgl/src/draw/../misc/lv_color.h **** 
 495:Middlewares/lvgl/src/draw/../misc/lv_color.h **** /**
 496:Middlewares/lvgl/src/draw/../misc/lv_color.h ****  * Mix two colors with a given ratio. It runs faster then `lv_color_mix` but requires some pre comp
 497:Middlewares/lvgl/src/draw/../misc/lv_color.h ****  * @param premult_c1 The first color. Should be preprocessed with `lv_color_premult(c1)`
 498:Middlewares/lvgl/src/draw/../misc/lv_color.h ****  * @param c2 The second color. As it is no pre computation required on it
 499:Middlewares/lvgl/src/draw/../misc/lv_color.h ****  * @param mix The ratio of the colors. 0: full `c1`, 255: full `c2`, 127: half `c1` and half `c2`.
 500:Middlewares/lvgl/src/draw/../misc/lv_color.h ****  *            Should be modified like mix = `255 - mix`
 501:Middlewares/lvgl/src/draw/../misc/lv_color.h ****  * @return the mixed color
 502:Middlewares/lvgl/src/draw/../misc/lv_color.h ****  * @note 255 won't give clearly `c1`.
 503:Middlewares/lvgl/src/draw/../misc/lv_color.h ****  */
 504:Middlewares/lvgl/src/draw/../misc/lv_color.h **** LV_ATTRIBUTE_FAST_MEM static inline lv_color_t lv_color_mix_premult(uint16_t * premult_c1, lv_color
 505:Middlewares/lvgl/src/draw/../misc/lv_color.h **** {
 506:Middlewares/lvgl/src/draw/../misc/lv_color.h ****     lv_color_t ret;
 507:Middlewares/lvgl/src/draw/../misc/lv_color.h **** #if LV_COLOR_DEPTH != 1
 508:Middlewares/lvgl/src/draw/../misc/lv_color.h ****     /*LV_COLOR_DEPTH == 8, 16 or 32*/
 509:Middlewares/lvgl/src/draw/../misc/lv_color.h ****     LV_COLOR_SET_R(ret, LV_UDIV255(premult_c1[0] + LV_COLOR_GET_R(c2) * mix + LV_COLOR_MIX_ROUND_OF
 510:Middlewares/lvgl/src/draw/../misc/lv_color.h ****     LV_COLOR_SET_G(ret, LV_UDIV255(premult_c1[1] + LV_COLOR_GET_G(c2) * mix + LV_COLOR_MIX_ROUND_OF
 511:Middlewares/lvgl/src/draw/../misc/lv_color.h ****     LV_COLOR_SET_B(ret, LV_UDIV255(premult_c1[2] + LV_COLOR_GET_B(c2) * mix + LV_COLOR_MIX_ROUND_OF
 512:Middlewares/lvgl/src/draw/../misc/lv_color.h ****     LV_COLOR_SET_A(ret, 0xFF);
 513:Middlewares/lvgl/src/draw/../misc/lv_color.h **** #else
 514:Middlewares/lvgl/src/draw/../misc/lv_color.h ****     /*LV_COLOR_DEPTH == 1*/
 515:Middlewares/lvgl/src/draw/../misc/lv_color.h ****     /*Restore color1*/
 516:Middlewares/lvgl/src/draw/../misc/lv_color.h ****     lv_color_t c1;
 517:Middlewares/lvgl/src/draw/../misc/lv_color.h ****     LV_COLOR_SET_R(c1, premult_c1[0]);
 518:Middlewares/lvgl/src/draw/../misc/lv_color.h ****     LV_COLOR_SET_G(c1, premult_c1[1]);
 519:Middlewares/lvgl/src/draw/../misc/lv_color.h ****     LV_COLOR_SET_B(c1, premult_c1[2]);
 520:Middlewares/lvgl/src/draw/../misc/lv_color.h ****     ret.full = mix > LV_OPA_50 ? c2.full : c1.full;
 521:Middlewares/lvgl/src/draw/../misc/lv_color.h **** #endif
 522:Middlewares/lvgl/src/draw/../misc/lv_color.h **** 
 523:Middlewares/lvgl/src/draw/../misc/lv_color.h ****     return ret;
ARM GAS  /tmp/ccTdGo64.s 			page 12


 524:Middlewares/lvgl/src/draw/../misc/lv_color.h **** }
 525:Middlewares/lvgl/src/draw/../misc/lv_color.h **** 
 526:Middlewares/lvgl/src/draw/../misc/lv_color.h **** /**
 527:Middlewares/lvgl/src/draw/../misc/lv_color.h ****  * Mix two colors. Both color can have alpha value.
 528:Middlewares/lvgl/src/draw/../misc/lv_color.h ****  * @param bg_color background color
 529:Middlewares/lvgl/src/draw/../misc/lv_color.h ****  * @param bg_opa alpha of the background color
 530:Middlewares/lvgl/src/draw/../misc/lv_color.h ****  * @param fg_color foreground color
 531:Middlewares/lvgl/src/draw/../misc/lv_color.h ****  * @param fg_opa alpha of the foreground color
 532:Middlewares/lvgl/src/draw/../misc/lv_color.h ****  * @param res_color the result color
 533:Middlewares/lvgl/src/draw/../misc/lv_color.h ****  * @param res_opa the result opacity
 534:Middlewares/lvgl/src/draw/../misc/lv_color.h ****  */
 535:Middlewares/lvgl/src/draw/../misc/lv_color.h **** LV_ATTRIBUTE_FAST_MEM static inline void lv_color_mix_with_alpha(lv_color_t bg_color, lv_opa_t bg_o
 536:Middlewares/lvgl/src/draw/../misc/lv_color.h ****                                                                  lv_color_t fg_color, lv_opa_t fg_o
 537:Middlewares/lvgl/src/draw/../misc/lv_color.h ****                                                                  lv_color_t * res_color, lv_opa_t *
 538:Middlewares/lvgl/src/draw/../misc/lv_color.h **** {
 539:Middlewares/lvgl/src/draw/../misc/lv_color.h ****     /*Pick the foreground if it's fully opaque or the Background is fully transparent*/
 540:Middlewares/lvgl/src/draw/../misc/lv_color.h ****     if(fg_opa >= LV_OPA_MAX || bg_opa <= LV_OPA_MIN) {
 541:Middlewares/lvgl/src/draw/../misc/lv_color.h ****         res_color->full = fg_color.full;
 542:Middlewares/lvgl/src/draw/../misc/lv_color.h ****         *res_opa = fg_opa;
 543:Middlewares/lvgl/src/draw/../misc/lv_color.h ****     }
 544:Middlewares/lvgl/src/draw/../misc/lv_color.h ****     /*Transparent foreground: use the Background*/
 545:Middlewares/lvgl/src/draw/../misc/lv_color.h ****     else if(fg_opa <= LV_OPA_MIN) {
 546:Middlewares/lvgl/src/draw/../misc/lv_color.h ****         res_color->full = bg_color.full;
 547:Middlewares/lvgl/src/draw/../misc/lv_color.h ****         *res_opa = bg_opa;
 548:Middlewares/lvgl/src/draw/../misc/lv_color.h ****     }
 549:Middlewares/lvgl/src/draw/../misc/lv_color.h ****     /*Opaque background: use simple mix*/
 550:Middlewares/lvgl/src/draw/../misc/lv_color.h ****     else if(bg_opa >= LV_OPA_MAX) {
 551:Middlewares/lvgl/src/draw/../misc/lv_color.h ****         *res_color = lv_color_mix(fg_color, bg_color, fg_opa);
 552:Middlewares/lvgl/src/draw/../misc/lv_color.h ****         *res_opa = LV_OPA_COVER;
 553:Middlewares/lvgl/src/draw/../misc/lv_color.h ****     }
 554:Middlewares/lvgl/src/draw/../misc/lv_color.h ****     /*Both colors have alpha. Expensive calculation need to be applied*/
 555:Middlewares/lvgl/src/draw/../misc/lv_color.h ****     else {
 556:Middlewares/lvgl/src/draw/../misc/lv_color.h ****         /*Save the parameters and the result. If they will be asked again don't compute again*/
 557:Middlewares/lvgl/src/draw/../misc/lv_color.h ****         static lv_opa_t fg_opa_save     = 0;
 558:Middlewares/lvgl/src/draw/../misc/lv_color.h ****         static lv_opa_t bg_opa_save     = 0;
 559:Middlewares/lvgl/src/draw/../misc/lv_color.h ****         static lv_color_t fg_color_save = _LV_COLOR_ZERO_INITIALIZER;
 560:Middlewares/lvgl/src/draw/../misc/lv_color.h ****         static lv_color_t bg_color_save = _LV_COLOR_ZERO_INITIALIZER;
 561:Middlewares/lvgl/src/draw/../misc/lv_color.h ****         static lv_color_t res_color_saved = _LV_COLOR_ZERO_INITIALIZER;
 562:Middlewares/lvgl/src/draw/../misc/lv_color.h ****         static lv_opa_t res_opa_saved = 0;
 563:Middlewares/lvgl/src/draw/../misc/lv_color.h **** 
 564:Middlewares/lvgl/src/draw/../misc/lv_color.h ****         if(fg_opa != fg_opa_save || bg_opa != bg_opa_save || fg_color.full != fg_color_save.full ||
 565:Middlewares/lvgl/src/draw/../misc/lv_color.h ****            bg_color.full != bg_color_save.full) {
 566:Middlewares/lvgl/src/draw/../misc/lv_color.h ****             fg_opa_save        = fg_opa;
 567:Middlewares/lvgl/src/draw/../misc/lv_color.h ****             bg_opa_save        = bg_opa;
 568:Middlewares/lvgl/src/draw/../misc/lv_color.h ****             fg_color_save.full = fg_color.full;
 569:Middlewares/lvgl/src/draw/../misc/lv_color.h ****             bg_color_save.full = bg_color.full;
 570:Middlewares/lvgl/src/draw/../misc/lv_color.h ****             /*Info:
 571:Middlewares/lvgl/src/draw/../misc/lv_color.h ****              * https://en.wikipedia.org/wiki/Alpha_compositing#Analytical_derivation_of_the_over_op
 572:Middlewares/lvgl/src/draw/../misc/lv_color.h ****             res_opa_saved = 255 - ((uint16_t)((uint16_t)(255 - fg_opa) * (255 - bg_opa)) >> 8);
 573:Middlewares/lvgl/src/draw/../misc/lv_color.h ****             if(res_opa_saved == 0) {
 574:Middlewares/lvgl/src/draw/../misc/lv_color.h ****                 while(1)
 575:Middlewares/lvgl/src/draw/../misc/lv_color.h ****                     ;
 576:Middlewares/lvgl/src/draw/../misc/lv_color.h ****             }
 577:Middlewares/lvgl/src/draw/../misc/lv_color.h ****             lv_opa_t ratio = (uint16_t)((uint16_t)fg_opa * 255) / res_opa_saved;
 578:Middlewares/lvgl/src/draw/../misc/lv_color.h ****             res_color_saved = lv_color_mix(fg_color, bg_color, ratio);
 579:Middlewares/lvgl/src/draw/../misc/lv_color.h **** 
 580:Middlewares/lvgl/src/draw/../misc/lv_color.h ****         }
ARM GAS  /tmp/ccTdGo64.s 			page 13


 581:Middlewares/lvgl/src/draw/../misc/lv_color.h **** 
 582:Middlewares/lvgl/src/draw/../misc/lv_color.h ****         res_color->full = res_color_saved.full;
 583:Middlewares/lvgl/src/draw/../misc/lv_color.h ****         *res_opa = res_opa_saved;
 584:Middlewares/lvgl/src/draw/../misc/lv_color.h ****     }
 585:Middlewares/lvgl/src/draw/../misc/lv_color.h **** }
 586:Middlewares/lvgl/src/draw/../misc/lv_color.h **** 
 587:Middlewares/lvgl/src/draw/../misc/lv_color.h **** //! @endcond
 588:Middlewares/lvgl/src/draw/../misc/lv_color.h **** 
 589:Middlewares/lvgl/src/draw/../misc/lv_color.h **** /**
 590:Middlewares/lvgl/src/draw/../misc/lv_color.h ****  * Get the brightness of a color
 591:Middlewares/lvgl/src/draw/../misc/lv_color.h ****  * @param color a color
 592:Middlewares/lvgl/src/draw/../misc/lv_color.h ****  * @return the brightness [0..255]
 593:Middlewares/lvgl/src/draw/../misc/lv_color.h ****  */
 594:Middlewares/lvgl/src/draw/../misc/lv_color.h **** static inline uint8_t lv_color_brightness(lv_color_t color)
 595:Middlewares/lvgl/src/draw/../misc/lv_color.h **** {
 596:Middlewares/lvgl/src/draw/../misc/lv_color.h ****     lv_color32_t c32;
 597:Middlewares/lvgl/src/draw/../misc/lv_color.h ****     c32.full        = lv_color_to32(color);
 598:Middlewares/lvgl/src/draw/../misc/lv_color.h ****     uint16_t bright = (uint16_t)(3u * LV_COLOR_GET_R32(c32) + LV_COLOR_GET_B32(c32) + 4u * LV_COLOR
 599:Middlewares/lvgl/src/draw/../misc/lv_color.h ****     return (uint8_t)(bright >> 3);
 600:Middlewares/lvgl/src/draw/../misc/lv_color.h **** }
 601:Middlewares/lvgl/src/draw/../misc/lv_color.h **** 
 602:Middlewares/lvgl/src/draw/../misc/lv_color.h **** static inline lv_color_t lv_color_make(uint8_t r, uint8_t g, uint8_t b)
 603:Middlewares/lvgl/src/draw/../misc/lv_color.h **** {
 604:Middlewares/lvgl/src/draw/../misc/lv_color.h ****     return _LV_COLOR_MAKE_TYPE_HELPER LV_COLOR_MAKE(r, g, b);
 605:Middlewares/lvgl/src/draw/../misc/lv_color.h **** }
 606:Middlewares/lvgl/src/draw/../misc/lv_color.h **** 
 607:Middlewares/lvgl/src/draw/../misc/lv_color.h **** static inline lv_color_t lv_color_hex(uint32_t c)
 608:Middlewares/lvgl/src/draw/../misc/lv_color.h **** {
 609:Middlewares/lvgl/src/draw/../misc/lv_color.h ****     return lv_color_make((uint8_t)((c >> 16) & 0xFF), (uint8_t)((c >> 8) & 0xFF), (uint8_t)(c & 0xF
 610:Middlewares/lvgl/src/draw/../misc/lv_color.h **** }
 611:Middlewares/lvgl/src/draw/../misc/lv_color.h **** 
 612:Middlewares/lvgl/src/draw/../misc/lv_color.h **** static inline lv_color_t lv_color_hex3(uint32_t c)
 613:Middlewares/lvgl/src/draw/../misc/lv_color.h **** {
 614:Middlewares/lvgl/src/draw/../misc/lv_color.h ****     return lv_color_make((uint8_t)(((c >> 4) & 0xF0) | ((c >> 8) & 0xF)), (uint8_t)((c & 0xF0) | ((
 615:Middlewares/lvgl/src/draw/../misc/lv_color.h ****                          (uint8_t)((c & 0xF) | ((c & 0xF) << 4)));
 616:Middlewares/lvgl/src/draw/../misc/lv_color.h **** }
 617:Middlewares/lvgl/src/draw/../misc/lv_color.h **** 
 618:Middlewares/lvgl/src/draw/../misc/lv_color.h **** static inline void lv_color_filter_dsc_init(lv_color_filter_dsc_t * dsc, lv_color_filter_cb_t cb)
 619:Middlewares/lvgl/src/draw/../misc/lv_color.h **** {
 620:Middlewares/lvgl/src/draw/../misc/lv_color.h ****     dsc->filter_cb = cb;
 621:Middlewares/lvgl/src/draw/../misc/lv_color.h **** }
 622:Middlewares/lvgl/src/draw/../misc/lv_color.h **** 
 623:Middlewares/lvgl/src/draw/../misc/lv_color.h **** //! @cond Doxygen_Suppress
 624:Middlewares/lvgl/src/draw/../misc/lv_color.h **** //!
 625:Middlewares/lvgl/src/draw/../misc/lv_color.h **** LV_ATTRIBUTE_FAST_MEM void lv_color_fill(lv_color_t * buf, lv_color_t color, uint32_t px_num);
 626:Middlewares/lvgl/src/draw/../misc/lv_color.h **** 
 627:Middlewares/lvgl/src/draw/../misc/lv_color.h **** //! @endcond
 628:Middlewares/lvgl/src/draw/../misc/lv_color.h **** lv_color_t lv_color_lighten(lv_color_t c, lv_opa_t lvl);
 629:Middlewares/lvgl/src/draw/../misc/lv_color.h **** 
 630:Middlewares/lvgl/src/draw/../misc/lv_color.h **** lv_color_t lv_color_darken(lv_color_t c, lv_opa_t lvl);
 631:Middlewares/lvgl/src/draw/../misc/lv_color.h **** 
 632:Middlewares/lvgl/src/draw/../misc/lv_color.h **** lv_color_t lv_color_change_lightness(lv_color_t c, lv_opa_t lvl);
 633:Middlewares/lvgl/src/draw/../misc/lv_color.h **** 
 634:Middlewares/lvgl/src/draw/../misc/lv_color.h **** /**
 635:Middlewares/lvgl/src/draw/../misc/lv_color.h ****  * Convert a HSV color to RGB
 636:Middlewares/lvgl/src/draw/../misc/lv_color.h ****  * @param h hue [0..359]
 637:Middlewares/lvgl/src/draw/../misc/lv_color.h ****  * @param s saturation [0..100]
ARM GAS  /tmp/ccTdGo64.s 			page 14


 638:Middlewares/lvgl/src/draw/../misc/lv_color.h ****  * @param v value [0..100]
 639:Middlewares/lvgl/src/draw/../misc/lv_color.h ****  * @return the given RGB color in RGB (with LV_COLOR_DEPTH depth)
 640:Middlewares/lvgl/src/draw/../misc/lv_color.h ****  */
 641:Middlewares/lvgl/src/draw/../misc/lv_color.h **** lv_color_t lv_color_hsv_to_rgb(uint16_t h, uint8_t s, uint8_t v);
 642:Middlewares/lvgl/src/draw/../misc/lv_color.h **** 
 643:Middlewares/lvgl/src/draw/../misc/lv_color.h **** /**
 644:Middlewares/lvgl/src/draw/../misc/lv_color.h ****  * Convert a 32-bit RGB color to HSV
 645:Middlewares/lvgl/src/draw/../misc/lv_color.h ****  * @param r8 8-bit red
 646:Middlewares/lvgl/src/draw/../misc/lv_color.h ****  * @param g8 8-bit green
 647:Middlewares/lvgl/src/draw/../misc/lv_color.h ****  * @param b8 8-bit blue
 648:Middlewares/lvgl/src/draw/../misc/lv_color.h ****  * @return the given RGB color in HSV
 649:Middlewares/lvgl/src/draw/../misc/lv_color.h ****  */
 650:Middlewares/lvgl/src/draw/../misc/lv_color.h **** lv_color_hsv_t lv_color_rgb_to_hsv(uint8_t r8, uint8_t g8, uint8_t b8);
 651:Middlewares/lvgl/src/draw/../misc/lv_color.h **** 
 652:Middlewares/lvgl/src/draw/../misc/lv_color.h **** /**
 653:Middlewares/lvgl/src/draw/../misc/lv_color.h ****  * Convert a color to HSV
 654:Middlewares/lvgl/src/draw/../misc/lv_color.h ****  * @param color color
 655:Middlewares/lvgl/src/draw/../misc/lv_color.h ****  * @return the given color in HSV
 656:Middlewares/lvgl/src/draw/../misc/lv_color.h ****  */
 657:Middlewares/lvgl/src/draw/../misc/lv_color.h **** lv_color_hsv_t lv_color_to_hsv(lv_color_t color);
 658:Middlewares/lvgl/src/draw/../misc/lv_color.h **** 
 659:Middlewares/lvgl/src/draw/../misc/lv_color.h **** /**
 660:Middlewares/lvgl/src/draw/../misc/lv_color.h ****  * Just a wrapper around LV_COLOR_CHROMA_KEY because it might be more convenient to use a function 
 661:Middlewares/lvgl/src/draw/../misc/lv_color.h ****  * @return LV_COLOR_CHROMA_KEY
 662:Middlewares/lvgl/src/draw/../misc/lv_color.h ****  */
 663:Middlewares/lvgl/src/draw/../misc/lv_color.h **** static inline lv_color_t lv_color_chroma_key(void)
 664:Middlewares/lvgl/src/draw/../misc/lv_color.h **** {
 665:Middlewares/lvgl/src/draw/../misc/lv_color.h ****     return LV_COLOR_CHROMA_KEY;
 666:Middlewares/lvgl/src/draw/../misc/lv_color.h **** }
 667:Middlewares/lvgl/src/draw/../misc/lv_color.h **** 
 668:Middlewares/lvgl/src/draw/../misc/lv_color.h **** /**********************
 669:Middlewares/lvgl/src/draw/../misc/lv_color.h ****  *  PREDEFINED COLORS
 670:Middlewares/lvgl/src/draw/../misc/lv_color.h ****  **********************/
 671:Middlewares/lvgl/src/draw/../misc/lv_color.h **** /*Source: https://vuetifyjs.com/en/styles/colors/#material-colors*/
 672:Middlewares/lvgl/src/draw/../misc/lv_color.h **** 
 673:Middlewares/lvgl/src/draw/../misc/lv_color.h **** lv_color_t lv_palette_main(lv_palette_t p);
 674:Middlewares/lvgl/src/draw/../misc/lv_color.h **** static inline lv_color_t lv_color_white(void) { return lv_color_make(0xff, 0xff, 0xff);}
 675:Middlewares/lvgl/src/draw/../misc/lv_color.h **** static inline lv_color_t lv_color_black(void) { return lv_color_make(0x00, 0x0, 0x00);}
  53              		.loc 2 675 26 view .LVU3
  54              	.LBE45:
  55              		.loc 2 675 49 view .LVU4
  56              	.LVL1:
  57              	.LBB48:
  58              	.LBB46:
  59              	.LBI46:
 602:Middlewares/lvgl/src/draw/../misc/lv_color.h **** {
  60              		.loc 2 602 26 view .LVU5
  61              	.LBB47:
 604:Middlewares/lvgl/src/draw/../misc/lv_color.h **** }
  62              		.loc 2 604 5 view .LVU6
 604:Middlewares/lvgl/src/draw/../misc/lv_color.h **** }
  63              		.loc 2 604 12 is_stmt 0 view .LVU7
  64 000a 4FF00002 		mov	r2, #0	@ movhi
  65              	.LVL2:
 604:Middlewares/lvgl/src/draw/../misc/lv_color.h **** }
  66              		.loc 2 604 12 view .LVU8
  67              	.LBE47:
ARM GAS  /tmp/ccTdGo64.s 			page 15


  68              	.LBE46:
  69              	.LBE48:
  70              		.loc 1 53 26 view .LVU9
  71 000e ADF80420 		strh	r2, [sp, #4]	@ movhi
  54:Middlewares/lvgl/src/draw/lv_img_buf.c ****     uint8_t * buf_u8 = (uint8_t *)dsc->data;
  72              		.loc 1 54 5 is_stmt 1 view .LVU10
  73              		.loc 1 54 15 is_stmt 0 view .LVU11
  74 0012 8668     		ldr	r6, [r0, #8]
  75              	.LVL3:
  55:Middlewares/lvgl/src/draw/lv_img_buf.c **** 
  56:Middlewares/lvgl/src/draw/lv_img_buf.c ****     if(dsc->header.cf == LV_IMG_CF_TRUE_COLOR || dsc->header.cf == LV_IMG_CF_TRUE_COLOR_CHROMA_KEYE
  76              		.loc 1 56 5 is_stmt 1 view .LVU12
  77              		.loc 1 56 23 is_stmt 0 view .LVU13
  78 0014 0178     		ldrb	r1, [r0]	@ zero_extendqisi2
  79              	.LVL4:
  80              		.loc 1 56 23 view .LVU14
  81 0016 01F01F01 		and	r1, r1, #31
  82              		.loc 1 56 7 view .LVU15
  83 001a 0429     		cmp	r1, #4
  84 001c 13D0     		beq	.L2
  85              		.loc 1 56 47 discriminator 1 view .LVU16
  86 001e 0629     		cmp	r1, #6
  87 0020 11D0     		beq	.L2
  88              		.loc 1 56 102 discriminator 2 view .LVU17
  89 0022 0529     		cmp	r1, #5
  90 0024 0FD0     		beq	.L2
  57:Middlewares/lvgl/src/draw/lv_img_buf.c ****        dsc->header.cf == LV_IMG_CF_TRUE_COLOR_ALPHA) {
  58:Middlewares/lvgl/src/draw/lv_img_buf.c ****         uint8_t px_size = lv_img_cf_get_px_size(dsc->header.cf) >> 3;
  59:Middlewares/lvgl/src/draw/lv_img_buf.c ****         uint32_t px     = dsc->header.w * y * px_size + x * px_size;
  60:Middlewares/lvgl/src/draw/lv_img_buf.c ****         lv_memcpy_small(&p_color, &buf_u8[px], sizeof(lv_color_t));
  61:Middlewares/lvgl/src/draw/lv_img_buf.c **** #if LV_COLOR_SIZE == 32
  62:Middlewares/lvgl/src/draw/lv_img_buf.c ****         p_color.ch.alpha = 0xFF; /*Only the color should be get so use a default alpha value*/
  63:Middlewares/lvgl/src/draw/lv_img_buf.c **** #endif
  64:Middlewares/lvgl/src/draw/lv_img_buf.c ****     }
  65:Middlewares/lvgl/src/draw/lv_img_buf.c ****     else if(dsc->header.cf == LV_IMG_CF_INDEXED_1BIT) {
  91              		.loc 1 65 10 is_stmt 1 view .LVU18
  92              		.loc 1 65 12 is_stmt 0 view .LVU19
  93 0026 0729     		cmp	r1, #7
  94 0028 2CD0     		beq	.L12
  66:Middlewares/lvgl/src/draw/lv_img_buf.c ****         buf_u8 += 4 * 2;
  67:Middlewares/lvgl/src/draw/lv_img_buf.c ****         uint8_t bit = x & 0x7;
  68:Middlewares/lvgl/src/draw/lv_img_buf.c ****         x           = x >> 3;
  69:Middlewares/lvgl/src/draw/lv_img_buf.c **** 
  70:Middlewares/lvgl/src/draw/lv_img_buf.c ****         /*Get the current pixel.
  71:Middlewares/lvgl/src/draw/lv_img_buf.c ****          *dsc->header.w + 7 means rounding up to 8 because the lines are byte aligned
  72:Middlewares/lvgl/src/draw/lv_img_buf.c ****          *so the possible real width are 8, 16, 24 ...*/
  73:Middlewares/lvgl/src/draw/lv_img_buf.c ****         uint32_t px  = ((dsc->header.w + 7) >> 3) * y + x;
  74:Middlewares/lvgl/src/draw/lv_img_buf.c ****         p_color.full = (buf_u8[px] & (1 << (7 - bit))) >> (7 - bit);
  75:Middlewares/lvgl/src/draw/lv_img_buf.c ****     }
  76:Middlewares/lvgl/src/draw/lv_img_buf.c ****     else if(dsc->header.cf == LV_IMG_CF_INDEXED_2BIT) {
  95              		.loc 1 76 10 is_stmt 1 view .LVU20
  96              		.loc 1 76 12 is_stmt 0 view .LVU21
  97 002a 0829     		cmp	r1, #8
  98 002c 40D0     		beq	.L13
  77:Middlewares/lvgl/src/draw/lv_img_buf.c ****         buf_u8 += 4 * 4;
  78:Middlewares/lvgl/src/draw/lv_img_buf.c ****         uint8_t bit = (x & 0x3) * 2;
  79:Middlewares/lvgl/src/draw/lv_img_buf.c ****         x           = x >> 2;
ARM GAS  /tmp/ccTdGo64.s 			page 16


  80:Middlewares/lvgl/src/draw/lv_img_buf.c **** 
  81:Middlewares/lvgl/src/draw/lv_img_buf.c ****         /*Get the current pixel.
  82:Middlewares/lvgl/src/draw/lv_img_buf.c ****          *dsc->header.w + 3 means rounding up to 4 because the lines are byte aligned
  83:Middlewares/lvgl/src/draw/lv_img_buf.c ****          *so the possible real width are 4, 8, 12 ...*/
  84:Middlewares/lvgl/src/draw/lv_img_buf.c ****         uint32_t px  = ((dsc->header.w + 3) >> 2) * y + x;
  85:Middlewares/lvgl/src/draw/lv_img_buf.c ****         p_color.full = (buf_u8[px] & (3 << (6 - bit))) >> (6 - bit);
  86:Middlewares/lvgl/src/draw/lv_img_buf.c ****     }
  87:Middlewares/lvgl/src/draw/lv_img_buf.c ****     else if(dsc->header.cf == LV_IMG_CF_INDEXED_4BIT) {
  99              		.loc 1 87 10 is_stmt 1 view .LVU22
 100              		.loc 1 87 12 is_stmt 0 view .LVU23
 101 002e 0929     		cmp	r1, #9
 102 0030 56D0     		beq	.L14
  88:Middlewares/lvgl/src/draw/lv_img_buf.c ****         buf_u8 += 4 * 16;
  89:Middlewares/lvgl/src/draw/lv_img_buf.c ****         uint8_t bit = (x & 0x1) * 4;
  90:Middlewares/lvgl/src/draw/lv_img_buf.c ****         x           = x >> 1;
  91:Middlewares/lvgl/src/draw/lv_img_buf.c **** 
  92:Middlewares/lvgl/src/draw/lv_img_buf.c ****         /*Get the current pixel.
  93:Middlewares/lvgl/src/draw/lv_img_buf.c ****          *dsc->header.w + 1 means rounding up to 2 because the lines are byte aligned
  94:Middlewares/lvgl/src/draw/lv_img_buf.c ****          *so the possible real width are 2, 4, 6 ...*/
  95:Middlewares/lvgl/src/draw/lv_img_buf.c ****         uint32_t px  = ((dsc->header.w + 1) >> 1) * y + x;
  96:Middlewares/lvgl/src/draw/lv_img_buf.c ****         p_color.full = (buf_u8[px] & (0xF << (4 - bit))) >> (4 - bit);
  97:Middlewares/lvgl/src/draw/lv_img_buf.c ****     }
  98:Middlewares/lvgl/src/draw/lv_img_buf.c ****     else if(dsc->header.cf == LV_IMG_CF_INDEXED_8BIT) {
 103              		.loc 1 98 10 is_stmt 1 view .LVU24
 104              		.loc 1 98 12 is_stmt 0 view .LVU25
 105 0032 0A29     		cmp	r1, #10
 106 0034 6DD0     		beq	.L15
  99:Middlewares/lvgl/src/draw/lv_img_buf.c ****         buf_u8 += 4 * 256;
 100:Middlewares/lvgl/src/draw/lv_img_buf.c ****         uint32_t px  = dsc->header.w * y + x;
 101:Middlewares/lvgl/src/draw/lv_img_buf.c ****         p_color.full = buf_u8[px];
 102:Middlewares/lvgl/src/draw/lv_img_buf.c ****     }
 103:Middlewares/lvgl/src/draw/lv_img_buf.c ****     else if(dsc->header.cf == LV_IMG_CF_ALPHA_1BIT || dsc->header.cf == LV_IMG_CF_ALPHA_2BIT ||
 107              		.loc 1 103 10 is_stmt 1 view .LVU26
 104:Middlewares/lvgl/src/draw/lv_img_buf.c ****             dsc->header.cf == LV_IMG_CF_ALPHA_4BIT || dsc->header.cf == LV_IMG_CF_ALPHA_8BIT) {
 108              		.loc 1 104 52 is_stmt 0 view .LVU27
 109 0036 A1F10B02 		sub	r2, r1, #11
 110 003a D2B2     		uxtb	r2, r2
 103:Middlewares/lvgl/src/draw/lv_img_buf.c ****             dsc->header.cf == LV_IMG_CF_ALPHA_4BIT || dsc->header.cf == LV_IMG_CF_ALPHA_8BIT) {
 111              		.loc 1 103 12 view .LVU28
 112 003c 032A     		cmp	r2, #3
 113 003e 1DD8     		bhi	.L6
 105:Middlewares/lvgl/src/draw/lv_img_buf.c ****         p_color = color;
 114              		.loc 1 105 9 is_stmt 1 view .LVU29
 115              		.loc 1 105 17 is_stmt 0 view .LVU30
 116 0040 ADF80430 		strh	r3, [sp, #4]	@ movhi
 117 0044 1AE0     		b	.L6
 118              	.L2:
 119              	.LBB49:
  58:Middlewares/lvgl/src/draw/lv_img_buf.c ****         uint32_t px     = dsc->header.w * y * px_size + x * px_size;
 120              		.loc 1 58 9 is_stmt 1 view .LVU31
  58:Middlewares/lvgl/src/draw/lv_img_buf.c ****         uint32_t px     = dsc->header.w * y * px_size + x * px_size;
 121              		.loc 1 58 60 is_stmt 0 view .LVU32
 122 0046 2878     		ldrb	r0, [r5]	@ zero_extendqisi2
 123              	.LVL5:
  58:Middlewares/lvgl/src/draw/lv_img_buf.c ****         uint32_t px     = dsc->header.w * y * px_size + x * px_size;
 124              		.loc 1 58 27 view .LVU33
 125 0048 00F01F00 		and	r0, r0, #31
ARM GAS  /tmp/ccTdGo64.s 			page 17


 126 004c FFF7FEFF 		bl	lv_img_cf_get_px_size
 127              	.LVL6:
  58:Middlewares/lvgl/src/draw/lv_img_buf.c ****         uint32_t px     = dsc->header.w * y * px_size + x * px_size;
 128              		.loc 1 58 17 view .LVU34
 129 0050 C0F3C700 		ubfx	r0, r0, #3, #8
 130              	.LVL7:
  59:Middlewares/lvgl/src/draw/lv_img_buf.c ****         lv_memcpy_small(&p_color, &buf_u8[px], sizeof(lv_color_t));
 131              		.loc 1 59 9 is_stmt 1 view .LVU35
  59:Middlewares/lvgl/src/draw/lv_img_buf.c ****         lv_memcpy_small(&p_color, &buf_u8[px], sizeof(lv_color_t));
 132              		.loc 1 59 38 is_stmt 0 view .LVU36
 133 0054 2B68     		ldr	r3, [r5]
 134 0056 C3F38A23 		ubfx	r3, r3, #10, #11
  59:Middlewares/lvgl/src/draw/lv_img_buf.c ****         lv_memcpy_small(&p_color, &buf_u8[px], sizeof(lv_color_t));
 135              		.loc 1 59 41 view .LVU37
 136 005a 07FB03F3 		mul	r3, r7, r3
  59:Middlewares/lvgl/src/draw/lv_img_buf.c ****         lv_memcpy_small(&p_color, &buf_u8[px], sizeof(lv_color_t));
 137              		.loc 1 59 59 view .LVU38
 138 005e 00FB04F2 		mul	r2, r0, r4
  59:Middlewares/lvgl/src/draw/lv_img_buf.c ****         lv_memcpy_small(&p_color, &buf_u8[px], sizeof(lv_color_t));
 139              		.loc 1 59 55 view .LVU39
 140 0062 00FB0322 		mla	r2, r0, r3, r2
 141              	.LVL8:
  60:Middlewares/lvgl/src/draw/lv_img_buf.c **** #if LV_COLOR_SIZE == 32
 142              		.loc 1 60 9 is_stmt 1 view .LVU40
  60:Middlewares/lvgl/src/draw/lv_img_buf.c **** #if LV_COLOR_SIZE == 32
 143              		.loc 1 60 35 is_stmt 0 view .LVU41
 144 0066 3244     		add	r2, r2, r6
 145              	.LVL9:
 146              	.LBB50:
 147              	.LBI50:
 148              		.file 3 "Middlewares/lvgl/src/draw/../misc/lv_mem.h"
   1:Middlewares/lvgl/src/draw/../misc/lv_mem.h **** /**
   2:Middlewares/lvgl/src/draw/../misc/lv_mem.h ****  * @file lv_mem.h
   3:Middlewares/lvgl/src/draw/../misc/lv_mem.h ****  *
   4:Middlewares/lvgl/src/draw/../misc/lv_mem.h ****  */
   5:Middlewares/lvgl/src/draw/../misc/lv_mem.h **** 
   6:Middlewares/lvgl/src/draw/../misc/lv_mem.h **** #ifndef LV_MEM_H
   7:Middlewares/lvgl/src/draw/../misc/lv_mem.h **** #define LV_MEM_H
   8:Middlewares/lvgl/src/draw/../misc/lv_mem.h **** 
   9:Middlewares/lvgl/src/draw/../misc/lv_mem.h **** #ifdef __cplusplus
  10:Middlewares/lvgl/src/draw/../misc/lv_mem.h **** extern "C" {
  11:Middlewares/lvgl/src/draw/../misc/lv_mem.h **** #endif
  12:Middlewares/lvgl/src/draw/../misc/lv_mem.h **** 
  13:Middlewares/lvgl/src/draw/../misc/lv_mem.h **** /*********************
  14:Middlewares/lvgl/src/draw/../misc/lv_mem.h ****  *      INCLUDES
  15:Middlewares/lvgl/src/draw/../misc/lv_mem.h ****  *********************/
  16:Middlewares/lvgl/src/draw/../misc/lv_mem.h **** #include "../lv_conf_internal.h"
  17:Middlewares/lvgl/src/draw/../misc/lv_mem.h **** 
  18:Middlewares/lvgl/src/draw/../misc/lv_mem.h **** #include <stdint.h>
  19:Middlewares/lvgl/src/draw/../misc/lv_mem.h **** #include <stddef.h>
  20:Middlewares/lvgl/src/draw/../misc/lv_mem.h **** #include "lv_log.h"
  21:Middlewares/lvgl/src/draw/../misc/lv_mem.h **** #include "lv_types.h"
  22:Middlewares/lvgl/src/draw/../misc/lv_mem.h **** 
  23:Middlewares/lvgl/src/draw/../misc/lv_mem.h **** #if LV_MEMCPY_MEMSET_STD
  24:Middlewares/lvgl/src/draw/../misc/lv_mem.h **** #include <string.h>
  25:Middlewares/lvgl/src/draw/../misc/lv_mem.h **** #endif
  26:Middlewares/lvgl/src/draw/../misc/lv_mem.h **** 
ARM GAS  /tmp/ccTdGo64.s 			page 18


  27:Middlewares/lvgl/src/draw/../misc/lv_mem.h **** /*********************
  28:Middlewares/lvgl/src/draw/../misc/lv_mem.h ****  *      DEFINES
  29:Middlewares/lvgl/src/draw/../misc/lv_mem.h ****  *********************/
  30:Middlewares/lvgl/src/draw/../misc/lv_mem.h **** 
  31:Middlewares/lvgl/src/draw/../misc/lv_mem.h **** #ifndef LV_MEM_BUF_MAX_NUM
  32:Middlewares/lvgl/src/draw/../misc/lv_mem.h **** #define LV_MEM_BUF_MAX_NUM    16
  33:Middlewares/lvgl/src/draw/../misc/lv_mem.h **** #endif
  34:Middlewares/lvgl/src/draw/../misc/lv_mem.h **** 
  35:Middlewares/lvgl/src/draw/../misc/lv_mem.h **** /**********************
  36:Middlewares/lvgl/src/draw/../misc/lv_mem.h ****  *      TYPEDEFS
  37:Middlewares/lvgl/src/draw/../misc/lv_mem.h ****  **********************/
  38:Middlewares/lvgl/src/draw/../misc/lv_mem.h **** 
  39:Middlewares/lvgl/src/draw/../misc/lv_mem.h **** /**
  40:Middlewares/lvgl/src/draw/../misc/lv_mem.h ****  * Heap information structure.
  41:Middlewares/lvgl/src/draw/../misc/lv_mem.h ****  */
  42:Middlewares/lvgl/src/draw/../misc/lv_mem.h **** typedef struct {
  43:Middlewares/lvgl/src/draw/../misc/lv_mem.h ****     uint32_t total_size; /**< Total heap size*/
  44:Middlewares/lvgl/src/draw/../misc/lv_mem.h ****     uint32_t free_cnt;
  45:Middlewares/lvgl/src/draw/../misc/lv_mem.h ****     uint32_t free_size; /**< Size of available memory*/
  46:Middlewares/lvgl/src/draw/../misc/lv_mem.h ****     uint32_t free_biggest_size;
  47:Middlewares/lvgl/src/draw/../misc/lv_mem.h ****     uint32_t used_cnt;
  48:Middlewares/lvgl/src/draw/../misc/lv_mem.h ****     uint32_t max_used; /**< Max size of Heap memory used*/
  49:Middlewares/lvgl/src/draw/../misc/lv_mem.h ****     uint8_t used_pct; /**< Percentage used*/
  50:Middlewares/lvgl/src/draw/../misc/lv_mem.h ****     uint8_t frag_pct; /**< Amount of fragmentation*/
  51:Middlewares/lvgl/src/draw/../misc/lv_mem.h **** } lv_mem_monitor_t;
  52:Middlewares/lvgl/src/draw/../misc/lv_mem.h **** 
  53:Middlewares/lvgl/src/draw/../misc/lv_mem.h **** typedef struct {
  54:Middlewares/lvgl/src/draw/../misc/lv_mem.h ****     void * p;
  55:Middlewares/lvgl/src/draw/../misc/lv_mem.h ****     uint16_t size;
  56:Middlewares/lvgl/src/draw/../misc/lv_mem.h ****     uint8_t used : 1;
  57:Middlewares/lvgl/src/draw/../misc/lv_mem.h **** } lv_mem_buf_t;
  58:Middlewares/lvgl/src/draw/../misc/lv_mem.h **** 
  59:Middlewares/lvgl/src/draw/../misc/lv_mem.h **** typedef lv_mem_buf_t lv_mem_buf_arr_t[LV_MEM_BUF_MAX_NUM];
  60:Middlewares/lvgl/src/draw/../misc/lv_mem.h **** 
  61:Middlewares/lvgl/src/draw/../misc/lv_mem.h **** /**********************
  62:Middlewares/lvgl/src/draw/../misc/lv_mem.h ****  * GLOBAL PROTOTYPES
  63:Middlewares/lvgl/src/draw/../misc/lv_mem.h ****  **********************/
  64:Middlewares/lvgl/src/draw/../misc/lv_mem.h **** 
  65:Middlewares/lvgl/src/draw/../misc/lv_mem.h **** /**
  66:Middlewares/lvgl/src/draw/../misc/lv_mem.h ****  * Initialize the dyn_mem module (work memory and other variables)
  67:Middlewares/lvgl/src/draw/../misc/lv_mem.h ****  */
  68:Middlewares/lvgl/src/draw/../misc/lv_mem.h **** void lv_mem_init(void);
  69:Middlewares/lvgl/src/draw/../misc/lv_mem.h **** 
  70:Middlewares/lvgl/src/draw/../misc/lv_mem.h **** /**
  71:Middlewares/lvgl/src/draw/../misc/lv_mem.h ****  * Clean up the memory buffer which frees all the allocated memories.
  72:Middlewares/lvgl/src/draw/../misc/lv_mem.h ****  * @note It work only if `LV_MEM_CUSTOM == 0`
  73:Middlewares/lvgl/src/draw/../misc/lv_mem.h ****  */
  74:Middlewares/lvgl/src/draw/../misc/lv_mem.h **** void lv_mem_deinit(void);
  75:Middlewares/lvgl/src/draw/../misc/lv_mem.h **** 
  76:Middlewares/lvgl/src/draw/../misc/lv_mem.h **** /**
  77:Middlewares/lvgl/src/draw/../misc/lv_mem.h ****  * Allocate a memory dynamically
  78:Middlewares/lvgl/src/draw/../misc/lv_mem.h ****  * @param size size of the memory to allocate in bytes
  79:Middlewares/lvgl/src/draw/../misc/lv_mem.h ****  * @return pointer to the allocated memory
  80:Middlewares/lvgl/src/draw/../misc/lv_mem.h ****  */
  81:Middlewares/lvgl/src/draw/../misc/lv_mem.h **** void * lv_mem_alloc(size_t size);
  82:Middlewares/lvgl/src/draw/../misc/lv_mem.h **** 
  83:Middlewares/lvgl/src/draw/../misc/lv_mem.h **** /**
ARM GAS  /tmp/ccTdGo64.s 			page 19


  84:Middlewares/lvgl/src/draw/../misc/lv_mem.h ****  * Free an allocated data
  85:Middlewares/lvgl/src/draw/../misc/lv_mem.h ****  * @param data pointer to an allocated memory
  86:Middlewares/lvgl/src/draw/../misc/lv_mem.h ****  */
  87:Middlewares/lvgl/src/draw/../misc/lv_mem.h **** void lv_mem_free(void * data);
  88:Middlewares/lvgl/src/draw/../misc/lv_mem.h **** 
  89:Middlewares/lvgl/src/draw/../misc/lv_mem.h **** /**
  90:Middlewares/lvgl/src/draw/../misc/lv_mem.h ****  * Reallocate a memory with a new size. The old content will be kept.
  91:Middlewares/lvgl/src/draw/../misc/lv_mem.h ****  * @param data pointer to an allocated memory.
  92:Middlewares/lvgl/src/draw/../misc/lv_mem.h ****  * Its content will be copied to the new memory block and freed
  93:Middlewares/lvgl/src/draw/../misc/lv_mem.h ****  * @param new_size the desired new size in byte
  94:Middlewares/lvgl/src/draw/../misc/lv_mem.h ****  * @return pointer to the new memory
  95:Middlewares/lvgl/src/draw/../misc/lv_mem.h ****  */
  96:Middlewares/lvgl/src/draw/../misc/lv_mem.h **** void * lv_mem_realloc(void * data_p, size_t new_size);
  97:Middlewares/lvgl/src/draw/../misc/lv_mem.h **** 
  98:Middlewares/lvgl/src/draw/../misc/lv_mem.h **** /**
  99:Middlewares/lvgl/src/draw/../misc/lv_mem.h ****  *
 100:Middlewares/lvgl/src/draw/../misc/lv_mem.h ****  * @return
 101:Middlewares/lvgl/src/draw/../misc/lv_mem.h ****  */
 102:Middlewares/lvgl/src/draw/../misc/lv_mem.h **** lv_res_t lv_mem_test(void);
 103:Middlewares/lvgl/src/draw/../misc/lv_mem.h **** 
 104:Middlewares/lvgl/src/draw/../misc/lv_mem.h **** /**
 105:Middlewares/lvgl/src/draw/../misc/lv_mem.h ****  * Give information about the work memory of dynamic allocation
 106:Middlewares/lvgl/src/draw/../misc/lv_mem.h ****  * @param mon_p pointer to a dm_mon_p variable,
 107:Middlewares/lvgl/src/draw/../misc/lv_mem.h ****  *              the result of the analysis will be stored here
 108:Middlewares/lvgl/src/draw/../misc/lv_mem.h ****  */
 109:Middlewares/lvgl/src/draw/../misc/lv_mem.h **** void lv_mem_monitor(lv_mem_monitor_t * mon_p);
 110:Middlewares/lvgl/src/draw/../misc/lv_mem.h **** 
 111:Middlewares/lvgl/src/draw/../misc/lv_mem.h **** 
 112:Middlewares/lvgl/src/draw/../misc/lv_mem.h **** /**
 113:Middlewares/lvgl/src/draw/../misc/lv_mem.h ****  * Get a temporal buffer with the given size.
 114:Middlewares/lvgl/src/draw/../misc/lv_mem.h ****  * @param size the required size
 115:Middlewares/lvgl/src/draw/../misc/lv_mem.h ****  */
 116:Middlewares/lvgl/src/draw/../misc/lv_mem.h **** void * lv_mem_buf_get(uint32_t size);
 117:Middlewares/lvgl/src/draw/../misc/lv_mem.h **** 
 118:Middlewares/lvgl/src/draw/../misc/lv_mem.h **** /**
 119:Middlewares/lvgl/src/draw/../misc/lv_mem.h ****  * Release a memory buffer
 120:Middlewares/lvgl/src/draw/../misc/lv_mem.h ****  * @param p buffer to release
 121:Middlewares/lvgl/src/draw/../misc/lv_mem.h ****  */
 122:Middlewares/lvgl/src/draw/../misc/lv_mem.h **** void lv_mem_buf_release(void * p);
 123:Middlewares/lvgl/src/draw/../misc/lv_mem.h **** 
 124:Middlewares/lvgl/src/draw/../misc/lv_mem.h **** /**
 125:Middlewares/lvgl/src/draw/../misc/lv_mem.h ****  * Free all memory buffers
 126:Middlewares/lvgl/src/draw/../misc/lv_mem.h ****  */
 127:Middlewares/lvgl/src/draw/../misc/lv_mem.h **** void lv_mem_buf_free_all(void);
 128:Middlewares/lvgl/src/draw/../misc/lv_mem.h **** 
 129:Middlewares/lvgl/src/draw/../misc/lv_mem.h **** //! @cond Doxygen_Suppress
 130:Middlewares/lvgl/src/draw/../misc/lv_mem.h **** 
 131:Middlewares/lvgl/src/draw/../misc/lv_mem.h **** #if LV_MEMCPY_MEMSET_STD
 132:Middlewares/lvgl/src/draw/../misc/lv_mem.h **** 
 133:Middlewares/lvgl/src/draw/../misc/lv_mem.h **** /**
 134:Middlewares/lvgl/src/draw/../misc/lv_mem.h ****  * Wrapper for the standard memcpy
 135:Middlewares/lvgl/src/draw/../misc/lv_mem.h ****  * @param dst pointer to the destination buffer
 136:Middlewares/lvgl/src/draw/../misc/lv_mem.h ****  * @param src pointer to the source buffer
 137:Middlewares/lvgl/src/draw/../misc/lv_mem.h ****  * @param len number of byte to copy
 138:Middlewares/lvgl/src/draw/../misc/lv_mem.h ****  */
 139:Middlewares/lvgl/src/draw/../misc/lv_mem.h **** static inline void * lv_memcpy(void * dst, const void * src, size_t len)
 140:Middlewares/lvgl/src/draw/../misc/lv_mem.h **** {
ARM GAS  /tmp/ccTdGo64.s 			page 20


 141:Middlewares/lvgl/src/draw/../misc/lv_mem.h ****     return memcpy(dst, src, len);
 142:Middlewares/lvgl/src/draw/../misc/lv_mem.h **** }
 143:Middlewares/lvgl/src/draw/../misc/lv_mem.h **** 
 144:Middlewares/lvgl/src/draw/../misc/lv_mem.h **** /**
 145:Middlewares/lvgl/src/draw/../misc/lv_mem.h ****  * Wrapper for the standard memcpy
 146:Middlewares/lvgl/src/draw/../misc/lv_mem.h ****  * @param dst pointer to the destination buffer
 147:Middlewares/lvgl/src/draw/../misc/lv_mem.h ****  * @param src pointer to the source buffer
 148:Middlewares/lvgl/src/draw/../misc/lv_mem.h ****  * @param len number of byte to copy
 149:Middlewares/lvgl/src/draw/../misc/lv_mem.h ****  */
 150:Middlewares/lvgl/src/draw/../misc/lv_mem.h **** static inline void * lv_memcpy_small(void * dst, const void * src, size_t len)
 151:Middlewares/lvgl/src/draw/../misc/lv_mem.h **** {
 152:Middlewares/lvgl/src/draw/../misc/lv_mem.h ****     return memcpy(dst, src, len);
 153:Middlewares/lvgl/src/draw/../misc/lv_mem.h **** }
 154:Middlewares/lvgl/src/draw/../misc/lv_mem.h **** 
 155:Middlewares/lvgl/src/draw/../misc/lv_mem.h **** /**
 156:Middlewares/lvgl/src/draw/../misc/lv_mem.h ****  * Wrapper for the standard memset
 157:Middlewares/lvgl/src/draw/../misc/lv_mem.h ****  * @param dst pointer to the destination buffer
 158:Middlewares/lvgl/src/draw/../misc/lv_mem.h ****  * @param v value to set [0..255]
 159:Middlewares/lvgl/src/draw/../misc/lv_mem.h ****  * @param len number of byte to set
 160:Middlewares/lvgl/src/draw/../misc/lv_mem.h ****  */
 161:Middlewares/lvgl/src/draw/../misc/lv_mem.h **** static inline void lv_memset(void * dst, uint8_t v, size_t len)
 162:Middlewares/lvgl/src/draw/../misc/lv_mem.h **** {
 163:Middlewares/lvgl/src/draw/../misc/lv_mem.h ****     memset(dst, v, len);
 164:Middlewares/lvgl/src/draw/../misc/lv_mem.h **** }
 165:Middlewares/lvgl/src/draw/../misc/lv_mem.h **** 
 166:Middlewares/lvgl/src/draw/../misc/lv_mem.h **** /**
 167:Middlewares/lvgl/src/draw/../misc/lv_mem.h ****  * Wrapper for the standard memset with fixed 0x00 value
 168:Middlewares/lvgl/src/draw/../misc/lv_mem.h ****  * @param dst pointer to the destination buffer
 169:Middlewares/lvgl/src/draw/../misc/lv_mem.h ****  * @param len number of byte to set
 170:Middlewares/lvgl/src/draw/../misc/lv_mem.h ****  */
 171:Middlewares/lvgl/src/draw/../misc/lv_mem.h **** static inline void lv_memset_00(void * dst, size_t len)
 172:Middlewares/lvgl/src/draw/../misc/lv_mem.h **** {
 173:Middlewares/lvgl/src/draw/../misc/lv_mem.h ****     memset(dst, 0x00, len);
 174:Middlewares/lvgl/src/draw/../misc/lv_mem.h **** }
 175:Middlewares/lvgl/src/draw/../misc/lv_mem.h **** 
 176:Middlewares/lvgl/src/draw/../misc/lv_mem.h **** /**
 177:Middlewares/lvgl/src/draw/../misc/lv_mem.h ****  * Wrapper for the standard memset with fixed 0xFF value
 178:Middlewares/lvgl/src/draw/../misc/lv_mem.h ****  * @param dst pointer to the destination buffer
 179:Middlewares/lvgl/src/draw/../misc/lv_mem.h ****  * @param len number of byte to set
 180:Middlewares/lvgl/src/draw/../misc/lv_mem.h ****  */
 181:Middlewares/lvgl/src/draw/../misc/lv_mem.h **** static inline void lv_memset_ff(void * dst, size_t len)
 182:Middlewares/lvgl/src/draw/../misc/lv_mem.h **** {
 183:Middlewares/lvgl/src/draw/../misc/lv_mem.h ****     memset(dst, 0xFF, len);
 184:Middlewares/lvgl/src/draw/../misc/lv_mem.h **** }
 185:Middlewares/lvgl/src/draw/../misc/lv_mem.h **** 
 186:Middlewares/lvgl/src/draw/../misc/lv_mem.h **** #else
 187:Middlewares/lvgl/src/draw/../misc/lv_mem.h **** /**
 188:Middlewares/lvgl/src/draw/../misc/lv_mem.h ****  * Same as `memcpy` but optimized for 4 byte operation.
 189:Middlewares/lvgl/src/draw/../misc/lv_mem.h ****  * @param dst pointer to the destination buffer
 190:Middlewares/lvgl/src/draw/../misc/lv_mem.h ****  * @param src pointer to the source buffer
 191:Middlewares/lvgl/src/draw/../misc/lv_mem.h ****  * @param len number of byte to copy
 192:Middlewares/lvgl/src/draw/../misc/lv_mem.h ****  */
 193:Middlewares/lvgl/src/draw/../misc/lv_mem.h **** LV_ATTRIBUTE_FAST_MEM void * lv_memcpy(void * dst, const void * src, size_t len);
 194:Middlewares/lvgl/src/draw/../misc/lv_mem.h **** 
 195:Middlewares/lvgl/src/draw/../misc/lv_mem.h **** /**
 196:Middlewares/lvgl/src/draw/../misc/lv_mem.h ****  * Same as `memcpy` but optimized to copy only a few bytes.
 197:Middlewares/lvgl/src/draw/../misc/lv_mem.h ****  * @param dst pointer to the destination buffer
ARM GAS  /tmp/ccTdGo64.s 			page 21


 198:Middlewares/lvgl/src/draw/../misc/lv_mem.h ****  * @param src pointer to the source buffer
 199:Middlewares/lvgl/src/draw/../misc/lv_mem.h ****  * @param len number of byte to copy
 200:Middlewares/lvgl/src/draw/../misc/lv_mem.h ****  */
 201:Middlewares/lvgl/src/draw/../misc/lv_mem.h **** LV_ATTRIBUTE_FAST_MEM static inline void * lv_memcpy_small(void * dst, const void * src, size_t len
 149              		.loc 3 201 44 is_stmt 1 view .LVU42
 150              	.LBB51:
 202:Middlewares/lvgl/src/draw/../misc/lv_mem.h **** {
 203:Middlewares/lvgl/src/draw/../misc/lv_mem.h ****     uint8_t * d8 = (uint8_t *)dst;
 151              		.loc 3 203 5 view .LVU43
 204:Middlewares/lvgl/src/draw/../misc/lv_mem.h ****     const uint8_t * s8 = (const uint8_t *)src;
 152              		.loc 3 204 5 view .LVU44
 205:Middlewares/lvgl/src/draw/../misc/lv_mem.h **** 
 206:Middlewares/lvgl/src/draw/../misc/lv_mem.h ****     while(len) {
 153              		.loc 3 206 5 view .LVU45
 203:Middlewares/lvgl/src/draw/../misc/lv_mem.h ****     const uint8_t * s8 = (const uint8_t *)src;
 154              		.loc 3 203 15 is_stmt 0 view .LVU46
 155 0068 01A9     		add	r1, sp, #4
 156              	.LVL10:
 157              		.loc 3 206 10 view .LVU47
 158 006a 0223     		movs	r3, #2
 159              	.LVL11:
 160              		.loc 3 206 10 view .LVU48
 161 006c 04E0     		b	.L4
 162              	.LVL12:
 163              	.L5:
 207:Middlewares/lvgl/src/draw/../misc/lv_mem.h ****         *d8 = *s8;
 164              		.loc 3 207 9 is_stmt 1 view .LVU49
 165              		.loc 3 207 15 is_stmt 0 view .LVU50
 166 006e 12F8010B 		ldrb	r0, [r2], #1	@ zero_extendqisi2
 167              	.LVL13:
 168              		.loc 3 207 13 view .LVU51
 169 0072 01F8010B 		strb	r0, [r1], #1
 170              	.LVL14:
 208:Middlewares/lvgl/src/draw/../misc/lv_mem.h ****         d8++;
 171              		.loc 3 208 9 is_stmt 1 view .LVU52
 209:Middlewares/lvgl/src/draw/../misc/lv_mem.h ****         s8++;
 172              		.loc 3 209 9 view .LVU53
 210:Middlewares/lvgl/src/draw/../misc/lv_mem.h ****         len--;
 173              		.loc 3 210 9 view .LVU54
 174              		.loc 3 210 12 is_stmt 0 view .LVU55
 175 0076 013B     		subs	r3, r3, #1
 176              	.LVL15:
 177              	.L4:
 206:Middlewares/lvgl/src/draw/../misc/lv_mem.h ****         *d8 = *s8;
 178              		.loc 3 206 10 is_stmt 1 view .LVU56
 179 0078 002B     		cmp	r3, #0
 180 007a F8D1     		bne	.L5
 181              	.LVL16:
 182              	.L6:
 206:Middlewares/lvgl/src/draw/../misc/lv_mem.h ****         *d8 = *s8;
 183              		.loc 3 206 10 is_stmt 0 view .LVU57
 184              	.LBE51:
 185              	.LBE50:
 186              	.LBE49:
 106:Middlewares/lvgl/src/draw/lv_img_buf.c ****     }
 107:Middlewares/lvgl/src/draw/lv_img_buf.c ****     return p_color;
 187              		.loc 1 107 5 is_stmt 1 view .LVU58
ARM GAS  /tmp/ccTdGo64.s 			page 22


 108:Middlewares/lvgl/src/draw/lv_img_buf.c **** }
 188              		.loc 1 108 1 is_stmt 0 view .LVU59
 189 007c BDF80400 		ldrh	r0, [sp, #4]
 190 0080 03B0     		add	sp, sp, #12
 191              	.LCFI2:
 192              		.cfi_remember_state
 193              		.cfi_def_cfa_offset 20
 194              		@ sp needed
 195 0082 F0BD     		pop	{r4, r5, r6, r7, pc}
 196              	.LVL17:
 197              	.L12:
 198              	.LCFI3:
 199              		.cfi_restore_state
 200              	.LBB52:
  66:Middlewares/lvgl/src/draw/lv_img_buf.c ****         uint8_t bit = x & 0x7;
 201              		.loc 1 66 9 is_stmt 1 view .LVU60
  67:Middlewares/lvgl/src/draw/lv_img_buf.c ****         x           = x >> 3;
 202              		.loc 1 67 9 view .LVU61
  67:Middlewares/lvgl/src/draw/lv_img_buf.c ****         x           = x >> 3;
 203              		.loc 1 67 17 is_stmt 0 view .LVU62
 204 0084 04F00701 		and	r1, r4, #7
 205              	.LVL18:
  68:Middlewares/lvgl/src/draw/lv_img_buf.c **** 
 206              		.loc 1 68 9 is_stmt 1 view .LVU63
  73:Middlewares/lvgl/src/draw/lv_img_buf.c ****         p_color.full = (buf_u8[px] & (1 << (7 - bit))) >> (7 - bit);
 207              		.loc 1 73 9 view .LVU64
  73:Middlewares/lvgl/src/draw/lv_img_buf.c ****         p_color.full = (buf_u8[px] & (1 << (7 - bit))) >> (7 - bit);
 208              		.loc 1 73 37 is_stmt 0 view .LVU65
 209 0088 0268     		ldr	r2, [r0]
 210 008a C2F38A22 		ubfx	r2, r2, #10, #11
  73:Middlewares/lvgl/src/draw/lv_img_buf.c ****         p_color.full = (buf_u8[px] & (1 << (7 - bit))) >> (7 - bit);
 211              		.loc 1 73 40 view .LVU66
 212 008e 0732     		adds	r2, r2, #7
  73:Middlewares/lvgl/src/draw/lv_img_buf.c ****         p_color.full = (buf_u8[px] & (1 << (7 - bit))) >> (7 - bit);
 213              		.loc 1 73 45 view .LVU67
 214 0090 D210     		asrs	r2, r2, #3
  73:Middlewares/lvgl/src/draw/lv_img_buf.c ****         p_color.full = (buf_u8[px] & (1 << (7 - bit))) >> (7 - bit);
 215              		.loc 1 73 51 view .LVU68
 216 0092 07FB02F2 		mul	r2, r7, r2
  73:Middlewares/lvgl/src/draw/lv_img_buf.c ****         p_color.full = (buf_u8[px] & (1 << (7 - bit))) >> (7 - bit);
 217              		.loc 1 73 55 view .LVU69
 218 0096 02EBE402 		add	r2, r2, r4, asr #3
 219              	.LVL19:
  74:Middlewares/lvgl/src/draw/lv_img_buf.c ****     }
 220              		.loc 1 74 9 is_stmt 1 view .LVU70
  74:Middlewares/lvgl/src/draw/lv_img_buf.c ****     }
 221              		.loc 1 74 31 is_stmt 0 view .LVU71
 222 009a 3244     		add	r2, r2, r6
 223              	.LVL20:
  74:Middlewares/lvgl/src/draw/lv_img_buf.c ****     }
 224              		.loc 1 74 31 view .LVU72
 225 009c 137A     		ldrb	r3, [r2, #8]	@ zero_extendqisi2
 226              	.LVL21:
  74:Middlewares/lvgl/src/draw/lv_img_buf.c ****     }
 227              		.loc 1 74 47 view .LVU73
 228 009e C1F10702 		rsb	r2, r1, #7
  74:Middlewares/lvgl/src/draw/lv_img_buf.c ****     }
ARM GAS  /tmp/ccTdGo64.s 			page 23


 229              		.loc 1 74 41 view .LVU74
 230 00a2 0121     		movs	r1, #1
 231              	.LVL22:
  74:Middlewares/lvgl/src/draw/lv_img_buf.c ****     }
 232              		.loc 1 74 41 view .LVU75
 233 00a4 9140     		lsls	r1, r1, r2
  74:Middlewares/lvgl/src/draw/lv_img_buf.c ****     }
 234              		.loc 1 74 36 view .LVU76
 235 00a6 0B40     		ands	r3, r3, r1
  74:Middlewares/lvgl/src/draw/lv_img_buf.c ****     }
 236              		.loc 1 74 56 view .LVU77
 237 00a8 1341     		asrs	r3, r3, r2
  74:Middlewares/lvgl/src/draw/lv_img_buf.c ****     }
 238              		.loc 1 74 22 view .LVU78
 239 00aa ADF80430 		strh	r3, [sp, #4]	@ movhi
 240              	.LVL23:
  74:Middlewares/lvgl/src/draw/lv_img_buf.c ****     }
 241              		.loc 1 74 22 view .LVU79
 242              	.LBE52:
 243 00ae E5E7     		b	.L6
 244              	.LVL24:
 245              	.L13:
 246              	.LBB53:
  77:Middlewares/lvgl/src/draw/lv_img_buf.c ****         uint8_t bit = (x & 0x3) * 2;
 247              		.loc 1 77 9 is_stmt 1 view .LVU80
  78:Middlewares/lvgl/src/draw/lv_img_buf.c ****         x           = x >> 2;
 248              		.loc 1 78 9 view .LVU81
  78:Middlewares/lvgl/src/draw/lv_img_buf.c ****         x           = x >> 2;
 249              		.loc 1 78 17 is_stmt 0 view .LVU82
 250 00b0 04F00303 		and	r3, r4, #3
 251              	.LVL25:
  78:Middlewares/lvgl/src/draw/lv_img_buf.c ****         x           = x >> 2;
 252              		.loc 1 78 17 view .LVU83
 253 00b4 5B00     		lsls	r3, r3, #1
 254              	.LVL26:
  79:Middlewares/lvgl/src/draw/lv_img_buf.c **** 
 255              		.loc 1 79 9 is_stmt 1 view .LVU84
  84:Middlewares/lvgl/src/draw/lv_img_buf.c ****         p_color.full = (buf_u8[px] & (3 << (6 - bit))) >> (6 - bit);
 256              		.loc 1 84 9 view .LVU85
  84:Middlewares/lvgl/src/draw/lv_img_buf.c ****         p_color.full = (buf_u8[px] & (3 << (6 - bit))) >> (6 - bit);
 257              		.loc 1 84 37 is_stmt 0 view .LVU86
 258 00b6 0268     		ldr	r2, [r0]
 259 00b8 C2F38A22 		ubfx	r2, r2, #10, #11
  84:Middlewares/lvgl/src/draw/lv_img_buf.c ****         p_color.full = (buf_u8[px] & (3 << (6 - bit))) >> (6 - bit);
 260              		.loc 1 84 40 view .LVU87
 261 00bc 0332     		adds	r2, r2, #3
  84:Middlewares/lvgl/src/draw/lv_img_buf.c ****         p_color.full = (buf_u8[px] & (3 << (6 - bit))) >> (6 - bit);
 262              		.loc 1 84 45 view .LVU88
 263 00be 9210     		asrs	r2, r2, #2
  84:Middlewares/lvgl/src/draw/lv_img_buf.c ****         p_color.full = (buf_u8[px] & (3 << (6 - bit))) >> (6 - bit);
 264              		.loc 1 84 51 view .LVU89
 265 00c0 07FB02F2 		mul	r2, r7, r2
  84:Middlewares/lvgl/src/draw/lv_img_buf.c ****         p_color.full = (buf_u8[px] & (3 << (6 - bit))) >> (6 - bit);
 266              		.loc 1 84 55 view .LVU90
 267 00c4 02EBA402 		add	r2, r2, r4, asr #2
 268              	.LVL27:
  85:Middlewares/lvgl/src/draw/lv_img_buf.c ****     }
ARM GAS  /tmp/ccTdGo64.s 			page 24


 269              		.loc 1 85 9 is_stmt 1 view .LVU91
  85:Middlewares/lvgl/src/draw/lv_img_buf.c ****     }
 270              		.loc 1 85 31 is_stmt 0 view .LVU92
 271 00c8 3244     		add	r2, r2, r6
 272              	.LVL28:
  85:Middlewares/lvgl/src/draw/lv_img_buf.c ****     }
 273              		.loc 1 85 31 view .LVU93
 274 00ca 127C     		ldrb	r2, [r2, #16]	@ zero_extendqisi2
  85:Middlewares/lvgl/src/draw/lv_img_buf.c ****     }
 275              		.loc 1 85 47 view .LVU94
 276 00cc C3F10603 		rsb	r3, r3, #6
 277              	.LVL29:
  85:Middlewares/lvgl/src/draw/lv_img_buf.c ****     }
 278              		.loc 1 85 41 view .LVU95
 279 00d0 0321     		movs	r1, #3
 280 00d2 9940     		lsls	r1, r1, r3
  85:Middlewares/lvgl/src/draw/lv_img_buf.c ****     }
 281              		.loc 1 85 36 view .LVU96
 282 00d4 0A40     		ands	r2, r2, r1
  85:Middlewares/lvgl/src/draw/lv_img_buf.c ****     }
 283              		.loc 1 85 56 view .LVU97
 284 00d6 42FA03F3 		asr	r3, r2, r3
  85:Middlewares/lvgl/src/draw/lv_img_buf.c ****     }
 285              		.loc 1 85 22 view .LVU98
 286 00da ADF80430 		strh	r3, [sp, #4]	@ movhi
 287              	.LVL30:
  85:Middlewares/lvgl/src/draw/lv_img_buf.c ****     }
 288              		.loc 1 85 22 view .LVU99
 289              	.LBE53:
 290 00de CDE7     		b	.L6
 291              	.LVL31:
 292              	.L14:
 293              	.LBB54:
  88:Middlewares/lvgl/src/draw/lv_img_buf.c ****         uint8_t bit = (x & 0x1) * 4;
 294              		.loc 1 88 9 is_stmt 1 view .LVU100
  89:Middlewares/lvgl/src/draw/lv_img_buf.c ****         x           = x >> 1;
 295              		.loc 1 89 9 view .LVU101
  89:Middlewares/lvgl/src/draw/lv_img_buf.c ****         x           = x >> 1;
 296              		.loc 1 89 17 is_stmt 0 view .LVU102
 297 00e0 04F00103 		and	r3, r4, #1
 298              	.LVL32:
  89:Middlewares/lvgl/src/draw/lv_img_buf.c ****         x           = x >> 1;
 299              		.loc 1 89 17 view .LVU103
 300 00e4 9B00     		lsls	r3, r3, #2
 301              	.LVL33:
  90:Middlewares/lvgl/src/draw/lv_img_buf.c **** 
 302              		.loc 1 90 9 is_stmt 1 view .LVU104
  95:Middlewares/lvgl/src/draw/lv_img_buf.c ****         p_color.full = (buf_u8[px] & (0xF << (4 - bit))) >> (4 - bit);
 303              		.loc 1 95 9 view .LVU105
  95:Middlewares/lvgl/src/draw/lv_img_buf.c ****         p_color.full = (buf_u8[px] & (0xF << (4 - bit))) >> (4 - bit);
 304              		.loc 1 95 37 is_stmt 0 view .LVU106
 305 00e6 0268     		ldr	r2, [r0]
 306 00e8 C2F38A22 		ubfx	r2, r2, #10, #11
  95:Middlewares/lvgl/src/draw/lv_img_buf.c ****         p_color.full = (buf_u8[px] & (0xF << (4 - bit))) >> (4 - bit);
 307              		.loc 1 95 40 view .LVU107
 308 00ec 0132     		adds	r2, r2, #1
  95:Middlewares/lvgl/src/draw/lv_img_buf.c ****         p_color.full = (buf_u8[px] & (0xF << (4 - bit))) >> (4 - bit);
ARM GAS  /tmp/ccTdGo64.s 			page 25


 309              		.loc 1 95 45 view .LVU108
 310 00ee 5210     		asrs	r2, r2, #1
  95:Middlewares/lvgl/src/draw/lv_img_buf.c ****         p_color.full = (buf_u8[px] & (0xF << (4 - bit))) >> (4 - bit);
 311              		.loc 1 95 51 view .LVU109
 312 00f0 07FB02F2 		mul	r2, r7, r2
  95:Middlewares/lvgl/src/draw/lv_img_buf.c ****         p_color.full = (buf_u8[px] & (0xF << (4 - bit))) >> (4 - bit);
 313              		.loc 1 95 55 view .LVU110
 314 00f4 02EB6402 		add	r2, r2, r4, asr #1
 315              	.LVL34:
  96:Middlewares/lvgl/src/draw/lv_img_buf.c ****     }
 316              		.loc 1 96 9 is_stmt 1 view .LVU111
  96:Middlewares/lvgl/src/draw/lv_img_buf.c ****     }
 317              		.loc 1 96 31 is_stmt 0 view .LVU112
 318 00f8 3244     		add	r2, r2, r6
 319              	.LVL35:
  96:Middlewares/lvgl/src/draw/lv_img_buf.c ****     }
 320              		.loc 1 96 31 view .LVU113
 321 00fa 92F84020 		ldrb	r2, [r2, #64]	@ zero_extendqisi2
  96:Middlewares/lvgl/src/draw/lv_img_buf.c ****     }
 322              		.loc 1 96 49 view .LVU114
 323 00fe C3F10403 		rsb	r3, r3, #4
 324              	.LVL36:
  96:Middlewares/lvgl/src/draw/lv_img_buf.c ****     }
 325              		.loc 1 96 43 view .LVU115
 326 0102 0F21     		movs	r1, #15
 327 0104 9940     		lsls	r1, r1, r3
  96:Middlewares/lvgl/src/draw/lv_img_buf.c ****     }
 328              		.loc 1 96 36 view .LVU116
 329 0106 0A40     		ands	r2, r2, r1
  96:Middlewares/lvgl/src/draw/lv_img_buf.c ****     }
 330              		.loc 1 96 58 view .LVU117
 331 0108 42FA03F3 		asr	r3, r2, r3
  96:Middlewares/lvgl/src/draw/lv_img_buf.c ****     }
 332              		.loc 1 96 22 view .LVU118
 333 010c ADF80430 		strh	r3, [sp, #4]	@ movhi
 334              	.LVL37:
  96:Middlewares/lvgl/src/draw/lv_img_buf.c ****     }
 335              		.loc 1 96 22 view .LVU119
 336              	.LBE54:
 337 0110 B4E7     		b	.L6
 338              	.LVL38:
 339              	.L15:
 340              	.LBB55:
  99:Middlewares/lvgl/src/draw/lv_img_buf.c ****         uint32_t px  = dsc->header.w * y + x;
 341              		.loc 1 99 9 is_stmt 1 view .LVU120
 100:Middlewares/lvgl/src/draw/lv_img_buf.c ****         p_color.full = buf_u8[px];
 342              		.loc 1 100 9 view .LVU121
 100:Middlewares/lvgl/src/draw/lv_img_buf.c ****         p_color.full = buf_u8[px];
 343              		.loc 1 100 35 is_stmt 0 view .LVU122
 344 0112 0368     		ldr	r3, [r0]
 345              	.LVL39:
 100:Middlewares/lvgl/src/draw/lv_img_buf.c ****         p_color.full = buf_u8[px];
 346              		.loc 1 100 35 view .LVU123
 347 0114 C3F38A23 		ubfx	r3, r3, #10, #11
 100:Middlewares/lvgl/src/draw/lv_img_buf.c ****         p_color.full = buf_u8[px];
 348              		.loc 1 100 42 view .LVU124
 349 0118 03FB0743 		mla	r3, r3, r7, r4
ARM GAS  /tmp/ccTdGo64.s 			page 26


 350              	.LVL40:
 101:Middlewares/lvgl/src/draw/lv_img_buf.c ****     }
 351              		.loc 1 101 9 is_stmt 1 view .LVU125
 101:Middlewares/lvgl/src/draw/lv_img_buf.c ****     }
 352              		.loc 1 101 30 is_stmt 0 view .LVU126
 353 011c 3344     		add	r3, r3, r6
 354              	.LVL41:
 101:Middlewares/lvgl/src/draw/lv_img_buf.c ****     }
 355              		.loc 1 101 30 view .LVU127
 356 011e 93F80034 		ldrb	r3, [r3, #1024]	@ zero_extendqisi2
 101:Middlewares/lvgl/src/draw/lv_img_buf.c ****     }
 357              		.loc 1 101 22 view .LVU128
 358 0122 ADF80430 		strh	r3, [sp, #4]	@ movhi
 359              	.LVL42:
 101:Middlewares/lvgl/src/draw/lv_img_buf.c ****     }
 360              		.loc 1 101 22 view .LVU129
 361              	.LBE55:
 362 0126 A9E7     		b	.L6
 363              		.cfi_endproc
 364              	.LFE48:
 366              		.section	.text.lv_img_buf_get_px_alpha,"ax",%progbits
 367              		.align	1
 368              		.global	lv_img_buf_get_px_alpha
 369              		.syntax unified
 370              		.thumb
 371              		.thumb_func
 372              		.fpu fpv4-sp-d16
 374              	lv_img_buf_get_px_alpha:
 375              	.LVL43:
 376              	.LFB49:
 109:Middlewares/lvgl/src/draw/lv_img_buf.c **** 
 110:Middlewares/lvgl/src/draw/lv_img_buf.c **** /**
 111:Middlewares/lvgl/src/draw/lv_img_buf.c ****  * Get the alpha value of an image's pixel
 112:Middlewares/lvgl/src/draw/lv_img_buf.c ****  * @param dsc pointer to an image descriptor
 113:Middlewares/lvgl/src/draw/lv_img_buf.c ****  * @param x x coordinate of the point to set
 114:Middlewares/lvgl/src/draw/lv_img_buf.c ****  * @param y x coordinate of the point to set
 115:Middlewares/lvgl/src/draw/lv_img_buf.c ****  * @param safe true: check out of bounds
 116:Middlewares/lvgl/src/draw/lv_img_buf.c ****  * @return alpha value of the point
 117:Middlewares/lvgl/src/draw/lv_img_buf.c ****  */
 118:Middlewares/lvgl/src/draw/lv_img_buf.c **** lv_opa_t lv_img_buf_get_px_alpha(lv_img_dsc_t * dsc, lv_coord_t x, lv_coord_t y)
 119:Middlewares/lvgl/src/draw/lv_img_buf.c **** {
 377              		.loc 1 119 1 is_stmt 1 view -0
 378              		.cfi_startproc
 379              		@ args = 0, pretend = 0, frame = 16
 380              		@ frame_needed = 0, uses_anonymous_args = 0
 381              		.loc 1 119 1 is_stmt 0 view .LVU131
 382 0000 70B5     		push	{r4, r5, r6, lr}
 383              	.LCFI4:
 384              		.cfi_def_cfa_offset 16
 385              		.cfi_offset 4, -16
 386              		.cfi_offset 5, -12
 387              		.cfi_offset 6, -8
 388              		.cfi_offset 14, -4
 389 0002 84B0     		sub	sp, sp, #16
 390              	.LCFI5:
 391              		.cfi_def_cfa_offset 32
 392 0004 8446     		mov	ip, r0
ARM GAS  /tmp/ccTdGo64.s 			page 27


 393 0006 8E46     		mov	lr, r1
 394 0008 1546     		mov	r5, r2
 120:Middlewares/lvgl/src/draw/lv_img_buf.c ****     uint8_t * buf_u8 = (uint8_t *)dsc->data;
 395              		.loc 1 120 5 is_stmt 1 view .LVU132
 396              		.loc 1 120 15 is_stmt 0 view .LVU133
 397 000a 8468     		ldr	r4, [r0, #8]
 398              	.LVL44:
 121:Middlewares/lvgl/src/draw/lv_img_buf.c **** 
 122:Middlewares/lvgl/src/draw/lv_img_buf.c ****     if(dsc->header.cf == LV_IMG_CF_TRUE_COLOR_ALPHA) {
 399              		.loc 1 122 5 is_stmt 1 view .LVU134
 400              		.loc 1 122 23 is_stmt 0 view .LVU135
 401 000c 0378     		ldrb	r3, [r0]	@ zero_extendqisi2
 402 000e 03F01F03 		and	r3, r3, #31
 403              		.loc 1 122 7 view .LVU136
 404 0012 052B     		cmp	r3, #5
 405 0014 0AD0     		beq	.L26
 123:Middlewares/lvgl/src/draw/lv_img_buf.c ****         uint32_t px = dsc->header.w * y * LV_IMG_PX_SIZE_ALPHA_BYTE + x * LV_IMG_PX_SIZE_ALPHA_BYTE
 124:Middlewares/lvgl/src/draw/lv_img_buf.c ****         return buf_u8[px + LV_IMG_PX_SIZE_ALPHA_BYTE - 1];
 125:Middlewares/lvgl/src/draw/lv_img_buf.c ****     }
 126:Middlewares/lvgl/src/draw/lv_img_buf.c ****     else if(dsc->header.cf == LV_IMG_CF_ALPHA_1BIT) {
 406              		.loc 1 126 10 is_stmt 1 view .LVU137
 407              		.loc 1 126 12 is_stmt 0 view .LVU138
 408 0016 0B2B     		cmp	r3, #11
 409 0018 12D0     		beq	.L27
 127:Middlewares/lvgl/src/draw/lv_img_buf.c ****         uint8_t bit = x & 0x7;
 128:Middlewares/lvgl/src/draw/lv_img_buf.c ****         x           = x >> 3;
 129:Middlewares/lvgl/src/draw/lv_img_buf.c **** 
 130:Middlewares/lvgl/src/draw/lv_img_buf.c ****         /*Get the current pixel.
 131:Middlewares/lvgl/src/draw/lv_img_buf.c ****          *dsc->header.w + 7 means rounding up to 8 because the lines are byte aligned
 132:Middlewares/lvgl/src/draw/lv_img_buf.c ****          *so the possible real width are 8 ,16, 24 ...*/
 133:Middlewares/lvgl/src/draw/lv_img_buf.c ****         uint32_t px    = ((dsc->header.w + 7) >> 3) * y + x;
 134:Middlewares/lvgl/src/draw/lv_img_buf.c ****         uint8_t px_opa = (buf_u8[px] & (1 << (7 - bit))) >> (7 - bit);
 135:Middlewares/lvgl/src/draw/lv_img_buf.c ****         return px_opa ? LV_OPA_TRANSP : LV_OPA_COVER;
 136:Middlewares/lvgl/src/draw/lv_img_buf.c ****     }
 137:Middlewares/lvgl/src/draw/lv_img_buf.c ****     else if(dsc->header.cf == LV_IMG_CF_ALPHA_2BIT) {
 410              		.loc 1 137 10 is_stmt 1 view .LVU139
 411              		.loc 1 137 12 is_stmt 0 view .LVU140
 412 001a 0C2B     		cmp	r3, #12
 413 001c 29D0     		beq	.L28
 138:Middlewares/lvgl/src/draw/lv_img_buf.c ****         const uint8_t opa_table[4] = {0, 85, 170, 255}; /*Opacity mapping with bpp = 2*/
 139:Middlewares/lvgl/src/draw/lv_img_buf.c **** 
 140:Middlewares/lvgl/src/draw/lv_img_buf.c ****         uint8_t bit = (x & 0x3) * 2;
 141:Middlewares/lvgl/src/draw/lv_img_buf.c ****         x           = x >> 2;
 142:Middlewares/lvgl/src/draw/lv_img_buf.c **** 
 143:Middlewares/lvgl/src/draw/lv_img_buf.c ****         /*Get the current pixel.
 144:Middlewares/lvgl/src/draw/lv_img_buf.c ****          *dsc->header.w + 4 means rounding up to 8 because the lines are byte aligned
 145:Middlewares/lvgl/src/draw/lv_img_buf.c ****          *so the possible real width are 4 ,8, 12 ...*/
 146:Middlewares/lvgl/src/draw/lv_img_buf.c ****         uint32_t px    = ((dsc->header.w + 3) >> 2) * y + x;
 147:Middlewares/lvgl/src/draw/lv_img_buf.c ****         uint8_t px_opa = (buf_u8[px] & (3 << (6 - bit))) >> (6 - bit);
 148:Middlewares/lvgl/src/draw/lv_img_buf.c ****         return opa_table[px_opa];
 149:Middlewares/lvgl/src/draw/lv_img_buf.c ****     }
 150:Middlewares/lvgl/src/draw/lv_img_buf.c ****     else if(dsc->header.cf == LV_IMG_CF_ALPHA_4BIT) {
 414              		.loc 1 150 10 is_stmt 1 view .LVU141
 415              		.loc 1 150 12 is_stmt 0 view .LVU142
 416 001e 0D2B     		cmp	r3, #13
 417 0020 42D0     		beq	.L29
 151:Middlewares/lvgl/src/draw/lv_img_buf.c ****         const uint8_t opa_table[16] = {0,  17, 34,  51, /*Opacity mapping with bpp = 4*/
ARM GAS  /tmp/ccTdGo64.s 			page 28


 152:Middlewares/lvgl/src/draw/lv_img_buf.c ****                                        68, 85, 102, 119, 136, 153, 170, 187, 204, 221, 238, 255
 153:Middlewares/lvgl/src/draw/lv_img_buf.c ****                                       };
 154:Middlewares/lvgl/src/draw/lv_img_buf.c **** 
 155:Middlewares/lvgl/src/draw/lv_img_buf.c ****         uint8_t bit = (x & 0x1) * 4;
 156:Middlewares/lvgl/src/draw/lv_img_buf.c ****         x           = x >> 1;
 157:Middlewares/lvgl/src/draw/lv_img_buf.c **** 
 158:Middlewares/lvgl/src/draw/lv_img_buf.c ****         /*Get the current pixel.
 159:Middlewares/lvgl/src/draw/lv_img_buf.c ****          *dsc->header.w + 1 means rounding up to 8 because the lines are byte aligned
 160:Middlewares/lvgl/src/draw/lv_img_buf.c ****          *so the possible real width are 2 ,4, 6 ...*/
 161:Middlewares/lvgl/src/draw/lv_img_buf.c ****         uint32_t px    = ((dsc->header.w + 1) >> 1) * y + x;
 162:Middlewares/lvgl/src/draw/lv_img_buf.c ****         uint8_t px_opa = (buf_u8[px] & (0xF << (4 - bit))) >> (4 - bit);
 163:Middlewares/lvgl/src/draw/lv_img_buf.c ****         return opa_table[px_opa];
 164:Middlewares/lvgl/src/draw/lv_img_buf.c ****     }
 165:Middlewares/lvgl/src/draw/lv_img_buf.c ****     else if(dsc->header.cf == LV_IMG_CF_ALPHA_8BIT) {
 418              		.loc 1 165 10 is_stmt 1 view .LVU143
 419              		.loc 1 165 12 is_stmt 0 view .LVU144
 420 0022 0E2B     		cmp	r3, #14
 421 0024 5ED0     		beq	.L30
 166:Middlewares/lvgl/src/draw/lv_img_buf.c ****         uint32_t px = dsc->header.w * y + x;
 167:Middlewares/lvgl/src/draw/lv_img_buf.c ****         return buf_u8[px];
 168:Middlewares/lvgl/src/draw/lv_img_buf.c ****     }
 169:Middlewares/lvgl/src/draw/lv_img_buf.c **** 
 170:Middlewares/lvgl/src/draw/lv_img_buf.c ****     return LV_OPA_COVER;
 422              		.loc 1 170 12 view .LVU145
 423 0026 FF20     		movs	r0, #255
 424              	.LVL45:
 425              	.L18:
 171:Middlewares/lvgl/src/draw/lv_img_buf.c **** }
 426              		.loc 1 171 1 discriminator 1 view .LVU146
 427 0028 04B0     		add	sp, sp, #16
 428              	.LCFI6:
 429              		.cfi_remember_state
 430              		.cfi_def_cfa_offset 16
 431              		@ sp needed
 432 002a 70BD     		pop	{r4, r5, r6, pc}
 433              	.LVL46:
 434              	.L26:
 435              	.LCFI7:
 436              		.cfi_restore_state
 437              	.LBB56:
 123:Middlewares/lvgl/src/draw/lv_img_buf.c ****         return buf_u8[px + LV_IMG_PX_SIZE_ALPHA_BYTE - 1];
 438              		.loc 1 123 9 is_stmt 1 view .LVU147
 123:Middlewares/lvgl/src/draw/lv_img_buf.c ****         return buf_u8[px + LV_IMG_PX_SIZE_ALPHA_BYTE - 1];
 439              		.loc 1 123 34 is_stmt 0 view .LVU148
 440 002c 0368     		ldr	r3, [r0]
 441 002e C3F38A23 		ubfx	r3, r3, #10, #11
 123:Middlewares/lvgl/src/draw/lv_img_buf.c ****         return buf_u8[px + LV_IMG_PX_SIZE_ALPHA_BYTE - 1];
 442              		.loc 1 123 69 view .LVU149
 443 0032 03FB0212 		mla	r2, r3, r2, r1
 444              	.LVL47:
 123:Middlewares/lvgl/src/draw/lv_img_buf.c ****         return buf_u8[px + LV_IMG_PX_SIZE_ALPHA_BYTE - 1];
 445              		.loc 1 123 69 view .LVU150
 446 0036 02EB4202 		add	r2, r2, r2, lsl #1
 447              	.LVL48:
 124:Middlewares/lvgl/src/draw/lv_img_buf.c ****     }
 448              		.loc 1 124 9 is_stmt 1 view .LVU151
 124:Middlewares/lvgl/src/draw/lv_img_buf.c ****     }
ARM GAS  /tmp/ccTdGo64.s 			page 29


 449              		.loc 1 124 22 is_stmt 0 view .LVU152
 450 003a 2244     		add	r2, r2, r4
 451              	.LVL49:
 124:Middlewares/lvgl/src/draw/lv_img_buf.c ****     }
 452              		.loc 1 124 22 view .LVU153
 453 003c 9078     		ldrb	r0, [r2, #2]	@ zero_extendqisi2
 454              	.LVL50:
 124:Middlewares/lvgl/src/draw/lv_img_buf.c ****     }
 455              		.loc 1 124 22 view .LVU154
 456 003e F3E7     		b	.L18
 457              	.LVL51:
 458              	.L27:
 124:Middlewares/lvgl/src/draw/lv_img_buf.c ****     }
 459              		.loc 1 124 22 view .LVU155
 460              	.LBE56:
 461              	.LBB57:
 127:Middlewares/lvgl/src/draw/lv_img_buf.c ****         x           = x >> 3;
 462              		.loc 1 127 9 is_stmt 1 view .LVU156
 127:Middlewares/lvgl/src/draw/lv_img_buf.c ****         x           = x >> 3;
 463              		.loc 1 127 17 is_stmt 0 view .LVU157
 464 0040 01F00701 		and	r1, r1, #7
 465              	.LVL52:
 128:Middlewares/lvgl/src/draw/lv_img_buf.c **** 
 466              		.loc 1 128 9 is_stmt 1 view .LVU158
 133:Middlewares/lvgl/src/draw/lv_img_buf.c ****         uint8_t px_opa = (buf_u8[px] & (1 << (7 - bit))) >> (7 - bit);
 467              		.loc 1 133 9 view .LVU159
 133:Middlewares/lvgl/src/draw/lv_img_buf.c ****         uint8_t px_opa = (buf_u8[px] & (1 << (7 - bit))) >> (7 - bit);
 468              		.loc 1 133 39 is_stmt 0 view .LVU160
 469 0044 0268     		ldr	r2, [r0]
 470              	.LVL53:
 133:Middlewares/lvgl/src/draw/lv_img_buf.c ****         uint8_t px_opa = (buf_u8[px] & (1 << (7 - bit))) >> (7 - bit);
 471              		.loc 1 133 39 view .LVU161
 472 0046 C2F38A22 		ubfx	r2, r2, #10, #11
 133:Middlewares/lvgl/src/draw/lv_img_buf.c ****         uint8_t px_opa = (buf_u8[px] & (1 << (7 - bit))) >> (7 - bit);
 473              		.loc 1 133 42 view .LVU162
 474 004a 0732     		adds	r2, r2, #7
 133:Middlewares/lvgl/src/draw/lv_img_buf.c ****         uint8_t px_opa = (buf_u8[px] & (1 << (7 - bit))) >> (7 - bit);
 475              		.loc 1 133 47 view .LVU163
 476 004c D210     		asrs	r2, r2, #3
 133:Middlewares/lvgl/src/draw/lv_img_buf.c ****         uint8_t px_opa = (buf_u8[px] & (1 << (7 - bit))) >> (7 - bit);
 477              		.loc 1 133 53 view .LVU164
 478 004e 05FB02F2 		mul	r2, r5, r2
 133:Middlewares/lvgl/src/draw/lv_img_buf.c ****         uint8_t px_opa = (buf_u8[px] & (1 << (7 - bit))) >> (7 - bit);
 479              		.loc 1 133 57 view .LVU165
 480 0052 02EBEE02 		add	r2, r2, lr, asr #3
 481              	.LVL54:
 134:Middlewares/lvgl/src/draw/lv_img_buf.c ****         return px_opa ? LV_OPA_TRANSP : LV_OPA_COVER;
 482              		.loc 1 134 9 is_stmt 1 view .LVU166
 134:Middlewares/lvgl/src/draw/lv_img_buf.c ****         return px_opa ? LV_OPA_TRANSP : LV_OPA_COVER;
 483              		.loc 1 134 33 is_stmt 0 view .LVU167
 484 0056 A35C     		ldrb	r3, [r4, r2]	@ zero_extendqisi2
 134:Middlewares/lvgl/src/draw/lv_img_buf.c ****         return px_opa ? LV_OPA_TRANSP : LV_OPA_COVER;
 485              		.loc 1 134 49 view .LVU168
 486 0058 C1F10702 		rsb	r2, r1, #7
 487              	.LVL55:
 134:Middlewares/lvgl/src/draw/lv_img_buf.c ****         return px_opa ? LV_OPA_TRANSP : LV_OPA_COVER;
 488              		.loc 1 134 43 view .LVU169
ARM GAS  /tmp/ccTdGo64.s 			page 30


 489 005c 0121     		movs	r1, #1
 490              	.LVL56:
 134:Middlewares/lvgl/src/draw/lv_img_buf.c ****         return px_opa ? LV_OPA_TRANSP : LV_OPA_COVER;
 491              		.loc 1 134 43 view .LVU170
 492 005e 9140     		lsls	r1, r1, r2
 134:Middlewares/lvgl/src/draw/lv_img_buf.c ****         return px_opa ? LV_OPA_TRANSP : LV_OPA_COVER;
 493              		.loc 1 134 38 view .LVU171
 494 0060 0B40     		ands	r3, r3, r1
 134:Middlewares/lvgl/src/draw/lv_img_buf.c ****         return px_opa ? LV_OPA_TRANSP : LV_OPA_COVER;
 495              		.loc 1 134 58 view .LVU172
 496 0062 1341     		asrs	r3, r3, r2
 497              	.LVL57:
 135:Middlewares/lvgl/src/draw/lv_img_buf.c ****     }
 498              		.loc 1 135 9 is_stmt 1 view .LVU173
 135:Middlewares/lvgl/src/draw/lv_img_buf.c ****     }
 499              		.loc 1 135 39 is_stmt 0 view .LVU174
 500 0064 13F0FF0F 		tst	r3, #255
 501 0068 01D0     		beq	.L23
 502 006a 0020     		movs	r0, #0
 503              	.LVL58:
 135:Middlewares/lvgl/src/draw/lv_img_buf.c ****     }
 504              		.loc 1 135 39 view .LVU175
 505 006c DCE7     		b	.L18
 506              	.LVL59:
 507              	.L23:
 135:Middlewares/lvgl/src/draw/lv_img_buf.c ****     }
 508              		.loc 1 135 39 view .LVU176
 509 006e FF20     		movs	r0, #255
 510              	.LVL60:
 135:Middlewares/lvgl/src/draw/lv_img_buf.c ****     }
 511              		.loc 1 135 39 view .LVU177
 512 0070 DAE7     		b	.L18
 513              	.LVL61:
 514              	.L28:
 135:Middlewares/lvgl/src/draw/lv_img_buf.c ****     }
 515              		.loc 1 135 39 view .LVU178
 516              	.LBE57:
 517              	.LBB58:
 138:Middlewares/lvgl/src/draw/lv_img_buf.c **** 
 518              		.loc 1 138 9 is_stmt 1 view .LVU179
 138:Middlewares/lvgl/src/draw/lv_img_buf.c **** 
 519              		.loc 1 138 23 is_stmt 0 view .LVU180
 520 0072 204B     		ldr	r3, .L31
 521 0074 0093     		str	r3, [sp]
 140:Middlewares/lvgl/src/draw/lv_img_buf.c ****         x           = x >> 2;
 522              		.loc 1 140 9 is_stmt 1 view .LVU181
 140:Middlewares/lvgl/src/draw/lv_img_buf.c ****         x           = x >> 2;
 523              		.loc 1 140 17 is_stmt 0 view .LVU182
 524 0076 01F00302 		and	r2, r1, #3
 525              	.LVL62:
 140:Middlewares/lvgl/src/draw/lv_img_buf.c ****         x           = x >> 2;
 526              		.loc 1 140 17 view .LVU183
 527 007a 5100     		lsls	r1, r2, #1
 528              	.LVL63:
 141:Middlewares/lvgl/src/draw/lv_img_buf.c **** 
 529              		.loc 1 141 9 is_stmt 1 view .LVU184
 146:Middlewares/lvgl/src/draw/lv_img_buf.c ****         uint8_t px_opa = (buf_u8[px] & (3 << (6 - bit))) >> (6 - bit);
ARM GAS  /tmp/ccTdGo64.s 			page 31


 530              		.loc 1 146 9 view .LVU185
 146:Middlewares/lvgl/src/draw/lv_img_buf.c ****         uint8_t px_opa = (buf_u8[px] & (3 << (6 - bit))) >> (6 - bit);
 531              		.loc 1 146 39 is_stmt 0 view .LVU186
 532 007c 0268     		ldr	r2, [r0]
 533 007e C2F38A22 		ubfx	r2, r2, #10, #11
 146:Middlewares/lvgl/src/draw/lv_img_buf.c ****         uint8_t px_opa = (buf_u8[px] & (3 << (6 - bit))) >> (6 - bit);
 534              		.loc 1 146 42 view .LVU187
 535 0082 0332     		adds	r2, r2, #3
 146:Middlewares/lvgl/src/draw/lv_img_buf.c ****         uint8_t px_opa = (buf_u8[px] & (3 << (6 - bit))) >> (6 - bit);
 536              		.loc 1 146 47 view .LVU188
 537 0084 9210     		asrs	r2, r2, #2
 146:Middlewares/lvgl/src/draw/lv_img_buf.c ****         uint8_t px_opa = (buf_u8[px] & (3 << (6 - bit))) >> (6 - bit);
 538              		.loc 1 146 53 view .LVU189
 539 0086 05FB02F2 		mul	r2, r5, r2
 146:Middlewares/lvgl/src/draw/lv_img_buf.c ****         uint8_t px_opa = (buf_u8[px] & (3 << (6 - bit))) >> (6 - bit);
 540              		.loc 1 146 57 view .LVU190
 541 008a 02EBAE02 		add	r2, r2, lr, asr #2
 542              	.LVL64:
 147:Middlewares/lvgl/src/draw/lv_img_buf.c ****         return opa_table[px_opa];
 543              		.loc 1 147 9 is_stmt 1 view .LVU191
 147:Middlewares/lvgl/src/draw/lv_img_buf.c ****         return opa_table[px_opa];
 544              		.loc 1 147 33 is_stmt 0 view .LVU192
 545 008e A35C     		ldrb	r3, [r4, r2]	@ zero_extendqisi2
 147:Middlewares/lvgl/src/draw/lv_img_buf.c ****         return opa_table[px_opa];
 546              		.loc 1 147 49 view .LVU193
 547 0090 C1F10602 		rsb	r2, r1, #6
 548              	.LVL65:
 147:Middlewares/lvgl/src/draw/lv_img_buf.c ****         return opa_table[px_opa];
 549              		.loc 1 147 43 view .LVU194
 550 0094 0321     		movs	r1, #3
 551              	.LVL66:
 147:Middlewares/lvgl/src/draw/lv_img_buf.c ****         return opa_table[px_opa];
 552              		.loc 1 147 43 view .LVU195
 553 0096 9140     		lsls	r1, r1, r2
 147:Middlewares/lvgl/src/draw/lv_img_buf.c ****         return opa_table[px_opa];
 554              		.loc 1 147 38 view .LVU196
 555 0098 0B40     		ands	r3, r3, r1
 147:Middlewares/lvgl/src/draw/lv_img_buf.c ****         return opa_table[px_opa];
 556              		.loc 1 147 58 view .LVU197
 557 009a 1341     		asrs	r3, r3, r2
 558              	.LVL67:
 148:Middlewares/lvgl/src/draw/lv_img_buf.c ****     }
 559              		.loc 1 148 9 is_stmt 1 view .LVU198
 148:Middlewares/lvgl/src/draw/lv_img_buf.c ****     }
 560              		.loc 1 148 25 is_stmt 0 view .LVU199
 561 009c 04AA     		add	r2, sp, #16
 562 009e 52FA83F3 		uxtab	r3, r2, r3
 563              	.LVL68:
 148:Middlewares/lvgl/src/draw/lv_img_buf.c ****     }
 564              		.loc 1 148 25 view .LVU200
 565 00a2 13F8100C 		ldrb	r0, [r3, #-16]	@ zero_extendqisi2
 566              	.LVL69:
 148:Middlewares/lvgl/src/draw/lv_img_buf.c ****     }
 567              		.loc 1 148 25 view .LVU201
 568 00a6 BFE7     		b	.L18
 569              	.LVL70:
 570              	.L29:
ARM GAS  /tmp/ccTdGo64.s 			page 32


 148:Middlewares/lvgl/src/draw/lv_img_buf.c ****     }
 571              		.loc 1 148 25 view .LVU202
 572              	.LBE58:
 573              	.LBB59:
 151:Middlewares/lvgl/src/draw/lv_img_buf.c ****                                        68, 85, 102, 119, 136, 153, 170, 187, 204, 221, 238, 255
 574              		.loc 1 151 9 is_stmt 1 view .LVU203
 151:Middlewares/lvgl/src/draw/lv_img_buf.c ****                                        68, 85, 102, 119, 136, 153, 170, 187, 204, 221, 238, 255
 575              		.loc 1 151 23 is_stmt 0 view .LVU204
 576 00a8 134B     		ldr	r3, .L31+4
 577 00aa 0FCB     		ldm	r3, {r0, r1, r2, r3}
 578              	.LVL71:
 151:Middlewares/lvgl/src/draw/lv_img_buf.c ****                                        68, 85, 102, 119, 136, 153, 170, 187, 204, 221, 238, 255
 579              		.loc 1 151 23 view .LVU205
 580 00ac 04AE     		add	r6, sp, #16
 581 00ae 06E90F00 		stmdb	r6, {r0, r1, r2, r3}
 155:Middlewares/lvgl/src/draw/lv_img_buf.c ****         x           = x >> 1;
 582              		.loc 1 155 9 is_stmt 1 view .LVU206
 155:Middlewares/lvgl/src/draw/lv_img_buf.c ****         x           = x >> 1;
 583              		.loc 1 155 17 is_stmt 0 view .LVU207
 584 00b2 0EF00102 		and	r2, lr, #1
 585 00b6 9100     		lsls	r1, r2, #2
 586              	.LVL72:
 156:Middlewares/lvgl/src/draw/lv_img_buf.c **** 
 587              		.loc 1 156 9 is_stmt 1 view .LVU208
 161:Middlewares/lvgl/src/draw/lv_img_buf.c ****         uint8_t px_opa = (buf_u8[px] & (0xF << (4 - bit))) >> (4 - bit);
 588              		.loc 1 161 9 view .LVU209
 161:Middlewares/lvgl/src/draw/lv_img_buf.c ****         uint8_t px_opa = (buf_u8[px] & (0xF << (4 - bit))) >> (4 - bit);
 589              		.loc 1 161 39 is_stmt 0 view .LVU210
 590 00b8 DCF80020 		ldr	r2, [ip]
 591 00bc C2F38A22 		ubfx	r2, r2, #10, #11
 161:Middlewares/lvgl/src/draw/lv_img_buf.c ****         uint8_t px_opa = (buf_u8[px] & (0xF << (4 - bit))) >> (4 - bit);
 592              		.loc 1 161 42 view .LVU211
 593 00c0 0132     		adds	r2, r2, #1
 161:Middlewares/lvgl/src/draw/lv_img_buf.c ****         uint8_t px_opa = (buf_u8[px] & (0xF << (4 - bit))) >> (4 - bit);
 594              		.loc 1 161 47 view .LVU212
 595 00c2 5210     		asrs	r2, r2, #1
 161:Middlewares/lvgl/src/draw/lv_img_buf.c ****         uint8_t px_opa = (buf_u8[px] & (0xF << (4 - bit))) >> (4 - bit);
 596              		.loc 1 161 53 view .LVU213
 597 00c4 05FB02F2 		mul	r2, r5, r2
 161:Middlewares/lvgl/src/draw/lv_img_buf.c ****         uint8_t px_opa = (buf_u8[px] & (0xF << (4 - bit))) >> (4 - bit);
 598              		.loc 1 161 57 view .LVU214
 599 00c8 02EB6E02 		add	r2, r2, lr, asr #1
 600              	.LVL73:
 162:Middlewares/lvgl/src/draw/lv_img_buf.c ****         return opa_table[px_opa];
 601              		.loc 1 162 9 is_stmt 1 view .LVU215
 162:Middlewares/lvgl/src/draw/lv_img_buf.c ****         return opa_table[px_opa];
 602              		.loc 1 162 33 is_stmt 0 view .LVU216
 603 00cc A35C     		ldrb	r3, [r4, r2]	@ zero_extendqisi2
 162:Middlewares/lvgl/src/draw/lv_img_buf.c ****         return opa_table[px_opa];
 604              		.loc 1 162 51 view .LVU217
 605 00ce C1F10402 		rsb	r2, r1, #4
 606              	.LVL74:
 162:Middlewares/lvgl/src/draw/lv_img_buf.c ****         return opa_table[px_opa];
 607              		.loc 1 162 45 view .LVU218
 608 00d2 0F21     		movs	r1, #15
 609              	.LVL75:
 162:Middlewares/lvgl/src/draw/lv_img_buf.c ****         return opa_table[px_opa];
ARM GAS  /tmp/ccTdGo64.s 			page 33


 610              		.loc 1 162 45 view .LVU219
 611 00d4 9140     		lsls	r1, r1, r2
 162:Middlewares/lvgl/src/draw/lv_img_buf.c ****         return opa_table[px_opa];
 612              		.loc 1 162 38 view .LVU220
 613 00d6 0B40     		ands	r3, r3, r1
 162:Middlewares/lvgl/src/draw/lv_img_buf.c ****         return opa_table[px_opa];
 614              		.loc 1 162 60 view .LVU221
 615 00d8 1341     		asrs	r3, r3, r2
 616              	.LVL76:
 163:Middlewares/lvgl/src/draw/lv_img_buf.c ****     }
 617              		.loc 1 163 9 is_stmt 1 view .LVU222
 163:Middlewares/lvgl/src/draw/lv_img_buf.c ****     }
 618              		.loc 1 163 25 is_stmt 0 view .LVU223
 619 00da 56FA83F3 		uxtab	r3, r6, r3
 620              	.LVL77:
 163:Middlewares/lvgl/src/draw/lv_img_buf.c ****     }
 621              		.loc 1 163 25 view .LVU224
 622 00de 13F8100C 		ldrb	r0, [r3, #-16]	@ zero_extendqisi2
 623 00e2 A1E7     		b	.L18
 624              	.LVL78:
 625              	.L30:
 163:Middlewares/lvgl/src/draw/lv_img_buf.c ****     }
 626              		.loc 1 163 25 view .LVU225
 627              	.LBE59:
 628              	.LBB60:
 166:Middlewares/lvgl/src/draw/lv_img_buf.c ****         return buf_u8[px];
 629              		.loc 1 166 9 is_stmt 1 view .LVU226
 166:Middlewares/lvgl/src/draw/lv_img_buf.c ****         return buf_u8[px];
 630              		.loc 1 166 34 is_stmt 0 view .LVU227
 631 00e4 0268     		ldr	r2, [r0]
 632              	.LVL79:
 166:Middlewares/lvgl/src/draw/lv_img_buf.c ****         return buf_u8[px];
 633              		.loc 1 166 34 view .LVU228
 634 00e6 C2F38A22 		ubfx	r2, r2, #10, #11
 166:Middlewares/lvgl/src/draw/lv_img_buf.c ****         return buf_u8[px];
 635              		.loc 1 166 41 view .LVU229
 636 00ea 02FB0512 		mla	r2, r2, r5, r1
 637              	.LVL80:
 167:Middlewares/lvgl/src/draw/lv_img_buf.c ****     }
 638              		.loc 1 167 9 is_stmt 1 view .LVU230
 167:Middlewares/lvgl/src/draw/lv_img_buf.c ****     }
 639              		.loc 1 167 22 is_stmt 0 view .LVU231
 640 00ee A05C     		ldrb	r0, [r4, r2]	@ zero_extendqisi2
 641              	.LVL81:
 167:Middlewares/lvgl/src/draw/lv_img_buf.c ****     }
 642              		.loc 1 167 22 view .LVU232
 643 00f0 9AE7     		b	.L18
 644              	.L32:
 645 00f2 00BF     		.align	2
 646              	.L31:
 647 00f4 0055AAFF 		.word	-5614336
 648 00f8 00000000 		.word	.LANCHOR0
 649              	.LBE60:
 650              		.cfi_endproc
 651              	.LFE49:
 653              		.section	.text.lv_img_buf_set_px_alpha,"ax",%progbits
 654              		.align	1
ARM GAS  /tmp/ccTdGo64.s 			page 34


 655              		.global	lv_img_buf_set_px_alpha
 656              		.syntax unified
 657              		.thumb
 658              		.thumb_func
 659              		.fpu fpv4-sp-d16
 661              	lv_img_buf_set_px_alpha:
 662              	.LVL82:
 663              	.LFB50:
 172:Middlewares/lvgl/src/draw/lv_img_buf.c **** 
 173:Middlewares/lvgl/src/draw/lv_img_buf.c **** /**
 174:Middlewares/lvgl/src/draw/lv_img_buf.c ****  * Set the alpha value of a pixel of an image. The color won't be affected
 175:Middlewares/lvgl/src/draw/lv_img_buf.c ****  * @param dsc pointer to an image descriptor
 176:Middlewares/lvgl/src/draw/lv_img_buf.c ****  * @param x x coordinate of the point to set
 177:Middlewares/lvgl/src/draw/lv_img_buf.c ****  * @param y x coordinate of the point to set
 178:Middlewares/lvgl/src/draw/lv_img_buf.c ****  * @param opa the desired opacity
 179:Middlewares/lvgl/src/draw/lv_img_buf.c ****  * @param safe true: check out of bounds
 180:Middlewares/lvgl/src/draw/lv_img_buf.c ****  */
 181:Middlewares/lvgl/src/draw/lv_img_buf.c **** void lv_img_buf_set_px_alpha(lv_img_dsc_t * dsc, lv_coord_t x, lv_coord_t y, lv_opa_t opa)
 182:Middlewares/lvgl/src/draw/lv_img_buf.c **** {
 664              		.loc 1 182 1 is_stmt 1 view -0
 665              		.cfi_startproc
 666              		@ args = 0, pretend = 0, frame = 0
 667              		@ frame_needed = 0, uses_anonymous_args = 0
 668              		.loc 1 182 1 is_stmt 0 view .LVU234
 669 0000 2DE9F041 		push	{r4, r5, r6, r7, r8, lr}
 670              	.LCFI8:
 671              		.cfi_def_cfa_offset 24
 672              		.cfi_offset 4, -24
 673              		.cfi_offset 5, -20
 674              		.cfi_offset 6, -16
 675              		.cfi_offset 7, -12
 676              		.cfi_offset 8, -8
 677              		.cfi_offset 14, -4
 678 0004 0546     		mov	r5, r0
 679 0006 0E46     		mov	r6, r1
 680 0008 1746     		mov	r7, r2
 681 000a 1C46     		mov	r4, r3
 183:Middlewares/lvgl/src/draw/lv_img_buf.c ****     uint8_t * buf_u8 = (uint8_t *)dsc->data;
 682              		.loc 1 183 5 is_stmt 1 view .LVU235
 683              		.loc 1 183 15 is_stmt 0 view .LVU236
 684 000c D0F80880 		ldr	r8, [r0, #8]
 685              	.LVL83:
 184:Middlewares/lvgl/src/draw/lv_img_buf.c **** 
 185:Middlewares/lvgl/src/draw/lv_img_buf.c ****     if(dsc->header.cf == LV_IMG_CF_TRUE_COLOR_ALPHA) {
 686              		.loc 1 185 5 is_stmt 1 view .LVU237
 687              		.loc 1 185 23 is_stmt 0 view .LVU238
 688 0010 0378     		ldrb	r3, [r0]	@ zero_extendqisi2
 689              	.LVL84:
 690              		.loc 1 185 23 view .LVU239
 691 0012 03F01F03 		and	r3, r3, #31
 692              		.loc 1 185 7 view .LVU240
 693 0016 052B     		cmp	r3, #5
 694 0018 0FD0     		beq	.L40
 186:Middlewares/lvgl/src/draw/lv_img_buf.c ****         uint8_t px_size          = lv_img_cf_get_px_size(dsc->header.cf) >> 3;
 187:Middlewares/lvgl/src/draw/lv_img_buf.c ****         uint32_t px              = dsc->header.w * y * px_size + x * px_size;
 188:Middlewares/lvgl/src/draw/lv_img_buf.c ****         buf_u8[px + px_size - 1] = opa;
 189:Middlewares/lvgl/src/draw/lv_img_buf.c ****     }
ARM GAS  /tmp/ccTdGo64.s 			page 35


 190:Middlewares/lvgl/src/draw/lv_img_buf.c ****     else if(dsc->header.cf == LV_IMG_CF_ALPHA_1BIT) {
 695              		.loc 1 190 10 is_stmt 1 view .LVU241
 696              		.loc 1 190 12 is_stmt 0 view .LVU242
 697 001a 0B2B     		cmp	r3, #11
 698 001c 20D0     		beq	.L41
 191:Middlewares/lvgl/src/draw/lv_img_buf.c ****         opa         = opa >> 7; /*opa -> [0,1]*/
 192:Middlewares/lvgl/src/draw/lv_img_buf.c ****         uint8_t bit = x & 0x7;
 193:Middlewares/lvgl/src/draw/lv_img_buf.c ****         x           = x >> 3;
 194:Middlewares/lvgl/src/draw/lv_img_buf.c **** 
 195:Middlewares/lvgl/src/draw/lv_img_buf.c ****         /*Get the current pixel.
 196:Middlewares/lvgl/src/draw/lv_img_buf.c ****          *dsc->header.w + 7 means rounding up to 8 because the lines are byte aligned
 197:Middlewares/lvgl/src/draw/lv_img_buf.c ****          *so the possible real width are 8 ,16, 24 ...*/
 198:Middlewares/lvgl/src/draw/lv_img_buf.c ****         uint32_t px = ((dsc->header.w + 7) >> 3) * y + x;
 199:Middlewares/lvgl/src/draw/lv_img_buf.c ****         buf_u8[px]  = buf_u8[px] & ~(1 << (7 - bit));
 200:Middlewares/lvgl/src/draw/lv_img_buf.c ****         buf_u8[px]  = buf_u8[px] | ((opa & 0x1) << (7 - bit));
 201:Middlewares/lvgl/src/draw/lv_img_buf.c ****     }
 202:Middlewares/lvgl/src/draw/lv_img_buf.c ****     else if(dsc->header.cf == LV_IMG_CF_ALPHA_2BIT) {
 699              		.loc 1 202 10 is_stmt 1 view .LVU243
 700              		.loc 1 202 12 is_stmt 0 view .LVU244
 701 001e 0C2B     		cmp	r3, #12
 702 0020 3BD0     		beq	.L42
 203:Middlewares/lvgl/src/draw/lv_img_buf.c ****         opa         = opa >> 6; /*opa -> [0,3]*/
 204:Middlewares/lvgl/src/draw/lv_img_buf.c ****         uint8_t bit = (x & 0x3) * 2;
 205:Middlewares/lvgl/src/draw/lv_img_buf.c ****         x           = x >> 2;
 206:Middlewares/lvgl/src/draw/lv_img_buf.c **** 
 207:Middlewares/lvgl/src/draw/lv_img_buf.c ****         /*Get the current pixel.
 208:Middlewares/lvgl/src/draw/lv_img_buf.c ****          *dsc->header.w + 4 means rounding up to 8 because the lines are byte aligned
 209:Middlewares/lvgl/src/draw/lv_img_buf.c ****          *so the possible real width are 4 ,8, 12 ...*/
 210:Middlewares/lvgl/src/draw/lv_img_buf.c ****         uint32_t px = ((dsc->header.w + 3) >> 2) * y + x;
 211:Middlewares/lvgl/src/draw/lv_img_buf.c ****         buf_u8[px]  = buf_u8[px] & ~(3 << (6 - bit));
 212:Middlewares/lvgl/src/draw/lv_img_buf.c ****         buf_u8[px]  = buf_u8[px] | ((opa & 0x3) << (6 - bit));
 213:Middlewares/lvgl/src/draw/lv_img_buf.c ****     }
 214:Middlewares/lvgl/src/draw/lv_img_buf.c ****     else if(dsc->header.cf == LV_IMG_CF_ALPHA_4BIT) {
 703              		.loc 1 214 10 is_stmt 1 view .LVU245
 704              		.loc 1 214 12 is_stmt 0 view .LVU246
 705 0022 0D2B     		cmp	r3, #13
 706 0024 56D0     		beq	.L43
 215:Middlewares/lvgl/src/draw/lv_img_buf.c ****         opa         = opa >> 4; /*opa -> [0,15]*/
 216:Middlewares/lvgl/src/draw/lv_img_buf.c ****         uint8_t bit = (x & 0x1) * 4;
 217:Middlewares/lvgl/src/draw/lv_img_buf.c ****         x           = x >> 1;
 218:Middlewares/lvgl/src/draw/lv_img_buf.c **** 
 219:Middlewares/lvgl/src/draw/lv_img_buf.c ****         /*Get the current pixel.
 220:Middlewares/lvgl/src/draw/lv_img_buf.c ****          *dsc->header.w + 1 means rounding up to 8 because the lines are byte aligned
 221:Middlewares/lvgl/src/draw/lv_img_buf.c ****          *so the possible real width are 2 ,4, 6 ...*/
 222:Middlewares/lvgl/src/draw/lv_img_buf.c ****         uint32_t px = ((dsc->header.w + 1) >> 1) * y + x;
 223:Middlewares/lvgl/src/draw/lv_img_buf.c ****         buf_u8[px]  = buf_u8[px] & ~(0xF << (4 - bit));
 224:Middlewares/lvgl/src/draw/lv_img_buf.c ****         buf_u8[px]  = buf_u8[px] | ((opa & 0xF) << (4 - bit));
 225:Middlewares/lvgl/src/draw/lv_img_buf.c ****     }
 226:Middlewares/lvgl/src/draw/lv_img_buf.c ****     else if(dsc->header.cf == LV_IMG_CF_ALPHA_8BIT) {
 707              		.loc 1 226 10 is_stmt 1 view .LVU247
 708              		.loc 1 226 12 is_stmt 0 view .LVU248
 709 0026 0E2B     		cmp	r3, #14
 710 0028 35D1     		bne	.L33
 711              	.LBB61:
 227:Middlewares/lvgl/src/draw/lv_img_buf.c ****         uint32_t px = dsc->header.w * y + x;
 712              		.loc 1 227 9 is_stmt 1 view .LVU249
 713              		.loc 1 227 34 is_stmt 0 view .LVU250
ARM GAS  /tmp/ccTdGo64.s 			page 36


 714 002a 0268     		ldr	r2, [r0]
 715              	.LVL85:
 716              		.loc 1 227 34 view .LVU251
 717 002c C2F38A22 		ubfx	r2, r2, #10, #11
 718              		.loc 1 227 41 view .LVU252
 719 0030 02FB0716 		mla	r6, r2, r7, r1
 720              	.LVL86:
 228:Middlewares/lvgl/src/draw/lv_img_buf.c ****         buf_u8[px]  = opa;
 721              		.loc 1 228 9 is_stmt 1 view .LVU253
 722              		.loc 1 228 21 is_stmt 0 view .LVU254
 723 0034 08F80640 		strb	r4, [r8, r6]
 724              	.LBE61:
 229:Middlewares/lvgl/src/draw/lv_img_buf.c ****     }
 230:Middlewares/lvgl/src/draw/lv_img_buf.c **** }
 725              		.loc 1 230 1 view .LVU255
 726 0038 2DE0     		b	.L33
 727              	.LVL87:
 728              	.L40:
 729              	.LBB62:
 186:Middlewares/lvgl/src/draw/lv_img_buf.c ****         uint32_t px              = dsc->header.w * y * px_size + x * px_size;
 730              		.loc 1 186 9 is_stmt 1 view .LVU256
 186:Middlewares/lvgl/src/draw/lv_img_buf.c ****         uint32_t px              = dsc->header.w * y * px_size + x * px_size;
 731              		.loc 1 186 36 is_stmt 0 view .LVU257
 732 003a 1846     		mov	r0, r3
 733              	.LVL88:
 186:Middlewares/lvgl/src/draw/lv_img_buf.c ****         uint32_t px              = dsc->header.w * y * px_size + x * px_size;
 734              		.loc 1 186 36 view .LVU258
 735 003c FFF7FEFF 		bl	lv_img_cf_get_px_size
 736              	.LVL89:
 186:Middlewares/lvgl/src/draw/lv_img_buf.c ****         uint32_t px              = dsc->header.w * y * px_size + x * px_size;
 737              		.loc 1 186 17 view .LVU259
 738 0040 C0F3C700 		ubfx	r0, r0, #3, #8
 739              	.LVL90:
 187:Middlewares/lvgl/src/draw/lv_img_buf.c ****         buf_u8[px + px_size - 1] = opa;
 740              		.loc 1 187 9 is_stmt 1 view .LVU260
 187:Middlewares/lvgl/src/draw/lv_img_buf.c ****         buf_u8[px + px_size - 1] = opa;
 741              		.loc 1 187 47 is_stmt 0 view .LVU261
 742 0044 2A68     		ldr	r2, [r5]
 743 0046 C2F38A22 		ubfx	r2, r2, #10, #11
 187:Middlewares/lvgl/src/draw/lv_img_buf.c ****         buf_u8[px + px_size - 1] = opa;
 744              		.loc 1 187 50 view .LVU262
 745 004a 02FB07F7 		mul	r7, r2, r7
 187:Middlewares/lvgl/src/draw/lv_img_buf.c ****         buf_u8[px + px_size - 1] = opa;
 746              		.loc 1 187 68 view .LVU263
 747 004e 00FB06F6 		mul	r6, r0, r6
 187:Middlewares/lvgl/src/draw/lv_img_buf.c ****         buf_u8[px + px_size - 1] = opa;
 748              		.loc 1 187 64 view .LVU264
 749 0052 00FB0767 		mla	r7, r0, r7, r6
 750              	.LVL91:
 188:Middlewares/lvgl/src/draw/lv_img_buf.c ****     }
 751              		.loc 1 188 9 is_stmt 1 view .LVU265
 188:Middlewares/lvgl/src/draw/lv_img_buf.c ****     }
 752              		.loc 1 188 19 is_stmt 0 view .LVU266
 753 0056 3844     		add	r0, r0, r7
 754              	.LVL92:
 188:Middlewares/lvgl/src/draw/lv_img_buf.c ****     }
 755              		.loc 1 188 15 view .LVU267
ARM GAS  /tmp/ccTdGo64.s 			page 37


 756 0058 0138     		subs	r0, r0, #1
 188:Middlewares/lvgl/src/draw/lv_img_buf.c ****     }
 757              		.loc 1 188 34 view .LVU268
 758 005a 08F80040 		strb	r4, [r8, r0]
 759              	.LBE62:
 760 005e 1AE0     		b	.L33
 761              	.LVL93:
 762              	.L41:
 763              	.LBB63:
 191:Middlewares/lvgl/src/draw/lv_img_buf.c ****         uint8_t bit = x & 0x7;
 764              		.loc 1 191 9 is_stmt 1 view .LVU269
 191:Middlewares/lvgl/src/draw/lv_img_buf.c ****         uint8_t bit = x & 0x7;
 765              		.loc 1 191 21 is_stmt 0 view .LVU270
 766 0060 E409     		lsrs	r4, r4, #7
 767              	.LVL94:
 192:Middlewares/lvgl/src/draw/lv_img_buf.c ****         x           = x >> 3;
 768              		.loc 1 192 9 is_stmt 1 view .LVU271
 192:Middlewares/lvgl/src/draw/lv_img_buf.c ****         x           = x >> 3;
 769              		.loc 1 192 17 is_stmt 0 view .LVU272
 770 0062 01F00701 		and	r1, r1, #7
 771              	.LVL95:
 193:Middlewares/lvgl/src/draw/lv_img_buf.c **** 
 772              		.loc 1 193 9 is_stmt 1 view .LVU273
 198:Middlewares/lvgl/src/draw/lv_img_buf.c ****         buf_u8[px]  = buf_u8[px] & ~(1 << (7 - bit));
 773              		.loc 1 198 9 view .LVU274
 198:Middlewares/lvgl/src/draw/lv_img_buf.c ****         buf_u8[px]  = buf_u8[px] & ~(1 << (7 - bit));
 774              		.loc 1 198 36 is_stmt 0 view .LVU275
 775 0066 0268     		ldr	r2, [r0]
 776              	.LVL96:
 198:Middlewares/lvgl/src/draw/lv_img_buf.c ****         buf_u8[px]  = buf_u8[px] & ~(1 << (7 - bit));
 777              		.loc 1 198 36 view .LVU276
 778 0068 C2F38A22 		ubfx	r2, r2, #10, #11
 198:Middlewares/lvgl/src/draw/lv_img_buf.c ****         buf_u8[px]  = buf_u8[px] & ~(1 << (7 - bit));
 779              		.loc 1 198 39 view .LVU277
 780 006c 0732     		adds	r2, r2, #7
 198:Middlewares/lvgl/src/draw/lv_img_buf.c ****         buf_u8[px]  = buf_u8[px] & ~(1 << (7 - bit));
 781              		.loc 1 198 44 view .LVU278
 782 006e D210     		asrs	r2, r2, #3
 198:Middlewares/lvgl/src/draw/lv_img_buf.c ****         buf_u8[px]  = buf_u8[px] & ~(1 << (7 - bit));
 783              		.loc 1 198 50 view .LVU279
 784 0070 02FB07F7 		mul	r7, r2, r7
 198:Middlewares/lvgl/src/draw/lv_img_buf.c ****         buf_u8[px]  = buf_u8[px] & ~(1 << (7 - bit));
 785              		.loc 1 198 54 view .LVU280
 786 0074 07EBE606 		add	r6, r7, r6, asr #3
 787              	.LVL97:
 199:Middlewares/lvgl/src/draw/lv_img_buf.c ****         buf_u8[px]  = buf_u8[px] | ((opa & 0x1) << (7 - bit));
 788              		.loc 1 199 9 is_stmt 1 view .LVU281
 199:Middlewares/lvgl/src/draw/lv_img_buf.c ****         buf_u8[px]  = buf_u8[px] | ((opa & 0x1) << (7 - bit));
 789              		.loc 1 199 29 is_stmt 0 view .LVU282
 790 0078 18F90630 		ldrsb	r3, [r8, r6]
 199:Middlewares/lvgl/src/draw/lv_img_buf.c ****         buf_u8[px]  = buf_u8[px] | ((opa & 0x1) << (7 - bit));
 791              		.loc 1 199 46 view .LVU283
 792 007c C1F10702 		rsb	r2, r1, #7
 199:Middlewares/lvgl/src/draw/lv_img_buf.c ****         buf_u8[px]  = buf_u8[px] | ((opa & 0x1) << (7 - bit));
 793              		.loc 1 199 40 view .LVU284
 794 0080 0121     		movs	r1, #1
 795              	.LVL98:
ARM GAS  /tmp/ccTdGo64.s 			page 38


 199:Middlewares/lvgl/src/draw/lv_img_buf.c ****         buf_u8[px]  = buf_u8[px] | ((opa & 0x1) << (7 - bit));
 796              		.loc 1 199 40 view .LVU285
 797 0082 9140     		lsls	r1, r1, r2
 199:Middlewares/lvgl/src/draw/lv_img_buf.c ****         buf_u8[px]  = buf_u8[px] | ((opa & 0x1) << (7 - bit));
 798              		.loc 1 199 34 view .LVU286
 799 0084 23EA0101 		bic	r1, r3, r1
 800 0088 48B2     		sxtb	r0, r1
 801              	.LVL99:
 199:Middlewares/lvgl/src/draw/lv_img_buf.c ****         buf_u8[px]  = buf_u8[px] | ((opa & 0x1) << (7 - bit));
 802              		.loc 1 199 21 view .LVU287
 803 008a 08F80610 		strb	r1, [r8, r6]
 200:Middlewares/lvgl/src/draw/lv_img_buf.c ****     }
 804              		.loc 1 200 9 is_stmt 1 view .LVU288
 200:Middlewares/lvgl/src/draw/lv_img_buf.c ****     }
 805              		.loc 1 200 49 is_stmt 0 view .LVU289
 806 008e 9440     		lsls	r4, r4, r2
 807              	.LVL100:
 200:Middlewares/lvgl/src/draw/lv_img_buf.c ****     }
 808              		.loc 1 200 34 view .LVU290
 809 0090 0443     		orrs	r4, r4, r0
 200:Middlewares/lvgl/src/draw/lv_img_buf.c ****     }
 810              		.loc 1 200 21 view .LVU291
 811 0092 08F80640 		strb	r4, [r8, r6]
 812              	.LVL101:
 813              	.L33:
 200:Middlewares/lvgl/src/draw/lv_img_buf.c ****     }
 814              		.loc 1 200 21 view .LVU292
 815              	.LBE63:
 816              		.loc 1 230 1 view .LVU293
 817 0096 BDE8F081 		pop	{r4, r5, r6, r7, r8, pc}
 818              	.LVL102:
 819              	.L42:
 820              	.LBB64:
 203:Middlewares/lvgl/src/draw/lv_img_buf.c ****         uint8_t bit = (x & 0x3) * 2;
 821              		.loc 1 203 9 is_stmt 1 view .LVU294
 203:Middlewares/lvgl/src/draw/lv_img_buf.c ****         uint8_t bit = (x & 0x3) * 2;
 822              		.loc 1 203 21 is_stmt 0 view .LVU295
 823 009a A409     		lsrs	r4, r4, #6
 824              	.LVL103:
 204:Middlewares/lvgl/src/draw/lv_img_buf.c ****         x           = x >> 2;
 825              		.loc 1 204 9 is_stmt 1 view .LVU296
 204:Middlewares/lvgl/src/draw/lv_img_buf.c ****         x           = x >> 2;
 826              		.loc 1 204 17 is_stmt 0 view .LVU297
 827 009c 01F00302 		and	r2, r1, #3
 828              	.LVL104:
 204:Middlewares/lvgl/src/draw/lv_img_buf.c ****         x           = x >> 2;
 829              		.loc 1 204 17 view .LVU298
 830 00a0 5100     		lsls	r1, r2, #1
 831              	.LVL105:
 205:Middlewares/lvgl/src/draw/lv_img_buf.c **** 
 832              		.loc 1 205 9 is_stmt 1 view .LVU299
 210:Middlewares/lvgl/src/draw/lv_img_buf.c ****         buf_u8[px]  = buf_u8[px] & ~(3 << (6 - bit));
 833              		.loc 1 210 9 view .LVU300
 210:Middlewares/lvgl/src/draw/lv_img_buf.c ****         buf_u8[px]  = buf_u8[px] & ~(3 << (6 - bit));
 834              		.loc 1 210 36 is_stmt 0 view .LVU301
 835 00a2 0268     		ldr	r2, [r0]
 836 00a4 C2F38A22 		ubfx	r2, r2, #10, #11
ARM GAS  /tmp/ccTdGo64.s 			page 39


 210:Middlewares/lvgl/src/draw/lv_img_buf.c ****         buf_u8[px]  = buf_u8[px] & ~(3 << (6 - bit));
 837              		.loc 1 210 39 view .LVU302
 838 00a8 0332     		adds	r2, r2, #3
 210:Middlewares/lvgl/src/draw/lv_img_buf.c ****         buf_u8[px]  = buf_u8[px] & ~(3 << (6 - bit));
 839              		.loc 1 210 44 view .LVU303
 840 00aa 9210     		asrs	r2, r2, #2
 210:Middlewares/lvgl/src/draw/lv_img_buf.c ****         buf_u8[px]  = buf_u8[px] & ~(3 << (6 - bit));
 841              		.loc 1 210 50 view .LVU304
 842 00ac 02FB07F7 		mul	r7, r2, r7
 210:Middlewares/lvgl/src/draw/lv_img_buf.c ****         buf_u8[px]  = buf_u8[px] & ~(3 << (6 - bit));
 843              		.loc 1 210 54 view .LVU305
 844 00b0 07EBA606 		add	r6, r7, r6, asr #2
 845              	.LVL106:
 211:Middlewares/lvgl/src/draw/lv_img_buf.c ****         buf_u8[px]  = buf_u8[px] | ((opa & 0x3) << (6 - bit));
 846              		.loc 1 211 9 is_stmt 1 view .LVU306
 211:Middlewares/lvgl/src/draw/lv_img_buf.c ****         buf_u8[px]  = buf_u8[px] | ((opa & 0x3) << (6 - bit));
 847              		.loc 1 211 29 is_stmt 0 view .LVU307
 848 00b4 18F90630 		ldrsb	r3, [r8, r6]
 211:Middlewares/lvgl/src/draw/lv_img_buf.c ****         buf_u8[px]  = buf_u8[px] | ((opa & 0x3) << (6 - bit));
 849              		.loc 1 211 46 view .LVU308
 850 00b8 C1F10602 		rsb	r2, r1, #6
 211:Middlewares/lvgl/src/draw/lv_img_buf.c ****         buf_u8[px]  = buf_u8[px] | ((opa & 0x3) << (6 - bit));
 851              		.loc 1 211 40 view .LVU309
 852 00bc 0321     		movs	r1, #3
 853              	.LVL107:
 211:Middlewares/lvgl/src/draw/lv_img_buf.c ****         buf_u8[px]  = buf_u8[px] | ((opa & 0x3) << (6 - bit));
 854              		.loc 1 211 40 view .LVU310
 855 00be 9140     		lsls	r1, r1, r2
 211:Middlewares/lvgl/src/draw/lv_img_buf.c ****         buf_u8[px]  = buf_u8[px] | ((opa & 0x3) << (6 - bit));
 856              		.loc 1 211 34 view .LVU311
 857 00c0 23EA0103 		bic	r3, r3, r1
 858 00c4 59B2     		sxtb	r1, r3
 211:Middlewares/lvgl/src/draw/lv_img_buf.c ****         buf_u8[px]  = buf_u8[px] | ((opa & 0x3) << (6 - bit));
 859              		.loc 1 211 21 view .LVU312
 860 00c6 08F80630 		strb	r3, [r8, r6]
 212:Middlewares/lvgl/src/draw/lv_img_buf.c ****     }
 861              		.loc 1 212 9 is_stmt 1 view .LVU313
 212:Middlewares/lvgl/src/draw/lv_img_buf.c ****     }
 862              		.loc 1 212 49 is_stmt 0 view .LVU314
 863 00ca 9440     		lsls	r4, r4, r2
 864              	.LVL108:
 212:Middlewares/lvgl/src/draw/lv_img_buf.c ****     }
 865              		.loc 1 212 34 view .LVU315
 866 00cc 0C43     		orrs	r4, r4, r1
 212:Middlewares/lvgl/src/draw/lv_img_buf.c ****     }
 867              		.loc 1 212 21 view .LVU316
 868 00ce 08F80640 		strb	r4, [r8, r6]
 869              	.LBE64:
 870 00d2 E0E7     		b	.L33
 871              	.LVL109:
 872              	.L43:
 873              	.LBB65:
 215:Middlewares/lvgl/src/draw/lv_img_buf.c ****         uint8_t bit = (x & 0x1) * 4;
 874              		.loc 1 215 9 is_stmt 1 view .LVU317
 215:Middlewares/lvgl/src/draw/lv_img_buf.c ****         uint8_t bit = (x & 0x1) * 4;
 875              		.loc 1 215 21 is_stmt 0 view .LVU318
 876 00d4 2409     		lsrs	r4, r4, #4
ARM GAS  /tmp/ccTdGo64.s 			page 40


 877              	.LVL110:
 216:Middlewares/lvgl/src/draw/lv_img_buf.c ****         x           = x >> 1;
 878              		.loc 1 216 9 is_stmt 1 view .LVU319
 216:Middlewares/lvgl/src/draw/lv_img_buf.c ****         x           = x >> 1;
 879              		.loc 1 216 17 is_stmt 0 view .LVU320
 880 00d6 01F00102 		and	r2, r1, #1
 881              	.LVL111:
 216:Middlewares/lvgl/src/draw/lv_img_buf.c ****         x           = x >> 1;
 882              		.loc 1 216 17 view .LVU321
 883 00da 9100     		lsls	r1, r2, #2
 884              	.LVL112:
 217:Middlewares/lvgl/src/draw/lv_img_buf.c **** 
 885              		.loc 1 217 9 is_stmt 1 view .LVU322
 222:Middlewares/lvgl/src/draw/lv_img_buf.c ****         buf_u8[px]  = buf_u8[px] & ~(0xF << (4 - bit));
 886              		.loc 1 222 9 view .LVU323
 222:Middlewares/lvgl/src/draw/lv_img_buf.c ****         buf_u8[px]  = buf_u8[px] & ~(0xF << (4 - bit));
 887              		.loc 1 222 36 is_stmt 0 view .LVU324
 888 00dc 0268     		ldr	r2, [r0]
 889 00de C2F38A22 		ubfx	r2, r2, #10, #11
 222:Middlewares/lvgl/src/draw/lv_img_buf.c ****         buf_u8[px]  = buf_u8[px] & ~(0xF << (4 - bit));
 890              		.loc 1 222 39 view .LVU325
 891 00e2 0132     		adds	r2, r2, #1
 222:Middlewares/lvgl/src/draw/lv_img_buf.c ****         buf_u8[px]  = buf_u8[px] & ~(0xF << (4 - bit));
 892              		.loc 1 222 44 view .LVU326
 893 00e4 5210     		asrs	r2, r2, #1
 222:Middlewares/lvgl/src/draw/lv_img_buf.c ****         buf_u8[px]  = buf_u8[px] & ~(0xF << (4 - bit));
 894              		.loc 1 222 50 view .LVU327
 895 00e6 02FB07F7 		mul	r7, r2, r7
 222:Middlewares/lvgl/src/draw/lv_img_buf.c ****         buf_u8[px]  = buf_u8[px] & ~(0xF << (4 - bit));
 896              		.loc 1 222 54 view .LVU328
 897 00ea 07EB6606 		add	r6, r7, r6, asr #1
 898              	.LVL113:
 223:Middlewares/lvgl/src/draw/lv_img_buf.c ****         buf_u8[px]  = buf_u8[px] | ((opa & 0xF) << (4 - bit));
 899              		.loc 1 223 9 is_stmt 1 view .LVU329
 223:Middlewares/lvgl/src/draw/lv_img_buf.c ****         buf_u8[px]  = buf_u8[px] | ((opa & 0xF) << (4 - bit));
 900              		.loc 1 223 29 is_stmt 0 view .LVU330
 901 00ee 18F90630 		ldrsb	r3, [r8, r6]
 223:Middlewares/lvgl/src/draw/lv_img_buf.c ****         buf_u8[px]  = buf_u8[px] | ((opa & 0xF) << (4 - bit));
 902              		.loc 1 223 48 view .LVU331
 903 00f2 C1F10402 		rsb	r2, r1, #4
 223:Middlewares/lvgl/src/draw/lv_img_buf.c ****         buf_u8[px]  = buf_u8[px] | ((opa & 0xF) << (4 - bit));
 904              		.loc 1 223 42 view .LVU332
 905 00f6 0F21     		movs	r1, #15
 906              	.LVL114:
 223:Middlewares/lvgl/src/draw/lv_img_buf.c ****         buf_u8[px]  = buf_u8[px] | ((opa & 0xF) << (4 - bit));
 907              		.loc 1 223 42 view .LVU333
 908 00f8 9140     		lsls	r1, r1, r2
 223:Middlewares/lvgl/src/draw/lv_img_buf.c ****         buf_u8[px]  = buf_u8[px] | ((opa & 0xF) << (4 - bit));
 909              		.loc 1 223 34 view .LVU334
 910 00fa 23EA0103 		bic	r3, r3, r1
 911 00fe 59B2     		sxtb	r1, r3
 223:Middlewares/lvgl/src/draw/lv_img_buf.c ****         buf_u8[px]  = buf_u8[px] | ((opa & 0xF) << (4 - bit));
 912              		.loc 1 223 21 view .LVU335
 913 0100 08F80630 		strb	r3, [r8, r6]
 224:Middlewares/lvgl/src/draw/lv_img_buf.c ****     }
 914              		.loc 1 224 9 is_stmt 1 view .LVU336
 224:Middlewares/lvgl/src/draw/lv_img_buf.c ****     }
ARM GAS  /tmp/ccTdGo64.s 			page 41


 915              		.loc 1 224 49 is_stmt 0 view .LVU337
 916 0104 9440     		lsls	r4, r4, r2
 917              	.LVL115:
 224:Middlewares/lvgl/src/draw/lv_img_buf.c ****     }
 918              		.loc 1 224 34 view .LVU338
 919 0106 0C43     		orrs	r4, r4, r1
 224:Middlewares/lvgl/src/draw/lv_img_buf.c ****     }
 920              		.loc 1 224 21 view .LVU339
 921 0108 08F80640 		strb	r4, [r8, r6]
 922              	.LBE65:
 923 010c C3E7     		b	.L33
 924              		.cfi_endproc
 925              	.LFE50:
 927              		.section	.text.lv_img_buf_set_px_color,"ax",%progbits
 928              		.align	1
 929              		.global	lv_img_buf_set_px_color
 930              		.syntax unified
 931              		.thumb
 932              		.thumb_func
 933              		.fpu fpv4-sp-d16
 935              	lv_img_buf_set_px_color:
 936              	.LVL116:
 937              	.LFB51:
 231:Middlewares/lvgl/src/draw/lv_img_buf.c **** 
 232:Middlewares/lvgl/src/draw/lv_img_buf.c **** /**
 233:Middlewares/lvgl/src/draw/lv_img_buf.c ****  * Set the color of a pixel of an image. The alpha channel won't be affected.
 234:Middlewares/lvgl/src/draw/lv_img_buf.c ****  * @param dsc pointer to an image descriptor
 235:Middlewares/lvgl/src/draw/lv_img_buf.c ****  * @param x x coordinate of the point to set
 236:Middlewares/lvgl/src/draw/lv_img_buf.c ****  * @param y x coordinate of the point to set
 237:Middlewares/lvgl/src/draw/lv_img_buf.c ****  * @param c color of the point
 238:Middlewares/lvgl/src/draw/lv_img_buf.c ****  * @param safe true: check out of bounds
 239:Middlewares/lvgl/src/draw/lv_img_buf.c ****  */
 240:Middlewares/lvgl/src/draw/lv_img_buf.c **** void lv_img_buf_set_px_color(lv_img_dsc_t * dsc, lv_coord_t x, lv_coord_t y, lv_color_t c)
 241:Middlewares/lvgl/src/draw/lv_img_buf.c **** {
 938              		.loc 1 241 1 is_stmt 1 view -0
 939              		.cfi_startproc
 940              		@ args = 0, pretend = 0, frame = 8
 941              		@ frame_needed = 0, uses_anonymous_args = 0
 942              		.loc 1 241 1 is_stmt 0 view .LVU341
 943 0000 F0B5     		push	{r4, r5, r6, r7, lr}
 944              	.LCFI9:
 945              		.cfi_def_cfa_offset 20
 946              		.cfi_offset 4, -20
 947              		.cfi_offset 5, -16
 948              		.cfi_offset 6, -12
 949              		.cfi_offset 7, -8
 950              		.cfi_offset 14, -4
 951 0002 83B0     		sub	sp, sp, #12
 952              	.LCFI10:
 953              		.cfi_def_cfa_offset 32
 954 0004 0546     		mov	r5, r0
 955 0006 0C46     		mov	r4, r1
 956 0008 1746     		mov	r7, r2
 957 000a ADF80430 		strh	r3, [sp, #4]	@ movhi
 242:Middlewares/lvgl/src/draw/lv_img_buf.c ****     uint8_t * buf_u8 = (uint8_t *)dsc->data;
 958              		.loc 1 242 5 is_stmt 1 view .LVU342
 959              		.loc 1 242 15 is_stmt 0 view .LVU343
ARM GAS  /tmp/ccTdGo64.s 			page 42


 960 000e 8668     		ldr	r6, [r0, #8]
 961              	.LVL117:
 243:Middlewares/lvgl/src/draw/lv_img_buf.c **** 
 244:Middlewares/lvgl/src/draw/lv_img_buf.c ****     if(dsc->header.cf == LV_IMG_CF_TRUE_COLOR || dsc->header.cf == LV_IMG_CF_TRUE_COLOR_CHROMA_KEYE
 962              		.loc 1 244 5 is_stmt 1 view .LVU344
 963              		.loc 1 244 23 is_stmt 0 view .LVU345
 964 0010 0178     		ldrb	r1, [r0]	@ zero_extendqisi2
 965              	.LVL118:
 966              		.loc 1 244 23 view .LVU346
 967 0012 01F01F01 		and	r1, r1, #31
 968              		.loc 1 244 7 view .LVU347
 969 0016 0429     		cmp	r1, #4
 970 0018 17D0     		beq	.L45
 971              		.loc 1 244 47 discriminator 1 view .LVU348
 972 001a 0629     		cmp	r1, #6
 973 001c 15D0     		beq	.L45
 245:Middlewares/lvgl/src/draw/lv_img_buf.c ****         uint8_t px_size = lv_img_cf_get_px_size(dsc->header.cf) >> 3;
 246:Middlewares/lvgl/src/draw/lv_img_buf.c ****         uint32_t px     = dsc->header.w * y * px_size + x * px_size;
 247:Middlewares/lvgl/src/draw/lv_img_buf.c ****         lv_memcpy_small(&buf_u8[px], &c, px_size);
 248:Middlewares/lvgl/src/draw/lv_img_buf.c ****     }
 249:Middlewares/lvgl/src/draw/lv_img_buf.c ****     else if(dsc->header.cf == LV_IMG_CF_TRUE_COLOR_ALPHA) {
 974              		.loc 1 249 10 is_stmt 1 view .LVU349
 975              		.loc 1 249 12 is_stmt 0 view .LVU350
 976 001e 0529     		cmp	r1, #5
 977 0020 2FD0     		beq	.L57
 250:Middlewares/lvgl/src/draw/lv_img_buf.c ****         uint8_t px_size = lv_img_cf_get_px_size(dsc->header.cf) >> 3;
 251:Middlewares/lvgl/src/draw/lv_img_buf.c ****         uint32_t px     = dsc->header.w * y * px_size + x * px_size;
 252:Middlewares/lvgl/src/draw/lv_img_buf.c ****         lv_memcpy_small(&buf_u8[px], &c, px_size - 1); /*-1 to not overwrite the alpha value*/
 253:Middlewares/lvgl/src/draw/lv_img_buf.c ****     }
 254:Middlewares/lvgl/src/draw/lv_img_buf.c ****     else if(dsc->header.cf == LV_IMG_CF_INDEXED_1BIT) {
 978              		.loc 1 254 10 is_stmt 1 view .LVU351
 979              		.loc 1 254 12 is_stmt 0 view .LVU352
 980 0022 0729     		cmp	r1, #7
 981 0024 49D0     		beq	.L58
 255:Middlewares/lvgl/src/draw/lv_img_buf.c ****         buf_u8 += sizeof(lv_color32_t) * 2; /*Skip the palette*/
 256:Middlewares/lvgl/src/draw/lv_img_buf.c **** 
 257:Middlewares/lvgl/src/draw/lv_img_buf.c ****         uint8_t bit = x & 0x7;
 258:Middlewares/lvgl/src/draw/lv_img_buf.c ****         x           = x >> 3;
 259:Middlewares/lvgl/src/draw/lv_img_buf.c **** 
 260:Middlewares/lvgl/src/draw/lv_img_buf.c ****         /*Get the current pixel.
 261:Middlewares/lvgl/src/draw/lv_img_buf.c ****          *dsc->header.w + 7 means rounding up to 8 because the lines are byte aligned
 262:Middlewares/lvgl/src/draw/lv_img_buf.c ****          *so the possible real width are 8 ,16, 24 ...*/
 263:Middlewares/lvgl/src/draw/lv_img_buf.c ****         uint32_t px = ((dsc->header.w + 7) >> 3) * y + x;
 264:Middlewares/lvgl/src/draw/lv_img_buf.c ****         buf_u8[px]  = buf_u8[px] & ~(1 << (7 - bit));
 265:Middlewares/lvgl/src/draw/lv_img_buf.c ****         buf_u8[px]  = buf_u8[px] | ((c.full & 0x1) << (7 - bit));
 266:Middlewares/lvgl/src/draw/lv_img_buf.c ****     }
 267:Middlewares/lvgl/src/draw/lv_img_buf.c ****     else if(dsc->header.cf == LV_IMG_CF_INDEXED_2BIT) {
 982              		.loc 1 267 10 is_stmt 1 view .LVU353
 983              		.loc 1 267 12 is_stmt 0 view .LVU354
 984 0026 0829     		cmp	r1, #8
 985 0028 65D0     		beq	.L59
 268:Middlewares/lvgl/src/draw/lv_img_buf.c ****         buf_u8 += sizeof(lv_color32_t) * 4; /*Skip the palette*/
 269:Middlewares/lvgl/src/draw/lv_img_buf.c ****         uint8_t bit = (x & 0x3) * 2;
 270:Middlewares/lvgl/src/draw/lv_img_buf.c ****         x           = x >> 2;
 271:Middlewares/lvgl/src/draw/lv_img_buf.c **** 
 272:Middlewares/lvgl/src/draw/lv_img_buf.c ****         /*Get the current pixel.
 273:Middlewares/lvgl/src/draw/lv_img_buf.c ****          *dsc->header.w + 3 means rounding up to 4 because the lines are byte aligned
ARM GAS  /tmp/ccTdGo64.s 			page 43


 274:Middlewares/lvgl/src/draw/lv_img_buf.c ****          *so the possible real width are 4, 8 ,12 ...*/
 275:Middlewares/lvgl/src/draw/lv_img_buf.c ****         uint32_t px = ((dsc->header.w + 3) >> 2) * y + x;
 276:Middlewares/lvgl/src/draw/lv_img_buf.c **** 
 277:Middlewares/lvgl/src/draw/lv_img_buf.c ****         buf_u8[px] = buf_u8[px] & ~(3 << (6 - bit));
 278:Middlewares/lvgl/src/draw/lv_img_buf.c ****         buf_u8[px] = buf_u8[px] | ((c.full & 0x3) << (6 - bit));
 279:Middlewares/lvgl/src/draw/lv_img_buf.c ****     }
 280:Middlewares/lvgl/src/draw/lv_img_buf.c ****     else if(dsc->header.cf == LV_IMG_CF_INDEXED_4BIT) {
 986              		.loc 1 280 10 is_stmt 1 view .LVU355
 987              		.loc 1 280 12 is_stmt 0 view .LVU356
 988 002a 0929     		cmp	r1, #9
 989 002c 00F08380 		beq	.L60
 281:Middlewares/lvgl/src/draw/lv_img_buf.c ****         buf_u8 += sizeof(lv_color32_t) * 16; /*Skip the palette*/
 282:Middlewares/lvgl/src/draw/lv_img_buf.c ****         uint8_t bit = (x & 0x1) * 4;
 283:Middlewares/lvgl/src/draw/lv_img_buf.c ****         x           = x >> 1;
 284:Middlewares/lvgl/src/draw/lv_img_buf.c **** 
 285:Middlewares/lvgl/src/draw/lv_img_buf.c ****         /*Get the current pixel.
 286:Middlewares/lvgl/src/draw/lv_img_buf.c ****          *dsc->header.w + 1 means rounding up to 2 because the lines are byte aligned
 287:Middlewares/lvgl/src/draw/lv_img_buf.c ****          *so the possible real width are 2 ,4, 6 ...*/
 288:Middlewares/lvgl/src/draw/lv_img_buf.c ****         uint32_t px = ((dsc->header.w + 1) >> 1) * y + x;
 289:Middlewares/lvgl/src/draw/lv_img_buf.c ****         buf_u8[px]  = buf_u8[px] & ~(0xF << (4 - bit));
 290:Middlewares/lvgl/src/draw/lv_img_buf.c ****         buf_u8[px]  = buf_u8[px] | ((c.full & 0xF) << (4 - bit));
 291:Middlewares/lvgl/src/draw/lv_img_buf.c ****     }
 292:Middlewares/lvgl/src/draw/lv_img_buf.c ****     else if(dsc->header.cf == LV_IMG_CF_INDEXED_8BIT) {
 990              		.loc 1 292 10 is_stmt 1 view .LVU357
 991              		.loc 1 292 12 is_stmt 0 view .LVU358
 992 0030 0A29     		cmp	r1, #10
 993 0032 24D1     		bne	.L44
 994              	.LBB66:
 293:Middlewares/lvgl/src/draw/lv_img_buf.c ****         buf_u8 += sizeof(lv_color32_t) * 256; /*Skip the palette*/
 995              		.loc 1 293 9 is_stmt 1 view .LVU359
 996              	.LVL119:
 294:Middlewares/lvgl/src/draw/lv_img_buf.c ****         uint32_t px = dsc->header.w * y + x;
 997              		.loc 1 294 9 view .LVU360
 998              		.loc 1 294 34 is_stmt 0 view .LVU361
 999 0034 0368     		ldr	r3, [r0]
 1000 0036 C3F38A23 		ubfx	r3, r3, #10, #11
 1001              		.loc 1 294 41 view .LVU362
 1002 003a 03FB0243 		mla	r3, r3, r2, r4
 1003              	.LVL120:
 295:Middlewares/lvgl/src/draw/lv_img_buf.c ****         buf_u8[px]  = c.full;
 1004              		.loc 1 295 9 is_stmt 1 view .LVU363
 1005              		.loc 1 295 24 is_stmt 0 view .LVU364
 1006 003e BDF80420 		ldrh	r2, [sp, #4]
 1007              	.LVL121:
 1008              		.loc 1 295 15 view .LVU365
 1009 0042 03F58063 		add	r3, r3, #1024
 1010              	.LVL122:
 1011              		.loc 1 295 21 view .LVU366
 1012 0046 F254     		strb	r2, [r6, r3]
 1013              	.LBE66:
 296:Middlewares/lvgl/src/draw/lv_img_buf.c ****     }
 297:Middlewares/lvgl/src/draw/lv_img_buf.c **** }
 1014              		.loc 1 297 1 view .LVU367
 1015 0048 19E0     		b	.L44
 1016              	.LVL123:
 1017              	.L45:
 1018              	.LBB67:
ARM GAS  /tmp/ccTdGo64.s 			page 44


 245:Middlewares/lvgl/src/draw/lv_img_buf.c ****         uint32_t px     = dsc->header.w * y * px_size + x * px_size;
 1019              		.loc 1 245 9 is_stmt 1 view .LVU368
 245:Middlewares/lvgl/src/draw/lv_img_buf.c ****         uint32_t px     = dsc->header.w * y * px_size + x * px_size;
 1020              		.loc 1 245 60 is_stmt 0 view .LVU369
 1021 004a 2878     		ldrb	r0, [r5]	@ zero_extendqisi2
 1022              	.LVL124:
 245:Middlewares/lvgl/src/draw/lv_img_buf.c ****         uint32_t px     = dsc->header.w * y * px_size + x * px_size;
 1023              		.loc 1 245 27 view .LVU370
 1024 004c 00F01F00 		and	r0, r0, #31
 1025 0050 FFF7FEFF 		bl	lv_img_cf_get_px_size
 1026              	.LVL125:
 245:Middlewares/lvgl/src/draw/lv_img_buf.c ****         uint32_t px     = dsc->header.w * y * px_size + x * px_size;
 1027              		.loc 1 245 17 view .LVU371
 1028 0054 C0F3C700 		ubfx	r0, r0, #3, #8
 1029              	.LVL126:
 246:Middlewares/lvgl/src/draw/lv_img_buf.c ****         lv_memcpy_small(&buf_u8[px], &c, px_size);
 1030              		.loc 1 246 9 is_stmt 1 view .LVU372
 246:Middlewares/lvgl/src/draw/lv_img_buf.c ****         lv_memcpy_small(&buf_u8[px], &c, px_size);
 1031              		.loc 1 246 38 is_stmt 0 view .LVU373
 1032 0058 2B68     		ldr	r3, [r5]
 1033 005a C3F38A23 		ubfx	r3, r3, #10, #11
 246:Middlewares/lvgl/src/draw/lv_img_buf.c ****         lv_memcpy_small(&buf_u8[px], &c, px_size);
 1034              		.loc 1 246 41 view .LVU374
 1035 005e 03FB07F7 		mul	r7, r3, r7
 246:Middlewares/lvgl/src/draw/lv_img_buf.c ****         lv_memcpy_small(&buf_u8[px], &c, px_size);
 1036              		.loc 1 246 59 view .LVU375
 1037 0062 00FB04F3 		mul	r3, r0, r4
 246:Middlewares/lvgl/src/draw/lv_img_buf.c ****         lv_memcpy_small(&buf_u8[px], &c, px_size);
 1038              		.loc 1 246 55 view .LVU376
 1039 0066 00FB0733 		mla	r3, r0, r7, r3
 1040              	.LVL127:
 247:Middlewares/lvgl/src/draw/lv_img_buf.c ****     }
 1041              		.loc 1 247 9 is_stmt 1 view .LVU377
 247:Middlewares/lvgl/src/draw/lv_img_buf.c ****     }
 1042              		.loc 1 247 25 is_stmt 0 view .LVU378
 1043 006a 3344     		add	r3, r3, r6
 1044              	.LVL128:
 1045              	.LBB68:
 1046              	.LBI68:
 201:Middlewares/lvgl/src/draw/../misc/lv_mem.h **** {
 1047              		.loc 3 201 44 is_stmt 1 view .LVU379
 1048              	.LBB69:
 203:Middlewares/lvgl/src/draw/../misc/lv_mem.h ****     const uint8_t * s8 = (const uint8_t *)src;
 1049              		.loc 3 203 5 view .LVU380
 204:Middlewares/lvgl/src/draw/../misc/lv_mem.h **** 
 1050              		.loc 3 204 5 view .LVU381
 206:Middlewares/lvgl/src/draw/../misc/lv_mem.h ****         *d8 = *s8;
 1051              		.loc 3 206 5 view .LVU382
 204:Middlewares/lvgl/src/draw/../misc/lv_mem.h **** 
 1052              		.loc 3 204 21 is_stmt 0 view .LVU383
 1053 006c 01AA     		add	r2, sp, #4
 1054              	.LVL129:
 206:Middlewares/lvgl/src/draw/../misc/lv_mem.h ****         *d8 = *s8;
 1055              		.loc 3 206 10 view .LVU384
 1056 006e 04E0     		b	.L47
 1057              	.LVL130:
 1058              	.L48:
ARM GAS  /tmp/ccTdGo64.s 			page 45


 207:Middlewares/lvgl/src/draw/../misc/lv_mem.h ****         d8++;
 1059              		.loc 3 207 9 is_stmt 1 view .LVU385
 207:Middlewares/lvgl/src/draw/../misc/lv_mem.h ****         d8++;
 1060              		.loc 3 207 15 is_stmt 0 view .LVU386
 1061 0070 12F8011B 		ldrb	r1, [r2], #1	@ zero_extendqisi2
 1062              	.LVL131:
 207:Middlewares/lvgl/src/draw/../misc/lv_mem.h ****         d8++;
 1063              		.loc 3 207 13 view .LVU387
 1064 0074 03F8011B 		strb	r1, [r3], #1
 1065              	.LVL132:
 208:Middlewares/lvgl/src/draw/../misc/lv_mem.h ****         s8++;
 1066              		.loc 3 208 9 is_stmt 1 view .LVU388
 209:Middlewares/lvgl/src/draw/../misc/lv_mem.h ****         len--;
 1067              		.loc 3 209 9 view .LVU389
 1068              		.loc 3 210 9 view .LVU390
 1069              		.loc 3 210 12 is_stmt 0 view .LVU391
 1070 0078 0138     		subs	r0, r0, #1
 1071              	.LVL133:
 1072              	.L47:
 206:Middlewares/lvgl/src/draw/../misc/lv_mem.h ****         *d8 = *s8;
 1073              		.loc 3 206 10 is_stmt 1 view .LVU392
 1074 007a 0028     		cmp	r0, #0
 1075 007c F8D1     		bne	.L48
 1076              	.LVL134:
 1077              	.L44:
 206:Middlewares/lvgl/src/draw/../misc/lv_mem.h ****         *d8 = *s8;
 1078              		.loc 3 206 10 is_stmt 0 view .LVU393
 1079              	.LBE69:
 1080              	.LBE68:
 1081              	.LBE67:
 1082              		.loc 1 297 1 view .LVU394
 1083 007e 03B0     		add	sp, sp, #12
 1084              	.LCFI11:
 1085              		.cfi_remember_state
 1086              		.cfi_def_cfa_offset 20
 1087              		@ sp needed
 1088 0080 F0BD     		pop	{r4, r5, r6, r7, pc}
 1089              	.LVL135:
 1090              	.L57:
 1091              	.LCFI12:
 1092              		.cfi_restore_state
 1093              	.LBB70:
 250:Middlewares/lvgl/src/draw/lv_img_buf.c ****         uint32_t px     = dsc->header.w * y * px_size + x * px_size;
 1094              		.loc 1 250 9 is_stmt 1 view .LVU395
 250:Middlewares/lvgl/src/draw/lv_img_buf.c ****         uint32_t px     = dsc->header.w * y * px_size + x * px_size;
 1095              		.loc 1 250 60 is_stmt 0 view .LVU396
 1096 0082 0078     		ldrb	r0, [r0]	@ zero_extendqisi2
 1097              	.LVL136:
 250:Middlewares/lvgl/src/draw/lv_img_buf.c ****         uint32_t px     = dsc->header.w * y * px_size + x * px_size;
 1098              		.loc 1 250 27 view .LVU397
 1099 0084 00F01F00 		and	r0, r0, #31
 1100 0088 FFF7FEFF 		bl	lv_img_cf_get_px_size
 1101              	.LVL137:
 250:Middlewares/lvgl/src/draw/lv_img_buf.c ****         uint32_t px     = dsc->header.w * y * px_size + x * px_size;
 1102              		.loc 1 250 17 view .LVU398
 1103 008c C0F3C702 		ubfx	r2, r0, #3, #8
 1104              	.LVL138:
ARM GAS  /tmp/ccTdGo64.s 			page 46


 251:Middlewares/lvgl/src/draw/lv_img_buf.c ****         lv_memcpy_small(&buf_u8[px], &c, px_size - 1); /*-1 to not overwrite the alpha value*/
 1105              		.loc 1 251 9 is_stmt 1 view .LVU399
 251:Middlewares/lvgl/src/draw/lv_img_buf.c ****         lv_memcpy_small(&buf_u8[px], &c, px_size - 1); /*-1 to not overwrite the alpha value*/
 1106              		.loc 1 251 38 is_stmt 0 view .LVU400
 1107 0090 2B68     		ldr	r3, [r5]
 1108 0092 C3F38A23 		ubfx	r3, r3, #10, #11
 251:Middlewares/lvgl/src/draw/lv_img_buf.c ****         lv_memcpy_small(&buf_u8[px], &c, px_size - 1); /*-1 to not overwrite the alpha value*/
 1109              		.loc 1 251 41 view .LVU401
 1110 0096 03FB07F7 		mul	r7, r3, r7
 251:Middlewares/lvgl/src/draw/lv_img_buf.c ****         lv_memcpy_small(&buf_u8[px], &c, px_size - 1); /*-1 to not overwrite the alpha value*/
 1111              		.loc 1 251 59 view .LVU402
 1112 009a 02FB04F3 		mul	r3, r2, r4
 251:Middlewares/lvgl/src/draw/lv_img_buf.c ****         lv_memcpy_small(&buf_u8[px], &c, px_size - 1); /*-1 to not overwrite the alpha value*/
 1113              		.loc 1 251 55 view .LVU403
 1114 009e 02FB0733 		mla	r3, r2, r7, r3
 1115              	.LVL139:
 252:Middlewares/lvgl/src/draw/lv_img_buf.c ****     }
 1116              		.loc 1 252 9 is_stmt 1 view .LVU404
 252:Middlewares/lvgl/src/draw/lv_img_buf.c ****     }
 1117              		.loc 1 252 25 is_stmt 0 view .LVU405
 1118 00a2 3344     		add	r3, r3, r6
 1119              	.LVL140:
 252:Middlewares/lvgl/src/draw/lv_img_buf.c ****     }
 1120              		.loc 1 252 50 view .LVU406
 1121 00a4 013A     		subs	r2, r2, #1
 1122              	.LVL141:
 1123              	.LBB71:
 1124              	.LBI71:
 201:Middlewares/lvgl/src/draw/../misc/lv_mem.h **** {
 1125              		.loc 3 201 44 is_stmt 1 view .LVU407
 1126              	.LBB72:
 203:Middlewares/lvgl/src/draw/../misc/lv_mem.h ****     const uint8_t * s8 = (const uint8_t *)src;
 1127              		.loc 3 203 5 view .LVU408
 204:Middlewares/lvgl/src/draw/../misc/lv_mem.h **** 
 1128              		.loc 3 204 5 view .LVU409
 206:Middlewares/lvgl/src/draw/../misc/lv_mem.h ****         *d8 = *s8;
 1129              		.loc 3 206 5 view .LVU410
 204:Middlewares/lvgl/src/draw/../misc/lv_mem.h **** 
 1130              		.loc 3 204 21 is_stmt 0 view .LVU411
 1131 00a6 01A9     		add	r1, sp, #4
 1132              	.LVL142:
 206:Middlewares/lvgl/src/draw/../misc/lv_mem.h ****         *d8 = *s8;
 1133              		.loc 3 206 10 view .LVU412
 1134 00a8 04E0     		b	.L51
 1135              	.LVL143:
 1136              	.L52:
 207:Middlewares/lvgl/src/draw/../misc/lv_mem.h ****         d8++;
 1137              		.loc 3 207 9 is_stmt 1 view .LVU413
 207:Middlewares/lvgl/src/draw/../misc/lv_mem.h ****         d8++;
 1138              		.loc 3 207 15 is_stmt 0 view .LVU414
 1139 00aa 11F8010B 		ldrb	r0, [r1], #1	@ zero_extendqisi2
 1140              	.LVL144:
 207:Middlewares/lvgl/src/draw/../misc/lv_mem.h ****         d8++;
 1141              		.loc 3 207 13 view .LVU415
 1142 00ae 03F8010B 		strb	r0, [r3], #1
 1143              	.LVL145:
 208:Middlewares/lvgl/src/draw/../misc/lv_mem.h ****         s8++;
ARM GAS  /tmp/ccTdGo64.s 			page 47


 1144              		.loc 3 208 9 is_stmt 1 view .LVU416
 209:Middlewares/lvgl/src/draw/../misc/lv_mem.h ****         len--;
 1145              		.loc 3 209 9 view .LVU417
 1146              		.loc 3 210 9 view .LVU418
 1147              		.loc 3 210 12 is_stmt 0 view .LVU419
 1148 00b2 013A     		subs	r2, r2, #1
 1149              	.LVL146:
 1150              	.L51:
 206:Middlewares/lvgl/src/draw/../misc/lv_mem.h ****         *d8 = *s8;
 1151              		.loc 3 206 10 is_stmt 1 view .LVU420
 1152 00b4 002A     		cmp	r2, #0
 1153 00b6 F8D1     		bne	.L52
 206:Middlewares/lvgl/src/draw/../misc/lv_mem.h ****         *d8 = *s8;
 1154              		.loc 3 206 10 is_stmt 0 view .LVU421
 1155 00b8 E1E7     		b	.L44
 1156              	.LVL147:
 1157              	.L58:
 206:Middlewares/lvgl/src/draw/../misc/lv_mem.h ****         *d8 = *s8;
 1158              		.loc 3 206 10 view .LVU422
 1159              	.LBE72:
 1160              	.LBE71:
 1161              	.LBE70:
 1162              	.LBB73:
 255:Middlewares/lvgl/src/draw/lv_img_buf.c **** 
 1163              		.loc 1 255 9 is_stmt 1 view .LVU423
 255:Middlewares/lvgl/src/draw/lv_img_buf.c **** 
 1164              		.loc 1 255 16 is_stmt 0 view .LVU424
 1165 00ba 06F10803 		add	r3, r6, #8
 1166              	.LVL148:
 257:Middlewares/lvgl/src/draw/lv_img_buf.c ****         x           = x >> 3;
 1167              		.loc 1 257 9 is_stmt 1 view .LVU425
 257:Middlewares/lvgl/src/draw/lv_img_buf.c ****         x           = x >> 3;
 1168              		.loc 1 257 17 is_stmt 0 view .LVU426
 1169 00be 04F00701 		and	r1, r4, #7
 1170              	.LVL149:
 258:Middlewares/lvgl/src/draw/lv_img_buf.c **** 
 1171              		.loc 1 258 9 is_stmt 1 view .LVU427
 263:Middlewares/lvgl/src/draw/lv_img_buf.c ****         buf_u8[px]  = buf_u8[px] & ~(1 << (7 - bit));
 1172              		.loc 1 263 9 view .LVU428
 263:Middlewares/lvgl/src/draw/lv_img_buf.c ****         buf_u8[px]  = buf_u8[px] & ~(1 << (7 - bit));
 1173              		.loc 1 263 36 is_stmt 0 view .LVU429
 1174 00c2 0268     		ldr	r2, [r0]
 1175              	.LVL150:
 263:Middlewares/lvgl/src/draw/lv_img_buf.c ****         buf_u8[px]  = buf_u8[px] & ~(1 << (7 - bit));
 1176              		.loc 1 263 36 view .LVU430
 1177 00c4 C2F38A22 		ubfx	r2, r2, #10, #11
 263:Middlewares/lvgl/src/draw/lv_img_buf.c ****         buf_u8[px]  = buf_u8[px] & ~(1 << (7 - bit));
 1178              		.loc 1 263 39 view .LVU431
 1179 00c8 0732     		adds	r2, r2, #7
 263:Middlewares/lvgl/src/draw/lv_img_buf.c ****         buf_u8[px]  = buf_u8[px] & ~(1 << (7 - bit));
 1180              		.loc 1 263 44 view .LVU432
 1181 00ca D210     		asrs	r2, r2, #3
 263:Middlewares/lvgl/src/draw/lv_img_buf.c ****         buf_u8[px]  = buf_u8[px] & ~(1 << (7 - bit));
 1182              		.loc 1 263 50 view .LVU433
 1183 00cc 02FB07F7 		mul	r7, r2, r7
 263:Middlewares/lvgl/src/draw/lv_img_buf.c ****         buf_u8[px]  = buf_u8[px] & ~(1 << (7 - bit));
 1184              		.loc 1 263 54 view .LVU434
ARM GAS  /tmp/ccTdGo64.s 			page 48


 1185 00d0 07EBE404 		add	r4, r7, r4, asr #3
 1186              	.LVL151:
 264:Middlewares/lvgl/src/draw/lv_img_buf.c ****         buf_u8[px]  = buf_u8[px] | ((c.full & 0x1) << (7 - bit));
 1187              		.loc 1 264 9 is_stmt 1 view .LVU435
 264:Middlewares/lvgl/src/draw/lv_img_buf.c ****         buf_u8[px]  = buf_u8[px] | ((c.full & 0x1) << (7 - bit));
 1188              		.loc 1 264 29 is_stmt 0 view .LVU436
 1189 00d4 1A57     		ldrsb	r2, [r3, r4]
 264:Middlewares/lvgl/src/draw/lv_img_buf.c ****         buf_u8[px]  = buf_u8[px] | ((c.full & 0x1) << (7 - bit));
 1190              		.loc 1 264 46 view .LVU437
 1191 00d6 C1F10701 		rsb	r1, r1, #7
 1192              	.LVL152:
 264:Middlewares/lvgl/src/draw/lv_img_buf.c ****         buf_u8[px]  = buf_u8[px] | ((c.full & 0x1) << (7 - bit));
 1193              		.loc 1 264 40 view .LVU438
 1194 00da 0120     		movs	r0, #1
 1195              	.LVL153:
 264:Middlewares/lvgl/src/draw/lv_img_buf.c ****         buf_u8[px]  = buf_u8[px] | ((c.full & 0x1) << (7 - bit));
 1196              		.loc 1 264 40 view .LVU439
 1197 00dc 8840     		lsls	r0, r0, r1
 264:Middlewares/lvgl/src/draw/lv_img_buf.c ****         buf_u8[px]  = buf_u8[px] | ((c.full & 0x1) << (7 - bit));
 1198              		.loc 1 264 34 view .LVU440
 1199 00de 22EA0002 		bic	r2, r2, r0
 1200 00e2 50B2     		sxtb	r0, r2
 264:Middlewares/lvgl/src/draw/lv_img_buf.c ****         buf_u8[px]  = buf_u8[px] | ((c.full & 0x1) << (7 - bit));
 1201              		.loc 1 264 21 view .LVU441
 1202 00e4 1A55     		strb	r2, [r3, r4]
 265:Middlewares/lvgl/src/draw/lv_img_buf.c ****     }
 1203              		.loc 1 265 9 is_stmt 1 view .LVU442
 265:Middlewares/lvgl/src/draw/lv_img_buf.c ****     }
 1204              		.loc 1 265 39 is_stmt 0 view .LVU443
 1205 00e6 BDF80420 		ldrh	r2, [sp, #4]
 265:Middlewares/lvgl/src/draw/lv_img_buf.c ****     }
 1206              		.loc 1 265 45 view .LVU444
 1207 00ea 02F00102 		and	r2, r2, #1
 265:Middlewares/lvgl/src/draw/lv_img_buf.c ****     }
 1208              		.loc 1 265 52 view .LVU445
 1209 00ee 8A40     		lsls	r2, r2, r1
 265:Middlewares/lvgl/src/draw/lv_img_buf.c ****     }
 1210              		.loc 1 265 34 view .LVU446
 1211 00f0 0243     		orrs	r2, r2, r0
 265:Middlewares/lvgl/src/draw/lv_img_buf.c ****     }
 1212              		.loc 1 265 21 view .LVU447
 1213 00f2 1A55     		strb	r2, [r3, r4]
 1214              	.LBE73:
 1215 00f4 C3E7     		b	.L44
 1216              	.LVL154:
 1217              	.L59:
 1218              	.LBB74:
 268:Middlewares/lvgl/src/draw/lv_img_buf.c ****         uint8_t bit = (x & 0x3) * 2;
 1219              		.loc 1 268 9 is_stmt 1 view .LVU448
 268:Middlewares/lvgl/src/draw/lv_img_buf.c ****         uint8_t bit = (x & 0x3) * 2;
 1220              		.loc 1 268 16 is_stmt 0 view .LVU449
 1221 00f6 06F11003 		add	r3, r6, #16
 1222              	.LVL155:
 269:Middlewares/lvgl/src/draw/lv_img_buf.c ****         x           = x >> 2;
 1223              		.loc 1 269 9 is_stmt 1 view .LVU450
 269:Middlewares/lvgl/src/draw/lv_img_buf.c ****         x           = x >> 2;
 1224              		.loc 1 269 17 is_stmt 0 view .LVU451
ARM GAS  /tmp/ccTdGo64.s 			page 49


 1225 00fa 04F00302 		and	r2, r4, #3
 1226              	.LVL156:
 269:Middlewares/lvgl/src/draw/lv_img_buf.c ****         x           = x >> 2;
 1227              		.loc 1 269 17 view .LVU452
 1228 00fe 5100     		lsls	r1, r2, #1
 1229              	.LVL157:
 270:Middlewares/lvgl/src/draw/lv_img_buf.c **** 
 1230              		.loc 1 270 9 is_stmt 1 view .LVU453
 275:Middlewares/lvgl/src/draw/lv_img_buf.c **** 
 1231              		.loc 1 275 9 view .LVU454
 275:Middlewares/lvgl/src/draw/lv_img_buf.c **** 
 1232              		.loc 1 275 36 is_stmt 0 view .LVU455
 1233 0100 0268     		ldr	r2, [r0]
 1234 0102 C2F38A22 		ubfx	r2, r2, #10, #11
 275:Middlewares/lvgl/src/draw/lv_img_buf.c **** 
 1235              		.loc 1 275 39 view .LVU456
 1236 0106 0332     		adds	r2, r2, #3
 275:Middlewares/lvgl/src/draw/lv_img_buf.c **** 
 1237              		.loc 1 275 44 view .LVU457
 1238 0108 9210     		asrs	r2, r2, #2
 275:Middlewares/lvgl/src/draw/lv_img_buf.c **** 
 1239              		.loc 1 275 50 view .LVU458
 1240 010a 02FB07F7 		mul	r7, r2, r7
 275:Middlewares/lvgl/src/draw/lv_img_buf.c **** 
 1241              		.loc 1 275 54 view .LVU459
 1242 010e 07EBA404 		add	r4, r7, r4, asr #2
 1243              	.LVL158:
 277:Middlewares/lvgl/src/draw/lv_img_buf.c ****         buf_u8[px] = buf_u8[px] | ((c.full & 0x3) << (6 - bit));
 1244              		.loc 1 277 9 is_stmt 1 view .LVU460
 277:Middlewares/lvgl/src/draw/lv_img_buf.c ****         buf_u8[px] = buf_u8[px] | ((c.full & 0x3) << (6 - bit));
 1245              		.loc 1 277 28 is_stmt 0 view .LVU461
 1246 0112 1857     		ldrsb	r0, [r3, r4]
 1247              	.LVL159:
 277:Middlewares/lvgl/src/draw/lv_img_buf.c ****         buf_u8[px] = buf_u8[px] | ((c.full & 0x3) << (6 - bit));
 1248              		.loc 1 277 45 view .LVU462
 1249 0114 C1F10602 		rsb	r2, r1, #6
 277:Middlewares/lvgl/src/draw/lv_img_buf.c ****         buf_u8[px] = buf_u8[px] | ((c.full & 0x3) << (6 - bit));
 1250              		.loc 1 277 39 view .LVU463
 1251 0118 0321     		movs	r1, #3
 1252              	.LVL160:
 277:Middlewares/lvgl/src/draw/lv_img_buf.c ****         buf_u8[px] = buf_u8[px] | ((c.full & 0x3) << (6 - bit));
 1253              		.loc 1 277 39 view .LVU464
 1254 011a 9140     		lsls	r1, r1, r2
 277:Middlewares/lvgl/src/draw/lv_img_buf.c ****         buf_u8[px] = buf_u8[px] | ((c.full & 0x3) << (6 - bit));
 1255              		.loc 1 277 33 view .LVU465
 1256 011c 20EA0101 		bic	r1, r0, r1
 1257 0120 48B2     		sxtb	r0, r1
 277:Middlewares/lvgl/src/draw/lv_img_buf.c ****         buf_u8[px] = buf_u8[px] | ((c.full & 0x3) << (6 - bit));
 1258              		.loc 1 277 20 view .LVU466
 1259 0122 1955     		strb	r1, [r3, r4]
 278:Middlewares/lvgl/src/draw/lv_img_buf.c ****     }
 1260              		.loc 1 278 9 is_stmt 1 view .LVU467
 278:Middlewares/lvgl/src/draw/lv_img_buf.c ****     }
 1261              		.loc 1 278 38 is_stmt 0 view .LVU468
 1262 0124 BDF80410 		ldrh	r1, [sp, #4]
 278:Middlewares/lvgl/src/draw/lv_img_buf.c ****     }
 1263              		.loc 1 278 44 view .LVU469
ARM GAS  /tmp/ccTdGo64.s 			page 50


 1264 0128 01F00301 		and	r1, r1, #3
 278:Middlewares/lvgl/src/draw/lv_img_buf.c ****     }
 1265              		.loc 1 278 51 view .LVU470
 1266 012c 01FA02F2 		lsl	r2, r1, r2
 278:Middlewares/lvgl/src/draw/lv_img_buf.c ****     }
 1267              		.loc 1 278 33 view .LVU471
 1268 0130 0243     		orrs	r2, r2, r0
 278:Middlewares/lvgl/src/draw/lv_img_buf.c ****     }
 1269              		.loc 1 278 20 view .LVU472
 1270 0132 1A55     		strb	r2, [r3, r4]
 1271              	.LBE74:
 1272 0134 A3E7     		b	.L44
 1273              	.LVL161:
 1274              	.L60:
 1275              	.LBB75:
 281:Middlewares/lvgl/src/draw/lv_img_buf.c ****         uint8_t bit = (x & 0x1) * 4;
 1276              		.loc 1 281 9 is_stmt 1 view .LVU473
 281:Middlewares/lvgl/src/draw/lv_img_buf.c ****         uint8_t bit = (x & 0x1) * 4;
 1277              		.loc 1 281 16 is_stmt 0 view .LVU474
 1278 0136 06F14003 		add	r3, r6, #64
 1279              	.LVL162:
 282:Middlewares/lvgl/src/draw/lv_img_buf.c ****         x           = x >> 1;
 1280              		.loc 1 282 9 is_stmt 1 view .LVU475
 282:Middlewares/lvgl/src/draw/lv_img_buf.c ****         x           = x >> 1;
 1281              		.loc 1 282 17 is_stmt 0 view .LVU476
 1282 013a 04F00102 		and	r2, r4, #1
 1283              	.LVL163:
 282:Middlewares/lvgl/src/draw/lv_img_buf.c ****         x           = x >> 1;
 1284              		.loc 1 282 17 view .LVU477
 1285 013e 9100     		lsls	r1, r2, #2
 1286              	.LVL164:
 283:Middlewares/lvgl/src/draw/lv_img_buf.c **** 
 1287              		.loc 1 283 9 is_stmt 1 view .LVU478
 288:Middlewares/lvgl/src/draw/lv_img_buf.c ****         buf_u8[px]  = buf_u8[px] & ~(0xF << (4 - bit));
 1288              		.loc 1 288 9 view .LVU479
 288:Middlewares/lvgl/src/draw/lv_img_buf.c ****         buf_u8[px]  = buf_u8[px] & ~(0xF << (4 - bit));
 1289              		.loc 1 288 36 is_stmt 0 view .LVU480
 1290 0140 0268     		ldr	r2, [r0]
 1291 0142 C2F38A22 		ubfx	r2, r2, #10, #11
 288:Middlewares/lvgl/src/draw/lv_img_buf.c ****         buf_u8[px]  = buf_u8[px] & ~(0xF << (4 - bit));
 1292              		.loc 1 288 39 view .LVU481
 1293 0146 0132     		adds	r2, r2, #1
 288:Middlewares/lvgl/src/draw/lv_img_buf.c ****         buf_u8[px]  = buf_u8[px] & ~(0xF << (4 - bit));
 1294              		.loc 1 288 44 view .LVU482
 1295 0148 5210     		asrs	r2, r2, #1
 288:Middlewares/lvgl/src/draw/lv_img_buf.c ****         buf_u8[px]  = buf_u8[px] & ~(0xF << (4 - bit));
 1296              		.loc 1 288 50 view .LVU483
 1297 014a 02FB07F7 		mul	r7, r2, r7
 288:Middlewares/lvgl/src/draw/lv_img_buf.c ****         buf_u8[px]  = buf_u8[px] & ~(0xF << (4 - bit));
 1298              		.loc 1 288 54 view .LVU484
 1299 014e 07EB6404 		add	r4, r7, r4, asr #1
 1300              	.LVL165:
 289:Middlewares/lvgl/src/draw/lv_img_buf.c ****         buf_u8[px]  = buf_u8[px] | ((c.full & 0xF) << (4 - bit));
 1301              		.loc 1 289 9 is_stmt 1 view .LVU485
 289:Middlewares/lvgl/src/draw/lv_img_buf.c ****         buf_u8[px]  = buf_u8[px] | ((c.full & 0xF) << (4 - bit));
 1302              		.loc 1 289 29 is_stmt 0 view .LVU486
 1303 0152 1857     		ldrsb	r0, [r3, r4]
ARM GAS  /tmp/ccTdGo64.s 			page 51


 1304              	.LVL166:
 289:Middlewares/lvgl/src/draw/lv_img_buf.c ****         buf_u8[px]  = buf_u8[px] | ((c.full & 0xF) << (4 - bit));
 1305              		.loc 1 289 48 view .LVU487
 1306 0154 C1F10402 		rsb	r2, r1, #4
 289:Middlewares/lvgl/src/draw/lv_img_buf.c ****         buf_u8[px]  = buf_u8[px] | ((c.full & 0xF) << (4 - bit));
 1307              		.loc 1 289 42 view .LVU488
 1308 0158 0F21     		movs	r1, #15
 1309              	.LVL167:
 289:Middlewares/lvgl/src/draw/lv_img_buf.c ****         buf_u8[px]  = buf_u8[px] | ((c.full & 0xF) << (4 - bit));
 1310              		.loc 1 289 42 view .LVU489
 1311 015a 9140     		lsls	r1, r1, r2
 289:Middlewares/lvgl/src/draw/lv_img_buf.c ****         buf_u8[px]  = buf_u8[px] | ((c.full & 0xF) << (4 - bit));
 1312              		.loc 1 289 34 view .LVU490
 1313 015c 20EA0101 		bic	r1, r0, r1
 1314 0160 48B2     		sxtb	r0, r1
 289:Middlewares/lvgl/src/draw/lv_img_buf.c ****         buf_u8[px]  = buf_u8[px] | ((c.full & 0xF) << (4 - bit));
 1315              		.loc 1 289 21 view .LVU491
 1316 0162 1955     		strb	r1, [r3, r4]
 290:Middlewares/lvgl/src/draw/lv_img_buf.c ****     }
 1317              		.loc 1 290 9 is_stmt 1 view .LVU492
 290:Middlewares/lvgl/src/draw/lv_img_buf.c ****     }
 1318              		.loc 1 290 39 is_stmt 0 view .LVU493
 1319 0164 BDF80410 		ldrh	r1, [sp, #4]
 290:Middlewares/lvgl/src/draw/lv_img_buf.c ****     }
 1320              		.loc 1 290 45 view .LVU494
 1321 0168 01F00F01 		and	r1, r1, #15
 290:Middlewares/lvgl/src/draw/lv_img_buf.c ****     }
 1322              		.loc 1 290 52 view .LVU495
 1323 016c 01FA02F2 		lsl	r2, r1, r2
 290:Middlewares/lvgl/src/draw/lv_img_buf.c ****     }
 1324              		.loc 1 290 34 view .LVU496
 1325 0170 0243     		orrs	r2, r2, r0
 290:Middlewares/lvgl/src/draw/lv_img_buf.c ****     }
 1326              		.loc 1 290 21 view .LVU497
 1327 0172 1A55     		strb	r2, [r3, r4]
 1328              	.LBE75:
 1329 0174 83E7     		b	.L44
 1330              		.cfi_endproc
 1331              	.LFE51:
 1333              		.section	.text.lv_img_buf_set_palette,"ax",%progbits
 1334              		.align	1
 1335              		.global	lv_img_buf_set_palette
 1336              		.syntax unified
 1337              		.thumb
 1338              		.thumb_func
 1339              		.fpu fpv4-sp-d16
 1341              	lv_img_buf_set_palette:
 1342              	.LVL168:
 1343              	.LFB52:
 298:Middlewares/lvgl/src/draw/lv_img_buf.c **** 
 299:Middlewares/lvgl/src/draw/lv_img_buf.c **** /**
 300:Middlewares/lvgl/src/draw/lv_img_buf.c ****  * Set the palette color of an indexed image. Valid only for `LV_IMG_CF_INDEXED1/2/4/8`
 301:Middlewares/lvgl/src/draw/lv_img_buf.c ****  * @param dsc pointer to an image descriptor
 302:Middlewares/lvgl/src/draw/lv_img_buf.c ****  * @param id the palette color to set:
 303:Middlewares/lvgl/src/draw/lv_img_buf.c ****  *   - for `LV_IMG_CF_INDEXED1`: 0..1
 304:Middlewares/lvgl/src/draw/lv_img_buf.c ****  *   - for `LV_IMG_CF_INDEXED2`: 0..3
 305:Middlewares/lvgl/src/draw/lv_img_buf.c ****  *   - for `LV_IMG_CF_INDEXED4`: 0..15
ARM GAS  /tmp/ccTdGo64.s 			page 52


 306:Middlewares/lvgl/src/draw/lv_img_buf.c ****  *   - for `LV_IMG_CF_INDEXED8`: 0..255
 307:Middlewares/lvgl/src/draw/lv_img_buf.c ****  * @param c the color to set
 308:Middlewares/lvgl/src/draw/lv_img_buf.c ****  */
 309:Middlewares/lvgl/src/draw/lv_img_buf.c **** void lv_img_buf_set_palette(lv_img_dsc_t * dsc, uint8_t id, lv_color_t c)
 310:Middlewares/lvgl/src/draw/lv_img_buf.c **** {
 1344              		.loc 1 310 1 is_stmt 1 view -0
 1345              		.cfi_startproc
 1346              		@ args = 0, pretend = 0, frame = 8
 1347              		@ frame_needed = 0, uses_anonymous_args = 0
 1348              		@ link register save eliminated.
 311:Middlewares/lvgl/src/draw/lv_img_buf.c ****     if((dsc->header.cf == LV_IMG_CF_ALPHA_1BIT && id > 1) || (dsc->header.cf == LV_IMG_CF_ALPHA_2BI
 1349              		.loc 1 311 5 view .LVU499
 1350              		.loc 1 311 24 is_stmt 0 view .LVU500
 1351 0000 0378     		ldrb	r3, [r0]	@ zero_extendqisi2
 1352 0002 03F01F03 		and	r3, r3, #31
 1353              		.loc 1 311 7 view .LVU501
 1354 0006 0B2B     		cmp	r3, #11
 1355 0008 32D0     		beq	.L74
 1356              	.L62:
 1357              		.loc 1 311 59 discriminator 3 view .LVU502
 1358 000a 0C2B     		cmp	r3, #12
 1359 000c 33D0     		beq	.L75
 1360              	.L64:
 1361              		.loc 1 311 113 discriminator 6 view .LVU503
 1362 000e 0D2B     		cmp	r3, #13
 1363 0010 34D0     		beq	.L76
 1364              	.L65:
 312:Middlewares/lvgl/src/draw/lv_img_buf.c ****        (dsc->header.cf == LV_IMG_CF_ALPHA_4BIT && id > 15) || (dsc->header.cf == LV_IMG_CF_ALPHA_8B
 1365              		.loc 1 312 60 discriminator 1 view .LVU504
 1366 0012 0E2B     		cmp	r3, #14
 1367 0014 2ED0     		beq	.L71
 310:Middlewares/lvgl/src/draw/lv_img_buf.c ****     if((dsc->header.cf == LV_IMG_CF_ALPHA_1BIT && id > 1) || (dsc->header.cf == LV_IMG_CF_ALPHA_2BI
 1368              		.loc 1 310 1 view .LVU505
 1369 0016 10B4     		push	{r4}
 1370              	.LCFI13:
 1371              		.cfi_def_cfa_offset 4
 1372              		.cfi_offset 4, -4
 1373 0018 83B0     		sub	sp, sp, #12
 1374              	.LCFI14:
 1375              		.cfi_def_cfa_offset 16
 313:Middlewares/lvgl/src/draw/lv_img_buf.c ****         LV_LOG_WARN("lv_img_buf_set_px_alpha: invalid 'id'");
 314:Middlewares/lvgl/src/draw/lv_img_buf.c ****         return;
 315:Middlewares/lvgl/src/draw/lv_img_buf.c ****     }
 316:Middlewares/lvgl/src/draw/lv_img_buf.c **** 
 317:Middlewares/lvgl/src/draw/lv_img_buf.c ****     lv_color32_t c32;
 1376              		.loc 1 317 5 is_stmt 1 view .LVU506
 318:Middlewares/lvgl/src/draw/lv_img_buf.c ****     c32.full      = lv_color_to32(c);
 1377              		.loc 1 318 5 view .LVU507
 1378              	.LBB80:
 1379              	.LBI80:
 395:Middlewares/lvgl/src/draw/../misc/lv_color.h **** {
 1380              		.loc 2 395 24 view .LVU508
 1381              	.LBB81:
 439:Middlewares/lvgl/src/draw/../misc/lv_color.h ****     LV_COLOR_SET_R32(ret, (LV_COLOR_GET_R(color) * 263 + 7) >> 5);
 1382              		.loc 2 439 5 view .LVU509
 440:Middlewares/lvgl/src/draw/../misc/lv_color.h ****     LV_COLOR_SET_G32(ret, (LV_COLOR_GET_G(color) * 259 + 3) >> 6);
 1383              		.loc 2 440 5 view .LVU510
ARM GAS  /tmp/ccTdGo64.s 			page 53


 1384 001a C2F3C423 		ubfx	r3, r2, #11, #5
 1385 001e 03EB4314 		add	r4, r3, r3, lsl #5
 1386 0022 C3EBC403 		rsb	r3, r3, r4, lsl #3
 1387 0026 0733     		adds	r3, r3, #7
 1388 0028 C3F34713 		ubfx	r3, r3, #5, #8
 1389 002c 0024     		movs	r4, #0
 1390              	.LVL169:
 440:Middlewares/lvgl/src/draw/../misc/lv_color.h ****     LV_COLOR_SET_G32(ret, (LV_COLOR_GET_G(color) * 259 + 3) >> 6);
 1391              		.loc 2 440 5 is_stmt 0 view .LVU511
 1392 002e 63F31744 		bfi	r4, r3, #16, #8
 1393              	.LVL170:
 441:Middlewares/lvgl/src/draw/../misc/lv_color.h ****     LV_COLOR_SET_B32(ret, (LV_COLOR_GET_B(color) * 263 + 7) >> 5);
 1394              		.loc 2 441 5 is_stmt 1 view .LVU512
 1395 0032 C2F34513 		ubfx	r3, r2, #5, #6
 1396 0036 03EBC31C 		add	ip, r3, r3, lsl #7
 1397 003a 03EB4C03 		add	r3, r3, ip, lsl #1
 1398 003e 0333     		adds	r3, r3, #3
 1399 0040 C3F38713 		ubfx	r3, r3, #6, #8
 1400 0044 63F30F24 		bfi	r4, r3, #8, #8
 442:Middlewares/lvgl/src/draw/../misc/lv_color.h ****     LV_COLOR_SET_A32(ret, 0xFF);
 1401              		.loc 2 442 5 view .LVU513
 1402 0048 02F01F02 		and	r2, r2, #31
 1403              	.LVL171:
 442:Middlewares/lvgl/src/draw/../misc/lv_color.h ****     LV_COLOR_SET_A32(ret, 0xFF);
 1404              		.loc 2 442 5 is_stmt 0 view .LVU514
 1405 004c 02EB4213 		add	r3, r2, r2, lsl #5
 1406 0050 C2EBC302 		rsb	r2, r2, r3, lsl #3
 1407 0054 0732     		adds	r2, r2, #7
 1408 0056 C2F34712 		ubfx	r2, r2, #5, #8
 1409 005a 62F30704 		bfi	r4, r2, #0, #8
 443:Middlewares/lvgl/src/draw/../misc/lv_color.h ****     return ret.full;
 1410              		.loc 2 443 5 is_stmt 1 view .LVU515
 1411 005e 44F07F44 		orr	r4, r4, #-16777216
 1412              	.LVL172:
 444:Middlewares/lvgl/src/draw/../misc/lv_color.h **** #elif LV_COLOR_DEPTH == 32
 1413              		.loc 2 444 5 view .LVU516
 444:Middlewares/lvgl/src/draw/../misc/lv_color.h **** #elif LV_COLOR_DEPTH == 32
 1414              		.loc 2 444 5 is_stmt 0 view .LVU517
 1415              	.LBE81:
 1416              	.LBE80:
 1417              		.loc 1 318 19 view .LVU518
 1418 0062 0194     		str	r4, [sp, #4]
 319:Middlewares/lvgl/src/draw/lv_img_buf.c ****     uint8_t * buf = (uint8_t *)dsc->data;
 1419              		.loc 1 319 5 is_stmt 1 view .LVU519
 1420              		.loc 1 319 15 is_stmt 0 view .LVU520
 1421 0064 8368     		ldr	r3, [r0, #8]
 1422              	.LVL173:
 320:Middlewares/lvgl/src/draw/lv_img_buf.c ****     lv_memcpy_small(&buf[id * sizeof(c32)], &c32, sizeof(c32));
 1423              		.loc 1 320 5 is_stmt 1 view .LVU521
 1424              		.loc 1 320 21 is_stmt 0 view .LVU522
 1425 0066 03EB8101 		add	r1, r3, r1, lsl #2
 1426              	.LVL174:
 1427              	.LBB82:
 1428              	.LBI82:
 201:Middlewares/lvgl/src/draw/../misc/lv_mem.h **** {
 1429              		.loc 3 201 44 is_stmt 1 view .LVU523
 1430              	.LBB83:
ARM GAS  /tmp/ccTdGo64.s 			page 54


 203:Middlewares/lvgl/src/draw/../misc/lv_mem.h ****     const uint8_t * s8 = (const uint8_t *)src;
 1431              		.loc 3 203 5 view .LVU524
 204:Middlewares/lvgl/src/draw/../misc/lv_mem.h **** 
 1432              		.loc 3 204 5 view .LVU525
 206:Middlewares/lvgl/src/draw/../misc/lv_mem.h ****         *d8 = *s8;
 1433              		.loc 3 206 5 view .LVU526
 204:Middlewares/lvgl/src/draw/../misc/lv_mem.h **** 
 1434              		.loc 3 204 21 is_stmt 0 view .LVU527
 1435 006a 01AA     		add	r2, sp, #4
 1436              	.LVL175:
 206:Middlewares/lvgl/src/draw/../misc/lv_mem.h ****         *d8 = *s8;
 1437              		.loc 3 206 10 view .LVU528
 1438 006c 0423     		movs	r3, #4
 1439              	.LVL176:
 206:Middlewares/lvgl/src/draw/../misc/lv_mem.h ****         *d8 = *s8;
 1440              		.loc 3 206 10 view .LVU529
 1441 006e 0DE0     		b	.L68
 1442              	.LVL177:
 1443              	.L74:
 1444              	.LCFI15:
 1445              		.cfi_def_cfa_offset 0
 1446              		.cfi_restore 4
 206:Middlewares/lvgl/src/draw/../misc/lv_mem.h ****         *d8 = *s8;
 1447              		.loc 3 206 10 view .LVU530
 1448              	.LBE83:
 1449              	.LBE82:
 311:Middlewares/lvgl/src/draw/lv_img_buf.c ****        (dsc->header.cf == LV_IMG_CF_ALPHA_4BIT && id > 15) || (dsc->header.cf == LV_IMG_CF_ALPHA_8B
 1450              		.loc 1 311 48 discriminator 1 view .LVU531
 1451 0070 0129     		cmp	r1, #1
 1452 0072 CAD9     		bls	.L62
 1453              	.L71:
 1454 0074 7047     		bx	lr
 1455              	.L75:
 311:Middlewares/lvgl/src/draw/lv_img_buf.c ****        (dsc->header.cf == LV_IMG_CF_ALPHA_4BIT && id > 15) || (dsc->header.cf == LV_IMG_CF_ALPHA_8B
 1456              		.loc 1 311 102 discriminator 4 view .LVU532
 1457 0076 0329     		cmp	r1, #3
 1458 0078 C9D9     		bls	.L64
 1459 007a FBE7     		b	.L71
 1460              	.L76:
 312:Middlewares/lvgl/src/draw/lv_img_buf.c ****         LV_LOG_WARN("lv_img_buf_set_px_alpha: invalid 'id'");
 1461              		.loc 1 312 48 view .LVU533
 1462 007c 0F29     		cmp	r1, #15
 1463 007e C8D9     		bls	.L65
 1464 0080 F8E7     		b	.L71
 1465              	.LVL178:
 1466              	.L69:
 1467              	.LCFI16:
 1468              		.cfi_def_cfa_offset 16
 1469              		.cfi_offset 4, -4
 1470              	.LBB85:
 1471              	.LBB84:
 207:Middlewares/lvgl/src/draw/../misc/lv_mem.h ****         d8++;
 1472              		.loc 3 207 9 is_stmt 1 view .LVU534
 207:Middlewares/lvgl/src/draw/../misc/lv_mem.h ****         d8++;
 1473              		.loc 3 207 15 is_stmt 0 view .LVU535
 1474 0082 12F8010B 		ldrb	r0, [r2], #1	@ zero_extendqisi2
 1475              	.LVL179:
ARM GAS  /tmp/ccTdGo64.s 			page 55


 207:Middlewares/lvgl/src/draw/../misc/lv_mem.h ****         d8++;
 1476              		.loc 3 207 13 view .LVU536
 1477 0086 01F8010B 		strb	r0, [r1], #1
 1478              	.LVL180:
 208:Middlewares/lvgl/src/draw/../misc/lv_mem.h ****         s8++;
 1479              		.loc 3 208 9 is_stmt 1 view .LVU537
 209:Middlewares/lvgl/src/draw/../misc/lv_mem.h ****         len--;
 1480              		.loc 3 209 9 view .LVU538
 1481              		.loc 3 210 9 view .LVU539
 1482              		.loc 3 210 12 is_stmt 0 view .LVU540
 1483 008a 013B     		subs	r3, r3, #1
 1484              	.LVL181:
 1485              	.L68:
 206:Middlewares/lvgl/src/draw/../misc/lv_mem.h ****         *d8 = *s8;
 1486              		.loc 3 206 10 is_stmt 1 view .LVU541
 1487 008c 002B     		cmp	r3, #0
 1488 008e F8D1     		bne	.L69
 206:Middlewares/lvgl/src/draw/../misc/lv_mem.h ****         *d8 = *s8;
 1489              		.loc 3 206 10 is_stmt 0 view .LVU542
 1490              	.LBE84:
 1491              	.LBE85:
 321:Middlewares/lvgl/src/draw/lv_img_buf.c **** }
 1492              		.loc 1 321 1 view .LVU543
 1493 0090 03B0     		add	sp, sp, #12
 1494              	.LCFI17:
 1495              		.cfi_def_cfa_offset 4
 1496              		@ sp needed
 1497 0092 5DF8044B 		ldr	r4, [sp], #4
 1498              	.LCFI18:
 1499              		.cfi_restore 4
 1500              		.cfi_def_cfa_offset 0
 1501              	.LVL182:
 1502              		.loc 1 321 1 view .LVU544
 1503 0096 7047     		bx	lr
 1504              		.cfi_endproc
 1505              	.LFE52:
 1507              		.section	.text.lv_img_buf_free,"ax",%progbits
 1508              		.align	1
 1509              		.global	lv_img_buf_free
 1510              		.syntax unified
 1511              		.thumb
 1512              		.thumb_func
 1513              		.fpu fpv4-sp-d16
 1515              	lv_img_buf_free:
 1516              	.LVL183:
 1517              	.LFB54:
 322:Middlewares/lvgl/src/draw/lv_img_buf.c **** 
 323:Middlewares/lvgl/src/draw/lv_img_buf.c **** /**
 324:Middlewares/lvgl/src/draw/lv_img_buf.c ****  * Allocate an image buffer in RAM
 325:Middlewares/lvgl/src/draw/lv_img_buf.c ****  * @param w width of image
 326:Middlewares/lvgl/src/draw/lv_img_buf.c ****  * @param h height of image
 327:Middlewares/lvgl/src/draw/lv_img_buf.c ****  * @param cf a color format (`LV_IMG_CF_...`)
 328:Middlewares/lvgl/src/draw/lv_img_buf.c ****  * @return an allocated image, or NULL on failure
 329:Middlewares/lvgl/src/draw/lv_img_buf.c ****  */
 330:Middlewares/lvgl/src/draw/lv_img_buf.c **** lv_img_dsc_t * lv_img_buf_alloc(lv_coord_t w, lv_coord_t h, lv_img_cf_t cf)
 331:Middlewares/lvgl/src/draw/lv_img_buf.c **** {
 332:Middlewares/lvgl/src/draw/lv_img_buf.c ****     /*Allocate image descriptor*/
ARM GAS  /tmp/ccTdGo64.s 			page 56


 333:Middlewares/lvgl/src/draw/lv_img_buf.c ****     lv_img_dsc_t * dsc = lv_mem_alloc(sizeof(lv_img_dsc_t));
 334:Middlewares/lvgl/src/draw/lv_img_buf.c ****     if(dsc == NULL)
 335:Middlewares/lvgl/src/draw/lv_img_buf.c ****         return NULL;
 336:Middlewares/lvgl/src/draw/lv_img_buf.c **** 
 337:Middlewares/lvgl/src/draw/lv_img_buf.c ****     lv_memset_00(dsc, sizeof(lv_img_dsc_t));
 338:Middlewares/lvgl/src/draw/lv_img_buf.c **** 
 339:Middlewares/lvgl/src/draw/lv_img_buf.c ****     /*Get image data size*/
 340:Middlewares/lvgl/src/draw/lv_img_buf.c ****     dsc->data_size = lv_img_buf_get_img_size(w, h, cf);
 341:Middlewares/lvgl/src/draw/lv_img_buf.c ****     if(dsc->data_size == 0) {
 342:Middlewares/lvgl/src/draw/lv_img_buf.c ****         lv_mem_free(dsc);
 343:Middlewares/lvgl/src/draw/lv_img_buf.c ****         return NULL;
 344:Middlewares/lvgl/src/draw/lv_img_buf.c ****     }
 345:Middlewares/lvgl/src/draw/lv_img_buf.c **** 
 346:Middlewares/lvgl/src/draw/lv_img_buf.c ****     /*Allocate raw buffer*/
 347:Middlewares/lvgl/src/draw/lv_img_buf.c ****     dsc->data = lv_mem_alloc(dsc->data_size);
 348:Middlewares/lvgl/src/draw/lv_img_buf.c ****     if(dsc->data == NULL) {
 349:Middlewares/lvgl/src/draw/lv_img_buf.c ****         lv_mem_free(dsc);
 350:Middlewares/lvgl/src/draw/lv_img_buf.c ****         return NULL;
 351:Middlewares/lvgl/src/draw/lv_img_buf.c ****     }
 352:Middlewares/lvgl/src/draw/lv_img_buf.c ****     lv_memset_00((uint8_t *)dsc->data, dsc->data_size);
 353:Middlewares/lvgl/src/draw/lv_img_buf.c **** 
 354:Middlewares/lvgl/src/draw/lv_img_buf.c ****     /*Fill in header*/
 355:Middlewares/lvgl/src/draw/lv_img_buf.c ****     dsc->header.always_zero = 0;
 356:Middlewares/lvgl/src/draw/lv_img_buf.c ****     dsc->header.w = w;
 357:Middlewares/lvgl/src/draw/lv_img_buf.c ****     dsc->header.h = h;
 358:Middlewares/lvgl/src/draw/lv_img_buf.c ****     dsc->header.cf = cf;
 359:Middlewares/lvgl/src/draw/lv_img_buf.c ****     return dsc;
 360:Middlewares/lvgl/src/draw/lv_img_buf.c **** }
 361:Middlewares/lvgl/src/draw/lv_img_buf.c **** 
 362:Middlewares/lvgl/src/draw/lv_img_buf.c **** /**
 363:Middlewares/lvgl/src/draw/lv_img_buf.c ****  * Free an allocated image buffer
 364:Middlewares/lvgl/src/draw/lv_img_buf.c ****  * @param dsc image buffer to free
 365:Middlewares/lvgl/src/draw/lv_img_buf.c ****  */
 366:Middlewares/lvgl/src/draw/lv_img_buf.c **** void lv_img_buf_free(lv_img_dsc_t * dsc)
 367:Middlewares/lvgl/src/draw/lv_img_buf.c **** {
 1518              		.loc 1 367 1 is_stmt 1 view -0
 1519              		.cfi_startproc
 1520              		@ args = 0, pretend = 0, frame = 0
 1521              		@ frame_needed = 0, uses_anonymous_args = 0
 368:Middlewares/lvgl/src/draw/lv_img_buf.c ****     if(dsc != NULL) {
 1522              		.loc 1 368 5 view .LVU546
 1523              		.loc 1 368 7 is_stmt 0 view .LVU547
 1524 0000 48B1     		cbz	r0, .L81
 367:Middlewares/lvgl/src/draw/lv_img_buf.c ****     if(dsc != NULL) {
 1525              		.loc 1 367 1 view .LVU548
 1526 0002 10B5     		push	{r4, lr}
 1527              	.LCFI19:
 1528              		.cfi_def_cfa_offset 8
 1529              		.cfi_offset 4, -8
 1530              		.cfi_offset 14, -4
 1531 0004 0446     		mov	r4, r0
 369:Middlewares/lvgl/src/draw/lv_img_buf.c ****         if(dsc->data != NULL)
 1532              		.loc 1 369 9 is_stmt 1 view .LVU549
 1533              		.loc 1 369 15 is_stmt 0 view .LVU550
 1534 0006 8068     		ldr	r0, [r0, #8]
 1535              	.LVL184:
 1536              		.loc 1 369 11 view .LVU551
ARM GAS  /tmp/ccTdGo64.s 			page 57


 1537 0008 08B1     		cbz	r0, .L79
 370:Middlewares/lvgl/src/draw/lv_img_buf.c ****             lv_mem_free((void*)dsc->data);
 1538              		.loc 1 370 13 is_stmt 1 view .LVU552
 1539 000a FFF7FEFF 		bl	lv_mem_free
 1540              	.LVL185:
 1541              	.L79:
 371:Middlewares/lvgl/src/draw/lv_img_buf.c **** 
 372:Middlewares/lvgl/src/draw/lv_img_buf.c ****         lv_mem_free(dsc);
 1542              		.loc 1 372 9 view .LVU553
 1543 000e 2046     		mov	r0, r4
 1544 0010 FFF7FEFF 		bl	lv_mem_free
 1545              	.LVL186:
 373:Middlewares/lvgl/src/draw/lv_img_buf.c ****     }
 374:Middlewares/lvgl/src/draw/lv_img_buf.c **** }
 1546              		.loc 1 374 1 is_stmt 0 view .LVU554
 1547 0014 10BD     		pop	{r4, pc}
 1548              	.LVL187:
 1549              	.L81:
 1550              	.LCFI20:
 1551              		.cfi_def_cfa_offset 0
 1552              		.cfi_restore 4
 1553              		.cfi_restore 14
 1554              		.loc 1 374 1 view .LVU555
 1555 0016 7047     		bx	lr
 1556              		.cfi_endproc
 1557              	.LFE54:
 1559              		.section	.text.lv_img_buf_get_img_size,"ax",%progbits
 1560              		.align	1
 1561              		.global	lv_img_buf_get_img_size
 1562              		.syntax unified
 1563              		.thumb
 1564              		.thumb_func
 1565              		.fpu fpv4-sp-d16
 1567              	lv_img_buf_get_img_size:
 1568              	.LVL188:
 1569              	.LFB55:
 375:Middlewares/lvgl/src/draw/lv_img_buf.c **** 
 376:Middlewares/lvgl/src/draw/lv_img_buf.c **** /**
 377:Middlewares/lvgl/src/draw/lv_img_buf.c ****  * Get the memory consumption of a raw bitmap, given color format and dimensions.
 378:Middlewares/lvgl/src/draw/lv_img_buf.c ****  * @param w width
 379:Middlewares/lvgl/src/draw/lv_img_buf.c ****  * @param h height
 380:Middlewares/lvgl/src/draw/lv_img_buf.c ****  * @param cf color format
 381:Middlewares/lvgl/src/draw/lv_img_buf.c ****  * @return size in bytes
 382:Middlewares/lvgl/src/draw/lv_img_buf.c ****  */
 383:Middlewares/lvgl/src/draw/lv_img_buf.c **** uint32_t lv_img_buf_get_img_size(lv_coord_t w, lv_coord_t h, lv_img_cf_t cf)
 384:Middlewares/lvgl/src/draw/lv_img_buf.c **** {
 1570              		.loc 1 384 1 is_stmt 1 view -0
 1571              		.cfi_startproc
 1572              		@ args = 0, pretend = 0, frame = 0
 1573              		@ frame_needed = 0, uses_anonymous_args = 0
 1574              		@ link register save eliminated.
 1575              		.loc 1 384 1 is_stmt 0 view .LVU557
 1576 0000 0346     		mov	r3, r0
 385:Middlewares/lvgl/src/draw/lv_img_buf.c ****     switch(cf) {
 1577              		.loc 1 385 5 is_stmt 1 view .LVU558
 1578 0002 043A     		subs	r2, r2, #4
 1579              	.LVL189:
ARM GAS  /tmp/ccTdGo64.s 			page 58


 1580              		.loc 1 385 5 is_stmt 0 view .LVU559
 1581 0004 0A2A     		cmp	r2, #10
 1582 0006 50D8     		bhi	.L102
 1583 0008 DFE802F0 		tbb	[pc, r2]
 1584              	.LVL190:
 1585              	.L87:
 1586 000c 06       		.byte	(.L97-.L87)/2
 1587 000d 0A       		.byte	(.L96-.L87)/2
 1588 000e 0F       		.byte	(.L95-.L87)/2
 1589 000f 2E       		.byte	(.L94-.L87)/2
 1590 0010 38       		.byte	(.L93-.L87)/2
 1591 0011 42       		.byte	(.L92-.L87)/2
 1592 0012 4A       		.byte	(.L91-.L87)/2
 1593 0013 13       		.byte	(.L90-.L87)/2
 1594 0014 1C       		.byte	(.L89-.L87)/2
 1595 0015 25       		.byte	(.L88-.L87)/2
 1596 0016 2B       		.byte	(.L86-.L87)/2
 1597 0017 00       		.p2align 1
 1598              	.L97:
 386:Middlewares/lvgl/src/draw/lv_img_buf.c ****         case LV_IMG_CF_TRUE_COLOR:
 387:Middlewares/lvgl/src/draw/lv_img_buf.c ****             return LV_IMG_BUF_SIZE_TRUE_COLOR(w, h);
 1599              		.loc 1 387 13 is_stmt 1 view .LVU560
 1600              		.loc 1 387 20 is_stmt 0 view .LVU561
 1601 0018 01FB03F0 		mul	r0, r1, r3
 1602 001c 4000     		lsls	r0, r0, #1
 1603 001e 7047     		bx	lr
 1604              	.L96:
 388:Middlewares/lvgl/src/draw/lv_img_buf.c ****         case LV_IMG_CF_TRUE_COLOR_ALPHA:
 389:Middlewares/lvgl/src/draw/lv_img_buf.c ****             return LV_IMG_BUF_SIZE_TRUE_COLOR_ALPHA(w, h);
 1605              		.loc 1 389 13 is_stmt 1 view .LVU562
 1606              		.loc 1 389 20 is_stmt 0 view .LVU563
 1607 0020 01FB03F0 		mul	r0, r1, r3
 1608 0024 00EB4000 		add	r0, r0, r0, lsl #1
 1609 0028 7047     		bx	lr
 1610              	.L95:
 390:Middlewares/lvgl/src/draw/lv_img_buf.c ****         case LV_IMG_CF_TRUE_COLOR_CHROMA_KEYED:
 391:Middlewares/lvgl/src/draw/lv_img_buf.c ****             return LV_IMG_BUF_SIZE_TRUE_COLOR_CHROMA_KEYED(w, h);
 1611              		.loc 1 391 13 is_stmt 1 view .LVU564
 1612              		.loc 1 391 20 is_stmt 0 view .LVU565
 1613 002a 01FB03F0 		mul	r0, r1, r3
 1614 002e 4000     		lsls	r0, r0, #1
 1615 0030 7047     		bx	lr
 1616              	.L90:
 392:Middlewares/lvgl/src/draw/lv_img_buf.c ****         case LV_IMG_CF_ALPHA_1BIT:
 393:Middlewares/lvgl/src/draw/lv_img_buf.c ****             return LV_IMG_BUF_SIZE_ALPHA_1BIT(w, h);
 1617              		.loc 1 393 13 is_stmt 1 view .LVU566
 1618              		.loc 1 393 20 is_stmt 0 view .LVU567
 1619 0032 1846     		mov	r0, r3
 1620 0034 002B     		cmp	r3, #0
 1621 0036 03DB     		blt	.L103
 1622              	.L98:
 1623 0038 C010     		asrs	r0, r0, #3
 1624 003a 00FB0110 		mla	r0, r0, r1, r1
 1625 003e 7047     		bx	lr
 1626              	.L103:
 1627 0040 D81D     		adds	r0, r3, #7
 1628 0042 F9E7     		b	.L98
ARM GAS  /tmp/ccTdGo64.s 			page 59


 1629              	.L89:
 394:Middlewares/lvgl/src/draw/lv_img_buf.c ****         case LV_IMG_CF_ALPHA_2BIT:
 395:Middlewares/lvgl/src/draw/lv_img_buf.c ****             return LV_IMG_BUF_SIZE_ALPHA_2BIT(w, h);
 1630              		.loc 1 395 13 is_stmt 1 view .LVU568
 1631              		.loc 1 395 20 is_stmt 0 view .LVU569
 1632 0044 1846     		mov	r0, r3
 1633 0046 002B     		cmp	r3, #0
 1634 0048 03DB     		blt	.L104
 1635              	.L99:
 1636 004a 8010     		asrs	r0, r0, #2
 1637 004c 00FB0110 		mla	r0, r0, r1, r1
 1638 0050 7047     		bx	lr
 1639              	.L104:
 1640 0052 D81C     		adds	r0, r3, #3
 1641 0054 F9E7     		b	.L99
 1642              	.L88:
 396:Middlewares/lvgl/src/draw/lv_img_buf.c ****         case LV_IMG_CF_ALPHA_4BIT:
 397:Middlewares/lvgl/src/draw/lv_img_buf.c ****             return LV_IMG_BUF_SIZE_ALPHA_4BIT(w, h);
 1643              		.loc 1 397 13 is_stmt 1 view .LVU570
 1644              		.loc 1 397 20 is_stmt 0 view .LVU571
 1645 0056 03EBD370 		add	r0, r3, r3, lsr #31
 1646 005a 4010     		asrs	r0, r0, #1
 1647 005c 00FB0110 		mla	r0, r0, r1, r1
 1648 0060 7047     		bx	lr
 1649              	.L86:
 398:Middlewares/lvgl/src/draw/lv_img_buf.c ****         case LV_IMG_CF_ALPHA_8BIT:
 399:Middlewares/lvgl/src/draw/lv_img_buf.c ****             return LV_IMG_BUF_SIZE_ALPHA_8BIT(w, h);
 1650              		.loc 1 399 13 is_stmt 1 view .LVU572
 1651              		.loc 1 399 20 is_stmt 0 view .LVU573
 1652 0062 01FB03F0 		mul	r0, r1, r3
 1653 0066 7047     		bx	lr
 1654              	.L94:
 400:Middlewares/lvgl/src/draw/lv_img_buf.c ****         case LV_IMG_CF_INDEXED_1BIT:
 401:Middlewares/lvgl/src/draw/lv_img_buf.c ****             return LV_IMG_BUF_SIZE_INDEXED_1BIT(w, h);
 1655              		.loc 1 401 13 is_stmt 1 view .LVU574
 1656              		.loc 1 401 20 is_stmt 0 view .LVU575
 1657 0068 1846     		mov	r0, r3
 1658 006a 002B     		cmp	r3, #0
 1659 006c 04DB     		blt	.L105
 1660              	.L100:
 1661 006e C010     		asrs	r0, r0, #3
 1662 0070 00FB0110 		mla	r0, r0, r1, r1
 1663 0074 0830     		adds	r0, r0, #8
 1664 0076 7047     		bx	lr
 1665              	.L105:
 1666 0078 D81D     		adds	r0, r3, #7
 1667 007a F8E7     		b	.L100
 1668              	.L93:
 402:Middlewares/lvgl/src/draw/lv_img_buf.c ****         case LV_IMG_CF_INDEXED_2BIT:
 403:Middlewares/lvgl/src/draw/lv_img_buf.c ****             return LV_IMG_BUF_SIZE_INDEXED_2BIT(w, h);
 1669              		.loc 1 403 13 is_stmt 1 view .LVU576
 1670              		.loc 1 403 20 is_stmt 0 view .LVU577
 1671 007c 1846     		mov	r0, r3
 1672 007e 002B     		cmp	r3, #0
 1673 0080 04DB     		blt	.L106
 1674              	.L101:
 1675 0082 8010     		asrs	r0, r0, #2
ARM GAS  /tmp/ccTdGo64.s 			page 60


 1676 0084 00FB0110 		mla	r0, r0, r1, r1
 1677 0088 1030     		adds	r0, r0, #16
 1678 008a 7047     		bx	lr
 1679              	.L106:
 1680 008c D81C     		adds	r0, r3, #3
 1681 008e F8E7     		b	.L101
 1682              	.L92:
 404:Middlewares/lvgl/src/draw/lv_img_buf.c ****         case LV_IMG_CF_INDEXED_4BIT:
 405:Middlewares/lvgl/src/draw/lv_img_buf.c ****             return LV_IMG_BUF_SIZE_INDEXED_4BIT(w, h);
 1683              		.loc 1 405 13 is_stmt 1 view .LVU578
 1684              		.loc 1 405 20 is_stmt 0 view .LVU579
 1685 0090 03EBD370 		add	r0, r3, r3, lsr #31
 1686 0094 4010     		asrs	r0, r0, #1
 1687 0096 00FB0111 		mla	r1, r0, r1, r1
 1688              	.LVL191:
 1689              		.loc 1 405 20 view .LVU580
 1690 009a 01F14000 		add	r0, r1, #64
 1691 009e 7047     		bx	lr
 1692              	.LVL192:
 1693              	.L91:
 406:Middlewares/lvgl/src/draw/lv_img_buf.c ****         case LV_IMG_CF_INDEXED_8BIT:
 407:Middlewares/lvgl/src/draw/lv_img_buf.c ****             return LV_IMG_BUF_SIZE_INDEXED_8BIT(w, h);
 1694              		.loc 1 407 13 is_stmt 1 view .LVU581
 1695              		.loc 1 407 20 is_stmt 0 view .LVU582
 1696 00a0 01FB03F0 		mul	r0, r1, r3
 1697 00a4 00F58060 		add	r0, r0, #1024
 1698 00a8 7047     		bx	lr
 1699              	.L102:
 384:Middlewares/lvgl/src/draw/lv_img_buf.c ****     switch(cf) {
 1700              		.loc 1 384 1 view .LVU583
 1701 00aa 0020     		movs	r0, #0
 408:Middlewares/lvgl/src/draw/lv_img_buf.c ****         default:
 409:Middlewares/lvgl/src/draw/lv_img_buf.c ****             return 0;
 410:Middlewares/lvgl/src/draw/lv_img_buf.c ****     }
 411:Middlewares/lvgl/src/draw/lv_img_buf.c **** }
 1702              		.loc 1 411 1 view .LVU584
 1703 00ac 7047     		bx	lr
 1704              		.cfi_endproc
 1705              	.LFE55:
 1707              		.section	.text.lv_img_buf_alloc,"ax",%progbits
 1708              		.align	1
 1709              		.global	lv_img_buf_alloc
 1710              		.syntax unified
 1711              		.thumb
 1712              		.thumb_func
 1713              		.fpu fpv4-sp-d16
 1715              	lv_img_buf_alloc:
 1716              	.LVL193:
 1717              	.LFB53:
 331:Middlewares/lvgl/src/draw/lv_img_buf.c ****     /*Allocate image descriptor*/
 1718              		.loc 1 331 1 is_stmt 1 view -0
 1719              		.cfi_startproc
 1720              		@ args = 0, pretend = 0, frame = 0
 1721              		@ frame_needed = 0, uses_anonymous_args = 0
 331:Middlewares/lvgl/src/draw/lv_img_buf.c ****     /*Allocate image descriptor*/
 1722              		.loc 1 331 1 is_stmt 0 view .LVU586
 1723 0000 2DE9F041 		push	{r4, r5, r6, r7, r8, lr}
ARM GAS  /tmp/ccTdGo64.s 			page 61


 1724              	.LCFI21:
 1725              		.cfi_def_cfa_offset 24
 1726              		.cfi_offset 4, -24
 1727              		.cfi_offset 5, -20
 1728              		.cfi_offset 6, -16
 1729              		.cfi_offset 7, -12
 1730              		.cfi_offset 8, -8
 1731              		.cfi_offset 14, -4
 1732 0004 0746     		mov	r7, r0
 1733 0006 0E46     		mov	r6, r1
 1734 0008 1546     		mov	r5, r2
 333:Middlewares/lvgl/src/draw/lv_img_buf.c ****     if(dsc == NULL)
 1735              		.loc 1 333 5 is_stmt 1 view .LVU587
 333:Middlewares/lvgl/src/draw/lv_img_buf.c ****     if(dsc == NULL)
 1736              		.loc 1 333 26 is_stmt 0 view .LVU588
 1737 000a 0C20     		movs	r0, #12
 1738              	.LVL194:
 333:Middlewares/lvgl/src/draw/lv_img_buf.c ****     if(dsc == NULL)
 1739              		.loc 1 333 26 view .LVU589
 1740 000c FFF7FEFF 		bl	lv_mem_alloc
 1741              	.LVL195:
 334:Middlewares/lvgl/src/draw/lv_img_buf.c ****         return NULL;
 1742              		.loc 1 334 5 is_stmt 1 view .LVU590
 334:Middlewares/lvgl/src/draw/lv_img_buf.c ****         return NULL;
 1743              		.loc 1 334 7 is_stmt 0 view .LVU591
 1744 0010 0446     		mov	r4, r0
 1745 0012 08B3     		cbz	r0, .L107
 337:Middlewares/lvgl/src/draw/lv_img_buf.c **** 
 1746              		.loc 1 337 5 is_stmt 1 view .LVU592
 1747 0014 0C21     		movs	r1, #12
 1748 0016 FFF7FEFF 		bl	lv_memset_00
 1749              	.LVL196:
 340:Middlewares/lvgl/src/draw/lv_img_buf.c ****     if(dsc->data_size == 0) {
 1750              		.loc 1 340 5 view .LVU593
 340:Middlewares/lvgl/src/draw/lv_img_buf.c ****     if(dsc->data_size == 0) {
 1751              		.loc 1 340 22 is_stmt 0 view .LVU594
 1752 001a 2A46     		mov	r2, r5
 1753 001c 3146     		mov	r1, r6
 1754 001e 3846     		mov	r0, r7
 1755 0020 FFF7FEFF 		bl	lv_img_buf_get_img_size
 1756              	.LVL197:
 340:Middlewares/lvgl/src/draw/lv_img_buf.c ****     if(dsc->data_size == 0) {
 1757              		.loc 1 340 20 view .LVU595
 1758 0024 6060     		str	r0, [r4, #4]
 341:Middlewares/lvgl/src/draw/lv_img_buf.c ****         lv_mem_free(dsc);
 1759              		.loc 1 341 5 is_stmt 1 view .LVU596
 341:Middlewares/lvgl/src/draw/lv_img_buf.c ****         lv_mem_free(dsc);
 1760              		.loc 1 341 7 is_stmt 0 view .LVU597
 1761 0026 D0B1     		cbz	r0, .L112
 347:Middlewares/lvgl/src/draw/lv_img_buf.c ****     if(dsc->data == NULL) {
 1762              		.loc 1 347 5 is_stmt 1 view .LVU598
 347:Middlewares/lvgl/src/draw/lv_img_buf.c ****     if(dsc->data == NULL) {
 1763              		.loc 1 347 17 is_stmt 0 view .LVU599
 1764 0028 FFF7FEFF 		bl	lv_mem_alloc
 1765              	.LVL198:
 1766 002c 8046     		mov	r8, r0
 347:Middlewares/lvgl/src/draw/lv_img_buf.c ****     if(dsc->data == NULL) {
ARM GAS  /tmp/ccTdGo64.s 			page 62


 1767              		.loc 1 347 15 view .LVU600
 1768 002e A060     		str	r0, [r4, #8]
 348:Middlewares/lvgl/src/draw/lv_img_buf.c ****         lv_mem_free(dsc);
 1769              		.loc 1 348 5 is_stmt 1 view .LVU601
 348:Middlewares/lvgl/src/draw/lv_img_buf.c ****         lv_mem_free(dsc);
 1770              		.loc 1 348 7 is_stmt 0 view .LVU602
 1771 0030 D0B1     		cbz	r0, .L113
 352:Middlewares/lvgl/src/draw/lv_img_buf.c **** 
 1772              		.loc 1 352 5 is_stmt 1 view .LVU603
 1773 0032 6168     		ldr	r1, [r4, #4]
 1774 0034 FFF7FEFF 		bl	lv_memset_00
 1775              	.LVL199:
 355:Middlewares/lvgl/src/draw/lv_img_buf.c ****     dsc->header.w = w;
 1776              		.loc 1 355 5 view .LVU604
 355:Middlewares/lvgl/src/draw/lv_img_buf.c ****     dsc->header.w = w;
 1777              		.loc 1 355 29 is_stmt 0 view .LVU605
 1778 0038 2378     		ldrb	r3, [r4]	@ zero_extendqisi2
 1779 003a 6FF34713 		bfc	r3, #5, #3
 1780 003e 2370     		strb	r3, [r4]
 356:Middlewares/lvgl/src/draw/lv_img_buf.c ****     dsc->header.h = h;
 1781              		.loc 1 356 5 is_stmt 1 view .LVU606
 356:Middlewares/lvgl/src/draw/lv_img_buf.c ****     dsc->header.h = h;
 1782              		.loc 1 356 19 is_stmt 0 view .LVU607
 1783 0040 2368     		ldr	r3, [r4]
 1784 0042 67F39423 		bfi	r3, r7, #10, #11
 1785 0046 2360     		str	r3, [r4]
 357:Middlewares/lvgl/src/draw/lv_img_buf.c ****     dsc->header.cf = cf;
 1786              		.loc 1 357 5 is_stmt 1 view .LVU608
 357:Middlewares/lvgl/src/draw/lv_img_buf.c ****     dsc->header.cf = cf;
 1787              		.loc 1 357 19 is_stmt 0 view .LVU609
 1788 0048 6388     		ldrh	r3, [r4, #2]
 1789 004a 66F34F13 		bfi	r3, r6, #5, #11
 1790 004e 6380     		strh	r3, [r4, #2]	@ movhi
 358:Middlewares/lvgl/src/draw/lv_img_buf.c ****     return dsc;
 1791              		.loc 1 358 5 is_stmt 1 view .LVU610
 358:Middlewares/lvgl/src/draw/lv_img_buf.c ****     return dsc;
 1792              		.loc 1 358 20 is_stmt 0 view .LVU611
 1793 0050 2378     		ldrb	r3, [r4]	@ zero_extendqisi2
 1794 0052 65F30403 		bfi	r3, r5, #0, #5
 1795 0056 2370     		strb	r3, [r4]
 359:Middlewares/lvgl/src/draw/lv_img_buf.c **** }
 1796              		.loc 1 359 5 is_stmt 1 view .LVU612
 1797              	.LVL200:
 1798              	.L107:
 360:Middlewares/lvgl/src/draw/lv_img_buf.c **** 
 1799              		.loc 1 360 1 is_stmt 0 view .LVU613
 1800 0058 2046     		mov	r0, r4
 1801 005a BDE8F081 		pop	{r4, r5, r6, r7, r8, pc}
 1802              	.LVL201:
 1803              	.L112:
 342:Middlewares/lvgl/src/draw/lv_img_buf.c ****         return NULL;
 1804              		.loc 1 342 9 is_stmt 1 view .LVU614
 1805 005e 2046     		mov	r0, r4
 1806 0060 FFF7FEFF 		bl	lv_mem_free
 1807              	.LVL202:
 343:Middlewares/lvgl/src/draw/lv_img_buf.c ****     }
 1808              		.loc 1 343 9 view .LVU615
ARM GAS  /tmp/ccTdGo64.s 			page 63


 343:Middlewares/lvgl/src/draw/lv_img_buf.c ****     }
 1809              		.loc 1 343 16 is_stmt 0 view .LVU616
 1810 0064 0024     		movs	r4, #0
 1811              	.LVL203:
 343:Middlewares/lvgl/src/draw/lv_img_buf.c ****     }
 1812              		.loc 1 343 16 view .LVU617
 1813 0066 F7E7     		b	.L107
 1814              	.LVL204:
 1815              	.L113:
 349:Middlewares/lvgl/src/draw/lv_img_buf.c ****         return NULL;
 1816              		.loc 1 349 9 is_stmt 1 view .LVU618
 1817 0068 2046     		mov	r0, r4
 1818 006a FFF7FEFF 		bl	lv_mem_free
 1819              	.LVL205:
 350:Middlewares/lvgl/src/draw/lv_img_buf.c ****     }
 1820              		.loc 1 350 9 view .LVU619
 350:Middlewares/lvgl/src/draw/lv_img_buf.c ****     }
 1821              		.loc 1 350 16 is_stmt 0 view .LVU620
 1822 006e 4446     		mov	r4, r8
 1823              	.LVL206:
 350:Middlewares/lvgl/src/draw/lv_img_buf.c ****     }
 1824              		.loc 1 350 16 view .LVU621
 1825 0070 F2E7     		b	.L107
 1826              		.cfi_endproc
 1827              	.LFE53:
 1829              		.section	.text._lv_img_buf_transform_init,"ax",%progbits
 1830              		.align	1
 1831              		.global	_lv_img_buf_transform_init
 1832              		.syntax unified
 1833              		.thumb
 1834              		.thumb_func
 1835              		.fpu fpv4-sp-d16
 1837              	_lv_img_buf_transform_init:
 1838              	.LVL207:
 1839              	.LFB56:
 412:Middlewares/lvgl/src/draw/lv_img_buf.c **** 
 413:Middlewares/lvgl/src/draw/lv_img_buf.c **** #if LV_DRAW_COMPLEX
 414:Middlewares/lvgl/src/draw/lv_img_buf.c **** /**
 415:Middlewares/lvgl/src/draw/lv_img_buf.c ****  * Initialize a descriptor to transform an image
 416:Middlewares/lvgl/src/draw/lv_img_buf.c ****  * @param dsc pointer to an `lv_img_transform_dsc_t` variable whose `cfg` field is initialized
 417:Middlewares/lvgl/src/draw/lv_img_buf.c ****  */
 418:Middlewares/lvgl/src/draw/lv_img_buf.c **** void _lv_img_buf_transform_init(lv_img_transform_dsc_t * dsc)
 419:Middlewares/lvgl/src/draw/lv_img_buf.c **** {
 1840              		.loc 1 419 1 is_stmt 1 view -0
 1841              		.cfi_startproc
 1842              		@ args = 0, pretend = 0, frame = 0
 1843              		@ frame_needed = 0, uses_anonymous_args = 0
 1844              		.loc 1 419 1 is_stmt 0 view .LVU623
 1845 0000 2DE9F047 		push	{r4, r5, r6, r7, r8, r9, r10, lr}
 1846              	.LCFI22:
 1847              		.cfi_def_cfa_offset 32
 1848              		.cfi_offset 4, -32
 1849              		.cfi_offset 5, -28
 1850              		.cfi_offset 6, -24
 1851              		.cfi_offset 7, -20
 1852              		.cfi_offset 8, -16
 1853              		.cfi_offset 9, -12
ARM GAS  /tmp/ccTdGo64.s 			page 64


 1854              		.cfi_offset 10, -8
 1855              		.cfi_offset 14, -4
 1856 0004 0446     		mov	r4, r0
 420:Middlewares/lvgl/src/draw/lv_img_buf.c ****     dsc->tmp.pivot_x_256 = dsc->cfg.pivot_x * 256;
 1857              		.loc 1 420 5 is_stmt 1 view .LVU624
 1858              		.loc 1 420 36 is_stmt 0 view .LVU625
 1859 0006 B0F90830 		ldrsh	r3, [r0, #8]
 1860              		.loc 1 420 45 view .LVU626
 1861 000a 1B02     		lsls	r3, r3, #8
 1862              		.loc 1 420 26 view .LVU627
 1863 000c 4362     		str	r3, [r0, #36]
 421:Middlewares/lvgl/src/draw/lv_img_buf.c ****     dsc->tmp.pivot_y_256 = dsc->cfg.pivot_y * 256;
 1864              		.loc 1 421 5 is_stmt 1 view .LVU628
 1865              		.loc 1 421 36 is_stmt 0 view .LVU629
 1866 000e B0F90A30 		ldrsh	r3, [r0, #10]
 1867              		.loc 1 421 45 view .LVU630
 1868 0012 1B02     		lsls	r3, r3, #8
 1869              		.loc 1 421 26 view .LVU631
 1870 0014 8362     		str	r3, [r0, #40]
 422:Middlewares/lvgl/src/draw/lv_img_buf.c **** 
 423:Middlewares/lvgl/src/draw/lv_img_buf.c ****     int32_t angle_low = dsc->cfg.angle / 10;
 1871              		.loc 1 423 5 is_stmt 1 view .LVU632
 1872              		.loc 1 423 33 is_stmt 0 view .LVU633
 1873 0016 B0F90C50 		ldrsh	r5, [r0, #12]
 1874              		.loc 1 423 40 view .LVU634
 1875 001a 434F     		ldr	r7, .L118
 1876 001c 87FB0523 		smull	r2, r3, r7, r5
 1877 0020 E817     		asrs	r0, r5, #31
 1878              	.LVL208:
 1879              		.loc 1 423 40 view .LVU635
 1880 0022 C0EBA300 		rsb	r0, r0, r3, asr #2
 1881 0026 00B2     		sxth	r0, r0
 1882              	.LVL209:
 424:Middlewares/lvgl/src/draw/lv_img_buf.c ****     int32_t angle_high = angle_low + 1;
 1883              		.loc 1 424 5 is_stmt 1 view .LVU636
 1884              		.loc 1 424 13 is_stmt 0 view .LVU637
 1885 0028 00F1010A 		add	r10, r0, #1
 1886              	.LVL210:
 425:Middlewares/lvgl/src/draw/lv_img_buf.c ****     int32_t angle_rem = dsc->cfg.angle  - (angle_low * 10);
 1887              		.loc 1 425 5 is_stmt 1 view .LVU638
 1888              		.loc 1 425 13 is_stmt 0 view .LVU639
 1889 002c 6FF00903 		mvn	r3, #9
 1890 0030 03FB0055 		mla	r5, r3, r0, r5
 1891              	.LVL211:
 426:Middlewares/lvgl/src/draw/lv_img_buf.c **** 
 427:Middlewares/lvgl/src/draw/lv_img_buf.c ****     int32_t s1 = lv_trigo_sin(-angle_low);
 1892              		.loc 1 427 5 is_stmt 1 view .LVU640
 1893              		.loc 1 427 18 is_stmt 0 view .LVU641
 1894 0034 1FFA80F8 		uxth	r8, r0
 1895 0038 C8F10000 		rsb	r0, r8, #0
 1896              	.LVL212:
 1897              		.loc 1 427 18 view .LVU642
 1898 003c 00B2     		sxth	r0, r0
 1899 003e FFF7FEFF 		bl	lv_trigo_sin
 1900              	.LVL213:
 1901 0042 8146     		mov	r9, r0
 1902              	.LVL214:
ARM GAS  /tmp/ccTdGo64.s 			page 65


 428:Middlewares/lvgl/src/draw/lv_img_buf.c ****     int32_t s2 = lv_trigo_sin(-angle_high);
 1903              		.loc 1 428 5 is_stmt 1 view .LVU643
 1904              		.loc 1 428 18 is_stmt 0 view .LVU644
 1905 0044 1FFA8AFA 		uxth	r10, r10
 1906              	.LVL215:
 1907              		.loc 1 428 18 view .LVU645
 1908 0048 CAF10000 		rsb	r0, r10, #0
 1909              	.LVL216:
 1910              		.loc 1 428 18 view .LVU646
 1911 004c 00B2     		sxth	r0, r0
 1912 004e FFF7FEFF 		bl	lv_trigo_sin
 1913              	.LVL217:
 1914 0052 0646     		mov	r6, r0
 1915              	.LVL218:
 429:Middlewares/lvgl/src/draw/lv_img_buf.c **** 
 430:Middlewares/lvgl/src/draw/lv_img_buf.c ****     int32_t c1 = lv_trigo_sin(-angle_low + 90);
 1916              		.loc 1 430 5 is_stmt 1 view .LVU647
 1917              		.loc 1 430 42 is_stmt 0 view .LVU648
 1918 0054 C8F15A00 		rsb	r0, r8, #90
 1919              	.LVL219:
 1920              		.loc 1 430 18 view .LVU649
 1921 0058 00B2     		sxth	r0, r0
 1922 005a FFF7FEFF 		bl	lv_trigo_sin
 1923              	.LVL220:
 1924 005e 8046     		mov	r8, r0
 1925              	.LVL221:
 431:Middlewares/lvgl/src/draw/lv_img_buf.c ****     int32_t c2 = lv_trigo_sin(-angle_high + 90);
 1926              		.loc 1 431 5 is_stmt 1 view .LVU650
 1927              		.loc 1 431 43 is_stmt 0 view .LVU651
 1928 0060 CAF15A00 		rsb	r0, r10, #90
 1929              	.LVL222:
 1930              		.loc 1 431 18 view .LVU652
 1931 0064 00B2     		sxth	r0, r0
 1932 0066 FFF7FEFF 		bl	lv_trigo_sin
 1933              	.LVL223:
 432:Middlewares/lvgl/src/draw/lv_img_buf.c **** 
 433:Middlewares/lvgl/src/draw/lv_img_buf.c ****     dsc->tmp.sinma = (s1 * (10 - angle_rem) + s2 * angle_rem) / 10;
 1934              		.loc 1 433 5 is_stmt 1 view .LVU653
 1935              		.loc 1 433 32 is_stmt 0 view .LVU654
 1936 006a C5F10A02 		rsb	r2, r5, #10
 1937              		.loc 1 433 50 view .LVU655
 1938 006e 06FB05F3 		mul	r3, r6, r5
 1939              		.loc 1 433 45 view .LVU656
 1940 0072 09FB0233 		mla	r3, r9, r2, r3
 1941              		.loc 1 433 63 view .LVU657
 1942 0076 87FB0361 		smull	r6, r1, r7, r3
 1943              	.LVL224:
 1944              		.loc 1 433 63 view .LVU658
 1945 007a DB17     		asrs	r3, r3, #31
 1946 007c C3EBA103 		rsb	r3, r3, r1, asr #2
 1947              		.loc 1 433 20 view .LVU659
 1948 0080 E362     		str	r3, [r4, #44]
 434:Middlewares/lvgl/src/draw/lv_img_buf.c ****     dsc->tmp.cosma = (c1 * (10 - angle_rem) + c2 * angle_rem) / 10;
 1949              		.loc 1 434 5 is_stmt 1 view .LVU660
 1950              		.loc 1 434 50 is_stmt 0 view .LVU661
 1951 0082 00FB05F5 		mul	r5, r0, r5
 1952              	.LVL225:
ARM GAS  /tmp/ccTdGo64.s 			page 66


 1953              		.loc 1 434 45 view .LVU662
 1954 0086 08FB0250 		mla	r0, r8, r2, r5
 1955              	.LVL226:
 1956              		.loc 1 434 63 view .LVU663
 1957 008a 87FB0027 		smull	r2, r7, r7, r0
 1958 008e C517     		asrs	r5, r0, #31
 1959 0090 C5EBA705 		rsb	r5, r5, r7, asr #2
 1960              		.loc 1 434 20 view .LVU664
 1961 0094 2563     		str	r5, [r4, #48]
 435:Middlewares/lvgl/src/draw/lv_img_buf.c **** 
 436:Middlewares/lvgl/src/draw/lv_img_buf.c ****     /*Use smaller value to avoid overflow*/
 437:Middlewares/lvgl/src/draw/lv_img_buf.c ****     dsc->tmp.sinma = dsc->tmp.sinma >> (LV_TRIGO_SHIFT - _LV_TRANSFORM_TRIGO_SHIFT);
 1962              		.loc 1 437 5 is_stmt 1 view .LVU665
 1963              		.loc 1 437 37 is_stmt 0 view .LVU666
 1964 0096 5B11     		asrs	r3, r3, #5
 1965              		.loc 1 437 20 view .LVU667
 1966 0098 E362     		str	r3, [r4, #44]
 438:Middlewares/lvgl/src/draw/lv_img_buf.c ****     dsc->tmp.cosma = dsc->tmp.cosma >> (LV_TRIGO_SHIFT - _LV_TRANSFORM_TRIGO_SHIFT);
 1967              		.loc 1 438 5 is_stmt 1 view .LVU668
 1968              		.loc 1 438 37 is_stmt 0 view .LVU669
 1969 009a 6D11     		asrs	r5, r5, #5
 1970              		.loc 1 438 20 view .LVU670
 1971 009c 2563     		str	r5, [r4, #48]
 439:Middlewares/lvgl/src/draw/lv_img_buf.c **** 
 440:Middlewares/lvgl/src/draw/lv_img_buf.c ****     dsc->tmp.chroma_keyed = lv_img_cf_is_chroma_keyed(dsc->cfg.cf) ? 1 : 0;
 1972              		.loc 1 440 5 is_stmt 1 view .LVU671
 1973              		.loc 1 440 29 is_stmt 0 view .LVU672
 1974 009e A07C     		ldrb	r0, [r4, #18]	@ zero_extendqisi2
 1975 00a0 FFF7FEFF 		bl	lv_img_cf_is_chroma_keyed
 1976              	.LVL227:
 1977              		.loc 1 440 27 view .LVU673
 1978 00a4 94F83430 		ldrb	r3, [r4, #52]	@ zero_extendqisi2
 1979 00a8 60F30003 		bfi	r3, r0, #0, #1
 1980 00ac 84F83430 		strb	r3, [r4, #52]
 441:Middlewares/lvgl/src/draw/lv_img_buf.c ****     dsc->tmp.has_alpha = lv_img_cf_has_alpha(dsc->cfg.cf) ? 1 : 0;
 1981              		.loc 1 441 5 is_stmt 1 view .LVU674
 1982              		.loc 1 441 26 is_stmt 0 view .LVU675
 1983 00b0 A07C     		ldrb	r0, [r4, #18]	@ zero_extendqisi2
 1984 00b2 FFF7FEFF 		bl	lv_img_cf_has_alpha
 1985              	.LVL228:
 1986              		.loc 1 441 24 view .LVU676
 1987 00b6 94F83430 		ldrb	r3, [r4, #52]	@ zero_extendqisi2
 1988 00ba 60F34103 		bfi	r3, r0, #1, #1
 1989 00be 84F83430 		strb	r3, [r4, #52]
 442:Middlewares/lvgl/src/draw/lv_img_buf.c ****     if(dsc->cfg.cf == LV_IMG_CF_TRUE_COLOR || dsc->cfg.cf == LV_IMG_CF_TRUE_COLOR_ALPHA ||
 1990              		.loc 1 442 5 is_stmt 1 view .LVU677
 1991              		.loc 1 442 16 is_stmt 0 view .LVU678
 1992 00c2 A27C     		ldrb	r2, [r4, #18]	@ zero_extendqisi2
 1993              		.loc 1 442 89 view .LVU679
 1994 00c4 131F     		subs	r3, r2, #4
 1995 00c6 DBB2     		uxtb	r3, r3
 1996              		.loc 1 442 7 view .LVU680
 1997 00c8 022B     		cmp	r3, #2
 1998 00ca 26D8     		bhi	.L115
 443:Middlewares/lvgl/src/draw/lv_img_buf.c ****        dsc->cfg.cf == LV_IMG_CF_TRUE_COLOR_CHROMA_KEYED) {
 444:Middlewares/lvgl/src/draw/lv_img_buf.c ****         dsc->tmp.native_color = 1;
 1999              		.loc 1 444 9 is_stmt 1 view .LVU681
ARM GAS  /tmp/ccTdGo64.s 			page 67


 2000              		.loc 1 444 31 is_stmt 0 view .LVU682
 2001 00cc 94F83430 		ldrb	r3, [r4, #52]	@ zero_extendqisi2
 2002 00d0 43F00403 		orr	r3, r3, #4
 2003 00d4 84F83430 		strb	r3, [r4, #52]
 2004              	.L116:
 445:Middlewares/lvgl/src/draw/lv_img_buf.c ****     }
 446:Middlewares/lvgl/src/draw/lv_img_buf.c ****     else {
 447:Middlewares/lvgl/src/draw/lv_img_buf.c ****         dsc->tmp.native_color = 0;
 448:Middlewares/lvgl/src/draw/lv_img_buf.c ****     }
 449:Middlewares/lvgl/src/draw/lv_img_buf.c **** 
 450:Middlewares/lvgl/src/draw/lv_img_buf.c ****     dsc->tmp.img_dsc.data = dsc->cfg.src;
 2005              		.loc 1 450 5 is_stmt 1 view .LVU683
 2006              		.loc 1 450 37 is_stmt 0 view .LVU684
 2007 00d8 2368     		ldr	r3, [r4]
 2008              		.loc 1 450 27 view .LVU685
 2009 00da 2362     		str	r3, [r4, #32]
 451:Middlewares/lvgl/src/draw/lv_img_buf.c ****     dsc->tmp.img_dsc.header.always_zero = 0;
 2010              		.loc 1 451 5 is_stmt 1 view .LVU686
 2011              		.loc 1 451 41 is_stmt 0 view .LVU687
 2012 00dc 237E     		ldrb	r3, [r4, #24]	@ zero_extendqisi2
 2013 00de 6FF34713 		bfc	r3, #5, #3
 2014 00e2 2376     		strb	r3, [r4, #24]
 452:Middlewares/lvgl/src/draw/lv_img_buf.c ****     dsc->tmp.img_dsc.header.cf = dsc->cfg.cf;
 2015              		.loc 1 452 5 is_stmt 1 view .LVU688
 2016              		.loc 1 452 32 is_stmt 0 view .LVU689
 2017 00e4 DBB2     		uxtb	r3, r3
 2018 00e6 62F30403 		bfi	r3, r2, #0, #5
 2019 00ea 2376     		strb	r3, [r4, #24]
 453:Middlewares/lvgl/src/draw/lv_img_buf.c ****     dsc->tmp.img_dsc.header.w = dsc->cfg.src_w;
 2020              		.loc 1 453 5 is_stmt 1 view .LVU690
 2021              		.loc 1 453 41 is_stmt 0 view .LVU691
 2022 00ec A288     		ldrh	r2, [r4, #4]
 2023              		.loc 1 453 31 view .LVU692
 2024 00ee A369     		ldr	r3, [r4, #24]
 2025 00f0 62F39423 		bfi	r3, r2, #10, #11
 2026 00f4 A361     		str	r3, [r4, #24]
 454:Middlewares/lvgl/src/draw/lv_img_buf.c ****     dsc->tmp.img_dsc.header.h = dsc->cfg.src_h;
 2027              		.loc 1 454 5 is_stmt 1 view .LVU693
 2028              		.loc 1 454 41 is_stmt 0 view .LVU694
 2029 00f6 E288     		ldrh	r2, [r4, #6]
 2030              		.loc 1 454 31 view .LVU695
 2031 00f8 638B     		ldrh	r3, [r4, #26]
 2032 00fa 62F34F13 		bfi	r3, r2, #5, #11
 2033 00fe 6383     		strh	r3, [r4, #26]	@ movhi
 455:Middlewares/lvgl/src/draw/lv_img_buf.c **** 
 456:Middlewares/lvgl/src/draw/lv_img_buf.c ****     /*The inverse of the zoom will be sued during the transformation
 457:Middlewares/lvgl/src/draw/lv_img_buf.c ****      * + dsc->cfg.zoom / 2 for rounding*/
 458:Middlewares/lvgl/src/draw/lv_img_buf.c ****     dsc->tmp.zoom_inv = (((256 * 256) << _LV_ZOOM_INV_UPSCALE) + dsc->cfg.zoom / 2) / dsc->cfg.zoom
 2034              		.loc 1 458 5 is_stmt 1 view .LVU696
 2035              		.loc 1 458 74 is_stmt 0 view .LVU697
 2036 0100 E289     		ldrh	r2, [r4, #14]
 2037              		.loc 1 458 80 view .LVU698
 2038 0102 5308     		lsrs	r3, r2, #1
 2039              		.loc 1 458 64 view .LVU699
 2040 0104 03F50013 		add	r3, r3, #2097152
 2041              		.loc 1 458 85 view .LVU700
 2042 0108 93FBF2F3 		sdiv	r3, r3, r2
ARM GAS  /tmp/ccTdGo64.s 			page 68


 2043              		.loc 1 458 23 view .LVU701
 2044 010c A363     		str	r3, [r4, #56]
 459:Middlewares/lvgl/src/draw/lv_img_buf.c **** 
 460:Middlewares/lvgl/src/draw/lv_img_buf.c ****     dsc->res.opa = LV_OPA_COVER;
 2045              		.loc 1 460 5 is_stmt 1 view .LVU702
 2046              		.loc 1 460 18 is_stmt 0 view .LVU703
 2047 010e FF23     		movs	r3, #255
 2048 0110 A375     		strb	r3, [r4, #22]
 461:Middlewares/lvgl/src/draw/lv_img_buf.c ****     dsc->res.color = dsc->cfg.color;
 2049              		.loc 1 461 5 is_stmt 1 view .LVU704
 2050              		.loc 1 461 20 is_stmt 0 view .LVU705
 2051 0112 238A     		ldrh	r3, [r4, #16]
 2052 0114 A382     		strh	r3, [r4, #20]	@ movhi
 462:Middlewares/lvgl/src/draw/lv_img_buf.c **** }
 2053              		.loc 1 462 1 view .LVU706
 2054 0116 BDE8F087 		pop	{r4, r5, r6, r7, r8, r9, r10, pc}
 2055              	.LVL229:
 2056              	.L115:
 447:Middlewares/lvgl/src/draw/lv_img_buf.c ****     }
 2057              		.loc 1 447 9 is_stmt 1 view .LVU707
 447:Middlewares/lvgl/src/draw/lv_img_buf.c ****     }
 2058              		.loc 1 447 31 is_stmt 0 view .LVU708
 2059 011a 94F83430 		ldrb	r3, [r4, #52]	@ zero_extendqisi2
 2060 011e 6FF38203 		bfc	r3, #2, #1
 2061 0122 84F83430 		strb	r3, [r4, #52]
 2062 0126 D7E7     		b	.L116
 2063              	.L119:
 2064              		.align	2
 2065              	.L118:
 2066 0128 67666666 		.word	1717986919
 2067              		.cfi_endproc
 2068              	.LFE56:
 2070              		.section	.text._lv_img_buf_get_transformed_area,"ax",%progbits
 2071              		.align	1
 2072              		.global	_lv_img_buf_get_transformed_area
 2073              		.syntax unified
 2074              		.thumb
 2075              		.thumb_func
 2076              		.fpu fpv4-sp-d16
 2078              	_lv_img_buf_get_transformed_area:
 2079              	.LVL230:
 2080              	.LFB57:
 463:Middlewares/lvgl/src/draw/lv_img_buf.c **** #endif
 464:Middlewares/lvgl/src/draw/lv_img_buf.c **** 
 465:Middlewares/lvgl/src/draw/lv_img_buf.c **** /**
 466:Middlewares/lvgl/src/draw/lv_img_buf.c ****  * Get the area of a rectangle if its rotated and scaled
 467:Middlewares/lvgl/src/draw/lv_img_buf.c ****  * @param res store the coordinates here
 468:Middlewares/lvgl/src/draw/lv_img_buf.c ****  * @param w width of the rectangle to transform
 469:Middlewares/lvgl/src/draw/lv_img_buf.c ****  * @param h height of the rectangle to transform
 470:Middlewares/lvgl/src/draw/lv_img_buf.c ****  * @param angle angle of rotation
 471:Middlewares/lvgl/src/draw/lv_img_buf.c ****  * @param zoom zoom, (256 no zoom)
 472:Middlewares/lvgl/src/draw/lv_img_buf.c ****  * @param pivot x,y pivot coordinates of rotation
 473:Middlewares/lvgl/src/draw/lv_img_buf.c ****  */
 474:Middlewares/lvgl/src/draw/lv_img_buf.c **** void _lv_img_buf_get_transformed_area(lv_area_t * res, lv_coord_t w, lv_coord_t h, int16_t angle, u
 475:Middlewares/lvgl/src/draw/lv_img_buf.c ****                                       const lv_point_t * pivot)
 476:Middlewares/lvgl/src/draw/lv_img_buf.c **** {
 2081              		.loc 1 476 1 is_stmt 1 view -0
ARM GAS  /tmp/ccTdGo64.s 			page 69


 2082              		.cfi_startproc
 2083              		@ args = 8, pretend = 0, frame = 16
 2084              		@ frame_needed = 0, uses_anonymous_args = 0
 2085              		.loc 1 476 1 is_stmt 0 view .LVU710
 2086 0000 2DE9F04F 		push	{r4, r5, r6, r7, r8, r9, r10, fp, lr}
 2087              	.LCFI23:
 2088              		.cfi_def_cfa_offset 36
 2089              		.cfi_offset 4, -36
 2090              		.cfi_offset 5, -32
 2091              		.cfi_offset 6, -28
 2092              		.cfi_offset 7, -24
 2093              		.cfi_offset 8, -20
 2094              		.cfi_offset 9, -16
 2095              		.cfi_offset 10, -12
 2096              		.cfi_offset 11, -8
 2097              		.cfi_offset 14, -4
 2098 0004 85B0     		sub	sp, sp, #20
 2099              	.LCFI24:
 2100              		.cfi_def_cfa_offset 56
 2101 0006 0446     		mov	r4, r0
 2102 0008 BDF83800 		ldrh	r0, [sp, #56]
 2103              	.LVL231:
 2104              		.loc 1 476 1 view .LVU711
 2105 000c 0F9D     		ldr	r5, [sp, #60]
 477:Middlewares/lvgl/src/draw/lv_img_buf.c **** #if LV_DRAW_COMPLEX
 478:Middlewares/lvgl/src/draw/lv_img_buf.c ****     if(angle == 0 && zoom == LV_IMG_ZOOM_NONE) {
 2106              		.loc 1 478 5 is_stmt 1 view .LVU712
 2107              		.loc 1 478 7 is_stmt 0 view .LVU713
 2108 000e 1E46     		mov	r6, r3
 2109 0010 13B9     		cbnz	r3, .L121
 2110              		.loc 1 478 19 discriminator 1 view .LVU714
 2111 0012 B0F5807F 		cmp	r0, #256
 2112 0016 37D0     		beq	.L126
 2113              	.L121:
 479:Middlewares/lvgl/src/draw/lv_img_buf.c ****         res->x1 = 0;
 480:Middlewares/lvgl/src/draw/lv_img_buf.c ****         res->y1 = 0;
 481:Middlewares/lvgl/src/draw/lv_img_buf.c ****         res->x2 = w - 1;
 482:Middlewares/lvgl/src/draw/lv_img_buf.c ****         res->y2 = h - 1;
 483:Middlewares/lvgl/src/draw/lv_img_buf.c ****         return;
 484:Middlewares/lvgl/src/draw/lv_img_buf.c ****     }
 485:Middlewares/lvgl/src/draw/lv_img_buf.c **** 
 486:Middlewares/lvgl/src/draw/lv_img_buf.c ****     res->x1 = (((-pivot->x) * zoom) >> 8) - 1;
 2114              		.loc 1 486 5 is_stmt 1 view .LVU715
 2115              		.loc 1 486 24 is_stmt 0 view .LVU716
 2116 0018 B5F90030 		ldrsh	r3, [r5]
 2117              	.LVL232:
 2118              		.loc 1 486 18 view .LVU717
 2119 001c 5B42     		rsbs	r3, r3, #0
 2120              		.loc 1 486 29 view .LVU718
 2121 001e 00FB03F3 		mul	r3, r0, r3
 2122              		.loc 1 486 37 view .LVU719
 2123 0022 1B12     		asrs	r3, r3, #8
 2124              		.loc 1 486 43 view .LVU720
 2125 0024 013B     		subs	r3, r3, #1
 2126 0026 1FFA83FE 		uxth	lr, r3
 2127              		.loc 1 486 13 view .LVU721
 2128 002a 2380     		strh	r3, [r4]	@ movhi
ARM GAS  /tmp/ccTdGo64.s 			page 70


 487:Middlewares/lvgl/src/draw/lv_img_buf.c ****     res->y1 = (((-pivot->y) * zoom) >> 8) - 1;
 2129              		.loc 1 487 5 is_stmt 1 view .LVU722
 2130              		.loc 1 487 24 is_stmt 0 view .LVU723
 2131 002c B5F90270 		ldrsh	r7, [r5, #2]
 2132              		.loc 1 487 18 view .LVU724
 2133 0030 7F42     		rsbs	r7, r7, #0
 2134              		.loc 1 487 29 view .LVU725
 2135 0032 00FB07F7 		mul	r7, r0, r7
 2136              		.loc 1 487 37 view .LVU726
 2137 0036 3F12     		asrs	r7, r7, #8
 2138              		.loc 1 487 43 view .LVU727
 2139 0038 013F     		subs	r7, r7, #1
 2140 003a 1FFA87FC 		uxth	ip, r7
 2141              		.loc 1 487 13 view .LVU728
 2142 003e 6780     		strh	r7, [r4, #2]	@ movhi
 488:Middlewares/lvgl/src/draw/lv_img_buf.c ****     res->x2 = (((w - pivot->x) * zoom) >> 8) + 2;
 2143              		.loc 1 488 5 is_stmt 1 view .LVU729
 2144              		.loc 1 488 27 is_stmt 0 view .LVU730
 2145 0040 B5F90030 		ldrsh	r3, [r5]
 2146              		.loc 1 488 20 view .LVU731
 2147 0044 C91A     		subs	r1, r1, r3
 2148              	.LVL233:
 2149              		.loc 1 488 32 view .LVU732
 2150 0046 00FB01F1 		mul	r1, r0, r1
 2151              		.loc 1 488 40 view .LVU733
 2152 004a 0912     		asrs	r1, r1, #8
 2153              		.loc 1 488 46 view .LVU734
 2154 004c 0231     		adds	r1, r1, #2
 2155 004e 8FB2     		uxth	r7, r1
 2156              		.loc 1 488 13 view .LVU735
 2157 0050 A180     		strh	r1, [r4, #4]	@ movhi
 489:Middlewares/lvgl/src/draw/lv_img_buf.c ****     res->y2 = (((h - pivot->y) * zoom) >> 8) + 2;
 2158              		.loc 1 489 5 is_stmt 1 view .LVU736
 2159              		.loc 1 489 27 is_stmt 0 view .LVU737
 2160 0052 B5F90230 		ldrsh	r3, [r5, #2]
 2161              		.loc 1 489 20 view .LVU738
 2162 0056 D31A     		subs	r3, r2, r3
 2163              		.loc 1 489 32 view .LVU739
 2164 0058 00FB03F3 		mul	r3, r0, r3
 2165              		.loc 1 489 40 view .LVU740
 2166 005c 1B12     		asrs	r3, r3, #8
 2167              		.loc 1 489 46 view .LVU741
 2168 005e 0233     		adds	r3, r3, #2
 2169 0060 9AB2     		uxth	r2, r3
 2170              	.LVL234:
 2171              		.loc 1 489 13 view .LVU742
 2172 0062 E380     		strh	r3, [r4, #6]	@ movhi
 490:Middlewares/lvgl/src/draw/lv_img_buf.c **** 
 491:Middlewares/lvgl/src/draw/lv_img_buf.c ****     if(angle == 0) {
 2173              		.loc 1 491 5 is_stmt 1 view .LVU743
 2174              		.loc 1 491 7 is_stmt 0 view .LVU744
 2175 0064 BEB9     		cbnz	r6, .L123
 492:Middlewares/lvgl/src/draw/lv_img_buf.c ****         res->x1 += pivot->x;
 2176              		.loc 1 492 9 is_stmt 1 view .LVU745
 2177              		.loc 1 492 25 is_stmt 0 view .LVU746
 2178 0066 2B88     		ldrh	r3, [r5]
 2179              		.loc 1 492 17 view .LVU747
ARM GAS  /tmp/ccTdGo64.s 			page 71


 2180 0068 9E44     		add	lr, lr, r3
 2181 006a A4F800E0 		strh	lr, [r4]	@ movhi
 493:Middlewares/lvgl/src/draw/lv_img_buf.c ****         res->y1 += pivot->y;
 2182              		.loc 1 493 9 is_stmt 1 view .LVU748
 2183              		.loc 1 493 25 is_stmt 0 view .LVU749
 2184 006e 6B88     		ldrh	r3, [r5, #2]
 2185              		.loc 1 493 17 view .LVU750
 2186 0070 9C44     		add	ip, ip, r3
 2187 0072 A4F802C0 		strh	ip, [r4, #2]	@ movhi
 494:Middlewares/lvgl/src/draw/lv_img_buf.c ****         res->x2 += pivot->x;
 2188              		.loc 1 494 9 is_stmt 1 view .LVU751
 2189              		.loc 1 494 25 is_stmt 0 view .LVU752
 2190 0076 2B88     		ldrh	r3, [r5]
 2191              		.loc 1 494 17 view .LVU753
 2192 0078 1F44     		add	r7, r7, r3
 2193 007a A780     		strh	r7, [r4, #4]	@ movhi
 495:Middlewares/lvgl/src/draw/lv_img_buf.c ****         res->y2 += pivot->y;
 2194              		.loc 1 495 9 is_stmt 1 view .LVU754
 2195              		.loc 1 495 25 is_stmt 0 view .LVU755
 2196 007c 6B88     		ldrh	r3, [r5, #2]
 2197              		.loc 1 495 17 view .LVU756
 2198 007e 1A44     		add	r2, r2, r3
 2199 0080 E280     		strh	r2, [r4, #6]	@ movhi
 496:Middlewares/lvgl/src/draw/lv_img_buf.c ****         return;
 2200              		.loc 1 496 9 is_stmt 1 view .LVU757
 2201              	.L120:
 497:Middlewares/lvgl/src/draw/lv_img_buf.c ****     }
 498:Middlewares/lvgl/src/draw/lv_img_buf.c **** 
 499:Middlewares/lvgl/src/draw/lv_img_buf.c ****     int32_t angle_low = angle / 10;
 500:Middlewares/lvgl/src/draw/lv_img_buf.c ****     int32_t angle_high = angle_low + 1;
 501:Middlewares/lvgl/src/draw/lv_img_buf.c ****     int32_t angle_rem = angle  - (angle_low * 10);
 502:Middlewares/lvgl/src/draw/lv_img_buf.c **** 
 503:Middlewares/lvgl/src/draw/lv_img_buf.c ****     int32_t s1 = lv_trigo_sin(angle_low);
 504:Middlewares/lvgl/src/draw/lv_img_buf.c ****     int32_t s2 = lv_trigo_sin(angle_high);
 505:Middlewares/lvgl/src/draw/lv_img_buf.c **** 
 506:Middlewares/lvgl/src/draw/lv_img_buf.c ****     int32_t c1 = lv_trigo_sin(angle_low + 90);
 507:Middlewares/lvgl/src/draw/lv_img_buf.c ****     int32_t c2 = lv_trigo_sin(angle_high + 90);
 508:Middlewares/lvgl/src/draw/lv_img_buf.c **** 
 509:Middlewares/lvgl/src/draw/lv_img_buf.c ****     int32_t sinma = (s1 * (10 - angle_rem) + s2 * angle_rem) / 10;
 510:Middlewares/lvgl/src/draw/lv_img_buf.c ****     int32_t cosma = (c1 * (10 - angle_rem) + c2 * angle_rem) / 10;
 511:Middlewares/lvgl/src/draw/lv_img_buf.c **** 
 512:Middlewares/lvgl/src/draw/lv_img_buf.c ****     /*Use smaller value to avoid overflow*/
 513:Middlewares/lvgl/src/draw/lv_img_buf.c ****     sinma = sinma >> (LV_TRIGO_SHIFT - _LV_TRANSFORM_TRIGO_SHIFT);
 514:Middlewares/lvgl/src/draw/lv_img_buf.c ****     cosma = cosma >> (LV_TRIGO_SHIFT - _LV_TRANSFORM_TRIGO_SHIFT);
 515:Middlewares/lvgl/src/draw/lv_img_buf.c **** 
 516:Middlewares/lvgl/src/draw/lv_img_buf.c ****     lv_point_t lt;
 517:Middlewares/lvgl/src/draw/lv_img_buf.c ****     lv_point_t rt;
 518:Middlewares/lvgl/src/draw/lv_img_buf.c ****     lv_point_t lb;
 519:Middlewares/lvgl/src/draw/lv_img_buf.c ****     lv_point_t rb;
 520:Middlewares/lvgl/src/draw/lv_img_buf.c **** 
 521:Middlewares/lvgl/src/draw/lv_img_buf.c ****     lv_coord_t xt;
 522:Middlewares/lvgl/src/draw/lv_img_buf.c ****     lv_coord_t yt;
 523:Middlewares/lvgl/src/draw/lv_img_buf.c **** 
 524:Middlewares/lvgl/src/draw/lv_img_buf.c ****     xt = res->x1;
 525:Middlewares/lvgl/src/draw/lv_img_buf.c ****     yt = res->y1;
 526:Middlewares/lvgl/src/draw/lv_img_buf.c ****     lt.x = ((cosma * xt - sinma * yt) >> _LV_TRANSFORM_TRIGO_SHIFT) + pivot->x;
 527:Middlewares/lvgl/src/draw/lv_img_buf.c ****     lt.y = ((sinma * xt + cosma * yt) >> _LV_TRANSFORM_TRIGO_SHIFT) + pivot->y;
ARM GAS  /tmp/ccTdGo64.s 			page 72


 528:Middlewares/lvgl/src/draw/lv_img_buf.c **** 
 529:Middlewares/lvgl/src/draw/lv_img_buf.c ****     xt = res->x2;
 530:Middlewares/lvgl/src/draw/lv_img_buf.c ****     yt = res->y1;
 531:Middlewares/lvgl/src/draw/lv_img_buf.c ****     rt.x = ((cosma * xt - sinma * yt) >> _LV_TRANSFORM_TRIGO_SHIFT) + pivot->x;
 532:Middlewares/lvgl/src/draw/lv_img_buf.c ****     rt.y = ((sinma * xt + cosma * yt) >> _LV_TRANSFORM_TRIGO_SHIFT) + pivot->y;
 533:Middlewares/lvgl/src/draw/lv_img_buf.c **** 
 534:Middlewares/lvgl/src/draw/lv_img_buf.c ****     xt = res->x1;
 535:Middlewares/lvgl/src/draw/lv_img_buf.c ****     yt = res->y2;
 536:Middlewares/lvgl/src/draw/lv_img_buf.c ****     lb.x = ((cosma * xt - sinma * yt) >> _LV_TRANSFORM_TRIGO_SHIFT) + pivot->x;
 537:Middlewares/lvgl/src/draw/lv_img_buf.c ****     lb.y = ((sinma * xt + cosma * yt) >> _LV_TRANSFORM_TRIGO_SHIFT) + pivot->y;
 538:Middlewares/lvgl/src/draw/lv_img_buf.c **** 
 539:Middlewares/lvgl/src/draw/lv_img_buf.c ****     xt = res->x2;
 540:Middlewares/lvgl/src/draw/lv_img_buf.c ****     yt = res->y2;
 541:Middlewares/lvgl/src/draw/lv_img_buf.c ****     rb.x = ((cosma * xt - sinma * yt) >> _LV_TRANSFORM_TRIGO_SHIFT) + pivot->x;
 542:Middlewares/lvgl/src/draw/lv_img_buf.c ****     rb.y = ((sinma * xt + cosma * yt) >> _LV_TRANSFORM_TRIGO_SHIFT) + pivot->y;
 543:Middlewares/lvgl/src/draw/lv_img_buf.c **** 
 544:Middlewares/lvgl/src/draw/lv_img_buf.c ****     res->x1 = LV_MIN4(lb.x, lt.x, rb.x, rt.x);
 545:Middlewares/lvgl/src/draw/lv_img_buf.c ****     res->x2 = LV_MAX4(lb.x, lt.x, rb.x, rt.x);
 546:Middlewares/lvgl/src/draw/lv_img_buf.c ****     res->y1 = LV_MIN4(lb.y, lt.y, rb.y, rt.y);
 547:Middlewares/lvgl/src/draw/lv_img_buf.c ****     res->y2 = LV_MAX4(lb.y, lt.y, rb.y, rt.y);
 548:Middlewares/lvgl/src/draw/lv_img_buf.c **** #else
 549:Middlewares/lvgl/src/draw/lv_img_buf.c ****     LV_UNUSED(angle);
 550:Middlewares/lvgl/src/draw/lv_img_buf.c ****     LV_UNUSED(zoom);
 551:Middlewares/lvgl/src/draw/lv_img_buf.c ****     LV_UNUSED(pivot);
 552:Middlewares/lvgl/src/draw/lv_img_buf.c ****     res->x1 = 0;
 553:Middlewares/lvgl/src/draw/lv_img_buf.c ****     res->y1 = 0;
 554:Middlewares/lvgl/src/draw/lv_img_buf.c ****     res->x2 = w - 1;
 555:Middlewares/lvgl/src/draw/lv_img_buf.c ****     res->y2 = h - 1;
 556:Middlewares/lvgl/src/draw/lv_img_buf.c **** #endif
 557:Middlewares/lvgl/src/draw/lv_img_buf.c **** }
 2202              		.loc 1 557 1 is_stmt 0 view .LVU758
 2203 0082 05B0     		add	sp, sp, #20
 2204              	.LCFI25:
 2205              		.cfi_remember_state
 2206              		.cfi_def_cfa_offset 36
 2207              		@ sp needed
 2208 0084 BDE8F08F 		pop	{r4, r5, r6, r7, r8, r9, r10, fp, pc}
 2209              	.LVL235:
 2210              	.L126:
 2211              	.LCFI26:
 2212              		.cfi_restore_state
 479:Middlewares/lvgl/src/draw/lv_img_buf.c ****         res->y1 = 0;
 2213              		.loc 1 479 9 is_stmt 1 view .LVU759
 479:Middlewares/lvgl/src/draw/lv_img_buf.c ****         res->y1 = 0;
 2214              		.loc 1 479 17 is_stmt 0 view .LVU760
 2215 0088 2380     		strh	r3, [r4]	@ movhi
 480:Middlewares/lvgl/src/draw/lv_img_buf.c ****         res->x2 = w - 1;
 2216              		.loc 1 480 9 is_stmt 1 view .LVU761
 480:Middlewares/lvgl/src/draw/lv_img_buf.c ****         res->x2 = w - 1;
 2217              		.loc 1 480 17 is_stmt 0 view .LVU762
 2218 008a 6380     		strh	r3, [r4, #2]	@ movhi
 481:Middlewares/lvgl/src/draw/lv_img_buf.c ****         res->y2 = h - 1;
 2219              		.loc 1 481 9 is_stmt 1 view .LVU763
 481:Middlewares/lvgl/src/draw/lv_img_buf.c ****         res->y2 = h - 1;
 2220              		.loc 1 481 21 is_stmt 0 view .LVU764
 2221 008c 0139     		subs	r1, r1, #1
 2222              	.LVL236:
ARM GAS  /tmp/ccTdGo64.s 			page 73


 481:Middlewares/lvgl/src/draw/lv_img_buf.c ****         res->y2 = h - 1;
 2223              		.loc 1 481 17 view .LVU765
 2224 008e A180     		strh	r1, [r4, #4]	@ movhi
 482:Middlewares/lvgl/src/draw/lv_img_buf.c ****         return;
 2225              		.loc 1 482 9 is_stmt 1 view .LVU766
 482:Middlewares/lvgl/src/draw/lv_img_buf.c ****         return;
 2226              		.loc 1 482 21 is_stmt 0 view .LVU767
 2227 0090 013A     		subs	r2, r2, #1
 2228              	.LVL237:
 482:Middlewares/lvgl/src/draw/lv_img_buf.c ****         return;
 2229              		.loc 1 482 17 view .LVU768
 2230 0092 E280     		strh	r2, [r4, #6]	@ movhi
 483:Middlewares/lvgl/src/draw/lv_img_buf.c ****     }
 2231              		.loc 1 483 9 is_stmt 1 view .LVU769
 2232 0094 F5E7     		b	.L120
 2233              	.LVL238:
 2234              	.L123:
 499:Middlewares/lvgl/src/draw/lv_img_buf.c ****     int32_t angle_high = angle_low + 1;
 2235              		.loc 1 499 5 view .LVU770
 499:Middlewares/lvgl/src/draw/lv_img_buf.c ****     int32_t angle_high = angle_low + 1;
 2236              		.loc 1 499 31 is_stmt 0 view .LVU771
 2237 0096 DFF87491 		ldr	r9, .L127
 2238 009a 89FB0630 		smull	r3, r0, r9, r6
 2239 009e 4FEAE678 		asr	r8, r6, #31
 2240 00a2 C8EBA008 		rsb	r8, r8, r0, asr #2
 2241 00a6 0FFA88F8 		sxth	r8, r8
 2242              	.LVL239:
 500:Middlewares/lvgl/src/draw/lv_img_buf.c ****     int32_t angle_rem = angle  - (angle_low * 10);
 2243              		.loc 1 500 5 is_stmt 1 view .LVU772
 500:Middlewares/lvgl/src/draw/lv_img_buf.c ****     int32_t angle_rem = angle  - (angle_low * 10);
 2244              		.loc 1 500 13 is_stmt 0 view .LVU773
 2245 00aa 08F1010A 		add	r10, r8, #1
 2246              	.LVL240:
 501:Middlewares/lvgl/src/draw/lv_img_buf.c **** 
 2247              		.loc 1 501 5 is_stmt 1 view .LVU774
 501:Middlewares/lvgl/src/draw/lv_img_buf.c **** 
 2248              		.loc 1 501 13 is_stmt 0 view .LVU775
 2249 00ae 6FF00903 		mvn	r3, #9
 2250 00b2 03FB0866 		mla	r6, r3, r8, r6
 2251              	.LVL241:
 503:Middlewares/lvgl/src/draw/lv_img_buf.c ****     int32_t s2 = lv_trigo_sin(angle_high);
 2252              		.loc 1 503 5 is_stmt 1 view .LVU776
 503:Middlewares/lvgl/src/draw/lv_img_buf.c ****     int32_t s2 = lv_trigo_sin(angle_high);
 2253              		.loc 1 503 18 is_stmt 0 view .LVU777
 2254 00b6 4046     		mov	r0, r8
 2255 00b8 FFF7FEFF 		bl	lv_trigo_sin
 2256              	.LVL242:
 2257 00bc 8346     		mov	fp, r0
 2258              	.LVL243:
 504:Middlewares/lvgl/src/draw/lv_img_buf.c **** 
 2259              		.loc 1 504 5 is_stmt 1 view .LVU778
 504:Middlewares/lvgl/src/draw/lv_img_buf.c **** 
 2260              		.loc 1 504 18 is_stmt 0 view .LVU779
 2261 00be 0FFA8AF0 		sxth	r0, r10
 2262              	.LVL244:
 504:Middlewares/lvgl/src/draw/lv_img_buf.c **** 
 2263              		.loc 1 504 18 view .LVU780
ARM GAS  /tmp/ccTdGo64.s 			page 74


 2264 00c2 FFF7FEFF 		bl	lv_trigo_sin
 2265              	.LVL245:
 2266 00c6 0746     		mov	r7, r0
 2267              	.LVL246:
 506:Middlewares/lvgl/src/draw/lv_img_buf.c ****     int32_t c2 = lv_trigo_sin(angle_high + 90);
 2268              		.loc 1 506 5 is_stmt 1 view .LVU781
 506:Middlewares/lvgl/src/draw/lv_img_buf.c ****     int32_t c2 = lv_trigo_sin(angle_high + 90);
 2269              		.loc 1 506 41 is_stmt 0 view .LVU782
 2270 00c8 08F15A00 		add	r0, r8, #90
 2271              	.LVL247:
 506:Middlewares/lvgl/src/draw/lv_img_buf.c ****     int32_t c2 = lv_trigo_sin(angle_high + 90);
 2272              		.loc 1 506 18 view .LVU783
 2273 00cc 00B2     		sxth	r0, r0
 2274 00ce FFF7FEFF 		bl	lv_trigo_sin
 2275              	.LVL248:
 2276 00d2 8046     		mov	r8, r0
 2277              	.LVL249:
 507:Middlewares/lvgl/src/draw/lv_img_buf.c **** 
 2278              		.loc 1 507 5 is_stmt 1 view .LVU784
 507:Middlewares/lvgl/src/draw/lv_img_buf.c **** 
 2279              		.loc 1 507 42 is_stmt 0 view .LVU785
 2280 00d4 0AF15A00 		add	r0, r10, #90
 2281              	.LVL250:
 507:Middlewares/lvgl/src/draw/lv_img_buf.c **** 
 2282              		.loc 1 507 18 view .LVU786
 2283 00d8 00B2     		sxth	r0, r0
 2284 00da FFF7FEFF 		bl	lv_trigo_sin
 2285              	.LVL251:
 509:Middlewares/lvgl/src/draw/lv_img_buf.c ****     int32_t cosma = (c1 * (10 - angle_rem) + c2 * angle_rem) / 10;
 2286              		.loc 1 509 5 is_stmt 1 view .LVU787
 509:Middlewares/lvgl/src/draw/lv_img_buf.c ****     int32_t cosma = (c1 * (10 - angle_rem) + c2 * angle_rem) / 10;
 2287              		.loc 1 509 31 is_stmt 0 view .LVU788
 2288 00de C6F10A01 		rsb	r1, r6, #10
 509:Middlewares/lvgl/src/draw/lv_img_buf.c ****     int32_t cosma = (c1 * (10 - angle_rem) + c2 * angle_rem) / 10;
 2289              		.loc 1 509 49 view .LVU789
 2290 00e2 06FB07F7 		mul	r7, r6, r7
 2291              	.LVL252:
 509:Middlewares/lvgl/src/draw/lv_img_buf.c ****     int32_t cosma = (c1 * (10 - angle_rem) + c2 * angle_rem) / 10;
 2292              		.loc 1 509 44 view .LVU790
 2293 00e6 0BFB017B 		mla	fp, fp, r1, r7
 2294              	.LVL253:
 509:Middlewares/lvgl/src/draw/lv_img_buf.c ****     int32_t cosma = (c1 * (10 - angle_rem) + c2 * angle_rem) / 10;
 2295              		.loc 1 509 13 view .LVU791
 2296 00ea 89FB0B23 		smull	r2, r3, r9, fp
 2297 00ee 4FEAEB7B 		asr	fp, fp, #31
 2298 00f2 CBEBA303 		rsb	r3, fp, r3, asr #2
 2299              	.LVL254:
 510:Middlewares/lvgl/src/draw/lv_img_buf.c **** 
 2300              		.loc 1 510 5 is_stmt 1 view .LVU792
 510:Middlewares/lvgl/src/draw/lv_img_buf.c **** 
 2301              		.loc 1 510 49 is_stmt 0 view .LVU793
 2302 00f6 00FB06F6 		mul	r6, r0, r6
 2303              	.LVL255:
 510:Middlewares/lvgl/src/draw/lv_img_buf.c **** 
 2304              		.loc 1 510 44 view .LVU794
 2305 00fa 08FB0166 		mla	r6, r8, r1, r6
 510:Middlewares/lvgl/src/draw/lv_img_buf.c **** 
ARM GAS  /tmp/ccTdGo64.s 			page 75


 2306              		.loc 1 510 13 view .LVU795
 2307 00fe 89FB0629 		smull	r2, r9, r9, r6
 2308 0102 F117     		asrs	r1, r6, #31
 2309 0104 C1EBA901 		rsb	r1, r1, r9, asr #2
 2310              	.LVL256:
 513:Middlewares/lvgl/src/draw/lv_img_buf.c ****     cosma = cosma >> (LV_TRIGO_SHIFT - _LV_TRANSFORM_TRIGO_SHIFT);
 2311              		.loc 1 513 5 is_stmt 1 view .LVU796
 513:Middlewares/lvgl/src/draw/lv_img_buf.c ****     cosma = cosma >> (LV_TRIGO_SHIFT - _LV_TRANSFORM_TRIGO_SHIFT);
 2312              		.loc 1 513 11 is_stmt 0 view .LVU797
 2313 0108 5B11     		asrs	r3, r3, #5
 2314              	.LVL257:
 514:Middlewares/lvgl/src/draw/lv_img_buf.c **** 
 2315              		.loc 1 514 5 is_stmt 1 view .LVU798
 514:Middlewares/lvgl/src/draw/lv_img_buf.c **** 
 2316              		.loc 1 514 11 is_stmt 0 view .LVU799
 2317 010a 4911     		asrs	r1, r1, #5
 2318              	.LVL258:
 516:Middlewares/lvgl/src/draw/lv_img_buf.c ****     lv_point_t rt;
 2319              		.loc 1 516 5 is_stmt 1 view .LVU800
 517:Middlewares/lvgl/src/draw/lv_img_buf.c ****     lv_point_t lb;
 2320              		.loc 1 517 5 view .LVU801
 518:Middlewares/lvgl/src/draw/lv_img_buf.c ****     lv_point_t rb;
 2321              		.loc 1 518 5 view .LVU802
 519:Middlewares/lvgl/src/draw/lv_img_buf.c **** 
 2322              		.loc 1 519 5 view .LVU803
 521:Middlewares/lvgl/src/draw/lv_img_buf.c ****     lv_coord_t yt;
 2323              		.loc 1 521 5 view .LVU804
 522:Middlewares/lvgl/src/draw/lv_img_buf.c **** 
 2324              		.loc 1 522 5 view .LVU805
 524:Middlewares/lvgl/src/draw/lv_img_buf.c ****     yt = res->y1;
 2325              		.loc 1 524 5 view .LVU806
 524:Middlewares/lvgl/src/draw/lv_img_buf.c ****     yt = res->y1;
 2326              		.loc 1 524 8 is_stmt 0 view .LVU807
 2327 010c B4F90060 		ldrsh	r6, [r4]
 2328              	.LVL259:
 525:Middlewares/lvgl/src/draw/lv_img_buf.c ****     lt.x = ((cosma * xt - sinma * yt) >> _LV_TRANSFORM_TRIGO_SHIFT) + pivot->x;
 2329              		.loc 1 525 5 is_stmt 1 view .LVU808
 525:Middlewares/lvgl/src/draw/lv_img_buf.c ****     lt.x = ((cosma * xt - sinma * yt) >> _LV_TRANSFORM_TRIGO_SHIFT) + pivot->x;
 2330              		.loc 1 525 8 is_stmt 0 view .LVU809
 2331 0110 B4F90220 		ldrsh	r2, [r4, #2]
 2332              	.LVL260:
 526:Middlewares/lvgl/src/draw/lv_img_buf.c ****     lt.y = ((sinma * xt + cosma * yt) >> _LV_TRANSFORM_TRIGO_SHIFT) + pivot->y;
 2333              		.loc 1 526 5 is_stmt 1 view .LVU810
 526:Middlewares/lvgl/src/draw/lv_img_buf.c ****     lt.y = ((sinma * xt + cosma * yt) >> _LV_TRANSFORM_TRIGO_SHIFT) + pivot->y;
 2334              		.loc 1 526 20 is_stmt 0 view .LVU811
 2335 0114 01FB06F7 		mul	r7, r1, r6
 526:Middlewares/lvgl/src/draw/lv_img_buf.c ****     lt.y = ((sinma * xt + cosma * yt) >> _LV_TRANSFORM_TRIGO_SHIFT) + pivot->y;
 2336              		.loc 1 526 33 view .LVU812
 2337 0118 03FB02F0 		mul	r0, r3, r2
 2338              	.LVL261:
 526:Middlewares/lvgl/src/draw/lv_img_buf.c ****     lt.y = ((sinma * xt + cosma * yt) >> _LV_TRANSFORM_TRIGO_SHIFT) + pivot->y;
 2339              		.loc 1 526 25 view .LVU813
 2340 011c A7EB0008 		sub	r8, r7, r0
 2341              	.LVL262:
 526:Middlewares/lvgl/src/draw/lv_img_buf.c ****     lt.y = ((sinma * xt + cosma * yt) >> _LV_TRANSFORM_TRIGO_SHIFT) + pivot->y;
 2342              		.loc 1 526 76 view .LVU814
 2343 0120 B5F800C0 		ldrh	ip, [r5]
ARM GAS  /tmp/ccTdGo64.s 			page 76


 526:Middlewares/lvgl/src/draw/lv_img_buf.c ****     lt.y = ((sinma * xt + cosma * yt) >> _LV_TRANSFORM_TRIGO_SHIFT) + pivot->y;
 2344              		.loc 1 526 69 view .LVU815
 2345 0124 0CEBA828 		add	r8, ip, r8, asr #10
 2346 0128 0FFA88F8 		sxth	r8, r8
 526:Middlewares/lvgl/src/draw/lv_img_buf.c ****     lt.y = ((sinma * xt + cosma * yt) >> _LV_TRANSFORM_TRIGO_SHIFT) + pivot->y;
 2347              		.loc 1 526 10 view .LVU816
 2348 012c ADF80C80 		strh	r8, [sp, #12]	@ movhi
 527:Middlewares/lvgl/src/draw/lv_img_buf.c **** 
 2349              		.loc 1 527 5 is_stmt 1 view .LVU817
 527:Middlewares/lvgl/src/draw/lv_img_buf.c **** 
 2350              		.loc 1 527 20 is_stmt 0 view .LVU818
 2351 0130 03FB06F6 		mul	r6, r3, r6
 2352              	.LVL263:
 527:Middlewares/lvgl/src/draw/lv_img_buf.c **** 
 2353              		.loc 1 527 33 view .LVU819
 2354 0134 01FB02F2 		mul	r2, r1, r2
 2355              	.LVL264:
 527:Middlewares/lvgl/src/draw/lv_img_buf.c **** 
 2356              		.loc 1 527 25 view .LVU820
 2357 0138 06EB020E 		add	lr, r6, r2
 527:Middlewares/lvgl/src/draw/lv_img_buf.c **** 
 2358              		.loc 1 527 76 view .LVU821
 2359 013c 6D88     		ldrh	r5, [r5, #2]
 527:Middlewares/lvgl/src/draw/lv_img_buf.c **** 
 2360              		.loc 1 527 69 view .LVU822
 2361 013e 05EBAE2E 		add	lr, r5, lr, asr #10
 2362 0142 0FFA8EFE 		sxth	lr, lr
 527:Middlewares/lvgl/src/draw/lv_img_buf.c **** 
 2363              		.loc 1 527 10 view .LVU823
 2364 0146 ADF80EE0 		strh	lr, [sp, #14]	@ movhi
 529:Middlewares/lvgl/src/draw/lv_img_buf.c ****     yt = res->y1;
 2365              		.loc 1 529 5 is_stmt 1 view .LVU824
 529:Middlewares/lvgl/src/draw/lv_img_buf.c ****     yt = res->y1;
 2366              		.loc 1 529 8 is_stmt 0 view .LVU825
 2367 014a B4F90490 		ldrsh	r9, [r4, #4]
 2368              	.LVL265:
 530:Middlewares/lvgl/src/draw/lv_img_buf.c ****     rt.x = ((cosma * xt - sinma * yt) >> _LV_TRANSFORM_TRIGO_SHIFT) + pivot->x;
 2369              		.loc 1 530 5 is_stmt 1 view .LVU826
 531:Middlewares/lvgl/src/draw/lv_img_buf.c ****     rt.y = ((sinma * xt + cosma * yt) >> _LV_TRANSFORM_TRIGO_SHIFT) + pivot->y;
 2370              		.loc 1 531 5 view .LVU827
 531:Middlewares/lvgl/src/draw/lv_img_buf.c ****     rt.y = ((sinma * xt + cosma * yt) >> _LV_TRANSFORM_TRIGO_SHIFT) + pivot->y;
 2371              		.loc 1 531 20 is_stmt 0 view .LVU828
 2372 014e 01FB09FB 		mul	fp, r1, r9
 531:Middlewares/lvgl/src/draw/lv_img_buf.c ****     rt.y = ((sinma * xt + cosma * yt) >> _LV_TRANSFORM_TRIGO_SHIFT) + pivot->y;
 2373              		.loc 1 531 25 view .LVU829
 2374 0152 ABEB0000 		sub	r0, fp, r0
 531:Middlewares/lvgl/src/draw/lv_img_buf.c ****     rt.y = ((sinma * xt + cosma * yt) >> _LV_TRANSFORM_TRIGO_SHIFT) + pivot->y;
 2375              		.loc 1 531 69 view .LVU830
 2376 0156 0CEBA020 		add	r0, ip, r0, asr #10
 2377 015a 00B2     		sxth	r0, r0
 531:Middlewares/lvgl/src/draw/lv_img_buf.c ****     rt.y = ((sinma * xt + cosma * yt) >> _LV_TRANSFORM_TRIGO_SHIFT) + pivot->y;
 2378              		.loc 1 531 10 view .LVU831
 2379 015c ADF80800 		strh	r0, [sp, #8]	@ movhi
 532:Middlewares/lvgl/src/draw/lv_img_buf.c **** 
 2380              		.loc 1 532 5 is_stmt 1 view .LVU832
 532:Middlewares/lvgl/src/draw/lv_img_buf.c **** 
 2381              		.loc 1 532 20 is_stmt 0 view .LVU833
ARM GAS  /tmp/ccTdGo64.s 			page 77


 2382 0160 03FB09F9 		mul	r9, r3, r9
 2383              	.LVL266:
 532:Middlewares/lvgl/src/draw/lv_img_buf.c **** 
 2384              		.loc 1 532 25 view .LVU834
 2385 0164 4A44     		add	r2, r2, r9
 532:Middlewares/lvgl/src/draw/lv_img_buf.c **** 
 2386              		.loc 1 532 69 view .LVU835
 2387 0166 05EBA222 		add	r2, r5, r2, asr #10
 2388 016a 12B2     		sxth	r2, r2
 532:Middlewares/lvgl/src/draw/lv_img_buf.c **** 
 2389              		.loc 1 532 10 view .LVU836
 2390 016c ADF80A20 		strh	r2, [sp, #10]	@ movhi
 534:Middlewares/lvgl/src/draw/lv_img_buf.c ****     yt = res->y2;
 2391              		.loc 1 534 5 is_stmt 1 view .LVU837
 2392              	.LVL267:
 535:Middlewares/lvgl/src/draw/lv_img_buf.c ****     lb.x = ((cosma * xt - sinma * yt) >> _LV_TRANSFORM_TRIGO_SHIFT) + pivot->x;
 2393              		.loc 1 535 5 view .LVU838
 535:Middlewares/lvgl/src/draw/lv_img_buf.c ****     lb.x = ((cosma * xt - sinma * yt) >> _LV_TRANSFORM_TRIGO_SHIFT) + pivot->x;
 2394              		.loc 1 535 8 is_stmt 0 view .LVU839
 2395 0170 B4F906A0 		ldrsh	r10, [r4, #6]
 2396              	.LVL268:
 536:Middlewares/lvgl/src/draw/lv_img_buf.c ****     lb.y = ((sinma * xt + cosma * yt) >> _LV_TRANSFORM_TRIGO_SHIFT) + pivot->y;
 2397              		.loc 1 536 5 is_stmt 1 view .LVU840
 536:Middlewares/lvgl/src/draw/lv_img_buf.c ****     lb.y = ((sinma * xt + cosma * yt) >> _LV_TRANSFORM_TRIGO_SHIFT) + pivot->y;
 2398              		.loc 1 536 33 is_stmt 0 view .LVU841
 2399 0174 03FB0AF3 		mul	r3, r3, r10
 2400              	.LVL269:
 536:Middlewares/lvgl/src/draw/lv_img_buf.c ****     lb.y = ((sinma * xt + cosma * yt) >> _LV_TRANSFORM_TRIGO_SHIFT) + pivot->y;
 2401              		.loc 1 536 25 view .LVU842
 2402 0178 FF1A     		subs	r7, r7, r3
 536:Middlewares/lvgl/src/draw/lv_img_buf.c ****     lb.y = ((sinma * xt + cosma * yt) >> _LV_TRANSFORM_TRIGO_SHIFT) + pivot->y;
 2403              		.loc 1 536 69 view .LVU843
 2404 017a 0CEBA727 		add	r7, ip, r7, asr #10
 2405 017e 3FB2     		sxth	r7, r7
 536:Middlewares/lvgl/src/draw/lv_img_buf.c ****     lb.y = ((sinma * xt + cosma * yt) >> _LV_TRANSFORM_TRIGO_SHIFT) + pivot->y;
 2406              		.loc 1 536 10 view .LVU844
 2407 0180 ADF80470 		strh	r7, [sp, #4]	@ movhi
 537:Middlewares/lvgl/src/draw/lv_img_buf.c **** 
 2408              		.loc 1 537 5 is_stmt 1 view .LVU845
 537:Middlewares/lvgl/src/draw/lv_img_buf.c **** 
 2409              		.loc 1 537 33 is_stmt 0 view .LVU846
 2410 0184 01FB0AF1 		mul	r1, r1, r10
 2411              	.LVL270:
 537:Middlewares/lvgl/src/draw/lv_img_buf.c **** 
 2412              		.loc 1 537 25 view .LVU847
 2413 0188 0E44     		add	r6, r6, r1
 537:Middlewares/lvgl/src/draw/lv_img_buf.c **** 
 2414              		.loc 1 537 69 view .LVU848
 2415 018a 05EBA626 		add	r6, r5, r6, asr #10
 2416 018e 36B2     		sxth	r6, r6
 537:Middlewares/lvgl/src/draw/lv_img_buf.c **** 
 2417              		.loc 1 537 10 view .LVU849
 2418 0190 ADF80660 		strh	r6, [sp, #6]	@ movhi
 539:Middlewares/lvgl/src/draw/lv_img_buf.c ****     yt = res->y2;
 2419              		.loc 1 539 5 is_stmt 1 view .LVU850
 2420              	.LVL271:
 540:Middlewares/lvgl/src/draw/lv_img_buf.c ****     rb.x = ((cosma * xt - sinma * yt) >> _LV_TRANSFORM_TRIGO_SHIFT) + pivot->x;
ARM GAS  /tmp/ccTdGo64.s 			page 78


 2421              		.loc 1 540 5 view .LVU851
 541:Middlewares/lvgl/src/draw/lv_img_buf.c ****     rb.y = ((sinma * xt + cosma * yt) >> _LV_TRANSFORM_TRIGO_SHIFT) + pivot->y;
 2422              		.loc 1 541 5 view .LVU852
 541:Middlewares/lvgl/src/draw/lv_img_buf.c ****     rb.y = ((sinma * xt + cosma * yt) >> _LV_TRANSFORM_TRIGO_SHIFT) + pivot->y;
 2423              		.loc 1 541 25 is_stmt 0 view .LVU853
 2424 0194 ABEB0303 		sub	r3, fp, r3
 541:Middlewares/lvgl/src/draw/lv_img_buf.c ****     rb.y = ((sinma * xt + cosma * yt) >> _LV_TRANSFORM_TRIGO_SHIFT) + pivot->y;
 2425              		.loc 1 541 69 view .LVU854
 2426 0198 0CEBA32C 		add	ip, ip, r3, asr #10
 2427 019c 0FFA8CFC 		sxth	ip, ip
 541:Middlewares/lvgl/src/draw/lv_img_buf.c ****     rb.y = ((sinma * xt + cosma * yt) >> _LV_TRANSFORM_TRIGO_SHIFT) + pivot->y;
 2428              		.loc 1 541 10 view .LVU855
 2429 01a0 ADF800C0 		strh	ip, [sp]	@ movhi
 542:Middlewares/lvgl/src/draw/lv_img_buf.c **** 
 2430              		.loc 1 542 5 is_stmt 1 view .LVU856
 542:Middlewares/lvgl/src/draw/lv_img_buf.c **** 
 2431              		.loc 1 542 25 is_stmt 0 view .LVU857
 2432 01a4 4944     		add	r1, r1, r9
 542:Middlewares/lvgl/src/draw/lv_img_buf.c **** 
 2433              		.loc 1 542 69 view .LVU858
 2434 01a6 05EBA125 		add	r5, r5, r1, asr #10
 2435 01aa 2DB2     		sxth	r5, r5
 542:Middlewares/lvgl/src/draw/lv_img_buf.c **** 
 2436              		.loc 1 542 10 view .LVU859
 2437 01ac ADF80250 		strh	r5, [sp, #2]	@ movhi
 544:Middlewares/lvgl/src/draw/lv_img_buf.c ****     res->x2 = LV_MAX4(lb.x, lt.x, rb.x, rt.x);
 2438              		.loc 1 544 5 is_stmt 1 view .LVU860
 544:Middlewares/lvgl/src/draw/lv_img_buf.c ****     res->x2 = LV_MAX4(lb.x, lt.x, rb.x, rt.x);
 2439              		.loc 1 544 15 is_stmt 0 view .LVU861
 2440 01b0 0346     		mov	r3, r0
 2441 01b2 6045     		cmp	r0, ip
 2442 01b4 A8BF     		it	ge
 2443 01b6 6346     		movge	r3, ip
 2444 01b8 4146     		mov	r1, r8
 2445 01ba B845     		cmp	r8, r7
 2446 01bc A8BF     		it	ge
 2447 01be 3946     		movge	r1, r7
 2448 01c0 8B42     		cmp	r3, r1
 2449 01c2 A8BF     		it	ge
 2450 01c4 0B46     		movge	r3, r1
 544:Middlewares/lvgl/src/draw/lv_img_buf.c ****     res->x2 = LV_MAX4(lb.x, lt.x, rb.x, rt.x);
 2451              		.loc 1 544 13 view .LVU862
 2452 01c6 2380     		strh	r3, [r4]	@ movhi
 545:Middlewares/lvgl/src/draw/lv_img_buf.c ****     res->y1 = LV_MIN4(lb.y, lt.y, rb.y, rt.y);
 2453              		.loc 1 545 5 is_stmt 1 view .LVU863
 545:Middlewares/lvgl/src/draw/lv_img_buf.c ****     res->y1 = LV_MIN4(lb.y, lt.y, rb.y, rt.y);
 2454              		.loc 1 545 15 is_stmt 0 view .LVU864
 2455 01c8 6045     		cmp	r0, ip
 2456 01ca B8BF     		it	lt
 2457 01cc 6046     		movlt	r0, ip
 2458 01ce 4745     		cmp	r7, r8
 2459 01d0 B8BF     		it	lt
 2460 01d2 4746     		movlt	r7, r8
 2461 01d4 B842     		cmp	r0, r7
 2462 01d6 B8BF     		it	lt
 2463 01d8 3846     		movlt	r0, r7
 545:Middlewares/lvgl/src/draw/lv_img_buf.c ****     res->y1 = LV_MIN4(lb.y, lt.y, rb.y, rt.y);
ARM GAS  /tmp/ccTdGo64.s 			page 79


 2464              		.loc 1 545 13 view .LVU865
 2465 01da A080     		strh	r0, [r4, #4]	@ movhi
 2466              	.LVL272:
 546:Middlewares/lvgl/src/draw/lv_img_buf.c ****     res->y2 = LV_MAX4(lb.y, lt.y, rb.y, rt.y);
 2467              		.loc 1 546 5 is_stmt 1 view .LVU866
 546:Middlewares/lvgl/src/draw/lv_img_buf.c ****     res->y2 = LV_MAX4(lb.y, lt.y, rb.y, rt.y);
 2468              		.loc 1 546 15 is_stmt 0 view .LVU867
 2469 01dc 1346     		mov	r3, r2
 2470 01de AA42     		cmp	r2, r5
 2471 01e0 A8BF     		it	ge
 2472 01e2 2B46     		movge	r3, r5
 2473 01e4 7146     		mov	r1, lr
 2474 01e6 B645     		cmp	lr, r6
 2475 01e8 A8BF     		it	ge
 2476 01ea 3146     		movge	r1, r6
 2477 01ec 8B42     		cmp	r3, r1
 2478 01ee A8BF     		it	ge
 2479 01f0 0B46     		movge	r3, r1
 546:Middlewares/lvgl/src/draw/lv_img_buf.c ****     res->y2 = LV_MAX4(lb.y, lt.y, rb.y, rt.y);
 2480              		.loc 1 546 13 view .LVU868
 2481 01f2 6380     		strh	r3, [r4, #2]	@ movhi
 547:Middlewares/lvgl/src/draw/lv_img_buf.c **** #else
 2482              		.loc 1 547 5 is_stmt 1 view .LVU869
 547:Middlewares/lvgl/src/draw/lv_img_buf.c **** #else
 2483              		.loc 1 547 15 is_stmt 0 view .LVU870
 2484 01f4 AA42     		cmp	r2, r5
 2485 01f6 B8BF     		it	lt
 2486 01f8 2A46     		movlt	r2, r5
 2487 01fa 7645     		cmp	r6, lr
 2488 01fc B8BF     		it	lt
 2489 01fe 7646     		movlt	r6, lr
 2490 0200 B242     		cmp	r2, r6
 2491 0202 B8BF     		it	lt
 2492 0204 3246     		movlt	r2, r6
 547:Middlewares/lvgl/src/draw/lv_img_buf.c **** #else
 2493              		.loc 1 547 13 view .LVU871
 2494 0206 E280     		strh	r2, [r4, #6]	@ movhi
 2495 0208 3BE7     		b	.L120
 2496              	.L128:
 2497 020a 00BF     		.align	2
 2498              	.L127:
 2499 020c 67666666 		.word	1717986919
 2500              		.cfi_endproc
 2501              	.LFE57:
 2503              		.section	.text._lv_img_buf_transform_anti_alias,"ax",%progbits
 2504              		.align	1
 2505              		.global	_lv_img_buf_transform_anti_alias
 2506              		.syntax unified
 2507              		.thumb
 2508              		.thumb_func
 2509              		.fpu fpv4-sp-d16
 2511              	_lv_img_buf_transform_anti_alias:
 2512              	.LVL273:
 2513              	.LFB59:
 558:Middlewares/lvgl/src/draw/lv_img_buf.c **** 
 559:Middlewares/lvgl/src/draw/lv_img_buf.c **** 
 560:Middlewares/lvgl/src/draw/lv_img_buf.c **** #if LV_DRAW_COMPLEX
ARM GAS  /tmp/ccTdGo64.s 			page 80


 561:Middlewares/lvgl/src/draw/lv_img_buf.c **** /**
 562:Middlewares/lvgl/src/draw/lv_img_buf.c ****  * Get which color and opa would come to a pixel if it were rotated
 563:Middlewares/lvgl/src/draw/lv_img_buf.c ****  * @param dsc a descriptor initialized by `lv_img_buf_rotate_init`
 564:Middlewares/lvgl/src/draw/lv_img_buf.c ****  * @param x the coordinate which color and opa should be get
 565:Middlewares/lvgl/src/draw/lv_img_buf.c ****  * @param y the coordinate which color and opa should be get
 566:Middlewares/lvgl/src/draw/lv_img_buf.c ****  * @return true: there is valid pixel on these x/y coordinates; false: the rotated pixel was out of
 567:Middlewares/lvgl/src/draw/lv_img_buf.c ****  * @note the result is written back to `dsc->res_color` and `dsc->res_opa`
 568:Middlewares/lvgl/src/draw/lv_img_buf.c ****  */
 569:Middlewares/lvgl/src/draw/lv_img_buf.c **** bool _lv_img_buf_transform(lv_img_transform_dsc_t * dsc, lv_coord_t x, lv_coord_t y)
 570:Middlewares/lvgl/src/draw/lv_img_buf.c **** {
 571:Middlewares/lvgl/src/draw/lv_img_buf.c ****     const uint8_t * src_u8 = (const uint8_t *)dsc->cfg.src;
 572:Middlewares/lvgl/src/draw/lv_img_buf.c **** 
 573:Middlewares/lvgl/src/draw/lv_img_buf.c ****     /*Get the target point relative coordinates to the pivot*/
 574:Middlewares/lvgl/src/draw/lv_img_buf.c ****     int32_t xt = x - dsc->cfg.pivot_x;
 575:Middlewares/lvgl/src/draw/lv_img_buf.c ****     int32_t yt = y - dsc->cfg.pivot_y;
 576:Middlewares/lvgl/src/draw/lv_img_buf.c **** 
 577:Middlewares/lvgl/src/draw/lv_img_buf.c ****     int32_t xs;
 578:Middlewares/lvgl/src/draw/lv_img_buf.c ****     int32_t ys;
 579:Middlewares/lvgl/src/draw/lv_img_buf.c ****     if(dsc->cfg.zoom == LV_IMG_ZOOM_NONE) {
 580:Middlewares/lvgl/src/draw/lv_img_buf.c ****         /*Get the source pixel from the upscaled image*/
 581:Middlewares/lvgl/src/draw/lv_img_buf.c ****         xs = ((dsc->tmp.cosma * xt - dsc->tmp.sinma * yt) >> (_LV_TRANSFORM_TRIGO_SHIFT - 8)) + dsc
 582:Middlewares/lvgl/src/draw/lv_img_buf.c ****         ys = ((dsc->tmp.sinma * xt + dsc->tmp.cosma * yt) >> (_LV_TRANSFORM_TRIGO_SHIFT - 8)) + dsc
 583:Middlewares/lvgl/src/draw/lv_img_buf.c ****     }
 584:Middlewares/lvgl/src/draw/lv_img_buf.c ****     else if(dsc->cfg.angle == 0) {
 585:Middlewares/lvgl/src/draw/lv_img_buf.c ****         xt = (int32_t)((int32_t)xt * dsc->tmp.zoom_inv) >> _LV_ZOOM_INV_UPSCALE;
 586:Middlewares/lvgl/src/draw/lv_img_buf.c ****         yt = (int32_t)((int32_t)yt * dsc->tmp.zoom_inv) >> _LV_ZOOM_INV_UPSCALE;
 587:Middlewares/lvgl/src/draw/lv_img_buf.c ****         xs = xt + dsc->tmp.pivot_x_256;
 588:Middlewares/lvgl/src/draw/lv_img_buf.c ****         ys = yt + dsc->tmp.pivot_y_256;
 589:Middlewares/lvgl/src/draw/lv_img_buf.c ****     }
 590:Middlewares/lvgl/src/draw/lv_img_buf.c ****     else {
 591:Middlewares/lvgl/src/draw/lv_img_buf.c ****         xt = (int32_t)((int32_t)xt * dsc->tmp.zoom_inv) >> _LV_ZOOM_INV_UPSCALE;
 592:Middlewares/lvgl/src/draw/lv_img_buf.c ****         yt = (int32_t)((int32_t)yt * dsc->tmp.zoom_inv) >> _LV_ZOOM_INV_UPSCALE;
 593:Middlewares/lvgl/src/draw/lv_img_buf.c ****         xs = ((dsc->tmp.cosma * xt - dsc->tmp.sinma * yt) >> (_LV_TRANSFORM_TRIGO_SHIFT)) + dsc->tm
 594:Middlewares/lvgl/src/draw/lv_img_buf.c ****         ys = ((dsc->tmp.sinma * xt + dsc->tmp.cosma * yt) >> (_LV_TRANSFORM_TRIGO_SHIFT)) + dsc->tm
 595:Middlewares/lvgl/src/draw/lv_img_buf.c ****     }
 596:Middlewares/lvgl/src/draw/lv_img_buf.c **** 
 597:Middlewares/lvgl/src/draw/lv_img_buf.c ****     /*Get the integer part of the source pixel*/
 598:Middlewares/lvgl/src/draw/lv_img_buf.c ****     int32_t xs_int = xs >> 8;
 599:Middlewares/lvgl/src/draw/lv_img_buf.c ****     int32_t ys_int = ys >> 8;
 600:Middlewares/lvgl/src/draw/lv_img_buf.c **** 
 601:Middlewares/lvgl/src/draw/lv_img_buf.c ****     if(xs_int >= dsc->cfg.src_w) return false;
 602:Middlewares/lvgl/src/draw/lv_img_buf.c ****     else if(xs_int < 0) return false;
 603:Middlewares/lvgl/src/draw/lv_img_buf.c **** 
 604:Middlewares/lvgl/src/draw/lv_img_buf.c ****     if(ys_int >= dsc->cfg.src_h) return false;
 605:Middlewares/lvgl/src/draw/lv_img_buf.c ****     else if(ys_int < 0) return false;
 606:Middlewares/lvgl/src/draw/lv_img_buf.c **** 
 607:Middlewares/lvgl/src/draw/lv_img_buf.c ****     uint8_t px_size;
 608:Middlewares/lvgl/src/draw/lv_img_buf.c ****     uint32_t pxi;
 609:Middlewares/lvgl/src/draw/lv_img_buf.c ****     if(dsc->tmp.native_color) {
 610:Middlewares/lvgl/src/draw/lv_img_buf.c ****         if(dsc->tmp.has_alpha == 0) {
 611:Middlewares/lvgl/src/draw/lv_img_buf.c ****             px_size = LV_COLOR_SIZE >> 3;
 612:Middlewares/lvgl/src/draw/lv_img_buf.c **** 
 613:Middlewares/lvgl/src/draw/lv_img_buf.c ****             pxi     = dsc->cfg.src_w * ys_int * px_size + xs_int * px_size;
 614:Middlewares/lvgl/src/draw/lv_img_buf.c ****             lv_memcpy_small(&dsc->res.color, &src_u8[pxi], px_size);
 615:Middlewares/lvgl/src/draw/lv_img_buf.c ****         }
 616:Middlewares/lvgl/src/draw/lv_img_buf.c ****         else {
 617:Middlewares/lvgl/src/draw/lv_img_buf.c ****             px_size = LV_IMG_PX_SIZE_ALPHA_BYTE;
ARM GAS  /tmp/ccTdGo64.s 			page 81


 618:Middlewares/lvgl/src/draw/lv_img_buf.c ****             pxi     = dsc->cfg.src_w * ys_int * px_size + xs_int * px_size;
 619:Middlewares/lvgl/src/draw/lv_img_buf.c ****             lv_memcpy_small(&dsc->res.color, &src_u8[pxi], px_size - 1);
 620:Middlewares/lvgl/src/draw/lv_img_buf.c ****             dsc->res.opa = src_u8[pxi + px_size - 1];
 621:Middlewares/lvgl/src/draw/lv_img_buf.c ****         }
 622:Middlewares/lvgl/src/draw/lv_img_buf.c ****     }
 623:Middlewares/lvgl/src/draw/lv_img_buf.c ****     else {
 624:Middlewares/lvgl/src/draw/lv_img_buf.c ****         pxi = 0; /*unused*/
 625:Middlewares/lvgl/src/draw/lv_img_buf.c ****         px_size = 0;    /*unused*/
 626:Middlewares/lvgl/src/draw/lv_img_buf.c ****         dsc->res.color = lv_img_buf_get_px_color(&dsc->tmp.img_dsc, xs_int, ys_int, dsc->cfg.color)
 627:Middlewares/lvgl/src/draw/lv_img_buf.c ****         dsc->res.opa = lv_img_buf_get_px_alpha(&dsc->tmp.img_dsc, xs_int, ys_int);
 628:Middlewares/lvgl/src/draw/lv_img_buf.c ****     }
 629:Middlewares/lvgl/src/draw/lv_img_buf.c **** 
 630:Middlewares/lvgl/src/draw/lv_img_buf.c ****     if(dsc->tmp.chroma_keyed) {
 631:Middlewares/lvgl/src/draw/lv_img_buf.c ****         lv_color_t ct = LV_COLOR_CHROMA_KEY;
 632:Middlewares/lvgl/src/draw/lv_img_buf.c ****         if(dsc->res.color.full == ct.full) return false;
 633:Middlewares/lvgl/src/draw/lv_img_buf.c ****     }
 634:Middlewares/lvgl/src/draw/lv_img_buf.c **** 
 635:Middlewares/lvgl/src/draw/lv_img_buf.c ****     if(dsc->cfg.antialias == false) return true;
 636:Middlewares/lvgl/src/draw/lv_img_buf.c **** 
 637:Middlewares/lvgl/src/draw/lv_img_buf.c ****     dsc->tmp.xs = xs;
 638:Middlewares/lvgl/src/draw/lv_img_buf.c ****     dsc->tmp.ys = ys;
 639:Middlewares/lvgl/src/draw/lv_img_buf.c ****     dsc->tmp.xs_int = xs_int;
 640:Middlewares/lvgl/src/draw/lv_img_buf.c ****     dsc->tmp.ys_int = ys_int;
 641:Middlewares/lvgl/src/draw/lv_img_buf.c ****     dsc->tmp.pxi = pxi;
 642:Middlewares/lvgl/src/draw/lv_img_buf.c ****     dsc->tmp.px_size = px_size;
 643:Middlewares/lvgl/src/draw/lv_img_buf.c **** 
 644:Middlewares/lvgl/src/draw/lv_img_buf.c ****     bool ret;
 645:Middlewares/lvgl/src/draw/lv_img_buf.c ****     ret = _lv_img_buf_transform_anti_alias(dsc);
 646:Middlewares/lvgl/src/draw/lv_img_buf.c **** 
 647:Middlewares/lvgl/src/draw/lv_img_buf.c ****     return ret;
 648:Middlewares/lvgl/src/draw/lv_img_buf.c **** }
 649:Middlewares/lvgl/src/draw/lv_img_buf.c **** 
 650:Middlewares/lvgl/src/draw/lv_img_buf.c **** /**
 651:Middlewares/lvgl/src/draw/lv_img_buf.c ****  * Continue transformation by taking the neighbors into account
 652:Middlewares/lvgl/src/draw/lv_img_buf.c ****  * @param dsc pointer to the transformation descriptor
 653:Middlewares/lvgl/src/draw/lv_img_buf.c ****  */
 654:Middlewares/lvgl/src/draw/lv_img_buf.c **** bool _lv_img_buf_transform_anti_alias(lv_img_transform_dsc_t * dsc)
 655:Middlewares/lvgl/src/draw/lv_img_buf.c **** {
 2514              		.loc 1 655 1 is_stmt 1 view -0
 2515              		.cfi_startproc
 2516              		@ args = 0, pretend = 0, frame = 32
 2517              		@ frame_needed = 0, uses_anonymous_args = 0
 2518              		.loc 1 655 1 is_stmt 0 view .LVU873
 2519 0000 2DE9F04F 		push	{r4, r5, r6, r7, r8, r9, r10, fp, lr}
 2520              	.LCFI27:
 2521              		.cfi_def_cfa_offset 36
 2522              		.cfi_offset 4, -36
 2523              		.cfi_offset 5, -32
 2524              		.cfi_offset 6, -28
 2525              		.cfi_offset 7, -24
 2526              		.cfi_offset 8, -20
 2527              		.cfi_offset 9, -16
 2528              		.cfi_offset 10, -12
 2529              		.cfi_offset 11, -8
 2530              		.cfi_offset 14, -4
 2531 0004 89B0     		sub	sp, sp, #36
 2532              	.LCFI28:
ARM GAS  /tmp/ccTdGo64.s 			page 82


 2533              		.cfi_def_cfa_offset 72
 2534 0006 0446     		mov	r4, r0
 656:Middlewares/lvgl/src/draw/lv_img_buf.c ****     const uint8_t * src_u8 = dsc->cfg.src;
 2535              		.loc 1 656 5 is_stmt 1 view .LVU874
 2536              		.loc 1 656 21 is_stmt 0 view .LVU875
 2537 0008 0268     		ldr	r2, [r0]
 2538              	.LVL274:
 657:Middlewares/lvgl/src/draw/lv_img_buf.c **** 
 658:Middlewares/lvgl/src/draw/lv_img_buf.c ****     /*Get the fractional part of the source pixel*/
 659:Middlewares/lvgl/src/draw/lv_img_buf.c ****     int xs_fract = dsc->tmp.xs & 0xff;
 2539              		.loc 1 659 5 is_stmt 1 view .LVU876
 2540              		.loc 1 659 28 is_stmt 0 view .LVU877
 2541 000a B0F93C50 		ldrsh	r5, [r0, #60]
 2542              		.loc 1 659 9 view .LVU878
 2543 000e E9B2     		uxtb	r1, r5
 2544              	.LVL275:
 660:Middlewares/lvgl/src/draw/lv_img_buf.c ****     int ys_fract = dsc->tmp.ys & 0xff;
 2545              		.loc 1 660 5 is_stmt 1 view .LVU879
 2546              		.loc 1 660 28 is_stmt 0 view .LVU880
 2547 0010 B0F93E60 		ldrsh	r6, [r0, #62]
 2548              		.loc 1 660 9 view .LVU881
 2549 0014 F3B2     		uxtb	r3, r6
 2550              	.LVL276:
 661:Middlewares/lvgl/src/draw/lv_img_buf.c ****     int32_t xn;      /*x neighbor*/
 2551              		.loc 1 661 5 is_stmt 1 view .LVU882
 662:Middlewares/lvgl/src/draw/lv_img_buf.c ****     lv_opa_t xr; /*x mix ratio*/
 2552              		.loc 1 662 5 view .LVU883
 663:Middlewares/lvgl/src/draw/lv_img_buf.c **** 
 664:Middlewares/lvgl/src/draw/lv_img_buf.c ****     if(xs_fract < 0x70) {
 2553              		.loc 1 664 5 view .LVU884
 2554              		.loc 1 664 7 is_stmt 0 view .LVU885
 2555 0016 6F29     		cmp	r1, #111
 2556 0018 28DC     		bgt	.L130
 665:Middlewares/lvgl/src/draw/lv_img_buf.c ****         xn = - 1;
 2557              		.loc 1 665 9 is_stmt 1 view .LVU886
 2558              	.LVL277:
 666:Middlewares/lvgl/src/draw/lv_img_buf.c ****         if(dsc->tmp.xs_int + xn < 0) xn = 0;
 2559              		.loc 1 666 9 view .LVU887
 2560              		.loc 1 666 20 is_stmt 0 view .LVU888
 2561 001a B0F94010 		ldrsh	r1, [r0, #64]
 2562              	.LVL278:
 2563              		.loc 1 666 11 view .LVU889
 2564 001e 0029     		cmp	r1, #0
 2565 0020 22DD     		ble	.L163
 665:Middlewares/lvgl/src/draw/lv_img_buf.c ****         xn = - 1;
 2566              		.loc 1 665 12 view .LVU890
 2567 0022 4FF0FF37 		mov	r7, #-1
 2568              	.L131:
 2569              	.LVL279:
 667:Middlewares/lvgl/src/draw/lv_img_buf.c ****         xr = xs_fract + 0x80;
 2570              		.loc 1 667 9 is_stmt 1 view .LVU891
 2571              		.loc 1 667 23 is_stmt 0 view .LVU892
 2572 0026 EDB2     		uxtb	r5, r5
 2573              		.loc 1 667 12 view .LVU893
 2574 0028 85F08005 		eor	r5, r5, #128
 2575              	.LVL280:
 2576              	.L132:
ARM GAS  /tmp/ccTdGo64.s 			page 83


 668:Middlewares/lvgl/src/draw/lv_img_buf.c ****     }
 669:Middlewares/lvgl/src/draw/lv_img_buf.c ****     else if(xs_fract > 0x90) {
 670:Middlewares/lvgl/src/draw/lv_img_buf.c ****         xn =  1;
 671:Middlewares/lvgl/src/draw/lv_img_buf.c ****         if(dsc->tmp.xs_int + xn >= dsc->cfg.src_w) xn = 0;
 672:Middlewares/lvgl/src/draw/lv_img_buf.c ****         xr = (0xFF - xs_fract) + 0x80;
 673:Middlewares/lvgl/src/draw/lv_img_buf.c ****     }
 674:Middlewares/lvgl/src/draw/lv_img_buf.c ****     else {
 675:Middlewares/lvgl/src/draw/lv_img_buf.c ****         xn = 0;
 676:Middlewares/lvgl/src/draw/lv_img_buf.c ****         xr = 0xFF;
 677:Middlewares/lvgl/src/draw/lv_img_buf.c ****     }
 678:Middlewares/lvgl/src/draw/lv_img_buf.c **** 
 679:Middlewares/lvgl/src/draw/lv_img_buf.c ****     int32_t yn;      /*x neighbor*/
 2577              		.loc 1 679 5 is_stmt 1 view .LVU894
 680:Middlewares/lvgl/src/draw/lv_img_buf.c ****     lv_opa_t yr; /*x mix ratio*/
 2578              		.loc 1 680 5 view .LVU895
 681:Middlewares/lvgl/src/draw/lv_img_buf.c **** 
 682:Middlewares/lvgl/src/draw/lv_img_buf.c ****     if(ys_fract < 0x70) {
 2579              		.loc 1 682 5 view .LVU896
 2580              		.loc 1 682 7 is_stmt 0 view .LVU897
 2581 002c 6F2B     		cmp	r3, #111
 2582 002e 34DC     		bgt	.L134
 683:Middlewares/lvgl/src/draw/lv_img_buf.c ****         yn = - 1;
 2583              		.loc 1 683 9 is_stmt 1 view .LVU898
 2584              	.LVL281:
 684:Middlewares/lvgl/src/draw/lv_img_buf.c ****         if(dsc->tmp.ys_int + yn < 0) yn = 0;
 2585              		.loc 1 684 9 view .LVU899
 2586              		.loc 1 684 20 is_stmt 0 view .LVU900
 2587 0030 B4F94230 		ldrsh	r3, [r4, #66]
 2588              	.LVL282:
 2589              		.loc 1 684 11 view .LVU901
 2590 0034 002B     		cmp	r3, #0
 2591 0036 2DDD     		ble	.L166
 683:Middlewares/lvgl/src/draw/lv_img_buf.c ****         yn = - 1;
 2592              		.loc 1 683 12 view .LVU902
 2593 0038 4FF0FF39 		mov	r9, #-1
 2594              	.L135:
 2595              	.LVL283:
 685:Middlewares/lvgl/src/draw/lv_img_buf.c **** 
 686:Middlewares/lvgl/src/draw/lv_img_buf.c ****         yr = ys_fract + 0x80;
 2596              		.loc 1 686 9 is_stmt 1 view .LVU903
 2597              		.loc 1 686 23 is_stmt 0 view .LVU904
 2598 003c F6B2     		uxtb	r6, r6
 2599              		.loc 1 686 12 view .LVU905
 2600 003e 86F08006 		eor	r6, r6, #128
 2601              	.LVL284:
 2602              	.L136:
 687:Middlewares/lvgl/src/draw/lv_img_buf.c ****     }
 688:Middlewares/lvgl/src/draw/lv_img_buf.c ****     else if(ys_fract > 0x90) {
 689:Middlewares/lvgl/src/draw/lv_img_buf.c ****         yn =  1;
 690:Middlewares/lvgl/src/draw/lv_img_buf.c ****         if(dsc->tmp.ys_int + yn >= dsc->cfg.src_h) yn = 0;
 691:Middlewares/lvgl/src/draw/lv_img_buf.c **** 
 692:Middlewares/lvgl/src/draw/lv_img_buf.c ****         yr = (0xFF - ys_fract) + 0x80;
 693:Middlewares/lvgl/src/draw/lv_img_buf.c ****     }
 694:Middlewares/lvgl/src/draw/lv_img_buf.c ****     else {
 695:Middlewares/lvgl/src/draw/lv_img_buf.c ****         yn = 0;
 696:Middlewares/lvgl/src/draw/lv_img_buf.c ****         yr = 0xFF;
 697:Middlewares/lvgl/src/draw/lv_img_buf.c ****     }
ARM GAS  /tmp/ccTdGo64.s 			page 84


 698:Middlewares/lvgl/src/draw/lv_img_buf.c **** 
 699:Middlewares/lvgl/src/draw/lv_img_buf.c ****     lv_color_t c00 = dsc->res.color;
 2603              		.loc 1 699 5 is_stmt 1 view .LVU906
 2604              		.loc 1 699 16 is_stmt 0 view .LVU907
 2605 0042 B4F814A0 		ldrh	r10, [r4, #20]
 700:Middlewares/lvgl/src/draw/lv_img_buf.c ****     lv_color_t c01;
 2606              		.loc 1 700 5 is_stmt 1 view .LVU908
 701:Middlewares/lvgl/src/draw/lv_img_buf.c ****     lv_color_t c10;
 2607              		.loc 1 701 5 view .LVU909
 702:Middlewares/lvgl/src/draw/lv_img_buf.c ****     lv_color_t c11;
 2608              		.loc 1 702 5 view .LVU910
 703:Middlewares/lvgl/src/draw/lv_img_buf.c **** 
 704:Middlewares/lvgl/src/draw/lv_img_buf.c ****     lv_opa_t a00 = dsc->res.opa;
 2609              		.loc 1 704 5 view .LVU911
 2610              		.loc 1 704 14 is_stmt 0 view .LVU912
 2611 0046 94F816B0 		ldrb	fp, [r4, #22]	@ zero_extendqisi2
 2612              	.LVL285:
 705:Middlewares/lvgl/src/draw/lv_img_buf.c ****     lv_opa_t a10 = 0;
 2613              		.loc 1 705 5 is_stmt 1 view .LVU913
 706:Middlewares/lvgl/src/draw/lv_img_buf.c ****     lv_opa_t a01 = 0;
 2614              		.loc 1 706 5 view .LVU914
 707:Middlewares/lvgl/src/draw/lv_img_buf.c ****     lv_opa_t a11 = 0;
 2615              		.loc 1 707 5 view .LVU915
 708:Middlewares/lvgl/src/draw/lv_img_buf.c **** 
 709:Middlewares/lvgl/src/draw/lv_img_buf.c ****     if(dsc->tmp.native_color) {
 2616              		.loc 1 709 5 view .LVU916
 2617              		.loc 1 709 8 is_stmt 0 view .LVU917
 2618 004a 94F83430 		ldrb	r3, [r4, #52]	@ zero_extendqisi2
 2619              		.loc 1 709 7 view .LVU918
 2620 004e 13F0040F 		tst	r3, #4
 2621 0052 00F0C180 		beq	.L138
 710:Middlewares/lvgl/src/draw/lv_img_buf.c ****         lv_memcpy_small(&c01, &src_u8[dsc->tmp.pxi + dsc->tmp.px_size * xn], sizeof(lv_color_t));
 2622              		.loc 1 710 9 is_stmt 1 view .LVU919
 2623              		.loc 1 710 47 is_stmt 0 view .LVU920
 2624 0056 616C     		ldr	r1, [r4, #68]
 2625              		.loc 1 710 62 view .LVU921
 2626 0058 94F84830 		ldrb	r3, [r4, #72]	@ zero_extendqisi2
 2627              		.loc 1 710 52 view .LVU922
 2628 005c 07FB0311 		mla	r1, r7, r3, r1
 2629              		.loc 1 710 31 view .LVU923
 2630 0060 1144     		add	r1, r1, r2
 2631              	.LVL286:
 2632              	.LBB99:
 2633              	.LBI99:
 201:Middlewares/lvgl/src/draw/../misc/lv_mem.h **** {
 2634              		.loc 3 201 44 is_stmt 1 view .LVU924
 2635              	.LBB100:
 203:Middlewares/lvgl/src/draw/../misc/lv_mem.h ****     const uint8_t * s8 = (const uint8_t *)src;
 2636              		.loc 3 203 5 view .LVU925
 204:Middlewares/lvgl/src/draw/../misc/lv_mem.h **** 
 2637              		.loc 3 204 5 view .LVU926
 206:Middlewares/lvgl/src/draw/../misc/lv_mem.h ****         *d8 = *s8;
 2638              		.loc 3 206 5 view .LVU927
 203:Middlewares/lvgl/src/draw/../misc/lv_mem.h ****     const uint8_t * s8 = (const uint8_t *)src;
 2639              		.loc 3 203 15 is_stmt 0 view .LVU928
 2640 0062 07A8     		add	r0, sp, #28
 2641              	.LVL287:
ARM GAS  /tmp/ccTdGo64.s 			page 85


 206:Middlewares/lvgl/src/draw/../misc/lv_mem.h ****         *d8 = *s8;
 2642              		.loc 3 206 10 view .LVU929
 2643 0064 0223     		movs	r3, #2
 2644 0066 34E0     		b	.L139
 2645              	.LVL288:
 2646              	.L163:
 206:Middlewares/lvgl/src/draw/../misc/lv_mem.h ****         *d8 = *s8;
 2647              		.loc 3 206 10 view .LVU930
 2648              	.LBE100:
 2649              	.LBE99:
 666:Middlewares/lvgl/src/draw/lv_img_buf.c ****         xr = xs_fract + 0x80;
 2650              		.loc 1 666 41 view .LVU931
 2651 0068 0027     		movs	r7, #0
 2652 006a DCE7     		b	.L131
 2653              	.LVL289:
 2654              	.L130:
 669:Middlewares/lvgl/src/draw/lv_img_buf.c ****         xn =  1;
 2655              		.loc 1 669 10 is_stmt 1 view .LVU932
 669:Middlewares/lvgl/src/draw/lv_img_buf.c ****         xn =  1;
 2656              		.loc 1 669 12 is_stmt 0 view .LVU933
 2657 006c 9029     		cmp	r1, #144
 2658 006e 0EDD     		ble	.L164
 670:Middlewares/lvgl/src/draw/lv_img_buf.c ****         if(dsc->tmp.xs_int + xn >= dsc->cfg.src_w) xn = 0;
 2659              		.loc 1 670 9 is_stmt 1 view .LVU934
 2660              	.LVL290:
 671:Middlewares/lvgl/src/draw/lv_img_buf.c ****         xr = (0xFF - xs_fract) + 0x80;
 2661              		.loc 1 671 9 view .LVU935
 671:Middlewares/lvgl/src/draw/lv_img_buf.c ****         xr = (0xFF - xs_fract) + 0x80;
 2662              		.loc 1 671 20 is_stmt 0 view .LVU936
 2663 0070 B0F94010 		ldrsh	r1, [r0, #64]
 2664              	.LVL291:
 671:Middlewares/lvgl/src/draw/lv_img_buf.c ****         xr = (0xFF - xs_fract) + 0x80;
 2665              		.loc 1 671 28 view .LVU937
 2666 0074 0131     		adds	r1, r1, #1
 671:Middlewares/lvgl/src/draw/lv_img_buf.c ****         xr = (0xFF - xs_fract) + 0x80;
 2667              		.loc 1 671 44 view .LVU938
 2668 0076 B0F90400 		ldrsh	r0, [r0, #4]
 2669              	.LVL292:
 671:Middlewares/lvgl/src/draw/lv_img_buf.c ****         xr = (0xFF - xs_fract) + 0x80;
 2670              		.loc 1 671 11 view .LVU939
 2671 007a 8142     		cmp	r1, r0
 2672 007c 05DA     		bge	.L165
 670:Middlewares/lvgl/src/draw/lv_img_buf.c ****         if(dsc->tmp.xs_int + xn >= dsc->cfg.src_w) xn = 0;
 2673              		.loc 1 670 12 view .LVU940
 2674 007e 0127     		movs	r7, #1
 2675              	.L133:
 2676              	.LVL293:
 672:Middlewares/lvgl/src/draw/lv_img_buf.c ****     }
 2677              		.loc 1 672 9 is_stmt 1 view .LVU941
 672:Middlewares/lvgl/src/draw/lv_img_buf.c ****     }
 2678              		.loc 1 672 32 is_stmt 0 view .LVU942
 2679 0080 EDB2     		uxtb	r5, r5
 672:Middlewares/lvgl/src/draw/lv_img_buf.c ****     }
 2680              		.loc 1 672 12 view .LVU943
 2681 0082 C5F17F05 		rsb	r5, r5, #127
 2682              	.LVL294:
 672:Middlewares/lvgl/src/draw/lv_img_buf.c ****     }
ARM GAS  /tmp/ccTdGo64.s 			page 86


 2683              		.loc 1 672 12 view .LVU944
 2684 0086 EDB2     		uxtb	r5, r5
 2685              	.LVL295:
 672:Middlewares/lvgl/src/draw/lv_img_buf.c ****     }
 2686              		.loc 1 672 12 view .LVU945
 2687 0088 D0E7     		b	.L132
 2688              	.LVL296:
 2689              	.L165:
 671:Middlewares/lvgl/src/draw/lv_img_buf.c ****         xr = (0xFF - xs_fract) + 0x80;
 2690              		.loc 1 671 55 view .LVU946
 2691 008a 0027     		movs	r7, #0
 2692 008c F8E7     		b	.L133
 2693              	.LVL297:
 2694              	.L164:
 676:Middlewares/lvgl/src/draw/lv_img_buf.c ****     }
 2695              		.loc 1 676 12 view .LVU947
 2696 008e FF25     		movs	r5, #255
 675:Middlewares/lvgl/src/draw/lv_img_buf.c ****         xr = 0xFF;
 2697              		.loc 1 675 12 view .LVU948
 2698 0090 0027     		movs	r7, #0
 2699 0092 CBE7     		b	.L132
 2700              	.LVL298:
 2701              	.L166:
 684:Middlewares/lvgl/src/draw/lv_img_buf.c **** 
 2702              		.loc 1 684 41 view .LVU949
 2703 0094 4FF00009 		mov	r9, #0
 2704 0098 D0E7     		b	.L135
 2705              	.LVL299:
 2706              	.L134:
 688:Middlewares/lvgl/src/draw/lv_img_buf.c ****         yn =  1;
 2707              		.loc 1 688 10 is_stmt 1 view .LVU950
 688:Middlewares/lvgl/src/draw/lv_img_buf.c ****         yn =  1;
 2708              		.loc 1 688 12 is_stmt 0 view .LVU951
 2709 009a 902B     		cmp	r3, #144
 2710 009c 10DD     		ble	.L167
 689:Middlewares/lvgl/src/draw/lv_img_buf.c ****         if(dsc->tmp.ys_int + yn >= dsc->cfg.src_h) yn = 0;
 2711              		.loc 1 689 9 is_stmt 1 view .LVU952
 2712              	.LVL300:
 690:Middlewares/lvgl/src/draw/lv_img_buf.c **** 
 2713              		.loc 1 690 9 view .LVU953
 690:Middlewares/lvgl/src/draw/lv_img_buf.c **** 
 2714              		.loc 1 690 20 is_stmt 0 view .LVU954
 2715 009e B4F94230 		ldrsh	r3, [r4, #66]
 2716              	.LVL301:
 690:Middlewares/lvgl/src/draw/lv_img_buf.c **** 
 2717              		.loc 1 690 28 view .LVU955
 2718 00a2 0133     		adds	r3, r3, #1
 690:Middlewares/lvgl/src/draw/lv_img_buf.c **** 
 2719              		.loc 1 690 44 view .LVU956
 2720 00a4 B4F90610 		ldrsh	r1, [r4, #6]
 690:Middlewares/lvgl/src/draw/lv_img_buf.c **** 
 2721              		.loc 1 690 11 view .LVU957
 2722 00a8 8B42     		cmp	r3, r1
 2723 00aa 06DA     		bge	.L168
 689:Middlewares/lvgl/src/draw/lv_img_buf.c ****         if(dsc->tmp.ys_int + yn >= dsc->cfg.src_h) yn = 0;
 2724              		.loc 1 689 12 view .LVU958
 2725 00ac 4FF00109 		mov	r9, #1
ARM GAS  /tmp/ccTdGo64.s 			page 87


 2726              	.L137:
 2727              	.LVL302:
 692:Middlewares/lvgl/src/draw/lv_img_buf.c ****     }
 2728              		.loc 1 692 9 is_stmt 1 view .LVU959
 692:Middlewares/lvgl/src/draw/lv_img_buf.c ****     }
 2729              		.loc 1 692 32 is_stmt 0 view .LVU960
 2730 00b0 F6B2     		uxtb	r6, r6
 692:Middlewares/lvgl/src/draw/lv_img_buf.c ****     }
 2731              		.loc 1 692 12 view .LVU961
 2732 00b2 C6F17F06 		rsb	r6, r6, #127
 2733              	.LVL303:
 692:Middlewares/lvgl/src/draw/lv_img_buf.c ****     }
 2734              		.loc 1 692 12 view .LVU962
 2735 00b6 F6B2     		uxtb	r6, r6
 2736              	.LVL304:
 692:Middlewares/lvgl/src/draw/lv_img_buf.c ****     }
 2737              		.loc 1 692 12 view .LVU963
 2738 00b8 C3E7     		b	.L136
 2739              	.LVL305:
 2740              	.L168:
 690:Middlewares/lvgl/src/draw/lv_img_buf.c **** 
 2741              		.loc 1 690 55 view .LVU964
 2742 00ba 4FF00009 		mov	r9, #0
 2743 00be F7E7     		b	.L137
 2744              	.LVL306:
 2745              	.L167:
 696:Middlewares/lvgl/src/draw/lv_img_buf.c ****     }
 2746              		.loc 1 696 12 view .LVU965
 2747 00c0 FF26     		movs	r6, #255
 695:Middlewares/lvgl/src/draw/lv_img_buf.c ****         yr = 0xFF;
 2748              		.loc 1 695 12 view .LVU966
 2749 00c2 4FF00009 		mov	r9, #0
 2750 00c6 BCE7     		b	.L136
 2751              	.LVL307:
 2752              	.L140:
 2753              	.LBB102:
 2754              	.LBB101:
 207:Middlewares/lvgl/src/draw/../misc/lv_mem.h ****         d8++;
 2755              		.loc 3 207 9 is_stmt 1 view .LVU967
 207:Middlewares/lvgl/src/draw/../misc/lv_mem.h ****         d8++;
 2756              		.loc 3 207 15 is_stmt 0 view .LVU968
 2757 00c8 11F801CB 		ldrb	ip, [r1], #1	@ zero_extendqisi2
 2758              	.LVL308:
 207:Middlewares/lvgl/src/draw/../misc/lv_mem.h ****         d8++;
 2759              		.loc 3 207 13 view .LVU969
 2760 00cc 00F801CB 		strb	ip, [r0], #1
 2761              	.LVL309:
 208:Middlewares/lvgl/src/draw/../misc/lv_mem.h ****         s8++;
 2762              		.loc 3 208 9 is_stmt 1 view .LVU970
 209:Middlewares/lvgl/src/draw/../misc/lv_mem.h ****         len--;
 2763              		.loc 3 209 9 view .LVU971
 2764              		.loc 3 210 9 view .LVU972
 2765              		.loc 3 210 12 is_stmt 0 view .LVU973
 2766 00d0 013B     		subs	r3, r3, #1
 2767              	.LVL310:
 2768              	.L139:
 206:Middlewares/lvgl/src/draw/../misc/lv_mem.h ****         *d8 = *s8;
ARM GAS  /tmp/ccTdGo64.s 			page 88


 2769              		.loc 3 206 10 is_stmt 1 view .LVU974
 2770 00d2 002B     		cmp	r3, #0
 2771 00d4 F8D1     		bne	.L140
 211:Middlewares/lvgl/src/draw/../misc/lv_mem.h ****     }
 212:Middlewares/lvgl/src/draw/../misc/lv_mem.h **** 
 213:Middlewares/lvgl/src/draw/../misc/lv_mem.h ****     return dst;
 2772              		.loc 3 213 5 view .LVU975
 2773              	.LVL311:
 2774              		.loc 3 213 5 is_stmt 0 view .LVU976
 2775              	.LBE101:
 2776              	.LBE102:
 711:Middlewares/lvgl/src/draw/lv_img_buf.c ****         lv_memcpy_small(&c10, &src_u8[dsc->tmp.pxi + dsc->cfg.src_w * dsc->tmp.px_size * yn], sizeo
 2777              		.loc 1 711 9 is_stmt 1 view .LVU977
 2778              		.loc 1 711 47 is_stmt 0 view .LVU978
 2779 00d6 616C     		ldr	r1, [r4, #68]
 2780              		.loc 1 711 62 view .LVU979
 2781 00d8 B4F90430 		ldrsh	r3, [r4, #4]
 2782              		.loc 1 711 79 view .LVU980
 2783 00dc 94F84800 		ldrb	r0, [r4, #72]	@ zero_extendqisi2
 2784              		.loc 1 711 69 view .LVU981
 2785 00e0 00FB03F3 		mul	r3, r0, r3
 2786              		.loc 1 711 52 view .LVU982
 2787 00e4 09FB0311 		mla	r1, r9, r3, r1
 2788              		.loc 1 711 31 view .LVU983
 2789 00e8 1144     		add	r1, r1, r2
 2790              	.LVL312:
 2791              	.LBB103:
 2792              	.LBI103:
 201:Middlewares/lvgl/src/draw/../misc/lv_mem.h **** {
 2793              		.loc 3 201 44 is_stmt 1 view .LVU984
 2794              	.LBB104:
 203:Middlewares/lvgl/src/draw/../misc/lv_mem.h ****     const uint8_t * s8 = (const uint8_t *)src;
 2795              		.loc 3 203 15 is_stmt 0 view .LVU985
 2796 00ea 06A8     		add	r0, sp, #24
 2797              	.LVL313:
 203:Middlewares/lvgl/src/draw/../misc/lv_mem.h ****     const uint8_t * s8 = (const uint8_t *)src;
 2798              		.loc 3 203 15 view .LVU986
 2799              	.LBE104:
 2800              	.LBE103:
 2801              		.loc 1 711 31 view .LVU987
 2802 00ec 0223     		movs	r3, #2
 2803 00ee 04E0     		b	.L141
 2804              	.LVL314:
 2805              	.L142:
 2806              	.LBB106:
 2807              	.LBB105:
 207:Middlewares/lvgl/src/draw/../misc/lv_mem.h ****         d8++;
 2808              		.loc 3 207 9 is_stmt 1 view .LVU988
 207:Middlewares/lvgl/src/draw/../misc/lv_mem.h ****         d8++;
 2809              		.loc 3 207 15 is_stmt 0 view .LVU989
 2810 00f0 11F801CB 		ldrb	ip, [r1], #1	@ zero_extendqisi2
 2811              	.LVL315:
 207:Middlewares/lvgl/src/draw/../misc/lv_mem.h ****         d8++;
 2812              		.loc 3 207 13 view .LVU990
 2813 00f4 00F801CB 		strb	ip, [r0], #1
 2814              	.LVL316:
 208:Middlewares/lvgl/src/draw/../misc/lv_mem.h ****         s8++;
ARM GAS  /tmp/ccTdGo64.s 			page 89


 2815              		.loc 3 208 9 is_stmt 1 view .LVU991
 209:Middlewares/lvgl/src/draw/../misc/lv_mem.h ****         len--;
 2816              		.loc 3 209 9 view .LVU992
 210:Middlewares/lvgl/src/draw/../misc/lv_mem.h ****     }
 2817              		.loc 3 210 9 view .LVU993
 210:Middlewares/lvgl/src/draw/../misc/lv_mem.h ****     }
 2818              		.loc 3 210 12 is_stmt 0 view .LVU994
 2819 00f8 013B     		subs	r3, r3, #1
 2820              	.LVL317:
 2821              	.L141:
 206:Middlewares/lvgl/src/draw/../misc/lv_mem.h ****         *d8 = *s8;
 2822              		.loc 3 206 10 is_stmt 1 view .LVU995
 2823 00fa 002B     		cmp	r3, #0
 2824 00fc F8D1     		bne	.L142
 2825              		.loc 3 213 5 view .LVU996
 2826              	.LVL318:
 2827              		.loc 3 213 5 is_stmt 0 view .LVU997
 2828              	.LBE105:
 2829              	.LBE106:
 712:Middlewares/lvgl/src/draw/lv_img_buf.c ****         lv_memcpy_small(&c11, &src_u8[dsc->tmp.pxi + dsc->cfg.src_w * dsc->tmp.px_size * yn + dsc->
 2830              		.loc 1 712 9 is_stmt 1 view .LVU998
 2831              		.loc 1 712 47 is_stmt 0 view .LVU999
 2832 00fe 616C     		ldr	r1, [r4, #68]
 2833              		.loc 1 712 103 view .LVU1000
 2834 0100 94F84800 		ldrb	r0, [r4, #72]	@ zero_extendqisi2
 2835              		.loc 1 712 62 view .LVU1001
 2836 0104 B4F90430 		ldrsh	r3, [r4, #4]
 2837              		.loc 1 712 69 view .LVU1002
 2838 0108 00FB03F3 		mul	r3, r0, r3
 2839              		.loc 1 712 88 view .LVU1003
 2840 010c 09FB03F3 		mul	r3, r9, r3
 2841              		.loc 1 712 93 view .LVU1004
 2842 0110 07FB0033 		mla	r3, r7, r0, r3
 2843 0114 0B44     		add	r3, r3, r1
 2844              		.loc 1 712 31 view .LVU1005
 2845 0116 1344     		add	r3, r3, r2
 2846              	.LVL319:
 2847              	.LBB107:
 2848              	.LBI107:
 201:Middlewares/lvgl/src/draw/../misc/lv_mem.h **** {
 2849              		.loc 3 201 44 is_stmt 1 view .LVU1006
 2850              	.LBB108:
 203:Middlewares/lvgl/src/draw/../misc/lv_mem.h ****     const uint8_t * s8 = (const uint8_t *)src;
 2851              		.loc 3 203 15 is_stmt 0 view .LVU1007
 2852 0118 05A8     		add	r0, sp, #20
 2853              	.LVL320:
 203:Middlewares/lvgl/src/draw/../misc/lv_mem.h ****     const uint8_t * s8 = (const uint8_t *)src;
 2854              		.loc 3 203 15 view .LVU1008
 2855              	.LBE108:
 2856              	.LBE107:
 2857              		.loc 1 712 31 view .LVU1009
 2858 011a 0221     		movs	r1, #2
 2859 011c 04E0     		b	.L143
 2860              	.LVL321:
 2861              	.L144:
 2862              	.LBB110:
 2863              	.LBB109:
ARM GAS  /tmp/ccTdGo64.s 			page 90


 207:Middlewares/lvgl/src/draw/../misc/lv_mem.h ****         d8++;
 2864              		.loc 3 207 9 is_stmt 1 view .LVU1010
 207:Middlewares/lvgl/src/draw/../misc/lv_mem.h ****         d8++;
 2865              		.loc 3 207 15 is_stmt 0 view .LVU1011
 2866 011e 13F801CB 		ldrb	ip, [r3], #1	@ zero_extendqisi2
 2867              	.LVL322:
 207:Middlewares/lvgl/src/draw/../misc/lv_mem.h ****         d8++;
 2868              		.loc 3 207 13 view .LVU1012
 2869 0122 00F801CB 		strb	ip, [r0], #1
 2870              	.LVL323:
 208:Middlewares/lvgl/src/draw/../misc/lv_mem.h ****         s8++;
 2871              		.loc 3 208 9 is_stmt 1 view .LVU1013
 209:Middlewares/lvgl/src/draw/../misc/lv_mem.h ****         len--;
 2872              		.loc 3 209 9 view .LVU1014
 210:Middlewares/lvgl/src/draw/../misc/lv_mem.h ****     }
 2873              		.loc 3 210 9 view .LVU1015
 210:Middlewares/lvgl/src/draw/../misc/lv_mem.h ****     }
 2874              		.loc 3 210 12 is_stmt 0 view .LVU1016
 2875 0126 0139     		subs	r1, r1, #1
 2876              	.LVL324:
 2877              	.L143:
 206:Middlewares/lvgl/src/draw/../misc/lv_mem.h ****         *d8 = *s8;
 2878              		.loc 3 206 10 is_stmt 1 view .LVU1017
 2879 0128 0029     		cmp	r1, #0
 2880 012a F8D1     		bne	.L144
 2881              		.loc 3 213 5 view .LVU1018
 2882              	.LVL325:
 2883              		.loc 3 213 5 is_stmt 0 view .LVU1019
 2884              	.LBE109:
 2885              	.LBE110:
 713:Middlewares/lvgl/src/draw/lv_img_buf.c ****                          sizeof(lv_color_t));
 714:Middlewares/lvgl/src/draw/lv_img_buf.c ****         if(dsc->tmp.has_alpha) {
 2886              		.loc 1 714 9 is_stmt 1 view .LVU1020
 2887              		.loc 1 714 12 is_stmt 0 view .LVU1021
 2888 012c 94F83480 		ldrb	r8, [r4, #52]	@ zero_extendqisi2
 2889              		.loc 1 714 11 view .LVU1022
 2890 0130 18F00208 		ands	r8, r8, #2
 2891 0134 00F0A280 		beq	.L169
 715:Middlewares/lvgl/src/draw/lv_img_buf.c ****             a10 = src_u8[dsc->tmp.pxi + dsc->tmp.px_size * xn + dsc->tmp.px_size - 1];
 2892              		.loc 1 715 13 is_stmt 1 view .LVU1023
 2893              		.loc 1 715 34 is_stmt 0 view .LVU1024
 2894 0138 606C     		ldr	r0, [r4, #68]
 2895              		.loc 1 715 49 view .LVU1025
 2896 013a 94F84830 		ldrb	r3, [r4, #72]	@ zero_extendqisi2
 2897              		.loc 1 715 58 view .LVU1026
 2898 013e 07FB03F1 		mul	r1, r7, r3
 2899              		.loc 1 715 39 view .LVU1027
 2900 0142 4718     		adds	r7, r0, r1
 2901              	.LVL326:
 2902              		.loc 1 715 63 view .LVU1028
 2903 0144 1F44     		add	r7, r7, r3
 2904              		.loc 1 715 25 view .LVU1029
 2905 0146 013F     		subs	r7, r7, #1
 2906              		.loc 1 715 17 view .LVU1030
 2907 0148 12F80780 		ldrb	r8, [r2, r7]	@ zero_extendqisi2
 2908              	.LVL327:
 716:Middlewares/lvgl/src/draw/lv_img_buf.c ****             a01 = src_u8[dsc->tmp.pxi + dsc->cfg.src_w * dsc->tmp.px_size * yn + dsc->tmp.px_size -
ARM GAS  /tmp/ccTdGo64.s 			page 91


 2909              		.loc 1 716 13 is_stmt 1 view .LVU1031
 2910              		.loc 1 716 49 is_stmt 0 view .LVU1032
 2911 014c B4F90470 		ldrsh	r7, [r4, #4]
 2912              		.loc 1 716 56 view .LVU1033
 2913 0150 03FB07F7 		mul	r7, r3, r7
 2914              		.loc 1 716 75 view .LVU1034
 2915 0154 09FB07F9 		mul	r9, r9, r7
 2916              	.LVL328:
 2917              		.loc 1 716 39 view .LVU1035
 2918 0158 00EB0907 		add	r7, r0, r9
 2919              		.loc 1 716 80 view .LVU1036
 2920 015c 1F44     		add	r7, r7, r3
 2921              		.loc 1 716 25 view .LVU1037
 2922 015e 013F     		subs	r7, r7, #1
 2923              		.loc 1 716 17 view .LVU1038
 2924 0160 D75D     		ldrb	r7, [r2, r7]	@ zero_extendqisi2
 2925              	.LVL329:
 717:Middlewares/lvgl/src/draw/lv_img_buf.c ****             a11 = src_u8[dsc->tmp.pxi + dsc->cfg.src_w * dsc->tmp.px_size * yn + dsc->tmp.px_size *
 2926              		.loc 1 717 13 is_stmt 1 view .LVU1039
 2927              		.loc 1 717 80 is_stmt 0 view .LVU1040
 2928 0162 4944     		add	r1, r1, r9
 2929 0164 0144     		add	r1, r1, r0
 2930              		.loc 1 717 104 view .LVU1041
 2931 0166 0B44     		add	r3, r3, r1
 2932              		.loc 1 717 25 view .LVU1042
 2933 0168 013B     		subs	r3, r3, #1
 2934              		.loc 1 717 17 view .LVU1043
 2935 016a D15C     		ldrb	r1, [r2, r3]	@ zero_extendqisi2
 2936              	.LVL330:
 2937              	.L145:
 718:Middlewares/lvgl/src/draw/lv_img_buf.c ****         }
 719:Middlewares/lvgl/src/draw/lv_img_buf.c ****     }
 720:Middlewares/lvgl/src/draw/lv_img_buf.c ****     else {
 721:Middlewares/lvgl/src/draw/lv_img_buf.c ****         c01 = lv_img_buf_get_px_color(&dsc->tmp.img_dsc, dsc->tmp.xs_int + xn, dsc->tmp.ys_int, dsc
 722:Middlewares/lvgl/src/draw/lv_img_buf.c ****         c10 = lv_img_buf_get_px_color(&dsc->tmp.img_dsc, dsc->tmp.xs_int, dsc->tmp.ys_int + yn, dsc
 723:Middlewares/lvgl/src/draw/lv_img_buf.c ****         c11 = lv_img_buf_get_px_color(&dsc->tmp.img_dsc, dsc->tmp.xs_int + xn, dsc->tmp.ys_int + yn
 724:Middlewares/lvgl/src/draw/lv_img_buf.c **** 
 725:Middlewares/lvgl/src/draw/lv_img_buf.c ****         if(dsc->tmp.has_alpha) {
 726:Middlewares/lvgl/src/draw/lv_img_buf.c ****             a10 = lv_img_buf_get_px_alpha(&dsc->tmp.img_dsc, dsc->tmp.xs_int + xn, dsc->tmp.ys_int)
 727:Middlewares/lvgl/src/draw/lv_img_buf.c ****             a01 = lv_img_buf_get_px_alpha(&dsc->tmp.img_dsc, dsc->tmp.xs_int, dsc->tmp.ys_int + yn)
 728:Middlewares/lvgl/src/draw/lv_img_buf.c ****             a11 = lv_img_buf_get_px_alpha(&dsc->tmp.img_dsc, dsc->tmp.xs_int + xn, dsc->tmp.ys_int 
 729:Middlewares/lvgl/src/draw/lv_img_buf.c ****         }
 730:Middlewares/lvgl/src/draw/lv_img_buf.c ****     }
 731:Middlewares/lvgl/src/draw/lv_img_buf.c **** 
 732:Middlewares/lvgl/src/draw/lv_img_buf.c ****     lv_opa_t xr0 = xr;
 2938              		.loc 1 732 5 is_stmt 1 view .LVU1044
 733:Middlewares/lvgl/src/draw/lv_img_buf.c ****     lv_opa_t xr1 = xr;
 2939              		.loc 1 733 5 view .LVU1045
 734:Middlewares/lvgl/src/draw/lv_img_buf.c ****     if(dsc->tmp.has_alpha) {
 2940              		.loc 1 734 5 view .LVU1046
 2941              		.loc 1 734 8 is_stmt 0 view .LVU1047
 2942 016c 94F83430 		ldrb	r3, [r4, #52]	@ zero_extendqisi2
 2943              		.loc 1 734 7 view .LVU1048
 2944 0170 13F0020F 		tst	r3, #2
 2945 0174 00F08A80 		beq	.L146
 2946              	.LBB111:
 735:Middlewares/lvgl/src/draw/lv_img_buf.c ****         lv_opa_t a0 = (a00 * xr + (a10 * (255 - xr))) >> 8;
ARM GAS  /tmp/ccTdGo64.s 			page 92


 2947              		.loc 1 735 9 is_stmt 1 view .LVU1049
 2948              		.loc 1 735 47 is_stmt 0 view .LVU1050
 2949 0178 C5F1FF03 		rsb	r3, r5, #255
 2950              		.loc 1 735 40 view .LVU1051
 2951 017c 03FB08F0 		mul	r0, r3, r8
 2952              		.loc 1 735 33 view .LVU1052
 2953 0180 05FB0B00 		mla	r0, r5, fp, r0
 2954              		.loc 1 735 18 view .LVU1053
 2955 0184 C0F30720 		ubfx	r0, r0, #8, #8
 2956              	.LVL331:
 736:Middlewares/lvgl/src/draw/lv_img_buf.c ****         lv_opa_t a1 = (a01 * xr + (a11 * (255 - xr))) >> 8;
 2957              		.loc 1 736 9 is_stmt 1 view .LVU1054
 2958              		.loc 1 736 40 is_stmt 0 view .LVU1055
 2959 0188 01FB03F3 		mul	r3, r1, r3
 2960              		.loc 1 736 33 view .LVU1056
 2961 018c 05FB0733 		mla	r3, r5, r7, r3
 2962              		.loc 1 736 18 view .LVU1057
 2963 0190 C3F30723 		ubfx	r3, r3, #8, #8
 2964              	.LVL332:
 737:Middlewares/lvgl/src/draw/lv_img_buf.c ****         dsc->res.opa = (a0 * yr + (a1 * (255 - yr))) >> 8;
 2965              		.loc 1 737 9 is_stmt 1 view .LVU1058
 2966              		.loc 1 737 46 is_stmt 0 view .LVU1059
 2967 0194 C6F1FF02 		rsb	r2, r6, #255
 2968              		.loc 1 737 39 view .LVU1060
 2969 0198 03FB02F2 		mul	r2, r3, r2
 2970              		.loc 1 737 33 view .LVU1061
 2971 019c 06FB0022 		mla	r2, r6, r0, r2
 2972              		.loc 1 737 54 view .LVU1062
 2973 01a0 1212     		asrs	r2, r2, #8
 2974              		.loc 1 737 22 view .LVU1063
 2975 01a2 A275     		strb	r2, [r4, #22]
 738:Middlewares/lvgl/src/draw/lv_img_buf.c **** 
 739:Middlewares/lvgl/src/draw/lv_img_buf.c ****         if(a0 <= LV_OPA_MIN && a1 <= LV_OPA_MIN) return false;
 2976              		.loc 1 739 9 is_stmt 1 view .LVU1064
 2977              		.loc 1 739 11 is_stmt 0 view .LVU1065
 2978 01a4 0228     		cmp	r0, #2
 2979 01a6 02D8     		bhi	.L147
 2980              		.loc 1 739 29 discriminator 1 view .LVU1066
 2981 01a8 022B     		cmp	r3, #2
 2982 01aa 40F24081 		bls	.L171
 2983              	.L147:
 740:Middlewares/lvgl/src/draw/lv_img_buf.c ****         if(a0 <= LV_OPA_MIN) yr = LV_OPA_TRANSP;
 2984              		.loc 1 740 9 is_stmt 1 view .LVU1067
 2985              		.loc 1 740 11 is_stmt 0 view .LVU1068
 2986 01ae 0228     		cmp	r0, #2
 2987 01b0 00D8     		bhi	.L149
 2988              		.loc 1 740 33 view .LVU1069
 2989 01b2 0026     		movs	r6, #0
 2990              	.LVL333:
 2991              	.L149:
 741:Middlewares/lvgl/src/draw/lv_img_buf.c ****         if(a1 <= LV_OPA_MIN) yr = LV_OPA_COVER;
 2992              		.loc 1 741 9 is_stmt 1 view .LVU1070
 2993              		.loc 1 741 11 is_stmt 0 view .LVU1071
 2994 01b4 022B     		cmp	r3, #2
 2995 01b6 00D8     		bhi	.L150
 2996              		.loc 1 741 33 view .LVU1072
 2997 01b8 FF26     		movs	r6, #255
ARM GAS  /tmp/ccTdGo64.s 			page 93


 2998              	.LVL334:
 2999              	.L150:
 742:Middlewares/lvgl/src/draw/lv_img_buf.c ****         if(a00 <= LV_OPA_MIN) xr0 = LV_OPA_TRANSP;
 3000              		.loc 1 742 9 is_stmt 1 view .LVU1073
 3001              		.loc 1 742 11 is_stmt 0 view .LVU1074
 3002 01ba BBF1020F 		cmp	fp, #2
 3003 01be 63D9     		bls	.L174
 3004              	.LBE111:
 732:Middlewares/lvgl/src/draw/lv_img_buf.c ****     lv_opa_t xr1 = xr;
 3005              		.loc 1 732 14 view .LVU1075
 3006 01c0 2846     		mov	r0, r5
 3007              	.LVL335:
 3008              	.L151:
 3009              	.LBB112:
 743:Middlewares/lvgl/src/draw/lv_img_buf.c ****         if(a10 <= LV_OPA_MIN) xr0 = LV_OPA_COVER;
 3010              		.loc 1 743 9 is_stmt 1 view .LVU1076
 3011              		.loc 1 743 11 is_stmt 0 view .LVU1077
 3012 01c2 B8F1020F 		cmp	r8, #2
 3013 01c6 00D8     		bhi	.L152
 3014              		.loc 1 743 35 view .LVU1078
 3015 01c8 FF20     		movs	r0, #255
 3016              	.LVL336:
 3017              	.L152:
 744:Middlewares/lvgl/src/draw/lv_img_buf.c ****         if(a01 <= LV_OPA_MIN) xr1 = LV_OPA_TRANSP;
 3018              		.loc 1 744 9 is_stmt 1 view .LVU1079
 3019              		.loc 1 744 11 is_stmt 0 view .LVU1080
 3020 01ca 022F     		cmp	r7, #2
 3021 01cc 00D8     		bhi	.L153
 3022              		.loc 1 744 35 view .LVU1081
 3023 01ce 0025     		movs	r5, #0
 3024              	.LVL337:
 3025              	.L153:
 745:Middlewares/lvgl/src/draw/lv_img_buf.c ****         if(a11 <= LV_OPA_MIN) xr1 = LV_OPA_COVER;
 3026              		.loc 1 745 9 is_stmt 1 view .LVU1082
 3027              		.loc 1 745 11 is_stmt 0 view .LVU1083
 3028 01d0 0229     		cmp	r1, #2
 3029 01d2 5ED8     		bhi	.L154
 3030              		.loc 1 745 35 view .LVU1084
 3031 01d4 FF25     		movs	r5, #255
 3032              	.LVL338:
 3033              		.loc 1 745 35 view .LVU1085
 3034 01d6 5CE0     		b	.L154
 3035              	.LVL339:
 3036              	.L138:
 3037              		.loc 1 745 35 view .LVU1086
 3038              	.LBE112:
 721:Middlewares/lvgl/src/draw/lv_img_buf.c ****         c10 = lv_img_buf_get_px_color(&dsc->tmp.img_dsc, dsc->tmp.xs_int, dsc->tmp.ys_int + yn, dsc
 3039              		.loc 1 721 9 is_stmt 1 view .LVU1087
 721:Middlewares/lvgl/src/draw/lv_img_buf.c ****         c10 = lv_img_buf_get_px_color(&dsc->tmp.img_dsc, dsc->tmp.xs_int, dsc->tmp.ys_int + yn, dsc
 3040              		.loc 1 721 15 is_stmt 0 view .LVU1088
 3041 01d8 04F11800 		add	r0, r4, #24
 721:Middlewares/lvgl/src/draw/lv_img_buf.c ****         c10 = lv_img_buf_get_px_color(&dsc->tmp.img_dsc, dsc->tmp.xs_int, dsc->tmp.ys_int + yn, dsc
 3042              		.loc 1 721 66 view .LVU1089
 3043 01dc B4F84010 		ldrh	r1, [r4, #64]
 721:Middlewares/lvgl/src/draw/lv_img_buf.c ****         c10 = lv_img_buf_get_px_color(&dsc->tmp.img_dsc, dsc->tmp.xs_int, dsc->tmp.ys_int + yn, dsc
 3044              		.loc 1 721 74 view .LVU1090
 3045 01e0 BFB2     		uxth	r7, r7
ARM GAS  /tmp/ccTdGo64.s 			page 94


 3046              	.LVL340:
 721:Middlewares/lvgl/src/draw/lv_img_buf.c ****         c10 = lv_img_buf_get_px_color(&dsc->tmp.img_dsc, dsc->tmp.xs_int, dsc->tmp.ys_int + yn, dsc
 3047              		.loc 1 721 74 view .LVU1091
 3048 01e2 3944     		add	r1, r1, r7
 721:Middlewares/lvgl/src/draw/lv_img_buf.c ****         c10 = lv_img_buf_get_px_color(&dsc->tmp.img_dsc, dsc->tmp.xs_int, dsc->tmp.ys_int + yn, dsc
 3049              		.loc 1 721 15 view .LVU1092
 3050 01e4 238A     		ldrh	r3, [r4, #16]
 3051 01e6 B4F94220 		ldrsh	r2, [r4, #66]
 3052              	.LVL341:
 721:Middlewares/lvgl/src/draw/lv_img_buf.c ****         c10 = lv_img_buf_get_px_color(&dsc->tmp.img_dsc, dsc->tmp.xs_int, dsc->tmp.ys_int + yn, dsc
 3053              		.loc 1 721 15 view .LVU1093
 3054 01ea 09B2     		sxth	r1, r1
 3055 01ec 8046     		mov	r8, r0
 3056 01ee FFF7FEFF 		bl	lv_img_buf_get_px_color
 3057              	.LVL342:
 721:Middlewares/lvgl/src/draw/lv_img_buf.c ****         c10 = lv_img_buf_get_px_color(&dsc->tmp.img_dsc, dsc->tmp.xs_int, dsc->tmp.ys_int + yn, dsc
 3058              		.loc 1 721 15 view .LVU1094
 3059 01f2 ADF81C00 		strh	r0, [sp, #28]	@ movhi
 722:Middlewares/lvgl/src/draw/lv_img_buf.c ****         c11 = lv_img_buf_get_px_color(&dsc->tmp.img_dsc, dsc->tmp.xs_int + xn, dsc->tmp.ys_int + yn
 3060              		.loc 1 722 9 is_stmt 1 view .LVU1095
 722:Middlewares/lvgl/src/draw/lv_img_buf.c ****         c11 = lv_img_buf_get_px_color(&dsc->tmp.img_dsc, dsc->tmp.xs_int + xn, dsc->tmp.ys_int + yn
 3061              		.loc 1 722 83 is_stmt 0 view .LVU1096
 3062 01f6 B4F84220 		ldrh	r2, [r4, #66]
 722:Middlewares/lvgl/src/draw/lv_img_buf.c ****         c11 = lv_img_buf_get_px_color(&dsc->tmp.img_dsc, dsc->tmp.xs_int + xn, dsc->tmp.ys_int + yn
 3063              		.loc 1 722 91 view .LVU1097
 3064 01fa 1FFA89F9 		uxth	r9, r9
 3065              	.LVL343:
 722:Middlewares/lvgl/src/draw/lv_img_buf.c ****         c11 = lv_img_buf_get_px_color(&dsc->tmp.img_dsc, dsc->tmp.xs_int + xn, dsc->tmp.ys_int + yn
 3066              		.loc 1 722 91 view .LVU1098
 3067 01fe 4A44     		add	r2, r2, r9
 722:Middlewares/lvgl/src/draw/lv_img_buf.c ****         c11 = lv_img_buf_get_px_color(&dsc->tmp.img_dsc, dsc->tmp.xs_int + xn, dsc->tmp.ys_int + yn
 3068              		.loc 1 722 15 view .LVU1099
 3069 0200 238A     		ldrh	r3, [r4, #16]
 3070 0202 12B2     		sxth	r2, r2
 3071 0204 B4F94010 		ldrsh	r1, [r4, #64]
 3072 0208 4046     		mov	r0, r8
 3073 020a FFF7FEFF 		bl	lv_img_buf_get_px_color
 3074              	.LVL344:
 3075 020e ADF81800 		strh	r0, [sp, #24]	@ movhi
 723:Middlewares/lvgl/src/draw/lv_img_buf.c **** 
 3076              		.loc 1 723 9 is_stmt 1 view .LVU1100
 723:Middlewares/lvgl/src/draw/lv_img_buf.c **** 
 3077              		.loc 1 723 66 is_stmt 0 view .LVU1101
 3078 0212 B4F84010 		ldrh	r1, [r4, #64]
 723:Middlewares/lvgl/src/draw/lv_img_buf.c **** 
 3079              		.loc 1 723 74 view .LVU1102
 3080 0216 3944     		add	r1, r1, r7
 723:Middlewares/lvgl/src/draw/lv_img_buf.c **** 
 3081              		.loc 1 723 88 view .LVU1103
 3082 0218 B4F84220 		ldrh	r2, [r4, #66]
 723:Middlewares/lvgl/src/draw/lv_img_buf.c **** 
 3083              		.loc 1 723 96 view .LVU1104
 3084 021c 4A44     		add	r2, r2, r9
 723:Middlewares/lvgl/src/draw/lv_img_buf.c **** 
 3085              		.loc 1 723 15 view .LVU1105
 3086 021e 238A     		ldrh	r3, [r4, #16]
 3087 0220 12B2     		sxth	r2, r2
ARM GAS  /tmp/ccTdGo64.s 			page 95


 3088 0222 09B2     		sxth	r1, r1
 3089 0224 CDF80480 		str	r8, [sp, #4]
 3090 0228 4046     		mov	r0, r8
 3091 022a FFF7FEFF 		bl	lv_img_buf_get_px_color
 3092              	.LVL345:
 3093 022e ADF81400 		strh	r0, [sp, #20]	@ movhi
 725:Middlewares/lvgl/src/draw/lv_img_buf.c ****             a10 = lv_img_buf_get_px_alpha(&dsc->tmp.img_dsc, dsc->tmp.xs_int + xn, dsc->tmp.ys_int)
 3094              		.loc 1 725 9 is_stmt 1 view .LVU1106
 725:Middlewares/lvgl/src/draw/lv_img_buf.c ****             a10 = lv_img_buf_get_px_alpha(&dsc->tmp.img_dsc, dsc->tmp.xs_int + xn, dsc->tmp.ys_int)
 3095              		.loc 1 725 12 is_stmt 0 view .LVU1107
 3096 0232 94F83480 		ldrb	r8, [r4, #52]	@ zero_extendqisi2
 725:Middlewares/lvgl/src/draw/lv_img_buf.c ****             a10 = lv_img_buf_get_px_alpha(&dsc->tmp.img_dsc, dsc->tmp.xs_int + xn, dsc->tmp.ys_int)
 3097              		.loc 1 725 11 view .LVU1108
 3098 0236 18F00208 		ands	r8, r8, #2
 3099 023a 22D0     		beq	.L170
 726:Middlewares/lvgl/src/draw/lv_img_buf.c ****             a01 = lv_img_buf_get_px_alpha(&dsc->tmp.img_dsc, dsc->tmp.xs_int, dsc->tmp.ys_int + yn)
 3100              		.loc 1 726 13 is_stmt 1 view .LVU1109
 726:Middlewares/lvgl/src/draw/lv_img_buf.c ****             a01 = lv_img_buf_get_px_alpha(&dsc->tmp.img_dsc, dsc->tmp.xs_int, dsc->tmp.ys_int + yn)
 3101              		.loc 1 726 70 is_stmt 0 view .LVU1110
 3102 023c B4F94030 		ldrsh	r3, [r4, #64]
 726:Middlewares/lvgl/src/draw/lv_img_buf.c ****             a01 = lv_img_buf_get_px_alpha(&dsc->tmp.img_dsc, dsc->tmp.xs_int, dsc->tmp.ys_int + yn)
 3103              		.loc 1 726 78 view .LVU1111
 3104 0240 0293     		str	r3, [sp, #8]
 3105 0242 17FA83F7 		uxtah	r7, r7, r3
 726:Middlewares/lvgl/src/draw/lv_img_buf.c ****             a01 = lv_img_buf_get_px_alpha(&dsc->tmp.img_dsc, dsc->tmp.xs_int, dsc->tmp.ys_int + yn)
 3106              		.loc 1 726 19 view .LVU1112
 3107 0246 3BB2     		sxth	r3, r7
 3108 0248 B4F94270 		ldrsh	r7, [r4, #66]
 3109 024c 3A46     		mov	r2, r7
 3110 024e 0393     		str	r3, [sp, #12]
 3111 0250 1946     		mov	r1, r3
 3112 0252 0198     		ldr	r0, [sp, #4]
 3113 0254 FFF7FEFF 		bl	lv_img_buf_get_px_alpha
 3114              	.LVL346:
 3115 0258 8046     		mov	r8, r0
 3116              	.LVL347:
 727:Middlewares/lvgl/src/draw/lv_img_buf.c ****             a11 = lv_img_buf_get_px_alpha(&dsc->tmp.img_dsc, dsc->tmp.xs_int + xn, dsc->tmp.ys_int 
 3117              		.loc 1 727 13 is_stmt 1 view .LVU1113
 727:Middlewares/lvgl/src/draw/lv_img_buf.c ****             a11 = lv_img_buf_get_px_alpha(&dsc->tmp.img_dsc, dsc->tmp.xs_int + xn, dsc->tmp.ys_int 
 3118              		.loc 1 727 95 is_stmt 0 view .LVU1114
 3119 025a 19FA87F9 		uxtah	r9, r9, r7
 727:Middlewares/lvgl/src/draw/lv_img_buf.c ****             a11 = lv_img_buf_get_px_alpha(&dsc->tmp.img_dsc, dsc->tmp.xs_int + xn, dsc->tmp.ys_int 
 3120              		.loc 1 727 19 view .LVU1115
 3121 025e 0FFA89F9 		sxth	r9, r9
 3122 0262 4A46     		mov	r2, r9
 3123 0264 0299     		ldr	r1, [sp, #8]
 3124 0266 0198     		ldr	r0, [sp, #4]
 3125 0268 FFF7FEFF 		bl	lv_img_buf_get_px_alpha
 3126              	.LVL348:
 3127 026c 0746     		mov	r7, r0
 3128              	.LVL349:
 728:Middlewares/lvgl/src/draw/lv_img_buf.c ****         }
 3129              		.loc 1 728 13 is_stmt 1 view .LVU1116
 728:Middlewares/lvgl/src/draw/lv_img_buf.c ****         }
 3130              		.loc 1 728 19 is_stmt 0 view .LVU1117
 3131 026e 4A46     		mov	r2, r9
 3132 0270 0399     		ldr	r1, [sp, #12]
ARM GAS  /tmp/ccTdGo64.s 			page 96


 3133 0272 0198     		ldr	r0, [sp, #4]
 3134 0274 FFF7FEFF 		bl	lv_img_buf_get_px_alpha
 3135              	.LVL350:
 3136 0278 0146     		mov	r1, r0
 3137              	.LVL351:
 728:Middlewares/lvgl/src/draw/lv_img_buf.c ****         }
 3138              		.loc 1 728 19 view .LVU1118
 3139 027a 77E7     		b	.L145
 3140              	.LVL352:
 3141              	.L169:
 707:Middlewares/lvgl/src/draw/lv_img_buf.c **** 
 3142              		.loc 1 707 14 view .LVU1119
 3143 027c 4146     		mov	r1, r8
 706:Middlewares/lvgl/src/draw/lv_img_buf.c ****     lv_opa_t a11 = 0;
 3144              		.loc 1 706 14 view .LVU1120
 3145 027e 4746     		mov	r7, r8
 3146              	.LVL353:
 706:Middlewares/lvgl/src/draw/lv_img_buf.c ****     lv_opa_t a11 = 0;
 3147              		.loc 1 706 14 view .LVU1121
 3148 0280 74E7     		b	.L145
 3149              	.LVL354:
 3150              	.L170:
 707:Middlewares/lvgl/src/draw/lv_img_buf.c **** 
 3151              		.loc 1 707 14 view .LVU1122
 3152 0282 4146     		mov	r1, r8
 706:Middlewares/lvgl/src/draw/lv_img_buf.c ****     lv_opa_t a11 = 0;
 3153              		.loc 1 706 14 view .LVU1123
 3154 0284 4746     		mov	r7, r8
 3155 0286 71E7     		b	.L145
 3156              	.LVL355:
 3157              	.L174:
 3158              	.LBB113:
 742:Middlewares/lvgl/src/draw/lv_img_buf.c ****         if(a10 <= LV_OPA_MIN) xr0 = LV_OPA_COVER;
 3159              		.loc 1 742 35 view .LVU1124
 3160 0288 0020     		movs	r0, #0
 3161              	.LVL356:
 742:Middlewares/lvgl/src/draw/lv_img_buf.c ****         if(a10 <= LV_OPA_MIN) xr0 = LV_OPA_COVER;
 3162              		.loc 1 742 35 view .LVU1125
 3163 028a 9AE7     		b	.L151
 3164              	.LVL357:
 3165              	.L146:
 742:Middlewares/lvgl/src/draw/lv_img_buf.c ****         if(a10 <= LV_OPA_MIN) xr0 = LV_OPA_COVER;
 3166              		.loc 1 742 35 view .LVU1126
 3167              	.LBE113:
 746:Middlewares/lvgl/src/draw/lv_img_buf.c ****     }
 747:Middlewares/lvgl/src/draw/lv_img_buf.c ****     else {
 748:Middlewares/lvgl/src/draw/lv_img_buf.c ****         xr0 = xr;
 3168              		.loc 1 748 9 is_stmt 1 view .LVU1127
 749:Middlewares/lvgl/src/draw/lv_img_buf.c ****         xr1 = xr;
 3169              		.loc 1 749 9 view .LVU1128
 750:Middlewares/lvgl/src/draw/lv_img_buf.c ****         dsc->res.opa = LV_OPA_COVER;
 3170              		.loc 1 750 9 view .LVU1129
 3171              		.loc 1 750 22 is_stmt 0 view .LVU1130
 3172 028c FF23     		movs	r3, #255
 3173 028e A375     		strb	r3, [r4, #22]
 748:Middlewares/lvgl/src/draw/lv_img_buf.c ****         xr1 = xr;
 3174              		.loc 1 748 13 view .LVU1131
ARM GAS  /tmp/ccTdGo64.s 			page 97


 3175 0290 2846     		mov	r0, r5
 3176              	.LVL358:
 3177              	.L154:
 751:Middlewares/lvgl/src/draw/lv_img_buf.c ****     }
 752:Middlewares/lvgl/src/draw/lv_img_buf.c **** 
 753:Middlewares/lvgl/src/draw/lv_img_buf.c ****     lv_color_t c0;
 3178              		.loc 1 753 5 is_stmt 1 view .LVU1132
 754:Middlewares/lvgl/src/draw/lv_img_buf.c ****     if(xr0 == LV_OPA_TRANSP) c0 = c01;
 3179              		.loc 1 754 5 view .LVU1133
 3180              		.loc 1 754 7 is_stmt 0 view .LVU1134
 3181 0292 68B9     		cbnz	r0, .L155
 3182              		.loc 1 754 30 is_stmt 1 discriminator 1 view .LVU1135
 3183              		.loc 1 754 33 is_stmt 0 discriminator 1 view .LVU1136
 3184 0294 BDF81CA0 		ldrh	r10, [sp, #28]
 3185              	.LVL359:
 3186              	.L156:
 755:Middlewares/lvgl/src/draw/lv_img_buf.c ****     else if(xr0 == LV_OPA_COVER) c0 = c00;
 756:Middlewares/lvgl/src/draw/lv_img_buf.c ****     else c0 = lv_color_mix(c00, c01, xr0);
 757:Middlewares/lvgl/src/draw/lv_img_buf.c **** 
 758:Middlewares/lvgl/src/draw/lv_img_buf.c ****     lv_color_t c1;
 3187              		.loc 1 758 5 is_stmt 1 view .LVU1137
 759:Middlewares/lvgl/src/draw/lv_img_buf.c ****     if(xr1 == LV_OPA_TRANSP) c1 = c11;
 3188              		.loc 1 759 5 view .LVU1138
 3189              		.loc 1 759 7 is_stmt 0 view .LVU1139
 3190 0298 002D     		cmp	r5, #0
 3191 029a 46D1     		bne	.L158
 3192              		.loc 1 759 30 is_stmt 1 discriminator 1 view .LVU1140
 3193              		.loc 1 759 33 is_stmt 0 discriminator 1 view .LVU1141
 3194 029c BDF81420 		ldrh	r2, [sp, #20]
 3195              	.LVL360:
 3196              	.L159:
 760:Middlewares/lvgl/src/draw/lv_img_buf.c ****     else if(xr1 == LV_OPA_COVER) c1 = c10;
 761:Middlewares/lvgl/src/draw/lv_img_buf.c ****     else c1 = lv_color_mix(c10, c11, xr1);
 762:Middlewares/lvgl/src/draw/lv_img_buf.c **** 
 763:Middlewares/lvgl/src/draw/lv_img_buf.c ****     if(yr == LV_OPA_TRANSP) dsc->res.color = c1;
 3197              		.loc 1 763 5 is_stmt 1 view .LVU1142
 3198              		.loc 1 763 7 is_stmt 0 view .LVU1143
 3199 02a0 002E     		cmp	r6, #0
 3200 02a2 40F08480 		bne	.L161
 3201              		.loc 1 763 29 is_stmt 1 discriminator 1 view .LVU1144
 3202              	.LVL361:
 3203              		.loc 1 763 44 is_stmt 0 discriminator 1 view .LVU1145
 3204 02a6 A282     		strh	r2, [r4, #20]	@ movhi
 764:Middlewares/lvgl/src/draw/lv_img_buf.c ****     else if(yr == LV_OPA_COVER) dsc->res.color = c0;
 765:Middlewares/lvgl/src/draw/lv_img_buf.c ****     else dsc->res.color = lv_color_mix(c0, c1, yr);
 766:Middlewares/lvgl/src/draw/lv_img_buf.c **** 
 767:Middlewares/lvgl/src/draw/lv_img_buf.c ****     return true;
 3205              		.loc 1 767 12 discriminator 1 view .LVU1146
 3206 02a8 0120     		movs	r0, #1
 3207              	.LVL362:
 3208              	.L148:
 768:Middlewares/lvgl/src/draw/lv_img_buf.c **** }
 3209              		.loc 1 768 1 view .LVU1147
 3210 02aa 09B0     		add	sp, sp, #36
 3211              	.LCFI29:
 3212              		.cfi_remember_state
 3213              		.cfi_def_cfa_offset 36
ARM GAS  /tmp/ccTdGo64.s 			page 98


 3214              		@ sp needed
 3215 02ac BDE8F08F 		pop	{r4, r5, r6, r7, r8, r9, r10, fp, pc}
 3216              	.LVL363:
 3217              	.L155:
 3218              	.LCFI30:
 3219              		.cfi_restore_state
 755:Middlewares/lvgl/src/draw/lv_img_buf.c ****     else c0 = lv_color_mix(c00, c01, xr0);
 3220              		.loc 1 755 10 is_stmt 1 view .LVU1148
 755:Middlewares/lvgl/src/draw/lv_img_buf.c ****     else c0 = lv_color_mix(c00, c01, xr0);
 3221              		.loc 1 755 12 is_stmt 0 view .LVU1149
 3222 02b0 FF28     		cmp	r0, #255
 3223 02b2 F1D0     		beq	.L156
 756:Middlewares/lvgl/src/draw/lv_img_buf.c **** 
 3224              		.loc 1 756 10 is_stmt 1 view .LVU1150
 3225 02b4 BDF81C70 		ldrh	r7, [sp, #28]
 3226              	.LVL364:
 3227              	.LBB114:
 3228              	.LBI114:
 459:Middlewares/lvgl/src/draw/../misc/lv_color.h **** {
 3229              		.loc 2 459 48 view .LVU1151
 3230              	.LBB115:
 461:Middlewares/lvgl/src/draw/../misc/lv_color.h **** #if LV_COLOR_DEPTH != 1
 3231              		.loc 2 461 5 view .LVU1152
 464:Middlewares/lvgl/src/draw/../misc/lv_color.h ****                                         (255 - mix) + LV_COLOR_MIX_ROUND_OFS));
 3232              		.loc 2 464 5 view .LVU1153
 464:Middlewares/lvgl/src/draw/../misc/lv_color.h ****                                         (255 - mix) + LV_COLOR_MIX_ROUND_OFS));
 3233              		.loc 2 464 5 is_stmt 0 view .LVU1154
 3234 02b8 CAF3C421 		ubfx	r1, r10, #11, #5
 3235              	.LVL365:
 464:Middlewares/lvgl/src/draw/../misc/lv_color.h ****                                         (255 - mix) + LV_COLOR_MIX_ROUND_OFS));
 3236              		.loc 2 464 5 view .LVU1155
 3237 02bc C7F3C422 		ubfx	r2, r7, #11, #5
 3238 02c0 C0F1FF03 		rsb	r3, r0, #255
 3239 02c4 03FB02F2 		mul	r2, r3, r2
 3240 02c8 00FB0122 		mla	r2, r0, r1, r2
 3241 02cc 8032     		adds	r2, r2, #128
 3242 02ce 02EB0221 		add	r1, r2, r2, lsl #8
 3243 02d2 02EBC112 		add	r2, r2, r1, lsl #7
 3244 02d6 C2F3C452 		ubfx	r2, r2, #23, #5
 3245 02da 4FF00001 		mov	r1, #0	@ movhi
 464:Middlewares/lvgl/src/draw/../misc/lv_color.h ****                                         (255 - mix) + LV_COLOR_MIX_ROUND_OFS));
 3246              		.loc 2 464 5 view .LVU1156
 3247 02de 62F3CF21 		bfi	r1, r2, #11, #5
 3248              	.LVL366:
 466:Middlewares/lvgl/src/draw/../misc/lv_color.h ****                                         (255 - mix) + LV_COLOR_MIX_ROUND_OFS));
 3249              		.loc 2 466 5 is_stmt 1 view .LVU1157
 3250 02e2 CAF3451C 		ubfx	ip, r10, #5, #6
 3251 02e6 C7F34512 		ubfx	r2, r7, #5, #6
 3252 02ea 03FB02F2 		mul	r2, r3, r2
 3253 02ee 0CFB0022 		mla	r2, ip, r0, r2
 3254 02f2 8032     		adds	r2, r2, #128
 3255 02f4 02EB022C 		add	ip, r2, r2, lsl #8
 3256 02f8 02EBCC12 		add	r2, r2, ip, lsl #7
 3257 02fc C2F3C552 		ubfx	r2, r2, #23, #6
 3258 0300 62F34A11 		bfi	r1, r2, #5, #6
 468:Middlewares/lvgl/src/draw/../misc/lv_color.h ****                                         (255 - mix) + LV_COLOR_MIX_ROUND_OFS));
 3259              		.loc 2 468 5 view .LVU1158
ARM GAS  /tmp/ccTdGo64.s 			page 99


 3260 0304 0AF01F0A 		and	r10, r10, #31
 3261              	.LVL367:
 468:Middlewares/lvgl/src/draw/../misc/lv_color.h ****                                         (255 - mix) + LV_COLOR_MIX_ROUND_OFS));
 3262              		.loc 2 468 5 is_stmt 0 view .LVU1159
 3263 0308 07F01F07 		and	r7, r7, #31
 3264              	.LVL368:
 468:Middlewares/lvgl/src/draw/../misc/lv_color.h ****                                         (255 - mix) + LV_COLOR_MIX_ROUND_OFS));
 3265              		.loc 2 468 5 view .LVU1160
 3266 030c 07FB03F3 		mul	r3, r7, r3
 3267 0310 0AFB0033 		mla	r3, r10, r0, r3
 3268 0314 8033     		adds	r3, r3, #128
 3269 0316 03EB0322 		add	r2, r3, r3, lsl #8
 3270 031a 03EBC213 		add	r3, r3, r2, lsl #7
 3271 031e C3F3C453 		ubfx	r3, r3, #23, #5
 3272 0322 63F30401 		bfi	r1, r3, #0, #5
 470:Middlewares/lvgl/src/draw/../misc/lv_color.h **** #else
 3273              		.loc 2 470 5 is_stmt 1 view .LVU1161
 470:Middlewares/lvgl/src/draw/../misc/lv_color.h **** #else
 3274              		.loc 2 470 5 view .LVU1162
 470:Middlewares/lvgl/src/draw/../misc/lv_color.h **** #else
 3275              		.loc 2 470 5 view .LVU1163
 476:Middlewares/lvgl/src/draw/../misc/lv_color.h **** }
 3276              		.loc 2 476 5 view .LVU1164
 3277 0326 8A46     		mov	r10, r1	@ movhi
 3278              	.LVL369:
 476:Middlewares/lvgl/src/draw/../misc/lv_color.h **** }
 3279              		.loc 2 476 5 is_stmt 0 view .LVU1165
 3280 0328 B6E7     		b	.L156
 3281              	.L158:
 476:Middlewares/lvgl/src/draw/../misc/lv_color.h **** }
 3282              		.loc 2 476 5 view .LVU1166
 3283              	.LBE115:
 3284              	.LBE114:
 760:Middlewares/lvgl/src/draw/lv_img_buf.c ****     else c1 = lv_color_mix(c10, c11, xr1);
 3285              		.loc 1 760 10 is_stmt 1 view .LVU1167
 760:Middlewares/lvgl/src/draw/lv_img_buf.c ****     else c1 = lv_color_mix(c10, c11, xr1);
 3286              		.loc 1 760 12 is_stmt 0 view .LVU1168
 3287 032a FF2D     		cmp	r5, #255
 3288 032c 3CD0     		beq	.L179
 761:Middlewares/lvgl/src/draw/lv_img_buf.c **** 
 3289              		.loc 1 761 10 is_stmt 1 view .LVU1169
 3290 032e BDF81800 		ldrh	r0, [sp, #24]
 3291              	.LVL370:
 761:Middlewares/lvgl/src/draw/lv_img_buf.c **** 
 3292              		.loc 1 761 10 is_stmt 0 view .LVU1170
 3293 0332 BDF81470 		ldrh	r7, [sp, #20]
 3294              	.LVL371:
 3295              	.LBB116:
 3296              	.LBI116:
 459:Middlewares/lvgl/src/draw/../misc/lv_color.h **** {
 3297              		.loc 2 459 48 is_stmt 1 view .LVU1171
 3298              	.LBB117:
 461:Middlewares/lvgl/src/draw/../misc/lv_color.h **** #if LV_COLOR_DEPTH != 1
 3299              		.loc 2 461 5 view .LVU1172
 464:Middlewares/lvgl/src/draw/../misc/lv_color.h ****                                         (255 - mix) + LV_COLOR_MIX_ROUND_OFS));
 3300              		.loc 2 464 5 view .LVU1173
 464:Middlewares/lvgl/src/draw/../misc/lv_color.h ****                                         (255 - mix) + LV_COLOR_MIX_ROUND_OFS));
ARM GAS  /tmp/ccTdGo64.s 			page 100


 3301              		.loc 2 464 5 is_stmt 0 view .LVU1174
 3302 0336 C0F3C421 		ubfx	r1, r0, #11, #5
 3303              	.LVL372:
 464:Middlewares/lvgl/src/draw/../misc/lv_color.h ****                                         (255 - mix) + LV_COLOR_MIX_ROUND_OFS));
 3304              		.loc 2 464 5 view .LVU1175
 3305 033a C7F3C423 		ubfx	r3, r7, #11, #5
 3306 033e C5F1FF02 		rsb	r2, r5, #255
 3307 0342 02FB03F3 		mul	r3, r2, r3
 3308 0346 05FB0133 		mla	r3, r5, r1, r3
 3309 034a 8033     		adds	r3, r3, #128
 3310 034c 03EB0321 		add	r1, r3, r3, lsl #8
 3311 0350 03EBC113 		add	r3, r3, r1, lsl #7
 3312 0354 C3F3C451 		ubfx	r1, r3, #23, #5
 3313 0358 4FF00003 		mov	r3, #0	@ movhi
 464:Middlewares/lvgl/src/draw/../misc/lv_color.h ****                                         (255 - mix) + LV_COLOR_MIX_ROUND_OFS));
 3314              		.loc 2 464 5 view .LVU1176
 3315 035c 61F3CF23 		bfi	r3, r1, #11, #5
 3316              	.LVL373:
 466:Middlewares/lvgl/src/draw/../misc/lv_color.h ****                                         (255 - mix) + LV_COLOR_MIX_ROUND_OFS));
 3317              		.loc 2 466 5 is_stmt 1 view .LVU1177
 3318 0360 C0F3451C 		ubfx	ip, r0, #5, #6
 3319 0364 C7F34511 		ubfx	r1, r7, #5, #6
 3320 0368 02FB01F1 		mul	r1, r2, r1
 3321 036c 0CFB0511 		mla	r1, ip, r5, r1
 3322 0370 8031     		adds	r1, r1, #128
 3323 0372 01EB012C 		add	ip, r1, r1, lsl #8
 3324 0376 01EBCC11 		add	r1, r1, ip, lsl #7
 3325 037a C1F3C551 		ubfx	r1, r1, #23, #6
 3326 037e 61F34A13 		bfi	r3, r1, #5, #6
 468:Middlewares/lvgl/src/draw/../misc/lv_color.h ****                                         (255 - mix) + LV_COLOR_MIX_ROUND_OFS));
 3327              		.loc 2 468 5 view .LVU1178
 3328 0382 00F01F00 		and	r0, r0, #31
 3329              	.LVL374:
 468:Middlewares/lvgl/src/draw/../misc/lv_color.h ****                                         (255 - mix) + LV_COLOR_MIX_ROUND_OFS));
 3330              		.loc 2 468 5 is_stmt 0 view .LVU1179
 3331 0386 07F01F07 		and	r7, r7, #31
 3332              	.LVL375:
 468:Middlewares/lvgl/src/draw/../misc/lv_color.h ****                                         (255 - mix) + LV_COLOR_MIX_ROUND_OFS));
 3333              		.loc 2 468 5 view .LVU1180
 3334 038a 07FB02F2 		mul	r2, r7, r2
 3335 038e 00FB0525 		mla	r5, r0, r5, r2
 3336              	.LVL376:
 468:Middlewares/lvgl/src/draw/../misc/lv_color.h ****                                         (255 - mix) + LV_COLOR_MIX_ROUND_OFS));
 3337              		.loc 2 468 5 view .LVU1181
 3338 0392 8035     		adds	r5, r5, #128
 3339 0394 05EB0522 		add	r2, r5, r5, lsl #8
 3340 0398 05EBC215 		add	r5, r5, r2, lsl #7
 3341 039c C5F3C455 		ubfx	r5, r5, #23, #5
 3342 03a0 65F30403 		bfi	r3, r5, #0, #5
 470:Middlewares/lvgl/src/draw/../misc/lv_color.h **** #else
 3343              		.loc 2 470 5 is_stmt 1 view .LVU1182
 470:Middlewares/lvgl/src/draw/../misc/lv_color.h **** #else
 3344              		.loc 2 470 5 view .LVU1183
 470:Middlewares/lvgl/src/draw/../misc/lv_color.h **** #else
 3345              		.loc 2 470 5 view .LVU1184
 476:Middlewares/lvgl/src/draw/../misc/lv_color.h **** }
 3346              		.loc 2 476 5 view .LVU1185
ARM GAS  /tmp/ccTdGo64.s 			page 101


 3347 03a4 1A46     		mov	r2, r3	@ movhi
 476:Middlewares/lvgl/src/draw/../misc/lv_color.h **** }
 3348              		.loc 2 476 5 is_stmt 0 view .LVU1186
 3349 03a6 7BE7     		b	.L159
 3350              	.LVL377:
 3351              	.L179:
 476:Middlewares/lvgl/src/draw/../misc/lv_color.h **** }
 3352              		.loc 2 476 5 view .LVU1187
 3353              	.LBE117:
 3354              	.LBE116:
 760:Middlewares/lvgl/src/draw/lv_img_buf.c ****     else c1 = lv_color_mix(c10, c11, xr1);
 3355              		.loc 1 760 34 is_stmt 1 discriminator 1 view .LVU1188
 760:Middlewares/lvgl/src/draw/lv_img_buf.c ****     else c1 = lv_color_mix(c10, c11, xr1);
 3356              		.loc 1 760 37 is_stmt 0 discriminator 1 view .LVU1189
 3357 03a8 BDF81820 		ldrh	r2, [sp, #24]
 3358 03ac 78E7     		b	.L159
 3359              	.LVL378:
 3360              	.L161:
 764:Middlewares/lvgl/src/draw/lv_img_buf.c ****     else dsc->res.color = lv_color_mix(c0, c1, yr);
 3361              		.loc 1 764 10 is_stmt 1 view .LVU1190
 764:Middlewares/lvgl/src/draw/lv_img_buf.c ****     else dsc->res.color = lv_color_mix(c0, c1, yr);
 3362              		.loc 1 764 12 is_stmt 0 view .LVU1191
 3363 03ae FF2E     		cmp	r6, #255
 3364 03b0 39D0     		beq	.L180
 765:Middlewares/lvgl/src/draw/lv_img_buf.c **** 
 3365              		.loc 1 765 10 is_stmt 1 view .LVU1192
 3366              	.LVL379:
 3367              	.LBB118:
 3368              	.LBI118:
 459:Middlewares/lvgl/src/draw/../misc/lv_color.h **** {
 3369              		.loc 2 459 48 view .LVU1193
 3370              	.LBB119:
 461:Middlewares/lvgl/src/draw/../misc/lv_color.h **** #if LV_COLOR_DEPTH != 1
 3371              		.loc 2 461 5 view .LVU1194
 464:Middlewares/lvgl/src/draw/../misc/lv_color.h ****                                         (255 - mix) + LV_COLOR_MIX_ROUND_OFS));
 3372              		.loc 2 464 5 view .LVU1195
 464:Middlewares/lvgl/src/draw/../misc/lv_color.h ****                                         (255 - mix) + LV_COLOR_MIX_ROUND_OFS));
 3373              		.loc 2 464 5 is_stmt 0 view .LVU1196
 3374 03b2 CAF3C420 		ubfx	r0, r10, #11, #5
 3375              	.LVL380:
 464:Middlewares/lvgl/src/draw/../misc/lv_color.h ****                                         (255 - mix) + LV_COLOR_MIX_ROUND_OFS));
 3376              		.loc 2 464 5 view .LVU1197
 3377 03b6 C2F3C421 		ubfx	r1, r2, #11, #5
 3378              	.LVL381:
 464:Middlewares/lvgl/src/draw/../misc/lv_color.h ****                                         (255 - mix) + LV_COLOR_MIX_ROUND_OFS));
 3379              		.loc 2 464 5 view .LVU1198
 3380 03ba C6F1FF03 		rsb	r3, r6, #255
 3381              	.LVL382:
 464:Middlewares/lvgl/src/draw/../misc/lv_color.h ****                                         (255 - mix) + LV_COLOR_MIX_ROUND_OFS));
 3382              		.loc 2 464 5 view .LVU1199
 3383 03be 03FB01F1 		mul	r1, r3, r1
 3384 03c2 06FB0011 		mla	r1, r6, r0, r1
 3385 03c6 8031     		adds	r1, r1, #128
 3386 03c8 01EB0120 		add	r0, r1, r1, lsl #8
 3387 03cc 01EBC011 		add	r1, r1, r0, lsl #7
 3388 03d0 C1F3C451 		ubfx	r1, r1, #23, #5
 3389 03d4 4FF00000 		mov	r0, #0	@ movhi
ARM GAS  /tmp/ccTdGo64.s 			page 102


 3390              	.LVL383:
 464:Middlewares/lvgl/src/draw/../misc/lv_color.h ****                                         (255 - mix) + LV_COLOR_MIX_ROUND_OFS));
 3391              		.loc 2 464 5 view .LVU1200
 3392 03d8 61F3CF20 		bfi	r0, r1, #11, #5
 3393              	.LVL384:
 466:Middlewares/lvgl/src/draw/../misc/lv_color.h ****                                         (255 - mix) + LV_COLOR_MIX_ROUND_OFS));
 3394              		.loc 2 466 5 is_stmt 1 view .LVU1201
 3395 03dc CAF34515 		ubfx	r5, r10, #5, #6
 3396 03e0 C2F34511 		ubfx	r1, r2, #5, #6
 3397 03e4 03FB01F1 		mul	r1, r3, r1
 3398 03e8 05FB0611 		mla	r1, r5, r6, r1
 3399 03ec 8031     		adds	r1, r1, #128
 3400 03ee 01EB0125 		add	r5, r1, r1, lsl #8
 3401 03f2 01EBC511 		add	r1, r1, r5, lsl #7
 3402 03f6 C1F3C551 		ubfx	r1, r1, #23, #6
 3403 03fa 61F34A10 		bfi	r0, r1, #5, #6
 468:Middlewares/lvgl/src/draw/../misc/lv_color.h ****                                         (255 - mix) + LV_COLOR_MIX_ROUND_OFS));
 3404              		.loc 2 468 5 view .LVU1202
 3405 03fe 0AF01F0A 		and	r10, r10, #31
 3406              	.LVL385:
 468:Middlewares/lvgl/src/draw/../misc/lv_color.h ****                                         (255 - mix) + LV_COLOR_MIX_ROUND_OFS));
 3407              		.loc 2 468 5 is_stmt 0 view .LVU1203
 3408 0402 02F01F02 		and	r2, r2, #31
 3409              	.LVL386:
 468:Middlewares/lvgl/src/draw/../misc/lv_color.h ****                                         (255 - mix) + LV_COLOR_MIX_ROUND_OFS));
 3410              		.loc 2 468 5 view .LVU1204
 3411 0406 02FB03F3 		mul	r3, r2, r3
 3412 040a 0AFB0636 		mla	r6, r10, r6, r3
 3413              	.LVL387:
 468:Middlewares/lvgl/src/draw/../misc/lv_color.h ****                                         (255 - mix) + LV_COLOR_MIX_ROUND_OFS));
 3414              		.loc 2 468 5 view .LVU1205
 3415 040e 8036     		adds	r6, r6, #128
 3416 0410 06EB0623 		add	r3, r6, r6, lsl #8
 3417 0414 06EBC316 		add	r6, r6, r3, lsl #7
 3418 0418 C6F3C456 		ubfx	r6, r6, #23, #5
 3419 041c 66F30400 		bfi	r0, r6, #0, #5
 470:Middlewares/lvgl/src/draw/../misc/lv_color.h **** #else
 3420              		.loc 2 470 5 is_stmt 1 view .LVU1206
 470:Middlewares/lvgl/src/draw/../misc/lv_color.h **** #else
 3421              		.loc 2 470 5 view .LVU1207
 470:Middlewares/lvgl/src/draw/../misc/lv_color.h **** #else
 3422              		.loc 2 470 5 view .LVU1208
 476:Middlewares/lvgl/src/draw/../misc/lv_color.h **** }
 3423              		.loc 2 476 5 view .LVU1209
 476:Middlewares/lvgl/src/draw/../misc/lv_color.h **** }
 3424              		.loc 2 476 5 is_stmt 0 view .LVU1210
 3425              	.LBE119:
 3426              	.LBE118:
 765:Middlewares/lvgl/src/draw/lv_img_buf.c **** 
 3427              		.loc 1 765 27 view .LVU1211
 3428 0420 A082     		strh	r0, [r4, #20]	@ movhi
 767:Middlewares/lvgl/src/draw/lv_img_buf.c **** }
 3429              		.loc 1 767 12 view .LVU1212
 3430 0422 0120     		movs	r0, #1
 3431              	.LVL388:
 767:Middlewares/lvgl/src/draw/lv_img_buf.c **** }
 3432              		.loc 1 767 12 view .LVU1213
ARM GAS  /tmp/ccTdGo64.s 			page 103


 3433 0424 41E7     		b	.L148
 3434              	.LVL389:
 3435              	.L180:
 764:Middlewares/lvgl/src/draw/lv_img_buf.c ****     else dsc->res.color = lv_color_mix(c0, c1, yr);
 3436              		.loc 1 764 33 is_stmt 1 discriminator 1 view .LVU1214
 764:Middlewares/lvgl/src/draw/lv_img_buf.c ****     else dsc->res.color = lv_color_mix(c0, c1, yr);
 3437              		.loc 1 764 48 is_stmt 0 discriminator 1 view .LVU1215
 3438 0426 A4F814A0 		strh	r10, [r4, #20]	@ movhi
 767:Middlewares/lvgl/src/draw/lv_img_buf.c **** }
 3439              		.loc 1 767 12 discriminator 1 view .LVU1216
 3440 042a 0120     		movs	r0, #1
 3441 042c 3DE7     		b	.L148
 3442              	.LVL390:
 3443              	.L171:
 3444              	.LBB120:
 739:Middlewares/lvgl/src/draw/lv_img_buf.c ****         if(a0 <= LV_OPA_MIN) yr = LV_OPA_TRANSP;
 3445              		.loc 1 739 57 view .LVU1217
 3446 042e 0020     		movs	r0, #0
 3447              	.LVL391:
 739:Middlewares/lvgl/src/draw/lv_img_buf.c ****         if(a0 <= LV_OPA_MIN) yr = LV_OPA_TRANSP;
 3448              		.loc 1 739 57 view .LVU1218
 3449 0430 3BE7     		b	.L148
 3450              	.LBE120:
 3451              		.cfi_endproc
 3452              	.LFE59:
 3454              		.section	.text._lv_img_buf_transform,"ax",%progbits
 3455              		.align	1
 3456              		.global	_lv_img_buf_transform
 3457              		.syntax unified
 3458              		.thumb
 3459              		.thumb_func
 3460              		.fpu fpv4-sp-d16
 3462              	_lv_img_buf_transform:
 3463              	.LVL392:
 3464              	.LFB58:
 570:Middlewares/lvgl/src/draw/lv_img_buf.c ****     const uint8_t * src_u8 = (const uint8_t *)dsc->cfg.src;
 3465              		.loc 1 570 1 is_stmt 1 view -0
 3466              		.cfi_startproc
 3467              		@ args = 0, pretend = 0, frame = 8
 3468              		@ frame_needed = 0, uses_anonymous_args = 0
 570:Middlewares/lvgl/src/draw/lv_img_buf.c ****     const uint8_t * src_u8 = (const uint8_t *)dsc->cfg.src;
 3469              		.loc 1 570 1 is_stmt 0 view .LVU1220
 3470 0000 2DE9F04F 		push	{r4, r5, r6, r7, r8, r9, r10, fp, lr}
 3471              	.LCFI31:
 3472              		.cfi_def_cfa_offset 36
 3473              		.cfi_offset 4, -36
 3474              		.cfi_offset 5, -32
 3475              		.cfi_offset 6, -28
 3476              		.cfi_offset 7, -24
 3477              		.cfi_offset 8, -20
 3478              		.cfi_offset 9, -16
 3479              		.cfi_offset 10, -12
 3480              		.cfi_offset 11, -8
 3481              		.cfi_offset 14, -4
 3482 0004 83B0     		sub	sp, sp, #12
 3483              	.LCFI32:
 3484              		.cfi_def_cfa_offset 48
ARM GAS  /tmp/ccTdGo64.s 			page 104


 3485 0006 0446     		mov	r4, r0
 571:Middlewares/lvgl/src/draw/lv_img_buf.c **** 
 3486              		.loc 1 571 5 is_stmt 1 view .LVU1221
 571:Middlewares/lvgl/src/draw/lv_img_buf.c **** 
 3487              		.loc 1 571 21 is_stmt 0 view .LVU1222
 3488 0008 0068     		ldr	r0, [r0]
 3489              	.LVL393:
 574:Middlewares/lvgl/src/draw/lv_img_buf.c ****     int32_t yt = y - dsc->cfg.pivot_y;
 3490              		.loc 1 574 5 is_stmt 1 view .LVU1223
 574:Middlewares/lvgl/src/draw/lv_img_buf.c ****     int32_t yt = y - dsc->cfg.pivot_y;
 3491              		.loc 1 574 30 is_stmt 0 view .LVU1224
 3492 000a B4F90830 		ldrsh	r3, [r4, #8]
 574:Middlewares/lvgl/src/draw/lv_img_buf.c ****     int32_t yt = y - dsc->cfg.pivot_y;
 3493              		.loc 1 574 13 view .LVU1225
 3494 000e C91A     		subs	r1, r1, r3
 3495              	.LVL394:
 575:Middlewares/lvgl/src/draw/lv_img_buf.c **** 
 3496              		.loc 1 575 5 is_stmt 1 view .LVU1226
 575:Middlewares/lvgl/src/draw/lv_img_buf.c **** 
 3497              		.loc 1 575 30 is_stmt 0 view .LVU1227
 3498 0010 B4F90A30 		ldrsh	r3, [r4, #10]
 575:Middlewares/lvgl/src/draw/lv_img_buf.c **** 
 3499              		.loc 1 575 13 view .LVU1228
 3500 0014 D21A     		subs	r2, r2, r3
 3501              	.LVL395:
 577:Middlewares/lvgl/src/draw/lv_img_buf.c ****     int32_t ys;
 3502              		.loc 1 577 5 is_stmt 1 view .LVU1229
 578:Middlewares/lvgl/src/draw/lv_img_buf.c ****     if(dsc->cfg.zoom == LV_IMG_ZOOM_NONE) {
 3503              		.loc 1 578 5 view .LVU1230
 579:Middlewares/lvgl/src/draw/lv_img_buf.c ****         /*Get the source pixel from the upscaled image*/
 3504              		.loc 1 579 5 view .LVU1231
 579:Middlewares/lvgl/src/draw/lv_img_buf.c ****         /*Get the source pixel from the upscaled image*/
 3505              		.loc 1 579 16 is_stmt 0 view .LVU1232
 3506 0016 E389     		ldrh	r3, [r4, #14]
 579:Middlewares/lvgl/src/draw/lv_img_buf.c ****         /*Get the source pixel from the upscaled image*/
 3507              		.loc 1 579 7 view .LVU1233
 3508 0018 B3F5807F 		cmp	r3, #256
 3509 001c 0FD0     		beq	.L201
 584:Middlewares/lvgl/src/draw/lv_img_buf.c ****         xt = (int32_t)((int32_t)xt * dsc->tmp.zoom_inv) >> _LV_ZOOM_INV_UPSCALE;
 3510              		.loc 1 584 10 is_stmt 1 view .LVU1234
 584:Middlewares/lvgl/src/draw/lv_img_buf.c ****         xt = (int32_t)((int32_t)xt * dsc->tmp.zoom_inv) >> _LV_ZOOM_INV_UPSCALE;
 3511              		.loc 1 584 21 is_stmt 0 view .LVU1235
 3512 001e B4F90C30 		ldrsh	r3, [r4, #12]
 584:Middlewares/lvgl/src/draw/lv_img_buf.c ****         xt = (int32_t)((int32_t)xt * dsc->tmp.zoom_inv) >> _LV_ZOOM_INV_UPSCALE;
 3513              		.loc 1 584 12 view .LVU1236
 3514 0022 002B     		cmp	r3, #0
 3515 0024 41D1     		bne	.L184
 585:Middlewares/lvgl/src/draw/lv_img_buf.c ****         yt = (int32_t)((int32_t)yt * dsc->tmp.zoom_inv) >> _LV_ZOOM_INV_UPSCALE;
 3516              		.loc 1 585 9 is_stmt 1 view .LVU1237
 585:Middlewares/lvgl/src/draw/lv_img_buf.c ****         yt = (int32_t)((int32_t)yt * dsc->tmp.zoom_inv) >> _LV_ZOOM_INV_UPSCALE;
 3517              		.loc 1 585 46 is_stmt 0 view .LVU1238
 3518 0026 A36B     		ldr	r3, [r4, #56]
 585:Middlewares/lvgl/src/draw/lv_img_buf.c ****         yt = (int32_t)((int32_t)yt * dsc->tmp.zoom_inv) >> _LV_ZOOM_INV_UPSCALE;
 3519              		.loc 1 585 36 view .LVU1239
 3520 0028 03FB01F1 		mul	r1, r3, r1
 3521              	.LVL396:
 586:Middlewares/lvgl/src/draw/lv_img_buf.c ****         xs = xt + dsc->tmp.pivot_x_256;
ARM GAS  /tmp/ccTdGo64.s 			page 105


 3522              		.loc 1 586 9 is_stmt 1 view .LVU1240
 586:Middlewares/lvgl/src/draw/lv_img_buf.c ****         xs = xt + dsc->tmp.pivot_x_256;
 3523              		.loc 1 586 36 is_stmt 0 view .LVU1241
 3524 002c 03FB02F2 		mul	r2, r3, r2
 3525              	.LVL397:
 587:Middlewares/lvgl/src/draw/lv_img_buf.c ****         ys = yt + dsc->tmp.pivot_y_256;
 3526              		.loc 1 587 9 is_stmt 1 view .LVU1242
 587:Middlewares/lvgl/src/draw/lv_img_buf.c ****         ys = yt + dsc->tmp.pivot_y_256;
 3527              		.loc 1 587 27 is_stmt 0 view .LVU1243
 3528 0030 656A     		ldr	r5, [r4, #36]
 587:Middlewares/lvgl/src/draw/lv_img_buf.c ****         ys = yt + dsc->tmp.pivot_y_256;
 3529              		.loc 1 587 12 view .LVU1244
 3530 0032 05EB6115 		add	r5, r5, r1, asr #5
 3531              	.LVL398:
 588:Middlewares/lvgl/src/draw/lv_img_buf.c ****     }
 3532              		.loc 1 588 9 is_stmt 1 view .LVU1245
 588:Middlewares/lvgl/src/draw/lv_img_buf.c ****     }
 3533              		.loc 1 588 27 is_stmt 0 view .LVU1246
 3534 0036 A66A     		ldr	r6, [r4, #40]
 588:Middlewares/lvgl/src/draw/lv_img_buf.c ****     }
 3535              		.loc 1 588 12 view .LVU1247
 3536 0038 06EB6216 		add	r6, r6, r2, asr #5
 3537              	.LVL399:
 588:Middlewares/lvgl/src/draw/lv_img_buf.c ****     }
 3538              		.loc 1 588 12 view .LVU1248
 3539 003c 0FE0     		b	.L183
 3540              	.LVL400:
 3541              	.L201:
 581:Middlewares/lvgl/src/draw/lv_img_buf.c ****         ys = ((dsc->tmp.sinma * xt + dsc->tmp.cosma * yt) >> (_LV_TRANSFORM_TRIGO_SHIFT - 8)) + dsc
 3542              		.loc 1 581 9 is_stmt 1 view .LVU1249
 581:Middlewares/lvgl/src/draw/lv_img_buf.c ****         ys = ((dsc->tmp.sinma * xt + dsc->tmp.cosma * yt) >> (_LV_TRANSFORM_TRIGO_SHIFT - 8)) + dsc
 3543              		.loc 1 581 24 is_stmt 0 view .LVU1250
 3544 003e 236B     		ldr	r3, [r4, #48]
 581:Middlewares/lvgl/src/draw/lv_img_buf.c ****         ys = ((dsc->tmp.sinma * xt + dsc->tmp.cosma * yt) >> (_LV_TRANSFORM_TRIGO_SHIFT - 8)) + dsc
 3545              		.loc 1 581 31 view .LVU1251
 3546 0040 01FB03F5 		mul	r5, r1, r3
 581:Middlewares/lvgl/src/draw/lv_img_buf.c ****         ys = ((dsc->tmp.sinma * xt + dsc->tmp.cosma * yt) >> (_LV_TRANSFORM_TRIGO_SHIFT - 8)) + dsc
 3547              		.loc 1 581 46 view .LVU1252
 3548 0044 E66A     		ldr	r6, [r4, #44]
 581:Middlewares/lvgl/src/draw/lv_img_buf.c ****         ys = ((dsc->tmp.sinma * xt + dsc->tmp.cosma * yt) >> (_LV_TRANSFORM_TRIGO_SHIFT - 8)) + dsc
 3549              		.loc 1 581 36 view .LVU1253
 3550 0046 02FB1655 		mls	r5, r2, r6, r5
 581:Middlewares/lvgl/src/draw/lv_img_buf.c ****         ys = ((dsc->tmp.sinma * xt + dsc->tmp.cosma * yt) >> (_LV_TRANSFORM_TRIGO_SHIFT - 8)) + dsc
 3551              		.loc 1 581 105 view .LVU1254
 3552 004a 676A     		ldr	r7, [r4, #36]
 581:Middlewares/lvgl/src/draw/lv_img_buf.c ****         ys = ((dsc->tmp.sinma * xt + dsc->tmp.cosma * yt) >> (_LV_TRANSFORM_TRIGO_SHIFT - 8)) + dsc
 3553              		.loc 1 581 12 view .LVU1255
 3554 004c 07EBA505 		add	r5, r7, r5, asr #2
 3555              	.LVL401:
 582:Middlewares/lvgl/src/draw/lv_img_buf.c ****     }
 3556              		.loc 1 582 9 is_stmt 1 view .LVU1256
 582:Middlewares/lvgl/src/draw/lv_img_buf.c ****     }
 3557              		.loc 1 582 53 is_stmt 0 view .LVU1257
 3558 0050 03FB02F2 		mul	r2, r3, r2
 3559              	.LVL402:
 582:Middlewares/lvgl/src/draw/lv_img_buf.c ****     }
 3560              		.loc 1 582 36 view .LVU1258
ARM GAS  /tmp/ccTdGo64.s 			page 106


 3561 0054 01FB0621 		mla	r1, r1, r6, r2
 3562              	.LVL403:
 582:Middlewares/lvgl/src/draw/lv_img_buf.c ****     }
 3563              		.loc 1 582 105 view .LVU1259
 3564 0058 A66A     		ldr	r6, [r4, #40]
 582:Middlewares/lvgl/src/draw/lv_img_buf.c ****     }
 3565              		.loc 1 582 12 view .LVU1260
 3566 005a 06EBA106 		add	r6, r6, r1, asr #2
 3567              	.LVL404:
 3568              	.L183:
 598:Middlewares/lvgl/src/draw/lv_img_buf.c ****     int32_t ys_int = ys >> 8;
 3569              		.loc 1 598 5 is_stmt 1 view .LVU1261
 598:Middlewares/lvgl/src/draw/lv_img_buf.c ****     int32_t ys_int = ys >> 8;
 3570              		.loc 1 598 13 is_stmt 0 view .LVU1262
 3571 005e 4FEA2528 		asr	r8, r5, #8
 3572              	.LVL405:
 599:Middlewares/lvgl/src/draw/lv_img_buf.c **** 
 3573              		.loc 1 599 5 is_stmt 1 view .LVU1263
 599:Middlewares/lvgl/src/draw/lv_img_buf.c **** 
 3574              		.loc 1 599 13 is_stmt 0 view .LVU1264
 3575 0062 3712     		asrs	r7, r6, #8
 3576              	.LVL406:
 601:Middlewares/lvgl/src/draw/lv_img_buf.c ****     else if(xs_int < 0) return false;
 3577              		.loc 1 601 5 is_stmt 1 view .LVU1265
 601:Middlewares/lvgl/src/draw/lv_img_buf.c ****     else if(xs_int < 0) return false;
 3578              		.loc 1 601 26 is_stmt 0 view .LVU1266
 3579 0064 B4F90430 		ldrsh	r3, [r4, #4]
 601:Middlewares/lvgl/src/draw/lv_img_buf.c ****     else if(xs_int < 0) return false;
 3580              		.loc 1 601 7 view .LVU1267
 3581 0068 B3EB252F 		cmp	r3, r5, asr #8
 3582 006c 40F38780 		ble	.L195
 602:Middlewares/lvgl/src/draw/lv_img_buf.c **** 
 3583              		.loc 1 602 10 is_stmt 1 view .LVU1268
 602:Middlewares/lvgl/src/draw/lv_img_buf.c **** 
 3584              		.loc 1 602 12 is_stmt 0 view .LVU1269
 3585 0070 B8F1000F 		cmp	r8, #0
 3586 0074 C0F28780 		blt	.L196
 604:Middlewares/lvgl/src/draw/lv_img_buf.c ****     else if(ys_int < 0) return false;
 3587              		.loc 1 604 5 is_stmt 1 view .LVU1270
 604:Middlewares/lvgl/src/draw/lv_img_buf.c ****     else if(ys_int < 0) return false;
 3588              		.loc 1 604 26 is_stmt 0 view .LVU1271
 3589 0078 B4F90620 		ldrsh	r2, [r4, #6]
 604:Middlewares/lvgl/src/draw/lv_img_buf.c ****     else if(ys_int < 0) return false;
 3590              		.loc 1 604 7 view .LVU1272
 3591 007c BA42     		cmp	r2, r7
 3592 007e 40F38480 		ble	.L197
 605:Middlewares/lvgl/src/draw/lv_img_buf.c **** 
 3593              		.loc 1 605 10 is_stmt 1 view .LVU1273
 605:Middlewares/lvgl/src/draw/lv_img_buf.c **** 
 3594              		.loc 1 605 12 is_stmt 0 view .LVU1274
 3595 0082 002F     		cmp	r7, #0
 3596 0084 C0F28380 		blt	.L198
 607:Middlewares/lvgl/src/draw/lv_img_buf.c ****     uint32_t pxi;
 3597              		.loc 1 607 5 is_stmt 1 view .LVU1275
 608:Middlewares/lvgl/src/draw/lv_img_buf.c ****     if(dsc->tmp.native_color) {
 3598              		.loc 1 608 5 view .LVU1276
 609:Middlewares/lvgl/src/draw/lv_img_buf.c ****         if(dsc->tmp.has_alpha == 0) {
ARM GAS  /tmp/ccTdGo64.s 			page 107


 3599              		.loc 1 609 5 view .LVU1277
 609:Middlewares/lvgl/src/draw/lv_img_buf.c ****         if(dsc->tmp.has_alpha == 0) {
 3600              		.loc 1 609 8 is_stmt 0 view .LVU1278
 3601 0088 94F83420 		ldrb	r2, [r4, #52]	@ zero_extendqisi2
 609:Middlewares/lvgl/src/draw/lv_img_buf.c ****         if(dsc->tmp.has_alpha == 0) {
 3602              		.loc 1 609 7 view .LVU1279
 3603 008c 12F00409 		ands	r9, r2, #4
 3604 0090 51D0     		beq	.L186
 610:Middlewares/lvgl/src/draw/lv_img_buf.c ****             px_size = LV_COLOR_SIZE >> 3;
 3605              		.loc 1 610 9 is_stmt 1 view .LVU1280
 610:Middlewares/lvgl/src/draw/lv_img_buf.c ****             px_size = LV_COLOR_SIZE >> 3;
 3606              		.loc 1 610 11 is_stmt 0 view .LVU1281
 3607 0092 12F0020F 		tst	r2, #2
 3608 0096 36D1     		bne	.L187
 611:Middlewares/lvgl/src/draw/lv_img_buf.c **** 
 3609              		.loc 1 611 13 is_stmt 1 view .LVU1282
 3610              	.LVL407:
 613:Middlewares/lvgl/src/draw/lv_img_buf.c ****             lv_memcpy_small(&dsc->res.color, &src_u8[pxi], px_size);
 3611              		.loc 1 613 13 view .LVU1283
 613:Middlewares/lvgl/src/draw/lv_img_buf.c ****             lv_memcpy_small(&dsc->res.color, &src_u8[pxi], px_size);
 3612              		.loc 1 613 57 is_stmt 0 view .LVU1284
 3613 0098 07FB0383 		mla	r3, r7, r3, r8
 3614 009c 5900     		lsls	r1, r3, #1
 3615              	.LVL408:
 614:Middlewares/lvgl/src/draw/lv_img_buf.c ****         }
 3616              		.loc 1 614 13 is_stmt 1 view .LVU1285
 614:Middlewares/lvgl/src/draw/lv_img_buf.c ****         }
 3617              		.loc 1 614 29 is_stmt 0 view .LVU1286
 3618 009e 04F1140C 		add	ip, r4, #20
 614:Middlewares/lvgl/src/draw/lv_img_buf.c ****         }
 3619              		.loc 1 614 46 view .LVU1287
 3620 00a2 00EB4303 		add	r3, r0, r3, lsl #1
 3621              	.LVL409:
 3622              	.LBB121:
 3623              	.LBI121:
 201:Middlewares/lvgl/src/draw/../misc/lv_mem.h **** {
 3624              		.loc 3 201 44 is_stmt 1 view .LVU1288
 3625              	.LBB122:
 203:Middlewares/lvgl/src/draw/../misc/lv_mem.h ****     const uint8_t * s8 = (const uint8_t *)src;
 3626              		.loc 3 203 5 view .LVU1289
 204:Middlewares/lvgl/src/draw/../misc/lv_mem.h **** 
 3627              		.loc 3 204 5 view .LVU1290
 206:Middlewares/lvgl/src/draw/../misc/lv_mem.h ****         *d8 = *s8;
 3628              		.loc 3 206 5 view .LVU1291
 206:Middlewares/lvgl/src/draw/../misc/lv_mem.h ****         *d8 = *s8;
 3629              		.loc 3 206 10 is_stmt 0 view .LVU1292
 3630 00a6 0222     		movs	r2, #2
 3631 00a8 1CE0     		b	.L188
 3632              	.LVL410:
 3633              	.L184:
 206:Middlewares/lvgl/src/draw/../misc/lv_mem.h ****         *d8 = *s8;
 3634              		.loc 3 206 10 view .LVU1293
 3635              	.LBE122:
 3636              	.LBE121:
 591:Middlewares/lvgl/src/draw/lv_img_buf.c ****         yt = (int32_t)((int32_t)yt * dsc->tmp.zoom_inv) >> _LV_ZOOM_INV_UPSCALE;
 3637              		.loc 1 591 9 is_stmt 1 view .LVU1294
 591:Middlewares/lvgl/src/draw/lv_img_buf.c ****         yt = (int32_t)((int32_t)yt * dsc->tmp.zoom_inv) >> _LV_ZOOM_INV_UPSCALE;
ARM GAS  /tmp/ccTdGo64.s 			page 108


 3638              		.loc 1 591 46 is_stmt 0 view .LVU1295
 3639 00aa A66B     		ldr	r6, [r4, #56]
 591:Middlewares/lvgl/src/draw/lv_img_buf.c ****         yt = (int32_t)((int32_t)yt * dsc->tmp.zoom_inv) >> _LV_ZOOM_INV_UPSCALE;
 3640              		.loc 1 591 36 view .LVU1296
 3641 00ac 06FB01F1 		mul	r1, r6, r1
 3642              	.LVL411:
 591:Middlewares/lvgl/src/draw/lv_img_buf.c ****         yt = (int32_t)((int32_t)yt * dsc->tmp.zoom_inv) >> _LV_ZOOM_INV_UPSCALE;
 3643              		.loc 1 591 12 view .LVU1297
 3644 00b0 4911     		asrs	r1, r1, #5
 3645              	.LVL412:
 592:Middlewares/lvgl/src/draw/lv_img_buf.c ****         xs = ((dsc->tmp.cosma * xt - dsc->tmp.sinma * yt) >> (_LV_TRANSFORM_TRIGO_SHIFT)) + dsc->tm
 3646              		.loc 1 592 9 is_stmt 1 view .LVU1298
 592:Middlewares/lvgl/src/draw/lv_img_buf.c ****         xs = ((dsc->tmp.cosma * xt - dsc->tmp.sinma * yt) >> (_LV_TRANSFORM_TRIGO_SHIFT)) + dsc->tm
 3647              		.loc 1 592 36 is_stmt 0 view .LVU1299
 3648 00b2 06FB02F2 		mul	r2, r6, r2
 3649              	.LVL413:
 592:Middlewares/lvgl/src/draw/lv_img_buf.c ****         xs = ((dsc->tmp.cosma * xt - dsc->tmp.sinma * yt) >> (_LV_TRANSFORM_TRIGO_SHIFT)) + dsc->tm
 3650              		.loc 1 592 12 view .LVU1300
 3651 00b6 5211     		asrs	r2, r2, #5
 3652              	.LVL414:
 593:Middlewares/lvgl/src/draw/lv_img_buf.c ****         ys = ((dsc->tmp.sinma * xt + dsc->tmp.cosma * yt) >> (_LV_TRANSFORM_TRIGO_SHIFT)) + dsc->tm
 3653              		.loc 1 593 9 is_stmt 1 view .LVU1301
 593:Middlewares/lvgl/src/draw/lv_img_buf.c ****         ys = ((dsc->tmp.sinma * xt + dsc->tmp.cosma * yt) >> (_LV_TRANSFORM_TRIGO_SHIFT)) + dsc->tm
 3654              		.loc 1 593 24 is_stmt 0 view .LVU1302
 3655 00b8 236B     		ldr	r3, [r4, #48]
 593:Middlewares/lvgl/src/draw/lv_img_buf.c ****         ys = ((dsc->tmp.sinma * xt + dsc->tmp.cosma * yt) >> (_LV_TRANSFORM_TRIGO_SHIFT)) + dsc->tm
 3656              		.loc 1 593 31 view .LVU1303
 3657 00ba 01FB03F5 		mul	r5, r1, r3
 593:Middlewares/lvgl/src/draw/lv_img_buf.c ****         ys = ((dsc->tmp.sinma * xt + dsc->tmp.cosma * yt) >> (_LV_TRANSFORM_TRIGO_SHIFT)) + dsc->tm
 3658              		.loc 1 593 46 view .LVU1304
 3659 00be E66A     		ldr	r6, [r4, #44]
 593:Middlewares/lvgl/src/draw/lv_img_buf.c ****         ys = ((dsc->tmp.sinma * xt + dsc->tmp.cosma * yt) >> (_LV_TRANSFORM_TRIGO_SHIFT)) + dsc->tm
 3660              		.loc 1 593 36 view .LVU1305
 3661 00c0 02FB1655 		mls	r5, r2, r6, r5
 593:Middlewares/lvgl/src/draw/lv_img_buf.c ****         ys = ((dsc->tmp.sinma * xt + dsc->tmp.cosma * yt) >> (_LV_TRANSFORM_TRIGO_SHIFT)) + dsc->tm
 3662              		.loc 1 593 101 view .LVU1306
 3663 00c4 676A     		ldr	r7, [r4, #36]
 593:Middlewares/lvgl/src/draw/lv_img_buf.c ****         ys = ((dsc->tmp.sinma * xt + dsc->tmp.cosma * yt) >> (_LV_TRANSFORM_TRIGO_SHIFT)) + dsc->tm
 3664              		.loc 1 593 12 view .LVU1307
 3665 00c6 07EBA525 		add	r5, r7, r5, asr #10
 3666              	.LVL415:
 594:Middlewares/lvgl/src/draw/lv_img_buf.c ****     }
 3667              		.loc 1 594 9 is_stmt 1 view .LVU1308
 594:Middlewares/lvgl/src/draw/lv_img_buf.c ****     }
 3668              		.loc 1 594 53 is_stmt 0 view .LVU1309
 3669 00ca 03FB02F2 		mul	r2, r3, r2
 3670              	.LVL416:
 594:Middlewares/lvgl/src/draw/lv_img_buf.c ****     }
 3671              		.loc 1 594 36 view .LVU1310
 3672 00ce 01FB0621 		mla	r1, r1, r6, r2
 3673              	.LVL417:
 594:Middlewares/lvgl/src/draw/lv_img_buf.c ****     }
 3674              		.loc 1 594 101 view .LVU1311
 3675 00d2 A66A     		ldr	r6, [r4, #40]
 594:Middlewares/lvgl/src/draw/lv_img_buf.c ****     }
 3676              		.loc 1 594 12 view .LVU1312
 3677 00d4 06EBA126 		add	r6, r6, r1, asr #10
ARM GAS  /tmp/ccTdGo64.s 			page 109


 3678              	.LVL418:
 594:Middlewares/lvgl/src/draw/lv_img_buf.c ****     }
 3679              		.loc 1 594 12 view .LVU1313
 3680 00d8 C1E7     		b	.L183
 3681              	.LVL419:
 3682              	.L189:
 3683              	.LBB124:
 3684              	.LBB123:
 207:Middlewares/lvgl/src/draw/../misc/lv_mem.h ****         d8++;
 3685              		.loc 3 207 9 is_stmt 1 view .LVU1314
 207:Middlewares/lvgl/src/draw/../misc/lv_mem.h ****         d8++;
 3686              		.loc 3 207 15 is_stmt 0 view .LVU1315
 3687 00da 13F8010B 		ldrb	r0, [r3], #1	@ zero_extendqisi2
 3688              	.LVL420:
 207:Middlewares/lvgl/src/draw/../misc/lv_mem.h ****         d8++;
 3689              		.loc 3 207 13 view .LVU1316
 3690 00de 0CF8010B 		strb	r0, [ip], #1
 3691              	.LVL421:
 208:Middlewares/lvgl/src/draw/../misc/lv_mem.h ****         s8++;
 3692              		.loc 3 208 9 is_stmt 1 view .LVU1317
 209:Middlewares/lvgl/src/draw/../misc/lv_mem.h ****         len--;
 3693              		.loc 3 209 9 view .LVU1318
 210:Middlewares/lvgl/src/draw/../misc/lv_mem.h ****     }
 3694              		.loc 3 210 9 view .LVU1319
 210:Middlewares/lvgl/src/draw/../misc/lv_mem.h ****     }
 3695              		.loc 3 210 12 is_stmt 0 view .LVU1320
 3696 00e2 013A     		subs	r2, r2, #1
 3697              	.LVL422:
 3698              	.L188:
 206:Middlewares/lvgl/src/draw/../misc/lv_mem.h ****         *d8 = *s8;
 3699              		.loc 3 206 10 is_stmt 1 view .LVU1321
 3700 00e4 002A     		cmp	r2, #0
 3701 00e6 F8D1     		bne	.L189
 206:Middlewares/lvgl/src/draw/../misc/lv_mem.h ****         *d8 = *s8;
 3702              		.loc 3 206 10 is_stmt 0 view .LVU1322
 3703              	.LBE123:
 3704              	.LBE124:
 611:Middlewares/lvgl/src/draw/lv_img_buf.c **** 
 3705              		.loc 1 611 21 view .LVU1323
 3706 00e8 4FF00209 		mov	r9, #2
 3707              	.LVL423:
 3708              	.L190:
 630:Middlewares/lvgl/src/draw/lv_img_buf.c ****         lv_color_t ct = LV_COLOR_CHROMA_KEY;
 3709              		.loc 1 630 5 is_stmt 1 view .LVU1324
 630:Middlewares/lvgl/src/draw/lv_img_buf.c ****         lv_color_t ct = LV_COLOR_CHROMA_KEY;
 3710              		.loc 1 630 8 is_stmt 0 view .LVU1325
 3711 00ec 94F83430 		ldrb	r3, [r4, #52]	@ zero_extendqisi2
 630:Middlewares/lvgl/src/draw/lv_img_buf.c ****         lv_color_t ct = LV_COLOR_CHROMA_KEY;
 3712              		.loc 1 630 7 view .LVU1326
 3713 00f0 13F0010F 		tst	r3, #1
 3714 00f4 03D0     		beq	.L193
 3715              	.LBB125:
 631:Middlewares/lvgl/src/draw/lv_img_buf.c ****         if(dsc->res.color.full == ct.full) return false;
 3716              		.loc 1 631 9 is_stmt 1 view .LVU1327
 3717              	.LVL424:
 3718              	.LBB126:
 3719              	.LBI126:
ARM GAS  /tmp/ccTdGo64.s 			page 110


 607:Middlewares/lvgl/src/draw/../misc/lv_color.h **** {
 3720              		.loc 2 607 26 view .LVU1328
 3721              	.LBE126:
 3722              	.LBE125:
 609:Middlewares/lvgl/src/draw/../misc/lv_color.h **** }
 3723              		.loc 2 609 5 view .LVU1329
 3724              	.LBB130:
 3725              	.LBB129:
 3726              	.LBB127:
 3727              	.LBI127:
 602:Middlewares/lvgl/src/draw/../misc/lv_color.h **** {
 3728              		.loc 2 602 26 view .LVU1330
 3729              	.LBB128:
 604:Middlewares/lvgl/src/draw/../misc/lv_color.h **** }
 3730              		.loc 2 604 5 view .LVU1331
 604:Middlewares/lvgl/src/draw/../misc/lv_color.h **** }
 3731              		.loc 2 604 5 is_stmt 0 view .LVU1332
 3732              	.LBE128:
 3733              	.LBE127:
 3734              	.LBE129:
 632:Middlewares/lvgl/src/draw/lv_img_buf.c ****     }
 3735              		.loc 1 632 9 is_stmt 1 view .LVU1333
 632:Middlewares/lvgl/src/draw/lv_img_buf.c ****     }
 3736              		.loc 1 632 26 is_stmt 0 view .LVU1334
 3737 00f6 A38A     		ldrh	r3, [r4, #20]
 632:Middlewares/lvgl/src/draw/lv_img_buf.c ****     }
 3738              		.loc 1 632 11 view .LVU1335
 3739 00f8 B3F5FC6F 		cmp	r3, #2016
 3740 00fc 30D0     		beq	.L202
 3741              	.L193:
 3742              	.LBE130:
 635:Middlewares/lvgl/src/draw/lv_img_buf.c **** 
 3743              		.loc 1 635 5 is_stmt 1 view .LVU1336
 635:Middlewares/lvgl/src/draw/lv_img_buf.c **** 
 3744              		.loc 1 635 16 is_stmt 0 view .LVU1337
 3745 00fe E37C     		ldrb	r3, [r4, #19]	@ zero_extendqisi2
 635:Middlewares/lvgl/src/draw/lv_img_buf.c **** 
 3746              		.loc 1 635 7 view .LVU1338
 3747 0100 83BB     		cbnz	r3, .L203
 635:Middlewares/lvgl/src/draw/lv_img_buf.c **** 
 3748              		.loc 1 635 44 view .LVU1339
 3749 0102 0120     		movs	r0, #1
 3750 0104 3CE0     		b	.L185
 3751              	.LVL425:
 3752              	.L187:
 617:Middlewares/lvgl/src/draw/lv_img_buf.c ****             pxi     = dsc->cfg.src_w * ys_int * px_size + xs_int * px_size;
 3753              		.loc 1 617 13 is_stmt 1 view .LVU1340
 618:Middlewares/lvgl/src/draw/lv_img_buf.c ****             lv_memcpy_small(&dsc->res.color, &src_u8[pxi], px_size - 1);
 3754              		.loc 1 618 13 view .LVU1341
 618:Middlewares/lvgl/src/draw/lv_img_buf.c ****             lv_memcpy_small(&dsc->res.color, &src_u8[pxi], px_size - 1);
 3755              		.loc 1 618 57 is_stmt 0 view .LVU1342
 3756 0106 07FB0383 		mla	r3, r7, r3, r8
 3757 010a 03EB4303 		add	r3, r3, r3, lsl #1
 618:Middlewares/lvgl/src/draw/lv_img_buf.c ****             lv_memcpy_small(&dsc->res.color, &src_u8[pxi], px_size - 1);
 3758              		.loc 1 618 21 view .LVU1343
 3759 010e 1946     		mov	r1, r3
 3760              	.LVL426:
ARM GAS  /tmp/ccTdGo64.s 			page 111


 619:Middlewares/lvgl/src/draw/lv_img_buf.c ****             dsc->res.opa = src_u8[pxi + px_size - 1];
 3761              		.loc 1 619 13 is_stmt 1 view .LVU1344
 619:Middlewares/lvgl/src/draw/lv_img_buf.c ****             dsc->res.opa = src_u8[pxi + px_size - 1];
 3762              		.loc 1 619 29 is_stmt 0 view .LVU1345
 3763 0110 04F1140E 		add	lr, r4, #20
 619:Middlewares/lvgl/src/draw/lv_img_buf.c ****             dsc->res.opa = src_u8[pxi + px_size - 1];
 3764              		.loc 1 619 46 view .LVU1346
 3765 0114 00EB030C 		add	ip, r0, r3
 3766              	.LVL427:
 3767              	.LBB131:
 3768              	.LBI131:
 201:Middlewares/lvgl/src/draw/../misc/lv_mem.h **** {
 3769              		.loc 3 201 44 is_stmt 1 view .LVU1347
 3770              	.LBB132:
 203:Middlewares/lvgl/src/draw/../misc/lv_mem.h ****     const uint8_t * s8 = (const uint8_t *)src;
 3771              		.loc 3 203 5 view .LVU1348
 204:Middlewares/lvgl/src/draw/../misc/lv_mem.h **** 
 3772              		.loc 3 204 5 view .LVU1349
 206:Middlewares/lvgl/src/draw/../misc/lv_mem.h ****         *d8 = *s8;
 3773              		.loc 3 206 5 view .LVU1350
 206:Middlewares/lvgl/src/draw/../misc/lv_mem.h ****         *d8 = *s8;
 3774              		.loc 3 206 10 is_stmt 0 view .LVU1351
 3775 0118 0222     		movs	r2, #2
 3776 011a 04E0     		b	.L191
 3777              	.LVL428:
 3778              	.L192:
 207:Middlewares/lvgl/src/draw/../misc/lv_mem.h ****         d8++;
 3779              		.loc 3 207 9 is_stmt 1 view .LVU1352
 207:Middlewares/lvgl/src/draw/../misc/lv_mem.h ****         d8++;
 3780              		.loc 3 207 15 is_stmt 0 view .LVU1353
 3781 011c 1CF8019B 		ldrb	r9, [ip], #1	@ zero_extendqisi2
 3782              	.LVL429:
 207:Middlewares/lvgl/src/draw/../misc/lv_mem.h ****         d8++;
 3783              		.loc 3 207 13 view .LVU1354
 3784 0120 0EF8019B 		strb	r9, [lr], #1
 3785              	.LVL430:
 208:Middlewares/lvgl/src/draw/../misc/lv_mem.h ****         s8++;
 3786              		.loc 3 208 9 is_stmt 1 view .LVU1355
 209:Middlewares/lvgl/src/draw/../misc/lv_mem.h ****         len--;
 3787              		.loc 3 209 9 view .LVU1356
 210:Middlewares/lvgl/src/draw/../misc/lv_mem.h ****     }
 3788              		.loc 3 210 9 view .LVU1357
 210:Middlewares/lvgl/src/draw/../misc/lv_mem.h ****     }
 3789              		.loc 3 210 12 is_stmt 0 view .LVU1358
 3790 0124 013A     		subs	r2, r2, #1
 3791              	.LVL431:
 3792              	.L191:
 206:Middlewares/lvgl/src/draw/../misc/lv_mem.h ****         *d8 = *s8;
 3793              		.loc 3 206 10 is_stmt 1 view .LVU1359
 3794 0126 002A     		cmp	r2, #0
 3795 0128 F8D1     		bne	.L192
 3796              		.loc 3 213 5 view .LVU1360
 3797              	.LVL432:
 3798              		.loc 3 213 5 is_stmt 0 view .LVU1361
 3799              	.LBE132:
 3800              	.LBE131:
 620:Middlewares/lvgl/src/draw/lv_img_buf.c ****         }
ARM GAS  /tmp/ccTdGo64.s 			page 112


 3801              		.loc 1 620 13 is_stmt 1 view .LVU1362
 620:Middlewares/lvgl/src/draw/lv_img_buf.c ****         }
 3802              		.loc 1 620 34 is_stmt 0 view .LVU1363
 3803 012a 0344     		add	r3, r3, r0
 3804 012c 9B78     		ldrb	r3, [r3, #2]	@ zero_extendqisi2
 620:Middlewares/lvgl/src/draw/lv_img_buf.c ****         }
 3805              		.loc 1 620 26 view .LVU1364
 3806 012e A375     		strb	r3, [r4, #22]
 617:Middlewares/lvgl/src/draw/lv_img_buf.c ****             pxi     = dsc->cfg.src_w * ys_int * px_size + xs_int * px_size;
 3807              		.loc 1 617 21 view .LVU1365
 3808 0130 4FF00309 		mov	r9, #3
 3809 0134 DAE7     		b	.L190
 3810              	.LVL433:
 3811              	.L186:
 624:Middlewares/lvgl/src/draw/lv_img_buf.c ****         px_size = 0;    /*unused*/
 3812              		.loc 1 624 9 is_stmt 1 view .LVU1366
 625:Middlewares/lvgl/src/draw/lv_img_buf.c ****         dsc->res.color = lv_img_buf_get_px_color(&dsc->tmp.img_dsc, xs_int, ys_int, dsc->cfg.color)
 3813              		.loc 1 625 9 view .LVU1367
 626:Middlewares/lvgl/src/draw/lv_img_buf.c ****         dsc->res.opa = lv_img_buf_get_px_alpha(&dsc->tmp.img_dsc, xs_int, ys_int);
 3814              		.loc 1 626 9 view .LVU1368
 626:Middlewares/lvgl/src/draw/lv_img_buf.c ****         dsc->res.opa = lv_img_buf_get_px_alpha(&dsc->tmp.img_dsc, xs_int, ys_int);
 3815              		.loc 1 626 26 is_stmt 0 view .LVU1369
 3816 0136 04F1180A 		add	r10, r4, #24
 3817 013a 0FFA88F1 		sxth	r1, r8
 3818 013e 0FFA87FB 		sxth	fp, r7
 3819 0142 238A     		ldrh	r3, [r4, #16]
 3820 0144 5A46     		mov	r2, fp
 3821 0146 0191     		str	r1, [sp, #4]
 3822 0148 5046     		mov	r0, r10
 3823              	.LVL434:
 626:Middlewares/lvgl/src/draw/lv_img_buf.c ****         dsc->res.opa = lv_img_buf_get_px_alpha(&dsc->tmp.img_dsc, xs_int, ys_int);
 3824              		.loc 1 626 26 view .LVU1370
 3825 014a FFF7FEFF 		bl	lv_img_buf_get_px_color
 3826              	.LVL435:
 626:Middlewares/lvgl/src/draw/lv_img_buf.c ****         dsc->res.opa = lv_img_buf_get_px_alpha(&dsc->tmp.img_dsc, xs_int, ys_int);
 3827              		.loc 1 626 26 view .LVU1371
 3828 014e A082     		strh	r0, [r4, #20]	@ movhi
 627:Middlewares/lvgl/src/draw/lv_img_buf.c ****     }
 3829              		.loc 1 627 9 is_stmt 1 view .LVU1372
 627:Middlewares/lvgl/src/draw/lv_img_buf.c ****     }
 3830              		.loc 1 627 24 is_stmt 0 view .LVU1373
 3831 0150 5A46     		mov	r2, fp
 3832 0152 0199     		ldr	r1, [sp, #4]
 3833 0154 5046     		mov	r0, r10
 3834 0156 FFF7FEFF 		bl	lv_img_buf_get_px_alpha
 3835              	.LVL436:
 627:Middlewares/lvgl/src/draw/lv_img_buf.c ****     }
 3836              		.loc 1 627 22 view .LVU1374
 3837 015a A075     		strb	r0, [r4, #22]
 624:Middlewares/lvgl/src/draw/lv_img_buf.c ****         px_size = 0;    /*unused*/
 3838              		.loc 1 624 13 view .LVU1375
 3839 015c 0021     		movs	r1, #0
 3840 015e C5E7     		b	.L190
 3841              	.LVL437:
 3842              	.L202:
 3843              	.LBB133:
 632:Middlewares/lvgl/src/draw/lv_img_buf.c ****     }
ARM GAS  /tmp/ccTdGo64.s 			page 113


 3844              		.loc 1 632 44 is_stmt 1 discriminator 1 view .LVU1376
 632:Middlewares/lvgl/src/draw/lv_img_buf.c ****     }
 3845              		.loc 1 632 51 is_stmt 0 discriminator 1 view .LVU1377
 3846 0160 0020     		movs	r0, #0
 3847 0162 0DE0     		b	.L185
 3848              	.L203:
 632:Middlewares/lvgl/src/draw/lv_img_buf.c ****     }
 3849              		.loc 1 632 51 discriminator 1 view .LVU1378
 3850              	.LBE133:
 637:Middlewares/lvgl/src/draw/lv_img_buf.c ****     dsc->tmp.ys = ys;
 3851              		.loc 1 637 5 is_stmt 1 view .LVU1379
 637:Middlewares/lvgl/src/draw/lv_img_buf.c ****     dsc->tmp.ys = ys;
 3852              		.loc 1 637 17 is_stmt 0 view .LVU1380
 3853 0164 A587     		strh	r5, [r4, #60]	@ movhi
 638:Middlewares/lvgl/src/draw/lv_img_buf.c ****     dsc->tmp.xs_int = xs_int;
 3854              		.loc 1 638 5 is_stmt 1 view .LVU1381
 638:Middlewares/lvgl/src/draw/lv_img_buf.c ****     dsc->tmp.xs_int = xs_int;
 3855              		.loc 1 638 17 is_stmt 0 view .LVU1382
 3856 0166 E687     		strh	r6, [r4, #62]	@ movhi
 639:Middlewares/lvgl/src/draw/lv_img_buf.c ****     dsc->tmp.ys_int = ys_int;
 3857              		.loc 1 639 5 is_stmt 1 view .LVU1383
 639:Middlewares/lvgl/src/draw/lv_img_buf.c ****     dsc->tmp.ys_int = ys_int;
 3858              		.loc 1 639 21 is_stmt 0 view .LVU1384
 3859 0168 A4F84080 		strh	r8, [r4, #64]	@ movhi
 640:Middlewares/lvgl/src/draw/lv_img_buf.c ****     dsc->tmp.pxi = pxi;
 3860              		.loc 1 640 5 is_stmt 1 view .LVU1385
 640:Middlewares/lvgl/src/draw/lv_img_buf.c ****     dsc->tmp.pxi = pxi;
 3861              		.loc 1 640 21 is_stmt 0 view .LVU1386
 3862 016c A4F84270 		strh	r7, [r4, #66]	@ movhi
 641:Middlewares/lvgl/src/draw/lv_img_buf.c ****     dsc->tmp.px_size = px_size;
 3863              		.loc 1 641 5 is_stmt 1 view .LVU1387
 641:Middlewares/lvgl/src/draw/lv_img_buf.c ****     dsc->tmp.px_size = px_size;
 3864              		.loc 1 641 18 is_stmt 0 view .LVU1388
 3865 0170 6164     		str	r1, [r4, #68]
 642:Middlewares/lvgl/src/draw/lv_img_buf.c **** 
 3866              		.loc 1 642 5 is_stmt 1 view .LVU1389
 642:Middlewares/lvgl/src/draw/lv_img_buf.c **** 
 3867              		.loc 1 642 22 is_stmt 0 view .LVU1390
 3868 0172 84F84890 		strb	r9, [r4, #72]
 644:Middlewares/lvgl/src/draw/lv_img_buf.c ****     ret = _lv_img_buf_transform_anti_alias(dsc);
 3869              		.loc 1 644 5 is_stmt 1 view .LVU1391
 645:Middlewares/lvgl/src/draw/lv_img_buf.c **** 
 3870              		.loc 1 645 5 view .LVU1392
 645:Middlewares/lvgl/src/draw/lv_img_buf.c **** 
 3871              		.loc 1 645 11 is_stmt 0 view .LVU1393
 3872 0176 2046     		mov	r0, r4
 3873 0178 FFF7FEFF 		bl	_lv_img_buf_transform_anti_alias
 3874              	.LVL438:
 647:Middlewares/lvgl/src/draw/lv_img_buf.c **** }
 3875              		.loc 1 647 5 is_stmt 1 view .LVU1394
 647:Middlewares/lvgl/src/draw/lv_img_buf.c **** }
 3876              		.loc 1 647 12 is_stmt 0 view .LVU1395
 3877 017c 00E0     		b	.L185
 3878              	.LVL439:
 3879              	.L195:
 601:Middlewares/lvgl/src/draw/lv_img_buf.c ****     else if(xs_int < 0) return false;
 3880              		.loc 1 601 41 view .LVU1396
ARM GAS  /tmp/ccTdGo64.s 			page 114


 3881 017e 0020     		movs	r0, #0
 3882              	.LVL440:
 3883              	.L185:
 648:Middlewares/lvgl/src/draw/lv_img_buf.c **** 
 3884              		.loc 1 648 1 view .LVU1397
 3885 0180 03B0     		add	sp, sp, #12
 3886              	.LCFI33:
 3887              		.cfi_remember_state
 3888              		.cfi_def_cfa_offset 36
 3889              		@ sp needed
 3890 0182 BDE8F08F 		pop	{r4, r5, r6, r7, r8, r9, r10, fp, pc}
 3891              	.LVL441:
 3892              	.L196:
 3893              	.LCFI34:
 3894              		.cfi_restore_state
 602:Middlewares/lvgl/src/draw/lv_img_buf.c **** 
 3895              		.loc 1 602 32 view .LVU1398
 3896 0186 0020     		movs	r0, #0
 3897              	.LVL442:
 602:Middlewares/lvgl/src/draw/lv_img_buf.c **** 
 3898              		.loc 1 602 32 view .LVU1399
 3899 0188 FAE7     		b	.L185
 3900              	.LVL443:
 3901              	.L197:
 604:Middlewares/lvgl/src/draw/lv_img_buf.c ****     else if(ys_int < 0) return false;
 3902              		.loc 1 604 41 view .LVU1400
 3903 018a 0020     		movs	r0, #0
 3904              	.LVL444:
 604:Middlewares/lvgl/src/draw/lv_img_buf.c ****     else if(ys_int < 0) return false;
 3905              		.loc 1 604 41 view .LVU1401
 3906 018c F8E7     		b	.L185
 3907              	.LVL445:
 3908              	.L198:
 605:Middlewares/lvgl/src/draw/lv_img_buf.c **** 
 3909              		.loc 1 605 32 view .LVU1402
 3910 018e 0020     		movs	r0, #0
 3911              	.LVL446:
 605:Middlewares/lvgl/src/draw/lv_img_buf.c **** 
 3912              		.loc 1 605 32 view .LVU1403
 3913 0190 F6E7     		b	.L185
 3914              		.cfi_endproc
 3915              	.LFE58:
 3917              		.section	.rodata
 3918              		.align	2
 3919              		.set	.LANCHOR0,. + 0
 3920              	.LC0:
 3921 0000 00112233 		.ascii	"\000\021\"3DUfw\210\231\252\273\314\335\356\377"
 3921      44556677 
 3921      8899AABB 
 3921      CCDDEEFF 
 3922              		.text
 3923              	.Letext0:
 3924              		.file 4 "/home/akinya/gcc-arm-none-eabi/lib/gcc/arm-none-eabi/10.2.1/include/stddef.h"
 3925              		.file 5 "/home/akinya/gcc-arm-none-eabi/arm-none-eabi/include/machine/_default_types.h"
 3926              		.file 6 "/home/akinya/gcc-arm-none-eabi/arm-none-eabi/include/sys/_stdint.h"
 3927              		.file 7 "Middlewares/lvgl/src/draw/../misc/lv_area.h"
 3928              		.file 8 "Middlewares/lvgl/src/draw/lv_img_buf.h"
ARM GAS  /tmp/ccTdGo64.s 			page 115


 3929              		.file 9 "Middlewares/lvgl/src/draw/../misc/lv_math.h"
 3930              		.file 10 "Middlewares/lvgl/src/draw/lv_draw_img.h"
ARM GAS  /tmp/ccTdGo64.s 			page 116


DEFINED SYMBOLS
                            *ABS*:0000000000000000 lv_img_buf.c
     /tmp/ccTdGo64.s:18     .text.lv_img_buf_get_px_color:0000000000000000 $t
     /tmp/ccTdGo64.s:26     .text.lv_img_buf_get_px_color:0000000000000000 lv_img_buf_get_px_color
     /tmp/ccTdGo64.s:367    .text.lv_img_buf_get_px_alpha:0000000000000000 $t
     /tmp/ccTdGo64.s:374    .text.lv_img_buf_get_px_alpha:0000000000000000 lv_img_buf_get_px_alpha
     /tmp/ccTdGo64.s:647    .text.lv_img_buf_get_px_alpha:00000000000000f4 $d
     /tmp/ccTdGo64.s:654    .text.lv_img_buf_set_px_alpha:0000000000000000 $t
     /tmp/ccTdGo64.s:661    .text.lv_img_buf_set_px_alpha:0000000000000000 lv_img_buf_set_px_alpha
     /tmp/ccTdGo64.s:928    .text.lv_img_buf_set_px_color:0000000000000000 $t
     /tmp/ccTdGo64.s:935    .text.lv_img_buf_set_px_color:0000000000000000 lv_img_buf_set_px_color
     /tmp/ccTdGo64.s:1334   .text.lv_img_buf_set_palette:0000000000000000 $t
     /tmp/ccTdGo64.s:1341   .text.lv_img_buf_set_palette:0000000000000000 lv_img_buf_set_palette
     /tmp/ccTdGo64.s:1508   .text.lv_img_buf_free:0000000000000000 $t
     /tmp/ccTdGo64.s:1515   .text.lv_img_buf_free:0000000000000000 lv_img_buf_free
     /tmp/ccTdGo64.s:1560   .text.lv_img_buf_get_img_size:0000000000000000 $t
     /tmp/ccTdGo64.s:1567   .text.lv_img_buf_get_img_size:0000000000000000 lv_img_buf_get_img_size
     /tmp/ccTdGo64.s:1586   .text.lv_img_buf_get_img_size:000000000000000c $d
     /tmp/ccTdGo64.s:1708   .text.lv_img_buf_alloc:0000000000000000 $t
     /tmp/ccTdGo64.s:1715   .text.lv_img_buf_alloc:0000000000000000 lv_img_buf_alloc
     /tmp/ccTdGo64.s:1830   .text._lv_img_buf_transform_init:0000000000000000 $t
     /tmp/ccTdGo64.s:1837   .text._lv_img_buf_transform_init:0000000000000000 _lv_img_buf_transform_init
     /tmp/ccTdGo64.s:2066   .text._lv_img_buf_transform_init:0000000000000128 $d
     /tmp/ccTdGo64.s:2071   .text._lv_img_buf_get_transformed_area:0000000000000000 $t
     /tmp/ccTdGo64.s:2078   .text._lv_img_buf_get_transformed_area:0000000000000000 _lv_img_buf_get_transformed_area
     /tmp/ccTdGo64.s:2499   .text._lv_img_buf_get_transformed_area:000000000000020c $d
     /tmp/ccTdGo64.s:2504   .text._lv_img_buf_transform_anti_alias:0000000000000000 $t
     /tmp/ccTdGo64.s:2511   .text._lv_img_buf_transform_anti_alias:0000000000000000 _lv_img_buf_transform_anti_alias
     /tmp/ccTdGo64.s:3455   .text._lv_img_buf_transform:0000000000000000 $t
     /tmp/ccTdGo64.s:3462   .text._lv_img_buf_transform:0000000000000000 _lv_img_buf_transform
     /tmp/ccTdGo64.s:3918   .rodata:0000000000000000 $d
     /tmp/ccTdGo64.s:1597   .text.lv_img_buf_get_img_size:0000000000000017 $d
     /tmp/ccTdGo64.s:1597   .text.lv_img_buf_get_img_size:0000000000000018 $t

UNDEFINED SYMBOLS
lv_img_cf_get_px_size
lv_mem_free
lv_mem_alloc
lv_memset_00
lv_trigo_sin
lv_img_cf_is_chroma_keyed
lv_img_cf_has_alpha
