ARM GAS  /tmp/ccwFP5qn.s 			page 1


   1              		.cpu cortex-m4
   2              		.eabi_attribute 27, 1
   3              		.eabi_attribute 28, 1
   4              		.eabi_attribute 20, 1
   5              		.eabi_attribute 21, 1
   6              		.eabi_attribute 23, 3
   7              		.eabi_attribute 24, 1
   8              		.eabi_attribute 25, 1
   9              		.eabi_attribute 26, 1
  10              		.eabi_attribute 30, 1
  11              		.eabi_attribute 34, 1
  12              		.eabi_attribute 18, 4
  13              		.file	"lv_obj_style_gen.c"
  14              		.text
  15              	.Ltext0:
  16              		.cfi_sections	.debug_frame
  17              		.section	.text.lv_obj_set_style_width,"ax",%progbits
  18              		.align	1
  19              		.global	lv_obj_set_style_width
  20              		.arch armv7e-m
  21              		.syntax unified
  22              		.thumb
  23              		.thumb_func
  24              		.fpu fpv4-sp-d16
  26              	lv_obj_set_style_width:
  27              	.LVL0:
  28              	.LFB147:
  29              		.file 1 "Middlewares/lvgl/src/core/lv_obj_style_gen.c"
   1:Middlewares/lvgl/src/core/lv_obj_style_gen.c **** #include "lv_obj.h"
   2:Middlewares/lvgl/src/core/lv_obj_style_gen.c **** void lv_obj_set_style_width(struct _lv_obj_t * obj, lv_coord_t value, lv_style_selector_t selector)
   3:Middlewares/lvgl/src/core/lv_obj_style_gen.c **** {
  30              		.loc 1 3 1 view -0
  31              		.cfi_startproc
  32              		@ args = 0, pretend = 0, frame = 0
  33              		@ frame_needed = 0, uses_anonymous_args = 0
  34              		.loc 1 3 1 is_stmt 0 view .LVU1
  35 0000 08B5     		push	{r3, lr}
  36              	.LCFI0:
  37              		.cfi_def_cfa_offset 8
  38              		.cfi_offset 3, -8
  39              		.cfi_offset 14, -4
  40 0002 1346     		mov	r3, r2
   4:Middlewares/lvgl/src/core/lv_obj_style_gen.c ****     lv_style_value_t v = {
  41              		.loc 1 4 5 is_stmt 1 view .LVU2
   5:Middlewares/lvgl/src/core/lv_obj_style_gen.c ****         .num = (int32_t)value
   6:Middlewares/lvgl/src/core/lv_obj_style_gen.c ****     };
   7:Middlewares/lvgl/src/core/lv_obj_style_gen.c ****     lv_obj_set_local_style_prop(obj, LV_STYLE_WIDTH, v, selector);
  42              		.loc 1 7 5 view .LVU3
  43 0004 0A46     		mov	r2, r1
  44              	.LVL1:
  45              		.loc 1 7 5 is_stmt 0 view .LVU4
  46 0006 41F20101 		movw	r1, #4097
  47              	.LVL2:
  48              		.loc 1 7 5 view .LVU5
  49 000a FFF7FEFF 		bl	lv_obj_set_local_style_prop
  50              	.LVL3:
   8:Middlewares/lvgl/src/core/lv_obj_style_gen.c **** }
ARM GAS  /tmp/ccwFP5qn.s 			page 2


  51              		.loc 1 8 1 view .LVU6
  52 000e 08BD     		pop	{r3, pc}
  53              		.cfi_endproc
  54              	.LFE147:
  56              		.section	.text.lv_obj_set_style_min_width,"ax",%progbits
  57              		.align	1
  58              		.global	lv_obj_set_style_min_width
  59              		.syntax unified
  60              		.thumb
  61              		.thumb_func
  62              		.fpu fpv4-sp-d16
  64              	lv_obj_set_style_min_width:
  65              	.LVL4:
  66              	.LFB148:
   9:Middlewares/lvgl/src/core/lv_obj_style_gen.c **** 
  10:Middlewares/lvgl/src/core/lv_obj_style_gen.c **** void lv_obj_set_style_min_width(struct _lv_obj_t * obj, lv_coord_t value, lv_style_selector_t selec
  11:Middlewares/lvgl/src/core/lv_obj_style_gen.c **** {
  67              		.loc 1 11 1 is_stmt 1 view -0
  68              		.cfi_startproc
  69              		@ args = 0, pretend = 0, frame = 0
  70              		@ frame_needed = 0, uses_anonymous_args = 0
  71              		.loc 1 11 1 is_stmt 0 view .LVU8
  72 0000 08B5     		push	{r3, lr}
  73              	.LCFI1:
  74              		.cfi_def_cfa_offset 8
  75              		.cfi_offset 3, -8
  76              		.cfi_offset 14, -4
  77 0002 1346     		mov	r3, r2
  12:Middlewares/lvgl/src/core/lv_obj_style_gen.c ****     lv_style_value_t v = {
  78              		.loc 1 12 5 is_stmt 1 view .LVU9
  13:Middlewares/lvgl/src/core/lv_obj_style_gen.c ****         .num = (int32_t)value
  14:Middlewares/lvgl/src/core/lv_obj_style_gen.c ****     };
  15:Middlewares/lvgl/src/core/lv_obj_style_gen.c ****     lv_obj_set_local_style_prop(obj, LV_STYLE_MIN_WIDTH, v, selector);
  79              		.loc 1 15 5 view .LVU10
  80 0004 0A46     		mov	r2, r1
  81              	.LVL5:
  82              		.loc 1 15 5 is_stmt 0 view .LVU11
  83 0006 41F20201 		movw	r1, #4098
  84              	.LVL6:
  85              		.loc 1 15 5 view .LVU12
  86 000a FFF7FEFF 		bl	lv_obj_set_local_style_prop
  87              	.LVL7:
  16:Middlewares/lvgl/src/core/lv_obj_style_gen.c **** }
  88              		.loc 1 16 1 view .LVU13
  89 000e 08BD     		pop	{r3, pc}
  90              		.cfi_endproc
  91              	.LFE148:
  93              		.section	.text.lv_obj_set_style_max_width,"ax",%progbits
  94              		.align	1
  95              		.global	lv_obj_set_style_max_width
  96              		.syntax unified
  97              		.thumb
  98              		.thumb_func
  99              		.fpu fpv4-sp-d16
 101              	lv_obj_set_style_max_width:
 102              	.LVL8:
 103              	.LFB149:
ARM GAS  /tmp/ccwFP5qn.s 			page 3


  17:Middlewares/lvgl/src/core/lv_obj_style_gen.c **** 
  18:Middlewares/lvgl/src/core/lv_obj_style_gen.c **** void lv_obj_set_style_max_width(struct _lv_obj_t * obj, lv_coord_t value, lv_style_selector_t selec
  19:Middlewares/lvgl/src/core/lv_obj_style_gen.c **** {
 104              		.loc 1 19 1 is_stmt 1 view -0
 105              		.cfi_startproc
 106              		@ args = 0, pretend = 0, frame = 0
 107              		@ frame_needed = 0, uses_anonymous_args = 0
 108              		.loc 1 19 1 is_stmt 0 view .LVU15
 109 0000 08B5     		push	{r3, lr}
 110              	.LCFI2:
 111              		.cfi_def_cfa_offset 8
 112              		.cfi_offset 3, -8
 113              		.cfi_offset 14, -4
 114 0002 1346     		mov	r3, r2
  20:Middlewares/lvgl/src/core/lv_obj_style_gen.c ****     lv_style_value_t v = {
 115              		.loc 1 20 5 is_stmt 1 view .LVU16
  21:Middlewares/lvgl/src/core/lv_obj_style_gen.c ****         .num = (int32_t)value
  22:Middlewares/lvgl/src/core/lv_obj_style_gen.c ****     };
  23:Middlewares/lvgl/src/core/lv_obj_style_gen.c ****     lv_obj_set_local_style_prop(obj, LV_STYLE_MAX_WIDTH, v, selector);
 116              		.loc 1 23 5 view .LVU17
 117 0004 0A46     		mov	r2, r1
 118              	.LVL9:
 119              		.loc 1 23 5 is_stmt 0 view .LVU18
 120 0006 41F20301 		movw	r1, #4099
 121              	.LVL10:
 122              		.loc 1 23 5 view .LVU19
 123 000a FFF7FEFF 		bl	lv_obj_set_local_style_prop
 124              	.LVL11:
  24:Middlewares/lvgl/src/core/lv_obj_style_gen.c **** }
 125              		.loc 1 24 1 view .LVU20
 126 000e 08BD     		pop	{r3, pc}
 127              		.cfi_endproc
 128              	.LFE149:
 130              		.section	.text.lv_obj_set_style_height,"ax",%progbits
 131              		.align	1
 132              		.global	lv_obj_set_style_height
 133              		.syntax unified
 134              		.thumb
 135              		.thumb_func
 136              		.fpu fpv4-sp-d16
 138              	lv_obj_set_style_height:
 139              	.LVL12:
 140              	.LFB150:
  25:Middlewares/lvgl/src/core/lv_obj_style_gen.c **** 
  26:Middlewares/lvgl/src/core/lv_obj_style_gen.c **** void lv_obj_set_style_height(struct _lv_obj_t * obj, lv_coord_t value, lv_style_selector_t selector
  27:Middlewares/lvgl/src/core/lv_obj_style_gen.c **** {
 141              		.loc 1 27 1 is_stmt 1 view -0
 142              		.cfi_startproc
 143              		@ args = 0, pretend = 0, frame = 0
 144              		@ frame_needed = 0, uses_anonymous_args = 0
 145              		.loc 1 27 1 is_stmt 0 view .LVU22
 146 0000 08B5     		push	{r3, lr}
 147              	.LCFI3:
 148              		.cfi_def_cfa_offset 8
 149              		.cfi_offset 3, -8
 150              		.cfi_offset 14, -4
 151 0002 1346     		mov	r3, r2
ARM GAS  /tmp/ccwFP5qn.s 			page 4


  28:Middlewares/lvgl/src/core/lv_obj_style_gen.c ****     lv_style_value_t v = {
 152              		.loc 1 28 5 is_stmt 1 view .LVU23
  29:Middlewares/lvgl/src/core/lv_obj_style_gen.c ****         .num = (int32_t)value
  30:Middlewares/lvgl/src/core/lv_obj_style_gen.c ****     };
  31:Middlewares/lvgl/src/core/lv_obj_style_gen.c ****     lv_obj_set_local_style_prop(obj, LV_STYLE_HEIGHT, v, selector);
 153              		.loc 1 31 5 view .LVU24
 154 0004 0A46     		mov	r2, r1
 155              	.LVL13:
 156              		.loc 1 31 5 is_stmt 0 view .LVU25
 157 0006 41F20401 		movw	r1, #4100
 158              	.LVL14:
 159              		.loc 1 31 5 view .LVU26
 160 000a FFF7FEFF 		bl	lv_obj_set_local_style_prop
 161              	.LVL15:
  32:Middlewares/lvgl/src/core/lv_obj_style_gen.c **** }
 162              		.loc 1 32 1 view .LVU27
 163 000e 08BD     		pop	{r3, pc}
 164              		.cfi_endproc
 165              	.LFE150:
 167              		.section	.text.lv_obj_set_style_min_height,"ax",%progbits
 168              		.align	1
 169              		.global	lv_obj_set_style_min_height
 170              		.syntax unified
 171              		.thumb
 172              		.thumb_func
 173              		.fpu fpv4-sp-d16
 175              	lv_obj_set_style_min_height:
 176              	.LVL16:
 177              	.LFB151:
  33:Middlewares/lvgl/src/core/lv_obj_style_gen.c **** 
  34:Middlewares/lvgl/src/core/lv_obj_style_gen.c **** void lv_obj_set_style_min_height(struct _lv_obj_t * obj, lv_coord_t value, lv_style_selector_t sele
  35:Middlewares/lvgl/src/core/lv_obj_style_gen.c **** {
 178              		.loc 1 35 1 is_stmt 1 view -0
 179              		.cfi_startproc
 180              		@ args = 0, pretend = 0, frame = 0
 181              		@ frame_needed = 0, uses_anonymous_args = 0
 182              		.loc 1 35 1 is_stmt 0 view .LVU29
 183 0000 08B5     		push	{r3, lr}
 184              	.LCFI4:
 185              		.cfi_def_cfa_offset 8
 186              		.cfi_offset 3, -8
 187              		.cfi_offset 14, -4
 188 0002 1346     		mov	r3, r2
  36:Middlewares/lvgl/src/core/lv_obj_style_gen.c ****     lv_style_value_t v = {
 189              		.loc 1 36 5 is_stmt 1 view .LVU30
  37:Middlewares/lvgl/src/core/lv_obj_style_gen.c ****         .num = (int32_t)value
  38:Middlewares/lvgl/src/core/lv_obj_style_gen.c ****     };
  39:Middlewares/lvgl/src/core/lv_obj_style_gen.c ****     lv_obj_set_local_style_prop(obj, LV_STYLE_MIN_HEIGHT, v, selector);
 190              		.loc 1 39 5 view .LVU31
 191 0004 0A46     		mov	r2, r1
 192              	.LVL17:
 193              		.loc 1 39 5 is_stmt 0 view .LVU32
 194 0006 41F20501 		movw	r1, #4101
 195              	.LVL18:
 196              		.loc 1 39 5 view .LVU33
 197 000a FFF7FEFF 		bl	lv_obj_set_local_style_prop
 198              	.LVL19:
ARM GAS  /tmp/ccwFP5qn.s 			page 5


  40:Middlewares/lvgl/src/core/lv_obj_style_gen.c **** }
 199              		.loc 1 40 1 view .LVU34
 200 000e 08BD     		pop	{r3, pc}
 201              		.cfi_endproc
 202              	.LFE151:
 204              		.section	.text.lv_obj_set_style_max_height,"ax",%progbits
 205              		.align	1
 206              		.global	lv_obj_set_style_max_height
 207              		.syntax unified
 208              		.thumb
 209              		.thumb_func
 210              		.fpu fpv4-sp-d16
 212              	lv_obj_set_style_max_height:
 213              	.LVL20:
 214              	.LFB152:
  41:Middlewares/lvgl/src/core/lv_obj_style_gen.c **** 
  42:Middlewares/lvgl/src/core/lv_obj_style_gen.c **** void lv_obj_set_style_max_height(struct _lv_obj_t * obj, lv_coord_t value, lv_style_selector_t sele
  43:Middlewares/lvgl/src/core/lv_obj_style_gen.c **** {
 215              		.loc 1 43 1 is_stmt 1 view -0
 216              		.cfi_startproc
 217              		@ args = 0, pretend = 0, frame = 0
 218              		@ frame_needed = 0, uses_anonymous_args = 0
 219              		.loc 1 43 1 is_stmt 0 view .LVU36
 220 0000 08B5     		push	{r3, lr}
 221              	.LCFI5:
 222              		.cfi_def_cfa_offset 8
 223              		.cfi_offset 3, -8
 224              		.cfi_offset 14, -4
 225 0002 1346     		mov	r3, r2
  44:Middlewares/lvgl/src/core/lv_obj_style_gen.c ****     lv_style_value_t v = {
 226              		.loc 1 44 5 is_stmt 1 view .LVU37
  45:Middlewares/lvgl/src/core/lv_obj_style_gen.c ****         .num = (int32_t)value
  46:Middlewares/lvgl/src/core/lv_obj_style_gen.c ****     };
  47:Middlewares/lvgl/src/core/lv_obj_style_gen.c ****     lv_obj_set_local_style_prop(obj, LV_STYLE_MAX_HEIGHT, v, selector);
 227              		.loc 1 47 5 view .LVU38
 228 0004 0A46     		mov	r2, r1
 229              	.LVL21:
 230              		.loc 1 47 5 is_stmt 0 view .LVU39
 231 0006 41F20601 		movw	r1, #4102
 232              	.LVL22:
 233              		.loc 1 47 5 view .LVU40
 234 000a FFF7FEFF 		bl	lv_obj_set_local_style_prop
 235              	.LVL23:
  48:Middlewares/lvgl/src/core/lv_obj_style_gen.c **** }
 236              		.loc 1 48 1 view .LVU41
 237 000e 08BD     		pop	{r3, pc}
 238              		.cfi_endproc
 239              	.LFE152:
 241              		.section	.text.lv_obj_set_style_x,"ax",%progbits
 242              		.align	1
 243              		.global	lv_obj_set_style_x
 244              		.syntax unified
 245              		.thumb
 246              		.thumb_func
 247              		.fpu fpv4-sp-d16
 249              	lv_obj_set_style_x:
 250              	.LVL24:
ARM GAS  /tmp/ccwFP5qn.s 			page 6


 251              	.LFB153:
  49:Middlewares/lvgl/src/core/lv_obj_style_gen.c **** 
  50:Middlewares/lvgl/src/core/lv_obj_style_gen.c **** void lv_obj_set_style_x(struct _lv_obj_t * obj, lv_coord_t value, lv_style_selector_t selector)
  51:Middlewares/lvgl/src/core/lv_obj_style_gen.c **** {
 252              		.loc 1 51 1 is_stmt 1 view -0
 253              		.cfi_startproc
 254              		@ args = 0, pretend = 0, frame = 0
 255              		@ frame_needed = 0, uses_anonymous_args = 0
 256              		.loc 1 51 1 is_stmt 0 view .LVU43
 257 0000 08B5     		push	{r3, lr}
 258              	.LCFI6:
 259              		.cfi_def_cfa_offset 8
 260              		.cfi_offset 3, -8
 261              		.cfi_offset 14, -4
 262 0002 1346     		mov	r3, r2
  52:Middlewares/lvgl/src/core/lv_obj_style_gen.c ****     lv_style_value_t v = {
 263              		.loc 1 52 5 is_stmt 1 view .LVU44
  53:Middlewares/lvgl/src/core/lv_obj_style_gen.c ****         .num = (int32_t)value
  54:Middlewares/lvgl/src/core/lv_obj_style_gen.c ****     };
  55:Middlewares/lvgl/src/core/lv_obj_style_gen.c ****     lv_obj_set_local_style_prop(obj, LV_STYLE_X, v, selector);
 264              		.loc 1 55 5 view .LVU45
 265 0004 0A46     		mov	r2, r1
 266              	.LVL25:
 267              		.loc 1 55 5 is_stmt 0 view .LVU46
 268 0006 41F20701 		movw	r1, #4103
 269              	.LVL26:
 270              		.loc 1 55 5 view .LVU47
 271 000a FFF7FEFF 		bl	lv_obj_set_local_style_prop
 272              	.LVL27:
  56:Middlewares/lvgl/src/core/lv_obj_style_gen.c **** }
 273              		.loc 1 56 1 view .LVU48
 274 000e 08BD     		pop	{r3, pc}
 275              		.cfi_endproc
 276              	.LFE153:
 278              		.section	.text.lv_obj_set_style_y,"ax",%progbits
 279              		.align	1
 280              		.global	lv_obj_set_style_y
 281              		.syntax unified
 282              		.thumb
 283              		.thumb_func
 284              		.fpu fpv4-sp-d16
 286              	lv_obj_set_style_y:
 287              	.LVL28:
 288              	.LFB154:
  57:Middlewares/lvgl/src/core/lv_obj_style_gen.c **** 
  58:Middlewares/lvgl/src/core/lv_obj_style_gen.c **** void lv_obj_set_style_y(struct _lv_obj_t * obj, lv_coord_t value, lv_style_selector_t selector)
  59:Middlewares/lvgl/src/core/lv_obj_style_gen.c **** {
 289              		.loc 1 59 1 is_stmt 1 view -0
 290              		.cfi_startproc
 291              		@ args = 0, pretend = 0, frame = 0
 292              		@ frame_needed = 0, uses_anonymous_args = 0
 293              		.loc 1 59 1 is_stmt 0 view .LVU50
 294 0000 08B5     		push	{r3, lr}
 295              	.LCFI7:
 296              		.cfi_def_cfa_offset 8
 297              		.cfi_offset 3, -8
 298              		.cfi_offset 14, -4
ARM GAS  /tmp/ccwFP5qn.s 			page 7


 299 0002 1346     		mov	r3, r2
  60:Middlewares/lvgl/src/core/lv_obj_style_gen.c ****     lv_style_value_t v = {
 300              		.loc 1 60 5 is_stmt 1 view .LVU51
  61:Middlewares/lvgl/src/core/lv_obj_style_gen.c ****         .num = (int32_t)value
  62:Middlewares/lvgl/src/core/lv_obj_style_gen.c ****     };
  63:Middlewares/lvgl/src/core/lv_obj_style_gen.c ****     lv_obj_set_local_style_prop(obj, LV_STYLE_Y, v, selector);
 301              		.loc 1 63 5 view .LVU52
 302 0004 0A46     		mov	r2, r1
 303              	.LVL29:
 304              		.loc 1 63 5 is_stmt 0 view .LVU53
 305 0006 41F20801 		movw	r1, #4104
 306              	.LVL30:
 307              		.loc 1 63 5 view .LVU54
 308 000a FFF7FEFF 		bl	lv_obj_set_local_style_prop
 309              	.LVL31:
  64:Middlewares/lvgl/src/core/lv_obj_style_gen.c **** }
 310              		.loc 1 64 1 view .LVU55
 311 000e 08BD     		pop	{r3, pc}
 312              		.cfi_endproc
 313              	.LFE154:
 315              		.section	.text.lv_obj_set_style_align,"ax",%progbits
 316              		.align	1
 317              		.global	lv_obj_set_style_align
 318              		.syntax unified
 319              		.thumb
 320              		.thumb_func
 321              		.fpu fpv4-sp-d16
 323              	lv_obj_set_style_align:
 324              	.LVL32:
 325              	.LFB155:
  65:Middlewares/lvgl/src/core/lv_obj_style_gen.c **** 
  66:Middlewares/lvgl/src/core/lv_obj_style_gen.c **** void lv_obj_set_style_align(struct _lv_obj_t * obj, lv_align_t value, lv_style_selector_t selector)
  67:Middlewares/lvgl/src/core/lv_obj_style_gen.c **** {
 326              		.loc 1 67 1 is_stmt 1 view -0
 327              		.cfi_startproc
 328              		@ args = 0, pretend = 0, frame = 0
 329              		@ frame_needed = 0, uses_anonymous_args = 0
 330              		.loc 1 67 1 is_stmt 0 view .LVU57
 331 0000 08B5     		push	{r3, lr}
 332              	.LCFI8:
 333              		.cfi_def_cfa_offset 8
 334              		.cfi_offset 3, -8
 335              		.cfi_offset 14, -4
 336 0002 1346     		mov	r3, r2
  68:Middlewares/lvgl/src/core/lv_obj_style_gen.c ****     lv_style_value_t v = {
 337              		.loc 1 68 5 is_stmt 1 view .LVU58
  69:Middlewares/lvgl/src/core/lv_obj_style_gen.c ****         .num = (int32_t)value
  70:Middlewares/lvgl/src/core/lv_obj_style_gen.c ****     };
  71:Middlewares/lvgl/src/core/lv_obj_style_gen.c ****     lv_obj_set_local_style_prop(obj, LV_STYLE_ALIGN, v, selector);
 338              		.loc 1 71 5 view .LVU59
 339 0004 0A46     		mov	r2, r1
 340              	.LVL33:
 341              		.loc 1 71 5 is_stmt 0 view .LVU60
 342 0006 41F20901 		movw	r1, #4105
 343              	.LVL34:
 344              		.loc 1 71 5 view .LVU61
 345 000a FFF7FEFF 		bl	lv_obj_set_local_style_prop
ARM GAS  /tmp/ccwFP5qn.s 			page 8


 346              	.LVL35:
  72:Middlewares/lvgl/src/core/lv_obj_style_gen.c **** }
 347              		.loc 1 72 1 view .LVU62
 348 000e 08BD     		pop	{r3, pc}
 349              		.cfi_endproc
 350              	.LFE155:
 352              		.section	.text.lv_obj_set_style_transform_width,"ax",%progbits
 353              		.align	1
 354              		.global	lv_obj_set_style_transform_width
 355              		.syntax unified
 356              		.thumb
 357              		.thumb_func
 358              		.fpu fpv4-sp-d16
 360              	lv_obj_set_style_transform_width:
 361              	.LVL36:
 362              	.LFB156:
  73:Middlewares/lvgl/src/core/lv_obj_style_gen.c **** 
  74:Middlewares/lvgl/src/core/lv_obj_style_gen.c **** void lv_obj_set_style_transform_width(struct _lv_obj_t * obj, lv_coord_t value, lv_style_selector_t
  75:Middlewares/lvgl/src/core/lv_obj_style_gen.c **** {
 363              		.loc 1 75 1 is_stmt 1 view -0
 364              		.cfi_startproc
 365              		@ args = 0, pretend = 0, frame = 0
 366              		@ frame_needed = 0, uses_anonymous_args = 0
 367              		.loc 1 75 1 is_stmt 0 view .LVU64
 368 0000 08B5     		push	{r3, lr}
 369              	.LCFI9:
 370              		.cfi_def_cfa_offset 8
 371              		.cfi_offset 3, -8
 372              		.cfi_offset 14, -4
 373 0002 1346     		mov	r3, r2
  76:Middlewares/lvgl/src/core/lv_obj_style_gen.c ****     lv_style_value_t v = {
 374              		.loc 1 76 5 is_stmt 1 view .LVU65
  77:Middlewares/lvgl/src/core/lv_obj_style_gen.c ****         .num = (int32_t)value
  78:Middlewares/lvgl/src/core/lv_obj_style_gen.c ****     };
  79:Middlewares/lvgl/src/core/lv_obj_style_gen.c ****     lv_obj_set_local_style_prop(obj, LV_STYLE_TRANSFORM_WIDTH, v, selector);
 375              		.loc 1 79 5 view .LVU66
 376 0004 0A46     		mov	r2, r1
 377              	.LVL37:
 378              		.loc 1 79 5 is_stmt 0 view .LVU67
 379 0006 40F60A01 		movw	r1, #2058
 380              	.LVL38:
 381              		.loc 1 79 5 view .LVU68
 382 000a FFF7FEFF 		bl	lv_obj_set_local_style_prop
 383              	.LVL39:
  80:Middlewares/lvgl/src/core/lv_obj_style_gen.c **** }
 384              		.loc 1 80 1 view .LVU69
 385 000e 08BD     		pop	{r3, pc}
 386              		.cfi_endproc
 387              	.LFE156:
 389              		.section	.text.lv_obj_set_style_transform_height,"ax",%progbits
 390              		.align	1
 391              		.global	lv_obj_set_style_transform_height
 392              		.syntax unified
 393              		.thumb
 394              		.thumb_func
 395              		.fpu fpv4-sp-d16
 397              	lv_obj_set_style_transform_height:
ARM GAS  /tmp/ccwFP5qn.s 			page 9


 398              	.LVL40:
 399              	.LFB157:
  81:Middlewares/lvgl/src/core/lv_obj_style_gen.c **** 
  82:Middlewares/lvgl/src/core/lv_obj_style_gen.c **** void lv_obj_set_style_transform_height(struct _lv_obj_t * obj, lv_coord_t value, lv_style_selector_
  83:Middlewares/lvgl/src/core/lv_obj_style_gen.c **** {
 400              		.loc 1 83 1 is_stmt 1 view -0
 401              		.cfi_startproc
 402              		@ args = 0, pretend = 0, frame = 0
 403              		@ frame_needed = 0, uses_anonymous_args = 0
 404              		.loc 1 83 1 is_stmt 0 view .LVU71
 405 0000 08B5     		push	{r3, lr}
 406              	.LCFI10:
 407              		.cfi_def_cfa_offset 8
 408              		.cfi_offset 3, -8
 409              		.cfi_offset 14, -4
 410 0002 1346     		mov	r3, r2
  84:Middlewares/lvgl/src/core/lv_obj_style_gen.c ****     lv_style_value_t v = {
 411              		.loc 1 84 5 is_stmt 1 view .LVU72
  85:Middlewares/lvgl/src/core/lv_obj_style_gen.c ****         .num = (int32_t)value
  86:Middlewares/lvgl/src/core/lv_obj_style_gen.c ****     };
  87:Middlewares/lvgl/src/core/lv_obj_style_gen.c ****     lv_obj_set_local_style_prop(obj, LV_STYLE_TRANSFORM_HEIGHT, v, selector);
 412              		.loc 1 87 5 view .LVU73
 413 0004 0A46     		mov	r2, r1
 414              	.LVL41:
 415              		.loc 1 87 5 is_stmt 0 view .LVU74
 416 0006 40F60B01 		movw	r1, #2059
 417              	.LVL42:
 418              		.loc 1 87 5 view .LVU75
 419 000a FFF7FEFF 		bl	lv_obj_set_local_style_prop
 420              	.LVL43:
  88:Middlewares/lvgl/src/core/lv_obj_style_gen.c **** }
 421              		.loc 1 88 1 view .LVU76
 422 000e 08BD     		pop	{r3, pc}
 423              		.cfi_endproc
 424              	.LFE157:
 426              		.section	.text.lv_obj_set_style_translate_x,"ax",%progbits
 427              		.align	1
 428              		.global	lv_obj_set_style_translate_x
 429              		.syntax unified
 430              		.thumb
 431              		.thumb_func
 432              		.fpu fpv4-sp-d16
 434              	lv_obj_set_style_translate_x:
 435              	.LVL44:
 436              	.LFB158:
  89:Middlewares/lvgl/src/core/lv_obj_style_gen.c **** 
  90:Middlewares/lvgl/src/core/lv_obj_style_gen.c **** void lv_obj_set_style_translate_x(struct _lv_obj_t * obj, lv_coord_t value, lv_style_selector_t sel
  91:Middlewares/lvgl/src/core/lv_obj_style_gen.c **** {
 437              		.loc 1 91 1 is_stmt 1 view -0
 438              		.cfi_startproc
 439              		@ args = 0, pretend = 0, frame = 0
 440              		@ frame_needed = 0, uses_anonymous_args = 0
 441              		.loc 1 91 1 is_stmt 0 view .LVU78
 442 0000 08B5     		push	{r3, lr}
 443              	.LCFI11:
 444              		.cfi_def_cfa_offset 8
 445              		.cfi_offset 3, -8
ARM GAS  /tmp/ccwFP5qn.s 			page 10


 446              		.cfi_offset 14, -4
 447 0002 1346     		mov	r3, r2
  92:Middlewares/lvgl/src/core/lv_obj_style_gen.c ****     lv_style_value_t v = {
 448              		.loc 1 92 5 is_stmt 1 view .LVU79
  93:Middlewares/lvgl/src/core/lv_obj_style_gen.c ****         .num = (int32_t)value
  94:Middlewares/lvgl/src/core/lv_obj_style_gen.c ****     };
  95:Middlewares/lvgl/src/core/lv_obj_style_gen.c ****     lv_obj_set_local_style_prop(obj, LV_STYLE_TRANSLATE_X, v, selector);
 449              		.loc 1 95 5 view .LVU80
 450 0004 0A46     		mov	r2, r1
 451              	.LVL45:
 452              		.loc 1 95 5 is_stmt 0 view .LVU81
 453 0006 43F20C01 		movw	r1, #12300
 454              	.LVL46:
 455              		.loc 1 95 5 view .LVU82
 456 000a FFF7FEFF 		bl	lv_obj_set_local_style_prop
 457              	.LVL47:
  96:Middlewares/lvgl/src/core/lv_obj_style_gen.c **** }
 458              		.loc 1 96 1 view .LVU83
 459 000e 08BD     		pop	{r3, pc}
 460              		.cfi_endproc
 461              	.LFE158:
 463              		.section	.text.lv_obj_set_style_translate_y,"ax",%progbits
 464              		.align	1
 465              		.global	lv_obj_set_style_translate_y
 466              		.syntax unified
 467              		.thumb
 468              		.thumb_func
 469              		.fpu fpv4-sp-d16
 471              	lv_obj_set_style_translate_y:
 472              	.LVL48:
 473              	.LFB159:
  97:Middlewares/lvgl/src/core/lv_obj_style_gen.c **** 
  98:Middlewares/lvgl/src/core/lv_obj_style_gen.c **** void lv_obj_set_style_translate_y(struct _lv_obj_t * obj, lv_coord_t value, lv_style_selector_t sel
  99:Middlewares/lvgl/src/core/lv_obj_style_gen.c **** {
 474              		.loc 1 99 1 is_stmt 1 view -0
 475              		.cfi_startproc
 476              		@ args = 0, pretend = 0, frame = 0
 477              		@ frame_needed = 0, uses_anonymous_args = 0
 478              		.loc 1 99 1 is_stmt 0 view .LVU85
 479 0000 08B5     		push	{r3, lr}
 480              	.LCFI12:
 481              		.cfi_def_cfa_offset 8
 482              		.cfi_offset 3, -8
 483              		.cfi_offset 14, -4
 484 0002 1346     		mov	r3, r2
 100:Middlewares/lvgl/src/core/lv_obj_style_gen.c ****     lv_style_value_t v = {
 485              		.loc 1 100 5 is_stmt 1 view .LVU86
 101:Middlewares/lvgl/src/core/lv_obj_style_gen.c ****         .num = (int32_t)value
 102:Middlewares/lvgl/src/core/lv_obj_style_gen.c ****     };
 103:Middlewares/lvgl/src/core/lv_obj_style_gen.c ****     lv_obj_set_local_style_prop(obj, LV_STYLE_TRANSLATE_Y, v, selector);
 486              		.loc 1 103 5 view .LVU87
 487 0004 0A46     		mov	r2, r1
 488              	.LVL49:
 489              		.loc 1 103 5 is_stmt 0 view .LVU88
 490 0006 43F20D01 		movw	r1, #12301
 491              	.LVL50:
 492              		.loc 1 103 5 view .LVU89
ARM GAS  /tmp/ccwFP5qn.s 			page 11


 493 000a FFF7FEFF 		bl	lv_obj_set_local_style_prop
 494              	.LVL51:
 104:Middlewares/lvgl/src/core/lv_obj_style_gen.c **** }
 495              		.loc 1 104 1 view .LVU90
 496 000e 08BD     		pop	{r3, pc}
 497              		.cfi_endproc
 498              	.LFE159:
 500              		.section	.text.lv_obj_set_style_transform_zoom,"ax",%progbits
 501              		.align	1
 502              		.global	lv_obj_set_style_transform_zoom
 503              		.syntax unified
 504              		.thumb
 505              		.thumb_func
 506              		.fpu fpv4-sp-d16
 508              	lv_obj_set_style_transform_zoom:
 509              	.LVL52:
 510              	.LFB160:
 105:Middlewares/lvgl/src/core/lv_obj_style_gen.c **** 
 106:Middlewares/lvgl/src/core/lv_obj_style_gen.c **** void lv_obj_set_style_transform_zoom(struct _lv_obj_t * obj, lv_coord_t value, lv_style_selector_t 
 107:Middlewares/lvgl/src/core/lv_obj_style_gen.c **** {
 511              		.loc 1 107 1 is_stmt 1 view -0
 512              		.cfi_startproc
 513              		@ args = 0, pretend = 0, frame = 0
 514              		@ frame_needed = 0, uses_anonymous_args = 0
 515              		.loc 1 107 1 is_stmt 0 view .LVU92
 516 0000 08B5     		push	{r3, lr}
 517              	.LCFI13:
 518              		.cfi_def_cfa_offset 8
 519              		.cfi_offset 3, -8
 520              		.cfi_offset 14, -4
 521 0002 1346     		mov	r3, r2
 108:Middlewares/lvgl/src/core/lv_obj_style_gen.c ****     lv_style_value_t v = {
 522              		.loc 1 108 5 is_stmt 1 view .LVU93
 109:Middlewares/lvgl/src/core/lv_obj_style_gen.c ****         .num = (int32_t)value
 110:Middlewares/lvgl/src/core/lv_obj_style_gen.c ****     };
 111:Middlewares/lvgl/src/core/lv_obj_style_gen.c ****     lv_obj_set_local_style_prop(obj, LV_STYLE_TRANSFORM_ZOOM, v, selector);
 523              		.loc 1 111 5 view .LVU94
 524 0004 0A46     		mov	r2, r1
 525              	.LVL53:
 526              		.loc 1 111 5 is_stmt 0 view .LVU95
 527 0006 40F60E01 		movw	r1, #2062
 528              	.LVL54:
 529              		.loc 1 111 5 view .LVU96
 530 000a FFF7FEFF 		bl	lv_obj_set_local_style_prop
 531              	.LVL55:
 112:Middlewares/lvgl/src/core/lv_obj_style_gen.c **** }
 532              		.loc 1 112 1 view .LVU97
 533 000e 08BD     		pop	{r3, pc}
 534              		.cfi_endproc
 535              	.LFE160:
 537              		.section	.text.lv_obj_set_style_transform_angle,"ax",%progbits
 538              		.align	1
 539              		.global	lv_obj_set_style_transform_angle
 540              		.syntax unified
 541              		.thumb
 542              		.thumb_func
 543              		.fpu fpv4-sp-d16
ARM GAS  /tmp/ccwFP5qn.s 			page 12


 545              	lv_obj_set_style_transform_angle:
 546              	.LVL56:
 547              	.LFB161:
 113:Middlewares/lvgl/src/core/lv_obj_style_gen.c **** 
 114:Middlewares/lvgl/src/core/lv_obj_style_gen.c **** void lv_obj_set_style_transform_angle(struct _lv_obj_t * obj, lv_coord_t value, lv_style_selector_t
 115:Middlewares/lvgl/src/core/lv_obj_style_gen.c **** {
 548              		.loc 1 115 1 is_stmt 1 view -0
 549              		.cfi_startproc
 550              		@ args = 0, pretend = 0, frame = 0
 551              		@ frame_needed = 0, uses_anonymous_args = 0
 552              		.loc 1 115 1 is_stmt 0 view .LVU99
 553 0000 08B5     		push	{r3, lr}
 554              	.LCFI14:
 555              		.cfi_def_cfa_offset 8
 556              		.cfi_offset 3, -8
 557              		.cfi_offset 14, -4
 558 0002 1346     		mov	r3, r2
 116:Middlewares/lvgl/src/core/lv_obj_style_gen.c ****     lv_style_value_t v = {
 559              		.loc 1 116 5 is_stmt 1 view .LVU100
 117:Middlewares/lvgl/src/core/lv_obj_style_gen.c ****         .num = (int32_t)value
 118:Middlewares/lvgl/src/core/lv_obj_style_gen.c ****     };
 119:Middlewares/lvgl/src/core/lv_obj_style_gen.c ****     lv_obj_set_local_style_prop(obj, LV_STYLE_TRANSFORM_ANGLE, v, selector);
 560              		.loc 1 119 5 view .LVU101
 561 0004 0A46     		mov	r2, r1
 562              	.LVL57:
 563              		.loc 1 119 5 is_stmt 0 view .LVU102
 564 0006 40F60F01 		movw	r1, #2063
 565              	.LVL58:
 566              		.loc 1 119 5 view .LVU103
 567 000a FFF7FEFF 		bl	lv_obj_set_local_style_prop
 568              	.LVL59:
 120:Middlewares/lvgl/src/core/lv_obj_style_gen.c **** }
 569              		.loc 1 120 1 view .LVU104
 570 000e 08BD     		pop	{r3, pc}
 571              		.cfi_endproc
 572              	.LFE161:
 574              		.section	.text.lv_obj_set_style_pad_top,"ax",%progbits
 575              		.align	1
 576              		.global	lv_obj_set_style_pad_top
 577              		.syntax unified
 578              		.thumb
 579              		.thumb_func
 580              		.fpu fpv4-sp-d16
 582              	lv_obj_set_style_pad_top:
 583              	.LVL60:
 584              	.LFB162:
 121:Middlewares/lvgl/src/core/lv_obj_style_gen.c **** 
 122:Middlewares/lvgl/src/core/lv_obj_style_gen.c **** void lv_obj_set_style_pad_top(struct _lv_obj_t * obj, lv_coord_t value, lv_style_selector_t selecto
 123:Middlewares/lvgl/src/core/lv_obj_style_gen.c **** {
 585              		.loc 1 123 1 is_stmt 1 view -0
 586              		.cfi_startproc
 587              		@ args = 0, pretend = 0, frame = 0
 588              		@ frame_needed = 0, uses_anonymous_args = 0
 589              		.loc 1 123 1 is_stmt 0 view .LVU106
 590 0000 08B5     		push	{r3, lr}
 591              	.LCFI15:
 592              		.cfi_def_cfa_offset 8
ARM GAS  /tmp/ccwFP5qn.s 			page 13


 593              		.cfi_offset 3, -8
 594              		.cfi_offset 14, -4
 595 0002 1346     		mov	r3, r2
 124:Middlewares/lvgl/src/core/lv_obj_style_gen.c ****     lv_style_value_t v = {
 596              		.loc 1 124 5 is_stmt 1 view .LVU107
 125:Middlewares/lvgl/src/core/lv_obj_style_gen.c ****         .num = (int32_t)value
 126:Middlewares/lvgl/src/core/lv_obj_style_gen.c ****     };
 127:Middlewares/lvgl/src/core/lv_obj_style_gen.c ****     lv_obj_set_local_style_prop(obj, LV_STYLE_PAD_TOP, v, selector);
 597              		.loc 1 127 5 view .LVU108
 598 0004 0A46     		mov	r2, r1
 599              	.LVL61:
 600              		.loc 1 127 5 is_stmt 0 view .LVU109
 601 0006 41F21001 		movw	r1, #4112
 602              	.LVL62:
 603              		.loc 1 127 5 view .LVU110
 604 000a FFF7FEFF 		bl	lv_obj_set_local_style_prop
 605              	.LVL63:
 128:Middlewares/lvgl/src/core/lv_obj_style_gen.c **** }
 606              		.loc 1 128 1 view .LVU111
 607 000e 08BD     		pop	{r3, pc}
 608              		.cfi_endproc
 609              	.LFE162:
 611              		.section	.text.lv_obj_set_style_pad_bottom,"ax",%progbits
 612              		.align	1
 613              		.global	lv_obj_set_style_pad_bottom
 614              		.syntax unified
 615              		.thumb
 616              		.thumb_func
 617              		.fpu fpv4-sp-d16
 619              	lv_obj_set_style_pad_bottom:
 620              	.LVL64:
 621              	.LFB163:
 129:Middlewares/lvgl/src/core/lv_obj_style_gen.c **** 
 130:Middlewares/lvgl/src/core/lv_obj_style_gen.c **** void lv_obj_set_style_pad_bottom(struct _lv_obj_t * obj, lv_coord_t value, lv_style_selector_t sele
 131:Middlewares/lvgl/src/core/lv_obj_style_gen.c **** {
 622              		.loc 1 131 1 is_stmt 1 view -0
 623              		.cfi_startproc
 624              		@ args = 0, pretend = 0, frame = 0
 625              		@ frame_needed = 0, uses_anonymous_args = 0
 626              		.loc 1 131 1 is_stmt 0 view .LVU113
 627 0000 08B5     		push	{r3, lr}
 628              	.LCFI16:
 629              		.cfi_def_cfa_offset 8
 630              		.cfi_offset 3, -8
 631              		.cfi_offset 14, -4
 632 0002 1346     		mov	r3, r2
 132:Middlewares/lvgl/src/core/lv_obj_style_gen.c ****     lv_style_value_t v = {
 633              		.loc 1 132 5 is_stmt 1 view .LVU114
 133:Middlewares/lvgl/src/core/lv_obj_style_gen.c ****         .num = (int32_t)value
 134:Middlewares/lvgl/src/core/lv_obj_style_gen.c ****     };
 135:Middlewares/lvgl/src/core/lv_obj_style_gen.c ****     lv_obj_set_local_style_prop(obj, LV_STYLE_PAD_BOTTOM, v, selector);
 634              		.loc 1 135 5 view .LVU115
 635 0004 0A46     		mov	r2, r1
 636              	.LVL65:
 637              		.loc 1 135 5 is_stmt 0 view .LVU116
 638 0006 41F21101 		movw	r1, #4113
 639              	.LVL66:
ARM GAS  /tmp/ccwFP5qn.s 			page 14


 640              		.loc 1 135 5 view .LVU117
 641 000a FFF7FEFF 		bl	lv_obj_set_local_style_prop
 642              	.LVL67:
 136:Middlewares/lvgl/src/core/lv_obj_style_gen.c **** }
 643              		.loc 1 136 1 view .LVU118
 644 000e 08BD     		pop	{r3, pc}
 645              		.cfi_endproc
 646              	.LFE163:
 648              		.section	.text.lv_obj_set_style_pad_left,"ax",%progbits
 649              		.align	1
 650              		.global	lv_obj_set_style_pad_left
 651              		.syntax unified
 652              		.thumb
 653              		.thumb_func
 654              		.fpu fpv4-sp-d16
 656              	lv_obj_set_style_pad_left:
 657              	.LVL68:
 658              	.LFB164:
 137:Middlewares/lvgl/src/core/lv_obj_style_gen.c **** 
 138:Middlewares/lvgl/src/core/lv_obj_style_gen.c **** void lv_obj_set_style_pad_left(struct _lv_obj_t * obj, lv_coord_t value, lv_style_selector_t select
 139:Middlewares/lvgl/src/core/lv_obj_style_gen.c **** {
 659              		.loc 1 139 1 is_stmt 1 view -0
 660              		.cfi_startproc
 661              		@ args = 0, pretend = 0, frame = 0
 662              		@ frame_needed = 0, uses_anonymous_args = 0
 663              		.loc 1 139 1 is_stmt 0 view .LVU120
 664 0000 08B5     		push	{r3, lr}
 665              	.LCFI17:
 666              		.cfi_def_cfa_offset 8
 667              		.cfi_offset 3, -8
 668              		.cfi_offset 14, -4
 669 0002 1346     		mov	r3, r2
 140:Middlewares/lvgl/src/core/lv_obj_style_gen.c ****     lv_style_value_t v = {
 670              		.loc 1 140 5 is_stmt 1 view .LVU121
 141:Middlewares/lvgl/src/core/lv_obj_style_gen.c ****         .num = (int32_t)value
 142:Middlewares/lvgl/src/core/lv_obj_style_gen.c ****     };
 143:Middlewares/lvgl/src/core/lv_obj_style_gen.c ****     lv_obj_set_local_style_prop(obj, LV_STYLE_PAD_LEFT, v, selector);
 671              		.loc 1 143 5 view .LVU122
 672 0004 0A46     		mov	r2, r1
 673              	.LVL69:
 674              		.loc 1 143 5 is_stmt 0 view .LVU123
 675 0006 41F21201 		movw	r1, #4114
 676              	.LVL70:
 677              		.loc 1 143 5 view .LVU124
 678 000a FFF7FEFF 		bl	lv_obj_set_local_style_prop
 679              	.LVL71:
 144:Middlewares/lvgl/src/core/lv_obj_style_gen.c **** }
 680              		.loc 1 144 1 view .LVU125
 681 000e 08BD     		pop	{r3, pc}
 682              		.cfi_endproc
 683              	.LFE164:
 685              		.section	.text.lv_obj_set_style_pad_right,"ax",%progbits
 686              		.align	1
 687              		.global	lv_obj_set_style_pad_right
 688              		.syntax unified
 689              		.thumb
 690              		.thumb_func
ARM GAS  /tmp/ccwFP5qn.s 			page 15


 691              		.fpu fpv4-sp-d16
 693              	lv_obj_set_style_pad_right:
 694              	.LVL72:
 695              	.LFB165:
 145:Middlewares/lvgl/src/core/lv_obj_style_gen.c **** 
 146:Middlewares/lvgl/src/core/lv_obj_style_gen.c **** void lv_obj_set_style_pad_right(struct _lv_obj_t * obj, lv_coord_t value, lv_style_selector_t selec
 147:Middlewares/lvgl/src/core/lv_obj_style_gen.c **** {
 696              		.loc 1 147 1 is_stmt 1 view -0
 697              		.cfi_startproc
 698              		@ args = 0, pretend = 0, frame = 0
 699              		@ frame_needed = 0, uses_anonymous_args = 0
 700              		.loc 1 147 1 is_stmt 0 view .LVU127
 701 0000 08B5     		push	{r3, lr}
 702              	.LCFI18:
 703              		.cfi_def_cfa_offset 8
 704              		.cfi_offset 3, -8
 705              		.cfi_offset 14, -4
 706 0002 1346     		mov	r3, r2
 148:Middlewares/lvgl/src/core/lv_obj_style_gen.c ****     lv_style_value_t v = {
 707              		.loc 1 148 5 is_stmt 1 view .LVU128
 149:Middlewares/lvgl/src/core/lv_obj_style_gen.c ****         .num = (int32_t)value
 150:Middlewares/lvgl/src/core/lv_obj_style_gen.c ****     };
 151:Middlewares/lvgl/src/core/lv_obj_style_gen.c ****     lv_obj_set_local_style_prop(obj, LV_STYLE_PAD_RIGHT, v, selector);
 708              		.loc 1 151 5 view .LVU129
 709 0004 0A46     		mov	r2, r1
 710              	.LVL73:
 711              		.loc 1 151 5 is_stmt 0 view .LVU130
 712 0006 41F21301 		movw	r1, #4115
 713              	.LVL74:
 714              		.loc 1 151 5 view .LVU131
 715 000a FFF7FEFF 		bl	lv_obj_set_local_style_prop
 716              	.LVL75:
 152:Middlewares/lvgl/src/core/lv_obj_style_gen.c **** }
 717              		.loc 1 152 1 view .LVU132
 718 000e 08BD     		pop	{r3, pc}
 719              		.cfi_endproc
 720              	.LFE165:
 722              		.section	.text.lv_obj_set_style_pad_row,"ax",%progbits
 723              		.align	1
 724              		.global	lv_obj_set_style_pad_row
 725              		.syntax unified
 726              		.thumb
 727              		.thumb_func
 728              		.fpu fpv4-sp-d16
 730              	lv_obj_set_style_pad_row:
 731              	.LVL76:
 732              	.LFB166:
 153:Middlewares/lvgl/src/core/lv_obj_style_gen.c **** 
 154:Middlewares/lvgl/src/core/lv_obj_style_gen.c **** void lv_obj_set_style_pad_row(struct _lv_obj_t * obj, lv_coord_t value, lv_style_selector_t selecto
 155:Middlewares/lvgl/src/core/lv_obj_style_gen.c **** {
 733              		.loc 1 155 1 is_stmt 1 view -0
 734              		.cfi_startproc
 735              		@ args = 0, pretend = 0, frame = 0
 736              		@ frame_needed = 0, uses_anonymous_args = 0
 737              		.loc 1 155 1 is_stmt 0 view .LVU134
 738 0000 08B5     		push	{r3, lr}
 739              	.LCFI19:
ARM GAS  /tmp/ccwFP5qn.s 			page 16


 740              		.cfi_def_cfa_offset 8
 741              		.cfi_offset 3, -8
 742              		.cfi_offset 14, -4
 743 0002 1346     		mov	r3, r2
 156:Middlewares/lvgl/src/core/lv_obj_style_gen.c ****     lv_style_value_t v = {
 744              		.loc 1 156 5 is_stmt 1 view .LVU135
 157:Middlewares/lvgl/src/core/lv_obj_style_gen.c ****         .num = (int32_t)value
 158:Middlewares/lvgl/src/core/lv_obj_style_gen.c ****     };
 159:Middlewares/lvgl/src/core/lv_obj_style_gen.c ****     lv_obj_set_local_style_prop(obj, LV_STYLE_PAD_ROW, v, selector);
 745              		.loc 1 159 5 view .LVU136
 746 0004 0A46     		mov	r2, r1
 747              	.LVL77:
 748              		.loc 1 159 5 is_stmt 0 view .LVU137
 749 0006 41F21401 		movw	r1, #4116
 750              	.LVL78:
 751              		.loc 1 159 5 view .LVU138
 752 000a FFF7FEFF 		bl	lv_obj_set_local_style_prop
 753              	.LVL79:
 160:Middlewares/lvgl/src/core/lv_obj_style_gen.c **** }
 754              		.loc 1 160 1 view .LVU139
 755 000e 08BD     		pop	{r3, pc}
 756              		.cfi_endproc
 757              	.LFE166:
 759              		.section	.text.lv_obj_set_style_pad_column,"ax",%progbits
 760              		.align	1
 761              		.global	lv_obj_set_style_pad_column
 762              		.syntax unified
 763              		.thumb
 764              		.thumb_func
 765              		.fpu fpv4-sp-d16
 767              	lv_obj_set_style_pad_column:
 768              	.LVL80:
 769              	.LFB167:
 161:Middlewares/lvgl/src/core/lv_obj_style_gen.c **** 
 162:Middlewares/lvgl/src/core/lv_obj_style_gen.c **** void lv_obj_set_style_pad_column(struct _lv_obj_t * obj, lv_coord_t value, lv_style_selector_t sele
 163:Middlewares/lvgl/src/core/lv_obj_style_gen.c **** {
 770              		.loc 1 163 1 is_stmt 1 view -0
 771              		.cfi_startproc
 772              		@ args = 0, pretend = 0, frame = 0
 773              		@ frame_needed = 0, uses_anonymous_args = 0
 774              		.loc 1 163 1 is_stmt 0 view .LVU141
 775 0000 08B5     		push	{r3, lr}
 776              	.LCFI20:
 777              		.cfi_def_cfa_offset 8
 778              		.cfi_offset 3, -8
 779              		.cfi_offset 14, -4
 780 0002 1346     		mov	r3, r2
 164:Middlewares/lvgl/src/core/lv_obj_style_gen.c ****     lv_style_value_t v = {
 781              		.loc 1 164 5 is_stmt 1 view .LVU142
 165:Middlewares/lvgl/src/core/lv_obj_style_gen.c ****         .num = (int32_t)value
 166:Middlewares/lvgl/src/core/lv_obj_style_gen.c ****     };
 167:Middlewares/lvgl/src/core/lv_obj_style_gen.c ****     lv_obj_set_local_style_prop(obj, LV_STYLE_PAD_COLUMN, v, selector);
 782              		.loc 1 167 5 view .LVU143
 783 0004 0A46     		mov	r2, r1
 784              	.LVL81:
 785              		.loc 1 167 5 is_stmt 0 view .LVU144
 786 0006 41F21501 		movw	r1, #4117
ARM GAS  /tmp/ccwFP5qn.s 			page 17


 787              	.LVL82:
 788              		.loc 1 167 5 view .LVU145
 789 000a FFF7FEFF 		bl	lv_obj_set_local_style_prop
 790              	.LVL83:
 168:Middlewares/lvgl/src/core/lv_obj_style_gen.c **** }
 791              		.loc 1 168 1 view .LVU146
 792 000e 08BD     		pop	{r3, pc}
 793              		.cfi_endproc
 794              	.LFE167:
 796              		.section	.text.lv_obj_set_style_radius,"ax",%progbits
 797              		.align	1
 798              		.global	lv_obj_set_style_radius
 799              		.syntax unified
 800              		.thumb
 801              		.thumb_func
 802              		.fpu fpv4-sp-d16
 804              	lv_obj_set_style_radius:
 805              	.LVL84:
 806              	.LFB168:
 169:Middlewares/lvgl/src/core/lv_obj_style_gen.c **** 
 170:Middlewares/lvgl/src/core/lv_obj_style_gen.c **** void lv_obj_set_style_radius(struct _lv_obj_t * obj, lv_coord_t value, lv_style_selector_t selector
 171:Middlewares/lvgl/src/core/lv_obj_style_gen.c **** {
 807              		.loc 1 171 1 is_stmt 1 view -0
 808              		.cfi_startproc
 809              		@ args = 0, pretend = 0, frame = 0
 810              		@ frame_needed = 0, uses_anonymous_args = 0
 811              		.loc 1 171 1 is_stmt 0 view .LVU148
 812 0000 08B5     		push	{r3, lr}
 813              	.LCFI21:
 814              		.cfi_def_cfa_offset 8
 815              		.cfi_offset 3, -8
 816              		.cfi_offset 14, -4
 817 0002 1346     		mov	r3, r2
 172:Middlewares/lvgl/src/core/lv_obj_style_gen.c ****     lv_style_value_t v = {
 818              		.loc 1 172 5 is_stmt 1 view .LVU149
 173:Middlewares/lvgl/src/core/lv_obj_style_gen.c ****         .num = (int32_t)value
 174:Middlewares/lvgl/src/core/lv_obj_style_gen.c ****     };
 175:Middlewares/lvgl/src/core/lv_obj_style_gen.c ****     lv_obj_set_local_style_prop(obj, LV_STYLE_RADIUS, v, selector);
 819              		.loc 1 175 5 view .LVU150
 820 0004 0A46     		mov	r2, r1
 821              	.LVL85:
 822              		.loc 1 175 5 is_stmt 0 view .LVU151
 823 0006 6021     		movs	r1, #96
 824              	.LVL86:
 825              		.loc 1 175 5 view .LVU152
 826 0008 FFF7FEFF 		bl	lv_obj_set_local_style_prop
 827              	.LVL87:
 176:Middlewares/lvgl/src/core/lv_obj_style_gen.c **** }
 828              		.loc 1 176 1 view .LVU153
 829 000c 08BD     		pop	{r3, pc}
 830              		.cfi_endproc
 831              	.LFE168:
 833              		.section	.text.lv_obj_set_style_clip_corner,"ax",%progbits
 834              		.align	1
 835              		.global	lv_obj_set_style_clip_corner
 836              		.syntax unified
 837              		.thumb
ARM GAS  /tmp/ccwFP5qn.s 			page 18


 838              		.thumb_func
 839              		.fpu fpv4-sp-d16
 841              	lv_obj_set_style_clip_corner:
 842              	.LVL88:
 843              	.LFB169:
 177:Middlewares/lvgl/src/core/lv_obj_style_gen.c **** 
 178:Middlewares/lvgl/src/core/lv_obj_style_gen.c **** void lv_obj_set_style_clip_corner(struct _lv_obj_t * obj, bool value, lv_style_selector_t selector)
 179:Middlewares/lvgl/src/core/lv_obj_style_gen.c **** {
 844              		.loc 1 179 1 is_stmt 1 view -0
 845              		.cfi_startproc
 846              		@ args = 0, pretend = 0, frame = 0
 847              		@ frame_needed = 0, uses_anonymous_args = 0
 848              		.loc 1 179 1 is_stmt 0 view .LVU155
 849 0000 08B5     		push	{r3, lr}
 850              	.LCFI22:
 851              		.cfi_def_cfa_offset 8
 852              		.cfi_offset 3, -8
 853              		.cfi_offset 14, -4
 854 0002 1346     		mov	r3, r2
 180:Middlewares/lvgl/src/core/lv_obj_style_gen.c ****     lv_style_value_t v = {
 855              		.loc 1 180 5 is_stmt 1 view .LVU156
 181:Middlewares/lvgl/src/core/lv_obj_style_gen.c ****         .num = (int32_t)value
 182:Middlewares/lvgl/src/core/lv_obj_style_gen.c ****     };
 183:Middlewares/lvgl/src/core/lv_obj_style_gen.c ****     lv_obj_set_local_style_prop(obj, LV_STYLE_CLIP_CORNER, v, selector);
 856              		.loc 1 183 5 view .LVU157
 857 0004 0A46     		mov	r2, r1
 858              	.LVL89:
 859              		.loc 1 183 5 is_stmt 0 view .LVU158
 860 0006 6121     		movs	r1, #97
 861              	.LVL90:
 862              		.loc 1 183 5 view .LVU159
 863 0008 FFF7FEFF 		bl	lv_obj_set_local_style_prop
 864              	.LVL91:
 184:Middlewares/lvgl/src/core/lv_obj_style_gen.c **** }
 865              		.loc 1 184 1 view .LVU160
 866 000c 08BD     		pop	{r3, pc}
 867              		.cfi_endproc
 868              	.LFE169:
 870              		.section	.text.lv_obj_set_style_opa,"ax",%progbits
 871              		.align	1
 872              		.global	lv_obj_set_style_opa
 873              		.syntax unified
 874              		.thumb
 875              		.thumb_func
 876              		.fpu fpv4-sp-d16
 878              	lv_obj_set_style_opa:
 879              	.LVL92:
 880              	.LFB170:
 185:Middlewares/lvgl/src/core/lv_obj_style_gen.c **** 
 186:Middlewares/lvgl/src/core/lv_obj_style_gen.c **** void lv_obj_set_style_opa(struct _lv_obj_t * obj, lv_opa_t value, lv_style_selector_t selector)
 187:Middlewares/lvgl/src/core/lv_obj_style_gen.c **** {
 881              		.loc 1 187 1 is_stmt 1 view -0
 882              		.cfi_startproc
 883              		@ args = 0, pretend = 0, frame = 0
 884              		@ frame_needed = 0, uses_anonymous_args = 0
 885              		.loc 1 187 1 is_stmt 0 view .LVU162
 886 0000 08B5     		push	{r3, lr}
ARM GAS  /tmp/ccwFP5qn.s 			page 19


 887              	.LCFI23:
 888              		.cfi_def_cfa_offset 8
 889              		.cfi_offset 3, -8
 890              		.cfi_offset 14, -4
 891 0002 1346     		mov	r3, r2
 188:Middlewares/lvgl/src/core/lv_obj_style_gen.c ****     lv_style_value_t v = {
 892              		.loc 1 188 5 is_stmt 1 view .LVU163
 189:Middlewares/lvgl/src/core/lv_obj_style_gen.c ****         .num = (int32_t)value
 190:Middlewares/lvgl/src/core/lv_obj_style_gen.c ****     };
 191:Middlewares/lvgl/src/core/lv_obj_style_gen.c ****     lv_obj_set_local_style_prop(obj, LV_STYLE_OPA, v, selector);
 893              		.loc 1 191 5 view .LVU164
 894 0004 0A46     		mov	r2, r1
 895              	.LVL93:
 896              		.loc 1 191 5 is_stmt 0 view .LVU165
 897 0006 40F26241 		movw	r1, #1122
 898              	.LVL94:
 899              		.loc 1 191 5 view .LVU166
 900 000a FFF7FEFF 		bl	lv_obj_set_local_style_prop
 901              	.LVL95:
 192:Middlewares/lvgl/src/core/lv_obj_style_gen.c **** }
 902              		.loc 1 192 1 view .LVU167
 903 000e 08BD     		pop	{r3, pc}
 904              		.cfi_endproc
 905              	.LFE170:
 907              		.section	.text.lv_obj_set_style_color_filter_dsc,"ax",%progbits
 908              		.align	1
 909              		.global	lv_obj_set_style_color_filter_dsc
 910              		.syntax unified
 911              		.thumb
 912              		.thumb_func
 913              		.fpu fpv4-sp-d16
 915              	lv_obj_set_style_color_filter_dsc:
 916              	.LVL96:
 917              	.LFB171:
 193:Middlewares/lvgl/src/core/lv_obj_style_gen.c **** 
 194:Middlewares/lvgl/src/core/lv_obj_style_gen.c **** void lv_obj_set_style_color_filter_dsc(struct _lv_obj_t * obj, const lv_color_filter_dsc_t * value,
 195:Middlewares/lvgl/src/core/lv_obj_style_gen.c **** {
 918              		.loc 1 195 1 is_stmt 1 view -0
 919              		.cfi_startproc
 920              		@ args = 0, pretend = 0, frame = 0
 921              		@ frame_needed = 0, uses_anonymous_args = 0
 922              		.loc 1 195 1 is_stmt 0 view .LVU169
 923 0000 08B5     		push	{r3, lr}
 924              	.LCFI24:
 925              		.cfi_def_cfa_offset 8
 926              		.cfi_offset 3, -8
 927              		.cfi_offset 14, -4
 928 0002 1346     		mov	r3, r2
 196:Middlewares/lvgl/src/core/lv_obj_style_gen.c ****     lv_style_value_t v = {
 929              		.loc 1 196 5 is_stmt 1 view .LVU170
 197:Middlewares/lvgl/src/core/lv_obj_style_gen.c ****         .ptr = value
 198:Middlewares/lvgl/src/core/lv_obj_style_gen.c ****     };
 199:Middlewares/lvgl/src/core/lv_obj_style_gen.c ****     lv_obj_set_local_style_prop(obj, LV_STYLE_COLOR_FILTER_DSC, v, selector);
 930              		.loc 1 199 5 view .LVU171
 931 0004 0A46     		mov	r2, r1
 932              	.LVL97:
 933              		.loc 1 199 5 is_stmt 0 view .LVU172
ARM GAS  /tmp/ccwFP5qn.s 			page 20


 934 0006 6321     		movs	r1, #99
 935              	.LVL98:
 936              		.loc 1 199 5 view .LVU173
 937 0008 FFF7FEFF 		bl	lv_obj_set_local_style_prop
 938              	.LVL99:
 200:Middlewares/lvgl/src/core/lv_obj_style_gen.c **** }
 939              		.loc 1 200 1 view .LVU174
 940 000c 08BD     		pop	{r3, pc}
 941              		.cfi_endproc
 942              	.LFE171:
 944              		.section	.text.lv_obj_set_style_color_filter_opa,"ax",%progbits
 945              		.align	1
 946              		.global	lv_obj_set_style_color_filter_opa
 947              		.syntax unified
 948              		.thumb
 949              		.thumb_func
 950              		.fpu fpv4-sp-d16
 952              	lv_obj_set_style_color_filter_opa:
 953              	.LVL100:
 954              	.LFB172:
 201:Middlewares/lvgl/src/core/lv_obj_style_gen.c **** 
 202:Middlewares/lvgl/src/core/lv_obj_style_gen.c **** void lv_obj_set_style_color_filter_opa(struct _lv_obj_t * obj, lv_opa_t value, lv_style_selector_t 
 203:Middlewares/lvgl/src/core/lv_obj_style_gen.c **** {
 955              		.loc 1 203 1 is_stmt 1 view -0
 956              		.cfi_startproc
 957              		@ args = 0, pretend = 0, frame = 0
 958              		@ frame_needed = 0, uses_anonymous_args = 0
 959              		.loc 1 203 1 is_stmt 0 view .LVU176
 960 0000 08B5     		push	{r3, lr}
 961              	.LCFI25:
 962              		.cfi_def_cfa_offset 8
 963              		.cfi_offset 3, -8
 964              		.cfi_offset 14, -4
 965 0002 1346     		mov	r3, r2
 204:Middlewares/lvgl/src/core/lv_obj_style_gen.c ****     lv_style_value_t v = {
 966              		.loc 1 204 5 is_stmt 1 view .LVU177
 205:Middlewares/lvgl/src/core/lv_obj_style_gen.c ****         .num = (int32_t)value
 206:Middlewares/lvgl/src/core/lv_obj_style_gen.c ****     };
 207:Middlewares/lvgl/src/core/lv_obj_style_gen.c ****     lv_obj_set_local_style_prop(obj, LV_STYLE_COLOR_FILTER_OPA, v, selector);
 967              		.loc 1 207 5 view .LVU178
 968 0004 0A46     		mov	r2, r1
 969              	.LVL101:
 970              		.loc 1 207 5 is_stmt 0 view .LVU179
 971 0006 6421     		movs	r1, #100
 972              	.LVL102:
 973              		.loc 1 207 5 view .LVU180
 974 0008 FFF7FEFF 		bl	lv_obj_set_local_style_prop
 975              	.LVL103:
 208:Middlewares/lvgl/src/core/lv_obj_style_gen.c **** }
 976              		.loc 1 208 1 view .LVU181
 977 000c 08BD     		pop	{r3, pc}
 978              		.cfi_endproc
 979              	.LFE172:
 981              		.section	.text.lv_obj_set_style_anim_time,"ax",%progbits
 982              		.align	1
 983              		.global	lv_obj_set_style_anim_time
 984              		.syntax unified
ARM GAS  /tmp/ccwFP5qn.s 			page 21


 985              		.thumb
 986              		.thumb_func
 987              		.fpu fpv4-sp-d16
 989              	lv_obj_set_style_anim_time:
 990              	.LVL104:
 991              	.LFB173:
 209:Middlewares/lvgl/src/core/lv_obj_style_gen.c **** 
 210:Middlewares/lvgl/src/core/lv_obj_style_gen.c **** void lv_obj_set_style_anim_time(struct _lv_obj_t * obj, uint32_t value, lv_style_selector_t selecto
 211:Middlewares/lvgl/src/core/lv_obj_style_gen.c **** {
 992              		.loc 1 211 1 is_stmt 1 view -0
 993              		.cfi_startproc
 994              		@ args = 0, pretend = 0, frame = 0
 995              		@ frame_needed = 0, uses_anonymous_args = 0
 996              		.loc 1 211 1 is_stmt 0 view .LVU183
 997 0000 08B5     		push	{r3, lr}
 998              	.LCFI26:
 999              		.cfi_def_cfa_offset 8
 1000              		.cfi_offset 3, -8
 1001              		.cfi_offset 14, -4
 1002 0002 1346     		mov	r3, r2
 212:Middlewares/lvgl/src/core/lv_obj_style_gen.c ****     lv_style_value_t v = {
 1003              		.loc 1 212 5 is_stmt 1 view .LVU184
 213:Middlewares/lvgl/src/core/lv_obj_style_gen.c ****         .num = (int32_t)value
 214:Middlewares/lvgl/src/core/lv_obj_style_gen.c ****     };
 215:Middlewares/lvgl/src/core/lv_obj_style_gen.c ****     lv_obj_set_local_style_prop(obj, LV_STYLE_ANIM_TIME, v, selector);
 1004              		.loc 1 215 5 view .LVU185
 1005 0004 0A46     		mov	r2, r1
 1006              	.LVL105:
 1007              		.loc 1 215 5 is_stmt 0 view .LVU186
 1008 0006 6521     		movs	r1, #101
 1009              	.LVL106:
 1010              		.loc 1 215 5 view .LVU187
 1011 0008 FFF7FEFF 		bl	lv_obj_set_local_style_prop
 1012              	.LVL107:
 216:Middlewares/lvgl/src/core/lv_obj_style_gen.c **** }
 1013              		.loc 1 216 1 view .LVU188
 1014 000c 08BD     		pop	{r3, pc}
 1015              		.cfi_endproc
 1016              	.LFE173:
 1018              		.section	.text.lv_obj_set_style_anim_speed,"ax",%progbits
 1019              		.align	1
 1020              		.global	lv_obj_set_style_anim_speed
 1021              		.syntax unified
 1022              		.thumb
 1023              		.thumb_func
 1024              		.fpu fpv4-sp-d16
 1026              	lv_obj_set_style_anim_speed:
 1027              	.LVL108:
 1028              	.LFB174:
 217:Middlewares/lvgl/src/core/lv_obj_style_gen.c **** 
 218:Middlewares/lvgl/src/core/lv_obj_style_gen.c **** void lv_obj_set_style_anim_speed(struct _lv_obj_t * obj, uint32_t value, lv_style_selector_t select
 219:Middlewares/lvgl/src/core/lv_obj_style_gen.c **** {
 1029              		.loc 1 219 1 is_stmt 1 view -0
 1030              		.cfi_startproc
 1031              		@ args = 0, pretend = 0, frame = 0
 1032              		@ frame_needed = 0, uses_anonymous_args = 0
 1033              		.loc 1 219 1 is_stmt 0 view .LVU190
ARM GAS  /tmp/ccwFP5qn.s 			page 22


 1034 0000 08B5     		push	{r3, lr}
 1035              	.LCFI27:
 1036              		.cfi_def_cfa_offset 8
 1037              		.cfi_offset 3, -8
 1038              		.cfi_offset 14, -4
 1039 0002 1346     		mov	r3, r2
 220:Middlewares/lvgl/src/core/lv_obj_style_gen.c ****     lv_style_value_t v = {
 1040              		.loc 1 220 5 is_stmt 1 view .LVU191
 221:Middlewares/lvgl/src/core/lv_obj_style_gen.c ****         .num = (int32_t)value
 222:Middlewares/lvgl/src/core/lv_obj_style_gen.c ****     };
 223:Middlewares/lvgl/src/core/lv_obj_style_gen.c ****     lv_obj_set_local_style_prop(obj, LV_STYLE_ANIM_SPEED, v, selector);
 1041              		.loc 1 223 5 view .LVU192
 1042 0004 0A46     		mov	r2, r1
 1043              	.LVL109:
 1044              		.loc 1 223 5 is_stmt 0 view .LVU193
 1045 0006 6621     		movs	r1, #102
 1046              	.LVL110:
 1047              		.loc 1 223 5 view .LVU194
 1048 0008 FFF7FEFF 		bl	lv_obj_set_local_style_prop
 1049              	.LVL111:
 224:Middlewares/lvgl/src/core/lv_obj_style_gen.c **** }
 1050              		.loc 1 224 1 view .LVU195
 1051 000c 08BD     		pop	{r3, pc}
 1052              		.cfi_endproc
 1053              	.LFE174:
 1055              		.section	.text.lv_obj_set_style_transition,"ax",%progbits
 1056              		.align	1
 1057              		.global	lv_obj_set_style_transition
 1058              		.syntax unified
 1059              		.thumb
 1060              		.thumb_func
 1061              		.fpu fpv4-sp-d16
 1063              	lv_obj_set_style_transition:
 1064              	.LVL112:
 1065              	.LFB175:
 225:Middlewares/lvgl/src/core/lv_obj_style_gen.c **** 
 226:Middlewares/lvgl/src/core/lv_obj_style_gen.c **** void lv_obj_set_style_transition(struct _lv_obj_t * obj, const lv_style_transition_dsc_t * value, l
 227:Middlewares/lvgl/src/core/lv_obj_style_gen.c **** {
 1066              		.loc 1 227 1 is_stmt 1 view -0
 1067              		.cfi_startproc
 1068              		@ args = 0, pretend = 0, frame = 0
 1069              		@ frame_needed = 0, uses_anonymous_args = 0
 1070              		.loc 1 227 1 is_stmt 0 view .LVU197
 1071 0000 08B5     		push	{r3, lr}
 1072              	.LCFI28:
 1073              		.cfi_def_cfa_offset 8
 1074              		.cfi_offset 3, -8
 1075              		.cfi_offset 14, -4
 1076 0002 1346     		mov	r3, r2
 228:Middlewares/lvgl/src/core/lv_obj_style_gen.c ****     lv_style_value_t v = {
 1077              		.loc 1 228 5 is_stmt 1 view .LVU198
 229:Middlewares/lvgl/src/core/lv_obj_style_gen.c ****         .ptr = value
 230:Middlewares/lvgl/src/core/lv_obj_style_gen.c ****     };
 231:Middlewares/lvgl/src/core/lv_obj_style_gen.c ****     lv_obj_set_local_style_prop(obj, LV_STYLE_TRANSITION, v, selector);
 1078              		.loc 1 231 5 view .LVU199
 1079 0004 0A46     		mov	r2, r1
 1080              	.LVL113:
ARM GAS  /tmp/ccwFP5qn.s 			page 23


 1081              		.loc 1 231 5 is_stmt 0 view .LVU200
 1082 0006 6721     		movs	r1, #103
 1083              	.LVL114:
 1084              		.loc 1 231 5 view .LVU201
 1085 0008 FFF7FEFF 		bl	lv_obj_set_local_style_prop
 1086              	.LVL115:
 232:Middlewares/lvgl/src/core/lv_obj_style_gen.c **** }
 1087              		.loc 1 232 1 view .LVU202
 1088 000c 08BD     		pop	{r3, pc}
 1089              		.cfi_endproc
 1090              	.LFE175:
 1092              		.section	.text.lv_obj_set_style_blend_mode,"ax",%progbits
 1093              		.align	1
 1094              		.global	lv_obj_set_style_blend_mode
 1095              		.syntax unified
 1096              		.thumb
 1097              		.thumb_func
 1098              		.fpu fpv4-sp-d16
 1100              	lv_obj_set_style_blend_mode:
 1101              	.LVL116:
 1102              	.LFB176:
 233:Middlewares/lvgl/src/core/lv_obj_style_gen.c **** 
 234:Middlewares/lvgl/src/core/lv_obj_style_gen.c **** void lv_obj_set_style_blend_mode(struct _lv_obj_t * obj, lv_blend_mode_t value, lv_style_selector_t
 235:Middlewares/lvgl/src/core/lv_obj_style_gen.c **** {
 1103              		.loc 1 235 1 is_stmt 1 view -0
 1104              		.cfi_startproc
 1105              		@ args = 0, pretend = 0, frame = 0
 1106              		@ frame_needed = 0, uses_anonymous_args = 0
 1107              		.loc 1 235 1 is_stmt 0 view .LVU204
 1108 0000 08B5     		push	{r3, lr}
 1109              	.LCFI29:
 1110              		.cfi_def_cfa_offset 8
 1111              		.cfi_offset 3, -8
 1112              		.cfi_offset 14, -4
 1113 0002 1346     		mov	r3, r2
 236:Middlewares/lvgl/src/core/lv_obj_style_gen.c ****     lv_style_value_t v = {
 1114              		.loc 1 236 5 is_stmt 1 view .LVU205
 237:Middlewares/lvgl/src/core/lv_obj_style_gen.c ****         .num = (int32_t)value
 238:Middlewares/lvgl/src/core/lv_obj_style_gen.c ****     };
 239:Middlewares/lvgl/src/core/lv_obj_style_gen.c ****     lv_obj_set_local_style_prop(obj, LV_STYLE_BLEND_MODE, v, selector);
 1115              		.loc 1 239 5 view .LVU206
 1116 0004 0A46     		mov	r2, r1
 1117              	.LVL117:
 1118              		.loc 1 239 5 is_stmt 0 view .LVU207
 1119 0006 6821     		movs	r1, #104
 1120              	.LVL118:
 1121              		.loc 1 239 5 view .LVU208
 1122 0008 FFF7FEFF 		bl	lv_obj_set_local_style_prop
 1123              	.LVL119:
 240:Middlewares/lvgl/src/core/lv_obj_style_gen.c **** }
 1124              		.loc 1 240 1 view .LVU209
 1125 000c 08BD     		pop	{r3, pc}
 1126              		.cfi_endproc
 1127              	.LFE176:
 1129              		.section	.text.lv_obj_set_style_layout,"ax",%progbits
 1130              		.align	1
 1131              		.global	lv_obj_set_style_layout
ARM GAS  /tmp/ccwFP5qn.s 			page 24


 1132              		.syntax unified
 1133              		.thumb
 1134              		.thumb_func
 1135              		.fpu fpv4-sp-d16
 1137              	lv_obj_set_style_layout:
 1138              	.LVL120:
 1139              	.LFB177:
 241:Middlewares/lvgl/src/core/lv_obj_style_gen.c **** 
 242:Middlewares/lvgl/src/core/lv_obj_style_gen.c **** void lv_obj_set_style_layout(struct _lv_obj_t * obj, uint16_t value, lv_style_selector_t selector)
 243:Middlewares/lvgl/src/core/lv_obj_style_gen.c **** {
 1140              		.loc 1 243 1 is_stmt 1 view -0
 1141              		.cfi_startproc
 1142              		@ args = 0, pretend = 0, frame = 0
 1143              		@ frame_needed = 0, uses_anonymous_args = 0
 1144              		.loc 1 243 1 is_stmt 0 view .LVU211
 1145 0000 08B5     		push	{r3, lr}
 1146              	.LCFI30:
 1147              		.cfi_def_cfa_offset 8
 1148              		.cfi_offset 3, -8
 1149              		.cfi_offset 14, -4
 1150 0002 1346     		mov	r3, r2
 244:Middlewares/lvgl/src/core/lv_obj_style_gen.c ****     lv_style_value_t v = {
 1151              		.loc 1 244 5 is_stmt 1 view .LVU212
 245:Middlewares/lvgl/src/core/lv_obj_style_gen.c ****         .num = (int32_t)value
 246:Middlewares/lvgl/src/core/lv_obj_style_gen.c ****     };
 247:Middlewares/lvgl/src/core/lv_obj_style_gen.c ****     lv_obj_set_local_style_prop(obj, LV_STYLE_LAYOUT, v, selector);
 1152              		.loc 1 247 5 view .LVU213
 1153 0004 0A46     		mov	r2, r1
 1154              	.LVL121:
 1155              		.loc 1 247 5 is_stmt 0 view .LVU214
 1156 0006 41F26901 		movw	r1, #4201
 1157              	.LVL122:
 1158              		.loc 1 247 5 view .LVU215
 1159 000a FFF7FEFF 		bl	lv_obj_set_local_style_prop
 1160              	.LVL123:
 248:Middlewares/lvgl/src/core/lv_obj_style_gen.c **** }
 1161              		.loc 1 248 1 view .LVU216
 1162 000e 08BD     		pop	{r3, pc}
 1163              		.cfi_endproc
 1164              	.LFE177:
 1166              		.section	.text.lv_obj_set_style_base_dir,"ax",%progbits
 1167              		.align	1
 1168              		.global	lv_obj_set_style_base_dir
 1169              		.syntax unified
 1170              		.thumb
 1171              		.thumb_func
 1172              		.fpu fpv4-sp-d16
 1174              	lv_obj_set_style_base_dir:
 1175              	.LVL124:
 1176              	.LFB178:
 249:Middlewares/lvgl/src/core/lv_obj_style_gen.c **** 
 250:Middlewares/lvgl/src/core/lv_obj_style_gen.c **** void lv_obj_set_style_base_dir(struct _lv_obj_t * obj, lv_base_dir_t value, lv_style_selector_t sel
 251:Middlewares/lvgl/src/core/lv_obj_style_gen.c **** {
 1177              		.loc 1 251 1 is_stmt 1 view -0
 1178              		.cfi_startproc
 1179              		@ args = 0, pretend = 0, frame = 0
 1180              		@ frame_needed = 0, uses_anonymous_args = 0
ARM GAS  /tmp/ccwFP5qn.s 			page 25


 1181              		.loc 1 251 1 is_stmt 0 view .LVU218
 1182 0000 08B5     		push	{r3, lr}
 1183              	.LCFI31:
 1184              		.cfi_def_cfa_offset 8
 1185              		.cfi_offset 3, -8
 1186              		.cfi_offset 14, -4
 1187 0002 1346     		mov	r3, r2
 252:Middlewares/lvgl/src/core/lv_obj_style_gen.c ****     lv_style_value_t v = {
 1188              		.loc 1 252 5 is_stmt 1 view .LVU219
 253:Middlewares/lvgl/src/core/lv_obj_style_gen.c ****         .num = (int32_t)value
 254:Middlewares/lvgl/src/core/lv_obj_style_gen.c ****     };
 255:Middlewares/lvgl/src/core/lv_obj_style_gen.c ****     lv_obj_set_local_style_prop(obj, LV_STYLE_BASE_DIR, v, selector);
 1189              		.loc 1 255 5 view .LVU220
 1190 0004 0A46     		mov	r2, r1
 1191              	.LVL125:
 1192              		.loc 1 255 5 is_stmt 0 view .LVU221
 1193 0006 41F26A41 		movw	r1, #5226
 1194              	.LVL126:
 1195              		.loc 1 255 5 view .LVU222
 1196 000a FFF7FEFF 		bl	lv_obj_set_local_style_prop
 1197              	.LVL127:
 256:Middlewares/lvgl/src/core/lv_obj_style_gen.c **** }
 1198              		.loc 1 256 1 view .LVU223
 1199 000e 08BD     		pop	{r3, pc}
 1200              		.cfi_endproc
 1201              	.LFE178:
 1203              		.section	.text.lv_obj_set_style_bg_color,"ax",%progbits
 1204              		.align	1
 1205              		.global	lv_obj_set_style_bg_color
 1206              		.syntax unified
 1207              		.thumb
 1208              		.thumb_func
 1209              		.fpu fpv4-sp-d16
 1211              	lv_obj_set_style_bg_color:
 1212              	.LVL128:
 1213              	.LFB179:
 257:Middlewares/lvgl/src/core/lv_obj_style_gen.c **** 
 258:Middlewares/lvgl/src/core/lv_obj_style_gen.c **** void lv_obj_set_style_bg_color(struct _lv_obj_t * obj, lv_color_t value, lv_style_selector_t select
 259:Middlewares/lvgl/src/core/lv_obj_style_gen.c **** {
 1214              		.loc 1 259 1 is_stmt 1 view -0
 1215              		.cfi_startproc
 1216              		@ args = 0, pretend = 0, frame = 0
 1217              		@ frame_needed = 0, uses_anonymous_args = 0
 1218              		.loc 1 259 1 is_stmt 0 view .LVU225
 1219 0000 08B5     		push	{r3, lr}
 1220              	.LCFI32:
 1221              		.cfi_def_cfa_offset 8
 1222              		.cfi_offset 3, -8
 1223              		.cfi_offset 14, -4
 1224 0002 1346     		mov	r3, r2
 260:Middlewares/lvgl/src/core/lv_obj_style_gen.c ****     lv_style_value_t v = {
 1225              		.loc 1 260 5 is_stmt 1 view .LVU226
 261:Middlewares/lvgl/src/core/lv_obj_style_gen.c ****         .color = value
 262:Middlewares/lvgl/src/core/lv_obj_style_gen.c ****     };
 263:Middlewares/lvgl/src/core/lv_obj_style_gen.c ****     lv_obj_set_local_style_prop(obj, LV_STYLE_BG_COLOR, v, selector);
 1226              		.loc 1 263 5 view .LVU227
 1227 0004 8AB2     		uxth	r2, r1
ARM GAS  /tmp/ccwFP5qn.s 			page 26


 1228              	.LVL129:
 1229              		.loc 1 263 5 is_stmt 0 view .LVU228
 1230 0006 2021     		movs	r1, #32
 1231              	.LVL130:
 1232              		.loc 1 263 5 view .LVU229
 1233 0008 FFF7FEFF 		bl	lv_obj_set_local_style_prop
 1234              	.LVL131:
 264:Middlewares/lvgl/src/core/lv_obj_style_gen.c **** }
 1235              		.loc 1 264 1 view .LVU230
 1236 000c 08BD     		pop	{r3, pc}
 1237              		.cfi_endproc
 1238              	.LFE179:
 1240              		.section	.text.lv_obj_set_style_bg_color_filtered,"ax",%progbits
 1241              		.align	1
 1242              		.global	lv_obj_set_style_bg_color_filtered
 1243              		.syntax unified
 1244              		.thumb
 1245              		.thumb_func
 1246              		.fpu fpv4-sp-d16
 1248              	lv_obj_set_style_bg_color_filtered:
 1249              	.LVL132:
 1250              	.LFB180:
 265:Middlewares/lvgl/src/core/lv_obj_style_gen.c **** 
 266:Middlewares/lvgl/src/core/lv_obj_style_gen.c **** void lv_obj_set_style_bg_color_filtered(struct _lv_obj_t * obj, lv_color_t value, lv_style_selector
 267:Middlewares/lvgl/src/core/lv_obj_style_gen.c **** {
 1251              		.loc 1 267 1 is_stmt 1 view -0
 1252              		.cfi_startproc
 1253              		@ args = 0, pretend = 0, frame = 0
 1254              		@ frame_needed = 0, uses_anonymous_args = 0
 1255              		.loc 1 267 1 is_stmt 0 view .LVU232
 1256 0000 08B5     		push	{r3, lr}
 1257              	.LCFI33:
 1258              		.cfi_def_cfa_offset 8
 1259              		.cfi_offset 3, -8
 1260              		.cfi_offset 14, -4
 1261 0002 1346     		mov	r3, r2
 268:Middlewares/lvgl/src/core/lv_obj_style_gen.c ****     lv_style_value_t v = {
 1262              		.loc 1 268 5 is_stmt 1 view .LVU233
 269:Middlewares/lvgl/src/core/lv_obj_style_gen.c ****         .color = value
 270:Middlewares/lvgl/src/core/lv_obj_style_gen.c ****     };
 271:Middlewares/lvgl/src/core/lv_obj_style_gen.c ****     lv_obj_set_local_style_prop(obj, LV_STYLE_BG_COLOR_FILTERED, v, selector);
 1263              		.loc 1 271 5 view .LVU234
 1264 0004 8AB2     		uxth	r2, r1
 1265              	.LVL133:
 1266              		.loc 1 271 5 is_stmt 0 view .LVU235
 1267 0006 44F22001 		movw	r1, #16416
 1268              	.LVL134:
 1269              		.loc 1 271 5 view .LVU236
 1270 000a FFF7FEFF 		bl	lv_obj_set_local_style_prop
 1271              	.LVL135:
 272:Middlewares/lvgl/src/core/lv_obj_style_gen.c **** }
 1272              		.loc 1 272 1 view .LVU237
 1273 000e 08BD     		pop	{r3, pc}
 1274              		.cfi_endproc
 1275              	.LFE180:
 1277              		.section	.text.lv_obj_set_style_bg_opa,"ax",%progbits
 1278              		.align	1
ARM GAS  /tmp/ccwFP5qn.s 			page 27


 1279              		.global	lv_obj_set_style_bg_opa
 1280              		.syntax unified
 1281              		.thumb
 1282              		.thumb_func
 1283              		.fpu fpv4-sp-d16
 1285              	lv_obj_set_style_bg_opa:
 1286              	.LVL136:
 1287              	.LFB181:
 273:Middlewares/lvgl/src/core/lv_obj_style_gen.c **** 
 274:Middlewares/lvgl/src/core/lv_obj_style_gen.c **** void lv_obj_set_style_bg_opa(struct _lv_obj_t * obj, lv_opa_t value, lv_style_selector_t selector)
 275:Middlewares/lvgl/src/core/lv_obj_style_gen.c **** {
 1288              		.loc 1 275 1 is_stmt 1 view -0
 1289              		.cfi_startproc
 1290              		@ args = 0, pretend = 0, frame = 0
 1291              		@ frame_needed = 0, uses_anonymous_args = 0
 1292              		.loc 1 275 1 is_stmt 0 view .LVU239
 1293 0000 08B5     		push	{r3, lr}
 1294              	.LCFI34:
 1295              		.cfi_def_cfa_offset 8
 1296              		.cfi_offset 3, -8
 1297              		.cfi_offset 14, -4
 1298 0002 1346     		mov	r3, r2
 276:Middlewares/lvgl/src/core/lv_obj_style_gen.c ****     lv_style_value_t v = {
 1299              		.loc 1 276 5 is_stmt 1 view .LVU240
 277:Middlewares/lvgl/src/core/lv_obj_style_gen.c ****         .num = (int32_t)value
 278:Middlewares/lvgl/src/core/lv_obj_style_gen.c ****     };
 279:Middlewares/lvgl/src/core/lv_obj_style_gen.c ****     lv_obj_set_local_style_prop(obj, LV_STYLE_BG_OPA, v, selector);
 1300              		.loc 1 279 5 view .LVU241
 1301 0004 0A46     		mov	r2, r1
 1302              	.LVL137:
 1303              		.loc 1 279 5 is_stmt 0 view .LVU242
 1304 0006 2121     		movs	r1, #33
 1305              	.LVL138:
 1306              		.loc 1 279 5 view .LVU243
 1307 0008 FFF7FEFF 		bl	lv_obj_set_local_style_prop
 1308              	.LVL139:
 280:Middlewares/lvgl/src/core/lv_obj_style_gen.c **** }
 1309              		.loc 1 280 1 view .LVU244
 1310 000c 08BD     		pop	{r3, pc}
 1311              		.cfi_endproc
 1312              	.LFE181:
 1314              		.section	.text.lv_obj_set_style_bg_grad_color,"ax",%progbits
 1315              		.align	1
 1316              		.global	lv_obj_set_style_bg_grad_color
 1317              		.syntax unified
 1318              		.thumb
 1319              		.thumb_func
 1320              		.fpu fpv4-sp-d16
 1322              	lv_obj_set_style_bg_grad_color:
 1323              	.LVL140:
 1324              	.LFB182:
 281:Middlewares/lvgl/src/core/lv_obj_style_gen.c **** 
 282:Middlewares/lvgl/src/core/lv_obj_style_gen.c **** void lv_obj_set_style_bg_grad_color(struct _lv_obj_t * obj, lv_color_t value, lv_style_selector_t s
 283:Middlewares/lvgl/src/core/lv_obj_style_gen.c **** {
 1325              		.loc 1 283 1 is_stmt 1 view -0
 1326              		.cfi_startproc
 1327              		@ args = 0, pretend = 0, frame = 0
ARM GAS  /tmp/ccwFP5qn.s 			page 28


 1328              		@ frame_needed = 0, uses_anonymous_args = 0
 1329              		.loc 1 283 1 is_stmt 0 view .LVU246
 1330 0000 08B5     		push	{r3, lr}
 1331              	.LCFI35:
 1332              		.cfi_def_cfa_offset 8
 1333              		.cfi_offset 3, -8
 1334              		.cfi_offset 14, -4
 1335 0002 1346     		mov	r3, r2
 284:Middlewares/lvgl/src/core/lv_obj_style_gen.c ****     lv_style_value_t v = {
 1336              		.loc 1 284 5 is_stmt 1 view .LVU247
 285:Middlewares/lvgl/src/core/lv_obj_style_gen.c ****         .color = value
 286:Middlewares/lvgl/src/core/lv_obj_style_gen.c ****     };
 287:Middlewares/lvgl/src/core/lv_obj_style_gen.c ****     lv_obj_set_local_style_prop(obj, LV_STYLE_BG_GRAD_COLOR, v, selector);
 1337              		.loc 1 287 5 view .LVU248
 1338 0004 8AB2     		uxth	r2, r1
 1339              	.LVL141:
 1340              		.loc 1 287 5 is_stmt 0 view .LVU249
 1341 0006 2221     		movs	r1, #34
 1342              	.LVL142:
 1343              		.loc 1 287 5 view .LVU250
 1344 0008 FFF7FEFF 		bl	lv_obj_set_local_style_prop
 1345              	.LVL143:
 288:Middlewares/lvgl/src/core/lv_obj_style_gen.c **** }
 1346              		.loc 1 288 1 view .LVU251
 1347 000c 08BD     		pop	{r3, pc}
 1348              		.cfi_endproc
 1349              	.LFE182:
 1351              		.section	.text.lv_obj_set_style_bg_grad_color_filtered,"ax",%progbits
 1352              		.align	1
 1353              		.global	lv_obj_set_style_bg_grad_color_filtered
 1354              		.syntax unified
 1355              		.thumb
 1356              		.thumb_func
 1357              		.fpu fpv4-sp-d16
 1359              	lv_obj_set_style_bg_grad_color_filtered:
 1360              	.LVL144:
 1361              	.LFB183:
 289:Middlewares/lvgl/src/core/lv_obj_style_gen.c **** 
 290:Middlewares/lvgl/src/core/lv_obj_style_gen.c **** void lv_obj_set_style_bg_grad_color_filtered(struct _lv_obj_t * obj, lv_color_t value, lv_style_sel
 291:Middlewares/lvgl/src/core/lv_obj_style_gen.c **** {
 1362              		.loc 1 291 1 is_stmt 1 view -0
 1363              		.cfi_startproc
 1364              		@ args = 0, pretend = 0, frame = 0
 1365              		@ frame_needed = 0, uses_anonymous_args = 0
 1366              		.loc 1 291 1 is_stmt 0 view .LVU253
 1367 0000 08B5     		push	{r3, lr}
 1368              	.LCFI36:
 1369              		.cfi_def_cfa_offset 8
 1370              		.cfi_offset 3, -8
 1371              		.cfi_offset 14, -4
 1372 0002 1346     		mov	r3, r2
 292:Middlewares/lvgl/src/core/lv_obj_style_gen.c ****     lv_style_value_t v = {
 1373              		.loc 1 292 5 is_stmt 1 view .LVU254
 293:Middlewares/lvgl/src/core/lv_obj_style_gen.c ****         .color = value
 294:Middlewares/lvgl/src/core/lv_obj_style_gen.c ****     };
 295:Middlewares/lvgl/src/core/lv_obj_style_gen.c ****     lv_obj_set_local_style_prop(obj, LV_STYLE_BG_GRAD_COLOR_FILTERED, v, selector);
 1374              		.loc 1 295 5 view .LVU255
ARM GAS  /tmp/ccwFP5qn.s 			page 29


 1375 0004 8AB2     		uxth	r2, r1
 1376              	.LVL145:
 1377              		.loc 1 295 5 is_stmt 0 view .LVU256
 1378 0006 44F22201 		movw	r1, #16418
 1379              	.LVL146:
 1380              		.loc 1 295 5 view .LVU257
 1381 000a FFF7FEFF 		bl	lv_obj_set_local_style_prop
 1382              	.LVL147:
 296:Middlewares/lvgl/src/core/lv_obj_style_gen.c **** }
 1383              		.loc 1 296 1 view .LVU258
 1384 000e 08BD     		pop	{r3, pc}
 1385              		.cfi_endproc
 1386              	.LFE183:
 1388              		.section	.text.lv_obj_set_style_bg_grad_dir,"ax",%progbits
 1389              		.align	1
 1390              		.global	lv_obj_set_style_bg_grad_dir
 1391              		.syntax unified
 1392              		.thumb
 1393              		.thumb_func
 1394              		.fpu fpv4-sp-d16
 1396              	lv_obj_set_style_bg_grad_dir:
 1397              	.LVL148:
 1398              	.LFB184:
 297:Middlewares/lvgl/src/core/lv_obj_style_gen.c **** 
 298:Middlewares/lvgl/src/core/lv_obj_style_gen.c **** void lv_obj_set_style_bg_grad_dir(struct _lv_obj_t * obj, lv_grad_dir_t value, lv_style_selector_t 
 299:Middlewares/lvgl/src/core/lv_obj_style_gen.c **** {
 1399              		.loc 1 299 1 is_stmt 1 view -0
 1400              		.cfi_startproc
 1401              		@ args = 0, pretend = 0, frame = 0
 1402              		@ frame_needed = 0, uses_anonymous_args = 0
 1403              		.loc 1 299 1 is_stmt 0 view .LVU260
 1404 0000 08B5     		push	{r3, lr}
 1405              	.LCFI37:
 1406              		.cfi_def_cfa_offset 8
 1407              		.cfi_offset 3, -8
 1408              		.cfi_offset 14, -4
 1409 0002 1346     		mov	r3, r2
 300:Middlewares/lvgl/src/core/lv_obj_style_gen.c ****     lv_style_value_t v = {
 1410              		.loc 1 300 5 is_stmt 1 view .LVU261
 301:Middlewares/lvgl/src/core/lv_obj_style_gen.c ****         .num = (int32_t)value
 302:Middlewares/lvgl/src/core/lv_obj_style_gen.c ****     };
 303:Middlewares/lvgl/src/core/lv_obj_style_gen.c ****     lv_obj_set_local_style_prop(obj, LV_STYLE_BG_GRAD_DIR, v, selector);
 1411              		.loc 1 303 5 view .LVU262
 1412 0004 0A46     		mov	r2, r1
 1413              	.LVL149:
 1414              		.loc 1 303 5 is_stmt 0 view .LVU263
 1415 0006 2321     		movs	r1, #35
 1416              	.LVL150:
 1417              		.loc 1 303 5 view .LVU264
 1418 0008 FFF7FEFF 		bl	lv_obj_set_local_style_prop
 1419              	.LVL151:
 304:Middlewares/lvgl/src/core/lv_obj_style_gen.c **** }
 1420              		.loc 1 304 1 view .LVU265
 1421 000c 08BD     		pop	{r3, pc}
 1422              		.cfi_endproc
 1423              	.LFE184:
 1425              		.section	.text.lv_obj_set_style_bg_main_stop,"ax",%progbits
ARM GAS  /tmp/ccwFP5qn.s 			page 30


 1426              		.align	1
 1427              		.global	lv_obj_set_style_bg_main_stop
 1428              		.syntax unified
 1429              		.thumb
 1430              		.thumb_func
 1431              		.fpu fpv4-sp-d16
 1433              	lv_obj_set_style_bg_main_stop:
 1434              	.LVL152:
 1435              	.LFB185:
 305:Middlewares/lvgl/src/core/lv_obj_style_gen.c **** 
 306:Middlewares/lvgl/src/core/lv_obj_style_gen.c **** void lv_obj_set_style_bg_main_stop(struct _lv_obj_t * obj, lv_coord_t value, lv_style_selector_t se
 307:Middlewares/lvgl/src/core/lv_obj_style_gen.c **** {
 1436              		.loc 1 307 1 is_stmt 1 view -0
 1437              		.cfi_startproc
 1438              		@ args = 0, pretend = 0, frame = 0
 1439              		@ frame_needed = 0, uses_anonymous_args = 0
 1440              		.loc 1 307 1 is_stmt 0 view .LVU267
 1441 0000 08B5     		push	{r3, lr}
 1442              	.LCFI38:
 1443              		.cfi_def_cfa_offset 8
 1444              		.cfi_offset 3, -8
 1445              		.cfi_offset 14, -4
 1446 0002 1346     		mov	r3, r2
 308:Middlewares/lvgl/src/core/lv_obj_style_gen.c ****     lv_style_value_t v = {
 1447              		.loc 1 308 5 is_stmt 1 view .LVU268
 309:Middlewares/lvgl/src/core/lv_obj_style_gen.c ****         .num = (int32_t)value
 310:Middlewares/lvgl/src/core/lv_obj_style_gen.c ****     };
 311:Middlewares/lvgl/src/core/lv_obj_style_gen.c ****     lv_obj_set_local_style_prop(obj, LV_STYLE_BG_MAIN_STOP, v, selector);
 1448              		.loc 1 311 5 view .LVU269
 1449 0004 0A46     		mov	r2, r1
 1450              	.LVL153:
 1451              		.loc 1 311 5 is_stmt 0 view .LVU270
 1452 0006 2421     		movs	r1, #36
 1453              	.LVL154:
 1454              		.loc 1 311 5 view .LVU271
 1455 0008 FFF7FEFF 		bl	lv_obj_set_local_style_prop
 1456              	.LVL155:
 312:Middlewares/lvgl/src/core/lv_obj_style_gen.c **** }
 1457              		.loc 1 312 1 view .LVU272
 1458 000c 08BD     		pop	{r3, pc}
 1459              		.cfi_endproc
 1460              	.LFE185:
 1462              		.section	.text.lv_obj_set_style_bg_grad_stop,"ax",%progbits
 1463              		.align	1
 1464              		.global	lv_obj_set_style_bg_grad_stop
 1465              		.syntax unified
 1466              		.thumb
 1467              		.thumb_func
 1468              		.fpu fpv4-sp-d16
 1470              	lv_obj_set_style_bg_grad_stop:
 1471              	.LVL156:
 1472              	.LFB186:
 313:Middlewares/lvgl/src/core/lv_obj_style_gen.c **** 
 314:Middlewares/lvgl/src/core/lv_obj_style_gen.c **** void lv_obj_set_style_bg_grad_stop(struct _lv_obj_t * obj, lv_coord_t value, lv_style_selector_t se
 315:Middlewares/lvgl/src/core/lv_obj_style_gen.c **** {
 1473              		.loc 1 315 1 is_stmt 1 view -0
 1474              		.cfi_startproc
ARM GAS  /tmp/ccwFP5qn.s 			page 31


 1475              		@ args = 0, pretend = 0, frame = 0
 1476              		@ frame_needed = 0, uses_anonymous_args = 0
 1477              		.loc 1 315 1 is_stmt 0 view .LVU274
 1478 0000 08B5     		push	{r3, lr}
 1479              	.LCFI39:
 1480              		.cfi_def_cfa_offset 8
 1481              		.cfi_offset 3, -8
 1482              		.cfi_offset 14, -4
 1483 0002 1346     		mov	r3, r2
 316:Middlewares/lvgl/src/core/lv_obj_style_gen.c ****     lv_style_value_t v = {
 1484              		.loc 1 316 5 is_stmt 1 view .LVU275
 317:Middlewares/lvgl/src/core/lv_obj_style_gen.c ****         .num = (int32_t)value
 318:Middlewares/lvgl/src/core/lv_obj_style_gen.c ****     };
 319:Middlewares/lvgl/src/core/lv_obj_style_gen.c ****     lv_obj_set_local_style_prop(obj, LV_STYLE_BG_GRAD_STOP, v, selector);
 1485              		.loc 1 319 5 view .LVU276
 1486 0004 0A46     		mov	r2, r1
 1487              	.LVL157:
 1488              		.loc 1 319 5 is_stmt 0 view .LVU277
 1489 0006 2521     		movs	r1, #37
 1490              	.LVL158:
 1491              		.loc 1 319 5 view .LVU278
 1492 0008 FFF7FEFF 		bl	lv_obj_set_local_style_prop
 1493              	.LVL159:
 320:Middlewares/lvgl/src/core/lv_obj_style_gen.c **** }
 1494              		.loc 1 320 1 view .LVU279
 1495 000c 08BD     		pop	{r3, pc}
 1496              		.cfi_endproc
 1497              	.LFE186:
 1499              		.section	.text.lv_obj_set_style_bg_img_src,"ax",%progbits
 1500              		.align	1
 1501              		.global	lv_obj_set_style_bg_img_src
 1502              		.syntax unified
 1503              		.thumb
 1504              		.thumb_func
 1505              		.fpu fpv4-sp-d16
 1507              	lv_obj_set_style_bg_img_src:
 1508              	.LVL160:
 1509              	.LFB187:
 321:Middlewares/lvgl/src/core/lv_obj_style_gen.c **** 
 322:Middlewares/lvgl/src/core/lv_obj_style_gen.c **** void lv_obj_set_style_bg_img_src(struct _lv_obj_t * obj, const void * value, lv_style_selector_t se
 323:Middlewares/lvgl/src/core/lv_obj_style_gen.c **** {
 1510              		.loc 1 323 1 is_stmt 1 view -0
 1511              		.cfi_startproc
 1512              		@ args = 0, pretend = 0, frame = 0
 1513              		@ frame_needed = 0, uses_anonymous_args = 0
 1514              		.loc 1 323 1 is_stmt 0 view .LVU281
 1515 0000 08B5     		push	{r3, lr}
 1516              	.LCFI40:
 1517              		.cfi_def_cfa_offset 8
 1518              		.cfi_offset 3, -8
 1519              		.cfi_offset 14, -4
 1520 0002 1346     		mov	r3, r2
 324:Middlewares/lvgl/src/core/lv_obj_style_gen.c ****     lv_style_value_t v = {
 1521              		.loc 1 324 5 is_stmt 1 view .LVU282
 325:Middlewares/lvgl/src/core/lv_obj_style_gen.c ****         .ptr = value
 326:Middlewares/lvgl/src/core/lv_obj_style_gen.c ****     };
 327:Middlewares/lvgl/src/core/lv_obj_style_gen.c ****     lv_obj_set_local_style_prop(obj, LV_STYLE_BG_IMG_SRC, v, selector);
ARM GAS  /tmp/ccwFP5qn.s 			page 32


 1522              		.loc 1 327 5 view .LVU283
 1523 0004 0A46     		mov	r2, r1
 1524              	.LVL161:
 1525              		.loc 1 327 5 is_stmt 0 view .LVU284
 1526 0006 2621     		movs	r1, #38
 1527              	.LVL162:
 1528              		.loc 1 327 5 view .LVU285
 1529 0008 FFF7FEFF 		bl	lv_obj_set_local_style_prop
 1530              	.LVL163:
 328:Middlewares/lvgl/src/core/lv_obj_style_gen.c **** }
 1531              		.loc 1 328 1 view .LVU286
 1532 000c 08BD     		pop	{r3, pc}
 1533              		.cfi_endproc
 1534              	.LFE187:
 1536              		.section	.text.lv_obj_set_style_bg_img_opa,"ax",%progbits
 1537              		.align	1
 1538              		.global	lv_obj_set_style_bg_img_opa
 1539              		.syntax unified
 1540              		.thumb
 1541              		.thumb_func
 1542              		.fpu fpv4-sp-d16
 1544              	lv_obj_set_style_bg_img_opa:
 1545              	.LVL164:
 1546              	.LFB188:
 329:Middlewares/lvgl/src/core/lv_obj_style_gen.c **** 
 330:Middlewares/lvgl/src/core/lv_obj_style_gen.c **** void lv_obj_set_style_bg_img_opa(struct _lv_obj_t * obj, lv_opa_t value, lv_style_selector_t select
 331:Middlewares/lvgl/src/core/lv_obj_style_gen.c **** {
 1547              		.loc 1 331 1 is_stmt 1 view -0
 1548              		.cfi_startproc
 1549              		@ args = 0, pretend = 0, frame = 0
 1550              		@ frame_needed = 0, uses_anonymous_args = 0
 1551              		.loc 1 331 1 is_stmt 0 view .LVU288
 1552 0000 08B5     		push	{r3, lr}
 1553              	.LCFI41:
 1554              		.cfi_def_cfa_offset 8
 1555              		.cfi_offset 3, -8
 1556              		.cfi_offset 14, -4
 1557 0002 1346     		mov	r3, r2
 332:Middlewares/lvgl/src/core/lv_obj_style_gen.c ****     lv_style_value_t v = {
 1558              		.loc 1 332 5 is_stmt 1 view .LVU289
 333:Middlewares/lvgl/src/core/lv_obj_style_gen.c ****         .num = (int32_t)value
 334:Middlewares/lvgl/src/core/lv_obj_style_gen.c ****     };
 335:Middlewares/lvgl/src/core/lv_obj_style_gen.c ****     lv_obj_set_local_style_prop(obj, LV_STYLE_BG_IMG_OPA, v, selector);
 1559              		.loc 1 335 5 view .LVU290
 1560 0004 0A46     		mov	r2, r1
 1561              	.LVL165:
 1562              		.loc 1 335 5 is_stmt 0 view .LVU291
 1563 0006 2721     		movs	r1, #39
 1564              	.LVL166:
 1565              		.loc 1 335 5 view .LVU292
 1566 0008 FFF7FEFF 		bl	lv_obj_set_local_style_prop
 1567              	.LVL167:
 336:Middlewares/lvgl/src/core/lv_obj_style_gen.c **** }
 1568              		.loc 1 336 1 view .LVU293
 1569 000c 08BD     		pop	{r3, pc}
 1570              		.cfi_endproc
 1571              	.LFE188:
ARM GAS  /tmp/ccwFP5qn.s 			page 33


 1573              		.section	.text.lv_obj_set_style_bg_img_recolor,"ax",%progbits
 1574              		.align	1
 1575              		.global	lv_obj_set_style_bg_img_recolor
 1576              		.syntax unified
 1577              		.thumb
 1578              		.thumb_func
 1579              		.fpu fpv4-sp-d16
 1581              	lv_obj_set_style_bg_img_recolor:
 1582              	.LVL168:
 1583              	.LFB189:
 337:Middlewares/lvgl/src/core/lv_obj_style_gen.c **** 
 338:Middlewares/lvgl/src/core/lv_obj_style_gen.c **** void lv_obj_set_style_bg_img_recolor(struct _lv_obj_t * obj, lv_color_t value, lv_style_selector_t 
 339:Middlewares/lvgl/src/core/lv_obj_style_gen.c **** {
 1584              		.loc 1 339 1 is_stmt 1 view -0
 1585              		.cfi_startproc
 1586              		@ args = 0, pretend = 0, frame = 0
 1587              		@ frame_needed = 0, uses_anonymous_args = 0
 1588              		.loc 1 339 1 is_stmt 0 view .LVU295
 1589 0000 08B5     		push	{r3, lr}
 1590              	.LCFI42:
 1591              		.cfi_def_cfa_offset 8
 1592              		.cfi_offset 3, -8
 1593              		.cfi_offset 14, -4
 1594 0002 1346     		mov	r3, r2
 340:Middlewares/lvgl/src/core/lv_obj_style_gen.c ****     lv_style_value_t v = {
 1595              		.loc 1 340 5 is_stmt 1 view .LVU296
 341:Middlewares/lvgl/src/core/lv_obj_style_gen.c ****         .color = value
 342:Middlewares/lvgl/src/core/lv_obj_style_gen.c ****     };
 343:Middlewares/lvgl/src/core/lv_obj_style_gen.c ****     lv_obj_set_local_style_prop(obj, LV_STYLE_BG_IMG_RECOLOR, v, selector);
 1596              		.loc 1 343 5 view .LVU297
 1597 0004 8AB2     		uxth	r2, r1
 1598              	.LVL169:
 1599              		.loc 1 343 5 is_stmt 0 view .LVU298
 1600 0006 2821     		movs	r1, #40
 1601              	.LVL170:
 1602              		.loc 1 343 5 view .LVU299
 1603 0008 FFF7FEFF 		bl	lv_obj_set_local_style_prop
 1604              	.LVL171:
 344:Middlewares/lvgl/src/core/lv_obj_style_gen.c **** }
 1605              		.loc 1 344 1 view .LVU300
 1606 000c 08BD     		pop	{r3, pc}
 1607              		.cfi_endproc
 1608              	.LFE189:
 1610              		.section	.text.lv_obj_set_style_bg_img_recolor_filtered,"ax",%progbits
 1611              		.align	1
 1612              		.global	lv_obj_set_style_bg_img_recolor_filtered
 1613              		.syntax unified
 1614              		.thumb
 1615              		.thumb_func
 1616              		.fpu fpv4-sp-d16
 1618              	lv_obj_set_style_bg_img_recolor_filtered:
 1619              	.LVL172:
 1620              	.LFB190:
 345:Middlewares/lvgl/src/core/lv_obj_style_gen.c **** 
 346:Middlewares/lvgl/src/core/lv_obj_style_gen.c **** void lv_obj_set_style_bg_img_recolor_filtered(struct _lv_obj_t * obj, lv_color_t value, lv_style_se
 347:Middlewares/lvgl/src/core/lv_obj_style_gen.c **** {
 1621              		.loc 1 347 1 is_stmt 1 view -0
ARM GAS  /tmp/ccwFP5qn.s 			page 34


 1622              		.cfi_startproc
 1623              		@ args = 0, pretend = 0, frame = 0
 1624              		@ frame_needed = 0, uses_anonymous_args = 0
 1625              		.loc 1 347 1 is_stmt 0 view .LVU302
 1626 0000 08B5     		push	{r3, lr}
 1627              	.LCFI43:
 1628              		.cfi_def_cfa_offset 8
 1629              		.cfi_offset 3, -8
 1630              		.cfi_offset 14, -4
 1631 0002 1346     		mov	r3, r2
 348:Middlewares/lvgl/src/core/lv_obj_style_gen.c ****     lv_style_value_t v = {
 1632              		.loc 1 348 5 is_stmt 1 view .LVU303
 349:Middlewares/lvgl/src/core/lv_obj_style_gen.c ****         .color = value
 350:Middlewares/lvgl/src/core/lv_obj_style_gen.c ****     };
 351:Middlewares/lvgl/src/core/lv_obj_style_gen.c ****     lv_obj_set_local_style_prop(obj, LV_STYLE_BG_IMG_RECOLOR_FILTERED, v, selector);
 1633              		.loc 1 351 5 view .LVU304
 1634 0004 8AB2     		uxth	r2, r1
 1635              	.LVL173:
 1636              		.loc 1 351 5 is_stmt 0 view .LVU305
 1637 0006 44F22801 		movw	r1, #16424
 1638              	.LVL174:
 1639              		.loc 1 351 5 view .LVU306
 1640 000a FFF7FEFF 		bl	lv_obj_set_local_style_prop
 1641              	.LVL175:
 352:Middlewares/lvgl/src/core/lv_obj_style_gen.c **** }
 1642              		.loc 1 352 1 view .LVU307
 1643 000e 08BD     		pop	{r3, pc}
 1644              		.cfi_endproc
 1645              	.LFE190:
 1647              		.section	.text.lv_obj_set_style_bg_img_recolor_opa,"ax",%progbits
 1648              		.align	1
 1649              		.global	lv_obj_set_style_bg_img_recolor_opa
 1650              		.syntax unified
 1651              		.thumb
 1652              		.thumb_func
 1653              		.fpu fpv4-sp-d16
 1655              	lv_obj_set_style_bg_img_recolor_opa:
 1656              	.LVL176:
 1657              	.LFB191:
 353:Middlewares/lvgl/src/core/lv_obj_style_gen.c **** 
 354:Middlewares/lvgl/src/core/lv_obj_style_gen.c **** void lv_obj_set_style_bg_img_recolor_opa(struct _lv_obj_t * obj, lv_opa_t value, lv_style_selector_
 355:Middlewares/lvgl/src/core/lv_obj_style_gen.c **** {
 1658              		.loc 1 355 1 is_stmt 1 view -0
 1659              		.cfi_startproc
 1660              		@ args = 0, pretend = 0, frame = 0
 1661              		@ frame_needed = 0, uses_anonymous_args = 0
 1662              		.loc 1 355 1 is_stmt 0 view .LVU309
 1663 0000 08B5     		push	{r3, lr}
 1664              	.LCFI44:
 1665              		.cfi_def_cfa_offset 8
 1666              		.cfi_offset 3, -8
 1667              		.cfi_offset 14, -4
 1668 0002 1346     		mov	r3, r2
 356:Middlewares/lvgl/src/core/lv_obj_style_gen.c ****     lv_style_value_t v = {
 1669              		.loc 1 356 5 is_stmt 1 view .LVU310
 357:Middlewares/lvgl/src/core/lv_obj_style_gen.c ****         .num = (int32_t)value
 358:Middlewares/lvgl/src/core/lv_obj_style_gen.c ****     };
ARM GAS  /tmp/ccwFP5qn.s 			page 35


 359:Middlewares/lvgl/src/core/lv_obj_style_gen.c ****     lv_obj_set_local_style_prop(obj, LV_STYLE_BG_IMG_RECOLOR_OPA, v, selector);
 1670              		.loc 1 359 5 view .LVU311
 1671 0004 0A46     		mov	r2, r1
 1672              	.LVL177:
 1673              		.loc 1 359 5 is_stmt 0 view .LVU312
 1674 0006 2921     		movs	r1, #41
 1675              	.LVL178:
 1676              		.loc 1 359 5 view .LVU313
 1677 0008 FFF7FEFF 		bl	lv_obj_set_local_style_prop
 1678              	.LVL179:
 360:Middlewares/lvgl/src/core/lv_obj_style_gen.c **** }
 1679              		.loc 1 360 1 view .LVU314
 1680 000c 08BD     		pop	{r3, pc}
 1681              		.cfi_endproc
 1682              	.LFE191:
 1684              		.section	.text.lv_obj_set_style_bg_img_tiled,"ax",%progbits
 1685              		.align	1
 1686              		.global	lv_obj_set_style_bg_img_tiled
 1687              		.syntax unified
 1688              		.thumb
 1689              		.thumb_func
 1690              		.fpu fpv4-sp-d16
 1692              	lv_obj_set_style_bg_img_tiled:
 1693              	.LVL180:
 1694              	.LFB192:
 361:Middlewares/lvgl/src/core/lv_obj_style_gen.c **** 
 362:Middlewares/lvgl/src/core/lv_obj_style_gen.c **** void lv_obj_set_style_bg_img_tiled(struct _lv_obj_t * obj, bool value, lv_style_selector_t selector
 363:Middlewares/lvgl/src/core/lv_obj_style_gen.c **** {
 1695              		.loc 1 363 1 is_stmt 1 view -0
 1696              		.cfi_startproc
 1697              		@ args = 0, pretend = 0, frame = 0
 1698              		@ frame_needed = 0, uses_anonymous_args = 0
 1699              		.loc 1 363 1 is_stmt 0 view .LVU316
 1700 0000 08B5     		push	{r3, lr}
 1701              	.LCFI45:
 1702              		.cfi_def_cfa_offset 8
 1703              		.cfi_offset 3, -8
 1704              		.cfi_offset 14, -4
 1705 0002 1346     		mov	r3, r2
 364:Middlewares/lvgl/src/core/lv_obj_style_gen.c ****     lv_style_value_t v = {
 1706              		.loc 1 364 5 is_stmt 1 view .LVU317
 365:Middlewares/lvgl/src/core/lv_obj_style_gen.c ****         .num = (int32_t)value
 366:Middlewares/lvgl/src/core/lv_obj_style_gen.c ****     };
 367:Middlewares/lvgl/src/core/lv_obj_style_gen.c ****     lv_obj_set_local_style_prop(obj, LV_STYLE_BG_IMG_TILED, v, selector);
 1707              		.loc 1 367 5 view .LVU318
 1708 0004 0A46     		mov	r2, r1
 1709              	.LVL181:
 1710              		.loc 1 367 5 is_stmt 0 view .LVU319
 1711 0006 2A21     		movs	r1, #42
 1712              	.LVL182:
 1713              		.loc 1 367 5 view .LVU320
 1714 0008 FFF7FEFF 		bl	lv_obj_set_local_style_prop
 1715              	.LVL183:
 368:Middlewares/lvgl/src/core/lv_obj_style_gen.c **** }
 1716              		.loc 1 368 1 view .LVU321
 1717 000c 08BD     		pop	{r3, pc}
 1718              		.cfi_endproc
ARM GAS  /tmp/ccwFP5qn.s 			page 36


 1719              	.LFE192:
 1721              		.section	.text.lv_obj_set_style_border_color,"ax",%progbits
 1722              		.align	1
 1723              		.global	lv_obj_set_style_border_color
 1724              		.syntax unified
 1725              		.thumb
 1726              		.thumb_func
 1727              		.fpu fpv4-sp-d16
 1729              	lv_obj_set_style_border_color:
 1730              	.LVL184:
 1731              	.LFB193:
 369:Middlewares/lvgl/src/core/lv_obj_style_gen.c **** 
 370:Middlewares/lvgl/src/core/lv_obj_style_gen.c **** void lv_obj_set_style_border_color(struct _lv_obj_t * obj, lv_color_t value, lv_style_selector_t se
 371:Middlewares/lvgl/src/core/lv_obj_style_gen.c **** {
 1732              		.loc 1 371 1 is_stmt 1 view -0
 1733              		.cfi_startproc
 1734              		@ args = 0, pretend = 0, frame = 0
 1735              		@ frame_needed = 0, uses_anonymous_args = 0
 1736              		.loc 1 371 1 is_stmt 0 view .LVU323
 1737 0000 08B5     		push	{r3, lr}
 1738              	.LCFI46:
 1739              		.cfi_def_cfa_offset 8
 1740              		.cfi_offset 3, -8
 1741              		.cfi_offset 14, -4
 1742 0002 1346     		mov	r3, r2
 372:Middlewares/lvgl/src/core/lv_obj_style_gen.c ****     lv_style_value_t v = {
 1743              		.loc 1 372 5 is_stmt 1 view .LVU324
 373:Middlewares/lvgl/src/core/lv_obj_style_gen.c ****         .color = value
 374:Middlewares/lvgl/src/core/lv_obj_style_gen.c ****     };
 375:Middlewares/lvgl/src/core/lv_obj_style_gen.c ****     lv_obj_set_local_style_prop(obj, LV_STYLE_BORDER_COLOR, v, selector);
 1744              		.loc 1 375 5 view .LVU325
 1745 0004 8AB2     		uxth	r2, r1
 1746              	.LVL185:
 1747              		.loc 1 375 5 is_stmt 0 view .LVU326
 1748 0006 3021     		movs	r1, #48
 1749              	.LVL186:
 1750              		.loc 1 375 5 view .LVU327
 1751 0008 FFF7FEFF 		bl	lv_obj_set_local_style_prop
 1752              	.LVL187:
 376:Middlewares/lvgl/src/core/lv_obj_style_gen.c **** }
 1753              		.loc 1 376 1 view .LVU328
 1754 000c 08BD     		pop	{r3, pc}
 1755              		.cfi_endproc
 1756              	.LFE193:
 1758              		.section	.text.lv_obj_set_style_border_color_filtered,"ax",%progbits
 1759              		.align	1
 1760              		.global	lv_obj_set_style_border_color_filtered
 1761              		.syntax unified
 1762              		.thumb
 1763              		.thumb_func
 1764              		.fpu fpv4-sp-d16
 1766              	lv_obj_set_style_border_color_filtered:
 1767              	.LVL188:
 1768              	.LFB194:
 377:Middlewares/lvgl/src/core/lv_obj_style_gen.c **** 
 378:Middlewares/lvgl/src/core/lv_obj_style_gen.c **** void lv_obj_set_style_border_color_filtered(struct _lv_obj_t * obj, lv_color_t value, lv_style_sele
 379:Middlewares/lvgl/src/core/lv_obj_style_gen.c **** {
ARM GAS  /tmp/ccwFP5qn.s 			page 37


 1769              		.loc 1 379 1 is_stmt 1 view -0
 1770              		.cfi_startproc
 1771              		@ args = 0, pretend = 0, frame = 0
 1772              		@ frame_needed = 0, uses_anonymous_args = 0
 1773              		.loc 1 379 1 is_stmt 0 view .LVU330
 1774 0000 08B5     		push	{r3, lr}
 1775              	.LCFI47:
 1776              		.cfi_def_cfa_offset 8
 1777              		.cfi_offset 3, -8
 1778              		.cfi_offset 14, -4
 1779 0002 1346     		mov	r3, r2
 380:Middlewares/lvgl/src/core/lv_obj_style_gen.c ****     lv_style_value_t v = {
 1780              		.loc 1 380 5 is_stmt 1 view .LVU331
 381:Middlewares/lvgl/src/core/lv_obj_style_gen.c ****         .color = value
 382:Middlewares/lvgl/src/core/lv_obj_style_gen.c ****     };
 383:Middlewares/lvgl/src/core/lv_obj_style_gen.c ****     lv_obj_set_local_style_prop(obj, LV_STYLE_BORDER_COLOR_FILTERED, v, selector);
 1781              		.loc 1 383 5 view .LVU332
 1782 0004 8AB2     		uxth	r2, r1
 1783              	.LVL189:
 1784              		.loc 1 383 5 is_stmt 0 view .LVU333
 1785 0006 44F23001 		movw	r1, #16432
 1786              	.LVL190:
 1787              		.loc 1 383 5 view .LVU334
 1788 000a FFF7FEFF 		bl	lv_obj_set_local_style_prop
 1789              	.LVL191:
 384:Middlewares/lvgl/src/core/lv_obj_style_gen.c **** }
 1790              		.loc 1 384 1 view .LVU335
 1791 000e 08BD     		pop	{r3, pc}
 1792              		.cfi_endproc
 1793              	.LFE194:
 1795              		.section	.text.lv_obj_set_style_border_opa,"ax",%progbits
 1796              		.align	1
 1797              		.global	lv_obj_set_style_border_opa
 1798              		.syntax unified
 1799              		.thumb
 1800              		.thumb_func
 1801              		.fpu fpv4-sp-d16
 1803              	lv_obj_set_style_border_opa:
 1804              	.LVL192:
 1805              	.LFB195:
 385:Middlewares/lvgl/src/core/lv_obj_style_gen.c **** 
 386:Middlewares/lvgl/src/core/lv_obj_style_gen.c **** void lv_obj_set_style_border_opa(struct _lv_obj_t * obj, lv_opa_t value, lv_style_selector_t select
 387:Middlewares/lvgl/src/core/lv_obj_style_gen.c **** {
 1806              		.loc 1 387 1 is_stmt 1 view -0
 1807              		.cfi_startproc
 1808              		@ args = 0, pretend = 0, frame = 0
 1809              		@ frame_needed = 0, uses_anonymous_args = 0
 1810              		.loc 1 387 1 is_stmt 0 view .LVU337
 1811 0000 08B5     		push	{r3, lr}
 1812              	.LCFI48:
 1813              		.cfi_def_cfa_offset 8
 1814              		.cfi_offset 3, -8
 1815              		.cfi_offset 14, -4
 1816 0002 1346     		mov	r3, r2
 388:Middlewares/lvgl/src/core/lv_obj_style_gen.c ****     lv_style_value_t v = {
 1817              		.loc 1 388 5 is_stmt 1 view .LVU338
 389:Middlewares/lvgl/src/core/lv_obj_style_gen.c ****         .num = (int32_t)value
ARM GAS  /tmp/ccwFP5qn.s 			page 38


 390:Middlewares/lvgl/src/core/lv_obj_style_gen.c ****     };
 391:Middlewares/lvgl/src/core/lv_obj_style_gen.c ****     lv_obj_set_local_style_prop(obj, LV_STYLE_BORDER_OPA, v, selector);
 1818              		.loc 1 391 5 view .LVU339
 1819 0004 0A46     		mov	r2, r1
 1820              	.LVL193:
 1821              		.loc 1 391 5 is_stmt 0 view .LVU340
 1822 0006 3121     		movs	r1, #49
 1823              	.LVL194:
 1824              		.loc 1 391 5 view .LVU341
 1825 0008 FFF7FEFF 		bl	lv_obj_set_local_style_prop
 1826              	.LVL195:
 392:Middlewares/lvgl/src/core/lv_obj_style_gen.c **** }
 1827              		.loc 1 392 1 view .LVU342
 1828 000c 08BD     		pop	{r3, pc}
 1829              		.cfi_endproc
 1830              	.LFE195:
 1832              		.section	.text.lv_obj_set_style_border_width,"ax",%progbits
 1833              		.align	1
 1834              		.global	lv_obj_set_style_border_width
 1835              		.syntax unified
 1836              		.thumb
 1837              		.thumb_func
 1838              		.fpu fpv4-sp-d16
 1840              	lv_obj_set_style_border_width:
 1841              	.LVL196:
 1842              	.LFB196:
 393:Middlewares/lvgl/src/core/lv_obj_style_gen.c **** 
 394:Middlewares/lvgl/src/core/lv_obj_style_gen.c **** void lv_obj_set_style_border_width(struct _lv_obj_t * obj, lv_coord_t value, lv_style_selector_t se
 395:Middlewares/lvgl/src/core/lv_obj_style_gen.c **** {
 1843              		.loc 1 395 1 is_stmt 1 view -0
 1844              		.cfi_startproc
 1845              		@ args = 0, pretend = 0, frame = 0
 1846              		@ frame_needed = 0, uses_anonymous_args = 0
 1847              		.loc 1 395 1 is_stmt 0 view .LVU344
 1848 0000 08B5     		push	{r3, lr}
 1849              	.LCFI49:
 1850              		.cfi_def_cfa_offset 8
 1851              		.cfi_offset 3, -8
 1852              		.cfi_offset 14, -4
 1853 0002 1346     		mov	r3, r2
 396:Middlewares/lvgl/src/core/lv_obj_style_gen.c ****     lv_style_value_t v = {
 1854              		.loc 1 396 5 is_stmt 1 view .LVU345
 397:Middlewares/lvgl/src/core/lv_obj_style_gen.c ****         .num = (int32_t)value
 398:Middlewares/lvgl/src/core/lv_obj_style_gen.c ****     };
 399:Middlewares/lvgl/src/core/lv_obj_style_gen.c ****     lv_obj_set_local_style_prop(obj, LV_STYLE_BORDER_WIDTH, v, selector);
 1855              		.loc 1 399 5 view .LVU346
 1856 0004 0A46     		mov	r2, r1
 1857              	.LVL197:
 1858              		.loc 1 399 5 is_stmt 0 view .LVU347
 1859 0006 41F23201 		movw	r1, #4146
 1860              	.LVL198:
 1861              		.loc 1 399 5 view .LVU348
 1862 000a FFF7FEFF 		bl	lv_obj_set_local_style_prop
 1863              	.LVL199:
 400:Middlewares/lvgl/src/core/lv_obj_style_gen.c **** }
 1864              		.loc 1 400 1 view .LVU349
 1865 000e 08BD     		pop	{r3, pc}
ARM GAS  /tmp/ccwFP5qn.s 			page 39


 1866              		.cfi_endproc
 1867              	.LFE196:
 1869              		.section	.text.lv_obj_set_style_border_side,"ax",%progbits
 1870              		.align	1
 1871              		.global	lv_obj_set_style_border_side
 1872              		.syntax unified
 1873              		.thumb
 1874              		.thumb_func
 1875              		.fpu fpv4-sp-d16
 1877              	lv_obj_set_style_border_side:
 1878              	.LVL200:
 1879              	.LFB197:
 401:Middlewares/lvgl/src/core/lv_obj_style_gen.c **** 
 402:Middlewares/lvgl/src/core/lv_obj_style_gen.c **** void lv_obj_set_style_border_side(struct _lv_obj_t * obj, lv_border_side_t value, lv_style_selector
 403:Middlewares/lvgl/src/core/lv_obj_style_gen.c **** {
 1880              		.loc 1 403 1 is_stmt 1 view -0
 1881              		.cfi_startproc
 1882              		@ args = 0, pretend = 0, frame = 0
 1883              		@ frame_needed = 0, uses_anonymous_args = 0
 1884              		.loc 1 403 1 is_stmt 0 view .LVU351
 1885 0000 08B5     		push	{r3, lr}
 1886              	.LCFI50:
 1887              		.cfi_def_cfa_offset 8
 1888              		.cfi_offset 3, -8
 1889              		.cfi_offset 14, -4
 1890 0002 1346     		mov	r3, r2
 404:Middlewares/lvgl/src/core/lv_obj_style_gen.c ****     lv_style_value_t v = {
 1891              		.loc 1 404 5 is_stmt 1 view .LVU352
 405:Middlewares/lvgl/src/core/lv_obj_style_gen.c ****         .num = (int32_t)value
 406:Middlewares/lvgl/src/core/lv_obj_style_gen.c ****     };
 407:Middlewares/lvgl/src/core/lv_obj_style_gen.c ****     lv_obj_set_local_style_prop(obj, LV_STYLE_BORDER_SIDE, v, selector);
 1892              		.loc 1 407 5 view .LVU353
 1893 0004 0A46     		mov	r2, r1
 1894              	.LVL201:
 1895              		.loc 1 407 5 is_stmt 0 view .LVU354
 1896 0006 3321     		movs	r1, #51
 1897              	.LVL202:
 1898              		.loc 1 407 5 view .LVU355
 1899 0008 FFF7FEFF 		bl	lv_obj_set_local_style_prop
 1900              	.LVL203:
 408:Middlewares/lvgl/src/core/lv_obj_style_gen.c **** }
 1901              		.loc 1 408 1 view .LVU356
 1902 000c 08BD     		pop	{r3, pc}
 1903              		.cfi_endproc
 1904              	.LFE197:
 1906              		.section	.text.lv_obj_set_style_border_post,"ax",%progbits
 1907              		.align	1
 1908              		.global	lv_obj_set_style_border_post
 1909              		.syntax unified
 1910              		.thumb
 1911              		.thumb_func
 1912              		.fpu fpv4-sp-d16
 1914              	lv_obj_set_style_border_post:
 1915              	.LVL204:
 1916              	.LFB198:
 409:Middlewares/lvgl/src/core/lv_obj_style_gen.c **** 
 410:Middlewares/lvgl/src/core/lv_obj_style_gen.c **** void lv_obj_set_style_border_post(struct _lv_obj_t * obj, bool value, lv_style_selector_t selector)
ARM GAS  /tmp/ccwFP5qn.s 			page 40


 411:Middlewares/lvgl/src/core/lv_obj_style_gen.c **** {
 1917              		.loc 1 411 1 is_stmt 1 view -0
 1918              		.cfi_startproc
 1919              		@ args = 0, pretend = 0, frame = 0
 1920              		@ frame_needed = 0, uses_anonymous_args = 0
 1921              		.loc 1 411 1 is_stmt 0 view .LVU358
 1922 0000 08B5     		push	{r3, lr}
 1923              	.LCFI51:
 1924              		.cfi_def_cfa_offset 8
 1925              		.cfi_offset 3, -8
 1926              		.cfi_offset 14, -4
 1927 0002 1346     		mov	r3, r2
 412:Middlewares/lvgl/src/core/lv_obj_style_gen.c ****     lv_style_value_t v = {
 1928              		.loc 1 412 5 is_stmt 1 view .LVU359
 413:Middlewares/lvgl/src/core/lv_obj_style_gen.c ****         .num = (int32_t)value
 414:Middlewares/lvgl/src/core/lv_obj_style_gen.c ****     };
 415:Middlewares/lvgl/src/core/lv_obj_style_gen.c ****     lv_obj_set_local_style_prop(obj, LV_STYLE_BORDER_POST, v, selector);
 1929              		.loc 1 415 5 view .LVU360
 1930 0004 0A46     		mov	r2, r1
 1931              	.LVL205:
 1932              		.loc 1 415 5 is_stmt 0 view .LVU361
 1933 0006 3421     		movs	r1, #52
 1934              	.LVL206:
 1935              		.loc 1 415 5 view .LVU362
 1936 0008 FFF7FEFF 		bl	lv_obj_set_local_style_prop
 1937              	.LVL207:
 416:Middlewares/lvgl/src/core/lv_obj_style_gen.c **** }
 1938              		.loc 1 416 1 view .LVU363
 1939 000c 08BD     		pop	{r3, pc}
 1940              		.cfi_endproc
 1941              	.LFE198:
 1943              		.section	.text.lv_obj_set_style_text_color,"ax",%progbits
 1944              		.align	1
 1945              		.global	lv_obj_set_style_text_color
 1946              		.syntax unified
 1947              		.thumb
 1948              		.thumb_func
 1949              		.fpu fpv4-sp-d16
 1951              	lv_obj_set_style_text_color:
 1952              	.LVL208:
 1953              	.LFB199:
 417:Middlewares/lvgl/src/core/lv_obj_style_gen.c **** 
 418:Middlewares/lvgl/src/core/lv_obj_style_gen.c **** void lv_obj_set_style_text_color(struct _lv_obj_t * obj, lv_color_t value, lv_style_selector_t sele
 419:Middlewares/lvgl/src/core/lv_obj_style_gen.c **** {
 1954              		.loc 1 419 1 is_stmt 1 view -0
 1955              		.cfi_startproc
 1956              		@ args = 0, pretend = 0, frame = 0
 1957              		@ frame_needed = 0, uses_anonymous_args = 0
 1958              		.loc 1 419 1 is_stmt 0 view .LVU365
 1959 0000 08B5     		push	{r3, lr}
 1960              	.LCFI52:
 1961              		.cfi_def_cfa_offset 8
 1962              		.cfi_offset 3, -8
 1963              		.cfi_offset 14, -4
 1964 0002 1346     		mov	r3, r2
 420:Middlewares/lvgl/src/core/lv_obj_style_gen.c ****     lv_style_value_t v = {
 1965              		.loc 1 420 5 is_stmt 1 view .LVU366
ARM GAS  /tmp/ccwFP5qn.s 			page 41


 421:Middlewares/lvgl/src/core/lv_obj_style_gen.c ****         .color = value
 422:Middlewares/lvgl/src/core/lv_obj_style_gen.c ****     };
 423:Middlewares/lvgl/src/core/lv_obj_style_gen.c ****     lv_obj_set_local_style_prop(obj, LV_STYLE_TEXT_COLOR, v, selector);
 1966              		.loc 1 423 5 view .LVU367
 1967 0004 8AB2     		uxth	r2, r1
 1968              	.LVL209:
 1969              		.loc 1 423 5 is_stmt 0 view .LVU368
 1970 0006 40F25741 		movw	r1, #1111
 1971              	.LVL210:
 1972              		.loc 1 423 5 view .LVU369
 1973 000a FFF7FEFF 		bl	lv_obj_set_local_style_prop
 1974              	.LVL211:
 424:Middlewares/lvgl/src/core/lv_obj_style_gen.c **** }
 1975              		.loc 1 424 1 view .LVU370
 1976 000e 08BD     		pop	{r3, pc}
 1977              		.cfi_endproc
 1978              	.LFE199:
 1980              		.section	.text.lv_obj_set_style_text_color_filtered,"ax",%progbits
 1981              		.align	1
 1982              		.global	lv_obj_set_style_text_color_filtered
 1983              		.syntax unified
 1984              		.thumb
 1985              		.thumb_func
 1986              		.fpu fpv4-sp-d16
 1988              	lv_obj_set_style_text_color_filtered:
 1989              	.LVL212:
 1990              	.LFB200:
 425:Middlewares/lvgl/src/core/lv_obj_style_gen.c **** 
 426:Middlewares/lvgl/src/core/lv_obj_style_gen.c **** void lv_obj_set_style_text_color_filtered(struct _lv_obj_t * obj, lv_color_t value, lv_style_select
 427:Middlewares/lvgl/src/core/lv_obj_style_gen.c **** {
 1991              		.loc 1 427 1 is_stmt 1 view -0
 1992              		.cfi_startproc
 1993              		@ args = 0, pretend = 0, frame = 0
 1994              		@ frame_needed = 0, uses_anonymous_args = 0
 1995              		.loc 1 427 1 is_stmt 0 view .LVU372
 1996 0000 08B5     		push	{r3, lr}
 1997              	.LCFI53:
 1998              		.cfi_def_cfa_offset 8
 1999              		.cfi_offset 3, -8
 2000              		.cfi_offset 14, -4
 2001 0002 1346     		mov	r3, r2
 428:Middlewares/lvgl/src/core/lv_obj_style_gen.c ****     lv_style_value_t v = {
 2002              		.loc 1 428 5 is_stmt 1 view .LVU373
 429:Middlewares/lvgl/src/core/lv_obj_style_gen.c ****         .color = value
 430:Middlewares/lvgl/src/core/lv_obj_style_gen.c ****     };
 431:Middlewares/lvgl/src/core/lv_obj_style_gen.c ****     lv_obj_set_local_style_prop(obj, LV_STYLE_TEXT_COLOR_FILTERED, v, selector);
 2003              		.loc 1 431 5 view .LVU374
 2004 0004 8AB2     		uxth	r2, r1
 2005              	.LVL213:
 2006              		.loc 1 431 5 is_stmt 0 view .LVU375
 2007 0006 44F25741 		movw	r1, #17495
 2008              	.LVL214:
 2009              		.loc 1 431 5 view .LVU376
 2010 000a FFF7FEFF 		bl	lv_obj_set_local_style_prop
 2011              	.LVL215:
 432:Middlewares/lvgl/src/core/lv_obj_style_gen.c **** }
 2012              		.loc 1 432 1 view .LVU377
ARM GAS  /tmp/ccwFP5qn.s 			page 42


 2013 000e 08BD     		pop	{r3, pc}
 2014              		.cfi_endproc
 2015              	.LFE200:
 2017              		.section	.text.lv_obj_set_style_text_opa,"ax",%progbits
 2018              		.align	1
 2019              		.global	lv_obj_set_style_text_opa
 2020              		.syntax unified
 2021              		.thumb
 2022              		.thumb_func
 2023              		.fpu fpv4-sp-d16
 2025              	lv_obj_set_style_text_opa:
 2026              	.LVL216:
 2027              	.LFB201:
 433:Middlewares/lvgl/src/core/lv_obj_style_gen.c **** 
 434:Middlewares/lvgl/src/core/lv_obj_style_gen.c **** void lv_obj_set_style_text_opa(struct _lv_obj_t * obj, lv_opa_t value, lv_style_selector_t selector
 435:Middlewares/lvgl/src/core/lv_obj_style_gen.c **** {
 2028              		.loc 1 435 1 is_stmt 1 view -0
 2029              		.cfi_startproc
 2030              		@ args = 0, pretend = 0, frame = 0
 2031              		@ frame_needed = 0, uses_anonymous_args = 0
 2032              		.loc 1 435 1 is_stmt 0 view .LVU379
 2033 0000 08B5     		push	{r3, lr}
 2034              	.LCFI54:
 2035              		.cfi_def_cfa_offset 8
 2036              		.cfi_offset 3, -8
 2037              		.cfi_offset 14, -4
 2038 0002 1346     		mov	r3, r2
 436:Middlewares/lvgl/src/core/lv_obj_style_gen.c ****     lv_style_value_t v = {
 2039              		.loc 1 436 5 is_stmt 1 view .LVU380
 437:Middlewares/lvgl/src/core/lv_obj_style_gen.c ****         .num = (int32_t)value
 438:Middlewares/lvgl/src/core/lv_obj_style_gen.c ****     };
 439:Middlewares/lvgl/src/core/lv_obj_style_gen.c ****     lv_obj_set_local_style_prop(obj, LV_STYLE_TEXT_OPA, v, selector);
 2040              		.loc 1 439 5 view .LVU381
 2041 0004 0A46     		mov	r2, r1
 2042              	.LVL217:
 2043              		.loc 1 439 5 is_stmt 0 view .LVU382
 2044 0006 4FF48B61 		mov	r1, #1112
 2045              	.LVL218:
 2046              		.loc 1 439 5 view .LVU383
 2047 000a FFF7FEFF 		bl	lv_obj_set_local_style_prop
 2048              	.LVL219:
 440:Middlewares/lvgl/src/core/lv_obj_style_gen.c **** }
 2049              		.loc 1 440 1 view .LVU384
 2050 000e 08BD     		pop	{r3, pc}
 2051              		.cfi_endproc
 2052              	.LFE201:
 2054              		.section	.text.lv_obj_set_style_text_font,"ax",%progbits
 2055              		.align	1
 2056              		.global	lv_obj_set_style_text_font
 2057              		.syntax unified
 2058              		.thumb
 2059              		.thumb_func
 2060              		.fpu fpv4-sp-d16
 2062              	lv_obj_set_style_text_font:
 2063              	.LVL220:
 2064              	.LFB202:
 441:Middlewares/lvgl/src/core/lv_obj_style_gen.c **** 
ARM GAS  /tmp/ccwFP5qn.s 			page 43


 442:Middlewares/lvgl/src/core/lv_obj_style_gen.c **** void lv_obj_set_style_text_font(struct _lv_obj_t * obj, const lv_font_t * value, lv_style_selector_
 443:Middlewares/lvgl/src/core/lv_obj_style_gen.c **** {
 2065              		.loc 1 443 1 is_stmt 1 view -0
 2066              		.cfi_startproc
 2067              		@ args = 0, pretend = 0, frame = 0
 2068              		@ frame_needed = 0, uses_anonymous_args = 0
 2069              		.loc 1 443 1 is_stmt 0 view .LVU386
 2070 0000 08B5     		push	{r3, lr}
 2071              	.LCFI55:
 2072              		.cfi_def_cfa_offset 8
 2073              		.cfi_offset 3, -8
 2074              		.cfi_offset 14, -4
 2075 0002 1346     		mov	r3, r2
 444:Middlewares/lvgl/src/core/lv_obj_style_gen.c ****     lv_style_value_t v = {
 2076              		.loc 1 444 5 is_stmt 1 view .LVU387
 445:Middlewares/lvgl/src/core/lv_obj_style_gen.c ****         .ptr = value
 446:Middlewares/lvgl/src/core/lv_obj_style_gen.c ****     };
 447:Middlewares/lvgl/src/core/lv_obj_style_gen.c ****     lv_obj_set_local_style_prop(obj, LV_STYLE_TEXT_FONT, v, selector);
 2077              		.loc 1 447 5 view .LVU388
 2078 0004 0A46     		mov	r2, r1
 2079              	.LVL221:
 2080              		.loc 1 447 5 is_stmt 0 view .LVU389
 2081 0006 41F25941 		movw	r1, #5209
 2082              	.LVL222:
 2083              		.loc 1 447 5 view .LVU390
 2084 000a FFF7FEFF 		bl	lv_obj_set_local_style_prop
 2085              	.LVL223:
 448:Middlewares/lvgl/src/core/lv_obj_style_gen.c **** }
 2086              		.loc 1 448 1 view .LVU391
 2087 000e 08BD     		pop	{r3, pc}
 2088              		.cfi_endproc
 2089              	.LFE202:
 2091              		.section	.text.lv_obj_set_style_text_letter_space,"ax",%progbits
 2092              		.align	1
 2093              		.global	lv_obj_set_style_text_letter_space
 2094              		.syntax unified
 2095              		.thumb
 2096              		.thumb_func
 2097              		.fpu fpv4-sp-d16
 2099              	lv_obj_set_style_text_letter_space:
 2100              	.LVL224:
 2101              	.LFB203:
 449:Middlewares/lvgl/src/core/lv_obj_style_gen.c **** 
 450:Middlewares/lvgl/src/core/lv_obj_style_gen.c **** void lv_obj_set_style_text_letter_space(struct _lv_obj_t * obj, lv_coord_t value, lv_style_selector
 451:Middlewares/lvgl/src/core/lv_obj_style_gen.c **** {
 2102              		.loc 1 451 1 is_stmt 1 view -0
 2103              		.cfi_startproc
 2104              		@ args = 0, pretend = 0, frame = 0
 2105              		@ frame_needed = 0, uses_anonymous_args = 0
 2106              		.loc 1 451 1 is_stmt 0 view .LVU393
 2107 0000 08B5     		push	{r3, lr}
 2108              	.LCFI56:
 2109              		.cfi_def_cfa_offset 8
 2110              		.cfi_offset 3, -8
 2111              		.cfi_offset 14, -4
 2112 0002 1346     		mov	r3, r2
 452:Middlewares/lvgl/src/core/lv_obj_style_gen.c ****     lv_style_value_t v = {
ARM GAS  /tmp/ccwFP5qn.s 			page 44


 2113              		.loc 1 452 5 is_stmt 1 view .LVU394
 453:Middlewares/lvgl/src/core/lv_obj_style_gen.c ****         .num = (int32_t)value
 454:Middlewares/lvgl/src/core/lv_obj_style_gen.c ****     };
 455:Middlewares/lvgl/src/core/lv_obj_style_gen.c ****     lv_obj_set_local_style_prop(obj, LV_STYLE_TEXT_LETTER_SPACE, v, selector);
 2114              		.loc 1 455 5 view .LVU395
 2115 0004 0A46     		mov	r2, r1
 2116              	.LVL225:
 2117              		.loc 1 455 5 is_stmt 0 view .LVU396
 2118 0006 41F25A41 		movw	r1, #5210
 2119              	.LVL226:
 2120              		.loc 1 455 5 view .LVU397
 2121 000a FFF7FEFF 		bl	lv_obj_set_local_style_prop
 2122              	.LVL227:
 456:Middlewares/lvgl/src/core/lv_obj_style_gen.c **** }
 2123              		.loc 1 456 1 view .LVU398
 2124 000e 08BD     		pop	{r3, pc}
 2125              		.cfi_endproc
 2126              	.LFE203:
 2128              		.section	.text.lv_obj_set_style_text_line_space,"ax",%progbits
 2129              		.align	1
 2130              		.global	lv_obj_set_style_text_line_space
 2131              		.syntax unified
 2132              		.thumb
 2133              		.thumb_func
 2134              		.fpu fpv4-sp-d16
 2136              	lv_obj_set_style_text_line_space:
 2137              	.LVL228:
 2138              	.LFB204:
 457:Middlewares/lvgl/src/core/lv_obj_style_gen.c **** 
 458:Middlewares/lvgl/src/core/lv_obj_style_gen.c **** void lv_obj_set_style_text_line_space(struct _lv_obj_t * obj, lv_coord_t value, lv_style_selector_t
 459:Middlewares/lvgl/src/core/lv_obj_style_gen.c **** {
 2139              		.loc 1 459 1 is_stmt 1 view -0
 2140              		.cfi_startproc
 2141              		@ args = 0, pretend = 0, frame = 0
 2142              		@ frame_needed = 0, uses_anonymous_args = 0
 2143              		.loc 1 459 1 is_stmt 0 view .LVU400
 2144 0000 08B5     		push	{r3, lr}
 2145              	.LCFI57:
 2146              		.cfi_def_cfa_offset 8
 2147              		.cfi_offset 3, -8
 2148              		.cfi_offset 14, -4
 2149 0002 1346     		mov	r3, r2
 460:Middlewares/lvgl/src/core/lv_obj_style_gen.c ****     lv_style_value_t v = {
 2150              		.loc 1 460 5 is_stmt 1 view .LVU401
 461:Middlewares/lvgl/src/core/lv_obj_style_gen.c ****         .num = (int32_t)value
 462:Middlewares/lvgl/src/core/lv_obj_style_gen.c ****     };
 463:Middlewares/lvgl/src/core/lv_obj_style_gen.c ****     lv_obj_set_local_style_prop(obj, LV_STYLE_TEXT_LINE_SPACE, v, selector);
 2151              		.loc 1 463 5 view .LVU402
 2152 0004 0A46     		mov	r2, r1
 2153              	.LVL229:
 2154              		.loc 1 463 5 is_stmt 0 view .LVU403
 2155 0006 41F25B41 		movw	r1, #5211
 2156              	.LVL230:
 2157              		.loc 1 463 5 view .LVU404
 2158 000a FFF7FEFF 		bl	lv_obj_set_local_style_prop
 2159              	.LVL231:
 464:Middlewares/lvgl/src/core/lv_obj_style_gen.c **** }
ARM GAS  /tmp/ccwFP5qn.s 			page 45


 2160              		.loc 1 464 1 view .LVU405
 2161 000e 08BD     		pop	{r3, pc}
 2162              		.cfi_endproc
 2163              	.LFE204:
 2165              		.section	.text.lv_obj_set_style_text_decor,"ax",%progbits
 2166              		.align	1
 2167              		.global	lv_obj_set_style_text_decor
 2168              		.syntax unified
 2169              		.thumb
 2170              		.thumb_func
 2171              		.fpu fpv4-sp-d16
 2173              	lv_obj_set_style_text_decor:
 2174              	.LVL232:
 2175              	.LFB205:
 465:Middlewares/lvgl/src/core/lv_obj_style_gen.c **** 
 466:Middlewares/lvgl/src/core/lv_obj_style_gen.c **** void lv_obj_set_style_text_decor(struct _lv_obj_t * obj, lv_text_decor_t value, lv_style_selector_t
 467:Middlewares/lvgl/src/core/lv_obj_style_gen.c **** {
 2176              		.loc 1 467 1 is_stmt 1 view -0
 2177              		.cfi_startproc
 2178              		@ args = 0, pretend = 0, frame = 0
 2179              		@ frame_needed = 0, uses_anonymous_args = 0
 2180              		.loc 1 467 1 is_stmt 0 view .LVU407
 2181 0000 08B5     		push	{r3, lr}
 2182              	.LCFI58:
 2183              		.cfi_def_cfa_offset 8
 2184              		.cfi_offset 3, -8
 2185              		.cfi_offset 14, -4
 2186 0002 1346     		mov	r3, r2
 468:Middlewares/lvgl/src/core/lv_obj_style_gen.c ****     lv_style_value_t v = {
 2187              		.loc 1 468 5 is_stmt 1 view .LVU408
 469:Middlewares/lvgl/src/core/lv_obj_style_gen.c ****         .num = (int32_t)value
 470:Middlewares/lvgl/src/core/lv_obj_style_gen.c ****     };
 471:Middlewares/lvgl/src/core/lv_obj_style_gen.c ****     lv_obj_set_local_style_prop(obj, LV_STYLE_TEXT_DECOR, v, selector);
 2188              		.loc 1 471 5 view .LVU409
 2189 0004 0A46     		mov	r2, r1
 2190              	.LVL233:
 2191              		.loc 1 471 5 is_stmt 0 view .LVU410
 2192 0006 40F25C41 		movw	r1, #1116
 2193              	.LVL234:
 2194              		.loc 1 471 5 view .LVU411
 2195 000a FFF7FEFF 		bl	lv_obj_set_local_style_prop
 2196              	.LVL235:
 472:Middlewares/lvgl/src/core/lv_obj_style_gen.c **** }
 2197              		.loc 1 472 1 view .LVU412
 2198 000e 08BD     		pop	{r3, pc}
 2199              		.cfi_endproc
 2200              	.LFE205:
 2202              		.section	.text.lv_obj_set_style_text_align,"ax",%progbits
 2203              		.align	1
 2204              		.global	lv_obj_set_style_text_align
 2205              		.syntax unified
 2206              		.thumb
 2207              		.thumb_func
 2208              		.fpu fpv4-sp-d16
 2210              	lv_obj_set_style_text_align:
 2211              	.LVL236:
 2212              	.LFB206:
ARM GAS  /tmp/ccwFP5qn.s 			page 46


 473:Middlewares/lvgl/src/core/lv_obj_style_gen.c **** 
 474:Middlewares/lvgl/src/core/lv_obj_style_gen.c **** void lv_obj_set_style_text_align(struct _lv_obj_t * obj, lv_text_align_t value, lv_style_selector_t
 475:Middlewares/lvgl/src/core/lv_obj_style_gen.c **** {
 2213              		.loc 1 475 1 is_stmt 1 view -0
 2214              		.cfi_startproc
 2215              		@ args = 0, pretend = 0, frame = 0
 2216              		@ frame_needed = 0, uses_anonymous_args = 0
 2217              		.loc 1 475 1 is_stmt 0 view .LVU414
 2218 0000 08B5     		push	{r3, lr}
 2219              	.LCFI59:
 2220              		.cfi_def_cfa_offset 8
 2221              		.cfi_offset 3, -8
 2222              		.cfi_offset 14, -4
 2223 0002 1346     		mov	r3, r2
 476:Middlewares/lvgl/src/core/lv_obj_style_gen.c ****     lv_style_value_t v = {
 2224              		.loc 1 476 5 is_stmt 1 view .LVU415
 477:Middlewares/lvgl/src/core/lv_obj_style_gen.c ****         .num = (int32_t)value
 478:Middlewares/lvgl/src/core/lv_obj_style_gen.c ****     };
 479:Middlewares/lvgl/src/core/lv_obj_style_gen.c ****     lv_obj_set_local_style_prop(obj, LV_STYLE_TEXT_ALIGN, v, selector);
 2225              		.loc 1 479 5 view .LVU416
 2226 0004 0A46     		mov	r2, r1
 2227              	.LVL237:
 2228              		.loc 1 479 5 is_stmt 0 view .LVU417
 2229 0006 41F25D41 		movw	r1, #5213
 2230              	.LVL238:
 2231              		.loc 1 479 5 view .LVU418
 2232 000a FFF7FEFF 		bl	lv_obj_set_local_style_prop
 2233              	.LVL239:
 480:Middlewares/lvgl/src/core/lv_obj_style_gen.c **** }
 2234              		.loc 1 480 1 view .LVU419
 2235 000e 08BD     		pop	{r3, pc}
 2236              		.cfi_endproc
 2237              	.LFE206:
 2239              		.section	.text.lv_obj_set_style_img_opa,"ax",%progbits
 2240              		.align	1
 2241              		.global	lv_obj_set_style_img_opa
 2242              		.syntax unified
 2243              		.thumb
 2244              		.thumb_func
 2245              		.fpu fpv4-sp-d16
 2247              	lv_obj_set_style_img_opa:
 2248              	.LVL240:
 2249              	.LFB207:
 481:Middlewares/lvgl/src/core/lv_obj_style_gen.c **** 
 482:Middlewares/lvgl/src/core/lv_obj_style_gen.c **** void lv_obj_set_style_img_opa(struct _lv_obj_t * obj, lv_opa_t value, lv_style_selector_t selector)
 483:Middlewares/lvgl/src/core/lv_obj_style_gen.c **** {
 2250              		.loc 1 483 1 is_stmt 1 view -0
 2251              		.cfi_startproc
 2252              		@ args = 0, pretend = 0, frame = 0
 2253              		@ frame_needed = 0, uses_anonymous_args = 0
 2254              		.loc 1 483 1 is_stmt 0 view .LVU421
 2255 0000 08B5     		push	{r3, lr}
 2256              	.LCFI60:
 2257              		.cfi_def_cfa_offset 8
 2258              		.cfi_offset 3, -8
 2259              		.cfi_offset 14, -4
 2260 0002 1346     		mov	r3, r2
ARM GAS  /tmp/ccwFP5qn.s 			page 47


 484:Middlewares/lvgl/src/core/lv_obj_style_gen.c ****     lv_style_value_t v = {
 2261              		.loc 1 484 5 is_stmt 1 view .LVU422
 485:Middlewares/lvgl/src/core/lv_obj_style_gen.c ****         .num = (int32_t)value
 486:Middlewares/lvgl/src/core/lv_obj_style_gen.c ****     };
 487:Middlewares/lvgl/src/core/lv_obj_style_gen.c ****     lv_obj_set_local_style_prop(obj, LV_STYLE_IMG_OPA, v, selector);
 2262              		.loc 1 487 5 view .LVU423
 2263 0004 0A46     		mov	r2, r1
 2264              	.LVL241:
 2265              		.loc 1 487 5 is_stmt 0 view .LVU424
 2266 0006 4621     		movs	r1, #70
 2267              	.LVL242:
 2268              		.loc 1 487 5 view .LVU425
 2269 0008 FFF7FEFF 		bl	lv_obj_set_local_style_prop
 2270              	.LVL243:
 488:Middlewares/lvgl/src/core/lv_obj_style_gen.c **** }
 2271              		.loc 1 488 1 view .LVU426
 2272 000c 08BD     		pop	{r3, pc}
 2273              		.cfi_endproc
 2274              	.LFE207:
 2276              		.section	.text.lv_obj_set_style_img_recolor,"ax",%progbits
 2277              		.align	1
 2278              		.global	lv_obj_set_style_img_recolor
 2279              		.syntax unified
 2280              		.thumb
 2281              		.thumb_func
 2282              		.fpu fpv4-sp-d16
 2284              	lv_obj_set_style_img_recolor:
 2285              	.LVL244:
 2286              	.LFB208:
 489:Middlewares/lvgl/src/core/lv_obj_style_gen.c **** 
 490:Middlewares/lvgl/src/core/lv_obj_style_gen.c **** void lv_obj_set_style_img_recolor(struct _lv_obj_t * obj, lv_color_t value, lv_style_selector_t sel
 491:Middlewares/lvgl/src/core/lv_obj_style_gen.c **** {
 2287              		.loc 1 491 1 is_stmt 1 view -0
 2288              		.cfi_startproc
 2289              		@ args = 0, pretend = 0, frame = 0
 2290              		@ frame_needed = 0, uses_anonymous_args = 0
 2291              		.loc 1 491 1 is_stmt 0 view .LVU428
 2292 0000 08B5     		push	{r3, lr}
 2293              	.LCFI61:
 2294              		.cfi_def_cfa_offset 8
 2295              		.cfi_offset 3, -8
 2296              		.cfi_offset 14, -4
 2297 0002 1346     		mov	r3, r2
 492:Middlewares/lvgl/src/core/lv_obj_style_gen.c ****     lv_style_value_t v = {
 2298              		.loc 1 492 5 is_stmt 1 view .LVU429
 493:Middlewares/lvgl/src/core/lv_obj_style_gen.c ****         .color = value
 494:Middlewares/lvgl/src/core/lv_obj_style_gen.c ****     };
 495:Middlewares/lvgl/src/core/lv_obj_style_gen.c ****     lv_obj_set_local_style_prop(obj, LV_STYLE_IMG_RECOLOR, v, selector);
 2299              		.loc 1 495 5 view .LVU430
 2300 0004 8AB2     		uxth	r2, r1
 2301              	.LVL245:
 2302              		.loc 1 495 5 is_stmt 0 view .LVU431
 2303 0006 4721     		movs	r1, #71
 2304              	.LVL246:
 2305              		.loc 1 495 5 view .LVU432
 2306 0008 FFF7FEFF 		bl	lv_obj_set_local_style_prop
 2307              	.LVL247:
ARM GAS  /tmp/ccwFP5qn.s 			page 48


 496:Middlewares/lvgl/src/core/lv_obj_style_gen.c **** }
 2308              		.loc 1 496 1 view .LVU433
 2309 000c 08BD     		pop	{r3, pc}
 2310              		.cfi_endproc
 2311              	.LFE208:
 2313              		.section	.text.lv_obj_set_style_img_recolor_filtered,"ax",%progbits
 2314              		.align	1
 2315              		.global	lv_obj_set_style_img_recolor_filtered
 2316              		.syntax unified
 2317              		.thumb
 2318              		.thumb_func
 2319              		.fpu fpv4-sp-d16
 2321              	lv_obj_set_style_img_recolor_filtered:
 2322              	.LVL248:
 2323              	.LFB209:
 497:Middlewares/lvgl/src/core/lv_obj_style_gen.c **** 
 498:Middlewares/lvgl/src/core/lv_obj_style_gen.c **** void lv_obj_set_style_img_recolor_filtered(struct _lv_obj_t * obj, lv_color_t value, lv_style_selec
 499:Middlewares/lvgl/src/core/lv_obj_style_gen.c **** {
 2324              		.loc 1 499 1 is_stmt 1 view -0
 2325              		.cfi_startproc
 2326              		@ args = 0, pretend = 0, frame = 0
 2327              		@ frame_needed = 0, uses_anonymous_args = 0
 2328              		.loc 1 499 1 is_stmt 0 view .LVU435
 2329 0000 08B5     		push	{r3, lr}
 2330              	.LCFI62:
 2331              		.cfi_def_cfa_offset 8
 2332              		.cfi_offset 3, -8
 2333              		.cfi_offset 14, -4
 2334 0002 1346     		mov	r3, r2
 500:Middlewares/lvgl/src/core/lv_obj_style_gen.c ****     lv_style_value_t v = {
 2335              		.loc 1 500 5 is_stmt 1 view .LVU436
 501:Middlewares/lvgl/src/core/lv_obj_style_gen.c ****         .color = value
 502:Middlewares/lvgl/src/core/lv_obj_style_gen.c ****     };
 503:Middlewares/lvgl/src/core/lv_obj_style_gen.c ****     lv_obj_set_local_style_prop(obj, LV_STYLE_IMG_RECOLOR_FILTERED, v, selector);
 2336              		.loc 1 503 5 view .LVU437
 2337 0004 8AB2     		uxth	r2, r1
 2338              	.LVL249:
 2339              		.loc 1 503 5 is_stmt 0 view .LVU438
 2340 0006 44F24701 		movw	r1, #16455
 2341              	.LVL250:
 2342              		.loc 1 503 5 view .LVU439
 2343 000a FFF7FEFF 		bl	lv_obj_set_local_style_prop
 2344              	.LVL251:
 504:Middlewares/lvgl/src/core/lv_obj_style_gen.c **** }
 2345              		.loc 1 504 1 view .LVU440
 2346 000e 08BD     		pop	{r3, pc}
 2347              		.cfi_endproc
 2348              	.LFE209:
 2350              		.section	.text.lv_obj_set_style_img_recolor_opa,"ax",%progbits
 2351              		.align	1
 2352              		.global	lv_obj_set_style_img_recolor_opa
 2353              		.syntax unified
 2354              		.thumb
 2355              		.thumb_func
 2356              		.fpu fpv4-sp-d16
 2358              	lv_obj_set_style_img_recolor_opa:
 2359              	.LVL252:
ARM GAS  /tmp/ccwFP5qn.s 			page 49


 2360              	.LFB210:
 505:Middlewares/lvgl/src/core/lv_obj_style_gen.c **** 
 506:Middlewares/lvgl/src/core/lv_obj_style_gen.c **** void lv_obj_set_style_img_recolor_opa(struct _lv_obj_t * obj, lv_opa_t value, lv_style_selector_t s
 507:Middlewares/lvgl/src/core/lv_obj_style_gen.c **** {
 2361              		.loc 1 507 1 is_stmt 1 view -0
 2362              		.cfi_startproc
 2363              		@ args = 0, pretend = 0, frame = 0
 2364              		@ frame_needed = 0, uses_anonymous_args = 0
 2365              		.loc 1 507 1 is_stmt 0 view .LVU442
 2366 0000 08B5     		push	{r3, lr}
 2367              	.LCFI63:
 2368              		.cfi_def_cfa_offset 8
 2369              		.cfi_offset 3, -8
 2370              		.cfi_offset 14, -4
 2371 0002 1346     		mov	r3, r2
 508:Middlewares/lvgl/src/core/lv_obj_style_gen.c ****     lv_style_value_t v = {
 2372              		.loc 1 508 5 is_stmt 1 view .LVU443
 509:Middlewares/lvgl/src/core/lv_obj_style_gen.c ****         .num = (int32_t)value
 510:Middlewares/lvgl/src/core/lv_obj_style_gen.c ****     };
 511:Middlewares/lvgl/src/core/lv_obj_style_gen.c ****     lv_obj_set_local_style_prop(obj, LV_STYLE_IMG_RECOLOR_OPA, v, selector);
 2373              		.loc 1 511 5 view .LVU444
 2374 0004 0A46     		mov	r2, r1
 2375              	.LVL253:
 2376              		.loc 1 511 5 is_stmt 0 view .LVU445
 2377 0006 4821     		movs	r1, #72
 2378              	.LVL254:
 2379              		.loc 1 511 5 view .LVU446
 2380 0008 FFF7FEFF 		bl	lv_obj_set_local_style_prop
 2381              	.LVL255:
 512:Middlewares/lvgl/src/core/lv_obj_style_gen.c **** }
 2382              		.loc 1 512 1 view .LVU447
 2383 000c 08BD     		pop	{r3, pc}
 2384              		.cfi_endproc
 2385              	.LFE210:
 2387              		.section	.text.lv_obj_set_style_outline_width,"ax",%progbits
 2388              		.align	1
 2389              		.global	lv_obj_set_style_outline_width
 2390              		.syntax unified
 2391              		.thumb
 2392              		.thumb_func
 2393              		.fpu fpv4-sp-d16
 2395              	lv_obj_set_style_outline_width:
 2396              	.LVL256:
 2397              	.LFB211:
 513:Middlewares/lvgl/src/core/lv_obj_style_gen.c **** 
 514:Middlewares/lvgl/src/core/lv_obj_style_gen.c **** void lv_obj_set_style_outline_width(struct _lv_obj_t * obj, lv_coord_t value, lv_style_selector_t s
 515:Middlewares/lvgl/src/core/lv_obj_style_gen.c **** {
 2398              		.loc 1 515 1 is_stmt 1 view -0
 2399              		.cfi_startproc
 2400              		@ args = 0, pretend = 0, frame = 0
 2401              		@ frame_needed = 0, uses_anonymous_args = 0
 2402              		.loc 1 515 1 is_stmt 0 view .LVU449
 2403 0000 08B5     		push	{r3, lr}
 2404              	.LCFI64:
 2405              		.cfi_def_cfa_offset 8
 2406              		.cfi_offset 3, -8
 2407              		.cfi_offset 14, -4
ARM GAS  /tmp/ccwFP5qn.s 			page 50


 2408 0002 1346     		mov	r3, r2
 516:Middlewares/lvgl/src/core/lv_obj_style_gen.c ****     lv_style_value_t v = {
 2409              		.loc 1 516 5 is_stmt 1 view .LVU450
 517:Middlewares/lvgl/src/core/lv_obj_style_gen.c ****         .num = (int32_t)value
 518:Middlewares/lvgl/src/core/lv_obj_style_gen.c ****     };
 519:Middlewares/lvgl/src/core/lv_obj_style_gen.c ****     lv_obj_set_local_style_prop(obj, LV_STYLE_OUTLINE_WIDTH, v, selector);
 2410              		.loc 1 519 5 view .LVU451
 2411 0004 0A46     		mov	r2, r1
 2412              	.LVL257:
 2413              		.loc 1 519 5 is_stmt 0 view .LVU452
 2414 0006 40F63A01 		movw	r1, #2106
 2415              	.LVL258:
 2416              		.loc 1 519 5 view .LVU453
 2417 000a FFF7FEFF 		bl	lv_obj_set_local_style_prop
 2418              	.LVL259:
 520:Middlewares/lvgl/src/core/lv_obj_style_gen.c **** }
 2419              		.loc 1 520 1 view .LVU454
 2420 000e 08BD     		pop	{r3, pc}
 2421              		.cfi_endproc
 2422              	.LFE211:
 2424              		.section	.text.lv_obj_set_style_outline_color,"ax",%progbits
 2425              		.align	1
 2426              		.global	lv_obj_set_style_outline_color
 2427              		.syntax unified
 2428              		.thumb
 2429              		.thumb_func
 2430              		.fpu fpv4-sp-d16
 2432              	lv_obj_set_style_outline_color:
 2433              	.LVL260:
 2434              	.LFB212:
 521:Middlewares/lvgl/src/core/lv_obj_style_gen.c **** 
 522:Middlewares/lvgl/src/core/lv_obj_style_gen.c **** void lv_obj_set_style_outline_color(struct _lv_obj_t * obj, lv_color_t value, lv_style_selector_t s
 523:Middlewares/lvgl/src/core/lv_obj_style_gen.c **** {
 2435              		.loc 1 523 1 is_stmt 1 view -0
 2436              		.cfi_startproc
 2437              		@ args = 0, pretend = 0, frame = 0
 2438              		@ frame_needed = 0, uses_anonymous_args = 0
 2439              		.loc 1 523 1 is_stmt 0 view .LVU456
 2440 0000 08B5     		push	{r3, lr}
 2441              	.LCFI65:
 2442              		.cfi_def_cfa_offset 8
 2443              		.cfi_offset 3, -8
 2444              		.cfi_offset 14, -4
 2445 0002 1346     		mov	r3, r2
 524:Middlewares/lvgl/src/core/lv_obj_style_gen.c ****     lv_style_value_t v = {
 2446              		.loc 1 524 5 is_stmt 1 view .LVU457
 525:Middlewares/lvgl/src/core/lv_obj_style_gen.c ****         .color = value
 526:Middlewares/lvgl/src/core/lv_obj_style_gen.c ****     };
 527:Middlewares/lvgl/src/core/lv_obj_style_gen.c ****     lv_obj_set_local_style_prop(obj, LV_STYLE_OUTLINE_COLOR, v, selector);
 2447              		.loc 1 527 5 view .LVU458
 2448 0004 8AB2     		uxth	r2, r1
 2449              	.LVL261:
 2450              		.loc 1 527 5 is_stmt 0 view .LVU459
 2451 0006 3B21     		movs	r1, #59
 2452              	.LVL262:
 2453              		.loc 1 527 5 view .LVU460
 2454 0008 FFF7FEFF 		bl	lv_obj_set_local_style_prop
ARM GAS  /tmp/ccwFP5qn.s 			page 51


 2455              	.LVL263:
 528:Middlewares/lvgl/src/core/lv_obj_style_gen.c **** }
 2456              		.loc 1 528 1 view .LVU461
 2457 000c 08BD     		pop	{r3, pc}
 2458              		.cfi_endproc
 2459              	.LFE212:
 2461              		.section	.text.lv_obj_set_style_outline_color_filtered,"ax",%progbits
 2462              		.align	1
 2463              		.global	lv_obj_set_style_outline_color_filtered
 2464              		.syntax unified
 2465              		.thumb
 2466              		.thumb_func
 2467              		.fpu fpv4-sp-d16
 2469              	lv_obj_set_style_outline_color_filtered:
 2470              	.LVL264:
 2471              	.LFB213:
 529:Middlewares/lvgl/src/core/lv_obj_style_gen.c **** 
 530:Middlewares/lvgl/src/core/lv_obj_style_gen.c **** void lv_obj_set_style_outline_color_filtered(struct _lv_obj_t * obj, lv_color_t value, lv_style_sel
 531:Middlewares/lvgl/src/core/lv_obj_style_gen.c **** {
 2472              		.loc 1 531 1 is_stmt 1 view -0
 2473              		.cfi_startproc
 2474              		@ args = 0, pretend = 0, frame = 0
 2475              		@ frame_needed = 0, uses_anonymous_args = 0
 2476              		.loc 1 531 1 is_stmt 0 view .LVU463
 2477 0000 08B5     		push	{r3, lr}
 2478              	.LCFI66:
 2479              		.cfi_def_cfa_offset 8
 2480              		.cfi_offset 3, -8
 2481              		.cfi_offset 14, -4
 2482 0002 1346     		mov	r3, r2
 532:Middlewares/lvgl/src/core/lv_obj_style_gen.c ****     lv_style_value_t v = {
 2483              		.loc 1 532 5 is_stmt 1 view .LVU464
 533:Middlewares/lvgl/src/core/lv_obj_style_gen.c ****         .color = value
 534:Middlewares/lvgl/src/core/lv_obj_style_gen.c ****     };
 535:Middlewares/lvgl/src/core/lv_obj_style_gen.c ****     lv_obj_set_local_style_prop(obj, LV_STYLE_OUTLINE_COLOR_FILTERED, v, selector);
 2484              		.loc 1 535 5 view .LVU465
 2485 0004 8AB2     		uxth	r2, r1
 2486              	.LVL265:
 2487              		.loc 1 535 5 is_stmt 0 view .LVU466
 2488 0006 44F23B01 		movw	r1, #16443
 2489              	.LVL266:
 2490              		.loc 1 535 5 view .LVU467
 2491 000a FFF7FEFF 		bl	lv_obj_set_local_style_prop
 2492              	.LVL267:
 536:Middlewares/lvgl/src/core/lv_obj_style_gen.c **** }
 2493              		.loc 1 536 1 view .LVU468
 2494 000e 08BD     		pop	{r3, pc}
 2495              		.cfi_endproc
 2496              	.LFE213:
 2498              		.section	.text.lv_obj_set_style_outline_opa,"ax",%progbits
 2499              		.align	1
 2500              		.global	lv_obj_set_style_outline_opa
 2501              		.syntax unified
 2502              		.thumb
 2503              		.thumb_func
 2504              		.fpu fpv4-sp-d16
 2506              	lv_obj_set_style_outline_opa:
ARM GAS  /tmp/ccwFP5qn.s 			page 52


 2507              	.LVL268:
 2508              	.LFB214:
 537:Middlewares/lvgl/src/core/lv_obj_style_gen.c **** 
 538:Middlewares/lvgl/src/core/lv_obj_style_gen.c **** void lv_obj_set_style_outline_opa(struct _lv_obj_t * obj, lv_opa_t value, lv_style_selector_t selec
 539:Middlewares/lvgl/src/core/lv_obj_style_gen.c **** {
 2509              		.loc 1 539 1 is_stmt 1 view -0
 2510              		.cfi_startproc
 2511              		@ args = 0, pretend = 0, frame = 0
 2512              		@ frame_needed = 0, uses_anonymous_args = 0
 2513              		.loc 1 539 1 is_stmt 0 view .LVU470
 2514 0000 08B5     		push	{r3, lr}
 2515              	.LCFI67:
 2516              		.cfi_def_cfa_offset 8
 2517              		.cfi_offset 3, -8
 2518              		.cfi_offset 14, -4
 2519 0002 1346     		mov	r3, r2
 540:Middlewares/lvgl/src/core/lv_obj_style_gen.c ****     lv_style_value_t v = {
 2520              		.loc 1 540 5 is_stmt 1 view .LVU471
 541:Middlewares/lvgl/src/core/lv_obj_style_gen.c ****         .num = (int32_t)value
 542:Middlewares/lvgl/src/core/lv_obj_style_gen.c ****     };
 543:Middlewares/lvgl/src/core/lv_obj_style_gen.c ****     lv_obj_set_local_style_prop(obj, LV_STYLE_OUTLINE_OPA, v, selector);
 2521              		.loc 1 543 5 view .LVU472
 2522 0004 0A46     		mov	r2, r1
 2523              	.LVL269:
 2524              		.loc 1 543 5 is_stmt 0 view .LVU473
 2525 0006 40F63C01 		movw	r1, #2108
 2526              	.LVL270:
 2527              		.loc 1 543 5 view .LVU474
 2528 000a FFF7FEFF 		bl	lv_obj_set_local_style_prop
 2529              	.LVL271:
 544:Middlewares/lvgl/src/core/lv_obj_style_gen.c **** }
 2530              		.loc 1 544 1 view .LVU475
 2531 000e 08BD     		pop	{r3, pc}
 2532              		.cfi_endproc
 2533              	.LFE214:
 2535              		.section	.text.lv_obj_set_style_outline_pad,"ax",%progbits
 2536              		.align	1
 2537              		.global	lv_obj_set_style_outline_pad
 2538              		.syntax unified
 2539              		.thumb
 2540              		.thumb_func
 2541              		.fpu fpv4-sp-d16
 2543              	lv_obj_set_style_outline_pad:
 2544              	.LVL272:
 2545              	.LFB215:
 545:Middlewares/lvgl/src/core/lv_obj_style_gen.c **** 
 546:Middlewares/lvgl/src/core/lv_obj_style_gen.c **** void lv_obj_set_style_outline_pad(struct _lv_obj_t * obj, lv_coord_t value, lv_style_selector_t sel
 547:Middlewares/lvgl/src/core/lv_obj_style_gen.c **** {
 2546              		.loc 1 547 1 is_stmt 1 view -0
 2547              		.cfi_startproc
 2548              		@ args = 0, pretend = 0, frame = 0
 2549              		@ frame_needed = 0, uses_anonymous_args = 0
 2550              		.loc 1 547 1 is_stmt 0 view .LVU477
 2551 0000 08B5     		push	{r3, lr}
 2552              	.LCFI68:
 2553              		.cfi_def_cfa_offset 8
 2554              		.cfi_offset 3, -8
ARM GAS  /tmp/ccwFP5qn.s 			page 53


 2555              		.cfi_offset 14, -4
 2556 0002 1346     		mov	r3, r2
 548:Middlewares/lvgl/src/core/lv_obj_style_gen.c ****     lv_style_value_t v = {
 2557              		.loc 1 548 5 is_stmt 1 view .LVU478
 549:Middlewares/lvgl/src/core/lv_obj_style_gen.c ****         .num = (int32_t)value
 550:Middlewares/lvgl/src/core/lv_obj_style_gen.c ****     };
 551:Middlewares/lvgl/src/core/lv_obj_style_gen.c ****     lv_obj_set_local_style_prop(obj, LV_STYLE_OUTLINE_PAD, v, selector);
 2558              		.loc 1 551 5 view .LVU479
 2559 0004 0A46     		mov	r2, r1
 2560              	.LVL273:
 2561              		.loc 1 551 5 is_stmt 0 view .LVU480
 2562 0006 40F63D01 		movw	r1, #2109
 2563              	.LVL274:
 2564              		.loc 1 551 5 view .LVU481
 2565 000a FFF7FEFF 		bl	lv_obj_set_local_style_prop
 2566              	.LVL275:
 552:Middlewares/lvgl/src/core/lv_obj_style_gen.c **** }
 2567              		.loc 1 552 1 view .LVU482
 2568 000e 08BD     		pop	{r3, pc}
 2569              		.cfi_endproc
 2570              	.LFE215:
 2572              		.section	.text.lv_obj_set_style_shadow_width,"ax",%progbits
 2573              		.align	1
 2574              		.global	lv_obj_set_style_shadow_width
 2575              		.syntax unified
 2576              		.thumb
 2577              		.thumb_func
 2578              		.fpu fpv4-sp-d16
 2580              	lv_obj_set_style_shadow_width:
 2581              	.LVL276:
 2582              	.LFB216:
 553:Middlewares/lvgl/src/core/lv_obj_style_gen.c **** 
 554:Middlewares/lvgl/src/core/lv_obj_style_gen.c **** void lv_obj_set_style_shadow_width(struct _lv_obj_t * obj, lv_coord_t value, lv_style_selector_t se
 555:Middlewares/lvgl/src/core/lv_obj_style_gen.c **** {
 2583              		.loc 1 555 1 is_stmt 1 view -0
 2584              		.cfi_startproc
 2585              		@ args = 0, pretend = 0, frame = 0
 2586              		@ frame_needed = 0, uses_anonymous_args = 0
 2587              		.loc 1 555 1 is_stmt 0 view .LVU484
 2588 0000 08B5     		push	{r3, lr}
 2589              	.LCFI69:
 2590              		.cfi_def_cfa_offset 8
 2591              		.cfi_offset 3, -8
 2592              		.cfi_offset 14, -4
 2593 0002 1346     		mov	r3, r2
 556:Middlewares/lvgl/src/core/lv_obj_style_gen.c ****     lv_style_value_t v = {
 2594              		.loc 1 556 5 is_stmt 1 view .LVU485
 557:Middlewares/lvgl/src/core/lv_obj_style_gen.c ****         .num = (int32_t)value
 558:Middlewares/lvgl/src/core/lv_obj_style_gen.c ****     };
 559:Middlewares/lvgl/src/core/lv_obj_style_gen.c ****     lv_obj_set_local_style_prop(obj, LV_STYLE_SHADOW_WIDTH, v, selector);
 2595              		.loc 1 559 5 view .LVU486
 2596 0004 0A46     		mov	r2, r1
 2597              	.LVL277:
 2598              		.loc 1 559 5 is_stmt 0 view .LVU487
 2599 0006 4FF40461 		mov	r1, #2112
 2600              	.LVL278:
 2601              		.loc 1 559 5 view .LVU488
ARM GAS  /tmp/ccwFP5qn.s 			page 54


 2602 000a FFF7FEFF 		bl	lv_obj_set_local_style_prop
 2603              	.LVL279:
 560:Middlewares/lvgl/src/core/lv_obj_style_gen.c **** }
 2604              		.loc 1 560 1 view .LVU489
 2605 000e 08BD     		pop	{r3, pc}
 2606              		.cfi_endproc
 2607              	.LFE216:
 2609              		.section	.text.lv_obj_set_style_shadow_ofs_x,"ax",%progbits
 2610              		.align	1
 2611              		.global	lv_obj_set_style_shadow_ofs_x
 2612              		.syntax unified
 2613              		.thumb
 2614              		.thumb_func
 2615              		.fpu fpv4-sp-d16
 2617              	lv_obj_set_style_shadow_ofs_x:
 2618              	.LVL280:
 2619              	.LFB217:
 561:Middlewares/lvgl/src/core/lv_obj_style_gen.c **** 
 562:Middlewares/lvgl/src/core/lv_obj_style_gen.c **** void lv_obj_set_style_shadow_ofs_x(struct _lv_obj_t * obj, lv_coord_t value, lv_style_selector_t se
 563:Middlewares/lvgl/src/core/lv_obj_style_gen.c **** {
 2620              		.loc 1 563 1 is_stmt 1 view -0
 2621              		.cfi_startproc
 2622              		@ args = 0, pretend = 0, frame = 0
 2623              		@ frame_needed = 0, uses_anonymous_args = 0
 2624              		.loc 1 563 1 is_stmt 0 view .LVU491
 2625 0000 08B5     		push	{r3, lr}
 2626              	.LCFI70:
 2627              		.cfi_def_cfa_offset 8
 2628              		.cfi_offset 3, -8
 2629              		.cfi_offset 14, -4
 2630 0002 1346     		mov	r3, r2
 564:Middlewares/lvgl/src/core/lv_obj_style_gen.c ****     lv_style_value_t v = {
 2631              		.loc 1 564 5 is_stmt 1 view .LVU492
 565:Middlewares/lvgl/src/core/lv_obj_style_gen.c ****         .num = (int32_t)value
 566:Middlewares/lvgl/src/core/lv_obj_style_gen.c ****     };
 567:Middlewares/lvgl/src/core/lv_obj_style_gen.c ****     lv_obj_set_local_style_prop(obj, LV_STYLE_SHADOW_OFS_X, v, selector);
 2632              		.loc 1 567 5 view .LVU493
 2633 0004 0A46     		mov	r2, r1
 2634              	.LVL281:
 2635              		.loc 1 567 5 is_stmt 0 view .LVU494
 2636 0006 40F64101 		movw	r1, #2113
 2637              	.LVL282:
 2638              		.loc 1 567 5 view .LVU495
 2639 000a FFF7FEFF 		bl	lv_obj_set_local_style_prop
 2640              	.LVL283:
 568:Middlewares/lvgl/src/core/lv_obj_style_gen.c **** }
 2641              		.loc 1 568 1 view .LVU496
 2642 000e 08BD     		pop	{r3, pc}
 2643              		.cfi_endproc
 2644              	.LFE217:
 2646              		.section	.text.lv_obj_set_style_shadow_ofs_y,"ax",%progbits
 2647              		.align	1
 2648              		.global	lv_obj_set_style_shadow_ofs_y
 2649              		.syntax unified
 2650              		.thumb
 2651              		.thumb_func
 2652              		.fpu fpv4-sp-d16
ARM GAS  /tmp/ccwFP5qn.s 			page 55


 2654              	lv_obj_set_style_shadow_ofs_y:
 2655              	.LVL284:
 2656              	.LFB218:
 569:Middlewares/lvgl/src/core/lv_obj_style_gen.c **** 
 570:Middlewares/lvgl/src/core/lv_obj_style_gen.c **** void lv_obj_set_style_shadow_ofs_y(struct _lv_obj_t * obj, lv_coord_t value, lv_style_selector_t se
 571:Middlewares/lvgl/src/core/lv_obj_style_gen.c **** {
 2657              		.loc 1 571 1 is_stmt 1 view -0
 2658              		.cfi_startproc
 2659              		@ args = 0, pretend = 0, frame = 0
 2660              		@ frame_needed = 0, uses_anonymous_args = 0
 2661              		.loc 1 571 1 is_stmt 0 view .LVU498
 2662 0000 08B5     		push	{r3, lr}
 2663              	.LCFI71:
 2664              		.cfi_def_cfa_offset 8
 2665              		.cfi_offset 3, -8
 2666              		.cfi_offset 14, -4
 2667 0002 1346     		mov	r3, r2
 572:Middlewares/lvgl/src/core/lv_obj_style_gen.c ****     lv_style_value_t v = {
 2668              		.loc 1 572 5 is_stmt 1 view .LVU499
 573:Middlewares/lvgl/src/core/lv_obj_style_gen.c ****         .num = (int32_t)value
 574:Middlewares/lvgl/src/core/lv_obj_style_gen.c ****     };
 575:Middlewares/lvgl/src/core/lv_obj_style_gen.c ****     lv_obj_set_local_style_prop(obj, LV_STYLE_SHADOW_OFS_Y, v, selector);
 2669              		.loc 1 575 5 view .LVU500
 2670 0004 0A46     		mov	r2, r1
 2671              	.LVL285:
 2672              		.loc 1 575 5 is_stmt 0 view .LVU501
 2673 0006 40F64201 		movw	r1, #2114
 2674              	.LVL286:
 2675              		.loc 1 575 5 view .LVU502
 2676 000a FFF7FEFF 		bl	lv_obj_set_local_style_prop
 2677              	.LVL287:
 576:Middlewares/lvgl/src/core/lv_obj_style_gen.c **** }
 2678              		.loc 1 576 1 view .LVU503
 2679 000e 08BD     		pop	{r3, pc}
 2680              		.cfi_endproc
 2681              	.LFE218:
 2683              		.section	.text.lv_obj_set_style_shadow_spread,"ax",%progbits
 2684              		.align	1
 2685              		.global	lv_obj_set_style_shadow_spread
 2686              		.syntax unified
 2687              		.thumb
 2688              		.thumb_func
 2689              		.fpu fpv4-sp-d16
 2691              	lv_obj_set_style_shadow_spread:
 2692              	.LVL288:
 2693              	.LFB219:
 577:Middlewares/lvgl/src/core/lv_obj_style_gen.c **** 
 578:Middlewares/lvgl/src/core/lv_obj_style_gen.c **** void lv_obj_set_style_shadow_spread(struct _lv_obj_t * obj, lv_coord_t value, lv_style_selector_t s
 579:Middlewares/lvgl/src/core/lv_obj_style_gen.c **** {
 2694              		.loc 1 579 1 is_stmt 1 view -0
 2695              		.cfi_startproc
 2696              		@ args = 0, pretend = 0, frame = 0
 2697              		@ frame_needed = 0, uses_anonymous_args = 0
 2698              		.loc 1 579 1 is_stmt 0 view .LVU505
 2699 0000 08B5     		push	{r3, lr}
 2700              	.LCFI72:
 2701              		.cfi_def_cfa_offset 8
ARM GAS  /tmp/ccwFP5qn.s 			page 56


 2702              		.cfi_offset 3, -8
 2703              		.cfi_offset 14, -4
 2704 0002 1346     		mov	r3, r2
 580:Middlewares/lvgl/src/core/lv_obj_style_gen.c ****     lv_style_value_t v = {
 2705              		.loc 1 580 5 is_stmt 1 view .LVU506
 581:Middlewares/lvgl/src/core/lv_obj_style_gen.c ****         .num = (int32_t)value
 582:Middlewares/lvgl/src/core/lv_obj_style_gen.c ****     };
 583:Middlewares/lvgl/src/core/lv_obj_style_gen.c ****     lv_obj_set_local_style_prop(obj, LV_STYLE_SHADOW_SPREAD, v, selector);
 2706              		.loc 1 583 5 view .LVU507
 2707 0004 0A46     		mov	r2, r1
 2708              	.LVL289:
 2709              		.loc 1 583 5 is_stmt 0 view .LVU508
 2710 0006 40F64301 		movw	r1, #2115
 2711              	.LVL290:
 2712              		.loc 1 583 5 view .LVU509
 2713 000a FFF7FEFF 		bl	lv_obj_set_local_style_prop
 2714              	.LVL291:
 584:Middlewares/lvgl/src/core/lv_obj_style_gen.c **** }
 2715              		.loc 1 584 1 view .LVU510
 2716 000e 08BD     		pop	{r3, pc}
 2717              		.cfi_endproc
 2718              	.LFE219:
 2720              		.section	.text.lv_obj_set_style_shadow_color,"ax",%progbits
 2721              		.align	1
 2722              		.global	lv_obj_set_style_shadow_color
 2723              		.syntax unified
 2724              		.thumb
 2725              		.thumb_func
 2726              		.fpu fpv4-sp-d16
 2728              	lv_obj_set_style_shadow_color:
 2729              	.LVL292:
 2730              	.LFB220:
 585:Middlewares/lvgl/src/core/lv_obj_style_gen.c **** 
 586:Middlewares/lvgl/src/core/lv_obj_style_gen.c **** void lv_obj_set_style_shadow_color(struct _lv_obj_t * obj, lv_color_t value, lv_style_selector_t se
 587:Middlewares/lvgl/src/core/lv_obj_style_gen.c **** {
 2731              		.loc 1 587 1 is_stmt 1 view -0
 2732              		.cfi_startproc
 2733              		@ args = 0, pretend = 0, frame = 0
 2734              		@ frame_needed = 0, uses_anonymous_args = 0
 2735              		.loc 1 587 1 is_stmt 0 view .LVU512
 2736 0000 08B5     		push	{r3, lr}
 2737              	.LCFI73:
 2738              		.cfi_def_cfa_offset 8
 2739              		.cfi_offset 3, -8
 2740              		.cfi_offset 14, -4
 2741 0002 1346     		mov	r3, r2
 588:Middlewares/lvgl/src/core/lv_obj_style_gen.c ****     lv_style_value_t v = {
 2742              		.loc 1 588 5 is_stmt 1 view .LVU513
 589:Middlewares/lvgl/src/core/lv_obj_style_gen.c ****         .color = value
 590:Middlewares/lvgl/src/core/lv_obj_style_gen.c ****     };
 591:Middlewares/lvgl/src/core/lv_obj_style_gen.c ****     lv_obj_set_local_style_prop(obj, LV_STYLE_SHADOW_COLOR, v, selector);
 2743              		.loc 1 591 5 view .LVU514
 2744 0004 8AB2     		uxth	r2, r1
 2745              	.LVL293:
 2746              		.loc 1 591 5 is_stmt 0 view .LVU515
 2747 0006 4421     		movs	r1, #68
 2748              	.LVL294:
ARM GAS  /tmp/ccwFP5qn.s 			page 57


 2749              		.loc 1 591 5 view .LVU516
 2750 0008 FFF7FEFF 		bl	lv_obj_set_local_style_prop
 2751              	.LVL295:
 592:Middlewares/lvgl/src/core/lv_obj_style_gen.c **** }
 2752              		.loc 1 592 1 view .LVU517
 2753 000c 08BD     		pop	{r3, pc}
 2754              		.cfi_endproc
 2755              	.LFE220:
 2757              		.section	.text.lv_obj_set_style_shadow_color_filtered,"ax",%progbits
 2758              		.align	1
 2759              		.global	lv_obj_set_style_shadow_color_filtered
 2760              		.syntax unified
 2761              		.thumb
 2762              		.thumb_func
 2763              		.fpu fpv4-sp-d16
 2765              	lv_obj_set_style_shadow_color_filtered:
 2766              	.LVL296:
 2767              	.LFB221:
 593:Middlewares/lvgl/src/core/lv_obj_style_gen.c **** 
 594:Middlewares/lvgl/src/core/lv_obj_style_gen.c **** void lv_obj_set_style_shadow_color_filtered(struct _lv_obj_t * obj, lv_color_t value, lv_style_sele
 595:Middlewares/lvgl/src/core/lv_obj_style_gen.c **** {
 2768              		.loc 1 595 1 is_stmt 1 view -0
 2769              		.cfi_startproc
 2770              		@ args = 0, pretend = 0, frame = 0
 2771              		@ frame_needed = 0, uses_anonymous_args = 0
 2772              		.loc 1 595 1 is_stmt 0 view .LVU519
 2773 0000 08B5     		push	{r3, lr}
 2774              	.LCFI74:
 2775              		.cfi_def_cfa_offset 8
 2776              		.cfi_offset 3, -8
 2777              		.cfi_offset 14, -4
 2778 0002 1346     		mov	r3, r2
 596:Middlewares/lvgl/src/core/lv_obj_style_gen.c ****     lv_style_value_t v = {
 2779              		.loc 1 596 5 is_stmt 1 view .LVU520
 597:Middlewares/lvgl/src/core/lv_obj_style_gen.c ****         .color = value
 598:Middlewares/lvgl/src/core/lv_obj_style_gen.c ****     };
 599:Middlewares/lvgl/src/core/lv_obj_style_gen.c ****     lv_obj_set_local_style_prop(obj, LV_STYLE_SHADOW_COLOR_FILTERED, v, selector);
 2780              		.loc 1 599 5 view .LVU521
 2781 0004 8AB2     		uxth	r2, r1
 2782              	.LVL297:
 2783              		.loc 1 599 5 is_stmt 0 view .LVU522
 2784 0006 44F24401 		movw	r1, #16452
 2785              	.LVL298:
 2786              		.loc 1 599 5 view .LVU523
 2787 000a FFF7FEFF 		bl	lv_obj_set_local_style_prop
 2788              	.LVL299:
 600:Middlewares/lvgl/src/core/lv_obj_style_gen.c **** }
 2789              		.loc 1 600 1 view .LVU524
 2790 000e 08BD     		pop	{r3, pc}
 2791              		.cfi_endproc
 2792              	.LFE221:
 2794              		.section	.text.lv_obj_set_style_shadow_opa,"ax",%progbits
 2795              		.align	1
 2796              		.global	lv_obj_set_style_shadow_opa
 2797              		.syntax unified
 2798              		.thumb
 2799              		.thumb_func
ARM GAS  /tmp/ccwFP5qn.s 			page 58


 2800              		.fpu fpv4-sp-d16
 2802              	lv_obj_set_style_shadow_opa:
 2803              	.LVL300:
 2804              	.LFB222:
 601:Middlewares/lvgl/src/core/lv_obj_style_gen.c **** 
 602:Middlewares/lvgl/src/core/lv_obj_style_gen.c **** void lv_obj_set_style_shadow_opa(struct _lv_obj_t * obj, lv_opa_t value, lv_style_selector_t select
 603:Middlewares/lvgl/src/core/lv_obj_style_gen.c **** {
 2805              		.loc 1 603 1 is_stmt 1 view -0
 2806              		.cfi_startproc
 2807              		@ args = 0, pretend = 0, frame = 0
 2808              		@ frame_needed = 0, uses_anonymous_args = 0
 2809              		.loc 1 603 1 is_stmt 0 view .LVU526
 2810 0000 08B5     		push	{r3, lr}
 2811              	.LCFI75:
 2812              		.cfi_def_cfa_offset 8
 2813              		.cfi_offset 3, -8
 2814              		.cfi_offset 14, -4
 2815 0002 1346     		mov	r3, r2
 604:Middlewares/lvgl/src/core/lv_obj_style_gen.c ****     lv_style_value_t v = {
 2816              		.loc 1 604 5 is_stmt 1 view .LVU527
 605:Middlewares/lvgl/src/core/lv_obj_style_gen.c ****         .num = (int32_t)value
 606:Middlewares/lvgl/src/core/lv_obj_style_gen.c ****     };
 607:Middlewares/lvgl/src/core/lv_obj_style_gen.c ****     lv_obj_set_local_style_prop(obj, LV_STYLE_SHADOW_OPA, v, selector);
 2817              		.loc 1 607 5 view .LVU528
 2818 0004 0A46     		mov	r2, r1
 2819              	.LVL301:
 2820              		.loc 1 607 5 is_stmt 0 view .LVU529
 2821 0006 40F64501 		movw	r1, #2117
 2822              	.LVL302:
 2823              		.loc 1 607 5 view .LVU530
 2824 000a FFF7FEFF 		bl	lv_obj_set_local_style_prop
 2825              	.LVL303:
 608:Middlewares/lvgl/src/core/lv_obj_style_gen.c **** }
 2826              		.loc 1 608 1 view .LVU531
 2827 000e 08BD     		pop	{r3, pc}
 2828              		.cfi_endproc
 2829              	.LFE222:
 2831              		.section	.text.lv_obj_set_style_line_width,"ax",%progbits
 2832              		.align	1
 2833              		.global	lv_obj_set_style_line_width
 2834              		.syntax unified
 2835              		.thumb
 2836              		.thumb_func
 2837              		.fpu fpv4-sp-d16
 2839              	lv_obj_set_style_line_width:
 2840              	.LVL304:
 2841              	.LFB223:
 609:Middlewares/lvgl/src/core/lv_obj_style_gen.c **** 
 610:Middlewares/lvgl/src/core/lv_obj_style_gen.c **** void lv_obj_set_style_line_width(struct _lv_obj_t * obj, lv_coord_t value, lv_style_selector_t sele
 611:Middlewares/lvgl/src/core/lv_obj_style_gen.c **** {
 2842              		.loc 1 611 1 is_stmt 1 view -0
 2843              		.cfi_startproc
 2844              		@ args = 0, pretend = 0, frame = 0
 2845              		@ frame_needed = 0, uses_anonymous_args = 0
 2846              		.loc 1 611 1 is_stmt 0 view .LVU533
 2847 0000 08B5     		push	{r3, lr}
 2848              	.LCFI76:
ARM GAS  /tmp/ccwFP5qn.s 			page 59


 2849              		.cfi_def_cfa_offset 8
 2850              		.cfi_offset 3, -8
 2851              		.cfi_offset 14, -4
 2852 0002 1346     		mov	r3, r2
 612:Middlewares/lvgl/src/core/lv_obj_style_gen.c ****     lv_style_value_t v = {
 2853              		.loc 1 612 5 is_stmt 1 view .LVU534
 613:Middlewares/lvgl/src/core/lv_obj_style_gen.c ****         .num = (int32_t)value
 614:Middlewares/lvgl/src/core/lv_obj_style_gen.c ****     };
 615:Middlewares/lvgl/src/core/lv_obj_style_gen.c ****     lv_obj_set_local_style_prop(obj, LV_STYLE_LINE_WIDTH, v, selector);
 2854              		.loc 1 615 5 view .LVU535
 2855 0004 0A46     		mov	r2, r1
 2856              	.LVL305:
 2857              		.loc 1 615 5 is_stmt 0 view .LVU536
 2858 0006 40F64901 		movw	r1, #2121
 2859              	.LVL306:
 2860              		.loc 1 615 5 view .LVU537
 2861 000a FFF7FEFF 		bl	lv_obj_set_local_style_prop
 2862              	.LVL307:
 616:Middlewares/lvgl/src/core/lv_obj_style_gen.c **** }
 2863              		.loc 1 616 1 view .LVU538
 2864 000e 08BD     		pop	{r3, pc}
 2865              		.cfi_endproc
 2866              	.LFE223:
 2868              		.section	.text.lv_obj_set_style_line_dash_width,"ax",%progbits
 2869              		.align	1
 2870              		.global	lv_obj_set_style_line_dash_width
 2871              		.syntax unified
 2872              		.thumb
 2873              		.thumb_func
 2874              		.fpu fpv4-sp-d16
 2876              	lv_obj_set_style_line_dash_width:
 2877              	.LVL308:
 2878              	.LFB224:
 617:Middlewares/lvgl/src/core/lv_obj_style_gen.c **** 
 618:Middlewares/lvgl/src/core/lv_obj_style_gen.c **** void lv_obj_set_style_line_dash_width(struct _lv_obj_t * obj, lv_coord_t value, lv_style_selector_t
 619:Middlewares/lvgl/src/core/lv_obj_style_gen.c **** {
 2879              		.loc 1 619 1 is_stmt 1 view -0
 2880              		.cfi_startproc
 2881              		@ args = 0, pretend = 0, frame = 0
 2882              		@ frame_needed = 0, uses_anonymous_args = 0
 2883              		.loc 1 619 1 is_stmt 0 view .LVU540
 2884 0000 08B5     		push	{r3, lr}
 2885              	.LCFI77:
 2886              		.cfi_def_cfa_offset 8
 2887              		.cfi_offset 3, -8
 2888              		.cfi_offset 14, -4
 2889 0002 1346     		mov	r3, r2
 620:Middlewares/lvgl/src/core/lv_obj_style_gen.c ****     lv_style_value_t v = {
 2890              		.loc 1 620 5 is_stmt 1 view .LVU541
 621:Middlewares/lvgl/src/core/lv_obj_style_gen.c ****         .num = (int32_t)value
 622:Middlewares/lvgl/src/core/lv_obj_style_gen.c ****     };
 623:Middlewares/lvgl/src/core/lv_obj_style_gen.c ****     lv_obj_set_local_style_prop(obj, LV_STYLE_LINE_DASH_WIDTH, v, selector);
 2891              		.loc 1 623 5 view .LVU542
 2892 0004 0A46     		mov	r2, r1
 2893              	.LVL309:
 2894              		.loc 1 623 5 is_stmt 0 view .LVU543
 2895 0006 4A21     		movs	r1, #74
ARM GAS  /tmp/ccwFP5qn.s 			page 60


 2896              	.LVL310:
 2897              		.loc 1 623 5 view .LVU544
 2898 0008 FFF7FEFF 		bl	lv_obj_set_local_style_prop
 2899              	.LVL311:
 624:Middlewares/lvgl/src/core/lv_obj_style_gen.c **** }
 2900              		.loc 1 624 1 view .LVU545
 2901 000c 08BD     		pop	{r3, pc}
 2902              		.cfi_endproc
 2903              	.LFE224:
 2905              		.section	.text.lv_obj_set_style_line_dash_gap,"ax",%progbits
 2906              		.align	1
 2907              		.global	lv_obj_set_style_line_dash_gap
 2908              		.syntax unified
 2909              		.thumb
 2910              		.thumb_func
 2911              		.fpu fpv4-sp-d16
 2913              	lv_obj_set_style_line_dash_gap:
 2914              	.LVL312:
 2915              	.LFB225:
 625:Middlewares/lvgl/src/core/lv_obj_style_gen.c **** 
 626:Middlewares/lvgl/src/core/lv_obj_style_gen.c **** void lv_obj_set_style_line_dash_gap(struct _lv_obj_t * obj, lv_coord_t value, lv_style_selector_t s
 627:Middlewares/lvgl/src/core/lv_obj_style_gen.c **** {
 2916              		.loc 1 627 1 is_stmt 1 view -0
 2917              		.cfi_startproc
 2918              		@ args = 0, pretend = 0, frame = 0
 2919              		@ frame_needed = 0, uses_anonymous_args = 0
 2920              		.loc 1 627 1 is_stmt 0 view .LVU547
 2921 0000 08B5     		push	{r3, lr}
 2922              	.LCFI78:
 2923              		.cfi_def_cfa_offset 8
 2924              		.cfi_offset 3, -8
 2925              		.cfi_offset 14, -4
 2926 0002 1346     		mov	r3, r2
 628:Middlewares/lvgl/src/core/lv_obj_style_gen.c ****     lv_style_value_t v = {
 2927              		.loc 1 628 5 is_stmt 1 view .LVU548
 629:Middlewares/lvgl/src/core/lv_obj_style_gen.c ****         .num = (int32_t)value
 630:Middlewares/lvgl/src/core/lv_obj_style_gen.c ****     };
 631:Middlewares/lvgl/src/core/lv_obj_style_gen.c ****     lv_obj_set_local_style_prop(obj, LV_STYLE_LINE_DASH_GAP, v, selector);
 2928              		.loc 1 631 5 view .LVU549
 2929 0004 0A46     		mov	r2, r1
 2930              	.LVL313:
 2931              		.loc 1 631 5 is_stmt 0 view .LVU550
 2932 0006 4B21     		movs	r1, #75
 2933              	.LVL314:
 2934              		.loc 1 631 5 view .LVU551
 2935 0008 FFF7FEFF 		bl	lv_obj_set_local_style_prop
 2936              	.LVL315:
 632:Middlewares/lvgl/src/core/lv_obj_style_gen.c **** }
 2937              		.loc 1 632 1 view .LVU552
 2938 000c 08BD     		pop	{r3, pc}
 2939              		.cfi_endproc
 2940              	.LFE225:
 2942              		.section	.text.lv_obj_set_style_line_rounded,"ax",%progbits
 2943              		.align	1
 2944              		.global	lv_obj_set_style_line_rounded
 2945              		.syntax unified
 2946              		.thumb
ARM GAS  /tmp/ccwFP5qn.s 			page 61


 2947              		.thumb_func
 2948              		.fpu fpv4-sp-d16
 2950              	lv_obj_set_style_line_rounded:
 2951              	.LVL316:
 2952              	.LFB226:
 633:Middlewares/lvgl/src/core/lv_obj_style_gen.c **** 
 634:Middlewares/lvgl/src/core/lv_obj_style_gen.c **** void lv_obj_set_style_line_rounded(struct _lv_obj_t * obj, lv_coord_t value, lv_style_selector_t se
 635:Middlewares/lvgl/src/core/lv_obj_style_gen.c **** {
 2953              		.loc 1 635 1 is_stmt 1 view -0
 2954              		.cfi_startproc
 2955              		@ args = 0, pretend = 0, frame = 0
 2956              		@ frame_needed = 0, uses_anonymous_args = 0
 2957              		.loc 1 635 1 is_stmt 0 view .LVU554
 2958 0000 08B5     		push	{r3, lr}
 2959              	.LCFI79:
 2960              		.cfi_def_cfa_offset 8
 2961              		.cfi_offset 3, -8
 2962              		.cfi_offset 14, -4
 2963 0002 1346     		mov	r3, r2
 636:Middlewares/lvgl/src/core/lv_obj_style_gen.c ****     lv_style_value_t v = {
 2964              		.loc 1 636 5 is_stmt 1 view .LVU555
 637:Middlewares/lvgl/src/core/lv_obj_style_gen.c ****         .num = (int32_t)value
 638:Middlewares/lvgl/src/core/lv_obj_style_gen.c ****     };
 639:Middlewares/lvgl/src/core/lv_obj_style_gen.c ****     lv_obj_set_local_style_prop(obj, LV_STYLE_LINE_ROUNDED, v, selector);
 2965              		.loc 1 639 5 view .LVU556
 2966 0004 0A46     		mov	r2, r1
 2967              	.LVL317:
 2968              		.loc 1 639 5 is_stmt 0 view .LVU557
 2969 0006 4C21     		movs	r1, #76
 2970              	.LVL318:
 2971              		.loc 1 639 5 view .LVU558
 2972 0008 FFF7FEFF 		bl	lv_obj_set_local_style_prop
 2973              	.LVL319:
 640:Middlewares/lvgl/src/core/lv_obj_style_gen.c **** }
 2974              		.loc 1 640 1 view .LVU559
 2975 000c 08BD     		pop	{r3, pc}
 2976              		.cfi_endproc
 2977              	.LFE226:
 2979              		.section	.text.lv_obj_set_style_line_color,"ax",%progbits
 2980              		.align	1
 2981              		.global	lv_obj_set_style_line_color
 2982              		.syntax unified
 2983              		.thumb
 2984              		.thumb_func
 2985              		.fpu fpv4-sp-d16
 2987              	lv_obj_set_style_line_color:
 2988              	.LVL320:
 2989              	.LFB227:
 641:Middlewares/lvgl/src/core/lv_obj_style_gen.c **** 
 642:Middlewares/lvgl/src/core/lv_obj_style_gen.c **** void lv_obj_set_style_line_color(struct _lv_obj_t * obj, lv_color_t value, lv_style_selector_t sele
 643:Middlewares/lvgl/src/core/lv_obj_style_gen.c **** {
 2990              		.loc 1 643 1 is_stmt 1 view -0
 2991              		.cfi_startproc
 2992              		@ args = 0, pretend = 0, frame = 0
 2993              		@ frame_needed = 0, uses_anonymous_args = 0
 2994              		.loc 1 643 1 is_stmt 0 view .LVU561
 2995 0000 08B5     		push	{r3, lr}
ARM GAS  /tmp/ccwFP5qn.s 			page 62


 2996              	.LCFI80:
 2997              		.cfi_def_cfa_offset 8
 2998              		.cfi_offset 3, -8
 2999              		.cfi_offset 14, -4
 3000 0002 1346     		mov	r3, r2
 644:Middlewares/lvgl/src/core/lv_obj_style_gen.c ****     lv_style_value_t v = {
 3001              		.loc 1 644 5 is_stmt 1 view .LVU562
 645:Middlewares/lvgl/src/core/lv_obj_style_gen.c ****         .color = value
 646:Middlewares/lvgl/src/core/lv_obj_style_gen.c ****     };
 647:Middlewares/lvgl/src/core/lv_obj_style_gen.c ****     lv_obj_set_local_style_prop(obj, LV_STYLE_LINE_COLOR, v, selector);
 3002              		.loc 1 647 5 view .LVU563
 3003 0004 8AB2     		uxth	r2, r1
 3004              	.LVL321:
 3005              		.loc 1 647 5 is_stmt 0 view .LVU564
 3006 0006 4D21     		movs	r1, #77
 3007              	.LVL322:
 3008              		.loc 1 647 5 view .LVU565
 3009 0008 FFF7FEFF 		bl	lv_obj_set_local_style_prop
 3010              	.LVL323:
 648:Middlewares/lvgl/src/core/lv_obj_style_gen.c **** }
 3011              		.loc 1 648 1 view .LVU566
 3012 000c 08BD     		pop	{r3, pc}
 3013              		.cfi_endproc
 3014              	.LFE227:
 3016              		.section	.text.lv_obj_set_style_line_color_filtered,"ax",%progbits
 3017              		.align	1
 3018              		.global	lv_obj_set_style_line_color_filtered
 3019              		.syntax unified
 3020              		.thumb
 3021              		.thumb_func
 3022              		.fpu fpv4-sp-d16
 3024              	lv_obj_set_style_line_color_filtered:
 3025              	.LVL324:
 3026              	.LFB228:
 649:Middlewares/lvgl/src/core/lv_obj_style_gen.c **** 
 650:Middlewares/lvgl/src/core/lv_obj_style_gen.c **** void lv_obj_set_style_line_color_filtered(struct _lv_obj_t * obj, lv_color_t value, lv_style_select
 651:Middlewares/lvgl/src/core/lv_obj_style_gen.c **** {
 3027              		.loc 1 651 1 is_stmt 1 view -0
 3028              		.cfi_startproc
 3029              		@ args = 0, pretend = 0, frame = 0
 3030              		@ frame_needed = 0, uses_anonymous_args = 0
 3031              		.loc 1 651 1 is_stmt 0 view .LVU568
 3032 0000 08B5     		push	{r3, lr}
 3033              	.LCFI81:
 3034              		.cfi_def_cfa_offset 8
 3035              		.cfi_offset 3, -8
 3036              		.cfi_offset 14, -4
 3037 0002 1346     		mov	r3, r2
 652:Middlewares/lvgl/src/core/lv_obj_style_gen.c ****     lv_style_value_t v = {
 3038              		.loc 1 652 5 is_stmt 1 view .LVU569
 653:Middlewares/lvgl/src/core/lv_obj_style_gen.c ****         .color = value
 654:Middlewares/lvgl/src/core/lv_obj_style_gen.c ****     };
 655:Middlewares/lvgl/src/core/lv_obj_style_gen.c ****     lv_obj_set_local_style_prop(obj, LV_STYLE_LINE_COLOR_FILTERED, v, selector);
 3039              		.loc 1 655 5 view .LVU570
 3040 0004 8AB2     		uxth	r2, r1
 3041              	.LVL325:
 3042              		.loc 1 655 5 is_stmt 0 view .LVU571
ARM GAS  /tmp/ccwFP5qn.s 			page 63


 3043 0006 44F24D01 		movw	r1, #16461
 3044              	.LVL326:
 3045              		.loc 1 655 5 view .LVU572
 3046 000a FFF7FEFF 		bl	lv_obj_set_local_style_prop
 3047              	.LVL327:
 656:Middlewares/lvgl/src/core/lv_obj_style_gen.c **** }
 3048              		.loc 1 656 1 view .LVU573
 3049 000e 08BD     		pop	{r3, pc}
 3050              		.cfi_endproc
 3051              	.LFE228:
 3053              		.section	.text.lv_obj_set_style_line_opa,"ax",%progbits
 3054              		.align	1
 3055              		.global	lv_obj_set_style_line_opa
 3056              		.syntax unified
 3057              		.thumb
 3058              		.thumb_func
 3059              		.fpu fpv4-sp-d16
 3061              	lv_obj_set_style_line_opa:
 3062              	.LVL328:
 3063              	.LFB229:
 657:Middlewares/lvgl/src/core/lv_obj_style_gen.c **** 
 658:Middlewares/lvgl/src/core/lv_obj_style_gen.c **** void lv_obj_set_style_line_opa(struct _lv_obj_t * obj, lv_opa_t value, lv_style_selector_t selector
 659:Middlewares/lvgl/src/core/lv_obj_style_gen.c **** {
 3064              		.loc 1 659 1 is_stmt 1 view -0
 3065              		.cfi_startproc
 3066              		@ args = 0, pretend = 0, frame = 0
 3067              		@ frame_needed = 0, uses_anonymous_args = 0
 3068              		.loc 1 659 1 is_stmt 0 view .LVU575
 3069 0000 08B5     		push	{r3, lr}
 3070              	.LCFI82:
 3071              		.cfi_def_cfa_offset 8
 3072              		.cfi_offset 3, -8
 3073              		.cfi_offset 14, -4
 3074 0002 1346     		mov	r3, r2
 660:Middlewares/lvgl/src/core/lv_obj_style_gen.c ****     lv_style_value_t v = {
 3075              		.loc 1 660 5 is_stmt 1 view .LVU576
 661:Middlewares/lvgl/src/core/lv_obj_style_gen.c ****         .num = (int32_t)value
 662:Middlewares/lvgl/src/core/lv_obj_style_gen.c ****     };
 663:Middlewares/lvgl/src/core/lv_obj_style_gen.c ****     lv_obj_set_local_style_prop(obj, LV_STYLE_LINE_OPA, v, selector);
 3076              		.loc 1 663 5 view .LVU577
 3077 0004 0A46     		mov	r2, r1
 3078              	.LVL329:
 3079              		.loc 1 663 5 is_stmt 0 view .LVU578
 3080 0006 4E21     		movs	r1, #78
 3081              	.LVL330:
 3082              		.loc 1 663 5 view .LVU579
 3083 0008 FFF7FEFF 		bl	lv_obj_set_local_style_prop
 3084              	.LVL331:
 664:Middlewares/lvgl/src/core/lv_obj_style_gen.c **** }
 3085              		.loc 1 664 1 view .LVU580
 3086 000c 08BD     		pop	{r3, pc}
 3087              		.cfi_endproc
 3088              	.LFE229:
 3090              		.section	.text.lv_obj_set_style_arc_width,"ax",%progbits
 3091              		.align	1
 3092              		.global	lv_obj_set_style_arc_width
 3093              		.syntax unified
ARM GAS  /tmp/ccwFP5qn.s 			page 64


 3094              		.thumb
 3095              		.thumb_func
 3096              		.fpu fpv4-sp-d16
 3098              	lv_obj_set_style_arc_width:
 3099              	.LVL332:
 3100              	.LFB230:
 665:Middlewares/lvgl/src/core/lv_obj_style_gen.c **** 
 666:Middlewares/lvgl/src/core/lv_obj_style_gen.c **** void lv_obj_set_style_arc_width(struct _lv_obj_t * obj, lv_coord_t value, lv_style_selector_t selec
 667:Middlewares/lvgl/src/core/lv_obj_style_gen.c **** {
 3101              		.loc 1 667 1 is_stmt 1 view -0
 3102              		.cfi_startproc
 3103              		@ args = 0, pretend = 0, frame = 0
 3104              		@ frame_needed = 0, uses_anonymous_args = 0
 3105              		.loc 1 667 1 is_stmt 0 view .LVU582
 3106 0000 08B5     		push	{r3, lr}
 3107              	.LCFI83:
 3108              		.cfi_def_cfa_offset 8
 3109              		.cfi_offset 3, -8
 3110              		.cfi_offset 14, -4
 3111 0002 1346     		mov	r3, r2
 668:Middlewares/lvgl/src/core/lv_obj_style_gen.c ****     lv_style_value_t v = {
 3112              		.loc 1 668 5 is_stmt 1 view .LVU583
 669:Middlewares/lvgl/src/core/lv_obj_style_gen.c ****         .num = (int32_t)value
 670:Middlewares/lvgl/src/core/lv_obj_style_gen.c ****     };
 671:Middlewares/lvgl/src/core/lv_obj_style_gen.c ****     lv_obj_set_local_style_prop(obj, LV_STYLE_ARC_WIDTH, v, selector);
 3113              		.loc 1 671 5 view .LVU584
 3114 0004 0A46     		mov	r2, r1
 3115              	.LVL333:
 3116              		.loc 1 671 5 is_stmt 0 view .LVU585
 3117 0006 4FF40561 		mov	r1, #2128
 3118              	.LVL334:
 3119              		.loc 1 671 5 view .LVU586
 3120 000a FFF7FEFF 		bl	lv_obj_set_local_style_prop
 3121              	.LVL335:
 672:Middlewares/lvgl/src/core/lv_obj_style_gen.c **** }
 3122              		.loc 1 672 1 view .LVU587
 3123 000e 08BD     		pop	{r3, pc}
 3124              		.cfi_endproc
 3125              	.LFE230:
 3127              		.section	.text.lv_obj_set_style_arc_rounded,"ax",%progbits
 3128              		.align	1
 3129              		.global	lv_obj_set_style_arc_rounded
 3130              		.syntax unified
 3131              		.thumb
 3132              		.thumb_func
 3133              		.fpu fpv4-sp-d16
 3135              	lv_obj_set_style_arc_rounded:
 3136              	.LVL336:
 3137              	.LFB231:
 673:Middlewares/lvgl/src/core/lv_obj_style_gen.c **** 
 674:Middlewares/lvgl/src/core/lv_obj_style_gen.c **** void lv_obj_set_style_arc_rounded(struct _lv_obj_t * obj, lv_coord_t value, lv_style_selector_t sel
 675:Middlewares/lvgl/src/core/lv_obj_style_gen.c **** {
 3138              		.loc 1 675 1 is_stmt 1 view -0
 3139              		.cfi_startproc
 3140              		@ args = 0, pretend = 0, frame = 0
 3141              		@ frame_needed = 0, uses_anonymous_args = 0
 3142              		.loc 1 675 1 is_stmt 0 view .LVU589
ARM GAS  /tmp/ccwFP5qn.s 			page 65


 3143 0000 08B5     		push	{r3, lr}
 3144              	.LCFI84:
 3145              		.cfi_def_cfa_offset 8
 3146              		.cfi_offset 3, -8
 3147              		.cfi_offset 14, -4
 3148 0002 1346     		mov	r3, r2
 676:Middlewares/lvgl/src/core/lv_obj_style_gen.c ****     lv_style_value_t v = {
 3149              		.loc 1 676 5 is_stmt 1 view .LVU590
 677:Middlewares/lvgl/src/core/lv_obj_style_gen.c ****         .num = (int32_t)value
 678:Middlewares/lvgl/src/core/lv_obj_style_gen.c ****     };
 679:Middlewares/lvgl/src/core/lv_obj_style_gen.c ****     lv_obj_set_local_style_prop(obj, LV_STYLE_ARC_ROUNDED, v, selector);
 3150              		.loc 1 679 5 view .LVU591
 3151 0004 0A46     		mov	r2, r1
 3152              	.LVL337:
 3153              		.loc 1 679 5 is_stmt 0 view .LVU592
 3154 0006 5121     		movs	r1, #81
 3155              	.LVL338:
 3156              		.loc 1 679 5 view .LVU593
 3157 0008 FFF7FEFF 		bl	lv_obj_set_local_style_prop
 3158              	.LVL339:
 680:Middlewares/lvgl/src/core/lv_obj_style_gen.c **** }
 3159              		.loc 1 680 1 view .LVU594
 3160 000c 08BD     		pop	{r3, pc}
 3161              		.cfi_endproc
 3162              	.LFE231:
 3164              		.section	.text.lv_obj_set_style_arc_color,"ax",%progbits
 3165              		.align	1
 3166              		.global	lv_obj_set_style_arc_color
 3167              		.syntax unified
 3168              		.thumb
 3169              		.thumb_func
 3170              		.fpu fpv4-sp-d16
 3172              	lv_obj_set_style_arc_color:
 3173              	.LVL340:
 3174              	.LFB232:
 681:Middlewares/lvgl/src/core/lv_obj_style_gen.c **** 
 682:Middlewares/lvgl/src/core/lv_obj_style_gen.c **** void lv_obj_set_style_arc_color(struct _lv_obj_t * obj, lv_color_t value, lv_style_selector_t selec
 683:Middlewares/lvgl/src/core/lv_obj_style_gen.c **** {
 3175              		.loc 1 683 1 is_stmt 1 view -0
 3176              		.cfi_startproc
 3177              		@ args = 0, pretend = 0, frame = 0
 3178              		@ frame_needed = 0, uses_anonymous_args = 0
 3179              		.loc 1 683 1 is_stmt 0 view .LVU596
 3180 0000 08B5     		push	{r3, lr}
 3181              	.LCFI85:
 3182              		.cfi_def_cfa_offset 8
 3183              		.cfi_offset 3, -8
 3184              		.cfi_offset 14, -4
 3185 0002 1346     		mov	r3, r2
 684:Middlewares/lvgl/src/core/lv_obj_style_gen.c ****     lv_style_value_t v = {
 3186              		.loc 1 684 5 is_stmt 1 view .LVU597
 685:Middlewares/lvgl/src/core/lv_obj_style_gen.c ****         .color = value
 686:Middlewares/lvgl/src/core/lv_obj_style_gen.c ****     };
 687:Middlewares/lvgl/src/core/lv_obj_style_gen.c ****     lv_obj_set_local_style_prop(obj, LV_STYLE_ARC_COLOR, v, selector);
 3187              		.loc 1 687 5 view .LVU598
 3188 0004 8AB2     		uxth	r2, r1
 3189              	.LVL341:
ARM GAS  /tmp/ccwFP5qn.s 			page 66


 3190              		.loc 1 687 5 is_stmt 0 view .LVU599
 3191 0006 5221     		movs	r1, #82
 3192              	.LVL342:
 3193              		.loc 1 687 5 view .LVU600
 3194 0008 FFF7FEFF 		bl	lv_obj_set_local_style_prop
 3195              	.LVL343:
 688:Middlewares/lvgl/src/core/lv_obj_style_gen.c **** }
 3196              		.loc 1 688 1 view .LVU601
 3197 000c 08BD     		pop	{r3, pc}
 3198              		.cfi_endproc
 3199              	.LFE232:
 3201              		.section	.text.lv_obj_set_style_arc_color_filtered,"ax",%progbits
 3202              		.align	1
 3203              		.global	lv_obj_set_style_arc_color_filtered
 3204              		.syntax unified
 3205              		.thumb
 3206              		.thumb_func
 3207              		.fpu fpv4-sp-d16
 3209              	lv_obj_set_style_arc_color_filtered:
 3210              	.LVL344:
 3211              	.LFB233:
 689:Middlewares/lvgl/src/core/lv_obj_style_gen.c **** 
 690:Middlewares/lvgl/src/core/lv_obj_style_gen.c **** void lv_obj_set_style_arc_color_filtered(struct _lv_obj_t * obj, lv_color_t value, lv_style_selecto
 691:Middlewares/lvgl/src/core/lv_obj_style_gen.c **** {
 3212              		.loc 1 691 1 is_stmt 1 view -0
 3213              		.cfi_startproc
 3214              		@ args = 0, pretend = 0, frame = 0
 3215              		@ frame_needed = 0, uses_anonymous_args = 0
 3216              		.loc 1 691 1 is_stmt 0 view .LVU603
 3217 0000 08B5     		push	{r3, lr}
 3218              	.LCFI86:
 3219              		.cfi_def_cfa_offset 8
 3220              		.cfi_offset 3, -8
 3221              		.cfi_offset 14, -4
 3222 0002 1346     		mov	r3, r2
 692:Middlewares/lvgl/src/core/lv_obj_style_gen.c ****     lv_style_value_t v = {
 3223              		.loc 1 692 5 is_stmt 1 view .LVU604
 693:Middlewares/lvgl/src/core/lv_obj_style_gen.c ****         .color = value
 694:Middlewares/lvgl/src/core/lv_obj_style_gen.c ****     };
 695:Middlewares/lvgl/src/core/lv_obj_style_gen.c ****     lv_obj_set_local_style_prop(obj, LV_STYLE_ARC_COLOR_FILTERED, v, selector);
 3224              		.loc 1 695 5 view .LVU605
 3225 0004 8AB2     		uxth	r2, r1
 3226              	.LVL345:
 3227              		.loc 1 695 5 is_stmt 0 view .LVU606
 3228 0006 44F25201 		movw	r1, #16466
 3229              	.LVL346:
 3230              		.loc 1 695 5 view .LVU607
 3231 000a FFF7FEFF 		bl	lv_obj_set_local_style_prop
 3232              	.LVL347:
 696:Middlewares/lvgl/src/core/lv_obj_style_gen.c **** }
 3233              		.loc 1 696 1 view .LVU608
 3234 000e 08BD     		pop	{r3, pc}
 3235              		.cfi_endproc
 3236              	.LFE233:
 3238              		.section	.text.lv_obj_set_style_arc_opa,"ax",%progbits
 3239              		.align	1
 3240              		.global	lv_obj_set_style_arc_opa
ARM GAS  /tmp/ccwFP5qn.s 			page 67


 3241              		.syntax unified
 3242              		.thumb
 3243              		.thumb_func
 3244              		.fpu fpv4-sp-d16
 3246              	lv_obj_set_style_arc_opa:
 3247              	.LVL348:
 3248              	.LFB234:
 697:Middlewares/lvgl/src/core/lv_obj_style_gen.c **** 
 698:Middlewares/lvgl/src/core/lv_obj_style_gen.c **** void lv_obj_set_style_arc_opa(struct _lv_obj_t * obj, lv_opa_t value, lv_style_selector_t selector)
 699:Middlewares/lvgl/src/core/lv_obj_style_gen.c **** {
 3249              		.loc 1 699 1 is_stmt 1 view -0
 3250              		.cfi_startproc
 3251              		@ args = 0, pretend = 0, frame = 0
 3252              		@ frame_needed = 0, uses_anonymous_args = 0
 3253              		.loc 1 699 1 is_stmt 0 view .LVU610
 3254 0000 08B5     		push	{r3, lr}
 3255              	.LCFI87:
 3256              		.cfi_def_cfa_offset 8
 3257              		.cfi_offset 3, -8
 3258              		.cfi_offset 14, -4
 3259 0002 1346     		mov	r3, r2
 700:Middlewares/lvgl/src/core/lv_obj_style_gen.c ****     lv_style_value_t v = {
 3260              		.loc 1 700 5 is_stmt 1 view .LVU611
 701:Middlewares/lvgl/src/core/lv_obj_style_gen.c ****         .num = (int32_t)value
 702:Middlewares/lvgl/src/core/lv_obj_style_gen.c ****     };
 703:Middlewares/lvgl/src/core/lv_obj_style_gen.c ****     lv_obj_set_local_style_prop(obj, LV_STYLE_ARC_OPA, v, selector);
 3261              		.loc 1 703 5 view .LVU612
 3262 0004 0A46     		mov	r2, r1
 3263              	.LVL349:
 3264              		.loc 1 703 5 is_stmt 0 view .LVU613
 3265 0006 5321     		movs	r1, #83
 3266              	.LVL350:
 3267              		.loc 1 703 5 view .LVU614
 3268 0008 FFF7FEFF 		bl	lv_obj_set_local_style_prop
 3269              	.LVL351:
 704:Middlewares/lvgl/src/core/lv_obj_style_gen.c **** }
 3270              		.loc 1 704 1 view .LVU615
 3271 000c 08BD     		pop	{r3, pc}
 3272              		.cfi_endproc
 3273              	.LFE234:
 3275              		.section	.text.lv_obj_set_style_arc_img_src,"ax",%progbits
 3276              		.align	1
 3277              		.global	lv_obj_set_style_arc_img_src
 3278              		.syntax unified
 3279              		.thumb
 3280              		.thumb_func
 3281              		.fpu fpv4-sp-d16
 3283              	lv_obj_set_style_arc_img_src:
 3284              	.LVL352:
 3285              	.LFB235:
 705:Middlewares/lvgl/src/core/lv_obj_style_gen.c **** 
 706:Middlewares/lvgl/src/core/lv_obj_style_gen.c **** void lv_obj_set_style_arc_img_src(struct _lv_obj_t * obj, const void * value, lv_style_selector_t s
 707:Middlewares/lvgl/src/core/lv_obj_style_gen.c **** {
 3286              		.loc 1 707 1 is_stmt 1 view -0
 3287              		.cfi_startproc
 3288              		@ args = 0, pretend = 0, frame = 0
 3289              		@ frame_needed = 0, uses_anonymous_args = 0
ARM GAS  /tmp/ccwFP5qn.s 			page 68


 3290              		.loc 1 707 1 is_stmt 0 view .LVU617
 3291 0000 08B5     		push	{r3, lr}
 3292              	.LCFI88:
 3293              		.cfi_def_cfa_offset 8
 3294              		.cfi_offset 3, -8
 3295              		.cfi_offset 14, -4
 3296 0002 1346     		mov	r3, r2
 708:Middlewares/lvgl/src/core/lv_obj_style_gen.c ****     lv_style_value_t v = {
 3297              		.loc 1 708 5 is_stmt 1 view .LVU618
 709:Middlewares/lvgl/src/core/lv_obj_style_gen.c ****         .ptr = value
 710:Middlewares/lvgl/src/core/lv_obj_style_gen.c ****     };
 711:Middlewares/lvgl/src/core/lv_obj_style_gen.c ****     lv_obj_set_local_style_prop(obj, LV_STYLE_ARC_IMG_SRC, v, selector);
 3298              		.loc 1 711 5 view .LVU619
 3299 0004 0A46     		mov	r2, r1
 3300              	.LVL353:
 3301              		.loc 1 711 5 is_stmt 0 view .LVU620
 3302 0006 5421     		movs	r1, #84
 3303              	.LVL354:
 3304              		.loc 1 711 5 view .LVU621
 3305 0008 FFF7FEFF 		bl	lv_obj_set_local_style_prop
 3306              	.LVL355:
 712:Middlewares/lvgl/src/core/lv_obj_style_gen.c **** }
 3307              		.loc 1 712 1 view .LVU622
 3308 000c 08BD     		pop	{r3, pc}
 3309              		.cfi_endproc
 3310              	.LFE235:
 3312              		.text
 3313              	.Letext0:
 3314              		.file 2 "/home/akinya/gcc-arm-none-eabi/arm-none-eabi/include/machine/_default_types.h"
 3315              		.file 3 "/home/akinya/gcc-arm-none-eabi/arm-none-eabi/include/sys/_stdint.h"
 3316              		.file 4 "Middlewares/lvgl/src/core/../misc/../font/../misc/lv_area.h"
 3317              		.file 5 "Middlewares/lvgl/src/core/../misc/../font/lv_font.h"
 3318              		.file 6 "Middlewares/lvgl/src/core/../misc/lv_color.h"
 3319              		.file 7 "Middlewares/lvgl/src/core/../misc/lv_anim.h"
 3320              		.file 8 "Middlewares/lvgl/src/core/../misc/lv_txt.h"
 3321              		.file 9 "Middlewares/lvgl/src/core/../misc/lv_bidi.h"
 3322              		.file 10 "Middlewares/lvgl/src/core/../misc/lv_style.h"
 3323              		.file 11 "Middlewares/lvgl/src/core/../hal/../misc/lv_ll.h"
 3324              		.file 12 "Middlewares/lvgl/src/core/lv_obj.h"
 3325              		.file 13 "Middlewares/lvgl/src/core/lv_group.h"
 3326              		.file 14 "Middlewares/lvgl/src/core/lv_obj_scroll.h"
 3327              		.file 15 "Middlewares/lvgl/src/core/lv_obj_style.h"
 3328              		.file 16 "Middlewares/lvgl/src/core/lv_obj_class.h"
 3329              		.file 17 "Middlewares/lvgl/src/core/lv_event.h"
ARM GAS  /tmp/ccwFP5qn.s 			page 69

