ARM GAS  /tmp/cc3htL3m.s 			page 1


   1              		.cpu cortex-m4
   2              		.eabi_attribute 27, 1
   3              		.eabi_attribute 28, 1
   4              		.eabi_attribute 20, 1
   5              		.eabi_attribute 21, 1
   6              		.eabi_attribute 23, 3
   7              		.eabi_attribute 24, 1
   8              		.eabi_attribute 25, 1
   9              		.eabi_attribute 26, 1
  10              		.eabi_attribute 30, 1
  11              		.eabi_attribute 34, 1
  12              		.eabi_attribute 18, 4
  13              		.file	"lv_slider.c"
  14              		.text
  15              	.Ltext0:
  16              		.cfi_sections	.debug_frame
  17              		.section	.text.position_knob,"ax",%progbits
  18              		.align	1
  19              		.arch armv7e-m
  20              		.syntax unified
  21              		.thumb
  22              		.thumb_func
  23              		.fpu fpv4-sp-d16
  25              	position_knob:
  26              	.LVL0:
  27              	.LFB167:
  28              		.file 1 "Middlewares/lvgl/src/widgets/lv_slider.c"
   1:Middlewares/lvgl/src/widgets/lv_slider.c **** /**
   2:Middlewares/lvgl/src/widgets/lv_slider.c ****  * @file lv_slider.c
   3:Middlewares/lvgl/src/widgets/lv_slider.c ****  *
   4:Middlewares/lvgl/src/widgets/lv_slider.c ****  */
   5:Middlewares/lvgl/src/widgets/lv_slider.c **** 
   6:Middlewares/lvgl/src/widgets/lv_slider.c **** /*********************
   7:Middlewares/lvgl/src/widgets/lv_slider.c ****  *      INCLUDES
   8:Middlewares/lvgl/src/widgets/lv_slider.c ****  *********************/
   9:Middlewares/lvgl/src/widgets/lv_slider.c **** #include "lv_slider.h"
  10:Middlewares/lvgl/src/widgets/lv_slider.c **** #if LV_USE_SLIDER != 0
  11:Middlewares/lvgl/src/widgets/lv_slider.c **** 
  12:Middlewares/lvgl/src/widgets/lv_slider.c **** #include "../misc/lv_assert.h"
  13:Middlewares/lvgl/src/widgets/lv_slider.c **** #include "../core/lv_group.h"
  14:Middlewares/lvgl/src/widgets/lv_slider.c **** #include "../core/lv_indev.h"
  15:Middlewares/lvgl/src/widgets/lv_slider.c **** #include "../draw/lv_draw.h"
  16:Middlewares/lvgl/src/widgets/lv_slider.c **** #include "../misc/lv_math.h"
  17:Middlewares/lvgl/src/widgets/lv_slider.c **** #include "../core/lv_disp.h"
  18:Middlewares/lvgl/src/widgets/lv_slider.c **** #include "lv_img.h"
  19:Middlewares/lvgl/src/widgets/lv_slider.c **** 
  20:Middlewares/lvgl/src/widgets/lv_slider.c **** /*********************
  21:Middlewares/lvgl/src/widgets/lv_slider.c ****  *      DEFINES
  22:Middlewares/lvgl/src/widgets/lv_slider.c ****  *********************/
  23:Middlewares/lvgl/src/widgets/lv_slider.c **** #define MY_CLASS &lv_slider_class
  24:Middlewares/lvgl/src/widgets/lv_slider.c **** 
  25:Middlewares/lvgl/src/widgets/lv_slider.c **** #define LV_SLIDER_KNOB_COORD(hor, is_rtl, area) (hor ? (is_rtl ? area.x1 : area.x2) : (is_rtl ? are
  26:Middlewares/lvgl/src/widgets/lv_slider.c **** 
  27:Middlewares/lvgl/src/widgets/lv_slider.c **** /**********************
  28:Middlewares/lvgl/src/widgets/lv_slider.c ****  *      TYPEDEFS
  29:Middlewares/lvgl/src/widgets/lv_slider.c ****  **********************/
  30:Middlewares/lvgl/src/widgets/lv_slider.c **** 
ARM GAS  /tmp/cc3htL3m.s 			page 2


  31:Middlewares/lvgl/src/widgets/lv_slider.c **** /**********************
  32:Middlewares/lvgl/src/widgets/lv_slider.c ****  *  STATIC PROTOTYPES
  33:Middlewares/lvgl/src/widgets/lv_slider.c ****  **********************/
  34:Middlewares/lvgl/src/widgets/lv_slider.c **** static void lv_slider_constructor(const lv_obj_class_t * class_p, lv_obj_t * obj);
  35:Middlewares/lvgl/src/widgets/lv_slider.c **** static void lv_slider_event(const lv_obj_class_t * class_p, lv_event_t * e);
  36:Middlewares/lvgl/src/widgets/lv_slider.c **** static void position_knob(lv_obj_t * obj, lv_area_t * knob_area, lv_coord_t knob_size, bool hor);
  37:Middlewares/lvgl/src/widgets/lv_slider.c **** static void draw_knob(lv_event_t * e);
  38:Middlewares/lvgl/src/widgets/lv_slider.c **** 
  39:Middlewares/lvgl/src/widgets/lv_slider.c **** /**********************
  40:Middlewares/lvgl/src/widgets/lv_slider.c ****  *  STATIC VARIABLES
  41:Middlewares/lvgl/src/widgets/lv_slider.c ****  **********************/
  42:Middlewares/lvgl/src/widgets/lv_slider.c **** const lv_obj_class_t lv_slider_class = {
  43:Middlewares/lvgl/src/widgets/lv_slider.c ****     .constructor_cb = lv_slider_constructor,
  44:Middlewares/lvgl/src/widgets/lv_slider.c ****     .event_cb = lv_slider_event,
  45:Middlewares/lvgl/src/widgets/lv_slider.c ****     .editable = LV_OBJ_CLASS_EDITABLE_TRUE,
  46:Middlewares/lvgl/src/widgets/lv_slider.c ****     .group_def = LV_OBJ_CLASS_GROUP_DEF_TRUE,
  47:Middlewares/lvgl/src/widgets/lv_slider.c ****     .instance_size = sizeof(lv_slider_t),
  48:Middlewares/lvgl/src/widgets/lv_slider.c ****     .base_class = &lv_bar_class
  49:Middlewares/lvgl/src/widgets/lv_slider.c **** };
  50:Middlewares/lvgl/src/widgets/lv_slider.c **** 
  51:Middlewares/lvgl/src/widgets/lv_slider.c **** /**********************
  52:Middlewares/lvgl/src/widgets/lv_slider.c ****  *      MACROS
  53:Middlewares/lvgl/src/widgets/lv_slider.c ****  **********************/
  54:Middlewares/lvgl/src/widgets/lv_slider.c **** 
  55:Middlewares/lvgl/src/widgets/lv_slider.c **** /**********************
  56:Middlewares/lvgl/src/widgets/lv_slider.c ****  *   GLOBAL FUNCTIONS
  57:Middlewares/lvgl/src/widgets/lv_slider.c ****  **********************/
  58:Middlewares/lvgl/src/widgets/lv_slider.c **** 
  59:Middlewares/lvgl/src/widgets/lv_slider.c **** lv_obj_t * lv_slider_create(lv_obj_t * parent)
  60:Middlewares/lvgl/src/widgets/lv_slider.c **** {
  61:Middlewares/lvgl/src/widgets/lv_slider.c ****     LV_LOG_INFO("begin")
  62:Middlewares/lvgl/src/widgets/lv_slider.c ****     lv_obj_t * obj = lv_obj_class_create_obj(MY_CLASS, parent);
  63:Middlewares/lvgl/src/widgets/lv_slider.c ****     lv_obj_class_init_obj(obj);
  64:Middlewares/lvgl/src/widgets/lv_slider.c ****     return obj;
  65:Middlewares/lvgl/src/widgets/lv_slider.c **** }
  66:Middlewares/lvgl/src/widgets/lv_slider.c **** 
  67:Middlewares/lvgl/src/widgets/lv_slider.c **** bool lv_slider_is_dragged(const lv_obj_t * obj)
  68:Middlewares/lvgl/src/widgets/lv_slider.c **** {
  69:Middlewares/lvgl/src/widgets/lv_slider.c ****     LV_ASSERT_OBJ(obj, MY_CLASS);
  70:Middlewares/lvgl/src/widgets/lv_slider.c ****     lv_slider_t * slider = (lv_slider_t *)obj;
  71:Middlewares/lvgl/src/widgets/lv_slider.c **** 
  72:Middlewares/lvgl/src/widgets/lv_slider.c ****     return slider->dragging ? true : false;
  73:Middlewares/lvgl/src/widgets/lv_slider.c **** }
  74:Middlewares/lvgl/src/widgets/lv_slider.c **** 
  75:Middlewares/lvgl/src/widgets/lv_slider.c **** /**********************
  76:Middlewares/lvgl/src/widgets/lv_slider.c ****  *   STATIC FUNCTIONS
  77:Middlewares/lvgl/src/widgets/lv_slider.c ****  **********************/
  78:Middlewares/lvgl/src/widgets/lv_slider.c **** 
  79:Middlewares/lvgl/src/widgets/lv_slider.c **** static void lv_slider_constructor(const lv_obj_class_t * class_p, lv_obj_t * obj)
  80:Middlewares/lvgl/src/widgets/lv_slider.c **** {
  81:Middlewares/lvgl/src/widgets/lv_slider.c ****     LV_UNUSED(class_p);
  82:Middlewares/lvgl/src/widgets/lv_slider.c ****     lv_slider_t * slider = (lv_slider_t *)obj;
  83:Middlewares/lvgl/src/widgets/lv_slider.c **** 
  84:Middlewares/lvgl/src/widgets/lv_slider.c ****     /*Initialize the allocated 'slider'*/
  85:Middlewares/lvgl/src/widgets/lv_slider.c ****     slider->value_to_set = NULL;
  86:Middlewares/lvgl/src/widgets/lv_slider.c ****     slider->dragging = 0;
  87:Middlewares/lvgl/src/widgets/lv_slider.c ****     slider->left_knob_focus = 0;
ARM GAS  /tmp/cc3htL3m.s 			page 3


  88:Middlewares/lvgl/src/widgets/lv_slider.c **** 
  89:Middlewares/lvgl/src/widgets/lv_slider.c ****     lv_obj_clear_flag(obj, LV_OBJ_FLAG_SCROLL_CHAIN);
  90:Middlewares/lvgl/src/widgets/lv_slider.c ****     lv_obj_clear_flag(obj, LV_OBJ_FLAG_SCROLLABLE);
  91:Middlewares/lvgl/src/widgets/lv_slider.c ****     lv_obj_set_ext_click_area(obj, LV_DPX(8));
  92:Middlewares/lvgl/src/widgets/lv_slider.c **** }
  93:Middlewares/lvgl/src/widgets/lv_slider.c **** 
  94:Middlewares/lvgl/src/widgets/lv_slider.c **** static void lv_slider_event(const lv_obj_class_t * class_p, lv_event_t * e)
  95:Middlewares/lvgl/src/widgets/lv_slider.c **** {
  96:Middlewares/lvgl/src/widgets/lv_slider.c ****     LV_UNUSED(class_p);
  97:Middlewares/lvgl/src/widgets/lv_slider.c **** 
  98:Middlewares/lvgl/src/widgets/lv_slider.c ****     lv_res_t res;
  99:Middlewares/lvgl/src/widgets/lv_slider.c **** 
 100:Middlewares/lvgl/src/widgets/lv_slider.c ****     /*Call the ancestor's event handler*/
 101:Middlewares/lvgl/src/widgets/lv_slider.c ****     res = lv_obj_event_base(MY_CLASS, e);
 102:Middlewares/lvgl/src/widgets/lv_slider.c ****     if(res != LV_RES_OK) return;
 103:Middlewares/lvgl/src/widgets/lv_slider.c **** 
 104:Middlewares/lvgl/src/widgets/lv_slider.c ****     lv_event_code_t code = lv_event_get_code(e);
 105:Middlewares/lvgl/src/widgets/lv_slider.c ****     lv_obj_t * obj = lv_event_get_target(e);
 106:Middlewares/lvgl/src/widgets/lv_slider.c ****     lv_slider_t * slider = (lv_slider_t *)obj;
 107:Middlewares/lvgl/src/widgets/lv_slider.c ****     lv_slider_mode_t type = lv_slider_get_mode(obj);
 108:Middlewares/lvgl/src/widgets/lv_slider.c **** 
 109:Middlewares/lvgl/src/widgets/lv_slider.c ****     /*Advanced hit testing: react only on dragging the knob(s)*/
 110:Middlewares/lvgl/src/widgets/lv_slider.c ****     if(code == LV_EVENT_HIT_TEST) {
 111:Middlewares/lvgl/src/widgets/lv_slider.c ****         lv_hit_test_info_t * info = lv_event_get_param(e);
 112:Middlewares/lvgl/src/widgets/lv_slider.c **** 
 113:Middlewares/lvgl/src/widgets/lv_slider.c ****         /*Ordinary slider: was the knob area hit?*/
 114:Middlewares/lvgl/src/widgets/lv_slider.c ****         info->res = _lv_area_is_point_on(&slider->right_knob_area, info->point, 0);
 115:Middlewares/lvgl/src/widgets/lv_slider.c **** 
 116:Middlewares/lvgl/src/widgets/lv_slider.c ****         /*There's still a change we have a hit, if we have another knob*/
 117:Middlewares/lvgl/src/widgets/lv_slider.c ****         if((info->res == false) && (type == LV_SLIDER_MODE_RANGE)) {
 118:Middlewares/lvgl/src/widgets/lv_slider.c ****             info->res = _lv_area_is_point_on(&slider->left_knob_area, info->point, 0);
 119:Middlewares/lvgl/src/widgets/lv_slider.c ****         }
 120:Middlewares/lvgl/src/widgets/lv_slider.c ****     }
 121:Middlewares/lvgl/src/widgets/lv_slider.c ****     else if(code == LV_EVENT_PRESSED) {
 122:Middlewares/lvgl/src/widgets/lv_slider.c ****         lv_obj_invalidate(obj);
 123:Middlewares/lvgl/src/widgets/lv_slider.c **** 
 124:Middlewares/lvgl/src/widgets/lv_slider.c ****         lv_point_t p;
 125:Middlewares/lvgl/src/widgets/lv_slider.c ****         slider->dragging = true;
 126:Middlewares/lvgl/src/widgets/lv_slider.c ****         if(type == LV_SLIDER_MODE_NORMAL || type == LV_SLIDER_MODE_SYMMETRICAL) {
 127:Middlewares/lvgl/src/widgets/lv_slider.c ****             slider->value_to_set = &slider->bar.cur_value;
 128:Middlewares/lvgl/src/widgets/lv_slider.c ****         }
 129:Middlewares/lvgl/src/widgets/lv_slider.c ****         else if(type == LV_SLIDER_MODE_RANGE) {
 130:Middlewares/lvgl/src/widgets/lv_slider.c ****             lv_indev_get_point(lv_indev_get_act(), &p);
 131:Middlewares/lvgl/src/widgets/lv_slider.c ****             bool hor = lv_obj_get_width(obj) >= lv_obj_get_height(obj);
 132:Middlewares/lvgl/src/widgets/lv_slider.c ****             lv_base_dir_t base_dir = lv_obj_get_style_base_dir(obj, LV_PART_MAIN);
 133:Middlewares/lvgl/src/widgets/lv_slider.c **** 
 134:Middlewares/lvgl/src/widgets/lv_slider.c ****             lv_coord_t dist_left, dist_right;
 135:Middlewares/lvgl/src/widgets/lv_slider.c ****             if(hor) {
 136:Middlewares/lvgl/src/widgets/lv_slider.c ****                 if((base_dir != LV_BASE_DIR_RTL && p.x > slider->right_knob_area.x2) || (base_dir =
 137:Middlewares/lvgl/src/widgets/lv_slider.c ****                                                                                       p.x < slider-
 138:Middlewares/lvgl/src/widgets/lv_slider.c ****                     slider->value_to_set = &slider->bar.cur_value;
 139:Middlewares/lvgl/src/widgets/lv_slider.c ****                 }
 140:Middlewares/lvgl/src/widgets/lv_slider.c ****                 else if((base_dir != LV_BASE_DIR_RTL && p.x < slider->left_knob_area.x1) || (base_d
 141:Middlewares/lvgl/src/widgets/lv_slider.c ****                                                                                           p.x > sli
 142:Middlewares/lvgl/src/widgets/lv_slider.c ****                     slider->value_to_set = &slider->bar.start_value;
 143:Middlewares/lvgl/src/widgets/lv_slider.c ****                 }
 144:Middlewares/lvgl/src/widgets/lv_slider.c ****                 else {
ARM GAS  /tmp/cc3htL3m.s 			page 4


 145:Middlewares/lvgl/src/widgets/lv_slider.c ****                     /*Calculate the distance from each knob*/
 146:Middlewares/lvgl/src/widgets/lv_slider.c ****                     dist_left = LV_ABS((slider->left_knob_area.x1 + (slider->left_knob_area.x2 - sl
 147:Middlewares/lvgl/src/widgets/lv_slider.c ****                     dist_right = LV_ABS((slider->right_knob_area.x1 + (slider->right_knob_area.x2 -
 148:Middlewares/lvgl/src/widgets/lv_slider.c **** 
 149:Middlewares/lvgl/src/widgets/lv_slider.c ****                     /*Use whichever one is closer*/
 150:Middlewares/lvgl/src/widgets/lv_slider.c ****                     if(dist_right < dist_left) {
 151:Middlewares/lvgl/src/widgets/lv_slider.c ****                         slider->value_to_set = &slider->bar.cur_value;
 152:Middlewares/lvgl/src/widgets/lv_slider.c ****                         slider->left_knob_focus = 0;
 153:Middlewares/lvgl/src/widgets/lv_slider.c ****                     }
 154:Middlewares/lvgl/src/widgets/lv_slider.c ****                     else {
 155:Middlewares/lvgl/src/widgets/lv_slider.c ****                         slider->value_to_set = &slider->bar.start_value;
 156:Middlewares/lvgl/src/widgets/lv_slider.c ****                         slider->left_knob_focus = 1;
 157:Middlewares/lvgl/src/widgets/lv_slider.c ****                     }
 158:Middlewares/lvgl/src/widgets/lv_slider.c ****                 }
 159:Middlewares/lvgl/src/widgets/lv_slider.c ****             }
 160:Middlewares/lvgl/src/widgets/lv_slider.c ****             else {
 161:Middlewares/lvgl/src/widgets/lv_slider.c ****                 if(p.y < slider->right_knob_area.y1) {
 162:Middlewares/lvgl/src/widgets/lv_slider.c ****                     slider->value_to_set = &slider->bar.cur_value;
 163:Middlewares/lvgl/src/widgets/lv_slider.c ****                 }
 164:Middlewares/lvgl/src/widgets/lv_slider.c ****                 else if(p.y > slider->left_knob_area.y2) {
 165:Middlewares/lvgl/src/widgets/lv_slider.c ****                     slider->value_to_set = &slider->bar.start_value;
 166:Middlewares/lvgl/src/widgets/lv_slider.c ****                 }
 167:Middlewares/lvgl/src/widgets/lv_slider.c ****                 else {
 168:Middlewares/lvgl/src/widgets/lv_slider.c ****                     /*Calculate the distance from each knob*/
 169:Middlewares/lvgl/src/widgets/lv_slider.c ****                     dist_left = LV_ABS((slider->left_knob_area.y1 + (slider->left_knob_area.y2 - sl
 170:Middlewares/lvgl/src/widgets/lv_slider.c ****                     dist_right = LV_ABS((slider->right_knob_area.y1 + (slider->right_knob_area.y2 -
 171:Middlewares/lvgl/src/widgets/lv_slider.c **** 
 172:Middlewares/lvgl/src/widgets/lv_slider.c ****                     /*Use whichever one is closer*/
 173:Middlewares/lvgl/src/widgets/lv_slider.c ****                     if(dist_right < dist_left) {
 174:Middlewares/lvgl/src/widgets/lv_slider.c ****                         slider->value_to_set = &slider->bar.cur_value;
 175:Middlewares/lvgl/src/widgets/lv_slider.c ****                         slider->left_knob_focus = 0;
 176:Middlewares/lvgl/src/widgets/lv_slider.c ****                     }
 177:Middlewares/lvgl/src/widgets/lv_slider.c ****                     else {
 178:Middlewares/lvgl/src/widgets/lv_slider.c ****                         slider->value_to_set = &slider->bar.start_value;
 179:Middlewares/lvgl/src/widgets/lv_slider.c ****                         slider->left_knob_focus = 1;
 180:Middlewares/lvgl/src/widgets/lv_slider.c ****                     }
 181:Middlewares/lvgl/src/widgets/lv_slider.c ****                 }
 182:Middlewares/lvgl/src/widgets/lv_slider.c ****             }
 183:Middlewares/lvgl/src/widgets/lv_slider.c ****         }
 184:Middlewares/lvgl/src/widgets/lv_slider.c ****     }
 185:Middlewares/lvgl/src/widgets/lv_slider.c ****     else if(code == LV_EVENT_PRESSING && slider->value_to_set != NULL) {
 186:Middlewares/lvgl/src/widgets/lv_slider.c ****         lv_indev_t * indev = lv_indev_get_act();
 187:Middlewares/lvgl/src/widgets/lv_slider.c ****         if(lv_indev_get_type(indev) != LV_INDEV_TYPE_POINTER) return;
 188:Middlewares/lvgl/src/widgets/lv_slider.c **** 
 189:Middlewares/lvgl/src/widgets/lv_slider.c ****         lv_point_t p;
 190:Middlewares/lvgl/src/widgets/lv_slider.c ****         lv_indev_get_point(indev, &p);
 191:Middlewares/lvgl/src/widgets/lv_slider.c ****         lv_base_dir_t base_dir = lv_obj_get_style_base_dir(obj, LV_PART_MAIN);
 192:Middlewares/lvgl/src/widgets/lv_slider.c **** 
 193:Middlewares/lvgl/src/widgets/lv_slider.c ****         lv_coord_t w = lv_obj_get_width(obj);
 194:Middlewares/lvgl/src/widgets/lv_slider.c ****         lv_coord_t h = lv_obj_get_height(obj);
 195:Middlewares/lvgl/src/widgets/lv_slider.c **** 
 196:Middlewares/lvgl/src/widgets/lv_slider.c ****         lv_coord_t bg_left = lv_obj_get_style_pad_left(obj,   LV_PART_MAIN);
 197:Middlewares/lvgl/src/widgets/lv_slider.c ****         lv_coord_t bg_right = lv_obj_get_style_pad_right(obj,  LV_PART_MAIN);
 198:Middlewares/lvgl/src/widgets/lv_slider.c ****         lv_coord_t bg_top = lv_obj_get_style_pad_top(obj,    LV_PART_MAIN);
 199:Middlewares/lvgl/src/widgets/lv_slider.c ****         lv_coord_t bg_bottom = lv_obj_get_style_pad_bottom(obj, LV_PART_MAIN);
 200:Middlewares/lvgl/src/widgets/lv_slider.c **** 
 201:Middlewares/lvgl/src/widgets/lv_slider.c ****         int32_t range = slider->bar.max_value - slider->bar.min_value;
ARM GAS  /tmp/cc3htL3m.s 			page 5


 202:Middlewares/lvgl/src/widgets/lv_slider.c ****         int32_t new_value = 0;
 203:Middlewares/lvgl/src/widgets/lv_slider.c ****         int32_t real_max_value = slider->bar.max_value;
 204:Middlewares/lvgl/src/widgets/lv_slider.c ****         int32_t real_min_value = slider->bar.min_value;
 205:Middlewares/lvgl/src/widgets/lv_slider.c **** 
 206:Middlewares/lvgl/src/widgets/lv_slider.c ****         if(w >= h) {
 207:Middlewares/lvgl/src/widgets/lv_slider.c ****             lv_coord_t indic_w = w - bg_left - bg_right;
 208:Middlewares/lvgl/src/widgets/lv_slider.c ****             if(base_dir == LV_BASE_DIR_RTL) {
 209:Middlewares/lvgl/src/widgets/lv_slider.c ****                 new_value = (obj->coords.x2 - bg_right) - p.x; /*Make the point relative to the ind
 210:Middlewares/lvgl/src/widgets/lv_slider.c ****             }
 211:Middlewares/lvgl/src/widgets/lv_slider.c ****             else {
 212:Middlewares/lvgl/src/widgets/lv_slider.c ****                 new_value = p.x - (obj->coords.x1 + bg_left); /*Make the point relative to the indi
 213:Middlewares/lvgl/src/widgets/lv_slider.c ****             }
 214:Middlewares/lvgl/src/widgets/lv_slider.c ****             new_value = (new_value * range) / indic_w;
 215:Middlewares/lvgl/src/widgets/lv_slider.c ****             new_value += slider->bar.min_value;
 216:Middlewares/lvgl/src/widgets/lv_slider.c ****         }
 217:Middlewares/lvgl/src/widgets/lv_slider.c ****         else {
 218:Middlewares/lvgl/src/widgets/lv_slider.c ****             lv_coord_t indic_h = h - bg_bottom - bg_top;
 219:Middlewares/lvgl/src/widgets/lv_slider.c ****             new_value = p.y - (obj->coords.y2 + bg_bottom); /*Make the point relative to the indica
 220:Middlewares/lvgl/src/widgets/lv_slider.c ****             new_value = (-new_value * range) / indic_h;
 221:Middlewares/lvgl/src/widgets/lv_slider.c ****             new_value += slider->bar.min_value;
 222:Middlewares/lvgl/src/widgets/lv_slider.c **** 
 223:Middlewares/lvgl/src/widgets/lv_slider.c ****         }
 224:Middlewares/lvgl/src/widgets/lv_slider.c **** 
 225:Middlewares/lvgl/src/widgets/lv_slider.c ****         /*Figure out the min. and max. for this mode*/
 226:Middlewares/lvgl/src/widgets/lv_slider.c ****         if(slider->value_to_set == &slider->bar.start_value) {
 227:Middlewares/lvgl/src/widgets/lv_slider.c ****             real_max_value = slider->bar.cur_value;
 228:Middlewares/lvgl/src/widgets/lv_slider.c ****         }
 229:Middlewares/lvgl/src/widgets/lv_slider.c ****         else {
 230:Middlewares/lvgl/src/widgets/lv_slider.c ****             real_min_value = slider->bar.start_value;
 231:Middlewares/lvgl/src/widgets/lv_slider.c ****         }
 232:Middlewares/lvgl/src/widgets/lv_slider.c **** 
 233:Middlewares/lvgl/src/widgets/lv_slider.c ****         if(new_value < real_min_value) new_value = real_min_value;
 234:Middlewares/lvgl/src/widgets/lv_slider.c ****         else if(new_value > real_max_value) new_value = real_max_value;
 235:Middlewares/lvgl/src/widgets/lv_slider.c ****         if(*slider->value_to_set != new_value) {
 236:Middlewares/lvgl/src/widgets/lv_slider.c ****             *slider->value_to_set = new_value;
 237:Middlewares/lvgl/src/widgets/lv_slider.c ****             lv_obj_invalidate(obj);
 238:Middlewares/lvgl/src/widgets/lv_slider.c ****             res = lv_event_send(obj, LV_EVENT_VALUE_CHANGED, NULL);
 239:Middlewares/lvgl/src/widgets/lv_slider.c ****             if(res != LV_RES_OK) return;
 240:Middlewares/lvgl/src/widgets/lv_slider.c ****         }
 241:Middlewares/lvgl/src/widgets/lv_slider.c **** 
 242:Middlewares/lvgl/src/widgets/lv_slider.c ****     }
 243:Middlewares/lvgl/src/widgets/lv_slider.c ****     else if(code == LV_EVENT_RELEASED || code == LV_EVENT_PRESS_LOST) {
 244:Middlewares/lvgl/src/widgets/lv_slider.c ****         slider->dragging = false;
 245:Middlewares/lvgl/src/widgets/lv_slider.c ****         slider->value_to_set = NULL;
 246:Middlewares/lvgl/src/widgets/lv_slider.c **** 
 247:Middlewares/lvgl/src/widgets/lv_slider.c ****         lv_obj_invalidate(obj);
 248:Middlewares/lvgl/src/widgets/lv_slider.c **** 
 249:Middlewares/lvgl/src/widgets/lv_slider.c ****         /*Leave edit mode if released. (No need to wait for LONG_PRESS)*/
 250:Middlewares/lvgl/src/widgets/lv_slider.c ****         lv_group_t * g   = lv_obj_get_group(obj);
 251:Middlewares/lvgl/src/widgets/lv_slider.c ****         bool editing     = lv_group_get_editing(g);
 252:Middlewares/lvgl/src/widgets/lv_slider.c ****         lv_indev_type_t indev_type = lv_indev_get_type(lv_indev_get_act());
 253:Middlewares/lvgl/src/widgets/lv_slider.c ****         if(indev_type == LV_INDEV_TYPE_ENCODER) {
 254:Middlewares/lvgl/src/widgets/lv_slider.c ****             if(editing) {
 255:Middlewares/lvgl/src/widgets/lv_slider.c ****                 if(lv_slider_get_mode(obj) == LV_SLIDER_MODE_RANGE) {
 256:Middlewares/lvgl/src/widgets/lv_slider.c ****                     if(slider->left_knob_focus == 0) slider->left_knob_focus = 1;
 257:Middlewares/lvgl/src/widgets/lv_slider.c ****                     else {
 258:Middlewares/lvgl/src/widgets/lv_slider.c ****                         slider->left_knob_focus = 0;
ARM GAS  /tmp/cc3htL3m.s 			page 6


 259:Middlewares/lvgl/src/widgets/lv_slider.c ****                         lv_group_set_editing(g, false);
 260:Middlewares/lvgl/src/widgets/lv_slider.c ****                     }
 261:Middlewares/lvgl/src/widgets/lv_slider.c ****                 }
 262:Middlewares/lvgl/src/widgets/lv_slider.c ****                 else {
 263:Middlewares/lvgl/src/widgets/lv_slider.c ****                     lv_group_set_editing(g, false);
 264:Middlewares/lvgl/src/widgets/lv_slider.c ****                 }
 265:Middlewares/lvgl/src/widgets/lv_slider.c ****             }
 266:Middlewares/lvgl/src/widgets/lv_slider.c ****         }
 267:Middlewares/lvgl/src/widgets/lv_slider.c **** 
 268:Middlewares/lvgl/src/widgets/lv_slider.c ****     }
 269:Middlewares/lvgl/src/widgets/lv_slider.c ****     else if(code == LV_EVENT_FOCUSED) {
 270:Middlewares/lvgl/src/widgets/lv_slider.c ****         lv_indev_type_t indev_type = lv_indev_get_type(lv_indev_get_act());
 271:Middlewares/lvgl/src/widgets/lv_slider.c ****         if(indev_type == LV_INDEV_TYPE_ENCODER || indev_type == LV_INDEV_TYPE_KEYPAD) {
 272:Middlewares/lvgl/src/widgets/lv_slider.c ****             slider->left_knob_focus = 0;
 273:Middlewares/lvgl/src/widgets/lv_slider.c ****         }
 274:Middlewares/lvgl/src/widgets/lv_slider.c ****     }
 275:Middlewares/lvgl/src/widgets/lv_slider.c ****     else if(code == LV_EVENT_SIZE_CHANGED) {
 276:Middlewares/lvgl/src/widgets/lv_slider.c ****         lv_obj_refresh_ext_draw_size(obj);
 277:Middlewares/lvgl/src/widgets/lv_slider.c ****     }
 278:Middlewares/lvgl/src/widgets/lv_slider.c ****     else if(code == LV_EVENT_REFR_EXT_DRAW_SIZE) {
 279:Middlewares/lvgl/src/widgets/lv_slider.c ****         lv_coord_t knob_left = lv_obj_get_style_pad_left(obj, LV_PART_KNOB);
 280:Middlewares/lvgl/src/widgets/lv_slider.c ****         lv_coord_t knob_right = lv_obj_get_style_pad_right(obj,LV_PART_KNOB);
 281:Middlewares/lvgl/src/widgets/lv_slider.c ****         lv_coord_t knob_top = lv_obj_get_style_pad_top(obj, LV_PART_KNOB);
 282:Middlewares/lvgl/src/widgets/lv_slider.c ****         lv_coord_t knob_bottom = lv_obj_get_style_pad_bottom(obj, LV_PART_KNOB);
 283:Middlewares/lvgl/src/widgets/lv_slider.c **** 
 284:Middlewares/lvgl/src/widgets/lv_slider.c ****         /*The smaller size is the knob diameter*/
 285:Middlewares/lvgl/src/widgets/lv_slider.c ****         lv_coord_t zoom = lv_obj_get_style_transform_zoom(obj, LV_PART_KNOB);
 286:Middlewares/lvgl/src/widgets/lv_slider.c ****         lv_coord_t trans_w = lv_obj_get_style_transform_width(obj, LV_PART_KNOB);
 287:Middlewares/lvgl/src/widgets/lv_slider.c ****         lv_coord_t trans_h = lv_obj_get_style_transform_height(obj, LV_PART_KNOB);
 288:Middlewares/lvgl/src/widgets/lv_slider.c ****         lv_coord_t knob_size = LV_MIN(lv_obj_get_width(obj) + 2 * trans_w, lv_obj_get_height(obj) +
 289:Middlewares/lvgl/src/widgets/lv_slider.c ****         knob_size = (knob_size * zoom) >> 8;
 290:Middlewares/lvgl/src/widgets/lv_slider.c ****         knob_size += LV_MAX(LV_MAX(knob_left, knob_right), LV_MAX(knob_bottom, knob_top));
 291:Middlewares/lvgl/src/widgets/lv_slider.c ****         knob_size += 2;         /*For rounding error*/
 292:Middlewares/lvgl/src/widgets/lv_slider.c ****         knob_size += lv_obj_calculate_ext_draw_size(obj, LV_PART_KNOB);
 293:Middlewares/lvgl/src/widgets/lv_slider.c **** 
 294:Middlewares/lvgl/src/widgets/lv_slider.c ****         /*Indic. size is handled by bar*/
 295:Middlewares/lvgl/src/widgets/lv_slider.c ****         lv_coord_t * s = lv_event_get_param(e);
 296:Middlewares/lvgl/src/widgets/lv_slider.c ****         *s  = LV_MAX(*s, knob_size);
 297:Middlewares/lvgl/src/widgets/lv_slider.c **** 
 298:Middlewares/lvgl/src/widgets/lv_slider.c ****     }
 299:Middlewares/lvgl/src/widgets/lv_slider.c ****     else if(code == LV_EVENT_KEY) {
 300:Middlewares/lvgl/src/widgets/lv_slider.c ****         char c = *((char *)lv_event_get_param(e));
 301:Middlewares/lvgl/src/widgets/lv_slider.c **** 
 302:Middlewares/lvgl/src/widgets/lv_slider.c ****         if(c == LV_KEY_RIGHT || c == LV_KEY_UP) {
 303:Middlewares/lvgl/src/widgets/lv_slider.c ****             if(!slider->left_knob_focus) lv_slider_set_value(obj, lv_slider_get_value(obj) + 1, LV_
 304:Middlewares/lvgl/src/widgets/lv_slider.c ****             else lv_slider_set_left_value(obj, lv_slider_get_left_value(obj) + 1, LV_ANIM_ON);
 305:Middlewares/lvgl/src/widgets/lv_slider.c **** 
 306:Middlewares/lvgl/src/widgets/lv_slider.c ****             res = lv_event_send(obj, LV_EVENT_VALUE_CHANGED, NULL);
 307:Middlewares/lvgl/src/widgets/lv_slider.c ****             if(res != LV_RES_OK) return;
 308:Middlewares/lvgl/src/widgets/lv_slider.c ****         }
 309:Middlewares/lvgl/src/widgets/lv_slider.c ****         else if(c == LV_KEY_LEFT || c == LV_KEY_DOWN) {
 310:Middlewares/lvgl/src/widgets/lv_slider.c ****             if(!slider->left_knob_focus) lv_slider_set_value(obj, lv_slider_get_value(obj) - 1, LV_
 311:Middlewares/lvgl/src/widgets/lv_slider.c ****             else lv_slider_set_left_value(obj, lv_slider_get_left_value(obj) - 1, LV_ANIM_ON);
 312:Middlewares/lvgl/src/widgets/lv_slider.c **** 
 313:Middlewares/lvgl/src/widgets/lv_slider.c ****             res = lv_event_send(obj, LV_EVENT_VALUE_CHANGED, NULL);
 314:Middlewares/lvgl/src/widgets/lv_slider.c ****             if(res != LV_RES_OK) return;
 315:Middlewares/lvgl/src/widgets/lv_slider.c ****         }
ARM GAS  /tmp/cc3htL3m.s 			page 7


 316:Middlewares/lvgl/src/widgets/lv_slider.c ****     } else if(code == LV_EVENT_DRAW_MAIN) {
 317:Middlewares/lvgl/src/widgets/lv_slider.c ****         draw_knob(e);
 318:Middlewares/lvgl/src/widgets/lv_slider.c ****     }
 319:Middlewares/lvgl/src/widgets/lv_slider.c **** }
 320:Middlewares/lvgl/src/widgets/lv_slider.c **** 
 321:Middlewares/lvgl/src/widgets/lv_slider.c **** static void draw_knob(lv_event_t * e)
 322:Middlewares/lvgl/src/widgets/lv_slider.c **** {
 323:Middlewares/lvgl/src/widgets/lv_slider.c ****     lv_obj_t * obj = lv_event_get_target(e);
 324:Middlewares/lvgl/src/widgets/lv_slider.c ****     lv_slider_t * slider = (lv_slider_t *)obj;
 325:Middlewares/lvgl/src/widgets/lv_slider.c ****     const lv_area_t * clip_area = lv_event_get_param(e);
 326:Middlewares/lvgl/src/widgets/lv_slider.c ****     lv_base_dir_t base_dir = lv_obj_get_style_base_dir(obj, LV_PART_MAIN);
 327:Middlewares/lvgl/src/widgets/lv_slider.c **** 
 328:Middlewares/lvgl/src/widgets/lv_slider.c ****     lv_coord_t objw = lv_obj_get_width(obj);
 329:Middlewares/lvgl/src/widgets/lv_slider.c ****     lv_coord_t objh = lv_obj_get_height(obj);
 330:Middlewares/lvgl/src/widgets/lv_slider.c ****     bool hor = objw >= objh ? true : false;
 331:Middlewares/lvgl/src/widgets/lv_slider.c ****     lv_coord_t knob_size = hor ? objh : objw;
 332:Middlewares/lvgl/src/widgets/lv_slider.c ****     bool sym = false;
 333:Middlewares/lvgl/src/widgets/lv_slider.c ****     if(slider->bar.mode == LV_BAR_MODE_SYMMETRICAL && slider->bar.min_value < 0 && slider->bar.max_
 334:Middlewares/lvgl/src/widgets/lv_slider.c **** 
 335:Middlewares/lvgl/src/widgets/lv_slider.c ****     lv_area_t knob_area;
 336:Middlewares/lvgl/src/widgets/lv_slider.c **** 
 337:Middlewares/lvgl/src/widgets/lv_slider.c ****     /*Horizontal*/
 338:Middlewares/lvgl/src/widgets/lv_slider.c ****     if(hor) {
 339:Middlewares/lvgl/src/widgets/lv_slider.c ****         if(!sym) {
 340:Middlewares/lvgl/src/widgets/lv_slider.c ****             knob_area.x1 = LV_SLIDER_KNOB_COORD(hor, base_dir == LV_BASE_DIR_RTL, slider->bar.indic
 341:Middlewares/lvgl/src/widgets/lv_slider.c ****         }
 342:Middlewares/lvgl/src/widgets/lv_slider.c ****         else {
 343:Middlewares/lvgl/src/widgets/lv_slider.c ****             if(slider->bar.cur_value >= 0) {
 344:Middlewares/lvgl/src/widgets/lv_slider.c ****                 knob_area.x1 = LV_SLIDER_KNOB_COORD(hor, base_dir == LV_BASE_DIR_RTL, slider->bar.i
 345:Middlewares/lvgl/src/widgets/lv_slider.c ****             }
 346:Middlewares/lvgl/src/widgets/lv_slider.c ****             else {
 347:Middlewares/lvgl/src/widgets/lv_slider.c ****                 knob_area.x1 = LV_SLIDER_KNOB_COORD(hor, base_dir != LV_BASE_DIR_RTL, slider->bar.i
 348:Middlewares/lvgl/src/widgets/lv_slider.c ****             }
 349:Middlewares/lvgl/src/widgets/lv_slider.c ****         }
 350:Middlewares/lvgl/src/widgets/lv_slider.c ****     }
 351:Middlewares/lvgl/src/widgets/lv_slider.c ****     /*Vertical*/
 352:Middlewares/lvgl/src/widgets/lv_slider.c ****     else {
 353:Middlewares/lvgl/src/widgets/lv_slider.c ****         if(!sym) {
 354:Middlewares/lvgl/src/widgets/lv_slider.c ****             knob_area.y1 = slider->bar.indic_area.y1;
 355:Middlewares/lvgl/src/widgets/lv_slider.c ****         }
 356:Middlewares/lvgl/src/widgets/lv_slider.c ****         else {
 357:Middlewares/lvgl/src/widgets/lv_slider.c ****             if(slider->bar.cur_value >= 0) {
 358:Middlewares/lvgl/src/widgets/lv_slider.c ****                 knob_area.y1 = slider->bar.indic_area.y1;
 359:Middlewares/lvgl/src/widgets/lv_slider.c ****             }
 360:Middlewares/lvgl/src/widgets/lv_slider.c ****             else {
 361:Middlewares/lvgl/src/widgets/lv_slider.c ****                 knob_area.y1 = slider->bar.indic_area.y2;
 362:Middlewares/lvgl/src/widgets/lv_slider.c ****             }
 363:Middlewares/lvgl/src/widgets/lv_slider.c ****         }
 364:Middlewares/lvgl/src/widgets/lv_slider.c ****     }
 365:Middlewares/lvgl/src/widgets/lv_slider.c **** 
 366:Middlewares/lvgl/src/widgets/lv_slider.c ****     lv_draw_rect_dsc_t knob_rect_dsc;
 367:Middlewares/lvgl/src/widgets/lv_slider.c ****     lv_draw_rect_dsc_init(&knob_rect_dsc);
 368:Middlewares/lvgl/src/widgets/lv_slider.c ****     lv_obj_init_draw_rect_dsc(obj, LV_PART_KNOB, &knob_rect_dsc);
 369:Middlewares/lvgl/src/widgets/lv_slider.c **** 
 370:Middlewares/lvgl/src/widgets/lv_slider.c ****     position_knob(obj, &knob_area, knob_size, hor);
 371:Middlewares/lvgl/src/widgets/lv_slider.c ****     lv_area_copy(&slider->right_knob_area, &knob_area);
 372:Middlewares/lvgl/src/widgets/lv_slider.c **** 
ARM GAS  /tmp/cc3htL3m.s 			page 8


 373:Middlewares/lvgl/src/widgets/lv_slider.c ****     lv_obj_draw_part_dsc_t dsc;
 374:Middlewares/lvgl/src/widgets/lv_slider.c ****     lv_obj_draw_dsc_init(&dsc, clip_area);
 375:Middlewares/lvgl/src/widgets/lv_slider.c ****     dsc.part = LV_PART_KNOB;
 376:Middlewares/lvgl/src/widgets/lv_slider.c ****     dsc.id = 0;
 377:Middlewares/lvgl/src/widgets/lv_slider.c ****     dsc.draw_area = &slider->right_knob_area;
 378:Middlewares/lvgl/src/widgets/lv_slider.c ****     dsc.rect_dsc = &knob_rect_dsc;
 379:Middlewares/lvgl/src/widgets/lv_slider.c **** 
 380:Middlewares/lvgl/src/widgets/lv_slider.c ****     if(lv_slider_get_mode(obj) != LV_SLIDER_MODE_RANGE) {
 381:Middlewares/lvgl/src/widgets/lv_slider.c ****         lv_event_send(obj, LV_EVENT_DRAW_PART_BEGIN, &dsc);
 382:Middlewares/lvgl/src/widgets/lv_slider.c ****         lv_draw_rect(&slider->right_knob_area, clip_area, &knob_rect_dsc);
 383:Middlewares/lvgl/src/widgets/lv_slider.c ****         lv_event_send(obj, LV_EVENT_DRAW_PART_END, &dsc);
 384:Middlewares/lvgl/src/widgets/lv_slider.c ****     } else {
 385:Middlewares/lvgl/src/widgets/lv_slider.c ****         /*Save the draw dsc. because it can be modified in the event*/
 386:Middlewares/lvgl/src/widgets/lv_slider.c ****         lv_draw_rect_dsc_t knob_rect_dsc_tmp;
 387:Middlewares/lvgl/src/widgets/lv_slider.c ****         lv_memcpy(&knob_rect_dsc_tmp, &knob_rect_dsc, sizeof(lv_draw_rect_dsc_t));
 388:Middlewares/lvgl/src/widgets/lv_slider.c **** 
 389:Middlewares/lvgl/src/widgets/lv_slider.c ****         lv_event_send(obj, LV_EVENT_DRAW_PART_BEGIN, &dsc);
 390:Middlewares/lvgl/src/widgets/lv_slider.c ****         lv_draw_rect(&slider->right_knob_area, clip_area, &knob_rect_dsc);
 391:Middlewares/lvgl/src/widgets/lv_slider.c ****         lv_event_send(obj, LV_EVENT_DRAW_PART_END, &dsc);
 392:Middlewares/lvgl/src/widgets/lv_slider.c **** 
 393:Middlewares/lvgl/src/widgets/lv_slider.c ****         /*Draw a second knob for the start_value side*/
 394:Middlewares/lvgl/src/widgets/lv_slider.c ****         if(hor) {
 395:Middlewares/lvgl/src/widgets/lv_slider.c ****             knob_area.x1 = LV_SLIDER_KNOB_COORD(hor, base_dir != LV_BASE_DIR_RTL, slider->bar.indic
 396:Middlewares/lvgl/src/widgets/lv_slider.c ****         }
 397:Middlewares/lvgl/src/widgets/lv_slider.c ****         else {
 398:Middlewares/lvgl/src/widgets/lv_slider.c ****             knob_area.y1 = slider->bar.indic_area.y2;
 399:Middlewares/lvgl/src/widgets/lv_slider.c ****         }
 400:Middlewares/lvgl/src/widgets/lv_slider.c ****         position_knob(obj, &knob_area, knob_size, hor);
 401:Middlewares/lvgl/src/widgets/lv_slider.c ****         lv_area_copy(&slider->left_knob_area, &knob_area);
 402:Middlewares/lvgl/src/widgets/lv_slider.c **** 
 403:Middlewares/lvgl/src/widgets/lv_slider.c ****         lv_memcpy(&knob_rect_dsc, &knob_rect_dsc_tmp, sizeof(lv_draw_rect_dsc_t));
 404:Middlewares/lvgl/src/widgets/lv_slider.c ****         dsc.draw_area = &slider->left_knob_area;
 405:Middlewares/lvgl/src/widgets/lv_slider.c ****         dsc.rect_dsc = &knob_rect_dsc;
 406:Middlewares/lvgl/src/widgets/lv_slider.c ****         dsc.id = 1;
 407:Middlewares/lvgl/src/widgets/lv_slider.c **** 
 408:Middlewares/lvgl/src/widgets/lv_slider.c ****         lv_event_send(obj, LV_EVENT_DRAW_PART_BEGIN, &dsc);
 409:Middlewares/lvgl/src/widgets/lv_slider.c ****         lv_draw_rect(&slider->left_knob_area, clip_area, &knob_rect_dsc);
 410:Middlewares/lvgl/src/widgets/lv_slider.c ****         lv_event_send(obj, LV_EVENT_DRAW_PART_END, &dsc);
 411:Middlewares/lvgl/src/widgets/lv_slider.c ****     }
 412:Middlewares/lvgl/src/widgets/lv_slider.c **** }
 413:Middlewares/lvgl/src/widgets/lv_slider.c **** 
 414:Middlewares/lvgl/src/widgets/lv_slider.c **** static void position_knob(lv_obj_t * obj, lv_area_t * knob_area, lv_coord_t knob_size, bool hor)
 415:Middlewares/lvgl/src/widgets/lv_slider.c **** {
  29              		.loc 1 415 1 view -0
  30              		.cfi_startproc
  31              		@ args = 0, pretend = 0, frame = 0
  32              		@ frame_needed = 0, uses_anonymous_args = 0
  33              		.loc 1 415 1 is_stmt 0 view .LVU1
  34 0000 2DE9F047 		push	{r4, r5, r6, r7, r8, r9, r10, lr}
  35              	.LCFI0:
  36              		.cfi_def_cfa_offset 32
  37              		.cfi_offset 4, -32
  38              		.cfi_offset 5, -28
  39              		.cfi_offset 6, -24
  40              		.cfi_offset 7, -20
  41              		.cfi_offset 8, -16
  42              		.cfi_offset 9, -12
ARM GAS  /tmp/cc3htL3m.s 			page 9


  43              		.cfi_offset 10, -8
  44              		.cfi_offset 14, -4
  45 0004 8246     		mov	r10, r0
  46 0006 0C46     		mov	r4, r1
 416:Middlewares/lvgl/src/widgets/lv_slider.c **** 
 417:Middlewares/lvgl/src/widgets/lv_slider.c ****     if(hor) {
  47              		.loc 1 417 5 is_stmt 1 view .LVU2
  48              		.loc 1 417 7 is_stmt 0 view .LVU3
  49 0008 002B     		cmp	r3, #0
  50 000a 58D0     		beq	.L2
 418:Middlewares/lvgl/src/widgets/lv_slider.c ****         knob_area->x1 -= (knob_size >> 1);
  51              		.loc 1 418 9 is_stmt 1 view .LVU4
  52              		.loc 1 418 23 is_stmt 0 view .LVU5
  53 000c 0888     		ldrh	r0, [r1]
  54              	.LVL1:
  55              		.loc 1 418 23 view .LVU6
  56 000e A0EB6200 		sub	r0, r0, r2, asr #1
  57 0012 81B2     		uxth	r1, r0
  58              	.LVL2:
  59              		.loc 1 418 23 view .LVU7
  60 0014 2180     		strh	r1, [r4]	@ movhi
 419:Middlewares/lvgl/src/widgets/lv_slider.c ****         knob_area->x2 = knob_area->x1 + knob_size - 1;
  61              		.loc 1 419 9 is_stmt 1 view .LVU8
  62              		.loc 1 419 39 is_stmt 0 view .LVU9
  63 0016 1144     		add	r1, r1, r2
  64 0018 89B2     		uxth	r1, r1
  65              		.loc 1 419 51 view .LVU10
  66 001a 0139     		subs	r1, r1, #1
  67              		.loc 1 419 23 view .LVU11
  68 001c A180     		strh	r1, [r4, #4]	@ movhi
 420:Middlewares/lvgl/src/widgets/lv_slider.c ****         knob_area->y1 = obj->coords.y1;
  69              		.loc 1 420 9 is_stmt 1 view .LVU12
  70              		.loc 1 420 36 is_stmt 0 view .LVU13
  71 001e BAF91630 		ldrsh	r3, [r10, #22]
  72              	.LVL3:
  73              		.loc 1 420 23 view .LVU14
  74 0022 6380     		strh	r3, [r4, #2]	@ movhi
 421:Middlewares/lvgl/src/widgets/lv_slider.c ****         knob_area->y2 = obj->coords.y2;
  75              		.loc 1 421 9 is_stmt 1 view .LVU15
  76              		.loc 1 421 36 is_stmt 0 view .LVU16
  77 0024 BAF91A30 		ldrsh	r3, [r10, #26]
  78              		.loc 1 421 23 view .LVU17
  79 0028 E380     		strh	r3, [r4, #6]	@ movhi
  80              	.L3:
 422:Middlewares/lvgl/src/widgets/lv_slider.c ****     }
 423:Middlewares/lvgl/src/widgets/lv_slider.c ****     else {
 424:Middlewares/lvgl/src/widgets/lv_slider.c ****         knob_area->y1 -= (knob_size >> 1);
 425:Middlewares/lvgl/src/widgets/lv_slider.c ****         knob_area->y2 = knob_area->y1 + knob_size - 1;
 426:Middlewares/lvgl/src/widgets/lv_slider.c ****         knob_area->x1 = obj->coords.x1;
 427:Middlewares/lvgl/src/widgets/lv_slider.c ****         knob_area->x2 = obj->coords.x2;
 428:Middlewares/lvgl/src/widgets/lv_slider.c ****     }
 429:Middlewares/lvgl/src/widgets/lv_slider.c **** 
 430:Middlewares/lvgl/src/widgets/lv_slider.c ****     lv_coord_t knob_left = lv_obj_get_style_pad_left(obj,   LV_PART_KNOB);
  81              		.loc 1 430 5 is_stmt 1 view .LVU18
  82              	.LVL4:
  83              	.LBB73:
  84              	.LBI73:
ARM GAS  /tmp/cc3htL3m.s 			page 10


  85              		.file 2 "Middlewares/lvgl/src/widgets/../core/lv_obj_style_gen.h"
   1:Middlewares/lvgl/src/widgets/../core/lv_obj_style_gen.h **** static inline lv_coord_t lv_obj_get_style_width(const struct _lv_obj_t * obj, uint32_t part)
   2:Middlewares/lvgl/src/widgets/../core/lv_obj_style_gen.h **** {
   3:Middlewares/lvgl/src/widgets/../core/lv_obj_style_gen.h ****     lv_style_value_t v = lv_obj_get_style_prop(obj, part, LV_STYLE_WIDTH);
   4:Middlewares/lvgl/src/widgets/../core/lv_obj_style_gen.h ****     return (lv_coord_t)v.num;
   5:Middlewares/lvgl/src/widgets/../core/lv_obj_style_gen.h **** }
   6:Middlewares/lvgl/src/widgets/../core/lv_obj_style_gen.h **** 
   7:Middlewares/lvgl/src/widgets/../core/lv_obj_style_gen.h **** static inline lv_coord_t lv_obj_get_style_min_width(const struct _lv_obj_t * obj, uint32_t part)
   8:Middlewares/lvgl/src/widgets/../core/lv_obj_style_gen.h **** {
   9:Middlewares/lvgl/src/widgets/../core/lv_obj_style_gen.h ****     lv_style_value_t v = lv_obj_get_style_prop(obj, part, LV_STYLE_MIN_WIDTH);
  10:Middlewares/lvgl/src/widgets/../core/lv_obj_style_gen.h ****     return (lv_coord_t)v.num;
  11:Middlewares/lvgl/src/widgets/../core/lv_obj_style_gen.h **** }
  12:Middlewares/lvgl/src/widgets/../core/lv_obj_style_gen.h **** 
  13:Middlewares/lvgl/src/widgets/../core/lv_obj_style_gen.h **** static inline lv_coord_t lv_obj_get_style_max_width(const struct _lv_obj_t * obj, uint32_t part)
  14:Middlewares/lvgl/src/widgets/../core/lv_obj_style_gen.h **** {
  15:Middlewares/lvgl/src/widgets/../core/lv_obj_style_gen.h ****     lv_style_value_t v = lv_obj_get_style_prop(obj, part, LV_STYLE_MAX_WIDTH);
  16:Middlewares/lvgl/src/widgets/../core/lv_obj_style_gen.h ****     return (lv_coord_t)v.num;
  17:Middlewares/lvgl/src/widgets/../core/lv_obj_style_gen.h **** }
  18:Middlewares/lvgl/src/widgets/../core/lv_obj_style_gen.h **** 
  19:Middlewares/lvgl/src/widgets/../core/lv_obj_style_gen.h **** static inline lv_coord_t lv_obj_get_style_height(const struct _lv_obj_t * obj, uint32_t part)
  20:Middlewares/lvgl/src/widgets/../core/lv_obj_style_gen.h **** {
  21:Middlewares/lvgl/src/widgets/../core/lv_obj_style_gen.h ****     lv_style_value_t v = lv_obj_get_style_prop(obj, part, LV_STYLE_HEIGHT);
  22:Middlewares/lvgl/src/widgets/../core/lv_obj_style_gen.h ****     return (lv_coord_t)v.num;
  23:Middlewares/lvgl/src/widgets/../core/lv_obj_style_gen.h **** }
  24:Middlewares/lvgl/src/widgets/../core/lv_obj_style_gen.h **** 
  25:Middlewares/lvgl/src/widgets/../core/lv_obj_style_gen.h **** static inline lv_coord_t lv_obj_get_style_min_height(const struct _lv_obj_t * obj, uint32_t part)
  26:Middlewares/lvgl/src/widgets/../core/lv_obj_style_gen.h **** {
  27:Middlewares/lvgl/src/widgets/../core/lv_obj_style_gen.h ****     lv_style_value_t v = lv_obj_get_style_prop(obj, part, LV_STYLE_MIN_HEIGHT);
  28:Middlewares/lvgl/src/widgets/../core/lv_obj_style_gen.h ****     return (lv_coord_t)v.num;
  29:Middlewares/lvgl/src/widgets/../core/lv_obj_style_gen.h **** }
  30:Middlewares/lvgl/src/widgets/../core/lv_obj_style_gen.h **** 
  31:Middlewares/lvgl/src/widgets/../core/lv_obj_style_gen.h **** static inline lv_coord_t lv_obj_get_style_max_height(const struct _lv_obj_t * obj, uint32_t part)
  32:Middlewares/lvgl/src/widgets/../core/lv_obj_style_gen.h **** {
  33:Middlewares/lvgl/src/widgets/../core/lv_obj_style_gen.h ****     lv_style_value_t v = lv_obj_get_style_prop(obj, part, LV_STYLE_MAX_HEIGHT);
  34:Middlewares/lvgl/src/widgets/../core/lv_obj_style_gen.h ****     return (lv_coord_t)v.num;
  35:Middlewares/lvgl/src/widgets/../core/lv_obj_style_gen.h **** }
  36:Middlewares/lvgl/src/widgets/../core/lv_obj_style_gen.h **** 
  37:Middlewares/lvgl/src/widgets/../core/lv_obj_style_gen.h **** static inline lv_coord_t lv_obj_get_style_x(const struct _lv_obj_t * obj, uint32_t part)
  38:Middlewares/lvgl/src/widgets/../core/lv_obj_style_gen.h **** {
  39:Middlewares/lvgl/src/widgets/../core/lv_obj_style_gen.h ****     lv_style_value_t v = lv_obj_get_style_prop(obj, part, LV_STYLE_X);
  40:Middlewares/lvgl/src/widgets/../core/lv_obj_style_gen.h ****     return (lv_coord_t)v.num;
  41:Middlewares/lvgl/src/widgets/../core/lv_obj_style_gen.h **** }
  42:Middlewares/lvgl/src/widgets/../core/lv_obj_style_gen.h **** 
  43:Middlewares/lvgl/src/widgets/../core/lv_obj_style_gen.h **** static inline lv_coord_t lv_obj_get_style_y(const struct _lv_obj_t * obj, uint32_t part)
  44:Middlewares/lvgl/src/widgets/../core/lv_obj_style_gen.h **** {
  45:Middlewares/lvgl/src/widgets/../core/lv_obj_style_gen.h ****     lv_style_value_t v = lv_obj_get_style_prop(obj, part, LV_STYLE_Y);
  46:Middlewares/lvgl/src/widgets/../core/lv_obj_style_gen.h ****     return (lv_coord_t)v.num;
  47:Middlewares/lvgl/src/widgets/../core/lv_obj_style_gen.h **** }
  48:Middlewares/lvgl/src/widgets/../core/lv_obj_style_gen.h **** 
  49:Middlewares/lvgl/src/widgets/../core/lv_obj_style_gen.h **** static inline lv_align_t lv_obj_get_style_align(const struct _lv_obj_t * obj, uint32_t part)
  50:Middlewares/lvgl/src/widgets/../core/lv_obj_style_gen.h **** {
  51:Middlewares/lvgl/src/widgets/../core/lv_obj_style_gen.h ****     lv_style_value_t v = lv_obj_get_style_prop(obj, part, LV_STYLE_ALIGN);
  52:Middlewares/lvgl/src/widgets/../core/lv_obj_style_gen.h ****     return (lv_align_t)v.num;
  53:Middlewares/lvgl/src/widgets/../core/lv_obj_style_gen.h **** }
  54:Middlewares/lvgl/src/widgets/../core/lv_obj_style_gen.h **** 
  55:Middlewares/lvgl/src/widgets/../core/lv_obj_style_gen.h **** static inline lv_coord_t lv_obj_get_style_transform_width(const struct _lv_obj_t * obj, uint32_t pa
  56:Middlewares/lvgl/src/widgets/../core/lv_obj_style_gen.h **** {
ARM GAS  /tmp/cc3htL3m.s 			page 11


  57:Middlewares/lvgl/src/widgets/../core/lv_obj_style_gen.h ****     lv_style_value_t v = lv_obj_get_style_prop(obj, part, LV_STYLE_TRANSFORM_WIDTH);
  58:Middlewares/lvgl/src/widgets/../core/lv_obj_style_gen.h ****     return (lv_coord_t)v.num;
  59:Middlewares/lvgl/src/widgets/../core/lv_obj_style_gen.h **** }
  60:Middlewares/lvgl/src/widgets/../core/lv_obj_style_gen.h **** 
  61:Middlewares/lvgl/src/widgets/../core/lv_obj_style_gen.h **** static inline lv_coord_t lv_obj_get_style_transform_height(const struct _lv_obj_t * obj, uint32_t p
  62:Middlewares/lvgl/src/widgets/../core/lv_obj_style_gen.h **** {
  63:Middlewares/lvgl/src/widgets/../core/lv_obj_style_gen.h ****     lv_style_value_t v = lv_obj_get_style_prop(obj, part, LV_STYLE_TRANSFORM_HEIGHT);
  64:Middlewares/lvgl/src/widgets/../core/lv_obj_style_gen.h ****     return (lv_coord_t)v.num;
  65:Middlewares/lvgl/src/widgets/../core/lv_obj_style_gen.h **** }
  66:Middlewares/lvgl/src/widgets/../core/lv_obj_style_gen.h **** 
  67:Middlewares/lvgl/src/widgets/../core/lv_obj_style_gen.h **** static inline lv_coord_t lv_obj_get_style_translate_x(const struct _lv_obj_t * obj, uint32_t part)
  68:Middlewares/lvgl/src/widgets/../core/lv_obj_style_gen.h **** {
  69:Middlewares/lvgl/src/widgets/../core/lv_obj_style_gen.h ****     lv_style_value_t v = lv_obj_get_style_prop(obj, part, LV_STYLE_TRANSLATE_X);
  70:Middlewares/lvgl/src/widgets/../core/lv_obj_style_gen.h ****     return (lv_coord_t)v.num;
  71:Middlewares/lvgl/src/widgets/../core/lv_obj_style_gen.h **** }
  72:Middlewares/lvgl/src/widgets/../core/lv_obj_style_gen.h **** 
  73:Middlewares/lvgl/src/widgets/../core/lv_obj_style_gen.h **** static inline lv_coord_t lv_obj_get_style_translate_y(const struct _lv_obj_t * obj, uint32_t part)
  74:Middlewares/lvgl/src/widgets/../core/lv_obj_style_gen.h **** {
  75:Middlewares/lvgl/src/widgets/../core/lv_obj_style_gen.h ****     lv_style_value_t v = lv_obj_get_style_prop(obj, part, LV_STYLE_TRANSLATE_Y);
  76:Middlewares/lvgl/src/widgets/../core/lv_obj_style_gen.h ****     return (lv_coord_t)v.num;
  77:Middlewares/lvgl/src/widgets/../core/lv_obj_style_gen.h **** }
  78:Middlewares/lvgl/src/widgets/../core/lv_obj_style_gen.h **** 
  79:Middlewares/lvgl/src/widgets/../core/lv_obj_style_gen.h **** static inline lv_coord_t lv_obj_get_style_transform_zoom(const struct _lv_obj_t * obj, uint32_t par
  80:Middlewares/lvgl/src/widgets/../core/lv_obj_style_gen.h **** {
  81:Middlewares/lvgl/src/widgets/../core/lv_obj_style_gen.h ****     lv_style_value_t v = lv_obj_get_style_prop(obj, part, LV_STYLE_TRANSFORM_ZOOM);
  82:Middlewares/lvgl/src/widgets/../core/lv_obj_style_gen.h ****     return (lv_coord_t)v.num;
  83:Middlewares/lvgl/src/widgets/../core/lv_obj_style_gen.h **** }
  84:Middlewares/lvgl/src/widgets/../core/lv_obj_style_gen.h **** 
  85:Middlewares/lvgl/src/widgets/../core/lv_obj_style_gen.h **** static inline lv_coord_t lv_obj_get_style_transform_angle(const struct _lv_obj_t * obj, uint32_t pa
  86:Middlewares/lvgl/src/widgets/../core/lv_obj_style_gen.h **** {
  87:Middlewares/lvgl/src/widgets/../core/lv_obj_style_gen.h ****     lv_style_value_t v = lv_obj_get_style_prop(obj, part, LV_STYLE_TRANSFORM_ANGLE);
  88:Middlewares/lvgl/src/widgets/../core/lv_obj_style_gen.h ****     return (lv_coord_t)v.num;
  89:Middlewares/lvgl/src/widgets/../core/lv_obj_style_gen.h **** }
  90:Middlewares/lvgl/src/widgets/../core/lv_obj_style_gen.h **** 
  91:Middlewares/lvgl/src/widgets/../core/lv_obj_style_gen.h **** static inline lv_coord_t lv_obj_get_style_pad_top(const struct _lv_obj_t * obj, uint32_t part)
  92:Middlewares/lvgl/src/widgets/../core/lv_obj_style_gen.h **** {
  93:Middlewares/lvgl/src/widgets/../core/lv_obj_style_gen.h ****     lv_style_value_t v = lv_obj_get_style_prop(obj, part, LV_STYLE_PAD_TOP);
  94:Middlewares/lvgl/src/widgets/../core/lv_obj_style_gen.h ****     return (lv_coord_t)v.num;
  95:Middlewares/lvgl/src/widgets/../core/lv_obj_style_gen.h **** }
  96:Middlewares/lvgl/src/widgets/../core/lv_obj_style_gen.h **** 
  97:Middlewares/lvgl/src/widgets/../core/lv_obj_style_gen.h **** static inline lv_coord_t lv_obj_get_style_pad_bottom(const struct _lv_obj_t * obj, uint32_t part)
  98:Middlewares/lvgl/src/widgets/../core/lv_obj_style_gen.h **** {
  99:Middlewares/lvgl/src/widgets/../core/lv_obj_style_gen.h ****     lv_style_value_t v = lv_obj_get_style_prop(obj, part, LV_STYLE_PAD_BOTTOM);
 100:Middlewares/lvgl/src/widgets/../core/lv_obj_style_gen.h ****     return (lv_coord_t)v.num;
 101:Middlewares/lvgl/src/widgets/../core/lv_obj_style_gen.h **** }
 102:Middlewares/lvgl/src/widgets/../core/lv_obj_style_gen.h **** 
 103:Middlewares/lvgl/src/widgets/../core/lv_obj_style_gen.h **** static inline lv_coord_t lv_obj_get_style_pad_left(const struct _lv_obj_t * obj, uint32_t part)
  86              		.loc 2 103 26 view .LVU19
  87              	.LBB74:
 104:Middlewares/lvgl/src/widgets/../core/lv_obj_style_gen.h **** {
 105:Middlewares/lvgl/src/widgets/../core/lv_obj_style_gen.h ****     lv_style_value_t v = lv_obj_get_style_prop(obj, part, LV_STYLE_PAD_LEFT);
  88              		.loc 2 105 5 view .LVU20
  89              		.loc 2 105 26 is_stmt 0 view .LVU21
  90 002a 41F21202 		movw	r2, #4114
  91              	.LVL5:
  92              		.loc 2 105 26 view .LVU22
  93 002e 4FF44031 		mov	r1, #196608
ARM GAS  /tmp/cc3htL3m.s 			page 12


  94 0032 5046     		mov	r0, r10
  95 0034 FFF7FEFF 		bl	lv_obj_get_style_prop
  96              	.LVL6:
  97 0038 8046     		mov	r8, r0
  98              	.LVL7:
 106:Middlewares/lvgl/src/widgets/../core/lv_obj_style_gen.h ****     return (lv_coord_t)v.num;
  99              		.loc 2 106 5 is_stmt 1 view .LVU23
 100              		.loc 2 106 5 is_stmt 0 view .LVU24
 101              	.LBE74:
 102              	.LBE73:
 431:Middlewares/lvgl/src/widgets/lv_slider.c ****     lv_coord_t knob_right = lv_obj_get_style_pad_right(obj,  LV_PART_KNOB);
 103              		.loc 1 431 5 is_stmt 1 view .LVU25
 104              	.LBB75:
 105              	.LBI75:
 107:Middlewares/lvgl/src/widgets/../core/lv_obj_style_gen.h **** }
 108:Middlewares/lvgl/src/widgets/../core/lv_obj_style_gen.h **** 
 109:Middlewares/lvgl/src/widgets/../core/lv_obj_style_gen.h **** static inline lv_coord_t lv_obj_get_style_pad_right(const struct _lv_obj_t * obj, uint32_t part)
 106              		.loc 2 109 26 view .LVU26
 107              	.LBB76:
 110:Middlewares/lvgl/src/widgets/../core/lv_obj_style_gen.h **** {
 111:Middlewares/lvgl/src/widgets/../core/lv_obj_style_gen.h ****     lv_style_value_t v = lv_obj_get_style_prop(obj, part, LV_STYLE_PAD_RIGHT);
 108              		.loc 2 111 5 view .LVU27
 109              		.loc 2 111 26 is_stmt 0 view .LVU28
 110 003a 41F21302 		movw	r2, #4115
 111 003e 4FF44031 		mov	r1, #196608
 112 0042 5046     		mov	r0, r10
 113 0044 FFF7FEFF 		bl	lv_obj_get_style_prop
 114              	.LVL8:
 115 0048 8146     		mov	r9, r0
 116              	.LVL9:
 112:Middlewares/lvgl/src/widgets/../core/lv_obj_style_gen.h ****     return (lv_coord_t)v.num;
 117              		.loc 2 112 5 is_stmt 1 view .LVU29
 118              		.loc 2 112 5 is_stmt 0 view .LVU30
 119              	.LBE76:
 120              	.LBE75:
 432:Middlewares/lvgl/src/widgets/lv_slider.c ****     lv_coord_t knob_top = lv_obj_get_style_pad_top(obj,    LV_PART_KNOB);
 121              		.loc 1 432 5 is_stmt 1 view .LVU31
 122              	.LBB77:
 123              	.LBI77:
  91:Middlewares/lvgl/src/widgets/../core/lv_obj_style_gen.h **** {
 124              		.loc 2 91 26 view .LVU32
 125              	.LBB78:
  93:Middlewares/lvgl/src/widgets/../core/lv_obj_style_gen.h ****     return (lv_coord_t)v.num;
 126              		.loc 2 93 5 view .LVU33
  93:Middlewares/lvgl/src/widgets/../core/lv_obj_style_gen.h ****     return (lv_coord_t)v.num;
 127              		.loc 2 93 26 is_stmt 0 view .LVU34
 128 004a 41F21002 		movw	r2, #4112
 129 004e 4FF44031 		mov	r1, #196608
 130 0052 5046     		mov	r0, r10
 131 0054 FFF7FEFF 		bl	lv_obj_get_style_prop
 132              	.LVL10:
 133 0058 0646     		mov	r6, r0
 134              	.LVL11:
  94:Middlewares/lvgl/src/widgets/../core/lv_obj_style_gen.h **** }
 135              		.loc 2 94 5 is_stmt 1 view .LVU35
  94:Middlewares/lvgl/src/widgets/../core/lv_obj_style_gen.h **** }
 136              		.loc 2 94 5 is_stmt 0 view .LVU36
ARM GAS  /tmp/cc3htL3m.s 			page 13


 137              	.LBE78:
 138              	.LBE77:
 433:Middlewares/lvgl/src/widgets/lv_slider.c ****     lv_coord_t knob_bottom = lv_obj_get_style_pad_bottom(obj, LV_PART_KNOB);
 139              		.loc 1 433 5 is_stmt 1 view .LVU37
 140              	.LBB79:
 141              	.LBI79:
  97:Middlewares/lvgl/src/widgets/../core/lv_obj_style_gen.h **** {
 142              		.loc 2 97 26 view .LVU38
 143              	.LBB80:
  99:Middlewares/lvgl/src/widgets/../core/lv_obj_style_gen.h ****     return (lv_coord_t)v.num;
 144              		.loc 2 99 5 view .LVU39
  99:Middlewares/lvgl/src/widgets/../core/lv_obj_style_gen.h ****     return (lv_coord_t)v.num;
 145              		.loc 2 99 26 is_stmt 0 view .LVU40
 146 005a 41F21102 		movw	r2, #4113
 147 005e 4FF44031 		mov	r1, #196608
 148 0062 5046     		mov	r0, r10
 149 0064 FFF7FEFF 		bl	lv_obj_get_style_prop
 150              	.LVL12:
 151 0068 0746     		mov	r7, r0
 152              	.LVL13:
 100:Middlewares/lvgl/src/widgets/../core/lv_obj_style_gen.h **** }
 153              		.loc 2 100 5 is_stmt 1 view .LVU41
 100:Middlewares/lvgl/src/widgets/../core/lv_obj_style_gen.h **** }
 154              		.loc 2 100 5 is_stmt 0 view .LVU42
 155              	.LBE80:
 156              	.LBE79:
 434:Middlewares/lvgl/src/widgets/lv_slider.c **** 
 435:Middlewares/lvgl/src/widgets/lv_slider.c ****     lv_coord_t transf_w = lv_obj_get_style_transform_width(obj, LV_PART_KNOB);
 157              		.loc 1 435 5 is_stmt 1 view .LVU43
 158              	.LBB81:
 159              	.LBI81:
  55:Middlewares/lvgl/src/widgets/../core/lv_obj_style_gen.h **** {
 160              		.loc 2 55 26 view .LVU44
 161              	.LBB82:
  57:Middlewares/lvgl/src/widgets/../core/lv_obj_style_gen.h ****     return (lv_coord_t)v.num;
 162              		.loc 2 57 5 view .LVU45
  57:Middlewares/lvgl/src/widgets/../core/lv_obj_style_gen.h ****     return (lv_coord_t)v.num;
 163              		.loc 2 57 26 is_stmt 0 view .LVU46
 164 006a 40F60A02 		movw	r2, #2058
 165 006e 4FF44031 		mov	r1, #196608
 166 0072 5046     		mov	r0, r10
 167 0074 FFF7FEFF 		bl	lv_obj_get_style_prop
 168              	.LVL14:
 169 0078 0546     		mov	r5, r0
 170              	.LVL15:
  58:Middlewares/lvgl/src/widgets/../core/lv_obj_style_gen.h **** }
 171              		.loc 2 58 5 is_stmt 1 view .LVU47
  58:Middlewares/lvgl/src/widgets/../core/lv_obj_style_gen.h **** }
 172              		.loc 2 58 5 is_stmt 0 view .LVU48
 173              	.LBE82:
 174              	.LBE81:
 436:Middlewares/lvgl/src/widgets/lv_slider.c ****     lv_coord_t transf_h = lv_obj_get_style_transform_height(obj, LV_PART_KNOB);
 175              		.loc 1 436 5 is_stmt 1 view .LVU49
 176              	.LBB83:
 177              	.LBI83:
  61:Middlewares/lvgl/src/widgets/../core/lv_obj_style_gen.h **** {
 178              		.loc 2 61 26 view .LVU50
ARM GAS  /tmp/cc3htL3m.s 			page 14


 179              	.LBB84:
  63:Middlewares/lvgl/src/widgets/../core/lv_obj_style_gen.h ****     return (lv_coord_t)v.num;
 180              		.loc 2 63 5 view .LVU51
  63:Middlewares/lvgl/src/widgets/../core/lv_obj_style_gen.h ****     return (lv_coord_t)v.num;
 181              		.loc 2 63 26 is_stmt 0 view .LVU52
 182 007a 40F60B02 		movw	r2, #2059
 183 007e 4FF44031 		mov	r1, #196608
 184 0082 5046     		mov	r0, r10
 185 0084 FFF7FEFF 		bl	lv_obj_get_style_prop
 186              	.LVL16:
  64:Middlewares/lvgl/src/widgets/../core/lv_obj_style_gen.h **** }
 187              		.loc 2 64 5 is_stmt 1 view .LVU53
  64:Middlewares/lvgl/src/widgets/../core/lv_obj_style_gen.h **** }
 188              		.loc 2 64 5 is_stmt 0 view .LVU54
 189              	.LBE84:
 190              	.LBE83:
 437:Middlewares/lvgl/src/widgets/lv_slider.c **** 
 438:Middlewares/lvgl/src/widgets/lv_slider.c ****     /*Apply the paddings on the knob area*/
 439:Middlewares/lvgl/src/widgets/lv_slider.c ****     knob_area->x1 -= knob_left + transf_w;
 191              		.loc 1 439 5 is_stmt 1 view .LVU55
 192              		.loc 1 439 32 is_stmt 0 view .LVU56
 193 0088 ABB2     		uxth	r3, r5
 194 008a 9844     		add	r8, r8, r3
 195              	.LVL17:
 196              		.loc 1 439 32 view .LVU57
 197 008c 1FFA88F8 		uxth	r8, r8
 198              		.loc 1 439 19 view .LVU58
 199 0090 2288     		ldrh	r2, [r4]
 200 0092 A2EB0808 		sub	r8, r2, r8
 201 0096 A4F80080 		strh	r8, [r4]	@ movhi
 440:Middlewares/lvgl/src/widgets/lv_slider.c ****     knob_area->x2 += knob_right + transf_w;
 202              		.loc 1 440 5 is_stmt 1 view .LVU59
 203              		.loc 1 440 33 is_stmt 0 view .LVU60
 204 009a 4B44     		add	r3, r3, r9
 205              		.loc 1 440 19 view .LVU61
 206 009c A288     		ldrh	r2, [r4, #4]
 207 009e 12FA83F3 		uxtah	r3, r2, r3
 208 00a2 A380     		strh	r3, [r4, #4]	@ movhi
 441:Middlewares/lvgl/src/widgets/lv_slider.c ****     knob_area->y1 -= knob_top + transf_h;
 209              		.loc 1 441 5 is_stmt 1 view .LVU62
 210              		.loc 1 441 31 is_stmt 0 view .LVU63
 211 00a4 80B2     		uxth	r0, r0
 212              		.loc 1 441 31 view .LVU64
 213 00a6 0644     		add	r6, r6, r0
 214              	.LVL18:
 215              		.loc 1 441 31 view .LVU65
 216 00a8 B6B2     		uxth	r6, r6
 217              		.loc 1 441 19 view .LVU66
 218 00aa 6388     		ldrh	r3, [r4, #2]
 219 00ac 9E1B     		subs	r6, r3, r6
 220 00ae 6680     		strh	r6, [r4, #2]	@ movhi
 442:Middlewares/lvgl/src/widgets/lv_slider.c ****     knob_area->y2 += knob_bottom + transf_h;
 221              		.loc 1 442 5 is_stmt 1 view .LVU67
 222              		.loc 1 442 34 is_stmt 0 view .LVU68
 223 00b0 3844     		add	r0, r0, r7
 224              	.LVL19:
 225              		.loc 1 442 19 view .LVU69
ARM GAS  /tmp/cc3htL3m.s 			page 15


 226 00b2 E788     		ldrh	r7, [r4, #6]
 227              	.LVL20:
 228              		.loc 1 442 19 view .LVU70
 229 00b4 17FA80F0 		uxtah	r0, r7, r0
 230 00b8 E080     		strh	r0, [r4, #6]	@ movhi
 443:Middlewares/lvgl/src/widgets/lv_slider.c **** }
 231              		.loc 1 443 1 view .LVU71
 232 00ba BDE8F087 		pop	{r4, r5, r6, r7, r8, r9, r10, pc}
 233              	.LVL21:
 234              	.L2:
 424:Middlewares/lvgl/src/widgets/lv_slider.c ****         knob_area->y2 = knob_area->y1 + knob_size - 1;
 235              		.loc 1 424 9 is_stmt 1 view .LVU72
 424:Middlewares/lvgl/src/widgets/lv_slider.c ****         knob_area->y2 = knob_area->y1 + knob_size - 1;
 236              		.loc 1 424 23 is_stmt 0 view .LVU73
 237 00be 4988     		ldrh	r1, [r1, #2]
 238              	.LVL22:
 424:Middlewares/lvgl/src/widgets/lv_slider.c ****         knob_area->y2 = knob_area->y1 + knob_size - 1;
 239              		.loc 1 424 23 view .LVU74
 240 00c0 A1EB6201 		sub	r1, r1, r2, asr #1
 241 00c4 8BB2     		uxth	r3, r1
 242              	.LVL23:
 424:Middlewares/lvgl/src/widgets/lv_slider.c ****         knob_area->y2 = knob_area->y1 + knob_size - 1;
 243              		.loc 1 424 23 view .LVU75
 244 00c6 6380     		strh	r3, [r4, #2]	@ movhi
 425:Middlewares/lvgl/src/widgets/lv_slider.c ****         knob_area->x1 = obj->coords.x1;
 245              		.loc 1 425 9 is_stmt 1 view .LVU76
 425:Middlewares/lvgl/src/widgets/lv_slider.c ****         knob_area->x1 = obj->coords.x1;
 246              		.loc 1 425 39 is_stmt 0 view .LVU77
 247 00c8 1344     		add	r3, r3, r2
 248 00ca 9BB2     		uxth	r3, r3
 425:Middlewares/lvgl/src/widgets/lv_slider.c ****         knob_area->x1 = obj->coords.x1;
 249              		.loc 1 425 51 view .LVU78
 250 00cc 013B     		subs	r3, r3, #1
 425:Middlewares/lvgl/src/widgets/lv_slider.c ****         knob_area->x1 = obj->coords.x1;
 251              		.loc 1 425 23 view .LVU79
 252 00ce E380     		strh	r3, [r4, #6]	@ movhi
 426:Middlewares/lvgl/src/widgets/lv_slider.c ****         knob_area->x2 = obj->coords.x2;
 253              		.loc 1 426 9 is_stmt 1 view .LVU80
 426:Middlewares/lvgl/src/widgets/lv_slider.c ****         knob_area->x2 = obj->coords.x2;
 254              		.loc 1 426 36 is_stmt 0 view .LVU81
 255 00d0 B0F91430 		ldrsh	r3, [r0, #20]
 426:Middlewares/lvgl/src/widgets/lv_slider.c ****         knob_area->x2 = obj->coords.x2;
 256              		.loc 1 426 23 view .LVU82
 257 00d4 2380     		strh	r3, [r4]	@ movhi
 427:Middlewares/lvgl/src/widgets/lv_slider.c ****     }
 258              		.loc 1 427 9 is_stmt 1 view .LVU83
 427:Middlewares/lvgl/src/widgets/lv_slider.c ****     }
 259              		.loc 1 427 36 is_stmt 0 view .LVU84
 260 00d6 B0F91830 		ldrsh	r3, [r0, #24]
 427:Middlewares/lvgl/src/widgets/lv_slider.c ****     }
 261              		.loc 1 427 23 view .LVU85
 262 00da A380     		strh	r3, [r4, #4]	@ movhi
 263 00dc A5E7     		b	.L3
 264              		.cfi_endproc
 265              	.LFE167:
 267              		.section	.text.lv_slider_constructor,"ax",%progbits
 268              		.align	1
ARM GAS  /tmp/cc3htL3m.s 			page 16


 269              		.syntax unified
 270              		.thumb
 271              		.thumb_func
 272              		.fpu fpv4-sp-d16
 274              	lv_slider_constructor:
 275              	.LVL24:
 276              	.LFB164:
  80:Middlewares/lvgl/src/widgets/lv_slider.c ****     LV_UNUSED(class_p);
 277              		.loc 1 80 1 is_stmt 1 view -0
 278              		.cfi_startproc
 279              		@ args = 0, pretend = 0, frame = 0
 280              		@ frame_needed = 0, uses_anonymous_args = 0
  80:Middlewares/lvgl/src/widgets/lv_slider.c ****     LV_UNUSED(class_p);
 281              		.loc 1 80 1 is_stmt 0 view .LVU87
 282 0000 38B5     		push	{r3, r4, r5, lr}
 283              	.LCFI1:
 284              		.cfi_def_cfa_offset 16
 285              		.cfi_offset 3, -16
 286              		.cfi_offset 4, -12
 287              		.cfi_offset 5, -8
 288              		.cfi_offset 14, -4
 289 0002 0C46     		mov	r4, r1
  81:Middlewares/lvgl/src/widgets/lv_slider.c ****     lv_slider_t * slider = (lv_slider_t *)obj;
 290              		.loc 1 81 5 is_stmt 1 view .LVU88
  82:Middlewares/lvgl/src/widgets/lv_slider.c **** 
 291              		.loc 1 82 5 view .LVU89
 292              	.LVL25:
  85:Middlewares/lvgl/src/widgets/lv_slider.c ****     slider->dragging = 0;
 293              		.loc 1 85 5 view .LVU90
  85:Middlewares/lvgl/src/widgets/lv_slider.c ****     slider->dragging = 0;
 294              		.loc 1 85 26 is_stmt 0 view .LVU91
 295 0004 0025     		movs	r5, #0
 296 0006 0D67     		str	r5, [r1, #112]
  86:Middlewares/lvgl/src/widgets/lv_slider.c ****     slider->left_knob_focus = 0;
 297              		.loc 1 86 5 is_stmt 1 view .LVU92
  86:Middlewares/lvgl/src/widgets/lv_slider.c ****     slider->left_knob_focus = 0;
 298              		.loc 1 86 22 is_stmt 0 view .LVU93
 299 0008 91F87430 		ldrb	r3, [r1, #116]	@ zero_extendqisi2
 300 000c 65F30003 		bfi	r3, r5, #0, #1
 301 0010 81F87430 		strb	r3, [r1, #116]
  87:Middlewares/lvgl/src/widgets/lv_slider.c **** 
 302              		.loc 1 87 5 is_stmt 1 view .LVU94
  87:Middlewares/lvgl/src/widgets/lv_slider.c **** 
 303              		.loc 1 87 29 is_stmt 0 view .LVU95
 304 0014 DBB2     		uxtb	r3, r3
 305 0016 65F34103 		bfi	r3, r5, #1, #1
 306 001a 81F87430 		strb	r3, [r1, #116]
  89:Middlewares/lvgl/src/widgets/lv_slider.c ****     lv_obj_clear_flag(obj, LV_OBJ_FLAG_SCROLLABLE);
 307              		.loc 1 89 5 is_stmt 1 view .LVU96
 308 001e 4FF48071 		mov	r1, #256
 309              	.LVL26:
  89:Middlewares/lvgl/src/widgets/lv_slider.c ****     lv_obj_clear_flag(obj, LV_OBJ_FLAG_SCROLLABLE);
 310              		.loc 1 89 5 is_stmt 0 view .LVU97
 311 0022 2046     		mov	r0, r4
 312              	.LVL27:
  89:Middlewares/lvgl/src/widgets/lv_slider.c ****     lv_obj_clear_flag(obj, LV_OBJ_FLAG_SCROLLABLE);
 313              		.loc 1 89 5 view .LVU98
ARM GAS  /tmp/cc3htL3m.s 			page 17


 314 0024 FFF7FEFF 		bl	lv_obj_clear_flag
 315              	.LVL28:
  90:Middlewares/lvgl/src/widgets/lv_slider.c ****     lv_obj_set_ext_click_area(obj, LV_DPX(8));
 316              		.loc 1 90 5 is_stmt 1 view .LVU99
 317 0028 1021     		movs	r1, #16
 318 002a 2046     		mov	r0, r4
 319 002c FFF7FEFF 		bl	lv_obj_clear_flag
 320              	.LVL29:
  91:Middlewares/lvgl/src/widgets/lv_slider.c **** }
 321              		.loc 1 91 5 view .LVU100
  91:Middlewares/lvgl/src/widgets/lv_slider.c **** }
 322              		.loc 1 91 36 is_stmt 0 view .LVU101
 323 0030 2846     		mov	r0, r5
 324 0032 FFF7FEFF 		bl	lv_disp_get_dpi
 325              	.LVL30:
  91:Middlewares/lvgl/src/widgets/lv_slider.c **** }
 326              		.loc 1 91 5 view .LVU102
 327 0036 1D28     		cmp	r0, #29
 328 0038 04DC     		bgt	.L9
 329 003a 0121     		movs	r1, #1
 330              	.L6:
  91:Middlewares/lvgl/src/widgets/lv_slider.c **** }
 331              		.loc 1 91 5 discriminator 4 view .LVU103
 332 003c 2046     		mov	r0, r4
 333 003e FFF7FEFF 		bl	lv_obj_set_ext_click_area
 334              	.LVL31:
  92:Middlewares/lvgl/src/widgets/lv_slider.c **** 
 335              		.loc 1 92 1 discriminator 4 view .LVU104
 336 0042 38BD     		pop	{r3, r4, r5, pc}
 337              	.LVL32:
 338              	.L9:
  91:Middlewares/lvgl/src/widgets/lv_slider.c **** }
 339              		.loc 1 91 36 discriminator 1 view .LVU105
 340 0044 2846     		mov	r0, r5
 341 0046 FFF7FEFF 		bl	lv_disp_get_dpi
 342              	.LVL33:
 343 004a 0A30     		adds	r0, r0, #10
 344 004c 034B     		ldr	r3, .L10
 345 004e 83FB0023 		smull	r2, r3, r3, r0
 346 0052 C117     		asrs	r1, r0, #31
 347 0054 C1EBE301 		rsb	r1, r1, r3, asr #3
  91:Middlewares/lvgl/src/widgets/lv_slider.c **** }
 348              		.loc 1 91 5 discriminator 1 view .LVU106
 349 0058 09B2     		sxth	r1, r1
 350 005a EFE7     		b	.L6
 351              	.L11:
 352              		.align	2
 353              	.L10:
 354 005c 67666666 		.word	1717986919
 355              		.cfi_endproc
 356              	.LFE164:
 358              		.section	.text.draw_knob,"ax",%progbits
 359              		.align	1
 360              		.syntax unified
 361              		.thumb
 362              		.thumb_func
 363              		.fpu fpv4-sp-d16
ARM GAS  /tmp/cc3htL3m.s 			page 18


 365              	draw_knob:
 366              	.LVL34:
 367              	.LFB166:
 322:Middlewares/lvgl/src/widgets/lv_slider.c ****     lv_obj_t * obj = lv_event_get_target(e);
 368              		.loc 1 322 1 is_stmt 1 view -0
 369              		.cfi_startproc
 370              		@ args = 0, pretend = 0, frame = 192
 371              		@ frame_needed = 0, uses_anonymous_args = 0
 322:Middlewares/lvgl/src/widgets/lv_slider.c ****     lv_obj_t * obj = lv_event_get_target(e);
 372              		.loc 1 322 1 is_stmt 0 view .LVU108
 373 0000 2DE9F04F 		push	{r4, r5, r6, r7, r8, r9, r10, fp, lr}
 374              	.LCFI2:
 375              		.cfi_def_cfa_offset 36
 376              		.cfi_offset 4, -36
 377              		.cfi_offset 5, -32
 378              		.cfi_offset 6, -28
 379              		.cfi_offset 7, -24
 380              		.cfi_offset 8, -20
 381              		.cfi_offset 9, -16
 382              		.cfi_offset 10, -12
 383              		.cfi_offset 11, -8
 384              		.cfi_offset 14, -4
 385 0004 B1B0     		sub	sp, sp, #196
 386              	.LCFI3:
 387              		.cfi_def_cfa_offset 232
 388 0006 0546     		mov	r5, r0
 323:Middlewares/lvgl/src/widgets/lv_slider.c ****     lv_slider_t * slider = (lv_slider_t *)obj;
 389              		.loc 1 323 5 is_stmt 1 view .LVU109
 323:Middlewares/lvgl/src/widgets/lv_slider.c ****     lv_slider_t * slider = (lv_slider_t *)obj;
 390              		.loc 1 323 22 is_stmt 0 view .LVU110
 391 0008 FFF7FEFF 		bl	lv_event_get_target
 392              	.LVL35:
 323:Middlewares/lvgl/src/widgets/lv_slider.c ****     lv_slider_t * slider = (lv_slider_t *)obj;
 393              		.loc 1 323 22 view .LVU111
 394 000c 0446     		mov	r4, r0
 395              	.LVL36:
 324:Middlewares/lvgl/src/widgets/lv_slider.c ****     const lv_area_t * clip_area = lv_event_get_param(e);
 396              		.loc 1 324 5 is_stmt 1 view .LVU112
 325:Middlewares/lvgl/src/widgets/lv_slider.c ****     lv_base_dir_t base_dir = lv_obj_get_style_base_dir(obj, LV_PART_MAIN);
 397              		.loc 1 325 5 view .LVU113
 325:Middlewares/lvgl/src/widgets/lv_slider.c ****     lv_base_dir_t base_dir = lv_obj_get_style_base_dir(obj, LV_PART_MAIN);
 398              		.loc 1 325 35 is_stmt 0 view .LVU114
 399 000e 2846     		mov	r0, r5
 400              	.LVL37:
 325:Middlewares/lvgl/src/widgets/lv_slider.c ****     lv_base_dir_t base_dir = lv_obj_get_style_base_dir(obj, LV_PART_MAIN);
 401              		.loc 1 325 35 view .LVU115
 402 0010 FFF7FEFF 		bl	lv_event_get_param
 403              	.LVL38:
 404 0014 0746     		mov	r7, r0
 405              	.LVL39:
 326:Middlewares/lvgl/src/widgets/lv_slider.c **** 
 406              		.loc 1 326 5 is_stmt 1 view .LVU116
 407              	.LBB94:
 408              	.LBI94:
 113:Middlewares/lvgl/src/widgets/../core/lv_obj_style_gen.h **** }
 114:Middlewares/lvgl/src/widgets/../core/lv_obj_style_gen.h **** 
 115:Middlewares/lvgl/src/widgets/../core/lv_obj_style_gen.h **** static inline lv_coord_t lv_obj_get_style_pad_row(const struct _lv_obj_t * obj, uint32_t part)
ARM GAS  /tmp/cc3htL3m.s 			page 19


 116:Middlewares/lvgl/src/widgets/../core/lv_obj_style_gen.h **** {
 117:Middlewares/lvgl/src/widgets/../core/lv_obj_style_gen.h ****     lv_style_value_t v = lv_obj_get_style_prop(obj, part, LV_STYLE_PAD_ROW);
 118:Middlewares/lvgl/src/widgets/../core/lv_obj_style_gen.h ****     return (lv_coord_t)v.num;
 119:Middlewares/lvgl/src/widgets/../core/lv_obj_style_gen.h **** }
 120:Middlewares/lvgl/src/widgets/../core/lv_obj_style_gen.h **** 
 121:Middlewares/lvgl/src/widgets/../core/lv_obj_style_gen.h **** static inline lv_coord_t lv_obj_get_style_pad_column(const struct _lv_obj_t * obj, uint32_t part)
 122:Middlewares/lvgl/src/widgets/../core/lv_obj_style_gen.h **** {
 123:Middlewares/lvgl/src/widgets/../core/lv_obj_style_gen.h ****     lv_style_value_t v = lv_obj_get_style_prop(obj, part, LV_STYLE_PAD_COLUMN);
 124:Middlewares/lvgl/src/widgets/../core/lv_obj_style_gen.h ****     return (lv_coord_t)v.num;
 125:Middlewares/lvgl/src/widgets/../core/lv_obj_style_gen.h **** }
 126:Middlewares/lvgl/src/widgets/../core/lv_obj_style_gen.h **** 
 127:Middlewares/lvgl/src/widgets/../core/lv_obj_style_gen.h **** static inline lv_coord_t lv_obj_get_style_radius(const struct _lv_obj_t * obj, uint32_t part)
 128:Middlewares/lvgl/src/widgets/../core/lv_obj_style_gen.h **** {
 129:Middlewares/lvgl/src/widgets/../core/lv_obj_style_gen.h ****     lv_style_value_t v = lv_obj_get_style_prop(obj, part, LV_STYLE_RADIUS);
 130:Middlewares/lvgl/src/widgets/../core/lv_obj_style_gen.h ****     return (lv_coord_t)v.num;
 131:Middlewares/lvgl/src/widgets/../core/lv_obj_style_gen.h **** }
 132:Middlewares/lvgl/src/widgets/../core/lv_obj_style_gen.h **** 
 133:Middlewares/lvgl/src/widgets/../core/lv_obj_style_gen.h **** static inline bool lv_obj_get_style_clip_corner(const struct _lv_obj_t * obj, uint32_t part)
 134:Middlewares/lvgl/src/widgets/../core/lv_obj_style_gen.h **** {
 135:Middlewares/lvgl/src/widgets/../core/lv_obj_style_gen.h ****     lv_style_value_t v = lv_obj_get_style_prop(obj, part, LV_STYLE_CLIP_CORNER);
 136:Middlewares/lvgl/src/widgets/../core/lv_obj_style_gen.h ****     return (bool)v.num;
 137:Middlewares/lvgl/src/widgets/../core/lv_obj_style_gen.h **** }
 138:Middlewares/lvgl/src/widgets/../core/lv_obj_style_gen.h **** 
 139:Middlewares/lvgl/src/widgets/../core/lv_obj_style_gen.h **** static inline lv_opa_t lv_obj_get_style_opa(const struct _lv_obj_t * obj, uint32_t part)
 140:Middlewares/lvgl/src/widgets/../core/lv_obj_style_gen.h **** {
 141:Middlewares/lvgl/src/widgets/../core/lv_obj_style_gen.h ****     lv_style_value_t v = lv_obj_get_style_prop(obj, part, LV_STYLE_OPA);
 142:Middlewares/lvgl/src/widgets/../core/lv_obj_style_gen.h ****     return (lv_opa_t)v.num;
 143:Middlewares/lvgl/src/widgets/../core/lv_obj_style_gen.h **** }
 144:Middlewares/lvgl/src/widgets/../core/lv_obj_style_gen.h **** 
 145:Middlewares/lvgl/src/widgets/../core/lv_obj_style_gen.h **** static inline const lv_color_filter_dsc_t * lv_obj_get_style_color_filter_dsc(const struct _lv_obj_
 146:Middlewares/lvgl/src/widgets/../core/lv_obj_style_gen.h **** {
 147:Middlewares/lvgl/src/widgets/../core/lv_obj_style_gen.h ****     lv_style_value_t v = lv_obj_get_style_prop(obj, part, LV_STYLE_COLOR_FILTER_DSC);
 148:Middlewares/lvgl/src/widgets/../core/lv_obj_style_gen.h ****     return (const lv_color_filter_dsc_t *)v.ptr;
 149:Middlewares/lvgl/src/widgets/../core/lv_obj_style_gen.h **** }
 150:Middlewares/lvgl/src/widgets/../core/lv_obj_style_gen.h **** 
 151:Middlewares/lvgl/src/widgets/../core/lv_obj_style_gen.h **** static inline lv_opa_t lv_obj_get_style_color_filter_opa(const struct _lv_obj_t * obj, uint32_t par
 152:Middlewares/lvgl/src/widgets/../core/lv_obj_style_gen.h **** {
 153:Middlewares/lvgl/src/widgets/../core/lv_obj_style_gen.h ****     lv_style_value_t v = lv_obj_get_style_prop(obj, part, LV_STYLE_COLOR_FILTER_OPA);
 154:Middlewares/lvgl/src/widgets/../core/lv_obj_style_gen.h ****     return (lv_opa_t)v.num;
 155:Middlewares/lvgl/src/widgets/../core/lv_obj_style_gen.h **** }
 156:Middlewares/lvgl/src/widgets/../core/lv_obj_style_gen.h **** 
 157:Middlewares/lvgl/src/widgets/../core/lv_obj_style_gen.h **** static inline uint32_t lv_obj_get_style_anim_time(const struct _lv_obj_t * obj, uint32_t part)
 158:Middlewares/lvgl/src/widgets/../core/lv_obj_style_gen.h **** {
 159:Middlewares/lvgl/src/widgets/../core/lv_obj_style_gen.h ****     lv_style_value_t v = lv_obj_get_style_prop(obj, part, LV_STYLE_ANIM_TIME);
 160:Middlewares/lvgl/src/widgets/../core/lv_obj_style_gen.h ****     return (uint32_t)v.num;
 161:Middlewares/lvgl/src/widgets/../core/lv_obj_style_gen.h **** }
 162:Middlewares/lvgl/src/widgets/../core/lv_obj_style_gen.h **** 
 163:Middlewares/lvgl/src/widgets/../core/lv_obj_style_gen.h **** static inline uint32_t lv_obj_get_style_anim_speed(const struct _lv_obj_t * obj, uint32_t part)
 164:Middlewares/lvgl/src/widgets/../core/lv_obj_style_gen.h **** {
 165:Middlewares/lvgl/src/widgets/../core/lv_obj_style_gen.h ****     lv_style_value_t v = lv_obj_get_style_prop(obj, part, LV_STYLE_ANIM_SPEED);
 166:Middlewares/lvgl/src/widgets/../core/lv_obj_style_gen.h ****     return (uint32_t)v.num;
 167:Middlewares/lvgl/src/widgets/../core/lv_obj_style_gen.h **** }
 168:Middlewares/lvgl/src/widgets/../core/lv_obj_style_gen.h **** 
 169:Middlewares/lvgl/src/widgets/../core/lv_obj_style_gen.h **** static inline const lv_style_transition_dsc_t * lv_obj_get_style_transition(const struct _lv_obj_t 
 170:Middlewares/lvgl/src/widgets/../core/lv_obj_style_gen.h **** {
 171:Middlewares/lvgl/src/widgets/../core/lv_obj_style_gen.h ****     lv_style_value_t v = lv_obj_get_style_prop(obj, part, LV_STYLE_TRANSITION);
 172:Middlewares/lvgl/src/widgets/../core/lv_obj_style_gen.h ****     return (const lv_style_transition_dsc_t *)v.ptr;
ARM GAS  /tmp/cc3htL3m.s 			page 20


 173:Middlewares/lvgl/src/widgets/../core/lv_obj_style_gen.h **** }
 174:Middlewares/lvgl/src/widgets/../core/lv_obj_style_gen.h **** 
 175:Middlewares/lvgl/src/widgets/../core/lv_obj_style_gen.h **** static inline lv_blend_mode_t lv_obj_get_style_blend_mode(const struct _lv_obj_t * obj, uint32_t pa
 176:Middlewares/lvgl/src/widgets/../core/lv_obj_style_gen.h **** {
 177:Middlewares/lvgl/src/widgets/../core/lv_obj_style_gen.h ****     lv_style_value_t v = lv_obj_get_style_prop(obj, part, LV_STYLE_BLEND_MODE);
 178:Middlewares/lvgl/src/widgets/../core/lv_obj_style_gen.h ****     return (lv_blend_mode_t)v.num;
 179:Middlewares/lvgl/src/widgets/../core/lv_obj_style_gen.h **** }
 180:Middlewares/lvgl/src/widgets/../core/lv_obj_style_gen.h **** 
 181:Middlewares/lvgl/src/widgets/../core/lv_obj_style_gen.h **** static inline uint16_t lv_obj_get_style_layout(const struct _lv_obj_t * obj, uint32_t part)
 182:Middlewares/lvgl/src/widgets/../core/lv_obj_style_gen.h **** {
 183:Middlewares/lvgl/src/widgets/../core/lv_obj_style_gen.h ****     lv_style_value_t v = lv_obj_get_style_prop(obj, part, LV_STYLE_LAYOUT);
 184:Middlewares/lvgl/src/widgets/../core/lv_obj_style_gen.h ****     return (uint16_t)v.num;
 185:Middlewares/lvgl/src/widgets/../core/lv_obj_style_gen.h **** }
 186:Middlewares/lvgl/src/widgets/../core/lv_obj_style_gen.h **** 
 187:Middlewares/lvgl/src/widgets/../core/lv_obj_style_gen.h **** static inline lv_base_dir_t lv_obj_get_style_base_dir(const struct _lv_obj_t * obj, uint32_t part)
 409              		.loc 2 187 29 view .LVU117
 410              	.LBB95:
 188:Middlewares/lvgl/src/widgets/../core/lv_obj_style_gen.h **** {
 189:Middlewares/lvgl/src/widgets/../core/lv_obj_style_gen.h ****     lv_style_value_t v = lv_obj_get_style_prop(obj, part, LV_STYLE_BASE_DIR);
 411              		.loc 2 189 5 view .LVU118
 412              		.loc 2 189 26 is_stmt 0 view .LVU119
 413 0016 41F26A42 		movw	r2, #5226
 414 001a 0021     		movs	r1, #0
 415 001c 2046     		mov	r0, r4
 416              	.LVL40:
 417              		.loc 2 189 26 view .LVU120
 418 001e FFF7FEFF 		bl	lv_obj_get_style_prop
 419              	.LVL41:
 190:Middlewares/lvgl/src/widgets/../core/lv_obj_style_gen.h ****     return (lv_base_dir_t)v.num;
 420              		.loc 2 190 5 is_stmt 1 view .LVU121
 421              		.loc 2 190 12 is_stmt 0 view .LVU122
 422 0022 5FFA80F9 		uxtb	r9, r0
 423              	.LVL42:
 424              		.loc 2 190 12 view .LVU123
 425              	.LBE95:
 426              	.LBE94:
 328:Middlewares/lvgl/src/widgets/lv_slider.c ****     lv_coord_t objh = lv_obj_get_height(obj);
 427              		.loc 1 328 5 is_stmt 1 view .LVU124
 328:Middlewares/lvgl/src/widgets/lv_slider.c ****     lv_coord_t objh = lv_obj_get_height(obj);
 428              		.loc 1 328 23 is_stmt 0 view .LVU125
 429 0026 2046     		mov	r0, r4
 430 0028 FFF7FEFF 		bl	lv_obj_get_width
 431              	.LVL43:
 432 002c 0646     		mov	r6, r0
 433              	.LVL44:
 329:Middlewares/lvgl/src/widgets/lv_slider.c ****     bool hor = objw >= objh ? true : false;
 434              		.loc 1 329 5 is_stmt 1 view .LVU126
 329:Middlewares/lvgl/src/widgets/lv_slider.c ****     bool hor = objw >= objh ? true : false;
 435              		.loc 1 329 23 is_stmt 0 view .LVU127
 436 002e 2046     		mov	r0, r4
 437 0030 FFF7FEFF 		bl	lv_obj_get_height
 438              	.LVL45:
 439 0034 0546     		mov	r5, r0
 440              	.LVL46:
 330:Middlewares/lvgl/src/widgets/lv_slider.c ****     lv_coord_t knob_size = hor ? objh : objw;
 441              		.loc 1 330 5 is_stmt 1 view .LVU128
 330:Middlewares/lvgl/src/widgets/lv_slider.c ****     lv_coord_t knob_size = hor ? objh : objw;
ARM GAS  /tmp/cc3htL3m.s 			page 21


 442              		.loc 1 330 10 is_stmt 0 view .LVU129
 443 0036 8642     		cmp	r6, r0
 444 0038 ACBF     		ite	ge
 445 003a 4FF0010B 		movge	fp, #1
 446 003e 4FF0000B 		movlt	fp, #0
 447              	.LVL47:
 331:Middlewares/lvgl/src/widgets/lv_slider.c ****     bool sym = false;
 448              		.loc 1 331 5 is_stmt 1 view .LVU130
 331:Middlewares/lvgl/src/widgets/lv_slider.c ****     bool sym = false;
 449              		.loc 1 331 16 is_stmt 0 view .LVU131
 450 0042 61DB     		blt	.L42
 451 0044 0190     		str	r0, [sp, #4]
 452              	.L13:
 453              	.LVL48:
 332:Middlewares/lvgl/src/widgets/lv_slider.c ****     if(slider->bar.mode == LV_BAR_MODE_SYMMETRICAL && slider->bar.min_value < 0 && slider->bar.max_
 454              		.loc 1 332 5 is_stmt 1 discriminator 4 view .LVU132
 333:Middlewares/lvgl/src/widgets/lv_slider.c **** 
 455              		.loc 1 333 5 discriminator 4 view .LVU133
 333:Middlewares/lvgl/src/widgets/lv_slider.c **** 
 456              		.loc 1 333 25 is_stmt 0 discriminator 4 view .LVU134
 457 0046 94F85C30 		ldrb	r3, [r4, #92]	@ zero_extendqisi2
 458 004a 03F00303 		and	r3, r3, #3
 333:Middlewares/lvgl/src/widgets/lv_slider.c **** 
 459              		.loc 1 333 7 discriminator 4 view .LVU135
 460 004e 012B     		cmp	r3, #1
 461 0050 5CD0     		beq	.L48
 332:Middlewares/lvgl/src/widgets/lv_slider.c ****     if(slider->bar.mode == LV_BAR_MODE_SYMMETRICAL && slider->bar.min_value < 0 && slider->bar.max_
 462              		.loc 1 332 10 view .LVU136
 463 0052 0023     		movs	r3, #0
 464              	.L14:
 465              	.LVL49:
 335:Middlewares/lvgl/src/widgets/lv_slider.c **** 
 466              		.loc 1 335 5 is_stmt 1 view .LVU137
 338:Middlewares/lvgl/src/widgets/lv_slider.c ****         if(!sym) {
 467              		.loc 1 338 5 view .LVU138
 338:Middlewares/lvgl/src/widgets/lv_slider.c ****         if(!sym) {
 468              		.loc 1 338 7 is_stmt 0 view .LVU139
 469 0054 AE42     		cmp	r6, r5
 470 0056 C0F2A080 		blt	.L15
 339:Middlewares/lvgl/src/widgets/lv_slider.c ****             knob_area.x1 = LV_SLIDER_KNOB_COORD(hor, base_dir == LV_BASE_DIR_RTL, slider->bar.indic
 471              		.loc 1 339 9 is_stmt 1 view .LVU140
 339:Middlewares/lvgl/src/widgets/lv_slider.c ****             knob_area.x1 = LV_SLIDER_KNOB_COORD(hor, base_dir == LV_BASE_DIR_RTL, slider->bar.indic
 472              		.loc 1 339 11 is_stmt 0 view .LVU141
 473 005a 002B     		cmp	r3, #0
 474 005c 6ED1     		bne	.L16
 340:Middlewares/lvgl/src/widgets/lv_slider.c ****         }
 475              		.loc 1 340 13 is_stmt 1 view .LVU142
 340:Middlewares/lvgl/src/widgets/lv_slider.c ****         }
 476              		.loc 1 340 26 is_stmt 0 view .LVU143
 477 005e AE42     		cmp	r6, r5
 478 0060 63DB     		blt	.L17
 340:Middlewares/lvgl/src/widgets/lv_slider.c ****         }
 479              		.loc 1 340 26 discriminator 1 view .LVU144
 480 0062 B9F1010F 		cmp	r9, #1
 481 0066 5DD0     		beq	.L49
 340:Middlewares/lvgl/src/widgets/lv_slider.c ****         }
 482              		.loc 1 340 26 discriminator 4 view .LVU145
ARM GAS  /tmp/cc3htL3m.s 			page 22


 483 0068 B4F93830 		ldrsh	r3, [r4, #56]
 484              	.LVL50:
 485              	.L19:
 340:Middlewares/lvgl/src/widgets/lv_slider.c ****         }
 486              		.loc 1 340 26 discriminator 12 view .LVU146
 487 006c ADF8B830 		strh	r3, [sp, #184]	@ movhi
 488              	.L21:
 366:Middlewares/lvgl/src/widgets/lv_slider.c ****     lv_draw_rect_dsc_init(&knob_rect_dsc);
 489              		.loc 1 366 5 is_stmt 1 view .LVU147
 367:Middlewares/lvgl/src/widgets/lv_slider.c ****     lv_obj_init_draw_rect_dsc(obj, LV_PART_KNOB, &knob_rect_dsc);
 490              		.loc 1 367 5 view .LVU148
 491 0070 0DF18408 		add	r8, sp, #132
 492 0074 4046     		mov	r0, r8
 493              	.LVL51:
 367:Middlewares/lvgl/src/widgets/lv_slider.c ****     lv_obj_init_draw_rect_dsc(obj, LV_PART_KNOB, &knob_rect_dsc);
 494              		.loc 1 367 5 is_stmt 0 view .LVU149
 495 0076 FFF7FEFF 		bl	lv_draw_rect_dsc_init
 496              	.LVL52:
 368:Middlewares/lvgl/src/widgets/lv_slider.c **** 
 497              		.loc 1 368 5 is_stmt 1 view .LVU150
 498 007a 4246     		mov	r2, r8
 499 007c 4FF44031 		mov	r1, #196608
 500 0080 2046     		mov	r0, r4
 501 0082 FFF7FEFF 		bl	lv_obj_init_draw_rect_dsc
 502              	.LVL53:
 370:Middlewares/lvgl/src/widgets/lv_slider.c ****     lv_area_copy(&slider->right_knob_area, &knob_area);
 503              		.loc 1 370 5 view .LVU151
 504 0086 5B46     		mov	r3, fp
 505 0088 019A     		ldr	r2, [sp, #4]
 506 008a 2EA9     		add	r1, sp, #184
 507 008c 2046     		mov	r0, r4
 508 008e FFF7FEFF 		bl	position_knob
 509              	.LVL54:
 371:Middlewares/lvgl/src/widgets/lv_slider.c **** 
 510              		.loc 1 371 5 view .LVU152
 511 0092 04F1680A 		add	r10, r4, #104
 512              	.LVL55:
 513              	.LBB96:
 514              	.LBI96:
 515              		.file 3 "Middlewares/lvgl/src/widgets/../core/../misc/../font/../misc/lv_area.h"
   1:Middlewares/lvgl/src/widgets/../core/../misc/../font/../misc/lv_area.h **** /**
   2:Middlewares/lvgl/src/widgets/../core/../misc/../font/../misc/lv_area.h ****  * @file lv_area.h
   3:Middlewares/lvgl/src/widgets/../core/../misc/../font/../misc/lv_area.h ****  *
   4:Middlewares/lvgl/src/widgets/../core/../misc/../font/../misc/lv_area.h ****  */
   5:Middlewares/lvgl/src/widgets/../core/../misc/../font/../misc/lv_area.h **** 
   6:Middlewares/lvgl/src/widgets/../core/../misc/../font/../misc/lv_area.h **** #ifndef LV_AREA_H
   7:Middlewares/lvgl/src/widgets/../core/../misc/../font/../misc/lv_area.h **** #define LV_AREA_H
   8:Middlewares/lvgl/src/widgets/../core/../misc/../font/../misc/lv_area.h **** 
   9:Middlewares/lvgl/src/widgets/../core/../misc/../font/../misc/lv_area.h **** #ifdef __cplusplus
  10:Middlewares/lvgl/src/widgets/../core/../misc/../font/../misc/lv_area.h **** extern "C" {
  11:Middlewares/lvgl/src/widgets/../core/../misc/../font/../misc/lv_area.h **** #endif
  12:Middlewares/lvgl/src/widgets/../core/../misc/../font/../misc/lv_area.h **** 
  13:Middlewares/lvgl/src/widgets/../core/../misc/../font/../misc/lv_area.h **** /*********************
  14:Middlewares/lvgl/src/widgets/../core/../misc/../font/../misc/lv_area.h ****  *      INCLUDES
  15:Middlewares/lvgl/src/widgets/../core/../misc/../font/../misc/lv_area.h ****  *********************/
  16:Middlewares/lvgl/src/widgets/../core/../misc/../font/../misc/lv_area.h **** #include "../lv_conf_internal.h"
  17:Middlewares/lvgl/src/widgets/../core/../misc/../font/../misc/lv_area.h **** #include <string.h>
ARM GAS  /tmp/cc3htL3m.s 			page 23


  18:Middlewares/lvgl/src/widgets/../core/../misc/../font/../misc/lv_area.h **** #include <stdbool.h>
  19:Middlewares/lvgl/src/widgets/../core/../misc/../font/../misc/lv_area.h **** #include <stdint.h>
  20:Middlewares/lvgl/src/widgets/../core/../misc/../font/../misc/lv_area.h **** 
  21:Middlewares/lvgl/src/widgets/../core/../misc/../font/../misc/lv_area.h **** /*********************
  22:Middlewares/lvgl/src/widgets/../core/../misc/../font/../misc/lv_area.h ****  *      DEFINES
  23:Middlewares/lvgl/src/widgets/../core/../misc/../font/../misc/lv_area.h ****  *********************/
  24:Middlewares/lvgl/src/widgets/../core/../misc/../font/../misc/lv_area.h **** 
  25:Middlewares/lvgl/src/widgets/../core/../misc/../font/../misc/lv_area.h **** #define _LV_COORD_MAX_REDUCE    8192
  26:Middlewares/lvgl/src/widgets/../core/../misc/../font/../misc/lv_area.h **** 
  27:Middlewares/lvgl/src/widgets/../core/../misc/../font/../misc/lv_area.h **** #if LV_USE_LARGE_COORD
  28:Middlewares/lvgl/src/widgets/../core/../misc/../font/../misc/lv_area.h **** typedef int32_t lv_coord_t;
  29:Middlewares/lvgl/src/widgets/../core/../misc/../font/../misc/lv_area.h **** #else
  30:Middlewares/lvgl/src/widgets/../core/../misc/../font/../misc/lv_area.h **** typedef int16_t lv_coord_t;
  31:Middlewares/lvgl/src/widgets/../core/../misc/../font/../misc/lv_area.h **** #endif
  32:Middlewares/lvgl/src/widgets/../core/../misc/../font/../misc/lv_area.h **** 
  33:Middlewares/lvgl/src/widgets/../core/../misc/../font/../misc/lv_area.h **** /*To allow some special values in the end reduce the max value*/
  34:Middlewares/lvgl/src/widgets/../core/../misc/../font/../misc/lv_area.h **** #define LV_COORD_MAX ((lv_coord_t)((uint32_t)((uint32_t)1 << (8 * sizeof(lv_coord_t) - 1)) - _LV_CO
  35:Middlewares/lvgl/src/widgets/../core/../misc/../font/../misc/lv_area.h **** #define LV_COORD_MIN (-LV_COORD_MAX)
  36:Middlewares/lvgl/src/widgets/../core/../misc/../font/../misc/lv_area.h **** 
  37:Middlewares/lvgl/src/widgets/../core/../misc/../font/../misc/lv_area.h **** LV_EXPORT_CONST_INT(LV_COORD_MAX);
  38:Middlewares/lvgl/src/widgets/../core/../misc/../font/../misc/lv_area.h **** LV_EXPORT_CONST_INT(LV_COORD_MIN);
  39:Middlewares/lvgl/src/widgets/../core/../misc/../font/../misc/lv_area.h **** 
  40:Middlewares/lvgl/src/widgets/../core/../misc/../font/../misc/lv_area.h **** /**********************
  41:Middlewares/lvgl/src/widgets/../core/../misc/../font/../misc/lv_area.h ****  *      TYPEDEFS
  42:Middlewares/lvgl/src/widgets/../core/../misc/../font/../misc/lv_area.h ****  **********************/
  43:Middlewares/lvgl/src/widgets/../core/../misc/../font/../misc/lv_area.h **** 
  44:Middlewares/lvgl/src/widgets/../core/../misc/../font/../misc/lv_area.h **** /**
  45:Middlewares/lvgl/src/widgets/../core/../misc/../font/../misc/lv_area.h ****  * Represents a point on the screen.
  46:Middlewares/lvgl/src/widgets/../core/../misc/../font/../misc/lv_area.h ****  */
  47:Middlewares/lvgl/src/widgets/../core/../misc/../font/../misc/lv_area.h **** typedef struct {
  48:Middlewares/lvgl/src/widgets/../core/../misc/../font/../misc/lv_area.h ****     lv_coord_t x;
  49:Middlewares/lvgl/src/widgets/../core/../misc/../font/../misc/lv_area.h ****     lv_coord_t y;
  50:Middlewares/lvgl/src/widgets/../core/../misc/../font/../misc/lv_area.h **** } lv_point_t;
  51:Middlewares/lvgl/src/widgets/../core/../misc/../font/../misc/lv_area.h **** 
  52:Middlewares/lvgl/src/widgets/../core/../misc/../font/../misc/lv_area.h **** /** Represents an area of the screen.*/
  53:Middlewares/lvgl/src/widgets/../core/../misc/../font/../misc/lv_area.h **** typedef struct {
  54:Middlewares/lvgl/src/widgets/../core/../misc/../font/../misc/lv_area.h ****     lv_coord_t x1;
  55:Middlewares/lvgl/src/widgets/../core/../misc/../font/../misc/lv_area.h ****     lv_coord_t y1;
  56:Middlewares/lvgl/src/widgets/../core/../misc/../font/../misc/lv_area.h ****     lv_coord_t x2;
  57:Middlewares/lvgl/src/widgets/../core/../misc/../font/../misc/lv_area.h ****     lv_coord_t y2;
  58:Middlewares/lvgl/src/widgets/../core/../misc/../font/../misc/lv_area.h **** } lv_area_t;
  59:Middlewares/lvgl/src/widgets/../core/../misc/../font/../misc/lv_area.h **** 
  60:Middlewares/lvgl/src/widgets/../core/../misc/../font/../misc/lv_area.h **** /** Alignments*/
  61:Middlewares/lvgl/src/widgets/../core/../misc/../font/../misc/lv_area.h **** enum {
  62:Middlewares/lvgl/src/widgets/../core/../misc/../font/../misc/lv_area.h ****     LV_ALIGN_DEFAULT = 0,
  63:Middlewares/lvgl/src/widgets/../core/../misc/../font/../misc/lv_area.h ****     LV_ALIGN_TOP_LEFT,
  64:Middlewares/lvgl/src/widgets/../core/../misc/../font/../misc/lv_area.h ****     LV_ALIGN_TOP_MID,
  65:Middlewares/lvgl/src/widgets/../core/../misc/../font/../misc/lv_area.h ****     LV_ALIGN_TOP_RIGHT,
  66:Middlewares/lvgl/src/widgets/../core/../misc/../font/../misc/lv_area.h ****     LV_ALIGN_BOTTOM_LEFT,
  67:Middlewares/lvgl/src/widgets/../core/../misc/../font/../misc/lv_area.h ****     LV_ALIGN_BOTTOM_MID,
  68:Middlewares/lvgl/src/widgets/../core/../misc/../font/../misc/lv_area.h ****     LV_ALIGN_BOTTOM_RIGHT,
  69:Middlewares/lvgl/src/widgets/../core/../misc/../font/../misc/lv_area.h ****     LV_ALIGN_LEFT_MID,
  70:Middlewares/lvgl/src/widgets/../core/../misc/../font/../misc/lv_area.h ****     LV_ALIGN_RIGHT_MID,
  71:Middlewares/lvgl/src/widgets/../core/../misc/../font/../misc/lv_area.h ****     LV_ALIGN_CENTER,
  72:Middlewares/lvgl/src/widgets/../core/../misc/../font/../misc/lv_area.h **** 
  73:Middlewares/lvgl/src/widgets/../core/../misc/../font/../misc/lv_area.h ****     LV_ALIGN_OUT_TOP_LEFT,
  74:Middlewares/lvgl/src/widgets/../core/../misc/../font/../misc/lv_area.h ****     LV_ALIGN_OUT_TOP_MID,
ARM GAS  /tmp/cc3htL3m.s 			page 24


  75:Middlewares/lvgl/src/widgets/../core/../misc/../font/../misc/lv_area.h ****     LV_ALIGN_OUT_TOP_RIGHT,
  76:Middlewares/lvgl/src/widgets/../core/../misc/../font/../misc/lv_area.h ****     LV_ALIGN_OUT_BOTTOM_LEFT,
  77:Middlewares/lvgl/src/widgets/../core/../misc/../font/../misc/lv_area.h ****     LV_ALIGN_OUT_BOTTOM_MID,
  78:Middlewares/lvgl/src/widgets/../core/../misc/../font/../misc/lv_area.h ****     LV_ALIGN_OUT_BOTTOM_RIGHT,
  79:Middlewares/lvgl/src/widgets/../core/../misc/../font/../misc/lv_area.h ****     LV_ALIGN_OUT_LEFT_TOP,
  80:Middlewares/lvgl/src/widgets/../core/../misc/../font/../misc/lv_area.h ****     LV_ALIGN_OUT_LEFT_MID,
  81:Middlewares/lvgl/src/widgets/../core/../misc/../font/../misc/lv_area.h ****     LV_ALIGN_OUT_LEFT_BOTTOM,
  82:Middlewares/lvgl/src/widgets/../core/../misc/../font/../misc/lv_area.h ****     LV_ALIGN_OUT_RIGHT_TOP,
  83:Middlewares/lvgl/src/widgets/../core/../misc/../font/../misc/lv_area.h ****     LV_ALIGN_OUT_RIGHT_MID,
  84:Middlewares/lvgl/src/widgets/../core/../misc/../font/../misc/lv_area.h ****     LV_ALIGN_OUT_RIGHT_BOTTOM,
  85:Middlewares/lvgl/src/widgets/../core/../misc/../font/../misc/lv_area.h **** };
  86:Middlewares/lvgl/src/widgets/../core/../misc/../font/../misc/lv_area.h **** typedef uint8_t lv_align_t;
  87:Middlewares/lvgl/src/widgets/../core/../misc/../font/../misc/lv_area.h **** 
  88:Middlewares/lvgl/src/widgets/../core/../misc/../font/../misc/lv_area.h **** enum {
  89:Middlewares/lvgl/src/widgets/../core/../misc/../font/../misc/lv_area.h ****     LV_DIR_NONE     = 0x00,
  90:Middlewares/lvgl/src/widgets/../core/../misc/../font/../misc/lv_area.h ****     LV_DIR_LEFT     = (1 << 0),
  91:Middlewares/lvgl/src/widgets/../core/../misc/../font/../misc/lv_area.h ****     LV_DIR_RIGHT    = (1 << 1),
  92:Middlewares/lvgl/src/widgets/../core/../misc/../font/../misc/lv_area.h ****     LV_DIR_TOP      = (1 << 2),
  93:Middlewares/lvgl/src/widgets/../core/../misc/../font/../misc/lv_area.h ****     LV_DIR_BOTTOM   = (1 << 3),
  94:Middlewares/lvgl/src/widgets/../core/../misc/../font/../misc/lv_area.h ****     LV_DIR_HOR      = LV_DIR_LEFT | LV_DIR_RIGHT,
  95:Middlewares/lvgl/src/widgets/../core/../misc/../font/../misc/lv_area.h ****     LV_DIR_VER      = LV_DIR_TOP | LV_DIR_BOTTOM,
  96:Middlewares/lvgl/src/widgets/../core/../misc/../font/../misc/lv_area.h ****     LV_DIR_ALL      = LV_DIR_HOR | LV_DIR_VER,
  97:Middlewares/lvgl/src/widgets/../core/../misc/../font/../misc/lv_area.h **** };
  98:Middlewares/lvgl/src/widgets/../core/../misc/../font/../misc/lv_area.h **** 
  99:Middlewares/lvgl/src/widgets/../core/../misc/../font/../misc/lv_area.h **** typedef uint8_t lv_dir_t;
 100:Middlewares/lvgl/src/widgets/../core/../misc/../font/../misc/lv_area.h **** 
 101:Middlewares/lvgl/src/widgets/../core/../misc/../font/../misc/lv_area.h **** /**********************
 102:Middlewares/lvgl/src/widgets/../core/../misc/../font/../misc/lv_area.h ****  * GLOBAL PROTOTYPES
 103:Middlewares/lvgl/src/widgets/../core/../misc/../font/../misc/lv_area.h ****  **********************/
 104:Middlewares/lvgl/src/widgets/../core/../misc/../font/../misc/lv_area.h **** 
 105:Middlewares/lvgl/src/widgets/../core/../misc/../font/../misc/lv_area.h **** /**
 106:Middlewares/lvgl/src/widgets/../core/../misc/../font/../misc/lv_area.h ****  * Initialize an area
 107:Middlewares/lvgl/src/widgets/../core/../misc/../font/../misc/lv_area.h ****  * @param area_p pointer to an area
 108:Middlewares/lvgl/src/widgets/../core/../misc/../font/../misc/lv_area.h ****  * @param x1 left coordinate of the area
 109:Middlewares/lvgl/src/widgets/../core/../misc/../font/../misc/lv_area.h ****  * @param y1 top coordinate of the area
 110:Middlewares/lvgl/src/widgets/../core/../misc/../font/../misc/lv_area.h ****  * @param x2 right coordinate of the area
 111:Middlewares/lvgl/src/widgets/../core/../misc/../font/../misc/lv_area.h ****  * @param y2 bottom coordinate of the area
 112:Middlewares/lvgl/src/widgets/../core/../misc/../font/../misc/lv_area.h ****  */
 113:Middlewares/lvgl/src/widgets/../core/../misc/../font/../misc/lv_area.h **** void lv_area_set(lv_area_t * area_p, lv_coord_t x1, lv_coord_t y1, lv_coord_t x2, lv_coord_t y2);
 114:Middlewares/lvgl/src/widgets/../core/../misc/../font/../misc/lv_area.h **** 
 115:Middlewares/lvgl/src/widgets/../core/../misc/../font/../misc/lv_area.h **** /**
 116:Middlewares/lvgl/src/widgets/../core/../misc/../font/../misc/lv_area.h ****  * Copy an area
 117:Middlewares/lvgl/src/widgets/../core/../misc/../font/../misc/lv_area.h ****  * @param dest pointer to the destination area
 118:Middlewares/lvgl/src/widgets/../core/../misc/../font/../misc/lv_area.h ****  * @param src pointer to the source area
 119:Middlewares/lvgl/src/widgets/../core/../misc/../font/../misc/lv_area.h ****  */
 120:Middlewares/lvgl/src/widgets/../core/../misc/../font/../misc/lv_area.h **** inline static void lv_area_copy(lv_area_t * dest, const lv_area_t * src)
 516              		.loc 3 120 20 view .LVU153
 517              	.LBB97:
 121:Middlewares/lvgl/src/widgets/../core/../misc/../font/../misc/lv_area.h **** {
 122:Middlewares/lvgl/src/widgets/../core/../misc/../font/../misc/lv_area.h ****     dest->x1 = src->x1;
 518              		.loc 3 122 5 view .LVU154
 519              		.loc 3 122 19 is_stmt 0 view .LVU155
 520 0096 BDF9B830 		ldrsh	r3, [sp, #184]
 521              		.loc 3 122 14 view .LVU156
 522 009a A4F86830 		strh	r3, [r4, #104]	@ movhi
 123:Middlewares/lvgl/src/widgets/../core/../misc/../font/../misc/lv_area.h ****     dest->y1 = src->y1;
 523              		.loc 3 123 5 is_stmt 1 view .LVU157
ARM GAS  /tmp/cc3htL3m.s 			page 25


 524              		.loc 3 123 19 is_stmt 0 view .LVU158
 525 009e BDF9BA30 		ldrsh	r3, [sp, #186]
 526              		.loc 3 123 14 view .LVU159
 527 00a2 A4F86A30 		strh	r3, [r4, #106]	@ movhi
 124:Middlewares/lvgl/src/widgets/../core/../misc/../font/../misc/lv_area.h ****     dest->x2 = src->x2;
 528              		.loc 3 124 5 is_stmt 1 view .LVU160
 529              		.loc 3 124 19 is_stmt 0 view .LVU161
 530 00a6 BDF9BC30 		ldrsh	r3, [sp, #188]
 531              		.loc 3 124 14 view .LVU162
 532 00aa A4F86C30 		strh	r3, [r4, #108]	@ movhi
 125:Middlewares/lvgl/src/widgets/../core/../misc/../font/../misc/lv_area.h ****     dest->y2 = src->y2;
 533              		.loc 3 125 5 is_stmt 1 view .LVU163
 534              		.loc 3 125 19 is_stmt 0 view .LVU164
 535 00ae BDF9BE30 		ldrsh	r3, [sp, #190]
 536              		.loc 3 125 14 view .LVU165
 537 00b2 A4F86E30 		strh	r3, [r4, #110]	@ movhi
 538              	.LVL56:
 539              		.loc 3 125 14 view .LVU166
 540              	.LBE97:
 541              	.LBE96:
 373:Middlewares/lvgl/src/widgets/lv_slider.c ****     lv_obj_draw_dsc_init(&dsc, clip_area);
 542              		.loc 1 373 5 is_stmt 1 view .LVU167
 374:Middlewares/lvgl/src/widgets/lv_slider.c ****     dsc.part = LV_PART_KNOB;
 543              		.loc 1 374 5 view .LVU168
 544 00b6 3946     		mov	r1, r7
 545 00b8 0FA8     		add	r0, sp, #60
 546 00ba FFF7FEFF 		bl	lv_obj_draw_dsc_init
 547              	.LVL57:
 375:Middlewares/lvgl/src/widgets/lv_slider.c ****     dsc.id = 0;
 548              		.loc 1 375 5 view .LVU169
 375:Middlewares/lvgl/src/widgets/lv_slider.c ****     dsc.id = 0;
 549              		.loc 1 375 14 is_stmt 0 view .LVU170
 550 00be 4FF44033 		mov	r3, #196608
 551 00c2 1C93     		str	r3, [sp, #112]
 376:Middlewares/lvgl/src/widgets/lv_slider.c ****     dsc.draw_area = &slider->right_knob_area;
 552              		.loc 1 376 5 is_stmt 1 view .LVU171
 376:Middlewares/lvgl/src/widgets/lv_slider.c ****     dsc.draw_area = &slider->right_knob_area;
 553              		.loc 1 376 12 is_stmt 0 view .LVU172
 554 00c4 0023     		movs	r3, #0
 555 00c6 1D93     		str	r3, [sp, #116]
 377:Middlewares/lvgl/src/widgets/lv_slider.c ****     dsc.rect_dsc = &knob_rect_dsc;
 556              		.loc 1 377 5 is_stmt 1 view .LVU173
 377:Middlewares/lvgl/src/widgets/lv_slider.c ****     dsc.rect_dsc = &knob_rect_dsc;
 557              		.loc 1 377 19 is_stmt 0 view .LVU174
 558 00c8 CDF840A0 		str	r10, [sp, #64]
 378:Middlewares/lvgl/src/widgets/lv_slider.c **** 
 559              		.loc 1 378 5 is_stmt 1 view .LVU175
 378:Middlewares/lvgl/src/widgets/lv_slider.c **** 
 560              		.loc 1 378 18 is_stmt 0 view .LVU176
 561 00cc CDF84480 		str	r8, [sp, #68]
 380:Middlewares/lvgl/src/widgets/lv_slider.c ****         lv_event_send(obj, LV_EVENT_DRAW_PART_BEGIN, &dsc);
 562              		.loc 1 380 5 is_stmt 1 view .LVU177
 563              	.LVL58:
 564              	.LBB98:
 565              	.LBI98:
 566              		.file 4 "Middlewares/lvgl/src/widgets/lv_slider.h"
   1:Middlewares/lvgl/src/widgets/lv_slider.h **** /**
ARM GAS  /tmp/cc3htL3m.s 			page 26


   2:Middlewares/lvgl/src/widgets/lv_slider.h ****  * @file lv_slider.h
   3:Middlewares/lvgl/src/widgets/lv_slider.h ****  *
   4:Middlewares/lvgl/src/widgets/lv_slider.h ****  */
   5:Middlewares/lvgl/src/widgets/lv_slider.h **** 
   6:Middlewares/lvgl/src/widgets/lv_slider.h **** #ifndef LV_SLIDER_H
   7:Middlewares/lvgl/src/widgets/lv_slider.h **** #define LV_SLIDER_H
   8:Middlewares/lvgl/src/widgets/lv_slider.h **** 
   9:Middlewares/lvgl/src/widgets/lv_slider.h **** #ifdef __cplusplus
  10:Middlewares/lvgl/src/widgets/lv_slider.h **** extern "C" {
  11:Middlewares/lvgl/src/widgets/lv_slider.h **** #endif
  12:Middlewares/lvgl/src/widgets/lv_slider.h **** 
  13:Middlewares/lvgl/src/widgets/lv_slider.h **** /*********************
  14:Middlewares/lvgl/src/widgets/lv_slider.h ****  *      INCLUDES
  15:Middlewares/lvgl/src/widgets/lv_slider.h ****  *********************/
  16:Middlewares/lvgl/src/widgets/lv_slider.h **** #include "../lv_conf_internal.h"
  17:Middlewares/lvgl/src/widgets/lv_slider.h **** 
  18:Middlewares/lvgl/src/widgets/lv_slider.h **** #if LV_USE_SLIDER != 0
  19:Middlewares/lvgl/src/widgets/lv_slider.h **** 
  20:Middlewares/lvgl/src/widgets/lv_slider.h **** /*Testing of dependencies*/
  21:Middlewares/lvgl/src/widgets/lv_slider.h **** #if LV_USE_BAR == 0
  22:Middlewares/lvgl/src/widgets/lv_slider.h **** #error "lv_slider: lv_bar is required. Enable it in lv_conf.h (LV_USE_BAR 1)"
  23:Middlewares/lvgl/src/widgets/lv_slider.h **** #endif
  24:Middlewares/lvgl/src/widgets/lv_slider.h **** 
  25:Middlewares/lvgl/src/widgets/lv_slider.h **** #include "../core/lv_obj.h"
  26:Middlewares/lvgl/src/widgets/lv_slider.h **** #include "lv_bar.h"
  27:Middlewares/lvgl/src/widgets/lv_slider.h **** 
  28:Middlewares/lvgl/src/widgets/lv_slider.h **** /*********************
  29:Middlewares/lvgl/src/widgets/lv_slider.h ****  *      DEFINES
  30:Middlewares/lvgl/src/widgets/lv_slider.h ****  *********************/
  31:Middlewares/lvgl/src/widgets/lv_slider.h **** 
  32:Middlewares/lvgl/src/widgets/lv_slider.h **** /**********************
  33:Middlewares/lvgl/src/widgets/lv_slider.h ****  *      TYPEDEFS
  34:Middlewares/lvgl/src/widgets/lv_slider.h ****  **********************/
  35:Middlewares/lvgl/src/widgets/lv_slider.h **** 
  36:Middlewares/lvgl/src/widgets/lv_slider.h **** enum {
  37:Middlewares/lvgl/src/widgets/lv_slider.h ****     LV_SLIDER_MODE_NORMAL = LV_BAR_MODE_NORMAL,
  38:Middlewares/lvgl/src/widgets/lv_slider.h ****     LV_SLIDER_MODE_SYMMETRICAL = LV_BAR_MODE_SYMMETRICAL,
  39:Middlewares/lvgl/src/widgets/lv_slider.h ****     LV_SLIDER_MODE_RANGE = LV_BAR_MODE_RANGE
  40:Middlewares/lvgl/src/widgets/lv_slider.h **** };
  41:Middlewares/lvgl/src/widgets/lv_slider.h **** typedef uint8_t lv_slider_mode_t;
  42:Middlewares/lvgl/src/widgets/lv_slider.h **** 
  43:Middlewares/lvgl/src/widgets/lv_slider.h **** typedef struct {
  44:Middlewares/lvgl/src/widgets/lv_slider.h ****     lv_bar_t bar;       /*Add the ancestor's type first*/
  45:Middlewares/lvgl/src/widgets/lv_slider.h ****     lv_area_t left_knob_area;
  46:Middlewares/lvgl/src/widgets/lv_slider.h ****     lv_area_t right_knob_area;
  47:Middlewares/lvgl/src/widgets/lv_slider.h ****     int32_t * value_to_set; /*Which bar value to set*/
  48:Middlewares/lvgl/src/widgets/lv_slider.h ****     uint8_t dragging : 1;       /*1: the slider is being dragged*/
  49:Middlewares/lvgl/src/widgets/lv_slider.h ****     uint8_t left_knob_focus : 1; /*1: with encoder now the right knob can be adjusted*/
  50:Middlewares/lvgl/src/widgets/lv_slider.h **** }lv_slider_t;
  51:Middlewares/lvgl/src/widgets/lv_slider.h **** 
  52:Middlewares/lvgl/src/widgets/lv_slider.h **** extern const lv_obj_class_t lv_slider_class;
  53:Middlewares/lvgl/src/widgets/lv_slider.h **** 
  54:Middlewares/lvgl/src/widgets/lv_slider.h **** /**********************
  55:Middlewares/lvgl/src/widgets/lv_slider.h ****  * GLOBAL PROTOTYPES
  56:Middlewares/lvgl/src/widgets/lv_slider.h ****  **********************/
  57:Middlewares/lvgl/src/widgets/lv_slider.h **** 
  58:Middlewares/lvgl/src/widgets/lv_slider.h **** /**
ARM GAS  /tmp/cc3htL3m.s 			page 27


  59:Middlewares/lvgl/src/widgets/lv_slider.h ****  * Create a slider objects
  60:Middlewares/lvgl/src/widgets/lv_slider.h ****  * @param parent    pointer to an object, it will be the parent of the new slider.
  61:Middlewares/lvgl/src/widgets/lv_slider.h ****  * @return          pointer to the created slider
  62:Middlewares/lvgl/src/widgets/lv_slider.h ****  */
  63:Middlewares/lvgl/src/widgets/lv_slider.h **** lv_obj_t * lv_slider_create(lv_obj_t * parent);
  64:Middlewares/lvgl/src/widgets/lv_slider.h **** 
  65:Middlewares/lvgl/src/widgets/lv_slider.h **** /*=====================
  66:Middlewares/lvgl/src/widgets/lv_slider.h ****  * Setter functions
  67:Middlewares/lvgl/src/widgets/lv_slider.h ****  *====================*/
  68:Middlewares/lvgl/src/widgets/lv_slider.h **** 
  69:Middlewares/lvgl/src/widgets/lv_slider.h **** /**
  70:Middlewares/lvgl/src/widgets/lv_slider.h ****  * Set a new value on the slider
  71:Middlewares/lvgl/src/widgets/lv_slider.h ****  * @param obj       pointer to a slider object
  72:Middlewares/lvgl/src/widgets/lv_slider.h ****  * @param value     the new value
  73:Middlewares/lvgl/src/widgets/lv_slider.h ****  * @param anim      LV_ANIM_ON: set the value with an animation; LV_ANIM_OFF: change the value imme
  74:Middlewares/lvgl/src/widgets/lv_slider.h ****  */
  75:Middlewares/lvgl/src/widgets/lv_slider.h **** static inline void lv_slider_set_value(lv_obj_t * obj, int32_t value, lv_anim_enable_t anim)
  76:Middlewares/lvgl/src/widgets/lv_slider.h **** {
  77:Middlewares/lvgl/src/widgets/lv_slider.h ****     lv_bar_set_value(obj, value, anim);
  78:Middlewares/lvgl/src/widgets/lv_slider.h **** }
  79:Middlewares/lvgl/src/widgets/lv_slider.h **** 
  80:Middlewares/lvgl/src/widgets/lv_slider.h **** /**
  81:Middlewares/lvgl/src/widgets/lv_slider.h ****  * Set a new value for the left knob of a slider
  82:Middlewares/lvgl/src/widgets/lv_slider.h ****  * @param obj       pointer to a slider object
  83:Middlewares/lvgl/src/widgets/lv_slider.h ****  * @param value     new value
  84:Middlewares/lvgl/src/widgets/lv_slider.h ****  * @param anim      LV_ANIM_ON: set the value with an animation; LV_ANIM_OFF: change the value imme
  85:Middlewares/lvgl/src/widgets/lv_slider.h ****  */
  86:Middlewares/lvgl/src/widgets/lv_slider.h **** static inline void lv_slider_set_left_value(lv_obj_t * obj, int32_t value, lv_anim_enable_t anim)
  87:Middlewares/lvgl/src/widgets/lv_slider.h **** {
  88:Middlewares/lvgl/src/widgets/lv_slider.h ****     lv_bar_set_start_value(obj, value, anim);
  89:Middlewares/lvgl/src/widgets/lv_slider.h **** }
  90:Middlewares/lvgl/src/widgets/lv_slider.h **** 
  91:Middlewares/lvgl/src/widgets/lv_slider.h **** /**
  92:Middlewares/lvgl/src/widgets/lv_slider.h ****  * Set minimum and the maximum values of a bar
  93:Middlewares/lvgl/src/widgets/lv_slider.h ****  * @param obj       pointer to the slider object
  94:Middlewares/lvgl/src/widgets/lv_slider.h ****  * @param min       minimum value
  95:Middlewares/lvgl/src/widgets/lv_slider.h ****  * @param max       maximum value
  96:Middlewares/lvgl/src/widgets/lv_slider.h ****  */
  97:Middlewares/lvgl/src/widgets/lv_slider.h **** static inline void lv_slider_set_range(lv_obj_t * obj, int32_t min, int32_t max)
  98:Middlewares/lvgl/src/widgets/lv_slider.h **** {
  99:Middlewares/lvgl/src/widgets/lv_slider.h ****     lv_bar_set_range(obj, min, max);
 100:Middlewares/lvgl/src/widgets/lv_slider.h **** }
 101:Middlewares/lvgl/src/widgets/lv_slider.h **** 
 102:Middlewares/lvgl/src/widgets/lv_slider.h **** /**
 103:Middlewares/lvgl/src/widgets/lv_slider.h ****  * Set the mode of slider.
 104:Middlewares/lvgl/src/widgets/lv_slider.h ****  * @param obj       pointer to a slider object
 105:Middlewares/lvgl/src/widgets/lv_slider.h ****  * @param mode      the mode of the slider. See ::lv_slider_mode_t
 106:Middlewares/lvgl/src/widgets/lv_slider.h ****  */
 107:Middlewares/lvgl/src/widgets/lv_slider.h **** static inline void lv_slider_set_mode(lv_obj_t * obj, lv_slider_mode_t mode)
 108:Middlewares/lvgl/src/widgets/lv_slider.h **** {
 109:Middlewares/lvgl/src/widgets/lv_slider.h ****     lv_bar_set_mode(obj, (lv_bar_mode_t)mode);
 110:Middlewares/lvgl/src/widgets/lv_slider.h **** }
 111:Middlewares/lvgl/src/widgets/lv_slider.h **** 
 112:Middlewares/lvgl/src/widgets/lv_slider.h **** /*=====================
 113:Middlewares/lvgl/src/widgets/lv_slider.h ****  * Getter functions
 114:Middlewares/lvgl/src/widgets/lv_slider.h ****  *====================*/
 115:Middlewares/lvgl/src/widgets/lv_slider.h **** 
ARM GAS  /tmp/cc3htL3m.s 			page 28


 116:Middlewares/lvgl/src/widgets/lv_slider.h **** /**
 117:Middlewares/lvgl/src/widgets/lv_slider.h ****  * Get the value of the main knob of a slider
 118:Middlewares/lvgl/src/widgets/lv_slider.h ****  * @param obj       pointer to a slider object
 119:Middlewares/lvgl/src/widgets/lv_slider.h ****  * @return          the value of the main knob of the slider
 120:Middlewares/lvgl/src/widgets/lv_slider.h ****  */
 121:Middlewares/lvgl/src/widgets/lv_slider.h **** static inline int32_t lv_slider_get_value(const lv_obj_t * obj)
 122:Middlewares/lvgl/src/widgets/lv_slider.h **** {
 123:Middlewares/lvgl/src/widgets/lv_slider.h ****     return lv_bar_get_value(obj);
 124:Middlewares/lvgl/src/widgets/lv_slider.h **** }
 125:Middlewares/lvgl/src/widgets/lv_slider.h **** 
 126:Middlewares/lvgl/src/widgets/lv_slider.h **** /**
 127:Middlewares/lvgl/src/widgets/lv_slider.h ****  * Get the value of the left knob of a slider
 128:Middlewares/lvgl/src/widgets/lv_slider.h ****  * @param obj       pointer to a slider object
 129:Middlewares/lvgl/src/widgets/lv_slider.h ****  * @return          the value of the left knob of the slider
 130:Middlewares/lvgl/src/widgets/lv_slider.h ****  */
 131:Middlewares/lvgl/src/widgets/lv_slider.h **** static inline int32_t lv_slider_get_left_value(const lv_obj_t * obj)
 132:Middlewares/lvgl/src/widgets/lv_slider.h **** {
 133:Middlewares/lvgl/src/widgets/lv_slider.h ****     return lv_bar_get_start_value(obj);
 134:Middlewares/lvgl/src/widgets/lv_slider.h **** }
 135:Middlewares/lvgl/src/widgets/lv_slider.h **** 
 136:Middlewares/lvgl/src/widgets/lv_slider.h **** /**
 137:Middlewares/lvgl/src/widgets/lv_slider.h ****  * Get the minimum value of a slider
 138:Middlewares/lvgl/src/widgets/lv_slider.h ****  * @param obj       pointer to a slider object
 139:Middlewares/lvgl/src/widgets/lv_slider.h ****  * @return          the minimum value of the slider
 140:Middlewares/lvgl/src/widgets/lv_slider.h ****  */
 141:Middlewares/lvgl/src/widgets/lv_slider.h **** static inline int32_t lv_slider_get_min_value(const lv_obj_t * obj)
 142:Middlewares/lvgl/src/widgets/lv_slider.h **** {
 143:Middlewares/lvgl/src/widgets/lv_slider.h ****     return lv_bar_get_min_value(obj);
 144:Middlewares/lvgl/src/widgets/lv_slider.h **** }
 145:Middlewares/lvgl/src/widgets/lv_slider.h **** 
 146:Middlewares/lvgl/src/widgets/lv_slider.h **** /**
 147:Middlewares/lvgl/src/widgets/lv_slider.h ****  * Get the maximum value of a slider
 148:Middlewares/lvgl/src/widgets/lv_slider.h ****  * @param obj       pointer to a slider object
 149:Middlewares/lvgl/src/widgets/lv_slider.h ****  * @return          the maximum value of the slider
 150:Middlewares/lvgl/src/widgets/lv_slider.h ****  */
 151:Middlewares/lvgl/src/widgets/lv_slider.h **** static inline int32_t lv_slider_get_max_value(const lv_obj_t * obj)
 152:Middlewares/lvgl/src/widgets/lv_slider.h **** {
 153:Middlewares/lvgl/src/widgets/lv_slider.h ****     return lv_bar_get_max_value(obj);
 154:Middlewares/lvgl/src/widgets/lv_slider.h **** }
 155:Middlewares/lvgl/src/widgets/lv_slider.h **** 
 156:Middlewares/lvgl/src/widgets/lv_slider.h **** /**
 157:Middlewares/lvgl/src/widgets/lv_slider.h ****  * Give the slider is being dragged or not
 158:Middlewares/lvgl/src/widgets/lv_slider.h ****  * @param obj       pointer to a slider object
 159:Middlewares/lvgl/src/widgets/lv_slider.h ****  * @return          true: drag in progress false: not dragged
 160:Middlewares/lvgl/src/widgets/lv_slider.h ****  */
 161:Middlewares/lvgl/src/widgets/lv_slider.h **** bool lv_slider_is_dragged(const lv_obj_t * obj);
 162:Middlewares/lvgl/src/widgets/lv_slider.h **** 
 163:Middlewares/lvgl/src/widgets/lv_slider.h **** /**
 164:Middlewares/lvgl/src/widgets/lv_slider.h ****  * Get the mode of the slider.
 165:Middlewares/lvgl/src/widgets/lv_slider.h ****  * @param obj       pointer to a bar object
 166:Middlewares/lvgl/src/widgets/lv_slider.h ****  * @return          see ::lv_slider_mode_t
 167:Middlewares/lvgl/src/widgets/lv_slider.h ****  */
 168:Middlewares/lvgl/src/widgets/lv_slider.h **** static inline lv_slider_mode_t lv_slider_get_mode(lv_obj_t * slider)
 567              		.loc 4 168 32 view .LVU178
 568              	.LBB99:
 169:Middlewares/lvgl/src/widgets/lv_slider.h **** {
 170:Middlewares/lvgl/src/widgets/lv_slider.h ****     lv_bar_mode_t mode = lv_bar_get_mode(slider);
ARM GAS  /tmp/cc3htL3m.s 			page 29


 569              		.loc 4 170 5 view .LVU179
 570              		.loc 4 170 26 is_stmt 0 view .LVU180
 571 00d0 2046     		mov	r0, r4
 572 00d2 FFF7FEFF 		bl	lv_bar_get_mode
 573              	.LVL59:
 171:Middlewares/lvgl/src/widgets/lv_slider.h ****     if(mode == LV_BAR_MODE_SYMMETRICAL) return LV_SLIDER_MODE_SYMMETRICAL;
 574              		.loc 4 171 5 is_stmt 1 view .LVU181
 575              		.loc 4 171 7 is_stmt 0 view .LVU182
 576 00d6 0128     		cmp	r0, #1
 577 00d8 02D0     		beq	.L33
 172:Middlewares/lvgl/src/widgets/lv_slider.h ****     else if(mode == LV_BAR_MODE_RANGE) return LV_SLIDER_MODE_RANGE;
 578              		.loc 4 172 10 is_stmt 1 view .LVU183
 579              		.loc 4 172 12 is_stmt 0 view .LVU184
 580 00da 0228     		cmp	r0, #2
 581 00dc 00D0     		beq	.L33
 173:Middlewares/lvgl/src/widgets/lv_slider.h ****     else return LV_SLIDER_MODE_NORMAL;
 582              		.loc 4 173 17 view .LVU185
 583 00de 0020     		movs	r0, #0
 584              	.LVL60:
 585              	.L33:
 586              		.loc 4 173 17 view .LVU186
 587              	.LBE99:
 588              	.LBE98:
 380:Middlewares/lvgl/src/widgets/lv_slider.c ****         lv_event_send(obj, LV_EVENT_DRAW_PART_BEGIN, &dsc);
 589              		.loc 1 380 7 view .LVU187
 590 00e0 0228     		cmp	r0, #2
 591 00e2 6DD0     		beq	.L34
 381:Middlewares/lvgl/src/widgets/lv_slider.c ****         lv_draw_rect(&slider->right_knob_area, clip_area, &knob_rect_dsc);
 592              		.loc 1 381 9 is_stmt 1 view .LVU188
 593 00e4 0FAA     		add	r2, sp, #60
 594 00e6 1A21     		movs	r1, #26
 595 00e8 2046     		mov	r0, r4
 596 00ea FFF7FEFF 		bl	lv_event_send
 597              	.LVL61:
 382:Middlewares/lvgl/src/widgets/lv_slider.c ****         lv_event_send(obj, LV_EVENT_DRAW_PART_END, &dsc);
 598              		.loc 1 382 9 view .LVU189
 599 00ee 21AA     		add	r2, sp, #132
 600 00f0 3946     		mov	r1, r7
 601 00f2 5046     		mov	r0, r10
 602 00f4 FFF7FEFF 		bl	lv_draw_rect
 603              	.LVL62:
 383:Middlewares/lvgl/src/widgets/lv_slider.c ****     } else {
 604              		.loc 1 383 9 view .LVU190
 605 00f8 0FAA     		add	r2, sp, #60
 606 00fa 1B21     		movs	r1, #27
 607 00fc 2046     		mov	r0, r4
 608 00fe FFF7FEFF 		bl	lv_event_send
 609              	.LVL63:
 610              	.L12:
 412:Middlewares/lvgl/src/widgets/lv_slider.c **** 
 611              		.loc 1 412 1 is_stmt 0 view .LVU191
 612 0102 31B0     		add	sp, sp, #196
 613              	.LCFI4:
 614              		.cfi_remember_state
 615              		.cfi_def_cfa_offset 36
 616              		@ sp needed
 617 0104 BDE8F08F 		pop	{r4, r5, r6, r7, r8, r9, r10, fp, pc}
ARM GAS  /tmp/cc3htL3m.s 			page 30


 618              	.LVL64:
 619              	.L42:
 620              	.LCFI5:
 621              		.cfi_restore_state
 331:Middlewares/lvgl/src/widgets/lv_slider.c ****     bool sym = false;
 622              		.loc 1 331 16 view .LVU192
 623 0108 0196     		str	r6, [sp, #4]
 624 010a 9CE7     		b	.L13
 625              	.LVL65:
 626              	.L48:
 333:Middlewares/lvgl/src/widgets/lv_slider.c **** 
 627              		.loc 1 333 66 discriminator 1 view .LVU193
 628 010c A36A     		ldr	r3, [r4, #40]
 333:Middlewares/lvgl/src/widgets/lv_slider.c **** 
 629              		.loc 1 333 52 discriminator 1 view .LVU194
 630 010e 002B     		cmp	r3, #0
 631 0110 01DB     		blt	.L50
 332:Middlewares/lvgl/src/widgets/lv_slider.c ****     if(slider->bar.mode == LV_BAR_MODE_SYMMETRICAL && slider->bar.min_value < 0 && slider->bar.max_
 632              		.loc 1 332 10 view .LVU195
 633 0112 0023     		movs	r3, #0
 634 0114 9EE7     		b	.L14
 635              	.L50:
 333:Middlewares/lvgl/src/widgets/lv_slider.c **** 
 636              		.loc 1 333 95 discriminator 2 view .LVU196
 637 0116 E36A     		ldr	r3, [r4, #44]
 333:Middlewares/lvgl/src/widgets/lv_slider.c **** 
 638              		.loc 1 333 81 discriminator 2 view .LVU197
 639 0118 002B     		cmp	r3, #0
 640 011a 01DD     		ble	.L51
 333:Middlewares/lvgl/src/widgets/lv_slider.c **** 
 641              		.loc 1 333 115 view .LVU198
 642 011c 0123     		movs	r3, #1
 643 011e 99E7     		b	.L14
 644              	.L51:
 332:Middlewares/lvgl/src/widgets/lv_slider.c ****     if(slider->bar.mode == LV_BAR_MODE_SYMMETRICAL && slider->bar.min_value < 0 && slider->bar.max_
 645              		.loc 1 332 10 view .LVU199
 646 0120 0023     		movs	r3, #0
 647 0122 97E7     		b	.L14
 648              	.LVL66:
 649              	.L49:
 340:Middlewares/lvgl/src/widgets/lv_slider.c ****         }
 650              		.loc 1 340 26 discriminator 3 view .LVU200
 651 0124 B4F93430 		ldrsh	r3, [r4, #52]
 652              	.LVL67:
 340:Middlewares/lvgl/src/widgets/lv_slider.c ****         }
 653              		.loc 1 340 26 discriminator 3 view .LVU201
 654 0128 A0E7     		b	.L19
 655              	.LVL68:
 656              	.L17:
 340:Middlewares/lvgl/src/widgets/lv_slider.c ****         }
 657              		.loc 1 340 26 discriminator 2 view .LVU202
 658 012a B9F1010F 		cmp	r9, #1
 659 012e 02D0     		beq	.L52
 340:Middlewares/lvgl/src/widgets/lv_slider.c ****         }
 660              		.loc 1 340 26 discriminator 9 view .LVU203
 661 0130 B4F93A30 		ldrsh	r3, [r4, #58]
 662              	.LVL69:
ARM GAS  /tmp/cc3htL3m.s 			page 31


 340:Middlewares/lvgl/src/widgets/lv_slider.c ****         }
 663              		.loc 1 340 26 discriminator 9 view .LVU204
 664 0134 9AE7     		b	.L19
 665              	.LVL70:
 666              	.L52:
 340:Middlewares/lvgl/src/widgets/lv_slider.c ****         }
 667              		.loc 1 340 26 discriminator 8 view .LVU205
 668 0136 B4F93630 		ldrsh	r3, [r4, #54]
 669              	.LVL71:
 340:Middlewares/lvgl/src/widgets/lv_slider.c ****         }
 670              		.loc 1 340 26 discriminator 8 view .LVU206
 671 013a 97E7     		b	.L19
 672              	.LVL72:
 673              	.L16:
 343:Middlewares/lvgl/src/widgets/lv_slider.c ****                 knob_area.x1 = LV_SLIDER_KNOB_COORD(hor, base_dir == LV_BASE_DIR_RTL, slider->bar.i
 674              		.loc 1 343 13 is_stmt 1 view .LVU207
 343:Middlewares/lvgl/src/widgets/lv_slider.c ****                 knob_area.x1 = LV_SLIDER_KNOB_COORD(hor, base_dir == LV_BASE_DIR_RTL, slider->bar.i
 675              		.loc 1 343 27 is_stmt 0 view .LVU208
 676 013c 636A     		ldr	r3, [r4, #36]
 677              	.LVL73:
 343:Middlewares/lvgl/src/widgets/lv_slider.c ****                 knob_area.x1 = LV_SLIDER_KNOB_COORD(hor, base_dir == LV_BASE_DIR_RTL, slider->bar.i
 678              		.loc 1 343 15 view .LVU209
 679 013e 002B     		cmp	r3, #0
 680 0140 15DB     		blt	.L22
 344:Middlewares/lvgl/src/widgets/lv_slider.c ****             }
 681              		.loc 1 344 17 is_stmt 1 view .LVU210
 344:Middlewares/lvgl/src/widgets/lv_slider.c ****             }
 682              		.loc 1 344 30 is_stmt 0 view .LVU211
 683 0142 AE42     		cmp	r6, r5
 684 0144 0ADB     		blt	.L23
 344:Middlewares/lvgl/src/widgets/lv_slider.c ****             }
 685              		.loc 1 344 30 discriminator 1 view .LVU212
 686 0146 B9F1010F 		cmp	r9, #1
 687 014a 04D0     		beq	.L53
 344:Middlewares/lvgl/src/widgets/lv_slider.c ****             }
 688              		.loc 1 344 30 discriminator 4 view .LVU213
 689 014c B4F93830 		ldrsh	r3, [r4, #56]
 690              	.L25:
 344:Middlewares/lvgl/src/widgets/lv_slider.c ****             }
 691              		.loc 1 344 30 discriminator 12 view .LVU214
 692 0150 ADF8B830 		strh	r3, [sp, #184]	@ movhi
 693 0154 8CE7     		b	.L21
 694              	.L53:
 344:Middlewares/lvgl/src/widgets/lv_slider.c ****             }
 695              		.loc 1 344 30 discriminator 3 view .LVU215
 696 0156 B4F93430 		ldrsh	r3, [r4, #52]
 697 015a F9E7     		b	.L25
 698              	.L23:
 344:Middlewares/lvgl/src/widgets/lv_slider.c ****             }
 699              		.loc 1 344 30 discriminator 2 view .LVU216
 700 015c B9F1010F 		cmp	r9, #1
 701 0160 02D0     		beq	.L54
 344:Middlewares/lvgl/src/widgets/lv_slider.c ****             }
 702              		.loc 1 344 30 discriminator 9 view .LVU217
 703 0162 B4F93A30 		ldrsh	r3, [r4, #58]
 704 0166 F3E7     		b	.L25
 705              	.L54:
ARM GAS  /tmp/cc3htL3m.s 			page 32


 344:Middlewares/lvgl/src/widgets/lv_slider.c ****             }
 706              		.loc 1 344 30 discriminator 8 view .LVU218
 707 0168 B4F93630 		ldrsh	r3, [r4, #54]
 708 016c F0E7     		b	.L25
 709              	.L22:
 347:Middlewares/lvgl/src/widgets/lv_slider.c ****             }
 710              		.loc 1 347 17 is_stmt 1 view .LVU219
 347:Middlewares/lvgl/src/widgets/lv_slider.c ****             }
 711              		.loc 1 347 30 is_stmt 0 view .LVU220
 712 016e AE42     		cmp	r6, r5
 713 0170 0ADB     		blt	.L27
 347:Middlewares/lvgl/src/widgets/lv_slider.c ****             }
 714              		.loc 1 347 30 discriminator 1 view .LVU221
 715 0172 B9F1010F 		cmp	r9, #1
 716 0176 04D0     		beq	.L28
 347:Middlewares/lvgl/src/widgets/lv_slider.c ****             }
 717              		.loc 1 347 30 discriminator 3 view .LVU222
 718 0178 B4F93430 		ldrsh	r3, [r4, #52]
 719              	.L29:
 347:Middlewares/lvgl/src/widgets/lv_slider.c ****             }
 720              		.loc 1 347 30 discriminator 12 view .LVU223
 721 017c ADF8B830 		strh	r3, [sp, #184]	@ movhi
 722 0180 76E7     		b	.L21
 723              	.L28:
 347:Middlewares/lvgl/src/widgets/lv_slider.c ****             }
 724              		.loc 1 347 30 discriminator 4 view .LVU224
 725 0182 B4F93830 		ldrsh	r3, [r4, #56]
 726 0186 F9E7     		b	.L29
 727              	.L27:
 347:Middlewares/lvgl/src/widgets/lv_slider.c ****             }
 728              		.loc 1 347 30 discriminator 2 view .LVU225
 729 0188 B9F1010F 		cmp	r9, #1
 730 018c 02D0     		beq	.L30
 347:Middlewares/lvgl/src/widgets/lv_slider.c ****             }
 731              		.loc 1 347 30 discriminator 8 view .LVU226
 732 018e B4F93630 		ldrsh	r3, [r4, #54]
 733 0192 F3E7     		b	.L29
 734              	.L30:
 347:Middlewares/lvgl/src/widgets/lv_slider.c ****             }
 735              		.loc 1 347 30 discriminator 9 view .LVU227
 736 0194 B4F93A30 		ldrsh	r3, [r4, #58]
 737 0198 F0E7     		b	.L29
 738              	.LVL74:
 739              	.L15:
 353:Middlewares/lvgl/src/widgets/lv_slider.c ****             knob_area.y1 = slider->bar.indic_area.y1;
 740              		.loc 1 353 9 is_stmt 1 view .LVU228
 353:Middlewares/lvgl/src/widgets/lv_slider.c ****             knob_area.y1 = slider->bar.indic_area.y1;
 741              		.loc 1 353 11 is_stmt 0 view .LVU229
 742 019a 23B9     		cbnz	r3, .L31
 354:Middlewares/lvgl/src/widgets/lv_slider.c ****         }
 743              		.loc 1 354 13 is_stmt 1 view .LVU230
 354:Middlewares/lvgl/src/widgets/lv_slider.c ****         }
 744              		.loc 1 354 50 is_stmt 0 view .LVU231
 745 019c B4F93630 		ldrsh	r3, [r4, #54]
 746              	.LVL75:
 354:Middlewares/lvgl/src/widgets/lv_slider.c ****         }
 747              		.loc 1 354 26 view .LVU232
ARM GAS  /tmp/cc3htL3m.s 			page 33


 748 01a0 ADF8BA30 		strh	r3, [sp, #186]	@ movhi
 749 01a4 64E7     		b	.L21
 750              	.LVL76:
 751              	.L31:
 357:Middlewares/lvgl/src/widgets/lv_slider.c ****                 knob_area.y1 = slider->bar.indic_area.y1;
 752              		.loc 1 357 13 is_stmt 1 view .LVU233
 357:Middlewares/lvgl/src/widgets/lv_slider.c ****                 knob_area.y1 = slider->bar.indic_area.y1;
 753              		.loc 1 357 27 is_stmt 0 view .LVU234
 754 01a6 636A     		ldr	r3, [r4, #36]
 755              	.LVL77:
 357:Middlewares/lvgl/src/widgets/lv_slider.c ****                 knob_area.y1 = slider->bar.indic_area.y1;
 756              		.loc 1 357 15 view .LVU235
 757 01a8 002B     		cmp	r3, #0
 758 01aa 04DB     		blt	.L32
 358:Middlewares/lvgl/src/widgets/lv_slider.c ****             }
 759              		.loc 1 358 17 is_stmt 1 view .LVU236
 358:Middlewares/lvgl/src/widgets/lv_slider.c ****             }
 760              		.loc 1 358 54 is_stmt 0 view .LVU237
 761 01ac B4F93630 		ldrsh	r3, [r4, #54]
 358:Middlewares/lvgl/src/widgets/lv_slider.c ****             }
 762              		.loc 1 358 30 view .LVU238
 763 01b0 ADF8BA30 		strh	r3, [sp, #186]	@ movhi
 764 01b4 5CE7     		b	.L21
 765              	.L32:
 361:Middlewares/lvgl/src/widgets/lv_slider.c ****             }
 766              		.loc 1 361 17 is_stmt 1 view .LVU239
 361:Middlewares/lvgl/src/widgets/lv_slider.c ****             }
 767              		.loc 1 361 54 is_stmt 0 view .LVU240
 768 01b6 B4F93A30 		ldrsh	r3, [r4, #58]
 361:Middlewares/lvgl/src/widgets/lv_slider.c ****             }
 769              		.loc 1 361 30 view .LVU241
 770 01ba ADF8BA30 		strh	r3, [sp, #186]	@ movhi
 771 01be 57E7     		b	.L21
 772              	.LVL78:
 773              	.L34:
 774              	.LBB100:
 386:Middlewares/lvgl/src/widgets/lv_slider.c ****         lv_memcpy(&knob_rect_dsc_tmp, &knob_rect_dsc, sizeof(lv_draw_rect_dsc_t));
 775              		.loc 1 386 9 is_stmt 1 view .LVU242
 387:Middlewares/lvgl/src/widgets/lv_slider.c **** 
 776              		.loc 1 387 9 view .LVU243
 777 01c0 3422     		movs	r2, #52
 778 01c2 21A9     		add	r1, sp, #132
 779 01c4 02A8     		add	r0, sp, #8
 780 01c6 FFF7FEFF 		bl	lv_memcpy
 781              	.LVL79:
 389:Middlewares/lvgl/src/widgets/lv_slider.c ****         lv_draw_rect(&slider->right_knob_area, clip_area, &knob_rect_dsc);
 782              		.loc 1 389 9 view .LVU244
 783 01ca 0FAA     		add	r2, sp, #60
 784 01cc 1A21     		movs	r1, #26
 785 01ce 2046     		mov	r0, r4
 786 01d0 FFF7FEFF 		bl	lv_event_send
 787              	.LVL80:
 390:Middlewares/lvgl/src/widgets/lv_slider.c ****         lv_event_send(obj, LV_EVENT_DRAW_PART_END, &dsc);
 788              		.loc 1 390 9 view .LVU245
 789 01d4 21AA     		add	r2, sp, #132
 790 01d6 3946     		mov	r1, r7
 791 01d8 5046     		mov	r0, r10
ARM GAS  /tmp/cc3htL3m.s 			page 34


 792 01da FFF7FEFF 		bl	lv_draw_rect
 793              	.LVL81:
 391:Middlewares/lvgl/src/widgets/lv_slider.c **** 
 794              		.loc 1 391 9 view .LVU246
 795 01de 0FAA     		add	r2, sp, #60
 796 01e0 1B21     		movs	r1, #27
 797 01e2 2046     		mov	r0, r4
 798 01e4 FFF7FEFF 		bl	lv_event_send
 799              	.LVL82:
 394:Middlewares/lvgl/src/widgets/lv_slider.c ****             knob_area.x1 = LV_SLIDER_KNOB_COORD(hor, base_dir != LV_BASE_DIR_RTL, slider->bar.indic
 800              		.loc 1 394 9 view .LVU247
 394:Middlewares/lvgl/src/widgets/lv_slider.c ****             knob_area.x1 = LV_SLIDER_KNOB_COORD(hor, base_dir != LV_BASE_DIR_RTL, slider->bar.indic
 801              		.loc 1 394 11 is_stmt 0 view .LVU248
 802 01e8 AE42     		cmp	r6, r5
 803 01ea 45DB     		blt	.L36
 395:Middlewares/lvgl/src/widgets/lv_slider.c ****         }
 804              		.loc 1 395 13 is_stmt 1 view .LVU249
 395:Middlewares/lvgl/src/widgets/lv_slider.c ****         }
 805              		.loc 1 395 26 is_stmt 0 view .LVU250
 806 01ec 3BDB     		blt	.L37
 395:Middlewares/lvgl/src/widgets/lv_slider.c ****         }
 807              		.loc 1 395 26 discriminator 1 view .LVU251
 808 01ee B9F1010F 		cmp	r9, #1
 809 01f2 35D0     		beq	.L38
 395:Middlewares/lvgl/src/widgets/lv_slider.c ****         }
 810              		.loc 1 395 26 discriminator 3 view .LVU252
 811 01f4 B4F93430 		ldrsh	r3, [r4, #52]
 812              	.L39:
 395:Middlewares/lvgl/src/widgets/lv_slider.c ****         }
 813              		.loc 1 395 26 discriminator 12 view .LVU253
 814 01f8 ADF8B830 		strh	r3, [sp, #184]	@ movhi
 815              	.L41:
 400:Middlewares/lvgl/src/widgets/lv_slider.c ****         lv_area_copy(&slider->left_knob_area, &knob_area);
 816              		.loc 1 400 9 is_stmt 1 view .LVU254
 817 01fc 5B46     		mov	r3, fp
 818 01fe 019A     		ldr	r2, [sp, #4]
 819 0200 2EA9     		add	r1, sp, #184
 820 0202 2046     		mov	r0, r4
 821 0204 FFF7FEFF 		bl	position_knob
 822              	.LVL83:
 401:Middlewares/lvgl/src/widgets/lv_slider.c **** 
 823              		.loc 1 401 9 view .LVU255
 824 0208 04F16006 		add	r6, r4, #96
 825              	.LVL84:
 826              	.LBB101:
 827              	.LBI101:
 120:Middlewares/lvgl/src/widgets/../core/../misc/../font/../misc/lv_area.h **** {
 828              		.loc 3 120 20 view .LVU256
 829              	.LBB102:
 122:Middlewares/lvgl/src/widgets/../core/../misc/../font/../misc/lv_area.h ****     dest->y1 = src->y1;
 830              		.loc 3 122 5 view .LVU257
 122:Middlewares/lvgl/src/widgets/../core/../misc/../font/../misc/lv_area.h ****     dest->y1 = src->y1;
 831              		.loc 3 122 19 is_stmt 0 view .LVU258
 832 020c BDF9B830 		ldrsh	r3, [sp, #184]
 122:Middlewares/lvgl/src/widgets/../core/../misc/../font/../misc/lv_area.h ****     dest->y1 = src->y1;
 833              		.loc 3 122 14 view .LVU259
 834 0210 A4F86030 		strh	r3, [r4, #96]	@ movhi
ARM GAS  /tmp/cc3htL3m.s 			page 35


 123:Middlewares/lvgl/src/widgets/../core/../misc/../font/../misc/lv_area.h ****     dest->x2 = src->x2;
 835              		.loc 3 123 5 is_stmt 1 view .LVU260
 123:Middlewares/lvgl/src/widgets/../core/../misc/../font/../misc/lv_area.h ****     dest->x2 = src->x2;
 836              		.loc 3 123 19 is_stmt 0 view .LVU261
 837 0214 BDF9BA30 		ldrsh	r3, [sp, #186]
 123:Middlewares/lvgl/src/widgets/../core/../misc/../font/../misc/lv_area.h ****     dest->x2 = src->x2;
 838              		.loc 3 123 14 view .LVU262
 839 0218 A4F86230 		strh	r3, [r4, #98]	@ movhi
 124:Middlewares/lvgl/src/widgets/../core/../misc/../font/../misc/lv_area.h ****     dest->y2 = src->y2;
 840              		.loc 3 124 5 is_stmt 1 view .LVU263
 124:Middlewares/lvgl/src/widgets/../core/../misc/../font/../misc/lv_area.h ****     dest->y2 = src->y2;
 841              		.loc 3 124 19 is_stmt 0 view .LVU264
 842 021c BDF9BC30 		ldrsh	r3, [sp, #188]
 124:Middlewares/lvgl/src/widgets/../core/../misc/../font/../misc/lv_area.h ****     dest->y2 = src->y2;
 843              		.loc 3 124 14 view .LVU265
 844 0220 A4F86430 		strh	r3, [r4, #100]	@ movhi
 845              		.loc 3 125 5 is_stmt 1 view .LVU266
 846              		.loc 3 125 19 is_stmt 0 view .LVU267
 847 0224 BDF9BE30 		ldrsh	r3, [sp, #190]
 848              		.loc 3 125 14 view .LVU268
 849 0228 A4F86630 		strh	r3, [r4, #102]	@ movhi
 850              	.LVL85:
 851              		.loc 3 125 14 view .LVU269
 852              	.LBE102:
 853              	.LBE101:
 403:Middlewares/lvgl/src/widgets/lv_slider.c ****         dsc.draw_area = &slider->left_knob_area;
 854              		.loc 1 403 9 is_stmt 1 view .LVU270
 855 022c 21AD     		add	r5, sp, #132
 856 022e 3422     		movs	r2, #52
 857 0230 02A9     		add	r1, sp, #8
 858 0232 2846     		mov	r0, r5
 859 0234 FFF7FEFF 		bl	lv_memcpy
 860              	.LVL86:
 404:Middlewares/lvgl/src/widgets/lv_slider.c ****         dsc.rect_dsc = &knob_rect_dsc;
 861              		.loc 1 404 9 view .LVU271
 404:Middlewares/lvgl/src/widgets/lv_slider.c ****         dsc.rect_dsc = &knob_rect_dsc;
 862              		.loc 1 404 23 is_stmt 0 view .LVU272
 863 0238 1096     		str	r6, [sp, #64]
 405:Middlewares/lvgl/src/widgets/lv_slider.c ****         dsc.id = 1;
 864              		.loc 1 405 9 is_stmt 1 view .LVU273
 405:Middlewares/lvgl/src/widgets/lv_slider.c ****         dsc.id = 1;
 865              		.loc 1 405 22 is_stmt 0 view .LVU274
 866 023a 1195     		str	r5, [sp, #68]
 406:Middlewares/lvgl/src/widgets/lv_slider.c **** 
 867              		.loc 1 406 9 is_stmt 1 view .LVU275
 406:Middlewares/lvgl/src/widgets/lv_slider.c **** 
 868              		.loc 1 406 16 is_stmt 0 view .LVU276
 869 023c 0123     		movs	r3, #1
 870 023e 1D93     		str	r3, [sp, #116]
 408:Middlewares/lvgl/src/widgets/lv_slider.c ****         lv_draw_rect(&slider->left_knob_area, clip_area, &knob_rect_dsc);
 871              		.loc 1 408 9 is_stmt 1 view .LVU277
 872 0240 0FAA     		add	r2, sp, #60
 873 0242 1A21     		movs	r1, #26
 874 0244 2046     		mov	r0, r4
 875 0246 FFF7FEFF 		bl	lv_event_send
 876              	.LVL87:
 409:Middlewares/lvgl/src/widgets/lv_slider.c ****         lv_event_send(obj, LV_EVENT_DRAW_PART_END, &dsc);
ARM GAS  /tmp/cc3htL3m.s 			page 36


 877              		.loc 1 409 9 view .LVU278
 878 024a 2A46     		mov	r2, r5
 879 024c 3946     		mov	r1, r7
 880 024e 3046     		mov	r0, r6
 881 0250 FFF7FEFF 		bl	lv_draw_rect
 882              	.LVL88:
 410:Middlewares/lvgl/src/widgets/lv_slider.c ****     }
 883              		.loc 1 410 9 view .LVU279
 884 0254 0FAA     		add	r2, sp, #60
 885 0256 1B21     		movs	r1, #27
 886 0258 2046     		mov	r0, r4
 887 025a FFF7FEFF 		bl	lv_event_send
 888              	.LVL89:
 889              	.LBE100:
 412:Middlewares/lvgl/src/widgets/lv_slider.c **** 
 890              		.loc 1 412 1 is_stmt 0 view .LVU280
 891 025e 50E7     		b	.L12
 892              	.LVL90:
 893              	.L38:
 894              	.LBB103:
 395:Middlewares/lvgl/src/widgets/lv_slider.c ****         }
 895              		.loc 1 395 26 discriminator 4 view .LVU281
 896 0260 B4F93830 		ldrsh	r3, [r4, #56]
 897 0264 C8E7     		b	.L39
 898              	.L37:
 395:Middlewares/lvgl/src/widgets/lv_slider.c ****         }
 899              		.loc 1 395 26 discriminator 2 view .LVU282
 900 0266 B9F1010F 		cmp	r9, #1
 901 026a 02D0     		beq	.L40
 395:Middlewares/lvgl/src/widgets/lv_slider.c ****         }
 902              		.loc 1 395 26 discriminator 8 view .LVU283
 903 026c B4F93630 		ldrsh	r3, [r4, #54]
 904 0270 C2E7     		b	.L39
 905              	.L40:
 395:Middlewares/lvgl/src/widgets/lv_slider.c ****         }
 906              		.loc 1 395 26 discriminator 9 view .LVU284
 907 0272 B4F93A30 		ldrsh	r3, [r4, #58]
 908 0276 BFE7     		b	.L39
 909              	.L36:
 398:Middlewares/lvgl/src/widgets/lv_slider.c ****         }
 910              		.loc 1 398 13 is_stmt 1 view .LVU285
 398:Middlewares/lvgl/src/widgets/lv_slider.c ****         }
 911              		.loc 1 398 50 is_stmt 0 view .LVU286
 912 0278 B4F93A30 		ldrsh	r3, [r4, #58]
 398:Middlewares/lvgl/src/widgets/lv_slider.c ****         }
 913              		.loc 1 398 26 view .LVU287
 914 027c ADF8BA30 		strh	r3, [sp, #186]	@ movhi
 915 0280 BCE7     		b	.L41
 916              	.LBE103:
 917              		.cfi_endproc
 918              	.LFE166:
 920              		.section	.text.lv_slider_event,"ax",%progbits
 921              		.align	1
 922              		.syntax unified
 923              		.thumb
 924              		.thumb_func
 925              		.fpu fpv4-sp-d16
ARM GAS  /tmp/cc3htL3m.s 			page 37


 927              	lv_slider_event:
 928              	.LVL91:
 929              	.LFB165:
  95:Middlewares/lvgl/src/widgets/lv_slider.c ****     LV_UNUSED(class_p);
 930              		.loc 1 95 1 is_stmt 1 view -0
 931              		.cfi_startproc
 932              		@ args = 0, pretend = 0, frame = 24
 933              		@ frame_needed = 0, uses_anonymous_args = 0
  95:Middlewares/lvgl/src/widgets/lv_slider.c ****     LV_UNUSED(class_p);
 934              		.loc 1 95 1 is_stmt 0 view .LVU289
 935 0000 2DE9F04F 		push	{r4, r5, r6, r7, r8, r9, r10, fp, lr}
 936              	.LCFI6:
 937              		.cfi_def_cfa_offset 36
 938              		.cfi_offset 4, -36
 939              		.cfi_offset 5, -32
 940              		.cfi_offset 6, -28
 941              		.cfi_offset 7, -24
 942              		.cfi_offset 8, -20
 943              		.cfi_offset 9, -16
 944              		.cfi_offset 10, -12
 945              		.cfi_offset 11, -8
 946              		.cfi_offset 14, -4
 947 0004 87B0     		sub	sp, sp, #28
 948              	.LCFI7:
 949              		.cfi_def_cfa_offset 64
 950 0006 0C46     		mov	r4, r1
  96:Middlewares/lvgl/src/widgets/lv_slider.c **** 
 951              		.loc 1 96 5 is_stmt 1 view .LVU290
  98:Middlewares/lvgl/src/widgets/lv_slider.c **** 
 952              		.loc 1 98 5 view .LVU291
 101:Middlewares/lvgl/src/widgets/lv_slider.c ****     if(res != LV_RES_OK) return;
 953              		.loc 1 101 5 view .LVU292
 101:Middlewares/lvgl/src/widgets/lv_slider.c ****     if(res != LV_RES_OK) return;
 954              		.loc 1 101 11 is_stmt 0 view .LVU293
 955 0008 C148     		ldr	r0, .L119
 956              	.LVL92:
 101:Middlewares/lvgl/src/widgets/lv_slider.c ****     if(res != LV_RES_OK) return;
 957              		.loc 1 101 11 view .LVU294
 958 000a FFF7FEFF 		bl	lv_obj_event_base
 959              	.LVL93:
 102:Middlewares/lvgl/src/widgets/lv_slider.c **** 
 960              		.loc 1 102 5 is_stmt 1 view .LVU295
 102:Middlewares/lvgl/src/widgets/lv_slider.c **** 
 961              		.loc 1 102 7 is_stmt 0 view .LVU296
 962 000e 0128     		cmp	r0, #1
 963 0010 02D0     		beq	.L106
 964              	.LVL94:
 965              	.L55:
 319:Middlewares/lvgl/src/widgets/lv_slider.c **** 
 966              		.loc 1 319 1 view .LVU297
 967 0012 07B0     		add	sp, sp, #28
 968              	.LCFI8:
 969              		.cfi_remember_state
 970              		.cfi_def_cfa_offset 36
 971              		@ sp needed
 972 0014 BDE8F08F 		pop	{r4, r5, r6, r7, r8, r9, r10, fp, pc}
 973              	.LVL95:
ARM GAS  /tmp/cc3htL3m.s 			page 38


 974              	.L106:
 975              	.LCFI9:
 976              		.cfi_restore_state
 104:Middlewares/lvgl/src/widgets/lv_slider.c ****     lv_obj_t * obj = lv_event_get_target(e);
 977              		.loc 1 104 5 is_stmt 1 view .LVU298
 104:Middlewares/lvgl/src/widgets/lv_slider.c ****     lv_obj_t * obj = lv_event_get_target(e);
 978              		.loc 1 104 28 is_stmt 0 view .LVU299
 979 0018 2046     		mov	r0, r4
 980              	.LVL96:
 104:Middlewares/lvgl/src/widgets/lv_slider.c ****     lv_obj_t * obj = lv_event_get_target(e);
 981              		.loc 1 104 28 view .LVU300
 982 001a FFF7FEFF 		bl	lv_event_get_code
 983              	.LVL97:
 984 001e 0646     		mov	r6, r0
 985              	.LVL98:
 105:Middlewares/lvgl/src/widgets/lv_slider.c ****     lv_slider_t * slider = (lv_slider_t *)obj;
 986              		.loc 1 105 5 is_stmt 1 view .LVU301
 105:Middlewares/lvgl/src/widgets/lv_slider.c ****     lv_slider_t * slider = (lv_slider_t *)obj;
 987              		.loc 1 105 22 is_stmt 0 view .LVU302
 988 0020 2046     		mov	r0, r4
 989 0022 FFF7FEFF 		bl	lv_event_get_target
 990              	.LVL99:
 991 0026 0546     		mov	r5, r0
 992              	.LVL100:
 106:Middlewares/lvgl/src/widgets/lv_slider.c ****     lv_slider_mode_t type = lv_slider_get_mode(obj);
 993              		.loc 1 106 5 is_stmt 1 view .LVU303
 107:Middlewares/lvgl/src/widgets/lv_slider.c **** 
 994              		.loc 1 107 5 view .LVU304
 995              	.LBB160:
 996              	.LBI160:
 168:Middlewares/lvgl/src/widgets/lv_slider.h **** {
 997              		.loc 4 168 32 view .LVU305
 998              	.LBB161:
 170:Middlewares/lvgl/src/widgets/lv_slider.h ****     if(mode == LV_BAR_MODE_SYMMETRICAL) return LV_SLIDER_MODE_SYMMETRICAL;
 999              		.loc 4 170 5 view .LVU306
 170:Middlewares/lvgl/src/widgets/lv_slider.h ****     if(mode == LV_BAR_MODE_SYMMETRICAL) return LV_SLIDER_MODE_SYMMETRICAL;
 1000              		.loc 4 170 26 is_stmt 0 view .LVU307
 1001 0028 FFF7FEFF 		bl	lv_bar_get_mode
 1002              	.LVL101:
 170:Middlewares/lvgl/src/widgets/lv_slider.h ****     if(mode == LV_BAR_MODE_SYMMETRICAL) return LV_SLIDER_MODE_SYMMETRICAL;
 1003              		.loc 4 170 26 view .LVU308
 1004 002c 0746     		mov	r7, r0
 1005              	.LVL102:
 171:Middlewares/lvgl/src/widgets/lv_slider.h ****     else if(mode == LV_BAR_MODE_RANGE) return LV_SLIDER_MODE_RANGE;
 1006              		.loc 4 171 5 is_stmt 1 view .LVU309
 171:Middlewares/lvgl/src/widgets/lv_slider.h ****     else if(mode == LV_BAR_MODE_RANGE) return LV_SLIDER_MODE_RANGE;
 1007              		.loc 4 171 7 is_stmt 0 view .LVU310
 1008 002e 0128     		cmp	r0, #1
 1009 0030 02D0     		beq	.L57
 172:Middlewares/lvgl/src/widgets/lv_slider.h ****     else return LV_SLIDER_MODE_NORMAL;
 1010              		.loc 4 172 10 is_stmt 1 view .LVU311
 172:Middlewares/lvgl/src/widgets/lv_slider.h ****     else return LV_SLIDER_MODE_NORMAL;
 1011              		.loc 4 172 12 is_stmt 0 view .LVU312
 1012 0032 0228     		cmp	r0, #2
 1013 0034 00D0     		beq	.L57
 1014              		.loc 4 173 17 view .LVU313
 1015 0036 0027     		movs	r7, #0
ARM GAS  /tmp/cc3htL3m.s 			page 39


 1016              	.L57:
 1017              	.LVL103:
 1018              		.loc 4 173 17 view .LVU314
 1019              	.LBE161:
 1020              	.LBE160:
 110:Middlewares/lvgl/src/widgets/lv_slider.c ****         lv_hit_test_info_t * info = lv_event_get_param(e);
 1021              		.loc 1 110 5 is_stmt 1 view .LVU315
 110:Middlewares/lvgl/src/widgets/lv_slider.c ****         lv_hit_test_info_t * info = lv_event_get_param(e);
 1022              		.loc 1 110 7 is_stmt 0 view .LVU316
 1023 0038 112E     		cmp	r6, #17
 1024 003a 1CD0     		beq	.L107
 121:Middlewares/lvgl/src/widgets/lv_slider.c ****         lv_obj_invalidate(obj);
 1025              		.loc 1 121 10 is_stmt 1 view .LVU317
 121:Middlewares/lvgl/src/widgets/lv_slider.c ****         lv_obj_invalidate(obj);
 1026              		.loc 1 121 12 is_stmt 0 view .LVU318
 1027 003c 012E     		cmp	r6, #1
 1028 003e 31D0     		beq	.L108
 185:Middlewares/lvgl/src/widgets/lv_slider.c ****         lv_indev_t * indev = lv_indev_get_act();
 1029              		.loc 1 185 10 is_stmt 1 view .LVU319
 185:Middlewares/lvgl/src/widgets/lv_slider.c ****         lv_indev_t * indev = lv_indev_get_act();
 1030              		.loc 1 185 12 is_stmt 0 view .LVU320
 1031 0040 022E     		cmp	r6, #2
 1032 0042 00F0F280 		beq	.L109
 1033              	.L73:
 243:Middlewares/lvgl/src/widgets/lv_slider.c ****         slider->dragging = false;
 1034              		.loc 1 243 10 is_stmt 1 view .LVU321
 243:Middlewares/lvgl/src/widgets/lv_slider.c ****         slider->dragging = false;
 1035              		.loc 1 243 12 is_stmt 0 view .LVU322
 1036 0046 082E     		cmp	r6, #8
 1037 0048 00F08181 		beq	.L83
 243:Middlewares/lvgl/src/widgets/lv_slider.c ****         slider->dragging = false;
 1038              		.loc 1 243 39 discriminator 1 view .LVU323
 1039 004c 032E     		cmp	r6, #3
 1040 004e 00F07E81 		beq	.L83
 269:Middlewares/lvgl/src/widgets/lv_slider.c ****         lv_indev_type_t indev_type = lv_indev_get_type(lv_indev_get_act());
 1041              		.loc 1 269 10 is_stmt 1 view .LVU324
 269:Middlewares/lvgl/src/widgets/lv_slider.c ****         lv_indev_type_t indev_type = lv_indev_get_type(lv_indev_get_act());
 1042              		.loc 1 269 12 is_stmt 0 view .LVU325
 1043 0052 0E2E     		cmp	r6, #14
 1044 0054 00F0BB81 		beq	.L110
 275:Middlewares/lvgl/src/widgets/lv_slider.c ****         lv_obj_refresh_ext_draw_size(obj);
 1045              		.loc 1 275 10 is_stmt 1 view .LVU326
 275:Middlewares/lvgl/src/widgets/lv_slider.c ****         lv_obj_refresh_ext_draw_size(obj);
 1046              		.loc 1 275 12 is_stmt 0 view .LVU327
 1047 0058 232E     		cmp	r6, #35
 1048 005a 00F0C881 		beq	.L111
 278:Middlewares/lvgl/src/widgets/lv_slider.c ****         lv_coord_t knob_left = lv_obj_get_style_pad_left(obj, LV_PART_KNOB);
 1049              		.loc 1 278 10 is_stmt 1 view .LVU328
 278:Middlewares/lvgl/src/widgets/lv_slider.c ****         lv_coord_t knob_left = lv_obj_get_style_pad_left(obj, LV_PART_KNOB);
 1050              		.loc 1 278 12 is_stmt 0 view .LVU329
 1051 005e 132E     		cmp	r6, #19
 1052 0060 00F0C981 		beq	.L112
 299:Middlewares/lvgl/src/widgets/lv_slider.c ****         char c = *((char *)lv_event_get_param(e));
 1053              		.loc 1 299 10 is_stmt 1 view .LVU330
 299:Middlewares/lvgl/src/widgets/lv_slider.c ****         char c = *((char *)lv_event_get_param(e));
 1054              		.loc 1 299 12 is_stmt 0 view .LVU331
 1055 0064 0D2E     		cmp	r6, #13
ARM GAS  /tmp/cc3htL3m.s 			page 40


 1056 0066 00F04882 		beq	.L113
 316:Middlewares/lvgl/src/widgets/lv_slider.c ****         draw_knob(e);
 1057              		.loc 1 316 12 is_stmt 1 view .LVU332
 316:Middlewares/lvgl/src/widgets/lv_slider.c ****         draw_knob(e);
 1058              		.loc 1 316 14 is_stmt 0 view .LVU333
 1059 006a 152E     		cmp	r6, #21
 1060 006c D1D1     		bne	.L55
 317:Middlewares/lvgl/src/widgets/lv_slider.c ****     }
 1061              		.loc 1 317 9 is_stmt 1 view .LVU334
 1062 006e 2046     		mov	r0, r4
 1063 0070 FFF7FEFF 		bl	draw_knob
 1064              	.LVL104:
 1065 0074 CDE7     		b	.L55
 1066              	.L107:
 1067              	.LBB162:
 111:Middlewares/lvgl/src/widgets/lv_slider.c **** 
 1068              		.loc 1 111 9 view .LVU335
 111:Middlewares/lvgl/src/widgets/lv_slider.c **** 
 1069              		.loc 1 111 37 is_stmt 0 view .LVU336
 1070 0076 2046     		mov	r0, r4
 1071 0078 FFF7FEFF 		bl	lv_event_get_param
 1072              	.LVL105:
 1073 007c 0446     		mov	r4, r0
 1074              	.LVL106:
 114:Middlewares/lvgl/src/widgets/lv_slider.c **** 
 1075              		.loc 1 114 9 is_stmt 1 view .LVU337
 114:Middlewares/lvgl/src/widgets/lv_slider.c **** 
 1076              		.loc 1 114 21 is_stmt 0 view .LVU338
 1077 007e 0022     		movs	r2, #0
 1078 0080 0168     		ldr	r1, [r0]
 1079 0082 05F16800 		add	r0, r5, #104
 1080              	.LVL107:
 114:Middlewares/lvgl/src/widgets/lv_slider.c **** 
 1081              		.loc 1 114 21 view .LVU339
 1082 0086 FFF7FEFF 		bl	_lv_area_is_point_on
 1083              	.LVL108:
 114:Middlewares/lvgl/src/widgets/lv_slider.c **** 
 1084              		.loc 1 114 19 view .LVU340
 1085 008a 2071     		strb	r0, [r4, #4]
 117:Middlewares/lvgl/src/widgets/lv_slider.c ****             info->res = _lv_area_is_point_on(&slider->left_knob_area, info->point, 0);
 1086              		.loc 1 117 9 is_stmt 1 view .LVU341
 117:Middlewares/lvgl/src/widgets/lv_slider.c ****             info->res = _lv_area_is_point_on(&slider->left_knob_area, info->point, 0);
 1087              		.loc 1 117 11 is_stmt 0 view .LVU342
 1088 008c 0028     		cmp	r0, #0
 1089 008e C0D1     		bne	.L55
 117:Middlewares/lvgl/src/widgets/lv_slider.c ****             info->res = _lv_area_is_point_on(&slider->left_knob_area, info->point, 0);
 1090              		.loc 1 117 33 discriminator 1 view .LVU343
 1091 0090 022F     		cmp	r7, #2
 1092 0092 BED1     		bne	.L55
 118:Middlewares/lvgl/src/widgets/lv_slider.c ****         }
 1093              		.loc 1 118 13 is_stmt 1 view .LVU344
 118:Middlewares/lvgl/src/widgets/lv_slider.c ****         }
 1094              		.loc 1 118 25 is_stmt 0 view .LVU345
 1095 0094 0022     		movs	r2, #0
 1096 0096 2168     		ldr	r1, [r4]
 1097 0098 05F16000 		add	r0, r5, #96
 1098 009c FFF7FEFF 		bl	_lv_area_is_point_on
ARM GAS  /tmp/cc3htL3m.s 			page 41


 1099              	.LVL109:
 118:Middlewares/lvgl/src/widgets/lv_slider.c ****         }
 1100              		.loc 1 118 23 view .LVU346
 1101 00a0 2071     		strb	r0, [r4, #4]
 1102 00a2 B6E7     		b	.L55
 1103              	.LVL110:
 1104              	.L108:
 118:Middlewares/lvgl/src/widgets/lv_slider.c ****         }
 1105              		.loc 1 118 23 view .LVU347
 1106              	.LBE162:
 1107              	.LBB163:
 122:Middlewares/lvgl/src/widgets/lv_slider.c **** 
 1108              		.loc 1 122 9 is_stmt 1 view .LVU348
 1109 00a4 2846     		mov	r0, r5
 1110 00a6 FFF7FEFF 		bl	lv_obj_invalidate
 1111              	.LVL111:
 124:Middlewares/lvgl/src/widgets/lv_slider.c ****         slider->dragging = true;
 1112              		.loc 1 124 9 view .LVU349
 125:Middlewares/lvgl/src/widgets/lv_slider.c ****         if(type == LV_SLIDER_MODE_NORMAL || type == LV_SLIDER_MODE_SYMMETRICAL) {
 1113              		.loc 1 125 9 view .LVU350
 125:Middlewares/lvgl/src/widgets/lv_slider.c ****         if(type == LV_SLIDER_MODE_NORMAL || type == LV_SLIDER_MODE_SYMMETRICAL) {
 1114              		.loc 1 125 26 is_stmt 0 view .LVU351
 1115 00aa 95F87430 		ldrb	r3, [r5, #116]	@ zero_extendqisi2
 1116 00ae 43F00103 		orr	r3, r3, #1
 1117 00b2 85F87430 		strb	r3, [r5, #116]
 126:Middlewares/lvgl/src/widgets/lv_slider.c ****             slider->value_to_set = &slider->bar.cur_value;
 1118              		.loc 1 126 9 is_stmt 1 view .LVU352
 126:Middlewares/lvgl/src/widgets/lv_slider.c ****             slider->value_to_set = &slider->bar.cur_value;
 1119              		.loc 1 126 11 is_stmt 0 view .LVU353
 1120 00b6 012F     		cmp	r7, #1
 1121 00b8 55D9     		bls	.L114
 129:Middlewares/lvgl/src/widgets/lv_slider.c ****             lv_indev_get_point(lv_indev_get_act(), &p);
 1122              		.loc 1 129 14 is_stmt 1 view .LVU354
 129:Middlewares/lvgl/src/widgets/lv_slider.c ****             lv_indev_get_point(lv_indev_get_act(), &p);
 1123              		.loc 1 129 16 is_stmt 0 view .LVU355
 1124 00ba 022F     		cmp	r7, #2
 1125 00bc A9D1     		bne	.L55
 1126              	.LBB164:
 130:Middlewares/lvgl/src/widgets/lv_slider.c ****             bool hor = lv_obj_get_width(obj) >= lv_obj_get_height(obj);
 1127              		.loc 1 130 13 is_stmt 1 view .LVU356
 130:Middlewares/lvgl/src/widgets/lv_slider.c ****             bool hor = lv_obj_get_width(obj) >= lv_obj_get_height(obj);
 1128              		.loc 1 130 32 is_stmt 0 view .LVU357
 1129 00be FFF7FEFF 		bl	lv_indev_get_act
 1130              	.LVL112:
 130:Middlewares/lvgl/src/widgets/lv_slider.c ****             bool hor = lv_obj_get_width(obj) >= lv_obj_get_height(obj);
 1131              		.loc 1 130 13 view .LVU358
 1132 00c2 05A9     		add	r1, sp, #20
 1133 00c4 FFF7FEFF 		bl	lv_indev_get_point
 1134              	.LVL113:
 131:Middlewares/lvgl/src/widgets/lv_slider.c ****             lv_base_dir_t base_dir = lv_obj_get_style_base_dir(obj, LV_PART_MAIN);
 1135              		.loc 1 131 13 is_stmt 1 view .LVU359
 131:Middlewares/lvgl/src/widgets/lv_slider.c ****             lv_base_dir_t base_dir = lv_obj_get_style_base_dir(obj, LV_PART_MAIN);
 1136              		.loc 1 131 24 is_stmt 0 view .LVU360
 1137 00c8 2846     		mov	r0, r5
 1138 00ca FFF7FEFF 		bl	lv_obj_get_width
 1139              	.LVL114:
 1140 00ce 0646     		mov	r6, r0
ARM GAS  /tmp/cc3htL3m.s 			page 42


 1141              	.LVL115:
 131:Middlewares/lvgl/src/widgets/lv_slider.c ****             lv_base_dir_t base_dir = lv_obj_get_style_base_dir(obj, LV_PART_MAIN);
 1142              		.loc 1 131 49 view .LVU361
 1143 00d0 2846     		mov	r0, r5
 1144 00d2 FFF7FEFF 		bl	lv_obj_get_height
 1145              	.LVL116:
 1146 00d6 0446     		mov	r4, r0
 1147              	.LVL117:
 132:Middlewares/lvgl/src/widgets/lv_slider.c **** 
 1148              		.loc 1 132 13 is_stmt 1 view .LVU362
 1149              	.LBB165:
 1150              	.LBI165:
 187:Middlewares/lvgl/src/widgets/../core/lv_obj_style_gen.h **** {
 1151              		.loc 2 187 29 view .LVU363
 1152              	.LBB166:
 189:Middlewares/lvgl/src/widgets/../core/lv_obj_style_gen.h ****     return (lv_base_dir_t)v.num;
 1153              		.loc 2 189 5 view .LVU364
 189:Middlewares/lvgl/src/widgets/../core/lv_obj_style_gen.h ****     return (lv_base_dir_t)v.num;
 1154              		.loc 2 189 26 is_stmt 0 view .LVU365
 1155 00d8 41F26A42 		movw	r2, #5226
 1156 00dc 0021     		movs	r1, #0
 1157 00de 2846     		mov	r0, r5
 1158 00e0 FFF7FEFF 		bl	lv_obj_get_style_prop
 1159              	.LVL118:
 1160              		.loc 2 190 5 is_stmt 1 view .LVU366
 1161              		.loc 2 190 12 is_stmt 0 view .LVU367
 1162 00e4 C3B2     		uxtb	r3, r0
 1163              	.LVL119:
 1164              		.loc 2 190 12 view .LVU368
 1165              	.LBE166:
 1166              	.LBE165:
 134:Middlewares/lvgl/src/widgets/lv_slider.c ****             if(hor) {
 1167              		.loc 1 134 13 is_stmt 1 view .LVU369
 135:Middlewares/lvgl/src/widgets/lv_slider.c ****                 if((base_dir != LV_BASE_DIR_RTL && p.x > slider->right_knob_area.x2) || (base_dir =
 1168              		.loc 1 135 13 view .LVU370
 135:Middlewares/lvgl/src/widgets/lv_slider.c ****                 if((base_dir != LV_BASE_DIR_RTL && p.x > slider->right_knob_area.x2) || (base_dir =
 1169              		.loc 1 135 15 is_stmt 0 view .LVU371
 1170 00e6 A642     		cmp	r6, r4
 1171 00e8 5FDB     		blt	.L62
 136:Middlewares/lvgl/src/widgets/lv_slider.c ****                                                                                       p.x < slider-
 1172              		.loc 1 136 17 is_stmt 1 view .LVU372
 136:Middlewares/lvgl/src/widgets/lv_slider.c ****                                                                                       p.x < slider-
 1173              		.loc 1 136 19 is_stmt 0 view .LVU373
 1174 00ea 012B     		cmp	r3, #1
 1175 00ec 05D0     		beq	.L63
 136:Middlewares/lvgl/src/widgets/lv_slider.c ****                                                                                       p.x < slider-
 1176              		.loc 1 136 53 discriminator 1 view .LVU374
 1177 00ee BDF91410 		ldrsh	r1, [sp, #20]
 136:Middlewares/lvgl/src/widgets/lv_slider.c ****                                                                                       p.x < slider-
 1178              		.loc 1 136 81 discriminator 1 view .LVU375
 1179 00f2 B5F96C20 		ldrsh	r2, [r5, #108]
 136:Middlewares/lvgl/src/widgets/lv_slider.c ****                                                                                       p.x < slider-
 1180              		.loc 1 136 49 discriminator 1 view .LVU376
 1181 00f6 9142     		cmp	r1, r2
 1182 00f8 3FDC     		bgt	.L64
 1183              	.L63:
 136:Middlewares/lvgl/src/widgets/lv_slider.c ****                                                                                       p.x < slider-
ARM GAS  /tmp/cc3htL3m.s 			page 43


 1184              		.loc 1 136 86 discriminator 3 view .LVU377
 1185 00fa 012B     		cmp	r3, #1
 1186 00fc 37D0     		beq	.L115
 1187              	.L65:
 140:Middlewares/lvgl/src/widgets/lv_slider.c ****                                                                                           p.x > sli
 1188              		.loc 1 140 22 is_stmt 1 view .LVU378
 140:Middlewares/lvgl/src/widgets/lv_slider.c ****                                                                                           p.x > sli
 1189              		.loc 1 140 24 is_stmt 0 view .LVU379
 1190 00fe 012B     		cmp	r3, #1
 1191 0100 05D0     		beq	.L66
 140:Middlewares/lvgl/src/widgets/lv_slider.c ****                                                                                           p.x > sli
 1192              		.loc 1 140 58 discriminator 1 view .LVU380
 1193 0102 BDF91410 		ldrsh	r1, [sp, #20]
 140:Middlewares/lvgl/src/widgets/lv_slider.c ****                                                                                           p.x > sli
 1194              		.loc 1 140 85 discriminator 1 view .LVU381
 1195 0106 B5F96020 		ldrsh	r2, [r5, #96]
 140:Middlewares/lvgl/src/widgets/lv_slider.c ****                                                                                           p.x > sli
 1196              		.loc 1 140 54 discriminator 1 view .LVU382
 1197 010a 9142     		cmp	r1, r2
 1198 010c 3FDB     		blt	.L67
 1199              	.L66:
 140:Middlewares/lvgl/src/widgets/lv_slider.c ****                                                                                           p.x > sli
 1200              		.loc 1 140 90 discriminator 3 view .LVU383
 1201 010e 012B     		cmp	r3, #1
 1202 0110 37D0     		beq	.L116
 1203              	.LVL120:
 1204              	.L68:
 146:Middlewares/lvgl/src/widgets/lv_slider.c ****                     dist_right = LV_ABS((slider->right_knob_area.x1 + (slider->right_knob_area.x2 -
 1205              		.loc 1 146 21 is_stmt 1 view .LVU384
 146:Middlewares/lvgl/src/widgets/lv_slider.c ****                     dist_right = LV_ABS((slider->right_knob_area.x1 + (slider->right_knob_area.x2 -
 1206              		.loc 1 146 33 is_stmt 0 view .LVU385
 1207 0112 B5F96030 		ldrsh	r3, [r5, #96]
 1208 0116 B5F96420 		ldrsh	r2, [r5, #100]
 1209 011a D21A     		subs	r2, r2, r3
 1210 011c 02EBD272 		add	r2, r2, r2, lsr #31
 1211 0120 03EB6202 		add	r2, r3, r2, asr #1
 1212 0124 BDF91400 		ldrsh	r0, [sp, #20]
 1213              	.LVL121:
 146:Middlewares/lvgl/src/widgets/lv_slider.c ****                     dist_right = LV_ABS((slider->right_knob_area.x1 + (slider->right_knob_area.x2 -
 1214              		.loc 1 146 33 view .LVU386
 1215 0128 121A     		subs	r2, r2, r0
 1216 012a 002A     		cmp	r2, #0
 1217 012c B8BF     		it	lt
 1218 012e 5242     		rsblt	r2, r2, #0
 146:Middlewares/lvgl/src/widgets/lv_slider.c ****                     dist_right = LV_ABS((slider->right_knob_area.x1 + (slider->right_knob_area.x2 -
 1219              		.loc 1 146 31 view .LVU387
 1220 0130 12B2     		sxth	r2, r2
 1221              	.LVL122:
 147:Middlewares/lvgl/src/widgets/lv_slider.c **** 
 1222              		.loc 1 147 21 is_stmt 1 view .LVU388
 147:Middlewares/lvgl/src/widgets/lv_slider.c **** 
 1223              		.loc 1 147 34 is_stmt 0 view .LVU389
 1224 0132 B5F96830 		ldrsh	r3, [r5, #104]
 1225 0136 B5F96C10 		ldrsh	r1, [r5, #108]
 1226 013a C91A     		subs	r1, r1, r3
 1227 013c 01EBD171 		add	r1, r1, r1, lsr #31
 1228 0140 03EB6103 		add	r3, r3, r1, asr #1
ARM GAS  /tmp/cc3htL3m.s 			page 44


 1229 0144 1B1A     		subs	r3, r3, r0
 1230 0146 002B     		cmp	r3, #0
 1231 0148 B8BF     		it	lt
 1232 014a 5B42     		rsblt	r3, r3, #0
 147:Middlewares/lvgl/src/widgets/lv_slider.c **** 
 1233              		.loc 1 147 32 view .LVU390
 1234 014c 1BB2     		sxth	r3, r3
 1235              	.LVL123:
 150:Middlewares/lvgl/src/widgets/lv_slider.c ****                         slider->value_to_set = &slider->bar.cur_value;
 1236              		.loc 1 150 21 is_stmt 1 view .LVU391
 150:Middlewares/lvgl/src/widgets/lv_slider.c ****                         slider->value_to_set = &slider->bar.cur_value;
 1237              		.loc 1 150 23 is_stmt 0 view .LVU392
 1238 014e 9A42     		cmp	r2, r3
 1239 0150 21DD     		ble	.L69
 151:Middlewares/lvgl/src/widgets/lv_slider.c ****                         slider->left_knob_focus = 0;
 1240              		.loc 1 151 25 is_stmt 1 view .LVU393
 151:Middlewares/lvgl/src/widgets/lv_slider.c ****                         slider->left_knob_focus = 0;
 1241              		.loc 1 151 48 is_stmt 0 view .LVU394
 1242 0152 05F12403 		add	r3, r5, #36
 1243              	.LVL124:
 151:Middlewares/lvgl/src/widgets/lv_slider.c ****                         slider->left_knob_focus = 0;
 1244              		.loc 1 151 46 view .LVU395
 1245 0156 2B67     		str	r3, [r5, #112]
 152:Middlewares/lvgl/src/widgets/lv_slider.c ****                     }
 1246              		.loc 1 152 25 is_stmt 1 view .LVU396
 152:Middlewares/lvgl/src/widgets/lv_slider.c ****                     }
 1247              		.loc 1 152 49 is_stmt 0 view .LVU397
 1248 0158 95F87430 		ldrb	r3, [r5, #116]	@ zero_extendqisi2
 1249 015c 6FF34103 		bfc	r3, #1, #1
 1250 0160 85F87430 		strb	r3, [r5, #116]
 1251 0164 55E7     		b	.L55
 1252              	.LVL125:
 1253              	.L114:
 152:Middlewares/lvgl/src/widgets/lv_slider.c ****                     }
 1254              		.loc 1 152 49 view .LVU398
 1255              	.LBE164:
 127:Middlewares/lvgl/src/widgets/lv_slider.c ****         }
 1256              		.loc 1 127 13 is_stmt 1 view .LVU399
 127:Middlewares/lvgl/src/widgets/lv_slider.c ****         }
 1257              		.loc 1 127 36 is_stmt 0 view .LVU400
 1258 0166 05F12403 		add	r3, r5, #36
 127:Middlewares/lvgl/src/widgets/lv_slider.c ****         }
 1259              		.loc 1 127 34 view .LVU401
 1260 016a 2B67     		str	r3, [r5, #112]
 1261 016c 51E7     		b	.L55
 1262              	.LVL126:
 1263              	.L115:
 1264              	.LBB167:
 137:Middlewares/lvgl/src/widgets/lv_slider.c ****                     slider->value_to_set = &slider->bar.cur_value;
 1265              		.loc 1 137 88 discriminator 4 view .LVU402
 1266 016e BDF91410 		ldrsh	r1, [sp, #20]
 137:Middlewares/lvgl/src/widgets/lv_slider.c ****                     slider->value_to_set = &slider->bar.cur_value;
 1267              		.loc 1 137 116 discriminator 4 view .LVU403
 1268 0172 B5F96820 		ldrsh	r2, [r5, #104]
 136:Middlewares/lvgl/src/widgets/lv_slider.c ****                                                                                       p.x < slider-
 1269              		.loc 1 136 118 discriminator 4 view .LVU404
 1270 0176 9142     		cmp	r1, r2
ARM GAS  /tmp/cc3htL3m.s 			page 45


 1271 0178 C1DA     		bge	.L65
 1272              	.L64:
 138:Middlewares/lvgl/src/widgets/lv_slider.c ****                 }
 1273              		.loc 1 138 21 is_stmt 1 view .LVU405
 138:Middlewares/lvgl/src/widgets/lv_slider.c ****                 }
 1274              		.loc 1 138 44 is_stmt 0 view .LVU406
 1275 017a 05F12403 		add	r3, r5, #36
 1276              	.LVL127:
 138:Middlewares/lvgl/src/widgets/lv_slider.c ****                 }
 1277              		.loc 1 138 42 view .LVU407
 1278 017e 2B67     		str	r3, [r5, #112]
 1279 0180 47E7     		b	.L55
 1280              	.LVL128:
 1281              	.L116:
 141:Middlewares/lvgl/src/widgets/lv_slider.c ****                     slider->value_to_set = &slider->bar.start_value;
 1282              		.loc 1 141 92 discriminator 4 view .LVU408
 1283 0182 BDF91420 		ldrsh	r2, [sp, #20]
 141:Middlewares/lvgl/src/widgets/lv_slider.c ****                     slider->value_to_set = &slider->bar.start_value;
 1284              		.loc 1 141 119 discriminator 4 view .LVU409
 1285 0186 B5F96430 		ldrsh	r3, [r5, #100]
 1286              	.LVL129:
 140:Middlewares/lvgl/src/widgets/lv_slider.c ****                                                                                           p.x > sli
 1287              		.loc 1 140 122 discriminator 4 view .LVU410
 1288 018a 9A42     		cmp	r2, r3
 1289 018c C1DD     		ble	.L68
 1290              	.L67:
 142:Middlewares/lvgl/src/widgets/lv_slider.c ****                 }
 1291              		.loc 1 142 21 is_stmt 1 view .LVU411
 142:Middlewares/lvgl/src/widgets/lv_slider.c ****                 }
 1292              		.loc 1 142 44 is_stmt 0 view .LVU412
 1293 018e 05F13003 		add	r3, r5, #48
 142:Middlewares/lvgl/src/widgets/lv_slider.c ****                 }
 1294              		.loc 1 142 42 view .LVU413
 1295 0192 2B67     		str	r3, [r5, #112]
 1296 0194 3DE7     		b	.L55
 1297              	.LVL130:
 1298              	.L69:
 155:Middlewares/lvgl/src/widgets/lv_slider.c ****                         slider->left_knob_focus = 1;
 1299              		.loc 1 155 25 is_stmt 1 view .LVU414
 155:Middlewares/lvgl/src/widgets/lv_slider.c ****                         slider->left_knob_focus = 1;
 1300              		.loc 1 155 48 is_stmt 0 view .LVU415
 1301 0196 05F13003 		add	r3, r5, #48
 1302              	.LVL131:
 155:Middlewares/lvgl/src/widgets/lv_slider.c ****                         slider->left_knob_focus = 1;
 1303              		.loc 1 155 46 view .LVU416
 1304 019a 2B67     		str	r3, [r5, #112]
 156:Middlewares/lvgl/src/widgets/lv_slider.c ****                     }
 1305              		.loc 1 156 25 is_stmt 1 view .LVU417
 156:Middlewares/lvgl/src/widgets/lv_slider.c ****                     }
 1306              		.loc 1 156 49 is_stmt 0 view .LVU418
 1307 019c 95F87430 		ldrb	r3, [r5, #116]	@ zero_extendqisi2
 1308 01a0 43F00203 		orr	r3, r3, #2
 1309 01a4 85F87430 		strb	r3, [r5, #116]
 1310 01a8 33E7     		b	.L55
 1311              	.LVL132:
 1312              	.L62:
 161:Middlewares/lvgl/src/widgets/lv_slider.c ****                     slider->value_to_set = &slider->bar.cur_value;
ARM GAS  /tmp/cc3htL3m.s 			page 46


 1313              		.loc 1 161 17 is_stmt 1 view .LVU419
 161:Middlewares/lvgl/src/widgets/lv_slider.c ****                     slider->value_to_set = &slider->bar.cur_value;
 1314              		.loc 1 161 21 is_stmt 0 view .LVU420
 1315 01aa BDF91610 		ldrsh	r1, [sp, #22]
 161:Middlewares/lvgl/src/widgets/lv_slider.c ****                     slider->value_to_set = &slider->bar.cur_value;
 1316              		.loc 1 161 49 view .LVU421
 1317 01ae B5F96A30 		ldrsh	r3, [r5, #106]
 1318              	.LVL133:
 161:Middlewares/lvgl/src/widgets/lv_slider.c ****                     slider->value_to_set = &slider->bar.cur_value;
 1319              		.loc 1 161 19 view .LVU422
 1320 01b2 9942     		cmp	r1, r3
 1321 01b4 03DA     		bge	.L70
 162:Middlewares/lvgl/src/widgets/lv_slider.c ****                 }
 1322              		.loc 1 162 21 is_stmt 1 view .LVU423
 162:Middlewares/lvgl/src/widgets/lv_slider.c ****                 }
 1323              		.loc 1 162 44 is_stmt 0 view .LVU424
 1324 01b6 05F12403 		add	r3, r5, #36
 162:Middlewares/lvgl/src/widgets/lv_slider.c ****                 }
 1325              		.loc 1 162 42 view .LVU425
 1326 01ba 2B67     		str	r3, [r5, #112]
 1327 01bc 29E7     		b	.L55
 1328              	.L70:
 164:Middlewares/lvgl/src/widgets/lv_slider.c ****                     slider->value_to_set = &slider->bar.start_value;
 1329              		.loc 1 164 22 is_stmt 1 view .LVU426
 164:Middlewares/lvgl/src/widgets/lv_slider.c ****                     slider->value_to_set = &slider->bar.start_value;
 1330              		.loc 1 164 53 is_stmt 0 view .LVU427
 1331 01be B5F96600 		ldrsh	r0, [r5, #102]
 1332              	.LVL134:
 164:Middlewares/lvgl/src/widgets/lv_slider.c ****                     slider->value_to_set = &slider->bar.start_value;
 1333              		.loc 1 164 24 view .LVU428
 1334 01c2 8142     		cmp	r1, r0
 1335 01c4 03DD     		ble	.L71
 165:Middlewares/lvgl/src/widgets/lv_slider.c ****                 }
 1336              		.loc 1 165 21 is_stmt 1 view .LVU429
 165:Middlewares/lvgl/src/widgets/lv_slider.c ****                 }
 1337              		.loc 1 165 44 is_stmt 0 view .LVU430
 1338 01c6 05F13003 		add	r3, r5, #48
 165:Middlewares/lvgl/src/widgets/lv_slider.c ****                 }
 1339              		.loc 1 165 42 view .LVU431
 1340 01ca 2B67     		str	r3, [r5, #112]
 1341 01cc 21E7     		b	.L55
 1342              	.L71:
 169:Middlewares/lvgl/src/widgets/lv_slider.c ****                     dist_right = LV_ABS((slider->right_knob_area.y1 + (slider->right_knob_area.y2 -
 1343              		.loc 1 169 21 is_stmt 1 view .LVU432
 169:Middlewares/lvgl/src/widgets/lv_slider.c ****                     dist_right = LV_ABS((slider->right_knob_area.y1 + (slider->right_knob_area.y2 -
 1344              		.loc 1 169 33 is_stmt 0 view .LVU433
 1345 01ce B5F96220 		ldrsh	r2, [r5, #98]
 1346 01d2 801A     		subs	r0, r0, r2
 1347 01d4 00EBD070 		add	r0, r0, r0, lsr #31
 1348 01d8 02EB6002 		add	r2, r2, r0, asr #1
 1349 01dc 521A     		subs	r2, r2, r1
 1350 01de 002A     		cmp	r2, #0
 1351 01e0 B8BF     		it	lt
 1352 01e2 5242     		rsblt	r2, r2, #0
 169:Middlewares/lvgl/src/widgets/lv_slider.c ****                     dist_right = LV_ABS((slider->right_knob_area.y1 + (slider->right_knob_area.y2 -
 1353              		.loc 1 169 31 view .LVU434
 1354 01e4 12B2     		sxth	r2, r2
ARM GAS  /tmp/cc3htL3m.s 			page 47


 1355              	.LVL135:
 170:Middlewares/lvgl/src/widgets/lv_slider.c **** 
 1356              		.loc 1 170 21 is_stmt 1 view .LVU435
 170:Middlewares/lvgl/src/widgets/lv_slider.c **** 
 1357              		.loc 1 170 34 is_stmt 0 view .LVU436
 1358 01e6 B5F96E00 		ldrsh	r0, [r5, #110]
 1359 01ea C01A     		subs	r0, r0, r3
 1360 01ec 00EBD070 		add	r0, r0, r0, lsr #31
 1361 01f0 03EB6003 		add	r3, r3, r0, asr #1
 1362 01f4 5B1A     		subs	r3, r3, r1
 1363 01f6 002B     		cmp	r3, #0
 1364 01f8 B8BF     		it	lt
 1365 01fa 5B42     		rsblt	r3, r3, #0
 170:Middlewares/lvgl/src/widgets/lv_slider.c **** 
 1366              		.loc 1 170 32 view .LVU437
 1367 01fc 1BB2     		sxth	r3, r3
 1368              	.LVL136:
 173:Middlewares/lvgl/src/widgets/lv_slider.c ****                         slider->value_to_set = &slider->bar.cur_value;
 1369              		.loc 1 173 21 is_stmt 1 view .LVU438
 173:Middlewares/lvgl/src/widgets/lv_slider.c ****                         slider->value_to_set = &slider->bar.cur_value;
 1370              		.loc 1 173 23 is_stmt 0 view .LVU439
 1371 01fe 9A42     		cmp	r2, r3
 1372 0200 09DD     		ble	.L72
 174:Middlewares/lvgl/src/widgets/lv_slider.c ****                         slider->left_knob_focus = 0;
 1373              		.loc 1 174 25 is_stmt 1 view .LVU440
 174:Middlewares/lvgl/src/widgets/lv_slider.c ****                         slider->left_knob_focus = 0;
 1374              		.loc 1 174 48 is_stmt 0 view .LVU441
 1375 0202 05F12403 		add	r3, r5, #36
 1376              	.LVL137:
 174:Middlewares/lvgl/src/widgets/lv_slider.c ****                         slider->left_knob_focus = 0;
 1377              		.loc 1 174 46 view .LVU442
 1378 0206 2B67     		str	r3, [r5, #112]
 175:Middlewares/lvgl/src/widgets/lv_slider.c ****                     }
 1379              		.loc 1 175 25 is_stmt 1 view .LVU443
 175:Middlewares/lvgl/src/widgets/lv_slider.c ****                     }
 1380              		.loc 1 175 49 is_stmt 0 view .LVU444
 1381 0208 95F87430 		ldrb	r3, [r5, #116]	@ zero_extendqisi2
 1382 020c 6FF34103 		bfc	r3, #1, #1
 1383 0210 85F87430 		strb	r3, [r5, #116]
 1384 0214 FDE6     		b	.L55
 1385              	.LVL138:
 1386              	.L72:
 178:Middlewares/lvgl/src/widgets/lv_slider.c ****                         slider->left_knob_focus = 1;
 1387              		.loc 1 178 25 is_stmt 1 view .LVU445
 178:Middlewares/lvgl/src/widgets/lv_slider.c ****                         slider->left_knob_focus = 1;
 1388              		.loc 1 178 48 is_stmt 0 view .LVU446
 1389 0216 05F13003 		add	r3, r5, #48
 1390              	.LVL139:
 178:Middlewares/lvgl/src/widgets/lv_slider.c ****                         slider->left_knob_focus = 1;
 1391              		.loc 1 178 46 view .LVU447
 1392 021a 2B67     		str	r3, [r5, #112]
 179:Middlewares/lvgl/src/widgets/lv_slider.c ****                     }
 1393              		.loc 1 179 25 is_stmt 1 view .LVU448
 179:Middlewares/lvgl/src/widgets/lv_slider.c ****                     }
 1394              		.loc 1 179 49 is_stmt 0 view .LVU449
 1395 021c 95F87430 		ldrb	r3, [r5, #116]	@ zero_extendqisi2
 1396 0220 43F00203 		orr	r3, r3, #2
ARM GAS  /tmp/cc3htL3m.s 			page 48


 1397 0224 85F87430 		strb	r3, [r5, #116]
 1398 0228 F3E6     		b	.L55
 1399              	.LVL140:
 1400              	.L109:
 179:Middlewares/lvgl/src/widgets/lv_slider.c ****                     }
 1401              		.loc 1 179 49 view .LVU450
 1402              	.LBE167:
 1403              	.LBE163:
 185:Middlewares/lvgl/src/widgets/lv_slider.c ****         lv_indev_t * indev = lv_indev_get_act();
 1404              		.loc 1 185 48 discriminator 1 view .LVU451
 1405 022a 2B6F     		ldr	r3, [r5, #112]
 185:Middlewares/lvgl/src/widgets/lv_slider.c ****         lv_indev_t * indev = lv_indev_get_act();
 1406              		.loc 1 185 39 discriminator 1 view .LVU452
 1407 022c 002B     		cmp	r3, #0
 1408 022e 3FF40AAF 		beq	.L73
 1409              	.LBB168:
 186:Middlewares/lvgl/src/widgets/lv_slider.c ****         if(lv_indev_get_type(indev) != LV_INDEV_TYPE_POINTER) return;
 1410              		.loc 1 186 9 is_stmt 1 view .LVU453
 186:Middlewares/lvgl/src/widgets/lv_slider.c ****         if(lv_indev_get_type(indev) != LV_INDEV_TYPE_POINTER) return;
 1411              		.loc 1 186 30 is_stmt 0 view .LVU454
 1412 0232 FFF7FEFF 		bl	lv_indev_get_act
 1413              	.LVL141:
 1414 0236 0446     		mov	r4, r0
 1415              	.LVL142:
 187:Middlewares/lvgl/src/widgets/lv_slider.c **** 
 1416              		.loc 1 187 9 is_stmt 1 view .LVU455
 187:Middlewares/lvgl/src/widgets/lv_slider.c **** 
 1417              		.loc 1 187 12 is_stmt 0 view .LVU456
 1418 0238 FFF7FEFF 		bl	lv_indev_get_type
 1419              	.LVL143:
 187:Middlewares/lvgl/src/widgets/lv_slider.c **** 
 1420              		.loc 1 187 11 view .LVU457
 1421 023c 0128     		cmp	r0, #1
 1422 023e 7FF4E8AE 		bne	.L55
 189:Middlewares/lvgl/src/widgets/lv_slider.c ****         lv_indev_get_point(indev, &p);
 1423              		.loc 1 189 9 is_stmt 1 view .LVU458
 190:Middlewares/lvgl/src/widgets/lv_slider.c ****         lv_base_dir_t base_dir = lv_obj_get_style_base_dir(obj, LV_PART_MAIN);
 1424              		.loc 1 190 9 view .LVU459
 1425 0242 05A9     		add	r1, sp, #20
 1426 0244 2046     		mov	r0, r4
 1427 0246 FFF7FEFF 		bl	lv_indev_get_point
 1428              	.LVL144:
 191:Middlewares/lvgl/src/widgets/lv_slider.c **** 
 1429              		.loc 1 191 9 view .LVU460
 1430              	.LBB169:
 1431              	.LBI169:
 187:Middlewares/lvgl/src/widgets/../core/lv_obj_style_gen.h **** {
 1432              		.loc 2 187 29 view .LVU461
 1433              	.LBB170:
 189:Middlewares/lvgl/src/widgets/../core/lv_obj_style_gen.h ****     return (lv_base_dir_t)v.num;
 1434              		.loc 2 189 5 view .LVU462
 189:Middlewares/lvgl/src/widgets/../core/lv_obj_style_gen.h ****     return (lv_base_dir_t)v.num;
 1435              		.loc 2 189 26 is_stmt 0 view .LVU463
 1436 024a 41F26A42 		movw	r2, #5226
 1437 024e 0021     		movs	r1, #0
 1438 0250 2846     		mov	r0, r5
 1439 0252 FFF7FEFF 		bl	lv_obj_get_style_prop
ARM GAS  /tmp/cc3htL3m.s 			page 49


 1440              	.LVL145:
 1441              		.loc 2 190 5 is_stmt 1 view .LVU464
 1442              		.loc 2 190 12 is_stmt 0 view .LVU465
 1443 0256 5FFA80F9 		uxtb	r9, r0
 1444              	.LVL146:
 1445              		.loc 2 190 12 view .LVU466
 1446              	.LBE170:
 1447              	.LBE169:
 193:Middlewares/lvgl/src/widgets/lv_slider.c ****         lv_coord_t h = lv_obj_get_height(obj);
 1448              		.loc 1 193 9 is_stmt 1 view .LVU467
 193:Middlewares/lvgl/src/widgets/lv_slider.c ****         lv_coord_t h = lv_obj_get_height(obj);
 1449              		.loc 1 193 24 is_stmt 0 view .LVU468
 1450 025a 2846     		mov	r0, r5
 1451 025c FFF7FEFF 		bl	lv_obj_get_width
 1452              	.LVL147:
 1453 0260 0646     		mov	r6, r0
 1454              	.LVL148:
 194:Middlewares/lvgl/src/widgets/lv_slider.c **** 
 1455              		.loc 1 194 9 is_stmt 1 view .LVU469
 194:Middlewares/lvgl/src/widgets/lv_slider.c **** 
 1456              		.loc 1 194 24 is_stmt 0 view .LVU470
 1457 0262 2846     		mov	r0, r5
 1458 0264 FFF7FEFF 		bl	lv_obj_get_height
 1459              	.LVL149:
 1460 0268 0446     		mov	r4, r0
 1461              	.LVL150:
 196:Middlewares/lvgl/src/widgets/lv_slider.c ****         lv_coord_t bg_right = lv_obj_get_style_pad_right(obj,  LV_PART_MAIN);
 1462              		.loc 1 196 9 is_stmt 1 view .LVU471
 1463              	.LBB171:
 1464              	.LBI171:
 103:Middlewares/lvgl/src/widgets/../core/lv_obj_style_gen.h **** {
 1465              		.loc 2 103 26 view .LVU472
 1466              	.LBB172:
 105:Middlewares/lvgl/src/widgets/../core/lv_obj_style_gen.h ****     return (lv_coord_t)v.num;
 1467              		.loc 2 105 5 view .LVU473
 105:Middlewares/lvgl/src/widgets/../core/lv_obj_style_gen.h ****     return (lv_coord_t)v.num;
 1468              		.loc 2 105 26 is_stmt 0 view .LVU474
 1469 026a 41F21202 		movw	r2, #4114
 1470 026e 0021     		movs	r1, #0
 1471 0270 2846     		mov	r0, r5
 1472 0272 FFF7FEFF 		bl	lv_obj_get_style_prop
 1473              	.LVL151:
 1474 0276 8046     		mov	r8, r0
 106:Middlewares/lvgl/src/widgets/../core/lv_obj_style_gen.h **** }
 1475              		.loc 2 106 5 is_stmt 1 view .LVU475
 106:Middlewares/lvgl/src/widgets/../core/lv_obj_style_gen.h **** }
 1476              		.loc 2 106 12 is_stmt 0 view .LVU476
 1477 0278 0FFA80FA 		sxth	r10, r0
 1478              	.LVL152:
 106:Middlewares/lvgl/src/widgets/../core/lv_obj_style_gen.h **** }
 1479              		.loc 2 106 12 view .LVU477
 1480              	.LBE172:
 1481              	.LBE171:
 197:Middlewares/lvgl/src/widgets/lv_slider.c ****         lv_coord_t bg_top = lv_obj_get_style_pad_top(obj,    LV_PART_MAIN);
 1482              		.loc 1 197 9 is_stmt 1 view .LVU478
 1483              	.LBB173:
 1484              	.LBI173:
ARM GAS  /tmp/cc3htL3m.s 			page 50


 109:Middlewares/lvgl/src/widgets/../core/lv_obj_style_gen.h **** {
 1485              		.loc 2 109 26 view .LVU479
 1486              	.LBB174:
 111:Middlewares/lvgl/src/widgets/../core/lv_obj_style_gen.h ****     return (lv_coord_t)v.num;
 1487              		.loc 2 111 5 view .LVU480
 111:Middlewares/lvgl/src/widgets/../core/lv_obj_style_gen.h ****     return (lv_coord_t)v.num;
 1488              		.loc 2 111 26 is_stmt 0 view .LVU481
 1489 027c 41F21302 		movw	r2, #4115
 1490 0280 0021     		movs	r1, #0
 1491 0282 2846     		mov	r0, r5
 1492 0284 FFF7FEFF 		bl	lv_obj_get_style_prop
 1493              	.LVL153:
 1494 0288 0746     		mov	r7, r0
 1495              	.LVL154:
 112:Middlewares/lvgl/src/widgets/../core/lv_obj_style_gen.h **** }
 1496              		.loc 2 112 5 is_stmt 1 view .LVU482
 112:Middlewares/lvgl/src/widgets/../core/lv_obj_style_gen.h **** }
 1497              		.loc 2 112 12 is_stmt 0 view .LVU483
 1498 028a 0FFA80FB 		sxth	fp, r0
 1499              	.LVL155:
 112:Middlewares/lvgl/src/widgets/../core/lv_obj_style_gen.h **** }
 1500              		.loc 2 112 12 view .LVU484
 1501              	.LBE174:
 1502              	.LBE173:
 198:Middlewares/lvgl/src/widgets/lv_slider.c ****         lv_coord_t bg_bottom = lv_obj_get_style_pad_bottom(obj, LV_PART_MAIN);
 1503              		.loc 1 198 9 is_stmt 1 view .LVU485
 1504              	.LBB175:
 1505              	.LBI175:
  91:Middlewares/lvgl/src/widgets/../core/lv_obj_style_gen.h **** {
 1506              		.loc 2 91 26 view .LVU486
 1507              	.LBB176:
  93:Middlewares/lvgl/src/widgets/../core/lv_obj_style_gen.h ****     return (lv_coord_t)v.num;
 1508              		.loc 2 93 5 view .LVU487
  93:Middlewares/lvgl/src/widgets/../core/lv_obj_style_gen.h ****     return (lv_coord_t)v.num;
 1509              		.loc 2 93 26 is_stmt 0 view .LVU488
 1510 028e 41F21002 		movw	r2, #4112
 1511 0292 0021     		movs	r1, #0
 1512 0294 2846     		mov	r0, r5
 1513 0296 FFF7FEFF 		bl	lv_obj_get_style_prop
 1514              	.LVL156:
 1515 029a 0190     		str	r0, [sp, #4]
  94:Middlewares/lvgl/src/widgets/../core/lv_obj_style_gen.h **** }
 1516              		.loc 2 94 5 is_stmt 1 view .LVU489
 1517              	.LVL157:
  94:Middlewares/lvgl/src/widgets/../core/lv_obj_style_gen.h **** }
 1518              		.loc 2 94 5 is_stmt 0 view .LVU490
 1519              	.LBE176:
 1520              	.LBE175:
 199:Middlewares/lvgl/src/widgets/lv_slider.c **** 
 1521              		.loc 1 199 9 is_stmt 1 view .LVU491
 1522              	.LBB177:
 1523              	.LBI177:
  97:Middlewares/lvgl/src/widgets/../core/lv_obj_style_gen.h **** {
 1524              		.loc 2 97 26 view .LVU492
 1525              	.LBB178:
  99:Middlewares/lvgl/src/widgets/../core/lv_obj_style_gen.h ****     return (lv_coord_t)v.num;
 1526              		.loc 2 99 5 view .LVU493
ARM GAS  /tmp/cc3htL3m.s 			page 51


  99:Middlewares/lvgl/src/widgets/../core/lv_obj_style_gen.h ****     return (lv_coord_t)v.num;
 1527              		.loc 2 99 26 is_stmt 0 view .LVU494
 1528 029c 41F21102 		movw	r2, #4113
 1529 02a0 0021     		movs	r1, #0
 1530 02a2 2846     		mov	r0, r5
 1531 02a4 FFF7FEFF 		bl	lv_obj_get_style_prop
 1532              	.LVL158:
 100:Middlewares/lvgl/src/widgets/../core/lv_obj_style_gen.h **** }
 1533              		.loc 2 100 5 is_stmt 1 view .LVU495
 100:Middlewares/lvgl/src/widgets/../core/lv_obj_style_gen.h **** }
 1534              		.loc 2 100 12 is_stmt 0 view .LVU496
 1535 02a8 03B2     		sxth	r3, r0
 1536              	.LVL159:
 100:Middlewares/lvgl/src/widgets/../core/lv_obj_style_gen.h **** }
 1537              		.loc 2 100 12 view .LVU497
 1538              	.LBE178:
 1539              	.LBE177:
 201:Middlewares/lvgl/src/widgets/lv_slider.c ****         int32_t new_value = 0;
 1540              		.loc 1 201 9 is_stmt 1 view .LVU498
 201:Middlewares/lvgl/src/widgets/lv_slider.c ****         int32_t new_value = 0;
 1541              		.loc 1 201 36 is_stmt 0 view .LVU499
 1542 02aa E96A     		ldr	r1, [r5, #44]
 201:Middlewares/lvgl/src/widgets/lv_slider.c ****         int32_t new_value = 0;
 1543              		.loc 1 201 60 view .LVU500
 1544 02ac AA6A     		ldr	r2, [r5, #40]
 201:Middlewares/lvgl/src/widgets/lv_slider.c ****         int32_t new_value = 0;
 1545              		.loc 1 201 17 view .LVU501
 1546 02ae A1EB020C 		sub	ip, r1, r2
 1547              	.LVL160:
 202:Middlewares/lvgl/src/widgets/lv_slider.c ****         int32_t real_max_value = slider->bar.max_value;
 1548              		.loc 1 202 9 is_stmt 1 view .LVU502
 203:Middlewares/lvgl/src/widgets/lv_slider.c ****         int32_t real_min_value = slider->bar.min_value;
 1549              		.loc 1 203 9 view .LVU503
 204:Middlewares/lvgl/src/widgets/lv_slider.c **** 
 1550              		.loc 1 204 9 view .LVU504
 206:Middlewares/lvgl/src/widgets/lv_slider.c ****             lv_coord_t indic_w = w - bg_left - bg_right;
 1551              		.loc 1 206 9 view .LVU505
 206:Middlewares/lvgl/src/widgets/lv_slider.c ****             lv_coord_t indic_w = w - bg_left - bg_right;
 1552              		.loc 1 206 11 is_stmt 0 view .LVU506
 1553 02b2 A642     		cmp	r6, r4
 1554 02b4 36DB     		blt	.L75
 1555              	.LBB179:
 207:Middlewares/lvgl/src/widgets/lv_slider.c ****             if(base_dir == LV_BASE_DIR_RTL) {
 1556              		.loc 1 207 13 is_stmt 1 view .LVU507
 207:Middlewares/lvgl/src/widgets/lv_slider.c ****             if(base_dir == LV_BASE_DIR_RTL) {
 1557              		.loc 1 207 36 is_stmt 0 view .LVU508
 1558 02b6 A6EB0803 		sub	r3, r6, r8
 1559              	.LVL161:
 207:Middlewares/lvgl/src/widgets/lv_slider.c ****             if(base_dir == LV_BASE_DIR_RTL) {
 1560              		.loc 1 207 36 view .LVU509
 1561 02ba 9BB2     		uxth	r3, r3
 207:Middlewares/lvgl/src/widgets/lv_slider.c ****             if(base_dir == LV_BASE_DIR_RTL) {
 1562              		.loc 1 207 46 view .LVU510
 1563 02bc DB1B     		subs	r3, r3, r7
 207:Middlewares/lvgl/src/widgets/lv_slider.c ****             if(base_dir == LV_BASE_DIR_RTL) {
 1564              		.loc 1 207 24 view .LVU511
 1565 02be 18B2     		sxth	r0, r3
ARM GAS  /tmp/cc3htL3m.s 			page 52


 1566              	.LVL162:
 208:Middlewares/lvgl/src/widgets/lv_slider.c ****                 new_value = (obj->coords.x2 - bg_right) - p.x; /*Make the point relative to the ind
 1567              		.loc 1 208 13 is_stmt 1 view .LVU512
 208:Middlewares/lvgl/src/widgets/lv_slider.c ****                 new_value = (obj->coords.x2 - bg_right) - p.x; /*Make the point relative to the ind
 1568              		.loc 1 208 15 is_stmt 0 view .LVU513
 1569 02c0 B9F1010F 		cmp	r9, #1
 1570 02c4 26D0     		beq	.L117
 212:Middlewares/lvgl/src/widgets/lv_slider.c ****             }
 1571              		.loc 1 212 17 is_stmt 1 view .LVU514
 212:Middlewares/lvgl/src/widgets/lv_slider.c ****             }
 1572              		.loc 1 212 30 is_stmt 0 view .LVU515
 1573 02c6 BDF91430 		ldrsh	r3, [sp, #20]
 212:Middlewares/lvgl/src/widgets/lv_slider.c ****             }
 1574              		.loc 1 212 47 view .LVU516
 1575 02ca B5F91440 		ldrsh	r4, [r5, #20]
 1576              	.LVL163:
 212:Middlewares/lvgl/src/widgets/lv_slider.c ****             }
 1577              		.loc 1 212 51 view .LVU517
 1578 02ce A244     		add	r10, r10, r4
 1579              	.LVL164:
 212:Middlewares/lvgl/src/widgets/lv_slider.c ****             }
 1580              		.loc 1 212 27 view .LVU518
 1581 02d0 A3EB0A03 		sub	r3, r3, r10
 1582              	.LVL165:
 1583              	.L77:
 214:Middlewares/lvgl/src/widgets/lv_slider.c ****             new_value += slider->bar.min_value;
 1584              		.loc 1 214 13 is_stmt 1 view .LVU519
 214:Middlewares/lvgl/src/widgets/lv_slider.c ****             new_value += slider->bar.min_value;
 1585              		.loc 1 214 36 is_stmt 0 view .LVU520
 1586 02d4 0CFB03F3 		mul	r3, ip, r3
 1587              	.LVL166:
 214:Middlewares/lvgl/src/widgets/lv_slider.c ****             new_value += slider->bar.min_value;
 1588              		.loc 1 214 23 view .LVU521
 1589 02d8 93FBF0F3 		sdiv	r3, r3, r0
 1590              	.LVL167:
 215:Middlewares/lvgl/src/widgets/lv_slider.c ****         }
 1591              		.loc 1 215 13 is_stmt 1 view .LVU522
 215:Middlewares/lvgl/src/widgets/lv_slider.c ****         }
 1592              		.loc 1 215 23 is_stmt 0 view .LVU523
 1593 02dc 1344     		add	r3, r3, r2
 1594              	.LVL168:
 1595              	.L78:
 215:Middlewares/lvgl/src/widgets/lv_slider.c ****         }
 1596              		.loc 1 215 23 view .LVU524
 1597              	.LBE179:
 226:Middlewares/lvgl/src/widgets/lv_slider.c ****             real_max_value = slider->bar.cur_value;
 1598              		.loc 1 226 9 is_stmt 1 view .LVU525
 226:Middlewares/lvgl/src/widgets/lv_slider.c ****             real_max_value = slider->bar.cur_value;
 1599              		.loc 1 226 18 is_stmt 0 view .LVU526
 1600 02de 286F     		ldr	r0, [r5, #112]
 226:Middlewares/lvgl/src/widgets/lv_slider.c ****             real_max_value = slider->bar.cur_value;
 1601              		.loc 1 226 36 view .LVU527
 1602 02e0 05F13004 		add	r4, r5, #48
 226:Middlewares/lvgl/src/widgets/lv_slider.c ****             real_max_value = slider->bar.cur_value;
 1603              		.loc 1 226 11 view .LVU528
 1604 02e4 A042     		cmp	r0, r4
 1605 02e6 2ED0     		beq	.L118
ARM GAS  /tmp/cc3htL3m.s 			page 53


 230:Middlewares/lvgl/src/widgets/lv_slider.c ****         }
 1606              		.loc 1 230 13 is_stmt 1 view .LVU529
 230:Middlewares/lvgl/src/widgets/lv_slider.c ****         }
 1607              		.loc 1 230 28 is_stmt 0 view .LVU530
 1608 02e8 2A6B     		ldr	r2, [r5, #48]
 1609              	.LVL169:
 1610              	.L80:
 233:Middlewares/lvgl/src/widgets/lv_slider.c ****         else if(new_value > real_max_value) new_value = real_max_value;
 1611              		.loc 1 233 9 is_stmt 1 view .LVU531
 233:Middlewares/lvgl/src/widgets/lv_slider.c ****         else if(new_value > real_max_value) new_value = real_max_value;
 1612              		.loc 1 233 11 is_stmt 0 view .LVU532
 1613 02ea 9342     		cmp	r3, r2
 1614 02ec 02DB     		blt	.L81
 234:Middlewares/lvgl/src/widgets/lv_slider.c ****         if(*slider->value_to_set != new_value) {
 1615              		.loc 1 234 14 is_stmt 1 view .LVU533
 234:Middlewares/lvgl/src/widgets/lv_slider.c ****         if(*slider->value_to_set != new_value) {
 1616              		.loc 1 234 16 is_stmt 0 view .LVU534
 1617 02ee 8B42     		cmp	r3, r1
 1618 02f0 2BDC     		bgt	.L103
 1619 02f2 1A46     		mov	r2, r3
 1620              	.LVL170:
 1621              	.L81:
 235:Middlewares/lvgl/src/widgets/lv_slider.c ****             *slider->value_to_set = new_value;
 1622              		.loc 1 235 9 is_stmt 1 view .LVU535
 235:Middlewares/lvgl/src/widgets/lv_slider.c ****             *slider->value_to_set = new_value;
 1623              		.loc 1 235 12 is_stmt 0 view .LVU536
 1624 02f4 0368     		ldr	r3, [r0]
 235:Middlewares/lvgl/src/widgets/lv_slider.c ****             *slider->value_to_set = new_value;
 1625              		.loc 1 235 11 view .LVU537
 1626 02f6 9342     		cmp	r3, r2
 1627 02f8 3FF48BAE 		beq	.L55
 236:Middlewares/lvgl/src/widgets/lv_slider.c ****             lv_obj_invalidate(obj);
 1628              		.loc 1 236 13 is_stmt 1 view .LVU538
 236:Middlewares/lvgl/src/widgets/lv_slider.c ****             lv_obj_invalidate(obj);
 1629              		.loc 1 236 35 is_stmt 0 view .LVU539
 1630 02fc 0260     		str	r2, [r0]
 237:Middlewares/lvgl/src/widgets/lv_slider.c ****             res = lv_event_send(obj, LV_EVENT_VALUE_CHANGED, NULL);
 1631              		.loc 1 237 13 is_stmt 1 view .LVU540
 1632 02fe 2846     		mov	r0, r5
 1633 0300 FFF7FEFF 		bl	lv_obj_invalidate
 1634              	.LVL171:
 238:Middlewares/lvgl/src/widgets/lv_slider.c ****             if(res != LV_RES_OK) return;
 1635              		.loc 1 238 13 view .LVU541
 238:Middlewares/lvgl/src/widgets/lv_slider.c ****             if(res != LV_RES_OK) return;
 1636              		.loc 1 238 19 is_stmt 0 view .LVU542
 1637 0304 0022     		movs	r2, #0
 1638 0306 1C21     		movs	r1, #28
 1639 0308 2846     		mov	r0, r5
 1640 030a FFF7FEFF 		bl	lv_event_send
 1641              	.LVL172:
 239:Middlewares/lvgl/src/widgets/lv_slider.c ****         }
 1642              		.loc 1 239 13 is_stmt 1 view .LVU543
 1643 030e 80E6     		b	.L55
 1644              	.L120:
 1645              		.align	2
 1646              	.L119:
 1647 0310 00000000 		.word	.LANCHOR0
ARM GAS  /tmp/cc3htL3m.s 			page 54


 1648              	.LVL173:
 1649              	.L117:
 1650              	.LBB180:
 209:Middlewares/lvgl/src/widgets/lv_slider.c ****             }
 1651              		.loc 1 209 17 view .LVU544
 209:Middlewares/lvgl/src/widgets/lv_slider.c ****             }
 1652              		.loc 1 209 41 is_stmt 0 view .LVU545
 1653 0314 B5F91830 		ldrsh	r3, [r5, #24]
 209:Middlewares/lvgl/src/widgets/lv_slider.c ****             }
 1654              		.loc 1 209 45 view .LVU546
 1655 0318 A3EB0B03 		sub	r3, r3, fp
 209:Middlewares/lvgl/src/widgets/lv_slider.c ****             }
 1656              		.loc 1 209 60 view .LVU547
 1657 031c BDF91440 		ldrsh	r4, [sp, #20]
 1658              	.LVL174:
 209:Middlewares/lvgl/src/widgets/lv_slider.c ****             }
 1659              		.loc 1 209 27 view .LVU548
 1660 0320 1B1B     		subs	r3, r3, r4
 1661              	.LVL175:
 209:Middlewares/lvgl/src/widgets/lv_slider.c ****             }
 1662              		.loc 1 209 27 view .LVU549
 1663 0322 D7E7     		b	.L77
 1664              	.LVL176:
 1665              	.L75:
 209:Middlewares/lvgl/src/widgets/lv_slider.c ****             }
 1666              		.loc 1 209 27 view .LVU550
 1667              	.LBE180:
 1668              	.LBB181:
 218:Middlewares/lvgl/src/widgets/lv_slider.c ****             new_value = p.y - (obj->coords.y2 + bg_bottom); /*Make the point relative to the indica
 1669              		.loc 1 218 13 is_stmt 1 view .LVU551
 218:Middlewares/lvgl/src/widgets/lv_slider.c ****             new_value = p.y - (obj->coords.y2 + bg_bottom); /*Make the point relative to the indica
 1670              		.loc 1 218 36 is_stmt 0 view .LVU552
 1671 0324 201A     		subs	r0, r4, r0
 1672 0326 80B2     		uxth	r0, r0
 218:Middlewares/lvgl/src/widgets/lv_slider.c ****             new_value = p.y - (obj->coords.y2 + bg_bottom); /*Make the point relative to the indica
 1673              		.loc 1 218 48 view .LVU553
 1674 0328 019C     		ldr	r4, [sp, #4]
 1675              	.LVL177:
 218:Middlewares/lvgl/src/widgets/lv_slider.c ****             new_value = p.y - (obj->coords.y2 + bg_bottom); /*Make the point relative to the indica
 1676              		.loc 1 218 48 view .LVU554
 1677 032a 001B     		subs	r0, r0, r4
 218:Middlewares/lvgl/src/widgets/lv_slider.c ****             new_value = p.y - (obj->coords.y2 + bg_bottom); /*Make the point relative to the indica
 1678              		.loc 1 218 24 view .LVU555
 1679 032c 00B2     		sxth	r0, r0
 1680              	.LVL178:
 219:Middlewares/lvgl/src/widgets/lv_slider.c ****             new_value = (-new_value * range) / indic_h;
 1681              		.loc 1 219 13 is_stmt 1 view .LVU556
 219:Middlewares/lvgl/src/widgets/lv_slider.c ****             new_value = (-new_value * range) / indic_h;
 1682              		.loc 1 219 26 is_stmt 0 view .LVU557
 1683 032e BDF91640 		ldrsh	r4, [sp, #22]
 219:Middlewares/lvgl/src/widgets/lv_slider.c ****             new_value = (-new_value * range) / indic_h;
 1684              		.loc 1 219 43 view .LVU558
 1685 0332 B5F91A60 		ldrsh	r6, [r5, #26]
 1686              	.LVL179:
 219:Middlewares/lvgl/src/widgets/lv_slider.c ****             new_value = (-new_value * range) / indic_h;
 1687              		.loc 1 219 47 view .LVU559
 1688 0336 3344     		add	r3, r3, r6
ARM GAS  /tmp/cc3htL3m.s 			page 55


 1689              	.LVL180:
 220:Middlewares/lvgl/src/widgets/lv_slider.c ****             new_value += slider->bar.min_value;
 1690              		.loc 1 220 13 is_stmt 1 view .LVU560
 220:Middlewares/lvgl/src/widgets/lv_slider.c ****             new_value += slider->bar.min_value;
 1691              		.loc 1 220 26 is_stmt 0 view .LVU561
 1692 0338 1B1B     		subs	r3, r3, r4
 1693              	.LVL181:
 220:Middlewares/lvgl/src/widgets/lv_slider.c ****             new_value += slider->bar.min_value;
 1694              		.loc 1 220 37 view .LVU562
 1695 033a 0CFB03F3 		mul	r3, ip, r3
 220:Middlewares/lvgl/src/widgets/lv_slider.c ****             new_value += slider->bar.min_value;
 1696              		.loc 1 220 23 view .LVU563
 1697 033e 93FBF0F3 		sdiv	r3, r3, r0
 1698              	.LVL182:
 221:Middlewares/lvgl/src/widgets/lv_slider.c **** 
 1699              		.loc 1 221 13 is_stmt 1 view .LVU564
 221:Middlewares/lvgl/src/widgets/lv_slider.c **** 
 1700              		.loc 1 221 23 is_stmt 0 view .LVU565
 1701 0342 1344     		add	r3, r3, r2
 1702              	.LVL183:
 221:Middlewares/lvgl/src/widgets/lv_slider.c **** 
 1703              		.loc 1 221 23 view .LVU566
 1704 0344 CBE7     		b	.L78
 1705              	.LVL184:
 1706              	.L118:
 221:Middlewares/lvgl/src/widgets/lv_slider.c **** 
 1707              		.loc 1 221 23 view .LVU567
 1708              	.LBE181:
 227:Middlewares/lvgl/src/widgets/lv_slider.c ****         }
 1709              		.loc 1 227 13 is_stmt 1 view .LVU568
 227:Middlewares/lvgl/src/widgets/lv_slider.c ****         }
 1710              		.loc 1 227 28 is_stmt 0 view .LVU569
 1711 0346 696A     		ldr	r1, [r5, #36]
 1712              	.LVL185:
 227:Middlewares/lvgl/src/widgets/lv_slider.c ****         }
 1713              		.loc 1 227 28 view .LVU570
 1714 0348 CFE7     		b	.L80
 1715              	.L103:
 234:Middlewares/lvgl/src/widgets/lv_slider.c ****         if(*slider->value_to_set != new_value) {
 1716              		.loc 1 234 55 view .LVU571
 1717 034a 0A46     		mov	r2, r1
 1718              	.LVL186:
 234:Middlewares/lvgl/src/widgets/lv_slider.c ****         if(*slider->value_to_set != new_value) {
 1719              		.loc 1 234 55 view .LVU572
 1720 034c D2E7     		b	.L81
 1721              	.LVL187:
 1722              	.L83:
 234:Middlewares/lvgl/src/widgets/lv_slider.c ****         if(*slider->value_to_set != new_value) {
 1723              		.loc 1 234 55 view .LVU573
 1724              	.LBE168:
 1725              	.LBB182:
 244:Middlewares/lvgl/src/widgets/lv_slider.c ****         slider->value_to_set = NULL;
 1726              		.loc 1 244 9 is_stmt 1 view .LVU574
 244:Middlewares/lvgl/src/widgets/lv_slider.c ****         slider->value_to_set = NULL;
 1727              		.loc 1 244 26 is_stmt 0 view .LVU575
 1728 034e 95F87430 		ldrb	r3, [r5, #116]	@ zero_extendqisi2
 1729 0352 6FF30003 		bfc	r3, #0, #1
ARM GAS  /tmp/cc3htL3m.s 			page 56


 1730 0356 85F87430 		strb	r3, [r5, #116]
 245:Middlewares/lvgl/src/widgets/lv_slider.c **** 
 1731              		.loc 1 245 9 is_stmt 1 view .LVU576
 245:Middlewares/lvgl/src/widgets/lv_slider.c **** 
 1732              		.loc 1 245 30 is_stmt 0 view .LVU577
 1733 035a 0023     		movs	r3, #0
 1734 035c 2B67     		str	r3, [r5, #112]
 247:Middlewares/lvgl/src/widgets/lv_slider.c **** 
 1735              		.loc 1 247 9 is_stmt 1 view .LVU578
 1736 035e 2846     		mov	r0, r5
 1737 0360 FFF7FEFF 		bl	lv_obj_invalidate
 1738              	.LVL188:
 250:Middlewares/lvgl/src/widgets/lv_slider.c ****         bool editing     = lv_group_get_editing(g);
 1739              		.loc 1 250 9 view .LVU579
 250:Middlewares/lvgl/src/widgets/lv_slider.c ****         bool editing     = lv_group_get_editing(g);
 1740              		.loc 1 250 28 is_stmt 0 view .LVU580
 1741 0364 2846     		mov	r0, r5
 1742 0366 FFF7FEFF 		bl	lv_obj_get_group
 1743              	.LVL189:
 1744 036a 0646     		mov	r6, r0
 1745              	.LVL190:
 251:Middlewares/lvgl/src/widgets/lv_slider.c ****         lv_indev_type_t indev_type = lv_indev_get_type(lv_indev_get_act());
 1746              		.loc 1 251 9 is_stmt 1 view .LVU581
 251:Middlewares/lvgl/src/widgets/lv_slider.c ****         lv_indev_type_t indev_type = lv_indev_get_type(lv_indev_get_act());
 1747              		.loc 1 251 28 is_stmt 0 view .LVU582
 1748 036c FFF7FEFF 		bl	lv_group_get_editing
 1749              	.LVL191:
 251:Middlewares/lvgl/src/widgets/lv_slider.c ****         lv_indev_type_t indev_type = lv_indev_get_type(lv_indev_get_act());
 1750              		.loc 1 251 28 view .LVU583
 1751 0370 0446     		mov	r4, r0
 1752              	.LVL192:
 252:Middlewares/lvgl/src/widgets/lv_slider.c ****         if(indev_type == LV_INDEV_TYPE_ENCODER) {
 1753              		.loc 1 252 9 is_stmt 1 view .LVU584
 252:Middlewares/lvgl/src/widgets/lv_slider.c ****         if(indev_type == LV_INDEV_TYPE_ENCODER) {
 1754              		.loc 1 252 56 is_stmt 0 view .LVU585
 1755 0372 FFF7FEFF 		bl	lv_indev_get_act
 1756              	.LVL193:
 252:Middlewares/lvgl/src/widgets/lv_slider.c ****         if(indev_type == LV_INDEV_TYPE_ENCODER) {
 1757              		.loc 1 252 38 view .LVU586
 1758 0376 FFF7FEFF 		bl	lv_indev_get_type
 1759              	.LVL194:
 253:Middlewares/lvgl/src/widgets/lv_slider.c ****             if(editing) {
 1760              		.loc 1 253 9 is_stmt 1 view .LVU587
 253:Middlewares/lvgl/src/widgets/lv_slider.c ****             if(editing) {
 1761              		.loc 1 253 11 is_stmt 0 view .LVU588
 1762 037a 0428     		cmp	r0, #4
 1763 037c 7FF449AE 		bne	.L55
 254:Middlewares/lvgl/src/widgets/lv_slider.c ****                 if(lv_slider_get_mode(obj) == LV_SLIDER_MODE_RANGE) {
 1764              		.loc 1 254 13 is_stmt 1 view .LVU589
 254:Middlewares/lvgl/src/widgets/lv_slider.c ****                 if(lv_slider_get_mode(obj) == LV_SLIDER_MODE_RANGE) {
 1765              		.loc 1 254 15 is_stmt 0 view .LVU590
 1766 0380 002C     		cmp	r4, #0
 1767 0382 3FF446AE 		beq	.L55
 255:Middlewares/lvgl/src/widgets/lv_slider.c ****                     if(slider->left_knob_focus == 0) slider->left_knob_focus = 1;
 1768              		.loc 1 255 17 is_stmt 1 view .LVU591
 1769              	.LVL195:
 1770              	.LBB183:
ARM GAS  /tmp/cc3htL3m.s 			page 57


 1771              	.LBI183:
 168:Middlewares/lvgl/src/widgets/lv_slider.h **** {
 1772              		.loc 4 168 32 view .LVU592
 1773              	.LBB184:
 170:Middlewares/lvgl/src/widgets/lv_slider.h ****     if(mode == LV_BAR_MODE_SYMMETRICAL) return LV_SLIDER_MODE_SYMMETRICAL;
 1774              		.loc 4 170 5 view .LVU593
 170:Middlewares/lvgl/src/widgets/lv_slider.h ****     if(mode == LV_BAR_MODE_SYMMETRICAL) return LV_SLIDER_MODE_SYMMETRICAL;
 1775              		.loc 4 170 26 is_stmt 0 view .LVU594
 1776 0386 2846     		mov	r0, r5
 1777              	.LVL196:
 170:Middlewares/lvgl/src/widgets/lv_slider.h ****     if(mode == LV_BAR_MODE_SYMMETRICAL) return LV_SLIDER_MODE_SYMMETRICAL;
 1778              		.loc 4 170 26 view .LVU595
 1779 0388 FFF7FEFF 		bl	lv_bar_get_mode
 1780              	.LVL197:
 171:Middlewares/lvgl/src/widgets/lv_slider.h ****     else if(mode == LV_BAR_MODE_RANGE) return LV_SLIDER_MODE_RANGE;
 1781              		.loc 4 171 5 is_stmt 1 view .LVU596
 171:Middlewares/lvgl/src/widgets/lv_slider.h ****     else if(mode == LV_BAR_MODE_RANGE) return LV_SLIDER_MODE_RANGE;
 1782              		.loc 4 171 7 is_stmt 0 view .LVU597
 1783 038c 0128     		cmp	r0, #1
 1784 038e 02D0     		beq	.L85
 172:Middlewares/lvgl/src/widgets/lv_slider.h ****     else return LV_SLIDER_MODE_NORMAL;
 1785              		.loc 4 172 10 is_stmt 1 view .LVU598
 172:Middlewares/lvgl/src/widgets/lv_slider.h ****     else return LV_SLIDER_MODE_NORMAL;
 1786              		.loc 4 172 12 is_stmt 0 view .LVU599
 1787 0390 0228     		cmp	r0, #2
 1788 0392 00D0     		beq	.L85
 1789              		.loc 4 173 17 view .LVU600
 1790 0394 0020     		movs	r0, #0
 1791              	.LVL198:
 1792              	.L85:
 1793              		.loc 4 173 17 view .LVU601
 1794              	.LBE184:
 1795              	.LBE183:
 255:Middlewares/lvgl/src/widgets/lv_slider.c ****                     if(slider->left_knob_focus == 0) slider->left_knob_focus = 1;
 1796              		.loc 1 255 19 view .LVU602
 1797 0396 0228     		cmp	r0, #2
 1798 0398 14D1     		bne	.L86
 256:Middlewares/lvgl/src/widgets/lv_slider.c ****                     else {
 1799              		.loc 1 256 21 is_stmt 1 view .LVU603
 256:Middlewares/lvgl/src/widgets/lv_slider.c ****                     else {
 1800              		.loc 1 256 48 is_stmt 0 view .LVU604
 1801 039a 95F87430 		ldrb	r3, [r5, #116]	@ zero_extendqisi2
 256:Middlewares/lvgl/src/widgets/lv_slider.c ****                     else {
 1802              		.loc 1 256 23 view .LVU605
 1803 039e 13F0020F 		tst	r3, #2
 1804 03a2 04D1     		bne	.L87
 256:Middlewares/lvgl/src/widgets/lv_slider.c ****                     else {
 1805              		.loc 1 256 54 is_stmt 1 discriminator 1 view .LVU606
 256:Middlewares/lvgl/src/widgets/lv_slider.c ****                     else {
 1806              		.loc 1 256 78 is_stmt 0 discriminator 1 view .LVU607
 1807 03a4 43F00203 		orr	r3, r3, #2
 1808 03a8 85F87430 		strb	r3, [r5, #116]
 1809 03ac 31E6     		b	.L55
 1810              	.L87:
 258:Middlewares/lvgl/src/widgets/lv_slider.c ****                         lv_group_set_editing(g, false);
 1811              		.loc 1 258 25 is_stmt 1 view .LVU608
 258:Middlewares/lvgl/src/widgets/lv_slider.c ****                         lv_group_set_editing(g, false);
ARM GAS  /tmp/cc3htL3m.s 			page 58


 1812              		.loc 1 258 49 is_stmt 0 view .LVU609
 1813 03ae 95F87430 		ldrb	r3, [r5, #116]	@ zero_extendqisi2
 1814 03b2 6FF34103 		bfc	r3, #1, #1
 1815 03b6 85F87430 		strb	r3, [r5, #116]
 259:Middlewares/lvgl/src/widgets/lv_slider.c ****                     }
 1816              		.loc 1 259 25 is_stmt 1 view .LVU610
 1817 03ba 0021     		movs	r1, #0
 1818 03bc 3046     		mov	r0, r6
 1819 03be FFF7FEFF 		bl	lv_group_set_editing
 1820              	.LVL199:
 1821 03c2 26E6     		b	.L55
 1822              	.L86:
 263:Middlewares/lvgl/src/widgets/lv_slider.c ****                 }
 1823              		.loc 1 263 21 view .LVU611
 1824 03c4 0021     		movs	r1, #0
 1825 03c6 3046     		mov	r0, r6
 1826 03c8 FFF7FEFF 		bl	lv_group_set_editing
 1827              	.LVL200:
 1828 03cc 21E6     		b	.L55
 1829              	.LVL201:
 1830              	.L110:
 263:Middlewares/lvgl/src/widgets/lv_slider.c ****                 }
 1831              		.loc 1 263 21 is_stmt 0 view .LVU612
 1832              	.LBE182:
 1833              	.LBB185:
 270:Middlewares/lvgl/src/widgets/lv_slider.c ****         if(indev_type == LV_INDEV_TYPE_ENCODER || indev_type == LV_INDEV_TYPE_KEYPAD) {
 1834              		.loc 1 270 9 is_stmt 1 view .LVU613
 270:Middlewares/lvgl/src/widgets/lv_slider.c ****         if(indev_type == LV_INDEV_TYPE_ENCODER || indev_type == LV_INDEV_TYPE_KEYPAD) {
 1835              		.loc 1 270 56 is_stmt 0 view .LVU614
 1836 03ce FFF7FEFF 		bl	lv_indev_get_act
 1837              	.LVL202:
 270:Middlewares/lvgl/src/widgets/lv_slider.c ****         if(indev_type == LV_INDEV_TYPE_ENCODER || indev_type == LV_INDEV_TYPE_KEYPAD) {
 1838              		.loc 1 270 38 view .LVU615
 1839 03d2 FFF7FEFF 		bl	lv_indev_get_type
 1840              	.LVL203:
 271:Middlewares/lvgl/src/widgets/lv_slider.c ****             slider->left_knob_focus = 0;
 1841              		.loc 1 271 9 is_stmt 1 view .LVU616
 271:Middlewares/lvgl/src/widgets/lv_slider.c ****             slider->left_knob_focus = 0;
 1842              		.loc 1 271 11 is_stmt 0 view .LVU617
 1843 03d6 0428     		cmp	r0, #4
 1844 03d8 02D0     		beq	.L89
 271:Middlewares/lvgl/src/widgets/lv_slider.c ****             slider->left_knob_focus = 0;
 1845              		.loc 1 271 48 discriminator 1 view .LVU618
 1846 03da 0228     		cmp	r0, #2
 1847 03dc 7FF419AE 		bne	.L55
 1848              	.L89:
 272:Middlewares/lvgl/src/widgets/lv_slider.c ****         }
 1849              		.loc 1 272 13 is_stmt 1 view .LVU619
 272:Middlewares/lvgl/src/widgets/lv_slider.c ****         }
 1850              		.loc 1 272 37 is_stmt 0 view .LVU620
 1851 03e0 95F87430 		ldrb	r3, [r5, #116]	@ zero_extendqisi2
 1852 03e4 6FF34103 		bfc	r3, #1, #1
 1853 03e8 85F87430 		strb	r3, [r5, #116]
 1854 03ec 11E6     		b	.L55
 1855              	.LVL204:
 1856              	.L111:
 272:Middlewares/lvgl/src/widgets/lv_slider.c ****         }
ARM GAS  /tmp/cc3htL3m.s 			page 59


 1857              		.loc 1 272 37 view .LVU621
 1858              	.LBE185:
 276:Middlewares/lvgl/src/widgets/lv_slider.c ****     }
 1859              		.loc 1 276 9 is_stmt 1 view .LVU622
 1860 03ee 2846     		mov	r0, r5
 1861 03f0 FFF7FEFF 		bl	lv_obj_refresh_ext_draw_size
 1862              	.LVL205:
 1863 03f4 0DE6     		b	.L55
 1864              	.L112:
 1865              	.LBB186:
 279:Middlewares/lvgl/src/widgets/lv_slider.c ****         lv_coord_t knob_right = lv_obj_get_style_pad_right(obj,LV_PART_KNOB);
 1866              		.loc 1 279 9 view .LVU623
 1867              	.LVL206:
 1868              	.LBB187:
 1869              	.LBI187:
 103:Middlewares/lvgl/src/widgets/../core/lv_obj_style_gen.h **** {
 1870              		.loc 2 103 26 view .LVU624
 1871              	.LBB188:
 105:Middlewares/lvgl/src/widgets/../core/lv_obj_style_gen.h ****     return (lv_coord_t)v.num;
 1872              		.loc 2 105 5 view .LVU625
 105:Middlewares/lvgl/src/widgets/../core/lv_obj_style_gen.h ****     return (lv_coord_t)v.num;
 1873              		.loc 2 105 26 is_stmt 0 view .LVU626
 1874 03f6 41F21202 		movw	r2, #4114
 1875 03fa 4FF44031 		mov	r1, #196608
 1876 03fe 2846     		mov	r0, r5
 1877 0400 FFF7FEFF 		bl	lv_obj_get_style_prop
 1878              	.LVL207:
 106:Middlewares/lvgl/src/widgets/../core/lv_obj_style_gen.h **** }
 1879              		.loc 2 106 5 is_stmt 1 view .LVU627
 106:Middlewares/lvgl/src/widgets/../core/lv_obj_style_gen.h **** }
 1880              		.loc 2 106 12 is_stmt 0 view .LVU628
 1881 0404 03B2     		sxth	r3, r0
 1882 0406 0193     		str	r3, [sp, #4]
 1883              	.LVL208:
 106:Middlewares/lvgl/src/widgets/../core/lv_obj_style_gen.h **** }
 1884              		.loc 2 106 12 view .LVU629
 1885              	.LBE188:
 1886              	.LBE187:
 280:Middlewares/lvgl/src/widgets/lv_slider.c ****         lv_coord_t knob_top = lv_obj_get_style_pad_top(obj, LV_PART_KNOB);
 1887              		.loc 1 280 9 is_stmt 1 view .LVU630
 1888              	.LBB189:
 1889              	.LBI189:
 109:Middlewares/lvgl/src/widgets/../core/lv_obj_style_gen.h **** {
 1890              		.loc 2 109 26 view .LVU631
 1891              	.LBB190:
 111:Middlewares/lvgl/src/widgets/../core/lv_obj_style_gen.h ****     return (lv_coord_t)v.num;
 1892              		.loc 2 111 5 view .LVU632
 111:Middlewares/lvgl/src/widgets/../core/lv_obj_style_gen.h ****     return (lv_coord_t)v.num;
 1893              		.loc 2 111 26 is_stmt 0 view .LVU633
 1894 0408 41F21302 		movw	r2, #4115
 1895 040c 4FF44031 		mov	r1, #196608
 1896 0410 2846     		mov	r0, r5
 1897 0412 FFF7FEFF 		bl	lv_obj_get_style_prop
 1898              	.LVL209:
 112:Middlewares/lvgl/src/widgets/../core/lv_obj_style_gen.h **** }
 1899              		.loc 2 112 5 is_stmt 1 view .LVU634
 112:Middlewares/lvgl/src/widgets/../core/lv_obj_style_gen.h **** }
ARM GAS  /tmp/cc3htL3m.s 			page 60


 1900              		.loc 2 112 12 is_stmt 0 view .LVU635
 1901 0416 07B2     		sxth	r7, r0
 1902              	.LVL210:
 112:Middlewares/lvgl/src/widgets/../core/lv_obj_style_gen.h **** }
 1903              		.loc 2 112 12 view .LVU636
 1904              	.LBE190:
 1905              	.LBE189:
 281:Middlewares/lvgl/src/widgets/lv_slider.c ****         lv_coord_t knob_bottom = lv_obj_get_style_pad_bottom(obj, LV_PART_KNOB);
 1906              		.loc 1 281 9 is_stmt 1 view .LVU637
 1907              	.LBB191:
 1908              	.LBI191:
  91:Middlewares/lvgl/src/widgets/../core/lv_obj_style_gen.h **** {
 1909              		.loc 2 91 26 view .LVU638
 1910              	.LBB192:
  93:Middlewares/lvgl/src/widgets/../core/lv_obj_style_gen.h ****     return (lv_coord_t)v.num;
 1911              		.loc 2 93 5 view .LVU639
  93:Middlewares/lvgl/src/widgets/../core/lv_obj_style_gen.h ****     return (lv_coord_t)v.num;
 1912              		.loc 2 93 26 is_stmt 0 view .LVU640
 1913 0418 41F21002 		movw	r2, #4112
 1914 041c 4FF44031 		mov	r1, #196608
 1915 0420 2846     		mov	r0, r5
 1916 0422 FFF7FEFF 		bl	lv_obj_get_style_prop
 1917              	.LVL211:
  94:Middlewares/lvgl/src/widgets/../core/lv_obj_style_gen.h **** }
 1918              		.loc 2 94 5 is_stmt 1 view .LVU641
  94:Middlewares/lvgl/src/widgets/../core/lv_obj_style_gen.h **** }
 1919              		.loc 2 94 12 is_stmt 0 view .LVU642
 1920 0426 0FFA80FA 		sxth	r10, r0
 1921              	.LVL212:
  94:Middlewares/lvgl/src/widgets/../core/lv_obj_style_gen.h **** }
 1922              		.loc 2 94 12 view .LVU643
 1923              	.LBE192:
 1924              	.LBE191:
 282:Middlewares/lvgl/src/widgets/lv_slider.c **** 
 1925              		.loc 1 282 9 is_stmt 1 view .LVU644
 1926              	.LBB193:
 1927              	.LBI193:
  97:Middlewares/lvgl/src/widgets/../core/lv_obj_style_gen.h **** {
 1928              		.loc 2 97 26 view .LVU645
 1929              	.LBB194:
  99:Middlewares/lvgl/src/widgets/../core/lv_obj_style_gen.h ****     return (lv_coord_t)v.num;
 1930              		.loc 2 99 5 view .LVU646
  99:Middlewares/lvgl/src/widgets/../core/lv_obj_style_gen.h ****     return (lv_coord_t)v.num;
 1931              		.loc 2 99 26 is_stmt 0 view .LVU647
 1932 042a 41F21102 		movw	r2, #4113
 1933 042e 4FF44031 		mov	r1, #196608
 1934 0432 2846     		mov	r0, r5
 1935 0434 FFF7FEFF 		bl	lv_obj_get_style_prop
 1936              	.LVL213:
 100:Middlewares/lvgl/src/widgets/../core/lv_obj_style_gen.h **** }
 1937              		.loc 2 100 5 is_stmt 1 view .LVU648
 100:Middlewares/lvgl/src/widgets/../core/lv_obj_style_gen.h **** }
 1938              		.loc 2 100 12 is_stmt 0 view .LVU649
 1939 0438 06B2     		sxth	r6, r0
 1940              	.LVL214:
 100:Middlewares/lvgl/src/widgets/../core/lv_obj_style_gen.h **** }
 1941              		.loc 2 100 12 view .LVU650
ARM GAS  /tmp/cc3htL3m.s 			page 61


 1942              	.LBE194:
 1943              	.LBE193:
 285:Middlewares/lvgl/src/widgets/lv_slider.c ****         lv_coord_t trans_w = lv_obj_get_style_transform_width(obj, LV_PART_KNOB);
 1944              		.loc 1 285 9 is_stmt 1 view .LVU651
 1945              	.LBB195:
 1946              	.LBI195:
  79:Middlewares/lvgl/src/widgets/../core/lv_obj_style_gen.h **** {
 1947              		.loc 2 79 26 view .LVU652
 1948              	.LBB196:
  81:Middlewares/lvgl/src/widgets/../core/lv_obj_style_gen.h ****     return (lv_coord_t)v.num;
 1949              		.loc 2 81 5 view .LVU653
  81:Middlewares/lvgl/src/widgets/../core/lv_obj_style_gen.h ****     return (lv_coord_t)v.num;
 1950              		.loc 2 81 26 is_stmt 0 view .LVU654
 1951 043a 40F60E02 		movw	r2, #2062
 1952 043e 4FF44031 		mov	r1, #196608
 1953 0442 2846     		mov	r0, r5
 1954 0444 FFF7FEFF 		bl	lv_obj_get_style_prop
 1955              	.LVL215:
  82:Middlewares/lvgl/src/widgets/../core/lv_obj_style_gen.h **** }
 1956              		.loc 2 82 5 is_stmt 1 view .LVU655
  82:Middlewares/lvgl/src/widgets/../core/lv_obj_style_gen.h **** }
 1957              		.loc 2 82 12 is_stmt 0 view .LVU656
 1958 0448 0FFA80FB 		sxth	fp, r0
 1959              	.LVL216:
  82:Middlewares/lvgl/src/widgets/../core/lv_obj_style_gen.h **** }
 1960              		.loc 2 82 12 view .LVU657
 1961              	.LBE196:
 1962              	.LBE195:
 286:Middlewares/lvgl/src/widgets/lv_slider.c ****         lv_coord_t trans_h = lv_obj_get_style_transform_height(obj, LV_PART_KNOB);
 1963              		.loc 1 286 9 is_stmt 1 view .LVU658
 1964              	.LBB197:
 1965              	.LBI197:
  55:Middlewares/lvgl/src/widgets/../core/lv_obj_style_gen.h **** {
 1966              		.loc 2 55 26 view .LVU659
 1967              	.LBB198:
  57:Middlewares/lvgl/src/widgets/../core/lv_obj_style_gen.h ****     return (lv_coord_t)v.num;
 1968              		.loc 2 57 5 view .LVU660
  57:Middlewares/lvgl/src/widgets/../core/lv_obj_style_gen.h ****     return (lv_coord_t)v.num;
 1969              		.loc 2 57 26 is_stmt 0 view .LVU661
 1970 044c 40F60A02 		movw	r2, #2058
 1971 0450 4FF44031 		mov	r1, #196608
 1972 0454 2846     		mov	r0, r5
 1973 0456 FFF7FEFF 		bl	lv_obj_get_style_prop
 1974              	.LVL217:
  58:Middlewares/lvgl/src/widgets/../core/lv_obj_style_gen.h **** }
 1975              		.loc 2 58 5 is_stmt 1 view .LVU662
  58:Middlewares/lvgl/src/widgets/../core/lv_obj_style_gen.h **** }
 1976              		.loc 2 58 12 is_stmt 0 view .LVU663
 1977 045a 0FFA80F9 		sxth	r9, r0
 1978              	.LVL218:
  58:Middlewares/lvgl/src/widgets/../core/lv_obj_style_gen.h **** }
 1979              		.loc 2 58 12 view .LVU664
 1980              	.LBE198:
 1981              	.LBE197:
 287:Middlewares/lvgl/src/widgets/lv_slider.c ****         lv_coord_t knob_size = LV_MIN(lv_obj_get_width(obj) + 2 * trans_w, lv_obj_get_height(obj) +
 1982              		.loc 1 287 9 is_stmt 1 view .LVU665
 1983              	.LBB199:
ARM GAS  /tmp/cc3htL3m.s 			page 62


 1984              	.LBI199:
  61:Middlewares/lvgl/src/widgets/../core/lv_obj_style_gen.h **** {
 1985              		.loc 2 61 26 view .LVU666
 1986              	.LBB200:
  63:Middlewares/lvgl/src/widgets/../core/lv_obj_style_gen.h ****     return (lv_coord_t)v.num;
 1987              		.loc 2 63 5 view .LVU667
  63:Middlewares/lvgl/src/widgets/../core/lv_obj_style_gen.h ****     return (lv_coord_t)v.num;
 1988              		.loc 2 63 26 is_stmt 0 view .LVU668
 1989 045e 40F60B02 		movw	r2, #2059
 1990 0462 4FF44031 		mov	r1, #196608
 1991 0466 2846     		mov	r0, r5
 1992 0468 FFF7FEFF 		bl	lv_obj_get_style_prop
 1993              	.LVL219:
  64:Middlewares/lvgl/src/widgets/../core/lv_obj_style_gen.h **** }
 1994              		.loc 2 64 5 is_stmt 1 view .LVU669
  64:Middlewares/lvgl/src/widgets/../core/lv_obj_style_gen.h **** }
 1995              		.loc 2 64 12 is_stmt 0 view .LVU670
 1996 046c 0FFA80F8 		sxth	r8, r0
 1997              	.LVL220:
  64:Middlewares/lvgl/src/widgets/../core/lv_obj_style_gen.h **** }
 1998              		.loc 2 64 12 view .LVU671
 1999              	.LBE200:
 2000              	.LBE199:
 288:Middlewares/lvgl/src/widgets/lv_slider.c ****         knob_size = (knob_size * zoom) >> 8;
 2001              		.loc 1 288 9 is_stmt 1 view .LVU672
 288:Middlewares/lvgl/src/widgets/lv_slider.c ****         knob_size = (knob_size * zoom) >> 8;
 2002              		.loc 1 288 32 is_stmt 0 view .LVU673
 2003 0470 2846     		mov	r0, r5
 2004 0472 FFF7FEFF 		bl	lv_obj_get_width
 2005              	.LVL221:
 2006 0476 4FEA4903 		lsl	r3, r9, #1
 2007 047a 0293     		str	r3, [sp, #8]
 2008 047c 00EB4909 		add	r9, r0, r9, lsl #1
 2009              	.LVL222:
 288:Middlewares/lvgl/src/widgets/lv_slider.c ****         knob_size = (knob_size * zoom) >> 8;
 2010              		.loc 1 288 32 view .LVU674
 2011 0480 2846     		mov	r0, r5
 2012 0482 FFF7FEFF 		bl	lv_obj_get_height
 2013              	.LVL223:
 2014 0486 4FEA4802 		lsl	r2, r8, #1
 2015 048a 0392     		str	r2, [sp, #12]
 2016 048c 00EB4808 		add	r8, r0, r8, lsl #1
 2017              	.LVL224:
 288:Middlewares/lvgl/src/widgets/lv_slider.c ****         knob_size = (knob_size * zoom) >> 8;
 2018              		.loc 1 288 20 view .LVU675
 2019 0490 C145     		cmp	r9, r8
 2020 0492 2ADA     		bge	.L92
 288:Middlewares/lvgl/src/widgets/lv_slider.c ****         knob_size = (knob_size * zoom) >> 8;
 2021              		.loc 1 288 32 discriminator 1 view .LVU676
 2022 0494 2846     		mov	r0, r5
 2023 0496 FFF7FEFF 		bl	lv_obj_get_width
 2024              	.LVL225:
 2025 049a 029B     		ldr	r3, [sp, #8]
 2026 049c 0344     		add	r3, r3, r0
 288:Middlewares/lvgl/src/widgets/lv_slider.c ****         knob_size = (knob_size * zoom) >> 8;
 2027              		.loc 1 288 20 discriminator 1 view .LVU677
 2028 049e 43F34F03 		sbfx	r3, r3, #1, #16
ARM GAS  /tmp/cc3htL3m.s 			page 63


 2029              	.L93:
 2030              	.LVL226:
 289:Middlewares/lvgl/src/widgets/lv_slider.c ****         knob_size += LV_MAX(LV_MAX(knob_left, knob_right), LV_MAX(knob_bottom, knob_top));
 2031              		.loc 1 289 9 is_stmt 1 discriminator 4 view .LVU678
 289:Middlewares/lvgl/src/widgets/lv_slider.c ****         knob_size += LV_MAX(LV_MAX(knob_left, knob_right), LV_MAX(knob_bottom, knob_top));
 2032              		.loc 1 289 32 is_stmt 0 discriminator 4 view .LVU679
 2033 04a2 0BFB03FB 		mul	fp, fp, r3
 2034              	.LVL227:
 290:Middlewares/lvgl/src/widgets/lv_slider.c ****         knob_size += 2;         /*For rounding error*/
 2035              		.loc 1 290 9 is_stmt 1 discriminator 4 view .LVU680
 290:Middlewares/lvgl/src/widgets/lv_slider.c ****         knob_size += 2;         /*For rounding error*/
 2036              		.loc 1 290 22 is_stmt 0 discriminator 4 view .LVU681
 2037 04a6 5645     		cmp	r6, r10
 2038 04a8 B8BF     		it	lt
 2039 04aa 5646     		movlt	r6, r10
 2040              	.LVL228:
 290:Middlewares/lvgl/src/widgets/lv_slider.c ****         knob_size += 2;         /*For rounding error*/
 2041              		.loc 1 290 22 discriminator 4 view .LVU682
 2042 04ac 019B     		ldr	r3, [sp, #4]
 2043 04ae 9F42     		cmp	r7, r3
 2044 04b0 B8BF     		it	lt
 2045 04b2 1F46     		movlt	r7, r3
 2046              	.LVL229:
 290:Middlewares/lvgl/src/widgets/lv_slider.c ****         knob_size += 2;         /*For rounding error*/
 2047              		.loc 1 290 22 discriminator 4 view .LVU683
 2048 04b4 BE42     		cmp	r6, r7
 2049 04b6 B8BF     		it	lt
 2050 04b8 3E46     		movlt	r6, r7
 2051 04ba B6B2     		uxth	r6, r6
 290:Middlewares/lvgl/src/widgets/lv_slider.c ****         knob_size += 2;         /*For rounding error*/
 2052              		.loc 1 290 19 discriminator 4 view .LVU684
 2053 04bc 06EB2B26 		add	r6, r6, fp, asr #8
 2054 04c0 B6B2     		uxth	r6, r6
 2055              	.LVL230:
 291:Middlewares/lvgl/src/widgets/lv_slider.c ****         knob_size += lv_obj_calculate_ext_draw_size(obj, LV_PART_KNOB);
 2056              		.loc 1 291 9 is_stmt 1 discriminator 4 view .LVU685
 291:Middlewares/lvgl/src/widgets/lv_slider.c ****         knob_size += lv_obj_calculate_ext_draw_size(obj, LV_PART_KNOB);
 2057              		.loc 1 291 19 is_stmt 0 discriminator 4 view .LVU686
 2058 04c2 0236     		adds	r6, r6, #2
 2059              	.LVL231:
 291:Middlewares/lvgl/src/widgets/lv_slider.c ****         knob_size += lv_obj_calculate_ext_draw_size(obj, LV_PART_KNOB);
 2060              		.loc 1 291 19 discriminator 4 view .LVU687
 2061 04c4 B6B2     		uxth	r6, r6
 2062              	.LVL232:
 292:Middlewares/lvgl/src/widgets/lv_slider.c **** 
 2063              		.loc 1 292 9 is_stmt 1 discriminator 4 view .LVU688
 292:Middlewares/lvgl/src/widgets/lv_slider.c **** 
 2064              		.loc 1 292 22 is_stmt 0 discriminator 4 view .LVU689
 2065 04c6 4FF44031 		mov	r1, #196608
 2066 04ca 2846     		mov	r0, r5
 2067 04cc FFF7FEFF 		bl	lv_obj_calculate_ext_draw_size
 2068              	.LVL233:
 292:Middlewares/lvgl/src/widgets/lv_slider.c **** 
 2069              		.loc 1 292 19 discriminator 4 view .LVU690
 2070 04d0 16FA80F5 		uxtah	r5, r6, r0
 2071              	.LVL234:
 292:Middlewares/lvgl/src/widgets/lv_slider.c **** 
ARM GAS  /tmp/cc3htL3m.s 			page 64


 2072              		.loc 1 292 19 discriminator 4 view .LVU691
 2073 04d4 2DB2     		sxth	r5, r5
 2074              	.LVL235:
 295:Middlewares/lvgl/src/widgets/lv_slider.c ****         *s  = LV_MAX(*s, knob_size);
 2075              		.loc 1 295 9 is_stmt 1 discriminator 4 view .LVU692
 295:Middlewares/lvgl/src/widgets/lv_slider.c ****         *s  = LV_MAX(*s, knob_size);
 2076              		.loc 1 295 26 is_stmt 0 discriminator 4 view .LVU693
 2077 04d6 2046     		mov	r0, r4
 2078 04d8 FFF7FEFF 		bl	lv_event_get_param
 2079              	.LVL236:
 296:Middlewares/lvgl/src/widgets/lv_slider.c **** 
 2080              		.loc 1 296 9 is_stmt 1 discriminator 4 view .LVU694
 296:Middlewares/lvgl/src/widgets/lv_slider.c **** 
 2081              		.loc 1 296 15 is_stmt 0 discriminator 4 view .LVU695
 2082 04dc B0F90030 		ldrsh	r3, [r0]
 2083 04e0 9D42     		cmp	r5, r3
 2084 04e2 B8BF     		it	lt
 2085 04e4 1D46     		movlt	r5, r3
 2086              	.LVL237:
 296:Middlewares/lvgl/src/widgets/lv_slider.c **** 
 2087              		.loc 1 296 13 discriminator 4 view .LVU696
 2088 04e6 0580     		strh	r5, [r0]	@ movhi
 2089              	.LBE186:
 2090 04e8 93E5     		b	.L55
 2091              	.LVL238:
 2092              	.L92:
 2093              	.LBB201:
 288:Middlewares/lvgl/src/widgets/lv_slider.c ****         knob_size = (knob_size * zoom) >> 8;
 2094              		.loc 1 288 32 discriminator 2 view .LVU697
 2095 04ea 2846     		mov	r0, r5
 2096 04ec FFF7FEFF 		bl	lv_obj_get_height
 2097              	.LVL239:
 2098 04f0 039B     		ldr	r3, [sp, #12]
 2099 04f2 0344     		add	r3, r3, r0
 288:Middlewares/lvgl/src/widgets/lv_slider.c ****         knob_size = (knob_size * zoom) >> 8;
 2100              		.loc 1 288 20 discriminator 2 view .LVU698
 2101 04f4 43F34F03 		sbfx	r3, r3, #1, #16
 2102 04f8 D3E7     		b	.L93
 2103              	.LVL240:
 2104              	.L113:
 288:Middlewares/lvgl/src/widgets/lv_slider.c ****         knob_size = (knob_size * zoom) >> 8;
 2105              		.loc 1 288 20 discriminator 2 view .LVU699
 2106              	.LBE201:
 2107              	.LBB202:
 300:Middlewares/lvgl/src/widgets/lv_slider.c **** 
 2108              		.loc 1 300 9 is_stmt 1 view .LVU700
 300:Middlewares/lvgl/src/widgets/lv_slider.c **** 
 2109              		.loc 1 300 28 is_stmt 0 view .LVU701
 2110 04fa 2046     		mov	r0, r4
 2111 04fc FFF7FEFF 		bl	lv_event_get_param
 2112              	.LVL241:
 300:Middlewares/lvgl/src/widgets/lv_slider.c **** 
 2113              		.loc 1 300 14 view .LVU702
 2114 0500 0378     		ldrb	r3, [r0]	@ zero_extendqisi2
 2115              	.LVL242:
 302:Middlewares/lvgl/src/widgets/lv_slider.c ****             if(!slider->left_knob_focus) lv_slider_set_value(obj, lv_slider_get_value(obj) + 1, LV_
 2116              		.loc 1 302 9 is_stmt 1 view .LVU703
ARM GAS  /tmp/cc3htL3m.s 			page 65


 302:Middlewares/lvgl/src/widgets/lv_slider.c ****             if(!slider->left_knob_focus) lv_slider_set_value(obj, lv_slider_get_value(obj) + 1, LV_
 2117              		.loc 1 302 11 is_stmt 0 view .LVU704
 2118 0502 132B     		cmp	r3, #19
 2119 0504 19D0     		beq	.L95
 302:Middlewares/lvgl/src/widgets/lv_slider.c ****             if(!slider->left_knob_focus) lv_slider_set_value(obj, lv_slider_get_value(obj) + 1, LV_
 2120              		.loc 1 302 30 discriminator 1 view .LVU705
 2121 0506 112B     		cmp	r3, #17
 2122 0508 17D0     		beq	.L95
 309:Middlewares/lvgl/src/widgets/lv_slider.c ****             if(!slider->left_knob_focus) lv_slider_set_value(obj, lv_slider_get_value(obj) - 1, LV_
 2123              		.loc 1 309 14 is_stmt 1 view .LVU706
 309:Middlewares/lvgl/src/widgets/lv_slider.c ****             if(!slider->left_knob_focus) lv_slider_set_value(obj, lv_slider_get_value(obj) - 1, LV_
 2124              		.loc 1 309 16 is_stmt 0 view .LVU707
 2125 050a 142B     		cmp	r3, #20
 2126 050c 02D0     		beq	.L99
 309:Middlewares/lvgl/src/widgets/lv_slider.c ****             if(!slider->left_knob_focus) lv_slider_set_value(obj, lv_slider_get_value(obj) - 1, LV_
 2127              		.loc 1 309 34 discriminator 1 view .LVU708
 2128 050e 122B     		cmp	r3, #18
 2129 0510 7FF47FAD 		bne	.L55
 2130              	.L99:
 310:Middlewares/lvgl/src/widgets/lv_slider.c ****             else lv_slider_set_left_value(obj, lv_slider_get_left_value(obj) - 1, LV_ANIM_ON);
 2131              		.loc 1 310 13 is_stmt 1 view .LVU709
 310:Middlewares/lvgl/src/widgets/lv_slider.c ****             else lv_slider_set_left_value(obj, lv_slider_get_left_value(obj) - 1, LV_ANIM_ON);
 2132              		.loc 1 310 16 is_stmt 0 view .LVU710
 2133 0514 95F87430 		ldrb	r3, [r5, #116]	@ zero_extendqisi2
 2134              	.LVL243:
 310:Middlewares/lvgl/src/widgets/lv_slider.c ****             else lv_slider_set_left_value(obj, lv_slider_get_left_value(obj) - 1, LV_ANIM_ON);
 2135              		.loc 1 310 15 view .LVU711
 2136 0518 13F0020F 		tst	r3, #2
 2137 051c 29D1     		bne	.L100
 310:Middlewares/lvgl/src/widgets/lv_slider.c ****             else lv_slider_set_left_value(obj, lv_slider_get_left_value(obj) - 1, LV_ANIM_ON);
 2138              		.loc 1 310 42 is_stmt 1 view .LVU712
 2139              	.LVL244:
 2140              	.LBB203:
 2141              	.LBI203:
 121:Middlewares/lvgl/src/widgets/lv_slider.h **** {
 2142              		.loc 4 121 23 view .LVU713
 2143              	.LBB204:
 123:Middlewares/lvgl/src/widgets/lv_slider.h **** }
 2144              		.loc 4 123 5 view .LVU714
 123:Middlewares/lvgl/src/widgets/lv_slider.h **** }
 2145              		.loc 4 123 12 is_stmt 0 view .LVU715
 2146 051e 2846     		mov	r0, r5
 2147              	.LVL245:
 123:Middlewares/lvgl/src/widgets/lv_slider.h **** }
 2148              		.loc 4 123 12 view .LVU716
 2149 0520 FFF7FEFF 		bl	lv_bar_get_value
 2150              	.LVL246:
 123:Middlewares/lvgl/src/widgets/lv_slider.h **** }
 2151              		.loc 4 123 12 view .LVU717
 2152              	.LBE204:
 2153              	.LBE203:
 2154              	.LBB205:
 2155              	.LBI205:
  75:Middlewares/lvgl/src/widgets/lv_slider.h **** {
 2156              		.loc 4 75 20 is_stmt 1 view .LVU718
 2157              	.LBB206:
  77:Middlewares/lvgl/src/widgets/lv_slider.h **** }
ARM GAS  /tmp/cc3htL3m.s 			page 66


 2158              		.loc 4 77 5 view .LVU719
 2159 0524 0122     		movs	r2, #1
 2160 0526 411E     		subs	r1, r0, #1
 2161              	.LVL247:
  77:Middlewares/lvgl/src/widgets/lv_slider.h **** }
 2162              		.loc 4 77 5 is_stmt 0 view .LVU720
 2163 0528 2846     		mov	r0, r5
 2164 052a FFF7FEFF 		bl	lv_bar_set_value
 2165              	.LVL248:
 2166              	.L101:
  77:Middlewares/lvgl/src/widgets/lv_slider.h **** }
 2167              		.loc 4 77 5 view .LVU721
 2168              	.LBE206:
 2169              	.LBE205:
 313:Middlewares/lvgl/src/widgets/lv_slider.c ****             if(res != LV_RES_OK) return;
 2170              		.loc 1 313 13 is_stmt 1 view .LVU722
 313:Middlewares/lvgl/src/widgets/lv_slider.c ****             if(res != LV_RES_OK) return;
 2171              		.loc 1 313 19 is_stmt 0 view .LVU723
 2172 052e 0022     		movs	r2, #0
 2173 0530 1C21     		movs	r1, #28
 2174 0532 2846     		mov	r0, r5
 2175 0534 FFF7FEFF 		bl	lv_event_send
 2176              	.LVL249:
 314:Middlewares/lvgl/src/widgets/lv_slider.c ****         }
 2177              		.loc 1 314 13 is_stmt 1 view .LVU724
 2178 0538 6BE5     		b	.L55
 2179              	.LVL250:
 2180              	.L95:
 303:Middlewares/lvgl/src/widgets/lv_slider.c ****             else lv_slider_set_left_value(obj, lv_slider_get_left_value(obj) + 1, LV_ANIM_ON);
 2181              		.loc 1 303 13 view .LVU725
 303:Middlewares/lvgl/src/widgets/lv_slider.c ****             else lv_slider_set_left_value(obj, lv_slider_get_left_value(obj) + 1, LV_ANIM_ON);
 2182              		.loc 1 303 16 is_stmt 0 view .LVU726
 2183 053a 95F87430 		ldrb	r3, [r5, #116]	@ zero_extendqisi2
 2184              	.LVL251:
 303:Middlewares/lvgl/src/widgets/lv_slider.c ****             else lv_slider_set_left_value(obj, lv_slider_get_left_value(obj) + 1, LV_ANIM_ON);
 2185              		.loc 1 303 15 view .LVU727
 2186 053e 13F0020F 		tst	r3, #2
 2187 0542 0DD1     		bne	.L97
 303:Middlewares/lvgl/src/widgets/lv_slider.c ****             else lv_slider_set_left_value(obj, lv_slider_get_left_value(obj) + 1, LV_ANIM_ON);
 2188              		.loc 1 303 42 is_stmt 1 view .LVU728
 2189              	.LVL252:
 2190              	.LBB207:
 2191              	.LBI207:
 121:Middlewares/lvgl/src/widgets/lv_slider.h **** {
 2192              		.loc 4 121 23 view .LVU729
 2193              	.LBB208:
 123:Middlewares/lvgl/src/widgets/lv_slider.h **** }
 2194              		.loc 4 123 5 view .LVU730
 123:Middlewares/lvgl/src/widgets/lv_slider.h **** }
 2195              		.loc 4 123 12 is_stmt 0 view .LVU731
 2196 0544 2846     		mov	r0, r5
 2197              	.LVL253:
 123:Middlewares/lvgl/src/widgets/lv_slider.h **** }
 2198              		.loc 4 123 12 view .LVU732
 2199 0546 FFF7FEFF 		bl	lv_bar_get_value
 2200              	.LVL254:
 123:Middlewares/lvgl/src/widgets/lv_slider.h **** }
ARM GAS  /tmp/cc3htL3m.s 			page 67


 2201              		.loc 4 123 12 view .LVU733
 2202              	.LBE208:
 2203              	.LBE207:
 2204              	.LBB209:
 2205              	.LBI209:
  75:Middlewares/lvgl/src/widgets/lv_slider.h **** {
 2206              		.loc 4 75 20 is_stmt 1 view .LVU734
 2207              	.LBB210:
  77:Middlewares/lvgl/src/widgets/lv_slider.h **** }
 2208              		.loc 4 77 5 view .LVU735
 2209 054a 0122     		movs	r2, #1
 2210 054c 8118     		adds	r1, r0, r2
 2211              	.LVL255:
  77:Middlewares/lvgl/src/widgets/lv_slider.h **** }
 2212              		.loc 4 77 5 is_stmt 0 view .LVU736
 2213 054e 2846     		mov	r0, r5
 2214 0550 FFF7FEFF 		bl	lv_bar_set_value
 2215              	.LVL256:
 2216              	.L98:
  77:Middlewares/lvgl/src/widgets/lv_slider.h **** }
 2217              		.loc 4 77 5 view .LVU737
 2218              	.LBE210:
 2219              	.LBE209:
 306:Middlewares/lvgl/src/widgets/lv_slider.c ****             if(res != LV_RES_OK) return;
 2220              		.loc 1 306 13 is_stmt 1 view .LVU738
 306:Middlewares/lvgl/src/widgets/lv_slider.c ****             if(res != LV_RES_OK) return;
 2221              		.loc 1 306 19 is_stmt 0 view .LVU739
 2222 0554 0022     		movs	r2, #0
 2223 0556 1C21     		movs	r1, #28
 2224 0558 2846     		mov	r0, r5
 2225 055a FFF7FEFF 		bl	lv_event_send
 2226              	.LVL257:
 307:Middlewares/lvgl/src/widgets/lv_slider.c ****         }
 2227              		.loc 1 307 13 is_stmt 1 view .LVU740
 2228 055e 58E5     		b	.L55
 2229              	.LVL258:
 2230              	.L97:
 304:Middlewares/lvgl/src/widgets/lv_slider.c **** 
 2231              		.loc 1 304 18 view .LVU741
 2232              	.LBB211:
 2233              	.LBI211:
 131:Middlewares/lvgl/src/widgets/lv_slider.h **** {
 2234              		.loc 4 131 23 view .LVU742
 2235              	.LBB212:
 133:Middlewares/lvgl/src/widgets/lv_slider.h **** }
 2236              		.loc 4 133 5 view .LVU743
 133:Middlewares/lvgl/src/widgets/lv_slider.h **** }
 2237              		.loc 4 133 12 is_stmt 0 view .LVU744
 2238 0560 2846     		mov	r0, r5
 2239              	.LVL259:
 133:Middlewares/lvgl/src/widgets/lv_slider.h **** }
 2240              		.loc 4 133 12 view .LVU745
 2241 0562 FFF7FEFF 		bl	lv_bar_get_start_value
 2242              	.LVL260:
 133:Middlewares/lvgl/src/widgets/lv_slider.h **** }
 2243              		.loc 4 133 12 view .LVU746
 2244              	.LBE212:
ARM GAS  /tmp/cc3htL3m.s 			page 68


 2245              	.LBE211:
 2246              	.LBB213:
 2247              	.LBI213:
  86:Middlewares/lvgl/src/widgets/lv_slider.h **** {
 2248              		.loc 4 86 20 is_stmt 1 view .LVU747
 2249              	.LBB214:
  88:Middlewares/lvgl/src/widgets/lv_slider.h **** }
 2250              		.loc 4 88 5 view .LVU748
 2251 0566 0122     		movs	r2, #1
 2252 0568 8118     		adds	r1, r0, r2
 2253              	.LVL261:
  88:Middlewares/lvgl/src/widgets/lv_slider.h **** }
 2254              		.loc 4 88 5 is_stmt 0 view .LVU749
 2255 056a 2846     		mov	r0, r5
 2256 056c FFF7FEFF 		bl	lv_bar_set_start_value
 2257              	.LVL262:
  89:Middlewares/lvgl/src/widgets/lv_slider.h **** 
 2258              		.loc 4 89 1 view .LVU750
 2259 0570 F0E7     		b	.L98
 2260              	.LVL263:
 2261              	.L100:
  89:Middlewares/lvgl/src/widgets/lv_slider.h **** 
 2262              		.loc 4 89 1 view .LVU751
 2263              	.LBE214:
 2264              	.LBE213:
 311:Middlewares/lvgl/src/widgets/lv_slider.c **** 
 2265              		.loc 1 311 18 is_stmt 1 view .LVU752
 2266              	.LBB215:
 2267              	.LBI215:
 131:Middlewares/lvgl/src/widgets/lv_slider.h **** {
 2268              		.loc 4 131 23 view .LVU753
 2269              	.LBB216:
 133:Middlewares/lvgl/src/widgets/lv_slider.h **** }
 2270              		.loc 4 133 5 view .LVU754
 133:Middlewares/lvgl/src/widgets/lv_slider.h **** }
 2271              		.loc 4 133 12 is_stmt 0 view .LVU755
 2272 0572 2846     		mov	r0, r5
 2273              	.LVL264:
 133:Middlewares/lvgl/src/widgets/lv_slider.h **** }
 2274              		.loc 4 133 12 view .LVU756
 2275 0574 FFF7FEFF 		bl	lv_bar_get_start_value
 2276              	.LVL265:
 133:Middlewares/lvgl/src/widgets/lv_slider.h **** }
 2277              		.loc 4 133 12 view .LVU757
 2278              	.LBE216:
 2279              	.LBE215:
 2280              	.LBB217:
 2281              	.LBI217:
  86:Middlewares/lvgl/src/widgets/lv_slider.h **** {
 2282              		.loc 4 86 20 is_stmt 1 view .LVU758
 2283              	.LBB218:
  88:Middlewares/lvgl/src/widgets/lv_slider.h **** }
 2284              		.loc 4 88 5 view .LVU759
 2285 0578 0122     		movs	r2, #1
 2286 057a 411E     		subs	r1, r0, #1
 2287              	.LVL266:
  88:Middlewares/lvgl/src/widgets/lv_slider.h **** }
ARM GAS  /tmp/cc3htL3m.s 			page 69


 2288              		.loc 4 88 5 is_stmt 0 view .LVU760
 2289 057c 2846     		mov	r0, r5
 2290 057e FFF7FEFF 		bl	lv_bar_set_start_value
 2291              	.LVL267:
  89:Middlewares/lvgl/src/widgets/lv_slider.h **** 
 2292              		.loc 4 89 1 view .LVU761
 2293 0582 D4E7     		b	.L101
 2294              	.LBE218:
 2295              	.LBE217:
 2296              	.LBE202:
 2297              		.cfi_endproc
 2298              	.LFE165:
 2300              		.section	.text.lv_slider_create,"ax",%progbits
 2301              		.align	1
 2302              		.global	lv_slider_create
 2303              		.syntax unified
 2304              		.thumb
 2305              		.thumb_func
 2306              		.fpu fpv4-sp-d16
 2308              	lv_slider_create:
 2309              	.LVL268:
 2310              	.LFB162:
  60:Middlewares/lvgl/src/widgets/lv_slider.c ****     LV_LOG_INFO("begin")
 2311              		.loc 1 60 1 is_stmt 1 view -0
 2312              		.cfi_startproc
 2313              		@ args = 0, pretend = 0, frame = 0
 2314              		@ frame_needed = 0, uses_anonymous_args = 0
  60:Middlewares/lvgl/src/widgets/lv_slider.c ****     LV_LOG_INFO("begin")
 2315              		.loc 1 60 1 is_stmt 0 view .LVU763
 2316 0000 10B5     		push	{r4, lr}
 2317              	.LCFI10:
 2318              		.cfi_def_cfa_offset 8
 2319              		.cfi_offset 4, -8
 2320              		.cfi_offset 14, -4
 2321 0002 0146     		mov	r1, r0
  62:Middlewares/lvgl/src/widgets/lv_slider.c ****     lv_obj_class_init_obj(obj);
 2322              		.loc 1 62 5 is_stmt 1 view .LVU764
  62:Middlewares/lvgl/src/widgets/lv_slider.c ****     lv_obj_class_init_obj(obj);
 2323              		.loc 1 62 22 is_stmt 0 view .LVU765
 2324 0004 0348     		ldr	r0, .L123
 2325              	.LVL269:
  62:Middlewares/lvgl/src/widgets/lv_slider.c ****     lv_obj_class_init_obj(obj);
 2326              		.loc 1 62 22 view .LVU766
 2327 0006 FFF7FEFF 		bl	lv_obj_class_create_obj
 2328              	.LVL270:
  62:Middlewares/lvgl/src/widgets/lv_slider.c ****     lv_obj_class_init_obj(obj);
 2329              		.loc 1 62 22 view .LVU767
 2330 000a 0446     		mov	r4, r0
 2331              	.LVL271:
  63:Middlewares/lvgl/src/widgets/lv_slider.c ****     return obj;
 2332              		.loc 1 63 5 is_stmt 1 view .LVU768
 2333 000c FFF7FEFF 		bl	lv_obj_class_init_obj
 2334              	.LVL272:
  64:Middlewares/lvgl/src/widgets/lv_slider.c **** }
 2335              		.loc 1 64 5 view .LVU769
  65:Middlewares/lvgl/src/widgets/lv_slider.c **** 
 2336              		.loc 1 65 1 is_stmt 0 view .LVU770
ARM GAS  /tmp/cc3htL3m.s 			page 70


 2337 0010 2046     		mov	r0, r4
 2338 0012 10BD     		pop	{r4, pc}
 2339              	.LVL273:
 2340              	.L124:
  65:Middlewares/lvgl/src/widgets/lv_slider.c **** 
 2341              		.loc 1 65 1 view .LVU771
 2342              		.align	2
 2343              	.L123:
 2344 0014 00000000 		.word	.LANCHOR0
 2345              		.cfi_endproc
 2346              	.LFE162:
 2348              		.section	.text.lv_slider_is_dragged,"ax",%progbits
 2349              		.align	1
 2350              		.global	lv_slider_is_dragged
 2351              		.syntax unified
 2352              		.thumb
 2353              		.thumb_func
 2354              		.fpu fpv4-sp-d16
 2356              	lv_slider_is_dragged:
 2357              	.LVL274:
 2358              	.LFB163:
  68:Middlewares/lvgl/src/widgets/lv_slider.c ****     LV_ASSERT_OBJ(obj, MY_CLASS);
 2359              		.loc 1 68 1 is_stmt 1 view -0
 2360              		.cfi_startproc
 2361              		@ args = 0, pretend = 0, frame = 0
 2362              		@ frame_needed = 0, uses_anonymous_args = 0
 2363              		@ link register save eliminated.
  69:Middlewares/lvgl/src/widgets/lv_slider.c ****     lv_slider_t * slider = (lv_slider_t *)obj;
 2364              		.loc 1 69 5 view .LVU773
  69:Middlewares/lvgl/src/widgets/lv_slider.c ****     lv_slider_t * slider = (lv_slider_t *)obj;
 2365              		.loc 1 69 5 view .LVU774
  69:Middlewares/lvgl/src/widgets/lv_slider.c ****     lv_slider_t * slider = (lv_slider_t *)obj;
 2366              		.loc 1 69 5 view .LVU775
  70:Middlewares/lvgl/src/widgets/lv_slider.c **** 
 2367              		.loc 1 70 5 view .LVU776
  72:Middlewares/lvgl/src/widgets/lv_slider.c **** }
 2368              		.loc 1 72 5 view .LVU777
  72:Middlewares/lvgl/src/widgets/lv_slider.c **** }
 2369              		.loc 1 72 29 is_stmt 0 view .LVU778
 2370 0000 90F87400 		ldrb	r0, [r0, #116]	@ zero_extendqisi2
 2371              	.LVL275:
  73:Middlewares/lvgl/src/widgets/lv_slider.c **** 
 2372              		.loc 1 73 1 view .LVU779
 2373 0004 00F00100 		and	r0, r0, #1
 2374 0008 7047     		bx	lr
 2375              		.cfi_endproc
 2376              	.LFE163:
 2378              		.global	lv_slider_class
 2379              		.section	.rodata.lv_slider_class,"a"
 2380              		.align	2
 2381              		.set	.LANCHOR0,. + 0
 2384              	lv_slider_class:
 2385 0000 00000000 		.word	lv_bar_class
 2386 0004 00000000 		.word	lv_slider_constructor
 2387 0008 00000000 		.space	8
 2387      00000000 
 2388 0010 00000000 		.word	lv_slider_event
ARM GAS  /tmp/cc3htL3m.s 			page 71


 2389 0014 00000000 		.space	4
 2390 0018 85       		.byte	133
 2391 0019 07       		.byte	7
 2392 001a 00       		.byte	0
 2393 001b 00       		.space	1
 2394              		.text
 2395              	.Letext0:
 2396              		.file 5 "/home/akinya/gcc-arm-none-eabi/arm-none-eabi/include/machine/_default_types.h"
 2397              		.file 6 "/home/akinya/gcc-arm-none-eabi/arm-none-eabi/include/sys/_stdint.h"
 2398              		.file 7 "Middlewares/lvgl/src/widgets/../core/../misc/../font/lv_font.h"
 2399              		.file 8 "Middlewares/lvgl/src/widgets/../core/../misc/lv_types.h"
 2400              		.file 9 "Middlewares/lvgl/src/widgets/../core/../misc/lv_color.h"
 2401              		.file 10 "Middlewares/lvgl/src/widgets/../core/../misc/lv_anim.h"
 2402              		.file 11 "Middlewares/lvgl/src/widgets/../core/../misc/lv_txt.h"
 2403              		.file 12 "Middlewares/lvgl/src/widgets/../core/../misc/lv_bidi.h"
 2404              		.file 13 "Middlewares/lvgl/src/widgets/../core/../misc/lv_style.h"
 2405              		.file 14 "Middlewares/lvgl/src/widgets/../core/../hal/../misc/lv_ll.h"
 2406              		.file 15 "Middlewares/lvgl/src/widgets/../core/../hal/../misc/lv_timer.h"
 2407              		.file 16 "Middlewares/lvgl/src/widgets/../core/../hal/lv_hal_disp.h"
 2408              		.file 17 "Middlewares/lvgl/src/widgets/../core/lv_theme.h"
 2409              		.file 18 "Middlewares/lvgl/src/widgets/../core/lv_obj.h"
 2410              		.file 19 "Middlewares/lvgl/src/widgets/../core/../hal/lv_hal_indev.h"
 2411              		.file 20 "Middlewares/lvgl/src/widgets/../core/lv_group.h"
 2412              		.file 21 "Middlewares/lvgl/src/widgets/../core/lv_obj_scroll.h"
 2413              		.file 22 "Middlewares/lvgl/src/widgets/../core/lv_obj_style.h"
 2414              		.file 23 "Middlewares/lvgl/src/widgets/../core/../draw/lv_draw_rect.h"
 2415              		.file 24 "Middlewares/lvgl/src/widgets/../core/../draw/lv_draw_label.h"
 2416              		.file 25 "Middlewares/lvgl/src/widgets/../core/../draw/lv_draw_img.h"
 2417              		.file 26 "Middlewares/lvgl/src/widgets/../core/../draw/lv_draw_line.h"
 2418              		.file 27 "Middlewares/lvgl/src/widgets/../core/../draw/lv_draw_arc.h"
 2419              		.file 28 "Middlewares/lvgl/src/widgets/../core/lv_obj_draw.h"
 2420              		.file 29 "Middlewares/lvgl/src/widgets/../core/lv_obj_class.h"
 2421              		.file 30 "Middlewares/lvgl/src/widgets/../core/lv_event.h"
 2422              		.file 31 "Middlewares/lvgl/src/widgets/lv_bar.h"
 2423              		.file 32 "Middlewares/lvgl/src/widgets/../core/../hal/../misc/lv_mem.h"
 2424              		.file 33 "Middlewares/lvgl/src/widgets/../core/lv_obj_pos.h"
 2425              		.file 34 "Middlewares/lvgl/src/widgets/../core/lv_indev.h"
ARM GAS  /tmp/cc3htL3m.s 			page 72

