ARM GAS  /tmp/ccWgnKW2.s 			page 1


   1              		.cpu cortex-m4
   2              		.eabi_attribute 27, 1
   3              		.eabi_attribute 28, 1
   4              		.eabi_attribute 20, 1
   5              		.eabi_attribute 21, 1
   6              		.eabi_attribute 23, 3
   7              		.eabi_attribute 24, 1
   8              		.eabi_attribute 25, 1
   9              		.eabi_attribute 26, 1
  10              		.eabi_attribute 30, 1
  11              		.eabi_attribute 34, 1
  12              		.eabi_attribute 18, 4
  13              		.file	"lv_style.c"
  14              		.text
  15              	.Ltext0:
  16              		.cfi_sections	.debug_frame
  17              		.section	.text.lv_style_init,"ax",%progbits
  18              		.align	1
  19              		.global	lv_style_init
  20              		.arch armv7e-m
  21              		.syntax unified
  22              		.thumb
  23              		.thumb_func
  24              		.fpu fpv4-sp-d16
  26              	lv_style_init:
  27              	.LVL0:
  28              	.LFB48:
  29              		.file 1 "Middlewares/lvgl/src/misc/lv_style.c"
   1:Middlewares/lvgl/src/misc/lv_style.c **** /**
   2:Middlewares/lvgl/src/misc/lv_style.c ****  * @file lv_style.c
   3:Middlewares/lvgl/src/misc/lv_style.c ****  *
   4:Middlewares/lvgl/src/misc/lv_style.c ****  */
   5:Middlewares/lvgl/src/misc/lv_style.c **** 
   6:Middlewares/lvgl/src/misc/lv_style.c **** /*********************
   7:Middlewares/lvgl/src/misc/lv_style.c ****  *      INCLUDES
   8:Middlewares/lvgl/src/misc/lv_style.c ****  *********************/
   9:Middlewares/lvgl/src/misc/lv_style.c **** #include "lv_style.h"
  10:Middlewares/lvgl/src/misc/lv_style.c **** #include "../misc/lv_mem.h"
  11:Middlewares/lvgl/src/misc/lv_style.c **** 
  12:Middlewares/lvgl/src/misc/lv_style.c **** /*********************
  13:Middlewares/lvgl/src/misc/lv_style.c ****  *      DEFINES
  14:Middlewares/lvgl/src/misc/lv_style.c ****  *********************/
  15:Middlewares/lvgl/src/misc/lv_style.c **** 
  16:Middlewares/lvgl/src/misc/lv_style.c **** /**********************
  17:Middlewares/lvgl/src/misc/lv_style.c ****  *      TYPEDEFS
  18:Middlewares/lvgl/src/misc/lv_style.c ****  **********************/
  19:Middlewares/lvgl/src/misc/lv_style.c **** 
  20:Middlewares/lvgl/src/misc/lv_style.c **** /**********************
  21:Middlewares/lvgl/src/misc/lv_style.c ****  *  STATIC PROTOTYPES
  22:Middlewares/lvgl/src/misc/lv_style.c ****  **********************/
  23:Middlewares/lvgl/src/misc/lv_style.c **** 
  24:Middlewares/lvgl/src/misc/lv_style.c **** /**********************
  25:Middlewares/lvgl/src/misc/lv_style.c ****  *  GLOBAL VARIABLES
  26:Middlewares/lvgl/src/misc/lv_style.c ****  **********************/
  27:Middlewares/lvgl/src/misc/lv_style.c **** 
  28:Middlewares/lvgl/src/misc/lv_style.c **** /**********************
  29:Middlewares/lvgl/src/misc/lv_style.c ****  *  STATIC VARIABLES
ARM GAS  /tmp/ccWgnKW2.s 			page 2


  30:Middlewares/lvgl/src/misc/lv_style.c ****  **********************/
  31:Middlewares/lvgl/src/misc/lv_style.c **** 
  32:Middlewares/lvgl/src/misc/lv_style.c **** /**********************
  33:Middlewares/lvgl/src/misc/lv_style.c ****  *      MACROS
  34:Middlewares/lvgl/src/misc/lv_style.c ****  **********************/
  35:Middlewares/lvgl/src/misc/lv_style.c **** 
  36:Middlewares/lvgl/src/misc/lv_style.c **** /**********************
  37:Middlewares/lvgl/src/misc/lv_style.c ****  *   GLOBAL FUNCTIONS
  38:Middlewares/lvgl/src/misc/lv_style.c ****  **********************/
  39:Middlewares/lvgl/src/misc/lv_style.c **** 
  40:Middlewares/lvgl/src/misc/lv_style.c **** void lv_style_init(lv_style_t * style)
  41:Middlewares/lvgl/src/misc/lv_style.c **** {
  30              		.loc 1 41 1 view -0
  31              		.cfi_startproc
  32              		@ args = 0, pretend = 0, frame = 0
  33              		@ frame_needed = 0, uses_anonymous_args = 0
  34              		.loc 1 41 1 is_stmt 0 view .LVU1
  35 0000 08B5     		push	{r3, lr}
  36              	.LCFI0:
  37              		.cfi_def_cfa_offset 8
  38              		.cfi_offset 3, -8
  39              		.cfi_offset 14, -4
  42:Middlewares/lvgl/src/misc/lv_style.c **** #if LV_USE_ASSERT_STYLE
  43:Middlewares/lvgl/src/misc/lv_style.c ****     if(style->sentinel == LV_STYLE_SENTINEL_VALUE && style->prop_cnt > 1) {
  44:Middlewares/lvgl/src/misc/lv_style.c ****         LV_LOG_WARN("Style might be already inited. (Potential memory leak)")
  45:Middlewares/lvgl/src/misc/lv_style.c ****     }
  46:Middlewares/lvgl/src/misc/lv_style.c **** #endif
  47:Middlewares/lvgl/src/misc/lv_style.c **** 
  48:Middlewares/lvgl/src/misc/lv_style.c ****     lv_memset_00(style, sizeof(lv_style_t));
  40              		.loc 1 48 5 is_stmt 1 view .LVU2
  41 0002 0821     		movs	r1, #8
  42 0004 FFF7FEFF 		bl	lv_memset_00
  43              	.LVL1:
  49:Middlewares/lvgl/src/misc/lv_style.c **** #if LV_USE_ASSERT_STYLE
  50:Middlewares/lvgl/src/misc/lv_style.c ****     style->sentinel = LV_STYLE_SENTINEL_VALUE;
  51:Middlewares/lvgl/src/misc/lv_style.c **** #endif
  52:Middlewares/lvgl/src/misc/lv_style.c **** }
  44              		.loc 1 52 1 is_stmt 0 view .LVU3
  45 0008 08BD     		pop	{r3, pc}
  46              		.cfi_endproc
  47              	.LFE48:
  49              		.section	.text.lv_style_reset,"ax",%progbits
  50              		.align	1
  51              		.global	lv_style_reset
  52              		.syntax unified
  53              		.thumb
  54              		.thumb_func
  55              		.fpu fpv4-sp-d16
  57              	lv_style_reset:
  58              	.LVL2:
  59              	.LFB49:
  53:Middlewares/lvgl/src/misc/lv_style.c **** 
  54:Middlewares/lvgl/src/misc/lv_style.c **** void lv_style_reset(lv_style_t * style)
  55:Middlewares/lvgl/src/misc/lv_style.c **** {
  60              		.loc 1 55 1 is_stmt 1 view -0
  61              		.cfi_startproc
  62              		@ args = 0, pretend = 0, frame = 0
ARM GAS  /tmp/ccWgnKW2.s 			page 3


  63              		@ frame_needed = 0, uses_anonymous_args = 0
  56:Middlewares/lvgl/src/misc/lv_style.c ****     LV_ASSERT_STYLE(style);
  64              		.loc 1 56 27 view .LVU5
  57:Middlewares/lvgl/src/misc/lv_style.c **** 
  58:Middlewares/lvgl/src/misc/lv_style.c ****     if(style->is_const) {
  65              		.loc 1 58 5 view .LVU6
  66              		.loc 1 58 7 is_stmt 0 view .LVU7
  67 0000 90F90530 		ldrsb	r3, [r0, #5]
  68 0004 002B     		cmp	r3, #0
  69 0006 0DDB     		blt	.L7
  55:Middlewares/lvgl/src/misc/lv_style.c ****     LV_ASSERT_STYLE(style);
  70              		.loc 1 55 1 view .LVU8
  71 0008 10B5     		push	{r4, lr}
  72              	.LCFI1:
  73              		.cfi_def_cfa_offset 8
  74              		.cfi_offset 4, -8
  75              		.cfi_offset 14, -4
  76 000a 0446     		mov	r4, r0
  59:Middlewares/lvgl/src/misc/lv_style.c ****         LV_LOG_ERROR("Cannot reset const style");
  60:Middlewares/lvgl/src/misc/lv_style.c ****         return;
  61:Middlewares/lvgl/src/misc/lv_style.c ****     }
  62:Middlewares/lvgl/src/misc/lv_style.c **** 
  63:Middlewares/lvgl/src/misc/lv_style.c ****     if(style->prop_cnt > 1) lv_mem_free(style->v_p.values_and_props);
  77              		.loc 1 63 5 is_stmt 1 view .LVU9
  78              		.loc 1 63 13 is_stmt 0 view .LVU10
  79 000c C379     		ldrb	r3, [r0, #7]	@ zero_extendqisi2
  80              		.loc 1 63 7 view .LVU11
  81 000e 012B     		cmp	r3, #1
  82 0010 04D8     		bhi	.L10
  83              	.LVL3:
  84              	.L5:
  64:Middlewares/lvgl/src/misc/lv_style.c ****     lv_memset_00(style, sizeof(lv_style_t));
  85              		.loc 1 64 5 is_stmt 1 view .LVU12
  86 0012 0821     		movs	r1, #8
  87 0014 2046     		mov	r0, r4
  88 0016 FFF7FEFF 		bl	lv_memset_00
  89              	.LVL4:
  65:Middlewares/lvgl/src/misc/lv_style.c **** #if LV_USE_ASSERT_STYLE
  66:Middlewares/lvgl/src/misc/lv_style.c ****     style->sentinel = LV_STYLE_SENTINEL_VALUE;
  67:Middlewares/lvgl/src/misc/lv_style.c **** #endif
  68:Middlewares/lvgl/src/misc/lv_style.c **** 
  69:Middlewares/lvgl/src/misc/lv_style.c **** }
  90              		.loc 1 69 1 is_stmt 0 view .LVU13
  91 001a 10BD     		pop	{r4, pc}
  92              	.LVL5:
  93              	.L10:
  63:Middlewares/lvgl/src/misc/lv_style.c ****     lv_memset_00(style, sizeof(lv_style_t));
  94              		.loc 1 63 29 is_stmt 1 discriminator 1 view .LVU14
  95 001c 0068     		ldr	r0, [r0]
  96              	.LVL6:
  63:Middlewares/lvgl/src/misc/lv_style.c ****     lv_memset_00(style, sizeof(lv_style_t));
  97              		.loc 1 63 29 is_stmt 0 discriminator 1 view .LVU15
  98 001e FFF7FEFF 		bl	lv_mem_free
  99              	.LVL7:
 100 0022 F6E7     		b	.L5
 101              	.LVL8:
 102              	.L7:
ARM GAS  /tmp/ccWgnKW2.s 			page 4


 103              	.LCFI2:
 104              		.cfi_def_cfa_offset 0
 105              		.cfi_restore 4
 106              		.cfi_restore 14
  63:Middlewares/lvgl/src/misc/lv_style.c ****     lv_memset_00(style, sizeof(lv_style_t));
 107              		.loc 1 63 29 discriminator 1 view .LVU16
 108 0024 7047     		bx	lr
 109              		.cfi_endproc
 110              	.LFE49:
 112              		.section	.text.lv_style_register_prop,"ax",%progbits
 113              		.align	1
 114              		.global	lv_style_register_prop
 115              		.syntax unified
 116              		.thumb
 117              		.thumb_func
 118              		.fpu fpv4-sp-d16
 120              	lv_style_register_prop:
 121              	.LFB50:
  70:Middlewares/lvgl/src/misc/lv_style.c **** 
  71:Middlewares/lvgl/src/misc/lv_style.c **** lv_style_prop_t lv_style_register_prop(void)
  72:Middlewares/lvgl/src/misc/lv_style.c **** {
 122              		.loc 1 72 1 is_stmt 1 view -0
 123              		.cfi_startproc
 124              		@ args = 0, pretend = 0, frame = 0
 125              		@ frame_needed = 0, uses_anonymous_args = 0
 126              		@ link register save eliminated.
  73:Middlewares/lvgl/src/misc/lv_style.c ****     static uint16_t act_id = (uint16_t)_LV_STYLE_LAST_BUILT_IN_PROP;
 127              		.loc 1 73 5 view .LVU18
  74:Middlewares/lvgl/src/misc/lv_style.c ****     act_id++;
 128              		.loc 1 74 5 view .LVU19
 129              		.loc 1 74 11 is_stmt 0 view .LVU20
 130 0000 024B     		ldr	r3, .L12
 131 0002 1888     		ldrh	r0, [r3]
 132 0004 0130     		adds	r0, r0, #1
 133 0006 80B2     		uxth	r0, r0
 134 0008 1880     		strh	r0, [r3]	@ movhi
  75:Middlewares/lvgl/src/misc/lv_style.c ****     return act_id;
 135              		.loc 1 75 5 is_stmt 1 view .LVU21
  76:Middlewares/lvgl/src/misc/lv_style.c **** }
 136              		.loc 1 76 1 is_stmt 0 view .LVU22
 137 000a 7047     		bx	lr
 138              	.L13:
 139              		.align	2
 140              	.L12:
 141 000c 00000000 		.word	.LANCHOR0
 142              		.cfi_endproc
 143              	.LFE50:
 145              		.section	.text.lv_style_remove_prop,"ax",%progbits
 146              		.align	1
 147              		.global	lv_style_remove_prop
 148              		.syntax unified
 149              		.thumb
 150              		.thumb_func
 151              		.fpu fpv4-sp-d16
 153              	lv_style_remove_prop:
 154              	.LVL9:
 155              	.LFB51:
ARM GAS  /tmp/ccWgnKW2.s 			page 5


  77:Middlewares/lvgl/src/misc/lv_style.c **** 
  78:Middlewares/lvgl/src/misc/lv_style.c **** bool lv_style_remove_prop(lv_style_t * style, lv_style_prop_t prop)
  79:Middlewares/lvgl/src/misc/lv_style.c **** {
 156              		.loc 1 79 1 is_stmt 1 view -0
 157              		.cfi_startproc
 158              		@ args = 0, pretend = 0, frame = 0
 159              		@ frame_needed = 0, uses_anonymous_args = 0
 160              		.loc 1 79 1 is_stmt 0 view .LVU24
 161 0000 F8B5     		push	{r3, r4, r5, r6, r7, lr}
 162              	.LCFI3:
 163              		.cfi_def_cfa_offset 24
 164              		.cfi_offset 3, -24
 165              		.cfi_offset 4, -20
 166              		.cfi_offset 5, -16
 167              		.cfi_offset 6, -12
 168              		.cfi_offset 7, -8
 169              		.cfi_offset 14, -4
  80:Middlewares/lvgl/src/misc/lv_style.c ****     LV_ASSERT_STYLE(style);
 170              		.loc 1 80 27 is_stmt 1 view .LVU25
  81:Middlewares/lvgl/src/misc/lv_style.c **** 
  82:Middlewares/lvgl/src/misc/lv_style.c ****     if(style->is_const) {
 171              		.loc 1 82 5 view .LVU26
 172              		.loc 1 82 7 is_stmt 0 view .LVU27
 173 0002 90F90530 		ldrsb	r3, [r0, #5]
 174 0006 002B     		cmp	r3, #0
 175 0008 65DB     		blt	.L28
 176 000a 0546     		mov	r5, r0
 177 000c 0C46     		mov	r4, r1
  83:Middlewares/lvgl/src/misc/lv_style.c ****         LV_LOG_ERROR("Cannot remove prop from const style");
  84:Middlewares/lvgl/src/misc/lv_style.c ****         return false;
  85:Middlewares/lvgl/src/misc/lv_style.c ****     }
  86:Middlewares/lvgl/src/misc/lv_style.c **** 
  87:Middlewares/lvgl/src/misc/lv_style.c ****     if(style->prop_cnt == 0)  return false;
 178              		.loc 1 87 5 is_stmt 1 view .LVU28
 179              		.loc 1 87 13 is_stmt 0 view .LVU29
 180 000e C279     		ldrb	r2, [r0, #7]	@ zero_extendqisi2
 181              		.loc 1 87 7 view .LVU30
 182 0010 002A     		cmp	r2, #0
 183 0012 62D0     		beq	.L29
  88:Middlewares/lvgl/src/misc/lv_style.c **** 
  89:Middlewares/lvgl/src/misc/lv_style.c ****     if(style->prop_cnt == 1) {
 184              		.loc 1 89 5 is_stmt 1 view .LVU31
 185              		.loc 1 89 7 is_stmt 0 view .LVU32
 186 0014 012A     		cmp	r2, #1
 187 0016 0BD0     		beq	.L33
  90:Middlewares/lvgl/src/misc/lv_style.c ****         if(style->prop1 == prop) {
  91:Middlewares/lvgl/src/misc/lv_style.c ****             style->prop1 = LV_STYLE_PROP_INV;
  92:Middlewares/lvgl/src/misc/lv_style.c ****             style->prop_cnt = 0;
  93:Middlewares/lvgl/src/misc/lv_style.c ****             return true;
  94:Middlewares/lvgl/src/misc/lv_style.c ****         }
  95:Middlewares/lvgl/src/misc/lv_style.c ****         return false;
  96:Middlewares/lvgl/src/misc/lv_style.c ****     }
  97:Middlewares/lvgl/src/misc/lv_style.c **** 
  98:Middlewares/lvgl/src/misc/lv_style.c ****     uint8_t * tmp = style->v_p.values_and_props + style->prop_cnt * sizeof(lv_style_value_t);
 188              		.loc 1 98 5 is_stmt 1 view .LVU33
 189              		.loc 1 98 31 is_stmt 0 view .LVU34
 190 0018 0768     		ldr	r7, [r0]
ARM GAS  /tmp/ccWgnKW2.s 			page 6


 191              		.loc 1 98 15 view .LVU35
 192 001a 07EB8206 		add	r6, r7, r2, lsl #2
 193              	.LVL10:
  99:Middlewares/lvgl/src/misc/lv_style.c ****     uint16_t * old_props = (uint16_t *)tmp;
 194              		.loc 1 99 5 is_stmt 1 view .LVU36
 100:Middlewares/lvgl/src/misc/lv_style.c ****     uint32_t i;
 195              		.loc 1 100 5 view .LVU37
 101:Middlewares/lvgl/src/misc/lv_style.c ****     for(i = 0; i < style->prop_cnt; i++) {
 196              		.loc 1 101 5 view .LVU38
 197              		.loc 1 101 11 is_stmt 0 view .LVU39
 198 001e 0023     		movs	r3, #0
 199              	.LVL11:
 200              	.L17:
 201              		.loc 1 101 16 is_stmt 1 discriminator 1 view .LVU40
 202              		.loc 1 101 5 is_stmt 0 discriminator 1 view .LVU41
 203 0020 9A42     		cmp	r2, r3
 204 0022 56D9     		bls	.L34
 102:Middlewares/lvgl/src/misc/lv_style.c ****         if(old_props[i] == prop) {
 205              		.loc 1 102 9 is_stmt 1 view .LVU42
 206              		.loc 1 102 21 is_stmt 0 view .LVU43
 207 0024 36F81310 		ldrh	r1, [r6, r3, lsl #1]
 208              		.loc 1 102 11 view .LVU44
 209 0028 A142     		cmp	r1, r4
 210 002a 10D0     		beq	.L35
 101:Middlewares/lvgl/src/misc/lv_style.c ****     for(i = 0; i < style->prop_cnt; i++) {
 211              		.loc 1 101 37 is_stmt 1 discriminator 2 view .LVU45
 101:Middlewares/lvgl/src/misc/lv_style.c ****     for(i = 0; i < style->prop_cnt; i++) {
 212              		.loc 1 101 38 is_stmt 0 discriminator 2 view .LVU46
 213 002c 0133     		adds	r3, r3, #1
 214              	.LVL12:
 101:Middlewares/lvgl/src/misc/lv_style.c ****     for(i = 0; i < style->prop_cnt; i++) {
 215              		.loc 1 101 38 discriminator 2 view .LVU47
 216 002e F7E7     		b	.L17
 217              	.LVL13:
 218              	.L33:
  90:Middlewares/lvgl/src/misc/lv_style.c ****             style->prop1 = LV_STYLE_PROP_INV;
 219              		.loc 1 90 9 is_stmt 1 view .LVU48
  90:Middlewares/lvgl/src/misc/lv_style.c ****             style->prop1 = LV_STYLE_PROP_INV;
 220              		.loc 1 90 17 is_stmt 0 view .LVU49
 221 0030 8388     		ldrh	r3, [r0, #4]
 222 0032 C3F30E03 		ubfx	r3, r3, #0, #15
  90:Middlewares/lvgl/src/misc/lv_style.c ****             style->prop1 = LV_STYLE_PROP_INV;
 223              		.loc 1 90 11 view .LVU50
 224 0036 8B42     		cmp	r3, r1
 225 0038 01D0     		beq	.L36
  95:Middlewares/lvgl/src/misc/lv_style.c ****     }
 226              		.loc 1 95 16 view .LVU51
 227 003a 0020     		movs	r0, #0
 228              	.LVL14:
  95:Middlewares/lvgl/src/misc/lv_style.c ****     }
 229              		.loc 1 95 16 view .LVU52
 230 003c 4CE0     		b	.L15
 231              	.LVL15:
 232              	.L36:
  91:Middlewares/lvgl/src/misc/lv_style.c ****             style->prop_cnt = 0;
 233              		.loc 1 91 13 is_stmt 1 view .LVU53
  91:Middlewares/lvgl/src/misc/lv_style.c ****             style->prop_cnt = 0;
ARM GAS  /tmp/ccWgnKW2.s 			page 7


 234              		.loc 1 91 26 is_stmt 0 view .LVU54
 235 003e 8388     		ldrh	r3, [r0, #4]
 236 0040 6FF30E03 		bfc	r3, #0, #15
 237 0044 8380     		strh	r3, [r0, #4]	@ movhi
  92:Middlewares/lvgl/src/misc/lv_style.c ****             return true;
 238              		.loc 1 92 13 is_stmt 1 view .LVU55
  92:Middlewares/lvgl/src/misc/lv_style.c ****             return true;
 239              		.loc 1 92 29 is_stmt 0 view .LVU56
 240 0046 0023     		movs	r3, #0
 241 0048 C371     		strb	r3, [r0, #7]
  93:Middlewares/lvgl/src/misc/lv_style.c ****         }
 242              		.loc 1 93 13 is_stmt 1 view .LVU57
  93:Middlewares/lvgl/src/misc/lv_style.c ****         }
 243              		.loc 1 93 20 is_stmt 0 view .LVU58
 244 004a 0120     		movs	r0, #1
 245              	.LVL16:
  93:Middlewares/lvgl/src/misc/lv_style.c ****         }
 246              		.loc 1 93 20 view .LVU59
 247 004c 44E0     		b	.L15
 248              	.LVL17:
 249              	.L35:
 250              	.LBB8:
 103:Middlewares/lvgl/src/misc/lv_style.c ****             lv_style_value_t * old_values = (lv_style_value_t *)style->v_p.values_and_props;
 251              		.loc 1 103 13 is_stmt 1 view .LVU60
 104:Middlewares/lvgl/src/misc/lv_style.c **** 
 105:Middlewares/lvgl/src/misc/lv_style.c ****             if(style->prop_cnt == 2) {
 252              		.loc 1 105 13 view .LVU61
 253              		.loc 1 105 15 is_stmt 0 view .LVU62
 254 004e 022A     		cmp	r2, #2
 255 0050 11D0     		beq	.L37
 256              	.LBB9:
 106:Middlewares/lvgl/src/misc/lv_style.c ****                 style->prop_cnt = 1;
 107:Middlewares/lvgl/src/misc/lv_style.c ****                 style->prop1 = i == 0 ? old_props[1] : old_props[0];
 108:Middlewares/lvgl/src/misc/lv_style.c ****                 style->v_p.value1 = i == 0 ? old_values[1] : old_values[0];
 109:Middlewares/lvgl/src/misc/lv_style.c ****             } else {
 110:Middlewares/lvgl/src/misc/lv_style.c ****                 size_t size = (style->prop_cnt - 1) * (sizeof(lv_style_value_t) + sizeof(uint16_t))
 257              		.loc 1 110 17 is_stmt 1 view .LVU63
 258              		.loc 1 110 48 is_stmt 0 view .LVU64
 259 0052 013A     		subs	r2, r2, #1
 260              		.loc 1 110 24 view .LVU65
 261 0054 02EB4202 		add	r2, r2, r2, lsl #1
 262              	.LVL18:
 111:Middlewares/lvgl/src/misc/lv_style.c ****                 uint8_t * new_values_and_props = lv_mem_alloc(size);
 263              		.loc 1 111 17 is_stmt 1 view .LVU66
 264              		.loc 1 111 50 is_stmt 0 view .LVU67
 265 0058 5000     		lsls	r0, r2, #1
 266              	.LVL19:
 267              		.loc 1 111 50 view .LVU68
 268 005a FFF7FEFF 		bl	lv_mem_alloc
 269              	.LVL20:
 112:Middlewares/lvgl/src/misc/lv_style.c ****                 if(new_values_and_props == NULL) return false;
 270              		.loc 1 112 17 is_stmt 1 view .LVU69
 271              		.loc 1 112 19 is_stmt 0 view .LVU70
 272 005e 8446     		mov	ip, r0
 273 0060 0028     		cmp	r0, #0
 274 0062 3CD0     		beq	.L31
 113:Middlewares/lvgl/src/misc/lv_style.c ****                 style->v_p.values_and_props = new_values_and_props;
ARM GAS  /tmp/ccWgnKW2.s 			page 8


 275              		.loc 1 113 17 is_stmt 1 view .LVU71
 276              		.loc 1 113 45 is_stmt 0 view .LVU72
 277 0064 2860     		str	r0, [r5]
 114:Middlewares/lvgl/src/misc/lv_style.c ****                 style->prop_cnt--;
 278              		.loc 1 114 17 is_stmt 1 view .LVU73
 279              		.loc 1 114 22 is_stmt 0 view .LVU74
 280 0066 E879     		ldrb	r0, [r5, #7]	@ zero_extendqisi2
 281              	.LVL21:
 282              		.loc 1 114 32 view .LVU75
 283 0068 0138     		subs	r0, r0, #1
 284 006a C0B2     		uxtb	r0, r0
 285 006c E871     		strb	r0, [r5, #7]
 115:Middlewares/lvgl/src/misc/lv_style.c **** 
 116:Middlewares/lvgl/src/misc/lv_style.c ****                 tmp = new_values_and_props + style->prop_cnt * sizeof(lv_style_value_t);
 286              		.loc 1 116 17 is_stmt 1 view .LVU76
 287              		.loc 1 116 62 is_stmt 0 view .LVU77
 288 006e 8000     		lsls	r0, r0, #2
 289              	.LVL22:
 117:Middlewares/lvgl/src/misc/lv_style.c ****                 uint16_t * new_props = (uint16_t *)tmp;
 290              		.loc 1 117 17 is_stmt 1 view .LVU78
 118:Middlewares/lvgl/src/misc/lv_style.c ****                 lv_style_value_t * new_values = (lv_style_value_t *)new_values_and_props;
 291              		.loc 1 118 17 view .LVU79
 119:Middlewares/lvgl/src/misc/lv_style.c **** 
 120:Middlewares/lvgl/src/misc/lv_style.c ****                 uint32_t j;
 292              		.loc 1 120 17 view .LVU80
 121:Middlewares/lvgl/src/misc/lv_style.c ****                 for(i = j = 0; j <= style->prop_cnt; j++) { /*<=: because prop_cnt already reduced 
 293              		.loc 1 121 17 view .LVU81
 294              		.loc 1 121 27 is_stmt 0 view .LVU82
 295 0070 0023     		movs	r3, #0
 296              		.loc 1 121 23 view .LVU83
 297 0072 1A46     		mov	r2, r3
 298              		.loc 1 121 17 view .LVU84
 299 0074 1AE0     		b	.L24
 300              	.LVL23:
 301              	.L37:
 302              		.loc 1 121 17 view .LVU85
 303              	.LBE9:
 106:Middlewares/lvgl/src/misc/lv_style.c ****                 style->prop1 = i == 0 ? old_props[1] : old_props[0];
 304              		.loc 1 106 17 is_stmt 1 view .LVU86
 106:Middlewares/lvgl/src/misc/lv_style.c ****                 style->prop1 = i == 0 ? old_props[1] : old_props[0];
 305              		.loc 1 106 33 is_stmt 0 view .LVU87
 306 0076 0121     		movs	r1, #1
 307 0078 E971     		strb	r1, [r5, #7]
 107:Middlewares/lvgl/src/misc/lv_style.c ****                 style->v_p.value1 = i == 0 ? old_values[1] : old_values[0];
 308              		.loc 1 107 17 is_stmt 1 view .LVU88
 107:Middlewares/lvgl/src/misc/lv_style.c ****                 style->v_p.value1 = i == 0 ? old_values[1] : old_values[0];
 309              		.loc 1 107 54 is_stmt 0 view .LVU89
 310 007a 73B9     		cbnz	r3, .L20
 107:Middlewares/lvgl/src/misc/lv_style.c ****                 style->v_p.value1 = i == 0 ? old_values[1] : old_values[0];
 311              		.loc 1 107 50 discriminator 1 view .LVU90
 312 007c 7288     		ldrh	r2, [r6, #2]
 107:Middlewares/lvgl/src/misc/lv_style.c ****                 style->v_p.value1 = i == 0 ? old_values[1] : old_values[0];
 313              		.loc 1 107 54 discriminator 1 view .LVU91
 314 007e C2F30E02 		ubfx	r2, r2, #0, #15
 315              	.L21:
 107:Middlewares/lvgl/src/misc/lv_style.c ****                 style->v_p.value1 = i == 0 ? old_values[1] : old_values[0];
 316              		.loc 1 107 30 discriminator 4 view .LVU92
ARM GAS  /tmp/ccWgnKW2.s 			page 9


 317 0082 A988     		ldrh	r1, [r5, #4]
 318 0084 62F30E01 		bfi	r1, r2, #0, #15
 319 0088 A980     		strh	r1, [r5, #4]	@ movhi
 108:Middlewares/lvgl/src/misc/lv_style.c ****             } else {
 320              		.loc 1 108 17 is_stmt 1 discriminator 4 view .LVU93
 108:Middlewares/lvgl/src/misc/lv_style.c ****             } else {
 321              		.loc 1 108 35 is_stmt 0 discriminator 4 view .LVU94
 322 008a 5BB9     		cbnz	r3, .L22
 108:Middlewares/lvgl/src/misc/lv_style.c ****             } else {
 323              		.loc 1 108 35 discriminator 1 view .LVU95
 324 008c 7B68     		ldr	r3, [r7, #4]
 325              	.LVL24:
 108:Middlewares/lvgl/src/misc/lv_style.c ****             } else {
 326              		.loc 1 108 35 discriminator 1 view .LVU96
 327 008e 2B60     		str	r3, [r5]
 328              	.LVL25:
 329              	.L23:
 122:Middlewares/lvgl/src/misc/lv_style.c ****                     if(old_props[j] != prop) {
 123:Middlewares/lvgl/src/misc/lv_style.c ****                         new_values[i] = old_values[j];
 124:Middlewares/lvgl/src/misc/lv_style.c ****                         new_props[i++] = old_props[j];
 125:Middlewares/lvgl/src/misc/lv_style.c ****                     }
 126:Middlewares/lvgl/src/misc/lv_style.c ****                 }
 127:Middlewares/lvgl/src/misc/lv_style.c ****             }
 128:Middlewares/lvgl/src/misc/lv_style.c **** 
 129:Middlewares/lvgl/src/misc/lv_style.c ****             lv_mem_free(old_values);
 330              		.loc 1 129 13 is_stmt 1 view .LVU97
 331 0090 3846     		mov	r0, r7
 332 0092 FFF7FEFF 		bl	lv_mem_free
 333              	.LVL26:
 130:Middlewares/lvgl/src/misc/lv_style.c ****             return true;
 334              		.loc 1 130 13 view .LVU98
 335              		.loc 1 130 20 is_stmt 0 view .LVU99
 336 0096 0120     		movs	r0, #1
 337 0098 1EE0     		b	.L15
 338              	.LVL27:
 339              	.L20:
 107:Middlewares/lvgl/src/misc/lv_style.c ****                 style->v_p.value1 = i == 0 ? old_values[1] : old_values[0];
 340              		.loc 1 107 65 discriminator 2 view .LVU100
 341 009a 37F82220 		ldrh	r2, [r7, r2, lsl #2]
 107:Middlewares/lvgl/src/misc/lv_style.c ****                 style->v_p.value1 = i == 0 ? old_values[1] : old_values[0];
 342              		.loc 1 107 54 discriminator 2 view .LVU101
 343 009e C2F30E02 		ubfx	r2, r2, #0, #15
 344 00a2 EEE7     		b	.L21
 345              	.L22:
 108:Middlewares/lvgl/src/misc/lv_style.c ****             } else {
 346              		.loc 1 108 35 discriminator 2 view .LVU102
 347 00a4 3B68     		ldr	r3, [r7]
 348              	.LVL28:
 108:Middlewares/lvgl/src/misc/lv_style.c ****             } else {
 349              		.loc 1 108 35 discriminator 2 view .LVU103
 350 00a6 2B60     		str	r3, [r5]
 351 00a8 F2E7     		b	.L23
 352              	.LVL29:
 353              	.L25:
 354              	.LBB10:
 121:Middlewares/lvgl/src/misc/lv_style.c ****                     if(old_props[j] != prop) {
 355              		.loc 1 121 54 is_stmt 1 discriminator 2 view .LVU104
ARM GAS  /tmp/ccWgnKW2.s 			page 10


 121:Middlewares/lvgl/src/misc/lv_style.c ****                     if(old_props[j] != prop) {
 356              		.loc 1 121 55 is_stmt 0 discriminator 2 view .LVU105
 357 00aa 0133     		adds	r3, r3, #1
 358              	.LVL30:
 359              	.L24:
 121:Middlewares/lvgl/src/misc/lv_style.c ****                     if(old_props[j] != prop) {
 360              		.loc 1 121 32 is_stmt 1 discriminator 1 view .LVU106
 121:Middlewares/lvgl/src/misc/lv_style.c ****                     if(old_props[j] != prop) {
 361              		.loc 1 121 42 is_stmt 0 discriminator 1 view .LVU107
 362 00ac E979     		ldrb	r1, [r5, #7]	@ zero_extendqisi2
 121:Middlewares/lvgl/src/misc/lv_style.c ****                     if(old_props[j] != prop) {
 363              		.loc 1 121 17 discriminator 1 view .LVU108
 364 00ae 9942     		cmp	r1, r3
 365 00b0 EED3     		bcc	.L23
 122:Middlewares/lvgl/src/misc/lv_style.c ****                         new_values[i] = old_values[j];
 366              		.loc 1 122 21 is_stmt 1 view .LVU109
 122:Middlewares/lvgl/src/misc/lv_style.c ****                         new_values[i] = old_values[j];
 367              		.loc 1 122 33 is_stmt 0 view .LVU110
 368 00b2 36F81310 		ldrh	r1, [r6, r3, lsl #1]
 122:Middlewares/lvgl/src/misc/lv_style.c ****                         new_values[i] = old_values[j];
 369              		.loc 1 122 23 view .LVU111
 370 00b6 A142     		cmp	r1, r4
 371 00b8 F7D0     		beq	.L25
 123:Middlewares/lvgl/src/misc/lv_style.c ****                         new_props[i++] = old_props[j];
 372              		.loc 1 123 25 is_stmt 1 view .LVU112
 123:Middlewares/lvgl/src/misc/lv_style.c ****                         new_props[i++] = old_props[j];
 373              		.loc 1 123 39 is_stmt 0 view .LVU113
 374 00ba 57F82310 		ldr	r1, [r7, r3, lsl #2]
 375 00be 4CF82210 		str	r1, [ip, r2, lsl #2]
 124:Middlewares/lvgl/src/misc/lv_style.c ****                     }
 376              		.loc 1 124 25 is_stmt 1 view .LVU114
 377              	.LVL31:
 124:Middlewares/lvgl/src/misc/lv_style.c ****                     }
 378              		.loc 1 124 34 is_stmt 0 view .LVU115
 379 00c2 00EB4201 		add	r1, r0, r2, lsl #1
 124:Middlewares/lvgl/src/misc/lv_style.c ****                     }
 380              		.loc 1 124 51 view .LVU116
 381 00c6 36F813E0 		ldrh	lr, [r6, r3, lsl #1]
 124:Middlewares/lvgl/src/misc/lv_style.c ****                     }
 382              		.loc 1 124 40 view .LVU117
 383 00ca 2CF801E0 		strh	lr, [ip, r1]	@ movhi
 124:Middlewares/lvgl/src/misc/lv_style.c ****                     }
 384              		.loc 1 124 36 view .LVU118
 385 00ce 0132     		adds	r2, r2, #1
 386              	.LVL32:
 124:Middlewares/lvgl/src/misc/lv_style.c ****                     }
 387              		.loc 1 124 36 view .LVU119
 388 00d0 EBE7     		b	.L25
 389              	.LVL33:
 390              	.L34:
 124:Middlewares/lvgl/src/misc/lv_style.c ****                     }
 391              		.loc 1 124 36 view .LVU120
 392              	.LBE10:
 393              	.LBE8:
 131:Middlewares/lvgl/src/misc/lv_style.c ****         }
 132:Middlewares/lvgl/src/misc/lv_style.c ****     }
 133:Middlewares/lvgl/src/misc/lv_style.c **** 
ARM GAS  /tmp/ccWgnKW2.s 			page 11


 134:Middlewares/lvgl/src/misc/lv_style.c ****     return false;
 394              		.loc 1 134 12 view .LVU121
 395 00d2 0020     		movs	r0, #0
 396              	.LVL34:
 397              		.loc 1 134 12 view .LVU122
 398 00d4 00E0     		b	.L15
 399              	.LVL35:
 400              	.L28:
  84:Middlewares/lvgl/src/misc/lv_style.c ****     }
 401              		.loc 1 84 16 view .LVU123
 402 00d6 0020     		movs	r0, #0
 403              	.LVL36:
 404              	.L15:
 135:Middlewares/lvgl/src/misc/lv_style.c **** }
 405              		.loc 1 135 1 view .LVU124
 406 00d8 F8BD     		pop	{r3, r4, r5, r6, r7, pc}
 407              	.LVL37:
 408              	.L29:
  87:Middlewares/lvgl/src/misc/lv_style.c **** 
 409              		.loc 1 87 38 view .LVU125
 410 00da 0020     		movs	r0, #0
 411              	.LVL38:
  87:Middlewares/lvgl/src/misc/lv_style.c **** 
 412              		.loc 1 87 38 view .LVU126
 413 00dc FCE7     		b	.L15
 414              	.LVL39:
 415              	.L31:
 416              	.LBB12:
 417              	.LBB11:
 112:Middlewares/lvgl/src/misc/lv_style.c ****                 style->v_p.values_and_props = new_values_and_props;
 418              		.loc 1 112 57 view .LVU127
 419 00de 0020     		movs	r0, #0
 420              	.LVL40:
 112:Middlewares/lvgl/src/misc/lv_style.c ****                 style->v_p.values_and_props = new_values_and_props;
 421              		.loc 1 112 57 view .LVU128
 422 00e0 FAE7     		b	.L15
 423              	.LBE11:
 424              	.LBE12:
 425              		.cfi_endproc
 426              	.LFE51:
 428              		.section	.text.lv_style_get_prop,"ax",%progbits
 429              		.align	1
 430              		.global	lv_style_get_prop
 431              		.syntax unified
 432              		.thumb
 433              		.thumb_func
 434              		.fpu fpv4-sp-d16
 436              	lv_style_get_prop:
 437              	.LVL41:
 438              	.LFB53:
 136:Middlewares/lvgl/src/misc/lv_style.c **** 
 137:Middlewares/lvgl/src/misc/lv_style.c **** void lv_style_set_prop(lv_style_t * style, lv_style_prop_t prop, lv_style_value_t value)
 138:Middlewares/lvgl/src/misc/lv_style.c **** {
 139:Middlewares/lvgl/src/misc/lv_style.c ****     LV_ASSERT_STYLE(style);
 140:Middlewares/lvgl/src/misc/lv_style.c **** 
 141:Middlewares/lvgl/src/misc/lv_style.c ****     if(style->is_const) {
 142:Middlewares/lvgl/src/misc/lv_style.c ****         LV_LOG_ERROR("Cannot set property of constant style");
ARM GAS  /tmp/ccWgnKW2.s 			page 12


 143:Middlewares/lvgl/src/misc/lv_style.c ****         return;
 144:Middlewares/lvgl/src/misc/lv_style.c ****     }
 145:Middlewares/lvgl/src/misc/lv_style.c **** 
 146:Middlewares/lvgl/src/misc/lv_style.c ****     if(style->prop_cnt > 1) {
 147:Middlewares/lvgl/src/misc/lv_style.c ****         uint8_t * tmp = style->v_p.values_and_props + style->prop_cnt * sizeof(lv_style_value_t);
 148:Middlewares/lvgl/src/misc/lv_style.c ****         uint16_t * props = (uint16_t *)tmp;
 149:Middlewares/lvgl/src/misc/lv_style.c ****         int32_t i;
 150:Middlewares/lvgl/src/misc/lv_style.c ****         for(i = style->prop_cnt - 1; i >= 0; i--) {
 151:Middlewares/lvgl/src/misc/lv_style.c ****             if(props[i] == prop) {
 152:Middlewares/lvgl/src/misc/lv_style.c ****                 lv_style_value_t * values = (lv_style_value_t *)style->v_p.values_and_props;
 153:Middlewares/lvgl/src/misc/lv_style.c ****                 values[i] = value;
 154:Middlewares/lvgl/src/misc/lv_style.c ****                 return;
 155:Middlewares/lvgl/src/misc/lv_style.c ****             }
 156:Middlewares/lvgl/src/misc/lv_style.c ****         }
 157:Middlewares/lvgl/src/misc/lv_style.c **** 
 158:Middlewares/lvgl/src/misc/lv_style.c ****         size_t size = (style->prop_cnt + 1) * (sizeof(lv_style_value_t) + sizeof(uint16_t));
 159:Middlewares/lvgl/src/misc/lv_style.c ****         uint8_t * values_and_props = lv_mem_realloc(style->v_p.values_and_props, size);
 160:Middlewares/lvgl/src/misc/lv_style.c ****         if(values_and_props == NULL) return;
 161:Middlewares/lvgl/src/misc/lv_style.c ****         style->v_p.values_and_props = values_and_props;
 162:Middlewares/lvgl/src/misc/lv_style.c **** 
 163:Middlewares/lvgl/src/misc/lv_style.c ****         tmp = values_and_props + style->prop_cnt * sizeof(lv_style_value_t);
 164:Middlewares/lvgl/src/misc/lv_style.c ****         props = (uint16_t *)tmp;
 165:Middlewares/lvgl/src/misc/lv_style.c ****         /*Shift all props to make place for the value before them*/
 166:Middlewares/lvgl/src/misc/lv_style.c ****         for(i = style->prop_cnt - 1; i >= 0; i--) {
 167:Middlewares/lvgl/src/misc/lv_style.c ****             props[i + sizeof(lv_style_value_t) /sizeof(uint16_t)] = props[i];
 168:Middlewares/lvgl/src/misc/lv_style.c ****         }
 169:Middlewares/lvgl/src/misc/lv_style.c ****         style->prop_cnt++;
 170:Middlewares/lvgl/src/misc/lv_style.c **** 
 171:Middlewares/lvgl/src/misc/lv_style.c ****         /*Go to the new position wit the props*/
 172:Middlewares/lvgl/src/misc/lv_style.c ****         tmp = values_and_props + style->prop_cnt * sizeof(lv_style_value_t);
 173:Middlewares/lvgl/src/misc/lv_style.c ****         props = (uint16_t *)tmp;
 174:Middlewares/lvgl/src/misc/lv_style.c ****         lv_style_value_t * values = (lv_style_value_t *)values_and_props;
 175:Middlewares/lvgl/src/misc/lv_style.c **** 
 176:Middlewares/lvgl/src/misc/lv_style.c ****         /*Set the new property and value*/
 177:Middlewares/lvgl/src/misc/lv_style.c ****         props[style->prop_cnt - 1] = prop;
 178:Middlewares/lvgl/src/misc/lv_style.c ****         values[style->prop_cnt - 1] = value;
 179:Middlewares/lvgl/src/misc/lv_style.c ****     } else if(style->prop_cnt == 1) {
 180:Middlewares/lvgl/src/misc/lv_style.c ****         if(style->prop1 == prop) {
 181:Middlewares/lvgl/src/misc/lv_style.c ****             style->v_p.value1 = value;
 182:Middlewares/lvgl/src/misc/lv_style.c ****             return;
 183:Middlewares/lvgl/src/misc/lv_style.c ****         }
 184:Middlewares/lvgl/src/misc/lv_style.c ****         size_t size = (style->prop_cnt + 1) * (sizeof(lv_style_value_t) + sizeof(uint16_t));
 185:Middlewares/lvgl/src/misc/lv_style.c ****         uint8_t * values_and_props = lv_mem_alloc(size);
 186:Middlewares/lvgl/src/misc/lv_style.c ****         if(values_and_props == NULL) return;
 187:Middlewares/lvgl/src/misc/lv_style.c ****         lv_style_value_t value_tmp = style->v_p.value1;
 188:Middlewares/lvgl/src/misc/lv_style.c ****         style->v_p.values_and_props = values_and_props;
 189:Middlewares/lvgl/src/misc/lv_style.c ****         style->prop_cnt++;
 190:Middlewares/lvgl/src/misc/lv_style.c **** 
 191:Middlewares/lvgl/src/misc/lv_style.c ****         uint8_t * tmp = values_and_props + style->prop_cnt * sizeof(lv_style_value_t);
 192:Middlewares/lvgl/src/misc/lv_style.c ****         uint16_t * props = (uint16_t *)tmp;
 193:Middlewares/lvgl/src/misc/lv_style.c ****         lv_style_value_t * values = (lv_style_value_t *)values_and_props;
 194:Middlewares/lvgl/src/misc/lv_style.c ****         props[0] = style->prop1;
 195:Middlewares/lvgl/src/misc/lv_style.c ****         props[1] = prop;
 196:Middlewares/lvgl/src/misc/lv_style.c ****         values[0] = value_tmp;
 197:Middlewares/lvgl/src/misc/lv_style.c ****         values[1] = value;
 198:Middlewares/lvgl/src/misc/lv_style.c ****     } else {
 199:Middlewares/lvgl/src/misc/lv_style.c ****         style->prop_cnt = 1;
ARM GAS  /tmp/ccWgnKW2.s 			page 13


 200:Middlewares/lvgl/src/misc/lv_style.c ****         style->prop1 = prop;
 201:Middlewares/lvgl/src/misc/lv_style.c ****         style->v_p.value1 = value;
 202:Middlewares/lvgl/src/misc/lv_style.c ****     }
 203:Middlewares/lvgl/src/misc/lv_style.c **** 
 204:Middlewares/lvgl/src/misc/lv_style.c ****     uint8_t group = _lv_style_get_prop_group(prop);
 205:Middlewares/lvgl/src/misc/lv_style.c ****     style->has_group |= 1 << group;
 206:Middlewares/lvgl/src/misc/lv_style.c **** }
 207:Middlewares/lvgl/src/misc/lv_style.c **** 
 208:Middlewares/lvgl/src/misc/lv_style.c **** lv_res_t lv_style_get_prop(lv_style_t * style, lv_style_prop_t prop, lv_style_value_t * value)
 209:Middlewares/lvgl/src/misc/lv_style.c **** {
 439              		.loc 1 209 1 is_stmt 1 view -0
 440              		.cfi_startproc
 441              		@ args = 0, pretend = 0, frame = 0
 442              		@ frame_needed = 0, uses_anonymous_args = 0
 443              		.loc 1 209 1 is_stmt 0 view .LVU130
 444 0000 0346     		mov	r3, r0
 210:Middlewares/lvgl/src/misc/lv_style.c ****    return lv_style_get_prop_inlined(style, prop, value);
 445              		.loc 1 210 4 is_stmt 1 view .LVU131
 446              	.LVL42:
 447              	.LBB18:
 448              	.LBI18:
 449              		.file 2 "Middlewares/lvgl/src/misc/lv_style.h"
   1:Middlewares/lvgl/src/misc/lv_style.h **** /**
   2:Middlewares/lvgl/src/misc/lv_style.h ****  * @file lv_style.h
   3:Middlewares/lvgl/src/misc/lv_style.h ****  *
   4:Middlewares/lvgl/src/misc/lv_style.h ****  */
   5:Middlewares/lvgl/src/misc/lv_style.h **** 
   6:Middlewares/lvgl/src/misc/lv_style.h **** #ifndef LV_STYLE_H
   7:Middlewares/lvgl/src/misc/lv_style.h **** #define LV_STYLE_H
   8:Middlewares/lvgl/src/misc/lv_style.h **** 
   9:Middlewares/lvgl/src/misc/lv_style.h **** #ifdef __cplusplus
  10:Middlewares/lvgl/src/misc/lv_style.h **** extern "C" {
  11:Middlewares/lvgl/src/misc/lv_style.h **** #endif
  12:Middlewares/lvgl/src/misc/lv_style.h **** 
  13:Middlewares/lvgl/src/misc/lv_style.h **** /*********************
  14:Middlewares/lvgl/src/misc/lv_style.h ****  *      INCLUDES
  15:Middlewares/lvgl/src/misc/lv_style.h ****  *********************/
  16:Middlewares/lvgl/src/misc/lv_style.h **** #include <stdbool.h>
  17:Middlewares/lvgl/src/misc/lv_style.h **** #include "../font/lv_font.h"
  18:Middlewares/lvgl/src/misc/lv_style.h **** #include "lv_color.h"
  19:Middlewares/lvgl/src/misc/lv_style.h **** #include "lv_area.h"
  20:Middlewares/lvgl/src/misc/lv_style.h **** #include "lv_anim.h"
  21:Middlewares/lvgl/src/misc/lv_style.h **** #include "lv_txt.h"
  22:Middlewares/lvgl/src/misc/lv_style.h **** #include "lv_types.h"
  23:Middlewares/lvgl/src/misc/lv_style.h **** #include "lv_assert.h"
  24:Middlewares/lvgl/src/misc/lv_style.h **** #include "lv_bidi.h"
  25:Middlewares/lvgl/src/misc/lv_style.h **** 
  26:Middlewares/lvgl/src/misc/lv_style.h **** /*********************
  27:Middlewares/lvgl/src/misc/lv_style.h ****  *      DEFINES
  28:Middlewares/lvgl/src/misc/lv_style.h ****  *********************/
  29:Middlewares/lvgl/src/misc/lv_style.h **** 
  30:Middlewares/lvgl/src/misc/lv_style.h **** #define LV_STYLE_SENTINEL_VALUE     0xAABBCCDD
  31:Middlewares/lvgl/src/misc/lv_style.h **** 
  32:Middlewares/lvgl/src/misc/lv_style.h **** /**
  33:Middlewares/lvgl/src/misc/lv_style.h ****  * Flags for style properties
  34:Middlewares/lvgl/src/misc/lv_style.h ****  */
  35:Middlewares/lvgl/src/misc/lv_style.h **** #define LV_STYLE_PROP_INHERIT               (1 << 10)  /*Inherited*/
ARM GAS  /tmp/ccWgnKW2.s 			page 14


  36:Middlewares/lvgl/src/misc/lv_style.h **** #define LV_STYLE_PROP_EXT_DRAW              (1 << 11)  /*Requires ext. draw size update when change
  37:Middlewares/lvgl/src/misc/lv_style.h **** #define LV_STYLE_PROP_LAYOUT_REFR           (1 << 12)  /*Requires layout update when changed*/
  38:Middlewares/lvgl/src/misc/lv_style.h **** #define LV_STYLE_PROP_PARENT_LAYOUT_REFR    (1 << 13)  /*Requires layout update on parent when chan
  39:Middlewares/lvgl/src/misc/lv_style.h **** #define LV_STYLE_PROP_FILTER                (1 << 14)  /*Apply color filter*/
  40:Middlewares/lvgl/src/misc/lv_style.h **** 
  41:Middlewares/lvgl/src/misc/lv_style.h **** /**
  42:Middlewares/lvgl/src/misc/lv_style.h ****  * Other constants
  43:Middlewares/lvgl/src/misc/lv_style.h ****  */
  44:Middlewares/lvgl/src/misc/lv_style.h **** #define LV_IMG_ZOOM_NONE            256        /*Value for not zooming the image*/
  45:Middlewares/lvgl/src/misc/lv_style.h **** LV_EXPORT_CONST_INT(LV_IMG_ZOOM_NONE);
  46:Middlewares/lvgl/src/misc/lv_style.h **** 
  47:Middlewares/lvgl/src/misc/lv_style.h **** #if LV_USE_ASSERT_STYLE
  48:Middlewares/lvgl/src/misc/lv_style.h **** #define LV_STYLE_CONST_INIT(var_name, prop_array) const lv_style_t var_name = { .sentinel = LV_STYL
  49:Middlewares/lvgl/src/misc/lv_style.h **** #else
  50:Middlewares/lvgl/src/misc/lv_style.h **** #define LV_STYLE_CONST_INIT(var_name, prop_array) const lv_style_t var_name = { .v_p = { .const_pro
  51:Middlewares/lvgl/src/misc/lv_style.h **** #endif
  52:Middlewares/lvgl/src/misc/lv_style.h **** 
  53:Middlewares/lvgl/src/misc/lv_style.h **** /**********************
  54:Middlewares/lvgl/src/misc/lv_style.h ****  *      TYPEDEFS
  55:Middlewares/lvgl/src/misc/lv_style.h ****  **********************/
  56:Middlewares/lvgl/src/misc/lv_style.h **** 
  57:Middlewares/lvgl/src/misc/lv_style.h **** /**
  58:Middlewares/lvgl/src/misc/lv_style.h ****  * Possible options how to blend opaque drawings
  59:Middlewares/lvgl/src/misc/lv_style.h ****  */
  60:Middlewares/lvgl/src/misc/lv_style.h **** enum {
  61:Middlewares/lvgl/src/misc/lv_style.h ****     LV_BLEND_MODE_NORMAL,     /**< Simply mix according to the opacity value*/
  62:Middlewares/lvgl/src/misc/lv_style.h ****     LV_BLEND_MODE_ADDITIVE,   /**< Add the respective color channels*/
  63:Middlewares/lvgl/src/misc/lv_style.h ****     LV_BLEND_MODE_SUBTRACTIVE,/**< Subtract the foreground from the background*/
  64:Middlewares/lvgl/src/misc/lv_style.h **** };
  65:Middlewares/lvgl/src/misc/lv_style.h **** 
  66:Middlewares/lvgl/src/misc/lv_style.h **** typedef uint8_t lv_blend_mode_t;
  67:Middlewares/lvgl/src/misc/lv_style.h **** 
  68:Middlewares/lvgl/src/misc/lv_style.h **** /**
  69:Middlewares/lvgl/src/misc/lv_style.h ****  * Some options to apply decorations on texts.
  70:Middlewares/lvgl/src/misc/lv_style.h ****  * 'OR'ed values can be used.
  71:Middlewares/lvgl/src/misc/lv_style.h ****  */
  72:Middlewares/lvgl/src/misc/lv_style.h **** enum {
  73:Middlewares/lvgl/src/misc/lv_style.h ****     LV_TEXT_DECOR_NONE          = 0x00,
  74:Middlewares/lvgl/src/misc/lv_style.h ****     LV_TEXT_DECOR_UNDERLINE     = 0x01,
  75:Middlewares/lvgl/src/misc/lv_style.h ****     LV_TEXT_DECOR_STRIKETHROUGH = 0x02,
  76:Middlewares/lvgl/src/misc/lv_style.h **** };
  77:Middlewares/lvgl/src/misc/lv_style.h **** 
  78:Middlewares/lvgl/src/misc/lv_style.h **** typedef uint8_t lv_text_decor_t;
  79:Middlewares/lvgl/src/misc/lv_style.h **** 
  80:Middlewares/lvgl/src/misc/lv_style.h **** /**
  81:Middlewares/lvgl/src/misc/lv_style.h ****  * Selects on which sides border should be drawn
  82:Middlewares/lvgl/src/misc/lv_style.h ****  * 'OR'ed values can be used.
  83:Middlewares/lvgl/src/misc/lv_style.h ****  */
  84:Middlewares/lvgl/src/misc/lv_style.h **** enum {
  85:Middlewares/lvgl/src/misc/lv_style.h ****     LV_BORDER_SIDE_NONE     = 0x00,
  86:Middlewares/lvgl/src/misc/lv_style.h ****     LV_BORDER_SIDE_BOTTOM   = 0x01,
  87:Middlewares/lvgl/src/misc/lv_style.h ****     LV_BORDER_SIDE_TOP      = 0x02,
  88:Middlewares/lvgl/src/misc/lv_style.h ****     LV_BORDER_SIDE_LEFT     = 0x04,
  89:Middlewares/lvgl/src/misc/lv_style.h ****     LV_BORDER_SIDE_RIGHT    = 0x08,
  90:Middlewares/lvgl/src/misc/lv_style.h ****     LV_BORDER_SIDE_FULL     = 0x0F,
  91:Middlewares/lvgl/src/misc/lv_style.h ****     LV_BORDER_SIDE_INTERNAL = 0x10, /**< FOR matrix-like objects (e.g. Button matrix)*/
  92:Middlewares/lvgl/src/misc/lv_style.h **** };
ARM GAS  /tmp/ccWgnKW2.s 			page 15


  93:Middlewares/lvgl/src/misc/lv_style.h **** typedef uint8_t lv_border_side_t;
  94:Middlewares/lvgl/src/misc/lv_style.h **** 
  95:Middlewares/lvgl/src/misc/lv_style.h **** /**
  96:Middlewares/lvgl/src/misc/lv_style.h ****  * The direction of the gradient.
  97:Middlewares/lvgl/src/misc/lv_style.h ****  */
  98:Middlewares/lvgl/src/misc/lv_style.h **** enum {
  99:Middlewares/lvgl/src/misc/lv_style.h ****     LV_GRAD_DIR_NONE, /**< No gradient (the `grad_color` property is ignored)*/
 100:Middlewares/lvgl/src/misc/lv_style.h ****     LV_GRAD_DIR_VER,  /**< Vertical (top to bottom) gradient*/
 101:Middlewares/lvgl/src/misc/lv_style.h ****     LV_GRAD_DIR_HOR,  /**< Horizontal (left to right) gradient*/
 102:Middlewares/lvgl/src/misc/lv_style.h **** };
 103:Middlewares/lvgl/src/misc/lv_style.h **** 
 104:Middlewares/lvgl/src/misc/lv_style.h **** typedef uint8_t lv_grad_dir_t;
 105:Middlewares/lvgl/src/misc/lv_style.h **** 
 106:Middlewares/lvgl/src/misc/lv_style.h **** /**
 107:Middlewares/lvgl/src/misc/lv_style.h ****  * A common type to handle all the property types in the same way.
 108:Middlewares/lvgl/src/misc/lv_style.h ****  */
 109:Middlewares/lvgl/src/misc/lv_style.h **** typedef union {
 110:Middlewares/lvgl/src/misc/lv_style.h ****     int32_t num;         /**< Number integer number (opacity, enums, booleans or "normal" numbers)*
 111:Middlewares/lvgl/src/misc/lv_style.h ****     const void * ptr;    /**< Constant pointers  (font, cone text, etc)*/
 112:Middlewares/lvgl/src/misc/lv_style.h ****     lv_color_t color;    /**< Colors*/
 113:Middlewares/lvgl/src/misc/lv_style.h **** }lv_style_value_t;
 114:Middlewares/lvgl/src/misc/lv_style.h **** 
 115:Middlewares/lvgl/src/misc/lv_style.h **** /**
 116:Middlewares/lvgl/src/misc/lv_style.h ****  * Enumeration of all built in style properties
 117:Middlewares/lvgl/src/misc/lv_style.h ****  */
 118:Middlewares/lvgl/src/misc/lv_style.h **** typedef enum {
 119:Middlewares/lvgl/src/misc/lv_style.h ****     LV_STYLE_PROP_INV                = 0,
 120:Middlewares/lvgl/src/misc/lv_style.h **** 
 121:Middlewares/lvgl/src/misc/lv_style.h ****     /*Group 0*/
 122:Middlewares/lvgl/src/misc/lv_style.h ****     LV_STYLE_WIDTH                   = 1 | LV_STYLE_PROP_LAYOUT_REFR,
 123:Middlewares/lvgl/src/misc/lv_style.h ****     LV_STYLE_MIN_WIDTH               = 2 | LV_STYLE_PROP_LAYOUT_REFR,
 124:Middlewares/lvgl/src/misc/lv_style.h ****     LV_STYLE_MAX_WIDTH               = 3 | LV_STYLE_PROP_LAYOUT_REFR,
 125:Middlewares/lvgl/src/misc/lv_style.h ****     LV_STYLE_HEIGHT                  = 4 | LV_STYLE_PROP_LAYOUT_REFR,
 126:Middlewares/lvgl/src/misc/lv_style.h ****     LV_STYLE_MIN_HEIGHT              = 5 | LV_STYLE_PROP_LAYOUT_REFR,
 127:Middlewares/lvgl/src/misc/lv_style.h ****     LV_STYLE_MAX_HEIGHT              = 6 | LV_STYLE_PROP_LAYOUT_REFR,
 128:Middlewares/lvgl/src/misc/lv_style.h ****     LV_STYLE_X                       = 7 | LV_STYLE_PROP_LAYOUT_REFR,
 129:Middlewares/lvgl/src/misc/lv_style.h ****     LV_STYLE_Y                       = 8 | LV_STYLE_PROP_LAYOUT_REFR,
 130:Middlewares/lvgl/src/misc/lv_style.h ****     LV_STYLE_ALIGN                   = 9 | LV_STYLE_PROP_LAYOUT_REFR,
 131:Middlewares/lvgl/src/misc/lv_style.h ****     LV_STYLE_TRANSFORM_WIDTH         = 10 | LV_STYLE_PROP_EXT_DRAW,
 132:Middlewares/lvgl/src/misc/lv_style.h ****     LV_STYLE_TRANSFORM_HEIGHT        = 11 | LV_STYLE_PROP_EXT_DRAW,
 133:Middlewares/lvgl/src/misc/lv_style.h ****     LV_STYLE_TRANSLATE_X             = 12 | LV_STYLE_PROP_LAYOUT_REFR | LV_STYLE_PROP_PARENT_LAYOUT
 134:Middlewares/lvgl/src/misc/lv_style.h ****     LV_STYLE_TRANSLATE_Y             = 13 | LV_STYLE_PROP_LAYOUT_REFR | LV_STYLE_PROP_PARENT_LAYOUT
 135:Middlewares/lvgl/src/misc/lv_style.h ****     LV_STYLE_TRANSFORM_ZOOM          = 14 | LV_STYLE_PROP_EXT_DRAW,
 136:Middlewares/lvgl/src/misc/lv_style.h ****     LV_STYLE_TRANSFORM_ANGLE         = 15 | LV_STYLE_PROP_EXT_DRAW,
 137:Middlewares/lvgl/src/misc/lv_style.h **** 
 138:Middlewares/lvgl/src/misc/lv_style.h ****     /*Group 1*/
 139:Middlewares/lvgl/src/misc/lv_style.h ****     LV_STYLE_PAD_TOP                 = 16 | LV_STYLE_PROP_LAYOUT_REFR,
 140:Middlewares/lvgl/src/misc/lv_style.h ****     LV_STYLE_PAD_BOTTOM              = 17 | LV_STYLE_PROP_LAYOUT_REFR,
 141:Middlewares/lvgl/src/misc/lv_style.h ****     LV_STYLE_PAD_LEFT                = 18 | LV_STYLE_PROP_LAYOUT_REFR,
 142:Middlewares/lvgl/src/misc/lv_style.h ****     LV_STYLE_PAD_RIGHT               = 19 | LV_STYLE_PROP_LAYOUT_REFR,
 143:Middlewares/lvgl/src/misc/lv_style.h ****     LV_STYLE_PAD_ROW                 = 20 | LV_STYLE_PROP_LAYOUT_REFR,
 144:Middlewares/lvgl/src/misc/lv_style.h ****     LV_STYLE_PAD_COLUMN              = 21 | LV_STYLE_PROP_LAYOUT_REFR,
 145:Middlewares/lvgl/src/misc/lv_style.h **** 
 146:Middlewares/lvgl/src/misc/lv_style.h ****     /*Group 2*/
 147:Middlewares/lvgl/src/misc/lv_style.h ****     LV_STYLE_BG_COLOR                = 32,
 148:Middlewares/lvgl/src/misc/lv_style.h ****     LV_STYLE_BG_COLOR_FILTERED       = 32 | LV_STYLE_PROP_FILTER,
 149:Middlewares/lvgl/src/misc/lv_style.h ****     LV_STYLE_BG_OPA                  = 33,
ARM GAS  /tmp/ccWgnKW2.s 			page 16


 150:Middlewares/lvgl/src/misc/lv_style.h ****     LV_STYLE_BG_GRAD_COLOR           = 34,
 151:Middlewares/lvgl/src/misc/lv_style.h ****     LV_STYLE_BG_GRAD_COLOR_FILTERED  = 34 | LV_STYLE_PROP_FILTER,
 152:Middlewares/lvgl/src/misc/lv_style.h ****     LV_STYLE_BG_GRAD_DIR             = 35,
 153:Middlewares/lvgl/src/misc/lv_style.h ****     LV_STYLE_BG_MAIN_STOP            = 36,
 154:Middlewares/lvgl/src/misc/lv_style.h ****     LV_STYLE_BG_GRAD_STOP            = 37,
 155:Middlewares/lvgl/src/misc/lv_style.h **** 
 156:Middlewares/lvgl/src/misc/lv_style.h ****     LV_STYLE_BG_IMG_SRC              = 38,
 157:Middlewares/lvgl/src/misc/lv_style.h ****     LV_STYLE_BG_IMG_OPA              = 39,
 158:Middlewares/lvgl/src/misc/lv_style.h ****     LV_STYLE_BG_IMG_RECOLOR          = 40,
 159:Middlewares/lvgl/src/misc/lv_style.h ****     LV_STYLE_BG_IMG_RECOLOR_FILTERED = 40 | LV_STYLE_PROP_FILTER,
 160:Middlewares/lvgl/src/misc/lv_style.h ****     LV_STYLE_BG_IMG_RECOLOR_OPA      = 41,
 161:Middlewares/lvgl/src/misc/lv_style.h ****     LV_STYLE_BG_IMG_TILED            = 42,
 162:Middlewares/lvgl/src/misc/lv_style.h **** 
 163:Middlewares/lvgl/src/misc/lv_style.h ****     /*Group 3*/
 164:Middlewares/lvgl/src/misc/lv_style.h ****     LV_STYLE_BORDER_COLOR            = 48,
 165:Middlewares/lvgl/src/misc/lv_style.h ****     LV_STYLE_BORDER_COLOR_FILTERED   = 48 | LV_STYLE_PROP_FILTER,
 166:Middlewares/lvgl/src/misc/lv_style.h ****     LV_STYLE_BORDER_OPA              = 49,
 167:Middlewares/lvgl/src/misc/lv_style.h ****     LV_STYLE_BORDER_WIDTH            = 50 | LV_STYLE_PROP_LAYOUT_REFR,
 168:Middlewares/lvgl/src/misc/lv_style.h ****     LV_STYLE_BORDER_SIDE             = 51,
 169:Middlewares/lvgl/src/misc/lv_style.h ****     LV_STYLE_BORDER_POST             = 52,
 170:Middlewares/lvgl/src/misc/lv_style.h **** 
 171:Middlewares/lvgl/src/misc/lv_style.h ****     LV_STYLE_OUTLINE_WIDTH           = 58 | LV_STYLE_PROP_EXT_DRAW,
 172:Middlewares/lvgl/src/misc/lv_style.h ****     LV_STYLE_OUTLINE_COLOR           = 59,
 173:Middlewares/lvgl/src/misc/lv_style.h ****     LV_STYLE_OUTLINE_COLOR_FILTERED  = 59 | LV_STYLE_PROP_FILTER,
 174:Middlewares/lvgl/src/misc/lv_style.h ****     LV_STYLE_OUTLINE_OPA             = 60 | LV_STYLE_PROP_EXT_DRAW,
 175:Middlewares/lvgl/src/misc/lv_style.h ****     LV_STYLE_OUTLINE_PAD             = 61 | LV_STYLE_PROP_EXT_DRAW,
 176:Middlewares/lvgl/src/misc/lv_style.h **** 
 177:Middlewares/lvgl/src/misc/lv_style.h ****     /*Group 4*/
 178:Middlewares/lvgl/src/misc/lv_style.h ****     LV_STYLE_SHADOW_WIDTH            = 64 | LV_STYLE_PROP_EXT_DRAW,
 179:Middlewares/lvgl/src/misc/lv_style.h ****     LV_STYLE_SHADOW_OFS_X            = 65 | LV_STYLE_PROP_EXT_DRAW,
 180:Middlewares/lvgl/src/misc/lv_style.h ****     LV_STYLE_SHADOW_OFS_Y            = 66 | LV_STYLE_PROP_EXT_DRAW,
 181:Middlewares/lvgl/src/misc/lv_style.h ****     LV_STYLE_SHADOW_SPREAD           = 67 | LV_STYLE_PROP_EXT_DRAW,
 182:Middlewares/lvgl/src/misc/lv_style.h ****     LV_STYLE_SHADOW_COLOR            = 68,
 183:Middlewares/lvgl/src/misc/lv_style.h ****     LV_STYLE_SHADOW_COLOR_FILTERED   = 68 | LV_STYLE_PROP_FILTER,
 184:Middlewares/lvgl/src/misc/lv_style.h ****     LV_STYLE_SHADOW_OPA              = 69 | LV_STYLE_PROP_EXT_DRAW,
 185:Middlewares/lvgl/src/misc/lv_style.h **** 
 186:Middlewares/lvgl/src/misc/lv_style.h ****     LV_STYLE_IMG_OPA                 = 70,
 187:Middlewares/lvgl/src/misc/lv_style.h ****     LV_STYLE_IMG_RECOLOR             = 71,
 188:Middlewares/lvgl/src/misc/lv_style.h ****     LV_STYLE_IMG_RECOLOR_FILTERED    = 71 | LV_STYLE_PROP_FILTER,
 189:Middlewares/lvgl/src/misc/lv_style.h ****     LV_STYLE_IMG_RECOLOR_OPA         = 72,
 190:Middlewares/lvgl/src/misc/lv_style.h **** 
 191:Middlewares/lvgl/src/misc/lv_style.h ****     LV_STYLE_LINE_WIDTH              = 73 | LV_STYLE_PROP_EXT_DRAW,
 192:Middlewares/lvgl/src/misc/lv_style.h ****     LV_STYLE_LINE_DASH_WIDTH         = 74,
 193:Middlewares/lvgl/src/misc/lv_style.h ****     LV_STYLE_LINE_DASH_GAP           = 75,
 194:Middlewares/lvgl/src/misc/lv_style.h ****     LV_STYLE_LINE_ROUNDED            = 76,
 195:Middlewares/lvgl/src/misc/lv_style.h ****     LV_STYLE_LINE_COLOR              = 77,
 196:Middlewares/lvgl/src/misc/lv_style.h ****     LV_STYLE_LINE_COLOR_FILTERED     = 77 | LV_STYLE_PROP_FILTER,
 197:Middlewares/lvgl/src/misc/lv_style.h ****     LV_STYLE_LINE_OPA                = 78,
 198:Middlewares/lvgl/src/misc/lv_style.h **** 
 199:Middlewares/lvgl/src/misc/lv_style.h ****     /*Group 5*/
 200:Middlewares/lvgl/src/misc/lv_style.h ****     LV_STYLE_ARC_WIDTH               = 80 | LV_STYLE_PROP_EXT_DRAW,
 201:Middlewares/lvgl/src/misc/lv_style.h ****     LV_STYLE_ARC_ROUNDED             = 81,
 202:Middlewares/lvgl/src/misc/lv_style.h ****     LV_STYLE_ARC_COLOR               = 82,
 203:Middlewares/lvgl/src/misc/lv_style.h ****     LV_STYLE_ARC_COLOR_FILTERED      = 82 | LV_STYLE_PROP_FILTER,
 204:Middlewares/lvgl/src/misc/lv_style.h ****     LV_STYLE_ARC_OPA                 = 83,
 205:Middlewares/lvgl/src/misc/lv_style.h ****     LV_STYLE_ARC_IMG_SRC             = 84,
 206:Middlewares/lvgl/src/misc/lv_style.h **** 
ARM GAS  /tmp/ccWgnKW2.s 			page 17


 207:Middlewares/lvgl/src/misc/lv_style.h ****     LV_STYLE_TEXT_COLOR              = 87 | LV_STYLE_PROP_INHERIT,
 208:Middlewares/lvgl/src/misc/lv_style.h ****     LV_STYLE_TEXT_COLOR_FILTERED     = 87 | LV_STYLE_PROP_INHERIT | LV_STYLE_PROP_FILTER,
 209:Middlewares/lvgl/src/misc/lv_style.h ****     LV_STYLE_TEXT_OPA                = 88 | LV_STYLE_PROP_INHERIT,
 210:Middlewares/lvgl/src/misc/lv_style.h ****     LV_STYLE_TEXT_FONT               = 89 | LV_STYLE_PROP_INHERIT | LV_STYLE_PROP_LAYOUT_REFR,
 211:Middlewares/lvgl/src/misc/lv_style.h ****     LV_STYLE_TEXT_LETTER_SPACE       = 90 | LV_STYLE_PROP_INHERIT | LV_STYLE_PROP_LAYOUT_REFR,
 212:Middlewares/lvgl/src/misc/lv_style.h ****     LV_STYLE_TEXT_LINE_SPACE         = 91 | LV_STYLE_PROP_INHERIT | LV_STYLE_PROP_LAYOUT_REFR,
 213:Middlewares/lvgl/src/misc/lv_style.h ****     LV_STYLE_TEXT_DECOR              = 92 | LV_STYLE_PROP_INHERIT,
 214:Middlewares/lvgl/src/misc/lv_style.h ****     LV_STYLE_TEXT_ALIGN              = 93 | LV_STYLE_PROP_INHERIT | LV_STYLE_PROP_LAYOUT_REFR,
 215:Middlewares/lvgl/src/misc/lv_style.h **** 
 216:Middlewares/lvgl/src/misc/lv_style.h ****     /*Group 6*/
 217:Middlewares/lvgl/src/misc/lv_style.h ****     LV_STYLE_RADIUS                  = 96,
 218:Middlewares/lvgl/src/misc/lv_style.h ****     LV_STYLE_CLIP_CORNER             = 97,
 219:Middlewares/lvgl/src/misc/lv_style.h ****     LV_STYLE_OPA                     = 98 | LV_STYLE_PROP_INHERIT,
 220:Middlewares/lvgl/src/misc/lv_style.h ****     LV_STYLE_COLOR_FILTER_DSC        = 99,
 221:Middlewares/lvgl/src/misc/lv_style.h ****     LV_STYLE_COLOR_FILTER_OPA        = 100,
 222:Middlewares/lvgl/src/misc/lv_style.h ****     LV_STYLE_ANIM_TIME               = 101,
 223:Middlewares/lvgl/src/misc/lv_style.h ****     LV_STYLE_ANIM_SPEED              = 102,
 224:Middlewares/lvgl/src/misc/lv_style.h ****     LV_STYLE_TRANSITION              = 103,
 225:Middlewares/lvgl/src/misc/lv_style.h ****     LV_STYLE_BLEND_MODE              = 104,
 226:Middlewares/lvgl/src/misc/lv_style.h ****     LV_STYLE_LAYOUT                  = 105 | LV_STYLE_PROP_LAYOUT_REFR,
 227:Middlewares/lvgl/src/misc/lv_style.h ****     LV_STYLE_BASE_DIR                = 106 | LV_STYLE_PROP_INHERIT | LV_STYLE_PROP_LAYOUT_REFR,
 228:Middlewares/lvgl/src/misc/lv_style.h **** 
 229:Middlewares/lvgl/src/misc/lv_style.h ****     _LV_STYLE_LAST_BUILT_IN_PROP     = 111,
 230:Middlewares/lvgl/src/misc/lv_style.h **** 
 231:Middlewares/lvgl/src/misc/lv_style.h ****     LV_STYLE_PROP_ANY                = 0xFFFF
 232:Middlewares/lvgl/src/misc/lv_style.h **** }lv_style_prop_t;
 233:Middlewares/lvgl/src/misc/lv_style.h **** 
 234:Middlewares/lvgl/src/misc/lv_style.h **** /**
 235:Middlewares/lvgl/src/misc/lv_style.h ****  * Descriptor for style transitions
 236:Middlewares/lvgl/src/misc/lv_style.h ****  */
 237:Middlewares/lvgl/src/misc/lv_style.h **** typedef struct {
 238:Middlewares/lvgl/src/misc/lv_style.h ****     const lv_style_prop_t * props; /**< An array with the properties to animate.*/
 239:Middlewares/lvgl/src/misc/lv_style.h **** #if LV_USE_USER_DATA
 240:Middlewares/lvgl/src/misc/lv_style.h ****     void * user_data;              /**< A custom user data that will be passed to the animation's u
 241:Middlewares/lvgl/src/misc/lv_style.h **** #endif
 242:Middlewares/lvgl/src/misc/lv_style.h ****     lv_anim_path_cb_t path_xcb;     /**< A path for the animation.*/
 243:Middlewares/lvgl/src/misc/lv_style.h ****     uint32_t time;                 /**< Duration of the transition in [ms]*/
 244:Middlewares/lvgl/src/misc/lv_style.h ****     uint32_t delay;                /**< Delay before the transition in [ms]*/
 245:Middlewares/lvgl/src/misc/lv_style.h **** }lv_style_transition_dsc_t;
 246:Middlewares/lvgl/src/misc/lv_style.h **** 
 247:Middlewares/lvgl/src/misc/lv_style.h **** /**
 248:Middlewares/lvgl/src/misc/lv_style.h ****  * Descriptor of a constant style property.
 249:Middlewares/lvgl/src/misc/lv_style.h ****  */
 250:Middlewares/lvgl/src/misc/lv_style.h **** typedef struct {
 251:Middlewares/lvgl/src/misc/lv_style.h ****     lv_style_prop_t prop;
 252:Middlewares/lvgl/src/misc/lv_style.h ****     lv_style_value_t value;
 253:Middlewares/lvgl/src/misc/lv_style.h **** } lv_style_const_prop_t;
 254:Middlewares/lvgl/src/misc/lv_style.h **** 
 255:Middlewares/lvgl/src/misc/lv_style.h **** /**
 256:Middlewares/lvgl/src/misc/lv_style.h ****  * Descriptor of a style (a collection of properties and values).
 257:Middlewares/lvgl/src/misc/lv_style.h ****  */
 258:Middlewares/lvgl/src/misc/lv_style.h **** typedef struct {
 259:Middlewares/lvgl/src/misc/lv_style.h **** 
 260:Middlewares/lvgl/src/misc/lv_style.h **** #if LV_USE_ASSERT_STYLE
 261:Middlewares/lvgl/src/misc/lv_style.h ****     uint32_t sentinel;
 262:Middlewares/lvgl/src/misc/lv_style.h **** #endif
 263:Middlewares/lvgl/src/misc/lv_style.h **** 
ARM GAS  /tmp/ccWgnKW2.s 			page 18


 264:Middlewares/lvgl/src/misc/lv_style.h ****     /*If there is only one property store it directly.
 265:Middlewares/lvgl/src/misc/lv_style.h ****      *For more properties allocate an array*/
 266:Middlewares/lvgl/src/misc/lv_style.h ****     union {
 267:Middlewares/lvgl/src/misc/lv_style.h ****         lv_style_value_t value1;
 268:Middlewares/lvgl/src/misc/lv_style.h ****         uint8_t * values_and_props;
 269:Middlewares/lvgl/src/misc/lv_style.h ****         const lv_style_const_prop_t * const_props;
 270:Middlewares/lvgl/src/misc/lv_style.h ****     } v_p;
 271:Middlewares/lvgl/src/misc/lv_style.h **** 
 272:Middlewares/lvgl/src/misc/lv_style.h ****     uint16_t prop1 :15;
 273:Middlewares/lvgl/src/misc/lv_style.h ****     uint16_t is_const :1;
 274:Middlewares/lvgl/src/misc/lv_style.h ****     uint8_t has_group;
 275:Middlewares/lvgl/src/misc/lv_style.h ****     uint8_t prop_cnt;
 276:Middlewares/lvgl/src/misc/lv_style.h **** } lv_style_t;
 277:Middlewares/lvgl/src/misc/lv_style.h **** 
 278:Middlewares/lvgl/src/misc/lv_style.h **** /**********************
 279:Middlewares/lvgl/src/misc/lv_style.h ****  * GLOBAL PROTOTYPES
 280:Middlewares/lvgl/src/misc/lv_style.h ****  **********************/
 281:Middlewares/lvgl/src/misc/lv_style.h **** 
 282:Middlewares/lvgl/src/misc/lv_style.h **** 
 283:Middlewares/lvgl/src/misc/lv_style.h **** /**
 284:Middlewares/lvgl/src/misc/lv_style.h ****  * Initialize a style
 285:Middlewares/lvgl/src/misc/lv_style.h ****  * @param style pointer to a style to initialize
 286:Middlewares/lvgl/src/misc/lv_style.h ****  * @note Do not call `lv_style_init` on styles that are already have some properties
 287:Middlewares/lvgl/src/misc/lv_style.h ****  *       because this function won't free the used memory just set a default state for the style.
 288:Middlewares/lvgl/src/misc/lv_style.h ****  *       In other words be sure to initialize styles only once!
 289:Middlewares/lvgl/src/misc/lv_style.h ****  */
 290:Middlewares/lvgl/src/misc/lv_style.h **** void lv_style_init(lv_style_t * style);
 291:Middlewares/lvgl/src/misc/lv_style.h **** 
 292:Middlewares/lvgl/src/misc/lv_style.h **** /**
 293:Middlewares/lvgl/src/misc/lv_style.h ****  * Clear all properties from a style and free all allocated memories.
 294:Middlewares/lvgl/src/misc/lv_style.h ****  * @param style pointer to a style
 295:Middlewares/lvgl/src/misc/lv_style.h ****  */
 296:Middlewares/lvgl/src/misc/lv_style.h **** void lv_style_reset(lv_style_t * style);
 297:Middlewares/lvgl/src/misc/lv_style.h **** 
 298:Middlewares/lvgl/src/misc/lv_style.h **** /**
 299:Middlewares/lvgl/src/misc/lv_style.h ****  * Register a new style property for custom usage
 300:Middlewares/lvgl/src/misc/lv_style.h ****  * @return a new property ID.
 301:Middlewares/lvgl/src/misc/lv_style.h ****  * @example
 302:Middlewares/lvgl/src/misc/lv_style.h ****  * lv_style_prop_t MY_PROP;
 303:Middlewares/lvgl/src/misc/lv_style.h ****  * static inline void lv_style_set_my_prop(lv_style_t * style, lv_color_t value) {
 304:Middlewares/lvgl/src/misc/lv_style.h ****  * lv_style_value_t v = {.color = value}; lv_style_set_prop(style, MY_PROP, v); }
 305:Middlewares/lvgl/src/misc/lv_style.h ****  *
 306:Middlewares/lvgl/src/misc/lv_style.h ****  * ...
 307:Middlewares/lvgl/src/misc/lv_style.h ****  * MY_PROP = lv_style_register_prop();
 308:Middlewares/lvgl/src/misc/lv_style.h ****  * ...
 309:Middlewares/lvgl/src/misc/lv_style.h ****  * lv_style_set_my_prop(&style1, lv_palette_main(LV_PALETTE_RED));
 310:Middlewares/lvgl/src/misc/lv_style.h ****  */
 311:Middlewares/lvgl/src/misc/lv_style.h **** lv_style_prop_t lv_style_register_prop(void);
 312:Middlewares/lvgl/src/misc/lv_style.h **** 
 313:Middlewares/lvgl/src/misc/lv_style.h **** /**
 314:Middlewares/lvgl/src/misc/lv_style.h ****  * Remove a property from a style
 315:Middlewares/lvgl/src/misc/lv_style.h ****  * @param style pointer to a style
 316:Middlewares/lvgl/src/misc/lv_style.h ****  * @param prop  a style property ORed with a state.
 317:Middlewares/lvgl/src/misc/lv_style.h ****  * @return true: the property was found and removed; false: the property wasn't found
 318:Middlewares/lvgl/src/misc/lv_style.h ****  */
 319:Middlewares/lvgl/src/misc/lv_style.h **** bool lv_style_remove_prop(lv_style_t * style, lv_style_prop_t prop);
 320:Middlewares/lvgl/src/misc/lv_style.h **** 
ARM GAS  /tmp/ccWgnKW2.s 			page 19


 321:Middlewares/lvgl/src/misc/lv_style.h **** /**
 322:Middlewares/lvgl/src/misc/lv_style.h ****  * Set the value of property in a style.
 323:Middlewares/lvgl/src/misc/lv_style.h ****  * This function shouldn't be used directly by the user.
 324:Middlewares/lvgl/src/misc/lv_style.h ****  * Instead use `lv_style_set_<prop_name>()`. E.g. `lv_style_set_bg_color()`
 325:Middlewares/lvgl/src/misc/lv_style.h ****  * @param style pointer to style
 326:Middlewares/lvgl/src/misc/lv_style.h ****  * @param prop the ID of a property (e.g. `LV_STLYE_BG_COLOR`)
 327:Middlewares/lvgl/src/misc/lv_style.h ****  * @param value `lv_style_value_t` variable in which a filed is set according to the type of `prop`
 328:Middlewares/lvgl/src/misc/lv_style.h ****  */
 329:Middlewares/lvgl/src/misc/lv_style.h **** void lv_style_set_prop(lv_style_t * style, lv_style_prop_t prop, lv_style_value_t value);
 330:Middlewares/lvgl/src/misc/lv_style.h **** 
 331:Middlewares/lvgl/src/misc/lv_style.h **** /**
 332:Middlewares/lvgl/src/misc/lv_style.h ****  * Get the value of a property
 333:Middlewares/lvgl/src/misc/lv_style.h ****  * @param style pointer to a style
 334:Middlewares/lvgl/src/misc/lv_style.h ****  * @param prop  the ID of a property
 335:Middlewares/lvgl/src/misc/lv_style.h ****  * @param value pointer to a `lv_style_value_t` variable to store the value
 336:Middlewares/lvgl/src/misc/lv_style.h ****  * @return LV_RES_INV: the property wsn't found in the style (`value` is unchanged)
 337:Middlewares/lvgl/src/misc/lv_style.h ****  *         LV_RES_OK: the property was fond, and `value` is set accordingly
 338:Middlewares/lvgl/src/misc/lv_style.h ****  * @note For performance reasons there are no sanity check on `style`
 339:Middlewares/lvgl/src/misc/lv_style.h ****  */
 340:Middlewares/lvgl/src/misc/lv_style.h **** lv_res_t lv_style_get_prop(lv_style_t * style, lv_style_prop_t prop, lv_style_value_t * value);
 341:Middlewares/lvgl/src/misc/lv_style.h **** 
 342:Middlewares/lvgl/src/misc/lv_style.h **** 
 343:Middlewares/lvgl/src/misc/lv_style.h **** /**
 344:Middlewares/lvgl/src/misc/lv_style.h ****  * Get the value of a property
 345:Middlewares/lvgl/src/misc/lv_style.h ****  * @param style pointer to a style
 346:Middlewares/lvgl/src/misc/lv_style.h ****  * @param prop  the ID of a property
 347:Middlewares/lvgl/src/misc/lv_style.h ****  * @param value pointer to a `lv_style_value_t` variable to store the value
 348:Middlewares/lvgl/src/misc/lv_style.h ****  * @return LV_RES_INV: the property wsn't found in the style (`value` is unchanged)
 349:Middlewares/lvgl/src/misc/lv_style.h ****  *         LV_RES_OK: the property was fond, and `value` is set accordingly
 350:Middlewares/lvgl/src/misc/lv_style.h ****  * @note For performance reasons there are no sanity check on `style`
 351:Middlewares/lvgl/src/misc/lv_style.h ****  * @note This function is the same as ::lv_style_get_prop but inlined. Use it only on performance c
 352:Middlewares/lvgl/src/misc/lv_style.h ****  */
 353:Middlewares/lvgl/src/misc/lv_style.h **** static inline lv_res_t lv_style_get_prop_inlined(lv_style_t * style, lv_style_prop_t prop, lv_style
 450              		.loc 2 353 24 view .LVU132
 451              	.LBB19:
 354:Middlewares/lvgl/src/misc/lv_style.h **** {
 355:Middlewares/lvgl/src/misc/lv_style.h ****     if(style->is_const) {
 452              		.loc 2 355 5 view .LVU133
 453              		.loc 2 355 7 is_stmt 0 view .LVU134
 454 0002 90F90500 		ldrsb	r0, [r0, #5]
 455              	.LVL43:
 456              		.loc 2 355 7 view .LVU135
 457 0006 0028     		cmp	r0, #0
 458 0008 12DB     		blt	.L53
 356:Middlewares/lvgl/src/misc/lv_style.h ****         const lv_style_const_prop_t *const_prop;
 357:Middlewares/lvgl/src/misc/lv_style.h ****         for(const_prop = style->v_p.const_props; const_prop->prop != LV_STYLE_PROP_INV; const_prop+
 358:Middlewares/lvgl/src/misc/lv_style.h ****             if(const_prop->prop == prop) {
 359:Middlewares/lvgl/src/misc/lv_style.h ****                 *value = const_prop->value;
 360:Middlewares/lvgl/src/misc/lv_style.h ****                 return LV_RES_OK;
 361:Middlewares/lvgl/src/misc/lv_style.h ****             }
 362:Middlewares/lvgl/src/misc/lv_style.h ****         }
 363:Middlewares/lvgl/src/misc/lv_style.h ****         return LV_RES_INV;
 364:Middlewares/lvgl/src/misc/lv_style.h ****     }
 365:Middlewares/lvgl/src/misc/lv_style.h **** 
 366:Middlewares/lvgl/src/misc/lv_style.h ****     if(style->prop_cnt == 0) return LV_RES_INV;
 459              		.loc 2 366 5 is_stmt 1 view .LVU136
 460              		.loc 2 366 13 is_stmt 0 view .LVU137
ARM GAS  /tmp/ccWgnKW2.s 			page 20


 461 000a D879     		ldrb	r0, [r3, #7]	@ zero_extendqisi2
 462              		.loc 2 366 7 view .LVU138
 463 000c 70B3     		cbz	r0, .L50
 367:Middlewares/lvgl/src/misc/lv_style.h **** 
 368:Middlewares/lvgl/src/misc/lv_style.h ****     if(style->prop_cnt > 1) {
 464              		.loc 2 368 5 is_stmt 1 view .LVU139
 465              		.loc 2 368 7 is_stmt 0 view .LVU140
 466 000e 0128     		cmp	r0, #1
 467 0010 21D9     		bls	.L44
 468              	.LBE19:
 469              	.LBE18:
 209:Middlewares/lvgl/src/misc/lv_style.c ****    return lv_style_get_prop_inlined(style, prop, value);
 470              		.loc 1 209 1 view .LVU141
 471 0012 10B5     		push	{r4, lr}
 472              	.LCFI4:
 473              		.cfi_def_cfa_offset 8
 474              		.cfi_offset 4, -8
 475              		.cfi_offset 14, -4
 476              	.LBB26:
 477              	.LBB24:
 478              	.LBB20:
 369:Middlewares/lvgl/src/misc/lv_style.h ****         uint8_t * tmp = style->v_p.values_and_props + style->prop_cnt * sizeof(lv_style_value_t);
 479              		.loc 2 369 9 is_stmt 1 view .LVU142
 480              		.loc 2 369 35 is_stmt 0 view .LVU143
 481 0014 1C68     		ldr	r4, [r3]
 482              		.loc 2 369 60 view .LVU144
 483 0016 8646     		mov	lr, r0
 484              		.loc 2 369 71 view .LVU145
 485 0018 8000     		lsls	r0, r0, #2
 486              	.LVL44:
 370:Middlewares/lvgl/src/misc/lv_style.h ****         uint16_t * props = (uint16_t *)tmp;
 487              		.loc 2 370 9 is_stmt 1 view .LVU146
 371:Middlewares/lvgl/src/misc/lv_style.h ****         uint32_t i;
 488              		.loc 2 371 9 view .LVU147
 372:Middlewares/lvgl/src/misc/lv_style.h ****         for(i = 0; i < style->prop_cnt; i++) {
 489              		.loc 2 372 9 view .LVU148
 490              		.loc 2 372 15 is_stmt 0 view .LVU149
 491 001a 0023     		movs	r3, #0
 492              	.LVL45:
 493              	.L45:
 494              		.loc 2 372 20 is_stmt 1 view .LVU150
 495              		.loc 2 372 9 is_stmt 0 view .LVU151
 496 001c 9E45     		cmp	lr, r3
 497 001e 18D9     		bls	.L54
 373:Middlewares/lvgl/src/misc/lv_style.h ****             if(props[i] == prop) {
 498              		.loc 2 373 13 is_stmt 1 view .LVU152
 499              		.loc 2 373 21 is_stmt 0 view .LVU153
 500 0020 04EB000C 		add	ip, r4, r0
 501 0024 3CF813C0 		ldrh	ip, [ip, r3, lsl #1]
 502              		.loc 2 373 15 view .LVU154
 503 0028 6145     		cmp	r1, ip
 504 002a 0DD0     		beq	.L55
 372:Middlewares/lvgl/src/misc/lv_style.h ****         for(i = 0; i < style->prop_cnt; i++) {
 505              		.loc 2 372 41 is_stmt 1 view .LVU155
 372:Middlewares/lvgl/src/misc/lv_style.h ****         for(i = 0; i < style->prop_cnt; i++) {
 506              		.loc 2 372 42 is_stmt 0 view .LVU156
 507 002c 0133     		adds	r3, r3, #1
ARM GAS  /tmp/ccWgnKW2.s 			page 21


 508              	.LVL46:
 372:Middlewares/lvgl/src/misc/lv_style.h ****         for(i = 0; i < style->prop_cnt; i++) {
 509              		.loc 2 372 42 view .LVU157
 510 002e F5E7     		b	.L45
 511              	.LVL47:
 512              	.L53:
 513              	.LCFI5:
 514              		.cfi_def_cfa_offset 0
 515              		.cfi_restore 4
 516              		.cfi_restore 14
 372:Middlewares/lvgl/src/misc/lv_style.h ****         for(i = 0; i < style->prop_cnt; i++) {
 517              		.loc 2 372 42 view .LVU158
 518              	.LBE20:
 519              	.LBB22:
 356:Middlewares/lvgl/src/misc/lv_style.h ****         for(const_prop = style->v_p.const_props; const_prop->prop != LV_STYLE_PROP_INV; const_prop+
 520              		.loc 2 356 9 is_stmt 1 view .LVU159
 357:Middlewares/lvgl/src/misc/lv_style.h ****             if(const_prop->prop == prop) {
 521              		.loc 2 357 9 view .LVU160
 357:Middlewares/lvgl/src/misc/lv_style.h ****             if(const_prop->prop == prop) {
 522              		.loc 2 357 24 is_stmt 0 view .LVU161
 523 0030 1B68     		ldr	r3, [r3]
 524              	.LVL48:
 357:Middlewares/lvgl/src/misc/lv_style.h ****             if(const_prop->prop == prop) {
 525              		.loc 2 357 9 view .LVU162
 526 0032 00E0     		b	.L40
 527              	.L41:
 357:Middlewares/lvgl/src/misc/lv_style.h ****             if(const_prop->prop == prop) {
 528              		.loc 2 357 89 is_stmt 1 view .LVU163
 357:Middlewares/lvgl/src/misc/lv_style.h ****             if(const_prop->prop == prop) {
 529              		.loc 2 357 99 is_stmt 0 view .LVU164
 530 0034 0833     		adds	r3, r3, #8
 531              	.LVL49:
 532              	.L40:
 357:Middlewares/lvgl/src/misc/lv_style.h ****             if(const_prop->prop == prop) {
 533              		.loc 2 357 50 is_stmt 1 view .LVU165
 357:Middlewares/lvgl/src/misc/lv_style.h ****             if(const_prop->prop == prop) {
 534              		.loc 2 357 60 is_stmt 0 view .LVU166
 535 0036 1888     		ldrh	r0, [r3]
 357:Middlewares/lvgl/src/misc/lv_style.h ****             if(const_prop->prop == prop) {
 536              		.loc 2 357 9 view .LVU167
 537 0038 28B1     		cbz	r0, .L56
 358:Middlewares/lvgl/src/misc/lv_style.h ****                 *value = const_prop->value;
 538              		.loc 2 358 13 is_stmt 1 view .LVU168
 358:Middlewares/lvgl/src/misc/lv_style.h ****                 *value = const_prop->value;
 539              		.loc 2 358 15 is_stmt 0 view .LVU169
 540 003a 8142     		cmp	r1, r0
 541 003c FAD1     		bne	.L41
 359:Middlewares/lvgl/src/misc/lv_style.h ****                 return LV_RES_OK;
 542              		.loc 2 359 17 is_stmt 1 view .LVU170
 359:Middlewares/lvgl/src/misc/lv_style.h ****                 return LV_RES_OK;
 543              		.loc 2 359 24 is_stmt 0 view .LVU171
 544 003e 5B68     		ldr	r3, [r3, #4]
 545              	.LVL50:
 359:Middlewares/lvgl/src/misc/lv_style.h ****                 return LV_RES_OK;
 546              		.loc 2 359 24 view .LVU172
 547 0040 1360     		str	r3, [r2]
 360:Middlewares/lvgl/src/misc/lv_style.h ****             }
ARM GAS  /tmp/ccWgnKW2.s 			page 22


 548              		.loc 2 360 17 is_stmt 1 view .LVU173
 360:Middlewares/lvgl/src/misc/lv_style.h ****             }
 549              		.loc 2 360 24 is_stmt 0 view .LVU174
 550 0042 0120     		movs	r0, #1
 551 0044 7047     		bx	lr
 552              	.LVL51:
 553              	.L56:
 360:Middlewares/lvgl/src/misc/lv_style.h ****             }
 554              		.loc 2 360 24 view .LVU175
 555 0046 7047     		bx	lr
 556              	.LVL52:
 557              	.L55:
 558              	.LCFI6:
 559              		.cfi_def_cfa_offset 8
 560              		.cfi_offset 4, -8
 561              		.cfi_offset 14, -4
 360:Middlewares/lvgl/src/misc/lv_style.h ****             }
 562              		.loc 2 360 24 view .LVU176
 563              	.LBE22:
 564              	.LBB23:
 565              	.LBB21:
 374:Middlewares/lvgl/src/misc/lv_style.h ****                 lv_style_value_t * values = (lv_style_value_t *)style->v_p.values_and_props;
 566              		.loc 2 374 17 is_stmt 1 view .LVU177
 375:Middlewares/lvgl/src/misc/lv_style.h ****                 *value = values[i];
 567              		.loc 2 375 17 view .LVU178
 568              		.loc 2 375 24 is_stmt 0 view .LVU179
 569 0048 54F82330 		ldr	r3, [r4, r3, lsl #2]
 570              	.LVL53:
 571              		.loc 2 375 24 view .LVU180
 572 004c 1360     		str	r3, [r2]
 376:Middlewares/lvgl/src/misc/lv_style.h ****                 return LV_RES_OK;
 573              		.loc 2 376 17 is_stmt 1 view .LVU181
 574              		.loc 2 376 24 is_stmt 0 view .LVU182
 575 004e 0120     		movs	r0, #1
 576              	.LVL54:
 577              		.loc 2 376 24 view .LVU183
 578 0050 00E0     		b	.L42
 579              	.LVL55:
 580              	.L54:
 581              		.loc 2 376 24 view .LVU184
 582              	.LBE21:
 583              	.LBE23:
 377:Middlewares/lvgl/src/misc/lv_style.h ****             }
 378:Middlewares/lvgl/src/misc/lv_style.h ****         }
 379:Middlewares/lvgl/src/misc/lv_style.h ****     } else if(style->prop1 == prop) {
 380:Middlewares/lvgl/src/misc/lv_style.h ****         *value = style->v_p.value1;
 381:Middlewares/lvgl/src/misc/lv_style.h ****         return LV_RES_OK;
 382:Middlewares/lvgl/src/misc/lv_style.h ****     }
 383:Middlewares/lvgl/src/misc/lv_style.h ****     return LV_RES_INV;
 584              		.loc 2 383 12 view .LVU185
 585 0052 0020     		movs	r0, #0
 586              	.LVL56:
 587              	.L42:
 588              		.loc 2 383 12 view .LVU186
 589              	.LBE24:
 590              	.LBE26:
 211:Middlewares/lvgl/src/misc/lv_style.c **** }
ARM GAS  /tmp/ccWgnKW2.s 			page 23


 591              		.loc 1 211 1 view .LVU187
 592 0054 10BD     		pop	{r4, pc}
 593              	.LVL57:
 594              	.L44:
 595              	.LCFI7:
 596              		.cfi_def_cfa_offset 0
 597              		.cfi_restore 4
 598              		.cfi_restore 14
 599              	.LBB27:
 600              	.LBB25:
 379:Middlewares/lvgl/src/misc/lv_style.h ****         *value = style->v_p.value1;
 601              		.loc 2 379 12 is_stmt 1 view .LVU188
 379:Middlewares/lvgl/src/misc/lv_style.h ****         *value = style->v_p.value1;
 602              		.loc 2 379 20 is_stmt 0 view .LVU189
 603 0056 9888     		ldrh	r0, [r3, #4]
 604 0058 C0F30E00 		ubfx	r0, r0, #0, #15
 379:Middlewares/lvgl/src/misc/lv_style.h ****         *value = style->v_p.value1;
 605              		.loc 2 379 14 view .LVU190
 606 005c 8842     		cmp	r0, r1
 607 005e 01D0     		beq	.L57
 608              		.loc 2 383 12 view .LVU191
 609 0060 0020     		movs	r0, #0
 610 0062 7047     		bx	lr
 611              	.L57:
 380:Middlewares/lvgl/src/misc/lv_style.h ****         return LV_RES_OK;
 612              		.loc 2 380 9 is_stmt 1 view .LVU192
 380:Middlewares/lvgl/src/misc/lv_style.h ****         return LV_RES_OK;
 613              		.loc 2 380 16 is_stmt 0 view .LVU193
 614 0064 1B68     		ldr	r3, [r3]
 615              	.LVL58:
 380:Middlewares/lvgl/src/misc/lv_style.h ****         return LV_RES_OK;
 616              		.loc 2 380 16 view .LVU194
 617 0066 1360     		str	r3, [r2]
 381:Middlewares/lvgl/src/misc/lv_style.h ****     }
 618              		.loc 2 381 9 is_stmt 1 view .LVU195
 381:Middlewares/lvgl/src/misc/lv_style.h ****     }
 619              		.loc 2 381 16 is_stmt 0 view .LVU196
 620 0068 0120     		movs	r0, #1
 621 006a 7047     		bx	lr
 622              	.LVL59:
 623              	.L50:
 381:Middlewares/lvgl/src/misc/lv_style.h ****     }
 624              		.loc 2 381 16 view .LVU197
 625              	.LBE25:
 626              	.LBE27:
 627              		.loc 1 211 1 view .LVU198
 628 006c 7047     		bx	lr
 629              		.cfi_endproc
 630              	.LFE53:
 632              		.section	.text.lv_style_transition_dsc_init,"ax",%progbits
 633              		.align	1
 634              		.global	lv_style_transition_dsc_init
 635              		.syntax unified
 636              		.thumb
 637              		.thumb_func
 638              		.fpu fpv4-sp-d16
 640              	lv_style_transition_dsc_init:
ARM GAS  /tmp/ccWgnKW2.s 			page 24


 641              	.LVL60:
 642              	.LFB54:
 212:Middlewares/lvgl/src/misc/lv_style.c **** 
 213:Middlewares/lvgl/src/misc/lv_style.c **** void lv_style_transition_dsc_init(lv_style_transition_dsc_t * tr, const lv_style_prop_t props[], lv
 214:Middlewares/lvgl/src/misc/lv_style.c **** {
 643              		.loc 1 214 1 is_stmt 1 view -0
 644              		.cfi_startproc
 645              		@ args = 8, pretend = 0, frame = 0
 646              		@ frame_needed = 0, uses_anonymous_args = 0
 647              		.loc 1 214 1 is_stmt 0 view .LVU200
 648 0000 F8B5     		push	{r3, r4, r5, r6, r7, lr}
 649              	.LCFI8:
 650              		.cfi_def_cfa_offset 24
 651              		.cfi_offset 3, -24
 652              		.cfi_offset 4, -20
 653              		.cfi_offset 5, -16
 654              		.cfi_offset 6, -12
 655              		.cfi_offset 7, -8
 656              		.cfi_offset 14, -4
 657 0002 0446     		mov	r4, r0
 658 0004 0F46     		mov	r7, r1
 659 0006 1546     		mov	r5, r2
 660 0008 1E46     		mov	r6, r3
 215:Middlewares/lvgl/src/misc/lv_style.c ****     lv_memset_00(tr, sizeof(lv_style_transition_dsc_t));
 661              		.loc 1 215 5 is_stmt 1 view .LVU201
 662 000a 1421     		movs	r1, #20
 663              	.LVL61:
 664              		.loc 1 215 5 is_stmt 0 view .LVU202
 665 000c FFF7FEFF 		bl	lv_memset_00
 666              	.LVL62:
 216:Middlewares/lvgl/src/misc/lv_style.c ****     tr->props = props;
 667              		.loc 1 216 5 is_stmt 1 view .LVU203
 668              		.loc 1 216 15 is_stmt 0 view .LVU204
 669 0010 2760     		str	r7, [r4]
 217:Middlewares/lvgl/src/misc/lv_style.c ****     tr->path_xcb = path_cb == NULL ? lv_anim_path_linear : path_cb;
 670              		.loc 1 217 5 is_stmt 1 view .LVU205
 671              		.loc 1 217 58 is_stmt 0 view .LVU206
 672 0012 35B1     		cbz	r5, .L62
 673              	.LVL63:
 674              	.L59:
 675              		.loc 1 217 18 discriminator 4 view .LVU207
 676 0014 A560     		str	r5, [r4, #8]
 218:Middlewares/lvgl/src/misc/lv_style.c ****     tr->time = time;
 677              		.loc 1 218 5 is_stmt 1 discriminator 4 view .LVU208
 678              		.loc 1 218 14 is_stmt 0 discriminator 4 view .LVU209
 679 0016 E660     		str	r6, [r4, #12]
 219:Middlewares/lvgl/src/misc/lv_style.c ****     tr->delay = delay;
 680              		.loc 1 219 5 is_stmt 1 discriminator 4 view .LVU210
 681              		.loc 1 219 15 is_stmt 0 discriminator 4 view .LVU211
 682 0018 069B     		ldr	r3, [sp, #24]
 683 001a 2361     		str	r3, [r4, #16]
 220:Middlewares/lvgl/src/misc/lv_style.c **** #if LV_USE_USER_DATA
 221:Middlewares/lvgl/src/misc/lv_style.c ****     tr->user_data = user_data;
 684              		.loc 1 221 5 is_stmt 1 discriminator 4 view .LVU212
 685              		.loc 1 221 19 is_stmt 0 discriminator 4 view .LVU213
 686 001c 079B     		ldr	r3, [sp, #28]
 687 001e 6360     		str	r3, [r4, #4]
ARM GAS  /tmp/ccWgnKW2.s 			page 25


 222:Middlewares/lvgl/src/misc/lv_style.c **** #else
 223:Middlewares/lvgl/src/misc/lv_style.c ****     LV_UNUSED(user_data);
 224:Middlewares/lvgl/src/misc/lv_style.c **** #endif
 225:Middlewares/lvgl/src/misc/lv_style.c **** }
 688              		.loc 1 225 1 discriminator 4 view .LVU214
 689 0020 F8BD     		pop	{r3, r4, r5, r6, r7, pc}
 690              	.LVL64:
 691              	.L62:
 217:Middlewares/lvgl/src/misc/lv_style.c ****     tr->time = time;
 692              		.loc 1 217 58 view .LVU215
 693 0022 014D     		ldr	r5, .L63
 694              	.LVL65:
 217:Middlewares/lvgl/src/misc/lv_style.c ****     tr->time = time;
 695              		.loc 1 217 58 view .LVU216
 696 0024 F6E7     		b	.L59
 697              	.L64:
 698 0026 00BF     		.align	2
 699              	.L63:
 700 0028 00000000 		.word	lv_anim_path_linear
 701              		.cfi_endproc
 702              	.LFE54:
 704              		.section	.text.lv_style_prop_get_default,"ax",%progbits
 705              		.align	1
 706              		.global	lv_style_prop_get_default
 707              		.syntax unified
 708              		.thumb
 709              		.thumb_func
 710              		.fpu fpv4-sp-d16
 712              	lv_style_prop_get_default:
 713              	.LVL66:
 714              	.LFB55:
 226:Middlewares/lvgl/src/misc/lv_style.c **** 
 227:Middlewares/lvgl/src/misc/lv_style.c **** lv_style_value_t lv_style_prop_get_default(lv_style_prop_t prop)
 228:Middlewares/lvgl/src/misc/lv_style.c **** {
 715              		.loc 1 228 1 is_stmt 1 view -0
 716              		.cfi_startproc
 717              		@ args = 0, pretend = 0, frame = 0
 718              		@ frame_needed = 0, uses_anonymous_args = 0
 719              		@ link register save eliminated.
 229:Middlewares/lvgl/src/misc/lv_style.c ****     lv_style_value_t value;
 720              		.loc 1 229 5 view .LVU218
 230:Middlewares/lvgl/src/misc/lv_style.c ****     switch(prop) {
 721              		.loc 1 230 5 view .LVU219
 722 0000 5328     		cmp	r0, #83
 723 0002 71D8     		bhi	.L66
 724 0004 2028     		cmp	r0, #32
 725 0006 01D2     		bcs	.L79
 726              	.LVL67:
 727              	.L67:
 231:Middlewares/lvgl/src/misc/lv_style.c ****         case LV_STYLE_TRANSFORM_ZOOM:
 232:Middlewares/lvgl/src/misc/lv_style.c ****             value.num = LV_IMG_ZOOM_NONE;
 233:Middlewares/lvgl/src/misc/lv_style.c ****             break;
 234:Middlewares/lvgl/src/misc/lv_style.c ****         case LV_STYLE_BG_COLOR:
 235:Middlewares/lvgl/src/misc/lv_style.c ****             value.color = lv_color_white();
 236:Middlewares/lvgl/src/misc/lv_style.c ****             break;
 237:Middlewares/lvgl/src/misc/lv_style.c ****         case LV_STYLE_OPA:
 238:Middlewares/lvgl/src/misc/lv_style.c ****         case LV_STYLE_BORDER_OPA:
ARM GAS  /tmp/ccWgnKW2.s 			page 26


 239:Middlewares/lvgl/src/misc/lv_style.c ****         case LV_STYLE_TEXT_OPA:
 240:Middlewares/lvgl/src/misc/lv_style.c ****         case LV_STYLE_IMG_OPA:
 241:Middlewares/lvgl/src/misc/lv_style.c ****         case LV_STYLE_BG_IMG_OPA:
 242:Middlewares/lvgl/src/misc/lv_style.c ****         case LV_STYLE_OUTLINE_OPA:
 243:Middlewares/lvgl/src/misc/lv_style.c ****         case LV_STYLE_SHADOW_OPA:
 244:Middlewares/lvgl/src/misc/lv_style.c ****         case LV_STYLE_LINE_OPA:
 245:Middlewares/lvgl/src/misc/lv_style.c ****         case LV_STYLE_ARC_OPA:
 246:Middlewares/lvgl/src/misc/lv_style.c ****             value.num = LV_OPA_COVER;
 247:Middlewares/lvgl/src/misc/lv_style.c ****             break;
 248:Middlewares/lvgl/src/misc/lv_style.c ****         case LV_STYLE_BG_GRAD_STOP:
 249:Middlewares/lvgl/src/misc/lv_style.c ****             value.num = 255;
 250:Middlewares/lvgl/src/misc/lv_style.c ****             break;
 251:Middlewares/lvgl/src/misc/lv_style.c ****         case LV_STYLE_BORDER_SIDE:
 252:Middlewares/lvgl/src/misc/lv_style.c ****             value.num = LV_BORDER_SIDE_FULL;
 253:Middlewares/lvgl/src/misc/lv_style.c ****             break;
 254:Middlewares/lvgl/src/misc/lv_style.c ****         case LV_STYLE_TEXT_FONT:
 255:Middlewares/lvgl/src/misc/lv_style.c ****             value.ptr = LV_FONT_DEFAULT;
 256:Middlewares/lvgl/src/misc/lv_style.c ****             break;
 257:Middlewares/lvgl/src/misc/lv_style.c ****         case LV_STYLE_MAX_WIDTH:
 258:Middlewares/lvgl/src/misc/lv_style.c ****         case LV_STYLE_MAX_HEIGHT:
 259:Middlewares/lvgl/src/misc/lv_style.c ****             value.num = LV_COORD_MAX;
 260:Middlewares/lvgl/src/misc/lv_style.c ****             break;
 261:Middlewares/lvgl/src/misc/lv_style.c ****         default:
 262:Middlewares/lvgl/src/misc/lv_style.c ****             value.ptr = NULL;
 728              		.loc 1 262 13 view .LVU220
 729              		.loc 1 262 23 is_stmt 0 view .LVU221
 730 0008 0020     		movs	r0, #0
 731              	.LVL68:
 263:Middlewares/lvgl/src/misc/lv_style.c ****             value.num = 0;
 732              		.loc 1 263 13 is_stmt 1 view .LVU222
 264:Middlewares/lvgl/src/misc/lv_style.c ****             break;
 733              		.loc 1 264 13 view .LVU223
 265:Middlewares/lvgl/src/misc/lv_style.c ****     }
 266:Middlewares/lvgl/src/misc/lv_style.c **** 
 267:Middlewares/lvgl/src/misc/lv_style.c ****     return value;
 734              		.loc 1 267 5 view .LVU224
 268:Middlewares/lvgl/src/misc/lv_style.c **** }
 735              		.loc 1 268 1 is_stmt 0 view .LVU225
 736 000a 7047     		bx	lr
 737              	.LVL69:
 738              	.L79:
 739              		.loc 1 268 1 view .LVU226
 740 000c 2038     		subs	r0, r0, #32
 741              	.LVL70:
 742              		.loc 1 268 1 view .LVU227
 743 000e 3328     		cmp	r0, #51
 744 0010 FAD8     		bhi	.L67
 745 0012 01A3     		adr	r3, .L69
 746 0014 53F820F0 		ldr	pc, [r3, r0, lsl #2]
 747              		.p2align 2
 748              	.L69:
 749 0018 3D010000 		.word	.L72+1
 750 001c 09000000 		.word	.L67+1
 751 0020 09000000 		.word	.L67+1
 752 0024 09000000 		.word	.L67+1
 753 0028 09000000 		.word	.L67+1
 754 002c 49010000 		.word	.L71+1
ARM GAS  /tmp/ccWgnKW2.s 			page 27


 755 0030 09000000 		.word	.L67+1
 756 0034 39010000 		.word	.L68+1
 757 0038 09000000 		.word	.L67+1
 758 003c 09000000 		.word	.L67+1
 759 0040 09000000 		.word	.L67+1
 760 0044 09000000 		.word	.L67+1
 761 0048 09000000 		.word	.L67+1
 762 004c 09000000 		.word	.L67+1
 763 0050 09000000 		.word	.L67+1
 764 0054 09000000 		.word	.L67+1
 765 0058 09000000 		.word	.L67+1
 766 005c 39010000 		.word	.L68+1
 767 0060 09000000 		.word	.L67+1
 768 0064 4D010000 		.word	.L70+1
 769 0068 09000000 		.word	.L67+1
 770 006c 09000000 		.word	.L67+1
 771 0070 09000000 		.word	.L67+1
 772 0074 09000000 		.word	.L67+1
 773 0078 09000000 		.word	.L67+1
 774 007c 09000000 		.word	.L67+1
 775 0080 09000000 		.word	.L67+1
 776 0084 09000000 		.word	.L67+1
 777 0088 09000000 		.word	.L67+1
 778 008c 09000000 		.word	.L67+1
 779 0090 09000000 		.word	.L67+1
 780 0094 09000000 		.word	.L67+1
 781 0098 09000000 		.word	.L67+1
 782 009c 09000000 		.word	.L67+1
 783 00a0 09000000 		.word	.L67+1
 784 00a4 09000000 		.word	.L67+1
 785 00a8 09000000 		.word	.L67+1
 786 00ac 09000000 		.word	.L67+1
 787 00b0 39010000 		.word	.L68+1
 788 00b4 09000000 		.word	.L67+1
 789 00b8 09000000 		.word	.L67+1
 790 00bc 09000000 		.word	.L67+1
 791 00c0 09000000 		.word	.L67+1
 792 00c4 09000000 		.word	.L67+1
 793 00c8 09000000 		.word	.L67+1
 794 00cc 09000000 		.word	.L67+1
 795 00d0 39010000 		.word	.L68+1
 796 00d4 09000000 		.word	.L67+1
 797 00d8 09000000 		.word	.L67+1
 798 00dc 09000000 		.word	.L67+1
 799 00e0 09000000 		.word	.L67+1
 800 00e4 39010000 		.word	.L68+1
 801              	.LVL71:
 802              		.p2align 1
 803              	.L66:
 230:Middlewares/lvgl/src/misc/lv_style.c ****         case LV_STYLE_TRANSFORM_ZOOM:
 804              		.loc 1 230 5 view .LVU228
 805 00e8 41F20303 		movw	r3, #4099
 806 00ec 9842     		cmp	r0, r3
 807 00ee 2FD0     		beq	.L73
 808 00f0 09D9     		bls	.L80
 809 00f2 41F20603 		movw	r3, #4102
 810 00f6 9842     		cmp	r0, r3
ARM GAS  /tmp/ccWgnKW2.s 			page 28


 811 00f8 2AD0     		beq	.L73
 812 00fa 41F25943 		movw	r3, #5209
 813 00fe 9842     		cmp	r0, r3
 814 0100 82D1     		bne	.L67
 255:Middlewares/lvgl/src/misc/lv_style.c ****             break;
 815              		.loc 1 255 13 is_stmt 1 view .LVU229
 255:Middlewares/lvgl/src/misc/lv_style.c ****             break;
 816              		.loc 1 255 23 is_stmt 0 view .LVU230
 817 0102 1548     		ldr	r0, .L83
 818              	.LVL72:
 256:Middlewares/lvgl/src/misc/lv_style.c ****         case LV_STYLE_MAX_WIDTH:
 819              		.loc 1 256 13 is_stmt 1 view .LVU231
 820 0104 7047     		bx	lr
 821              	.LVL73:
 822              	.L80:
 230:Middlewares/lvgl/src/misc/lv_style.c ****         case LV_STYLE_TRANSFORM_ZOOM:
 823              		.loc 1 230 5 is_stmt 0 view .LVU232
 824 0106 40F60E03 		movw	r3, #2062
 825 010a 9842     		cmp	r0, r3
 826 010c 02D1     		bne	.L81
 232:Middlewares/lvgl/src/misc/lv_style.c ****             break;
 827              		.loc 1 232 13 is_stmt 1 view .LVU233
 232:Middlewares/lvgl/src/misc/lv_style.c ****             break;
 828              		.loc 1 232 23 is_stmt 0 view .LVU234
 829 010e 4FF48070 		mov	r0, #256
 830              	.LVL74:
 233:Middlewares/lvgl/src/misc/lv_style.c ****         case LV_STYLE_BG_COLOR:
 831              		.loc 1 233 13 is_stmt 1 view .LVU235
 832 0112 7047     		bx	lr
 833              	.LVL75:
 834              	.L81:
 230:Middlewares/lvgl/src/misc/lv_style.c ****         case LV_STYLE_TRANSFORM_ZOOM:
 835              		.loc 1 230 5 is_stmt 0 view .LVU236
 836 0114 08D9     		bls	.L82
 837 0116 40F63C03 		movw	r3, #2108
 838 011a 9842     		cmp	r0, r3
 839 011c 0CD0     		beq	.L68
 840 011e 40F64503 		movw	r3, #2117
 841 0122 9842     		cmp	r0, r3
 842 0124 08D0     		beq	.L68
 843 0126 6FE7     		b	.L67
 844              	.L82:
 845 0128 B0F58B6F 		cmp	r0, #1112
 846 012c 04D0     		beq	.L68
 847 012e 40F26243 		movw	r3, #1122
 848 0132 9842     		cmp	r0, r3
 849 0134 7FF468AF 		bne	.L67
 850              	.LVL76:
 851              	.L68:
 246:Middlewares/lvgl/src/misc/lv_style.c ****             break;
 852              		.loc 1 246 13 is_stmt 1 view .LVU237
 246:Middlewares/lvgl/src/misc/lv_style.c ****             break;
 853              		.loc 1 246 23 is_stmt 0 view .LVU238
 854 0138 FF20     		movs	r0, #255
 247:Middlewares/lvgl/src/misc/lv_style.c ****         case LV_STYLE_BG_GRAD_STOP:
 855              		.loc 1 247 13 is_stmt 1 view .LVU239
 856 013a 7047     		bx	lr
ARM GAS  /tmp/ccWgnKW2.s 			page 29


 857              	.L72:
 235:Middlewares/lvgl/src/misc/lv_style.c ****             break;
 858              		.loc 1 235 13 view .LVU240
 859              	.LBB28:
 860              	.LBI28:
 861              		.file 3 "Middlewares/lvgl/src/misc/lv_color.h"
   1:Middlewares/lvgl/src/misc/lv_color.h **** /**
   2:Middlewares/lvgl/src/misc/lv_color.h ****  * @file lv_color.h
   3:Middlewares/lvgl/src/misc/lv_color.h ****  *
   4:Middlewares/lvgl/src/misc/lv_color.h ****  */
   5:Middlewares/lvgl/src/misc/lv_color.h **** 
   6:Middlewares/lvgl/src/misc/lv_color.h **** #ifndef LV_COLOR_H
   7:Middlewares/lvgl/src/misc/lv_color.h **** #define LV_COLOR_H
   8:Middlewares/lvgl/src/misc/lv_color.h **** 
   9:Middlewares/lvgl/src/misc/lv_color.h **** #ifdef __cplusplus
  10:Middlewares/lvgl/src/misc/lv_color.h **** extern "C" {
  11:Middlewares/lvgl/src/misc/lv_color.h **** #endif
  12:Middlewares/lvgl/src/misc/lv_color.h **** 
  13:Middlewares/lvgl/src/misc/lv_color.h **** /*********************
  14:Middlewares/lvgl/src/misc/lv_color.h ****  *      INCLUDES
  15:Middlewares/lvgl/src/misc/lv_color.h ****  *********************/
  16:Middlewares/lvgl/src/misc/lv_color.h **** #include "../lv_conf_internal.h"
  17:Middlewares/lvgl/src/misc/lv_color.h **** #include "lv_math.h"
  18:Middlewares/lvgl/src/misc/lv_color.h **** #include "lv_types.h"
  19:Middlewares/lvgl/src/misc/lv_color.h **** 
  20:Middlewares/lvgl/src/misc/lv_color.h **** /*Error checking*/
  21:Middlewares/lvgl/src/misc/lv_color.h **** #if LV_COLOR_DEPTH == 24
  22:Middlewares/lvgl/src/misc/lv_color.h **** #error "LV_COLOR_DEPTH 24 is deprecated. Use LV_COLOR_DEPTH 32 instead (lv_conf.h)"
  23:Middlewares/lvgl/src/misc/lv_color.h **** #endif
  24:Middlewares/lvgl/src/misc/lv_color.h **** 
  25:Middlewares/lvgl/src/misc/lv_color.h **** #if LV_COLOR_DEPTH != 32 && LV_COLOR_SCREEN_TRANSP != 0
  26:Middlewares/lvgl/src/misc/lv_color.h **** #error "LV_COLOR_SCREEN_TRANSP requires LV_COLOR_DEPTH == 32. Set it in lv_conf.h"
  27:Middlewares/lvgl/src/misc/lv_color.h **** #endif
  28:Middlewares/lvgl/src/misc/lv_color.h **** 
  29:Middlewares/lvgl/src/misc/lv_color.h **** #if LV_COLOR_DEPTH != 16 && LV_COLOR_16_SWAP != 0
  30:Middlewares/lvgl/src/misc/lv_color.h **** #error "LV_COLOR_16_SWAP requires LV_COLOR_DEPTH == 16. Set it in lv_conf.h"
  31:Middlewares/lvgl/src/misc/lv_color.h **** #endif
  32:Middlewares/lvgl/src/misc/lv_color.h **** 
  33:Middlewares/lvgl/src/misc/lv_color.h **** #include <stdint.h>
  34:Middlewares/lvgl/src/misc/lv_color.h **** 
  35:Middlewares/lvgl/src/misc/lv_color.h **** /*********************
  36:Middlewares/lvgl/src/misc/lv_color.h ****  *      DEFINES
  37:Middlewares/lvgl/src/misc/lv_color.h ****  *********************/
  38:Middlewares/lvgl/src/misc/lv_color.h **** 
  39:Middlewares/lvgl/src/misc/lv_color.h **** /**
  40:Middlewares/lvgl/src/misc/lv_color.h ****  * Opacity percentages.
  41:Middlewares/lvgl/src/misc/lv_color.h ****  */
  42:Middlewares/lvgl/src/misc/lv_color.h **** enum {
  43:Middlewares/lvgl/src/misc/lv_color.h ****     LV_OPA_TRANSP = 0,
  44:Middlewares/lvgl/src/misc/lv_color.h ****     LV_OPA_0      = 0,
  45:Middlewares/lvgl/src/misc/lv_color.h ****     LV_OPA_10     = 25,
  46:Middlewares/lvgl/src/misc/lv_color.h ****     LV_OPA_20     = 51,
  47:Middlewares/lvgl/src/misc/lv_color.h ****     LV_OPA_30     = 76,
  48:Middlewares/lvgl/src/misc/lv_color.h ****     LV_OPA_40     = 102,
  49:Middlewares/lvgl/src/misc/lv_color.h ****     LV_OPA_50     = 127,
  50:Middlewares/lvgl/src/misc/lv_color.h ****     LV_OPA_60     = 153,
  51:Middlewares/lvgl/src/misc/lv_color.h ****     LV_OPA_70     = 178,
ARM GAS  /tmp/ccWgnKW2.s 			page 30


  52:Middlewares/lvgl/src/misc/lv_color.h ****     LV_OPA_80     = 204,
  53:Middlewares/lvgl/src/misc/lv_color.h ****     LV_OPA_90     = 229,
  54:Middlewares/lvgl/src/misc/lv_color.h ****     LV_OPA_100    = 255,
  55:Middlewares/lvgl/src/misc/lv_color.h ****     LV_OPA_COVER  = 255,
  56:Middlewares/lvgl/src/misc/lv_color.h **** };
  57:Middlewares/lvgl/src/misc/lv_color.h **** 
  58:Middlewares/lvgl/src/misc/lv_color.h **** #define LV_OPA_MIN 2    /*Opacities below this will be transparent*/
  59:Middlewares/lvgl/src/misc/lv_color.h **** #define LV_OPA_MAX 253  /*Opacities above this will fully cover*/
  60:Middlewares/lvgl/src/misc/lv_color.h **** 
  61:Middlewares/lvgl/src/misc/lv_color.h **** #if LV_COLOR_DEPTH == 1
  62:Middlewares/lvgl/src/misc/lv_color.h **** #define LV_COLOR_SIZE 8
  63:Middlewares/lvgl/src/misc/lv_color.h **** #elif LV_COLOR_DEPTH == 8
  64:Middlewares/lvgl/src/misc/lv_color.h **** #define LV_COLOR_SIZE 8
  65:Middlewares/lvgl/src/misc/lv_color.h **** #elif LV_COLOR_DEPTH == 16
  66:Middlewares/lvgl/src/misc/lv_color.h **** #define LV_COLOR_SIZE 16
  67:Middlewares/lvgl/src/misc/lv_color.h **** #elif LV_COLOR_DEPTH == 32
  68:Middlewares/lvgl/src/misc/lv_color.h **** #define LV_COLOR_SIZE 32
  69:Middlewares/lvgl/src/misc/lv_color.h **** #else
  70:Middlewares/lvgl/src/misc/lv_color.h **** #error "Invalid LV_COLOR_DEPTH in lv_conf.h! Set it to 1, 8, 16 or 32!"
  71:Middlewares/lvgl/src/misc/lv_color.h **** #endif
  72:Middlewares/lvgl/src/misc/lv_color.h **** 
  73:Middlewares/lvgl/src/misc/lv_color.h **** /**
  74:Middlewares/lvgl/src/misc/lv_color.h ****  * Adjust color mix functions rounding.
  75:Middlewares/lvgl/src/misc/lv_color.h ****  * GPUs might calculate color mix (blending) differently.
  76:Middlewares/lvgl/src/misc/lv_color.h ****  * Should be in range of 0..254
  77:Middlewares/lvgl/src/misc/lv_color.h ****  * 0: no adjustment, get the integer part of the result (round down)
  78:Middlewares/lvgl/src/misc/lv_color.h ****  * 64: round up from x.75
  79:Middlewares/lvgl/src/misc/lv_color.h ****  * 128: round up from half
  80:Middlewares/lvgl/src/misc/lv_color.h ****  * 192: round up from x.25
  81:Middlewares/lvgl/src/misc/lv_color.h ****  * 254: round up*/
  82:Middlewares/lvgl/src/misc/lv_color.h **** #ifndef LV_COLOR_MIX_ROUND_OFS
  83:Middlewares/lvgl/src/misc/lv_color.h **** #if LV_COLOR_DEPTH == 32
  84:Middlewares/lvgl/src/misc/lv_color.h **** #define LV_COLOR_MIX_ROUND_OFS 0
  85:Middlewares/lvgl/src/misc/lv_color.h **** #else
  86:Middlewares/lvgl/src/misc/lv_color.h **** #define LV_COLOR_MIX_ROUND_OFS 128
  87:Middlewares/lvgl/src/misc/lv_color.h **** #endif
  88:Middlewares/lvgl/src/misc/lv_color.h **** #endif
  89:Middlewares/lvgl/src/misc/lv_color.h **** 
  90:Middlewares/lvgl/src/misc/lv_color.h **** #if defined(__cplusplus) && !defined(_LV_COLOR_HAS_MODERN_CPP)
  91:Middlewares/lvgl/src/misc/lv_color.h **** /**
  92:Middlewares/lvgl/src/misc/lv_color.h **** * MSVC compiler's definition of the __cplusplus indicating 199711L regardless to C++ standard versi
  93:Middlewares/lvgl/src/misc/lv_color.h **** * see https://devblogs.microsoft.com/cppblog/msvc-now-correctly-reports-cplusplus
  94:Middlewares/lvgl/src/misc/lv_color.h **** * so we use _MSC_VER macro instead of __cplusplus
  95:Middlewares/lvgl/src/misc/lv_color.h **** */
  96:Middlewares/lvgl/src/misc/lv_color.h **** #ifdef _MSC_VER
  97:Middlewares/lvgl/src/misc/lv_color.h **** #if _MSC_VER >= 1900 /*Visual Studio 2015*/
  98:Middlewares/lvgl/src/misc/lv_color.h **** #define _LV_COLOR_HAS_MODERN_CPP 1
  99:Middlewares/lvgl/src/misc/lv_color.h **** #endif
 100:Middlewares/lvgl/src/misc/lv_color.h **** #else
 101:Middlewares/lvgl/src/misc/lv_color.h **** #if __cplusplus >= 201103L
 102:Middlewares/lvgl/src/misc/lv_color.h **** #define _LV_COLOR_HAS_MODERN_CPP 1
 103:Middlewares/lvgl/src/misc/lv_color.h **** #endif
 104:Middlewares/lvgl/src/misc/lv_color.h **** #endif
 105:Middlewares/lvgl/src/misc/lv_color.h **** #endif /*__cplusplus*/
 106:Middlewares/lvgl/src/misc/lv_color.h **** 
 107:Middlewares/lvgl/src/misc/lv_color.h **** #ifndef _LV_COLOR_HAS_MODERN_CPP
 108:Middlewares/lvgl/src/misc/lv_color.h **** #define _LV_COLOR_HAS_MODERN_CPP 0
ARM GAS  /tmp/ccWgnKW2.s 			page 31


 109:Middlewares/lvgl/src/misc/lv_color.h **** #endif
 110:Middlewares/lvgl/src/misc/lv_color.h **** 
 111:Middlewares/lvgl/src/misc/lv_color.h **** #if _LV_COLOR_HAS_MODERN_CPP
 112:Middlewares/lvgl/src/misc/lv_color.h **** /*Fix msvc compiler error C4576 inside C++ code*/
 113:Middlewares/lvgl/src/misc/lv_color.h **** #define _LV_COLOR_MAKE_TYPE_HELPER lv_color_t
 114:Middlewares/lvgl/src/misc/lv_color.h **** #else
 115:Middlewares/lvgl/src/misc/lv_color.h **** #define _LV_COLOR_MAKE_TYPE_HELPER (lv_color_t)
 116:Middlewares/lvgl/src/misc/lv_color.h **** #endif
 117:Middlewares/lvgl/src/misc/lv_color.h **** 
 118:Middlewares/lvgl/src/misc/lv_color.h **** /*---------------------------------------
 119:Middlewares/lvgl/src/misc/lv_color.h ****  * Macros for all existing color depths
 120:Middlewares/lvgl/src/misc/lv_color.h ****  * to set/get values of the color channels
 121:Middlewares/lvgl/src/misc/lv_color.h ****  *------------------------------------------*/
 122:Middlewares/lvgl/src/misc/lv_color.h **** # define LV_COLOR_SET_R1(c, v) (c).ch.red = (uint8_t)((v) & 0x1)
 123:Middlewares/lvgl/src/misc/lv_color.h **** # define LV_COLOR_SET_G1(c, v) (c).ch.green = (uint8_t)((v) & 0x1)
 124:Middlewares/lvgl/src/misc/lv_color.h **** # define LV_COLOR_SET_B1(c, v) (c).ch.blue = (uint8_t)((v) & 0x1)
 125:Middlewares/lvgl/src/misc/lv_color.h **** # define LV_COLOR_SET_A1(c, v) do {} while(0)
 126:Middlewares/lvgl/src/misc/lv_color.h **** 
 127:Middlewares/lvgl/src/misc/lv_color.h **** # define LV_COLOR_GET_R1(c) (c).ch.red
 128:Middlewares/lvgl/src/misc/lv_color.h **** # define LV_COLOR_GET_G1(c) (c).ch.green
 129:Middlewares/lvgl/src/misc/lv_color.h **** # define LV_COLOR_GET_B1(c) (c).ch.blue
 130:Middlewares/lvgl/src/misc/lv_color.h **** # define LV_COLOR_GET_A1(c) 0xFF
 131:Middlewares/lvgl/src/misc/lv_color.h **** 
 132:Middlewares/lvgl/src/misc/lv_color.h **** # define _LV_COLOR_ZERO_INITIALIZER1 {0x00}
 133:Middlewares/lvgl/src/misc/lv_color.h **** # define LV_COLOR_MAKE1(r8, g8, b8)  {(uint8_t)((b8 >> 7) | (g8 >> 7) | (r8 >> 7))}
 134:Middlewares/lvgl/src/misc/lv_color.h **** 
 135:Middlewares/lvgl/src/misc/lv_color.h **** # define LV_COLOR_SET_R8(c, v) (c).ch.red = (uint8_t)((v) & 0x7U)
 136:Middlewares/lvgl/src/misc/lv_color.h **** # define LV_COLOR_SET_G8(c, v) (c).ch.green = (uint8_t)((v) & 0x7U)
 137:Middlewares/lvgl/src/misc/lv_color.h **** # define LV_COLOR_SET_B8(c, v) (c).ch.blue = (uint8_t)((v) & 0x3U)
 138:Middlewares/lvgl/src/misc/lv_color.h **** # define LV_COLOR_SET_A8(c, v) do {} while(0)
 139:Middlewares/lvgl/src/misc/lv_color.h **** 
 140:Middlewares/lvgl/src/misc/lv_color.h **** # define LV_COLOR_GET_R8(c) (c).ch.red
 141:Middlewares/lvgl/src/misc/lv_color.h **** # define LV_COLOR_GET_G8(c) (c).ch.green
 142:Middlewares/lvgl/src/misc/lv_color.h **** # define LV_COLOR_GET_B8(c) (c).ch.blue
 143:Middlewares/lvgl/src/misc/lv_color.h **** # define LV_COLOR_GET_A8(c) 0xFF
 144:Middlewares/lvgl/src/misc/lv_color.h **** 
 145:Middlewares/lvgl/src/misc/lv_color.h **** # define _LV_COLOR_ZERO_INITIALIZER8 _LV_COLOR_MAKE_TYPE_HELPER {{0x00, 0x00, 0x00}}
 146:Middlewares/lvgl/src/misc/lv_color.h **** # define LV_COLOR_MAKE8(r8, g8, b8) _LV_COLOR_MAKE_TYPE_HELPER  {{(uint8_t)((b8 >> 6) & 0x3U), (uin
 147:Middlewares/lvgl/src/misc/lv_color.h **** 
 148:Middlewares/lvgl/src/misc/lv_color.h **** # define LV_COLOR_SET_R16(c, v) (c).ch.red = (uint8_t)((v) & 0x1FU)
 149:Middlewares/lvgl/src/misc/lv_color.h **** #if LV_COLOR_16_SWAP == 0
 150:Middlewares/lvgl/src/misc/lv_color.h **** # define LV_COLOR_SET_G16(c, v) (c).ch.green = (uint8_t)((v) & 0x3FU)
 151:Middlewares/lvgl/src/misc/lv_color.h **** #else
 152:Middlewares/lvgl/src/misc/lv_color.h **** # define LV_COLOR_SET_G16(c, v) {(c).ch.green_h = (uint8_t)(((v) >> 3) & 0x7); (c).ch.green_l = (ui
 153:Middlewares/lvgl/src/misc/lv_color.h **** #endif
 154:Middlewares/lvgl/src/misc/lv_color.h **** # define LV_COLOR_SET_B16(c, v) (c).ch.blue = (uint8_t)((v) & 0x1FU)
 155:Middlewares/lvgl/src/misc/lv_color.h **** # define LV_COLOR_SET_A16(c, v) do {} while(0)
 156:Middlewares/lvgl/src/misc/lv_color.h **** 
 157:Middlewares/lvgl/src/misc/lv_color.h **** # define LV_COLOR_GET_R16(c) (c).ch.red
 158:Middlewares/lvgl/src/misc/lv_color.h **** #if LV_COLOR_16_SWAP == 0
 159:Middlewares/lvgl/src/misc/lv_color.h **** # define LV_COLOR_GET_G16(c) (c).ch.green
 160:Middlewares/lvgl/src/misc/lv_color.h **** #else
 161:Middlewares/lvgl/src/misc/lv_color.h **** # define LV_COLOR_GET_G16(c) (((c).ch.green_h << 3) + (c).ch.green_l)
 162:Middlewares/lvgl/src/misc/lv_color.h **** #endif
 163:Middlewares/lvgl/src/misc/lv_color.h **** # define LV_COLOR_GET_B16(c) (c).ch.blue
 164:Middlewares/lvgl/src/misc/lv_color.h **** # define LV_COLOR_GET_A16(c) 0xFF
 165:Middlewares/lvgl/src/misc/lv_color.h **** 
ARM GAS  /tmp/ccWgnKW2.s 			page 32


 166:Middlewares/lvgl/src/misc/lv_color.h **** #if LV_COLOR_16_SWAP == 0
 167:Middlewares/lvgl/src/misc/lv_color.h **** # define _LV_COLOR_ZERO_INITIALIZER16  {{0x00, 0x00, 0x00}}
 168:Middlewares/lvgl/src/misc/lv_color.h **** # define LV_COLOR_MAKE16(r8, g8, b8) {{(uint8_t)((b8 >> 3) & 0x1FU), (uint8_t)((g8 >> 2) & 0x3FU), 
 169:Middlewares/lvgl/src/misc/lv_color.h **** #else
 170:Middlewares/lvgl/src/misc/lv_color.h **** # define _LV_COLOR_ZERO_INITIALIZER16 {{0x00, 0x00, 0x00, 0x00}}
 171:Middlewares/lvgl/src/misc/lv_color.h **** # define LV_COLOR_MAKE16(r8, g8, b8) {{(uint8_t)((g8 >> 5) & 0x7U), (uint8_t)((r8 >> 3) & 0x1FU), (
 172:Middlewares/lvgl/src/misc/lv_color.h **** #endif
 173:Middlewares/lvgl/src/misc/lv_color.h **** 
 174:Middlewares/lvgl/src/misc/lv_color.h **** # define LV_COLOR_SET_R32(c, v) (c).ch.red = (uint8_t)((v) & 0xFF)
 175:Middlewares/lvgl/src/misc/lv_color.h **** # define LV_COLOR_SET_G32(c, v) (c).ch.green = (uint8_t)((v) & 0xFF)
 176:Middlewares/lvgl/src/misc/lv_color.h **** # define LV_COLOR_SET_B32(c, v) (c).ch.blue = (uint8_t)((v) & 0xFF)
 177:Middlewares/lvgl/src/misc/lv_color.h **** # define LV_COLOR_SET_A32(c, v) (c).ch.alpha = (uint8_t)((v) & 0xFF)
 178:Middlewares/lvgl/src/misc/lv_color.h **** 
 179:Middlewares/lvgl/src/misc/lv_color.h **** # define LV_COLOR_GET_R32(c) (c).ch.red
 180:Middlewares/lvgl/src/misc/lv_color.h **** # define LV_COLOR_GET_G32(c) (c).ch.green
 181:Middlewares/lvgl/src/misc/lv_color.h **** # define LV_COLOR_GET_B32(c) (c).ch.blue
 182:Middlewares/lvgl/src/misc/lv_color.h **** # define LV_COLOR_GET_A32(c) (c).ch.alpha
 183:Middlewares/lvgl/src/misc/lv_color.h **** 
 184:Middlewares/lvgl/src/misc/lv_color.h **** # define _LV_COLOR_ZERO_INITIALIZER32  {{0x00, 0x00, 0x00, 0x00}}
 185:Middlewares/lvgl/src/misc/lv_color.h **** # define LV_COLOR_MAKE32(r8, g8, b8) {{b8, g8, r8, 0xff}} /*Fix 0xff alpha*/
 186:Middlewares/lvgl/src/misc/lv_color.h **** 
 187:Middlewares/lvgl/src/misc/lv_color.h **** /*---------------------------------------
 188:Middlewares/lvgl/src/misc/lv_color.h ****  * Macros for the current color depth
 189:Middlewares/lvgl/src/misc/lv_color.h ****  * to set/get values of the color channels
 190:Middlewares/lvgl/src/misc/lv_color.h ****  *------------------------------------------*/
 191:Middlewares/lvgl/src/misc/lv_color.h **** #define LV_COLOR_SET_R(c, v) LV_CONCAT(LV_COLOR_SET_R, LV_COLOR_DEPTH)(c, v)
 192:Middlewares/lvgl/src/misc/lv_color.h **** #define LV_COLOR_SET_G(c, v) LV_CONCAT(LV_COLOR_SET_G, LV_COLOR_DEPTH)(c, v)
 193:Middlewares/lvgl/src/misc/lv_color.h **** #define LV_COLOR_SET_B(c, v) LV_CONCAT(LV_COLOR_SET_B, LV_COLOR_DEPTH)(c, v)
 194:Middlewares/lvgl/src/misc/lv_color.h **** #define LV_COLOR_SET_A(c, v) LV_CONCAT(LV_COLOR_SET_A, LV_COLOR_DEPTH)(c, v)
 195:Middlewares/lvgl/src/misc/lv_color.h **** 
 196:Middlewares/lvgl/src/misc/lv_color.h **** #define LV_COLOR_GET_R(c) LV_CONCAT(LV_COLOR_GET_R, LV_COLOR_DEPTH)(c)
 197:Middlewares/lvgl/src/misc/lv_color.h **** #define LV_COLOR_GET_G(c) LV_CONCAT(LV_COLOR_GET_G, LV_COLOR_DEPTH)(c)
 198:Middlewares/lvgl/src/misc/lv_color.h **** #define LV_COLOR_GET_B(c) LV_CONCAT(LV_COLOR_GET_B, LV_COLOR_DEPTH)(c)
 199:Middlewares/lvgl/src/misc/lv_color.h **** #define LV_COLOR_GET_A(c) LV_CONCAT(LV_COLOR_GET_A, LV_COLOR_DEPTH)(c)
 200:Middlewares/lvgl/src/misc/lv_color.h **** 
 201:Middlewares/lvgl/src/misc/lv_color.h **** #define _LV_COLOR_ZERO_INITIALIZER LV_CONCAT(_LV_COLOR_ZERO_INITIALIZER, LV_COLOR_DEPTH)
 202:Middlewares/lvgl/src/misc/lv_color.h **** #define LV_COLOR_MAKE(r8, g8, b8) LV_CONCAT(LV_COLOR_MAKE, LV_COLOR_DEPTH)(r8, g8, b8)
 203:Middlewares/lvgl/src/misc/lv_color.h **** 
 204:Middlewares/lvgl/src/misc/lv_color.h **** #define LV_UDIV255(x) ((uint32_t)((uint32_t) (x) * 0x8081) >> 0x17)
 205:Middlewares/lvgl/src/misc/lv_color.h **** 
 206:Middlewares/lvgl/src/misc/lv_color.h **** /**********************
 207:Middlewares/lvgl/src/misc/lv_color.h ****  *      TYPEDEFS
 208:Middlewares/lvgl/src/misc/lv_color.h ****  **********************/
 209:Middlewares/lvgl/src/misc/lv_color.h **** 
 210:Middlewares/lvgl/src/misc/lv_color.h **** typedef union {
 211:Middlewares/lvgl/src/misc/lv_color.h ****     uint8_t full; /*must be declared first to set all bits of byte via initializer list*/
 212:Middlewares/lvgl/src/misc/lv_color.h ****     union {
 213:Middlewares/lvgl/src/misc/lv_color.h ****         uint8_t blue : 1;
 214:Middlewares/lvgl/src/misc/lv_color.h ****         uint8_t green : 1;
 215:Middlewares/lvgl/src/misc/lv_color.h ****         uint8_t red : 1;
 216:Middlewares/lvgl/src/misc/lv_color.h ****     } ch;
 217:Middlewares/lvgl/src/misc/lv_color.h **** } lv_color1_t;
 218:Middlewares/lvgl/src/misc/lv_color.h **** 
 219:Middlewares/lvgl/src/misc/lv_color.h **** typedef union {
 220:Middlewares/lvgl/src/misc/lv_color.h ****     struct {
 221:Middlewares/lvgl/src/misc/lv_color.h ****         uint8_t blue : 2;
 222:Middlewares/lvgl/src/misc/lv_color.h ****         uint8_t green : 3;
ARM GAS  /tmp/ccWgnKW2.s 			page 33


 223:Middlewares/lvgl/src/misc/lv_color.h ****         uint8_t red : 3;
 224:Middlewares/lvgl/src/misc/lv_color.h ****     } ch;
 225:Middlewares/lvgl/src/misc/lv_color.h ****     uint8_t full;
 226:Middlewares/lvgl/src/misc/lv_color.h **** } lv_color8_t;
 227:Middlewares/lvgl/src/misc/lv_color.h **** 
 228:Middlewares/lvgl/src/misc/lv_color.h **** typedef union {
 229:Middlewares/lvgl/src/misc/lv_color.h ****     struct {
 230:Middlewares/lvgl/src/misc/lv_color.h **** #if LV_COLOR_16_SWAP == 0
 231:Middlewares/lvgl/src/misc/lv_color.h ****         uint16_t blue : 5;
 232:Middlewares/lvgl/src/misc/lv_color.h ****         uint16_t green : 6;
 233:Middlewares/lvgl/src/misc/lv_color.h ****         uint16_t red : 5;
 234:Middlewares/lvgl/src/misc/lv_color.h **** #else
 235:Middlewares/lvgl/src/misc/lv_color.h ****         uint16_t green_h : 3;
 236:Middlewares/lvgl/src/misc/lv_color.h ****         uint16_t red : 5;
 237:Middlewares/lvgl/src/misc/lv_color.h ****         uint16_t blue : 5;
 238:Middlewares/lvgl/src/misc/lv_color.h ****         uint16_t green_l : 3;
 239:Middlewares/lvgl/src/misc/lv_color.h **** #endif
 240:Middlewares/lvgl/src/misc/lv_color.h ****     } ch;
 241:Middlewares/lvgl/src/misc/lv_color.h ****     uint16_t full;
 242:Middlewares/lvgl/src/misc/lv_color.h **** } lv_color16_t;
 243:Middlewares/lvgl/src/misc/lv_color.h **** 
 244:Middlewares/lvgl/src/misc/lv_color.h **** typedef union {
 245:Middlewares/lvgl/src/misc/lv_color.h ****     struct {
 246:Middlewares/lvgl/src/misc/lv_color.h ****         uint8_t blue;
 247:Middlewares/lvgl/src/misc/lv_color.h ****         uint8_t green;
 248:Middlewares/lvgl/src/misc/lv_color.h ****         uint8_t red;
 249:Middlewares/lvgl/src/misc/lv_color.h ****         uint8_t alpha;
 250:Middlewares/lvgl/src/misc/lv_color.h ****     } ch;
 251:Middlewares/lvgl/src/misc/lv_color.h ****     uint32_t full;
 252:Middlewares/lvgl/src/misc/lv_color.h **** } lv_color32_t;
 253:Middlewares/lvgl/src/misc/lv_color.h **** 
 254:Middlewares/lvgl/src/misc/lv_color.h **** typedef LV_CONCAT3(uint, LV_COLOR_SIZE, _t) lv_color_int_t;
 255:Middlewares/lvgl/src/misc/lv_color.h **** typedef LV_CONCAT3(lv_color, LV_COLOR_DEPTH, _t) lv_color_t;
 256:Middlewares/lvgl/src/misc/lv_color.h **** 
 257:Middlewares/lvgl/src/misc/lv_color.h **** typedef struct {
 258:Middlewares/lvgl/src/misc/lv_color.h ****     uint16_t h;
 259:Middlewares/lvgl/src/misc/lv_color.h ****     uint8_t s;
 260:Middlewares/lvgl/src/misc/lv_color.h ****     uint8_t v;
 261:Middlewares/lvgl/src/misc/lv_color.h **** } lv_color_hsv_t;
 262:Middlewares/lvgl/src/misc/lv_color.h **** 
 263:Middlewares/lvgl/src/misc/lv_color.h **** //! @cond Doxygen_Suppress
 264:Middlewares/lvgl/src/misc/lv_color.h **** /*No idea where the guard is required but else throws warnings in the docs*/
 265:Middlewares/lvgl/src/misc/lv_color.h **** typedef uint8_t lv_opa_t;
 266:Middlewares/lvgl/src/misc/lv_color.h **** //! @endcond
 267:Middlewares/lvgl/src/misc/lv_color.h **** 
 268:Middlewares/lvgl/src/misc/lv_color.h **** struct _lv_color_filter_dsc_t;
 269:Middlewares/lvgl/src/misc/lv_color.h **** 
 270:Middlewares/lvgl/src/misc/lv_color.h **** typedef lv_color_t (*lv_color_filter_cb_t)(const struct _lv_color_filter_dsc_t *, lv_color_t, lv_op
 271:Middlewares/lvgl/src/misc/lv_color.h **** 
 272:Middlewares/lvgl/src/misc/lv_color.h **** typedef struct _lv_color_filter_dsc_t {
 273:Middlewares/lvgl/src/misc/lv_color.h ****     lv_color_filter_cb_t filter_cb;
 274:Middlewares/lvgl/src/misc/lv_color.h ****     void * user_data;
 275:Middlewares/lvgl/src/misc/lv_color.h **** }lv_color_filter_dsc_t;
 276:Middlewares/lvgl/src/misc/lv_color.h **** 
 277:Middlewares/lvgl/src/misc/lv_color.h **** 
 278:Middlewares/lvgl/src/misc/lv_color.h **** typedef enum {
 279:Middlewares/lvgl/src/misc/lv_color.h ****     LV_PALETTE_RED,
ARM GAS  /tmp/ccWgnKW2.s 			page 34


 280:Middlewares/lvgl/src/misc/lv_color.h ****     LV_PALETTE_PINK,
 281:Middlewares/lvgl/src/misc/lv_color.h ****     LV_PALETTE_PURPLE,
 282:Middlewares/lvgl/src/misc/lv_color.h ****     LV_PALETTE_DEEP_PURPLE,
 283:Middlewares/lvgl/src/misc/lv_color.h ****     LV_PALETTE_INDIGO,
 284:Middlewares/lvgl/src/misc/lv_color.h ****     LV_PALETTE_BLUE,
 285:Middlewares/lvgl/src/misc/lv_color.h ****     LV_PALETTE_LIGHT_BLUE,
 286:Middlewares/lvgl/src/misc/lv_color.h ****     LV_PALETTE_CYAN,
 287:Middlewares/lvgl/src/misc/lv_color.h ****     LV_PALETTE_TEAL,
 288:Middlewares/lvgl/src/misc/lv_color.h ****     LV_PALETTE_GREEN,
 289:Middlewares/lvgl/src/misc/lv_color.h ****     LV_PALETTE_LIGHT_GREEN,
 290:Middlewares/lvgl/src/misc/lv_color.h ****     LV_PALETTE_LIME,
 291:Middlewares/lvgl/src/misc/lv_color.h ****     LV_PALETTE_YELLOW,
 292:Middlewares/lvgl/src/misc/lv_color.h ****     LV_PALETTE_AMBER,
 293:Middlewares/lvgl/src/misc/lv_color.h ****     LV_PALETTE_ORANGE,
 294:Middlewares/lvgl/src/misc/lv_color.h ****     LV_PALETTE_DEEP_ORANGE,
 295:Middlewares/lvgl/src/misc/lv_color.h ****     LV_PALETTE_BROWN,
 296:Middlewares/lvgl/src/misc/lv_color.h ****     LV_PALETTE_BLUE_GREY,
 297:Middlewares/lvgl/src/misc/lv_color.h ****     LV_PALETTE_GREY,
 298:Middlewares/lvgl/src/misc/lv_color.h ****     _LV_PALETTE_LAST,
 299:Middlewares/lvgl/src/misc/lv_color.h ****     LV_PALETTE_NONE = 0xff,
 300:Middlewares/lvgl/src/misc/lv_color.h **** }lv_palette_t;
 301:Middlewares/lvgl/src/misc/lv_color.h **** 
 302:Middlewares/lvgl/src/misc/lv_color.h **** /**********************
 303:Middlewares/lvgl/src/misc/lv_color.h ****  * GLOBAL PROTOTYPES
 304:Middlewares/lvgl/src/misc/lv_color.h ****  **********************/
 305:Middlewares/lvgl/src/misc/lv_color.h **** 
 306:Middlewares/lvgl/src/misc/lv_color.h **** /*In color conversations:
 307:Middlewares/lvgl/src/misc/lv_color.h ****  * - When converting to bigger color type the LSB weight of 1 LSB is calculated
 308:Middlewares/lvgl/src/misc/lv_color.h ****  *   E.g. 16 bit Red has 5 bits
 309:Middlewares/lvgl/src/misc/lv_color.h ****  *         8 bit Red has 3 bits
 310:Middlewares/lvgl/src/misc/lv_color.h ****  *        ----------------------
 311:Middlewares/lvgl/src/misc/lv_color.h ****  *        8 bit red LSB = (2^5 - 1) / (2^3 - 1) = 31 / 7 = 4
 312:Middlewares/lvgl/src/misc/lv_color.h ****  *
 313:Middlewares/lvgl/src/misc/lv_color.h ****  * - When calculating to smaller color type simply shift out the LSBs
 314:Middlewares/lvgl/src/misc/lv_color.h ****  *   E.g.  8 bit Red has 3 bits
 315:Middlewares/lvgl/src/misc/lv_color.h ****  *        16 bit Red has 5 bits
 316:Middlewares/lvgl/src/misc/lv_color.h ****  *        ----------------------
 317:Middlewares/lvgl/src/misc/lv_color.h ****  *         Shift right with 5 - 3 = 2
 318:Middlewares/lvgl/src/misc/lv_color.h ****  */
 319:Middlewares/lvgl/src/misc/lv_color.h **** static inline uint8_t lv_color_to1(lv_color_t color)
 320:Middlewares/lvgl/src/misc/lv_color.h **** {
 321:Middlewares/lvgl/src/misc/lv_color.h **** #if LV_COLOR_DEPTH == 1
 322:Middlewares/lvgl/src/misc/lv_color.h ****     return color.full;
 323:Middlewares/lvgl/src/misc/lv_color.h **** #elif LV_COLOR_DEPTH == 8
 324:Middlewares/lvgl/src/misc/lv_color.h ****     if((LV_COLOR_GET_R(color) & 0x4) || (LV_COLOR_GET_G(color) & 0x4) || (LV_COLOR_GET_B(color) & 0
 325:Middlewares/lvgl/src/misc/lv_color.h ****         return 1;
 326:Middlewares/lvgl/src/misc/lv_color.h ****     }
 327:Middlewares/lvgl/src/misc/lv_color.h ****     else {
 328:Middlewares/lvgl/src/misc/lv_color.h ****         return 0;
 329:Middlewares/lvgl/src/misc/lv_color.h ****     }
 330:Middlewares/lvgl/src/misc/lv_color.h **** #elif LV_COLOR_DEPTH == 16
 331:Middlewares/lvgl/src/misc/lv_color.h ****     if((LV_COLOR_GET_R(color) & 0x10) || (LV_COLOR_GET_G(color) & 0x20) || (LV_COLOR_GET_B(color) &
 332:Middlewares/lvgl/src/misc/lv_color.h ****         return 1;
 333:Middlewares/lvgl/src/misc/lv_color.h ****     }
 334:Middlewares/lvgl/src/misc/lv_color.h ****     else {
 335:Middlewares/lvgl/src/misc/lv_color.h ****         return 0;
 336:Middlewares/lvgl/src/misc/lv_color.h ****     }
ARM GAS  /tmp/ccWgnKW2.s 			page 35


 337:Middlewares/lvgl/src/misc/lv_color.h **** #elif LV_COLOR_DEPTH == 32
 338:Middlewares/lvgl/src/misc/lv_color.h ****     if((LV_COLOR_GET_R(color) & 0x80) || (LV_COLOR_GET_G(color) & 0x80) || (LV_COLOR_GET_B(color) &
 339:Middlewares/lvgl/src/misc/lv_color.h ****         return 1;
 340:Middlewares/lvgl/src/misc/lv_color.h ****     }
 341:Middlewares/lvgl/src/misc/lv_color.h ****     else {
 342:Middlewares/lvgl/src/misc/lv_color.h ****         return 0;
 343:Middlewares/lvgl/src/misc/lv_color.h ****     }
 344:Middlewares/lvgl/src/misc/lv_color.h **** #endif
 345:Middlewares/lvgl/src/misc/lv_color.h **** }
 346:Middlewares/lvgl/src/misc/lv_color.h **** 
 347:Middlewares/lvgl/src/misc/lv_color.h **** static inline uint8_t lv_color_to8(lv_color_t color)
 348:Middlewares/lvgl/src/misc/lv_color.h **** {
 349:Middlewares/lvgl/src/misc/lv_color.h **** #if LV_COLOR_DEPTH == 1
 350:Middlewares/lvgl/src/misc/lv_color.h ****     if(color.full == 0)
 351:Middlewares/lvgl/src/misc/lv_color.h ****         return 0;
 352:Middlewares/lvgl/src/misc/lv_color.h ****     else
 353:Middlewares/lvgl/src/misc/lv_color.h ****         return 0xFF;
 354:Middlewares/lvgl/src/misc/lv_color.h **** #elif LV_COLOR_DEPTH == 8
 355:Middlewares/lvgl/src/misc/lv_color.h ****     return color.full;
 356:Middlewares/lvgl/src/misc/lv_color.h **** #elif LV_COLOR_DEPTH == 16
 357:Middlewares/lvgl/src/misc/lv_color.h ****     lv_color8_t ret;
 358:Middlewares/lvgl/src/misc/lv_color.h ****     LV_COLOR_SET_R8(ret, LV_COLOR_GET_R(color) >> 2); /*5 - 3  = 2*/
 359:Middlewares/lvgl/src/misc/lv_color.h ****     LV_COLOR_SET_G8(ret, LV_COLOR_GET_G(color) >> 3); /*6 - 3  = 3*/
 360:Middlewares/lvgl/src/misc/lv_color.h ****     LV_COLOR_SET_B8(ret, LV_COLOR_GET_B(color) >> 3); /*5 - 2  = 3*/
 361:Middlewares/lvgl/src/misc/lv_color.h ****     return ret.full;
 362:Middlewares/lvgl/src/misc/lv_color.h **** #elif LV_COLOR_DEPTH == 32
 363:Middlewares/lvgl/src/misc/lv_color.h ****     lv_color8_t ret;
 364:Middlewares/lvgl/src/misc/lv_color.h ****     LV_COLOR_SET_R8(ret, LV_COLOR_GET_R(color) >> 5); /*8 - 3  = 5*/
 365:Middlewares/lvgl/src/misc/lv_color.h ****     LV_COLOR_SET_G8(ret, LV_COLOR_GET_G(color) >> 5); /*8 - 3  = 5*/
 366:Middlewares/lvgl/src/misc/lv_color.h ****     LV_COLOR_SET_B8(ret, LV_COLOR_GET_B(color) >> 6); /*8 - 2  = 6*/
 367:Middlewares/lvgl/src/misc/lv_color.h ****     return ret.full;
 368:Middlewares/lvgl/src/misc/lv_color.h **** #endif
 369:Middlewares/lvgl/src/misc/lv_color.h **** }
 370:Middlewares/lvgl/src/misc/lv_color.h **** 
 371:Middlewares/lvgl/src/misc/lv_color.h **** static inline uint16_t lv_color_to16(lv_color_t color)
 372:Middlewares/lvgl/src/misc/lv_color.h **** {
 373:Middlewares/lvgl/src/misc/lv_color.h **** #if LV_COLOR_DEPTH == 1
 374:Middlewares/lvgl/src/misc/lv_color.h ****     if(color.full == 0)
 375:Middlewares/lvgl/src/misc/lv_color.h ****         return 0;
 376:Middlewares/lvgl/src/misc/lv_color.h ****     else
 377:Middlewares/lvgl/src/misc/lv_color.h ****         return 0xFFFF;
 378:Middlewares/lvgl/src/misc/lv_color.h **** #elif LV_COLOR_DEPTH == 8
 379:Middlewares/lvgl/src/misc/lv_color.h ****     lv_color16_t ret;
 380:Middlewares/lvgl/src/misc/lv_color.h ****     LV_COLOR_SET_R16(ret, LV_COLOR_GET_R(color) * 4);  /*(2^5 - 1)/(2^3 - 1) = 31/7 = 4*/
 381:Middlewares/lvgl/src/misc/lv_color.h ****     LV_COLOR_SET_G16(ret, LV_COLOR_GET_G(color) * 9);  /*(2^6 - 1)/(2^3 - 1) = 63/7 = 9*/
 382:Middlewares/lvgl/src/misc/lv_color.h ****     LV_COLOR_SET_B16(ret, LV_COLOR_GET_B(color) * 10); /*(2^5 - 1)/(2^2 - 1) = 31/3 = 10*/
 383:Middlewares/lvgl/src/misc/lv_color.h ****     return ret.full;
 384:Middlewares/lvgl/src/misc/lv_color.h **** #elif LV_COLOR_DEPTH == 16
 385:Middlewares/lvgl/src/misc/lv_color.h ****     return color.full;
 386:Middlewares/lvgl/src/misc/lv_color.h **** #elif LV_COLOR_DEPTH == 32
 387:Middlewares/lvgl/src/misc/lv_color.h ****     lv_color16_t ret;
 388:Middlewares/lvgl/src/misc/lv_color.h ****     LV_COLOR_SET_R16(ret, LV_COLOR_GET_R(color) >> 3); /*8 - 5  = 3*/
 389:Middlewares/lvgl/src/misc/lv_color.h ****     LV_COLOR_SET_G16(ret, LV_COLOR_GET_G(color) >> 2); /*8 - 6  = 2*/
 390:Middlewares/lvgl/src/misc/lv_color.h ****     LV_COLOR_SET_B16(ret, LV_COLOR_GET_B(color) >> 3); /*8 - 5  = 3*/
 391:Middlewares/lvgl/src/misc/lv_color.h ****     return ret.full;
 392:Middlewares/lvgl/src/misc/lv_color.h **** #endif
 393:Middlewares/lvgl/src/misc/lv_color.h **** }
ARM GAS  /tmp/ccWgnKW2.s 			page 36


 394:Middlewares/lvgl/src/misc/lv_color.h **** 
 395:Middlewares/lvgl/src/misc/lv_color.h **** static inline uint32_t lv_color_to32(lv_color_t color)
 396:Middlewares/lvgl/src/misc/lv_color.h **** {
 397:Middlewares/lvgl/src/misc/lv_color.h **** #if LV_COLOR_DEPTH == 1
 398:Middlewares/lvgl/src/misc/lv_color.h ****     if(color.full == 0)
 399:Middlewares/lvgl/src/misc/lv_color.h ****         return 0xFF000000;
 400:Middlewares/lvgl/src/misc/lv_color.h ****     else
 401:Middlewares/lvgl/src/misc/lv_color.h ****         return 0xFFFFFFFF;
 402:Middlewares/lvgl/src/misc/lv_color.h **** #elif LV_COLOR_DEPTH == 8
 403:Middlewares/lvgl/src/misc/lv_color.h ****     lv_color32_t ret;
 404:Middlewares/lvgl/src/misc/lv_color.h ****     LV_COLOR_SET_R32(ret, LV_COLOR_GET_R(color) * 36); /*(2^8 - 1)/(2^3 - 1) = 255/7 = 36*/
 405:Middlewares/lvgl/src/misc/lv_color.h ****     LV_COLOR_SET_G32(ret, LV_COLOR_GET_G(color) * 36); /*(2^8 - 1)/(2^3 - 1) = 255/7 = 36*/
 406:Middlewares/lvgl/src/misc/lv_color.h ****     LV_COLOR_SET_B32(ret, LV_COLOR_GET_B(color) * 85); /*(2^8 - 1)/(2^2 - 1) = 255/3 = 85*/
 407:Middlewares/lvgl/src/misc/lv_color.h ****     LV_COLOR_SET_A32(ret, 0xFF);
 408:Middlewares/lvgl/src/misc/lv_color.h ****     return ret.full;
 409:Middlewares/lvgl/src/misc/lv_color.h **** #elif LV_COLOR_DEPTH == 16
 410:Middlewares/lvgl/src/misc/lv_color.h ****     /**
 411:Middlewares/lvgl/src/misc/lv_color.h ****      * The floating point math for conversion is:
 412:Middlewares/lvgl/src/misc/lv_color.h ****      *  valueto = valuefrom * ( (2^bitsto - 1) / (float)(2^bitsfrom - 1) )
 413:Middlewares/lvgl/src/misc/lv_color.h ****      * The faster integer math for conversion is:
 414:Middlewares/lvgl/src/misc/lv_color.h ****      *  valueto = ( valuefrom * multiplier + adder ) >> divisor
 415:Middlewares/lvgl/src/misc/lv_color.h ****      *   multiplier = FLOOR( ( (2^bitsto - 1) << divisor ) / (float)(2^bitsfrom - 1) )
 416:Middlewares/lvgl/src/misc/lv_color.h ****      *
 417:Middlewares/lvgl/src/misc/lv_color.h ****      * Find the first divisor where ( adder >> divisor ) <= 0
 418:Middlewares/lvgl/src/misc/lv_color.h ****      *
 419:Middlewares/lvgl/src/misc/lv_color.h ****      * 5-bit to 8-bit: ( 31 * multiplier + adder ) >> divisor = 255
 420:Middlewares/lvgl/src/misc/lv_color.h ****      * divisor  multiplier  adder  min (0)  max (31)
 421:Middlewares/lvgl/src/misc/lv_color.h ****      *       0           8      7        7       255
 422:Middlewares/lvgl/src/misc/lv_color.h ****      *       1          16     14        7       255
 423:Middlewares/lvgl/src/misc/lv_color.h ****      *       2          32     28        7       255
 424:Middlewares/lvgl/src/misc/lv_color.h ****      *       3          65     25        3       255
 425:Middlewares/lvgl/src/misc/lv_color.h ****      *       4         131     19        1       255
 426:Middlewares/lvgl/src/misc/lv_color.h ****      *       5         263      7        0       255
 427:Middlewares/lvgl/src/misc/lv_color.h ****      *
 428:Middlewares/lvgl/src/misc/lv_color.h ****      * 6-bit to 8-bit: 255 = ( 63 * multiplier + adder ) >> divisor
 429:Middlewares/lvgl/src/misc/lv_color.h ****      * divisor  multiplier  adder  min (0)  max (63)
 430:Middlewares/lvgl/src/misc/lv_color.h ****      *       0           4      3        3       255
 431:Middlewares/lvgl/src/misc/lv_color.h ****      *       1           8      6        3       255
 432:Middlewares/lvgl/src/misc/lv_color.h ****      *       2          16     12        3       255
 433:Middlewares/lvgl/src/misc/lv_color.h ****      *       3          32     24        3       255
 434:Middlewares/lvgl/src/misc/lv_color.h ****      *       4          64     48        3       255
 435:Middlewares/lvgl/src/misc/lv_color.h ****      *       5         129     33        1       255
 436:Middlewares/lvgl/src/misc/lv_color.h ****      *       6         259      3        0       255
 437:Middlewares/lvgl/src/misc/lv_color.h ****      */
 438:Middlewares/lvgl/src/misc/lv_color.h **** 
 439:Middlewares/lvgl/src/misc/lv_color.h ****     lv_color32_t ret;
 440:Middlewares/lvgl/src/misc/lv_color.h ****     LV_COLOR_SET_R32(ret, (LV_COLOR_GET_R(color) * 263 + 7) >> 5);
 441:Middlewares/lvgl/src/misc/lv_color.h ****     LV_COLOR_SET_G32(ret, (LV_COLOR_GET_G(color) * 259 + 3) >> 6);
 442:Middlewares/lvgl/src/misc/lv_color.h ****     LV_COLOR_SET_B32(ret, (LV_COLOR_GET_B(color) * 263 + 7) >> 5);
 443:Middlewares/lvgl/src/misc/lv_color.h ****     LV_COLOR_SET_A32(ret, 0xFF);
 444:Middlewares/lvgl/src/misc/lv_color.h ****     return ret.full;
 445:Middlewares/lvgl/src/misc/lv_color.h **** #elif LV_COLOR_DEPTH == 32
 446:Middlewares/lvgl/src/misc/lv_color.h ****     return color.full;
 447:Middlewares/lvgl/src/misc/lv_color.h **** #endif
 448:Middlewares/lvgl/src/misc/lv_color.h **** }
 449:Middlewares/lvgl/src/misc/lv_color.h **** 
 450:Middlewares/lvgl/src/misc/lv_color.h **** //! @cond Doxygen_Suppress
ARM GAS  /tmp/ccWgnKW2.s 			page 37


 451:Middlewares/lvgl/src/misc/lv_color.h **** 
 452:Middlewares/lvgl/src/misc/lv_color.h **** /**
 453:Middlewares/lvgl/src/misc/lv_color.h ****  * Mix two colors with a given ratio.
 454:Middlewares/lvgl/src/misc/lv_color.h ****  * @param c1 the first color to mix (usually the foreground)
 455:Middlewares/lvgl/src/misc/lv_color.h ****  * @param c2 the second color to mix (usually the background)
 456:Middlewares/lvgl/src/misc/lv_color.h ****  * @param mix The ratio of the colors. 0: full `c2`, 255: full `c1`, 127: half `c1` and half`c2`
 457:Middlewares/lvgl/src/misc/lv_color.h ****  * @return the mixed color
 458:Middlewares/lvgl/src/misc/lv_color.h ****  */
 459:Middlewares/lvgl/src/misc/lv_color.h **** LV_ATTRIBUTE_FAST_MEM static inline lv_color_t lv_color_mix(lv_color_t c1, lv_color_t c2, uint8_t m
 460:Middlewares/lvgl/src/misc/lv_color.h **** {
 461:Middlewares/lvgl/src/misc/lv_color.h ****     lv_color_t ret;
 462:Middlewares/lvgl/src/misc/lv_color.h **** #if LV_COLOR_DEPTH != 1
 463:Middlewares/lvgl/src/misc/lv_color.h ****     /*LV_COLOR_DEPTH == 8, 16 or 32*/
 464:Middlewares/lvgl/src/misc/lv_color.h ****     LV_COLOR_SET_R(ret, LV_UDIV255((uint16_t) LV_COLOR_GET_R(c1) * mix + LV_COLOR_GET_R(c2) *
 465:Middlewares/lvgl/src/misc/lv_color.h ****                                         (255 - mix) + LV_COLOR_MIX_ROUND_OFS));
 466:Middlewares/lvgl/src/misc/lv_color.h ****     LV_COLOR_SET_G(ret, LV_UDIV255((uint16_t) LV_COLOR_GET_G(c1) * mix + LV_COLOR_GET_G(c2) *
 467:Middlewares/lvgl/src/misc/lv_color.h ****                                         (255 - mix) + LV_COLOR_MIX_ROUND_OFS));
 468:Middlewares/lvgl/src/misc/lv_color.h ****     LV_COLOR_SET_B(ret, LV_UDIV255((uint16_t) LV_COLOR_GET_B(c1) * mix + LV_COLOR_GET_B(c2) *
 469:Middlewares/lvgl/src/misc/lv_color.h ****                                         (255 - mix) + LV_COLOR_MIX_ROUND_OFS));
 470:Middlewares/lvgl/src/misc/lv_color.h ****     LV_COLOR_SET_A(ret, 0xFF);
 471:Middlewares/lvgl/src/misc/lv_color.h **** #else
 472:Middlewares/lvgl/src/misc/lv_color.h ****     /*LV_COLOR_DEPTH == 1*/
 473:Middlewares/lvgl/src/misc/lv_color.h ****     ret.full = mix > LV_OPA_50 ? c1.full : c2.full;
 474:Middlewares/lvgl/src/misc/lv_color.h **** #endif
 475:Middlewares/lvgl/src/misc/lv_color.h **** 
 476:Middlewares/lvgl/src/misc/lv_color.h ****     return ret;
 477:Middlewares/lvgl/src/misc/lv_color.h **** }
 478:Middlewares/lvgl/src/misc/lv_color.h **** 
 479:Middlewares/lvgl/src/misc/lv_color.h **** LV_ATTRIBUTE_FAST_MEM static inline void lv_color_premult(lv_color_t c, uint8_t mix, uint16_t * out
 480:Middlewares/lvgl/src/misc/lv_color.h **** {
 481:Middlewares/lvgl/src/misc/lv_color.h **** #if LV_COLOR_DEPTH != 1
 482:Middlewares/lvgl/src/misc/lv_color.h ****     out[0] = (uint16_t) LV_COLOR_GET_R(c) * mix;
 483:Middlewares/lvgl/src/misc/lv_color.h ****     out[1] = (uint16_t) LV_COLOR_GET_G(c) * mix;
 484:Middlewares/lvgl/src/misc/lv_color.h ****     out[2] = (uint16_t) LV_COLOR_GET_B(c) * mix;
 485:Middlewares/lvgl/src/misc/lv_color.h **** #else
 486:Middlewares/lvgl/src/misc/lv_color.h ****     (void) mix;
 487:Middlewares/lvgl/src/misc/lv_color.h ****     /*Pre-multiplication can't be used with 1 bpp*/
 488:Middlewares/lvgl/src/misc/lv_color.h ****     out[0] = LV_COLOR_GET_R(c);
 489:Middlewares/lvgl/src/misc/lv_color.h ****     out[1] = LV_COLOR_GET_G(c);
 490:Middlewares/lvgl/src/misc/lv_color.h ****     out[2] = LV_COLOR_GET_B(c);
 491:Middlewares/lvgl/src/misc/lv_color.h **** #endif
 492:Middlewares/lvgl/src/misc/lv_color.h **** 
 493:Middlewares/lvgl/src/misc/lv_color.h **** }
 494:Middlewares/lvgl/src/misc/lv_color.h **** 
 495:Middlewares/lvgl/src/misc/lv_color.h **** /**
 496:Middlewares/lvgl/src/misc/lv_color.h ****  * Mix two colors with a given ratio. It runs faster then `lv_color_mix` but requires some pre comp
 497:Middlewares/lvgl/src/misc/lv_color.h ****  * @param premult_c1 The first color. Should be preprocessed with `lv_color_premult(c1)`
 498:Middlewares/lvgl/src/misc/lv_color.h ****  * @param c2 The second color. As it is no pre computation required on it
 499:Middlewares/lvgl/src/misc/lv_color.h ****  * @param mix The ratio of the colors. 0: full `c1`, 255: full `c2`, 127: half `c1` and half `c2`.
 500:Middlewares/lvgl/src/misc/lv_color.h ****  *            Should be modified like mix = `255 - mix`
 501:Middlewares/lvgl/src/misc/lv_color.h ****  * @return the mixed color
 502:Middlewares/lvgl/src/misc/lv_color.h ****  * @note 255 won't give clearly `c1`.
 503:Middlewares/lvgl/src/misc/lv_color.h ****  */
 504:Middlewares/lvgl/src/misc/lv_color.h **** LV_ATTRIBUTE_FAST_MEM static inline lv_color_t lv_color_mix_premult(uint16_t * premult_c1, lv_color
 505:Middlewares/lvgl/src/misc/lv_color.h **** {
 506:Middlewares/lvgl/src/misc/lv_color.h ****     lv_color_t ret;
 507:Middlewares/lvgl/src/misc/lv_color.h **** #if LV_COLOR_DEPTH != 1
ARM GAS  /tmp/ccWgnKW2.s 			page 38


 508:Middlewares/lvgl/src/misc/lv_color.h ****     /*LV_COLOR_DEPTH == 8, 16 or 32*/
 509:Middlewares/lvgl/src/misc/lv_color.h ****     LV_COLOR_SET_R(ret, LV_UDIV255(premult_c1[0] + LV_COLOR_GET_R(c2) * mix + LV_COLOR_MIX_ROUND_OF
 510:Middlewares/lvgl/src/misc/lv_color.h ****     LV_COLOR_SET_G(ret, LV_UDIV255(premult_c1[1] + LV_COLOR_GET_G(c2) * mix + LV_COLOR_MIX_ROUND_OF
 511:Middlewares/lvgl/src/misc/lv_color.h ****     LV_COLOR_SET_B(ret, LV_UDIV255(premult_c1[2] + LV_COLOR_GET_B(c2) * mix + LV_COLOR_MIX_ROUND_OF
 512:Middlewares/lvgl/src/misc/lv_color.h ****     LV_COLOR_SET_A(ret, 0xFF);
 513:Middlewares/lvgl/src/misc/lv_color.h **** #else
 514:Middlewares/lvgl/src/misc/lv_color.h ****     /*LV_COLOR_DEPTH == 1*/
 515:Middlewares/lvgl/src/misc/lv_color.h ****     /*Restore color1*/
 516:Middlewares/lvgl/src/misc/lv_color.h ****     lv_color_t c1;
 517:Middlewares/lvgl/src/misc/lv_color.h ****     LV_COLOR_SET_R(c1, premult_c1[0]);
 518:Middlewares/lvgl/src/misc/lv_color.h ****     LV_COLOR_SET_G(c1, premult_c1[1]);
 519:Middlewares/lvgl/src/misc/lv_color.h ****     LV_COLOR_SET_B(c1, premult_c1[2]);
 520:Middlewares/lvgl/src/misc/lv_color.h ****     ret.full = mix > LV_OPA_50 ? c2.full : c1.full;
 521:Middlewares/lvgl/src/misc/lv_color.h **** #endif
 522:Middlewares/lvgl/src/misc/lv_color.h **** 
 523:Middlewares/lvgl/src/misc/lv_color.h ****     return ret;
 524:Middlewares/lvgl/src/misc/lv_color.h **** }
 525:Middlewares/lvgl/src/misc/lv_color.h **** 
 526:Middlewares/lvgl/src/misc/lv_color.h **** /**
 527:Middlewares/lvgl/src/misc/lv_color.h ****  * Mix two colors. Both color can have alpha value.
 528:Middlewares/lvgl/src/misc/lv_color.h ****  * @param bg_color background color
 529:Middlewares/lvgl/src/misc/lv_color.h ****  * @param bg_opa alpha of the background color
 530:Middlewares/lvgl/src/misc/lv_color.h ****  * @param fg_color foreground color
 531:Middlewares/lvgl/src/misc/lv_color.h ****  * @param fg_opa alpha of the foreground color
 532:Middlewares/lvgl/src/misc/lv_color.h ****  * @param res_color the result color
 533:Middlewares/lvgl/src/misc/lv_color.h ****  * @param res_opa the result opacity
 534:Middlewares/lvgl/src/misc/lv_color.h ****  */
 535:Middlewares/lvgl/src/misc/lv_color.h **** LV_ATTRIBUTE_FAST_MEM static inline void lv_color_mix_with_alpha(lv_color_t bg_color, lv_opa_t bg_o
 536:Middlewares/lvgl/src/misc/lv_color.h ****                                                                  lv_color_t fg_color, lv_opa_t fg_o
 537:Middlewares/lvgl/src/misc/lv_color.h ****                                                                  lv_color_t * res_color, lv_opa_t *
 538:Middlewares/lvgl/src/misc/lv_color.h **** {
 539:Middlewares/lvgl/src/misc/lv_color.h ****     /*Pick the foreground if it's fully opaque or the Background is fully transparent*/
 540:Middlewares/lvgl/src/misc/lv_color.h ****     if(fg_opa >= LV_OPA_MAX || bg_opa <= LV_OPA_MIN) {
 541:Middlewares/lvgl/src/misc/lv_color.h ****         res_color->full = fg_color.full;
 542:Middlewares/lvgl/src/misc/lv_color.h ****         *res_opa = fg_opa;
 543:Middlewares/lvgl/src/misc/lv_color.h ****     }
 544:Middlewares/lvgl/src/misc/lv_color.h ****     /*Transparent foreground: use the Background*/
 545:Middlewares/lvgl/src/misc/lv_color.h ****     else if(fg_opa <= LV_OPA_MIN) {
 546:Middlewares/lvgl/src/misc/lv_color.h ****         res_color->full = bg_color.full;
 547:Middlewares/lvgl/src/misc/lv_color.h ****         *res_opa = bg_opa;
 548:Middlewares/lvgl/src/misc/lv_color.h ****     }
 549:Middlewares/lvgl/src/misc/lv_color.h ****     /*Opaque background: use simple mix*/
 550:Middlewares/lvgl/src/misc/lv_color.h ****     else if(bg_opa >= LV_OPA_MAX) {
 551:Middlewares/lvgl/src/misc/lv_color.h ****         *res_color = lv_color_mix(fg_color, bg_color, fg_opa);
 552:Middlewares/lvgl/src/misc/lv_color.h ****         *res_opa = LV_OPA_COVER;
 553:Middlewares/lvgl/src/misc/lv_color.h ****     }
 554:Middlewares/lvgl/src/misc/lv_color.h ****     /*Both colors have alpha. Expensive calculation need to be applied*/
 555:Middlewares/lvgl/src/misc/lv_color.h ****     else {
 556:Middlewares/lvgl/src/misc/lv_color.h ****         /*Save the parameters and the result. If they will be asked again don't compute again*/
 557:Middlewares/lvgl/src/misc/lv_color.h ****         static lv_opa_t fg_opa_save     = 0;
 558:Middlewares/lvgl/src/misc/lv_color.h ****         static lv_opa_t bg_opa_save     = 0;
 559:Middlewares/lvgl/src/misc/lv_color.h ****         static lv_color_t fg_color_save = _LV_COLOR_ZERO_INITIALIZER;
 560:Middlewares/lvgl/src/misc/lv_color.h ****         static lv_color_t bg_color_save = _LV_COLOR_ZERO_INITIALIZER;
 561:Middlewares/lvgl/src/misc/lv_color.h ****         static lv_color_t res_color_saved = _LV_COLOR_ZERO_INITIALIZER;
 562:Middlewares/lvgl/src/misc/lv_color.h ****         static lv_opa_t res_opa_saved = 0;
 563:Middlewares/lvgl/src/misc/lv_color.h **** 
 564:Middlewares/lvgl/src/misc/lv_color.h ****         if(fg_opa != fg_opa_save || bg_opa != bg_opa_save || fg_color.full != fg_color_save.full ||
ARM GAS  /tmp/ccWgnKW2.s 			page 39


 565:Middlewares/lvgl/src/misc/lv_color.h ****            bg_color.full != bg_color_save.full) {
 566:Middlewares/lvgl/src/misc/lv_color.h ****             fg_opa_save        = fg_opa;
 567:Middlewares/lvgl/src/misc/lv_color.h ****             bg_opa_save        = bg_opa;
 568:Middlewares/lvgl/src/misc/lv_color.h ****             fg_color_save.full = fg_color.full;
 569:Middlewares/lvgl/src/misc/lv_color.h ****             bg_color_save.full = bg_color.full;
 570:Middlewares/lvgl/src/misc/lv_color.h ****             /*Info:
 571:Middlewares/lvgl/src/misc/lv_color.h ****              * https://en.wikipedia.org/wiki/Alpha_compositing#Analytical_derivation_of_the_over_op
 572:Middlewares/lvgl/src/misc/lv_color.h ****             res_opa_saved = 255 - ((uint16_t)((uint16_t)(255 - fg_opa) * (255 - bg_opa)) >> 8);
 573:Middlewares/lvgl/src/misc/lv_color.h ****             if(res_opa_saved == 0) {
 574:Middlewares/lvgl/src/misc/lv_color.h ****                 while(1)
 575:Middlewares/lvgl/src/misc/lv_color.h ****                     ;
 576:Middlewares/lvgl/src/misc/lv_color.h ****             }
 577:Middlewares/lvgl/src/misc/lv_color.h ****             lv_opa_t ratio = (uint16_t)((uint16_t)fg_opa * 255) / res_opa_saved;
 578:Middlewares/lvgl/src/misc/lv_color.h ****             res_color_saved = lv_color_mix(fg_color, bg_color, ratio);
 579:Middlewares/lvgl/src/misc/lv_color.h **** 
 580:Middlewares/lvgl/src/misc/lv_color.h ****         }
 581:Middlewares/lvgl/src/misc/lv_color.h **** 
 582:Middlewares/lvgl/src/misc/lv_color.h ****         res_color->full = res_color_saved.full;
 583:Middlewares/lvgl/src/misc/lv_color.h ****         *res_opa = res_opa_saved;
 584:Middlewares/lvgl/src/misc/lv_color.h ****     }
 585:Middlewares/lvgl/src/misc/lv_color.h **** }
 586:Middlewares/lvgl/src/misc/lv_color.h **** 
 587:Middlewares/lvgl/src/misc/lv_color.h **** //! @endcond
 588:Middlewares/lvgl/src/misc/lv_color.h **** 
 589:Middlewares/lvgl/src/misc/lv_color.h **** /**
 590:Middlewares/lvgl/src/misc/lv_color.h ****  * Get the brightness of a color
 591:Middlewares/lvgl/src/misc/lv_color.h ****  * @param color a color
 592:Middlewares/lvgl/src/misc/lv_color.h ****  * @return the brightness [0..255]
 593:Middlewares/lvgl/src/misc/lv_color.h ****  */
 594:Middlewares/lvgl/src/misc/lv_color.h **** static inline uint8_t lv_color_brightness(lv_color_t color)
 595:Middlewares/lvgl/src/misc/lv_color.h **** {
 596:Middlewares/lvgl/src/misc/lv_color.h ****     lv_color32_t c32;
 597:Middlewares/lvgl/src/misc/lv_color.h ****     c32.full        = lv_color_to32(color);
 598:Middlewares/lvgl/src/misc/lv_color.h ****     uint16_t bright = (uint16_t)(3u * LV_COLOR_GET_R32(c32) + LV_COLOR_GET_B32(c32) + 4u * LV_COLOR
 599:Middlewares/lvgl/src/misc/lv_color.h ****     return (uint8_t)(bright >> 3);
 600:Middlewares/lvgl/src/misc/lv_color.h **** }
 601:Middlewares/lvgl/src/misc/lv_color.h **** 
 602:Middlewares/lvgl/src/misc/lv_color.h **** static inline lv_color_t lv_color_make(uint8_t r, uint8_t g, uint8_t b)
 603:Middlewares/lvgl/src/misc/lv_color.h **** {
 604:Middlewares/lvgl/src/misc/lv_color.h ****     return _LV_COLOR_MAKE_TYPE_HELPER LV_COLOR_MAKE(r, g, b);
 605:Middlewares/lvgl/src/misc/lv_color.h **** }
 606:Middlewares/lvgl/src/misc/lv_color.h **** 
 607:Middlewares/lvgl/src/misc/lv_color.h **** static inline lv_color_t lv_color_hex(uint32_t c)
 608:Middlewares/lvgl/src/misc/lv_color.h **** {
 609:Middlewares/lvgl/src/misc/lv_color.h ****     return lv_color_make((uint8_t)((c >> 16) & 0xFF), (uint8_t)((c >> 8) & 0xFF), (uint8_t)(c & 0xF
 610:Middlewares/lvgl/src/misc/lv_color.h **** }
 611:Middlewares/lvgl/src/misc/lv_color.h **** 
 612:Middlewares/lvgl/src/misc/lv_color.h **** static inline lv_color_t lv_color_hex3(uint32_t c)
 613:Middlewares/lvgl/src/misc/lv_color.h **** {
 614:Middlewares/lvgl/src/misc/lv_color.h ****     return lv_color_make((uint8_t)(((c >> 4) & 0xF0) | ((c >> 8) & 0xF)), (uint8_t)((c & 0xF0) | ((
 615:Middlewares/lvgl/src/misc/lv_color.h ****                          (uint8_t)((c & 0xF) | ((c & 0xF) << 4)));
 616:Middlewares/lvgl/src/misc/lv_color.h **** }
 617:Middlewares/lvgl/src/misc/lv_color.h **** 
 618:Middlewares/lvgl/src/misc/lv_color.h **** static inline void lv_color_filter_dsc_init(lv_color_filter_dsc_t * dsc, lv_color_filter_cb_t cb)
 619:Middlewares/lvgl/src/misc/lv_color.h **** {
 620:Middlewares/lvgl/src/misc/lv_color.h ****     dsc->filter_cb = cb;
 621:Middlewares/lvgl/src/misc/lv_color.h **** }
ARM GAS  /tmp/ccWgnKW2.s 			page 40


 622:Middlewares/lvgl/src/misc/lv_color.h **** 
 623:Middlewares/lvgl/src/misc/lv_color.h **** //! @cond Doxygen_Suppress
 624:Middlewares/lvgl/src/misc/lv_color.h **** //!
 625:Middlewares/lvgl/src/misc/lv_color.h **** LV_ATTRIBUTE_FAST_MEM void lv_color_fill(lv_color_t * buf, lv_color_t color, uint32_t px_num);
 626:Middlewares/lvgl/src/misc/lv_color.h **** 
 627:Middlewares/lvgl/src/misc/lv_color.h **** //! @endcond
 628:Middlewares/lvgl/src/misc/lv_color.h **** lv_color_t lv_color_lighten(lv_color_t c, lv_opa_t lvl);
 629:Middlewares/lvgl/src/misc/lv_color.h **** 
 630:Middlewares/lvgl/src/misc/lv_color.h **** lv_color_t lv_color_darken(lv_color_t c, lv_opa_t lvl);
 631:Middlewares/lvgl/src/misc/lv_color.h **** 
 632:Middlewares/lvgl/src/misc/lv_color.h **** lv_color_t lv_color_change_lightness(lv_color_t c, lv_opa_t lvl);
 633:Middlewares/lvgl/src/misc/lv_color.h **** 
 634:Middlewares/lvgl/src/misc/lv_color.h **** /**
 635:Middlewares/lvgl/src/misc/lv_color.h ****  * Convert a HSV color to RGB
 636:Middlewares/lvgl/src/misc/lv_color.h ****  * @param h hue [0..359]
 637:Middlewares/lvgl/src/misc/lv_color.h ****  * @param s saturation [0..100]
 638:Middlewares/lvgl/src/misc/lv_color.h ****  * @param v value [0..100]
 639:Middlewares/lvgl/src/misc/lv_color.h ****  * @return the given RGB color in RGB (with LV_COLOR_DEPTH depth)
 640:Middlewares/lvgl/src/misc/lv_color.h ****  */
 641:Middlewares/lvgl/src/misc/lv_color.h **** lv_color_t lv_color_hsv_to_rgb(uint16_t h, uint8_t s, uint8_t v);
 642:Middlewares/lvgl/src/misc/lv_color.h **** 
 643:Middlewares/lvgl/src/misc/lv_color.h **** /**
 644:Middlewares/lvgl/src/misc/lv_color.h ****  * Convert a 32-bit RGB color to HSV
 645:Middlewares/lvgl/src/misc/lv_color.h ****  * @param r8 8-bit red
 646:Middlewares/lvgl/src/misc/lv_color.h ****  * @param g8 8-bit green
 647:Middlewares/lvgl/src/misc/lv_color.h ****  * @param b8 8-bit blue
 648:Middlewares/lvgl/src/misc/lv_color.h ****  * @return the given RGB color in HSV
 649:Middlewares/lvgl/src/misc/lv_color.h ****  */
 650:Middlewares/lvgl/src/misc/lv_color.h **** lv_color_hsv_t lv_color_rgb_to_hsv(uint8_t r8, uint8_t g8, uint8_t b8);
 651:Middlewares/lvgl/src/misc/lv_color.h **** 
 652:Middlewares/lvgl/src/misc/lv_color.h **** /**
 653:Middlewares/lvgl/src/misc/lv_color.h ****  * Convert a color to HSV
 654:Middlewares/lvgl/src/misc/lv_color.h ****  * @param color color
 655:Middlewares/lvgl/src/misc/lv_color.h ****  * @return the given color in HSV
 656:Middlewares/lvgl/src/misc/lv_color.h ****  */
 657:Middlewares/lvgl/src/misc/lv_color.h **** lv_color_hsv_t lv_color_to_hsv(lv_color_t color);
 658:Middlewares/lvgl/src/misc/lv_color.h **** 
 659:Middlewares/lvgl/src/misc/lv_color.h **** /**
 660:Middlewares/lvgl/src/misc/lv_color.h ****  * Just a wrapper around LV_COLOR_CHROMA_KEY because it might be more convenient to use a function 
 661:Middlewares/lvgl/src/misc/lv_color.h ****  * @return LV_COLOR_CHROMA_KEY
 662:Middlewares/lvgl/src/misc/lv_color.h ****  */
 663:Middlewares/lvgl/src/misc/lv_color.h **** static inline lv_color_t lv_color_chroma_key(void)
 664:Middlewares/lvgl/src/misc/lv_color.h **** {
 665:Middlewares/lvgl/src/misc/lv_color.h ****     return LV_COLOR_CHROMA_KEY;
 666:Middlewares/lvgl/src/misc/lv_color.h **** }
 667:Middlewares/lvgl/src/misc/lv_color.h **** 
 668:Middlewares/lvgl/src/misc/lv_color.h **** /**********************
 669:Middlewares/lvgl/src/misc/lv_color.h ****  *  PREDEFINED COLORS
 670:Middlewares/lvgl/src/misc/lv_color.h ****  **********************/
 671:Middlewares/lvgl/src/misc/lv_color.h **** /*Source: https://vuetifyjs.com/en/styles/colors/#material-colors*/
 672:Middlewares/lvgl/src/misc/lv_color.h **** 
 673:Middlewares/lvgl/src/misc/lv_color.h **** lv_color_t lv_palette_main(lv_palette_t p);
 674:Middlewares/lvgl/src/misc/lv_color.h **** static inline lv_color_t lv_color_white(void) { return lv_color_make(0xff, 0xff, 0xff);}
 862              		.loc 3 674 26 view .LVU241
 863              	.LBB29:
 864              		.loc 3 674 49 view .LVU242
 865              	.LVL77:
ARM GAS  /tmp/ccWgnKW2.s 			page 41


 866              	.LBB30:
 867              	.LBI30:
 602:Middlewares/lvgl/src/misc/lv_color.h **** {
 868              		.loc 3 602 26 view .LVU243
 869              	.LBB31:
 604:Middlewares/lvgl/src/misc/lv_color.h **** }
 870              		.loc 3 604 5 view .LVU244
 604:Middlewares/lvgl/src/misc/lv_color.h **** }
 871              		.loc 3 604 5 is_stmt 0 view .LVU245
 872 013c 0020     		movs	r0, #0
 604:Middlewares/lvgl/src/misc/lv_color.h **** }
 873              		.loc 3 604 5 view .LVU246
 874 013e 4FF6FF73 		movw	r3, #65535
 875 0142 63F30F00 		bfi	r0, r3, #0, #16
 876              	.LVL78:
 877              	.LVL79:
 604:Middlewares/lvgl/src/misc/lv_color.h **** }
 878              		.loc 3 604 5 view .LVU247
 879              	.LBE31:
 880              	.LBE30:
 881              		.loc 3 674 56 view .LVU248
 882 0146 7047     		bx	lr
 883              	.L71:
 884              	.LBE29:
 885              	.LBE28:
 249:Middlewares/lvgl/src/misc/lv_style.c ****             break;
 886              		.loc 1 249 13 is_stmt 1 view .LVU249
 249:Middlewares/lvgl/src/misc/lv_style.c ****             break;
 887              		.loc 1 249 23 is_stmt 0 view .LVU250
 888 0148 FF20     		movs	r0, #255
 250:Middlewares/lvgl/src/misc/lv_style.c ****         case LV_STYLE_BORDER_SIDE:
 889              		.loc 1 250 13 is_stmt 1 view .LVU251
 890 014a 7047     		bx	lr
 891              	.L70:
 252:Middlewares/lvgl/src/misc/lv_style.c ****             break;
 892              		.loc 1 252 13 view .LVU252
 252:Middlewares/lvgl/src/misc/lv_style.c ****             break;
 893              		.loc 1 252 23 is_stmt 0 view .LVU253
 894 014c 0F20     		movs	r0, #15
 253:Middlewares/lvgl/src/misc/lv_style.c ****         case LV_STYLE_TEXT_FONT:
 895              		.loc 1 253 13 is_stmt 1 view .LVU254
 896 014e 7047     		bx	lr
 897              	.LVL80:
 898              	.L73:
 259:Middlewares/lvgl/src/misc/lv_style.c ****             break;
 899              		.loc 1 259 13 view .LVU255
 259:Middlewares/lvgl/src/misc/lv_style.c ****             break;
 900              		.loc 1 259 23 is_stmt 0 view .LVU256
 901 0150 4FF4C040 		mov	r0, #24576
 902              	.LVL81:
 260:Middlewares/lvgl/src/misc/lv_style.c ****         default:
 903              		.loc 1 260 13 is_stmt 1 view .LVU257
 904 0154 7047     		bx	lr
 905              	.L84:
 906 0156 00BF     		.align	2
 907              	.L83:
 908 0158 00000000 		.word	lv_font_montserrat_14
ARM GAS  /tmp/ccWgnKW2.s 			page 42


 909              		.cfi_endproc
 910              	.LFE55:
 912              		.section	.text.lv_style_is_empty,"ax",%progbits
 913              		.align	1
 914              		.global	lv_style_is_empty
 915              		.syntax unified
 916              		.thumb
 917              		.thumb_func
 918              		.fpu fpv4-sp-d16
 920              	lv_style_is_empty:
 921              	.LVL82:
 922              	.LFB56:
 269:Middlewares/lvgl/src/misc/lv_style.c **** 
 270:Middlewares/lvgl/src/misc/lv_style.c **** bool lv_style_is_empty(const lv_style_t * style)
 271:Middlewares/lvgl/src/misc/lv_style.c **** {
 923              		.loc 1 271 1 view -0
 924              		.cfi_startproc
 925              		@ args = 0, pretend = 0, frame = 0
 926              		@ frame_needed = 0, uses_anonymous_args = 0
 927              		@ link register save eliminated.
 272:Middlewares/lvgl/src/misc/lv_style.c ****     LV_ASSERT_STYLE(style);
 928              		.loc 1 272 27 view .LVU259
 273:Middlewares/lvgl/src/misc/lv_style.c **** 
 274:Middlewares/lvgl/src/misc/lv_style.c ****     return style->prop_cnt == 0 ? true : false;
 929              		.loc 1 274 5 view .LVU260
 930              		.loc 1 274 17 is_stmt 0 view .LVU261
 931 0000 C079     		ldrb	r0, [r0, #7]	@ zero_extendqisi2
 932              	.LVL83:
 275:Middlewares/lvgl/src/misc/lv_style.c **** }
 933              		.loc 1 275 1 view .LVU262
 934 0002 B0FA80F0 		clz	r0, r0
 935 0006 4009     		lsrs	r0, r0, #5
 936 0008 7047     		bx	lr
 937              		.cfi_endproc
 938              	.LFE56:
 940              		.section	.text._lv_style_get_prop_group,"ax",%progbits
 941              		.align	1
 942              		.global	_lv_style_get_prop_group
 943              		.syntax unified
 944              		.thumb
 945              		.thumb_func
 946              		.fpu fpv4-sp-d16
 948              	_lv_style_get_prop_group:
 949              	.LVL84:
 950              	.LFB57:
 276:Middlewares/lvgl/src/misc/lv_style.c **** 
 277:Middlewares/lvgl/src/misc/lv_style.c **** uint8_t _lv_style_get_prop_group(lv_style_prop_t prop)
 278:Middlewares/lvgl/src/misc/lv_style.c **** {
 951              		.loc 1 278 1 is_stmt 1 view -0
 952              		.cfi_startproc
 953              		@ args = 0, pretend = 0, frame = 0
 954              		@ frame_needed = 0, uses_anonymous_args = 0
 955              		@ link register save eliminated.
 279:Middlewares/lvgl/src/misc/lv_style.c ****     uint16_t group = (prop & 0x1FF) >> 4;
 956              		.loc 1 279 5 view .LVU264
 957              		.loc 1 279 37 is_stmt 0 view .LVU265
 958 0000 0309     		lsrs	r3, r0, #4
ARM GAS  /tmp/ccWgnKW2.s 			page 43


 959              		.loc 1 279 14 view .LVU266
 960 0002 C0F30410 		ubfx	r0, r0, #4, #5
 961              	.LVL85:
 280:Middlewares/lvgl/src/misc/lv_style.c ****     if(group > 7) group = 7;    /*The MSB marks all the custom properties*/
 962              		.loc 1 280 5 is_stmt 1 view .LVU267
 963              		.loc 1 280 7 is_stmt 0 view .LVU268
 964 0006 13F0180F 		tst	r3, #24
 965 000a 00D0     		beq	.L87
 966              		.loc 1 280 25 view .LVU269
 967 000c 0720     		movs	r0, #7
 968              	.LVL86:
 969              	.L87:
 281:Middlewares/lvgl/src/misc/lv_style.c ****     return (uint8_t)group;
 970              		.loc 1 281 5 is_stmt 1 view .LVU270
 282:Middlewares/lvgl/src/misc/lv_style.c **** }
 971              		.loc 1 282 1 is_stmt 0 view .LVU271
 972 000e 7047     		bx	lr
 973              		.cfi_endproc
 974              	.LFE57:
 976              		.section	.text.lv_style_set_prop,"ax",%progbits
 977              		.align	1
 978              		.global	lv_style_set_prop
 979              		.syntax unified
 980              		.thumb
 981              		.thumb_func
 982              		.fpu fpv4-sp-d16
 984              	lv_style_set_prop:
 985              	.LVL87:
 986              	.LFB52:
 138:Middlewares/lvgl/src/misc/lv_style.c ****     LV_ASSERT_STYLE(style);
 987              		.loc 1 138 1 is_stmt 1 view -0
 988              		.cfi_startproc
 989              		@ args = 0, pretend = 0, frame = 0
 990              		@ frame_needed = 0, uses_anonymous_args = 0
 138:Middlewares/lvgl/src/misc/lv_style.c ****     LV_ASSERT_STYLE(style);
 991              		.loc 1 138 1 is_stmt 0 view .LVU273
 992 0000 F8B5     		push	{r3, r4, r5, r6, r7, lr}
 993              	.LCFI9:
 994              		.cfi_def_cfa_offset 24
 995              		.cfi_offset 3, -24
 996              		.cfi_offset 4, -20
 997              		.cfi_offset 5, -16
 998              		.cfi_offset 6, -12
 999              		.cfi_offset 7, -8
 1000              		.cfi_offset 14, -4
 139:Middlewares/lvgl/src/misc/lv_style.c **** 
 1001              		.loc 1 139 27 is_stmt 1 view .LVU274
 141:Middlewares/lvgl/src/misc/lv_style.c ****         LV_LOG_ERROR("Cannot set property of constant style");
 1002              		.loc 1 141 5 view .LVU275
 141:Middlewares/lvgl/src/misc/lv_style.c ****         LV_LOG_ERROR("Cannot set property of constant style");
 1003              		.loc 1 141 7 is_stmt 0 view .LVU276
 1004 0002 90F90530 		ldrsb	r3, [r0, #5]
 1005 0006 002B     		cmp	r3, #0
 1006 0008 50DB     		blt	.L89
 1007 000a 0446     		mov	r4, r0
 1008 000c 0D46     		mov	r5, r1
 1009 000e 1646     		mov	r6, r2
ARM GAS  /tmp/ccWgnKW2.s 			page 44


 1010              	.LVL88:
 146:Middlewares/lvgl/src/misc/lv_style.c ****         uint8_t * tmp = style->v_p.values_and_props + style->prop_cnt * sizeof(lv_style_value_t);
 1011              		.loc 1 146 5 is_stmt 1 view .LVU277
 146:Middlewares/lvgl/src/misc/lv_style.c ****         uint8_t * tmp = style->v_p.values_and_props + style->prop_cnt * sizeof(lv_style_value_t);
 1012              		.loc 1 146 13 is_stmt 0 view .LVU278
 1013 0010 C279     		ldrb	r2, [r0, #7]	@ zero_extendqisi2
 146:Middlewares/lvgl/src/misc/lv_style.c ****         uint8_t * tmp = style->v_p.values_and_props + style->prop_cnt * sizeof(lv_style_value_t);
 1014              		.loc 1 146 7 view .LVU279
 1015 0012 012A     		cmp	r2, #1
 1016 0014 39D9     		bls	.L91
 1017              	.LBB32:
 147:Middlewares/lvgl/src/misc/lv_style.c ****         uint16_t * props = (uint16_t *)tmp;
 1018              		.loc 1 147 9 is_stmt 1 view .LVU280
 147:Middlewares/lvgl/src/misc/lv_style.c ****         uint16_t * props = (uint16_t *)tmp;
 1019              		.loc 1 147 35 is_stmt 0 view .LVU281
 1020 0016 0068     		ldr	r0, [r0]
 1021              	.LVL89:
 147:Middlewares/lvgl/src/misc/lv_style.c ****         uint16_t * props = (uint16_t *)tmp;
 1022              		.loc 1 147 71 view .LVU282
 1023 0018 4FEA820C 		lsl	ip, r2, #2
 1024              	.LVL90:
 148:Middlewares/lvgl/src/misc/lv_style.c ****         int32_t i;
 1025              		.loc 1 148 9 is_stmt 1 view .LVU283
 149:Middlewares/lvgl/src/misc/lv_style.c ****         for(i = style->prop_cnt - 1; i >= 0; i--) {
 1026              		.loc 1 149 9 view .LVU284
 150:Middlewares/lvgl/src/misc/lv_style.c ****             if(props[i] == prop) {
 1027              		.loc 1 150 9 view .LVU285
 150:Middlewares/lvgl/src/misc/lv_style.c ****             if(props[i] == prop) {
 1028              		.loc 1 150 15 is_stmt 0 view .LVU286
 1029 001c 531E     		subs	r3, r2, #1
 1030              	.LVL91:
 1031              	.L92:
 150:Middlewares/lvgl/src/misc/lv_style.c ****             if(props[i] == prop) {
 1032              		.loc 1 150 38 is_stmt 1 discriminator 1 view .LVU287
 150:Middlewares/lvgl/src/misc/lv_style.c ****             if(props[i] == prop) {
 1033              		.loc 1 150 9 is_stmt 0 discriminator 1 view .LVU288
 1034 001e 002B     		cmp	r3, #0
 1035 0020 0BDB     		blt	.L102
 151:Middlewares/lvgl/src/misc/lv_style.c ****                 lv_style_value_t * values = (lv_style_value_t *)style->v_p.values_and_props;
 1036              		.loc 1 151 13 is_stmt 1 view .LVU289
 151:Middlewares/lvgl/src/misc/lv_style.c ****                 lv_style_value_t * values = (lv_style_value_t *)style->v_p.values_and_props;
 1037              		.loc 1 151 21 is_stmt 0 view .LVU290
 1038 0022 9E46     		mov	lr, r3
 1039 0024 00EB0C01 		add	r1, r0, ip
 1040 0028 31F81310 		ldrh	r1, [r1, r3, lsl #1]
 151:Middlewares/lvgl/src/misc/lv_style.c ****                 lv_style_value_t * values = (lv_style_value_t *)style->v_p.values_and_props;
 1041              		.loc 1 151 15 view .LVU291
 1042 002c A942     		cmp	r1, r5
 1043 002e 01D0     		beq	.L103
 150:Middlewares/lvgl/src/misc/lv_style.c ****             if(props[i] == prop) {
 1044              		.loc 1 150 46 is_stmt 1 discriminator 2 view .LVU292
 150:Middlewares/lvgl/src/misc/lv_style.c ****             if(props[i] == prop) {
 1045              		.loc 1 150 47 is_stmt 0 discriminator 2 view .LVU293
 1046 0030 013B     		subs	r3, r3, #1
 1047              	.LVL92:
 150:Middlewares/lvgl/src/misc/lv_style.c ****             if(props[i] == prop) {
 1048              		.loc 1 150 47 discriminator 2 view .LVU294
ARM GAS  /tmp/ccWgnKW2.s 			page 45


 1049 0032 F4E7     		b	.L92
 1050              	.L103:
 1051              	.LBB33:
 152:Middlewares/lvgl/src/misc/lv_style.c ****                 values[i] = value;
 1052              		.loc 1 152 17 is_stmt 1 view .LVU295
 1053              	.LVL93:
 153:Middlewares/lvgl/src/misc/lv_style.c ****                 return;
 1054              		.loc 1 153 17 view .LVU296
 153:Middlewares/lvgl/src/misc/lv_style.c ****                 return;
 1055              		.loc 1 153 27 is_stmt 0 view .LVU297
 1056 0034 40F82360 		str	r6, [r0, r3, lsl #2]
 154:Middlewares/lvgl/src/misc/lv_style.c ****             }
 1057              		.loc 1 154 17 is_stmt 1 view .LVU298
 1058 0038 38E0     		b	.L89
 1059              	.LVL94:
 1060              	.L102:
 154:Middlewares/lvgl/src/misc/lv_style.c ****             }
 1061              		.loc 1 154 17 is_stmt 0 view .LVU299
 1062              	.LBE33:
 158:Middlewares/lvgl/src/misc/lv_style.c ****         uint8_t * values_and_props = lv_mem_realloc(style->v_p.values_and_props, size);
 1063              		.loc 1 158 9 is_stmt 1 view .LVU300
 158:Middlewares/lvgl/src/misc/lv_style.c ****         uint8_t * values_and_props = lv_mem_realloc(style->v_p.values_and_props, size);
 1064              		.loc 1 158 40 is_stmt 0 view .LVU301
 1065 003a 0132     		adds	r2, r2, #1
 158:Middlewares/lvgl/src/misc/lv_style.c ****         uint8_t * values_and_props = lv_mem_realloc(style->v_p.values_and_props, size);
 1066              		.loc 1 158 16 view .LVU302
 1067 003c 02EB4202 		add	r2, r2, r2, lsl #1
 1068              	.LVL95:
 159:Middlewares/lvgl/src/misc/lv_style.c ****         if(values_and_props == NULL) return;
 1069              		.loc 1 159 9 is_stmt 1 view .LVU303
 159:Middlewares/lvgl/src/misc/lv_style.c ****         if(values_and_props == NULL) return;
 1070              		.loc 1 159 38 is_stmt 0 view .LVU304
 1071 0040 5100     		lsls	r1, r2, #1
 1072              	.LVL96:
 159:Middlewares/lvgl/src/misc/lv_style.c ****         if(values_and_props == NULL) return;
 1073              		.loc 1 159 38 view .LVU305
 1074 0042 FFF7FEFF 		bl	lv_mem_realloc
 1075              	.LVL97:
 160:Middlewares/lvgl/src/misc/lv_style.c ****         style->v_p.values_and_props = values_and_props;
 1076              		.loc 1 160 9 is_stmt 1 view .LVU306
 160:Middlewares/lvgl/src/misc/lv_style.c ****         style->v_p.values_and_props = values_and_props;
 1077              		.loc 1 160 11 is_stmt 0 view .LVU307
 1078 0046 0746     		mov	r7, r0
 1079 0048 80B3     		cbz	r0, .L89
 161:Middlewares/lvgl/src/misc/lv_style.c **** 
 1080              		.loc 1 161 9 is_stmt 1 view .LVU308
 161:Middlewares/lvgl/src/misc/lv_style.c **** 
 1081              		.loc 1 161 37 is_stmt 0 view .LVU309
 1082 004a 2060     		str	r0, [r4]
 163:Middlewares/lvgl/src/misc/lv_style.c ****         props = (uint16_t *)tmp;
 1083              		.loc 1 163 9 is_stmt 1 view .LVU310
 163:Middlewares/lvgl/src/misc/lv_style.c ****         props = (uint16_t *)tmp;
 1084              		.loc 1 163 39 is_stmt 0 view .LVU311
 1085 004c E379     		ldrb	r3, [r4, #7]	@ zero_extendqisi2
 163:Middlewares/lvgl/src/misc/lv_style.c ****         props = (uint16_t *)tmp;
 1086              		.loc 1 163 13 view .LVU312
 1087 004e 00EB8302 		add	r2, r0, r3, lsl #2
ARM GAS  /tmp/ccWgnKW2.s 			page 46


 1088              	.LVL98:
 164:Middlewares/lvgl/src/misc/lv_style.c ****         /*Shift all props to make place for the value before them*/
 1089              		.loc 1 164 9 is_stmt 1 view .LVU313
 166:Middlewares/lvgl/src/misc/lv_style.c ****             props[i + sizeof(lv_style_value_t) /sizeof(uint16_t)] = props[i];
 1090              		.loc 1 166 9 view .LVU314
 166:Middlewares/lvgl/src/misc/lv_style.c ****             props[i + sizeof(lv_style_value_t) /sizeof(uint16_t)] = props[i];
 1091              		.loc 1 166 15 is_stmt 0 view .LVU315
 1092 0052 013B     		subs	r3, r3, #1
 1093              	.LVL99:
 166:Middlewares/lvgl/src/misc/lv_style.c ****             props[i + sizeof(lv_style_value_t) /sizeof(uint16_t)] = props[i];
 1094              		.loc 1 166 9 view .LVU316
 1095 0054 05E0     		b	.L95
 1096              	.LVL100:
 1097              	.L96:
 167:Middlewares/lvgl/src/misc/lv_style.c ****         }
 1098              		.loc 1 167 13 is_stmt 1 discriminator 3 view .LVU317
 167:Middlewares/lvgl/src/misc/lv_style.c ****         }
 1099              		.loc 1 167 18 is_stmt 0 discriminator 3 view .LVU318
 1100 0056 991C     		adds	r1, r3, #2
 167:Middlewares/lvgl/src/misc/lv_style.c ****         }
 1101              		.loc 1 167 74 discriminator 3 view .LVU319
 1102 0058 32F81300 		ldrh	r0, [r2, r3, lsl #1]
 167:Middlewares/lvgl/src/misc/lv_style.c ****         }
 1103              		.loc 1 167 67 discriminator 3 view .LVU320
 1104 005c 22F81100 		strh	r0, [r2, r1, lsl #1]	@ movhi
 166:Middlewares/lvgl/src/misc/lv_style.c ****             props[i + sizeof(lv_style_value_t) /sizeof(uint16_t)] = props[i];
 1105              		.loc 1 166 46 is_stmt 1 discriminator 3 view .LVU321
 166:Middlewares/lvgl/src/misc/lv_style.c ****             props[i + sizeof(lv_style_value_t) /sizeof(uint16_t)] = props[i];
 1106              		.loc 1 166 47 is_stmt 0 discriminator 3 view .LVU322
 1107 0060 013B     		subs	r3, r3, #1
 1108              	.LVL101:
 1109              	.L95:
 166:Middlewares/lvgl/src/misc/lv_style.c ****             props[i + sizeof(lv_style_value_t) /sizeof(uint16_t)] = props[i];
 1110              		.loc 1 166 38 is_stmt 1 discriminator 1 view .LVU323
 166:Middlewares/lvgl/src/misc/lv_style.c ****             props[i + sizeof(lv_style_value_t) /sizeof(uint16_t)] = props[i];
 1111              		.loc 1 166 9 is_stmt 0 discriminator 1 view .LVU324
 1112 0062 002B     		cmp	r3, #0
 1113 0064 F7DA     		bge	.L96
 169:Middlewares/lvgl/src/misc/lv_style.c **** 
 1114              		.loc 1 169 9 is_stmt 1 view .LVU325
 169:Middlewares/lvgl/src/misc/lv_style.c **** 
 1115              		.loc 1 169 14 is_stmt 0 view .LVU326
 1116 0066 E379     		ldrb	r3, [r4, #7]	@ zero_extendqisi2
 1117              	.LVL102:
 169:Middlewares/lvgl/src/misc/lv_style.c **** 
 1118              		.loc 1 169 24 view .LVU327
 1119 0068 0133     		adds	r3, r3, #1
 1120 006a DAB2     		uxtb	r2, r3
 1121              	.LVL103:
 169:Middlewares/lvgl/src/misc/lv_style.c **** 
 1122              		.loc 1 169 24 view .LVU328
 1123 006c E271     		strb	r2, [r4, #7]
 172:Middlewares/lvgl/src/misc/lv_style.c ****         props = (uint16_t *)tmp;
 1124              		.loc 1 172 9 is_stmt 1 view .LVU329
 1125              	.LVL104:
 173:Middlewares/lvgl/src/misc/lv_style.c ****         lv_style_value_t * values = (lv_style_value_t *)values_and_props;
 1126              		.loc 1 173 9 view .LVU330
ARM GAS  /tmp/ccWgnKW2.s 			page 47


 174:Middlewares/lvgl/src/misc/lv_style.c **** 
 1127              		.loc 1 174 9 view .LVU331
 177:Middlewares/lvgl/src/misc/lv_style.c ****         values[style->prop_cnt - 1] = value;
 1128              		.loc 1 177 9 view .LVU332
 177:Middlewares/lvgl/src/misc/lv_style.c ****         values[style->prop_cnt - 1] = value;
 1129              		.loc 1 177 14 is_stmt 0 view .LVU333
 1130 006e 02F10043 		add	r3, r2, #-2147483648
 1131 0072 013B     		subs	r3, r3, #1
 1132 0074 5B00     		lsls	r3, r3, #1
 1133 0076 03EB8203 		add	r3, r3, r2, lsl #2
 177:Middlewares/lvgl/src/misc/lv_style.c ****         values[style->prop_cnt - 1] = value;
 1134              		.loc 1 177 36 view .LVU334
 1135 007a FD52     		strh	r5, [r7, r3]	@ movhi
 178:Middlewares/lvgl/src/misc/lv_style.c ****     } else if(style->prop_cnt == 1) {
 1136              		.loc 1 178 9 is_stmt 1 view .LVU335
 178:Middlewares/lvgl/src/misc/lv_style.c ****     } else if(style->prop_cnt == 1) {
 1137              		.loc 1 178 21 is_stmt 0 view .LVU336
 1138 007c E379     		ldrb	r3, [r4, #7]	@ zero_extendqisi2
 178:Middlewares/lvgl/src/misc/lv_style.c ****     } else if(style->prop_cnt == 1) {
 1139              		.loc 1 178 15 view .LVU337
 1140 007e 03F18043 		add	r3, r3, #1073741824
 1141 0082 013B     		subs	r3, r3, #1
 1142              	.LVL105:
 178:Middlewares/lvgl/src/misc/lv_style.c ****     } else if(style->prop_cnt == 1) {
 1143              		.loc 1 178 37 view .LVU338
 1144 0084 47F82360 		str	r6, [r7, r3, lsl #2]
 1145              	.LBE32:
 1146 0088 08E0     		b	.L97
 1147              	.LVL106:
 1148              	.L91:
 179:Middlewares/lvgl/src/misc/lv_style.c ****         if(style->prop1 == prop) {
 1149              		.loc 1 179 12 is_stmt 1 view .LVU339
 179:Middlewares/lvgl/src/misc/lv_style.c ****         if(style->prop1 == prop) {
 1150              		.loc 1 179 14 is_stmt 0 view .LVU340
 1151 008a 012A     		cmp	r2, #1
 1152 008c 0FD0     		beq	.L104
 199:Middlewares/lvgl/src/misc/lv_style.c ****         style->prop1 = prop;
 1153              		.loc 1 199 9 is_stmt 1 view .LVU341
 199:Middlewares/lvgl/src/misc/lv_style.c ****         style->prop1 = prop;
 1154              		.loc 1 199 25 is_stmt 0 view .LVU342
 1155 008e 0123     		movs	r3, #1
 1156 0090 C371     		strb	r3, [r0, #7]
 200:Middlewares/lvgl/src/misc/lv_style.c ****         style->v_p.value1 = value;
 1157              		.loc 1 200 9 is_stmt 1 view .LVU343
 200:Middlewares/lvgl/src/misc/lv_style.c ****         style->v_p.value1 = value;
 1158              		.loc 1 200 22 is_stmt 0 view .LVU344
 1159 0092 8388     		ldrh	r3, [r0, #4]
 1160 0094 61F30E03 		bfi	r3, r1, #0, #15
 1161 0098 8380     		strh	r3, [r0, #4]	@ movhi
 201:Middlewares/lvgl/src/misc/lv_style.c ****     }
 1162              		.loc 1 201 9 is_stmt 1 view .LVU345
 1163              	.LVL107:
 201:Middlewares/lvgl/src/misc/lv_style.c ****     }
 1164              		.loc 1 201 27 is_stmt 0 view .LVU346
 1165 009a 0660     		str	r6, [r0]
 1166              	.LVL108:
 1167              	.L97:
ARM GAS  /tmp/ccWgnKW2.s 			page 48


 204:Middlewares/lvgl/src/misc/lv_style.c ****     style->has_group |= 1 << group;
 1168              		.loc 1 204 5 is_stmt 1 view .LVU347
 204:Middlewares/lvgl/src/misc/lv_style.c ****     style->has_group |= 1 << group;
 1169              		.loc 1 204 21 is_stmt 0 view .LVU348
 1170 009c 2846     		mov	r0, r5
 1171              	.LVL109:
 204:Middlewares/lvgl/src/misc/lv_style.c ****     style->has_group |= 1 << group;
 1172              		.loc 1 204 21 view .LVU349
 1173 009e FFF7FEFF 		bl	_lv_style_get_prop_group
 1174              	.LVL110:
 205:Middlewares/lvgl/src/misc/lv_style.c **** }
 1175              		.loc 1 205 5 is_stmt 1 view .LVU350
 205:Middlewares/lvgl/src/misc/lv_style.c **** }
 1176              		.loc 1 205 27 is_stmt 0 view .LVU351
 1177 00a2 0123     		movs	r3, #1
 1178 00a4 8340     		lsls	r3, r3, r0
 205:Middlewares/lvgl/src/misc/lv_style.c **** }
 1179              		.loc 1 205 22 view .LVU352
 1180 00a6 A079     		ldrb	r0, [r4, #6]	@ zero_extendqisi2
 1181              	.LVL111:
 205:Middlewares/lvgl/src/misc/lv_style.c **** }
 1182              		.loc 1 205 22 view .LVU353
 1183 00a8 1843     		orrs	r0, r0, r3
 1184 00aa A071     		strb	r0, [r4, #6]
 1185              	.LVL112:
 1186              	.L89:
 206:Middlewares/lvgl/src/misc/lv_style.c **** 
 1187              		.loc 1 206 1 view .LVU354
 1188 00ac F8BD     		pop	{r3, r4, r5, r6, r7, pc}
 1189              	.LVL113:
 1190              	.L104:
 1191              	.LBB34:
 180:Middlewares/lvgl/src/misc/lv_style.c ****             style->v_p.value1 = value;
 1192              		.loc 1 180 9 is_stmt 1 view .LVU355
 180:Middlewares/lvgl/src/misc/lv_style.c ****             style->v_p.value1 = value;
 1193              		.loc 1 180 17 is_stmt 0 view .LVU356
 1194 00ae 8388     		ldrh	r3, [r0, #4]
 1195 00b0 C3F30E03 		ubfx	r3, r3, #0, #15
 180:Middlewares/lvgl/src/misc/lv_style.c ****             style->v_p.value1 = value;
 1196              		.loc 1 180 11 view .LVU357
 1197 00b4 8B42     		cmp	r3, r1
 1198 00b6 19D0     		beq	.L105
 184:Middlewares/lvgl/src/misc/lv_style.c ****         uint8_t * values_and_props = lv_mem_alloc(size);
 1199              		.loc 1 184 9 is_stmt 1 view .LVU358
 184:Middlewares/lvgl/src/misc/lv_style.c ****         uint8_t * values_and_props = lv_mem_alloc(size);
 1200              		.loc 1 184 40 is_stmt 0 view .LVU359
 1201 00b8 0132     		adds	r2, r2, #1
 184:Middlewares/lvgl/src/misc/lv_style.c ****         uint8_t * values_and_props = lv_mem_alloc(size);
 1202              		.loc 1 184 16 view .LVU360
 1203 00ba 02EB4202 		add	r2, r2, r2, lsl #1
 1204              	.LVL114:
 185:Middlewares/lvgl/src/misc/lv_style.c ****         if(values_and_props == NULL) return;
 1205              		.loc 1 185 9 is_stmt 1 view .LVU361
 185:Middlewares/lvgl/src/misc/lv_style.c ****         if(values_and_props == NULL) return;
 1206              		.loc 1 185 38 is_stmt 0 view .LVU362
 1207 00be 5000     		lsls	r0, r2, #1
 1208              	.LVL115:
ARM GAS  /tmp/ccWgnKW2.s 			page 49


 185:Middlewares/lvgl/src/misc/lv_style.c ****         if(values_and_props == NULL) return;
 1209              		.loc 1 185 38 view .LVU363
 1210 00c0 FFF7FEFF 		bl	lv_mem_alloc
 1211              	.LVL116:
 186:Middlewares/lvgl/src/misc/lv_style.c ****         lv_style_value_t value_tmp = style->v_p.value1;
 1212              		.loc 1 186 9 is_stmt 1 view .LVU364
 186:Middlewares/lvgl/src/misc/lv_style.c ****         lv_style_value_t value_tmp = style->v_p.value1;
 1213              		.loc 1 186 11 is_stmt 0 view .LVU365
 1214 00c4 0246     		mov	r2, r0
 1215 00c6 0028     		cmp	r0, #0
 1216 00c8 F0D0     		beq	.L89
 187:Middlewares/lvgl/src/misc/lv_style.c ****         style->v_p.values_and_props = values_and_props;
 1217              		.loc 1 187 9 is_stmt 1 view .LVU366
 187:Middlewares/lvgl/src/misc/lv_style.c ****         style->v_p.values_and_props = values_and_props;
 1218              		.loc 1 187 26 is_stmt 0 view .LVU367
 1219 00ca 2068     		ldr	r0, [r4]
 1220              	.LVL117:
 188:Middlewares/lvgl/src/misc/lv_style.c ****         style->prop_cnt++;
 1221              		.loc 1 188 9 is_stmt 1 view .LVU368
 188:Middlewares/lvgl/src/misc/lv_style.c ****         style->prop_cnt++;
 1222              		.loc 1 188 37 is_stmt 0 view .LVU369
 1223 00cc 2260     		str	r2, [r4]
 189:Middlewares/lvgl/src/misc/lv_style.c **** 
 1224              		.loc 1 189 9 is_stmt 1 view .LVU370
 189:Middlewares/lvgl/src/misc/lv_style.c **** 
 1225              		.loc 1 189 14 is_stmt 0 view .LVU371
 1226 00ce E379     		ldrb	r3, [r4, #7]	@ zero_extendqisi2
 189:Middlewares/lvgl/src/misc/lv_style.c **** 
 1227              		.loc 1 189 24 view .LVU372
 1228 00d0 0133     		adds	r3, r3, #1
 1229 00d2 DBB2     		uxtb	r3, r3
 1230 00d4 E371     		strb	r3, [r4, #7]
 191:Middlewares/lvgl/src/misc/lv_style.c ****         uint16_t * props = (uint16_t *)tmp;
 1231              		.loc 1 191 9 is_stmt 1 view .LVU373
 191:Middlewares/lvgl/src/misc/lv_style.c ****         uint16_t * props = (uint16_t *)tmp;
 1232              		.loc 1 191 19 is_stmt 0 view .LVU374
 1233 00d6 02EB8307 		add	r7, r2, r3, lsl #2
 1234              	.LVL118:
 192:Middlewares/lvgl/src/misc/lv_style.c ****         lv_style_value_t * values = (lv_style_value_t *)values_and_props;
 1235              		.loc 1 192 9 is_stmt 1 view .LVU375
 193:Middlewares/lvgl/src/misc/lv_style.c ****         props[0] = style->prop1;
 1236              		.loc 1 193 9 view .LVU376
 194:Middlewares/lvgl/src/misc/lv_style.c ****         props[1] = prop;
 1237              		.loc 1 194 9 view .LVU377
 194:Middlewares/lvgl/src/misc/lv_style.c ****         props[1] = prop;
 1238              		.loc 1 194 25 is_stmt 0 view .LVU378
 1239 00da A188     		ldrh	r1, [r4, #4]
 1240 00dc C1F30E01 		ubfx	r1, r1, #0, #15
 194:Middlewares/lvgl/src/misc/lv_style.c ****         props[1] = prop;
 1241              		.loc 1 194 18 view .LVU379
 1242 00e0 22F82310 		strh	r1, [r2, r3, lsl #2]	@ movhi
 195:Middlewares/lvgl/src/misc/lv_style.c ****         values[0] = value_tmp;
 1243              		.loc 1 195 9 is_stmt 1 view .LVU380
 195:Middlewares/lvgl/src/misc/lv_style.c ****         values[0] = value_tmp;
 1244              		.loc 1 195 18 is_stmt 0 view .LVU381
 1245 00e4 7D80     		strh	r5, [r7, #2]	@ movhi
 196:Middlewares/lvgl/src/misc/lv_style.c ****         values[1] = value;
ARM GAS  /tmp/ccWgnKW2.s 			page 50


 1246              		.loc 1 196 9 is_stmt 1 view .LVU382
 1247              	.LVL119:
 196:Middlewares/lvgl/src/misc/lv_style.c ****         values[1] = value;
 1248              		.loc 1 196 19 is_stmt 0 view .LVU383
 1249 00e6 1060     		str	r0, [r2]
 197:Middlewares/lvgl/src/misc/lv_style.c ****     } else {
 1250              		.loc 1 197 9 is_stmt 1 view .LVU384
 1251              	.LVL120:
 197:Middlewares/lvgl/src/misc/lv_style.c ****     } else {
 1252              		.loc 1 197 19 is_stmt 0 view .LVU385
 1253 00e8 5660     		str	r6, [r2, #4]
 1254              	.LBE34:
 1255 00ea D7E7     		b	.L97
 1256              	.LVL121:
 1257              	.L105:
 1258              	.LBB35:
 181:Middlewares/lvgl/src/misc/lv_style.c ****             return;
 1259              		.loc 1 181 13 is_stmt 1 view .LVU386
 181:Middlewares/lvgl/src/misc/lv_style.c ****             return;
 1260              		.loc 1 181 31 is_stmt 0 view .LVU387
 1261 00ec 0660     		str	r6, [r0]
 182:Middlewares/lvgl/src/misc/lv_style.c ****         }
 1262              		.loc 1 182 13 is_stmt 1 view .LVU388
 1263 00ee DDE7     		b	.L89
 1264              	.LBE35:
 1265              		.cfi_endproc
 1266              	.LFE52:
 1268              		.section	.data.act_id.0,"aw"
 1269              		.align	1
 1270              		.set	.LANCHOR0,. + 0
 1273              	act_id.0:
 1274 0000 6F00     		.short	111
 1275              		.text
 1276              	.Letext0:
 1277              		.file 4 "/home/akinya/gcc-arm-none-eabi/arm-none-eabi/include/machine/_default_types.h"
 1278              		.file 5 "/home/akinya/gcc-arm-none-eabi/arm-none-eabi/include/sys/_stdint.h"
 1279              		.file 6 "/home/akinya/gcc-arm-none-eabi/lib/gcc/arm-none-eabi/10.2.1/include/stddef.h"
 1280              		.file 7 "Middlewares/lvgl/src/misc/../font/../misc/lv_area.h"
 1281              		.file 8 "Middlewares/lvgl/src/misc/../font/lv_font.h"
 1282              		.file 9 "Middlewares/lvgl/src/misc/lv_types.h"
 1283              		.file 10 "Middlewares/lvgl/src/misc/lv_anim.h"
 1284              		.file 11 "Middlewares/lvgl/src/misc/../misc/lv_mem.h"
ARM GAS  /tmp/ccWgnKW2.s 			page 51

