ARM GAS  /tmp/cc3CUzt7.s 			page 1


   1              		.cpu cortex-m4
   2              		.eabi_attribute 27, 1
   3              		.eabi_attribute 28, 1
   4              		.eabi_attribute 20, 1
   5              		.eabi_attribute 21, 1
   6              		.eabi_attribute 23, 3
   7              		.eabi_attribute 24, 1
   8              		.eabi_attribute 25, 1
   9              		.eabi_attribute 26, 1
  10              		.eabi_attribute 30, 1
  11              		.eabi_attribute 34, 1
  12              		.eabi_attribute 18, 4
  13              		.file	"lv_spinner.c"
  14              		.text
  15              	.Ltext0:
  16              		.cfi_sections	.debug_frame
  17              		.section	.text.arc_anim_start_angle,"ax",%progbits
  18              		.align	1
  19              		.arch armv7e-m
  20              		.syntax unified
  21              		.thumb
  22              		.thumb_func
  23              		.fpu fpv4-sp-d16
  25              	arc_anim_start_angle:
  26              	.LVL0:
  27              	.LFB185:
  28              		.file 1 "Middlewares/lvgl/src/extra/widgets/spinner/lv_spinner.c"
   1:Middlewares/lvgl/src/extra/widgets/spinner/lv_spinner.c **** /**
   2:Middlewares/lvgl/src/extra/widgets/spinner/lv_spinner.c ****  * @file lv_spinner.c
   3:Middlewares/lvgl/src/extra/widgets/spinner/lv_spinner.c ****  *
   4:Middlewares/lvgl/src/extra/widgets/spinner/lv_spinner.c ****  */
   5:Middlewares/lvgl/src/extra/widgets/spinner/lv_spinner.c **** 
   6:Middlewares/lvgl/src/extra/widgets/spinner/lv_spinner.c **** /*********************
   7:Middlewares/lvgl/src/extra/widgets/spinner/lv_spinner.c ****  *      INCLUDES
   8:Middlewares/lvgl/src/extra/widgets/spinner/lv_spinner.c ****  *********************/
   9:Middlewares/lvgl/src/extra/widgets/spinner/lv_spinner.c **** #include "lv_spinner.h"
  10:Middlewares/lvgl/src/extra/widgets/spinner/lv_spinner.c **** #if LV_USE_SPINNER
  11:Middlewares/lvgl/src/extra/widgets/spinner/lv_spinner.c **** 
  12:Middlewares/lvgl/src/extra/widgets/spinner/lv_spinner.c **** /*********************
  13:Middlewares/lvgl/src/extra/widgets/spinner/lv_spinner.c ****  *      DEFINES
  14:Middlewares/lvgl/src/extra/widgets/spinner/lv_spinner.c ****  *********************/
  15:Middlewares/lvgl/src/extra/widgets/spinner/lv_spinner.c **** 
  16:Middlewares/lvgl/src/extra/widgets/spinner/lv_spinner.c **** /**********************
  17:Middlewares/lvgl/src/extra/widgets/spinner/lv_spinner.c ****  *      TYPEDEFS
  18:Middlewares/lvgl/src/extra/widgets/spinner/lv_spinner.c ****  **********************/
  19:Middlewares/lvgl/src/extra/widgets/spinner/lv_spinner.c **** 
  20:Middlewares/lvgl/src/extra/widgets/spinner/lv_spinner.c **** /**********************
  21:Middlewares/lvgl/src/extra/widgets/spinner/lv_spinner.c ****  *  STATIC PROTOTYPES
  22:Middlewares/lvgl/src/extra/widgets/spinner/lv_spinner.c ****  **********************/
  23:Middlewares/lvgl/src/extra/widgets/spinner/lv_spinner.c **** static void arc_anim_start_angle(void * obj, int32_t v);
  24:Middlewares/lvgl/src/extra/widgets/spinner/lv_spinner.c **** static void arc_anim_end_angle(void * obj, int32_t v);
  25:Middlewares/lvgl/src/extra/widgets/spinner/lv_spinner.c **** 
  26:Middlewares/lvgl/src/extra/widgets/spinner/lv_spinner.c **** /**********************
  27:Middlewares/lvgl/src/extra/widgets/spinner/lv_spinner.c ****  *  STATIC VARIABLES
  28:Middlewares/lvgl/src/extra/widgets/spinner/lv_spinner.c ****  **********************/
  29:Middlewares/lvgl/src/extra/widgets/spinner/lv_spinner.c **** 
  30:Middlewares/lvgl/src/extra/widgets/spinner/lv_spinner.c **** /**********************
ARM GAS  /tmp/cc3CUzt7.s 			page 2


  31:Middlewares/lvgl/src/extra/widgets/spinner/lv_spinner.c ****  *      MACROS
  32:Middlewares/lvgl/src/extra/widgets/spinner/lv_spinner.c ****  **********************/
  33:Middlewares/lvgl/src/extra/widgets/spinner/lv_spinner.c **** 
  34:Middlewares/lvgl/src/extra/widgets/spinner/lv_spinner.c **** /**********************
  35:Middlewares/lvgl/src/extra/widgets/spinner/lv_spinner.c ****  *   GLOBAL FUNCTIONS
  36:Middlewares/lvgl/src/extra/widgets/spinner/lv_spinner.c ****  **********************/
  37:Middlewares/lvgl/src/extra/widgets/spinner/lv_spinner.c **** 
  38:Middlewares/lvgl/src/extra/widgets/spinner/lv_spinner.c **** /**
  39:Middlewares/lvgl/src/extra/widgets/spinner/lv_spinner.c ****  * Create a spinner object
  40:Middlewares/lvgl/src/extra/widgets/spinner/lv_spinner.c ****  * @param par pointer to an object, it will be the parent of the new spinner
  41:Middlewares/lvgl/src/extra/widgets/spinner/lv_spinner.c ****  * @return pointer to the created spinner
  42:Middlewares/lvgl/src/extra/widgets/spinner/lv_spinner.c ****  */
  43:Middlewares/lvgl/src/extra/widgets/spinner/lv_spinner.c **** lv_obj_t * lv_spinner_create(lv_obj_t * parent, uint32_t time, uint32_t arc_length)
  44:Middlewares/lvgl/src/extra/widgets/spinner/lv_spinner.c **** {
  45:Middlewares/lvgl/src/extra/widgets/spinner/lv_spinner.c ****     /*Create the ancestor of spinner*/
  46:Middlewares/lvgl/src/extra/widgets/spinner/lv_spinner.c ****     lv_obj_t * spinner = lv_arc_create(parent);
  47:Middlewares/lvgl/src/extra/widgets/spinner/lv_spinner.c ****     LV_ASSERT_MALLOC(spinner);
  48:Middlewares/lvgl/src/extra/widgets/spinner/lv_spinner.c ****     if(spinner == NULL) return NULL;
  49:Middlewares/lvgl/src/extra/widgets/spinner/lv_spinner.c **** 
  50:Middlewares/lvgl/src/extra/widgets/spinner/lv_spinner.c ****     lv_obj_remove_style(spinner, NULL, LV_PART_KNOB | LV_STATE_ANY);
  51:Middlewares/lvgl/src/extra/widgets/spinner/lv_spinner.c **** 
  52:Middlewares/lvgl/src/extra/widgets/spinner/lv_spinner.c ****     lv_anim_t a;
  53:Middlewares/lvgl/src/extra/widgets/spinner/lv_spinner.c ****     lv_anim_init(&a);
  54:Middlewares/lvgl/src/extra/widgets/spinner/lv_spinner.c ****     lv_anim_set_var(&a, spinner);
  55:Middlewares/lvgl/src/extra/widgets/spinner/lv_spinner.c ****     lv_anim_set_exec_cb(&a, arc_anim_end_angle);
  56:Middlewares/lvgl/src/extra/widgets/spinner/lv_spinner.c ****     lv_anim_set_repeat_count(&a, LV_ANIM_REPEAT_INFINITE);
  57:Middlewares/lvgl/src/extra/widgets/spinner/lv_spinner.c ****     lv_anim_set_time(&a, time);
  58:Middlewares/lvgl/src/extra/widgets/spinner/lv_spinner.c ****     lv_anim_set_values(&a, arc_length, 360 + arc_length);
  59:Middlewares/lvgl/src/extra/widgets/spinner/lv_spinner.c ****     lv_anim_start(&a);
  60:Middlewares/lvgl/src/extra/widgets/spinner/lv_spinner.c **** 
  61:Middlewares/lvgl/src/extra/widgets/spinner/lv_spinner.c ****     lv_anim_set_path_cb(&a, lv_anim_path_ease_in_out);
  62:Middlewares/lvgl/src/extra/widgets/spinner/lv_spinner.c ****     lv_anim_set_values(&a, 0, 360);
  63:Middlewares/lvgl/src/extra/widgets/spinner/lv_spinner.c ****     lv_anim_set_exec_cb(&a, arc_anim_start_angle);
  64:Middlewares/lvgl/src/extra/widgets/spinner/lv_spinner.c ****     lv_anim_start(&a);
  65:Middlewares/lvgl/src/extra/widgets/spinner/lv_spinner.c **** 
  66:Middlewares/lvgl/src/extra/widgets/spinner/lv_spinner.c ****     lv_arc_set_bg_angles(spinner, 0, 360);
  67:Middlewares/lvgl/src/extra/widgets/spinner/lv_spinner.c ****     lv_arc_set_rotation(spinner, 270);
  68:Middlewares/lvgl/src/extra/widgets/spinner/lv_spinner.c **** 
  69:Middlewares/lvgl/src/extra/widgets/spinner/lv_spinner.c ****     return spinner;
  70:Middlewares/lvgl/src/extra/widgets/spinner/lv_spinner.c **** }
  71:Middlewares/lvgl/src/extra/widgets/spinner/lv_spinner.c **** 
  72:Middlewares/lvgl/src/extra/widgets/spinner/lv_spinner.c **** 
  73:Middlewares/lvgl/src/extra/widgets/spinner/lv_spinner.c **** /**********************
  74:Middlewares/lvgl/src/extra/widgets/spinner/lv_spinner.c ****  *   STATIC FUNCTIONS
  75:Middlewares/lvgl/src/extra/widgets/spinner/lv_spinner.c ****  **********************/
  76:Middlewares/lvgl/src/extra/widgets/spinner/lv_spinner.c **** 
  77:Middlewares/lvgl/src/extra/widgets/spinner/lv_spinner.c **** static void arc_anim_start_angle(void * obj, int32_t v)
  78:Middlewares/lvgl/src/extra/widgets/spinner/lv_spinner.c **** {
  29              		.loc 1 78 1 view -0
  30              		.cfi_startproc
  31              		@ args = 0, pretend = 0, frame = 0
  32              		@ frame_needed = 0, uses_anonymous_args = 0
  33              		.loc 1 78 1 is_stmt 0 view .LVU1
  34 0000 08B5     		push	{r3, lr}
  35              	.LCFI0:
  36              		.cfi_def_cfa_offset 8
  37              		.cfi_offset 3, -8
ARM GAS  /tmp/cc3CUzt7.s 			page 3


  38              		.cfi_offset 14, -4
  79:Middlewares/lvgl/src/extra/widgets/spinner/lv_spinner.c ****     lv_arc_set_start_angle(obj, (uint16_t) v);
  39              		.loc 1 79 5 is_stmt 1 view .LVU2
  40 0002 89B2     		uxth	r1, r1
  41              	.LVL1:
  42              		.loc 1 79 5 is_stmt 0 view .LVU3
  43 0004 FFF7FEFF 		bl	lv_arc_set_start_angle
  44              	.LVL2:
  80:Middlewares/lvgl/src/extra/widgets/spinner/lv_spinner.c **** }
  45              		.loc 1 80 1 view .LVU4
  46 0008 08BD     		pop	{r3, pc}
  47              		.cfi_endproc
  48              	.LFE185:
  50              		.section	.text.arc_anim_end_angle,"ax",%progbits
  51              		.align	1
  52              		.syntax unified
  53              		.thumb
  54              		.thumb_func
  55              		.fpu fpv4-sp-d16
  57              	arc_anim_end_angle:
  58              	.LVL3:
  59              	.LFB186:
  81:Middlewares/lvgl/src/extra/widgets/spinner/lv_spinner.c **** 
  82:Middlewares/lvgl/src/extra/widgets/spinner/lv_spinner.c **** 
  83:Middlewares/lvgl/src/extra/widgets/spinner/lv_spinner.c **** static void arc_anim_end_angle(void * obj, int32_t v)
  84:Middlewares/lvgl/src/extra/widgets/spinner/lv_spinner.c **** {
  60              		.loc 1 84 1 is_stmt 1 view -0
  61              		.cfi_startproc
  62              		@ args = 0, pretend = 0, frame = 0
  63              		@ frame_needed = 0, uses_anonymous_args = 0
  64              		.loc 1 84 1 is_stmt 0 view .LVU6
  65 0000 08B5     		push	{r3, lr}
  66              	.LCFI1:
  67              		.cfi_def_cfa_offset 8
  68              		.cfi_offset 3, -8
  69              		.cfi_offset 14, -4
  85:Middlewares/lvgl/src/extra/widgets/spinner/lv_spinner.c ****     lv_arc_set_end_angle(obj, (uint16_t) v);
  70              		.loc 1 85 5 is_stmt 1 view .LVU7
  71 0002 89B2     		uxth	r1, r1
  72              	.LVL4:
  73              		.loc 1 85 5 is_stmt 0 view .LVU8
  74 0004 FFF7FEFF 		bl	lv_arc_set_end_angle
  75              	.LVL5:
  86:Middlewares/lvgl/src/extra/widgets/spinner/lv_spinner.c **** }
  76              		.loc 1 86 1 view .LVU9
  77 0008 08BD     		pop	{r3, pc}
  78              		.cfi_endproc
  79              	.LFE186:
  81              		.section	.text.lv_spinner_create,"ax",%progbits
  82              		.align	1
  83              		.global	lv_spinner_create
  84              		.syntax unified
  85              		.thumb
  86              		.thumb_func
  87              		.fpu fpv4-sp-d16
  89              	lv_spinner_create:
  90              	.LVL6:
ARM GAS  /tmp/cc3CUzt7.s 			page 4


  91              	.LFB184:
  44:Middlewares/lvgl/src/extra/widgets/spinner/lv_spinner.c ****     /*Create the ancestor of spinner*/
  92              		.loc 1 44 1 is_stmt 1 view -0
  93              		.cfi_startproc
  94              		@ args = 0, pretend = 0, frame = 72
  95              		@ frame_needed = 0, uses_anonymous_args = 0
  44:Middlewares/lvgl/src/extra/widgets/spinner/lv_spinner.c ****     /*Create the ancestor of spinner*/
  96              		.loc 1 44 1 is_stmt 0 view .LVU11
  97 0000 70B5     		push	{r4, r5, r6, lr}
  98              	.LCFI2:
  99              		.cfi_def_cfa_offset 16
 100              		.cfi_offset 4, -16
 101              		.cfi_offset 5, -12
 102              		.cfi_offset 6, -8
 103              		.cfi_offset 14, -4
 104 0002 92B0     		sub	sp, sp, #72
 105              	.LCFI3:
 106              		.cfi_def_cfa_offset 88
 107 0004 0E46     		mov	r6, r1
 108 0006 1446     		mov	r4, r2
  46:Middlewares/lvgl/src/extra/widgets/spinner/lv_spinner.c ****     LV_ASSERT_MALLOC(spinner);
 109              		.loc 1 46 5 is_stmt 1 view .LVU12
  46:Middlewares/lvgl/src/extra/widgets/spinner/lv_spinner.c ****     LV_ASSERT_MALLOC(spinner);
 110              		.loc 1 46 26 is_stmt 0 view .LVU13
 111 0008 FFF7FEFF 		bl	lv_arc_create
 112              	.LVL7:
  47:Middlewares/lvgl/src/extra/widgets/spinner/lv_spinner.c ****     if(spinner == NULL) return NULL;
 113              		.loc 1 47 5 is_stmt 1 view .LVU14
  47:Middlewares/lvgl/src/extra/widgets/spinner/lv_spinner.c ****     if(spinner == NULL) return NULL;
 114              		.loc 1 47 5 view .LVU15
 115 000c 0028     		cmp	r0, #0
 116 000e 31D0     		beq	.L7
 117 0010 0546     		mov	r5, r0
  47:Middlewares/lvgl/src/extra/widgets/spinner/lv_spinner.c ****     if(spinner == NULL) return NULL;
 118              		.loc 1 47 5 view .LVU16
  47:Middlewares/lvgl/src/extra/widgets/spinner/lv_spinner.c ****     if(spinner == NULL) return NULL;
 119              		.loc 1 47 30 view .LVU17
  48:Middlewares/lvgl/src/extra/widgets/spinner/lv_spinner.c **** 
 120              		.loc 1 48 5 view .LVU18
  50:Middlewares/lvgl/src/extra/widgets/spinner/lv_spinner.c **** 
 121              		.loc 1 50 5 view .LVU19
 122 0012 194A     		ldr	r2, .L9
 123 0014 0021     		movs	r1, #0
 124 0016 FFF7FEFF 		bl	lv_obj_remove_style
 125              	.LVL8:
  52:Middlewares/lvgl/src/extra/widgets/spinner/lv_spinner.c ****     lv_anim_init(&a);
 126              		.loc 1 52 5 view .LVU20
  53:Middlewares/lvgl/src/extra/widgets/spinner/lv_spinner.c ****     lv_anim_set_var(&a, spinner);
 127              		.loc 1 53 5 view .LVU21
 128 001a 01A8     		add	r0, sp, #4
 129 001c FFF7FEFF 		bl	lv_anim_init
 130              	.LVL9:
  54:Middlewares/lvgl/src/extra/widgets/spinner/lv_spinner.c ****     lv_anim_set_exec_cb(&a, arc_anim_end_angle);
 131              		.loc 1 54 5 view .LVU22
 132              	.LBB18:
 133              	.LBI18:
 134              		.file 2 "Middlewares/lvgl/src/extra/widgets/spinner/../../../../src/core/../misc/lv_anim.h"
ARM GAS  /tmp/cc3CUzt7.s 			page 5


   1:Middlewares/lvgl/src/extra/widgets/spinner/../../../../src/core/../misc/lv_anim.h **** /**
   2:Middlewares/lvgl/src/extra/widgets/spinner/../../../../src/core/../misc/lv_anim.h ****  * @file lv_anim.h
   3:Middlewares/lvgl/src/extra/widgets/spinner/../../../../src/core/../misc/lv_anim.h ****  *
   4:Middlewares/lvgl/src/extra/widgets/spinner/../../../../src/core/../misc/lv_anim.h ****  */
   5:Middlewares/lvgl/src/extra/widgets/spinner/../../../../src/core/../misc/lv_anim.h **** 
   6:Middlewares/lvgl/src/extra/widgets/spinner/../../../../src/core/../misc/lv_anim.h **** #ifndef LV_ANIM_H
   7:Middlewares/lvgl/src/extra/widgets/spinner/../../../../src/core/../misc/lv_anim.h **** #define LV_ANIM_H
   8:Middlewares/lvgl/src/extra/widgets/spinner/../../../../src/core/../misc/lv_anim.h **** 
   9:Middlewares/lvgl/src/extra/widgets/spinner/../../../../src/core/../misc/lv_anim.h **** #ifdef __cplusplus
  10:Middlewares/lvgl/src/extra/widgets/spinner/../../../../src/core/../misc/lv_anim.h **** extern "C" {
  11:Middlewares/lvgl/src/extra/widgets/spinner/../../../../src/core/../misc/lv_anim.h **** #endif
  12:Middlewares/lvgl/src/extra/widgets/spinner/../../../../src/core/../misc/lv_anim.h **** 
  13:Middlewares/lvgl/src/extra/widgets/spinner/../../../../src/core/../misc/lv_anim.h **** /*********************
  14:Middlewares/lvgl/src/extra/widgets/spinner/../../../../src/core/../misc/lv_anim.h ****  *      INCLUDES
  15:Middlewares/lvgl/src/extra/widgets/spinner/../../../../src/core/../misc/lv_anim.h ****  *********************/
  16:Middlewares/lvgl/src/extra/widgets/spinner/../../../../src/core/../misc/lv_anim.h **** #include "../lv_conf_internal.h"
  17:Middlewares/lvgl/src/extra/widgets/spinner/../../../../src/core/../misc/lv_anim.h **** 
  18:Middlewares/lvgl/src/extra/widgets/spinner/../../../../src/core/../misc/lv_anim.h **** #include <stdint.h>
  19:Middlewares/lvgl/src/extra/widgets/spinner/../../../../src/core/../misc/lv_anim.h **** #include <stdbool.h>
  20:Middlewares/lvgl/src/extra/widgets/spinner/../../../../src/core/../misc/lv_anim.h **** #include <string.h>
  21:Middlewares/lvgl/src/extra/widgets/spinner/../../../../src/core/../misc/lv_anim.h **** 
  22:Middlewares/lvgl/src/extra/widgets/spinner/../../../../src/core/../misc/lv_anim.h **** /*********************
  23:Middlewares/lvgl/src/extra/widgets/spinner/../../../../src/core/../misc/lv_anim.h ****  *      DEFINES
  24:Middlewares/lvgl/src/extra/widgets/spinner/../../../../src/core/../misc/lv_anim.h ****  *********************/
  25:Middlewares/lvgl/src/extra/widgets/spinner/../../../../src/core/../misc/lv_anim.h **** 
  26:Middlewares/lvgl/src/extra/widgets/spinner/../../../../src/core/../misc/lv_anim.h **** /**********************
  27:Middlewares/lvgl/src/extra/widgets/spinner/../../../../src/core/../misc/lv_anim.h ****  *      TYPEDEFS
  28:Middlewares/lvgl/src/extra/widgets/spinner/../../../../src/core/../misc/lv_anim.h ****  **********************/
  29:Middlewares/lvgl/src/extra/widgets/spinner/../../../../src/core/../misc/lv_anim.h **** 
  30:Middlewares/lvgl/src/extra/widgets/spinner/../../../../src/core/../misc/lv_anim.h **** /** Can be used to indicate if animations are enabled or disabled in a case*/
  31:Middlewares/lvgl/src/extra/widgets/spinner/../../../../src/core/../misc/lv_anim.h **** typedef enum {
  32:Middlewares/lvgl/src/extra/widgets/spinner/../../../../src/core/../misc/lv_anim.h ****     LV_ANIM_OFF,
  33:Middlewares/lvgl/src/extra/widgets/spinner/../../../../src/core/../misc/lv_anim.h ****     LV_ANIM_ON,
  34:Middlewares/lvgl/src/extra/widgets/spinner/../../../../src/core/../misc/lv_anim.h **** }lv_anim_enable_t;
  35:Middlewares/lvgl/src/extra/widgets/spinner/../../../../src/core/../misc/lv_anim.h **** 
  36:Middlewares/lvgl/src/extra/widgets/spinner/../../../../src/core/../misc/lv_anim.h **** #define LV_ANIM_REPEAT_INFINITE      0xFFFF
  37:Middlewares/lvgl/src/extra/widgets/spinner/../../../../src/core/../misc/lv_anim.h **** LV_EXPORT_CONST_INT(LV_ANIM_REPEAT_INFINITE);
  38:Middlewares/lvgl/src/extra/widgets/spinner/../../../../src/core/../misc/lv_anim.h **** 
  39:Middlewares/lvgl/src/extra/widgets/spinner/../../../../src/core/../misc/lv_anim.h **** struct _lv_anim_t;
  40:Middlewares/lvgl/src/extra/widgets/spinner/../../../../src/core/../misc/lv_anim.h **** 
  41:Middlewares/lvgl/src/extra/widgets/spinner/../../../../src/core/../misc/lv_anim.h **** /** Get the current value during an animation*/
  42:Middlewares/lvgl/src/extra/widgets/spinner/../../../../src/core/../misc/lv_anim.h **** typedef int32_t (*lv_anim_path_cb_t)(const struct _lv_anim_t *);
  43:Middlewares/lvgl/src/extra/widgets/spinner/../../../../src/core/../misc/lv_anim.h **** 
  44:Middlewares/lvgl/src/extra/widgets/spinner/../../../../src/core/../misc/lv_anim.h **** /** Generic prototype of "animator" functions.
  45:Middlewares/lvgl/src/extra/widgets/spinner/../../../../src/core/../misc/lv_anim.h ****  * First parameter is the variable to animate.
  46:Middlewares/lvgl/src/extra/widgets/spinner/../../../../src/core/../misc/lv_anim.h ****  * Second parameter is the value to set.
  47:Middlewares/lvgl/src/extra/widgets/spinner/../../../../src/core/../misc/lv_anim.h ****  * Compatible with `lv_xxx_set_yyy(obj, value)` functions
  48:Middlewares/lvgl/src/extra/widgets/spinner/../../../../src/core/../misc/lv_anim.h ****  * The `x` in `_xcb_t` means its not a fully generic prototype because
  49:Middlewares/lvgl/src/extra/widgets/spinner/../../../../src/core/../misc/lv_anim.h ****  * it doesn't receive `lv_anim_t *` as its first argument*/
  50:Middlewares/lvgl/src/extra/widgets/spinner/../../../../src/core/../misc/lv_anim.h **** typedef void (*lv_anim_exec_xcb_t)(void *, int32_t);
  51:Middlewares/lvgl/src/extra/widgets/spinner/../../../../src/core/../misc/lv_anim.h **** 
  52:Middlewares/lvgl/src/extra/widgets/spinner/../../../../src/core/../misc/lv_anim.h **** /** Same as `lv_anim_exec_xcb_t` but receives `lv_anim_t *` as the first parameter.
  53:Middlewares/lvgl/src/extra/widgets/spinner/../../../../src/core/../misc/lv_anim.h ****  * It's more consistent but less convenient. Might be used by binding generator functions.*/
  54:Middlewares/lvgl/src/extra/widgets/spinner/../../../../src/core/../misc/lv_anim.h **** typedef void (*lv_anim_custom_exec_cb_t)(struct _lv_anim_t *, int32_t);
  55:Middlewares/lvgl/src/extra/widgets/spinner/../../../../src/core/../misc/lv_anim.h **** 
  56:Middlewares/lvgl/src/extra/widgets/spinner/../../../../src/core/../misc/lv_anim.h **** /** Callback to call when the animation is ready*/
  57:Middlewares/lvgl/src/extra/widgets/spinner/../../../../src/core/../misc/lv_anim.h **** typedef void (*lv_anim_ready_cb_t)(struct _lv_anim_t *);
ARM GAS  /tmp/cc3CUzt7.s 			page 6


  58:Middlewares/lvgl/src/extra/widgets/spinner/../../../../src/core/../misc/lv_anim.h **** 
  59:Middlewares/lvgl/src/extra/widgets/spinner/../../../../src/core/../misc/lv_anim.h **** /** Callback to call when the animation really stars (considering `delay`)*/
  60:Middlewares/lvgl/src/extra/widgets/spinner/../../../../src/core/../misc/lv_anim.h **** typedef void (*lv_anim_start_cb_t)(struct _lv_anim_t *);
  61:Middlewares/lvgl/src/extra/widgets/spinner/../../../../src/core/../misc/lv_anim.h **** 
  62:Middlewares/lvgl/src/extra/widgets/spinner/../../../../src/core/../misc/lv_anim.h **** /** Callback used when the animation values are relative to get the current value*/
  63:Middlewares/lvgl/src/extra/widgets/spinner/../../../../src/core/../misc/lv_anim.h **** typedef int32_t (*lv_anim_get_value_cb_t)(struct _lv_anim_t *);
  64:Middlewares/lvgl/src/extra/widgets/spinner/../../../../src/core/../misc/lv_anim.h **** 
  65:Middlewares/lvgl/src/extra/widgets/spinner/../../../../src/core/../misc/lv_anim.h **** /** Describes an animation*/
  66:Middlewares/lvgl/src/extra/widgets/spinner/../../../../src/core/../misc/lv_anim.h **** typedef struct _lv_anim_t {
  67:Middlewares/lvgl/src/extra/widgets/spinner/../../../../src/core/../misc/lv_anim.h ****     void * var;                          /**<Variable to animate*/
  68:Middlewares/lvgl/src/extra/widgets/spinner/../../../../src/core/../misc/lv_anim.h ****     lv_anim_exec_xcb_t exec_cb;          /**< Function to execute to animate*/
  69:Middlewares/lvgl/src/extra/widgets/spinner/../../../../src/core/../misc/lv_anim.h ****     lv_anim_start_cb_t start_cb;         /**< Call it when the animation is starts (considering `de
  70:Middlewares/lvgl/src/extra/widgets/spinner/../../../../src/core/../misc/lv_anim.h ****     lv_anim_ready_cb_t ready_cb;         /**< Call it when the animation is ready*/
  71:Middlewares/lvgl/src/extra/widgets/spinner/../../../../src/core/../misc/lv_anim.h ****     lv_anim_get_value_cb_t get_value_cb; /**< Get the current value in relative mode*/
  72:Middlewares/lvgl/src/extra/widgets/spinner/../../../../src/core/../misc/lv_anim.h **** #if LV_USE_USER_DATA
  73:Middlewares/lvgl/src/extra/widgets/spinner/../../../../src/core/../misc/lv_anim.h ****     void * user_data; /**< Custom user data*/
  74:Middlewares/lvgl/src/extra/widgets/spinner/../../../../src/core/../misc/lv_anim.h **** #endif
  75:Middlewares/lvgl/src/extra/widgets/spinner/../../../../src/core/../misc/lv_anim.h ****     lv_anim_path_cb_t path_cb;         /**< Describe the path (curve) of animations*/
  76:Middlewares/lvgl/src/extra/widgets/spinner/../../../../src/core/../misc/lv_anim.h ****     int32_t start_value;               /**< Start value*/
  77:Middlewares/lvgl/src/extra/widgets/spinner/../../../../src/core/../misc/lv_anim.h ****     int32_t current_value;             /**< Current value*/
  78:Middlewares/lvgl/src/extra/widgets/spinner/../../../../src/core/../misc/lv_anim.h ****     int32_t end_value;                 /**< End value*/
  79:Middlewares/lvgl/src/extra/widgets/spinner/../../../../src/core/../misc/lv_anim.h ****     int32_t time;                /**< Animation time in ms*/
  80:Middlewares/lvgl/src/extra/widgets/spinner/../../../../src/core/../misc/lv_anim.h ****     int32_t act_time;            /**< Current time in animation. Set to negative to make delay.*/
  81:Middlewares/lvgl/src/extra/widgets/spinner/../../../../src/core/../misc/lv_anim.h ****     uint32_t playback_delay;     /**< Wait before play back*/
  82:Middlewares/lvgl/src/extra/widgets/spinner/../../../../src/core/../misc/lv_anim.h ****     uint32_t playback_time;      /**< Duration of playback animation*/
  83:Middlewares/lvgl/src/extra/widgets/spinner/../../../../src/core/../misc/lv_anim.h ****     uint32_t repeat_delay;       /**< Wait before repeat*/
  84:Middlewares/lvgl/src/extra/widgets/spinner/../../../../src/core/../misc/lv_anim.h ****     uint16_t repeat_cnt;         /**< Repeat count for the animation*/
  85:Middlewares/lvgl/src/extra/widgets/spinner/../../../../src/core/../misc/lv_anim.h ****     uint8_t early_apply  : 1;    /**< 1: Apply start value immediately even is there is `delay`*/
  86:Middlewares/lvgl/src/extra/widgets/spinner/../../../../src/core/../misc/lv_anim.h **** 
  87:Middlewares/lvgl/src/extra/widgets/spinner/../../../../src/core/../misc/lv_anim.h ****     /*Animation system use these - user shouldn't set*/
  88:Middlewares/lvgl/src/extra/widgets/spinner/../../../../src/core/../misc/lv_anim.h ****     uint8_t playback_now : 1; /**< Play back is in progress*/
  89:Middlewares/lvgl/src/extra/widgets/spinner/../../../../src/core/../misc/lv_anim.h ****     uint8_t run_round : 1;    /**< Indicates the animation has run in this round*/
  90:Middlewares/lvgl/src/extra/widgets/spinner/../../../../src/core/../misc/lv_anim.h ****     uint8_t start_cb_called : 1;    /**< Indicates that the `start_cb` was already called*/
  91:Middlewares/lvgl/src/extra/widgets/spinner/../../../../src/core/../misc/lv_anim.h ****     uint32_t time_orig;
  92:Middlewares/lvgl/src/extra/widgets/spinner/../../../../src/core/../misc/lv_anim.h **** } lv_anim_t;
  93:Middlewares/lvgl/src/extra/widgets/spinner/../../../../src/core/../misc/lv_anim.h **** 
  94:Middlewares/lvgl/src/extra/widgets/spinner/../../../../src/core/../misc/lv_anim.h **** /**********************
  95:Middlewares/lvgl/src/extra/widgets/spinner/../../../../src/core/../misc/lv_anim.h ****  * GLOBAL PROTOTYPES
  96:Middlewares/lvgl/src/extra/widgets/spinner/../../../../src/core/../misc/lv_anim.h ****  **********************/
  97:Middlewares/lvgl/src/extra/widgets/spinner/../../../../src/core/../misc/lv_anim.h **** 
  98:Middlewares/lvgl/src/extra/widgets/spinner/../../../../src/core/../misc/lv_anim.h **** /**
  99:Middlewares/lvgl/src/extra/widgets/spinner/../../../../src/core/../misc/lv_anim.h ****  * Init. the animation module
 100:Middlewares/lvgl/src/extra/widgets/spinner/../../../../src/core/../misc/lv_anim.h ****  */
 101:Middlewares/lvgl/src/extra/widgets/spinner/../../../../src/core/../misc/lv_anim.h **** void _lv_anim_core_init(void);
 102:Middlewares/lvgl/src/extra/widgets/spinner/../../../../src/core/../misc/lv_anim.h **** 
 103:Middlewares/lvgl/src/extra/widgets/spinner/../../../../src/core/../misc/lv_anim.h **** /**
 104:Middlewares/lvgl/src/extra/widgets/spinner/../../../../src/core/../misc/lv_anim.h ****  * Initialize an animation variable.
 105:Middlewares/lvgl/src/extra/widgets/spinner/../../../../src/core/../misc/lv_anim.h ****  * E.g.:
 106:Middlewares/lvgl/src/extra/widgets/spinner/../../../../src/core/../misc/lv_anim.h ****  * lv_anim_t a;
 107:Middlewares/lvgl/src/extra/widgets/spinner/../../../../src/core/../misc/lv_anim.h ****  * lv_anim_init(&a);
 108:Middlewares/lvgl/src/extra/widgets/spinner/../../../../src/core/../misc/lv_anim.h ****  * lv_anim_set_...(&a);
 109:Middlewares/lvgl/src/extra/widgets/spinner/../../../../src/core/../misc/lv_anim.h ****  * lv_anim_start(&a);
 110:Middlewares/lvgl/src/extra/widgets/spinner/../../../../src/core/../misc/lv_anim.h ****  * @param a     pointer to an `lv_anim_t` variable to initialize
 111:Middlewares/lvgl/src/extra/widgets/spinner/../../../../src/core/../misc/lv_anim.h ****  */
 112:Middlewares/lvgl/src/extra/widgets/spinner/../../../../src/core/../misc/lv_anim.h **** void lv_anim_init(lv_anim_t * a);
 113:Middlewares/lvgl/src/extra/widgets/spinner/../../../../src/core/../misc/lv_anim.h **** 
 114:Middlewares/lvgl/src/extra/widgets/spinner/../../../../src/core/../misc/lv_anim.h **** /**
ARM GAS  /tmp/cc3CUzt7.s 			page 7


 115:Middlewares/lvgl/src/extra/widgets/spinner/../../../../src/core/../misc/lv_anim.h ****  * Set a variable to animate
 116:Middlewares/lvgl/src/extra/widgets/spinner/../../../../src/core/../misc/lv_anim.h ****  * @param a     pointer to an initialized `lv_anim_t` variable
 117:Middlewares/lvgl/src/extra/widgets/spinner/../../../../src/core/../misc/lv_anim.h ****  * @param var   pointer to a variable to animate
 118:Middlewares/lvgl/src/extra/widgets/spinner/../../../../src/core/../misc/lv_anim.h ****  */
 119:Middlewares/lvgl/src/extra/widgets/spinner/../../../../src/core/../misc/lv_anim.h **** static inline void lv_anim_set_var(lv_anim_t * a, void * var)
 135              		.loc 2 119 20 view .LVU23
 136              	.LBB19:
 120:Middlewares/lvgl/src/extra/widgets/spinner/../../../../src/core/../misc/lv_anim.h **** {
 121:Middlewares/lvgl/src/extra/widgets/spinner/../../../../src/core/../misc/lv_anim.h ****     a->var = var;
 137              		.loc 2 121 5 view .LVU24
 138              		.loc 2 121 12 is_stmt 0 view .LVU25
 139 0020 0195     		str	r5, [sp, #4]
 140              	.LVL10:
 141              		.loc 2 121 12 view .LVU26
 142              	.LBE19:
 143              	.LBE18:
  55:Middlewares/lvgl/src/extra/widgets/spinner/lv_spinner.c ****     lv_anim_set_repeat_count(&a, LV_ANIM_REPEAT_INFINITE);
 144              		.loc 1 55 5 is_stmt 1 view .LVU27
 145              	.LBB20:
 146              	.LBI20:
 122:Middlewares/lvgl/src/extra/widgets/spinner/../../../../src/core/../misc/lv_anim.h **** }
 123:Middlewares/lvgl/src/extra/widgets/spinner/../../../../src/core/../misc/lv_anim.h **** 
 124:Middlewares/lvgl/src/extra/widgets/spinner/../../../../src/core/../misc/lv_anim.h **** /**
 125:Middlewares/lvgl/src/extra/widgets/spinner/../../../../src/core/../misc/lv_anim.h ****  * Set a function to animate `var`
 126:Middlewares/lvgl/src/extra/widgets/spinner/../../../../src/core/../misc/lv_anim.h ****  * @param a         pointer to an initialized `lv_anim_t` variable
 127:Middlewares/lvgl/src/extra/widgets/spinner/../../../../src/core/../misc/lv_anim.h ****  * @param exec_cb   a function to execute during animation
 128:Middlewares/lvgl/src/extra/widgets/spinner/../../../../src/core/../misc/lv_anim.h ****  *                  LVGL's built-in functions can be used.
 129:Middlewares/lvgl/src/extra/widgets/spinner/../../../../src/core/../misc/lv_anim.h ****  *                  E.g. lv_obj_set_x
 130:Middlewares/lvgl/src/extra/widgets/spinner/../../../../src/core/../misc/lv_anim.h ****  */
 131:Middlewares/lvgl/src/extra/widgets/spinner/../../../../src/core/../misc/lv_anim.h **** static inline void lv_anim_set_exec_cb(lv_anim_t * a, lv_anim_exec_xcb_t exec_cb)
 147              		.loc 2 131 20 view .LVU28
 148              	.LBB21:
 132:Middlewares/lvgl/src/extra/widgets/spinner/../../../../src/core/../misc/lv_anim.h **** {
 133:Middlewares/lvgl/src/extra/widgets/spinner/../../../../src/core/../misc/lv_anim.h ****     a->exec_cb = exec_cb;
 149              		.loc 2 133 5 view .LVU29
 150              		.loc 2 133 16 is_stmt 0 view .LVU30
 151 0022 164B     		ldr	r3, .L9+4
 152 0024 0293     		str	r3, [sp, #8]
 153              	.LVL11:
 154              		.loc 2 133 16 view .LVU31
 155              	.LBE21:
 156              	.LBE20:
  56:Middlewares/lvgl/src/extra/widgets/spinner/lv_spinner.c ****     lv_anim_set_time(&a, time);
 157              		.loc 1 56 5 is_stmt 1 view .LVU32
 158              	.LBB22:
 159              	.LBI22:
 134:Middlewares/lvgl/src/extra/widgets/spinner/../../../../src/core/../misc/lv_anim.h **** }
 135:Middlewares/lvgl/src/extra/widgets/spinner/../../../../src/core/../misc/lv_anim.h **** 
 136:Middlewares/lvgl/src/extra/widgets/spinner/../../../../src/core/../misc/lv_anim.h **** /**
 137:Middlewares/lvgl/src/extra/widgets/spinner/../../../../src/core/../misc/lv_anim.h ****  * Set the duration of an animation
 138:Middlewares/lvgl/src/extra/widgets/spinner/../../../../src/core/../misc/lv_anim.h ****  * @param a         pointer to an initialized `lv_anim_t` variable
 139:Middlewares/lvgl/src/extra/widgets/spinner/../../../../src/core/../misc/lv_anim.h ****  * @param duration  duration of the animation in milliseconds
 140:Middlewares/lvgl/src/extra/widgets/spinner/../../../../src/core/../misc/lv_anim.h ****  */
 141:Middlewares/lvgl/src/extra/widgets/spinner/../../../../src/core/../misc/lv_anim.h **** static inline void lv_anim_set_time(lv_anim_t * a, uint32_t duration)
 142:Middlewares/lvgl/src/extra/widgets/spinner/../../../../src/core/../misc/lv_anim.h **** {
 143:Middlewares/lvgl/src/extra/widgets/spinner/../../../../src/core/../misc/lv_anim.h ****     a->time = duration;
 144:Middlewares/lvgl/src/extra/widgets/spinner/../../../../src/core/../misc/lv_anim.h **** }
ARM GAS  /tmp/cc3CUzt7.s 			page 8


 145:Middlewares/lvgl/src/extra/widgets/spinner/../../../../src/core/../misc/lv_anim.h **** 
 146:Middlewares/lvgl/src/extra/widgets/spinner/../../../../src/core/../misc/lv_anim.h **** /**
 147:Middlewares/lvgl/src/extra/widgets/spinner/../../../../src/core/../misc/lv_anim.h ****  * Set a delay before starting the animation
 148:Middlewares/lvgl/src/extra/widgets/spinner/../../../../src/core/../misc/lv_anim.h ****  * @param a         pointer to an initialized `lv_anim_t` variable
 149:Middlewares/lvgl/src/extra/widgets/spinner/../../../../src/core/../misc/lv_anim.h ****  * @param delay     delay before the animation in milliseconds
 150:Middlewares/lvgl/src/extra/widgets/spinner/../../../../src/core/../misc/lv_anim.h ****  */
 151:Middlewares/lvgl/src/extra/widgets/spinner/../../../../src/core/../misc/lv_anim.h **** static inline void lv_anim_set_delay(lv_anim_t * a, uint32_t delay)
 152:Middlewares/lvgl/src/extra/widgets/spinner/../../../../src/core/../misc/lv_anim.h **** {
 153:Middlewares/lvgl/src/extra/widgets/spinner/../../../../src/core/../misc/lv_anim.h ****     a->act_time = -(int32_t)(delay);
 154:Middlewares/lvgl/src/extra/widgets/spinner/../../../../src/core/../misc/lv_anim.h **** }
 155:Middlewares/lvgl/src/extra/widgets/spinner/../../../../src/core/../misc/lv_anim.h **** 
 156:Middlewares/lvgl/src/extra/widgets/spinner/../../../../src/core/../misc/lv_anim.h **** /**
 157:Middlewares/lvgl/src/extra/widgets/spinner/../../../../src/core/../misc/lv_anim.h ****  * Set the start and end values of an animation
 158:Middlewares/lvgl/src/extra/widgets/spinner/../../../../src/core/../misc/lv_anim.h ****  * @param a         pointer to an initialized `lv_anim_t` variable
 159:Middlewares/lvgl/src/extra/widgets/spinner/../../../../src/core/../misc/lv_anim.h ****  * @param start     the start value
 160:Middlewares/lvgl/src/extra/widgets/spinner/../../../../src/core/../misc/lv_anim.h ****  * @param end       the end value
 161:Middlewares/lvgl/src/extra/widgets/spinner/../../../../src/core/../misc/lv_anim.h ****  */
 162:Middlewares/lvgl/src/extra/widgets/spinner/../../../../src/core/../misc/lv_anim.h **** static inline void lv_anim_set_values(lv_anim_t * a, int32_t start, int32_t end)
 163:Middlewares/lvgl/src/extra/widgets/spinner/../../../../src/core/../misc/lv_anim.h **** {
 164:Middlewares/lvgl/src/extra/widgets/spinner/../../../../src/core/../misc/lv_anim.h ****     a->start_value = start;
 165:Middlewares/lvgl/src/extra/widgets/spinner/../../../../src/core/../misc/lv_anim.h ****     a->current_value = start;
 166:Middlewares/lvgl/src/extra/widgets/spinner/../../../../src/core/../misc/lv_anim.h ****     a->end_value = end;
 167:Middlewares/lvgl/src/extra/widgets/spinner/../../../../src/core/../misc/lv_anim.h **** }
 168:Middlewares/lvgl/src/extra/widgets/spinner/../../../../src/core/../misc/lv_anim.h **** 
 169:Middlewares/lvgl/src/extra/widgets/spinner/../../../../src/core/../misc/lv_anim.h **** /**
 170:Middlewares/lvgl/src/extra/widgets/spinner/../../../../src/core/../misc/lv_anim.h ****  * Similar to `lv_anim_set_exec_cb` but `lv_anim_custom_exec_cb_t` receives
 171:Middlewares/lvgl/src/extra/widgets/spinner/../../../../src/core/../misc/lv_anim.h ****  * `lv_anim_t * ` as its first parameter instead of `void *`.
 172:Middlewares/lvgl/src/extra/widgets/spinner/../../../../src/core/../misc/lv_anim.h ****  * This function might be used when LVGL is binded to other languages because
 173:Middlewares/lvgl/src/extra/widgets/spinner/../../../../src/core/../misc/lv_anim.h ****  * it's more consistent to have `lv_anim_t *` as first parameter.
 174:Middlewares/lvgl/src/extra/widgets/spinner/../../../../src/core/../misc/lv_anim.h ****  * The variable to animate can be stored in the animation's `user_sata`
 175:Middlewares/lvgl/src/extra/widgets/spinner/../../../../src/core/../misc/lv_anim.h ****  * @param a         pointer to an initialized `lv_anim_t` variable
 176:Middlewares/lvgl/src/extra/widgets/spinner/../../../../src/core/../misc/lv_anim.h ****  * @param exec_cb   a function to execute.
 177:Middlewares/lvgl/src/extra/widgets/spinner/../../../../src/core/../misc/lv_anim.h ****  */
 178:Middlewares/lvgl/src/extra/widgets/spinner/../../../../src/core/../misc/lv_anim.h **** static inline void lv_anim_set_custom_exec_cb(lv_anim_t * a, lv_anim_custom_exec_cb_t exec_cb)
 179:Middlewares/lvgl/src/extra/widgets/spinner/../../../../src/core/../misc/lv_anim.h **** {
 180:Middlewares/lvgl/src/extra/widgets/spinner/../../../../src/core/../misc/lv_anim.h ****     a->var     = a;
 181:Middlewares/lvgl/src/extra/widgets/spinner/../../../../src/core/../misc/lv_anim.h ****     a->exec_cb = (lv_anim_exec_xcb_t)exec_cb;
 182:Middlewares/lvgl/src/extra/widgets/spinner/../../../../src/core/../misc/lv_anim.h **** }
 183:Middlewares/lvgl/src/extra/widgets/spinner/../../../../src/core/../misc/lv_anim.h **** 
 184:Middlewares/lvgl/src/extra/widgets/spinner/../../../../src/core/../misc/lv_anim.h **** /**
 185:Middlewares/lvgl/src/extra/widgets/spinner/../../../../src/core/../misc/lv_anim.h ****  * Set the path (curve) of the animation.
 186:Middlewares/lvgl/src/extra/widgets/spinner/../../../../src/core/../misc/lv_anim.h ****  * @param a         pointer to an initialized `lv_anim_t` variable
 187:Middlewares/lvgl/src/extra/widgets/spinner/../../../../src/core/../misc/lv_anim.h ****  * @param path_cb a function the get the current value of the animation.
 188:Middlewares/lvgl/src/extra/widgets/spinner/../../../../src/core/../misc/lv_anim.h ****  */
 189:Middlewares/lvgl/src/extra/widgets/spinner/../../../../src/core/../misc/lv_anim.h **** static inline void lv_anim_set_path_cb(lv_anim_t * a, lv_anim_path_cb_t path_cb)
 190:Middlewares/lvgl/src/extra/widgets/spinner/../../../../src/core/../misc/lv_anim.h **** {
 191:Middlewares/lvgl/src/extra/widgets/spinner/../../../../src/core/../misc/lv_anim.h ****     a->path_cb = path_cb;
 192:Middlewares/lvgl/src/extra/widgets/spinner/../../../../src/core/../misc/lv_anim.h **** }
 193:Middlewares/lvgl/src/extra/widgets/spinner/../../../../src/core/../misc/lv_anim.h **** 
 194:Middlewares/lvgl/src/extra/widgets/spinner/../../../../src/core/../misc/lv_anim.h **** /**
 195:Middlewares/lvgl/src/extra/widgets/spinner/../../../../src/core/../misc/lv_anim.h ****  * Set a function call when the animation really starts (considering `delay`)
 196:Middlewares/lvgl/src/extra/widgets/spinner/../../../../src/core/../misc/lv_anim.h ****  * @param a         pointer to an initialized `lv_anim_t` variable
 197:Middlewares/lvgl/src/extra/widgets/spinner/../../../../src/core/../misc/lv_anim.h ****  * @param start_cb  a function call when the animation starts
 198:Middlewares/lvgl/src/extra/widgets/spinner/../../../../src/core/../misc/lv_anim.h ****  */
 199:Middlewares/lvgl/src/extra/widgets/spinner/../../../../src/core/../misc/lv_anim.h **** static inline void lv_anim_set_start_cb(lv_anim_t * a, lv_anim_ready_cb_t start_cb)
 200:Middlewares/lvgl/src/extra/widgets/spinner/../../../../src/core/../misc/lv_anim.h **** {
 201:Middlewares/lvgl/src/extra/widgets/spinner/../../../../src/core/../misc/lv_anim.h ****     a->start_cb = start_cb;
ARM GAS  /tmp/cc3CUzt7.s 			page 9


 202:Middlewares/lvgl/src/extra/widgets/spinner/../../../../src/core/../misc/lv_anim.h **** }
 203:Middlewares/lvgl/src/extra/widgets/spinner/../../../../src/core/../misc/lv_anim.h **** 
 204:Middlewares/lvgl/src/extra/widgets/spinner/../../../../src/core/../misc/lv_anim.h **** /**
 205:Middlewares/lvgl/src/extra/widgets/spinner/../../../../src/core/../misc/lv_anim.h ****  * Set a function to use the current value of the variable and make start and end value
 206:Middlewares/lvgl/src/extra/widgets/spinner/../../../../src/core/../misc/lv_anim.h ****  * relative the the returned current value.
 207:Middlewares/lvgl/src/extra/widgets/spinner/../../../../src/core/../misc/lv_anim.h ****  * @param a             pointer to an initialized `lv_anim_t` variable
 208:Middlewares/lvgl/src/extra/widgets/spinner/../../../../src/core/../misc/lv_anim.h ****  * @param get_value_cb  a function call when the animation starts
 209:Middlewares/lvgl/src/extra/widgets/spinner/../../../../src/core/../misc/lv_anim.h ****  */
 210:Middlewares/lvgl/src/extra/widgets/spinner/../../../../src/core/../misc/lv_anim.h **** static inline void lv_anim_set_get_value_cb(lv_anim_t * a, lv_anim_get_value_cb_t get_value_cb)
 211:Middlewares/lvgl/src/extra/widgets/spinner/../../../../src/core/../misc/lv_anim.h **** {
 212:Middlewares/lvgl/src/extra/widgets/spinner/../../../../src/core/../misc/lv_anim.h ****     a->get_value_cb = get_value_cb;
 213:Middlewares/lvgl/src/extra/widgets/spinner/../../../../src/core/../misc/lv_anim.h **** }
 214:Middlewares/lvgl/src/extra/widgets/spinner/../../../../src/core/../misc/lv_anim.h **** 
 215:Middlewares/lvgl/src/extra/widgets/spinner/../../../../src/core/../misc/lv_anim.h **** /**
 216:Middlewares/lvgl/src/extra/widgets/spinner/../../../../src/core/../misc/lv_anim.h ****  * Set a function call when the animation is ready
 217:Middlewares/lvgl/src/extra/widgets/spinner/../../../../src/core/../misc/lv_anim.h ****  * @param a         pointer to an initialized `lv_anim_t` variable
 218:Middlewares/lvgl/src/extra/widgets/spinner/../../../../src/core/../misc/lv_anim.h ****  * @param ready_cb  a function call when the animation is ready
 219:Middlewares/lvgl/src/extra/widgets/spinner/../../../../src/core/../misc/lv_anim.h ****  */
 220:Middlewares/lvgl/src/extra/widgets/spinner/../../../../src/core/../misc/lv_anim.h **** static inline void lv_anim_set_ready_cb(lv_anim_t * a, lv_anim_ready_cb_t ready_cb)
 221:Middlewares/lvgl/src/extra/widgets/spinner/../../../../src/core/../misc/lv_anim.h **** {
 222:Middlewares/lvgl/src/extra/widgets/spinner/../../../../src/core/../misc/lv_anim.h ****     a->ready_cb = ready_cb;
 223:Middlewares/lvgl/src/extra/widgets/spinner/../../../../src/core/../misc/lv_anim.h **** }
 224:Middlewares/lvgl/src/extra/widgets/spinner/../../../../src/core/../misc/lv_anim.h **** /**
 225:Middlewares/lvgl/src/extra/widgets/spinner/../../../../src/core/../misc/lv_anim.h ****  * Make the animation to play back to when the forward direction is ready
 226:Middlewares/lvgl/src/extra/widgets/spinner/../../../../src/core/../misc/lv_anim.h ****  * @param a         pointer to an initialized `lv_anim_t` variable
 227:Middlewares/lvgl/src/extra/widgets/spinner/../../../../src/core/../misc/lv_anim.h ****  * @param time      the duration of the playback animation in in milliseconds. 0: disable playback
 228:Middlewares/lvgl/src/extra/widgets/spinner/../../../../src/core/../misc/lv_anim.h ****  */
 229:Middlewares/lvgl/src/extra/widgets/spinner/../../../../src/core/../misc/lv_anim.h **** static inline void lv_anim_set_playback_time(lv_anim_t * a, uint32_t time)
 230:Middlewares/lvgl/src/extra/widgets/spinner/../../../../src/core/../misc/lv_anim.h **** {
 231:Middlewares/lvgl/src/extra/widgets/spinner/../../../../src/core/../misc/lv_anim.h ****     a->playback_time = time;
 232:Middlewares/lvgl/src/extra/widgets/spinner/../../../../src/core/../misc/lv_anim.h **** }
 233:Middlewares/lvgl/src/extra/widgets/spinner/../../../../src/core/../misc/lv_anim.h **** 
 234:Middlewares/lvgl/src/extra/widgets/spinner/../../../../src/core/../misc/lv_anim.h **** /**
 235:Middlewares/lvgl/src/extra/widgets/spinner/../../../../src/core/../misc/lv_anim.h ****  * Make the animation to play back to when the forward direction is ready
 236:Middlewares/lvgl/src/extra/widgets/spinner/../../../../src/core/../misc/lv_anim.h ****  * @param a         pointer to an initialized `lv_anim_t` variable
 237:Middlewares/lvgl/src/extra/widgets/spinner/../../../../src/core/../misc/lv_anim.h ****  * @param delay     delay in milliseconds before starting the playback animation.
 238:Middlewares/lvgl/src/extra/widgets/spinner/../../../../src/core/../misc/lv_anim.h ****  */
 239:Middlewares/lvgl/src/extra/widgets/spinner/../../../../src/core/../misc/lv_anim.h **** static inline void lv_anim_set_playback_delay(lv_anim_t * a, uint32_t delay)
 240:Middlewares/lvgl/src/extra/widgets/spinner/../../../../src/core/../misc/lv_anim.h **** {
 241:Middlewares/lvgl/src/extra/widgets/spinner/../../../../src/core/../misc/lv_anim.h ****     a->playback_delay = delay;
 242:Middlewares/lvgl/src/extra/widgets/spinner/../../../../src/core/../misc/lv_anim.h **** }
 243:Middlewares/lvgl/src/extra/widgets/spinner/../../../../src/core/../misc/lv_anim.h **** 
 244:Middlewares/lvgl/src/extra/widgets/spinner/../../../../src/core/../misc/lv_anim.h **** /**
 245:Middlewares/lvgl/src/extra/widgets/spinner/../../../../src/core/../misc/lv_anim.h ****  * Make the animation repeat itself.
 246:Middlewares/lvgl/src/extra/widgets/spinner/../../../../src/core/../misc/lv_anim.h ****  * @param a         pointer to an initialized `lv_anim_t` variable
 247:Middlewares/lvgl/src/extra/widgets/spinner/../../../../src/core/../misc/lv_anim.h ****  * @param cnt       repeat count or `LV_ANIM_REPEAT_INFINITE` for infinite repetition. 0: to disabl
 248:Middlewares/lvgl/src/extra/widgets/spinner/../../../../src/core/../misc/lv_anim.h ****  */
 249:Middlewares/lvgl/src/extra/widgets/spinner/../../../../src/core/../misc/lv_anim.h **** static inline void lv_anim_set_repeat_count(lv_anim_t * a, uint16_t cnt)
 160              		.loc 2 249 20 view .LVU33
 161              	.LBB23:
 250:Middlewares/lvgl/src/extra/widgets/spinner/../../../../src/core/../misc/lv_anim.h **** {
 251:Middlewares/lvgl/src/extra/widgets/spinner/../../../../src/core/../misc/lv_anim.h ****     a->repeat_cnt = cnt;
 162              		.loc 2 251 5 view .LVU34
 163              		.loc 2 251 19 is_stmt 0 view .LVU35
 164 0026 4FF6FF73 		movw	r3, #65535
 165 002a ADF84030 		strh	r3, [sp, #64]	@ movhi
 166              	.LVL12:
ARM GAS  /tmp/cc3CUzt7.s 			page 10


 167              		.loc 2 251 19 view .LVU36
 168              	.LBE23:
 169              	.LBE22:
  57:Middlewares/lvgl/src/extra/widgets/spinner/lv_spinner.c ****     lv_anim_set_values(&a, arc_length, 360 + arc_length);
 170              		.loc 1 57 5 is_stmt 1 view .LVU37
 171              	.LBB24:
 172              	.LBI24:
 141:Middlewares/lvgl/src/extra/widgets/spinner/../../../../src/core/../misc/lv_anim.h **** {
 173              		.loc 2 141 20 view .LVU38
 174              	.LBB25:
 143:Middlewares/lvgl/src/extra/widgets/spinner/../../../../src/core/../misc/lv_anim.h **** }
 175              		.loc 2 143 5 view .LVU39
 143:Middlewares/lvgl/src/extra/widgets/spinner/../../../../src/core/../misc/lv_anim.h **** }
 176              		.loc 2 143 13 is_stmt 0 view .LVU40
 177 002e 0B96     		str	r6, [sp, #44]
 178              	.LVL13:
 143:Middlewares/lvgl/src/extra/widgets/spinner/../../../../src/core/../misc/lv_anim.h **** }
 179              		.loc 2 143 13 view .LVU41
 180              	.LBE25:
 181              	.LBE24:
  58:Middlewares/lvgl/src/extra/widgets/spinner/lv_spinner.c ****     lv_anim_start(&a);
 182              		.loc 1 58 5 is_stmt 1 view .LVU42
  58:Middlewares/lvgl/src/extra/widgets/spinner/lv_spinner.c ****     lv_anim_start(&a);
 183              		.loc 1 58 44 is_stmt 0 view .LVU43
 184 0030 04F5B473 		add	r3, r4, #360
 185              	.LVL14:
 186              	.LBB26:
 187              	.LBI26:
 162:Middlewares/lvgl/src/extra/widgets/spinner/../../../../src/core/../misc/lv_anim.h **** {
 188              		.loc 2 162 20 is_stmt 1 view .LVU44
 189              	.LBB27:
 164:Middlewares/lvgl/src/extra/widgets/spinner/../../../../src/core/../misc/lv_anim.h ****     a->current_value = start;
 190              		.loc 2 164 5 view .LVU45
 164:Middlewares/lvgl/src/extra/widgets/spinner/../../../../src/core/../misc/lv_anim.h ****     a->current_value = start;
 191              		.loc 2 164 20 is_stmt 0 view .LVU46
 192 0034 0894     		str	r4, [sp, #32]
 165:Middlewares/lvgl/src/extra/widgets/spinner/../../../../src/core/../misc/lv_anim.h ****     a->end_value = end;
 193              		.loc 2 165 5 is_stmt 1 view .LVU47
 165:Middlewares/lvgl/src/extra/widgets/spinner/../../../../src/core/../misc/lv_anim.h ****     a->end_value = end;
 194              		.loc 2 165 22 is_stmt 0 view .LVU48
 195 0036 0994     		str	r4, [sp, #36]
 166:Middlewares/lvgl/src/extra/widgets/spinner/../../../../src/core/../misc/lv_anim.h **** }
 196              		.loc 2 166 5 is_stmt 1 view .LVU49
 166:Middlewares/lvgl/src/extra/widgets/spinner/../../../../src/core/../misc/lv_anim.h **** }
 197              		.loc 2 166 18 is_stmt 0 view .LVU50
 198 0038 0A93     		str	r3, [sp, #40]
 199              	.LVL15:
 166:Middlewares/lvgl/src/extra/widgets/spinner/../../../../src/core/../misc/lv_anim.h **** }
 200              		.loc 2 166 18 view .LVU51
 201              	.LBE27:
 202              	.LBE26:
  59:Middlewares/lvgl/src/extra/widgets/spinner/lv_spinner.c **** 
 203              		.loc 1 59 5 is_stmt 1 view .LVU52
 204 003a 01A8     		add	r0, sp, #4
 205 003c FFF7FEFF 		bl	lv_anim_start
 206              	.LVL16:
  61:Middlewares/lvgl/src/extra/widgets/spinner/lv_spinner.c ****     lv_anim_set_values(&a, 0, 360);
ARM GAS  /tmp/cc3CUzt7.s 			page 11


 207              		.loc 1 61 5 view .LVU53
 208              	.LBB28:
 209              	.LBI28:
 189:Middlewares/lvgl/src/extra/widgets/spinner/../../../../src/core/../misc/lv_anim.h **** {
 210              		.loc 2 189 20 view .LVU54
 211              	.LBB29:
 191:Middlewares/lvgl/src/extra/widgets/spinner/../../../../src/core/../misc/lv_anim.h **** }
 212              		.loc 2 191 5 view .LVU55
 191:Middlewares/lvgl/src/extra/widgets/spinner/../../../../src/core/../misc/lv_anim.h **** }
 213              		.loc 2 191 16 is_stmt 0 view .LVU56
 214 0040 0F4B     		ldr	r3, .L9+8
 215 0042 0793     		str	r3, [sp, #28]
 216              	.LVL17:
 191:Middlewares/lvgl/src/extra/widgets/spinner/../../../../src/core/../misc/lv_anim.h **** }
 217              		.loc 2 191 16 view .LVU57
 218              	.LBE29:
 219              	.LBE28:
  62:Middlewares/lvgl/src/extra/widgets/spinner/lv_spinner.c ****     lv_anim_set_exec_cb(&a, arc_anim_start_angle);
 220              		.loc 1 62 5 is_stmt 1 view .LVU58
 221              	.LBB30:
 222              	.LBI30:
 162:Middlewares/lvgl/src/extra/widgets/spinner/../../../../src/core/../misc/lv_anim.h **** {
 223              		.loc 2 162 20 view .LVU59
 224              	.LBB31:
 164:Middlewares/lvgl/src/extra/widgets/spinner/../../../../src/core/../misc/lv_anim.h ****     a->current_value = start;
 225              		.loc 2 164 5 view .LVU60
 164:Middlewares/lvgl/src/extra/widgets/spinner/../../../../src/core/../misc/lv_anim.h ****     a->current_value = start;
 226              		.loc 2 164 20 is_stmt 0 view .LVU61
 227 0044 0024     		movs	r4, #0
 228              	.LVL18:
 164:Middlewares/lvgl/src/extra/widgets/spinner/../../../../src/core/../misc/lv_anim.h ****     a->current_value = start;
 229              		.loc 2 164 20 view .LVU62
 230 0046 0894     		str	r4, [sp, #32]
 165:Middlewares/lvgl/src/extra/widgets/spinner/../../../../src/core/../misc/lv_anim.h ****     a->end_value = end;
 231              		.loc 2 165 5 is_stmt 1 view .LVU63
 165:Middlewares/lvgl/src/extra/widgets/spinner/../../../../src/core/../misc/lv_anim.h ****     a->end_value = end;
 232              		.loc 2 165 22 is_stmt 0 view .LVU64
 233 0048 0994     		str	r4, [sp, #36]
 166:Middlewares/lvgl/src/extra/widgets/spinner/../../../../src/core/../misc/lv_anim.h **** }
 234              		.loc 2 166 5 is_stmt 1 view .LVU65
 166:Middlewares/lvgl/src/extra/widgets/spinner/../../../../src/core/../misc/lv_anim.h **** }
 235              		.loc 2 166 18 is_stmt 0 view .LVU66
 236 004a 4FF4B476 		mov	r6, #360
 237              	.LVL19:
 166:Middlewares/lvgl/src/extra/widgets/spinner/../../../../src/core/../misc/lv_anim.h **** }
 238              		.loc 2 166 18 view .LVU67
 239 004e 0A96     		str	r6, [sp, #40]
 240              	.LVL20:
 166:Middlewares/lvgl/src/extra/widgets/spinner/../../../../src/core/../misc/lv_anim.h **** }
 241              		.loc 2 166 18 view .LVU68
 242              	.LBE31:
 243              	.LBE30:
  63:Middlewares/lvgl/src/extra/widgets/spinner/lv_spinner.c ****     lv_anim_start(&a);
 244              		.loc 1 63 5 is_stmt 1 view .LVU69
 245              	.LBB32:
 246              	.LBI32:
 131:Middlewares/lvgl/src/extra/widgets/spinner/../../../../src/core/../misc/lv_anim.h **** {
ARM GAS  /tmp/cc3CUzt7.s 			page 12


 247              		.loc 2 131 20 view .LVU70
 248              	.LBB33:
 133:Middlewares/lvgl/src/extra/widgets/spinner/../../../../src/core/../misc/lv_anim.h **** }
 249              		.loc 2 133 5 view .LVU71
 133:Middlewares/lvgl/src/extra/widgets/spinner/../../../../src/core/../misc/lv_anim.h **** }
 250              		.loc 2 133 16 is_stmt 0 view .LVU72
 251 0050 0C4B     		ldr	r3, .L9+12
 252 0052 0293     		str	r3, [sp, #8]
 253              	.LVL21:
 133:Middlewares/lvgl/src/extra/widgets/spinner/../../../../src/core/../misc/lv_anim.h **** }
 254              		.loc 2 133 16 view .LVU73
 255              	.LBE33:
 256              	.LBE32:
  64:Middlewares/lvgl/src/extra/widgets/spinner/lv_spinner.c **** 
 257              		.loc 1 64 5 is_stmt 1 view .LVU74
 258 0054 01A8     		add	r0, sp, #4
 259 0056 FFF7FEFF 		bl	lv_anim_start
 260              	.LVL22:
  66:Middlewares/lvgl/src/extra/widgets/spinner/lv_spinner.c ****     lv_arc_set_rotation(spinner, 270);
 261              		.loc 1 66 5 view .LVU75
 262 005a 3246     		mov	r2, r6
 263 005c 2146     		mov	r1, r4
 264 005e 2846     		mov	r0, r5
 265 0060 FFF7FEFF 		bl	lv_arc_set_bg_angles
 266              	.LVL23:
  67:Middlewares/lvgl/src/extra/widgets/spinner/lv_spinner.c **** 
 267              		.loc 1 67 5 view .LVU76
 268 0064 4FF48771 		mov	r1, #270
 269 0068 2846     		mov	r0, r5
 270 006a FFF7FEFF 		bl	lv_arc_set_rotation
 271              	.LVL24:
  69:Middlewares/lvgl/src/extra/widgets/spinner/lv_spinner.c **** }
 272              		.loc 1 69 5 view .LVU77
  70:Middlewares/lvgl/src/extra/widgets/spinner/lv_spinner.c **** 
 273              		.loc 1 70 1 is_stmt 0 view .LVU78
 274 006e 2846     		mov	r0, r5
 275 0070 12B0     		add	sp, sp, #72
 276              	.LCFI4:
 277              		.cfi_remember_state
 278              		.cfi_def_cfa_offset 16
 279              		@ sp needed
 280 0072 70BD     		pop	{r4, r5, r6, pc}
 281              	.LVL25:
 282              	.L7:
 283              	.LCFI5:
 284              		.cfi_restore_state
  47:Middlewares/lvgl/src/extra/widgets/spinner/lv_spinner.c ****     if(spinner == NULL) return NULL;
 285              		.loc 1 47 5 is_stmt 1 discriminator 1 view .LVU79
  47:Middlewares/lvgl/src/extra/widgets/spinner/lv_spinner.c ****     if(spinner == NULL) return NULL;
 286              		.loc 1 47 5 discriminator 1 view .LVU80
  47:Middlewares/lvgl/src/extra/widgets/spinner/lv_spinner.c ****     if(spinner == NULL) return NULL;
 287              		.loc 1 47 5 discriminator 1 view .LVU81
  47:Middlewares/lvgl/src/extra/widgets/spinner/lv_spinner.c ****     if(spinner == NULL) return NULL;
 288              		.loc 1 47 5 discriminator 1 view .LVU82
 289 0074 FEE7     		b	.L7
 290              	.L10:
 291 0076 00BF     		.align	2
ARM GAS  /tmp/cc3CUzt7.s 			page 13


 292              	.L9:
 293 0078 FFFF0300 		.word	262143
 294 007c 00000000 		.word	arc_anim_end_angle
 295 0080 00000000 		.word	lv_anim_path_ease_in_out
 296 0084 00000000 		.word	arc_anim_start_angle
 297              		.cfi_endproc
 298              	.LFE184:
 300              		.text
 301              	.Letext0:
 302              		.file 3 "/home/akinya/gcc-arm-none-eabi/arm-none-eabi/include/machine/_default_types.h"
 303              		.file 4 "/home/akinya/gcc-arm-none-eabi/arm-none-eabi/include/sys/_stdint.h"
 304              		.file 5 "Middlewares/lvgl/src/extra/widgets/spinner/../../../../src/misc/lv_ll.h"
 305              		.file 6 "Middlewares/lvgl/src/extra/widgets/spinner/../../../../src/hal/../misc/lv_color.h"
 306              		.file 7 "Middlewares/lvgl/src/extra/widgets/spinner/../../../../src/hal/../misc/lv_area.h"
 307              		.file 8 "Middlewares/lvgl/src/extra/widgets/spinner/../../../../src/core/lv_obj.h"
 308              		.file 9 "Middlewares/lvgl/src/extra/widgets/spinner/../../../../src/core/lv_group.h"
 309              		.file 10 "Middlewares/lvgl/src/extra/widgets/spinner/../../../../src/core/../misc/lv_style.h"
 310              		.file 11 "Middlewares/lvgl/src/extra/widgets/spinner/../../../../src/core/lv_obj_scroll.h"
 311              		.file 12 "Middlewares/lvgl/src/extra/widgets/spinner/../../../../src/core/lv_obj_style.h"
 312              		.file 13 "Middlewares/lvgl/src/extra/widgets/spinner/../../../../src/core/lv_obj_class.h"
 313              		.file 14 "Middlewares/lvgl/src/extra/widgets/spinner/../../../../src/core/lv_event.h"
 314              		.file 15 "Middlewares/lvgl/src/extra/widgets/spinner/../../../../src/widgets/lv_arc.h"
ARM GAS  /tmp/cc3CUzt7.s 			page 14

