ARM GAS  /tmp/ccQS5ib5.s 			page 1


   1              		.cpu cortex-m4
   2              		.eabi_attribute 27, 1
   3              		.eabi_attribute 28, 1
   4              		.eabi_attribute 20, 1
   5              		.eabi_attribute 21, 1
   6              		.eabi_attribute 23, 3
   7              		.eabi_attribute 24, 1
   8              		.eabi_attribute 25, 1
   9              		.eabi_attribute 26, 1
  10              		.eabi_attribute 30, 1
  11              		.eabi_attribute 34, 1
  12              		.eabi_attribute 18, 4
  13              		.file	"lv_table.c"
  14              		.text
  15              	.Ltext0:
  16              		.cfi_sections	.debug_frame
  17              		.section	.text.get_row_height,"ax",%progbits
  18              		.align	1
  19              		.arch armv7e-m
  20              		.syntax unified
  21              		.thumb
  22              		.thumb_func
  23              		.fpu fpv4-sp-d16
  25              	get_row_height:
  26              	.LVL0:
  27              	.LFB166:
  28              		.file 1 "Middlewares/lvgl/src/widgets/lv_table.c"
   1:Middlewares/lvgl/src/widgets/lv_table.c **** /**
   2:Middlewares/lvgl/src/widgets/lv_table.c ****  * @file lv_table.c
   3:Middlewares/lvgl/src/widgets/lv_table.c ****  *
   4:Middlewares/lvgl/src/widgets/lv_table.c ****  */
   5:Middlewares/lvgl/src/widgets/lv_table.c **** 
   6:Middlewares/lvgl/src/widgets/lv_table.c **** /*********************
   7:Middlewares/lvgl/src/widgets/lv_table.c ****  *      INCLUDES
   8:Middlewares/lvgl/src/widgets/lv_table.c ****  *********************/
   9:Middlewares/lvgl/src/widgets/lv_table.c **** #include "lv_table.h"
  10:Middlewares/lvgl/src/widgets/lv_table.c **** #if LV_USE_TABLE != 0
  11:Middlewares/lvgl/src/widgets/lv_table.c **** 
  12:Middlewares/lvgl/src/widgets/lv_table.c **** #include "../core/lv_indev.h"
  13:Middlewares/lvgl/src/widgets/lv_table.c **** #include "../misc/lv_assert.h"
  14:Middlewares/lvgl/src/widgets/lv_table.c **** #include "../misc/lv_txt.h"
  15:Middlewares/lvgl/src/widgets/lv_table.c **** #include "../misc/lv_txt_ap.h"
  16:Middlewares/lvgl/src/widgets/lv_table.c **** #include "../misc/lv_math.h"
  17:Middlewares/lvgl/src/widgets/lv_table.c **** #include "../misc/lv_printf.h"
  18:Middlewares/lvgl/src/widgets/lv_table.c **** #include "../draw/lv_draw.h"
  19:Middlewares/lvgl/src/widgets/lv_table.c **** 
  20:Middlewares/lvgl/src/widgets/lv_table.c **** /*********************
  21:Middlewares/lvgl/src/widgets/lv_table.c ****  *      DEFINES
  22:Middlewares/lvgl/src/widgets/lv_table.c ****  *********************/
  23:Middlewares/lvgl/src/widgets/lv_table.c **** #define MY_CLASS &lv_table_class
  24:Middlewares/lvgl/src/widgets/lv_table.c **** 
  25:Middlewares/lvgl/src/widgets/lv_table.c **** /**********************
  26:Middlewares/lvgl/src/widgets/lv_table.c ****  *      TYPEDEFS
  27:Middlewares/lvgl/src/widgets/lv_table.c ****  **********************/
  28:Middlewares/lvgl/src/widgets/lv_table.c **** 
  29:Middlewares/lvgl/src/widgets/lv_table.c **** /**********************
  30:Middlewares/lvgl/src/widgets/lv_table.c ****  *  STATIC PROTOTYPES
ARM GAS  /tmp/ccQS5ib5.s 			page 2


  31:Middlewares/lvgl/src/widgets/lv_table.c ****  **********************/
  32:Middlewares/lvgl/src/widgets/lv_table.c **** static void lv_table_constructor(const lv_obj_class_t * class_p, lv_obj_t * obj);
  33:Middlewares/lvgl/src/widgets/lv_table.c **** static void lv_table_destructor(const lv_obj_class_t * class_p, lv_obj_t * obj);
  34:Middlewares/lvgl/src/widgets/lv_table.c **** static void lv_table_event(const lv_obj_class_t * class_p, lv_event_t * e);
  35:Middlewares/lvgl/src/widgets/lv_table.c **** static void draw_main(lv_event_t * e);
  36:Middlewares/lvgl/src/widgets/lv_table.c **** static lv_coord_t get_row_height(lv_obj_t * obj, uint16_t row_id, const lv_font_t * font,
  37:Middlewares/lvgl/src/widgets/lv_table.c ****                                  lv_coord_t letter_space, lv_coord_t line_space,
  38:Middlewares/lvgl/src/widgets/lv_table.c ****                                  lv_coord_t cell_left, lv_coord_t cell_right, lv_coord_t cell_top, 
  39:Middlewares/lvgl/src/widgets/lv_table.c **** static void refr_size(lv_obj_t * obj, uint32_t strat_row);
  40:Middlewares/lvgl/src/widgets/lv_table.c **** static lv_res_t get_pressed_cell(lv_obj_t * obj, uint16_t * row, uint16_t * col);
  41:Middlewares/lvgl/src/widgets/lv_table.c **** 
  42:Middlewares/lvgl/src/widgets/lv_table.c **** /**********************
  43:Middlewares/lvgl/src/widgets/lv_table.c ****  *  STATIC VARIABLES
  44:Middlewares/lvgl/src/widgets/lv_table.c ****  **********************/
  45:Middlewares/lvgl/src/widgets/lv_table.c **** const lv_obj_class_t lv_table_class  = {
  46:Middlewares/lvgl/src/widgets/lv_table.c ****     .constructor_cb = lv_table_constructor,
  47:Middlewares/lvgl/src/widgets/lv_table.c ****     .destructor_cb = lv_table_destructor,
  48:Middlewares/lvgl/src/widgets/lv_table.c ****     .event_cb = lv_table_event,
  49:Middlewares/lvgl/src/widgets/lv_table.c ****     .width_def = LV_SIZE_CONTENT,
  50:Middlewares/lvgl/src/widgets/lv_table.c ****     .height_def = LV_SIZE_CONTENT,
  51:Middlewares/lvgl/src/widgets/lv_table.c ****     .base_class = &lv_obj_class,
  52:Middlewares/lvgl/src/widgets/lv_table.c ****     .editable = LV_OBJ_CLASS_EDITABLE_TRUE,
  53:Middlewares/lvgl/src/widgets/lv_table.c ****     .group_def = LV_OBJ_CLASS_GROUP_DEF_TRUE,
  54:Middlewares/lvgl/src/widgets/lv_table.c ****     .instance_size = sizeof(lv_table_t),
  55:Middlewares/lvgl/src/widgets/lv_table.c **** };
  56:Middlewares/lvgl/src/widgets/lv_table.c **** /**********************
  57:Middlewares/lvgl/src/widgets/lv_table.c ****  *      MACROS
  58:Middlewares/lvgl/src/widgets/lv_table.c ****  **********************/
  59:Middlewares/lvgl/src/widgets/lv_table.c **** 
  60:Middlewares/lvgl/src/widgets/lv_table.c **** /**********************
  61:Middlewares/lvgl/src/widgets/lv_table.c ****  *   GLOBAL FUNCTIONS
  62:Middlewares/lvgl/src/widgets/lv_table.c ****  **********************/
  63:Middlewares/lvgl/src/widgets/lv_table.c **** 
  64:Middlewares/lvgl/src/widgets/lv_table.c **** lv_obj_t * lv_table_create(lv_obj_t * parent)
  65:Middlewares/lvgl/src/widgets/lv_table.c **** {
  66:Middlewares/lvgl/src/widgets/lv_table.c ****     LV_LOG_INFO("begin")
  67:Middlewares/lvgl/src/widgets/lv_table.c ****     lv_obj_t * obj = lv_obj_class_create_obj(MY_CLASS, parent);
  68:Middlewares/lvgl/src/widgets/lv_table.c ****     lv_obj_class_init_obj(obj);
  69:Middlewares/lvgl/src/widgets/lv_table.c ****     return obj;
  70:Middlewares/lvgl/src/widgets/lv_table.c **** }
  71:Middlewares/lvgl/src/widgets/lv_table.c **** 
  72:Middlewares/lvgl/src/widgets/lv_table.c **** /*=====================
  73:Middlewares/lvgl/src/widgets/lv_table.c ****  * Setter functions
  74:Middlewares/lvgl/src/widgets/lv_table.c ****  *====================*/
  75:Middlewares/lvgl/src/widgets/lv_table.c **** 
  76:Middlewares/lvgl/src/widgets/lv_table.c **** void lv_table_set_cell_value(lv_obj_t * obj, uint16_t row, uint16_t col, const char * txt)
  77:Middlewares/lvgl/src/widgets/lv_table.c **** {
  78:Middlewares/lvgl/src/widgets/lv_table.c ****     LV_ASSERT_OBJ(obj, MY_CLASS);
  79:Middlewares/lvgl/src/widgets/lv_table.c ****     LV_ASSERT_NULL(txt);
  80:Middlewares/lvgl/src/widgets/lv_table.c **** 
  81:Middlewares/lvgl/src/widgets/lv_table.c ****     lv_table_t * table = (lv_table_t *)obj;
  82:Middlewares/lvgl/src/widgets/lv_table.c **** 
  83:Middlewares/lvgl/src/widgets/lv_table.c ****     /*Auto expand*/
  84:Middlewares/lvgl/src/widgets/lv_table.c ****     if(col >= table->col_cnt) lv_table_set_col_cnt(obj, col + 1);
  85:Middlewares/lvgl/src/widgets/lv_table.c ****     if(row >= table->row_cnt) lv_table_set_row_cnt(obj, row + 1);
  86:Middlewares/lvgl/src/widgets/lv_table.c **** 
  87:Middlewares/lvgl/src/widgets/lv_table.c ****     uint32_t cell = row * table->col_cnt + col;
ARM GAS  /tmp/ccQS5ib5.s 			page 3


  88:Middlewares/lvgl/src/widgets/lv_table.c ****     lv_table_cell_ctrl_t ctrl = 0;
  89:Middlewares/lvgl/src/widgets/lv_table.c **** 
  90:Middlewares/lvgl/src/widgets/lv_table.c ****     /*Save the control byte*/
  91:Middlewares/lvgl/src/widgets/lv_table.c ****     if(table->cell_data[cell]) ctrl = table->cell_data[cell][0];
  92:Middlewares/lvgl/src/widgets/lv_table.c **** 
  93:Middlewares/lvgl/src/widgets/lv_table.c **** #if LV_USE_ARABIC_PERSIAN_CHARS
  94:Middlewares/lvgl/src/widgets/lv_table.c ****     /*Get the size of the Arabic text and process it*/
  95:Middlewares/lvgl/src/widgets/lv_table.c ****     size_t len_ap = _lv_txt_ap_calc_bytes_cnt(txt);
  96:Middlewares/lvgl/src/widgets/lv_table.c ****     table->cell_data[cell] = lv_mem_realloc(table->cell_data[cell], len_ap + 1);
  97:Middlewares/lvgl/src/widgets/lv_table.c ****     LV_ASSERT_MALLOC(table->cell_data[cell]);
  98:Middlewares/lvgl/src/widgets/lv_table.c ****     if(table->cell_data[cell] == NULL) return;
  99:Middlewares/lvgl/src/widgets/lv_table.c **** 
 100:Middlewares/lvgl/src/widgets/lv_table.c ****     _lv_txt_ap_proc(txt, &table->cell_data[cell][1]);
 101:Middlewares/lvgl/src/widgets/lv_table.c **** #else
 102:Middlewares/lvgl/src/widgets/lv_table.c ****     table->cell_data[cell] = lv_mem_realloc(table->cell_data[cell], strlen(txt) + 2); /*+1: trailin
 103:Middlewares/lvgl/src/widgets/lv_table.c ****     LV_ASSERT_MALLOC(table->cell_data[cell]);
 104:Middlewares/lvgl/src/widgets/lv_table.c **** 
 105:Middlewares/lvgl/src/widgets/lv_table.c ****     strcpy(table->cell_data[cell] + 1, txt);  /*+1 to skip the format byte*/
 106:Middlewares/lvgl/src/widgets/lv_table.c **** #endif
 107:Middlewares/lvgl/src/widgets/lv_table.c **** 
 108:Middlewares/lvgl/src/widgets/lv_table.c ****     table->cell_data[cell][0] = ctrl;
 109:Middlewares/lvgl/src/widgets/lv_table.c ****     refr_size(obj, row);
 110:Middlewares/lvgl/src/widgets/lv_table.c **** 
 111:Middlewares/lvgl/src/widgets/lv_table.c ****     lv_obj_invalidate(obj);
 112:Middlewares/lvgl/src/widgets/lv_table.c **** }
 113:Middlewares/lvgl/src/widgets/lv_table.c **** 
 114:Middlewares/lvgl/src/widgets/lv_table.c **** void lv_table_set_cell_value_fmt(lv_obj_t * obj, uint16_t row, uint16_t col, const char * fmt, ...)
 115:Middlewares/lvgl/src/widgets/lv_table.c **** {
 116:Middlewares/lvgl/src/widgets/lv_table.c ****     LV_ASSERT_OBJ(obj, MY_CLASS);
 117:Middlewares/lvgl/src/widgets/lv_table.c ****     LV_ASSERT_NULL(fmt);
 118:Middlewares/lvgl/src/widgets/lv_table.c **** 
 119:Middlewares/lvgl/src/widgets/lv_table.c ****     lv_table_t * table = (lv_table_t *)obj;
 120:Middlewares/lvgl/src/widgets/lv_table.c ****     if(col >= table->col_cnt) {
 121:Middlewares/lvgl/src/widgets/lv_table.c ****         LV_LOG_WARN("lv_table_set_cell_value: invalid column");
 122:Middlewares/lvgl/src/widgets/lv_table.c ****         return;
 123:Middlewares/lvgl/src/widgets/lv_table.c ****     }
 124:Middlewares/lvgl/src/widgets/lv_table.c **** 
 125:Middlewares/lvgl/src/widgets/lv_table.c ****     /*Auto expand*/
 126:Middlewares/lvgl/src/widgets/lv_table.c ****     if(row >= table->row_cnt) {
 127:Middlewares/lvgl/src/widgets/lv_table.c ****         lv_table_set_row_cnt(obj, row + 1);
 128:Middlewares/lvgl/src/widgets/lv_table.c ****     }
 129:Middlewares/lvgl/src/widgets/lv_table.c **** 
 130:Middlewares/lvgl/src/widgets/lv_table.c ****     uint32_t cell = row * table->col_cnt + col;
 131:Middlewares/lvgl/src/widgets/lv_table.c ****     lv_table_cell_ctrl_t ctrl = 0;
 132:Middlewares/lvgl/src/widgets/lv_table.c **** 
 133:Middlewares/lvgl/src/widgets/lv_table.c ****     /*Save the control byte*/
 134:Middlewares/lvgl/src/widgets/lv_table.c ****     if(table->cell_data[cell]) ctrl= table->cell_data[cell][0];
 135:Middlewares/lvgl/src/widgets/lv_table.c **** 
 136:Middlewares/lvgl/src/widgets/lv_table.c ****     va_list ap, ap2;
 137:Middlewares/lvgl/src/widgets/lv_table.c ****     va_start(ap, fmt);
 138:Middlewares/lvgl/src/widgets/lv_table.c ****     va_copy(ap2, ap);
 139:Middlewares/lvgl/src/widgets/lv_table.c **** 
 140:Middlewares/lvgl/src/widgets/lv_table.c ****     /*Allocate space for the new text by using trick from C99 standard section 7.19.6.12*/
 141:Middlewares/lvgl/src/widgets/lv_table.c ****     uint32_t len = lv_vsnprintf(NULL, 0, fmt, ap);
 142:Middlewares/lvgl/src/widgets/lv_table.c ****     va_end(ap);
 143:Middlewares/lvgl/src/widgets/lv_table.c **** 
 144:Middlewares/lvgl/src/widgets/lv_table.c **** #if LV_USE_ARABIC_PERSIAN_CHARS
ARM GAS  /tmp/ccQS5ib5.s 			page 4


 145:Middlewares/lvgl/src/widgets/lv_table.c ****     /*Put together the text according to the format string*/
 146:Middlewares/lvgl/src/widgets/lv_table.c ****     char * raw_txt = lv_mem_buf_get(len + 1);
 147:Middlewares/lvgl/src/widgets/lv_table.c ****     LV_ASSERT_MALLOC(raw_txt);
 148:Middlewares/lvgl/src/widgets/lv_table.c ****     if(raw_txt == NULL) {
 149:Middlewares/lvgl/src/widgets/lv_table.c ****         va_end(ap2);
 150:Middlewares/lvgl/src/widgets/lv_table.c ****         return;
 151:Middlewares/lvgl/src/widgets/lv_table.c ****     }
 152:Middlewares/lvgl/src/widgets/lv_table.c **** 
 153:Middlewares/lvgl/src/widgets/lv_table.c ****     lv_vsnprintf(raw_txt, len + 1, fmt, ap2);
 154:Middlewares/lvgl/src/widgets/lv_table.c **** 
 155:Middlewares/lvgl/src/widgets/lv_table.c ****     /*Get the size of the Arabic text and process it*/
 156:Middlewares/lvgl/src/widgets/lv_table.c ****     size_t len_ap = _lv_txt_ap_calc_bytes_cnt(raw_txt);
 157:Middlewares/lvgl/src/widgets/lv_table.c ****     table->cell_data[cell] = lv_mem_realloc(table->cell_data[cell], len_ap + 1);
 158:Middlewares/lvgl/src/widgets/lv_table.c ****     LV_ASSERT_MALLOC(table->cell_data[cell]);
 159:Middlewares/lvgl/src/widgets/lv_table.c ****     if(table->cell_data[cell] == NULL) {
 160:Middlewares/lvgl/src/widgets/lv_table.c ****         va_end(ap2);
 161:Middlewares/lvgl/src/widgets/lv_table.c ****         return;
 162:Middlewares/lvgl/src/widgets/lv_table.c ****     }
 163:Middlewares/lvgl/src/widgets/lv_table.c ****     _lv_txt_ap_proc(raw_txt, &table->cell_data[cell][1]);
 164:Middlewares/lvgl/src/widgets/lv_table.c **** 
 165:Middlewares/lvgl/src/widgets/lv_table.c ****     lv_mem_buf_release(raw_txt);
 166:Middlewares/lvgl/src/widgets/lv_table.c **** #else
 167:Middlewares/lvgl/src/widgets/lv_table.c ****     table->cell_data[cell] = lv_mem_realloc(table->cell_data[cell], len + 2); /*+1: trailing '\0; +
 168:Middlewares/lvgl/src/widgets/lv_table.c ****     LV_ASSERT_MALLOC(table->cell_data[cell]);
 169:Middlewares/lvgl/src/widgets/lv_table.c ****     if(table->cell_data[cell] == NULL) {
 170:Middlewares/lvgl/src/widgets/lv_table.c ****         va_end(ap2);
 171:Middlewares/lvgl/src/widgets/lv_table.c ****         return;
 172:Middlewares/lvgl/src/widgets/lv_table.c ****     }
 173:Middlewares/lvgl/src/widgets/lv_table.c **** 
 174:Middlewares/lvgl/src/widgets/lv_table.c ****     table->cell_data[cell][len + 1] = 0; /*Ensure NULL termination*/
 175:Middlewares/lvgl/src/widgets/lv_table.c **** 
 176:Middlewares/lvgl/src/widgets/lv_table.c ****     lv_vsnprintf(&table->cell_data[cell][1], len + 1, fmt, ap2);
 177:Middlewares/lvgl/src/widgets/lv_table.c **** #endif
 178:Middlewares/lvgl/src/widgets/lv_table.c **** 
 179:Middlewares/lvgl/src/widgets/lv_table.c ****     va_end(ap2);
 180:Middlewares/lvgl/src/widgets/lv_table.c **** 
 181:Middlewares/lvgl/src/widgets/lv_table.c ****     table->cell_data[cell][0] = ctrl;
 182:Middlewares/lvgl/src/widgets/lv_table.c **** 
 183:Middlewares/lvgl/src/widgets/lv_table.c ****     /*Refresh the row height*/
 184:Middlewares/lvgl/src/widgets/lv_table.c ****     lv_coord_t cell_left = lv_obj_get_style_pad_left(obj, LV_PART_ITEMS);
 185:Middlewares/lvgl/src/widgets/lv_table.c ****     lv_coord_t cell_right = lv_obj_get_style_pad_right(obj, LV_PART_ITEMS);
 186:Middlewares/lvgl/src/widgets/lv_table.c ****     lv_coord_t cell_top = lv_obj_get_style_pad_top(obj, LV_PART_ITEMS);
 187:Middlewares/lvgl/src/widgets/lv_table.c ****     lv_coord_t cell_bottom = lv_obj_get_style_pad_bottom(obj, LV_PART_ITEMS);
 188:Middlewares/lvgl/src/widgets/lv_table.c **** 
 189:Middlewares/lvgl/src/widgets/lv_table.c ****     lv_coord_t letter_space = lv_obj_get_style_text_letter_space(obj, LV_PART_ITEMS);
 190:Middlewares/lvgl/src/widgets/lv_table.c ****     lv_coord_t line_space = lv_obj_get_style_text_line_space(obj, LV_PART_ITEMS);
 191:Middlewares/lvgl/src/widgets/lv_table.c ****     const lv_font_t * font = lv_obj_get_style_text_font(obj, LV_PART_ITEMS);
 192:Middlewares/lvgl/src/widgets/lv_table.c **** 
 193:Middlewares/lvgl/src/widgets/lv_table.c ****     lv_coord_t h = get_row_height(obj, row, font, letter_space, line_space,
 194:Middlewares/lvgl/src/widgets/lv_table.c ****                                        cell_left, cell_right, cell_top, cell_bottom);
 195:Middlewares/lvgl/src/widgets/lv_table.c **** 
 196:Middlewares/lvgl/src/widgets/lv_table.c **** 
 197:Middlewares/lvgl/src/widgets/lv_table.c ****     lv_coord_t minh = lv_obj_get_style_min_height(obj, LV_PART_ITEMS);
 198:Middlewares/lvgl/src/widgets/lv_table.c ****     lv_coord_t maxh = lv_obj_get_style_max_height(obj, LV_PART_ITEMS);
 199:Middlewares/lvgl/src/widgets/lv_table.c **** 
 200:Middlewares/lvgl/src/widgets/lv_table.c ****     table->row_h[row] = LV_CLAMP(minh, h, maxh);
 201:Middlewares/lvgl/src/widgets/lv_table.c **** 
ARM GAS  /tmp/ccQS5ib5.s 			page 5


 202:Middlewares/lvgl/src/widgets/lv_table.c ****     lv_obj_invalidate(obj);
 203:Middlewares/lvgl/src/widgets/lv_table.c **** }
 204:Middlewares/lvgl/src/widgets/lv_table.c **** 
 205:Middlewares/lvgl/src/widgets/lv_table.c **** void lv_table_set_row_cnt(lv_obj_t * obj, uint16_t row_cnt)
 206:Middlewares/lvgl/src/widgets/lv_table.c **** {
 207:Middlewares/lvgl/src/widgets/lv_table.c ****     LV_ASSERT_OBJ(obj, MY_CLASS);
 208:Middlewares/lvgl/src/widgets/lv_table.c **** 
 209:Middlewares/lvgl/src/widgets/lv_table.c ****     lv_table_t * table = (lv_table_t *)obj;
 210:Middlewares/lvgl/src/widgets/lv_table.c ****     uint16_t old_row_cnt = table->row_cnt;
 211:Middlewares/lvgl/src/widgets/lv_table.c ****     table->row_cnt         = row_cnt;
 212:Middlewares/lvgl/src/widgets/lv_table.c **** 
 213:Middlewares/lvgl/src/widgets/lv_table.c ****     table->row_h = lv_mem_realloc(table->row_h, table->row_cnt * sizeof(table->row_h[0]));
 214:Middlewares/lvgl/src/widgets/lv_table.c ****     LV_ASSERT_MALLOC(table->row_h);
 215:Middlewares/lvgl/src/widgets/lv_table.c ****     if(table->row_h == NULL) return;
 216:Middlewares/lvgl/src/widgets/lv_table.c **** 
 217:Middlewares/lvgl/src/widgets/lv_table.c ****     /*Free the unused cells*/
 218:Middlewares/lvgl/src/widgets/lv_table.c ****     if(old_row_cnt > row_cnt) {
 219:Middlewares/lvgl/src/widgets/lv_table.c ****         uint16_t old_cell_cnt = old_row_cnt * table->col_cnt;
 220:Middlewares/lvgl/src/widgets/lv_table.c ****         uint32_t new_cell_cnt = table->col_cnt * table->row_cnt;
 221:Middlewares/lvgl/src/widgets/lv_table.c ****         uint32_t i;
 222:Middlewares/lvgl/src/widgets/lv_table.c ****         for(i = new_cell_cnt; i < old_cell_cnt; i++) {
 223:Middlewares/lvgl/src/widgets/lv_table.c ****             lv_mem_free(table->cell_data[i]);
 224:Middlewares/lvgl/src/widgets/lv_table.c ****         }
 225:Middlewares/lvgl/src/widgets/lv_table.c ****     }
 226:Middlewares/lvgl/src/widgets/lv_table.c **** 
 227:Middlewares/lvgl/src/widgets/lv_table.c ****     table->cell_data = lv_mem_realloc(table->cell_data, table->row_cnt * table->col_cnt * sizeof(ch
 228:Middlewares/lvgl/src/widgets/lv_table.c ****     LV_ASSERT_MALLOC(table->cell_data);
 229:Middlewares/lvgl/src/widgets/lv_table.c ****     if(table->cell_data == NULL) return;
 230:Middlewares/lvgl/src/widgets/lv_table.c **** 
 231:Middlewares/lvgl/src/widgets/lv_table.c ****     /*Initialize the new fields*/
 232:Middlewares/lvgl/src/widgets/lv_table.c ****     if(old_row_cnt < row_cnt) {
 233:Middlewares/lvgl/src/widgets/lv_table.c ****         uint32_t old_cell_cnt = old_row_cnt * table->col_cnt;
 234:Middlewares/lvgl/src/widgets/lv_table.c ****         uint32_t new_cell_cnt = table->col_cnt * table->row_cnt;
 235:Middlewares/lvgl/src/widgets/lv_table.c ****         lv_memset_00(&table->cell_data[old_cell_cnt], (new_cell_cnt - old_cell_cnt) * sizeof(table-
 236:Middlewares/lvgl/src/widgets/lv_table.c ****     }
 237:Middlewares/lvgl/src/widgets/lv_table.c **** 
 238:Middlewares/lvgl/src/widgets/lv_table.c ****     refr_size(obj, 0) ;
 239:Middlewares/lvgl/src/widgets/lv_table.c **** }
 240:Middlewares/lvgl/src/widgets/lv_table.c **** 
 241:Middlewares/lvgl/src/widgets/lv_table.c **** void lv_table_set_col_cnt(lv_obj_t * obj, uint16_t col_cnt)
 242:Middlewares/lvgl/src/widgets/lv_table.c **** {
 243:Middlewares/lvgl/src/widgets/lv_table.c ****     LV_ASSERT_OBJ(obj, MY_CLASS);
 244:Middlewares/lvgl/src/widgets/lv_table.c **** 
 245:Middlewares/lvgl/src/widgets/lv_table.c ****     lv_table_t * table = (lv_table_t *)obj;
 246:Middlewares/lvgl/src/widgets/lv_table.c ****     uint16_t old_col_cnt = table->col_cnt;
 247:Middlewares/lvgl/src/widgets/lv_table.c ****     table->col_cnt         = col_cnt;
 248:Middlewares/lvgl/src/widgets/lv_table.c ****     table->col_w = lv_mem_realloc(table->col_w, col_cnt * sizeof(table->row_h[0]));
 249:Middlewares/lvgl/src/widgets/lv_table.c ****     LV_ASSERT_MALLOC(table->col_w);
 250:Middlewares/lvgl/src/widgets/lv_table.c ****     if(table->col_w == NULL) return;
 251:Middlewares/lvgl/src/widgets/lv_table.c **** 
 252:Middlewares/lvgl/src/widgets/lv_table.c ****     /*Free the unused cells*/
 253:Middlewares/lvgl/src/widgets/lv_table.c ****     if(old_col_cnt > col_cnt) {
 254:Middlewares/lvgl/src/widgets/lv_table.c ****        uint16_t old_cell_cnt = old_col_cnt * table->row_cnt;
 255:Middlewares/lvgl/src/widgets/lv_table.c ****        uint32_t new_cell_cnt = table->col_cnt * table->row_cnt;
 256:Middlewares/lvgl/src/widgets/lv_table.c ****        uint32_t i;
 257:Middlewares/lvgl/src/widgets/lv_table.c ****        for(i = new_cell_cnt; i < old_cell_cnt; i++) {
 258:Middlewares/lvgl/src/widgets/lv_table.c ****            lv_mem_free(table->cell_data[i]);
ARM GAS  /tmp/ccQS5ib5.s 			page 6


 259:Middlewares/lvgl/src/widgets/lv_table.c ****        }
 260:Middlewares/lvgl/src/widgets/lv_table.c ****    }
 261:Middlewares/lvgl/src/widgets/lv_table.c **** 
 262:Middlewares/lvgl/src/widgets/lv_table.c ****     char ** new_cell_data = lv_mem_alloc(table->row_cnt * table->col_cnt * sizeof(char *));
 263:Middlewares/lvgl/src/widgets/lv_table.c ****     LV_ASSERT_MALLOC(new_cell_data);
 264:Middlewares/lvgl/src/widgets/lv_table.c ****     if(new_cell_data == NULL) return;
 265:Middlewares/lvgl/src/widgets/lv_table.c ****     uint32_t new_cell_cnt = table->col_cnt * table->row_cnt;
 266:Middlewares/lvgl/src/widgets/lv_table.c ****     lv_memset_00(new_cell_data, new_cell_cnt * sizeof(table->cell_data[0]));
 267:Middlewares/lvgl/src/widgets/lv_table.c **** 
 268:Middlewares/lvgl/src/widgets/lv_table.c ****     /*Initialize the new fields*/
 269:Middlewares/lvgl/src/widgets/lv_table.c ****     if(old_col_cnt < col_cnt) {
 270:Middlewares/lvgl/src/widgets/lv_table.c ****         uint32_t col;
 271:Middlewares/lvgl/src/widgets/lv_table.c ****         for(col = old_col_cnt; col < col_cnt; col++) {
 272:Middlewares/lvgl/src/widgets/lv_table.c ****             table->col_w[col] = LV_DPI_DEF;
 273:Middlewares/lvgl/src/widgets/lv_table.c ****         }
 274:Middlewares/lvgl/src/widgets/lv_table.c ****     }
 275:Middlewares/lvgl/src/widgets/lv_table.c **** 
 276:Middlewares/lvgl/src/widgets/lv_table.c ****     /*The new column(s) messes up the mapping of `cell_data`*/
 277:Middlewares/lvgl/src/widgets/lv_table.c ****     uint32_t old_col_start;
 278:Middlewares/lvgl/src/widgets/lv_table.c ****     uint32_t new_col_start;
 279:Middlewares/lvgl/src/widgets/lv_table.c ****     uint32_t min_col_cnt = LV_MIN(old_col_cnt, col_cnt);
 280:Middlewares/lvgl/src/widgets/lv_table.c ****     uint32_t row;
 281:Middlewares/lvgl/src/widgets/lv_table.c ****     for(row = 0; row < table->row_cnt; row++) {
 282:Middlewares/lvgl/src/widgets/lv_table.c ****         old_col_start = row * old_col_cnt;
 283:Middlewares/lvgl/src/widgets/lv_table.c ****         new_col_start = row * col_cnt;
 284:Middlewares/lvgl/src/widgets/lv_table.c **** 
 285:Middlewares/lvgl/src/widgets/lv_table.c ****         lv_memcpy_small(&new_cell_data[new_col_start], &table->cell_data[old_col_start], sizeof(new
 286:Middlewares/lvgl/src/widgets/lv_table.c ****     }
 287:Middlewares/lvgl/src/widgets/lv_table.c **** 
 288:Middlewares/lvgl/src/widgets/lv_table.c ****     lv_mem_free(table->cell_data);
 289:Middlewares/lvgl/src/widgets/lv_table.c ****     table->cell_data = new_cell_data;
 290:Middlewares/lvgl/src/widgets/lv_table.c **** 
 291:Middlewares/lvgl/src/widgets/lv_table.c **** 
 292:Middlewares/lvgl/src/widgets/lv_table.c ****     refr_size(obj, 0) ;
 293:Middlewares/lvgl/src/widgets/lv_table.c **** }
 294:Middlewares/lvgl/src/widgets/lv_table.c **** 
 295:Middlewares/lvgl/src/widgets/lv_table.c **** void lv_table_set_col_width(lv_obj_t * obj, uint16_t col_id, lv_coord_t w)
 296:Middlewares/lvgl/src/widgets/lv_table.c **** {
 297:Middlewares/lvgl/src/widgets/lv_table.c ****     LV_ASSERT_OBJ(obj, MY_CLASS);
 298:Middlewares/lvgl/src/widgets/lv_table.c **** 
 299:Middlewares/lvgl/src/widgets/lv_table.c ****     lv_table_t * table = (lv_table_t *)obj;
 300:Middlewares/lvgl/src/widgets/lv_table.c **** 
 301:Middlewares/lvgl/src/widgets/lv_table.c ****     /*Auto expand*/
 302:Middlewares/lvgl/src/widgets/lv_table.c ****     if(col_id >= table->col_cnt) lv_table_set_col_cnt(obj, col_id + 1);
 303:Middlewares/lvgl/src/widgets/lv_table.c **** 
 304:Middlewares/lvgl/src/widgets/lv_table.c ****     table->col_w[col_id] = w;
 305:Middlewares/lvgl/src/widgets/lv_table.c ****     refr_size(obj, 0) ;
 306:Middlewares/lvgl/src/widgets/lv_table.c **** }
 307:Middlewares/lvgl/src/widgets/lv_table.c **** 
 308:Middlewares/lvgl/src/widgets/lv_table.c **** void lv_table_add_cell_ctrl(lv_obj_t * obj, uint16_t row, uint16_t col, lv_table_cell_ctrl_t ctrl)
 309:Middlewares/lvgl/src/widgets/lv_table.c **** {
 310:Middlewares/lvgl/src/widgets/lv_table.c ****     LV_ASSERT_OBJ(obj, MY_CLASS);
 311:Middlewares/lvgl/src/widgets/lv_table.c **** 
 312:Middlewares/lvgl/src/widgets/lv_table.c ****     lv_table_t * table = (lv_table_t *)obj;
 313:Middlewares/lvgl/src/widgets/lv_table.c **** 
 314:Middlewares/lvgl/src/widgets/lv_table.c ****     /*Auto expand*/
 315:Middlewares/lvgl/src/widgets/lv_table.c ****     if(col >= table->col_cnt) lv_table_set_col_cnt(obj, col + 1);
ARM GAS  /tmp/ccQS5ib5.s 			page 7


 316:Middlewares/lvgl/src/widgets/lv_table.c ****     if(row >= table->row_cnt) lv_table_set_row_cnt(obj, row + 1);
 317:Middlewares/lvgl/src/widgets/lv_table.c **** 
 318:Middlewares/lvgl/src/widgets/lv_table.c ****     uint32_t cell = row * table->col_cnt + col;
 319:Middlewares/lvgl/src/widgets/lv_table.c **** 
 320:Middlewares/lvgl/src/widgets/lv_table.c ****     if(table->cell_data[cell] == NULL) {
 321:Middlewares/lvgl/src/widgets/lv_table.c ****         table->cell_data[cell]    = lv_mem_alloc(2); /*+1: trailing '\0; +1: format byte*/
 322:Middlewares/lvgl/src/widgets/lv_table.c ****         LV_ASSERT_MALLOC(table->cell_data[cell]);
 323:Middlewares/lvgl/src/widgets/lv_table.c ****         if(table->cell_data[cell] == NULL) return;
 324:Middlewares/lvgl/src/widgets/lv_table.c **** 
 325:Middlewares/lvgl/src/widgets/lv_table.c ****         table->cell_data[cell][0] = 0;
 326:Middlewares/lvgl/src/widgets/lv_table.c ****         table->cell_data[cell][1] = '\0';
 327:Middlewares/lvgl/src/widgets/lv_table.c ****     }
 328:Middlewares/lvgl/src/widgets/lv_table.c **** 
 329:Middlewares/lvgl/src/widgets/lv_table.c ****     table->cell_data[cell][0] |= ctrl;
 330:Middlewares/lvgl/src/widgets/lv_table.c **** }
 331:Middlewares/lvgl/src/widgets/lv_table.c **** 
 332:Middlewares/lvgl/src/widgets/lv_table.c **** void lv_table_clear_cell_ctrl(lv_obj_t * obj, uint16_t row, uint16_t col, lv_table_cell_ctrl_t ctrl
 333:Middlewares/lvgl/src/widgets/lv_table.c **** {
 334:Middlewares/lvgl/src/widgets/lv_table.c ****     LV_ASSERT_OBJ(obj, MY_CLASS);
 335:Middlewares/lvgl/src/widgets/lv_table.c **** 
 336:Middlewares/lvgl/src/widgets/lv_table.c ****     lv_table_t * table = (lv_table_t *)obj;
 337:Middlewares/lvgl/src/widgets/lv_table.c **** 
 338:Middlewares/lvgl/src/widgets/lv_table.c ****     /*Auto expand*/
 339:Middlewares/lvgl/src/widgets/lv_table.c ****     if(col >= table->col_cnt) lv_table_set_col_cnt(obj, col + 1);
 340:Middlewares/lvgl/src/widgets/lv_table.c ****     if(row >= table->row_cnt) lv_table_set_row_cnt(obj, row + 1);
 341:Middlewares/lvgl/src/widgets/lv_table.c **** 
 342:Middlewares/lvgl/src/widgets/lv_table.c ****     uint32_t cell = row * table->col_cnt + col;
 343:Middlewares/lvgl/src/widgets/lv_table.c **** 
 344:Middlewares/lvgl/src/widgets/lv_table.c ****     if(table->cell_data[cell] == NULL) {
 345:Middlewares/lvgl/src/widgets/lv_table.c ****         table->cell_data[cell]    = lv_mem_alloc(2); /*+1: trailing '\0; +1: format byte*/
 346:Middlewares/lvgl/src/widgets/lv_table.c ****         LV_ASSERT_MALLOC(table->cell_data[cell]);
 347:Middlewares/lvgl/src/widgets/lv_table.c ****         if(table->cell_data[cell] == NULL) return;
 348:Middlewares/lvgl/src/widgets/lv_table.c **** 
 349:Middlewares/lvgl/src/widgets/lv_table.c ****         table->cell_data[cell][0] = 0;
 350:Middlewares/lvgl/src/widgets/lv_table.c ****         table->cell_data[cell][1] = '\0';
 351:Middlewares/lvgl/src/widgets/lv_table.c ****     }
 352:Middlewares/lvgl/src/widgets/lv_table.c **** 
 353:Middlewares/lvgl/src/widgets/lv_table.c ****     table->cell_data[cell][0] &= (~ctrl);
 354:Middlewares/lvgl/src/widgets/lv_table.c **** }
 355:Middlewares/lvgl/src/widgets/lv_table.c **** 
 356:Middlewares/lvgl/src/widgets/lv_table.c **** /*=====================
 357:Middlewares/lvgl/src/widgets/lv_table.c ****  * Getter functions
 358:Middlewares/lvgl/src/widgets/lv_table.c ****  *====================*/
 359:Middlewares/lvgl/src/widgets/lv_table.c **** 
 360:Middlewares/lvgl/src/widgets/lv_table.c **** const char * lv_table_get_cell_value(lv_obj_t * obj, uint16_t row, uint16_t col)
 361:Middlewares/lvgl/src/widgets/lv_table.c **** {
 362:Middlewares/lvgl/src/widgets/lv_table.c ****     LV_ASSERT_OBJ(obj, MY_CLASS);
 363:Middlewares/lvgl/src/widgets/lv_table.c **** 
 364:Middlewares/lvgl/src/widgets/lv_table.c ****     lv_table_t * table = (lv_table_t *)obj;
 365:Middlewares/lvgl/src/widgets/lv_table.c ****     if(row >= table->row_cnt || col >= table->col_cnt) {
 366:Middlewares/lvgl/src/widgets/lv_table.c ****         LV_LOG_WARN("lv_table_set_cell_value: invalid row or column");
 367:Middlewares/lvgl/src/widgets/lv_table.c ****         return "";
 368:Middlewares/lvgl/src/widgets/lv_table.c ****     }
 369:Middlewares/lvgl/src/widgets/lv_table.c ****     uint32_t cell = row * table->col_cnt + col;
 370:Middlewares/lvgl/src/widgets/lv_table.c **** 
 371:Middlewares/lvgl/src/widgets/lv_table.c ****     if(table->cell_data[cell] == NULL) return "";
 372:Middlewares/lvgl/src/widgets/lv_table.c **** 
ARM GAS  /tmp/ccQS5ib5.s 			page 8


 373:Middlewares/lvgl/src/widgets/lv_table.c ****     return &table->cell_data[cell][1]; /*Skip the format byte*/
 374:Middlewares/lvgl/src/widgets/lv_table.c **** }
 375:Middlewares/lvgl/src/widgets/lv_table.c **** 
 376:Middlewares/lvgl/src/widgets/lv_table.c **** uint16_t lv_table_get_row_cnt(lv_obj_t * obj)
 377:Middlewares/lvgl/src/widgets/lv_table.c **** {
 378:Middlewares/lvgl/src/widgets/lv_table.c ****     LV_ASSERT_OBJ(obj, MY_CLASS);
 379:Middlewares/lvgl/src/widgets/lv_table.c **** 
 380:Middlewares/lvgl/src/widgets/lv_table.c ****     lv_table_t * table = (lv_table_t *)obj;
 381:Middlewares/lvgl/src/widgets/lv_table.c ****     return table->row_cnt;
 382:Middlewares/lvgl/src/widgets/lv_table.c **** }
 383:Middlewares/lvgl/src/widgets/lv_table.c **** 
 384:Middlewares/lvgl/src/widgets/lv_table.c **** uint16_t lv_table_get_col_cnt(lv_obj_t * obj)
 385:Middlewares/lvgl/src/widgets/lv_table.c **** {
 386:Middlewares/lvgl/src/widgets/lv_table.c ****     LV_ASSERT_OBJ(obj, MY_CLASS);
 387:Middlewares/lvgl/src/widgets/lv_table.c **** 
 388:Middlewares/lvgl/src/widgets/lv_table.c ****     lv_table_t * table = (lv_table_t *)obj;
 389:Middlewares/lvgl/src/widgets/lv_table.c ****     return table->col_cnt;
 390:Middlewares/lvgl/src/widgets/lv_table.c **** }
 391:Middlewares/lvgl/src/widgets/lv_table.c **** 
 392:Middlewares/lvgl/src/widgets/lv_table.c **** lv_coord_t lv_table_get_col_width(lv_obj_t * obj, uint16_t col)
 393:Middlewares/lvgl/src/widgets/lv_table.c **** {
 394:Middlewares/lvgl/src/widgets/lv_table.c ****     LV_ASSERT_OBJ(obj, MY_CLASS);
 395:Middlewares/lvgl/src/widgets/lv_table.c **** 
 396:Middlewares/lvgl/src/widgets/lv_table.c ****     lv_table_t * table = (lv_table_t *)obj;
 397:Middlewares/lvgl/src/widgets/lv_table.c **** 
 398:Middlewares/lvgl/src/widgets/lv_table.c ****     if(col >= table->col_cnt) {
 399:Middlewares/lvgl/src/widgets/lv_table.c ****         LV_LOG_WARN("lv_table_set_col_width: too big 'col_id'. Must be < LV_TABLE_COL_MAX.");
 400:Middlewares/lvgl/src/widgets/lv_table.c ****         return 0;
 401:Middlewares/lvgl/src/widgets/lv_table.c ****     }
 402:Middlewares/lvgl/src/widgets/lv_table.c **** 
 403:Middlewares/lvgl/src/widgets/lv_table.c ****     return table->col_w[col];
 404:Middlewares/lvgl/src/widgets/lv_table.c **** }
 405:Middlewares/lvgl/src/widgets/lv_table.c **** 
 406:Middlewares/lvgl/src/widgets/lv_table.c **** bool lv_table_has_cell_ctrl(lv_obj_t * obj, uint16_t row, uint16_t col, lv_table_cell_ctrl_t ctrl)
 407:Middlewares/lvgl/src/widgets/lv_table.c **** {
 408:Middlewares/lvgl/src/widgets/lv_table.c ****     LV_ASSERT_OBJ(obj, MY_CLASS);
 409:Middlewares/lvgl/src/widgets/lv_table.c **** 
 410:Middlewares/lvgl/src/widgets/lv_table.c ****     lv_table_t * table = (lv_table_t *)obj;
 411:Middlewares/lvgl/src/widgets/lv_table.c ****     if(row >= table->row_cnt || col >= table->col_cnt) {
 412:Middlewares/lvgl/src/widgets/lv_table.c ****         LV_LOG_WARN("lv_table_get_cell_crop: invalid row or column");
 413:Middlewares/lvgl/src/widgets/lv_table.c ****         return false;
 414:Middlewares/lvgl/src/widgets/lv_table.c ****     }
 415:Middlewares/lvgl/src/widgets/lv_table.c ****     uint32_t cell = row * table->col_cnt + col;
 416:Middlewares/lvgl/src/widgets/lv_table.c **** 
 417:Middlewares/lvgl/src/widgets/lv_table.c ****     if(table->cell_data[cell] == NULL) return false;
 418:Middlewares/lvgl/src/widgets/lv_table.c ****     else return (table->cell_data[cell][0] & ctrl) == ctrl ? true : false;
 419:Middlewares/lvgl/src/widgets/lv_table.c **** }
 420:Middlewares/lvgl/src/widgets/lv_table.c **** 
 421:Middlewares/lvgl/src/widgets/lv_table.c **** void lv_table_get_selected_cell(lv_obj_t * obj, uint16_t * row, uint16_t * col)
 422:Middlewares/lvgl/src/widgets/lv_table.c **** {
 423:Middlewares/lvgl/src/widgets/lv_table.c ****     lv_table_t * table = (lv_table_t *)obj;
 424:Middlewares/lvgl/src/widgets/lv_table.c ****     *row = table->row_act;
 425:Middlewares/lvgl/src/widgets/lv_table.c ****     *col = table->col_act;
 426:Middlewares/lvgl/src/widgets/lv_table.c **** }
 427:Middlewares/lvgl/src/widgets/lv_table.c **** 
 428:Middlewares/lvgl/src/widgets/lv_table.c **** /**********************
 429:Middlewares/lvgl/src/widgets/lv_table.c ****  *   STATIC FUNCTIONS
ARM GAS  /tmp/ccQS5ib5.s 			page 9


 430:Middlewares/lvgl/src/widgets/lv_table.c ****  **********************/
 431:Middlewares/lvgl/src/widgets/lv_table.c **** 
 432:Middlewares/lvgl/src/widgets/lv_table.c **** static void lv_table_constructor(const lv_obj_class_t * class_p, lv_obj_t * obj)
 433:Middlewares/lvgl/src/widgets/lv_table.c **** {
 434:Middlewares/lvgl/src/widgets/lv_table.c ****     LV_UNUSED(class_p);
 435:Middlewares/lvgl/src/widgets/lv_table.c ****     LV_TRACE_OBJ_CREATE("begin");
 436:Middlewares/lvgl/src/widgets/lv_table.c **** 
 437:Middlewares/lvgl/src/widgets/lv_table.c ****     lv_table_t * table = (lv_table_t *)obj;
 438:Middlewares/lvgl/src/widgets/lv_table.c **** 
 439:Middlewares/lvgl/src/widgets/lv_table.c ****     table->col_cnt = 1;
 440:Middlewares/lvgl/src/widgets/lv_table.c ****     table->row_cnt = 1;
 441:Middlewares/lvgl/src/widgets/lv_table.c ****     table->col_w = lv_mem_alloc(table->col_cnt * sizeof(table->col_w[0]));
 442:Middlewares/lvgl/src/widgets/lv_table.c ****     table->row_h = lv_mem_alloc(table->row_cnt * sizeof(table->row_h[0]));
 443:Middlewares/lvgl/src/widgets/lv_table.c ****     table->col_w[0] = LV_DPI_DEF;
 444:Middlewares/lvgl/src/widgets/lv_table.c ****     table->row_h[0] = LV_DPI_DEF;
 445:Middlewares/lvgl/src/widgets/lv_table.c ****     table->cell_data = lv_mem_realloc(table->cell_data, table->row_cnt * table->col_cnt * sizeof(ch
 446:Middlewares/lvgl/src/widgets/lv_table.c ****     table->cell_data[0] = NULL;
 447:Middlewares/lvgl/src/widgets/lv_table.c **** 
 448:Middlewares/lvgl/src/widgets/lv_table.c ****     LV_TRACE_OBJ_CREATE("finished");
 449:Middlewares/lvgl/src/widgets/lv_table.c **** }
 450:Middlewares/lvgl/src/widgets/lv_table.c **** 
 451:Middlewares/lvgl/src/widgets/lv_table.c **** static void lv_table_destructor(const lv_obj_class_t * class_p, lv_obj_t * obj)
 452:Middlewares/lvgl/src/widgets/lv_table.c **** {
 453:Middlewares/lvgl/src/widgets/lv_table.c ****     LV_UNUSED(class_p);
 454:Middlewares/lvgl/src/widgets/lv_table.c ****     lv_table_t * table = (lv_table_t *)obj;
 455:Middlewares/lvgl/src/widgets/lv_table.c ****     /*Free the cell texts*/
 456:Middlewares/lvgl/src/widgets/lv_table.c ****     uint16_t i;
 457:Middlewares/lvgl/src/widgets/lv_table.c ****     for(i = 0; i < table->col_cnt * table->row_cnt; i++) {
 458:Middlewares/lvgl/src/widgets/lv_table.c ****         if(table->cell_data[i]) {
 459:Middlewares/lvgl/src/widgets/lv_table.c ****             lv_mem_free(table->cell_data[i]);
 460:Middlewares/lvgl/src/widgets/lv_table.c ****             table->cell_data[i] = NULL;
 461:Middlewares/lvgl/src/widgets/lv_table.c ****         }
 462:Middlewares/lvgl/src/widgets/lv_table.c ****     }
 463:Middlewares/lvgl/src/widgets/lv_table.c **** 
 464:Middlewares/lvgl/src/widgets/lv_table.c ****     if(table->cell_data) lv_mem_free(table->cell_data);
 465:Middlewares/lvgl/src/widgets/lv_table.c ****     if(table->row_h) lv_mem_free(table->row_h);
 466:Middlewares/lvgl/src/widgets/lv_table.c **** }
 467:Middlewares/lvgl/src/widgets/lv_table.c **** 
 468:Middlewares/lvgl/src/widgets/lv_table.c **** static void lv_table_event(const lv_obj_class_t * class_p, lv_event_t * e)
 469:Middlewares/lvgl/src/widgets/lv_table.c **** {
 470:Middlewares/lvgl/src/widgets/lv_table.c ****     LV_UNUSED(class_p);
 471:Middlewares/lvgl/src/widgets/lv_table.c **** 
 472:Middlewares/lvgl/src/widgets/lv_table.c ****     lv_res_t res;
 473:Middlewares/lvgl/src/widgets/lv_table.c **** 
 474:Middlewares/lvgl/src/widgets/lv_table.c ****     /*Call the ancestor's event handler*/
 475:Middlewares/lvgl/src/widgets/lv_table.c ****     res = lv_obj_event_base(MY_CLASS, e);
 476:Middlewares/lvgl/src/widgets/lv_table.c ****     if(res != LV_RES_OK) return;
 477:Middlewares/lvgl/src/widgets/lv_table.c **** 
 478:Middlewares/lvgl/src/widgets/lv_table.c ****     lv_event_code_t code = lv_event_get_code(e);
 479:Middlewares/lvgl/src/widgets/lv_table.c ****     lv_obj_t * obj = lv_event_get_target(e);
 480:Middlewares/lvgl/src/widgets/lv_table.c ****     lv_table_t * table = (lv_table_t *)obj;
 481:Middlewares/lvgl/src/widgets/lv_table.c **** 
 482:Middlewares/lvgl/src/widgets/lv_table.c ****     if(code == LV_EVENT_STYLE_CHANGED) {
 483:Middlewares/lvgl/src/widgets/lv_table.c ****         refr_size(obj, 0);
 484:Middlewares/lvgl/src/widgets/lv_table.c ****     }
 485:Middlewares/lvgl/src/widgets/lv_table.c ****     else if(code == LV_EVENT_GET_SELF_SIZE) {
 486:Middlewares/lvgl/src/widgets/lv_table.c ****         lv_point_t * p = lv_event_get_param(e);
ARM GAS  /tmp/ccQS5ib5.s 			page 10


 487:Middlewares/lvgl/src/widgets/lv_table.c ****         uint32_t i;
 488:Middlewares/lvgl/src/widgets/lv_table.c ****         lv_coord_t w = 0;
 489:Middlewares/lvgl/src/widgets/lv_table.c ****         for(i = 0; i < table->col_cnt; i++) w += table->col_w[i];
 490:Middlewares/lvgl/src/widgets/lv_table.c **** 
 491:Middlewares/lvgl/src/widgets/lv_table.c ****         lv_coord_t h = 0;
 492:Middlewares/lvgl/src/widgets/lv_table.c ****         for(i = 0; i < table->row_cnt; i++) h += table->row_h[i];
 493:Middlewares/lvgl/src/widgets/lv_table.c **** 
 494:Middlewares/lvgl/src/widgets/lv_table.c ****         p->x = w;
 495:Middlewares/lvgl/src/widgets/lv_table.c ****         p->y = h;
 496:Middlewares/lvgl/src/widgets/lv_table.c ****     }
 497:Middlewares/lvgl/src/widgets/lv_table.c ****     else if(code == LV_EVENT_PRESSED || code == LV_EVENT_PRESSING) {
 498:Middlewares/lvgl/src/widgets/lv_table.c ****         uint16_t col;
 499:Middlewares/lvgl/src/widgets/lv_table.c ****         uint16_t row;
 500:Middlewares/lvgl/src/widgets/lv_table.c ****         lv_res_t pr_res = get_pressed_cell(obj, &row, &col);
 501:Middlewares/lvgl/src/widgets/lv_table.c **** 
 502:Middlewares/lvgl/src/widgets/lv_table.c ****         if(pr_res == LV_RES_OK && (table->col_act != col || table->row_act != row)) {
 503:Middlewares/lvgl/src/widgets/lv_table.c ****             table->col_act = col;
 504:Middlewares/lvgl/src/widgets/lv_table.c ****             table->row_act = row;
 505:Middlewares/lvgl/src/widgets/lv_table.c ****         }
 506:Middlewares/lvgl/src/widgets/lv_table.c ****         lv_obj_invalidate(obj);
 507:Middlewares/lvgl/src/widgets/lv_table.c ****     }
 508:Middlewares/lvgl/src/widgets/lv_table.c ****     else if(code == LV_EVENT_RELEASED) {
 509:Middlewares/lvgl/src/widgets/lv_table.c ****         lv_obj_invalidate(obj);
 510:Middlewares/lvgl/src/widgets/lv_table.c ****         lv_indev_t * indev = lv_indev_get_act();
 511:Middlewares/lvgl/src/widgets/lv_table.c ****         lv_obj_t * scroll_obj = lv_indev_get_scroll_obj(indev);
 512:Middlewares/lvgl/src/widgets/lv_table.c ****         if(table->col_act != LV_TABLE_CELL_NONE && table->row_act != LV_TABLE_CELL_NONE && scroll_o
 513:Middlewares/lvgl/src/widgets/lv_table.c ****             res = lv_event_send(obj, LV_EVENT_VALUE_CHANGED, NULL);
 514:Middlewares/lvgl/src/widgets/lv_table.c ****             if(res != LV_RES_OK) return;
 515:Middlewares/lvgl/src/widgets/lv_table.c ****         }
 516:Middlewares/lvgl/src/widgets/lv_table.c **** 
 517:Middlewares/lvgl/src/widgets/lv_table.c ****         lv_indev_type_t indev_type = lv_indev_get_type(lv_indev_get_act());
 518:Middlewares/lvgl/src/widgets/lv_table.c ****         if(indev_type == LV_INDEV_TYPE_POINTER || indev_type == LV_INDEV_TYPE_BUTTON) {
 519:Middlewares/lvgl/src/widgets/lv_table.c ****             table->col_act = LV_TABLE_CELL_NONE;
 520:Middlewares/lvgl/src/widgets/lv_table.c ****             table->row_act = LV_TABLE_CELL_NONE;
 521:Middlewares/lvgl/src/widgets/lv_table.c ****         }
 522:Middlewares/lvgl/src/widgets/lv_table.c ****     }
 523:Middlewares/lvgl/src/widgets/lv_table.c ****     else if(code == LV_EVENT_FOCUSED) {
 524:Middlewares/lvgl/src/widgets/lv_table.c ****         lv_obj_invalidate(obj);
 525:Middlewares/lvgl/src/widgets/lv_table.c ****     } else if(code == LV_EVENT_KEY) {
 526:Middlewares/lvgl/src/widgets/lv_table.c ****         int32_t c = *((int32_t *)lv_event_get_param(e));
 527:Middlewares/lvgl/src/widgets/lv_table.c ****         int32_t col = table->col_act;
 528:Middlewares/lvgl/src/widgets/lv_table.c ****         int32_t row = table->row_act;
 529:Middlewares/lvgl/src/widgets/lv_table.c ****         if(col == LV_TABLE_CELL_NONE || row == LV_TABLE_CELL_NONE) {
 530:Middlewares/lvgl/src/widgets/lv_table.c ****             table->col_act = 0;
 531:Middlewares/lvgl/src/widgets/lv_table.c ****             table->row_act = 0;
 532:Middlewares/lvgl/src/widgets/lv_table.c ****             lv_obj_invalidate(obj);
 533:Middlewares/lvgl/src/widgets/lv_table.c ****             return;
 534:Middlewares/lvgl/src/widgets/lv_table.c ****         }
 535:Middlewares/lvgl/src/widgets/lv_table.c **** 
 536:Middlewares/lvgl/src/widgets/lv_table.c ****         if(col >= table->col_cnt) col = 0;
 537:Middlewares/lvgl/src/widgets/lv_table.c ****         if(row >= table->row_cnt) row = 0;
 538:Middlewares/lvgl/src/widgets/lv_table.c **** 
 539:Middlewares/lvgl/src/widgets/lv_table.c ****         if(c == LV_KEY_LEFT) col--;
 540:Middlewares/lvgl/src/widgets/lv_table.c ****         else if(c == LV_KEY_RIGHT) col++;
 541:Middlewares/lvgl/src/widgets/lv_table.c ****         else if(c == LV_KEY_UP) row--;
 542:Middlewares/lvgl/src/widgets/lv_table.c ****         else if(c == LV_KEY_DOWN) row++;
 543:Middlewares/lvgl/src/widgets/lv_table.c ****         else return;
ARM GAS  /tmp/ccQS5ib5.s 			page 11


 544:Middlewares/lvgl/src/widgets/lv_table.c **** 
 545:Middlewares/lvgl/src/widgets/lv_table.c ****         if(col >= table->col_cnt) {
 546:Middlewares/lvgl/src/widgets/lv_table.c ****             if(row < table->row_cnt - 1) {
 547:Middlewares/lvgl/src/widgets/lv_table.c ****                 col = 0;
 548:Middlewares/lvgl/src/widgets/lv_table.c ****                 row++;
 549:Middlewares/lvgl/src/widgets/lv_table.c ****             } else {
 550:Middlewares/lvgl/src/widgets/lv_table.c ****                 col = table->col_cnt - 1;
 551:Middlewares/lvgl/src/widgets/lv_table.c ****             }
 552:Middlewares/lvgl/src/widgets/lv_table.c ****         } else if (col < 0) {
 553:Middlewares/lvgl/src/widgets/lv_table.c ****             if(row != 0) {
 554:Middlewares/lvgl/src/widgets/lv_table.c ****                 col = table->col_cnt - 1;
 555:Middlewares/lvgl/src/widgets/lv_table.c ****                 row--;
 556:Middlewares/lvgl/src/widgets/lv_table.c ****             } else {
 557:Middlewares/lvgl/src/widgets/lv_table.c ****                 col = 0;
 558:Middlewares/lvgl/src/widgets/lv_table.c ****             }
 559:Middlewares/lvgl/src/widgets/lv_table.c ****         }
 560:Middlewares/lvgl/src/widgets/lv_table.c **** 
 561:Middlewares/lvgl/src/widgets/lv_table.c ****         if(row >= table->row_cnt) {
 562:Middlewares/lvgl/src/widgets/lv_table.c ****             row = table->row_cnt - 1;
 563:Middlewares/lvgl/src/widgets/lv_table.c ****         } else if(row < 0) {
 564:Middlewares/lvgl/src/widgets/lv_table.c ****             row = 0;
 565:Middlewares/lvgl/src/widgets/lv_table.c ****         }
 566:Middlewares/lvgl/src/widgets/lv_table.c **** 
 567:Middlewares/lvgl/src/widgets/lv_table.c ****         if(table->col_act != col || table->row_act != row) {
 568:Middlewares/lvgl/src/widgets/lv_table.c ****             table->col_act = col;
 569:Middlewares/lvgl/src/widgets/lv_table.c ****             table->row_act = row;
 570:Middlewares/lvgl/src/widgets/lv_table.c ****             lv_obj_invalidate(obj);
 571:Middlewares/lvgl/src/widgets/lv_table.c **** 
 572:Middlewares/lvgl/src/widgets/lv_table.c ****             res = lv_event_send(obj, LV_EVENT_VALUE_CHANGED, NULL);
 573:Middlewares/lvgl/src/widgets/lv_table.c ****             if(res != LV_RES_OK) return;
 574:Middlewares/lvgl/src/widgets/lv_table.c ****         }
 575:Middlewares/lvgl/src/widgets/lv_table.c ****     } else if(code == LV_EVENT_DRAW_MAIN) {
 576:Middlewares/lvgl/src/widgets/lv_table.c ****         draw_main(e);
 577:Middlewares/lvgl/src/widgets/lv_table.c ****     }
 578:Middlewares/lvgl/src/widgets/lv_table.c **** }
 579:Middlewares/lvgl/src/widgets/lv_table.c **** 
 580:Middlewares/lvgl/src/widgets/lv_table.c **** 
 581:Middlewares/lvgl/src/widgets/lv_table.c **** static void draw_main(lv_event_t * e)
 582:Middlewares/lvgl/src/widgets/lv_table.c **** {
 583:Middlewares/lvgl/src/widgets/lv_table.c ****     lv_obj_t * obj = lv_event_get_target(e);
 584:Middlewares/lvgl/src/widgets/lv_table.c ****     lv_table_t * table = (lv_table_t *)obj;
 585:Middlewares/lvgl/src/widgets/lv_table.c ****     const lv_area_t * clip_area = lv_event_get_param(e);
 586:Middlewares/lvgl/src/widgets/lv_table.c **** 
 587:Middlewares/lvgl/src/widgets/lv_table.c ****     lv_point_t txt_size;
 588:Middlewares/lvgl/src/widgets/lv_table.c ****     lv_area_t cell_area;
 589:Middlewares/lvgl/src/widgets/lv_table.c ****     lv_area_t txt_area;
 590:Middlewares/lvgl/src/widgets/lv_table.c ****     lv_text_flag_t txt_flags;
 591:Middlewares/lvgl/src/widgets/lv_table.c **** 
 592:Middlewares/lvgl/src/widgets/lv_table.c ****     lv_coord_t bg_top = lv_obj_get_style_pad_top(obj, LV_PART_MAIN);
 593:Middlewares/lvgl/src/widgets/lv_table.c ****     lv_coord_t bg_bottom = lv_obj_get_style_pad_bottom(obj, LV_PART_MAIN);
 594:Middlewares/lvgl/src/widgets/lv_table.c ****     lv_coord_t bg_left = lv_obj_get_style_pad_left(obj, LV_PART_MAIN);
 595:Middlewares/lvgl/src/widgets/lv_table.c ****     lv_coord_t bg_right = lv_obj_get_style_pad_right(obj, LV_PART_MAIN);
 596:Middlewares/lvgl/src/widgets/lv_table.c **** 
 597:Middlewares/lvgl/src/widgets/lv_table.c ****     lv_coord_t cell_left = lv_obj_get_style_pad_left(obj, LV_PART_ITEMS);
 598:Middlewares/lvgl/src/widgets/lv_table.c ****     lv_coord_t cell_right = lv_obj_get_style_pad_right(obj, LV_PART_ITEMS);
 599:Middlewares/lvgl/src/widgets/lv_table.c ****     lv_coord_t cell_top = lv_obj_get_style_pad_top(obj, LV_PART_ITEMS);
 600:Middlewares/lvgl/src/widgets/lv_table.c ****     lv_coord_t cell_bottom = lv_obj_get_style_pad_bottom(obj, LV_PART_ITEMS);
ARM GAS  /tmp/ccQS5ib5.s 			page 12


 601:Middlewares/lvgl/src/widgets/lv_table.c **** 
 602:Middlewares/lvgl/src/widgets/lv_table.c ****     lv_state_t state_ori = obj->state;
 603:Middlewares/lvgl/src/widgets/lv_table.c ****     obj->state = LV_STATE_DEFAULT;
 604:Middlewares/lvgl/src/widgets/lv_table.c ****     obj->skip_trans = 1;
 605:Middlewares/lvgl/src/widgets/lv_table.c ****     lv_draw_rect_dsc_t rect_dsc_def;
 606:Middlewares/lvgl/src/widgets/lv_table.c ****     lv_draw_rect_dsc_t rect_dsc_act; /*Passed to the event to modify it*/
 607:Middlewares/lvgl/src/widgets/lv_table.c ****     lv_draw_rect_dsc_init(&rect_dsc_def);
 608:Middlewares/lvgl/src/widgets/lv_table.c ****     lv_obj_init_draw_rect_dsc(obj, LV_PART_ITEMS, &rect_dsc_def);
 609:Middlewares/lvgl/src/widgets/lv_table.c **** 
 610:Middlewares/lvgl/src/widgets/lv_table.c ****     lv_draw_label_dsc_t label_dsc_def;
 611:Middlewares/lvgl/src/widgets/lv_table.c ****     lv_draw_label_dsc_t label_dsc_act;  /*Passed to the event to modify it*/
 612:Middlewares/lvgl/src/widgets/lv_table.c ****     lv_draw_label_dsc_init(&label_dsc_def);
 613:Middlewares/lvgl/src/widgets/lv_table.c ****     lv_obj_init_draw_label_dsc(obj, LV_PART_ITEMS, &label_dsc_def);
 614:Middlewares/lvgl/src/widgets/lv_table.c ****     obj->state = state_ori;
 615:Middlewares/lvgl/src/widgets/lv_table.c ****     obj->skip_trans = 0;
 616:Middlewares/lvgl/src/widgets/lv_table.c **** 
 617:Middlewares/lvgl/src/widgets/lv_table.c ****     uint16_t col;
 618:Middlewares/lvgl/src/widgets/lv_table.c ****     uint16_t row;
 619:Middlewares/lvgl/src/widgets/lv_table.c ****     uint16_t cell = 0;
 620:Middlewares/lvgl/src/widgets/lv_table.c **** 
 621:Middlewares/lvgl/src/widgets/lv_table.c ****     cell_area.y2 = obj->coords.y1 + bg_top - 1 - lv_obj_get_scroll_y(obj) ;
 622:Middlewares/lvgl/src/widgets/lv_table.c ****     lv_coord_t scroll_x = lv_obj_get_scroll_x(obj) ;
 623:Middlewares/lvgl/src/widgets/lv_table.c ****     bool rtl = lv_obj_get_style_base_dir(obj, LV_PART_MAIN) == LV_BASE_DIR_RTL ? true : false;
 624:Middlewares/lvgl/src/widgets/lv_table.c **** 
 625:Middlewares/lvgl/src/widgets/lv_table.c ****     /*Handle custom drawer*/
 626:Middlewares/lvgl/src/widgets/lv_table.c ****     lv_obj_draw_part_dsc_t dsc;
 627:Middlewares/lvgl/src/widgets/lv_table.c ****     lv_obj_draw_dsc_init(&dsc, clip_area);
 628:Middlewares/lvgl/src/widgets/lv_table.c ****     dsc.part = LV_PART_ITEMS;
 629:Middlewares/lvgl/src/widgets/lv_table.c ****     dsc.rect_dsc = &rect_dsc_act;
 630:Middlewares/lvgl/src/widgets/lv_table.c ****     dsc.label_dsc = &label_dsc_act;
 631:Middlewares/lvgl/src/widgets/lv_table.c **** 
 632:Middlewares/lvgl/src/widgets/lv_table.c ****     for(row = 0; row < table->row_cnt; row++) {
 633:Middlewares/lvgl/src/widgets/lv_table.c ****         lv_coord_t h_row = table->row_h[row];
 634:Middlewares/lvgl/src/widgets/lv_table.c **** 
 635:Middlewares/lvgl/src/widgets/lv_table.c ****         cell_area.y1 = cell_area.y2 + 1;
 636:Middlewares/lvgl/src/widgets/lv_table.c ****         cell_area.y2 = cell_area.y1 + h_row - 1;
 637:Middlewares/lvgl/src/widgets/lv_table.c **** 
 638:Middlewares/lvgl/src/widgets/lv_table.c ****         if(cell_area.y1 > clip_area->y2) return;
 639:Middlewares/lvgl/src/widgets/lv_table.c **** 
 640:Middlewares/lvgl/src/widgets/lv_table.c ****         if(rtl) cell_area.x1 = obj->coords.x2 - bg_right - 1 - scroll_x;
 641:Middlewares/lvgl/src/widgets/lv_table.c ****         else cell_area.x2 = obj->coords.x1 + bg_left - 1 - scroll_x;
 642:Middlewares/lvgl/src/widgets/lv_table.c **** 
 643:Middlewares/lvgl/src/widgets/lv_table.c ****         for(col = 0; col < table->col_cnt; col++) {
 644:Middlewares/lvgl/src/widgets/lv_table.c ****             lv_table_cell_ctrl_t ctrl = 0;
 645:Middlewares/lvgl/src/widgets/lv_table.c ****             if(table->cell_data[cell]) ctrl = table->cell_data[cell][0];
 646:Middlewares/lvgl/src/widgets/lv_table.c **** 
 647:Middlewares/lvgl/src/widgets/lv_table.c ****             if(rtl) {
 648:Middlewares/lvgl/src/widgets/lv_table.c ****                 cell_area.x2 = cell_area.x1 - 1;
 649:Middlewares/lvgl/src/widgets/lv_table.c ****                 cell_area.x1 = cell_area.x2 - table->col_w[col] + 1;
 650:Middlewares/lvgl/src/widgets/lv_table.c ****             }
 651:Middlewares/lvgl/src/widgets/lv_table.c ****             else {
 652:Middlewares/lvgl/src/widgets/lv_table.c ****                 cell_area.x1 = cell_area.x2 + 1;
 653:Middlewares/lvgl/src/widgets/lv_table.c ****                 cell_area.x2 = cell_area.x1 + table->col_w[col] - 1;
 654:Middlewares/lvgl/src/widgets/lv_table.c ****             }
 655:Middlewares/lvgl/src/widgets/lv_table.c **** 
 656:Middlewares/lvgl/src/widgets/lv_table.c ****             uint16_t col_merge = 0;
 657:Middlewares/lvgl/src/widgets/lv_table.c ****             for(col_merge = 0; col_merge + col < table->col_cnt - 1; col_merge++) {
ARM GAS  /tmp/ccQS5ib5.s 			page 13


 658:Middlewares/lvgl/src/widgets/lv_table.c ****                 if(table->cell_data[cell + col_merge]) {
 659:Middlewares/lvgl/src/widgets/lv_table.c ****                     char * next_cell_data = table->cell_data[cell + col_merge];
 660:Middlewares/lvgl/src/widgets/lv_table.c ****                     if(next_cell_data) ctrl = next_cell_data[0];
 661:Middlewares/lvgl/src/widgets/lv_table.c ****                     if(ctrl & LV_TABLE_CELL_CTRL_MERGE_RIGHT)
 662:Middlewares/lvgl/src/widgets/lv_table.c ****                         if(rtl) cell_area.x1 -= table->col_w[col + col_merge + 1];
 663:Middlewares/lvgl/src/widgets/lv_table.c ****                         else cell_area.x2 += table->col_w[col + col_merge + 1];
 664:Middlewares/lvgl/src/widgets/lv_table.c ****                     else {
 665:Middlewares/lvgl/src/widgets/lv_table.c ****                         break;
 666:Middlewares/lvgl/src/widgets/lv_table.c ****                     }
 667:Middlewares/lvgl/src/widgets/lv_table.c ****                 }
 668:Middlewares/lvgl/src/widgets/lv_table.c ****                 else {
 669:Middlewares/lvgl/src/widgets/lv_table.c ****                     break;
 670:Middlewares/lvgl/src/widgets/lv_table.c ****                 }
 671:Middlewares/lvgl/src/widgets/lv_table.c ****             }
 672:Middlewares/lvgl/src/widgets/lv_table.c **** 
 673:Middlewares/lvgl/src/widgets/lv_table.c ****             if(cell_area.y2 < clip_area->y1) {
 674:Middlewares/lvgl/src/widgets/lv_table.c ****                 cell += col_merge + 1;
 675:Middlewares/lvgl/src/widgets/lv_table.c ****                 col += col_merge;
 676:Middlewares/lvgl/src/widgets/lv_table.c ****                 continue;
 677:Middlewares/lvgl/src/widgets/lv_table.c ****             }
 678:Middlewares/lvgl/src/widgets/lv_table.c **** 
 679:Middlewares/lvgl/src/widgets/lv_table.c ****             /*Expand the cell area with a half border to avoid drawing 2 borders next to each other
 680:Middlewares/lvgl/src/widgets/lv_table.c ****             lv_area_t cell_area_border;
 681:Middlewares/lvgl/src/widgets/lv_table.c ****             lv_area_copy(&cell_area_border, &cell_area);
 682:Middlewares/lvgl/src/widgets/lv_table.c ****             if((rect_dsc_def.border_side & LV_BORDER_SIDE_LEFT) && cell_area_border.x1 > obj->coord
 683:Middlewares/lvgl/src/widgets/lv_table.c ****                 cell_area_border.x1 -= rect_dsc_def.border_width / 2;
 684:Middlewares/lvgl/src/widgets/lv_table.c ****             }
 685:Middlewares/lvgl/src/widgets/lv_table.c ****             if((rect_dsc_def.border_side & LV_BORDER_SIDE_TOP) && cell_area_border.y1 > obj->coords
 686:Middlewares/lvgl/src/widgets/lv_table.c ****                 cell_area_border.y1 -= rect_dsc_def.border_width / 2;
 687:Middlewares/lvgl/src/widgets/lv_table.c ****             }
 688:Middlewares/lvgl/src/widgets/lv_table.c ****             if((rect_dsc_def.border_side & LV_BORDER_SIDE_RIGHT) && cell_area_border.x2 < obj->coor
 689:Middlewares/lvgl/src/widgets/lv_table.c ****                 cell_area_border.x2 += rect_dsc_def.border_width / 2 + (rect_dsc_def.border_width &
 690:Middlewares/lvgl/src/widgets/lv_table.c ****             }
 691:Middlewares/lvgl/src/widgets/lv_table.c ****             if((rect_dsc_def.border_side & LV_BORDER_SIDE_BOTTOM) &&
 692:Middlewares/lvgl/src/widgets/lv_table.c ****                     cell_area_border.y2 < obj->coords.y2 - bg_bottom - 1) {
 693:Middlewares/lvgl/src/widgets/lv_table.c ****                 cell_area_border.y2 += rect_dsc_def.border_width / 2 + (rect_dsc_def.border_width &
 694:Middlewares/lvgl/src/widgets/lv_table.c ****             }
 695:Middlewares/lvgl/src/widgets/lv_table.c **** 
 696:Middlewares/lvgl/src/widgets/lv_table.c ****             lv_state_t cell_state = LV_STATE_DEFAULT;
 697:Middlewares/lvgl/src/widgets/lv_table.c ****             if(row == table->row_act && col == table->col_act) {
 698:Middlewares/lvgl/src/widgets/lv_table.c ****                 if(!(obj->state & LV_STATE_SCROLLED) && (obj->state & LV_STATE_PRESSED)) cell_state
 699:Middlewares/lvgl/src/widgets/lv_table.c ****                 if(obj->state & LV_STATE_FOCUSED) cell_state |= LV_STATE_FOCUSED;
 700:Middlewares/lvgl/src/widgets/lv_table.c ****                 if(obj->state & LV_STATE_FOCUS_KEY) cell_state |= LV_STATE_FOCUS_KEY;
 701:Middlewares/lvgl/src/widgets/lv_table.c ****                 if(obj->state & LV_STATE_EDITED) cell_state |= LV_STATE_EDITED;
 702:Middlewares/lvgl/src/widgets/lv_table.c ****             }
 703:Middlewares/lvgl/src/widgets/lv_table.c **** 
 704:Middlewares/lvgl/src/widgets/lv_table.c ****             /*Set up the draw descriptors*/
 705:Middlewares/lvgl/src/widgets/lv_table.c ****             if(cell_state == LV_STATE_DEFAULT) {
 706:Middlewares/lvgl/src/widgets/lv_table.c ****                 lv_memcpy(&rect_dsc_act, &rect_dsc_def, sizeof(lv_draw_rect_dsc_t));
 707:Middlewares/lvgl/src/widgets/lv_table.c ****                 lv_memcpy(&label_dsc_act, &label_dsc_def, sizeof(lv_draw_label_dsc_t));
 708:Middlewares/lvgl/src/widgets/lv_table.c ****             }
 709:Middlewares/lvgl/src/widgets/lv_table.c ****             /*In other cases get the styles directly without caching them*/
 710:Middlewares/lvgl/src/widgets/lv_table.c ****             else {
 711:Middlewares/lvgl/src/widgets/lv_table.c ****                 obj->state = cell_state;
 712:Middlewares/lvgl/src/widgets/lv_table.c ****                 obj->skip_trans = 1;
 713:Middlewares/lvgl/src/widgets/lv_table.c ****                 lv_draw_rect_dsc_init(&rect_dsc_act);
 714:Middlewares/lvgl/src/widgets/lv_table.c ****                 lv_draw_label_dsc_init(&label_dsc_act);
ARM GAS  /tmp/ccQS5ib5.s 			page 14


 715:Middlewares/lvgl/src/widgets/lv_table.c ****                 lv_obj_init_draw_rect_dsc(obj, LV_PART_ITEMS, &rect_dsc_act);
 716:Middlewares/lvgl/src/widgets/lv_table.c ****                 lv_obj_init_draw_label_dsc(obj, LV_PART_ITEMS, &label_dsc_act);
 717:Middlewares/lvgl/src/widgets/lv_table.c ****                 obj->state = state_ori;
 718:Middlewares/lvgl/src/widgets/lv_table.c ****                 obj->skip_trans = 0;
 719:Middlewares/lvgl/src/widgets/lv_table.c ****             }
 720:Middlewares/lvgl/src/widgets/lv_table.c **** 
 721:Middlewares/lvgl/src/widgets/lv_table.c ****             dsc.draw_area = &cell_area_border;
 722:Middlewares/lvgl/src/widgets/lv_table.c ****             dsc.id = row * table->col_cnt + col;
 723:Middlewares/lvgl/src/widgets/lv_table.c ****             lv_event_send(obj, LV_EVENT_DRAW_PART_BEGIN, &dsc);
 724:Middlewares/lvgl/src/widgets/lv_table.c **** 
 725:Middlewares/lvgl/src/widgets/lv_table.c ****             lv_draw_rect(&cell_area_border, clip_area, &rect_dsc_act);
 726:Middlewares/lvgl/src/widgets/lv_table.c **** 
 727:Middlewares/lvgl/src/widgets/lv_table.c ****             if(table->cell_data[cell]) {
 728:Middlewares/lvgl/src/widgets/lv_table.c ****                 txt_area.x1 = cell_area.x1 + cell_left;
 729:Middlewares/lvgl/src/widgets/lv_table.c ****                 txt_area.x2 = cell_area.x2 - cell_right;
 730:Middlewares/lvgl/src/widgets/lv_table.c ****                 txt_area.y1 = cell_area.y1 + cell_top;
 731:Middlewares/lvgl/src/widgets/lv_table.c ****                 txt_area.y2 = cell_area.y2 - cell_bottom;
 732:Middlewares/lvgl/src/widgets/lv_table.c **** 
 733:Middlewares/lvgl/src/widgets/lv_table.c ****                 /*Align the content to the middle if not cropped*/
 734:Middlewares/lvgl/src/widgets/lv_table.c ****                 bool crop = ctrl & LV_TABLE_CELL_CTRL_TEXT_CROP ? true : false;
 735:Middlewares/lvgl/src/widgets/lv_table.c ****                 if(crop) txt_flags = LV_TEXT_FLAG_EXPAND;
 736:Middlewares/lvgl/src/widgets/lv_table.c ****                 else txt_flags = LV_TEXT_FLAG_NONE;
 737:Middlewares/lvgl/src/widgets/lv_table.c **** 
 738:Middlewares/lvgl/src/widgets/lv_table.c ****                 lv_txt_get_size(&txt_size, table->cell_data[cell] + 1, label_dsc_def.font,
 739:Middlewares/lvgl/src/widgets/lv_table.c ****                         label_dsc_act.letter_space, label_dsc_act.line_space,
 740:Middlewares/lvgl/src/widgets/lv_table.c ****                         lv_area_get_width(&txt_area), txt_flags);
 741:Middlewares/lvgl/src/widgets/lv_table.c **** 
 742:Middlewares/lvgl/src/widgets/lv_table.c ****                 /*Align the content to the middle if not cropped*/
 743:Middlewares/lvgl/src/widgets/lv_table.c ****                 if(!crop) {
 744:Middlewares/lvgl/src/widgets/lv_table.c ****                     txt_area.y1 = cell_area.y1 + h_row / 2 - txt_size.y / 2;
 745:Middlewares/lvgl/src/widgets/lv_table.c ****                     txt_area.y2 = cell_area.y1 + h_row / 2 + txt_size.y / 2;
 746:Middlewares/lvgl/src/widgets/lv_table.c ****                 }
 747:Middlewares/lvgl/src/widgets/lv_table.c **** 
 748:Middlewares/lvgl/src/widgets/lv_table.c ****                 lv_area_t label_mask;
 749:Middlewares/lvgl/src/widgets/lv_table.c ****                 bool label_mask_ok;
 750:Middlewares/lvgl/src/widgets/lv_table.c ****                 label_mask_ok = _lv_area_intersect(&label_mask, clip_area, &cell_area);
 751:Middlewares/lvgl/src/widgets/lv_table.c ****                 if(label_mask_ok) {
 752:Middlewares/lvgl/src/widgets/lv_table.c ****                     lv_draw_label(&txt_area, &label_mask, &label_dsc_act, table->cell_data[cell] + 
 753:Middlewares/lvgl/src/widgets/lv_table.c ****                 }
 754:Middlewares/lvgl/src/widgets/lv_table.c ****             }
 755:Middlewares/lvgl/src/widgets/lv_table.c **** 
 756:Middlewares/lvgl/src/widgets/lv_table.c ****             lv_event_send(obj, LV_EVENT_DRAW_PART_END, &dsc);
 757:Middlewares/lvgl/src/widgets/lv_table.c **** 
 758:Middlewares/lvgl/src/widgets/lv_table.c ****             cell += col_merge + 1;
 759:Middlewares/lvgl/src/widgets/lv_table.c ****             col += col_merge;
 760:Middlewares/lvgl/src/widgets/lv_table.c ****         }
 761:Middlewares/lvgl/src/widgets/lv_table.c ****     }
 762:Middlewares/lvgl/src/widgets/lv_table.c **** }
 763:Middlewares/lvgl/src/widgets/lv_table.c **** 
 764:Middlewares/lvgl/src/widgets/lv_table.c **** static void refr_size(lv_obj_t * obj, uint32_t strat_row)
 765:Middlewares/lvgl/src/widgets/lv_table.c **** {
 766:Middlewares/lvgl/src/widgets/lv_table.c ****     lv_table_t * table = (lv_table_t *)obj;
 767:Middlewares/lvgl/src/widgets/lv_table.c **** 
 768:Middlewares/lvgl/src/widgets/lv_table.c ****     uint32_t i;
 769:Middlewares/lvgl/src/widgets/lv_table.c **** 
 770:Middlewares/lvgl/src/widgets/lv_table.c ****     lv_coord_t cell_left = lv_obj_get_style_pad_left(obj, LV_PART_ITEMS);
 771:Middlewares/lvgl/src/widgets/lv_table.c ****     lv_coord_t cell_right = lv_obj_get_style_pad_right(obj, LV_PART_ITEMS);
ARM GAS  /tmp/ccQS5ib5.s 			page 15


 772:Middlewares/lvgl/src/widgets/lv_table.c ****     lv_coord_t cell_top = lv_obj_get_style_pad_top(obj, LV_PART_ITEMS);
 773:Middlewares/lvgl/src/widgets/lv_table.c ****     lv_coord_t cell_bottom = lv_obj_get_style_pad_bottom(obj, LV_PART_ITEMS);
 774:Middlewares/lvgl/src/widgets/lv_table.c **** 
 775:Middlewares/lvgl/src/widgets/lv_table.c ****     lv_coord_t letter_space = lv_obj_get_style_text_letter_space(obj, LV_PART_ITEMS);
 776:Middlewares/lvgl/src/widgets/lv_table.c ****     lv_coord_t line_space = lv_obj_get_style_text_line_space(obj, LV_PART_ITEMS);
 777:Middlewares/lvgl/src/widgets/lv_table.c ****     const lv_font_t * font = lv_obj_get_style_text_font(obj, LV_PART_ITEMS);
 778:Middlewares/lvgl/src/widgets/lv_table.c **** 
 779:Middlewares/lvgl/src/widgets/lv_table.c ****     lv_coord_t minh = lv_obj_get_style_min_height(obj, LV_PART_ITEMS);
 780:Middlewares/lvgl/src/widgets/lv_table.c ****     lv_coord_t maxh = lv_obj_get_style_max_height(obj, LV_PART_ITEMS);
 781:Middlewares/lvgl/src/widgets/lv_table.c **** 
 782:Middlewares/lvgl/src/widgets/lv_table.c ****     for(i = strat_row; i < table->row_cnt; i++) {
 783:Middlewares/lvgl/src/widgets/lv_table.c ****         table->row_h[i] = get_row_height(obj, i, font, letter_space, line_space,
 784:Middlewares/lvgl/src/widgets/lv_table.c ****                                        cell_left, cell_right, cell_top, cell_bottom);
 785:Middlewares/lvgl/src/widgets/lv_table.c ****         table->row_h[i] = LV_CLAMP(minh, table->row_h[i], maxh);
 786:Middlewares/lvgl/src/widgets/lv_table.c ****     }
 787:Middlewares/lvgl/src/widgets/lv_table.c **** 
 788:Middlewares/lvgl/src/widgets/lv_table.c ****     lv_obj_refresh_self_size(obj) ;
 789:Middlewares/lvgl/src/widgets/lv_table.c **** }
 790:Middlewares/lvgl/src/widgets/lv_table.c **** 
 791:Middlewares/lvgl/src/widgets/lv_table.c **** static lv_coord_t get_row_height(lv_obj_t * obj, uint16_t row_id, const lv_font_t * font,
 792:Middlewares/lvgl/src/widgets/lv_table.c ****                                  lv_coord_t letter_space, lv_coord_t line_space,
 793:Middlewares/lvgl/src/widgets/lv_table.c ****                                  lv_coord_t cell_left, lv_coord_t cell_right, lv_coord_t cell_top, 
 794:Middlewares/lvgl/src/widgets/lv_table.c **** {
  29              		.loc 1 794 1 view -0
  30              		.cfi_startproc
  31              		@ args = 20, pretend = 0, frame = 48
  32              		@ frame_needed = 0, uses_anonymous_args = 0
  33              		.loc 1 794 1 is_stmt 0 view .LVU1
  34 0000 2DE9F04F 		push	{r4, r5, r6, r7, r8, r9, r10, fp, lr}
  35              	.LCFI0:
  36              		.cfi_def_cfa_offset 36
  37              		.cfi_offset 4, -36
  38              		.cfi_offset 5, -32
  39              		.cfi_offset 6, -28
  40              		.cfi_offset 7, -24
  41              		.cfi_offset 8, -20
  42              		.cfi_offset 9, -16
  43              		.cfi_offset 10, -12
  44              		.cfi_offset 11, -8
  45              		.cfi_offset 14, -4
  46 0004 91B0     		sub	sp, sp, #68
  47              	.LCFI1:
  48              		.cfi_def_cfa_offset 104
  49 0006 8046     		mov	r8, r0
  50 0008 0592     		str	r2, [sp, #20]
  51 000a 0A93     		str	r3, [sp, #40]
  52 000c BDF96830 		ldrsh	r3, [sp, #104]
  53              	.LVL1:
  54              		.loc 1 794 1 view .LVU2
  55 0010 0B93     		str	r3, [sp, #44]
  56 0012 BDF96C30 		ldrsh	r3, [sp, #108]
  57 0016 0C93     		str	r3, [sp, #48]
  58 0018 BDF97030 		ldrsh	r3, [sp, #112]
  59 001c 0D93     		str	r3, [sp, #52]
  60 001e BDF97430 		ldrsh	r3, [sp, #116]
  61 0022 0693     		str	r3, [sp, #24]
  62 0024 BDF97800 		ldrsh	r0, [sp, #120]
ARM GAS  /tmp/ccQS5ib5.s 			page 16


  63              	.LVL2:
  64              		.loc 1 794 1 view .LVU3
  65 0028 0790     		str	r0, [sp, #28]
 795:Middlewares/lvgl/src/widgets/lv_table.c ****     lv_table_t * table = (lv_table_t *)obj;
  66              		.loc 1 795 5 is_stmt 1 view .LVU4
  67              	.LVL3:
 796:Middlewares/lvgl/src/widgets/lv_table.c ****     lv_point_t txt_size;
  68              		.loc 1 796 5 view .LVU5
 797:Middlewares/lvgl/src/widgets/lv_table.c ****     lv_coord_t txt_w;
  69              		.loc 1 797 5 view .LVU6
 798:Middlewares/lvgl/src/widgets/lv_table.c **** 
 799:Middlewares/lvgl/src/widgets/lv_table.c ****     uint16_t row_start = row_id * table->col_cnt;
  70              		.loc 1 799 5 view .LVU7
  71              		.loc 1 799 40 is_stmt 0 view .LVU8
  72 002a B8F82490 		ldrh	r9, [r8, #36]
  73              		.loc 1 799 14 view .LVU9
  74 002e 19FB01F9 		smulbb	r9, r9, r1
  75 0032 1FFA89F9 		uxth	r9, r9
  76              	.LVL4:
 800:Middlewares/lvgl/src/widgets/lv_table.c ****     uint16_t cell;
  77              		.loc 1 800 5 is_stmt 1 view .LVU10
 801:Middlewares/lvgl/src/widgets/lv_table.c ****     uint16_t col;
  78              		.loc 1 801 5 view .LVU11
 802:Middlewares/lvgl/src/widgets/lv_table.c ****     lv_coord_t h_max = lv_font_get_line_height(font) + cell_top + cell_bottom;
  79              		.loc 1 802 5 view .LVU12
  80              	.LBB86:
  81              	.LBI86:
  82              		.file 2 "Middlewares/lvgl/src/widgets/../core/../misc/../font/lv_font.h"
   1:Middlewares/lvgl/src/widgets/../core/../misc/../font/lv_font.h **** /**
   2:Middlewares/lvgl/src/widgets/../core/../misc/../font/lv_font.h ****  * @file lv_font.h
   3:Middlewares/lvgl/src/widgets/../core/../misc/../font/lv_font.h ****  *
   4:Middlewares/lvgl/src/widgets/../core/../misc/../font/lv_font.h ****  */
   5:Middlewares/lvgl/src/widgets/../core/../misc/../font/lv_font.h **** 
   6:Middlewares/lvgl/src/widgets/../core/../misc/../font/lv_font.h **** #ifndef LV_FONT_H
   7:Middlewares/lvgl/src/widgets/../core/../misc/../font/lv_font.h **** #define LV_FONT_H
   8:Middlewares/lvgl/src/widgets/../core/../misc/../font/lv_font.h **** 
   9:Middlewares/lvgl/src/widgets/../core/../misc/../font/lv_font.h **** #ifdef __cplusplus
  10:Middlewares/lvgl/src/widgets/../core/../misc/../font/lv_font.h **** extern "C" {
  11:Middlewares/lvgl/src/widgets/../core/../misc/../font/lv_font.h **** #endif
  12:Middlewares/lvgl/src/widgets/../core/../misc/../font/lv_font.h **** 
  13:Middlewares/lvgl/src/widgets/../core/../misc/../font/lv_font.h **** /*********************
  14:Middlewares/lvgl/src/widgets/../core/../misc/../font/lv_font.h ****  *      INCLUDES
  15:Middlewares/lvgl/src/widgets/../core/../misc/../font/lv_font.h ****  *********************/
  16:Middlewares/lvgl/src/widgets/../core/../misc/../font/lv_font.h **** #include "../lv_conf_internal.h"
  17:Middlewares/lvgl/src/widgets/../core/../misc/../font/lv_font.h **** #include <stdint.h>
  18:Middlewares/lvgl/src/widgets/../core/../misc/../font/lv_font.h **** #include <stddef.h>
  19:Middlewares/lvgl/src/widgets/../core/../misc/../font/lv_font.h **** #include <stdbool.h>
  20:Middlewares/lvgl/src/widgets/../core/../misc/../font/lv_font.h **** 
  21:Middlewares/lvgl/src/widgets/../core/../misc/../font/lv_font.h **** #include "lv_symbol_def.h"
  22:Middlewares/lvgl/src/widgets/../core/../misc/../font/lv_font.h **** #include "../misc/lv_area.h"
  23:Middlewares/lvgl/src/widgets/../core/../misc/../font/lv_font.h **** 
  24:Middlewares/lvgl/src/widgets/../core/../misc/../font/lv_font.h **** /*********************
  25:Middlewares/lvgl/src/widgets/../core/../misc/../font/lv_font.h ****  *      DEFINES
  26:Middlewares/lvgl/src/widgets/../core/../misc/../font/lv_font.h ****  *********************/
  27:Middlewares/lvgl/src/widgets/../core/../misc/../font/lv_font.h **** 
  28:Middlewares/lvgl/src/widgets/../core/../misc/../font/lv_font.h **** /**********************
  29:Middlewares/lvgl/src/widgets/../core/../misc/../font/lv_font.h ****  *      TYPEDEFS
ARM GAS  /tmp/ccQS5ib5.s 			page 17


  30:Middlewares/lvgl/src/widgets/../core/../misc/../font/lv_font.h ****  **********************/
  31:Middlewares/lvgl/src/widgets/../core/../misc/../font/lv_font.h **** 
  32:Middlewares/lvgl/src/widgets/../core/../misc/../font/lv_font.h **** /*------------------
  33:Middlewares/lvgl/src/widgets/../core/../misc/../font/lv_font.h ****  * General types
  34:Middlewares/lvgl/src/widgets/../core/../misc/../font/lv_font.h ****  *-----------------*/
  35:Middlewares/lvgl/src/widgets/../core/../misc/../font/lv_font.h **** 
  36:Middlewares/lvgl/src/widgets/../core/../misc/../font/lv_font.h **** /** Describes the properties of a glyph.*/
  37:Middlewares/lvgl/src/widgets/../core/../misc/../font/lv_font.h **** typedef struct {
  38:Middlewares/lvgl/src/widgets/../core/../misc/../font/lv_font.h ****     uint16_t adv_w; /**< The glyph needs this space. Draw the next glyph after this width.*/
  39:Middlewares/lvgl/src/widgets/../core/../misc/../font/lv_font.h ****     uint16_t box_w;  /**< Width of the glyph's bounding box*/
  40:Middlewares/lvgl/src/widgets/../core/../misc/../font/lv_font.h ****     uint16_t box_h;  /**< Height of the glyph's bounding box*/
  41:Middlewares/lvgl/src/widgets/../core/../misc/../font/lv_font.h ****     int16_t ofs_x;   /**< x offset of the bounding box*/
  42:Middlewares/lvgl/src/widgets/../core/../misc/../font/lv_font.h ****     int16_t ofs_y;  /**< y offset of the bounding box*/
  43:Middlewares/lvgl/src/widgets/../core/../misc/../font/lv_font.h ****     uint8_t bpp;   /**< Bit-per-pixel: 1, 2, 4, 8*/
  44:Middlewares/lvgl/src/widgets/../core/../misc/../font/lv_font.h **** } lv_font_glyph_dsc_t;
  45:Middlewares/lvgl/src/widgets/../core/../misc/../font/lv_font.h **** 
  46:Middlewares/lvgl/src/widgets/../core/../misc/../font/lv_font.h **** /** The bitmaps might be upscaled by 3 to achieve subpixel rendering.*/
  47:Middlewares/lvgl/src/widgets/../core/../misc/../font/lv_font.h **** enum {
  48:Middlewares/lvgl/src/widgets/../core/../misc/../font/lv_font.h ****     LV_FONT_SUBPX_NONE,
  49:Middlewares/lvgl/src/widgets/../core/../misc/../font/lv_font.h ****     LV_FONT_SUBPX_HOR,
  50:Middlewares/lvgl/src/widgets/../core/../misc/../font/lv_font.h ****     LV_FONT_SUBPX_VER,
  51:Middlewares/lvgl/src/widgets/../core/../misc/../font/lv_font.h ****     LV_FONT_SUBPX_BOTH,
  52:Middlewares/lvgl/src/widgets/../core/../misc/../font/lv_font.h **** };
  53:Middlewares/lvgl/src/widgets/../core/../misc/../font/lv_font.h **** 
  54:Middlewares/lvgl/src/widgets/../core/../misc/../font/lv_font.h **** typedef uint8_t lv_font_subpx_t;
  55:Middlewares/lvgl/src/widgets/../core/../misc/../font/lv_font.h **** 
  56:Middlewares/lvgl/src/widgets/../core/../misc/../font/lv_font.h **** struct _lv_font_t;
  57:Middlewares/lvgl/src/widgets/../core/../misc/../font/lv_font.h **** 
  58:Middlewares/lvgl/src/widgets/../core/../misc/../font/lv_font.h **** /** Describe the properties of a font*/
  59:Middlewares/lvgl/src/widgets/../core/../misc/../font/lv_font.h **** typedef struct _lv_font_t {
  60:Middlewares/lvgl/src/widgets/../core/../misc/../font/lv_font.h ****     /** Get a glyph's descriptor from a font*/
  61:Middlewares/lvgl/src/widgets/../core/../misc/../font/lv_font.h ****     bool (*get_glyph_dsc)(const struct _lv_font_t *, lv_font_glyph_dsc_t *, uint32_t letter, uint32
  62:Middlewares/lvgl/src/widgets/../core/../misc/../font/lv_font.h **** 
  63:Middlewares/lvgl/src/widgets/../core/../misc/../font/lv_font.h ****     /** Get a glyph's bitmap from a font*/
  64:Middlewares/lvgl/src/widgets/../core/../misc/../font/lv_font.h ****     const uint8_t * (*get_glyph_bitmap)(const struct _lv_font_t *, uint32_t);
  65:Middlewares/lvgl/src/widgets/../core/../misc/../font/lv_font.h **** 
  66:Middlewares/lvgl/src/widgets/../core/../misc/../font/lv_font.h ****     /*Pointer to the font in a font pack (must have the same line height)*/
  67:Middlewares/lvgl/src/widgets/../core/../misc/../font/lv_font.h ****     lv_coord_t line_height;         /**< The real line height where any text fits*/
  68:Middlewares/lvgl/src/widgets/../core/../misc/../font/lv_font.h ****     lv_coord_t base_line;           /**< Base line measured from the top of the line_height*/
  69:Middlewares/lvgl/src/widgets/../core/../misc/../font/lv_font.h ****     uint8_t subpx  : 2;             /**< An element of `lv_font_subpx_t`*/
  70:Middlewares/lvgl/src/widgets/../core/../misc/../font/lv_font.h **** 
  71:Middlewares/lvgl/src/widgets/../core/../misc/../font/lv_font.h ****     int8_t underline_position;      /**< Distance between the top of the underline and base line (<
  72:Middlewares/lvgl/src/widgets/../core/../misc/../font/lv_font.h ****     int8_t underline_thickness;     /**< Thickness of the underline*/
  73:Middlewares/lvgl/src/widgets/../core/../misc/../font/lv_font.h **** 
  74:Middlewares/lvgl/src/widgets/../core/../misc/../font/lv_font.h ****     const void * dsc;                     /**< Store implementation specific or run_time data or ca
  75:Middlewares/lvgl/src/widgets/../core/../misc/../font/lv_font.h **** #if LV_USE_USER_DATA
  76:Middlewares/lvgl/src/widgets/../core/../misc/../font/lv_font.h ****     void * user_data;               /**< Custom user data for font.*/
  77:Middlewares/lvgl/src/widgets/../core/../misc/../font/lv_font.h **** #endif
  78:Middlewares/lvgl/src/widgets/../core/../misc/../font/lv_font.h **** 
  79:Middlewares/lvgl/src/widgets/../core/../misc/../font/lv_font.h **** } lv_font_t;
  80:Middlewares/lvgl/src/widgets/../core/../misc/../font/lv_font.h **** 
  81:Middlewares/lvgl/src/widgets/../core/../misc/../font/lv_font.h **** /**********************
  82:Middlewares/lvgl/src/widgets/../core/../misc/../font/lv_font.h ****  * GLOBAL PROTOTYPES
  83:Middlewares/lvgl/src/widgets/../core/../misc/../font/lv_font.h ****  **********************/
  84:Middlewares/lvgl/src/widgets/../core/../misc/../font/lv_font.h **** 
  85:Middlewares/lvgl/src/widgets/../core/../misc/../font/lv_font.h **** /**
  86:Middlewares/lvgl/src/widgets/../core/../misc/../font/lv_font.h ****  * Return with the bitmap of a font.
ARM GAS  /tmp/ccQS5ib5.s 			page 18


  87:Middlewares/lvgl/src/widgets/../core/../misc/../font/lv_font.h ****  * @param font_p pointer to a font
  88:Middlewares/lvgl/src/widgets/../core/../misc/../font/lv_font.h ****  * @param letter an UNICODE character code
  89:Middlewares/lvgl/src/widgets/../core/../misc/../font/lv_font.h ****  * @return pointer to the bitmap of the letter
  90:Middlewares/lvgl/src/widgets/../core/../misc/../font/lv_font.h ****  */
  91:Middlewares/lvgl/src/widgets/../core/../misc/../font/lv_font.h **** const uint8_t * lv_font_get_glyph_bitmap(const lv_font_t * font_p, uint32_t letter);
  92:Middlewares/lvgl/src/widgets/../core/../misc/../font/lv_font.h **** 
  93:Middlewares/lvgl/src/widgets/../core/../misc/../font/lv_font.h **** /**
  94:Middlewares/lvgl/src/widgets/../core/../misc/../font/lv_font.h ****  * Get the descriptor of a glyph
  95:Middlewares/lvgl/src/widgets/../core/../misc/../font/lv_font.h ****  * @param font_p pointer to font
  96:Middlewares/lvgl/src/widgets/../core/../misc/../font/lv_font.h ****  * @param dsc_out store the result descriptor here
  97:Middlewares/lvgl/src/widgets/../core/../misc/../font/lv_font.h ****  * @param letter an UNICODE letter code
  98:Middlewares/lvgl/src/widgets/../core/../misc/../font/lv_font.h ****  * @return true: descriptor is successfully loaded into `dsc_out`.
  99:Middlewares/lvgl/src/widgets/../core/../misc/../font/lv_font.h ****  *         false: the letter was not found, no data is loaded to `dsc_out`
 100:Middlewares/lvgl/src/widgets/../core/../misc/../font/lv_font.h ****  */
 101:Middlewares/lvgl/src/widgets/../core/../misc/../font/lv_font.h **** bool lv_font_get_glyph_dsc(const lv_font_t * font_p, lv_font_glyph_dsc_t * dsc_out, uint32_t letter
 102:Middlewares/lvgl/src/widgets/../core/../misc/../font/lv_font.h ****                            uint32_t letter_next);
 103:Middlewares/lvgl/src/widgets/../core/../misc/../font/lv_font.h **** 
 104:Middlewares/lvgl/src/widgets/../core/../misc/../font/lv_font.h **** /**
 105:Middlewares/lvgl/src/widgets/../core/../misc/../font/lv_font.h ****  * Get the width of a glyph with kerning
 106:Middlewares/lvgl/src/widgets/../core/../misc/../font/lv_font.h ****  * @param font pointer to a font
 107:Middlewares/lvgl/src/widgets/../core/../misc/../font/lv_font.h ****  * @param letter an UNICODE letter
 108:Middlewares/lvgl/src/widgets/../core/../misc/../font/lv_font.h ****  * @param letter_next the next letter after `letter`. Used for kerning
 109:Middlewares/lvgl/src/widgets/../core/../misc/../font/lv_font.h ****  * @return the width of the glyph
 110:Middlewares/lvgl/src/widgets/../core/../misc/../font/lv_font.h ****  */
 111:Middlewares/lvgl/src/widgets/../core/../misc/../font/lv_font.h **** uint16_t lv_font_get_glyph_width(const lv_font_t * font, uint32_t letter, uint32_t letter_next);
 112:Middlewares/lvgl/src/widgets/../core/../misc/../font/lv_font.h **** 
 113:Middlewares/lvgl/src/widgets/../core/../misc/../font/lv_font.h **** /**
 114:Middlewares/lvgl/src/widgets/../core/../misc/../font/lv_font.h ****  * Get the line height of a font. All characters fit into this height
 115:Middlewares/lvgl/src/widgets/../core/../misc/../font/lv_font.h ****  * @param font_p pointer to a font
 116:Middlewares/lvgl/src/widgets/../core/../misc/../font/lv_font.h ****  * @return the height of a font
 117:Middlewares/lvgl/src/widgets/../core/../misc/../font/lv_font.h ****  */
 118:Middlewares/lvgl/src/widgets/../core/../misc/../font/lv_font.h **** static inline lv_coord_t lv_font_get_line_height(const lv_font_t * font_p)
  83              		.loc 2 118 26 view .LVU13
  84              	.LBB87:
 119:Middlewares/lvgl/src/widgets/../core/../misc/../font/lv_font.h **** {
 120:Middlewares/lvgl/src/widgets/../core/../misc/../font/lv_font.h ****     return font_p->line_height;
  85              		.loc 2 120 5 view .LVU14
  86              		.loc 2 120 18 is_stmt 0 view .LVU15
  87 0036 B2F90870 		ldrsh	r7, [r2, #8]
  88              	.LVL5:
  89              		.loc 2 120 18 view .LVU16
  90              	.LBE87:
  91              	.LBE86:
  92              		.loc 1 802 54 view .LVU17
  93 003a 9BB2     		uxth	r3, r3
  94 003c 0893     		str	r3, [sp, #32]
  95 003e 13FA87F7 		uxtah	r7, r3, r7
  96              		.loc 1 802 65 view .LVU18
  97 0042 83B2     		uxth	r3, r0
  98 0044 0993     		str	r3, [sp, #36]
  99 0046 13FA87F7 		uxtah	r7, r3, r7
 100              		.loc 1 802 16 view .LVU19
 101 004a 3FB2     		sxth	r7, r7
 102              	.LVL6:
 803:Middlewares/lvgl/src/widgets/lv_table.c **** 
 804:Middlewares/lvgl/src/widgets/lv_table.c ****     for(cell = row_start, col = 0; cell < row_start + table->col_cnt; cell++, col++) {
 103              		.loc 1 804 5 is_stmt 1 view .LVU20
ARM GAS  /tmp/ccQS5ib5.s 			page 19


 104              		.loc 1 804 14 is_stmt 0 view .LVU21
 105 004c 4E46     		mov	r6, r9
 106              		.loc 1 804 31 view .LVU22
 107 004e 0025     		movs	r5, #0
 108              		.loc 1 804 5 view .LVU23
 109 0050 18E0     		b	.L2
 110              	.LVL7:
 111              	.L5:
 112              	.LBB88:
 805:Middlewares/lvgl/src/widgets/lv_table.c ****         if(table->cell_data[cell] != NULL) {
 806:Middlewares/lvgl/src/widgets/lv_table.c ****             txt_w              = table->col_w[col];
 807:Middlewares/lvgl/src/widgets/lv_table.c ****             uint16_t col_merge = 0;
 808:Middlewares/lvgl/src/widgets/lv_table.c ****             for(col_merge = 0; col_merge + col < table->col_cnt - 1; col_merge++) {
 809:Middlewares/lvgl/src/widgets/lv_table.c **** 
 810:Middlewares/lvgl/src/widgets/lv_table.c ****                 if(table->cell_data[cell + col_merge] != NULL) {
 811:Middlewares/lvgl/src/widgets/lv_table.c ****                     lv_table_cell_ctrl_t ctrl = 0;
 812:Middlewares/lvgl/src/widgets/lv_table.c ****                     char * next_cell_data = table->cell_data[cell + col_merge];
 813:Middlewares/lvgl/src/widgets/lv_table.c ****                     if(next_cell_data) ctrl = next_cell_data[0];
 814:Middlewares/lvgl/src/widgets/lv_table.c ****                     if(ctrl & LV_TABLE_CELL_CTRL_MERGE_RIGHT)
 815:Middlewares/lvgl/src/widgets/lv_table.c ****                         txt_w += table->col_w[col + col_merge + 1];
 816:Middlewares/lvgl/src/widgets/lv_table.c ****                     else
 817:Middlewares/lvgl/src/widgets/lv_table.c ****                         break;
 818:Middlewares/lvgl/src/widgets/lv_table.c ****                 }
 819:Middlewares/lvgl/src/widgets/lv_table.c ****                 else {
 820:Middlewares/lvgl/src/widgets/lv_table.c ****                     break;
 821:Middlewares/lvgl/src/widgets/lv_table.c ****                 }
 822:Middlewares/lvgl/src/widgets/lv_table.c ****             }
 823:Middlewares/lvgl/src/widgets/lv_table.c **** 
 824:Middlewares/lvgl/src/widgets/lv_table.c ****             lv_table_cell_ctrl_t ctrl = 0;
 113              		.loc 1 824 13 is_stmt 1 discriminator 1 view .LVU24
 825:Middlewares/lvgl/src/widgets/lv_table.c ****             if(table->cell_data[cell]) ctrl = table->cell_data[cell][0];
 114              		.loc 1 825 13 discriminator 1 view .LVU25
 115              		.loc 1 825 40 discriminator 1 view .LVU26
 116              		.loc 1 825 45 is_stmt 0 discriminator 1 view .LVU27
 117 0052 9EF80020 		ldrb	r2, [lr]	@ zero_extendqisi2
 118              	.LVL8:
 826:Middlewares/lvgl/src/widgets/lv_table.c **** 
 827:Middlewares/lvgl/src/widgets/lv_table.c ****             /*With text crop assume 1 line*/
 828:Middlewares/lvgl/src/widgets/lv_table.c ****             if(ctrl & LV_TABLE_CELL_CTRL_TEXT_CROP) {
 119              		.loc 1 828 13 is_stmt 1 discriminator 1 view .LVU28
 120              		.loc 1 828 15 is_stmt 0 discriminator 1 view .LVU29
 121 0056 12F0020F 		tst	r2, #2
 122 005a 3DD0     		beq	.L7
 829:Middlewares/lvgl/src/widgets/lv_table.c ****                 h_max = LV_MAX(lv_font_get_line_height(font) + cell_top + cell_bottom,
 123              		.loc 1 829 17 is_stmt 1 view .LVU30
 124              	.LVL9:
 125              	.LBB89:
 126              	.LBI89:
 118:Middlewares/lvgl/src/widgets/../core/../misc/../font/lv_font.h **** {
 127              		.loc 2 118 26 view .LVU31
 128              	.LBB90:
 129              		.loc 2 120 5 view .LVU32
 130              		.loc 2 120 18 is_stmt 0 view .LVU33
 131 005c 059B     		ldr	r3, [sp, #20]
 132              	.LVL10:
 133              		.loc 2 120 18 view .LVU34
 134 005e B3F90830 		ldrsh	r3, [r3, #8]
ARM GAS  /tmp/ccQS5ib5.s 			page 20


 135              	.LVL11:
 136              		.loc 2 120 18 view .LVU35
 137              	.LBE90:
 138              	.LBE89:
 139              		.loc 1 829 25 view .LVU36
 140 0062 069A     		ldr	r2, [sp, #24]
 141              	.LVL12:
 142              		.loc 1 829 25 view .LVU37
 143 0064 1A44     		add	r2, r2, r3
 144 0066 0799     		ldr	r1, [sp, #28]
 145 0068 0A44     		add	r2, r2, r1
 146              		.loc 1 829 23 view .LVU38
 147 006a BA42     		cmp	r2, r7
 148 006c 06DD     		ble	.L3
 149              	.LVL13:
 150              		.loc 1 829 23 view .LVU39
 151              	.LBE88:
 152              		.loc 2 120 5 is_stmt 1 view .LVU40
 153              	.LBB92:
 154              		.loc 1 829 25 is_stmt 0 view .LVU41
 155 006e 089A     		ldr	r2, [sp, #32]
 156 0070 12FA83F7 		uxtah	r7, r2, r3
 157              	.LVL14:
 158              		.loc 1 829 25 view .LVU42
 159 0074 099B     		ldr	r3, [sp, #36]
 160 0076 13FA87F7 		uxtah	r7, r3, r7
 161              		.loc 1 829 23 view .LVU43
 162 007a 3FB2     		sxth	r7, r7
 163              	.LVL15:
 164              	.L3:
 165              		.loc 1 829 23 view .LVU44
 166              	.LBE92:
 804:Middlewares/lvgl/src/widgets/lv_table.c ****         if(table->cell_data[cell] != NULL) {
 167              		.loc 1 804 71 is_stmt 1 discriminator 2 view .LVU45
 804:Middlewares/lvgl/src/widgets/lv_table.c ****         if(table->cell_data[cell] != NULL) {
 168              		.loc 1 804 75 is_stmt 0 discriminator 2 view .LVU46
 169 007c 0136     		adds	r6, r6, #1
 170              	.LVL16:
 804:Middlewares/lvgl/src/widgets/lv_table.c ****         if(table->cell_data[cell] != NULL) {
 171              		.loc 1 804 75 discriminator 2 view .LVU47
 172 007e B6B2     		uxth	r6, r6
 173              	.LVL17:
 804:Middlewares/lvgl/src/widgets/lv_table.c ****         if(table->cell_data[cell] != NULL) {
 174              		.loc 1 804 82 discriminator 2 view .LVU48
 175 0080 0135     		adds	r5, r5, #1
 176              	.LVL18:
 804:Middlewares/lvgl/src/widgets/lv_table.c ****         if(table->cell_data[cell] != NULL) {
 177              		.loc 1 804 82 discriminator 2 view .LVU49
 178 0082 ADB2     		uxth	r5, r5
 179              	.LVL19:
 180              	.L2:
 804:Middlewares/lvgl/src/widgets/lv_table.c ****         if(table->cell_data[cell] != NULL) {
 181              		.loc 1 804 36 is_stmt 1 discriminator 1 view .LVU50
 804:Middlewares/lvgl/src/widgets/lv_table.c ****         if(table->cell_data[cell] != NULL) {
 182              		.loc 1 804 41 is_stmt 0 discriminator 1 view .LVU51
 183 0084 B246     		mov	r10, r6
 804:Middlewares/lvgl/src/widgets/lv_table.c ****         if(table->cell_data[cell] != NULL) {
ARM GAS  /tmp/ccQS5ib5.s 			page 21


 184              		.loc 1 804 60 discriminator 1 view .LVU52
 185 0086 B8F824C0 		ldrh	ip, [r8, #36]
 804:Middlewares/lvgl/src/widgets/lv_table.c ****         if(table->cell_data[cell] != NULL) {
 186              		.loc 1 804 53 discriminator 1 view .LVU53
 187 008a 09EB0C03 		add	r3, r9, ip
 804:Middlewares/lvgl/src/widgets/lv_table.c ****         if(table->cell_data[cell] != NULL) {
 188              		.loc 1 804 5 discriminator 1 view .LVU54
 189 008e 9E42     		cmp	r6, r3
 190 0090 43DA     		bge	.L10
 805:Middlewares/lvgl/src/widgets/lv_table.c ****             txt_w              = table->col_w[col];
 191              		.loc 1 805 9 is_stmt 1 view .LVU55
 805:Middlewares/lvgl/src/widgets/lv_table.c ****             txt_w              = table->col_w[col];
 192              		.loc 1 805 17 is_stmt 0 view .LVU56
 193 0092 D8F82810 		ldr	r1, [r8, #40]
 805:Middlewares/lvgl/src/widgets/lv_table.c ****             txt_w              = table->col_w[col];
 194              		.loc 1 805 28 view .LVU57
 195 0096 51F826E0 		ldr	lr, [r1, r6, lsl #2]
 805:Middlewares/lvgl/src/widgets/lv_table.c ****             txt_w              = table->col_w[col];
 196              		.loc 1 805 11 view .LVU58
 197 009a BEF1000F 		cmp	lr, #0
 198 009e EDD0     		beq	.L3
 199              	.LBB93:
 806:Middlewares/lvgl/src/widgets/lv_table.c ****             uint16_t col_merge = 0;
 200              		.loc 1 806 13 is_stmt 1 view .LVU59
 806:Middlewares/lvgl/src/widgets/lv_table.c ****             uint16_t col_merge = 0;
 201              		.loc 1 806 39 is_stmt 0 view .LVU60
 202 00a0 D8F830B0 		ldr	fp, [r8, #48]
 806:Middlewares/lvgl/src/widgets/lv_table.c ****             uint16_t col_merge = 0;
 203              		.loc 1 806 32 view .LVU61
 204 00a4 3BF91530 		ldrsh	r3, [fp, r5, lsl #1]
 205              	.LVL20:
 807:Middlewares/lvgl/src/widgets/lv_table.c ****             for(col_merge = 0; col_merge + col < table->col_cnt - 1; col_merge++) {
 206              		.loc 1 807 13 is_stmt 1 view .LVU62
 808:Middlewares/lvgl/src/widgets/lv_table.c **** 
 207              		.loc 1 808 13 view .LVU63
 808:Middlewares/lvgl/src/widgets/lv_table.c **** 
 208              		.loc 1 808 27 is_stmt 0 view .LVU64
 209 00a8 0024     		movs	r4, #0
 210              	.LVL21:
 211              	.L4:
 808:Middlewares/lvgl/src/widgets/lv_table.c **** 
 212              		.loc 1 808 32 is_stmt 1 discriminator 1 view .LVU65
 808:Middlewares/lvgl/src/widgets/lv_table.c **** 
 213              		.loc 1 808 42 is_stmt 0 discriminator 1 view .LVU66
 214 00aa 2A19     		adds	r2, r5, r4
 808:Middlewares/lvgl/src/widgets/lv_table.c **** 
 215              		.loc 1 808 65 discriminator 1 view .LVU67
 216 00ac 0CF1FF30 		add	r0, ip, #-1
 808:Middlewares/lvgl/src/widgets/lv_table.c **** 
 217              		.loc 1 808 13 discriminator 1 view .LVU68
 218 00b0 8242     		cmp	r2, r0
 219 00b2 CEDA     		bge	.L5
 810:Middlewares/lvgl/src/widgets/lv_table.c ****                     lv_table_cell_ctrl_t ctrl = 0;
 220              		.loc 1 810 17 is_stmt 1 view .LVU69
 810:Middlewares/lvgl/src/widgets/lv_table.c ****                     lv_table_cell_ctrl_t ctrl = 0;
 221              		.loc 1 810 42 is_stmt 0 view .LVU70
 222 00b4 04EB0A00 		add	r0, r4, r10
ARM GAS  /tmp/ccQS5ib5.s 			page 22


 810:Middlewares/lvgl/src/widgets/lv_table.c ****                     lv_table_cell_ctrl_t ctrl = 0;
 223              		.loc 1 810 36 view .LVU71
 224 00b8 51F82000 		ldr	r0, [r1, r0, lsl #2]
 810:Middlewares/lvgl/src/widgets/lv_table.c ****                     lv_table_cell_ctrl_t ctrl = 0;
 225              		.loc 1 810 19 view .LVU72
 226 00bc 0028     		cmp	r0, #0
 227 00be C8D0     		beq	.L5
 228              	.LBB91:
 811:Middlewares/lvgl/src/widgets/lv_table.c ****                     char * next_cell_data = table->cell_data[cell + col_merge];
 229              		.loc 1 811 21 is_stmt 1 discriminator 1 view .LVU73
 230              	.LVL22:
 812:Middlewares/lvgl/src/widgets/lv_table.c ****                     if(next_cell_data) ctrl = next_cell_data[0];
 231              		.loc 1 812 21 discriminator 1 view .LVU74
 813:Middlewares/lvgl/src/widgets/lv_table.c ****                     if(ctrl & LV_TABLE_CELL_CTRL_MERGE_RIGHT)
 232              		.loc 1 813 21 discriminator 1 view .LVU75
 813:Middlewares/lvgl/src/widgets/lv_table.c ****                     if(ctrl & LV_TABLE_CELL_CTRL_MERGE_RIGHT)
 233              		.loc 1 813 40 discriminator 1 view .LVU76
 813:Middlewares/lvgl/src/widgets/lv_table.c ****                     if(ctrl & LV_TABLE_CELL_CTRL_MERGE_RIGHT)
 234              		.loc 1 813 45 is_stmt 0 discriminator 1 view .LVU77
 235 00c0 0078     		ldrb	r0, [r0]	@ zero_extendqisi2
 236              	.LVL23:
 814:Middlewares/lvgl/src/widgets/lv_table.c ****                         txt_w += table->col_w[col + col_merge + 1];
 237              		.loc 1 814 21 is_stmt 1 discriminator 1 view .LVU78
 814:Middlewares/lvgl/src/widgets/lv_table.c ****                         txt_w += table->col_w[col + col_merge + 1];
 238              		.loc 1 814 23 is_stmt 0 discriminator 1 view .LVU79
 239 00c2 10F0010F 		tst	r0, #1
 240 00c6 C4D0     		beq	.L5
 815:Middlewares/lvgl/src/widgets/lv_table.c ****                     else
 241              		.loc 1 815 25 is_stmt 1 discriminator 2 view .LVU80
 815:Middlewares/lvgl/src/widgets/lv_table.c ****                     else
 242              		.loc 1 815 46 is_stmt 0 discriminator 2 view .LVU81
 243 00c8 0132     		adds	r2, r2, #1
 244 00ca 3BF81220 		ldrh	r2, [fp, r2, lsl #1]
 815:Middlewares/lvgl/src/widgets/lv_table.c ****                     else
 245              		.loc 1 815 31 discriminator 2 view .LVU82
 246 00ce 1344     		add	r3, r3, r2
 247              	.LVL24:
 815:Middlewares/lvgl/src/widgets/lv_table.c ****                     else
 248              		.loc 1 815 31 discriminator 2 view .LVU83
 249 00d0 1BB2     		sxth	r3, r3
 250              	.LVL25:
 815:Middlewares/lvgl/src/widgets/lv_table.c ****                     else
 251              		.loc 1 815 31 discriminator 2 view .LVU84
 252              	.LBE91:
 808:Middlewares/lvgl/src/widgets/lv_table.c **** 
 253              		.loc 1 808 70 is_stmt 1 discriminator 2 view .LVU85
 808:Middlewares/lvgl/src/widgets/lv_table.c **** 
 254              		.loc 1 808 79 is_stmt 0 discriminator 2 view .LVU86
 255 00d2 0134     		adds	r4, r4, #1
 256              	.LVL26:
 808:Middlewares/lvgl/src/widgets/lv_table.c **** 
 257              		.loc 1 808 79 discriminator 2 view .LVU87
 258 00d4 A4B2     		uxth	r4, r4
 259              	.LVL27:
 808:Middlewares/lvgl/src/widgets/lv_table.c **** 
 260              		.loc 1 808 79 discriminator 2 view .LVU88
 261 00d6 E8E7     		b	.L4
ARM GAS  /tmp/ccQS5ib5.s 			page 23


 262              	.LVL28:
 263              	.L7:
 830:Middlewares/lvgl/src/widgets/lv_table.c ****                                     h_max);
 831:Middlewares/lvgl/src/widgets/lv_table.c ****             }
 832:Middlewares/lvgl/src/widgets/lv_table.c ****             /*Without text crop calculate the height of the text in the cell*/
 833:Middlewares/lvgl/src/widgets/lv_table.c ****             else {
 834:Middlewares/lvgl/src/widgets/lv_table.c ****                 txt_w -= cell_left + cell_right;
 264              		.loc 1 834 17 is_stmt 1 view .LVU89
 265              		.loc 1 834 36 is_stmt 0 view .LVU90
 266 00d8 0C9A     		ldr	r2, [sp, #48]
 267              	.LVL29:
 268              		.loc 1 834 36 view .LVU91
 269 00da 0D99     		ldr	r1, [sp, #52]
 270 00dc 0A44     		add	r2, r2, r1
 271 00de 92B2     		uxth	r2, r2
 272              		.loc 1 834 23 view .LVU92
 273 00e0 9B1A     		subs	r3, r3, r2
 274              	.LVL30:
 275              		.loc 1 834 23 view .LVU93
 276 00e2 1BB2     		sxth	r3, r3
 277              	.LVL31:
 835:Middlewares/lvgl/src/widgets/lv_table.c **** 
 836:Middlewares/lvgl/src/widgets/lv_table.c ****                 lv_txt_get_size(&txt_size, table->cell_data[cell] + 1, font,
 278              		.loc 1 836 17 is_stmt 1 view .LVU94
 279 00e4 0022     		movs	r2, #0
 280 00e6 0292     		str	r2, [sp, #8]
 281              	.LVL32:
 282              		.loc 1 836 17 is_stmt 0 view .LVU95
 283 00e8 0193     		str	r3, [sp, #4]
 284 00ea 0B9B     		ldr	r3, [sp, #44]
 285              	.LVL33:
 286              		.loc 1 836 17 view .LVU96
 287 00ec 0093     		str	r3, [sp]
 288 00ee 0A9B     		ldr	r3, [sp, #40]
 289 00f0 059A     		ldr	r2, [sp, #20]
 290 00f2 0EF10101 		add	r1, lr, #1
 291 00f6 0FA8     		add	r0, sp, #60
 292 00f8 FFF7FEFF 		bl	lv_txt_get_size
 293              	.LVL34:
 837:Middlewares/lvgl/src/widgets/lv_table.c ****                                  letter_space, line_space, txt_w, LV_TEXT_FLAG_NONE);
 838:Middlewares/lvgl/src/widgets/lv_table.c **** 
 839:Middlewares/lvgl/src/widgets/lv_table.c ****                 h_max = LV_MAX(txt_size.y + cell_top + cell_bottom, h_max);
 294              		.loc 1 839 17 is_stmt 1 view .LVU97
 295              		.loc 1 839 25 is_stmt 0 view .LVU98
 296 00fc BDF93E30 		ldrsh	r3, [sp, #62]
 297 0100 069A     		ldr	r2, [sp, #24]
 298 0102 1344     		add	r3, r3, r2
 299 0104 079A     		ldr	r2, [sp, #28]
 300 0106 1344     		add	r3, r3, r2
 301 0108 9F42     		cmp	r7, r3
 302 010a B8BF     		it	lt
 303 010c 1F46     		movlt	r7, r3
 304              	.LVL35:
 305              		.loc 1 839 23 view .LVU99
 306 010e 3FB2     		sxth	r7, r7
 307              	.LVL36:
 840:Middlewares/lvgl/src/widgets/lv_table.c ****                 cell += col_merge;
ARM GAS  /tmp/ccQS5ib5.s 			page 24


 308              		.loc 1 840 17 is_stmt 1 view .LVU100
 309              		.loc 1 840 22 is_stmt 0 view .LVU101
 310 0110 2644     		add	r6, r6, r4
 311              	.LVL37:
 312              		.loc 1 840 22 view .LVU102
 313 0112 B6B2     		uxth	r6, r6
 314              	.LVL38:
 841:Middlewares/lvgl/src/widgets/lv_table.c ****                 col += col_merge;
 315              		.loc 1 841 17 is_stmt 1 view .LVU103
 316              		.loc 1 841 21 is_stmt 0 view .LVU104
 317 0114 2544     		add	r5, r5, r4
 318              	.LVL39:
 319              		.loc 1 841 21 view .LVU105
 320 0116 ADB2     		uxth	r5, r5
 321              	.LVL40:
 322              		.loc 1 841 21 view .LVU106
 323 0118 B0E7     		b	.L3
 324              	.LVL41:
 325              	.L10:
 326              		.loc 1 841 21 view .LVU107
 327              	.LBE93:
 842:Middlewares/lvgl/src/widgets/lv_table.c ****             }
 843:Middlewares/lvgl/src/widgets/lv_table.c ****         }
 844:Middlewares/lvgl/src/widgets/lv_table.c ****     }
 845:Middlewares/lvgl/src/widgets/lv_table.c **** 
 846:Middlewares/lvgl/src/widgets/lv_table.c ****     return h_max;
 328              		.loc 1 846 5 is_stmt 1 view .LVU108
 847:Middlewares/lvgl/src/widgets/lv_table.c **** }
 329              		.loc 1 847 1 is_stmt 0 view .LVU109
 330 011a 3846     		mov	r0, r7
 331 011c 11B0     		add	sp, sp, #68
 332              	.LCFI2:
 333              		.cfi_def_cfa_offset 36
 334              		@ sp needed
 335 011e BDE8F08F 		pop	{r4, r5, r6, r7, r8, r9, r10, fp, pc}
 336              		.loc 1 847 1 view .LVU110
 337              		.cfi_endproc
 338              	.LFE166:
 340              		.section	.text.refr_size,"ax",%progbits
 341              		.align	1
 342              		.syntax unified
 343              		.thumb
 344              		.thumb_func
 345              		.fpu fpv4-sp-d16
 347              	refr_size:
 348              	.LVL42:
 349              	.LFB165:
 765:Middlewares/lvgl/src/widgets/lv_table.c ****     lv_table_t * table = (lv_table_t *)obj;
 350              		.loc 1 765 1 is_stmt 1 view -0
 351              		.cfi_startproc
 352              		@ args = 0, pretend = 0, frame = 16
 353              		@ frame_needed = 0, uses_anonymous_args = 0
 765:Middlewares/lvgl/src/widgets/lv_table.c ****     lv_table_t * table = (lv_table_t *)obj;
 354              		.loc 1 765 1 is_stmt 0 view .LVU112
 355 0000 2DE9F04F 		push	{r4, r5, r6, r7, r8, r9, r10, fp, lr}
 356              	.LCFI3:
 357              		.cfi_def_cfa_offset 36
ARM GAS  /tmp/ccQS5ib5.s 			page 25


 358              		.cfi_offset 4, -36
 359              		.cfi_offset 5, -32
 360              		.cfi_offset 6, -28
 361              		.cfi_offset 7, -24
 362              		.cfi_offset 8, -20
 363              		.cfi_offset 9, -16
 364              		.cfi_offset 10, -12
 365              		.cfi_offset 11, -8
 366              		.cfi_offset 14, -4
 367 0004 8BB0     		sub	sp, sp, #44
 368              	.LCFI4:
 369              		.cfi_def_cfa_offset 80
 370 0006 0546     		mov	r5, r0
 371 0008 0C46     		mov	r4, r1
 766:Middlewares/lvgl/src/widgets/lv_table.c **** 
 372              		.loc 1 766 5 is_stmt 1 view .LVU113
 373              	.LVL43:
 768:Middlewares/lvgl/src/widgets/lv_table.c **** 
 374              		.loc 1 768 5 view .LVU114
 770:Middlewares/lvgl/src/widgets/lv_table.c ****     lv_coord_t cell_right = lv_obj_get_style_pad_right(obj, LV_PART_ITEMS);
 375              		.loc 1 770 5 view .LVU115
 376              	.LBB94:
 377              	.LBI94:
 378              		.file 3 "Middlewares/lvgl/src/widgets/../core/lv_obj_style_gen.h"
   1:Middlewares/lvgl/src/widgets/../core/lv_obj_style_gen.h **** static inline lv_coord_t lv_obj_get_style_width(const struct _lv_obj_t * obj, uint32_t part)
   2:Middlewares/lvgl/src/widgets/../core/lv_obj_style_gen.h **** {
   3:Middlewares/lvgl/src/widgets/../core/lv_obj_style_gen.h ****     lv_style_value_t v = lv_obj_get_style_prop(obj, part, LV_STYLE_WIDTH);
   4:Middlewares/lvgl/src/widgets/../core/lv_obj_style_gen.h ****     return (lv_coord_t)v.num;
   5:Middlewares/lvgl/src/widgets/../core/lv_obj_style_gen.h **** }
   6:Middlewares/lvgl/src/widgets/../core/lv_obj_style_gen.h **** 
   7:Middlewares/lvgl/src/widgets/../core/lv_obj_style_gen.h **** static inline lv_coord_t lv_obj_get_style_min_width(const struct _lv_obj_t * obj, uint32_t part)
   8:Middlewares/lvgl/src/widgets/../core/lv_obj_style_gen.h **** {
   9:Middlewares/lvgl/src/widgets/../core/lv_obj_style_gen.h ****     lv_style_value_t v = lv_obj_get_style_prop(obj, part, LV_STYLE_MIN_WIDTH);
  10:Middlewares/lvgl/src/widgets/../core/lv_obj_style_gen.h ****     return (lv_coord_t)v.num;
  11:Middlewares/lvgl/src/widgets/../core/lv_obj_style_gen.h **** }
  12:Middlewares/lvgl/src/widgets/../core/lv_obj_style_gen.h **** 
  13:Middlewares/lvgl/src/widgets/../core/lv_obj_style_gen.h **** static inline lv_coord_t lv_obj_get_style_max_width(const struct _lv_obj_t * obj, uint32_t part)
  14:Middlewares/lvgl/src/widgets/../core/lv_obj_style_gen.h **** {
  15:Middlewares/lvgl/src/widgets/../core/lv_obj_style_gen.h ****     lv_style_value_t v = lv_obj_get_style_prop(obj, part, LV_STYLE_MAX_WIDTH);
  16:Middlewares/lvgl/src/widgets/../core/lv_obj_style_gen.h ****     return (lv_coord_t)v.num;
  17:Middlewares/lvgl/src/widgets/../core/lv_obj_style_gen.h **** }
  18:Middlewares/lvgl/src/widgets/../core/lv_obj_style_gen.h **** 
  19:Middlewares/lvgl/src/widgets/../core/lv_obj_style_gen.h **** static inline lv_coord_t lv_obj_get_style_height(const struct _lv_obj_t * obj, uint32_t part)
  20:Middlewares/lvgl/src/widgets/../core/lv_obj_style_gen.h **** {
  21:Middlewares/lvgl/src/widgets/../core/lv_obj_style_gen.h ****     lv_style_value_t v = lv_obj_get_style_prop(obj, part, LV_STYLE_HEIGHT);
  22:Middlewares/lvgl/src/widgets/../core/lv_obj_style_gen.h ****     return (lv_coord_t)v.num;
  23:Middlewares/lvgl/src/widgets/../core/lv_obj_style_gen.h **** }
  24:Middlewares/lvgl/src/widgets/../core/lv_obj_style_gen.h **** 
  25:Middlewares/lvgl/src/widgets/../core/lv_obj_style_gen.h **** static inline lv_coord_t lv_obj_get_style_min_height(const struct _lv_obj_t * obj, uint32_t part)
  26:Middlewares/lvgl/src/widgets/../core/lv_obj_style_gen.h **** {
  27:Middlewares/lvgl/src/widgets/../core/lv_obj_style_gen.h ****     lv_style_value_t v = lv_obj_get_style_prop(obj, part, LV_STYLE_MIN_HEIGHT);
  28:Middlewares/lvgl/src/widgets/../core/lv_obj_style_gen.h ****     return (lv_coord_t)v.num;
  29:Middlewares/lvgl/src/widgets/../core/lv_obj_style_gen.h **** }
  30:Middlewares/lvgl/src/widgets/../core/lv_obj_style_gen.h **** 
  31:Middlewares/lvgl/src/widgets/../core/lv_obj_style_gen.h **** static inline lv_coord_t lv_obj_get_style_max_height(const struct _lv_obj_t * obj, uint32_t part)
  32:Middlewares/lvgl/src/widgets/../core/lv_obj_style_gen.h **** {
  33:Middlewares/lvgl/src/widgets/../core/lv_obj_style_gen.h ****     lv_style_value_t v = lv_obj_get_style_prop(obj, part, LV_STYLE_MAX_HEIGHT);
ARM GAS  /tmp/ccQS5ib5.s 			page 26


  34:Middlewares/lvgl/src/widgets/../core/lv_obj_style_gen.h ****     return (lv_coord_t)v.num;
  35:Middlewares/lvgl/src/widgets/../core/lv_obj_style_gen.h **** }
  36:Middlewares/lvgl/src/widgets/../core/lv_obj_style_gen.h **** 
  37:Middlewares/lvgl/src/widgets/../core/lv_obj_style_gen.h **** static inline lv_coord_t lv_obj_get_style_x(const struct _lv_obj_t * obj, uint32_t part)
  38:Middlewares/lvgl/src/widgets/../core/lv_obj_style_gen.h **** {
  39:Middlewares/lvgl/src/widgets/../core/lv_obj_style_gen.h ****     lv_style_value_t v = lv_obj_get_style_prop(obj, part, LV_STYLE_X);
  40:Middlewares/lvgl/src/widgets/../core/lv_obj_style_gen.h ****     return (lv_coord_t)v.num;
  41:Middlewares/lvgl/src/widgets/../core/lv_obj_style_gen.h **** }
  42:Middlewares/lvgl/src/widgets/../core/lv_obj_style_gen.h **** 
  43:Middlewares/lvgl/src/widgets/../core/lv_obj_style_gen.h **** static inline lv_coord_t lv_obj_get_style_y(const struct _lv_obj_t * obj, uint32_t part)
  44:Middlewares/lvgl/src/widgets/../core/lv_obj_style_gen.h **** {
  45:Middlewares/lvgl/src/widgets/../core/lv_obj_style_gen.h ****     lv_style_value_t v = lv_obj_get_style_prop(obj, part, LV_STYLE_Y);
  46:Middlewares/lvgl/src/widgets/../core/lv_obj_style_gen.h ****     return (lv_coord_t)v.num;
  47:Middlewares/lvgl/src/widgets/../core/lv_obj_style_gen.h **** }
  48:Middlewares/lvgl/src/widgets/../core/lv_obj_style_gen.h **** 
  49:Middlewares/lvgl/src/widgets/../core/lv_obj_style_gen.h **** static inline lv_align_t lv_obj_get_style_align(const struct _lv_obj_t * obj, uint32_t part)
  50:Middlewares/lvgl/src/widgets/../core/lv_obj_style_gen.h **** {
  51:Middlewares/lvgl/src/widgets/../core/lv_obj_style_gen.h ****     lv_style_value_t v = lv_obj_get_style_prop(obj, part, LV_STYLE_ALIGN);
  52:Middlewares/lvgl/src/widgets/../core/lv_obj_style_gen.h ****     return (lv_align_t)v.num;
  53:Middlewares/lvgl/src/widgets/../core/lv_obj_style_gen.h **** }
  54:Middlewares/lvgl/src/widgets/../core/lv_obj_style_gen.h **** 
  55:Middlewares/lvgl/src/widgets/../core/lv_obj_style_gen.h **** static inline lv_coord_t lv_obj_get_style_transform_width(const struct _lv_obj_t * obj, uint32_t pa
  56:Middlewares/lvgl/src/widgets/../core/lv_obj_style_gen.h **** {
  57:Middlewares/lvgl/src/widgets/../core/lv_obj_style_gen.h ****     lv_style_value_t v = lv_obj_get_style_prop(obj, part, LV_STYLE_TRANSFORM_WIDTH);
  58:Middlewares/lvgl/src/widgets/../core/lv_obj_style_gen.h ****     return (lv_coord_t)v.num;
  59:Middlewares/lvgl/src/widgets/../core/lv_obj_style_gen.h **** }
  60:Middlewares/lvgl/src/widgets/../core/lv_obj_style_gen.h **** 
  61:Middlewares/lvgl/src/widgets/../core/lv_obj_style_gen.h **** static inline lv_coord_t lv_obj_get_style_transform_height(const struct _lv_obj_t * obj, uint32_t p
  62:Middlewares/lvgl/src/widgets/../core/lv_obj_style_gen.h **** {
  63:Middlewares/lvgl/src/widgets/../core/lv_obj_style_gen.h ****     lv_style_value_t v = lv_obj_get_style_prop(obj, part, LV_STYLE_TRANSFORM_HEIGHT);
  64:Middlewares/lvgl/src/widgets/../core/lv_obj_style_gen.h ****     return (lv_coord_t)v.num;
  65:Middlewares/lvgl/src/widgets/../core/lv_obj_style_gen.h **** }
  66:Middlewares/lvgl/src/widgets/../core/lv_obj_style_gen.h **** 
  67:Middlewares/lvgl/src/widgets/../core/lv_obj_style_gen.h **** static inline lv_coord_t lv_obj_get_style_translate_x(const struct _lv_obj_t * obj, uint32_t part)
  68:Middlewares/lvgl/src/widgets/../core/lv_obj_style_gen.h **** {
  69:Middlewares/lvgl/src/widgets/../core/lv_obj_style_gen.h ****     lv_style_value_t v = lv_obj_get_style_prop(obj, part, LV_STYLE_TRANSLATE_X);
  70:Middlewares/lvgl/src/widgets/../core/lv_obj_style_gen.h ****     return (lv_coord_t)v.num;
  71:Middlewares/lvgl/src/widgets/../core/lv_obj_style_gen.h **** }
  72:Middlewares/lvgl/src/widgets/../core/lv_obj_style_gen.h **** 
  73:Middlewares/lvgl/src/widgets/../core/lv_obj_style_gen.h **** static inline lv_coord_t lv_obj_get_style_translate_y(const struct _lv_obj_t * obj, uint32_t part)
  74:Middlewares/lvgl/src/widgets/../core/lv_obj_style_gen.h **** {
  75:Middlewares/lvgl/src/widgets/../core/lv_obj_style_gen.h ****     lv_style_value_t v = lv_obj_get_style_prop(obj, part, LV_STYLE_TRANSLATE_Y);
  76:Middlewares/lvgl/src/widgets/../core/lv_obj_style_gen.h ****     return (lv_coord_t)v.num;
  77:Middlewares/lvgl/src/widgets/../core/lv_obj_style_gen.h **** }
  78:Middlewares/lvgl/src/widgets/../core/lv_obj_style_gen.h **** 
  79:Middlewares/lvgl/src/widgets/../core/lv_obj_style_gen.h **** static inline lv_coord_t lv_obj_get_style_transform_zoom(const struct _lv_obj_t * obj, uint32_t par
  80:Middlewares/lvgl/src/widgets/../core/lv_obj_style_gen.h **** {
  81:Middlewares/lvgl/src/widgets/../core/lv_obj_style_gen.h ****     lv_style_value_t v = lv_obj_get_style_prop(obj, part, LV_STYLE_TRANSFORM_ZOOM);
  82:Middlewares/lvgl/src/widgets/../core/lv_obj_style_gen.h ****     return (lv_coord_t)v.num;
  83:Middlewares/lvgl/src/widgets/../core/lv_obj_style_gen.h **** }
  84:Middlewares/lvgl/src/widgets/../core/lv_obj_style_gen.h **** 
  85:Middlewares/lvgl/src/widgets/../core/lv_obj_style_gen.h **** static inline lv_coord_t lv_obj_get_style_transform_angle(const struct _lv_obj_t * obj, uint32_t pa
  86:Middlewares/lvgl/src/widgets/../core/lv_obj_style_gen.h **** {
  87:Middlewares/lvgl/src/widgets/../core/lv_obj_style_gen.h ****     lv_style_value_t v = lv_obj_get_style_prop(obj, part, LV_STYLE_TRANSFORM_ANGLE);
  88:Middlewares/lvgl/src/widgets/../core/lv_obj_style_gen.h ****     return (lv_coord_t)v.num;
  89:Middlewares/lvgl/src/widgets/../core/lv_obj_style_gen.h **** }
  90:Middlewares/lvgl/src/widgets/../core/lv_obj_style_gen.h **** 
ARM GAS  /tmp/ccQS5ib5.s 			page 27


  91:Middlewares/lvgl/src/widgets/../core/lv_obj_style_gen.h **** static inline lv_coord_t lv_obj_get_style_pad_top(const struct _lv_obj_t * obj, uint32_t part)
  92:Middlewares/lvgl/src/widgets/../core/lv_obj_style_gen.h **** {
  93:Middlewares/lvgl/src/widgets/../core/lv_obj_style_gen.h ****     lv_style_value_t v = lv_obj_get_style_prop(obj, part, LV_STYLE_PAD_TOP);
  94:Middlewares/lvgl/src/widgets/../core/lv_obj_style_gen.h ****     return (lv_coord_t)v.num;
  95:Middlewares/lvgl/src/widgets/../core/lv_obj_style_gen.h **** }
  96:Middlewares/lvgl/src/widgets/../core/lv_obj_style_gen.h **** 
  97:Middlewares/lvgl/src/widgets/../core/lv_obj_style_gen.h **** static inline lv_coord_t lv_obj_get_style_pad_bottom(const struct _lv_obj_t * obj, uint32_t part)
  98:Middlewares/lvgl/src/widgets/../core/lv_obj_style_gen.h **** {
  99:Middlewares/lvgl/src/widgets/../core/lv_obj_style_gen.h ****     lv_style_value_t v = lv_obj_get_style_prop(obj, part, LV_STYLE_PAD_BOTTOM);
 100:Middlewares/lvgl/src/widgets/../core/lv_obj_style_gen.h ****     return (lv_coord_t)v.num;
 101:Middlewares/lvgl/src/widgets/../core/lv_obj_style_gen.h **** }
 102:Middlewares/lvgl/src/widgets/../core/lv_obj_style_gen.h **** 
 103:Middlewares/lvgl/src/widgets/../core/lv_obj_style_gen.h **** static inline lv_coord_t lv_obj_get_style_pad_left(const struct _lv_obj_t * obj, uint32_t part)
 379              		.loc 3 103 26 view .LVU116
 380              	.LBB95:
 104:Middlewares/lvgl/src/widgets/../core/lv_obj_style_gen.h **** {
 105:Middlewares/lvgl/src/widgets/../core/lv_obj_style_gen.h ****     lv_style_value_t v = lv_obj_get_style_prop(obj, part, LV_STYLE_PAD_LEFT);
 381              		.loc 3 105 5 view .LVU117
 382              		.loc 3 105 26 is_stmt 0 view .LVU118
 383 000a 41F21202 		movw	r2, #4114
 384 000e 4FF4A021 		mov	r1, #327680
 385              	.LVL44:
 386              		.loc 3 105 26 view .LVU119
 387 0012 FFF7FEFF 		bl	lv_obj_get_style_prop
 388              	.LVL45:
 106:Middlewares/lvgl/src/widgets/../core/lv_obj_style_gen.h ****     return (lv_coord_t)v.num;
 389              		.loc 3 106 5 is_stmt 1 view .LVU120
 390              		.loc 3 106 12 is_stmt 0 view .LVU121
 391 0016 0FFA80FB 		sxth	fp, r0
 392              	.LVL46:
 393              		.loc 3 106 12 view .LVU122
 394              	.LBE95:
 395              	.LBE94:
 771:Middlewares/lvgl/src/widgets/lv_table.c ****     lv_coord_t cell_top = lv_obj_get_style_pad_top(obj, LV_PART_ITEMS);
 396              		.loc 1 771 5 is_stmt 1 view .LVU123
 397              	.LBB96:
 398              	.LBI96:
 107:Middlewares/lvgl/src/widgets/../core/lv_obj_style_gen.h **** }
 108:Middlewares/lvgl/src/widgets/../core/lv_obj_style_gen.h **** 
 109:Middlewares/lvgl/src/widgets/../core/lv_obj_style_gen.h **** static inline lv_coord_t lv_obj_get_style_pad_right(const struct _lv_obj_t * obj, uint32_t part)
 399              		.loc 3 109 26 view .LVU124
 400              	.LBB97:
 110:Middlewares/lvgl/src/widgets/../core/lv_obj_style_gen.h **** {
 111:Middlewares/lvgl/src/widgets/../core/lv_obj_style_gen.h ****     lv_style_value_t v = lv_obj_get_style_prop(obj, part, LV_STYLE_PAD_RIGHT);
 401              		.loc 3 111 5 view .LVU125
 402              		.loc 3 111 26 is_stmt 0 view .LVU126
 403 001a 41F21302 		movw	r2, #4115
 404 001e 4FF4A021 		mov	r1, #327680
 405 0022 2846     		mov	r0, r5
 406 0024 FFF7FEFF 		bl	lv_obj_get_style_prop
 407              	.LVL47:
 112:Middlewares/lvgl/src/widgets/../core/lv_obj_style_gen.h ****     return (lv_coord_t)v.num;
 408              		.loc 3 112 5 is_stmt 1 view .LVU127
 409              		.loc 3 112 12 is_stmt 0 view .LVU128
 410 0028 0FFA80FA 		sxth	r10, r0
 411              	.LVL48:
 412              		.loc 3 112 12 view .LVU129
ARM GAS  /tmp/ccQS5ib5.s 			page 28


 413              	.LBE97:
 414              	.LBE96:
 772:Middlewares/lvgl/src/widgets/lv_table.c ****     lv_coord_t cell_bottom = lv_obj_get_style_pad_bottom(obj, LV_PART_ITEMS);
 415              		.loc 1 772 5 is_stmt 1 view .LVU130
 416              	.LBB98:
 417              	.LBI98:
  91:Middlewares/lvgl/src/widgets/../core/lv_obj_style_gen.h **** {
 418              		.loc 3 91 26 view .LVU131
 419              	.LBB99:
  93:Middlewares/lvgl/src/widgets/../core/lv_obj_style_gen.h ****     return (lv_coord_t)v.num;
 420              		.loc 3 93 5 view .LVU132
  93:Middlewares/lvgl/src/widgets/../core/lv_obj_style_gen.h ****     return (lv_coord_t)v.num;
 421              		.loc 3 93 26 is_stmt 0 view .LVU133
 422 002c 41F21002 		movw	r2, #4112
 423 0030 4FF4A021 		mov	r1, #327680
 424 0034 2846     		mov	r0, r5
 425 0036 FFF7FEFF 		bl	lv_obj_get_style_prop
 426              	.LVL49:
  94:Middlewares/lvgl/src/widgets/../core/lv_obj_style_gen.h **** }
 427              		.loc 3 94 5 is_stmt 1 view .LVU134
  94:Middlewares/lvgl/src/widgets/../core/lv_obj_style_gen.h **** }
 428              		.loc 3 94 12 is_stmt 0 view .LVU135
 429 003a 0FFA80F9 		sxth	r9, r0
 430              	.LVL50:
  94:Middlewares/lvgl/src/widgets/../core/lv_obj_style_gen.h **** }
 431              		.loc 3 94 12 view .LVU136
 432              	.LBE99:
 433              	.LBE98:
 773:Middlewares/lvgl/src/widgets/lv_table.c **** 
 434              		.loc 1 773 5 is_stmt 1 view .LVU137
 435              	.LBB100:
 436              	.LBI100:
  97:Middlewares/lvgl/src/widgets/../core/lv_obj_style_gen.h **** {
 437              		.loc 3 97 26 view .LVU138
 438              	.LBB101:
  99:Middlewares/lvgl/src/widgets/../core/lv_obj_style_gen.h ****     return (lv_coord_t)v.num;
 439              		.loc 3 99 5 view .LVU139
  99:Middlewares/lvgl/src/widgets/../core/lv_obj_style_gen.h ****     return (lv_coord_t)v.num;
 440              		.loc 3 99 26 is_stmt 0 view .LVU140
 441 003e 41F21102 		movw	r2, #4113
 442 0042 4FF4A021 		mov	r1, #327680
 443 0046 2846     		mov	r0, r5
 444 0048 FFF7FEFF 		bl	lv_obj_get_style_prop
 445              	.LVL51:
 100:Middlewares/lvgl/src/widgets/../core/lv_obj_style_gen.h **** }
 446              		.loc 3 100 5 is_stmt 1 view .LVU141
 100:Middlewares/lvgl/src/widgets/../core/lv_obj_style_gen.h **** }
 447              		.loc 3 100 12 is_stmt 0 view .LVU142
 448 004c 03B2     		sxth	r3, r0
 449 004e 0993     		str	r3, [sp, #36]
 450              	.LVL52:
 100:Middlewares/lvgl/src/widgets/../core/lv_obj_style_gen.h **** }
 451              		.loc 3 100 12 view .LVU143
 452              	.LBE101:
 453              	.LBE100:
 775:Middlewares/lvgl/src/widgets/lv_table.c ****     lv_coord_t line_space = lv_obj_get_style_text_line_space(obj, LV_PART_ITEMS);
 454              		.loc 1 775 5 is_stmt 1 view .LVU144
ARM GAS  /tmp/ccQS5ib5.s 			page 29


 455              	.LBB102:
 456              	.LBI102:
 113:Middlewares/lvgl/src/widgets/../core/lv_obj_style_gen.h **** }
 114:Middlewares/lvgl/src/widgets/../core/lv_obj_style_gen.h **** 
 115:Middlewares/lvgl/src/widgets/../core/lv_obj_style_gen.h **** static inline lv_coord_t lv_obj_get_style_pad_row(const struct _lv_obj_t * obj, uint32_t part)
 116:Middlewares/lvgl/src/widgets/../core/lv_obj_style_gen.h **** {
 117:Middlewares/lvgl/src/widgets/../core/lv_obj_style_gen.h ****     lv_style_value_t v = lv_obj_get_style_prop(obj, part, LV_STYLE_PAD_ROW);
 118:Middlewares/lvgl/src/widgets/../core/lv_obj_style_gen.h ****     return (lv_coord_t)v.num;
 119:Middlewares/lvgl/src/widgets/../core/lv_obj_style_gen.h **** }
 120:Middlewares/lvgl/src/widgets/../core/lv_obj_style_gen.h **** 
 121:Middlewares/lvgl/src/widgets/../core/lv_obj_style_gen.h **** static inline lv_coord_t lv_obj_get_style_pad_column(const struct _lv_obj_t * obj, uint32_t part)
 122:Middlewares/lvgl/src/widgets/../core/lv_obj_style_gen.h **** {
 123:Middlewares/lvgl/src/widgets/../core/lv_obj_style_gen.h ****     lv_style_value_t v = lv_obj_get_style_prop(obj, part, LV_STYLE_PAD_COLUMN);
 124:Middlewares/lvgl/src/widgets/../core/lv_obj_style_gen.h ****     return (lv_coord_t)v.num;
 125:Middlewares/lvgl/src/widgets/../core/lv_obj_style_gen.h **** }
 126:Middlewares/lvgl/src/widgets/../core/lv_obj_style_gen.h **** 
 127:Middlewares/lvgl/src/widgets/../core/lv_obj_style_gen.h **** static inline lv_coord_t lv_obj_get_style_radius(const struct _lv_obj_t * obj, uint32_t part)
 128:Middlewares/lvgl/src/widgets/../core/lv_obj_style_gen.h **** {
 129:Middlewares/lvgl/src/widgets/../core/lv_obj_style_gen.h ****     lv_style_value_t v = lv_obj_get_style_prop(obj, part, LV_STYLE_RADIUS);
 130:Middlewares/lvgl/src/widgets/../core/lv_obj_style_gen.h ****     return (lv_coord_t)v.num;
 131:Middlewares/lvgl/src/widgets/../core/lv_obj_style_gen.h **** }
 132:Middlewares/lvgl/src/widgets/../core/lv_obj_style_gen.h **** 
 133:Middlewares/lvgl/src/widgets/../core/lv_obj_style_gen.h **** static inline bool lv_obj_get_style_clip_corner(const struct _lv_obj_t * obj, uint32_t part)
 134:Middlewares/lvgl/src/widgets/../core/lv_obj_style_gen.h **** {
 135:Middlewares/lvgl/src/widgets/../core/lv_obj_style_gen.h ****     lv_style_value_t v = lv_obj_get_style_prop(obj, part, LV_STYLE_CLIP_CORNER);
 136:Middlewares/lvgl/src/widgets/../core/lv_obj_style_gen.h ****     return (bool)v.num;
 137:Middlewares/lvgl/src/widgets/../core/lv_obj_style_gen.h **** }
 138:Middlewares/lvgl/src/widgets/../core/lv_obj_style_gen.h **** 
 139:Middlewares/lvgl/src/widgets/../core/lv_obj_style_gen.h **** static inline lv_opa_t lv_obj_get_style_opa(const struct _lv_obj_t * obj, uint32_t part)
 140:Middlewares/lvgl/src/widgets/../core/lv_obj_style_gen.h **** {
 141:Middlewares/lvgl/src/widgets/../core/lv_obj_style_gen.h ****     lv_style_value_t v = lv_obj_get_style_prop(obj, part, LV_STYLE_OPA);
 142:Middlewares/lvgl/src/widgets/../core/lv_obj_style_gen.h ****     return (lv_opa_t)v.num;
 143:Middlewares/lvgl/src/widgets/../core/lv_obj_style_gen.h **** }
 144:Middlewares/lvgl/src/widgets/../core/lv_obj_style_gen.h **** 
 145:Middlewares/lvgl/src/widgets/../core/lv_obj_style_gen.h **** static inline const lv_color_filter_dsc_t * lv_obj_get_style_color_filter_dsc(const struct _lv_obj_
 146:Middlewares/lvgl/src/widgets/../core/lv_obj_style_gen.h **** {
 147:Middlewares/lvgl/src/widgets/../core/lv_obj_style_gen.h ****     lv_style_value_t v = lv_obj_get_style_prop(obj, part, LV_STYLE_COLOR_FILTER_DSC);
 148:Middlewares/lvgl/src/widgets/../core/lv_obj_style_gen.h ****     return (const lv_color_filter_dsc_t *)v.ptr;
 149:Middlewares/lvgl/src/widgets/../core/lv_obj_style_gen.h **** }
 150:Middlewares/lvgl/src/widgets/../core/lv_obj_style_gen.h **** 
 151:Middlewares/lvgl/src/widgets/../core/lv_obj_style_gen.h **** static inline lv_opa_t lv_obj_get_style_color_filter_opa(const struct _lv_obj_t * obj, uint32_t par
 152:Middlewares/lvgl/src/widgets/../core/lv_obj_style_gen.h **** {
 153:Middlewares/lvgl/src/widgets/../core/lv_obj_style_gen.h ****     lv_style_value_t v = lv_obj_get_style_prop(obj, part, LV_STYLE_COLOR_FILTER_OPA);
 154:Middlewares/lvgl/src/widgets/../core/lv_obj_style_gen.h ****     return (lv_opa_t)v.num;
 155:Middlewares/lvgl/src/widgets/../core/lv_obj_style_gen.h **** }
 156:Middlewares/lvgl/src/widgets/../core/lv_obj_style_gen.h **** 
 157:Middlewares/lvgl/src/widgets/../core/lv_obj_style_gen.h **** static inline uint32_t lv_obj_get_style_anim_time(const struct _lv_obj_t * obj, uint32_t part)
 158:Middlewares/lvgl/src/widgets/../core/lv_obj_style_gen.h **** {
 159:Middlewares/lvgl/src/widgets/../core/lv_obj_style_gen.h ****     lv_style_value_t v = lv_obj_get_style_prop(obj, part, LV_STYLE_ANIM_TIME);
 160:Middlewares/lvgl/src/widgets/../core/lv_obj_style_gen.h ****     return (uint32_t)v.num;
 161:Middlewares/lvgl/src/widgets/../core/lv_obj_style_gen.h **** }
 162:Middlewares/lvgl/src/widgets/../core/lv_obj_style_gen.h **** 
 163:Middlewares/lvgl/src/widgets/../core/lv_obj_style_gen.h **** static inline uint32_t lv_obj_get_style_anim_speed(const struct _lv_obj_t * obj, uint32_t part)
 164:Middlewares/lvgl/src/widgets/../core/lv_obj_style_gen.h **** {
 165:Middlewares/lvgl/src/widgets/../core/lv_obj_style_gen.h ****     lv_style_value_t v = lv_obj_get_style_prop(obj, part, LV_STYLE_ANIM_SPEED);
 166:Middlewares/lvgl/src/widgets/../core/lv_obj_style_gen.h ****     return (uint32_t)v.num;
 167:Middlewares/lvgl/src/widgets/../core/lv_obj_style_gen.h **** }
ARM GAS  /tmp/ccQS5ib5.s 			page 30


 168:Middlewares/lvgl/src/widgets/../core/lv_obj_style_gen.h **** 
 169:Middlewares/lvgl/src/widgets/../core/lv_obj_style_gen.h **** static inline const lv_style_transition_dsc_t * lv_obj_get_style_transition(const struct _lv_obj_t 
 170:Middlewares/lvgl/src/widgets/../core/lv_obj_style_gen.h **** {
 171:Middlewares/lvgl/src/widgets/../core/lv_obj_style_gen.h ****     lv_style_value_t v = lv_obj_get_style_prop(obj, part, LV_STYLE_TRANSITION);
 172:Middlewares/lvgl/src/widgets/../core/lv_obj_style_gen.h ****     return (const lv_style_transition_dsc_t *)v.ptr;
 173:Middlewares/lvgl/src/widgets/../core/lv_obj_style_gen.h **** }
 174:Middlewares/lvgl/src/widgets/../core/lv_obj_style_gen.h **** 
 175:Middlewares/lvgl/src/widgets/../core/lv_obj_style_gen.h **** static inline lv_blend_mode_t lv_obj_get_style_blend_mode(const struct _lv_obj_t * obj, uint32_t pa
 176:Middlewares/lvgl/src/widgets/../core/lv_obj_style_gen.h **** {
 177:Middlewares/lvgl/src/widgets/../core/lv_obj_style_gen.h ****     lv_style_value_t v = lv_obj_get_style_prop(obj, part, LV_STYLE_BLEND_MODE);
 178:Middlewares/lvgl/src/widgets/../core/lv_obj_style_gen.h ****     return (lv_blend_mode_t)v.num;
 179:Middlewares/lvgl/src/widgets/../core/lv_obj_style_gen.h **** }
 180:Middlewares/lvgl/src/widgets/../core/lv_obj_style_gen.h **** 
 181:Middlewares/lvgl/src/widgets/../core/lv_obj_style_gen.h **** static inline uint16_t lv_obj_get_style_layout(const struct _lv_obj_t * obj, uint32_t part)
 182:Middlewares/lvgl/src/widgets/../core/lv_obj_style_gen.h **** {
 183:Middlewares/lvgl/src/widgets/../core/lv_obj_style_gen.h ****     lv_style_value_t v = lv_obj_get_style_prop(obj, part, LV_STYLE_LAYOUT);
 184:Middlewares/lvgl/src/widgets/../core/lv_obj_style_gen.h ****     return (uint16_t)v.num;
 185:Middlewares/lvgl/src/widgets/../core/lv_obj_style_gen.h **** }
 186:Middlewares/lvgl/src/widgets/../core/lv_obj_style_gen.h **** 
 187:Middlewares/lvgl/src/widgets/../core/lv_obj_style_gen.h **** static inline lv_base_dir_t lv_obj_get_style_base_dir(const struct _lv_obj_t * obj, uint32_t part)
 188:Middlewares/lvgl/src/widgets/../core/lv_obj_style_gen.h **** {
 189:Middlewares/lvgl/src/widgets/../core/lv_obj_style_gen.h ****     lv_style_value_t v = lv_obj_get_style_prop(obj, part, LV_STYLE_BASE_DIR);
 190:Middlewares/lvgl/src/widgets/../core/lv_obj_style_gen.h ****     return (lv_base_dir_t)v.num;
 191:Middlewares/lvgl/src/widgets/../core/lv_obj_style_gen.h **** }
 192:Middlewares/lvgl/src/widgets/../core/lv_obj_style_gen.h **** 
 193:Middlewares/lvgl/src/widgets/../core/lv_obj_style_gen.h **** static inline lv_color_t lv_obj_get_style_bg_color(const struct _lv_obj_t * obj, uint32_t part)
 194:Middlewares/lvgl/src/widgets/../core/lv_obj_style_gen.h **** {
 195:Middlewares/lvgl/src/widgets/../core/lv_obj_style_gen.h ****     lv_style_value_t v = lv_obj_get_style_prop(obj, part, LV_STYLE_BG_COLOR);
 196:Middlewares/lvgl/src/widgets/../core/lv_obj_style_gen.h ****     return v.color;
 197:Middlewares/lvgl/src/widgets/../core/lv_obj_style_gen.h **** }
 198:Middlewares/lvgl/src/widgets/../core/lv_obj_style_gen.h **** 
 199:Middlewares/lvgl/src/widgets/../core/lv_obj_style_gen.h **** static inline lv_color_t lv_obj_get_style_bg_color_filtered(const struct _lv_obj_t * obj, uint32_t 
 200:Middlewares/lvgl/src/widgets/../core/lv_obj_style_gen.h **** {
 201:Middlewares/lvgl/src/widgets/../core/lv_obj_style_gen.h ****     lv_style_value_t v = lv_obj_get_style_prop(obj, part, LV_STYLE_BG_COLOR_FILTERED);
 202:Middlewares/lvgl/src/widgets/../core/lv_obj_style_gen.h ****     return v.color;
 203:Middlewares/lvgl/src/widgets/../core/lv_obj_style_gen.h **** }
 204:Middlewares/lvgl/src/widgets/../core/lv_obj_style_gen.h **** 
 205:Middlewares/lvgl/src/widgets/../core/lv_obj_style_gen.h **** static inline lv_opa_t lv_obj_get_style_bg_opa(const struct _lv_obj_t * obj, uint32_t part)
 206:Middlewares/lvgl/src/widgets/../core/lv_obj_style_gen.h **** {
 207:Middlewares/lvgl/src/widgets/../core/lv_obj_style_gen.h ****     lv_style_value_t v = lv_obj_get_style_prop(obj, part, LV_STYLE_BG_OPA);
 208:Middlewares/lvgl/src/widgets/../core/lv_obj_style_gen.h ****     return (lv_opa_t)v.num;
 209:Middlewares/lvgl/src/widgets/../core/lv_obj_style_gen.h **** }
 210:Middlewares/lvgl/src/widgets/../core/lv_obj_style_gen.h **** 
 211:Middlewares/lvgl/src/widgets/../core/lv_obj_style_gen.h **** static inline lv_color_t lv_obj_get_style_bg_grad_color(const struct _lv_obj_t * obj, uint32_t part
 212:Middlewares/lvgl/src/widgets/../core/lv_obj_style_gen.h **** {
 213:Middlewares/lvgl/src/widgets/../core/lv_obj_style_gen.h ****     lv_style_value_t v = lv_obj_get_style_prop(obj, part, LV_STYLE_BG_GRAD_COLOR);
 214:Middlewares/lvgl/src/widgets/../core/lv_obj_style_gen.h ****     return v.color;
 215:Middlewares/lvgl/src/widgets/../core/lv_obj_style_gen.h **** }
 216:Middlewares/lvgl/src/widgets/../core/lv_obj_style_gen.h **** 
 217:Middlewares/lvgl/src/widgets/../core/lv_obj_style_gen.h **** static inline lv_color_t lv_obj_get_style_bg_grad_color_filtered(const struct _lv_obj_t * obj, uint
 218:Middlewares/lvgl/src/widgets/../core/lv_obj_style_gen.h **** {
 219:Middlewares/lvgl/src/widgets/../core/lv_obj_style_gen.h ****     lv_style_value_t v = lv_obj_get_style_prop(obj, part, LV_STYLE_BG_GRAD_COLOR_FILTERED);
 220:Middlewares/lvgl/src/widgets/../core/lv_obj_style_gen.h ****     return v.color;
 221:Middlewares/lvgl/src/widgets/../core/lv_obj_style_gen.h **** }
 222:Middlewares/lvgl/src/widgets/../core/lv_obj_style_gen.h **** 
 223:Middlewares/lvgl/src/widgets/../core/lv_obj_style_gen.h **** static inline lv_grad_dir_t lv_obj_get_style_bg_grad_dir(const struct _lv_obj_t * obj, uint32_t par
 224:Middlewares/lvgl/src/widgets/../core/lv_obj_style_gen.h **** {
ARM GAS  /tmp/ccQS5ib5.s 			page 31


 225:Middlewares/lvgl/src/widgets/../core/lv_obj_style_gen.h ****     lv_style_value_t v = lv_obj_get_style_prop(obj, part, LV_STYLE_BG_GRAD_DIR);
 226:Middlewares/lvgl/src/widgets/../core/lv_obj_style_gen.h ****     return (lv_grad_dir_t)v.num;
 227:Middlewares/lvgl/src/widgets/../core/lv_obj_style_gen.h **** }
 228:Middlewares/lvgl/src/widgets/../core/lv_obj_style_gen.h **** 
 229:Middlewares/lvgl/src/widgets/../core/lv_obj_style_gen.h **** static inline lv_coord_t lv_obj_get_style_bg_main_stop(const struct _lv_obj_t * obj, uint32_t part)
 230:Middlewares/lvgl/src/widgets/../core/lv_obj_style_gen.h **** {
 231:Middlewares/lvgl/src/widgets/../core/lv_obj_style_gen.h ****     lv_style_value_t v = lv_obj_get_style_prop(obj, part, LV_STYLE_BG_MAIN_STOP);
 232:Middlewares/lvgl/src/widgets/../core/lv_obj_style_gen.h ****     return (lv_coord_t)v.num;
 233:Middlewares/lvgl/src/widgets/../core/lv_obj_style_gen.h **** }
 234:Middlewares/lvgl/src/widgets/../core/lv_obj_style_gen.h **** 
 235:Middlewares/lvgl/src/widgets/../core/lv_obj_style_gen.h **** static inline lv_coord_t lv_obj_get_style_bg_grad_stop(const struct _lv_obj_t * obj, uint32_t part)
 236:Middlewares/lvgl/src/widgets/../core/lv_obj_style_gen.h **** {
 237:Middlewares/lvgl/src/widgets/../core/lv_obj_style_gen.h ****     lv_style_value_t v = lv_obj_get_style_prop(obj, part, LV_STYLE_BG_GRAD_STOP);
 238:Middlewares/lvgl/src/widgets/../core/lv_obj_style_gen.h ****     return (lv_coord_t)v.num;
 239:Middlewares/lvgl/src/widgets/../core/lv_obj_style_gen.h **** }
 240:Middlewares/lvgl/src/widgets/../core/lv_obj_style_gen.h **** 
 241:Middlewares/lvgl/src/widgets/../core/lv_obj_style_gen.h **** static inline const void * lv_obj_get_style_bg_img_src(const struct _lv_obj_t * obj, uint32_t part)
 242:Middlewares/lvgl/src/widgets/../core/lv_obj_style_gen.h **** {
 243:Middlewares/lvgl/src/widgets/../core/lv_obj_style_gen.h ****     lv_style_value_t v = lv_obj_get_style_prop(obj, part, LV_STYLE_BG_IMG_SRC);
 244:Middlewares/lvgl/src/widgets/../core/lv_obj_style_gen.h ****     return (const void *)v.ptr;
 245:Middlewares/lvgl/src/widgets/../core/lv_obj_style_gen.h **** }
 246:Middlewares/lvgl/src/widgets/../core/lv_obj_style_gen.h **** 
 247:Middlewares/lvgl/src/widgets/../core/lv_obj_style_gen.h **** static inline lv_opa_t lv_obj_get_style_bg_img_opa(const struct _lv_obj_t * obj, uint32_t part)
 248:Middlewares/lvgl/src/widgets/../core/lv_obj_style_gen.h **** {
 249:Middlewares/lvgl/src/widgets/../core/lv_obj_style_gen.h ****     lv_style_value_t v = lv_obj_get_style_prop(obj, part, LV_STYLE_BG_IMG_OPA);
 250:Middlewares/lvgl/src/widgets/../core/lv_obj_style_gen.h ****     return (lv_opa_t)v.num;
 251:Middlewares/lvgl/src/widgets/../core/lv_obj_style_gen.h **** }
 252:Middlewares/lvgl/src/widgets/../core/lv_obj_style_gen.h **** 
 253:Middlewares/lvgl/src/widgets/../core/lv_obj_style_gen.h **** static inline lv_color_t lv_obj_get_style_bg_img_recolor(const struct _lv_obj_t * obj, uint32_t par
 254:Middlewares/lvgl/src/widgets/../core/lv_obj_style_gen.h **** {
 255:Middlewares/lvgl/src/widgets/../core/lv_obj_style_gen.h ****     lv_style_value_t v = lv_obj_get_style_prop(obj, part, LV_STYLE_BG_IMG_RECOLOR);
 256:Middlewares/lvgl/src/widgets/../core/lv_obj_style_gen.h ****     return v.color;
 257:Middlewares/lvgl/src/widgets/../core/lv_obj_style_gen.h **** }
 258:Middlewares/lvgl/src/widgets/../core/lv_obj_style_gen.h **** 
 259:Middlewares/lvgl/src/widgets/../core/lv_obj_style_gen.h **** static inline lv_color_t lv_obj_get_style_bg_img_recolor_filtered(const struct _lv_obj_t * obj, uin
 260:Middlewares/lvgl/src/widgets/../core/lv_obj_style_gen.h **** {
 261:Middlewares/lvgl/src/widgets/../core/lv_obj_style_gen.h ****     lv_style_value_t v = lv_obj_get_style_prop(obj, part, LV_STYLE_BG_IMG_RECOLOR_FILTERED);
 262:Middlewares/lvgl/src/widgets/../core/lv_obj_style_gen.h ****     return v.color;
 263:Middlewares/lvgl/src/widgets/../core/lv_obj_style_gen.h **** }
 264:Middlewares/lvgl/src/widgets/../core/lv_obj_style_gen.h **** 
 265:Middlewares/lvgl/src/widgets/../core/lv_obj_style_gen.h **** static inline lv_opa_t lv_obj_get_style_bg_img_recolor_opa(const struct _lv_obj_t * obj, uint32_t p
 266:Middlewares/lvgl/src/widgets/../core/lv_obj_style_gen.h **** {
 267:Middlewares/lvgl/src/widgets/../core/lv_obj_style_gen.h ****     lv_style_value_t v = lv_obj_get_style_prop(obj, part, LV_STYLE_BG_IMG_RECOLOR_OPA);
 268:Middlewares/lvgl/src/widgets/../core/lv_obj_style_gen.h ****     return (lv_opa_t)v.num;
 269:Middlewares/lvgl/src/widgets/../core/lv_obj_style_gen.h **** }
 270:Middlewares/lvgl/src/widgets/../core/lv_obj_style_gen.h **** 
 271:Middlewares/lvgl/src/widgets/../core/lv_obj_style_gen.h **** static inline bool lv_obj_get_style_bg_img_tiled(const struct _lv_obj_t * obj, uint32_t part)
 272:Middlewares/lvgl/src/widgets/../core/lv_obj_style_gen.h **** {
 273:Middlewares/lvgl/src/widgets/../core/lv_obj_style_gen.h ****     lv_style_value_t v = lv_obj_get_style_prop(obj, part, LV_STYLE_BG_IMG_TILED);
 274:Middlewares/lvgl/src/widgets/../core/lv_obj_style_gen.h ****     return (bool)v.num;
 275:Middlewares/lvgl/src/widgets/../core/lv_obj_style_gen.h **** }
 276:Middlewares/lvgl/src/widgets/../core/lv_obj_style_gen.h **** 
 277:Middlewares/lvgl/src/widgets/../core/lv_obj_style_gen.h **** static inline lv_color_t lv_obj_get_style_border_color(const struct _lv_obj_t * obj, uint32_t part)
 278:Middlewares/lvgl/src/widgets/../core/lv_obj_style_gen.h **** {
 279:Middlewares/lvgl/src/widgets/../core/lv_obj_style_gen.h ****     lv_style_value_t v = lv_obj_get_style_prop(obj, part, LV_STYLE_BORDER_COLOR);
 280:Middlewares/lvgl/src/widgets/../core/lv_obj_style_gen.h ****     return v.color;
 281:Middlewares/lvgl/src/widgets/../core/lv_obj_style_gen.h **** }
ARM GAS  /tmp/ccQS5ib5.s 			page 32


 282:Middlewares/lvgl/src/widgets/../core/lv_obj_style_gen.h **** 
 283:Middlewares/lvgl/src/widgets/../core/lv_obj_style_gen.h **** static inline lv_color_t lv_obj_get_style_border_color_filtered(const struct _lv_obj_t * obj, uint3
 284:Middlewares/lvgl/src/widgets/../core/lv_obj_style_gen.h **** {
 285:Middlewares/lvgl/src/widgets/../core/lv_obj_style_gen.h ****     lv_style_value_t v = lv_obj_get_style_prop(obj, part, LV_STYLE_BORDER_COLOR_FILTERED);
 286:Middlewares/lvgl/src/widgets/../core/lv_obj_style_gen.h ****     return v.color;
 287:Middlewares/lvgl/src/widgets/../core/lv_obj_style_gen.h **** }
 288:Middlewares/lvgl/src/widgets/../core/lv_obj_style_gen.h **** 
 289:Middlewares/lvgl/src/widgets/../core/lv_obj_style_gen.h **** static inline lv_opa_t lv_obj_get_style_border_opa(const struct _lv_obj_t * obj, uint32_t part)
 290:Middlewares/lvgl/src/widgets/../core/lv_obj_style_gen.h **** {
 291:Middlewares/lvgl/src/widgets/../core/lv_obj_style_gen.h ****     lv_style_value_t v = lv_obj_get_style_prop(obj, part, LV_STYLE_BORDER_OPA);
 292:Middlewares/lvgl/src/widgets/../core/lv_obj_style_gen.h ****     return (lv_opa_t)v.num;
 293:Middlewares/lvgl/src/widgets/../core/lv_obj_style_gen.h **** }
 294:Middlewares/lvgl/src/widgets/../core/lv_obj_style_gen.h **** 
 295:Middlewares/lvgl/src/widgets/../core/lv_obj_style_gen.h **** static inline lv_coord_t lv_obj_get_style_border_width(const struct _lv_obj_t * obj, uint32_t part)
 296:Middlewares/lvgl/src/widgets/../core/lv_obj_style_gen.h **** {
 297:Middlewares/lvgl/src/widgets/../core/lv_obj_style_gen.h ****     lv_style_value_t v = lv_obj_get_style_prop(obj, part, LV_STYLE_BORDER_WIDTH);
 298:Middlewares/lvgl/src/widgets/../core/lv_obj_style_gen.h ****     return (lv_coord_t)v.num;
 299:Middlewares/lvgl/src/widgets/../core/lv_obj_style_gen.h **** }
 300:Middlewares/lvgl/src/widgets/../core/lv_obj_style_gen.h **** 
 301:Middlewares/lvgl/src/widgets/../core/lv_obj_style_gen.h **** static inline lv_border_side_t lv_obj_get_style_border_side(const struct _lv_obj_t * obj, uint32_t 
 302:Middlewares/lvgl/src/widgets/../core/lv_obj_style_gen.h **** {
 303:Middlewares/lvgl/src/widgets/../core/lv_obj_style_gen.h ****     lv_style_value_t v = lv_obj_get_style_prop(obj, part, LV_STYLE_BORDER_SIDE);
 304:Middlewares/lvgl/src/widgets/../core/lv_obj_style_gen.h ****     return (lv_border_side_t)v.num;
 305:Middlewares/lvgl/src/widgets/../core/lv_obj_style_gen.h **** }
 306:Middlewares/lvgl/src/widgets/../core/lv_obj_style_gen.h **** 
 307:Middlewares/lvgl/src/widgets/../core/lv_obj_style_gen.h **** static inline bool lv_obj_get_style_border_post(const struct _lv_obj_t * obj, uint32_t part)
 308:Middlewares/lvgl/src/widgets/../core/lv_obj_style_gen.h **** {
 309:Middlewares/lvgl/src/widgets/../core/lv_obj_style_gen.h ****     lv_style_value_t v = lv_obj_get_style_prop(obj, part, LV_STYLE_BORDER_POST);
 310:Middlewares/lvgl/src/widgets/../core/lv_obj_style_gen.h ****     return (bool)v.num;
 311:Middlewares/lvgl/src/widgets/../core/lv_obj_style_gen.h **** }
 312:Middlewares/lvgl/src/widgets/../core/lv_obj_style_gen.h **** 
 313:Middlewares/lvgl/src/widgets/../core/lv_obj_style_gen.h **** static inline lv_color_t lv_obj_get_style_text_color(const struct _lv_obj_t * obj, uint32_t part)
 314:Middlewares/lvgl/src/widgets/../core/lv_obj_style_gen.h **** {
 315:Middlewares/lvgl/src/widgets/../core/lv_obj_style_gen.h ****     lv_style_value_t v = lv_obj_get_style_prop(obj, part, LV_STYLE_TEXT_COLOR);
 316:Middlewares/lvgl/src/widgets/../core/lv_obj_style_gen.h ****     return v.color;
 317:Middlewares/lvgl/src/widgets/../core/lv_obj_style_gen.h **** }
 318:Middlewares/lvgl/src/widgets/../core/lv_obj_style_gen.h **** 
 319:Middlewares/lvgl/src/widgets/../core/lv_obj_style_gen.h **** static inline lv_color_t lv_obj_get_style_text_color_filtered(const struct _lv_obj_t * obj, uint32_
 320:Middlewares/lvgl/src/widgets/../core/lv_obj_style_gen.h **** {
 321:Middlewares/lvgl/src/widgets/../core/lv_obj_style_gen.h ****     lv_style_value_t v = lv_obj_get_style_prop(obj, part, LV_STYLE_TEXT_COLOR_FILTERED);
 322:Middlewares/lvgl/src/widgets/../core/lv_obj_style_gen.h ****     return v.color;
 323:Middlewares/lvgl/src/widgets/../core/lv_obj_style_gen.h **** }
 324:Middlewares/lvgl/src/widgets/../core/lv_obj_style_gen.h **** 
 325:Middlewares/lvgl/src/widgets/../core/lv_obj_style_gen.h **** static inline lv_opa_t lv_obj_get_style_text_opa(const struct _lv_obj_t * obj, uint32_t part)
 326:Middlewares/lvgl/src/widgets/../core/lv_obj_style_gen.h **** {
 327:Middlewares/lvgl/src/widgets/../core/lv_obj_style_gen.h ****     lv_style_value_t v = lv_obj_get_style_prop(obj, part, LV_STYLE_TEXT_OPA);
 328:Middlewares/lvgl/src/widgets/../core/lv_obj_style_gen.h ****     return (lv_opa_t)v.num;
 329:Middlewares/lvgl/src/widgets/../core/lv_obj_style_gen.h **** }
 330:Middlewares/lvgl/src/widgets/../core/lv_obj_style_gen.h **** 
 331:Middlewares/lvgl/src/widgets/../core/lv_obj_style_gen.h **** static inline const lv_font_t * lv_obj_get_style_text_font(const struct _lv_obj_t * obj, uint32_t p
 332:Middlewares/lvgl/src/widgets/../core/lv_obj_style_gen.h **** {
 333:Middlewares/lvgl/src/widgets/../core/lv_obj_style_gen.h ****     lv_style_value_t v = lv_obj_get_style_prop(obj, part, LV_STYLE_TEXT_FONT);
 334:Middlewares/lvgl/src/widgets/../core/lv_obj_style_gen.h ****     return (const lv_font_t *)v.ptr;
 335:Middlewares/lvgl/src/widgets/../core/lv_obj_style_gen.h **** }
 336:Middlewares/lvgl/src/widgets/../core/lv_obj_style_gen.h **** 
 337:Middlewares/lvgl/src/widgets/../core/lv_obj_style_gen.h **** static inline lv_coord_t lv_obj_get_style_text_letter_space(const struct _lv_obj_t * obj, uint32_t 
 457              		.loc 3 337 26 view .LVU145
ARM GAS  /tmp/ccQS5ib5.s 			page 33


 458              	.LBB103:
 338:Middlewares/lvgl/src/widgets/../core/lv_obj_style_gen.h **** {
 339:Middlewares/lvgl/src/widgets/../core/lv_obj_style_gen.h ****     lv_style_value_t v = lv_obj_get_style_prop(obj, part, LV_STYLE_TEXT_LETTER_SPACE);
 459              		.loc 3 339 5 view .LVU146
 460              		.loc 3 339 26 is_stmt 0 view .LVU147
 461 0050 41F25A42 		movw	r2, #5210
 462 0054 4FF4A021 		mov	r1, #327680
 463 0058 2846     		mov	r0, r5
 464 005a FFF7FEFF 		bl	lv_obj_get_style_prop
 465              	.LVL53:
 340:Middlewares/lvgl/src/widgets/../core/lv_obj_style_gen.h ****     return (lv_coord_t)v.num;
 466              		.loc 3 340 5 is_stmt 1 view .LVU148
 467              		.loc 3 340 12 is_stmt 0 view .LVU149
 468 005e 03B2     		sxth	r3, r0
 469 0060 0893     		str	r3, [sp, #32]
 470              	.LVL54:
 471              		.loc 3 340 12 view .LVU150
 472              	.LBE103:
 473              	.LBE102:
 776:Middlewares/lvgl/src/widgets/lv_table.c ****     const lv_font_t * font = lv_obj_get_style_text_font(obj, LV_PART_ITEMS);
 474              		.loc 1 776 5 is_stmt 1 view .LVU151
 475              	.LBB104:
 476              	.LBI104:
 341:Middlewares/lvgl/src/widgets/../core/lv_obj_style_gen.h **** }
 342:Middlewares/lvgl/src/widgets/../core/lv_obj_style_gen.h **** 
 343:Middlewares/lvgl/src/widgets/../core/lv_obj_style_gen.h **** static inline lv_coord_t lv_obj_get_style_text_line_space(const struct _lv_obj_t * obj, uint32_t pa
 477              		.loc 3 343 26 view .LVU152
 478              	.LBB105:
 344:Middlewares/lvgl/src/widgets/../core/lv_obj_style_gen.h **** {
 345:Middlewares/lvgl/src/widgets/../core/lv_obj_style_gen.h ****     lv_style_value_t v = lv_obj_get_style_prop(obj, part, LV_STYLE_TEXT_LINE_SPACE);
 479              		.loc 3 345 5 view .LVU153
 480              		.loc 3 345 26 is_stmt 0 view .LVU154
 481 0062 41F25B42 		movw	r2, #5211
 482 0066 4FF4A021 		mov	r1, #327680
 483 006a 2846     		mov	r0, r5
 484 006c FFF7FEFF 		bl	lv_obj_get_style_prop
 485              	.LVL55:
 346:Middlewares/lvgl/src/widgets/../core/lv_obj_style_gen.h ****     return (lv_coord_t)v.num;
 486              		.loc 3 346 5 is_stmt 1 view .LVU155
 487              		.loc 3 346 12 is_stmt 0 view .LVU156
 488 0070 03B2     		sxth	r3, r0
 489 0072 0793     		str	r3, [sp, #28]
 490              	.LVL56:
 491              		.loc 3 346 12 view .LVU157
 492              	.LBE105:
 493              	.LBE104:
 777:Middlewares/lvgl/src/widgets/lv_table.c **** 
 494              		.loc 1 777 5 is_stmt 1 view .LVU158
 495              	.LBB106:
 496              	.LBI106:
 331:Middlewares/lvgl/src/widgets/../core/lv_obj_style_gen.h **** {
 497              		.loc 3 331 33 view .LVU159
 498              	.LBB107:
 333:Middlewares/lvgl/src/widgets/../core/lv_obj_style_gen.h ****     return (const lv_font_t *)v.ptr;
 499              		.loc 3 333 5 view .LVU160
 333:Middlewares/lvgl/src/widgets/../core/lv_obj_style_gen.h ****     return (const lv_font_t *)v.ptr;
 500              		.loc 3 333 26 is_stmt 0 view .LVU161
ARM GAS  /tmp/ccQS5ib5.s 			page 34


 501 0074 41F25942 		movw	r2, #5209
 502 0078 4FF4A021 		mov	r1, #327680
 503 007c 2846     		mov	r0, r5
 504 007e FFF7FEFF 		bl	lv_obj_get_style_prop
 505              	.LVL57:
 506 0082 0690     		str	r0, [sp, #24]
 334:Middlewares/lvgl/src/widgets/../core/lv_obj_style_gen.h **** }
 507              		.loc 3 334 5 is_stmt 1 view .LVU162
 508              	.LVL58:
 334:Middlewares/lvgl/src/widgets/../core/lv_obj_style_gen.h **** }
 509              		.loc 3 334 5 is_stmt 0 view .LVU163
 510              	.LBE107:
 511              	.LBE106:
 779:Middlewares/lvgl/src/widgets/lv_table.c ****     lv_coord_t maxh = lv_obj_get_style_max_height(obj, LV_PART_ITEMS);
 512              		.loc 1 779 5 is_stmt 1 view .LVU164
 513              	.LBB108:
 514              	.LBI108:
  25:Middlewares/lvgl/src/widgets/../core/lv_obj_style_gen.h **** {
 515              		.loc 3 25 26 view .LVU165
 516              	.LBB109:
  27:Middlewares/lvgl/src/widgets/../core/lv_obj_style_gen.h ****     return (lv_coord_t)v.num;
 517              		.loc 3 27 5 view .LVU166
  27:Middlewares/lvgl/src/widgets/../core/lv_obj_style_gen.h ****     return (lv_coord_t)v.num;
 518              		.loc 3 27 26 is_stmt 0 view .LVU167
 519 0084 41F20502 		movw	r2, #4101
 520 0088 4FF4A021 		mov	r1, #327680
 521 008c 2846     		mov	r0, r5
 522              	.LVL59:
  27:Middlewares/lvgl/src/widgets/../core/lv_obj_style_gen.h ****     return (lv_coord_t)v.num;
 523              		.loc 3 27 26 view .LVU168
 524 008e FFF7FEFF 		bl	lv_obj_get_style_prop
 525              	.LVL60:
  28:Middlewares/lvgl/src/widgets/../core/lv_obj_style_gen.h **** }
 526              		.loc 3 28 5 is_stmt 1 view .LVU169
  28:Middlewares/lvgl/src/widgets/../core/lv_obj_style_gen.h **** }
 527              		.loc 3 28 12 is_stmt 0 view .LVU170
 528 0092 0FFA80F8 		sxth	r8, r0
 529              	.LVL61:
  28:Middlewares/lvgl/src/widgets/../core/lv_obj_style_gen.h **** }
 530              		.loc 3 28 12 view .LVU171
 531              	.LBE109:
 532              	.LBE108:
 780:Middlewares/lvgl/src/widgets/lv_table.c **** 
 533              		.loc 1 780 5 is_stmt 1 view .LVU172
 534              	.LBB110:
 535              	.LBI110:
  31:Middlewares/lvgl/src/widgets/../core/lv_obj_style_gen.h **** {
 536              		.loc 3 31 26 view .LVU173
 537              	.LBB111:
  33:Middlewares/lvgl/src/widgets/../core/lv_obj_style_gen.h ****     return (lv_coord_t)v.num;
 538              		.loc 3 33 5 view .LVU174
  33:Middlewares/lvgl/src/widgets/../core/lv_obj_style_gen.h ****     return (lv_coord_t)v.num;
 539              		.loc 3 33 26 is_stmt 0 view .LVU175
 540 0096 41F20602 		movw	r2, #4102
 541 009a 4FF4A021 		mov	r1, #327680
 542 009e 2846     		mov	r0, r5
 543 00a0 FFF7FEFF 		bl	lv_obj_get_style_prop
ARM GAS  /tmp/ccQS5ib5.s 			page 35


 544              	.LVL62:
  34:Middlewares/lvgl/src/widgets/../core/lv_obj_style_gen.h **** }
 545              		.loc 3 34 5 is_stmt 1 view .LVU176
  34:Middlewares/lvgl/src/widgets/../core/lv_obj_style_gen.h **** }
 546              		.loc 3 34 12 is_stmt 0 view .LVU177
 547 00a4 07B2     		sxth	r7, r0
 548              	.LVL63:
  34:Middlewares/lvgl/src/widgets/../core/lv_obj_style_gen.h **** }
 549              		.loc 3 34 12 view .LVU178
 550              	.LBE111:
 551              	.LBE110:
 782:Middlewares/lvgl/src/widgets/lv_table.c ****         table->row_h[i] = get_row_height(obj, i, font, letter_space, line_space,
 552              		.loc 1 782 5 is_stmt 1 view .LVU179
 782:Middlewares/lvgl/src/widgets/lv_table.c ****         table->row_h[i] = get_row_height(obj, i, font, letter_space, line_space,
 553              		.loc 1 782 5 is_stmt 0 view .LVU180
 554 00a6 1EE0     		b	.L12
 555              	.LVL64:
 556              	.L13:
 783:Middlewares/lvgl/src/widgets/lv_table.c ****                                        cell_left, cell_right, cell_top, cell_bottom);
 557              		.loc 1 783 9 is_stmt 1 discriminator 3 view .LVU181
 783:Middlewares/lvgl/src/widgets/lv_table.c ****                                        cell_left, cell_right, cell_top, cell_bottom);
 558              		.loc 1 783 14 is_stmt 0 discriminator 3 view .LVU182
 559 00a8 EE6A     		ldr	r6, [r5, #44]
 783:Middlewares/lvgl/src/widgets/lv_table.c ****                                        cell_left, cell_right, cell_top, cell_bottom);
 560              		.loc 1 783 27 discriminator 3 view .LVU183
 561 00aa 099B     		ldr	r3, [sp, #36]
 562 00ac 0493     		str	r3, [sp, #16]
 563 00ae CDF80C90 		str	r9, [sp, #12]
 564 00b2 CDF808A0 		str	r10, [sp, #8]
 565 00b6 CDF804B0 		str	fp, [sp, #4]
 566 00ba 079B     		ldr	r3, [sp, #28]
 567 00bc 0093     		str	r3, [sp]
 568 00be 089B     		ldr	r3, [sp, #32]
 569 00c0 069A     		ldr	r2, [sp, #24]
 570 00c2 A1B2     		uxth	r1, r4
 571 00c4 2846     		mov	r0, r5
 572 00c6 FFF7FEFF 		bl	get_row_height
 573              	.LVL65:
 783:Middlewares/lvgl/src/widgets/lv_table.c ****                                        cell_left, cell_right, cell_top, cell_bottom);
 574              		.loc 1 783 25 discriminator 3 view .LVU184
 575 00ca 26F81400 		strh	r0, [r6, r4, lsl #1]	@ movhi
 785:Middlewares/lvgl/src/widgets/lv_table.c ****     }
 576              		.loc 1 785 9 is_stmt 1 discriminator 3 view .LVU185
 785:Middlewares/lvgl/src/widgets/lv_table.c ****     }
 577              		.loc 1 785 27 is_stmt 0 discriminator 3 view .LVU186
 578 00ce EA6A     		ldr	r2, [r5, #44]
 579 00d0 32F91430 		ldrsh	r3, [r2, r4, lsl #1]
 580 00d4 BB42     		cmp	r3, r7
 581 00d6 A8BF     		it	ge
 582 00d8 3B46     		movge	r3, r7
 583 00da 4345     		cmp	r3, r8
 584 00dc B8BF     		it	lt
 585 00de 4346     		movlt	r3, r8
 785:Middlewares/lvgl/src/widgets/lv_table.c ****     }
 586              		.loc 1 785 25 discriminator 3 view .LVU187
 587 00e0 22F81430 		strh	r3, [r2, r4, lsl #1]	@ movhi
 782:Middlewares/lvgl/src/widgets/lv_table.c ****         table->row_h[i] = get_row_height(obj, i, font, letter_space, line_space,
ARM GAS  /tmp/ccQS5ib5.s 			page 36


 588              		.loc 1 782 44 is_stmt 1 discriminator 3 view .LVU188
 782:Middlewares/lvgl/src/widgets/lv_table.c ****         table->row_h[i] = get_row_height(obj, i, font, letter_space, line_space,
 589              		.loc 1 782 45 is_stmt 0 discriminator 3 view .LVU189
 590 00e4 0134     		adds	r4, r4, #1
 591              	.LVL66:
 592              	.L12:
 782:Middlewares/lvgl/src/widgets/lv_table.c ****         table->row_h[i] = get_row_height(obj, i, font, letter_space, line_space,
 593              		.loc 1 782 24 is_stmt 1 discriminator 1 view .LVU190
 782:Middlewares/lvgl/src/widgets/lv_table.c ****         table->row_h[i] = get_row_height(obj, i, font, letter_space, line_space,
 594              		.loc 1 782 33 is_stmt 0 discriminator 1 view .LVU191
 595 00e6 EB8C     		ldrh	r3, [r5, #38]
 782:Middlewares/lvgl/src/widgets/lv_table.c ****         table->row_h[i] = get_row_height(obj, i, font, letter_space, line_space,
 596              		.loc 1 782 5 discriminator 1 view .LVU192
 597 00e8 A342     		cmp	r3, r4
 598 00ea DDD8     		bhi	.L13
 788:Middlewares/lvgl/src/widgets/lv_table.c **** }
 599              		.loc 1 788 5 is_stmt 1 view .LVU193
 600 00ec 2846     		mov	r0, r5
 601 00ee FFF7FEFF 		bl	lv_obj_refresh_self_size
 602              	.LVL67:
 789:Middlewares/lvgl/src/widgets/lv_table.c **** 
 603              		.loc 1 789 1 is_stmt 0 view .LVU194
 604 00f2 0BB0     		add	sp, sp, #44
 605              	.LCFI5:
 606              		.cfi_def_cfa_offset 36
 607              		@ sp needed
 608 00f4 BDE8F08F 		pop	{r4, r5, r6, r7, r8, r9, r10, fp, pc}
 789:Middlewares/lvgl/src/widgets/lv_table.c **** 
 609              		.loc 1 789 1 view .LVU195
 610              		.cfi_endproc
 611              	.LFE165:
 613              		.section	.text.get_pressed_cell,"ax",%progbits
 614              		.align	1
 615              		.syntax unified
 616              		.thumb
 617              		.thumb_func
 618              		.fpu fpv4-sp-d16
 620              	get_pressed_cell:
 621              	.LVL68:
 622              	.LFB167:
 848:Middlewares/lvgl/src/widgets/lv_table.c **** 
 849:Middlewares/lvgl/src/widgets/lv_table.c **** static lv_res_t get_pressed_cell(lv_obj_t * obj, uint16_t * row, uint16_t * col)
 850:Middlewares/lvgl/src/widgets/lv_table.c **** {
 623              		.loc 1 850 1 is_stmt 1 view -0
 624              		.cfi_startproc
 625              		@ args = 0, pretend = 0, frame = 8
 626              		@ frame_needed = 0, uses_anonymous_args = 0
 627              		.loc 1 850 1 is_stmt 0 view .LVU197
 628 0000 2DE9F041 		push	{r4, r5, r6, r7, r8, lr}
 629              	.LCFI6:
 630              		.cfi_def_cfa_offset 24
 631              		.cfi_offset 4, -24
 632              		.cfi_offset 5, -20
 633              		.cfi_offset 6, -16
 634              		.cfi_offset 7, -12
 635              		.cfi_offset 8, -8
 636              		.cfi_offset 14, -4
ARM GAS  /tmp/ccQS5ib5.s 			page 37


 637 0004 82B0     		sub	sp, sp, #8
 638              	.LCFI7:
 639              		.cfi_def_cfa_offset 32
 640 0006 0446     		mov	r4, r0
 641 0008 0D46     		mov	r5, r1
 642 000a 1646     		mov	r6, r2
 851:Middlewares/lvgl/src/widgets/lv_table.c ****    lv_table_t * table = (lv_table_t *)obj;
 643              		.loc 1 851 4 is_stmt 1 view .LVU198
 644              	.LVL69:
 852:Middlewares/lvgl/src/widgets/lv_table.c **** 
 853:Middlewares/lvgl/src/widgets/lv_table.c ****     lv_indev_type_t type = lv_indev_get_type(lv_indev_get_act());
 645              		.loc 1 853 5 view .LVU199
 646              		.loc 1 853 46 is_stmt 0 view .LVU200
 647 000c FFF7FEFF 		bl	lv_indev_get_act
 648              	.LVL70:
 649              		.loc 1 853 28 view .LVU201
 650 0010 FFF7FEFF 		bl	lv_indev_get_type
 651              	.LVL71:
 854:Middlewares/lvgl/src/widgets/lv_table.c ****     if(type != LV_INDEV_TYPE_POINTER && type != LV_INDEV_TYPE_BUTTON) {
 652              		.loc 1 854 5 is_stmt 1 view .LVU202
 653              		.loc 1 854 7 is_stmt 0 view .LVU203
 654 0014 0128     		cmp	r0, #1
 655 0016 0DD0     		beq	.L16
 656              		.loc 1 854 38 discriminator 1 view .LVU204
 657 0018 0328     		cmp	r0, #3
 658 001a 0BD0     		beq	.L16
 855:Middlewares/lvgl/src/widgets/lv_table.c ****         if(col) *col = LV_TABLE_CELL_NONE;
 659              		.loc 1 855 9 is_stmt 1 view .LVU205
 660              		.loc 1 855 11 is_stmt 0 view .LVU206
 661 001c 16B1     		cbz	r6, .L17
 662              		.loc 1 855 17 is_stmt 1 discriminator 1 view .LVU207
 663              		.loc 1 855 22 is_stmt 0 discriminator 1 view .LVU208
 664 001e 4FF6FF73 		movw	r3, #65535
 665 0022 3380     		strh	r3, [r6]	@ movhi
 666              	.L17:
 856:Middlewares/lvgl/src/widgets/lv_table.c ****         if(row) *row = LV_TABLE_CELL_NONE;
 667              		.loc 1 856 9 is_stmt 1 view .LVU209
 668              		.loc 1 856 11 is_stmt 0 view .LVU210
 669 0024 15B1     		cbz	r5, .L18
 670              		.loc 1 856 17 is_stmt 1 discriminator 1 view .LVU211
 671              		.loc 1 856 22 is_stmt 0 discriminator 1 view .LVU212
 672 0026 4FF6FF73 		movw	r3, #65535
 673 002a 2B80     		strh	r3, [r5]	@ movhi
 674              	.L18:
 857:Middlewares/lvgl/src/widgets/lv_table.c ****         return LV_RES_INV;
 675              		.loc 1 857 9 is_stmt 1 view .LVU213
 676              		.loc 1 857 16 is_stmt 0 view .LVU214
 677 002c 0020     		movs	r0, #0
 678              	.LVL72:
 679              	.L19:
 858:Middlewares/lvgl/src/widgets/lv_table.c ****     }
 859:Middlewares/lvgl/src/widgets/lv_table.c **** 
 860:Middlewares/lvgl/src/widgets/lv_table.c ****     lv_point_t p;
 861:Middlewares/lvgl/src/widgets/lv_table.c ****     lv_indev_get_point(lv_indev_get_act(), &p);
 862:Middlewares/lvgl/src/widgets/lv_table.c **** 
 863:Middlewares/lvgl/src/widgets/lv_table.c ****     lv_coord_t tmp;
 864:Middlewares/lvgl/src/widgets/lv_table.c ****     if(col) {
ARM GAS  /tmp/ccQS5ib5.s 			page 38


 865:Middlewares/lvgl/src/widgets/lv_table.c ****         lv_coord_t x = p.x + lv_obj_get_scroll_x(obj);
 866:Middlewares/lvgl/src/widgets/lv_table.c **** 
 867:Middlewares/lvgl/src/widgets/lv_table.c ****         if(lv_obj_get_style_base_dir(obj, LV_PART_MAIN) == LV_BASE_DIR_RTL) {
 868:Middlewares/lvgl/src/widgets/lv_table.c ****             x = obj->coords.x2 - lv_obj_get_style_pad_right(obj, LV_PART_MAIN) - x;
 869:Middlewares/lvgl/src/widgets/lv_table.c ****         }
 870:Middlewares/lvgl/src/widgets/lv_table.c ****         else {
 871:Middlewares/lvgl/src/widgets/lv_table.c ****             x -= obj->coords.x1;
 872:Middlewares/lvgl/src/widgets/lv_table.c ****             x -= lv_obj_get_style_pad_left(obj, LV_PART_MAIN);
 873:Middlewares/lvgl/src/widgets/lv_table.c ****         }
 874:Middlewares/lvgl/src/widgets/lv_table.c **** 
 875:Middlewares/lvgl/src/widgets/lv_table.c ****         *col = 0;
 876:Middlewares/lvgl/src/widgets/lv_table.c ****         tmp = 0;
 877:Middlewares/lvgl/src/widgets/lv_table.c ****         for(*col = 0; *col < table->col_cnt; (*col)++) {
 878:Middlewares/lvgl/src/widgets/lv_table.c ****             tmp += table->col_w[*col];
 879:Middlewares/lvgl/src/widgets/lv_table.c ****             if(x < tmp) break;
 880:Middlewares/lvgl/src/widgets/lv_table.c ****         }
 881:Middlewares/lvgl/src/widgets/lv_table.c ****     }
 882:Middlewares/lvgl/src/widgets/lv_table.c **** 
 883:Middlewares/lvgl/src/widgets/lv_table.c ****     if(row) {
 884:Middlewares/lvgl/src/widgets/lv_table.c ****         lv_coord_t y = p.y + lv_obj_get_scroll_y(obj);;
 885:Middlewares/lvgl/src/widgets/lv_table.c ****         y -= obj->coords.y1;
 886:Middlewares/lvgl/src/widgets/lv_table.c ****         y -= lv_obj_get_style_pad_top(obj, LV_PART_MAIN);
 887:Middlewares/lvgl/src/widgets/lv_table.c **** 
 888:Middlewares/lvgl/src/widgets/lv_table.c ****         *row = 0;
 889:Middlewares/lvgl/src/widgets/lv_table.c ****         tmp = 0;
 890:Middlewares/lvgl/src/widgets/lv_table.c **** 
 891:Middlewares/lvgl/src/widgets/lv_table.c ****         for(*row = 0; *row < table->row_cnt; (*row)++) {
 892:Middlewares/lvgl/src/widgets/lv_table.c ****             tmp += table->row_h[*row];
 893:Middlewares/lvgl/src/widgets/lv_table.c ****             if(y < tmp) break;
 894:Middlewares/lvgl/src/widgets/lv_table.c ****         }
 895:Middlewares/lvgl/src/widgets/lv_table.c ****     }
 896:Middlewares/lvgl/src/widgets/lv_table.c **** 
 897:Middlewares/lvgl/src/widgets/lv_table.c ****     return LV_RES_OK;
 898:Middlewares/lvgl/src/widgets/lv_table.c **** }
 680              		.loc 1 898 1 view .LVU215
 681 002e 02B0     		add	sp, sp, #8
 682              	.LCFI8:
 683              		.cfi_remember_state
 684              		.cfi_def_cfa_offset 24
 685              		@ sp needed
 686 0030 BDE8F081 		pop	{r4, r5, r6, r7, r8, pc}
 687              	.LVL73:
 688              	.L16:
 689              	.LCFI9:
 690              		.cfi_restore_state
 860:Middlewares/lvgl/src/widgets/lv_table.c ****     lv_indev_get_point(lv_indev_get_act(), &p);
 691              		.loc 1 860 5 is_stmt 1 view .LVU216
 861:Middlewares/lvgl/src/widgets/lv_table.c **** 
 692              		.loc 1 861 5 view .LVU217
 861:Middlewares/lvgl/src/widgets/lv_table.c **** 
 693              		.loc 1 861 24 is_stmt 0 view .LVU218
 694 0034 FFF7FEFF 		bl	lv_indev_get_act
 695              	.LVL74:
 861:Middlewares/lvgl/src/widgets/lv_table.c **** 
 696              		.loc 1 861 5 view .LVU219
 697 0038 01A9     		add	r1, sp, #4
 698 003a FFF7FEFF 		bl	lv_indev_get_point
ARM GAS  /tmp/ccQS5ib5.s 			page 39


 699              	.LVL75:
 863:Middlewares/lvgl/src/widgets/lv_table.c ****     if(col) {
 700              		.loc 1 863 5 is_stmt 1 view .LVU220
 864:Middlewares/lvgl/src/widgets/lv_table.c ****         lv_coord_t x = p.x + lv_obj_get_scroll_x(obj);
 701              		.loc 1 864 5 view .LVU221
 864:Middlewares/lvgl/src/widgets/lv_table.c ****         lv_coord_t x = p.x + lv_obj_get_scroll_x(obj);
 702              		.loc 1 864 7 is_stmt 0 view .LVU222
 703 003e 002E     		cmp	r6, #0
 704 0040 3BD0     		beq	.L20
 705              	.LBB112:
 865:Middlewares/lvgl/src/widgets/lv_table.c **** 
 706              		.loc 1 865 9 is_stmt 1 view .LVU223
 865:Middlewares/lvgl/src/widgets/lv_table.c **** 
 707              		.loc 1 865 25 is_stmt 0 view .LVU224
 708 0042 BDF80470 		ldrh	r7, [sp, #4]
 865:Middlewares/lvgl/src/widgets/lv_table.c **** 
 709              		.loc 1 865 30 view .LVU225
 710 0046 2046     		mov	r0, r4
 711 0048 FFF7FEFF 		bl	lv_obj_get_scroll_x
 712              	.LVL76:
 865:Middlewares/lvgl/src/widgets/lv_table.c **** 
 713              		.loc 1 865 28 view .LVU226
 714 004c 17FA80F0 		uxtah	r0, r7, r0
 715 0050 87B2     		uxth	r7, r0
 716              	.LVL77:
 867:Middlewares/lvgl/src/widgets/lv_table.c ****             x = obj->coords.x2 - lv_obj_get_style_pad_right(obj, LV_PART_MAIN) - x;
 717              		.loc 1 867 9 is_stmt 1 view .LVU227
 718              	.LBB113:
 719              	.LBI113:
 187:Middlewares/lvgl/src/widgets/../core/lv_obj_style_gen.h **** {
 720              		.loc 3 187 29 view .LVU228
 721              	.LBB114:
 189:Middlewares/lvgl/src/widgets/../core/lv_obj_style_gen.h ****     return (lv_base_dir_t)v.num;
 722              		.loc 3 189 5 view .LVU229
 189:Middlewares/lvgl/src/widgets/../core/lv_obj_style_gen.h ****     return (lv_base_dir_t)v.num;
 723              		.loc 3 189 26 is_stmt 0 view .LVU230
 724 0052 41F26A42 		movw	r2, #5226
 725 0056 0021     		movs	r1, #0
 726 0058 2046     		mov	r0, r4
 727 005a FFF7FEFF 		bl	lv_obj_get_style_prop
 728              	.LVL78:
 190:Middlewares/lvgl/src/widgets/../core/lv_obj_style_gen.h **** }
 729              		.loc 3 190 5 is_stmt 1 view .LVU231
 190:Middlewares/lvgl/src/widgets/../core/lv_obj_style_gen.h **** }
 730              		.loc 3 190 12 is_stmt 0 view .LVU232
 731 005e C0B2     		uxtb	r0, r0
 732              	.LVL79:
 190:Middlewares/lvgl/src/widgets/../core/lv_obj_style_gen.h **** }
 733              		.loc 3 190 12 view .LVU233
 734              	.LBE114:
 735              	.LBE113:
 867:Middlewares/lvgl/src/widgets/lv_table.c ****             x = obj->coords.x2 - lv_obj_get_style_pad_right(obj, LV_PART_MAIN) - x;
 736              		.loc 1 867 11 view .LVU234
 737 0060 0128     		cmp	r0, #1
 738 0062 1BD0     		beq	.L30
 871:Middlewares/lvgl/src/widgets/lv_table.c ****             x -= lv_obj_get_style_pad_left(obj, LV_PART_MAIN);
 739              		.loc 1 871 13 is_stmt 1 view .LVU235
ARM GAS  /tmp/ccQS5ib5.s 			page 40


 871:Middlewares/lvgl/src/widgets/lv_table.c ****             x -= lv_obj_get_style_pad_left(obj, LV_PART_MAIN);
 740              		.loc 1 871 29 is_stmt 0 view .LVU236
 741 0064 A08A     		ldrh	r0, [r4, #20]
 871:Middlewares/lvgl/src/widgets/lv_table.c ****             x -= lv_obj_get_style_pad_left(obj, LV_PART_MAIN);
 742              		.loc 1 871 15 view .LVU237
 743 0066 3F1A     		subs	r7, r7, r0
 744              	.LVL80:
 871:Middlewares/lvgl/src/widgets/lv_table.c ****             x -= lv_obj_get_style_pad_left(obj, LV_PART_MAIN);
 745              		.loc 1 871 15 view .LVU238
 746 0068 BFB2     		uxth	r7, r7
 747              	.LVL81:
 872:Middlewares/lvgl/src/widgets/lv_table.c ****         }
 748              		.loc 1 872 13 is_stmt 1 view .LVU239
 749              	.LBB115:
 750              	.LBI115:
 103:Middlewares/lvgl/src/widgets/../core/lv_obj_style_gen.h **** {
 751              		.loc 3 103 26 view .LVU240
 752              	.LBB116:
 105:Middlewares/lvgl/src/widgets/../core/lv_obj_style_gen.h ****     return (lv_coord_t)v.num;
 753              		.loc 3 105 5 view .LVU241
 105:Middlewares/lvgl/src/widgets/../core/lv_obj_style_gen.h ****     return (lv_coord_t)v.num;
 754              		.loc 3 105 26 is_stmt 0 view .LVU242
 755 006a 41F21202 		movw	r2, #4114
 756 006e 0021     		movs	r1, #0
 757 0070 2046     		mov	r0, r4
 758 0072 FFF7FEFF 		bl	lv_obj_get_style_prop
 759              	.LVL82:
 106:Middlewares/lvgl/src/widgets/../core/lv_obj_style_gen.h **** }
 760              		.loc 3 106 5 is_stmt 1 view .LVU243
 106:Middlewares/lvgl/src/widgets/../core/lv_obj_style_gen.h **** }
 761              		.loc 3 106 5 is_stmt 0 view .LVU244
 762              	.LBE116:
 763              	.LBE115:
 872:Middlewares/lvgl/src/widgets/lv_table.c ****         }
 764              		.loc 1 872 18 view .LVU245
 765 0076 80B2     		uxth	r0, r0
 872:Middlewares/lvgl/src/widgets/lv_table.c ****         }
 766              		.loc 1 872 15 view .LVU246
 767 0078 381A     		subs	r0, r7, r0
 768 007a 00B2     		sxth	r0, r0
 769              	.LVL83:
 770              	.L22:
 875:Middlewares/lvgl/src/widgets/lv_table.c ****         tmp = 0;
 771              		.loc 1 875 9 is_stmt 1 view .LVU247
 875:Middlewares/lvgl/src/widgets/lv_table.c ****         tmp = 0;
 772              		.loc 1 875 14 is_stmt 0 view .LVU248
 773 007c 0021     		movs	r1, #0
 774 007e 3180     		strh	r1, [r6]	@ movhi
 876:Middlewares/lvgl/src/widgets/lv_table.c ****         for(*col = 0; *col < table->col_cnt; (*col)++) {
 775              		.loc 1 876 9 is_stmt 1 view .LVU249
 776              	.LVL84:
 877:Middlewares/lvgl/src/widgets/lv_table.c ****             tmp += table->col_w[*col];
 777              		.loc 1 877 9 view .LVU250
 778              	.L23:
 877:Middlewares/lvgl/src/widgets/lv_table.c ****             tmp += table->col_w[*col];
 779              		.loc 1 877 23 discriminator 1 view .LVU251
 780 0080 3388     		ldrh	r3, [r6]
ARM GAS  /tmp/ccQS5ib5.s 			page 41


 877:Middlewares/lvgl/src/widgets/lv_table.c ****             tmp += table->col_w[*col];
 781              		.loc 1 877 35 is_stmt 0 discriminator 1 view .LVU252
 782 0082 A28C     		ldrh	r2, [r4, #36]
 877:Middlewares/lvgl/src/widgets/lv_table.c ****             tmp += table->col_w[*col];
 783              		.loc 1 877 9 discriminator 1 view .LVU253
 784 0084 9342     		cmp	r3, r2
 785 0086 18D2     		bcs	.L20
 878:Middlewares/lvgl/src/widgets/lv_table.c ****             if(x < tmp) break;
 786              		.loc 1 878 13 is_stmt 1 view .LVU254
 878:Middlewares/lvgl/src/widgets/lv_table.c ****             if(x < tmp) break;
 787              		.loc 1 878 25 is_stmt 0 view .LVU255
 788 0088 226B     		ldr	r2, [r4, #48]
 878:Middlewares/lvgl/src/widgets/lv_table.c ****             if(x < tmp) break;
 789              		.loc 1 878 32 view .LVU256
 790 008a 32F81320 		ldrh	r2, [r2, r3, lsl #1]
 878:Middlewares/lvgl/src/widgets/lv_table.c ****             if(x < tmp) break;
 791              		.loc 1 878 17 view .LVU257
 792 008e 1144     		add	r1, r1, r2
 793              	.LVL85:
 878:Middlewares/lvgl/src/widgets/lv_table.c ****             if(x < tmp) break;
 794              		.loc 1 878 17 view .LVU258
 795 0090 09B2     		sxth	r1, r1
 796              	.LVL86:
 879:Middlewares/lvgl/src/widgets/lv_table.c ****         }
 797              		.loc 1 879 13 is_stmt 1 view .LVU259
 879:Middlewares/lvgl/src/widgets/lv_table.c ****         }
 798              		.loc 1 879 15 is_stmt 0 view .LVU260
 799 0092 8842     		cmp	r0, r1
 800 0094 11DB     		blt	.L20
 877:Middlewares/lvgl/src/widgets/lv_table.c ****             tmp += table->col_w[*col];
 801              		.loc 1 877 46 is_stmt 1 discriminator 2 view .LVU261
 877:Middlewares/lvgl/src/widgets/lv_table.c ****             tmp += table->col_w[*col];
 802              		.loc 1 877 52 is_stmt 0 discriminator 2 view .LVU262
 803 0096 0133     		adds	r3, r3, #1
 804 0098 3380     		strh	r3, [r6]	@ movhi
 805 009a F1E7     		b	.L23
 806              	.LVL87:
 807              	.L30:
 868:Middlewares/lvgl/src/widgets/lv_table.c ****         }
 808              		.loc 1 868 13 is_stmt 1 view .LVU263
 868:Middlewares/lvgl/src/widgets/lv_table.c ****         }
 809              		.loc 1 868 28 is_stmt 0 view .LVU264
 810 009c B4F81880 		ldrh	r8, [r4, #24]
 811              	.LVL88:
 812              	.LBB117:
 813              	.LBI117:
 109:Middlewares/lvgl/src/widgets/../core/lv_obj_style_gen.h **** {
 814              		.loc 3 109 26 is_stmt 1 view .LVU265
 815              	.LBB118:
 111:Middlewares/lvgl/src/widgets/../core/lv_obj_style_gen.h ****     return (lv_coord_t)v.num;
 816              		.loc 3 111 5 view .LVU266
 111:Middlewares/lvgl/src/widgets/../core/lv_obj_style_gen.h ****     return (lv_coord_t)v.num;
 817              		.loc 3 111 26 is_stmt 0 view .LVU267
 818 00a0 41F21302 		movw	r2, #4115
 819 00a4 0021     		movs	r1, #0
 820 00a6 2046     		mov	r0, r4
 821 00a8 FFF7FEFF 		bl	lv_obj_get_style_prop
ARM GAS  /tmp/ccQS5ib5.s 			page 42


 822              	.LVL89:
 112:Middlewares/lvgl/src/widgets/../core/lv_obj_style_gen.h **** }
 823              		.loc 3 112 5 is_stmt 1 view .LVU268
 112:Middlewares/lvgl/src/widgets/../core/lv_obj_style_gen.h **** }
 824              		.loc 3 112 5 is_stmt 0 view .LVU269
 825              	.LBE118:
 826              	.LBE117:
 868:Middlewares/lvgl/src/widgets/lv_table.c ****         }
 827              		.loc 1 868 34 view .LVU270
 828 00ac 80B2     		uxth	r0, r0
 868:Middlewares/lvgl/src/widgets/lv_table.c ****         }
 829              		.loc 1 868 32 view .LVU271
 830 00ae A8EB0000 		sub	r0, r8, r0
 831 00b2 80B2     		uxth	r0, r0
 868:Middlewares/lvgl/src/widgets/lv_table.c ****         }
 832              		.loc 1 868 80 view .LVU272
 833 00b4 C71B     		subs	r7, r0, r7
 834              	.LVL90:
 868:Middlewares/lvgl/src/widgets/lv_table.c ****         }
 835              		.loc 1 868 15 view .LVU273
 836 00b6 38B2     		sxth	r0, r7
 837              	.LVL91:
 868:Middlewares/lvgl/src/widgets/lv_table.c ****         }
 838              		.loc 1 868 15 view .LVU274
 839 00b8 E0E7     		b	.L22
 840              	.LVL92:
 841              	.L20:
 868:Middlewares/lvgl/src/widgets/lv_table.c ****         }
 842              		.loc 1 868 15 view .LVU275
 843              	.LBE112:
 883:Middlewares/lvgl/src/widgets/lv_table.c ****         lv_coord_t y = p.y + lv_obj_get_scroll_y(obj);;
 844              		.loc 1 883 5 is_stmt 1 view .LVU276
 883:Middlewares/lvgl/src/widgets/lv_table.c ****         lv_coord_t y = p.y + lv_obj_get_scroll_y(obj);;
 845              		.loc 1 883 7 is_stmt 0 view .LVU277
 846 00ba 2DB3     		cbz	r5, .L27
 847              	.LBB119:
 884:Middlewares/lvgl/src/widgets/lv_table.c ****         y -= obj->coords.y1;
 848              		.loc 1 884 9 is_stmt 1 view .LVU278
 884:Middlewares/lvgl/src/widgets/lv_table.c ****         y -= obj->coords.y1;
 849              		.loc 1 884 25 is_stmt 0 view .LVU279
 850 00bc BDF80660 		ldrh	r6, [sp, #6]
 851              	.LVL93:
 884:Middlewares/lvgl/src/widgets/lv_table.c ****         y -= obj->coords.y1;
 852              		.loc 1 884 30 view .LVU280
 853 00c0 2046     		mov	r0, r4
 854 00c2 FFF7FEFF 		bl	lv_obj_get_scroll_y
 855              	.LVL94:
 884:Middlewares/lvgl/src/widgets/lv_table.c ****         y -= obj->coords.y1;
 856              		.loc 1 884 28 view .LVU281
 857 00c6 16FA80F6 		uxtah	r6, r6, r0
 858 00ca B6B2     		uxth	r6, r6
 859              	.LVL95:
 884:Middlewares/lvgl/src/widgets/lv_table.c ****         y -= obj->coords.y1;
 860              		.loc 1 884 55 is_stmt 1 view .LVU282
 885:Middlewares/lvgl/src/widgets/lv_table.c ****         y -= lv_obj_get_style_pad_top(obj, LV_PART_MAIN);
 861              		.loc 1 885 9 view .LVU283
 885:Middlewares/lvgl/src/widgets/lv_table.c ****         y -= lv_obj_get_style_pad_top(obj, LV_PART_MAIN);
ARM GAS  /tmp/ccQS5ib5.s 			page 43


 862              		.loc 1 885 25 is_stmt 0 view .LVU284
 863 00cc E18A     		ldrh	r1, [r4, #22]
 885:Middlewares/lvgl/src/widgets/lv_table.c ****         y -= lv_obj_get_style_pad_top(obj, LV_PART_MAIN);
 864              		.loc 1 885 11 view .LVU285
 865 00ce 761A     		subs	r6, r6, r1
 866              	.LVL96:
 885:Middlewares/lvgl/src/widgets/lv_table.c ****         y -= lv_obj_get_style_pad_top(obj, LV_PART_MAIN);
 867              		.loc 1 885 11 view .LVU286
 868 00d0 B6B2     		uxth	r6, r6
 869              	.LVL97:
 886:Middlewares/lvgl/src/widgets/lv_table.c **** 
 870              		.loc 1 886 9 is_stmt 1 view .LVU287
 871              	.LBB120:
 872              	.LBI120:
  91:Middlewares/lvgl/src/widgets/../core/lv_obj_style_gen.h **** {
 873              		.loc 3 91 26 view .LVU288
 874              	.LBB121:
  93:Middlewares/lvgl/src/widgets/../core/lv_obj_style_gen.h ****     return (lv_coord_t)v.num;
 875              		.loc 3 93 5 view .LVU289
  93:Middlewares/lvgl/src/widgets/../core/lv_obj_style_gen.h ****     return (lv_coord_t)v.num;
 876              		.loc 3 93 26 is_stmt 0 view .LVU290
 877 00d2 41F21002 		movw	r2, #4112
 878 00d6 0021     		movs	r1, #0
 879 00d8 2046     		mov	r0, r4
 880 00da FFF7FEFF 		bl	lv_obj_get_style_prop
 881              	.LVL98:
  94:Middlewares/lvgl/src/widgets/../core/lv_obj_style_gen.h **** }
 882              		.loc 3 94 5 is_stmt 1 view .LVU291
  94:Middlewares/lvgl/src/widgets/../core/lv_obj_style_gen.h **** }
 883              		.loc 3 94 5 is_stmt 0 view .LVU292
 884              	.LBE121:
 885              	.LBE120:
 886:Middlewares/lvgl/src/widgets/lv_table.c **** 
 886              		.loc 1 886 14 view .LVU293
 887 00de 81B2     		uxth	r1, r0
 886:Middlewares/lvgl/src/widgets/lv_table.c **** 
 888              		.loc 1 886 11 view .LVU294
 889 00e0 711A     		subs	r1, r6, r1
 890 00e2 09B2     		sxth	r1, r1
 891              	.LVL99:
 888:Middlewares/lvgl/src/widgets/lv_table.c ****         tmp = 0;
 892              		.loc 1 888 9 is_stmt 1 view .LVU295
 888:Middlewares/lvgl/src/widgets/lv_table.c ****         tmp = 0;
 893              		.loc 1 888 14 is_stmt 0 view .LVU296
 894 00e4 0022     		movs	r2, #0
 895 00e6 2A80     		strh	r2, [r5]	@ movhi
 889:Middlewares/lvgl/src/widgets/lv_table.c **** 
 896              		.loc 1 889 9 is_stmt 1 view .LVU297
 897              	.LVL100:
 891:Middlewares/lvgl/src/widgets/lv_table.c ****             tmp += table->row_h[*row];
 898              		.loc 1 891 9 view .LVU298
 899              	.L25:
 891:Middlewares/lvgl/src/widgets/lv_table.c ****             tmp += table->row_h[*row];
 900              		.loc 1 891 23 discriminator 1 view .LVU299
 901 00e8 2B88     		ldrh	r3, [r5]
 891:Middlewares/lvgl/src/widgets/lv_table.c ****             tmp += table->row_h[*row];
 902              		.loc 1 891 35 is_stmt 0 discriminator 1 view .LVU300
ARM GAS  /tmp/ccQS5ib5.s 			page 44


 903 00ea E08C     		ldrh	r0, [r4, #38]
 891:Middlewares/lvgl/src/widgets/lv_table.c ****             tmp += table->row_h[*row];
 904              		.loc 1 891 9 discriminator 1 view .LVU301
 905 00ec 8342     		cmp	r3, r0
 906 00ee 09D2     		bcs	.L31
 892:Middlewares/lvgl/src/widgets/lv_table.c ****             if(y < tmp) break;
 907              		.loc 1 892 13 is_stmt 1 view .LVU302
 892:Middlewares/lvgl/src/widgets/lv_table.c ****             if(y < tmp) break;
 908              		.loc 1 892 25 is_stmt 0 view .LVU303
 909 00f0 E06A     		ldr	r0, [r4, #44]
 892:Middlewares/lvgl/src/widgets/lv_table.c ****             if(y < tmp) break;
 910              		.loc 1 892 32 view .LVU304
 911 00f2 30F81300 		ldrh	r0, [r0, r3, lsl #1]
 892:Middlewares/lvgl/src/widgets/lv_table.c ****             if(y < tmp) break;
 912              		.loc 1 892 17 view .LVU305
 913 00f6 0244     		add	r2, r2, r0
 914              	.LVL101:
 892:Middlewares/lvgl/src/widgets/lv_table.c ****             if(y < tmp) break;
 915              		.loc 1 892 17 view .LVU306
 916 00f8 12B2     		sxth	r2, r2
 917              	.LVL102:
 893:Middlewares/lvgl/src/widgets/lv_table.c ****         }
 918              		.loc 1 893 13 is_stmt 1 view .LVU307
 893:Middlewares/lvgl/src/widgets/lv_table.c ****         }
 919              		.loc 1 893 15 is_stmt 0 view .LVU308
 920 00fa 9142     		cmp	r1, r2
 921 00fc 06DB     		blt	.L28
 891:Middlewares/lvgl/src/widgets/lv_table.c ****             tmp += table->row_h[*row];
 922              		.loc 1 891 46 is_stmt 1 discriminator 2 view .LVU309
 891:Middlewares/lvgl/src/widgets/lv_table.c ****             tmp += table->row_h[*row];
 923              		.loc 1 891 52 is_stmt 0 discriminator 2 view .LVU310
 924 00fe 0133     		adds	r3, r3, #1
 925 0100 2B80     		strh	r3, [r5]	@ movhi
 926 0102 F1E7     		b	.L25
 927              	.L31:
 891:Middlewares/lvgl/src/widgets/lv_table.c ****             tmp += table->row_h[*row];
 928              		.loc 1 891 52 discriminator 2 view .LVU311
 929              	.LBE119:
 897:Middlewares/lvgl/src/widgets/lv_table.c **** }
 930              		.loc 1 897 12 view .LVU312
 931 0104 0120     		movs	r0, #1
 932              	.LBB122:
 933 0106 92E7     		b	.L19
 934              	.LVL103:
 935              	.L27:
 897:Middlewares/lvgl/src/widgets/lv_table.c **** }
 936              		.loc 1 897 12 view .LVU313
 937              	.LBE122:
 938 0108 0120     		movs	r0, #1
 939 010a 90E7     		b	.L19
 940              	.LVL104:
 941              	.L28:
 897:Middlewares/lvgl/src/widgets/lv_table.c **** }
 942              		.loc 1 897 12 view .LVU314
 943 010c 0120     		movs	r0, #1
 944 010e 8EE7     		b	.L19
 945              		.cfi_endproc
ARM GAS  /tmp/ccQS5ib5.s 			page 45


 946              	.LFE167:
 948              		.section	.text.draw_main,"ax",%progbits
 949              		.align	1
 950              		.syntax unified
 951              		.thumb
 952              		.thumb_func
 953              		.fpu fpv4-sp-d16
 955              	draw_main:
 956              	.LVL105:
 957              	.LFB164:
 582:Middlewares/lvgl/src/widgets/lv_table.c ****     lv_obj_t * obj = lv_event_get_target(e);
 958              		.loc 1 582 1 is_stmt 1 view -0
 959              		.cfi_startproc
 960              		@ args = 0, pretend = 0, frame = 344
 961              		@ frame_needed = 0, uses_anonymous_args = 0
 582:Middlewares/lvgl/src/widgets/lv_table.c ****     lv_obj_t * obj = lv_event_get_target(e);
 962              		.loc 1 582 1 is_stmt 0 view .LVU316
 963 0000 2DE9F04F 		push	{r4, r5, r6, r7, r8, r9, r10, fp, lr}
 964              	.LCFI10:
 965              		.cfi_def_cfa_offset 36
 966              		.cfi_offset 4, -36
 967              		.cfi_offset 5, -32
 968              		.cfi_offset 6, -28
 969              		.cfi_offset 7, -24
 970              		.cfi_offset 8, -20
 971              		.cfi_offset 9, -16
 972              		.cfi_offset 10, -12
 973              		.cfi_offset 11, -8
 974              		.cfi_offset 14, -4
 975 0004 DBB0     		sub	sp, sp, #364
 976              	.LCFI11:
 977              		.cfi_def_cfa_offset 400
 978 0006 0446     		mov	r4, r0
 583:Middlewares/lvgl/src/widgets/lv_table.c ****     lv_table_t * table = (lv_table_t *)obj;
 979              		.loc 1 583 5 is_stmt 1 view .LVU317
 583:Middlewares/lvgl/src/widgets/lv_table.c ****     lv_table_t * table = (lv_table_t *)obj;
 980              		.loc 1 583 22 is_stmt 0 view .LVU318
 981 0008 FFF7FEFF 		bl	lv_event_get_target
 982              	.LVL106:
 583:Middlewares/lvgl/src/widgets/lv_table.c ****     lv_table_t * table = (lv_table_t *)obj;
 983              		.loc 1 583 22 view .LVU319
 984 000c 0746     		mov	r7, r0
 985              	.LVL107:
 584:Middlewares/lvgl/src/widgets/lv_table.c ****     const lv_area_t * clip_area = lv_event_get_param(e);
 986              		.loc 1 584 5 is_stmt 1 view .LVU320
 585:Middlewares/lvgl/src/widgets/lv_table.c **** 
 987              		.loc 1 585 5 view .LVU321
 585:Middlewares/lvgl/src/widgets/lv_table.c **** 
 988              		.loc 1 585 35 is_stmt 0 view .LVU322
 989 000e 2046     		mov	r0, r4
 990              	.LVL108:
 585:Middlewares/lvgl/src/widgets/lv_table.c **** 
 991              		.loc 1 585 35 view .LVU323
 992 0010 FFF7FEFF 		bl	lv_event_get_param
 993              	.LVL109:
 994 0014 8046     		mov	r8, r0
 995 0016 0590     		str	r0, [sp, #20]
ARM GAS  /tmp/ccQS5ib5.s 			page 46


 996              	.LVL110:
 587:Middlewares/lvgl/src/widgets/lv_table.c ****     lv_area_t cell_area;
 997              		.loc 1 587 5 is_stmt 1 view .LVU324
 588:Middlewares/lvgl/src/widgets/lv_table.c ****     lv_area_t txt_area;
 998              		.loc 1 588 5 view .LVU325
 589:Middlewares/lvgl/src/widgets/lv_table.c ****     lv_text_flag_t txt_flags;
 999              		.loc 1 589 5 view .LVU326
 590:Middlewares/lvgl/src/widgets/lv_table.c **** 
 1000              		.loc 1 590 5 view .LVU327
 592:Middlewares/lvgl/src/widgets/lv_table.c ****     lv_coord_t bg_bottom = lv_obj_get_style_pad_bottom(obj, LV_PART_MAIN);
 1001              		.loc 1 592 5 view .LVU328
 1002              	.LBB123:
 1003              	.LBI123:
  91:Middlewares/lvgl/src/widgets/../core/lv_obj_style_gen.h **** {
 1004              		.loc 3 91 26 view .LVU329
 1005              	.LBB124:
  93:Middlewares/lvgl/src/widgets/../core/lv_obj_style_gen.h ****     return (lv_coord_t)v.num;
 1006              		.loc 3 93 5 view .LVU330
  93:Middlewares/lvgl/src/widgets/../core/lv_obj_style_gen.h ****     return (lv_coord_t)v.num;
 1007              		.loc 3 93 26 is_stmt 0 view .LVU331
 1008 0018 41F21002 		movw	r2, #4112
 1009 001c 0021     		movs	r1, #0
 1010 001e 3846     		mov	r0, r7
 1011              	.LVL111:
  93:Middlewares/lvgl/src/widgets/../core/lv_obj_style_gen.h ****     return (lv_coord_t)v.num;
 1012              		.loc 3 93 26 view .LVU332
 1013 0020 FFF7FEFF 		bl	lv_obj_get_style_prop
 1014              	.LVL112:
 1015 0024 0446     		mov	r4, r0
 1016              	.LVL113:
  94:Middlewares/lvgl/src/widgets/../core/lv_obj_style_gen.h **** }
 1017              		.loc 3 94 5 is_stmt 1 view .LVU333
  94:Middlewares/lvgl/src/widgets/../core/lv_obj_style_gen.h **** }
 1018              		.loc 3 94 12 is_stmt 0 view .LVU334
 1019 0026 03B2     		sxth	r3, r0
 1020 0028 0F93     		str	r3, [sp, #60]
 1021              	.LVL114:
  94:Middlewares/lvgl/src/widgets/../core/lv_obj_style_gen.h **** }
 1022              		.loc 3 94 12 view .LVU335
 1023              	.LBE124:
 1024              	.LBE123:
 593:Middlewares/lvgl/src/widgets/lv_table.c ****     lv_coord_t bg_left = lv_obj_get_style_pad_left(obj, LV_PART_MAIN);
 1025              		.loc 1 593 5 is_stmt 1 view .LVU336
 1026              	.LBB125:
 1027              	.LBI125:
  97:Middlewares/lvgl/src/widgets/../core/lv_obj_style_gen.h **** {
 1028              		.loc 3 97 26 view .LVU337
 1029              	.LBB126:
  99:Middlewares/lvgl/src/widgets/../core/lv_obj_style_gen.h ****     return (lv_coord_t)v.num;
 1030              		.loc 3 99 5 view .LVU338
  99:Middlewares/lvgl/src/widgets/../core/lv_obj_style_gen.h ****     return (lv_coord_t)v.num;
 1031              		.loc 3 99 26 is_stmt 0 view .LVU339
 1032 002a 41F21102 		movw	r2, #4113
 1033 002e 0021     		movs	r1, #0
 1034 0030 3846     		mov	r0, r7
  99:Middlewares/lvgl/src/widgets/../core/lv_obj_style_gen.h ****     return (lv_coord_t)v.num;
 1035              		.loc 3 99 26 view .LVU340
ARM GAS  /tmp/ccQS5ib5.s 			page 47


 1036 0032 FFF7FEFF 		bl	lv_obj_get_style_prop
 1037              	.LVL115:
 100:Middlewares/lvgl/src/widgets/../core/lv_obj_style_gen.h **** }
 1038              		.loc 3 100 5 is_stmt 1 view .LVU341
 100:Middlewares/lvgl/src/widgets/../core/lv_obj_style_gen.h **** }
 1039              		.loc 3 100 12 is_stmt 0 view .LVU342
 1040 0036 03B2     		sxth	r3, r0
 1041 0038 0E93     		str	r3, [sp, #56]
 1042              	.LVL116:
 100:Middlewares/lvgl/src/widgets/../core/lv_obj_style_gen.h **** }
 1043              		.loc 3 100 12 view .LVU343
 1044              	.LBE126:
 1045              	.LBE125:
 594:Middlewares/lvgl/src/widgets/lv_table.c ****     lv_coord_t bg_right = lv_obj_get_style_pad_right(obj, LV_PART_MAIN);
 1046              		.loc 1 594 5 is_stmt 1 view .LVU344
 1047              	.LBB127:
 1048              	.LBI127:
 103:Middlewares/lvgl/src/widgets/../core/lv_obj_style_gen.h **** {
 1049              		.loc 3 103 26 view .LVU345
 1050              	.LBB128:
 105:Middlewares/lvgl/src/widgets/../core/lv_obj_style_gen.h ****     return (lv_coord_t)v.num;
 1051              		.loc 3 105 5 view .LVU346
 105:Middlewares/lvgl/src/widgets/../core/lv_obj_style_gen.h ****     return (lv_coord_t)v.num;
 1052              		.loc 3 105 26 is_stmt 0 view .LVU347
 1053 003a 41F21202 		movw	r2, #4114
 1054 003e 0021     		movs	r1, #0
 1055 0040 3846     		mov	r0, r7
 1056 0042 FFF7FEFF 		bl	lv_obj_get_style_prop
 1057              	.LVL117:
 1058 0046 1190     		str	r0, [sp, #68]
 106:Middlewares/lvgl/src/widgets/../core/lv_obj_style_gen.h **** }
 1059              		.loc 3 106 5 is_stmt 1 view .LVU348
 106:Middlewares/lvgl/src/widgets/../core/lv_obj_style_gen.h **** }
 1060              		.loc 3 106 12 is_stmt 0 view .LVU349
 1061 0048 03B2     		sxth	r3, r0
 1062 004a 0D93     		str	r3, [sp, #52]
 1063              	.LVL118:
 106:Middlewares/lvgl/src/widgets/../core/lv_obj_style_gen.h **** }
 1064              		.loc 3 106 12 view .LVU350
 1065              	.LBE128:
 1066              	.LBE127:
 595:Middlewares/lvgl/src/widgets/lv_table.c **** 
 1067              		.loc 1 595 5 is_stmt 1 view .LVU351
 1068              	.LBB129:
 1069              	.LBI129:
 109:Middlewares/lvgl/src/widgets/../core/lv_obj_style_gen.h **** {
 1070              		.loc 3 109 26 view .LVU352
 1071              	.LBB130:
 111:Middlewares/lvgl/src/widgets/../core/lv_obj_style_gen.h ****     return (lv_coord_t)v.num;
 1072              		.loc 3 111 5 view .LVU353
 111:Middlewares/lvgl/src/widgets/../core/lv_obj_style_gen.h ****     return (lv_coord_t)v.num;
 1073              		.loc 3 111 26 is_stmt 0 view .LVU354
 1074 004c 41F21302 		movw	r2, #4115
 1075 0050 0021     		movs	r1, #0
 1076 0052 3846     		mov	r0, r7
 1077 0054 FFF7FEFF 		bl	lv_obj_get_style_prop
 1078              	.LVL119:
ARM GAS  /tmp/ccQS5ib5.s 			page 48


 1079 0058 1390     		str	r0, [sp, #76]
 112:Middlewares/lvgl/src/widgets/../core/lv_obj_style_gen.h **** }
 1080              		.loc 3 112 5 is_stmt 1 view .LVU355
 112:Middlewares/lvgl/src/widgets/../core/lv_obj_style_gen.h **** }
 1081              		.loc 3 112 12 is_stmt 0 view .LVU356
 1082 005a 03B2     		sxth	r3, r0
 1083 005c 0C93     		str	r3, [sp, #48]
 1084              	.LVL120:
 112:Middlewares/lvgl/src/widgets/../core/lv_obj_style_gen.h **** }
 1085              		.loc 3 112 12 view .LVU357
 1086              	.LBE130:
 1087              	.LBE129:
 597:Middlewares/lvgl/src/widgets/lv_table.c ****     lv_coord_t cell_right = lv_obj_get_style_pad_right(obj, LV_PART_ITEMS);
 1088              		.loc 1 597 5 is_stmt 1 view .LVU358
 1089              	.LBB131:
 1090              	.LBI131:
 103:Middlewares/lvgl/src/widgets/../core/lv_obj_style_gen.h **** {
 1091              		.loc 3 103 26 view .LVU359
 1092              	.LBB132:
 105:Middlewares/lvgl/src/widgets/../core/lv_obj_style_gen.h ****     return (lv_coord_t)v.num;
 1093              		.loc 3 105 5 view .LVU360
 105:Middlewares/lvgl/src/widgets/../core/lv_obj_style_gen.h ****     return (lv_coord_t)v.num;
 1094              		.loc 3 105 26 is_stmt 0 view .LVU361
 1095 005e 41F21202 		movw	r2, #4114
 1096 0062 4FF4A021 		mov	r1, #327680
 1097 0066 3846     		mov	r0, r7
 1098 0068 FFF7FEFF 		bl	lv_obj_get_style_prop
 1099              	.LVL121:
 1100 006c 0A90     		str	r0, [sp, #40]
 106:Middlewares/lvgl/src/widgets/../core/lv_obj_style_gen.h **** }
 1101              		.loc 3 106 5 is_stmt 1 view .LVU362
 1102              	.LVL122:
 106:Middlewares/lvgl/src/widgets/../core/lv_obj_style_gen.h **** }
 1103              		.loc 3 106 5 is_stmt 0 view .LVU363
 1104              	.LBE132:
 1105              	.LBE131:
 598:Middlewares/lvgl/src/widgets/lv_table.c ****     lv_coord_t cell_top = lv_obj_get_style_pad_top(obj, LV_PART_ITEMS);
 1106              		.loc 1 598 5 is_stmt 1 view .LVU364
 1107              	.LBB133:
 1108              	.LBI133:
 109:Middlewares/lvgl/src/widgets/../core/lv_obj_style_gen.h **** {
 1109              		.loc 3 109 26 view .LVU365
 1110              	.LBB134:
 111:Middlewares/lvgl/src/widgets/../core/lv_obj_style_gen.h ****     return (lv_coord_t)v.num;
 1111              		.loc 3 111 5 view .LVU366
 111:Middlewares/lvgl/src/widgets/../core/lv_obj_style_gen.h ****     return (lv_coord_t)v.num;
 1112              		.loc 3 111 26 is_stmt 0 view .LVU367
 1113 006e 41F21302 		movw	r2, #4115
 1114 0072 4FF4A021 		mov	r1, #327680
 1115 0076 3846     		mov	r0, r7
 1116 0078 FFF7FEFF 		bl	lv_obj_get_style_prop
 1117              	.LVL123:
 1118 007c 0990     		str	r0, [sp, #36]
 112:Middlewares/lvgl/src/widgets/../core/lv_obj_style_gen.h **** }
 1119              		.loc 3 112 5 is_stmt 1 view .LVU368
 1120              	.LVL124:
 112:Middlewares/lvgl/src/widgets/../core/lv_obj_style_gen.h **** }
ARM GAS  /tmp/ccQS5ib5.s 			page 49


 1121              		.loc 3 112 5 is_stmt 0 view .LVU369
 1122              	.LBE134:
 1123              	.LBE133:
 599:Middlewares/lvgl/src/widgets/lv_table.c ****     lv_coord_t cell_bottom = lv_obj_get_style_pad_bottom(obj, LV_PART_ITEMS);
 1124              		.loc 1 599 5 is_stmt 1 view .LVU370
 1125              	.LBB135:
 1126              	.LBI135:
  91:Middlewares/lvgl/src/widgets/../core/lv_obj_style_gen.h **** {
 1127              		.loc 3 91 26 view .LVU371
 1128              	.LBB136:
  93:Middlewares/lvgl/src/widgets/../core/lv_obj_style_gen.h ****     return (lv_coord_t)v.num;
 1129              		.loc 3 93 5 view .LVU372
  93:Middlewares/lvgl/src/widgets/../core/lv_obj_style_gen.h ****     return (lv_coord_t)v.num;
 1130              		.loc 3 93 26 is_stmt 0 view .LVU373
 1131 007e 41F21002 		movw	r2, #4112
 1132 0082 4FF4A021 		mov	r1, #327680
 1133 0086 3846     		mov	r0, r7
 1134 0088 FFF7FEFF 		bl	lv_obj_get_style_prop
 1135              	.LVL125:
 1136 008c 0890     		str	r0, [sp, #32]
  94:Middlewares/lvgl/src/widgets/../core/lv_obj_style_gen.h **** }
 1137              		.loc 3 94 5 is_stmt 1 view .LVU374
 1138              	.LVL126:
  94:Middlewares/lvgl/src/widgets/../core/lv_obj_style_gen.h **** }
 1139              		.loc 3 94 5 is_stmt 0 view .LVU375
 1140              	.LBE136:
 1141              	.LBE135:
 600:Middlewares/lvgl/src/widgets/lv_table.c **** 
 1142              		.loc 1 600 5 is_stmt 1 view .LVU376
 1143              	.LBB137:
 1144              	.LBI137:
  97:Middlewares/lvgl/src/widgets/../core/lv_obj_style_gen.h **** {
 1145              		.loc 3 97 26 view .LVU377
 1146              	.LBB138:
  99:Middlewares/lvgl/src/widgets/../core/lv_obj_style_gen.h ****     return (lv_coord_t)v.num;
 1147              		.loc 3 99 5 view .LVU378
  99:Middlewares/lvgl/src/widgets/../core/lv_obj_style_gen.h ****     return (lv_coord_t)v.num;
 1148              		.loc 3 99 26 is_stmt 0 view .LVU379
 1149 008e 41F21102 		movw	r2, #4113
 1150 0092 4FF4A021 		mov	r1, #327680
 1151 0096 3846     		mov	r0, r7
 1152 0098 FFF7FEFF 		bl	lv_obj_get_style_prop
 1153              	.LVL127:
 1154 009c 0790     		str	r0, [sp, #28]
 100:Middlewares/lvgl/src/widgets/../core/lv_obj_style_gen.h **** }
 1155              		.loc 3 100 5 is_stmt 1 view .LVU380
 1156              	.LVL128:
 100:Middlewares/lvgl/src/widgets/../core/lv_obj_style_gen.h **** }
 1157              		.loc 3 100 5 is_stmt 0 view .LVU381
 1158              	.LBE138:
 1159              	.LBE137:
 602:Middlewares/lvgl/src/widgets/lv_table.c ****     obj->state = LV_STATE_DEFAULT;
 1160              		.loc 1 602 5 is_stmt 1 view .LVU382
 602:Middlewares/lvgl/src/widgets/lv_table.c ****     obj->state = LV_STATE_DEFAULT;
 1161              		.loc 1 602 16 is_stmt 0 view .LVU383
 1162 009e 3E8C     		ldrh	r6, [r7, #32]
 1163 00a0 1296     		str	r6, [sp, #72]
ARM GAS  /tmp/ccQS5ib5.s 			page 50


 1164              	.LVL129:
 603:Middlewares/lvgl/src/widgets/lv_table.c ****     obj->skip_trans = 1;
 1165              		.loc 1 603 5 is_stmt 1 view .LVU384
 603:Middlewares/lvgl/src/widgets/lv_table.c ****     obj->skip_trans = 1;
 1166              		.loc 1 603 16 is_stmt 0 view .LVU385
 1167 00a2 0025     		movs	r5, #0
 1168 00a4 3D84     		strh	r5, [r7, #32]	@ movhi
 604:Middlewares/lvgl/src/widgets/lv_table.c ****     lv_draw_rect_dsc_t rect_dsc_def;
 1169              		.loc 1 604 5 is_stmt 1 view .LVU386
 604:Middlewares/lvgl/src/widgets/lv_table.c ****     lv_draw_rect_dsc_t rect_dsc_def;
 1170              		.loc 1 604 21 is_stmt 0 view .LVU387
 1171 00a6 97F82230 		ldrb	r3, [r7, #34]	@ zero_extendqisi2
 1172 00aa 43F00403 		orr	r3, r3, #4
 1173 00ae 87F82230 		strb	r3, [r7, #34]
 605:Middlewares/lvgl/src/widgets/lv_table.c ****     lv_draw_rect_dsc_t rect_dsc_act; /*Passed to the event to modify it*/
 1174              		.loc 1 605 5 is_stmt 1 view .LVU388
 606:Middlewares/lvgl/src/widgets/lv_table.c ****     lv_draw_rect_dsc_init(&rect_dsc_def);
 1175              		.loc 1 606 5 view .LVU389
 607:Middlewares/lvgl/src/widgets/lv_table.c ****     lv_obj_init_draw_rect_dsc(obj, LV_PART_ITEMS, &rect_dsc_def);
 1176              		.loc 1 607 5 view .LVU390
 1177 00b2 48A8     		add	r0, sp, #288
 1178 00b4 FFF7FEFF 		bl	lv_draw_rect_dsc_init
 1179              	.LVL130:
 608:Middlewares/lvgl/src/widgets/lv_table.c **** 
 1180              		.loc 1 608 5 view .LVU391
 1181 00b8 48AA     		add	r2, sp, #288
 1182 00ba 4FF4A021 		mov	r1, #327680
 1183 00be 3846     		mov	r0, r7
 1184 00c0 FFF7FEFF 		bl	lv_obj_init_draw_rect_dsc
 1185              	.LVL131:
 610:Middlewares/lvgl/src/widgets/lv_table.c ****     lv_draw_label_dsc_t label_dsc_act;  /*Passed to the event to modify it*/
 1186              		.loc 1 610 5 view .LVU392
 611:Middlewares/lvgl/src/widgets/lv_table.c ****     lv_draw_label_dsc_init(&label_dsc_def);
 1187              		.loc 1 611 5 view .LVU393
 612:Middlewares/lvgl/src/widgets/lv_table.c ****     lv_obj_init_draw_label_dsc(obj, LV_PART_ITEMS, &label_dsc_def);
 1188              		.loc 1 612 5 view .LVU394
 1189 00c4 33A8     		add	r0, sp, #204
 1190 00c6 FFF7FEFF 		bl	lv_draw_label_dsc_init
 1191              	.LVL132:
 613:Middlewares/lvgl/src/widgets/lv_table.c ****     obj->state = state_ori;
 1192              		.loc 1 613 5 view .LVU395
 1193 00ca 33AA     		add	r2, sp, #204
 1194 00cc 4FF4A021 		mov	r1, #327680
 1195 00d0 3846     		mov	r0, r7
 1196 00d2 FFF7FEFF 		bl	lv_obj_init_draw_label_dsc
 1197              	.LVL133:
 614:Middlewares/lvgl/src/widgets/lv_table.c ****     obj->skip_trans = 0;
 1198              		.loc 1 614 5 view .LVU396
 614:Middlewares/lvgl/src/widgets/lv_table.c ****     obj->skip_trans = 0;
 1199              		.loc 1 614 16 is_stmt 0 view .LVU397
 1200 00d6 3E84     		strh	r6, [r7, #32]	@ movhi
 615:Middlewares/lvgl/src/widgets/lv_table.c **** 
 1201              		.loc 1 615 5 is_stmt 1 view .LVU398
 615:Middlewares/lvgl/src/widgets/lv_table.c **** 
 1202              		.loc 1 615 21 is_stmt 0 view .LVU399
 1203 00d8 97F82230 		ldrb	r3, [r7, #34]	@ zero_extendqisi2
 1204 00dc 65F38203 		bfi	r3, r5, #2, #1
ARM GAS  /tmp/ccQS5ib5.s 			page 51


 1205 00e0 87F82230 		strb	r3, [r7, #34]
 617:Middlewares/lvgl/src/widgets/lv_table.c ****     uint16_t row;
 1206              		.loc 1 617 5 is_stmt 1 view .LVU400
 618:Middlewares/lvgl/src/widgets/lv_table.c ****     uint16_t cell = 0;
 1207              		.loc 1 618 5 view .LVU401
 619:Middlewares/lvgl/src/widgets/lv_table.c **** 
 1208              		.loc 1 619 5 view .LVU402
 1209              	.LVL134:
 621:Middlewares/lvgl/src/widgets/lv_table.c ****     lv_coord_t scroll_x = lv_obj_get_scroll_x(obj) ;
 1210              		.loc 1 621 5 view .LVU403
 621:Middlewares/lvgl/src/widgets/lv_table.c ****     lv_coord_t scroll_x = lv_obj_get_scroll_x(obj) ;
 1211              		.loc 1 621 31 is_stmt 0 view .LVU404
 1212 00e4 FB8A     		ldrh	r3, [r7, #22]
 1213              	.LVL135:
 621:Middlewares/lvgl/src/widgets/lv_table.c ****     lv_coord_t scroll_x = lv_obj_get_scroll_x(obj) ;
 1214              		.loc 1 621 35 view .LVU405
 1215 00e6 1C44     		add	r4, r4, r3
 1216              	.LVL136:
 621:Middlewares/lvgl/src/widgets/lv_table.c ****     lv_coord_t scroll_x = lv_obj_get_scroll_x(obj) ;
 1217              		.loc 1 621 35 view .LVU406
 1218 00e8 A4B2     		uxth	r4, r4
 621:Middlewares/lvgl/src/widgets/lv_table.c ****     lv_coord_t scroll_x = lv_obj_get_scroll_x(obj) ;
 1219              		.loc 1 621 50 view .LVU407
 1220 00ea 3846     		mov	r0, r7
 1221 00ec FFF7FEFF 		bl	lv_obj_get_scroll_y
 1222              	.LVL137:
 621:Middlewares/lvgl/src/widgets/lv_table.c ****     lv_coord_t scroll_x = lv_obj_get_scroll_x(obj) ;
 1223              		.loc 1 621 48 view .LVU408
 1224 00f0 231A     		subs	r3, r4, r0
 1225 00f2 013B     		subs	r3, r3, #1
 621:Middlewares/lvgl/src/widgets/lv_table.c ****     lv_coord_t scroll_x = lv_obj_get_scroll_x(obj) ;
 1226              		.loc 1 621 18 view .LVU409
 1227 00f4 ADF86231 		strh	r3, [sp, #354]	@ movhi
 622:Middlewares/lvgl/src/widgets/lv_table.c ****     bool rtl = lv_obj_get_style_base_dir(obj, LV_PART_MAIN) == LV_BASE_DIR_RTL ? true : false;
 1228              		.loc 1 622 5 is_stmt 1 view .LVU410
 622:Middlewares/lvgl/src/widgets/lv_table.c ****     bool rtl = lv_obj_get_style_base_dir(obj, LV_PART_MAIN) == LV_BASE_DIR_RTL ? true : false;
 1229              		.loc 1 622 27 is_stmt 0 view .LVU411
 1230 00f8 3846     		mov	r0, r7
 1231 00fa FFF7FEFF 		bl	lv_obj_get_scroll_x
 1232              	.LVL138:
 1233 00fe 1090     		str	r0, [sp, #64]
 1234              	.LVL139:
 623:Middlewares/lvgl/src/widgets/lv_table.c **** 
 1235              		.loc 1 623 5 is_stmt 1 view .LVU412
 1236              	.LBB139:
 1237              	.LBI139:
 187:Middlewares/lvgl/src/widgets/../core/lv_obj_style_gen.h **** {
 1238              		.loc 3 187 29 view .LVU413
 1239              	.LBB140:
 189:Middlewares/lvgl/src/widgets/../core/lv_obj_style_gen.h ****     return (lv_base_dir_t)v.num;
 1240              		.loc 3 189 5 view .LVU414
 189:Middlewares/lvgl/src/widgets/../core/lv_obj_style_gen.h ****     return (lv_base_dir_t)v.num;
 1241              		.loc 3 189 26 is_stmt 0 view .LVU415
 1242 0100 41F26A42 		movw	r2, #5226
 1243 0104 2946     		mov	r1, r5
 1244 0106 3846     		mov	r0, r7
 1245 0108 FFF7FEFF 		bl	lv_obj_get_style_prop
ARM GAS  /tmp/ccQS5ib5.s 			page 52


 1246              	.LVL140:
 190:Middlewares/lvgl/src/widgets/../core/lv_obj_style_gen.h **** }
 1247              		.loc 3 190 5 is_stmt 1 view .LVU416
 190:Middlewares/lvgl/src/widgets/../core/lv_obj_style_gen.h **** }
 1248              		.loc 3 190 12 is_stmt 0 view .LVU417
 1249 010c 5FFA80FB 		uxtb	fp, r0
 1250              	.LVL141:
 190:Middlewares/lvgl/src/widgets/../core/lv_obj_style_gen.h **** }
 1251              		.loc 3 190 12 view .LVU418
 1252              	.LBE140:
 1253              	.LBE139:
 626:Middlewares/lvgl/src/widgets/lv_table.c ****     lv_obj_draw_dsc_init(&dsc, clip_area);
 1254              		.loc 1 626 5 is_stmt 1 view .LVU419
 627:Middlewares/lvgl/src/widgets/lv_table.c ****     dsc.part = LV_PART_ITEMS;
 1255              		.loc 1 627 5 view .LVU420
 1256 0110 4146     		mov	r1, r8
 1257 0112 19A8     		add	r0, sp, #100
 1258 0114 FFF7FEFF 		bl	lv_obj_draw_dsc_init
 1259              	.LVL142:
 628:Middlewares/lvgl/src/widgets/lv_table.c ****     dsc.rect_dsc = &rect_dsc_act;
 1260              		.loc 1 628 5 view .LVU421
 628:Middlewares/lvgl/src/widgets/lv_table.c ****     dsc.rect_dsc = &rect_dsc_act;
 1261              		.loc 1 628 14 is_stmt 0 view .LVU422
 1262 0118 4FF4A023 		mov	r3, #327680
 1263 011c 2693     		str	r3, [sp, #152]
 629:Middlewares/lvgl/src/widgets/lv_table.c ****     dsc.label_dsc = &label_dsc_act;
 1264              		.loc 1 629 5 is_stmt 1 view .LVU423
 629:Middlewares/lvgl/src/widgets/lv_table.c ****     dsc.label_dsc = &label_dsc_act;
 1265              		.loc 1 629 18 is_stmt 0 view .LVU424
 1266 011e 3BAB     		add	r3, sp, #236
 1267 0120 1B93     		str	r3, [sp, #108]
 630:Middlewares/lvgl/src/widgets/lv_table.c **** 
 1268              		.loc 1 630 5 is_stmt 1 view .LVU425
 630:Middlewares/lvgl/src/widgets/lv_table.c **** 
 1269              		.loc 1 630 19 is_stmt 0 view .LVU426
 1270 0122 2BAB     		add	r3, sp, #172
 1271 0124 1C93     		str	r3, [sp, #112]
 632:Middlewares/lvgl/src/widgets/lv_table.c ****         lv_coord_t h_row = table->row_h[row];
 1272              		.loc 1 632 5 is_stmt 1 view .LVU427
 1273              	.LVL143:
 619:Middlewares/lvgl/src/widgets/lv_table.c **** 
 1274              		.loc 1 619 14 is_stmt 0 view .LVU428
 1275 0126 AA46     		mov	r10, r5
 632:Middlewares/lvgl/src/widgets/lv_table.c ****         lv_coord_t h_row = table->row_h[row];
 1276              		.loc 1 632 13 view .LVU429
 1277 0128 0695     		str	r5, [sp, #24]
 632:Middlewares/lvgl/src/widgets/lv_table.c ****         lv_coord_t h_row = table->row_h[row];
 1278              		.loc 1 632 5 view .LVU430
 1279 012a ACE1     		b	.L33
 1280              	.LVL144:
 1281              	.L75:
 1282              	.LBB141:
 640:Middlewares/lvgl/src/widgets/lv_table.c ****         else cell_area.x2 = obj->coords.x1 + bg_left - 1 - scroll_x;
 1283              		.loc 1 640 17 is_stmt 1 discriminator 1 view .LVU431
 640:Middlewares/lvgl/src/widgets/lv_table.c ****         else cell_area.x2 = obj->coords.x1 + bg_left - 1 - scroll_x;
 1284              		.loc 1 640 43 is_stmt 0 discriminator 1 view .LVU432
 1285 012c 3B8B     		ldrh	r3, [r7, #24]
ARM GAS  /tmp/ccQS5ib5.s 			page 53


 640:Middlewares/lvgl/src/widgets/lv_table.c ****         else cell_area.x2 = obj->coords.x1 + bg_left - 1 - scroll_x;
 1286              		.loc 1 640 47 discriminator 1 view .LVU433
 1287 012e 139A     		ldr	r2, [sp, #76]
 1288 0130 9B1A     		subs	r3, r3, r2
 1289 0132 9BB2     		uxth	r3, r3
 640:Middlewares/lvgl/src/widgets/lv_table.c ****         else cell_area.x2 = obj->coords.x1 + bg_left - 1 - scroll_x;
 1290              		.loc 1 640 62 discriminator 1 view .LVU434
 1291 0134 109A     		ldr	r2, [sp, #64]
 1292 0136 9B1A     		subs	r3, r3, r2
 1293 0138 013B     		subs	r3, r3, #1
 640:Middlewares/lvgl/src/widgets/lv_table.c ****         else cell_area.x2 = obj->coords.x1 + bg_left - 1 - scroll_x;
 1294              		.loc 1 640 30 discriminator 1 view .LVU435
 1295 013a ADF85C31 		strh	r3, [sp, #348]	@ movhi
 1296 013e C9E1     		b	.L37
 1297              	.LVL145:
 1298              	.L66:
 1299              	.LBB142:
 644:Middlewares/lvgl/src/widgets/lv_table.c ****             if(table->cell_data[cell]) ctrl = table->cell_data[cell][0];
 1300              		.loc 1 644 34 view .LVU436
 1301 0140 0026     		movs	r6, #0
 1302 0142 36E1     		b	.L38
 1303              	.LVL146:
 1304              	.L74:
 648:Middlewares/lvgl/src/widgets/lv_table.c ****                 cell_area.x1 = cell_area.x2 - table->col_w[col] + 1;
 1305              		.loc 1 648 17 is_stmt 1 view .LVU437
 648:Middlewares/lvgl/src/widgets/lv_table.c ****                 cell_area.x1 = cell_area.x2 - table->col_w[col] + 1;
 1306              		.loc 1 648 41 is_stmt 0 view .LVU438
 1307 0144 BDF85C21 		ldrh	r2, [sp, #348]
 648:Middlewares/lvgl/src/widgets/lv_table.c ****                 cell_area.x1 = cell_area.x2 - table->col_w[col] + 1;
 1308              		.loc 1 648 45 view .LVU439
 1309 0148 013A     		subs	r2, r2, #1
 1310 014a 93B2     		uxth	r3, r2
 648:Middlewares/lvgl/src/widgets/lv_table.c ****                 cell_area.x1 = cell_area.x2 - table->col_w[col] + 1;
 1311              		.loc 1 648 30 view .LVU440
 1312 014c ADF86021 		strh	r2, [sp, #352]	@ movhi
 649:Middlewares/lvgl/src/widgets/lv_table.c ****             }
 1313              		.loc 1 649 17 is_stmt 1 view .LVU441
 649:Middlewares/lvgl/src/widgets/lv_table.c ****             }
 1314              		.loc 1 649 52 is_stmt 0 view .LVU442
 1315 0150 3A6B     		ldr	r2, [r7, #48]
 649:Middlewares/lvgl/src/widgets/lv_table.c ****             }
 1316              		.loc 1 649 59 view .LVU443
 1317 0152 32F81520 		ldrh	r2, [r2, r5, lsl #1]
 649:Middlewares/lvgl/src/widgets/lv_table.c ****             }
 1318              		.loc 1 649 45 view .LVU444
 1319 0156 9B1A     		subs	r3, r3, r2
 1320 0158 9BB2     		uxth	r3, r3
 649:Middlewares/lvgl/src/widgets/lv_table.c ****             }
 1321              		.loc 1 649 65 view .LVU445
 1322 015a 0133     		adds	r3, r3, #1
 649:Middlewares/lvgl/src/widgets/lv_table.c ****             }
 1323              		.loc 1 649 30 view .LVU446
 1324 015c ADF85C31 		strh	r3, [sp, #348]	@ movhi
 1325 0160 39E1     		b	.L40
 1326              	.LVL147:
 1327              	.L69:
 1328              	.LBB143:
ARM GAS  /tmp/ccQS5ib5.s 			page 54


 662:Middlewares/lvgl/src/widgets/lv_table.c ****                         else cell_area.x2 += table->col_w[col + col_merge + 1];
 1329              		.loc 1 662 33 is_stmt 1 discriminator 1 view .LVU447
 662:Middlewares/lvgl/src/widgets/lv_table.c ****                         else cell_area.x2 += table->col_w[col + col_merge + 1];
 1330              		.loc 1 662 54 is_stmt 0 discriminator 1 view .LVU448
 1331 0162 3A6B     		ldr	r2, [r7, #48]
 1332              	.LVL148:
 662:Middlewares/lvgl/src/widgets/lv_table.c ****                         else cell_area.x2 += table->col_w[col + col_merge + 1];
 1333              		.loc 1 662 61 discriminator 1 view .LVU449
 1334 0164 0133     		adds	r3, r3, #1
 1335 0166 32F81320 		ldrh	r2, [r2, r3, lsl #1]
 662:Middlewares/lvgl/src/widgets/lv_table.c ****                         else cell_area.x2 += table->col_w[col + col_merge + 1];
 1336              		.loc 1 662 46 discriminator 1 view .LVU450
 1337 016a BDF85C31 		ldrh	r3, [sp, #348]
 1338 016e 9B1A     		subs	r3, r3, r2
 1339 0170 ADF85C31 		strh	r3, [sp, #348]	@ movhi
 1340              	.LVL149:
 1341              	.L43:
 662:Middlewares/lvgl/src/widgets/lv_table.c ****                         else cell_area.x2 += table->col_w[col + col_merge + 1];
 1342              		.loc 1 662 46 discriminator 1 view .LVU451
 1343              	.LBE143:
 657:Middlewares/lvgl/src/widgets/lv_table.c ****                 if(table->cell_data[cell + col_merge]) {
 1344              		.loc 1 657 70 is_stmt 1 discriminator 2 view .LVU452
 657:Middlewares/lvgl/src/widgets/lv_table.c ****                 if(table->cell_data[cell + col_merge]) {
 1345              		.loc 1 657 79 is_stmt 0 discriminator 2 view .LVU453
 1346 0174 0134     		adds	r4, r4, #1
 1347              	.LVL150:
 657:Middlewares/lvgl/src/widgets/lv_table.c ****                 if(table->cell_data[cell + col_merge]) {
 1348              		.loc 1 657 79 discriminator 2 view .LVU454
 1349 0176 A4B2     		uxth	r4, r4
 1350              	.LVL151:
 1351              	.L44:
 657:Middlewares/lvgl/src/widgets/lv_table.c ****                 if(table->cell_data[cell + col_merge]) {
 1352              		.loc 1 657 32 is_stmt 1 discriminator 1 view .LVU455
 657:Middlewares/lvgl/src/widgets/lv_table.c ****                 if(table->cell_data[cell + col_merge]) {
 1353              		.loc 1 657 42 is_stmt 0 discriminator 1 view .LVU456
 1354 0178 0495     		str	r5, [sp, #16]
 1355 017a 6319     		adds	r3, r4, r5
 657:Middlewares/lvgl/src/widgets/lv_table.c ****                 if(table->cell_data[cell + col_merge]) {
 1356              		.loc 1 657 65 discriminator 1 view .LVU457
 1357 017c 4A1E     		subs	r2, r1, #1
 657:Middlewares/lvgl/src/widgets/lv_table.c ****                 if(table->cell_data[cell + col_merge]) {
 1358              		.loc 1 657 13 discriminator 1 view .LVU458
 1359 017e 9342     		cmp	r3, r2
 1360 0180 15DA     		bge	.L41
 658:Middlewares/lvgl/src/widgets/lv_table.c ****                     char * next_cell_data = table->cell_data[cell + col_merge];
 1361              		.loc 1 658 17 is_stmt 1 view .LVU459
 658:Middlewares/lvgl/src/widgets/lv_table.c ****                     char * next_cell_data = table->cell_data[cell + col_merge];
 1362              		.loc 1 658 42 is_stmt 0 view .LVU460
 1363 0182 0AEB0402 		add	r2, r10, r4
 658:Middlewares/lvgl/src/widgets/lv_table.c ****                     char * next_cell_data = table->cell_data[cell + col_merge];
 1364              		.loc 1 658 36 view .LVU461
 1365 0186 50F82220 		ldr	r2, [r0, r2, lsl #2]
 658:Middlewares/lvgl/src/widgets/lv_table.c ****                     char * next_cell_data = table->cell_data[cell + col_merge];
 1366              		.loc 1 658 19 view .LVU462
 1367 018a 82B1     		cbz	r2, .L41
 1368              	.LBB144:
 659:Middlewares/lvgl/src/widgets/lv_table.c ****                     if(next_cell_data) ctrl = next_cell_data[0];
ARM GAS  /tmp/ccQS5ib5.s 			page 55


 1369              		.loc 1 659 21 is_stmt 1 discriminator 1 view .LVU463
 1370              	.LVL152:
 660:Middlewares/lvgl/src/widgets/lv_table.c ****                     if(ctrl & LV_TABLE_CELL_CTRL_MERGE_RIGHT)
 1371              		.loc 1 660 21 discriminator 1 view .LVU464
 660:Middlewares/lvgl/src/widgets/lv_table.c ****                     if(ctrl & LV_TABLE_CELL_CTRL_MERGE_RIGHT)
 1372              		.loc 1 660 40 discriminator 1 view .LVU465
 660:Middlewares/lvgl/src/widgets/lv_table.c ****                     if(ctrl & LV_TABLE_CELL_CTRL_MERGE_RIGHT)
 1373              		.loc 1 660 45 is_stmt 0 discriminator 1 view .LVU466
 1374 018c 1678     		ldrb	r6, [r2]	@ zero_extendqisi2
 1375              	.LVL153:
 661:Middlewares/lvgl/src/widgets/lv_table.c ****                         if(rtl) cell_area.x1 -= table->col_w[col + col_merge + 1];
 1376              		.loc 1 661 21 is_stmt 1 discriminator 1 view .LVU467
 661:Middlewares/lvgl/src/widgets/lv_table.c ****                         if(rtl) cell_area.x1 -= table->col_w[col + col_merge + 1];
 1377              		.loc 1 661 23 is_stmt 0 discriminator 1 view .LVU468
 1378 018e 16F0010F 		tst	r6, #1
 1379 0192 0CD0     		beq	.L41
 662:Middlewares/lvgl/src/widgets/lv_table.c ****                         else cell_area.x2 += table->col_w[col + col_merge + 1];
 1380              		.loc 1 662 25 is_stmt 1 view .LVU469
 662:Middlewares/lvgl/src/widgets/lv_table.c ****                         else cell_area.x2 += table->col_w[col + col_merge + 1];
 1381              		.loc 1 662 27 is_stmt 0 view .LVU470
 1382 0194 BBF1010F 		cmp	fp, #1
 1383 0198 E3D0     		beq	.L69
 663:Middlewares/lvgl/src/widgets/lv_table.c ****                     else {
 1384              		.loc 1 663 30 is_stmt 1 view .LVU471
 663:Middlewares/lvgl/src/widgets/lv_table.c ****                     else {
 1385              		.loc 1 663 51 is_stmt 0 view .LVU472
 1386 019a 3A6B     		ldr	r2, [r7, #48]
 1387              	.LVL154:
 663:Middlewares/lvgl/src/widgets/lv_table.c ****                     else {
 1388              		.loc 1 663 58 view .LVU473
 1389 019c 0133     		adds	r3, r3, #1
 1390 019e 32F81330 		ldrh	r3, [r2, r3, lsl #1]
 663:Middlewares/lvgl/src/widgets/lv_table.c ****                     else {
 1391              		.loc 1 663 43 view .LVU474
 1392 01a2 BDF86021 		ldrh	r2, [sp, #352]
 1393 01a6 1344     		add	r3, r3, r2
 1394 01a8 ADF86031 		strh	r3, [sp, #352]	@ movhi
 1395              	.LVL155:
 663:Middlewares/lvgl/src/widgets/lv_table.c ****                     else {
 1396              		.loc 1 663 43 view .LVU475
 1397 01ac E2E7     		b	.L43
 1398              	.L41:
 663:Middlewares/lvgl/src/widgets/lv_table.c ****                     else {
 1399              		.loc 1 663 43 view .LVU476
 1400              	.LBE144:
 673:Middlewares/lvgl/src/widgets/lv_table.c ****                 cell += col_merge + 1;
 1401              		.loc 1 673 13 is_stmt 1 view .LVU477
 673:Middlewares/lvgl/src/widgets/lv_table.c ****                 cell += col_merge + 1;
 1402              		.loc 1 673 25 is_stmt 0 view .LVU478
 1403 01ae BDF96231 		ldrsh	r3, [sp, #354]
 673:Middlewares/lvgl/src/widgets/lv_table.c ****                 cell += col_merge + 1;
 1404              		.loc 1 673 40 view .LVU479
 1405 01b2 059A     		ldr	r2, [sp, #20]
 1406 01b4 B2F90220 		ldrsh	r2, [r2, #2]
 673:Middlewares/lvgl/src/widgets/lv_table.c ****                 cell += col_merge + 1;
 1407              		.loc 1 673 15 view .LVU480
 1408 01b8 9342     		cmp	r3, r2
ARM GAS  /tmp/ccQS5ib5.s 			page 56


 1409 01ba C0F20E81 		blt	.L70
 680:Middlewares/lvgl/src/widgets/lv_table.c ****             lv_area_copy(&cell_area_border, &cell_area);
 1410              		.loc 1 680 13 is_stmt 1 view .LVU481
 681:Middlewares/lvgl/src/widgets/lv_table.c ****             if((rect_dsc_def.border_side & LV_BORDER_SIDE_LEFT) && cell_area_border.x1 > obj->coord
 1411              		.loc 1 681 13 view .LVU482
 1412              	.LVL156:
 1413              	.LBB145:
 1414              	.LBI145:
 1415              		.file 4 "Middlewares/lvgl/src/widgets/../core/../misc/../font/../misc/lv_area.h"
   1:Middlewares/lvgl/src/widgets/../core/../misc/../font/../misc/lv_area.h **** /**
   2:Middlewares/lvgl/src/widgets/../core/../misc/../font/../misc/lv_area.h ****  * @file lv_area.h
   3:Middlewares/lvgl/src/widgets/../core/../misc/../font/../misc/lv_area.h ****  *
   4:Middlewares/lvgl/src/widgets/../core/../misc/../font/../misc/lv_area.h ****  */
   5:Middlewares/lvgl/src/widgets/../core/../misc/../font/../misc/lv_area.h **** 
   6:Middlewares/lvgl/src/widgets/../core/../misc/../font/../misc/lv_area.h **** #ifndef LV_AREA_H
   7:Middlewares/lvgl/src/widgets/../core/../misc/../font/../misc/lv_area.h **** #define LV_AREA_H
   8:Middlewares/lvgl/src/widgets/../core/../misc/../font/../misc/lv_area.h **** 
   9:Middlewares/lvgl/src/widgets/../core/../misc/../font/../misc/lv_area.h **** #ifdef __cplusplus
  10:Middlewares/lvgl/src/widgets/../core/../misc/../font/../misc/lv_area.h **** extern "C" {
  11:Middlewares/lvgl/src/widgets/../core/../misc/../font/../misc/lv_area.h **** #endif
  12:Middlewares/lvgl/src/widgets/../core/../misc/../font/../misc/lv_area.h **** 
  13:Middlewares/lvgl/src/widgets/../core/../misc/../font/../misc/lv_area.h **** /*********************
  14:Middlewares/lvgl/src/widgets/../core/../misc/../font/../misc/lv_area.h ****  *      INCLUDES
  15:Middlewares/lvgl/src/widgets/../core/../misc/../font/../misc/lv_area.h ****  *********************/
  16:Middlewares/lvgl/src/widgets/../core/../misc/../font/../misc/lv_area.h **** #include "../lv_conf_internal.h"
  17:Middlewares/lvgl/src/widgets/../core/../misc/../font/../misc/lv_area.h **** #include <string.h>
  18:Middlewares/lvgl/src/widgets/../core/../misc/../font/../misc/lv_area.h **** #include <stdbool.h>
  19:Middlewares/lvgl/src/widgets/../core/../misc/../font/../misc/lv_area.h **** #include <stdint.h>
  20:Middlewares/lvgl/src/widgets/../core/../misc/../font/../misc/lv_area.h **** 
  21:Middlewares/lvgl/src/widgets/../core/../misc/../font/../misc/lv_area.h **** /*********************
  22:Middlewares/lvgl/src/widgets/../core/../misc/../font/../misc/lv_area.h ****  *      DEFINES
  23:Middlewares/lvgl/src/widgets/../core/../misc/../font/../misc/lv_area.h ****  *********************/
  24:Middlewares/lvgl/src/widgets/../core/../misc/../font/../misc/lv_area.h **** 
  25:Middlewares/lvgl/src/widgets/../core/../misc/../font/../misc/lv_area.h **** #define _LV_COORD_MAX_REDUCE    8192
  26:Middlewares/lvgl/src/widgets/../core/../misc/../font/../misc/lv_area.h **** 
  27:Middlewares/lvgl/src/widgets/../core/../misc/../font/../misc/lv_area.h **** #if LV_USE_LARGE_COORD
  28:Middlewares/lvgl/src/widgets/../core/../misc/../font/../misc/lv_area.h **** typedef int32_t lv_coord_t;
  29:Middlewares/lvgl/src/widgets/../core/../misc/../font/../misc/lv_area.h **** #else
  30:Middlewares/lvgl/src/widgets/../core/../misc/../font/../misc/lv_area.h **** typedef int16_t lv_coord_t;
  31:Middlewares/lvgl/src/widgets/../core/../misc/../font/../misc/lv_area.h **** #endif
  32:Middlewares/lvgl/src/widgets/../core/../misc/../font/../misc/lv_area.h **** 
  33:Middlewares/lvgl/src/widgets/../core/../misc/../font/../misc/lv_area.h **** /*To allow some special values in the end reduce the max value*/
  34:Middlewares/lvgl/src/widgets/../core/../misc/../font/../misc/lv_area.h **** #define LV_COORD_MAX ((lv_coord_t)((uint32_t)((uint32_t)1 << (8 * sizeof(lv_coord_t) - 1)) - _LV_CO
  35:Middlewares/lvgl/src/widgets/../core/../misc/../font/../misc/lv_area.h **** #define LV_COORD_MIN (-LV_COORD_MAX)
  36:Middlewares/lvgl/src/widgets/../core/../misc/../font/../misc/lv_area.h **** 
  37:Middlewares/lvgl/src/widgets/../core/../misc/../font/../misc/lv_area.h **** LV_EXPORT_CONST_INT(LV_COORD_MAX);
  38:Middlewares/lvgl/src/widgets/../core/../misc/../font/../misc/lv_area.h **** LV_EXPORT_CONST_INT(LV_COORD_MIN);
  39:Middlewares/lvgl/src/widgets/../core/../misc/../font/../misc/lv_area.h **** 
  40:Middlewares/lvgl/src/widgets/../core/../misc/../font/../misc/lv_area.h **** /**********************
  41:Middlewares/lvgl/src/widgets/../core/../misc/../font/../misc/lv_area.h ****  *      TYPEDEFS
  42:Middlewares/lvgl/src/widgets/../core/../misc/../font/../misc/lv_area.h ****  **********************/
  43:Middlewares/lvgl/src/widgets/../core/../misc/../font/../misc/lv_area.h **** 
  44:Middlewares/lvgl/src/widgets/../core/../misc/../font/../misc/lv_area.h **** /**
  45:Middlewares/lvgl/src/widgets/../core/../misc/../font/../misc/lv_area.h ****  * Represents a point on the screen.
  46:Middlewares/lvgl/src/widgets/../core/../misc/../font/../misc/lv_area.h ****  */
  47:Middlewares/lvgl/src/widgets/../core/../misc/../font/../misc/lv_area.h **** typedef struct {
  48:Middlewares/lvgl/src/widgets/../core/../misc/../font/../misc/lv_area.h ****     lv_coord_t x;
ARM GAS  /tmp/ccQS5ib5.s 			page 57


  49:Middlewares/lvgl/src/widgets/../core/../misc/../font/../misc/lv_area.h ****     lv_coord_t y;
  50:Middlewares/lvgl/src/widgets/../core/../misc/../font/../misc/lv_area.h **** } lv_point_t;
  51:Middlewares/lvgl/src/widgets/../core/../misc/../font/../misc/lv_area.h **** 
  52:Middlewares/lvgl/src/widgets/../core/../misc/../font/../misc/lv_area.h **** /** Represents an area of the screen.*/
  53:Middlewares/lvgl/src/widgets/../core/../misc/../font/../misc/lv_area.h **** typedef struct {
  54:Middlewares/lvgl/src/widgets/../core/../misc/../font/../misc/lv_area.h ****     lv_coord_t x1;
  55:Middlewares/lvgl/src/widgets/../core/../misc/../font/../misc/lv_area.h ****     lv_coord_t y1;
  56:Middlewares/lvgl/src/widgets/../core/../misc/../font/../misc/lv_area.h ****     lv_coord_t x2;
  57:Middlewares/lvgl/src/widgets/../core/../misc/../font/../misc/lv_area.h ****     lv_coord_t y2;
  58:Middlewares/lvgl/src/widgets/../core/../misc/../font/../misc/lv_area.h **** } lv_area_t;
  59:Middlewares/lvgl/src/widgets/../core/../misc/../font/../misc/lv_area.h **** 
  60:Middlewares/lvgl/src/widgets/../core/../misc/../font/../misc/lv_area.h **** /** Alignments*/
  61:Middlewares/lvgl/src/widgets/../core/../misc/../font/../misc/lv_area.h **** enum {
  62:Middlewares/lvgl/src/widgets/../core/../misc/../font/../misc/lv_area.h ****     LV_ALIGN_DEFAULT = 0,
  63:Middlewares/lvgl/src/widgets/../core/../misc/../font/../misc/lv_area.h ****     LV_ALIGN_TOP_LEFT,
  64:Middlewares/lvgl/src/widgets/../core/../misc/../font/../misc/lv_area.h ****     LV_ALIGN_TOP_MID,
  65:Middlewares/lvgl/src/widgets/../core/../misc/../font/../misc/lv_area.h ****     LV_ALIGN_TOP_RIGHT,
  66:Middlewares/lvgl/src/widgets/../core/../misc/../font/../misc/lv_area.h ****     LV_ALIGN_BOTTOM_LEFT,
  67:Middlewares/lvgl/src/widgets/../core/../misc/../font/../misc/lv_area.h ****     LV_ALIGN_BOTTOM_MID,
  68:Middlewares/lvgl/src/widgets/../core/../misc/../font/../misc/lv_area.h ****     LV_ALIGN_BOTTOM_RIGHT,
  69:Middlewares/lvgl/src/widgets/../core/../misc/../font/../misc/lv_area.h ****     LV_ALIGN_LEFT_MID,
  70:Middlewares/lvgl/src/widgets/../core/../misc/../font/../misc/lv_area.h ****     LV_ALIGN_RIGHT_MID,
  71:Middlewares/lvgl/src/widgets/../core/../misc/../font/../misc/lv_area.h ****     LV_ALIGN_CENTER,
  72:Middlewares/lvgl/src/widgets/../core/../misc/../font/../misc/lv_area.h **** 
  73:Middlewares/lvgl/src/widgets/../core/../misc/../font/../misc/lv_area.h ****     LV_ALIGN_OUT_TOP_LEFT,
  74:Middlewares/lvgl/src/widgets/../core/../misc/../font/../misc/lv_area.h ****     LV_ALIGN_OUT_TOP_MID,
  75:Middlewares/lvgl/src/widgets/../core/../misc/../font/../misc/lv_area.h ****     LV_ALIGN_OUT_TOP_RIGHT,
  76:Middlewares/lvgl/src/widgets/../core/../misc/../font/../misc/lv_area.h ****     LV_ALIGN_OUT_BOTTOM_LEFT,
  77:Middlewares/lvgl/src/widgets/../core/../misc/../font/../misc/lv_area.h ****     LV_ALIGN_OUT_BOTTOM_MID,
  78:Middlewares/lvgl/src/widgets/../core/../misc/../font/../misc/lv_area.h ****     LV_ALIGN_OUT_BOTTOM_RIGHT,
  79:Middlewares/lvgl/src/widgets/../core/../misc/../font/../misc/lv_area.h ****     LV_ALIGN_OUT_LEFT_TOP,
  80:Middlewares/lvgl/src/widgets/../core/../misc/../font/../misc/lv_area.h ****     LV_ALIGN_OUT_LEFT_MID,
  81:Middlewares/lvgl/src/widgets/../core/../misc/../font/../misc/lv_area.h ****     LV_ALIGN_OUT_LEFT_BOTTOM,
  82:Middlewares/lvgl/src/widgets/../core/../misc/../font/../misc/lv_area.h ****     LV_ALIGN_OUT_RIGHT_TOP,
  83:Middlewares/lvgl/src/widgets/../core/../misc/../font/../misc/lv_area.h ****     LV_ALIGN_OUT_RIGHT_MID,
  84:Middlewares/lvgl/src/widgets/../core/../misc/../font/../misc/lv_area.h ****     LV_ALIGN_OUT_RIGHT_BOTTOM,
  85:Middlewares/lvgl/src/widgets/../core/../misc/../font/../misc/lv_area.h **** };
  86:Middlewares/lvgl/src/widgets/../core/../misc/../font/../misc/lv_area.h **** typedef uint8_t lv_align_t;
  87:Middlewares/lvgl/src/widgets/../core/../misc/../font/../misc/lv_area.h **** 
  88:Middlewares/lvgl/src/widgets/../core/../misc/../font/../misc/lv_area.h **** enum {
  89:Middlewares/lvgl/src/widgets/../core/../misc/../font/../misc/lv_area.h ****     LV_DIR_NONE     = 0x00,
  90:Middlewares/lvgl/src/widgets/../core/../misc/../font/../misc/lv_area.h ****     LV_DIR_LEFT     = (1 << 0),
  91:Middlewares/lvgl/src/widgets/../core/../misc/../font/../misc/lv_area.h ****     LV_DIR_RIGHT    = (1 << 1),
  92:Middlewares/lvgl/src/widgets/../core/../misc/../font/../misc/lv_area.h ****     LV_DIR_TOP      = (1 << 2),
  93:Middlewares/lvgl/src/widgets/../core/../misc/../font/../misc/lv_area.h ****     LV_DIR_BOTTOM   = (1 << 3),
  94:Middlewares/lvgl/src/widgets/../core/../misc/../font/../misc/lv_area.h ****     LV_DIR_HOR      = LV_DIR_LEFT | LV_DIR_RIGHT,
  95:Middlewares/lvgl/src/widgets/../core/../misc/../font/../misc/lv_area.h ****     LV_DIR_VER      = LV_DIR_TOP | LV_DIR_BOTTOM,
  96:Middlewares/lvgl/src/widgets/../core/../misc/../font/../misc/lv_area.h ****     LV_DIR_ALL      = LV_DIR_HOR | LV_DIR_VER,
  97:Middlewares/lvgl/src/widgets/../core/../misc/../font/../misc/lv_area.h **** };
  98:Middlewares/lvgl/src/widgets/../core/../misc/../font/../misc/lv_area.h **** 
  99:Middlewares/lvgl/src/widgets/../core/../misc/../font/../misc/lv_area.h **** typedef uint8_t lv_dir_t;
 100:Middlewares/lvgl/src/widgets/../core/../misc/../font/../misc/lv_area.h **** 
 101:Middlewares/lvgl/src/widgets/../core/../misc/../font/../misc/lv_area.h **** /**********************
 102:Middlewares/lvgl/src/widgets/../core/../misc/../font/../misc/lv_area.h ****  * GLOBAL PROTOTYPES
 103:Middlewares/lvgl/src/widgets/../core/../misc/../font/../misc/lv_area.h ****  **********************/
 104:Middlewares/lvgl/src/widgets/../core/../misc/../font/../misc/lv_area.h **** 
 105:Middlewares/lvgl/src/widgets/../core/../misc/../font/../misc/lv_area.h **** /**
ARM GAS  /tmp/ccQS5ib5.s 			page 58


 106:Middlewares/lvgl/src/widgets/../core/../misc/../font/../misc/lv_area.h ****  * Initialize an area
 107:Middlewares/lvgl/src/widgets/../core/../misc/../font/../misc/lv_area.h ****  * @param area_p pointer to an area
 108:Middlewares/lvgl/src/widgets/../core/../misc/../font/../misc/lv_area.h ****  * @param x1 left coordinate of the area
 109:Middlewares/lvgl/src/widgets/../core/../misc/../font/../misc/lv_area.h ****  * @param y1 top coordinate of the area
 110:Middlewares/lvgl/src/widgets/../core/../misc/../font/../misc/lv_area.h ****  * @param x2 right coordinate of the area
 111:Middlewares/lvgl/src/widgets/../core/../misc/../font/../misc/lv_area.h ****  * @param y2 bottom coordinate of the area
 112:Middlewares/lvgl/src/widgets/../core/../misc/../font/../misc/lv_area.h ****  */
 113:Middlewares/lvgl/src/widgets/../core/../misc/../font/../misc/lv_area.h **** void lv_area_set(lv_area_t * area_p, lv_coord_t x1, lv_coord_t y1, lv_coord_t x2, lv_coord_t y2);
 114:Middlewares/lvgl/src/widgets/../core/../misc/../font/../misc/lv_area.h **** 
 115:Middlewares/lvgl/src/widgets/../core/../misc/../font/../misc/lv_area.h **** /**
 116:Middlewares/lvgl/src/widgets/../core/../misc/../font/../misc/lv_area.h ****  * Copy an area
 117:Middlewares/lvgl/src/widgets/../core/../misc/../font/../misc/lv_area.h ****  * @param dest pointer to the destination area
 118:Middlewares/lvgl/src/widgets/../core/../misc/../font/../misc/lv_area.h ****  * @param src pointer to the source area
 119:Middlewares/lvgl/src/widgets/../core/../misc/../font/../misc/lv_area.h ****  */
 120:Middlewares/lvgl/src/widgets/../core/../misc/../font/../misc/lv_area.h **** inline static void lv_area_copy(lv_area_t * dest, const lv_area_t * src)
 1416              		.loc 4 120 20 view .LVU483
 1417              	.LBB146:
 121:Middlewares/lvgl/src/widgets/../core/../misc/../font/../misc/lv_area.h **** {
 122:Middlewares/lvgl/src/widgets/../core/../misc/../font/../misc/lv_area.h ****     dest->x1 = src->x1;
 1418              		.loc 4 122 5 view .LVU484
 1419              		.loc 4 122 19 is_stmt 0 view .LVU485
 1420 01be BDF95C01 		ldrsh	r0, [sp, #348]
 1421              		.loc 4 122 14 view .LVU486
 1422 01c2 ADF85400 		strh	r0, [sp, #84]	@ movhi
 123:Middlewares/lvgl/src/widgets/../core/../misc/../font/../misc/lv_area.h ****     dest->y1 = src->y1;
 1423              		.loc 4 123 5 is_stmt 1 view .LVU487
 1424              		.loc 4 123 19 is_stmt 0 view .LVU488
 1425 01c6 BDF95E91 		ldrsh	r9, [sp, #350]
 1426              		.loc 4 123 14 view .LVU489
 1427 01ca ADF85690 		strh	r9, [sp, #86]	@ movhi
 124:Middlewares/lvgl/src/widgets/../core/../misc/../font/../misc/lv_area.h ****     dest->x2 = src->x2;
 1428              		.loc 4 124 5 is_stmt 1 view .LVU490
 1429              		.loc 4 124 19 is_stmt 0 view .LVU491
 1430 01ce BDF960C1 		ldrsh	ip, [sp, #352]
 1431              		.loc 4 124 14 view .LVU492
 1432 01d2 ADF858C0 		strh	ip, [sp, #88]	@ movhi
 125:Middlewares/lvgl/src/widgets/../core/../misc/../font/../misc/lv_area.h ****     dest->y2 = src->y2;
 1433              		.loc 4 125 5 is_stmt 1 view .LVU493
 1434              		.loc 4 125 14 is_stmt 0 view .LVU494
 1435 01d6 ADF85A30 		strh	r3, [sp, #90]	@ movhi
 1436              	.LVL157:
 1437              		.loc 4 125 14 view .LVU495
 1438              	.LBE146:
 1439              	.LBE145:
 682:Middlewares/lvgl/src/widgets/lv_table.c ****                 cell_area_border.x1 -= rect_dsc_def.border_width / 2;
 1440              		.loc 1 682 13 is_stmt 1 view .LVU496
 682:Middlewares/lvgl/src/widgets/lv_table.c ****                 cell_area_border.x1 -= rect_dsc_def.border_width / 2;
 1441              		.loc 1 682 29 is_stmt 0 view .LVU497
 1442 01da 9DF83FE1 		ldrb	lr, [sp, #319]	@ zero_extendqisi2
 1443 01de CEF34402 		ubfx	r2, lr, #1, #5
 682:Middlewares/lvgl/src/widgets/lv_table.c ****                 cell_area_border.x1 -= rect_dsc_def.border_width / 2;
 1444              		.loc 1 682 15 view .LVU498
 1445 01e2 1EF0080F 		tst	lr, #8
 1446 01e6 0DD0     		beq	.L48
 682:Middlewares/lvgl/src/widgets/lv_table.c ****                 cell_area_border.x1 -= rect_dsc_def.border_width / 2;
 1447              		.loc 1 682 101 discriminator 1 view .LVU499
 1448 01e8 B7F914E0 		ldrsh	lr, [r7, #20]
ARM GAS  /tmp/ccQS5ib5.s 			page 59


 682:Middlewares/lvgl/src/widgets/lv_table.c ****                 cell_area_border.x1 -= rect_dsc_def.border_width / 2;
 1449              		.loc 1 682 105 discriminator 1 view .LVU500
 1450 01ec 0D99     		ldr	r1, [sp, #52]
 1451 01ee 8E44     		add	lr, lr, r1
 682:Middlewares/lvgl/src/widgets/lv_table.c ****                 cell_area_border.x1 -= rect_dsc_def.border_width / 2;
 1452              		.loc 1 682 65 discriminator 1 view .LVU501
 1453 01f0 7045     		cmp	r0, lr
 1454 01f2 07DD     		ble	.L48
 683:Middlewares/lvgl/src/widgets/lv_table.c ****             }
 1455              		.loc 1 683 17 is_stmt 1 view .LVU502
 683:Middlewares/lvgl/src/widgets/lv_table.c ****             }
 1456              		.loc 1 683 52 is_stmt 0 view .LVU503
 1457 01f4 BDF93CE1 		ldrsh	lr, [sp, #316]
 683:Middlewares/lvgl/src/widgets/lv_table.c ****             }
 1458              		.loc 1 683 37 view .LVU504
 1459 01f8 0EEBDE7E 		add	lr, lr, lr, lsr #31
 1460 01fc A0EB6E00 		sub	r0, r0, lr, asr #1
 1461 0200 ADF85400 		strh	r0, [sp, #84]	@ movhi
 1462              	.L48:
 685:Middlewares/lvgl/src/widgets/lv_table.c ****                 cell_area_border.y1 -= rect_dsc_def.border_width / 2;
 1463              		.loc 1 685 13 is_stmt 1 view .LVU505
 685:Middlewares/lvgl/src/widgets/lv_table.c ****                 cell_area_border.y1 -= rect_dsc_def.border_width / 2;
 1464              		.loc 1 685 15 is_stmt 0 view .LVU506
 1465 0204 12F0020F 		tst	r2, #2
 1466 0208 0DD0     		beq	.L49
 685:Middlewares/lvgl/src/widgets/lv_table.c ****                 cell_area_border.y1 -= rect_dsc_def.border_width / 2;
 1467              		.loc 1 685 100 discriminator 1 view .LVU507
 1468 020a B7F91600 		ldrsh	r0, [r7, #22]
 685:Middlewares/lvgl/src/widgets/lv_table.c ****                 cell_area_border.y1 -= rect_dsc_def.border_width / 2;
 1469              		.loc 1 685 104 discriminator 1 view .LVU508
 1470 020e 0F99     		ldr	r1, [sp, #60]
 1471 0210 0844     		add	r0, r0, r1
 685:Middlewares/lvgl/src/widgets/lv_table.c ****                 cell_area_border.y1 -= rect_dsc_def.border_width / 2;
 1472              		.loc 1 685 64 discriminator 1 view .LVU509
 1473 0212 8145     		cmp	r9, r0
 1474 0214 07DD     		ble	.L49
 686:Middlewares/lvgl/src/widgets/lv_table.c ****             }
 1475              		.loc 1 686 17 is_stmt 1 view .LVU510
 686:Middlewares/lvgl/src/widgets/lv_table.c ****             }
 1476              		.loc 1 686 52 is_stmt 0 view .LVU511
 1477 0216 BDF93C01 		ldrsh	r0, [sp, #316]
 686:Middlewares/lvgl/src/widgets/lv_table.c ****             }
 1478              		.loc 1 686 37 view .LVU512
 1479 021a 00EBD070 		add	r0, r0, r0, lsr #31
 1480 021e A9EB6001 		sub	r1, r9, r0, asr #1
 1481 0222 ADF85610 		strh	r1, [sp, #86]	@ movhi
 1482              	.L49:
 688:Middlewares/lvgl/src/widgets/lv_table.c ****                 cell_area_border.x2 += rect_dsc_def.border_width / 2 + (rect_dsc_def.border_width &
 1483              		.loc 1 688 13 is_stmt 1 view .LVU513
 688:Middlewares/lvgl/src/widgets/lv_table.c ****                 cell_area_border.x2 += rect_dsc_def.border_width / 2 + (rect_dsc_def.border_width &
 1484              		.loc 1 688 15 is_stmt 0 view .LVU514
 1485 0226 12F0080F 		tst	r2, #8
 1486 022a 12D0     		beq	.L50
 688:Middlewares/lvgl/src/widgets/lv_table.c ****                 cell_area_border.x2 += rect_dsc_def.border_width / 2 + (rect_dsc_def.border_width &
 1487              		.loc 1 688 102 discriminator 1 view .LVU515
 1488 022c B7F91810 		ldrsh	r1, [r7, #24]
 688:Middlewares/lvgl/src/widgets/lv_table.c ****                 cell_area_border.x2 += rect_dsc_def.border_width / 2 + (rect_dsc_def.border_width &
ARM GAS  /tmp/ccQS5ib5.s 			page 60


 1489              		.loc 1 688 106 discriminator 1 view .LVU516
 1490 0230 0C98     		ldr	r0, [sp, #48]
 1491 0232 091A     		subs	r1, r1, r0
 688:Middlewares/lvgl/src/widgets/lv_table.c ****                 cell_area_border.x2 += rect_dsc_def.border_width / 2 + (rect_dsc_def.border_width &
 1492              		.loc 1 688 117 discriminator 1 view .LVU517
 1493 0234 0139     		subs	r1, r1, #1
 688:Middlewares/lvgl/src/widgets/lv_table.c ****                 cell_area_border.x2 += rect_dsc_def.border_width / 2 + (rect_dsc_def.border_width &
 1494              		.loc 1 688 66 discriminator 1 view .LVU518
 1495 0236 8C45     		cmp	ip, r1
 1496 0238 0BDA     		bge	.L50
 689:Middlewares/lvgl/src/widgets/lv_table.c ****             }
 1497              		.loc 1 689 17 is_stmt 1 view .LVU519
 689:Middlewares/lvgl/src/widgets/lv_table.c ****             }
 1498              		.loc 1 689 52 is_stmt 0 view .LVU520
 1499 023a BDF93C01 		ldrsh	r0, [sp, #316]
 689:Middlewares/lvgl/src/widgets/lv_table.c ****             }
 1500              		.loc 1 689 99 view .LVU521
 1501 023e 00F00101 		and	r1, r0, #1
 689:Middlewares/lvgl/src/widgets/lv_table.c ****             }
 1502              		.loc 1 689 70 view .LVU522
 1503 0242 00EBD070 		add	r0, r0, r0, lsr #31
 1504 0246 01EB6001 		add	r1, r1, r0, asr #1
 689:Middlewares/lvgl/src/widgets/lv_table.c ****             }
 1505              		.loc 1 689 37 view .LVU523
 1506 024a 1CFA81FC 		uxtah	ip, ip, r1
 1507 024e ADF858C0 		strh	ip, [sp, #88]	@ movhi
 1508              	.L50:
 691:Middlewares/lvgl/src/widgets/lv_table.c ****                     cell_area_border.y2 < obj->coords.y2 - bg_bottom - 1) {
 1509              		.loc 1 691 13 is_stmt 1 view .LVU524
 691:Middlewares/lvgl/src/widgets/lv_table.c ****                     cell_area_border.y2 < obj->coords.y2 - bg_bottom - 1) {
 1510              		.loc 1 691 15 is_stmt 0 view .LVU525
 1511 0252 12F0010F 		tst	r2, #1
 1512 0256 12D0     		beq	.L51
 692:Middlewares/lvgl/src/widgets/lv_table.c ****                 cell_area_border.y2 += rect_dsc_def.border_width / 2 + (rect_dsc_def.border_width &
 1513              		.loc 1 692 54 discriminator 1 view .LVU526
 1514 0258 B7F91A20 		ldrsh	r2, [r7, #26]
 692:Middlewares/lvgl/src/widgets/lv_table.c ****                 cell_area_border.y2 += rect_dsc_def.border_width / 2 + (rect_dsc_def.border_width &
 1515              		.loc 1 692 58 discriminator 1 view .LVU527
 1516 025c 0E99     		ldr	r1, [sp, #56]
 1517 025e 521A     		subs	r2, r2, r1
 692:Middlewares/lvgl/src/widgets/lv_table.c ****                 cell_area_border.y2 += rect_dsc_def.border_width / 2 + (rect_dsc_def.border_width &
 1518              		.loc 1 692 70 discriminator 1 view .LVU528
 1519 0260 013A     		subs	r2, r2, #1
 691:Middlewares/lvgl/src/widgets/lv_table.c ****                     cell_area_border.y2 < obj->coords.y2 - bg_bottom - 1) {
 1520              		.loc 1 691 67 discriminator 1 view .LVU529
 1521 0262 9342     		cmp	r3, r2
 1522 0264 0BDA     		bge	.L51
 693:Middlewares/lvgl/src/widgets/lv_table.c ****             }
 1523              		.loc 1 693 17 is_stmt 1 view .LVU530
 693:Middlewares/lvgl/src/widgets/lv_table.c ****             }
 1524              		.loc 1 693 52 is_stmt 0 view .LVU531
 1525 0266 BDF93C11 		ldrsh	r1, [sp, #316]
 693:Middlewares/lvgl/src/widgets/lv_table.c ****             }
 1526              		.loc 1 693 99 view .LVU532
 1527 026a 01F00102 		and	r2, r1, #1
 693:Middlewares/lvgl/src/widgets/lv_table.c ****             }
 1528              		.loc 1 693 70 view .LVU533
ARM GAS  /tmp/ccQS5ib5.s 			page 61


 1529 026e 01EBD171 		add	r1, r1, r1, lsr #31
 1530 0272 02EB6102 		add	r2, r2, r1, asr #1
 693:Middlewares/lvgl/src/widgets/lv_table.c ****             }
 1531              		.loc 1 693 37 view .LVU534
 1532 0276 13FA82F3 		uxtah	r3, r3, r2
 1533 027a ADF85A30 		strh	r3, [sp, #90]	@ movhi
 1534              	.L51:
 696:Middlewares/lvgl/src/widgets/lv_table.c ****             if(row == table->row_act && col == table->col_act) {
 1535              		.loc 1 696 13 is_stmt 1 view .LVU535
 1536              	.LVL158:
 697:Middlewares/lvgl/src/widgets/lv_table.c ****                 if(!(obj->state & LV_STATE_SCROLLED) && (obj->state & LV_STATE_PRESSED)) cell_state
 1537              		.loc 1 697 13 view .LVU536
 697:Middlewares/lvgl/src/widgets/lv_table.c ****                 if(!(obj->state & LV_STATE_SCROLLED) && (obj->state & LV_STATE_PRESSED)) cell_state
 1538              		.loc 1 697 28 is_stmt 0 view .LVU537
 1539 027e FB8E     		ldrh	r3, [r7, #54]
 697:Middlewares/lvgl/src/widgets/lv_table.c ****                 if(!(obj->state & LV_STATE_SCROLLED) && (obj->state & LV_STATE_PRESSED)) cell_state
 1540              		.loc 1 697 15 view .LVU538
 1541 0280 069A     		ldr	r2, [sp, #24]
 1542 0282 9342     		cmp	r3, r2
 1543 0284 03D1     		bne	.L52
 697:Middlewares/lvgl/src/widgets/lv_table.c ****                 if(!(obj->state & LV_STATE_SCROLLED) && (obj->state & LV_STATE_PRESSED)) cell_state
 1544              		.loc 1 697 53 discriminator 1 view .LVU539
 1545 0286 BB8E     		ldrh	r3, [r7, #52]
 697:Middlewares/lvgl/src/widgets/lv_table.c ****                 if(!(obj->state & LV_STATE_SCROLLED) && (obj->state & LV_STATE_PRESSED)) cell_state
 1546              		.loc 1 697 38 discriminator 1 view .LVU540
 1547 0288 AB42     		cmp	r3, r5
 1548 028a 00F0B080 		beq	.L71
 1549              	.LVL159:
 1550              	.L52:
 706:Middlewares/lvgl/src/widgets/lv_table.c ****                 lv_memcpy(&label_dsc_act, &label_dsc_def, sizeof(lv_draw_label_dsc_t));
 1551              		.loc 1 706 17 is_stmt 1 view .LVU541
 1552 028e 3422     		movs	r2, #52
 1553 0290 48A9     		add	r1, sp, #288
 1554 0292 3BA8     		add	r0, sp, #236
 1555 0294 FFF7FEFF 		bl	lv_memcpy
 1556              	.LVL160:
 707:Middlewares/lvgl/src/widgets/lv_table.c ****             }
 1557              		.loc 1 707 17 view .LVU542
 1558 0298 2022     		movs	r2, #32
 1559 029a 33A9     		add	r1, sp, #204
 1560 029c 2BA8     		add	r0, sp, #172
 1561 029e FFF7FEFF 		bl	lv_memcpy
 1562              	.LVL161:
 1563              	.L58:
 721:Middlewares/lvgl/src/widgets/lv_table.c ****             dsc.id = row * table->col_cnt + col;
 1564              		.loc 1 721 13 view .LVU543
 721:Middlewares/lvgl/src/widgets/lv_table.c ****             dsc.id = row * table->col_cnt + col;
 1565              		.loc 1 721 27 is_stmt 0 view .LVU544
 1566 02a2 0DF15409 		add	r9, sp, #84
 1567 02a6 CDF86890 		str	r9, [sp, #104]
 722:Middlewares/lvgl/src/widgets/lv_table.c ****             lv_event_send(obj, LV_EVENT_DRAW_PART_BEGIN, &dsc);
 1568              		.loc 1 722 13 is_stmt 1 view .LVU545
 722:Middlewares/lvgl/src/widgets/lv_table.c ****             lv_event_send(obj, LV_EVENT_DRAW_PART_BEGIN, &dsc);
 1569              		.loc 1 722 33 is_stmt 0 view .LVU546
 1570 02aa BB8C     		ldrh	r3, [r7, #36]
 722:Middlewares/lvgl/src/widgets/lv_table.c ****             lv_event_send(obj, LV_EVENT_DRAW_PART_BEGIN, &dsc);
 1571              		.loc 1 722 43 view .LVU547
ARM GAS  /tmp/ccQS5ib5.s 			page 62


 1572 02ac 049A     		ldr	r2, [sp, #16]
 1573 02ae 0699     		ldr	r1, [sp, #24]
 1574 02b0 03FB0123 		mla	r3, r3, r1, r2
 722:Middlewares/lvgl/src/widgets/lv_table.c ****             lv_event_send(obj, LV_EVENT_DRAW_PART_BEGIN, &dsc);
 1575              		.loc 1 722 20 view .LVU548
 1576 02b4 2793     		str	r3, [sp, #156]
 723:Middlewares/lvgl/src/widgets/lv_table.c **** 
 1577              		.loc 1 723 13 is_stmt 1 view .LVU549
 1578 02b6 19AA     		add	r2, sp, #100
 1579 02b8 1A21     		movs	r1, #26
 1580 02ba 3846     		mov	r0, r7
 1581 02bc FFF7FEFF 		bl	lv_event_send
 1582              	.LVL162:
 725:Middlewares/lvgl/src/widgets/lv_table.c **** 
 1583              		.loc 1 725 13 view .LVU550
 1584 02c0 3BAA     		add	r2, sp, #236
 1585 02c2 0599     		ldr	r1, [sp, #20]
 1586 02c4 4846     		mov	r0, r9
 1587 02c6 FFF7FEFF 		bl	lv_draw_rect
 1588              	.LVL163:
 727:Middlewares/lvgl/src/widgets/lv_table.c ****                 txt_area.x1 = cell_area.x1 + cell_left;
 1589              		.loc 1 727 13 view .LVU551
 727:Middlewares/lvgl/src/widgets/lv_table.c ****                 txt_area.x1 = cell_area.x1 + cell_left;
 1590              		.loc 1 727 21 is_stmt 0 view .LVU552
 1591 02ca B96A     		ldr	r1, [r7, #40]
 727:Middlewares/lvgl/src/widgets/lv_table.c ****                 txt_area.x1 = cell_area.x1 + cell_left;
 1592              		.loc 1 727 32 view .LVU553
 1593 02cc 51F80830 		ldr	r3, [r1, r8]
 727:Middlewares/lvgl/src/widgets/lv_table.c ****                 txt_area.x1 = cell_area.x1 + cell_left;
 1594              		.loc 1 727 15 view .LVU554
 1595 02d0 002B     		cmp	r3, #0
 1596 02d2 52D0     		beq	.L59
 1597              	.LBB147:
 728:Middlewares/lvgl/src/widgets/lv_table.c ****                 txt_area.x2 = cell_area.x2 - cell_right;
 1598              		.loc 1 728 17 is_stmt 1 view .LVU555
 728:Middlewares/lvgl/src/widgets/lv_table.c ****                 txt_area.x2 = cell_area.x2 - cell_right;
 1599              		.loc 1 728 40 is_stmt 0 view .LVU556
 1600 02d4 BDF85C31 		ldrh	r3, [sp, #348]
 728:Middlewares/lvgl/src/widgets/lv_table.c ****                 txt_area.x2 = cell_area.x2 - cell_right;
 1601              		.loc 1 728 44 view .LVU557
 1602 02d8 0A9A     		ldr	r2, [sp, #40]
 1603 02da 1344     		add	r3, r3, r2
 1604 02dc 98B2     		uxth	r0, r3
 728:Middlewares/lvgl/src/widgets/lv_table.c ****                 txt_area.x2 = cell_area.x2 - cell_right;
 1605              		.loc 1 728 29 view .LVU558
 1606 02de ADF85431 		strh	r3, [sp, #340]	@ movhi
 729:Middlewares/lvgl/src/widgets/lv_table.c ****                 txt_area.y1 = cell_area.y1 + cell_top;
 1607              		.loc 1 729 17 is_stmt 1 view .LVU559
 729:Middlewares/lvgl/src/widgets/lv_table.c ****                 txt_area.y1 = cell_area.y1 + cell_top;
 1608              		.loc 1 729 40 is_stmt 0 view .LVU560
 1609 02e2 BDF86021 		ldrh	r2, [sp, #352]
 729:Middlewares/lvgl/src/widgets/lv_table.c ****                 txt_area.y1 = cell_area.y1 + cell_top;
 1610              		.loc 1 729 44 view .LVU561
 1611 02e6 099B     		ldr	r3, [sp, #36]
 1612 02e8 D21A     		subs	r2, r2, r3
 1613 02ea 1FFA82FC 		uxth	ip, r2
 729:Middlewares/lvgl/src/widgets/lv_table.c ****                 txt_area.y1 = cell_area.y1 + cell_top;
ARM GAS  /tmp/ccQS5ib5.s 			page 63


 1614              		.loc 1 729 29 view .LVU562
 1615 02ee ADF85821 		strh	r2, [sp, #344]	@ movhi
 730:Middlewares/lvgl/src/widgets/lv_table.c ****                 txt_area.y2 = cell_area.y2 - cell_bottom;
 1616              		.loc 1 730 17 is_stmt 1 view .LVU563
 730:Middlewares/lvgl/src/widgets/lv_table.c ****                 txt_area.y2 = cell_area.y2 - cell_bottom;
 1617              		.loc 1 730 40 is_stmt 0 view .LVU564
 1618 02f2 BDF85E21 		ldrh	r2, [sp, #350]
 730:Middlewares/lvgl/src/widgets/lv_table.c ****                 txt_area.y2 = cell_area.y2 - cell_bottom;
 1619              		.loc 1 730 44 view .LVU565
 1620 02f6 089B     		ldr	r3, [sp, #32]
 1621 02f8 1A44     		add	r2, r2, r3
 730:Middlewares/lvgl/src/widgets/lv_table.c ****                 txt_area.y2 = cell_area.y2 - cell_bottom;
 1622              		.loc 1 730 29 view .LVU566
 1623 02fa ADF85621 		strh	r2, [sp, #342]	@ movhi
 731:Middlewares/lvgl/src/widgets/lv_table.c **** 
 1624              		.loc 1 731 17 is_stmt 1 view .LVU567
 731:Middlewares/lvgl/src/widgets/lv_table.c **** 
 1625              		.loc 1 731 40 is_stmt 0 view .LVU568
 1626 02fe BDF86221 		ldrh	r2, [sp, #354]
 731:Middlewares/lvgl/src/widgets/lv_table.c **** 
 1627              		.loc 1 731 44 view .LVU569
 1628 0302 079B     		ldr	r3, [sp, #28]
 1629 0304 D21A     		subs	r2, r2, r3
 731:Middlewares/lvgl/src/widgets/lv_table.c **** 
 1630              		.loc 1 731 29 view .LVU570
 1631 0306 ADF85A21 		strh	r2, [sp, #346]	@ movhi
 734:Middlewares/lvgl/src/widgets/lv_table.c ****                 if(crop) txt_flags = LV_TEXT_FLAG_EXPAND;
 1632              		.loc 1 734 17 is_stmt 1 view .LVU571
 734:Middlewares/lvgl/src/widgets/lv_table.c ****                 if(crop) txt_flags = LV_TEXT_FLAG_EXPAND;
 1633              		.loc 1 734 72 is_stmt 0 view .LVU572
 1634 030a C6F34009 		ubfx	r9, r6, #1, #1
 1635              	.LVL164:
 735:Middlewares/lvgl/src/widgets/lv_table.c ****                 else txt_flags = LV_TEXT_FLAG_NONE;
 1636              		.loc 1 735 17 is_stmt 1 view .LVU573
 735:Middlewares/lvgl/src/widgets/lv_table.c ****                 else txt_flags = LV_TEXT_FLAG_NONE;
 1637              		.loc 1 735 19 is_stmt 0 view .LVU574
 1638 030e 16F0020F 		tst	r6, #2
 1639 0312 00F0A680 		beq	.L67
 735:Middlewares/lvgl/src/widgets/lv_table.c ****                 else txt_flags = LV_TEXT_FLAG_NONE;
 1640              		.loc 1 735 36 view .LVU575
 1641 0316 0222     		movs	r2, #2
 1642              	.L60:
 1643              	.LVL165:
 738:Middlewares/lvgl/src/widgets/lv_table.c ****                         label_dsc_act.letter_space, label_dsc_act.line_space,
 1644              		.loc 1 738 17 is_stmt 1 view .LVU576
 738:Middlewares/lvgl/src/widgets/lv_table.c ****                         label_dsc_act.letter_space, label_dsc_act.line_space,
 1645              		.loc 1 738 60 is_stmt 0 view .LVU577
 1646 0318 51F80810 		ldr	r1, [r1, r8]
 1647              	.LVL166:
 1648              	.LBB148:
 1649              	.LBI148:
 126:Middlewares/lvgl/src/widgets/../core/../misc/../font/../misc/lv_area.h **** }
 127:Middlewares/lvgl/src/widgets/../core/../misc/../font/../misc/lv_area.h **** 
 128:Middlewares/lvgl/src/widgets/../core/../misc/../font/../misc/lv_area.h **** /**
 129:Middlewares/lvgl/src/widgets/../core/../misc/../font/../misc/lv_area.h ****  * Get the width of an area
 130:Middlewares/lvgl/src/widgets/../core/../misc/../font/../misc/lv_area.h ****  * @param area_p pointer to an area
 131:Middlewares/lvgl/src/widgets/../core/../misc/../font/../misc/lv_area.h ****  * @return the width of the area (if x1 == x2 -> width = 1)
ARM GAS  /tmp/ccQS5ib5.s 			page 64


 132:Middlewares/lvgl/src/widgets/../core/../misc/../font/../misc/lv_area.h ****  */
 133:Middlewares/lvgl/src/widgets/../core/../misc/../font/../misc/lv_area.h **** static inline lv_coord_t lv_area_get_width(const lv_area_t * area_p)
 1650              		.loc 4 133 26 is_stmt 1 view .LVU578
 1651              	.LBB149:
 134:Middlewares/lvgl/src/widgets/../core/../misc/../font/../misc/lv_area.h **** {
 135:Middlewares/lvgl/src/widgets/../core/../misc/../font/../misc/lv_area.h ****     return (lv_coord_t)(area_p->x2 - area_p->x1 + 1);
 1652              		.loc 4 135 5 view .LVU579
 1653              		.loc 4 135 36 is_stmt 0 view .LVU580
 1654 031c ACEB0003 		sub	r3, ip, r0
 1655 0320 9BB2     		uxth	r3, r3
 1656              		.loc 4 135 49 view .LVU581
 1657 0322 0133     		adds	r3, r3, #1
 1658              		.loc 4 135 12 view .LVU582
 1659 0324 1BB2     		sxth	r3, r3
 1660              	.LVL167:
 1661              		.loc 4 135 12 view .LVU583
 1662              	.LBE149:
 1663              	.LBE148:
 738:Middlewares/lvgl/src/widgets/lv_table.c ****                         label_dsc_act.letter_space, label_dsc_act.line_space,
 1664              		.loc 1 738 17 view .LVU584
 1665 0326 0292     		str	r2, [sp, #8]
 1666 0328 0193     		str	r3, [sp, #4]
 1667 032a BDF9BE30 		ldrsh	r3, [sp, #190]
 1668 032e 0093     		str	r3, [sp]
 1669 0330 BDF9C030 		ldrsh	r3, [sp, #192]
 1670 0334 339A     		ldr	r2, [sp, #204]
 1671              	.LVL168:
 738:Middlewares/lvgl/src/widgets/lv_table.c ****                         label_dsc_act.letter_space, label_dsc_act.line_space,
 1672              		.loc 1 738 17 view .LVU585
 1673 0336 0131     		adds	r1, r1, #1
 1674 0338 59A8     		add	r0, sp, #356
 1675 033a FFF7FEFF 		bl	lv_txt_get_size
 1676              	.LVL169:
 743:Middlewares/lvgl/src/widgets/lv_table.c ****                     txt_area.y1 = cell_area.y1 + h_row / 2 - txt_size.y / 2;
 1677              		.loc 1 743 17 is_stmt 1 view .LVU586
 743:Middlewares/lvgl/src/widgets/lv_table.c ****                     txt_area.y1 = cell_area.y1 + h_row / 2 - txt_size.y / 2;
 1678              		.loc 1 743 19 is_stmt 0 view .LVU587
 1679 033e B9F1000F 		cmp	r9, #0
 1680 0342 13D1     		bne	.L61
 744:Middlewares/lvgl/src/widgets/lv_table.c ****                     txt_area.y2 = cell_area.y1 + h_row / 2 + txt_size.y / 2;
 1681              		.loc 1 744 21 is_stmt 1 view .LVU588
 744:Middlewares/lvgl/src/widgets/lv_table.c ****                     txt_area.y2 = cell_area.y1 + h_row / 2 + txt_size.y / 2;
 1682              		.loc 1 744 44 is_stmt 0 view .LVU589
 1683 0344 BDF85E31 		ldrh	r3, [sp, #350]
 744:Middlewares/lvgl/src/widgets/lv_table.c ****                     txt_area.y2 = cell_area.y1 + h_row / 2 + txt_size.y / 2;
 1684              		.loc 1 744 48 view .LVU590
 1685 0348 0B9A     		ldr	r2, [sp, #44]
 1686 034a 02EBD272 		add	r2, r2, r2, lsr #31
 1687 034e 03EB6203 		add	r3, r3, r2, asr #1
 1688 0352 9BB2     		uxth	r3, r3
 744:Middlewares/lvgl/src/widgets/lv_table.c ****                     txt_area.y2 = cell_area.y1 + h_row / 2 + txt_size.y / 2;
 1689              		.loc 1 744 70 view .LVU591
 1690 0354 BDF96621 		ldrsh	r2, [sp, #358]
 744:Middlewares/lvgl/src/widgets/lv_table.c ****                     txt_area.y2 = cell_area.y1 + h_row / 2 + txt_size.y / 2;
 1691              		.loc 1 744 60 view .LVU592
 1692 0358 02EBD272 		add	r2, r2, r2, lsr #31
 1693 035c C2F34F02 		ubfx	r2, r2, #1, #16
ARM GAS  /tmp/ccQS5ib5.s 			page 65


 1694 0360 991A     		subs	r1, r3, r2
 744:Middlewares/lvgl/src/widgets/lv_table.c ****                     txt_area.y2 = cell_area.y1 + h_row / 2 + txt_size.y / 2;
 1695              		.loc 1 744 33 view .LVU593
 1696 0362 ADF85611 		strh	r1, [sp, #342]	@ movhi
 745:Middlewares/lvgl/src/widgets/lv_table.c ****                 }
 1697              		.loc 1 745 21 is_stmt 1 view .LVU594
 745:Middlewares/lvgl/src/widgets/lv_table.c ****                 }
 1698              		.loc 1 745 60 is_stmt 0 view .LVU595
 1699 0366 1344     		add	r3, r3, r2
 745:Middlewares/lvgl/src/widgets/lv_table.c ****                 }
 1700              		.loc 1 745 33 view .LVU596
 1701 0368 ADF85A31 		strh	r3, [sp, #346]	@ movhi
 1702              	.L61:
 748:Middlewares/lvgl/src/widgets/lv_table.c ****                 bool label_mask_ok;
 1703              		.loc 1 748 17 is_stmt 1 view .LVU597
 749:Middlewares/lvgl/src/widgets/lv_table.c ****                 label_mask_ok = _lv_area_intersect(&label_mask, clip_area, &cell_area);
 1704              		.loc 1 749 17 view .LVU598
 750:Middlewares/lvgl/src/widgets/lv_table.c ****                 if(label_mask_ok) {
 1705              		.loc 1 750 17 view .LVU599
 750:Middlewares/lvgl/src/widgets/lv_table.c ****                 if(label_mask_ok) {
 1706              		.loc 1 750 33 is_stmt 0 view .LVU600
 1707 036c 57AA     		add	r2, sp, #348
 1708 036e 0599     		ldr	r1, [sp, #20]
 1709 0370 17A8     		add	r0, sp, #92
 1710 0372 FFF7FEFF 		bl	_lv_area_intersect
 1711              	.LVL170:
 751:Middlewares/lvgl/src/widgets/lv_table.c ****                     lv_draw_label(&txt_area, &label_mask, &label_dsc_act, table->cell_data[cell] + 
 1712              		.loc 1 751 17 is_stmt 1 view .LVU601
 751:Middlewares/lvgl/src/widgets/lv_table.c ****                     lv_draw_label(&txt_area, &label_mask, &label_dsc_act, table->cell_data[cell] + 
 1713              		.loc 1 751 19 is_stmt 0 view .LVU602
 1714 0376 0028     		cmp	r0, #0
 1715 0378 75D1     		bne	.L72
 1716              	.LVL171:
 1717              	.L59:
 751:Middlewares/lvgl/src/widgets/lv_table.c ****                     lv_draw_label(&txt_area, &label_mask, &label_dsc_act, table->cell_data[cell] + 
 1718              		.loc 1 751 19 view .LVU603
 1719              	.LBE147:
 756:Middlewares/lvgl/src/widgets/lv_table.c **** 
 1720              		.loc 1 756 13 is_stmt 1 discriminator 1 view .LVU604
 1721 037a 19AA     		add	r2, sp, #100
 1722 037c 1B21     		movs	r1, #27
 1723 037e 3846     		mov	r0, r7
 1724 0380 FFF7FEFF 		bl	lv_event_send
 1725              	.LVL172:
 758:Middlewares/lvgl/src/widgets/lv_table.c ****             col += col_merge;
 1726              		.loc 1 758 13 discriminator 1 view .LVU605
 758:Middlewares/lvgl/src/widgets/lv_table.c ****             col += col_merge;
 1727              		.loc 1 758 18 is_stmt 0 discriminator 1 view .LVU606
 1728 0384 A244     		add	r10, r10, r4
 1729              	.LVL173:
 758:Middlewares/lvgl/src/widgets/lv_table.c ****             col += col_merge;
 1730              		.loc 1 758 18 discriminator 1 view .LVU607
 1731 0386 1FFA8AFA 		uxth	r10, r10
 1732 038a 0AF1010A 		add	r10, r10, #1
 1733 038e 1FFA8AFA 		uxth	r10, r10
 1734              	.LVL174:
 759:Middlewares/lvgl/src/widgets/lv_table.c ****         }
ARM GAS  /tmp/ccQS5ib5.s 			page 66


 1735              		.loc 1 759 13 is_stmt 1 discriminator 1 view .LVU608
 759:Middlewares/lvgl/src/widgets/lv_table.c ****         }
 1736              		.loc 1 759 17 is_stmt 0 discriminator 1 view .LVU609
 1737 0392 2544     		add	r5, r5, r4
 1738              	.LVL175:
 759:Middlewares/lvgl/src/widgets/lv_table.c ****         }
 1739              		.loc 1 759 17 discriminator 1 view .LVU610
 1740 0394 ADB2     		uxth	r5, r5
 1741              	.LVL176:
 1742              	.L47:
 759:Middlewares/lvgl/src/widgets/lv_table.c ****         }
 1743              		.loc 1 759 17 discriminator 1 view .LVU611
 1744              	.LBE142:
 643:Middlewares/lvgl/src/widgets/lv_table.c ****             lv_table_cell_ctrl_t ctrl = 0;
 1745              		.loc 1 643 44 is_stmt 1 discriminator 2 view .LVU612
 643:Middlewares/lvgl/src/widgets/lv_table.c ****             lv_table_cell_ctrl_t ctrl = 0;
 1746              		.loc 1 643 47 is_stmt 0 discriminator 2 view .LVU613
 1747 0396 0135     		adds	r5, r5, #1
 1748              	.LVL177:
 643:Middlewares/lvgl/src/widgets/lv_table.c ****             lv_table_cell_ctrl_t ctrl = 0;
 1749              		.loc 1 643 47 discriminator 2 view .LVU614
 1750 0398 ADB2     		uxth	r5, r5
 1751              	.LVL178:
 1752              	.L63:
 643:Middlewares/lvgl/src/widgets/lv_table.c ****             lv_table_cell_ctrl_t ctrl = 0;
 1753              		.loc 1 643 22 is_stmt 1 discriminator 1 view .LVU615
 643:Middlewares/lvgl/src/widgets/lv_table.c ****             lv_table_cell_ctrl_t ctrl = 0;
 1754              		.loc 1 643 33 is_stmt 0 discriminator 1 view .LVU616
 1755 039a B98C     		ldrh	r1, [r7, #36]
 643:Middlewares/lvgl/src/widgets/lv_table.c ****             lv_table_cell_ctrl_t ctrl = 0;
 1756              		.loc 1 643 9 discriminator 1 view .LVU617
 1757 039c A942     		cmp	r1, r5
 1758 039e 6ED9     		bls	.L73
 1759              	.LBB152:
 644:Middlewares/lvgl/src/widgets/lv_table.c ****             if(table->cell_data[cell]) ctrl = table->cell_data[cell][0];
 1760              		.loc 1 644 13 is_stmt 1 view .LVU618
 1761              	.LVL179:
 645:Middlewares/lvgl/src/widgets/lv_table.c **** 
 1762              		.loc 1 645 13 view .LVU619
 645:Middlewares/lvgl/src/widgets/lv_table.c **** 
 1763              		.loc 1 645 21 is_stmt 0 view .LVU620
 1764 03a0 B86A     		ldr	r0, [r7, #40]
 645:Middlewares/lvgl/src/widgets/lv_table.c **** 
 1765              		.loc 1 645 32 view .LVU621
 1766 03a2 4FEA8A08 		lsl	r8, r10, #2
 1767 03a6 50F82A30 		ldr	r3, [r0, r10, lsl #2]
 645:Middlewares/lvgl/src/widgets/lv_table.c **** 
 1768              		.loc 1 645 15 view .LVU622
 1769 03aa 002B     		cmp	r3, #0
 1770 03ac 3FF4C8AE 		beq	.L66
 645:Middlewares/lvgl/src/widgets/lv_table.c **** 
 1771              		.loc 1 645 40 is_stmt 1 discriminator 1 view .LVU623
 645:Middlewares/lvgl/src/widgets/lv_table.c **** 
 1772              		.loc 1 645 45 is_stmt 0 discriminator 1 view .LVU624
 1773 03b0 1E78     		ldrb	r6, [r3]	@ zero_extendqisi2
 1774              	.LVL180:
 1775              	.L38:
ARM GAS  /tmp/ccQS5ib5.s 			page 67


 647:Middlewares/lvgl/src/widgets/lv_table.c ****                 cell_area.x2 = cell_area.x1 - 1;
 1776              		.loc 1 647 13 is_stmt 1 view .LVU625
 647:Middlewares/lvgl/src/widgets/lv_table.c ****                 cell_area.x2 = cell_area.x1 - 1;
 1777              		.loc 1 647 15 is_stmt 0 view .LVU626
 1778 03b2 BBF1010F 		cmp	fp, #1
 1779 03b6 3FF4C5AE 		beq	.L74
 652:Middlewares/lvgl/src/widgets/lv_table.c ****                 cell_area.x2 = cell_area.x1 + table->col_w[col] - 1;
 1780              		.loc 1 652 17 is_stmt 1 view .LVU627
 652:Middlewares/lvgl/src/widgets/lv_table.c ****                 cell_area.x2 = cell_area.x1 + table->col_w[col] - 1;
 1781              		.loc 1 652 41 is_stmt 0 view .LVU628
 1782 03ba BDF86031 		ldrh	r3, [sp, #352]
 652:Middlewares/lvgl/src/widgets/lv_table.c ****                 cell_area.x2 = cell_area.x1 + table->col_w[col] - 1;
 1783              		.loc 1 652 45 view .LVU629
 1784 03be 0133     		adds	r3, r3, #1
 652:Middlewares/lvgl/src/widgets/lv_table.c ****                 cell_area.x2 = cell_area.x1 + table->col_w[col] - 1;
 1785              		.loc 1 652 30 view .LVU630
 1786 03c0 ADF85C31 		strh	r3, [sp, #348]	@ movhi
 653:Middlewares/lvgl/src/widgets/lv_table.c ****             }
 1787              		.loc 1 653 17 is_stmt 1 view .LVU631
 653:Middlewares/lvgl/src/widgets/lv_table.c ****             }
 1788              		.loc 1 653 52 is_stmt 0 view .LVU632
 1789 03c4 3A6B     		ldr	r2, [r7, #48]
 653:Middlewares/lvgl/src/widgets/lv_table.c ****             }
 1790              		.loc 1 653 59 view .LVU633
 1791 03c6 32F81520 		ldrh	r2, [r2, r5, lsl #1]
 653:Middlewares/lvgl/src/widgets/lv_table.c ****             }
 1792              		.loc 1 653 45 view .LVU634
 1793 03ca 12FA83F3 		uxtah	r3, r2, r3
 1794 03ce 9BB2     		uxth	r3, r3
 653:Middlewares/lvgl/src/widgets/lv_table.c ****             }
 1795              		.loc 1 653 65 view .LVU635
 1796 03d0 013B     		subs	r3, r3, #1
 653:Middlewares/lvgl/src/widgets/lv_table.c ****             }
 1797              		.loc 1 653 30 view .LVU636
 1798 03d2 ADF86031 		strh	r3, [sp, #352]	@ movhi
 1799              	.L40:
 644:Middlewares/lvgl/src/widgets/lv_table.c ****             if(table->cell_data[cell]) ctrl = table->cell_data[cell][0];
 1800              		.loc 1 644 34 discriminator 1 view .LVU637
 1801 03d6 0024     		movs	r4, #0
 1802 03d8 CEE6     		b	.L44
 1803              	.LVL181:
 1804              	.L70:
 674:Middlewares/lvgl/src/widgets/lv_table.c ****                 col += col_merge;
 1805              		.loc 1 674 17 is_stmt 1 view .LVU638
 674:Middlewares/lvgl/src/widgets/lv_table.c ****                 col += col_merge;
 1806              		.loc 1 674 22 is_stmt 0 view .LVU639
 1807 03da A244     		add	r10, r10, r4
 1808              	.LVL182:
 674:Middlewares/lvgl/src/widgets/lv_table.c ****                 col += col_merge;
 1809              		.loc 1 674 22 view .LVU640
 1810 03dc 1FFA8AFA 		uxth	r10, r10
 1811 03e0 0AF1010A 		add	r10, r10, #1
 1812 03e4 1FFA8AFA 		uxth	r10, r10
 1813              	.LVL183:
 675:Middlewares/lvgl/src/widgets/lv_table.c ****                 continue;
 1814              		.loc 1 675 17 is_stmt 1 view .LVU641
 675:Middlewares/lvgl/src/widgets/lv_table.c ****                 continue;
ARM GAS  /tmp/ccQS5ib5.s 			page 68


 1815              		.loc 1 675 21 is_stmt 0 view .LVU642
 1816 03e8 2544     		add	r5, r5, r4
 1817              	.LVL184:
 675:Middlewares/lvgl/src/widgets/lv_table.c ****                 continue;
 1818              		.loc 1 675 21 view .LVU643
 1819 03ea ADB2     		uxth	r5, r5
 1820              	.LVL185:
 676:Middlewares/lvgl/src/widgets/lv_table.c ****             }
 1821              		.loc 1 676 17 is_stmt 1 view .LVU644
 1822 03ec D3E7     		b	.L47
 1823              	.LVL186:
 1824              	.L71:
 698:Middlewares/lvgl/src/widgets/lv_table.c ****                 if(obj->state & LV_STATE_FOCUSED) cell_state |= LV_STATE_FOCUSED;
 1825              		.loc 1 698 17 view .LVU645
 698:Middlewares/lvgl/src/widgets/lv_table.c ****                 if(obj->state & LV_STATE_FOCUSED) cell_state |= LV_STATE_FOCUSED;
 1826              		.loc 1 698 25 is_stmt 0 view .LVU646
 1827 03ee 3A8C     		ldrh	r2, [r7, #32]
 1828 03f0 02F06003 		and	r3, r2, #96
 698:Middlewares/lvgl/src/widgets/lv_table.c ****                 if(obj->state & LV_STATE_FOCUSED) cell_state |= LV_STATE_FOCUSED;
 1829              		.loc 1 698 19 view .LVU647
 1830 03f4 202B     		cmp	r3, #32
 1831 03f6 00D0     		beq	.L53
 696:Middlewares/lvgl/src/widgets/lv_table.c ****             if(row == table->row_act && col == table->col_act) {
 1832              		.loc 1 696 24 view .LVU648
 1833 03f8 0023     		movs	r3, #0
 1834              	.L53:
 1835              	.LVL187:
 699:Middlewares/lvgl/src/widgets/lv_table.c ****                 if(obj->state & LV_STATE_FOCUS_KEY) cell_state |= LV_STATE_FOCUS_KEY;
 1836              		.loc 1 699 17 is_stmt 1 view .LVU649
 699:Middlewares/lvgl/src/widgets/lv_table.c ****                 if(obj->state & LV_STATE_FOCUS_KEY) cell_state |= LV_STATE_FOCUS_KEY;
 1837              		.loc 1 699 19 is_stmt 0 view .LVU650
 1838 03fa 12F0020F 		tst	r2, #2
 1839 03fe 01D0     		beq	.L54
 699:Middlewares/lvgl/src/widgets/lv_table.c ****                 if(obj->state & LV_STATE_FOCUS_KEY) cell_state |= LV_STATE_FOCUS_KEY;
 1840              		.loc 1 699 51 is_stmt 1 discriminator 1 view .LVU651
 699:Middlewares/lvgl/src/widgets/lv_table.c ****                 if(obj->state & LV_STATE_FOCUS_KEY) cell_state |= LV_STATE_FOCUS_KEY;
 1841              		.loc 1 699 62 is_stmt 0 discriminator 1 view .LVU652
 1842 0400 43F00203 		orr	r3, r3, #2
 1843              	.LVL188:
 1844              	.L54:
 700:Middlewares/lvgl/src/widgets/lv_table.c ****                 if(obj->state & LV_STATE_EDITED) cell_state |= LV_STATE_EDITED;
 1845              		.loc 1 700 17 is_stmt 1 view .LVU653
 700:Middlewares/lvgl/src/widgets/lv_table.c ****                 if(obj->state & LV_STATE_EDITED) cell_state |= LV_STATE_EDITED;
 1846              		.loc 1 700 19 is_stmt 0 view .LVU654
 1847 0404 12F0040F 		tst	r2, #4
 1848 0408 01D0     		beq	.L55
 700:Middlewares/lvgl/src/widgets/lv_table.c ****                 if(obj->state & LV_STATE_EDITED) cell_state |= LV_STATE_EDITED;
 1849              		.loc 1 700 53 is_stmt 1 discriminator 1 view .LVU655
 700:Middlewares/lvgl/src/widgets/lv_table.c ****                 if(obj->state & LV_STATE_EDITED) cell_state |= LV_STATE_EDITED;
 1850              		.loc 1 700 64 is_stmt 0 discriminator 1 view .LVU656
 1851 040a 43F00403 		orr	r3, r3, #4
 1852              	.LVL189:
 1853              	.L55:
 701:Middlewares/lvgl/src/widgets/lv_table.c ****             }
 1854              		.loc 1 701 17 is_stmt 1 view .LVU657
 701:Middlewares/lvgl/src/widgets/lv_table.c ****             }
 1855              		.loc 1 701 19 is_stmt 0 view .LVU658
ARM GAS  /tmp/ccQS5ib5.s 			page 69


 1856 040e 12F0080F 		tst	r2, #8
 1857 0412 01D0     		beq	.L56
 701:Middlewares/lvgl/src/widgets/lv_table.c ****             }
 1858              		.loc 1 701 50 is_stmt 1 discriminator 1 view .LVU659
 701:Middlewares/lvgl/src/widgets/lv_table.c ****             }
 1859              		.loc 1 701 61 is_stmt 0 discriminator 1 view .LVU660
 1860 0414 43F00803 		orr	r3, r3, #8
 1861              	.LVL190:
 1862              	.L56:
 705:Middlewares/lvgl/src/widgets/lv_table.c ****                 lv_memcpy(&rect_dsc_act, &rect_dsc_def, sizeof(lv_draw_rect_dsc_t));
 1863              		.loc 1 705 13 is_stmt 1 view .LVU661
 705:Middlewares/lvgl/src/widgets/lv_table.c ****                 lv_memcpy(&rect_dsc_act, &rect_dsc_def, sizeof(lv_draw_rect_dsc_t));
 1864              		.loc 1 705 15 is_stmt 0 view .LVU662
 1865 0418 002B     		cmp	r3, #0
 1866 041a 3FF438AF 		beq	.L52
 711:Middlewares/lvgl/src/widgets/lv_table.c ****                 obj->skip_trans = 1;
 1867              		.loc 1 711 17 is_stmt 1 view .LVU663
 711:Middlewares/lvgl/src/widgets/lv_table.c ****                 obj->skip_trans = 1;
 1868              		.loc 1 711 28 is_stmt 0 view .LVU664
 1869 041e 3B84     		strh	r3, [r7, #32]	@ movhi
 712:Middlewares/lvgl/src/widgets/lv_table.c ****                 lv_draw_rect_dsc_init(&rect_dsc_act);
 1870              		.loc 1 712 17 is_stmt 1 view .LVU665
 712:Middlewares/lvgl/src/widgets/lv_table.c ****                 lv_draw_rect_dsc_init(&rect_dsc_act);
 1871              		.loc 1 712 33 is_stmt 0 view .LVU666
 1872 0420 97F82230 		ldrb	r3, [r7, #34]	@ zero_extendqisi2
 1873              	.LVL191:
 712:Middlewares/lvgl/src/widgets/lv_table.c ****                 lv_draw_rect_dsc_init(&rect_dsc_act);
 1874              		.loc 1 712 33 view .LVU667
 1875 0424 43F00403 		orr	r3, r3, #4
 1876 0428 87F82230 		strb	r3, [r7, #34]
 713:Middlewares/lvgl/src/widgets/lv_table.c ****                 lv_draw_label_dsc_init(&label_dsc_act);
 1877              		.loc 1 713 17 is_stmt 1 view .LVU668
 1878 042c 3BA8     		add	r0, sp, #236
 1879 042e FFF7FEFF 		bl	lv_draw_rect_dsc_init
 1880              	.LVL192:
 714:Middlewares/lvgl/src/widgets/lv_table.c ****                 lv_obj_init_draw_rect_dsc(obj, LV_PART_ITEMS, &rect_dsc_act);
 1881              		.loc 1 714 17 view .LVU669
 1882 0432 2BA8     		add	r0, sp, #172
 1883 0434 FFF7FEFF 		bl	lv_draw_label_dsc_init
 1884              	.LVL193:
 715:Middlewares/lvgl/src/widgets/lv_table.c ****                 lv_obj_init_draw_label_dsc(obj, LV_PART_ITEMS, &label_dsc_act);
 1885              		.loc 1 715 17 view .LVU670
 1886 0438 3BAA     		add	r2, sp, #236
 1887 043a 4FF4A021 		mov	r1, #327680
 1888 043e 3846     		mov	r0, r7
 1889 0440 FFF7FEFF 		bl	lv_obj_init_draw_rect_dsc
 1890              	.LVL194:
 716:Middlewares/lvgl/src/widgets/lv_table.c ****                 obj->state = state_ori;
 1891              		.loc 1 716 17 view .LVU671
 1892 0444 2BAA     		add	r2, sp, #172
 1893 0446 4FF4A021 		mov	r1, #327680
 1894 044a 3846     		mov	r0, r7
 1895 044c FFF7FEFF 		bl	lv_obj_init_draw_label_dsc
 1896              	.LVL195:
 717:Middlewares/lvgl/src/widgets/lv_table.c ****                 obj->skip_trans = 0;
 1897              		.loc 1 717 17 view .LVU672
 717:Middlewares/lvgl/src/widgets/lv_table.c ****                 obj->skip_trans = 0;
ARM GAS  /tmp/ccQS5ib5.s 			page 70


 1898              		.loc 1 717 28 is_stmt 0 view .LVU673
 1899 0450 129B     		ldr	r3, [sp, #72]
 1900 0452 3B84     		strh	r3, [r7, #32]	@ movhi
 718:Middlewares/lvgl/src/widgets/lv_table.c ****             }
 1901              		.loc 1 718 17 is_stmt 1 view .LVU674
 718:Middlewares/lvgl/src/widgets/lv_table.c ****             }
 1902              		.loc 1 718 33 is_stmt 0 view .LVU675
 1903 0454 97F82230 		ldrb	r3, [r7, #34]	@ zero_extendqisi2
 1904 0458 6FF38203 		bfc	r3, #2, #1
 1905 045c 87F82230 		strb	r3, [r7, #34]
 1906 0460 1FE7     		b	.L58
 1907              	.LVL196:
 1908              	.L67:
 1909              	.LBB150:
 736:Middlewares/lvgl/src/widgets/lv_table.c **** 
 1910              		.loc 1 736 32 view .LVU676
 1911 0462 0022     		movs	r2, #0
 1912 0464 58E7     		b	.L60
 1913              	.LVL197:
 1914              	.L72:
 752:Middlewares/lvgl/src/widgets/lv_table.c ****                 }
 1915              		.loc 1 752 21 is_stmt 1 view .LVU677
 752:Middlewares/lvgl/src/widgets/lv_table.c ****                 }
 1916              		.loc 1 752 80 is_stmt 0 view .LVU678
 1917 0466 BB6A     		ldr	r3, [r7, #40]
 752:Middlewares/lvgl/src/widgets/lv_table.c ****                 }
 1918              		.loc 1 752 91 view .LVU679
 1919 0468 53F80830 		ldr	r3, [r3, r8]
 752:Middlewares/lvgl/src/widgets/lv_table.c ****                 }
 1920              		.loc 1 752 21 view .LVU680
 1921 046c 0022     		movs	r2, #0
 1922 046e 0092     		str	r2, [sp]
 1923 0470 0133     		adds	r3, r3, #1
 1924 0472 2BAA     		add	r2, sp, #172
 1925 0474 17A9     		add	r1, sp, #92
 1926 0476 55A8     		add	r0, sp, #340
 1927              	.LVL198:
 752:Middlewares/lvgl/src/widgets/lv_table.c ****                 }
 1928              		.loc 1 752 21 view .LVU681
 1929 0478 FFF7FEFF 		bl	lv_draw_label
 1930              	.LVL199:
 1931 047c 7DE7     		b	.L59
 1932              	.LVL200:
 1933              	.L73:
 752:Middlewares/lvgl/src/widgets/lv_table.c ****                 }
 1934              		.loc 1 752 21 view .LVU682
 1935              	.LBE150:
 1936              	.LBE152:
 1937              	.LBE141:
 632:Middlewares/lvgl/src/widgets/lv_table.c ****         lv_coord_t h_row = table->row_h[row];
 1938              		.loc 1 632 40 is_stmt 1 discriminator 2 view .LVU683
 632:Middlewares/lvgl/src/widgets/lv_table.c ****         lv_coord_t h_row = table->row_h[row];
 1939              		.loc 1 632 43 is_stmt 0 discriminator 2 view .LVU684
 1940 047e 069B     		ldr	r3, [sp, #24]
 1941 0480 0133     		adds	r3, r3, #1
 1942 0482 9BB2     		uxth	r3, r3
 1943 0484 0693     		str	r3, [sp, #24]
ARM GAS  /tmp/ccQS5ib5.s 			page 71


 1944              	.LVL201:
 1945              	.L33:
 632:Middlewares/lvgl/src/widgets/lv_table.c ****         lv_coord_t h_row = table->row_h[row];
 1946              		.loc 1 632 18 is_stmt 1 discriminator 1 view .LVU685
 632:Middlewares/lvgl/src/widgets/lv_table.c ****         lv_coord_t h_row = table->row_h[row];
 1947              		.loc 1 632 29 is_stmt 0 discriminator 1 view .LVU686
 1948 0486 FB8C     		ldrh	r3, [r7, #38]
 632:Middlewares/lvgl/src/widgets/lv_table.c ****         lv_coord_t h_row = table->row_h[row];
 1949              		.loc 1 632 5 discriminator 1 view .LVU687
 1950 0488 069A     		ldr	r2, [sp, #24]
 1951 048a 9342     		cmp	r3, r2
 1952 048c 24D9     		bls	.L32
 1953              	.LBB154:
 633:Middlewares/lvgl/src/widgets/lv_table.c **** 
 1954              		.loc 1 633 9 is_stmt 1 view .LVU688
 633:Middlewares/lvgl/src/widgets/lv_table.c **** 
 1955              		.loc 1 633 33 is_stmt 0 view .LVU689
 1956 048e FB6A     		ldr	r3, [r7, #44]
 633:Middlewares/lvgl/src/widgets/lv_table.c **** 
 1957              		.loc 1 633 20 view .LVU690
 1958 0490 069A     		ldr	r2, [sp, #24]
 1959 0492 33F91210 		ldrsh	r1, [r3, r2, lsl #1]
 1960 0496 0B91     		str	r1, [sp, #44]
 1961              	.LVL202:
 635:Middlewares/lvgl/src/widgets/lv_table.c ****         cell_area.y2 = cell_area.y1 + h_row - 1;
 1962              		.loc 1 635 9 is_stmt 1 view .LVU691
 635:Middlewares/lvgl/src/widgets/lv_table.c ****         cell_area.y2 = cell_area.y1 + h_row - 1;
 1963              		.loc 1 635 33 is_stmt 0 view .LVU692
 1964 0498 BDF86231 		ldrh	r3, [sp, #354]
 635:Middlewares/lvgl/src/widgets/lv_table.c ****         cell_area.y2 = cell_area.y1 + h_row - 1;
 1965              		.loc 1 635 37 view .LVU693
 1966 049c 0133     		adds	r3, r3, #1
 1967 049e 1AB2     		sxth	r2, r3
 635:Middlewares/lvgl/src/widgets/lv_table.c ****         cell_area.y2 = cell_area.y1 + h_row - 1;
 1968              		.loc 1 635 22 view .LVU694
 1969 04a0 ADF85E21 		strh	r2, [sp, #350]	@ movhi
 636:Middlewares/lvgl/src/widgets/lv_table.c **** 
 1970              		.loc 1 636 9 is_stmt 1 view .LVU695
 636:Middlewares/lvgl/src/widgets/lv_table.c **** 
 1971              		.loc 1 636 37 is_stmt 0 view .LVU696
 1972 04a4 11FA83F3 		uxtah	r3, r1, r3
 1973 04a8 9BB2     		uxth	r3, r3
 636:Middlewares/lvgl/src/widgets/lv_table.c **** 
 1974              		.loc 1 636 45 view .LVU697
 1975 04aa 013B     		subs	r3, r3, #1
 636:Middlewares/lvgl/src/widgets/lv_table.c **** 
 1976              		.loc 1 636 22 view .LVU698
 1977 04ac ADF86231 		strh	r3, [sp, #354]	@ movhi
 638:Middlewares/lvgl/src/widgets/lv_table.c **** 
 1978              		.loc 1 638 9 is_stmt 1 view .LVU699
 638:Middlewares/lvgl/src/widgets/lv_table.c **** 
 1979              		.loc 1 638 36 is_stmt 0 view .LVU700
 1980 04b0 059B     		ldr	r3, [sp, #20]
 1981 04b2 B3F90630 		ldrsh	r3, [r3, #6]
 638:Middlewares/lvgl/src/widgets/lv_table.c **** 
 1982              		.loc 1 638 11 view .LVU701
 1983 04b6 9A42     		cmp	r2, r3
ARM GAS  /tmp/ccQS5ib5.s 			page 72


 1984 04b8 0EDC     		bgt	.L32
 640:Middlewares/lvgl/src/widgets/lv_table.c ****         else cell_area.x2 = obj->coords.x1 + bg_left - 1 - scroll_x;
 1985              		.loc 1 640 9 is_stmt 1 view .LVU702
 640:Middlewares/lvgl/src/widgets/lv_table.c ****         else cell_area.x2 = obj->coords.x1 + bg_left - 1 - scroll_x;
 1986              		.loc 1 640 11 is_stmt 0 view .LVU703
 1987 04ba BBF1010F 		cmp	fp, #1
 1988 04be 3FF435AE 		beq	.L75
 641:Middlewares/lvgl/src/widgets/lv_table.c **** 
 1989              		.loc 1 641 14 is_stmt 1 view .LVU704
 641:Middlewares/lvgl/src/widgets/lv_table.c **** 
 1990              		.loc 1 641 40 is_stmt 0 view .LVU705
 1991 04c2 BB8A     		ldrh	r3, [r7, #20]
 641:Middlewares/lvgl/src/widgets/lv_table.c **** 
 1992              		.loc 1 641 44 view .LVU706
 1993 04c4 119A     		ldr	r2, [sp, #68]
 1994 04c6 1344     		add	r3, r3, r2
 1995 04c8 9BB2     		uxth	r3, r3
 641:Middlewares/lvgl/src/widgets/lv_table.c **** 
 1996              		.loc 1 641 58 view .LVU707
 1997 04ca 109A     		ldr	r2, [sp, #64]
 1998 04cc 9B1A     		subs	r3, r3, r2
 1999 04ce 013B     		subs	r3, r3, #1
 641:Middlewares/lvgl/src/widgets/lv_table.c **** 
 2000              		.loc 1 641 27 view .LVU708
 2001 04d0 ADF86031 		strh	r3, [sp, #352]	@ movhi
 2002              	.L37:
 2003              	.LBB153:
 2004              	.LBB151:
 735:Middlewares/lvgl/src/widgets/lv_table.c ****                 else txt_flags = LV_TEXT_FLAG_NONE;
 2005              		.loc 1 735 36 discriminator 1 view .LVU709
 2006 04d4 0025     		movs	r5, #0
 2007 04d6 60E7     		b	.L63
 2008              	.LVL203:
 2009              	.L32:
 735:Middlewares/lvgl/src/widgets/lv_table.c ****                 else txt_flags = LV_TEXT_FLAG_NONE;
 2010              		.loc 1 735 36 discriminator 1 view .LVU710
 2011              	.LBE151:
 2012              	.LBE153:
 2013              	.LBE154:
 762:Middlewares/lvgl/src/widgets/lv_table.c **** 
 2014              		.loc 1 762 1 view .LVU711
 2015 04d8 5BB0     		add	sp, sp, #364
 2016              	.LCFI12:
 2017              		.cfi_def_cfa_offset 36
 2018              		@ sp needed
 2019 04da BDE8F08F 		pop	{r4, r5, r6, r7, r8, r9, r10, fp, pc}
 762:Middlewares/lvgl/src/widgets/lv_table.c **** 
 2020              		.loc 1 762 1 view .LVU712
 2021              		.cfi_endproc
 2022              	.LFE164:
 2024              		.section	.text.lv_table_event,"ax",%progbits
 2025              		.align	1
 2026              		.syntax unified
 2027              		.thumb
 2028              		.thumb_func
 2029              		.fpu fpv4-sp-d16
 2031              	lv_table_event:
ARM GAS  /tmp/ccQS5ib5.s 			page 73


 2032              	.LVL204:
 2033              	.LFB163:
 469:Middlewares/lvgl/src/widgets/lv_table.c ****     LV_UNUSED(class_p);
 2034              		.loc 1 469 1 is_stmt 1 view -0
 2035              		.cfi_startproc
 2036              		@ args = 0, pretend = 0, frame = 8
 2037              		@ frame_needed = 0, uses_anonymous_args = 0
 469:Middlewares/lvgl/src/widgets/lv_table.c ****     LV_UNUSED(class_p);
 2038              		.loc 1 469 1 is_stmt 0 view .LVU714
 2039 0000 70B5     		push	{r4, r5, r6, lr}
 2040              	.LCFI13:
 2041              		.cfi_def_cfa_offset 16
 2042              		.cfi_offset 4, -16
 2043              		.cfi_offset 5, -12
 2044              		.cfi_offset 6, -8
 2045              		.cfi_offset 14, -4
 2046 0002 82B0     		sub	sp, sp, #8
 2047              	.LCFI14:
 2048              		.cfi_def_cfa_offset 24
 2049 0004 0C46     		mov	r4, r1
 470:Middlewares/lvgl/src/widgets/lv_table.c **** 
 2050              		.loc 1 470 5 is_stmt 1 view .LVU715
 472:Middlewares/lvgl/src/widgets/lv_table.c **** 
 2051              		.loc 1 472 5 view .LVU716
 475:Middlewares/lvgl/src/widgets/lv_table.c ****     if(res != LV_RES_OK) return;
 2052              		.loc 1 475 5 view .LVU717
 475:Middlewares/lvgl/src/widgets/lv_table.c ****     if(res != LV_RES_OK) return;
 2053              		.loc 1 475 11 is_stmt 0 view .LVU718
 2054 0006 7148     		ldr	r0, .L125
 2055              	.LVL205:
 475:Middlewares/lvgl/src/widgets/lv_table.c ****     if(res != LV_RES_OK) return;
 2056              		.loc 1 475 11 view .LVU719
 2057 0008 FFF7FEFF 		bl	lv_obj_event_base
 2058              	.LVL206:
 476:Middlewares/lvgl/src/widgets/lv_table.c **** 
 2059              		.loc 1 476 5 is_stmt 1 view .LVU720
 476:Middlewares/lvgl/src/widgets/lv_table.c **** 
 2060              		.loc 1 476 7 is_stmt 0 view .LVU721
 2061 000c 0128     		cmp	r0, #1
 2062 000e 01D0     		beq	.L111
 2063              	.LVL207:
 2064              	.L76:
 578:Middlewares/lvgl/src/widgets/lv_table.c **** 
 2065              		.loc 1 578 1 view .LVU722
 2066 0010 02B0     		add	sp, sp, #8
 2067              	.LCFI15:
 2068              		.cfi_remember_state
 2069              		.cfi_def_cfa_offset 16
 2070              		@ sp needed
 2071 0012 70BD     		pop	{r4, r5, r6, pc}
 2072              	.LVL208:
 2073              	.L111:
 2074              	.LCFI16:
 2075              		.cfi_restore_state
 478:Middlewares/lvgl/src/widgets/lv_table.c ****     lv_obj_t * obj = lv_event_get_target(e);
 2076              		.loc 1 478 5 is_stmt 1 view .LVU723
 478:Middlewares/lvgl/src/widgets/lv_table.c ****     lv_obj_t * obj = lv_event_get_target(e);
ARM GAS  /tmp/ccQS5ib5.s 			page 74


 2077              		.loc 1 478 28 is_stmt 0 view .LVU724
 2078 0014 2046     		mov	r0, r4
 2079              	.LVL209:
 478:Middlewares/lvgl/src/widgets/lv_table.c ****     lv_obj_t * obj = lv_event_get_target(e);
 2080              		.loc 1 478 28 view .LVU725
 2081 0016 FFF7FEFF 		bl	lv_event_get_code
 2082              	.LVL210:
 2083 001a 0646     		mov	r6, r0
 2084              	.LVL211:
 479:Middlewares/lvgl/src/widgets/lv_table.c ****     lv_table_t * table = (lv_table_t *)obj;
 2085              		.loc 1 479 5 is_stmt 1 view .LVU726
 479:Middlewares/lvgl/src/widgets/lv_table.c ****     lv_table_t * table = (lv_table_t *)obj;
 2086              		.loc 1 479 22 is_stmt 0 view .LVU727
 2087 001c 2046     		mov	r0, r4
 2088 001e FFF7FEFF 		bl	lv_event_get_target
 2089              	.LVL212:
 2090 0022 0546     		mov	r5, r0
 2091              	.LVL213:
 480:Middlewares/lvgl/src/widgets/lv_table.c **** 
 2092              		.loc 1 480 5 is_stmt 1 view .LVU728
 482:Middlewares/lvgl/src/widgets/lv_table.c ****         refr_size(obj, 0);
 2093              		.loc 1 482 5 view .LVU729
 482:Middlewares/lvgl/src/widgets/lv_table.c ****         refr_size(obj, 0);
 2094              		.loc 1 482 7 is_stmt 0 view .LVU730
 2095 0024 242E     		cmp	r6, #36
 2096 0026 11D0     		beq	.L112
 485:Middlewares/lvgl/src/widgets/lv_table.c ****         lv_point_t * p = lv_event_get_param(e);
 2097              		.loc 1 485 10 is_stmt 1 view .LVU731
 485:Middlewares/lvgl/src/widgets/lv_table.c ****         lv_point_t * p = lv_event_get_param(e);
 2098              		.loc 1 485 12 is_stmt 0 view .LVU732
 2099 0028 262E     		cmp	r6, #38
 2100 002a 13D0     		beq	.L113
 497:Middlewares/lvgl/src/widgets/lv_table.c ****         uint16_t col;
 2101              		.loc 1 497 10 is_stmt 1 view .LVU733
 497:Middlewares/lvgl/src/widgets/lv_table.c ****         uint16_t col;
 2102              		.loc 1 497 38 is_stmt 0 view .LVU734
 2103 002c 731E     		subs	r3, r6, #1
 2104 002e DBB2     		uxtb	r3, r3
 497:Middlewares/lvgl/src/widgets/lv_table.c ****         uint16_t col;
 2105              		.loc 1 497 12 view .LVU735
 2106 0030 012B     		cmp	r3, #1
 2107 0032 2DD9     		bls	.L114
 508:Middlewares/lvgl/src/widgets/lv_table.c ****         lv_obj_invalidate(obj);
 2108              		.loc 1 508 10 is_stmt 1 view .LVU736
 508:Middlewares/lvgl/src/widgets/lv_table.c ****         lv_obj_invalidate(obj);
 2109              		.loc 1 508 12 is_stmt 0 view .LVU737
 2110 0034 082E     		cmp	r6, #8
 2111 0036 46D0     		beq	.L115
 523:Middlewares/lvgl/src/widgets/lv_table.c ****         lv_obj_invalidate(obj);
 2112              		.loc 1 523 10 is_stmt 1 view .LVU738
 523:Middlewares/lvgl/src/widgets/lv_table.c ****         lv_obj_invalidate(obj);
 2113              		.loc 1 523 12 is_stmt 0 view .LVU739
 2114 0038 0E2E     		cmp	r6, #14
 2115 003a 68D0     		beq	.L116
 525:Middlewares/lvgl/src/widgets/lv_table.c ****         int32_t c = *((int32_t *)lv_event_get_param(e));
 2116              		.loc 1 525 12 is_stmt 1 view .LVU740
 525:Middlewares/lvgl/src/widgets/lv_table.c ****         int32_t c = *((int32_t *)lv_event_get_param(e));
ARM GAS  /tmp/ccQS5ib5.s 			page 75


 2117              		.loc 1 525 14 is_stmt 0 view .LVU741
 2118 003c 0D2E     		cmp	r6, #13
 2119 003e 69D0     		beq	.L117
 575:Middlewares/lvgl/src/widgets/lv_table.c ****         draw_main(e);
 2120              		.loc 1 575 12 is_stmt 1 view .LVU742
 575:Middlewares/lvgl/src/widgets/lv_table.c ****         draw_main(e);
 2121              		.loc 1 575 14 is_stmt 0 view .LVU743
 2122 0040 152E     		cmp	r6, #21
 2123 0042 E5D1     		bne	.L76
 576:Middlewares/lvgl/src/widgets/lv_table.c ****     }
 2124              		.loc 1 576 9 is_stmt 1 view .LVU744
 2125 0044 2046     		mov	r0, r4
 2126              	.LVL214:
 576:Middlewares/lvgl/src/widgets/lv_table.c ****     }
 2127              		.loc 1 576 9 is_stmt 0 view .LVU745
 2128 0046 FFF7FEFF 		bl	draw_main
 2129              	.LVL215:
 2130 004a E1E7     		b	.L76
 2131              	.LVL216:
 2132              	.L112:
 483:Middlewares/lvgl/src/widgets/lv_table.c ****     }
 2133              		.loc 1 483 9 is_stmt 1 view .LVU746
 2134 004c 0021     		movs	r1, #0
 2135 004e FFF7FEFF 		bl	refr_size
 2136              	.LVL217:
 483:Middlewares/lvgl/src/widgets/lv_table.c ****     }
 2137              		.loc 1 483 9 is_stmt 0 view .LVU747
 2138 0052 DDE7     		b	.L76
 2139              	.LVL218:
 2140              	.L113:
 2141              	.LBB155:
 486:Middlewares/lvgl/src/widgets/lv_table.c ****         uint32_t i;
 2142              		.loc 1 486 9 is_stmt 1 view .LVU748
 486:Middlewares/lvgl/src/widgets/lv_table.c ****         uint32_t i;
 2143              		.loc 1 486 26 is_stmt 0 view .LVU749
 2144 0054 2046     		mov	r0, r4
 2145              	.LVL219:
 486:Middlewares/lvgl/src/widgets/lv_table.c ****         uint32_t i;
 2146              		.loc 1 486 26 view .LVU750
 2147 0056 FFF7FEFF 		bl	lv_event_get_param
 2148              	.LVL220:
 487:Middlewares/lvgl/src/widgets/lv_table.c ****         lv_coord_t w = 0;
 2149              		.loc 1 487 9 is_stmt 1 view .LVU751
 488:Middlewares/lvgl/src/widgets/lv_table.c ****         for(i = 0; i < table->col_cnt; i++) w += table->col_w[i];
 2150              		.loc 1 488 9 view .LVU752
 489:Middlewares/lvgl/src/widgets/lv_table.c **** 
 2151              		.loc 1 489 9 view .LVU753
 488:Middlewares/lvgl/src/widgets/lv_table.c ****         for(i = 0; i < table->col_cnt; i++) w += table->col_w[i];
 2152              		.loc 1 488 20 is_stmt 0 view .LVU754
 2153 005a 0022     		movs	r2, #0
 489:Middlewares/lvgl/src/widgets/lv_table.c **** 
 2154              		.loc 1 489 15 view .LVU755
 2155 005c 1346     		mov	r3, r2
 489:Middlewares/lvgl/src/widgets/lv_table.c **** 
 2156              		.loc 1 489 9 view .LVU756
 2157 005e 05E0     		b	.L80
 2158              	.LVL221:
ARM GAS  /tmp/ccQS5ib5.s 			page 76


 2159              	.L81:
 489:Middlewares/lvgl/src/widgets/lv_table.c **** 
 2160              		.loc 1 489 45 is_stmt 1 discriminator 3 view .LVU757
 489:Middlewares/lvgl/src/widgets/lv_table.c **** 
 2161              		.loc 1 489 55 is_stmt 0 discriminator 3 view .LVU758
 2162 0060 296B     		ldr	r1, [r5, #48]
 489:Middlewares/lvgl/src/widgets/lv_table.c **** 
 2163              		.loc 1 489 62 discriminator 3 view .LVU759
 2164 0062 31F81310 		ldrh	r1, [r1, r3, lsl #1]
 489:Middlewares/lvgl/src/widgets/lv_table.c **** 
 2165              		.loc 1 489 47 discriminator 3 view .LVU760
 2166 0066 0A44     		add	r2, r2, r1
 2167              	.LVL222:
 489:Middlewares/lvgl/src/widgets/lv_table.c **** 
 2168              		.loc 1 489 47 discriminator 3 view .LVU761
 2169 0068 12B2     		sxth	r2, r2
 2170              	.LVL223:
 489:Middlewares/lvgl/src/widgets/lv_table.c **** 
 2171              		.loc 1 489 40 is_stmt 1 discriminator 3 view .LVU762
 489:Middlewares/lvgl/src/widgets/lv_table.c **** 
 2172              		.loc 1 489 41 is_stmt 0 discriminator 3 view .LVU763
 2173 006a 0133     		adds	r3, r3, #1
 2174              	.LVL224:
 2175              	.L80:
 489:Middlewares/lvgl/src/widgets/lv_table.c **** 
 2176              		.loc 1 489 20 is_stmt 1 discriminator 1 view .LVU764
 489:Middlewares/lvgl/src/widgets/lv_table.c **** 
 2177              		.loc 1 489 29 is_stmt 0 discriminator 1 view .LVU765
 2178 006c A98C     		ldrh	r1, [r5, #36]
 489:Middlewares/lvgl/src/widgets/lv_table.c **** 
 2179              		.loc 1 489 9 discriminator 1 view .LVU766
 2180 006e 9942     		cmp	r1, r3
 2181 0070 F6D8     		bhi	.L81
 491:Middlewares/lvgl/src/widgets/lv_table.c ****         for(i = 0; i < table->row_cnt; i++) h += table->row_h[i];
 2182              		.loc 1 491 20 view .LVU767
 2183 0072 0023     		movs	r3, #0
 2184              	.LVL225:
 492:Middlewares/lvgl/src/widgets/lv_table.c **** 
 2185              		.loc 1 492 15 view .LVU768
 2186 0074 1946     		mov	r1, r3
 2187 0076 05E0     		b	.L82
 2188              	.LVL226:
 2189              	.L83:
 492:Middlewares/lvgl/src/widgets/lv_table.c **** 
 2190              		.loc 1 492 45 is_stmt 1 discriminator 3 view .LVU769
 492:Middlewares/lvgl/src/widgets/lv_table.c **** 
 2191              		.loc 1 492 55 is_stmt 0 discriminator 3 view .LVU770
 2192 0078 EC6A     		ldr	r4, [r5, #44]
 492:Middlewares/lvgl/src/widgets/lv_table.c **** 
 2193              		.loc 1 492 62 discriminator 3 view .LVU771
 2194 007a 34F81140 		ldrh	r4, [r4, r1, lsl #1]
 492:Middlewares/lvgl/src/widgets/lv_table.c **** 
 2195              		.loc 1 492 47 discriminator 3 view .LVU772
 2196 007e 2344     		add	r3, r3, r4
 2197              	.LVL227:
 492:Middlewares/lvgl/src/widgets/lv_table.c **** 
 2198              		.loc 1 492 47 discriminator 3 view .LVU773
ARM GAS  /tmp/ccQS5ib5.s 			page 77


 2199 0080 1BB2     		sxth	r3, r3
 2200              	.LVL228:
 492:Middlewares/lvgl/src/widgets/lv_table.c **** 
 2201              		.loc 1 492 40 is_stmt 1 discriminator 3 view .LVU774
 492:Middlewares/lvgl/src/widgets/lv_table.c **** 
 2202              		.loc 1 492 41 is_stmt 0 discriminator 3 view .LVU775
 2203 0082 0131     		adds	r1, r1, #1
 2204              	.LVL229:
 2205              	.L82:
 492:Middlewares/lvgl/src/widgets/lv_table.c **** 
 2206              		.loc 1 492 20 is_stmt 1 discriminator 1 view .LVU776
 492:Middlewares/lvgl/src/widgets/lv_table.c **** 
 2207              		.loc 1 492 29 is_stmt 0 discriminator 1 view .LVU777
 2208 0084 EC8C     		ldrh	r4, [r5, #38]
 492:Middlewares/lvgl/src/widgets/lv_table.c **** 
 2209              		.loc 1 492 9 discriminator 1 view .LVU778
 2210 0086 8C42     		cmp	r4, r1
 2211 0088 F6D8     		bhi	.L83
 494:Middlewares/lvgl/src/widgets/lv_table.c ****         p->y = h;
 2212              		.loc 1 494 9 is_stmt 1 view .LVU779
 494:Middlewares/lvgl/src/widgets/lv_table.c ****         p->y = h;
 2213              		.loc 1 494 14 is_stmt 0 view .LVU780
 2214 008a 0280     		strh	r2, [r0]	@ movhi
 495:Middlewares/lvgl/src/widgets/lv_table.c ****     }
 2215              		.loc 1 495 9 is_stmt 1 view .LVU781
 495:Middlewares/lvgl/src/widgets/lv_table.c ****     }
 2216              		.loc 1 495 14 is_stmt 0 view .LVU782
 2217 008c 4380     		strh	r3, [r0, #2]	@ movhi
 2218              	.LBE155:
 2219 008e BFE7     		b	.L76
 2220              	.LVL230:
 2221              	.L114:
 2222              	.LBB156:
 498:Middlewares/lvgl/src/widgets/lv_table.c ****         uint16_t row;
 2223              		.loc 1 498 9 is_stmt 1 view .LVU783
 499:Middlewares/lvgl/src/widgets/lv_table.c ****         lv_res_t pr_res = get_pressed_cell(obj, &row, &col);
 2224              		.loc 1 499 9 view .LVU784
 500:Middlewares/lvgl/src/widgets/lv_table.c **** 
 2225              		.loc 1 500 9 view .LVU785
 500:Middlewares/lvgl/src/widgets/lv_table.c **** 
 2226              		.loc 1 500 27 is_stmt 0 view .LVU786
 2227 0090 01AA     		add	r2, sp, #4
 2228 0092 0DF10601 		add	r1, sp, #6
 2229 0096 FFF7FEFF 		bl	get_pressed_cell
 2230              	.LVL231:
 502:Middlewares/lvgl/src/widgets/lv_table.c ****             table->col_act = col;
 2231              		.loc 1 502 9 is_stmt 1 view .LVU787
 502:Middlewares/lvgl/src/widgets/lv_table.c ****             table->col_act = col;
 2232              		.loc 1 502 11 is_stmt 0 view .LVU788
 2233 009a 0128     		cmp	r0, #1
 2234 009c 03D0     		beq	.L118
 2235              	.L85:
 506:Middlewares/lvgl/src/widgets/lv_table.c ****     }
 2236              		.loc 1 506 9 is_stmt 1 view .LVU789
 2237 009e 2846     		mov	r0, r5
 2238              	.LVL232:
 506:Middlewares/lvgl/src/widgets/lv_table.c ****     }
ARM GAS  /tmp/ccQS5ib5.s 			page 78


 2239              		.loc 1 506 9 is_stmt 0 view .LVU790
 2240 00a0 FFF7FEFF 		bl	lv_obj_invalidate
 2241              	.LVL233:
 2242              	.LBE156:
 2243 00a4 B4E7     		b	.L76
 2244              	.LVL234:
 2245              	.L118:
 2246              	.LBB157:
 502:Middlewares/lvgl/src/widgets/lv_table.c ****             table->col_act = col;
 2247              		.loc 1 502 41 discriminator 1 view .LVU791
 2248 00a6 AA8E     		ldrh	r2, [r5, #52]
 502:Middlewares/lvgl/src/widgets/lv_table.c ****             table->col_act = col;
 2249              		.loc 1 502 51 discriminator 1 view .LVU792
 2250 00a8 BDF80430 		ldrh	r3, [sp, #4]
 502:Middlewares/lvgl/src/widgets/lv_table.c ****             table->col_act = col;
 2251              		.loc 1 502 32 discriminator 1 view .LVU793
 2252 00ac 9A42     		cmp	r2, r3
 2253 00ae 04D0     		beq	.L119
 2254              	.L86:
 503:Middlewares/lvgl/src/widgets/lv_table.c ****             table->row_act = row;
 2255              		.loc 1 503 13 is_stmt 1 view .LVU794
 503:Middlewares/lvgl/src/widgets/lv_table.c ****             table->row_act = row;
 2256              		.loc 1 503 28 is_stmt 0 view .LVU795
 2257 00b0 AB86     		strh	r3, [r5, #52]	@ movhi
 504:Middlewares/lvgl/src/widgets/lv_table.c ****         }
 2258              		.loc 1 504 13 is_stmt 1 view .LVU796
 504:Middlewares/lvgl/src/widgets/lv_table.c ****         }
 2259              		.loc 1 504 28 is_stmt 0 view .LVU797
 2260 00b2 BDF80630 		ldrh	r3, [sp, #6]
 2261 00b6 EB86     		strh	r3, [r5, #54]	@ movhi
 2262 00b8 F1E7     		b	.L85
 2263              	.L119:
 502:Middlewares/lvgl/src/widgets/lv_table.c ****             table->col_act = col;
 2264              		.loc 1 502 66 discriminator 2 view .LVU798
 2265 00ba E98E     		ldrh	r1, [r5, #54]
 502:Middlewares/lvgl/src/widgets/lv_table.c ****             table->col_act = col;
 2266              		.loc 1 502 76 discriminator 2 view .LVU799
 2267 00bc BDF80620 		ldrh	r2, [sp, #6]
 502:Middlewares/lvgl/src/widgets/lv_table.c ****             table->col_act = col;
 2268              		.loc 1 502 58 discriminator 2 view .LVU800
 2269 00c0 9142     		cmp	r1, r2
 2270 00c2 F5D1     		bne	.L86
 2271 00c4 EBE7     		b	.L85
 2272              	.LVL235:
 2273              	.L115:
 502:Middlewares/lvgl/src/widgets/lv_table.c ****             table->col_act = col;
 2274              		.loc 1 502 58 discriminator 2 view .LVU801
 2275              	.LBE157:
 2276              	.LBB158:
 509:Middlewares/lvgl/src/widgets/lv_table.c ****         lv_indev_t * indev = lv_indev_get_act();
 2277              		.loc 1 509 9 is_stmt 1 view .LVU802
 2278 00c6 FFF7FEFF 		bl	lv_obj_invalidate
 2279              	.LVL236:
 510:Middlewares/lvgl/src/widgets/lv_table.c ****         lv_obj_t * scroll_obj = lv_indev_get_scroll_obj(indev);
 2280              		.loc 1 510 9 view .LVU803
 510:Middlewares/lvgl/src/widgets/lv_table.c ****         lv_obj_t * scroll_obj = lv_indev_get_scroll_obj(indev);
 2281              		.loc 1 510 30 is_stmt 0 view .LVU804
ARM GAS  /tmp/ccQS5ib5.s 			page 79


 2282 00ca FFF7FEFF 		bl	lv_indev_get_act
 2283              	.LVL237:
 511:Middlewares/lvgl/src/widgets/lv_table.c ****         if(table->col_act != LV_TABLE_CELL_NONE && table->row_act != LV_TABLE_CELL_NONE && scroll_o
 2284              		.loc 1 511 9 is_stmt 1 view .LVU805
 511:Middlewares/lvgl/src/widgets/lv_table.c ****         if(table->col_act != LV_TABLE_CELL_NONE && table->row_act != LV_TABLE_CELL_NONE && scroll_o
 2285              		.loc 1 511 33 is_stmt 0 view .LVU806
 2286 00ce FFF7FEFF 		bl	lv_indev_get_scroll_obj
 2287              	.LVL238:
 512:Middlewares/lvgl/src/widgets/lv_table.c ****             res = lv_event_send(obj, LV_EVENT_VALUE_CHANGED, NULL);
 2288              		.loc 1 512 9 is_stmt 1 view .LVU807
 512:Middlewares/lvgl/src/widgets/lv_table.c ****             res = lv_event_send(obj, LV_EVENT_VALUE_CHANGED, NULL);
 2289              		.loc 1 512 17 is_stmt 0 view .LVU808
 2290 00d2 AA8E     		ldrh	r2, [r5, #52]
 512:Middlewares/lvgl/src/widgets/lv_table.c ****             res = lv_event_send(obj, LV_EVENT_VALUE_CHANGED, NULL);
 2291              		.loc 1 512 11 view .LVU809
 2292 00d4 4FF6FF73 		movw	r3, #65535
 2293 00d8 9A42     		cmp	r2, r3
 2294 00da 03D0     		beq	.L88
 512:Middlewares/lvgl/src/widgets/lv_table.c ****             res = lv_event_send(obj, LV_EVENT_VALUE_CHANGED, NULL);
 2295              		.loc 1 512 57 discriminator 1 view .LVU810
 2296 00dc EA8E     		ldrh	r2, [r5, #54]
 512:Middlewares/lvgl/src/widgets/lv_table.c ****             res = lv_event_send(obj, LV_EVENT_VALUE_CHANGED, NULL);
 2297              		.loc 1 512 49 discriminator 1 view .LVU811
 2298 00de 9A42     		cmp	r2, r3
 2299 00e0 00D0     		beq	.L88
 512:Middlewares/lvgl/src/widgets/lv_table.c ****             res = lv_event_send(obj, LV_EVENT_VALUE_CHANGED, NULL);
 2300              		.loc 1 512 89 discriminator 2 view .LVU812
 2301 00e2 60B1     		cbz	r0, .L120
 2302              	.LVL239:
 2303              	.L88:
 517:Middlewares/lvgl/src/widgets/lv_table.c ****         if(indev_type == LV_INDEV_TYPE_POINTER || indev_type == LV_INDEV_TYPE_BUTTON) {
 2304              		.loc 1 517 9 is_stmt 1 view .LVU813
 517:Middlewares/lvgl/src/widgets/lv_table.c ****         if(indev_type == LV_INDEV_TYPE_POINTER || indev_type == LV_INDEV_TYPE_BUTTON) {
 2305              		.loc 1 517 56 is_stmt 0 view .LVU814
 2306 00e4 FFF7FEFF 		bl	lv_indev_get_act
 2307              	.LVL240:
 517:Middlewares/lvgl/src/widgets/lv_table.c ****         if(indev_type == LV_INDEV_TYPE_POINTER || indev_type == LV_INDEV_TYPE_BUTTON) {
 2308              		.loc 1 517 38 view .LVU815
 2309 00e8 FFF7FEFF 		bl	lv_indev_get_type
 2310              	.LVL241:
 518:Middlewares/lvgl/src/widgets/lv_table.c ****             table->col_act = LV_TABLE_CELL_NONE;
 2311              		.loc 1 518 9 is_stmt 1 view .LVU816
 518:Middlewares/lvgl/src/widgets/lv_table.c ****             table->col_act = LV_TABLE_CELL_NONE;
 2312              		.loc 1 518 11 is_stmt 0 view .LVU817
 2313 00ec 0128     		cmp	r0, #1
 2314 00ee 01D0     		beq	.L89
 518:Middlewares/lvgl/src/widgets/lv_table.c ****             table->col_act = LV_TABLE_CELL_NONE;
 2315              		.loc 1 518 48 discriminator 1 view .LVU818
 2316 00f0 0328     		cmp	r0, #3
 2317 00f2 8DD1     		bne	.L76
 2318              	.L89:
 519:Middlewares/lvgl/src/widgets/lv_table.c ****             table->row_act = LV_TABLE_CELL_NONE;
 2319              		.loc 1 519 13 is_stmt 1 view .LVU819
 519:Middlewares/lvgl/src/widgets/lv_table.c ****             table->row_act = LV_TABLE_CELL_NONE;
 2320              		.loc 1 519 28 is_stmt 0 view .LVU820
 2321 00f4 4FF6FF73 		movw	r3, #65535
 2322 00f8 AB86     		strh	r3, [r5, #52]	@ movhi
ARM GAS  /tmp/ccQS5ib5.s 			page 80


 520:Middlewares/lvgl/src/widgets/lv_table.c ****         }
 2323              		.loc 1 520 13 is_stmt 1 view .LVU821
 520:Middlewares/lvgl/src/widgets/lv_table.c ****         }
 2324              		.loc 1 520 28 is_stmt 0 view .LVU822
 2325 00fa EB86     		strh	r3, [r5, #54]	@ movhi
 2326 00fc 88E7     		b	.L76
 2327              	.LVL242:
 2328              	.L120:
 513:Middlewares/lvgl/src/widgets/lv_table.c ****             if(res != LV_RES_OK) return;
 2329              		.loc 1 513 13 is_stmt 1 view .LVU823
 513:Middlewares/lvgl/src/widgets/lv_table.c ****             if(res != LV_RES_OK) return;
 2330              		.loc 1 513 19 is_stmt 0 view .LVU824
 2331 00fe 0022     		movs	r2, #0
 2332 0100 1C21     		movs	r1, #28
 2333 0102 2846     		mov	r0, r5
 2334              	.LVL243:
 513:Middlewares/lvgl/src/widgets/lv_table.c ****             if(res != LV_RES_OK) return;
 2335              		.loc 1 513 19 view .LVU825
 2336 0104 FFF7FEFF 		bl	lv_event_send
 2337              	.LVL244:
 514:Middlewares/lvgl/src/widgets/lv_table.c ****         }
 2338              		.loc 1 514 13 is_stmt 1 view .LVU826
 514:Middlewares/lvgl/src/widgets/lv_table.c ****         }
 2339              		.loc 1 514 15 is_stmt 0 view .LVU827
 2340 0108 0128     		cmp	r0, #1
 2341 010a 81D1     		bne	.L76
 2342 010c EAE7     		b	.L88
 2343              	.LVL245:
 2344              	.L116:
 514:Middlewares/lvgl/src/widgets/lv_table.c ****         }
 2345              		.loc 1 514 15 view .LVU828
 2346              	.LBE158:
 524:Middlewares/lvgl/src/widgets/lv_table.c ****     } else if(code == LV_EVENT_KEY) {
 2347              		.loc 1 524 9 is_stmt 1 view .LVU829
 2348 010e FFF7FEFF 		bl	lv_obj_invalidate
 2349              	.LVL246:
 524:Middlewares/lvgl/src/widgets/lv_table.c ****     } else if(code == LV_EVENT_KEY) {
 2350              		.loc 1 524 9 is_stmt 0 view .LVU830
 2351 0112 7DE7     		b	.L76
 2352              	.LVL247:
 2353              	.L117:
 2354              	.LBB159:
 526:Middlewares/lvgl/src/widgets/lv_table.c ****         int32_t col = table->col_act;
 2355              		.loc 1 526 9 is_stmt 1 view .LVU831
 526:Middlewares/lvgl/src/widgets/lv_table.c ****         int32_t col = table->col_act;
 2356              		.loc 1 526 34 is_stmt 0 view .LVU832
 2357 0114 2046     		mov	r0, r4
 2358              	.LVL248:
 526:Middlewares/lvgl/src/widgets/lv_table.c ****         int32_t col = table->col_act;
 2359              		.loc 1 526 34 view .LVU833
 2360 0116 FFF7FEFF 		bl	lv_event_get_param
 2361              	.LVL249:
 526:Middlewares/lvgl/src/widgets/lv_table.c ****         int32_t col = table->col_act;
 2362              		.loc 1 526 17 view .LVU834
 2363 011a 0468     		ldr	r4, [r0]
 2364              	.LVL250:
 527:Middlewares/lvgl/src/widgets/lv_table.c ****         int32_t row = table->row_act;
ARM GAS  /tmp/ccQS5ib5.s 			page 81


 2365              		.loc 1 527 9 is_stmt 1 view .LVU835
 527:Middlewares/lvgl/src/widgets/lv_table.c ****         int32_t row = table->row_act;
 2366              		.loc 1 527 28 is_stmt 0 view .LVU836
 2367 011c A98E     		ldrh	r1, [r5, #52]
 2368              	.LVL251:
 528:Middlewares/lvgl/src/widgets/lv_table.c ****         if(col == LV_TABLE_CELL_NONE || row == LV_TABLE_CELL_NONE) {
 2369              		.loc 1 528 9 is_stmt 1 view .LVU837
 528:Middlewares/lvgl/src/widgets/lv_table.c ****         if(col == LV_TABLE_CELL_NONE || row == LV_TABLE_CELL_NONE) {
 2370              		.loc 1 528 28 is_stmt 0 view .LVU838
 2371 011e E88E     		ldrh	r0, [r5, #54]
 2372              	.LVL252:
 529:Middlewares/lvgl/src/widgets/lv_table.c ****             table->col_act = 0;
 2373              		.loc 1 529 9 is_stmt 1 view .LVU839
 529:Middlewares/lvgl/src/widgets/lv_table.c ****             table->col_act = 0;
 2374              		.loc 1 529 11 is_stmt 0 view .LVU840
 2375 0120 4FF6FF73 		movw	r3, #65535
 2376 0124 9942     		cmp	r1, r3
 2377 0126 15D0     		beq	.L92
 529:Middlewares/lvgl/src/widgets/lv_table.c ****             table->col_act = 0;
 2378              		.loc 1 529 38 discriminator 1 view .LVU841
 2379 0128 9842     		cmp	r0, r3
 2380 012a 13D0     		beq	.L92
 536:Middlewares/lvgl/src/widgets/lv_table.c ****         if(row >= table->row_cnt) row = 0;
 2381              		.loc 1 536 9 is_stmt 1 view .LVU842
 536:Middlewares/lvgl/src/widgets/lv_table.c ****         if(row >= table->row_cnt) row = 0;
 2382              		.loc 1 536 24 is_stmt 0 view .LVU843
 2383 012c B5F824C0 		ldrh	ip, [r5, #36]
 536:Middlewares/lvgl/src/widgets/lv_table.c ****         if(row >= table->row_cnt) row = 0;
 2384              		.loc 1 536 11 view .LVU844
 2385 0130 6145     		cmp	r1, ip
 2386 0132 16D2     		bcs	.L106
 527:Middlewares/lvgl/src/widgets/lv_table.c ****         int32_t row = table->row_act;
 2387              		.loc 1 527 17 view .LVU845
 2388 0134 0A46     		mov	r2, r1
 2389              	.L94:
 2390              	.LVL253:
 537:Middlewares/lvgl/src/widgets/lv_table.c **** 
 2391              		.loc 1 537 9 is_stmt 1 view .LVU846
 537:Middlewares/lvgl/src/widgets/lv_table.c **** 
 2392              		.loc 1 537 24 is_stmt 0 view .LVU847
 2393 0136 EE8C     		ldrh	r6, [r5, #38]
 2394              	.LVL254:
 537:Middlewares/lvgl/src/widgets/lv_table.c **** 
 2395              		.loc 1 537 11 view .LVU848
 2396 0138 B042     		cmp	r0, r6
 2397 013a 14D2     		bcs	.L107
 528:Middlewares/lvgl/src/widgets/lv_table.c ****         if(col == LV_TABLE_CELL_NONE || row == LV_TABLE_CELL_NONE) {
 2398              		.loc 1 528 17 view .LVU849
 2399 013c 0346     		mov	r3, r0
 2400              	.L95:
 2401              	.LVL255:
 539:Middlewares/lvgl/src/widgets/lv_table.c ****         else if(c == LV_KEY_RIGHT) col++;
 2402              		.loc 1 539 9 is_stmt 1 view .LVU850
 539:Middlewares/lvgl/src/widgets/lv_table.c ****         else if(c == LV_KEY_RIGHT) col++;
 2403              		.loc 1 539 11 is_stmt 0 view .LVU851
 2404 013e 142C     		cmp	r4, #20
 2405 0140 13D0     		beq	.L121
ARM GAS  /tmp/ccQS5ib5.s 			page 82


 540:Middlewares/lvgl/src/widgets/lv_table.c ****         else if(c == LV_KEY_UP) row--;
 2406              		.loc 1 540 14 is_stmt 1 view .LVU852
 540:Middlewares/lvgl/src/widgets/lv_table.c ****         else if(c == LV_KEY_UP) row--;
 2407              		.loc 1 540 16 is_stmt 0 view .LVU853
 2408 0142 132C     		cmp	r4, #19
 2409 0144 1AD0     		beq	.L122
 541:Middlewares/lvgl/src/widgets/lv_table.c ****         else if(c == LV_KEY_DOWN) row++;
 2410              		.loc 1 541 14 is_stmt 1 view .LVU854
 541:Middlewares/lvgl/src/widgets/lv_table.c ****         else if(c == LV_KEY_DOWN) row++;
 2411              		.loc 1 541 16 is_stmt 0 view .LVU855
 2412 0146 112C     		cmp	r4, #17
 2413 0148 1AD0     		beq	.L123
 542:Middlewares/lvgl/src/widgets/lv_table.c ****         else return;
 2414              		.loc 1 542 14 is_stmt 1 view .LVU856
 542:Middlewares/lvgl/src/widgets/lv_table.c ****         else return;
 2415              		.loc 1 542 16 is_stmt 0 view .LVU857
 2416 014a 122C     		cmp	r4, #18
 2417 014c 7FF460AF 		bne	.L76
 542:Middlewares/lvgl/src/widgets/lv_table.c ****         else return;
 2418              		.loc 1 542 35 is_stmt 1 discriminator 1 view .LVU858
 542:Middlewares/lvgl/src/widgets/lv_table.c ****         else return;
 2419              		.loc 1 542 38 is_stmt 0 discriminator 1 view .LVU859
 2420 0150 0133     		adds	r3, r3, #1
 2421              	.LVL256:
 542:Middlewares/lvgl/src/widgets/lv_table.c ****         else return;
 2422              		.loc 1 542 38 discriminator 1 view .LVU860
 2423 0152 0BE0     		b	.L97
 2424              	.LVL257:
 2425              	.L92:
 530:Middlewares/lvgl/src/widgets/lv_table.c ****             table->row_act = 0;
 2426              		.loc 1 530 13 is_stmt 1 view .LVU861
 530:Middlewares/lvgl/src/widgets/lv_table.c ****             table->row_act = 0;
 2427              		.loc 1 530 28 is_stmt 0 view .LVU862
 2428 0154 0023     		movs	r3, #0
 2429 0156 AB86     		strh	r3, [r5, #52]	@ movhi
 531:Middlewares/lvgl/src/widgets/lv_table.c ****             lv_obj_invalidate(obj);
 2430              		.loc 1 531 13 is_stmt 1 view .LVU863
 531:Middlewares/lvgl/src/widgets/lv_table.c ****             lv_obj_invalidate(obj);
 2431              		.loc 1 531 28 is_stmt 0 view .LVU864
 2432 0158 EB86     		strh	r3, [r5, #54]	@ movhi
 532:Middlewares/lvgl/src/widgets/lv_table.c ****             return;
 2433              		.loc 1 532 13 is_stmt 1 view .LVU865
 2434 015a 2846     		mov	r0, r5
 2435              	.LVL258:
 532:Middlewares/lvgl/src/widgets/lv_table.c ****             return;
 2436              		.loc 1 532 13 is_stmt 0 view .LVU866
 2437 015c FFF7FEFF 		bl	lv_obj_invalidate
 2438              	.LVL259:
 533:Middlewares/lvgl/src/widgets/lv_table.c ****         }
 2439              		.loc 1 533 13 is_stmt 1 view .LVU867
 2440 0160 56E7     		b	.L76
 2441              	.LVL260:
 2442              	.L106:
 536:Middlewares/lvgl/src/widgets/lv_table.c ****         if(row >= table->row_cnt) row = 0;
 2443              		.loc 1 536 39 is_stmt 0 view .LVU868
 2444 0162 0022     		movs	r2, #0
 2445 0164 E7E7     		b	.L94
ARM GAS  /tmp/ccQS5ib5.s 			page 83


 2446              	.LVL261:
 2447              	.L107:
 537:Middlewares/lvgl/src/widgets/lv_table.c **** 
 2448              		.loc 1 537 39 view .LVU869
 2449 0166 0023     		movs	r3, #0
 2450 0168 E9E7     		b	.L95
 2451              	.LVL262:
 2452              	.L121:
 539:Middlewares/lvgl/src/widgets/lv_table.c ****         else if(c == LV_KEY_RIGHT) col++;
 2453              		.loc 1 539 30 is_stmt 1 discriminator 1 view .LVU870
 539:Middlewares/lvgl/src/widgets/lv_table.c ****         else if(c == LV_KEY_RIGHT) col++;
 2454              		.loc 1 539 33 is_stmt 0 discriminator 1 view .LVU871
 2455 016a 013A     		subs	r2, r2, #1
 2456              	.LVL263:
 2457              	.L97:
 545:Middlewares/lvgl/src/widgets/lv_table.c ****             if(row < table->row_cnt - 1) {
 2458              		.loc 1 545 9 is_stmt 1 view .LVU872
 545:Middlewares/lvgl/src/widgets/lv_table.c ****             if(row < table->row_cnt - 1) {
 2459              		.loc 1 545 11 is_stmt 0 view .LVU873
 2460 016c 9445     		cmp	ip, r2
 2461 016e 0CDC     		bgt	.L100
 546:Middlewares/lvgl/src/widgets/lv_table.c ****                 col = 0;
 2462              		.loc 1 546 13 is_stmt 1 view .LVU874
 546:Middlewares/lvgl/src/widgets/lv_table.c ****                 col = 0;
 2463              		.loc 1 546 37 is_stmt 0 view .LVU875
 2464 0170 721E     		subs	r2, r6, #1
 2465              	.LVL264:
 546:Middlewares/lvgl/src/widgets/lv_table.c ****                 col = 0;
 2466              		.loc 1 546 15 view .LVU876
 2467 0172 9A42     		cmp	r2, r3
 2468 0174 06DD     		ble	.L101
 547:Middlewares/lvgl/src/widgets/lv_table.c ****                 row++;
 2469              		.loc 1 547 17 is_stmt 1 view .LVU877
 2470              	.LVL265:
 548:Middlewares/lvgl/src/widgets/lv_table.c ****             } else {
 2471              		.loc 1 548 17 view .LVU878
 548:Middlewares/lvgl/src/widgets/lv_table.c ****             } else {
 2472              		.loc 1 548 20 is_stmt 0 view .LVU879
 2473 0176 0133     		adds	r3, r3, #1
 2474              	.LVL266:
 547:Middlewares/lvgl/src/widgets/lv_table.c ****                 row++;
 2475              		.loc 1 547 21 view .LVU880
 2476 0178 0022     		movs	r2, #0
 2477 017a 08E0     		b	.L102
 2478              	.LVL267:
 2479              	.L122:
 540:Middlewares/lvgl/src/widgets/lv_table.c ****         else if(c == LV_KEY_UP) row--;
 2480              		.loc 1 540 36 is_stmt 1 discriminator 1 view .LVU881
 540:Middlewares/lvgl/src/widgets/lv_table.c ****         else if(c == LV_KEY_UP) row--;
 2481              		.loc 1 540 39 is_stmt 0 discriminator 1 view .LVU882
 2482 017c 0132     		adds	r2, r2, #1
 2483              	.LVL268:
 540:Middlewares/lvgl/src/widgets/lv_table.c ****         else if(c == LV_KEY_UP) row--;
 2484              		.loc 1 540 39 discriminator 1 view .LVU883
 2485 017e F5E7     		b	.L97
 2486              	.L123:
 541:Middlewares/lvgl/src/widgets/lv_table.c ****         else if(c == LV_KEY_DOWN) row++;
ARM GAS  /tmp/ccQS5ib5.s 			page 84


 2487              		.loc 1 541 33 is_stmt 1 discriminator 1 view .LVU884
 541:Middlewares/lvgl/src/widgets/lv_table.c ****         else if(c == LV_KEY_DOWN) row++;
 2488              		.loc 1 541 36 is_stmt 0 discriminator 1 view .LVU885
 2489 0180 013B     		subs	r3, r3, #1
 2490              	.LVL269:
 541:Middlewares/lvgl/src/widgets/lv_table.c ****         else if(c == LV_KEY_DOWN) row++;
 2491              		.loc 1 541 36 discriminator 1 view .LVU886
 2492 0182 F3E7     		b	.L97
 2493              	.LVL270:
 2494              	.L101:
 550:Middlewares/lvgl/src/widgets/lv_table.c ****             }
 2495              		.loc 1 550 17 is_stmt 1 view .LVU887
 550:Middlewares/lvgl/src/widgets/lv_table.c ****             }
 2496              		.loc 1 550 21 is_stmt 0 view .LVU888
 2497 0184 0CF1FF32 		add	r2, ip, #-1
 2498              	.LVL271:
 550:Middlewares/lvgl/src/widgets/lv_table.c ****             }
 2499              		.loc 1 550 21 view .LVU889
 2500 0188 01E0     		b	.L102
 2501              	.L100:
 552:Middlewares/lvgl/src/widgets/lv_table.c ****             if(row != 0) {
 2502              		.loc 1 552 16 is_stmt 1 view .LVU890
 552:Middlewares/lvgl/src/widgets/lv_table.c ****             if(row != 0) {
 2503              		.loc 1 552 19 is_stmt 0 view .LVU891
 2504 018a 002A     		cmp	r2, #0
 2505 018c 12DB     		blt	.L124
 2506              	.LVL272:
 2507              	.L102:
 561:Middlewares/lvgl/src/widgets/lv_table.c ****             row = table->row_cnt - 1;
 2508              		.loc 1 561 9 is_stmt 1 view .LVU892
 561:Middlewares/lvgl/src/widgets/lv_table.c ****             row = table->row_cnt - 1;
 2509              		.loc 1 561 11 is_stmt 0 view .LVU893
 2510 018e 9E42     		cmp	r6, r3
 2511 0190 17DC     		bgt	.L103
 562:Middlewares/lvgl/src/widgets/lv_table.c ****         } else if(row < 0) {
 2512              		.loc 1 562 13 is_stmt 1 view .LVU894
 562:Middlewares/lvgl/src/widgets/lv_table.c ****         } else if(row < 0) {
 2513              		.loc 1 562 17 is_stmt 0 view .LVU895
 2514 0192 731E     		subs	r3, r6, #1
 2515              	.LVL273:
 2516              	.L104:
 567:Middlewares/lvgl/src/widgets/lv_table.c ****             table->col_act = col;
 2517              		.loc 1 567 9 is_stmt 1 view .LVU896
 567:Middlewares/lvgl/src/widgets/lv_table.c ****             table->col_act = col;
 2518              		.loc 1 567 11 is_stmt 0 view .LVU897
 2519 0194 8A42     		cmp	r2, r1
 2520 0196 02D1     		bne	.L105
 567:Middlewares/lvgl/src/widgets/lv_table.c ****             table->col_act = col;
 2521              		.loc 1 567 34 discriminator 1 view .LVU898
 2522 0198 8342     		cmp	r3, r0
 2523 019a 3FF439AF 		beq	.L76
 2524              	.L105:
 568:Middlewares/lvgl/src/widgets/lv_table.c ****             table->row_act = row;
 2525              		.loc 1 568 13 is_stmt 1 view .LVU899
 568:Middlewares/lvgl/src/widgets/lv_table.c ****             table->row_act = row;
 2526              		.loc 1 568 28 is_stmt 0 view .LVU900
 2527 019e AA86     		strh	r2, [r5, #52]	@ movhi
ARM GAS  /tmp/ccQS5ib5.s 			page 85


 569:Middlewares/lvgl/src/widgets/lv_table.c ****             lv_obj_invalidate(obj);
 2528              		.loc 1 569 13 is_stmt 1 view .LVU901
 569:Middlewares/lvgl/src/widgets/lv_table.c ****             lv_obj_invalidate(obj);
 2529              		.loc 1 569 28 is_stmt 0 view .LVU902
 2530 01a0 EB86     		strh	r3, [r5, #54]	@ movhi
 570:Middlewares/lvgl/src/widgets/lv_table.c **** 
 2531              		.loc 1 570 13 is_stmt 1 view .LVU903
 2532 01a2 2846     		mov	r0, r5
 2533 01a4 FFF7FEFF 		bl	lv_obj_invalidate
 2534              	.LVL274:
 572:Middlewares/lvgl/src/widgets/lv_table.c ****             if(res != LV_RES_OK) return;
 2535              		.loc 1 572 13 view .LVU904
 572:Middlewares/lvgl/src/widgets/lv_table.c ****             if(res != LV_RES_OK) return;
 2536              		.loc 1 572 19 is_stmt 0 view .LVU905
 2537 01a8 0022     		movs	r2, #0
 2538 01aa 1C21     		movs	r1, #28
 2539 01ac 2846     		mov	r0, r5
 2540 01ae FFF7FEFF 		bl	lv_event_send
 2541              	.LVL275:
 573:Middlewares/lvgl/src/widgets/lv_table.c ****         }
 2542              		.loc 1 573 13 is_stmt 1 view .LVU906
 2543 01b2 2DE7     		b	.L76
 2544              	.LVL276:
 2545              	.L124:
 553:Middlewares/lvgl/src/widgets/lv_table.c ****                 col = table->col_cnt - 1;
 2546              		.loc 1 553 13 view .LVU907
 553:Middlewares/lvgl/src/widgets/lv_table.c ****                 col = table->col_cnt - 1;
 2547              		.loc 1 553 15 is_stmt 0 view .LVU908
 2548 01b4 1BB1     		cbz	r3, .L108
 554:Middlewares/lvgl/src/widgets/lv_table.c ****                 row--;
 2549              		.loc 1 554 17 is_stmt 1 view .LVU909
 554:Middlewares/lvgl/src/widgets/lv_table.c ****                 row--;
 2550              		.loc 1 554 21 is_stmt 0 view .LVU910
 2551 01b6 0CF1FF32 		add	r2, ip, #-1
 2552              	.LVL277:
 555:Middlewares/lvgl/src/widgets/lv_table.c ****             } else {
 2553              		.loc 1 555 17 is_stmt 1 view .LVU911
 555:Middlewares/lvgl/src/widgets/lv_table.c ****             } else {
 2554              		.loc 1 555 20 is_stmt 0 view .LVU912
 2555 01ba 013B     		subs	r3, r3, #1
 2556              	.LVL278:
 555:Middlewares/lvgl/src/widgets/lv_table.c ****             } else {
 2557              		.loc 1 555 20 view .LVU913
 2558 01bc E7E7     		b	.L102
 2559              	.L108:
 557:Middlewares/lvgl/src/widgets/lv_table.c ****             }
 2560              		.loc 1 557 21 view .LVU914
 2561 01be 1A46     		mov	r2, r3
 2562              	.LVL279:
 557:Middlewares/lvgl/src/widgets/lv_table.c ****             }
 2563              		.loc 1 557 21 view .LVU915
 2564 01c0 E5E7     		b	.L102
 2565              	.LVL280:
 2566              	.L103:
 563:Middlewares/lvgl/src/widgets/lv_table.c ****             row = 0;
 2567              		.loc 1 563 16 is_stmt 1 view .LVU916
 563:Middlewares/lvgl/src/widgets/lv_table.c ****             row = 0;
ARM GAS  /tmp/ccQS5ib5.s 			page 86


 2568              		.loc 1 563 18 is_stmt 0 view .LVU917
 2569 01c2 002B     		cmp	r3, #0
 2570 01c4 E6DA     		bge	.L104
 564:Middlewares/lvgl/src/widgets/lv_table.c ****         }
 2571              		.loc 1 564 17 view .LVU918
 2572 01c6 0023     		movs	r3, #0
 2573              	.LVL281:
 564:Middlewares/lvgl/src/widgets/lv_table.c ****         }
 2574              		.loc 1 564 17 view .LVU919
 2575 01c8 E4E7     		b	.L104
 2576              	.L126:
 2577 01ca 00BF     		.align	2
 2578              	.L125:
 2579 01cc 00000000 		.word	.LANCHOR0
 2580              	.LBE159:
 2581              		.cfi_endproc
 2582              	.LFE163:
 2584              		.section	.text.lv_table_destructor,"ax",%progbits
 2585              		.align	1
 2586              		.syntax unified
 2587              		.thumb
 2588              		.thumb_func
 2589              		.fpu fpv4-sp-d16
 2591              	lv_table_destructor:
 2592              	.LVL282:
 2593              	.LFB162:
 452:Middlewares/lvgl/src/widgets/lv_table.c ****     LV_UNUSED(class_p);
 2594              		.loc 1 452 1 is_stmt 1 view -0
 2595              		.cfi_startproc
 2596              		@ args = 0, pretend = 0, frame = 0
 2597              		@ frame_needed = 0, uses_anonymous_args = 0
 452:Middlewares/lvgl/src/widgets/lv_table.c ****     LV_UNUSED(class_p);
 2598              		.loc 1 452 1 is_stmt 0 view .LVU921
 2599 0000 38B5     		push	{r3, r4, r5, lr}
 2600              	.LCFI17:
 2601              		.cfi_def_cfa_offset 16
 2602              		.cfi_offset 3, -16
 2603              		.cfi_offset 4, -12
 2604              		.cfi_offset 5, -8
 2605              		.cfi_offset 14, -4
 2606 0002 0D46     		mov	r5, r1
 453:Middlewares/lvgl/src/widgets/lv_table.c ****     lv_table_t * table = (lv_table_t *)obj;
 2607              		.loc 1 453 5 is_stmt 1 view .LVU922
 454:Middlewares/lvgl/src/widgets/lv_table.c ****     /*Free the cell texts*/
 2608              		.loc 1 454 5 view .LVU923
 2609              	.LVL283:
 456:Middlewares/lvgl/src/widgets/lv_table.c ****     for(i = 0; i < table->col_cnt * table->row_cnt; i++) {
 2610              		.loc 1 456 5 view .LVU924
 457:Middlewares/lvgl/src/widgets/lv_table.c ****         if(table->cell_data[i]) {
 2611              		.loc 1 457 5 view .LVU925
 457:Middlewares/lvgl/src/widgets/lv_table.c ****         if(table->cell_data[i]) {
 2612              		.loc 1 457 11 is_stmt 0 view .LVU926
 2613 0004 0024     		movs	r4, #0
 457:Middlewares/lvgl/src/widgets/lv_table.c ****         if(table->cell_data[i]) {
 2614              		.loc 1 457 5 view .LVU927
 2615 0006 01E0     		b	.L128
 2616              	.LVL284:
ARM GAS  /tmp/ccQS5ib5.s 			page 87


 2617              	.L129:
 457:Middlewares/lvgl/src/widgets/lv_table.c ****         if(table->cell_data[i]) {
 2618              		.loc 1 457 53 is_stmt 1 discriminator 2 view .LVU928
 457:Middlewares/lvgl/src/widgets/lv_table.c ****         if(table->cell_data[i]) {
 2619              		.loc 1 457 54 is_stmt 0 discriminator 2 view .LVU929
 2620 0008 0134     		adds	r4, r4, #1
 2621              	.LVL285:
 457:Middlewares/lvgl/src/widgets/lv_table.c ****         if(table->cell_data[i]) {
 2622              		.loc 1 457 54 discriminator 2 view .LVU930
 2623 000a A4B2     		uxth	r4, r4
 2624              	.LVL286:
 2625              	.L128:
 457:Middlewares/lvgl/src/widgets/lv_table.c ****         if(table->cell_data[i]) {
 2626              		.loc 1 457 16 is_stmt 1 discriminator 1 view .LVU931
 457:Middlewares/lvgl/src/widgets/lv_table.c ****         if(table->cell_data[i]) {
 2627              		.loc 1 457 25 is_stmt 0 discriminator 1 view .LVU932
 2628 000c AB8C     		ldrh	r3, [r5, #36]
 457:Middlewares/lvgl/src/widgets/lv_table.c ****         if(table->cell_data[i]) {
 2629              		.loc 1 457 42 discriminator 1 view .LVU933
 2630 000e EA8C     		ldrh	r2, [r5, #38]
 457:Middlewares/lvgl/src/widgets/lv_table.c ****         if(table->cell_data[i]) {
 2631              		.loc 1 457 35 discriminator 1 view .LVU934
 2632 0010 02FB03F3 		mul	r3, r2, r3
 457:Middlewares/lvgl/src/widgets/lv_table.c ****         if(table->cell_data[i]) {
 2633              		.loc 1 457 5 discriminator 1 view .LVU935
 2634 0014 9C42     		cmp	r4, r3
 2635 0016 0BDA     		bge	.L134
 458:Middlewares/lvgl/src/widgets/lv_table.c ****             lv_mem_free(table->cell_data[i]);
 2636              		.loc 1 458 9 is_stmt 1 view .LVU936
 458:Middlewares/lvgl/src/widgets/lv_table.c ****             lv_mem_free(table->cell_data[i]);
 2637              		.loc 1 458 17 is_stmt 0 view .LVU937
 2638 0018 AB6A     		ldr	r3, [r5, #40]
 458:Middlewares/lvgl/src/widgets/lv_table.c ****             lv_mem_free(table->cell_data[i]);
 2639              		.loc 1 458 28 view .LVU938
 2640 001a 53F82400 		ldr	r0, [r3, r4, lsl #2]
 458:Middlewares/lvgl/src/widgets/lv_table.c ****             lv_mem_free(table->cell_data[i]);
 2641              		.loc 1 458 11 view .LVU939
 2642 001e 0028     		cmp	r0, #0
 2643 0020 F2D0     		beq	.L129
 459:Middlewares/lvgl/src/widgets/lv_table.c ****             table->cell_data[i] = NULL;
 2644              		.loc 1 459 13 is_stmt 1 view .LVU940
 2645 0022 FFF7FEFF 		bl	lv_mem_free
 2646              	.LVL287:
 460:Middlewares/lvgl/src/widgets/lv_table.c ****         }
 2647              		.loc 1 460 13 view .LVU941
 460:Middlewares/lvgl/src/widgets/lv_table.c ****         }
 2648              		.loc 1 460 18 is_stmt 0 view .LVU942
 2649 0026 AB6A     		ldr	r3, [r5, #40]
 460:Middlewares/lvgl/src/widgets/lv_table.c ****         }
 2650              		.loc 1 460 33 view .LVU943
 2651 0028 0022     		movs	r2, #0
 2652 002a 43F82420 		str	r2, [r3, r4, lsl #2]
 2653 002e EBE7     		b	.L129
 2654              	.L134:
 464:Middlewares/lvgl/src/widgets/lv_table.c ****     if(table->row_h) lv_mem_free(table->row_h);
 2655              		.loc 1 464 5 is_stmt 1 view .LVU944
 464:Middlewares/lvgl/src/widgets/lv_table.c ****     if(table->row_h) lv_mem_free(table->row_h);
ARM GAS  /tmp/ccQS5ib5.s 			page 88


 2656              		.loc 1 464 13 is_stmt 0 view .LVU945
 2657 0030 A86A     		ldr	r0, [r5, #40]
 464:Middlewares/lvgl/src/widgets/lv_table.c ****     if(table->row_h) lv_mem_free(table->row_h);
 2658              		.loc 1 464 7 view .LVU946
 2659 0032 08B1     		cbz	r0, .L131
 464:Middlewares/lvgl/src/widgets/lv_table.c ****     if(table->row_h) lv_mem_free(table->row_h);
 2660              		.loc 1 464 26 is_stmt 1 discriminator 1 view .LVU947
 2661 0034 FFF7FEFF 		bl	lv_mem_free
 2662              	.LVL288:
 2663              	.L131:
 465:Middlewares/lvgl/src/widgets/lv_table.c **** }
 2664              		.loc 1 465 5 view .LVU948
 465:Middlewares/lvgl/src/widgets/lv_table.c **** }
 2665              		.loc 1 465 13 is_stmt 0 view .LVU949
 2666 0038 E86A     		ldr	r0, [r5, #44]
 465:Middlewares/lvgl/src/widgets/lv_table.c **** }
 2667              		.loc 1 465 7 view .LVU950
 2668 003a 08B1     		cbz	r0, .L127
 465:Middlewares/lvgl/src/widgets/lv_table.c **** }
 2669              		.loc 1 465 22 is_stmt 1 discriminator 1 view .LVU951
 2670 003c FFF7FEFF 		bl	lv_mem_free
 2671              	.LVL289:
 2672              	.L127:
 466:Middlewares/lvgl/src/widgets/lv_table.c **** 
 2673              		.loc 1 466 1 is_stmt 0 view .LVU952
 2674 0040 38BD     		pop	{r3, r4, r5, pc}
 466:Middlewares/lvgl/src/widgets/lv_table.c **** 
 2675              		.loc 1 466 1 view .LVU953
 2676              		.cfi_endproc
 2677              	.LFE162:
 2679              		.section	.text.lv_table_constructor,"ax",%progbits
 2680              		.align	1
 2681              		.syntax unified
 2682              		.thumb
 2683              		.thumb_func
 2684              		.fpu fpv4-sp-d16
 2686              	lv_table_constructor:
 2687              	.LVL290:
 2688              	.LFB161:
 433:Middlewares/lvgl/src/widgets/lv_table.c ****     LV_UNUSED(class_p);
 2689              		.loc 1 433 1 is_stmt 1 view -0
 2690              		.cfi_startproc
 2691              		@ args = 0, pretend = 0, frame = 0
 2692              		@ frame_needed = 0, uses_anonymous_args = 0
 433:Middlewares/lvgl/src/widgets/lv_table.c ****     LV_UNUSED(class_p);
 2693              		.loc 1 433 1 is_stmt 0 view .LVU955
 2694 0000 10B5     		push	{r4, lr}
 2695              	.LCFI18:
 2696              		.cfi_def_cfa_offset 8
 2697              		.cfi_offset 4, -8
 2698              		.cfi_offset 14, -4
 2699 0002 0C46     		mov	r4, r1
 434:Middlewares/lvgl/src/widgets/lv_table.c ****     LV_TRACE_OBJ_CREATE("begin");
 2700              		.loc 1 434 5 is_stmt 1 view .LVU956
 435:Middlewares/lvgl/src/widgets/lv_table.c **** 
 2701              		.loc 1 435 33 view .LVU957
 437:Middlewares/lvgl/src/widgets/lv_table.c **** 
ARM GAS  /tmp/ccQS5ib5.s 			page 89


 2702              		.loc 1 437 5 view .LVU958
 2703              	.LVL291:
 439:Middlewares/lvgl/src/widgets/lv_table.c ****     table->row_cnt = 1;
 2704              		.loc 1 439 5 view .LVU959
 439:Middlewares/lvgl/src/widgets/lv_table.c ****     table->row_cnt = 1;
 2705              		.loc 1 439 20 is_stmt 0 view .LVU960
 2706 0004 0123     		movs	r3, #1
 2707 0006 8B84     		strh	r3, [r1, #36]	@ movhi
 440:Middlewares/lvgl/src/widgets/lv_table.c ****     table->col_w = lv_mem_alloc(table->col_cnt * sizeof(table->col_w[0]));
 2708              		.loc 1 440 5 is_stmt 1 view .LVU961
 440:Middlewares/lvgl/src/widgets/lv_table.c ****     table->col_w = lv_mem_alloc(table->col_cnt * sizeof(table->col_w[0]));
 2709              		.loc 1 440 20 is_stmt 0 view .LVU962
 2710 0008 CB84     		strh	r3, [r1, #38]	@ movhi
 441:Middlewares/lvgl/src/widgets/lv_table.c ****     table->row_h = lv_mem_alloc(table->row_cnt * sizeof(table->row_h[0]));
 2711              		.loc 1 441 5 is_stmt 1 view .LVU963
 441:Middlewares/lvgl/src/widgets/lv_table.c ****     table->row_h = lv_mem_alloc(table->row_cnt * sizeof(table->row_h[0]));
 2712              		.loc 1 441 20 is_stmt 0 view .LVU964
 2713 000a 0220     		movs	r0, #2
 2714              	.LVL292:
 441:Middlewares/lvgl/src/widgets/lv_table.c ****     table->row_h = lv_mem_alloc(table->row_cnt * sizeof(table->row_h[0]));
 2715              		.loc 1 441 20 view .LVU965
 2716 000c FFF7FEFF 		bl	lv_mem_alloc
 2717              	.LVL293:
 441:Middlewares/lvgl/src/widgets/lv_table.c ****     table->row_h = lv_mem_alloc(table->row_cnt * sizeof(table->row_h[0]));
 2718              		.loc 1 441 18 view .LVU966
 2719 0010 2063     		str	r0, [r4, #48]
 442:Middlewares/lvgl/src/widgets/lv_table.c ****     table->col_w[0] = LV_DPI_DEF;
 2720              		.loc 1 442 5 is_stmt 1 view .LVU967
 442:Middlewares/lvgl/src/widgets/lv_table.c ****     table->col_w[0] = LV_DPI_DEF;
 2721              		.loc 1 442 38 is_stmt 0 view .LVU968
 2722 0012 E08C     		ldrh	r0, [r4, #38]
 442:Middlewares/lvgl/src/widgets/lv_table.c ****     table->col_w[0] = LV_DPI_DEF;
 2723              		.loc 1 442 20 view .LVU969
 2724 0014 4000     		lsls	r0, r0, #1
 2725 0016 FFF7FEFF 		bl	lv_mem_alloc
 2726              	.LVL294:
 442:Middlewares/lvgl/src/widgets/lv_table.c ****     table->col_w[0] = LV_DPI_DEF;
 2727              		.loc 1 442 18 view .LVU970
 2728 001a E062     		str	r0, [r4, #44]
 443:Middlewares/lvgl/src/widgets/lv_table.c ****     table->row_h[0] = LV_DPI_DEF;
 2729              		.loc 1 443 5 is_stmt 1 view .LVU971
 443:Middlewares/lvgl/src/widgets/lv_table.c ****     table->row_h[0] = LV_DPI_DEF;
 2730              		.loc 1 443 10 is_stmt 0 view .LVU972
 2731 001c 226B     		ldr	r2, [r4, #48]
 443:Middlewares/lvgl/src/widgets/lv_table.c ****     table->row_h[0] = LV_DPI_DEF;
 2732              		.loc 1 443 21 view .LVU973
 2733 001e 8223     		movs	r3, #130
 2734 0020 1380     		strh	r3, [r2]	@ movhi
 444:Middlewares/lvgl/src/widgets/lv_table.c ****     table->cell_data = lv_mem_realloc(table->cell_data, table->row_cnt * table->col_cnt * sizeof(ch
 2735              		.loc 1 444 5 is_stmt 1 view .LVU974
 444:Middlewares/lvgl/src/widgets/lv_table.c ****     table->cell_data = lv_mem_realloc(table->cell_data, table->row_cnt * table->col_cnt * sizeof(ch
 2736              		.loc 1 444 10 is_stmt 0 view .LVU975
 2737 0022 E26A     		ldr	r2, [r4, #44]
 444:Middlewares/lvgl/src/widgets/lv_table.c ****     table->cell_data = lv_mem_realloc(table->cell_data, table->row_cnt * table->col_cnt * sizeof(ch
 2738              		.loc 1 444 21 view .LVU976
 2739 0024 1380     		strh	r3, [r2]	@ movhi
 445:Middlewares/lvgl/src/widgets/lv_table.c ****     table->cell_data[0] = NULL;
ARM GAS  /tmp/ccQS5ib5.s 			page 90


 2740              		.loc 1 445 5 is_stmt 1 view .LVU977
 445:Middlewares/lvgl/src/widgets/lv_table.c ****     table->cell_data[0] = NULL;
 2741              		.loc 1 445 62 is_stmt 0 view .LVU978
 2742 0026 E18C     		ldrh	r1, [r4, #38]
 445:Middlewares/lvgl/src/widgets/lv_table.c ****     table->cell_data[0] = NULL;
 2743              		.loc 1 445 79 view .LVU979
 2744 0028 A38C     		ldrh	r3, [r4, #36]
 445:Middlewares/lvgl/src/widgets/lv_table.c ****     table->cell_data[0] = NULL;
 2745              		.loc 1 445 72 view .LVU980
 2746 002a 03FB01F1 		mul	r1, r3, r1
 445:Middlewares/lvgl/src/widgets/lv_table.c ****     table->cell_data[0] = NULL;
 2747              		.loc 1 445 24 view .LVU981
 2748 002e 8900     		lsls	r1, r1, #2
 2749 0030 A06A     		ldr	r0, [r4, #40]
 2750 0032 FFF7FEFF 		bl	lv_mem_realloc
 2751              	.LVL295:
 445:Middlewares/lvgl/src/widgets/lv_table.c ****     table->cell_data[0] = NULL;
 2752              		.loc 1 445 22 view .LVU982
 2753 0036 A062     		str	r0, [r4, #40]
 446:Middlewares/lvgl/src/widgets/lv_table.c **** 
 2754              		.loc 1 446 5 is_stmt 1 view .LVU983
 446:Middlewares/lvgl/src/widgets/lv_table.c **** 
 2755              		.loc 1 446 25 is_stmt 0 view .LVU984
 2756 0038 0023     		movs	r3, #0
 2757 003a 0360     		str	r3, [r0]
 448:Middlewares/lvgl/src/widgets/lv_table.c **** }
 2758              		.loc 1 448 36 is_stmt 1 view .LVU985
 449:Middlewares/lvgl/src/widgets/lv_table.c **** 
 2759              		.loc 1 449 1 is_stmt 0 view .LVU986
 2760 003c 10BD     		pop	{r4, pc}
 449:Middlewares/lvgl/src/widgets/lv_table.c **** 
 2761              		.loc 1 449 1 view .LVU987
 2762              		.cfi_endproc
 2763              	.LFE161:
 2765              		.section	.text.lv_table_create,"ax",%progbits
 2766              		.align	1
 2767              		.global	lv_table_create
 2768              		.syntax unified
 2769              		.thumb
 2770              		.thumb_func
 2771              		.fpu fpv4-sp-d16
 2773              	lv_table_create:
 2774              	.LVL296:
 2775              	.LFB147:
  65:Middlewares/lvgl/src/widgets/lv_table.c ****     LV_LOG_INFO("begin")
 2776              		.loc 1 65 1 is_stmt 1 view -0
 2777              		.cfi_startproc
 2778              		@ args = 0, pretend = 0, frame = 0
 2779              		@ frame_needed = 0, uses_anonymous_args = 0
  65:Middlewares/lvgl/src/widgets/lv_table.c ****     LV_LOG_INFO("begin")
 2780              		.loc 1 65 1 is_stmt 0 view .LVU989
 2781 0000 10B5     		push	{r4, lr}
 2782              	.LCFI19:
 2783              		.cfi_def_cfa_offset 8
 2784              		.cfi_offset 4, -8
 2785              		.cfi_offset 14, -4
 2786 0002 0146     		mov	r1, r0
ARM GAS  /tmp/ccQS5ib5.s 			page 91


  67:Middlewares/lvgl/src/widgets/lv_table.c ****     lv_obj_class_init_obj(obj);
 2787              		.loc 1 67 5 is_stmt 1 view .LVU990
  67:Middlewares/lvgl/src/widgets/lv_table.c ****     lv_obj_class_init_obj(obj);
 2788              		.loc 1 67 22 is_stmt 0 view .LVU991
 2789 0004 0348     		ldr	r0, .L139
 2790              	.LVL297:
  67:Middlewares/lvgl/src/widgets/lv_table.c ****     lv_obj_class_init_obj(obj);
 2791              		.loc 1 67 22 view .LVU992
 2792 0006 FFF7FEFF 		bl	lv_obj_class_create_obj
 2793              	.LVL298:
  67:Middlewares/lvgl/src/widgets/lv_table.c ****     lv_obj_class_init_obj(obj);
 2794              		.loc 1 67 22 view .LVU993
 2795 000a 0446     		mov	r4, r0
 2796              	.LVL299:
  68:Middlewares/lvgl/src/widgets/lv_table.c ****     return obj;
 2797              		.loc 1 68 5 is_stmt 1 view .LVU994
 2798 000c FFF7FEFF 		bl	lv_obj_class_init_obj
 2799              	.LVL300:
  69:Middlewares/lvgl/src/widgets/lv_table.c **** }
 2800              		.loc 1 69 5 view .LVU995
  70:Middlewares/lvgl/src/widgets/lv_table.c **** 
 2801              		.loc 1 70 1 is_stmt 0 view .LVU996
 2802 0010 2046     		mov	r0, r4
 2803 0012 10BD     		pop	{r4, pc}
 2804              	.LVL301:
 2805              	.L140:
  70:Middlewares/lvgl/src/widgets/lv_table.c **** 
 2806              		.loc 1 70 1 view .LVU997
 2807              		.align	2
 2808              	.L139:
 2809 0014 00000000 		.word	.LANCHOR0
 2810              		.cfi_endproc
 2811              	.LFE147:
 2813              		.section	.text.lv_table_set_row_cnt,"ax",%progbits
 2814              		.align	1
 2815              		.global	lv_table_set_row_cnt
 2816              		.syntax unified
 2817              		.thumb
 2818              		.thumb_func
 2819              		.fpu fpv4-sp-d16
 2821              	lv_table_set_row_cnt:
 2822              	.LVL302:
 2823              	.LFB150:
 206:Middlewares/lvgl/src/widgets/lv_table.c ****     LV_ASSERT_OBJ(obj, MY_CLASS);
 2824              		.loc 1 206 1 is_stmt 1 view -0
 2825              		.cfi_startproc
 2826              		@ args = 0, pretend = 0, frame = 0
 2827              		@ frame_needed = 0, uses_anonymous_args = 0
 206:Middlewares/lvgl/src/widgets/lv_table.c ****     LV_ASSERT_OBJ(obj, MY_CLASS);
 2828              		.loc 1 206 1 is_stmt 0 view .LVU999
 2829 0000 2DE9F041 		push	{r4, r5, r6, r7, r8, lr}
 2830              	.LCFI20:
 2831              		.cfi_def_cfa_offset 24
 2832              		.cfi_offset 4, -24
 2833              		.cfi_offset 5, -20
 2834              		.cfi_offset 6, -16
 2835              		.cfi_offset 7, -12
ARM GAS  /tmp/ccQS5ib5.s 			page 92


 2836              		.cfi_offset 8, -8
 2837              		.cfi_offset 14, -4
 2838 0004 0446     		mov	r4, r0
 2839 0006 0E46     		mov	r6, r1
 207:Middlewares/lvgl/src/widgets/lv_table.c **** 
 2840              		.loc 1 207 5 is_stmt 1 view .LVU1000
 207:Middlewares/lvgl/src/widgets/lv_table.c **** 
 2841              		.loc 1 207 5 view .LVU1001
 207:Middlewares/lvgl/src/widgets/lv_table.c **** 
 2842              		.loc 1 207 5 view .LVU1002
 209:Middlewares/lvgl/src/widgets/lv_table.c ****     uint16_t old_row_cnt = table->row_cnt;
 2843              		.loc 1 209 5 view .LVU1003
 2844              	.LVL303:
 210:Middlewares/lvgl/src/widgets/lv_table.c ****     table->row_cnt         = row_cnt;
 2845              		.loc 1 210 5 view .LVU1004
 210:Middlewares/lvgl/src/widgets/lv_table.c ****     table->row_cnt         = row_cnt;
 2846              		.loc 1 210 14 is_stmt 0 view .LVU1005
 2847 0008 C78C     		ldrh	r7, [r0, #38]
 2848              	.LVL304:
 211:Middlewares/lvgl/src/widgets/lv_table.c **** 
 2849              		.loc 1 211 5 is_stmt 1 view .LVU1006
 211:Middlewares/lvgl/src/widgets/lv_table.c **** 
 2850              		.loc 1 211 28 is_stmt 0 view .LVU1007
 2851 000a C184     		strh	r1, [r0, #38]	@ movhi
 213:Middlewares/lvgl/src/widgets/lv_table.c ****     LV_ASSERT_MALLOC(table->row_h);
 2852              		.loc 1 213 5 is_stmt 1 view .LVU1008
 213:Middlewares/lvgl/src/widgets/lv_table.c ****     LV_ASSERT_MALLOC(table->row_h);
 2853              		.loc 1 213 20 is_stmt 0 view .LVU1009
 2854 000c 4900     		lsls	r1, r1, #1
 2855              	.LVL305:
 213:Middlewares/lvgl/src/widgets/lv_table.c ****     LV_ASSERT_MALLOC(table->row_h);
 2856              		.loc 1 213 20 view .LVU1010
 2857 000e C06A     		ldr	r0, [r0, #44]
 2858              	.LVL306:
 213:Middlewares/lvgl/src/widgets/lv_table.c ****     LV_ASSERT_MALLOC(table->row_h);
 2859              		.loc 1 213 20 view .LVU1011
 2860 0010 FFF7FEFF 		bl	lv_mem_realloc
 2861              	.LVL307:
 213:Middlewares/lvgl/src/widgets/lv_table.c ****     LV_ASSERT_MALLOC(table->row_h);
 2862              		.loc 1 213 18 view .LVU1012
 2863 0014 E062     		str	r0, [r4, #44]
 214:Middlewares/lvgl/src/widgets/lv_table.c ****     if(table->row_h == NULL) return;
 2864              		.loc 1 214 5 is_stmt 1 view .LVU1013
 214:Middlewares/lvgl/src/widgets/lv_table.c ****     if(table->row_h == NULL) return;
 2865              		.loc 1 214 5 view .LVU1014
 2866 0016 50B1     		cbz	r0, .L143
 214:Middlewares/lvgl/src/widgets/lv_table.c ****     if(table->row_h == NULL) return;
 2867              		.loc 1 214 5 view .LVU1015
 214:Middlewares/lvgl/src/widgets/lv_table.c ****     if(table->row_h == NULL) return;
 2868              		.loc 1 214 35 view .LVU1016
 215:Middlewares/lvgl/src/widgets/lv_table.c **** 
 2869              		.loc 1 215 5 view .LVU1017
 218:Middlewares/lvgl/src/widgets/lv_table.c ****         uint16_t old_cell_cnt = old_row_cnt * table->col_cnt;
 2870              		.loc 1 218 5 view .LVU1018
 218:Middlewares/lvgl/src/widgets/lv_table.c ****         uint16_t old_cell_cnt = old_row_cnt * table->col_cnt;
 2871              		.loc 1 218 7 is_stmt 0 view .LVU1019
 2872 0018 B742     		cmp	r7, r6
ARM GAS  /tmp/ccQS5ib5.s 			page 93


 2873 001a 11D9     		bls	.L144
 2874              	.LBB160:
 219:Middlewares/lvgl/src/widgets/lv_table.c ****         uint32_t new_cell_cnt = table->col_cnt * table->row_cnt;
 2875              		.loc 1 219 9 is_stmt 1 view .LVU1020
 219:Middlewares/lvgl/src/widgets/lv_table.c ****         uint32_t new_cell_cnt = table->col_cnt * table->row_cnt;
 2876              		.loc 1 219 52 is_stmt 0 view .LVU1021
 2877 001c A58C     		ldrh	r5, [r4, #36]
 219:Middlewares/lvgl/src/widgets/lv_table.c ****         uint32_t new_cell_cnt = table->col_cnt * table->row_cnt;
 2878              		.loc 1 219 18 view .LVU1022
 2879 001e 15FB07F8 		smulbb	r8, r5, r7
 2880 0022 1FFA88F8 		uxth	r8, r8
 2881              	.LVL308:
 220:Middlewares/lvgl/src/widgets/lv_table.c ****         uint32_t i;
 2882              		.loc 1 220 9 is_stmt 1 view .LVU1023
 220:Middlewares/lvgl/src/widgets/lv_table.c ****         uint32_t i;
 2883              		.loc 1 220 55 is_stmt 0 view .LVU1024
 2884 0026 E38C     		ldrh	r3, [r4, #38]
 220:Middlewares/lvgl/src/widgets/lv_table.c ****         uint32_t i;
 2885              		.loc 1 220 48 view .LVU1025
 2886 0028 03FB05F5 		mul	r5, r3, r5
 2887              	.LVL309:
 221:Middlewares/lvgl/src/widgets/lv_table.c ****         for(i = new_cell_cnt; i < old_cell_cnt; i++) {
 2888              		.loc 1 221 9 is_stmt 1 view .LVU1026
 222:Middlewares/lvgl/src/widgets/lv_table.c ****             lv_mem_free(table->cell_data[i]);
 2889              		.loc 1 222 9 view .LVU1027
 222:Middlewares/lvgl/src/widgets/lv_table.c ****             lv_mem_free(table->cell_data[i]);
 2890              		.loc 1 222 9 is_stmt 0 view .LVU1028
 2891 002c 06E0     		b	.L145
 2892              	.LVL310:
 2893              	.L143:
 222:Middlewares/lvgl/src/widgets/lv_table.c ****             lv_mem_free(table->cell_data[i]);
 2894              		.loc 1 222 9 view .LVU1029
 2895              	.LBE160:
 214:Middlewares/lvgl/src/widgets/lv_table.c ****     if(table->row_h == NULL) return;
 2896              		.loc 1 214 5 is_stmt 1 discriminator 1 view .LVU1030
 214:Middlewares/lvgl/src/widgets/lv_table.c ****     if(table->row_h == NULL) return;
 2897              		.loc 1 214 5 discriminator 1 view .LVU1031
 214:Middlewares/lvgl/src/widgets/lv_table.c ****     if(table->row_h == NULL) return;
 2898              		.loc 1 214 5 discriminator 1 view .LVU1032
 214:Middlewares/lvgl/src/widgets/lv_table.c ****     if(table->row_h == NULL) return;
 2899              		.loc 1 214 5 discriminator 1 view .LVU1033
 2900 002e FEE7     		b	.L143
 2901              	.LVL311:
 2902              	.L146:
 2903              	.LBB161:
 223:Middlewares/lvgl/src/widgets/lv_table.c ****         }
 2904              		.loc 1 223 13 discriminator 3 view .LVU1034
 223:Middlewares/lvgl/src/widgets/lv_table.c ****         }
 2905              		.loc 1 223 30 is_stmt 0 discriminator 3 view .LVU1035
 2906 0030 A36A     		ldr	r3, [r4, #40]
 223:Middlewares/lvgl/src/widgets/lv_table.c ****         }
 2907              		.loc 1 223 13 discriminator 3 view .LVU1036
 2908 0032 53F82500 		ldr	r0, [r3, r5, lsl #2]
 2909 0036 FFF7FEFF 		bl	lv_mem_free
 2910              	.LVL312:
 222:Middlewares/lvgl/src/widgets/lv_table.c ****             lv_mem_free(table->cell_data[i]);
 2911              		.loc 1 222 49 is_stmt 1 discriminator 3 view .LVU1037
ARM GAS  /tmp/ccQS5ib5.s 			page 94


 222:Middlewares/lvgl/src/widgets/lv_table.c ****             lv_mem_free(table->cell_data[i]);
 2912              		.loc 1 222 50 is_stmt 0 discriminator 3 view .LVU1038
 2913 003a 0135     		adds	r5, r5, #1
 2914              	.LVL313:
 2915              	.L145:
 222:Middlewares/lvgl/src/widgets/lv_table.c ****             lv_mem_free(table->cell_data[i]);
 2916              		.loc 1 222 31 is_stmt 1 discriminator 1 view .LVU1039
 222:Middlewares/lvgl/src/widgets/lv_table.c ****             lv_mem_free(table->cell_data[i]);
 2917              		.loc 1 222 9 is_stmt 0 discriminator 1 view .LVU1040
 2918 003c A845     		cmp	r8, r5
 2919 003e F7D8     		bhi	.L146
 2920              	.LVL314:
 2921              	.L144:
 222:Middlewares/lvgl/src/widgets/lv_table.c ****             lv_mem_free(table->cell_data[i]);
 2922              		.loc 1 222 9 discriminator 1 view .LVU1041
 2923              	.LBE161:
 227:Middlewares/lvgl/src/widgets/lv_table.c ****     LV_ASSERT_MALLOC(table->cell_data);
 2924              		.loc 1 227 5 is_stmt 1 view .LVU1042
 227:Middlewares/lvgl/src/widgets/lv_table.c ****     LV_ASSERT_MALLOC(table->cell_data);
 2925              		.loc 1 227 62 is_stmt 0 view .LVU1043
 2926 0040 E18C     		ldrh	r1, [r4, #38]
 227:Middlewares/lvgl/src/widgets/lv_table.c ****     LV_ASSERT_MALLOC(table->cell_data);
 2927              		.loc 1 227 79 view .LVU1044
 2928 0042 A38C     		ldrh	r3, [r4, #36]
 227:Middlewares/lvgl/src/widgets/lv_table.c ****     LV_ASSERT_MALLOC(table->cell_data);
 2929              		.loc 1 227 72 view .LVU1045
 2930 0044 03FB01F1 		mul	r1, r3, r1
 227:Middlewares/lvgl/src/widgets/lv_table.c ****     LV_ASSERT_MALLOC(table->cell_data);
 2931              		.loc 1 227 24 view .LVU1046
 2932 0048 8900     		lsls	r1, r1, #2
 2933 004a A06A     		ldr	r0, [r4, #40]
 2934 004c FFF7FEFF 		bl	lv_mem_realloc
 2935              	.LVL315:
 227:Middlewares/lvgl/src/widgets/lv_table.c ****     LV_ASSERT_MALLOC(table->cell_data);
 2936              		.loc 1 227 22 view .LVU1047
 2937 0050 A062     		str	r0, [r4, #40]
 228:Middlewares/lvgl/src/widgets/lv_table.c ****     if(table->cell_data == NULL) return;
 2938              		.loc 1 228 5 is_stmt 1 view .LVU1048
 228:Middlewares/lvgl/src/widgets/lv_table.c ****     if(table->cell_data == NULL) return;
 2939              		.loc 1 228 5 view .LVU1049
 2940 0052 38B1     		cbz	r0, .L148
 228:Middlewares/lvgl/src/widgets/lv_table.c ****     if(table->cell_data == NULL) return;
 2941              		.loc 1 228 5 view .LVU1050
 228:Middlewares/lvgl/src/widgets/lv_table.c ****     if(table->cell_data == NULL) return;
 2942              		.loc 1 228 39 view .LVU1051
 229:Middlewares/lvgl/src/widgets/lv_table.c **** 
 2943              		.loc 1 229 5 view .LVU1052
 232:Middlewares/lvgl/src/widgets/lv_table.c ****         uint32_t old_cell_cnt = old_row_cnt * table->col_cnt;
 2944              		.loc 1 232 5 view .LVU1053
 232:Middlewares/lvgl/src/widgets/lv_table.c ****         uint32_t old_cell_cnt = old_row_cnt * table->col_cnt;
 2945              		.loc 1 232 7 is_stmt 0 view .LVU1054
 2946 0054 B742     		cmp	r7, r6
 2947 0056 06D3     		bcc	.L151
 2948              	.LVL316:
 2949              	.L149:
 238:Middlewares/lvgl/src/widgets/lv_table.c **** }
 2950              		.loc 1 238 5 is_stmt 1 view .LVU1055
ARM GAS  /tmp/ccQS5ib5.s 			page 95


 2951 0058 0021     		movs	r1, #0
 2952 005a 2046     		mov	r0, r4
 2953 005c FFF7FEFF 		bl	refr_size
 2954              	.LVL317:
 239:Middlewares/lvgl/src/widgets/lv_table.c **** 
 2955              		.loc 1 239 1 is_stmt 0 view .LVU1056
 2956 0060 BDE8F081 		pop	{r4, r5, r6, r7, r8, pc}
 2957              	.LVL318:
 2958              	.L148:
 228:Middlewares/lvgl/src/widgets/lv_table.c ****     if(table->cell_data == NULL) return;
 2959              		.loc 1 228 5 is_stmt 1 discriminator 2 view .LVU1057
 228:Middlewares/lvgl/src/widgets/lv_table.c ****     if(table->cell_data == NULL) return;
 2960              		.loc 1 228 5 discriminator 2 view .LVU1058
 228:Middlewares/lvgl/src/widgets/lv_table.c ****     if(table->cell_data == NULL) return;
 2961              		.loc 1 228 5 discriminator 2 view .LVU1059
 228:Middlewares/lvgl/src/widgets/lv_table.c ****     if(table->cell_data == NULL) return;
 2962              		.loc 1 228 5 discriminator 2 view .LVU1060
 2963 0064 FEE7     		b	.L148
 2964              	.L151:
 2965              	.LBB162:
 233:Middlewares/lvgl/src/widgets/lv_table.c ****         uint32_t new_cell_cnt = table->col_cnt * table->row_cnt;
 2966              		.loc 1 233 9 view .LVU1061
 233:Middlewares/lvgl/src/widgets/lv_table.c ****         uint32_t new_cell_cnt = table->col_cnt * table->row_cnt;
 2967              		.loc 1 233 52 is_stmt 0 view .LVU1062
 2968 0066 A38C     		ldrh	r3, [r4, #36]
 233:Middlewares/lvgl/src/widgets/lv_table.c ****         uint32_t new_cell_cnt = table->col_cnt * table->row_cnt;
 2969              		.loc 1 233 45 view .LVU1063
 2970 0068 03FB07F7 		mul	r7, r3, r7
 2971              	.LVL319:
 234:Middlewares/lvgl/src/widgets/lv_table.c ****         lv_memset_00(&table->cell_data[old_cell_cnt], (new_cell_cnt - old_cell_cnt) * sizeof(table-
 2972              		.loc 1 234 9 is_stmt 1 view .LVU1064
 234:Middlewares/lvgl/src/widgets/lv_table.c ****         lv_memset_00(&table->cell_data[old_cell_cnt], (new_cell_cnt - old_cell_cnt) * sizeof(table-
 2973              		.loc 1 234 55 is_stmt 0 view .LVU1065
 2974 006c E18C     		ldrh	r1, [r4, #38]
 234:Middlewares/lvgl/src/widgets/lv_table.c ****         lv_memset_00(&table->cell_data[old_cell_cnt], (new_cell_cnt - old_cell_cnt) * sizeof(table-
 2975              		.loc 1 234 48 view .LVU1066
 2976 006e 01FB03F3 		mul	r3, r1, r3
 2977              	.LVL320:
 235:Middlewares/lvgl/src/widgets/lv_table.c ****     }
 2978              		.loc 1 235 9 is_stmt 1 view .LVU1067
 235:Middlewares/lvgl/src/widgets/lv_table.c ****     }
 2979              		.loc 1 235 69 is_stmt 0 view .LVU1068
 2980 0072 D91B     		subs	r1, r3, r7
 235:Middlewares/lvgl/src/widgets/lv_table.c ****     }
 2981              		.loc 1 235 9 view .LVU1069
 2982 0074 8900     		lsls	r1, r1, #2
 2983 0076 00EB8700 		add	r0, r0, r7, lsl #2
 2984 007a FFF7FEFF 		bl	lv_memset_00
 2985              	.LVL321:
 235:Middlewares/lvgl/src/widgets/lv_table.c ****     }
 2986              		.loc 1 235 9 view .LVU1070
 2987 007e EBE7     		b	.L149
 2988              	.LBE162:
 2989              		.cfi_endproc
 2990              	.LFE150:
 2992              		.section	.text.lv_table_set_cell_value_fmt,"ax",%progbits
 2993              		.align	1
ARM GAS  /tmp/ccQS5ib5.s 			page 96


 2994              		.global	lv_table_set_cell_value_fmt
 2995              		.syntax unified
 2996              		.thumb
 2997              		.thumb_func
 2998              		.fpu fpv4-sp-d16
 3000              	lv_table_set_cell_value_fmt:
 3001              	.LVL322:
 3002              	.LFB149:
 115:Middlewares/lvgl/src/widgets/lv_table.c ****     LV_ASSERT_OBJ(obj, MY_CLASS);
 3003              		.loc 1 115 1 is_stmt 1 view -0
 3004              		.cfi_startproc
 3005              		@ args = 4, pretend = 4, frame = 8
 3006              		@ frame_needed = 0, uses_anonymous_args = 1
 115:Middlewares/lvgl/src/widgets/lv_table.c ****     LV_ASSERT_OBJ(obj, MY_CLASS);
 3007              		.loc 1 115 1 is_stmt 0 view .LVU1072
 3008 0000 08B4     		push	{r3}
 3009              	.LCFI21:
 3010              		.cfi_def_cfa_offset 4
 3011              		.cfi_offset 3, -4
 3012 0002 2DE9F04F 		push	{r4, r5, r6, r7, r8, r9, r10, fp, lr}
 3013              	.LCFI22:
 3014              		.cfi_def_cfa_offset 40
 3015              		.cfi_offset 4, -40
 3016              		.cfi_offset 5, -36
 3017              		.cfi_offset 6, -32
 3018              		.cfi_offset 7, -28
 3019              		.cfi_offset 8, -24
 3020              		.cfi_offset 9, -20
 3021              		.cfi_offset 10, -16
 3022              		.cfi_offset 11, -12
 3023              		.cfi_offset 14, -8
 3024 0006 88B0     		sub	sp, sp, #32
 3025              	.LCFI23:
 3026              		.cfi_def_cfa_offset 72
 3027 0008 DDF84480 		ldr	r8, [sp, #68]
 116:Middlewares/lvgl/src/widgets/lv_table.c ****     LV_ASSERT_NULL(fmt);
 3028              		.loc 1 116 5 is_stmt 1 view .LVU1073
 116:Middlewares/lvgl/src/widgets/lv_table.c ****     LV_ASSERT_NULL(fmt);
 3029              		.loc 1 116 5 view .LVU1074
 116:Middlewares/lvgl/src/widgets/lv_table.c ****     LV_ASSERT_NULL(fmt);
 3030              		.loc 1 116 5 view .LVU1075
 117:Middlewares/lvgl/src/widgets/lv_table.c **** 
 3031              		.loc 1 117 5 view .LVU1076
 117:Middlewares/lvgl/src/widgets/lv_table.c **** 
 3032              		.loc 1 117 5 view .LVU1077
 3033 000c B8F1000F 		cmp	r8, #0
 3034 0010 00F0AB80 		beq	.L154
 3035 0014 0446     		mov	r4, r0
 3036 0016 0E46     		mov	r6, r1
 3037 0018 1546     		mov	r5, r2
 117:Middlewares/lvgl/src/widgets/lv_table.c **** 
 3038              		.loc 1 117 5 discriminator 2 view .LVU1078
 117:Middlewares/lvgl/src/widgets/lv_table.c **** 
 3039              		.loc 1 117 24 discriminator 2 view .LVU1079
 119:Middlewares/lvgl/src/widgets/lv_table.c ****     if(col >= table->col_cnt) {
 3040              		.loc 1 119 5 discriminator 2 view .LVU1080
 3041              	.LVL323:
ARM GAS  /tmp/ccQS5ib5.s 			page 97


 120:Middlewares/lvgl/src/widgets/lv_table.c ****         LV_LOG_WARN("lv_table_set_cell_value: invalid column");
 3042              		.loc 1 120 5 discriminator 2 view .LVU1081
 120:Middlewares/lvgl/src/widgets/lv_table.c ****         LV_LOG_WARN("lv_table_set_cell_value: invalid column");
 3043              		.loc 1 120 20 is_stmt 0 discriminator 2 view .LVU1082
 3044 001a 838C     		ldrh	r3, [r0, #36]
 120:Middlewares/lvgl/src/widgets/lv_table.c ****         LV_LOG_WARN("lv_table_set_cell_value: invalid column");
 3045              		.loc 1 120 7 discriminator 2 view .LVU1083
 3046 001c 9342     		cmp	r3, r2
 3047 001e 40F29F80 		bls	.L152
 126:Middlewares/lvgl/src/widgets/lv_table.c ****         lv_table_set_row_cnt(obj, row + 1);
 3048              		.loc 1 126 5 is_stmt 1 view .LVU1084
 126:Middlewares/lvgl/src/widgets/lv_table.c ****         lv_table_set_row_cnt(obj, row + 1);
 3049              		.loc 1 126 20 is_stmt 0 view .LVU1085
 3050 0022 C38C     		ldrh	r3, [r0, #38]
 126:Middlewares/lvgl/src/widgets/lv_table.c ****         lv_table_set_row_cnt(obj, row + 1);
 3051              		.loc 1 126 7 view .LVU1086
 3052 0024 8B42     		cmp	r3, r1
 3053 0026 40F2A180 		bls	.L163
 3054              	.LVL324:
 3055              	.L157:
 130:Middlewares/lvgl/src/widgets/lv_table.c ****     lv_table_cell_ctrl_t ctrl = 0;
 3056              		.loc 1 130 5 is_stmt 1 view .LVU1087
 130:Middlewares/lvgl/src/widgets/lv_table.c ****     lv_table_cell_ctrl_t ctrl = 0;
 3057              		.loc 1 130 32 is_stmt 0 view .LVU1088
 3058 002a A38C     		ldrh	r3, [r4, #36]
 130:Middlewares/lvgl/src/widgets/lv_table.c ****     lv_table_cell_ctrl_t ctrl = 0;
 3059              		.loc 1 130 42 view .LVU1089
 3060 002c 03FB0655 		mla	r5, r3, r6, r5
 3061              	.LVL325:
 131:Middlewares/lvgl/src/widgets/lv_table.c **** 
 3062              		.loc 1 131 5 is_stmt 1 view .LVU1090
 134:Middlewares/lvgl/src/widgets/lv_table.c **** 
 3063              		.loc 1 134 5 view .LVU1091
 134:Middlewares/lvgl/src/widgets/lv_table.c **** 
 3064              		.loc 1 134 13 is_stmt 0 view .LVU1092
 3065 0030 A36A     		ldr	r3, [r4, #40]
 134:Middlewares/lvgl/src/widgets/lv_table.c **** 
 3066              		.loc 1 134 24 view .LVU1093
 3067 0032 53F82530 		ldr	r3, [r3, r5, lsl #2]
 134:Middlewares/lvgl/src/widgets/lv_table.c **** 
 3068              		.loc 1 134 7 view .LVU1094
 3069 0036 002B     		cmp	r3, #0
 3070 0038 00F09D80 		beq	.L161
 134:Middlewares/lvgl/src/widgets/lv_table.c **** 
 3071              		.loc 1 134 32 is_stmt 1 discriminator 1 view .LVU1095
 134:Middlewares/lvgl/src/widgets/lv_table.c **** 
 3072              		.loc 1 134 36 is_stmt 0 discriminator 1 view .LVU1096
 3073 003c 93F80090 		ldrb	r9, [r3]	@ zero_extendqisi2
 3074              	.LVL326:
 3075              	.L158:
 136:Middlewares/lvgl/src/widgets/lv_table.c ****     va_start(ap, fmt);
 3076              		.loc 1 136 5 is_stmt 1 view .LVU1097
 137:Middlewares/lvgl/src/widgets/lv_table.c ****     va_copy(ap2, ap);
 3077              		.loc 1 137 5 view .LVU1098
 3078 0040 12AB     		add	r3, sp, #72
 3079 0042 0793     		str	r3, [sp, #28]
 138:Middlewares/lvgl/src/widgets/lv_table.c **** 
ARM GAS  /tmp/ccQS5ib5.s 			page 98


 3080              		.loc 1 138 5 view .LVU1099
 3081 0044 0693     		str	r3, [sp, #24]
 141:Middlewares/lvgl/src/widgets/lv_table.c ****     va_end(ap);
 3082              		.loc 1 141 5 view .LVU1100
 141:Middlewares/lvgl/src/widgets/lv_table.c ****     va_end(ap);
 3083              		.loc 1 141 20 is_stmt 0 view .LVU1101
 3084 0046 4246     		mov	r2, r8
 3085 0048 0021     		movs	r1, #0
 3086 004a 0846     		mov	r0, r1
 3087 004c FFF7FEFF 		bl	lv_vsnprintf
 3088              	.LVL327:
 3089 0050 0746     		mov	r7, r0
 3090              	.LVL328:
 142:Middlewares/lvgl/src/widgets/lv_table.c **** 
 3091              		.loc 1 142 5 is_stmt 1 view .LVU1102
 167:Middlewares/lvgl/src/widgets/lv_table.c ****     LV_ASSERT_MALLOC(table->cell_data[cell]);
 3092              		.loc 1 167 5 view .LVU1103
 167:Middlewares/lvgl/src/widgets/lv_table.c ****     LV_ASSERT_MALLOC(table->cell_data[cell]);
 3093              		.loc 1 167 50 is_stmt 0 view .LVU1104
 3094 0052 D4F828A0 		ldr	r10, [r4, #40]
 167:Middlewares/lvgl/src/widgets/lv_table.c ****     LV_ASSERT_MALLOC(table->cell_data[cell]);
 3095              		.loc 1 167 30 view .LVU1105
 3096 0056 811C     		adds	r1, r0, #2
 3097 0058 5AF82500 		ldr	r0, [r10, r5, lsl #2]
 3098              	.LVL329:
 167:Middlewares/lvgl/src/widgets/lv_table.c ****     LV_ASSERT_MALLOC(table->cell_data[cell]);
 3099              		.loc 1 167 30 view .LVU1106
 3100 005c FFF7FEFF 		bl	lv_mem_realloc
 3101              	.LVL330:
 167:Middlewares/lvgl/src/widgets/lv_table.c ****     LV_ASSERT_MALLOC(table->cell_data[cell]);
 3102              		.loc 1 167 28 view .LVU1107
 3103 0060 4AF82500 		str	r0, [r10, r5, lsl #2]
 168:Middlewares/lvgl/src/widgets/lv_table.c ****     if(table->cell_data[cell] == NULL) {
 3104              		.loc 1 168 5 is_stmt 1 view .LVU1108
 168:Middlewares/lvgl/src/widgets/lv_table.c ****     if(table->cell_data[cell] == NULL) {
 3105              		.loc 1 168 5 view .LVU1109
 3106 0064 A36A     		ldr	r3, [r4, #40]
 3107 0066 53F82530 		ldr	r3, [r3, r5, lsl #2]
 3108 006a 002B     		cmp	r3, #0
 3109 006c 00F08680 		beq	.L160
 168:Middlewares/lvgl/src/widgets/lv_table.c ****     if(table->cell_data[cell] == NULL) {
 3110              		.loc 1 168 5 view .LVU1110
 168:Middlewares/lvgl/src/widgets/lv_table.c ****     if(table->cell_data[cell] == NULL) {
 3111              		.loc 1 168 45 view .LVU1111
 169:Middlewares/lvgl/src/widgets/lv_table.c ****         va_end(ap2);
 3112              		.loc 1 169 5 view .LVU1112
 174:Middlewares/lvgl/src/widgets/lv_table.c **** 
 3113              		.loc 1 174 5 view .LVU1113
 174:Middlewares/lvgl/src/widgets/lv_table.c **** 
 3114              		.loc 1 174 27 is_stmt 0 view .LVU1114
 3115 0070 791C     		adds	r1, r7, #1
 174:Middlewares/lvgl/src/widgets/lv_table.c **** 
 3116              		.loc 1 174 37 view .LVU1115
 3117 0072 0022     		movs	r2, #0
 3118 0074 5A54     		strb	r2, [r3, r1]
 176:Middlewares/lvgl/src/widgets/lv_table.c **** #endif
 3119              		.loc 1 176 5 is_stmt 1 view .LVU1116
ARM GAS  /tmp/ccQS5ib5.s 			page 99


 176:Middlewares/lvgl/src/widgets/lv_table.c **** #endif
 3120              		.loc 1 176 24 is_stmt 0 view .LVU1117
 3121 0076 A36A     		ldr	r3, [r4, #40]
 176:Middlewares/lvgl/src/widgets/lv_table.c **** #endif
 3122              		.loc 1 176 35 view .LVU1118
 3123 0078 53F82500 		ldr	r0, [r3, r5, lsl #2]
 176:Middlewares/lvgl/src/widgets/lv_table.c **** #endif
 3124              		.loc 1 176 5 view .LVU1119
 3125 007c 069B     		ldr	r3, [sp, #24]
 3126 007e 4246     		mov	r2, r8
 3127 0080 0130     		adds	r0, r0, #1
 3128 0082 FFF7FEFF 		bl	lv_vsnprintf
 3129              	.LVL331:
 179:Middlewares/lvgl/src/widgets/lv_table.c **** 
 3130              		.loc 1 179 5 is_stmt 1 view .LVU1120
 181:Middlewares/lvgl/src/widgets/lv_table.c **** 
 3131              		.loc 1 181 5 view .LVU1121
 181:Middlewares/lvgl/src/widgets/lv_table.c **** 
 3132              		.loc 1 181 10 is_stmt 0 view .LVU1122
 3133 0086 A36A     		ldr	r3, [r4, #40]
 181:Middlewares/lvgl/src/widgets/lv_table.c **** 
 3134              		.loc 1 181 21 view .LVU1123
 3135 0088 53F82530 		ldr	r3, [r3, r5, lsl #2]
 181:Middlewares/lvgl/src/widgets/lv_table.c **** 
 3136              		.loc 1 181 31 view .LVU1124
 3137 008c 83F80090 		strb	r9, [r3]
 184:Middlewares/lvgl/src/widgets/lv_table.c ****     lv_coord_t cell_right = lv_obj_get_style_pad_right(obj, LV_PART_ITEMS);
 3138              		.loc 1 184 5 is_stmt 1 view .LVU1125
 3139              	.LVL332:
 3140              	.LBB163:
 3141              	.LBI163:
 103:Middlewares/lvgl/src/widgets/../core/lv_obj_style_gen.h **** {
 3142              		.loc 3 103 26 view .LVU1126
 3143              	.LBB164:
 105:Middlewares/lvgl/src/widgets/../core/lv_obj_style_gen.h ****     return (lv_coord_t)v.num;
 3144              		.loc 3 105 5 view .LVU1127
 105:Middlewares/lvgl/src/widgets/../core/lv_obj_style_gen.h ****     return (lv_coord_t)v.num;
 3145              		.loc 3 105 26 is_stmt 0 view .LVU1128
 3146 0090 41F21202 		movw	r2, #4114
 3147 0094 4FF4A021 		mov	r1, #327680
 3148 0098 2046     		mov	r0, r4
 3149 009a FFF7FEFF 		bl	lv_obj_get_style_prop
 3150              	.LVL333:
 106:Middlewares/lvgl/src/widgets/../core/lv_obj_style_gen.h **** }
 3151              		.loc 3 106 5 is_stmt 1 view .LVU1129
 106:Middlewares/lvgl/src/widgets/../core/lv_obj_style_gen.h **** }
 3152              		.loc 3 106 12 is_stmt 0 view .LVU1130
 3153 009e 0FFA80F8 		sxth	r8, r0
 3154              	.LVL334:
 106:Middlewares/lvgl/src/widgets/../core/lv_obj_style_gen.h **** }
 3155              		.loc 3 106 12 view .LVU1131
 3156              	.LBE164:
 3157              	.LBE163:
 185:Middlewares/lvgl/src/widgets/lv_table.c ****     lv_coord_t cell_top = lv_obj_get_style_pad_top(obj, LV_PART_ITEMS);
 3158              		.loc 1 185 5 is_stmt 1 view .LVU1132
 3159              	.LBB165:
 3160              	.LBI165:
ARM GAS  /tmp/ccQS5ib5.s 			page 100


 109:Middlewares/lvgl/src/widgets/../core/lv_obj_style_gen.h **** {
 3161              		.loc 3 109 26 view .LVU1133
 3162              	.LBB166:
 111:Middlewares/lvgl/src/widgets/../core/lv_obj_style_gen.h ****     return (lv_coord_t)v.num;
 3163              		.loc 3 111 5 view .LVU1134
 111:Middlewares/lvgl/src/widgets/../core/lv_obj_style_gen.h ****     return (lv_coord_t)v.num;
 3164              		.loc 3 111 26 is_stmt 0 view .LVU1135
 3165 00a2 41F21302 		movw	r2, #4115
 3166 00a6 4FF4A021 		mov	r1, #327680
 3167 00aa 2046     		mov	r0, r4
 3168 00ac FFF7FEFF 		bl	lv_obj_get_style_prop
 3169              	.LVL335:
 112:Middlewares/lvgl/src/widgets/../core/lv_obj_style_gen.h **** }
 3170              		.loc 3 112 5 is_stmt 1 view .LVU1136
 112:Middlewares/lvgl/src/widgets/../core/lv_obj_style_gen.h **** }
 3171              		.loc 3 112 12 is_stmt 0 view .LVU1137
 3172 00b0 0FFA80F9 		sxth	r9, r0
 3173              	.LVL336:
 112:Middlewares/lvgl/src/widgets/../core/lv_obj_style_gen.h **** }
 3174              		.loc 3 112 12 view .LVU1138
 3175              	.LBE166:
 3176              	.LBE165:
 186:Middlewares/lvgl/src/widgets/lv_table.c ****     lv_coord_t cell_bottom = lv_obj_get_style_pad_bottom(obj, LV_PART_ITEMS);
 3177              		.loc 1 186 5 is_stmt 1 view .LVU1139
 3178              	.LBB167:
 3179              	.LBI167:
  91:Middlewares/lvgl/src/widgets/../core/lv_obj_style_gen.h **** {
 3180              		.loc 3 91 26 view .LVU1140
 3181              	.LBB168:
  93:Middlewares/lvgl/src/widgets/../core/lv_obj_style_gen.h ****     return (lv_coord_t)v.num;
 3182              		.loc 3 93 5 view .LVU1141
  93:Middlewares/lvgl/src/widgets/../core/lv_obj_style_gen.h ****     return (lv_coord_t)v.num;
 3183              		.loc 3 93 26 is_stmt 0 view .LVU1142
 3184 00b4 41F21002 		movw	r2, #4112
 3185 00b8 4FF4A021 		mov	r1, #327680
 3186 00bc 2046     		mov	r0, r4
 3187 00be FFF7FEFF 		bl	lv_obj_get_style_prop
 3188              	.LVL337:
  94:Middlewares/lvgl/src/widgets/../core/lv_obj_style_gen.h **** }
 3189              		.loc 3 94 5 is_stmt 1 view .LVU1143
  94:Middlewares/lvgl/src/widgets/../core/lv_obj_style_gen.h **** }
 3190              		.loc 3 94 12 is_stmt 0 view .LVU1144
 3191 00c2 0FFA80FA 		sxth	r10, r0
 3192              	.LVL338:
  94:Middlewares/lvgl/src/widgets/../core/lv_obj_style_gen.h **** }
 3193              		.loc 3 94 12 view .LVU1145
 3194              	.LBE168:
 3195              	.LBE167:
 187:Middlewares/lvgl/src/widgets/lv_table.c **** 
 3196              		.loc 1 187 5 is_stmt 1 view .LVU1146
 3197              	.LBB169:
 3198              	.LBI169:
  97:Middlewares/lvgl/src/widgets/../core/lv_obj_style_gen.h **** {
 3199              		.loc 3 97 26 view .LVU1147
 3200              	.LBB170:
  99:Middlewares/lvgl/src/widgets/../core/lv_obj_style_gen.h ****     return (lv_coord_t)v.num;
 3201              		.loc 3 99 5 view .LVU1148
ARM GAS  /tmp/ccQS5ib5.s 			page 101


  99:Middlewares/lvgl/src/widgets/../core/lv_obj_style_gen.h ****     return (lv_coord_t)v.num;
 3202              		.loc 3 99 26 is_stmt 0 view .LVU1149
 3203 00c6 41F21102 		movw	r2, #4113
 3204 00ca 4FF4A021 		mov	r1, #327680
 3205 00ce 2046     		mov	r0, r4
 3206 00d0 FFF7FEFF 		bl	lv_obj_get_style_prop
 3207              	.LVL339:
 100:Middlewares/lvgl/src/widgets/../core/lv_obj_style_gen.h **** }
 3208              		.loc 3 100 5 is_stmt 1 view .LVU1150
 100:Middlewares/lvgl/src/widgets/../core/lv_obj_style_gen.h **** }
 3209              		.loc 3 100 12 is_stmt 0 view .LVU1151
 3210 00d4 0FFA80FB 		sxth	fp, r0
 3211              	.LVL340:
 100:Middlewares/lvgl/src/widgets/../core/lv_obj_style_gen.h **** }
 3212              		.loc 3 100 12 view .LVU1152
 3213              	.LBE170:
 3214              	.LBE169:
 189:Middlewares/lvgl/src/widgets/lv_table.c ****     lv_coord_t line_space = lv_obj_get_style_text_line_space(obj, LV_PART_ITEMS);
 3215              		.loc 1 189 5 is_stmt 1 view .LVU1153
 3216              	.LBB171:
 3217              	.LBI171:
 337:Middlewares/lvgl/src/widgets/../core/lv_obj_style_gen.h **** {
 3218              		.loc 3 337 26 view .LVU1154
 3219              	.LBB172:
 339:Middlewares/lvgl/src/widgets/../core/lv_obj_style_gen.h ****     return (lv_coord_t)v.num;
 3220              		.loc 3 339 5 view .LVU1155
 339:Middlewares/lvgl/src/widgets/../core/lv_obj_style_gen.h ****     return (lv_coord_t)v.num;
 3221              		.loc 3 339 26 is_stmt 0 view .LVU1156
 3222 00d8 41F25A42 		movw	r2, #5210
 3223 00dc 4FF4A021 		mov	r1, #327680
 3224 00e0 2046     		mov	r0, r4
 3225 00e2 FFF7FEFF 		bl	lv_obj_get_style_prop
 3226              	.LVL341:
 340:Middlewares/lvgl/src/widgets/../core/lv_obj_style_gen.h **** }
 3227              		.loc 3 340 5 is_stmt 1 view .LVU1157
 340:Middlewares/lvgl/src/widgets/../core/lv_obj_style_gen.h **** }
 3228              		.loc 3 340 12 is_stmt 0 view .LVU1158
 3229 00e6 05B2     		sxth	r5, r0
 3230              	.LVL342:
 340:Middlewares/lvgl/src/widgets/../core/lv_obj_style_gen.h **** }
 3231              		.loc 3 340 12 view .LVU1159
 3232              	.LBE172:
 3233              	.LBE171:
 190:Middlewares/lvgl/src/widgets/lv_table.c ****     const lv_font_t * font = lv_obj_get_style_text_font(obj, LV_PART_ITEMS);
 3234              		.loc 1 190 5 is_stmt 1 view .LVU1160
 3235              	.LBB173:
 3236              	.LBI173:
 343:Middlewares/lvgl/src/widgets/../core/lv_obj_style_gen.h **** {
 3237              		.loc 3 343 26 view .LVU1161
 3238              	.LBB174:
 345:Middlewares/lvgl/src/widgets/../core/lv_obj_style_gen.h ****     return (lv_coord_t)v.num;
 3239              		.loc 3 345 5 view .LVU1162
 345:Middlewares/lvgl/src/widgets/../core/lv_obj_style_gen.h ****     return (lv_coord_t)v.num;
 3240              		.loc 3 345 26 is_stmt 0 view .LVU1163
 3241 00e8 41F25B42 		movw	r2, #5211
 3242 00ec 4FF4A021 		mov	r1, #327680
 3243 00f0 2046     		mov	r0, r4
ARM GAS  /tmp/ccQS5ib5.s 			page 102


 3244 00f2 FFF7FEFF 		bl	lv_obj_get_style_prop
 3245              	.LVL343:
 3246              		.loc 3 346 5 is_stmt 1 view .LVU1164
 3247              		.loc 3 346 12 is_stmt 0 view .LVU1165
 3248 00f6 07B2     		sxth	r7, r0
 3249              	.LVL344:
 3250              		.loc 3 346 12 view .LVU1166
 3251              	.LBE174:
 3252              	.LBE173:
 191:Middlewares/lvgl/src/widgets/lv_table.c **** 
 3253              		.loc 1 191 5 is_stmt 1 view .LVU1167
 3254              	.LBB175:
 3255              	.LBI175:
 331:Middlewares/lvgl/src/widgets/../core/lv_obj_style_gen.h **** {
 3256              		.loc 3 331 33 view .LVU1168
 3257              	.LBB176:
 333:Middlewares/lvgl/src/widgets/../core/lv_obj_style_gen.h ****     return (const lv_font_t *)v.ptr;
 3258              		.loc 3 333 5 view .LVU1169
 333:Middlewares/lvgl/src/widgets/../core/lv_obj_style_gen.h ****     return (const lv_font_t *)v.ptr;
 3259              		.loc 3 333 26 is_stmt 0 view .LVU1170
 3260 00f8 41F25942 		movw	r2, #5209
 3261 00fc 4FF4A021 		mov	r1, #327680
 3262 0100 2046     		mov	r0, r4
 3263 0102 FFF7FEFF 		bl	lv_obj_get_style_prop
 3264              	.LVL345:
 3265 0106 0246     		mov	r2, r0
 334:Middlewares/lvgl/src/widgets/../core/lv_obj_style_gen.h **** }
 3266              		.loc 3 334 5 is_stmt 1 view .LVU1171
 3267              	.LVL346:
 334:Middlewares/lvgl/src/widgets/../core/lv_obj_style_gen.h **** }
 3268              		.loc 3 334 5 is_stmt 0 view .LVU1172
 3269              	.LBE176:
 3270              	.LBE175:
 193:Middlewares/lvgl/src/widgets/lv_table.c ****                                        cell_left, cell_right, cell_top, cell_bottom);
 3271              		.loc 1 193 5 is_stmt 1 view .LVU1173
 193:Middlewares/lvgl/src/widgets/lv_table.c ****                                        cell_left, cell_right, cell_top, cell_bottom);
 3272              		.loc 1 193 20 is_stmt 0 view .LVU1174
 3273 0108 CDF810B0 		str	fp, [sp, #16]
 3274 010c CDF80CA0 		str	r10, [sp, #12]
 3275 0110 CDF80890 		str	r9, [sp, #8]
 3276 0114 CDF80480 		str	r8, [sp, #4]
 3277 0118 0097     		str	r7, [sp]
 3278 011a 2B46     		mov	r3, r5
 3279 011c 3146     		mov	r1, r6
 3280 011e 2046     		mov	r0, r4
 3281              	.LVL347:
 193:Middlewares/lvgl/src/widgets/lv_table.c ****                                        cell_left, cell_right, cell_top, cell_bottom);
 3282              		.loc 1 193 20 view .LVU1175
 3283 0120 FFF7FEFF 		bl	get_row_height
 3284              	.LVL348:
 193:Middlewares/lvgl/src/widgets/lv_table.c ****                                        cell_left, cell_right, cell_top, cell_bottom);
 3285              		.loc 1 193 20 view .LVU1176
 3286 0124 0546     		mov	r5, r0
 3287              	.LVL349:
 197:Middlewares/lvgl/src/widgets/lv_table.c ****     lv_coord_t maxh = lv_obj_get_style_max_height(obj, LV_PART_ITEMS);
 3288              		.loc 1 197 5 is_stmt 1 view .LVU1177
 3289              	.LBB177:
ARM GAS  /tmp/ccQS5ib5.s 			page 103


 3290              	.LBI177:
  25:Middlewares/lvgl/src/widgets/../core/lv_obj_style_gen.h **** {
 3291              		.loc 3 25 26 view .LVU1178
 3292              	.LBB178:
  27:Middlewares/lvgl/src/widgets/../core/lv_obj_style_gen.h ****     return (lv_coord_t)v.num;
 3293              		.loc 3 27 5 view .LVU1179
  27:Middlewares/lvgl/src/widgets/../core/lv_obj_style_gen.h ****     return (lv_coord_t)v.num;
 3294              		.loc 3 27 26 is_stmt 0 view .LVU1180
 3295 0126 41F20502 		movw	r2, #4101
 3296 012a 4FF4A021 		mov	r1, #327680
 3297 012e 2046     		mov	r0, r4
 3298 0130 FFF7FEFF 		bl	lv_obj_get_style_prop
 3299              	.LVL350:
  28:Middlewares/lvgl/src/widgets/../core/lv_obj_style_gen.h **** }
 3300              		.loc 3 28 5 is_stmt 1 view .LVU1181
  28:Middlewares/lvgl/src/widgets/../core/lv_obj_style_gen.h **** }
 3301              		.loc 3 28 12 is_stmt 0 view .LVU1182
 3302 0134 07B2     		sxth	r7, r0
 3303              	.LVL351:
  28:Middlewares/lvgl/src/widgets/../core/lv_obj_style_gen.h **** }
 3304              		.loc 3 28 12 view .LVU1183
 3305              	.LBE178:
 3306              	.LBE177:
 198:Middlewares/lvgl/src/widgets/lv_table.c **** 
 3307              		.loc 1 198 5 is_stmt 1 view .LVU1184
 3308              	.LBB179:
 3309              	.LBI179:
  31:Middlewares/lvgl/src/widgets/../core/lv_obj_style_gen.h **** {
 3310              		.loc 3 31 26 view .LVU1185
 3311              	.LBB180:
  33:Middlewares/lvgl/src/widgets/../core/lv_obj_style_gen.h ****     return (lv_coord_t)v.num;
 3312              		.loc 3 33 5 view .LVU1186
  33:Middlewares/lvgl/src/widgets/../core/lv_obj_style_gen.h ****     return (lv_coord_t)v.num;
 3313              		.loc 3 33 26 is_stmt 0 view .LVU1187
 3314 0136 41F20602 		movw	r2, #4102
 3315 013a 4FF4A021 		mov	r1, #327680
 3316 013e 2046     		mov	r0, r4
 3317 0140 FFF7FEFF 		bl	lv_obj_get_style_prop
 3318              	.LVL352:
  34:Middlewares/lvgl/src/widgets/../core/lv_obj_style_gen.h **** }
 3319              		.loc 3 34 5 is_stmt 1 view .LVU1188
  34:Middlewares/lvgl/src/widgets/../core/lv_obj_style_gen.h **** }
 3320              		.loc 3 34 12 is_stmt 0 view .LVU1189
 3321 0144 03B2     		sxth	r3, r0
 3322              	.LVL353:
  34:Middlewares/lvgl/src/widgets/../core/lv_obj_style_gen.h **** }
 3323              		.loc 3 34 12 view .LVU1190
 3324              	.LBE180:
 3325              	.LBE179:
 200:Middlewares/lvgl/src/widgets/lv_table.c **** 
 3326              		.loc 1 200 5 is_stmt 1 view .LVU1191
 200:Middlewares/lvgl/src/widgets/lv_table.c **** 
 3327              		.loc 1 200 25 is_stmt 0 view .LVU1192
 3328 0146 9D42     		cmp	r5, r3
 3329 0148 A8BF     		it	ge
 3330 014a 1D46     		movge	r5, r3
 3331              	.LVL354:
ARM GAS  /tmp/ccQS5ib5.s 			page 104


 200:Middlewares/lvgl/src/widgets/lv_table.c **** 
 3332              		.loc 1 200 25 view .LVU1193
 3333 014c 2BB2     		sxth	r3, r5
 3334              	.LVL355:
 200:Middlewares/lvgl/src/widgets/lv_table.c **** 
 3335              		.loc 1 200 10 view .LVU1194
 3336 014e E26A     		ldr	r2, [r4, #44]
 200:Middlewares/lvgl/src/widgets/lv_table.c **** 
 3337              		.loc 1 200 25 view .LVU1195
 3338 0150 BB42     		cmp	r3, r7
 3339 0152 B8BF     		it	lt
 3340 0154 3B46     		movlt	r3, r7
 200:Middlewares/lvgl/src/widgets/lv_table.c **** 
 3341              		.loc 1 200 23 view .LVU1196
 3342 0156 22F81630 		strh	r3, [r2, r6, lsl #1]	@ movhi
 202:Middlewares/lvgl/src/widgets/lv_table.c **** }
 3343              		.loc 1 202 5 is_stmt 1 view .LVU1197
 3344 015a 2046     		mov	r0, r4
 3345              	.LVL356:
 202:Middlewares/lvgl/src/widgets/lv_table.c **** }
 3346              		.loc 1 202 5 is_stmt 0 view .LVU1198
 3347 015c FFF7FEFF 		bl	lv_obj_invalidate
 3348              	.LVL357:
 3349              	.L152:
 203:Middlewares/lvgl/src/widgets/lv_table.c **** 
 3350              		.loc 1 203 1 view .LVU1199
 3351 0160 08B0     		add	sp, sp, #32
 3352              	.LCFI24:
 3353              		.cfi_remember_state
 3354              		.cfi_def_cfa_offset 40
 3355              		@ sp needed
 3356 0162 BDE8F04F 		pop	{r4, r5, r6, r7, r8, r9, r10, fp, lr}
 3357              	.LCFI25:
 3358              		.cfi_restore 14
 3359              		.cfi_restore 11
 3360              		.cfi_restore 10
 3361              		.cfi_restore 9
 3362              		.cfi_restore 8
 3363              		.cfi_restore 7
 3364              		.cfi_restore 6
 3365              		.cfi_restore 5
 3366              		.cfi_restore 4
 3367              		.cfi_def_cfa_offset 4
 3368              	.LVL358:
 203:Middlewares/lvgl/src/widgets/lv_table.c **** 
 3369              		.loc 1 203 1 view .LVU1200
 3370 0166 01B0     		add	sp, sp, #4
 3371              	.LCFI26:
 3372              		.cfi_restore 3
 3373              		.cfi_def_cfa_offset 0
 3374 0168 7047     		bx	lr
 3375              	.LVL359:
 3376              	.L154:
 3377              	.LCFI27:
 3378              		.cfi_restore_state
 117:Middlewares/lvgl/src/widgets/lv_table.c **** 
 3379              		.loc 1 117 5 is_stmt 1 discriminator 1 view .LVU1201
ARM GAS  /tmp/ccQS5ib5.s 			page 105


 117:Middlewares/lvgl/src/widgets/lv_table.c **** 
 3380              		.loc 1 117 5 discriminator 1 view .LVU1202
 117:Middlewares/lvgl/src/widgets/lv_table.c **** 
 3381              		.loc 1 117 5 discriminator 1 view .LVU1203
 117:Middlewares/lvgl/src/widgets/lv_table.c **** 
 3382              		.loc 1 117 5 discriminator 1 view .LVU1204
 3383 016a FEE7     		b	.L154
 3384              	.LVL360:
 3385              	.L163:
 127:Middlewares/lvgl/src/widgets/lv_table.c ****     }
 3386              		.loc 1 127 9 view .LVU1205
 3387 016c 0131     		adds	r1, r1, #1
 3388              	.LVL361:
 127:Middlewares/lvgl/src/widgets/lv_table.c ****     }
 3389              		.loc 1 127 9 is_stmt 0 view .LVU1206
 3390 016e 89B2     		uxth	r1, r1
 3391 0170 FFF7FEFF 		bl	lv_table_set_row_cnt
 3392              	.LVL362:
 127:Middlewares/lvgl/src/widgets/lv_table.c ****     }
 3393              		.loc 1 127 9 view .LVU1207
 3394 0174 59E7     		b	.L157
 3395              	.LVL363:
 3396              	.L161:
 131:Middlewares/lvgl/src/widgets/lv_table.c **** 
 3397              		.loc 1 131 26 view .LVU1208
 3398 0176 4FF00009 		mov	r9, #0
 3399 017a 61E7     		b	.L158
 3400              	.LVL364:
 3401              	.L160:
 168:Middlewares/lvgl/src/widgets/lv_table.c ****     if(table->cell_data[cell] == NULL) {
 3402              		.loc 1 168 5 is_stmt 1 discriminator 2 view .LVU1209
 168:Middlewares/lvgl/src/widgets/lv_table.c ****     if(table->cell_data[cell] == NULL) {
 3403              		.loc 1 168 5 discriminator 2 view .LVU1210
 168:Middlewares/lvgl/src/widgets/lv_table.c ****     if(table->cell_data[cell] == NULL) {
 3404              		.loc 1 168 5 discriminator 2 view .LVU1211
 168:Middlewares/lvgl/src/widgets/lv_table.c ****     if(table->cell_data[cell] == NULL) {
 3405              		.loc 1 168 5 discriminator 2 view .LVU1212
 3406 017c FEE7     		b	.L160
 3407              		.cfi_endproc
 3408              	.LFE149:
 3410              		.section	.text.lv_table_set_col_cnt,"ax",%progbits
 3411              		.align	1
 3412              		.global	lv_table_set_col_cnt
 3413              		.syntax unified
 3414              		.thumb
 3415              		.thumb_func
 3416              		.fpu fpv4-sp-d16
 3418              	lv_table_set_col_cnt:
 3419              	.LVL365:
 3420              	.LFB151:
 242:Middlewares/lvgl/src/widgets/lv_table.c ****     LV_ASSERT_OBJ(obj, MY_CLASS);
 3421              		.loc 1 242 1 view -0
 3422              		.cfi_startproc
 3423              		@ args = 0, pretend = 0, frame = 0
 3424              		@ frame_needed = 0, uses_anonymous_args = 0
 242:Middlewares/lvgl/src/widgets/lv_table.c ****     LV_ASSERT_OBJ(obj, MY_CLASS);
 3425              		.loc 1 242 1 is_stmt 0 view .LVU1214
ARM GAS  /tmp/ccQS5ib5.s 			page 106


 3426 0000 2DE9F041 		push	{r4, r5, r6, r7, r8, lr}
 3427              	.LCFI28:
 3428              		.cfi_def_cfa_offset 24
 3429              		.cfi_offset 4, -24
 3430              		.cfi_offset 5, -20
 3431              		.cfi_offset 6, -16
 3432              		.cfi_offset 7, -12
 3433              		.cfi_offset 8, -8
 3434              		.cfi_offset 14, -4
 3435 0004 0446     		mov	r4, r0
 3436 0006 0D46     		mov	r5, r1
 243:Middlewares/lvgl/src/widgets/lv_table.c **** 
 3437              		.loc 1 243 5 is_stmt 1 view .LVU1215
 243:Middlewares/lvgl/src/widgets/lv_table.c **** 
 3438              		.loc 1 243 5 view .LVU1216
 243:Middlewares/lvgl/src/widgets/lv_table.c **** 
 3439              		.loc 1 243 5 view .LVU1217
 245:Middlewares/lvgl/src/widgets/lv_table.c ****     uint16_t old_col_cnt = table->col_cnt;
 3440              		.loc 1 245 5 view .LVU1218
 3441              	.LVL366:
 246:Middlewares/lvgl/src/widgets/lv_table.c ****     table->col_cnt         = col_cnt;
 3442              		.loc 1 246 5 view .LVU1219
 246:Middlewares/lvgl/src/widgets/lv_table.c ****     table->col_cnt         = col_cnt;
 3443              		.loc 1 246 14 is_stmt 0 view .LVU1220
 3444 0008 868C     		ldrh	r6, [r0, #36]
 3445              	.LVL367:
 247:Middlewares/lvgl/src/widgets/lv_table.c ****     table->col_w = lv_mem_realloc(table->col_w, col_cnt * sizeof(table->row_h[0]));
 3446              		.loc 1 247 5 is_stmt 1 view .LVU1221
 247:Middlewares/lvgl/src/widgets/lv_table.c ****     table->col_w = lv_mem_realloc(table->col_w, col_cnt * sizeof(table->row_h[0]));
 3447              		.loc 1 247 28 is_stmt 0 view .LVU1222
 3448 000a 8184     		strh	r1, [r0, #36]	@ movhi
 248:Middlewares/lvgl/src/widgets/lv_table.c ****     LV_ASSERT_MALLOC(table->col_w);
 3449              		.loc 1 248 5 is_stmt 1 view .LVU1223
 248:Middlewares/lvgl/src/widgets/lv_table.c ****     LV_ASSERT_MALLOC(table->col_w);
 3450              		.loc 1 248 20 is_stmt 0 view .LVU1224
 3451 000c 4900     		lsls	r1, r1, #1
 3452              	.LVL368:
 248:Middlewares/lvgl/src/widgets/lv_table.c ****     LV_ASSERT_MALLOC(table->col_w);
 3453              		.loc 1 248 20 view .LVU1225
 3454 000e 006B     		ldr	r0, [r0, #48]
 3455              	.LVL369:
 248:Middlewares/lvgl/src/widgets/lv_table.c ****     LV_ASSERT_MALLOC(table->col_w);
 3456              		.loc 1 248 20 view .LVU1226
 3457 0010 FFF7FEFF 		bl	lv_mem_realloc
 3458              	.LVL370:
 248:Middlewares/lvgl/src/widgets/lv_table.c ****     LV_ASSERT_MALLOC(table->col_w);
 3459              		.loc 1 248 18 view .LVU1227
 3460 0014 2063     		str	r0, [r4, #48]
 249:Middlewares/lvgl/src/widgets/lv_table.c ****     if(table->col_w == NULL) return;
 3461              		.loc 1 249 5 is_stmt 1 view .LVU1228
 249:Middlewares/lvgl/src/widgets/lv_table.c ****     if(table->col_w == NULL) return;
 3462              		.loc 1 249 5 view .LVU1229
 3463 0016 50B1     		cbz	r0, .L166
 249:Middlewares/lvgl/src/widgets/lv_table.c ****     if(table->col_w == NULL) return;
 3464              		.loc 1 249 5 view .LVU1230
 249:Middlewares/lvgl/src/widgets/lv_table.c ****     if(table->col_w == NULL) return;
 3465              		.loc 1 249 35 view .LVU1231
ARM GAS  /tmp/ccQS5ib5.s 			page 107


 250:Middlewares/lvgl/src/widgets/lv_table.c **** 
 3466              		.loc 1 250 5 view .LVU1232
 253:Middlewares/lvgl/src/widgets/lv_table.c ****        uint16_t old_cell_cnt = old_col_cnt * table->row_cnt;
 3467              		.loc 1 253 5 view .LVU1233
 253:Middlewares/lvgl/src/widgets/lv_table.c ****        uint16_t old_cell_cnt = old_col_cnt * table->row_cnt;
 3468              		.loc 1 253 7 is_stmt 0 view .LVU1234
 3469 0018 AE42     		cmp	r6, r5
 3470 001a 11D9     		bls	.L167
 3471              	.LBB181:
 254:Middlewares/lvgl/src/widgets/lv_table.c ****        uint32_t new_cell_cnt = table->col_cnt * table->row_cnt;
 3472              		.loc 1 254 8 is_stmt 1 view .LVU1235
 254:Middlewares/lvgl/src/widgets/lv_table.c ****        uint32_t new_cell_cnt = table->col_cnt * table->row_cnt;
 3473              		.loc 1 254 51 is_stmt 0 view .LVU1236
 3474 001c E38C     		ldrh	r3, [r4, #38]
 254:Middlewares/lvgl/src/widgets/lv_table.c ****        uint32_t new_cell_cnt = table->col_cnt * table->row_cnt;
 3475              		.loc 1 254 17 view .LVU1237
 3476 001e 13FB06F8 		smulbb	r8, r3, r6
 3477 0022 1FFA88F8 		uxth	r8, r8
 3478              	.LVL371:
 255:Middlewares/lvgl/src/widgets/lv_table.c ****        uint32_t i;
 3479              		.loc 1 255 8 is_stmt 1 view .LVU1238
 255:Middlewares/lvgl/src/widgets/lv_table.c ****        uint32_t i;
 3480              		.loc 1 255 37 is_stmt 0 view .LVU1239
 3481 0026 A78C     		ldrh	r7, [r4, #36]
 255:Middlewares/lvgl/src/widgets/lv_table.c ****        uint32_t i;
 3482              		.loc 1 255 47 view .LVU1240
 3483 0028 03FB07F7 		mul	r7, r3, r7
 3484              	.LVL372:
 256:Middlewares/lvgl/src/widgets/lv_table.c ****        for(i = new_cell_cnt; i < old_cell_cnt; i++) {
 3485              		.loc 1 256 8 is_stmt 1 view .LVU1241
 257:Middlewares/lvgl/src/widgets/lv_table.c ****            lv_mem_free(table->cell_data[i]);
 3486              		.loc 1 257 8 view .LVU1242
 257:Middlewares/lvgl/src/widgets/lv_table.c ****            lv_mem_free(table->cell_data[i]);
 3487              		.loc 1 257 8 is_stmt 0 view .LVU1243
 3488 002c 06E0     		b	.L168
 3489              	.LVL373:
 3490              	.L166:
 257:Middlewares/lvgl/src/widgets/lv_table.c ****            lv_mem_free(table->cell_data[i]);
 3491              		.loc 1 257 8 view .LVU1244
 3492              	.LBE181:
 249:Middlewares/lvgl/src/widgets/lv_table.c ****     if(table->col_w == NULL) return;
 3493              		.loc 1 249 5 is_stmt 1 discriminator 1 view .LVU1245
 249:Middlewares/lvgl/src/widgets/lv_table.c ****     if(table->col_w == NULL) return;
 3494              		.loc 1 249 5 discriminator 1 view .LVU1246
 249:Middlewares/lvgl/src/widgets/lv_table.c ****     if(table->col_w == NULL) return;
 3495              		.loc 1 249 5 discriminator 1 view .LVU1247
 249:Middlewares/lvgl/src/widgets/lv_table.c ****     if(table->col_w == NULL) return;
 3496              		.loc 1 249 5 discriminator 1 view .LVU1248
 3497 002e FEE7     		b	.L166
 3498              	.LVL374:
 3499              	.L169:
 3500              	.LBB182:
 258:Middlewares/lvgl/src/widgets/lv_table.c ****        }
 3501              		.loc 1 258 12 discriminator 3 view .LVU1249
 258:Middlewares/lvgl/src/widgets/lv_table.c ****        }
 3502              		.loc 1 258 29 is_stmt 0 discriminator 3 view .LVU1250
 3503 0030 A36A     		ldr	r3, [r4, #40]
ARM GAS  /tmp/ccQS5ib5.s 			page 108


 258:Middlewares/lvgl/src/widgets/lv_table.c ****        }
 3504              		.loc 1 258 12 discriminator 3 view .LVU1251
 3505 0032 53F82700 		ldr	r0, [r3, r7, lsl #2]
 3506 0036 FFF7FEFF 		bl	lv_mem_free
 3507              	.LVL375:
 257:Middlewares/lvgl/src/widgets/lv_table.c ****            lv_mem_free(table->cell_data[i]);
 3508              		.loc 1 257 48 is_stmt 1 discriminator 3 view .LVU1252
 257:Middlewares/lvgl/src/widgets/lv_table.c ****            lv_mem_free(table->cell_data[i]);
 3509              		.loc 1 257 49 is_stmt 0 discriminator 3 view .LVU1253
 3510 003a 0137     		adds	r7, r7, #1
 3511              	.LVL376:
 3512              	.L168:
 257:Middlewares/lvgl/src/widgets/lv_table.c ****            lv_mem_free(table->cell_data[i]);
 3513              		.loc 1 257 30 is_stmt 1 discriminator 1 view .LVU1254
 257:Middlewares/lvgl/src/widgets/lv_table.c ****            lv_mem_free(table->cell_data[i]);
 3514              		.loc 1 257 8 is_stmt 0 discriminator 1 view .LVU1255
 3515 003c B845     		cmp	r8, r7
 3516 003e F7D8     		bhi	.L169
 3517              	.LVL377:
 3518              	.L167:
 257:Middlewares/lvgl/src/widgets/lv_table.c ****            lv_mem_free(table->cell_data[i]);
 3519              		.loc 1 257 8 discriminator 1 view .LVU1256
 3520              	.LBE182:
 262:Middlewares/lvgl/src/widgets/lv_table.c ****     LV_ASSERT_MALLOC(new_cell_data);
 3521              		.loc 1 262 5 is_stmt 1 view .LVU1257
 262:Middlewares/lvgl/src/widgets/lv_table.c ****     LV_ASSERT_MALLOC(new_cell_data);
 3522              		.loc 1 262 47 is_stmt 0 view .LVU1258
 3523 0040 E08C     		ldrh	r0, [r4, #38]
 262:Middlewares/lvgl/src/widgets/lv_table.c ****     LV_ASSERT_MALLOC(new_cell_data);
 3524              		.loc 1 262 64 view .LVU1259
 3525 0042 A38C     		ldrh	r3, [r4, #36]
 262:Middlewares/lvgl/src/widgets/lv_table.c ****     LV_ASSERT_MALLOC(new_cell_data);
 3526              		.loc 1 262 57 view .LVU1260
 3527 0044 03FB00F0 		mul	r0, r3, r0
 262:Middlewares/lvgl/src/widgets/lv_table.c ****     LV_ASSERT_MALLOC(new_cell_data);
 3528              		.loc 1 262 29 view .LVU1261
 3529 0048 8000     		lsls	r0, r0, #2
 3530 004a FFF7FEFF 		bl	lv_mem_alloc
 3531              	.LVL378:
 263:Middlewares/lvgl/src/widgets/lv_table.c ****     if(new_cell_data == NULL) return;
 3532              		.loc 1 263 5 is_stmt 1 view .LVU1262
 263:Middlewares/lvgl/src/widgets/lv_table.c ****     if(new_cell_data == NULL) return;
 3533              		.loc 1 263 5 view .LVU1263
 3534 004e 0746     		mov	r7, r0
 3535 0050 50B1     		cbz	r0, .L171
 263:Middlewares/lvgl/src/widgets/lv_table.c ****     if(new_cell_data == NULL) return;
 3536              		.loc 1 263 5 view .LVU1264
 263:Middlewares/lvgl/src/widgets/lv_table.c ****     if(new_cell_data == NULL) return;
 3537              		.loc 1 263 36 view .LVU1265
 264:Middlewares/lvgl/src/widgets/lv_table.c ****     uint32_t new_cell_cnt = table->col_cnt * table->row_cnt;
 3538              		.loc 1 264 5 view .LVU1266
 265:Middlewares/lvgl/src/widgets/lv_table.c ****     lv_memset_00(new_cell_data, new_cell_cnt * sizeof(table->cell_data[0]));
 3539              		.loc 1 265 5 view .LVU1267
 265:Middlewares/lvgl/src/widgets/lv_table.c ****     lv_memset_00(new_cell_data, new_cell_cnt * sizeof(table->cell_data[0]));
 3540              		.loc 1 265 34 is_stmt 0 view .LVU1268
 3541 0052 A18C     		ldrh	r1, [r4, #36]
 265:Middlewares/lvgl/src/widgets/lv_table.c ****     lv_memset_00(new_cell_data, new_cell_cnt * sizeof(table->cell_data[0]));
ARM GAS  /tmp/ccQS5ib5.s 			page 109


 3542              		.loc 1 265 51 view .LVU1269
 3543 0054 E38C     		ldrh	r3, [r4, #38]
 265:Middlewares/lvgl/src/widgets/lv_table.c ****     lv_memset_00(new_cell_data, new_cell_cnt * sizeof(table->cell_data[0]));
 3544              		.loc 1 265 44 view .LVU1270
 3545 0056 03FB01F1 		mul	r1, r3, r1
 3546              	.LVL379:
 266:Middlewares/lvgl/src/widgets/lv_table.c **** 
 3547              		.loc 1 266 5 is_stmt 1 view .LVU1271
 3548 005a 8900     		lsls	r1, r1, #2
 3549              	.LVL380:
 266:Middlewares/lvgl/src/widgets/lv_table.c **** 
 3550              		.loc 1 266 5 is_stmt 0 view .LVU1272
 3551 005c FFF7FEFF 		bl	lv_memset_00
 3552              	.LVL381:
 269:Middlewares/lvgl/src/widgets/lv_table.c ****         uint32_t col;
 3553              		.loc 1 269 5 is_stmt 1 view .LVU1273
 269:Middlewares/lvgl/src/widgets/lv_table.c ****         uint32_t col;
 3554              		.loc 1 269 7 is_stmt 0 view .LVU1274
 3555 0060 AE42     		cmp	r6, r5
 3556 0062 09D2     		bcs	.L172
 3557              	.LBB183:
 270:Middlewares/lvgl/src/widgets/lv_table.c ****         for(col = old_col_cnt; col < col_cnt; col++) {
 3558              		.loc 1 270 9 is_stmt 1 view .LVU1275
 271:Middlewares/lvgl/src/widgets/lv_table.c ****             table->col_w[col] = LV_DPI_DEF;
 3559              		.loc 1 271 9 view .LVU1276
 271:Middlewares/lvgl/src/widgets/lv_table.c ****             table->col_w[col] = LV_DPI_DEF;
 3560              		.loc 1 271 17 is_stmt 0 view .LVU1277
 3561 0064 3346     		mov	r3, r6
 3562              	.LVL382:
 271:Middlewares/lvgl/src/widgets/lv_table.c ****             table->col_w[col] = LV_DPI_DEF;
 3563              		.loc 1 271 9 view .LVU1278
 3564 0066 05E0     		b	.L173
 3565              	.LVL383:
 3566              	.L171:
 271:Middlewares/lvgl/src/widgets/lv_table.c ****             table->col_w[col] = LV_DPI_DEF;
 3567              		.loc 1 271 9 view .LVU1279
 3568              	.LBE183:
 263:Middlewares/lvgl/src/widgets/lv_table.c ****     if(new_cell_data == NULL) return;
 3569              		.loc 1 263 5 is_stmt 1 discriminator 2 view .LVU1280
 263:Middlewares/lvgl/src/widgets/lv_table.c ****     if(new_cell_data == NULL) return;
 3570              		.loc 1 263 5 discriminator 2 view .LVU1281
 263:Middlewares/lvgl/src/widgets/lv_table.c ****     if(new_cell_data == NULL) return;
 3571              		.loc 1 263 5 discriminator 2 view .LVU1282
 263:Middlewares/lvgl/src/widgets/lv_table.c ****     if(new_cell_data == NULL) return;
 3572              		.loc 1 263 5 discriminator 2 view .LVU1283
 3573 0068 FEE7     		b	.L171
 3574              	.LVL384:
 3575              	.L174:
 3576              	.LBB184:
 272:Middlewares/lvgl/src/widgets/lv_table.c ****         }
 3577              		.loc 1 272 13 discriminator 3 view .LVU1284
 272:Middlewares/lvgl/src/widgets/lv_table.c ****         }
 3578              		.loc 1 272 18 is_stmt 0 discriminator 3 view .LVU1285
 3579 006a 226B     		ldr	r2, [r4, #48]
 272:Middlewares/lvgl/src/widgets/lv_table.c ****         }
 3580              		.loc 1 272 31 discriminator 3 view .LVU1286
 3581 006c 8221     		movs	r1, #130
ARM GAS  /tmp/ccQS5ib5.s 			page 110


 3582 006e 22F81310 		strh	r1, [r2, r3, lsl #1]	@ movhi
 271:Middlewares/lvgl/src/widgets/lv_table.c ****             table->col_w[col] = LV_DPI_DEF;
 3583              		.loc 1 271 47 is_stmt 1 discriminator 3 view .LVU1287
 271:Middlewares/lvgl/src/widgets/lv_table.c ****             table->col_w[col] = LV_DPI_DEF;
 3584              		.loc 1 271 50 is_stmt 0 discriminator 3 view .LVU1288
 3585 0072 0133     		adds	r3, r3, #1
 3586              	.LVL385:
 3587              	.L173:
 271:Middlewares/lvgl/src/widgets/lv_table.c ****             table->col_w[col] = LV_DPI_DEF;
 3588              		.loc 1 271 32 is_stmt 1 discriminator 1 view .LVU1289
 271:Middlewares/lvgl/src/widgets/lv_table.c ****             table->col_w[col] = LV_DPI_DEF;
 3589              		.loc 1 271 9 is_stmt 0 discriminator 1 view .LVU1290
 3590 0074 9D42     		cmp	r5, r3
 3591 0076 F8D8     		bhi	.L174
 3592              	.LVL386:
 3593              	.L172:
 271:Middlewares/lvgl/src/widgets/lv_table.c ****             table->col_w[col] = LV_DPI_DEF;
 3594              		.loc 1 271 9 discriminator 1 view .LVU1291
 3595              	.LBE184:
 277:Middlewares/lvgl/src/widgets/lv_table.c ****     uint32_t new_col_start;
 3596              		.loc 1 277 5 is_stmt 1 view .LVU1292
 278:Middlewares/lvgl/src/widgets/lv_table.c ****     uint32_t min_col_cnt = LV_MIN(old_col_cnt, col_cnt);
 3597              		.loc 1 278 5 view .LVU1293
 279:Middlewares/lvgl/src/widgets/lv_table.c ****     uint32_t row;
 3598              		.loc 1 279 5 view .LVU1294
 279:Middlewares/lvgl/src/widgets/lv_table.c ****     uint32_t row;
 3599              		.loc 1 279 28 is_stmt 0 view .LVU1295
 3600 0078 B646     		mov	lr, r6
 3601 007a AE42     		cmp	r6, r5
 3602 007c 28BF     		it	cs
 3603 007e AE46     		movcs	lr, r5
 3604              	.LVL387:
 280:Middlewares/lvgl/src/widgets/lv_table.c ****     for(row = 0; row < table->row_cnt; row++) {
 3605              		.loc 1 280 5 is_stmt 1 view .LVU1296
 281:Middlewares/lvgl/src/widgets/lv_table.c ****         old_col_start = row * old_col_cnt;
 3606              		.loc 1 281 5 view .LVU1297
 281:Middlewares/lvgl/src/widgets/lv_table.c ****         old_col_start = row * old_col_cnt;
 3607              		.loc 1 281 13 is_stmt 0 view .LVU1298
 3608 0080 0020     		movs	r0, #0
 281:Middlewares/lvgl/src/widgets/lv_table.c ****         old_col_start = row * old_col_cnt;
 3609              		.loc 1 281 5 view .LVU1299
 3610 0082 07E0     		b	.L175
 3611              	.LVL388:
 3612              	.L177:
 3613              	.LBB185:
 3614              	.LBB186:
 3615              		.file 5 "Middlewares/lvgl/src/widgets/../core/../hal/../misc/lv_mem.h"
   1:Middlewares/lvgl/src/widgets/../core/../hal/../misc/lv_mem.h **** /**
   2:Middlewares/lvgl/src/widgets/../core/../hal/../misc/lv_mem.h ****  * @file lv_mem.h
   3:Middlewares/lvgl/src/widgets/../core/../hal/../misc/lv_mem.h ****  *
   4:Middlewares/lvgl/src/widgets/../core/../hal/../misc/lv_mem.h ****  */
   5:Middlewares/lvgl/src/widgets/../core/../hal/../misc/lv_mem.h **** 
   6:Middlewares/lvgl/src/widgets/../core/../hal/../misc/lv_mem.h **** #ifndef LV_MEM_H
   7:Middlewares/lvgl/src/widgets/../core/../hal/../misc/lv_mem.h **** #define LV_MEM_H
   8:Middlewares/lvgl/src/widgets/../core/../hal/../misc/lv_mem.h **** 
   9:Middlewares/lvgl/src/widgets/../core/../hal/../misc/lv_mem.h **** #ifdef __cplusplus
  10:Middlewares/lvgl/src/widgets/../core/../hal/../misc/lv_mem.h **** extern "C" {
ARM GAS  /tmp/ccQS5ib5.s 			page 111


  11:Middlewares/lvgl/src/widgets/../core/../hal/../misc/lv_mem.h **** #endif
  12:Middlewares/lvgl/src/widgets/../core/../hal/../misc/lv_mem.h **** 
  13:Middlewares/lvgl/src/widgets/../core/../hal/../misc/lv_mem.h **** /*********************
  14:Middlewares/lvgl/src/widgets/../core/../hal/../misc/lv_mem.h ****  *      INCLUDES
  15:Middlewares/lvgl/src/widgets/../core/../hal/../misc/lv_mem.h ****  *********************/
  16:Middlewares/lvgl/src/widgets/../core/../hal/../misc/lv_mem.h **** #include "../lv_conf_internal.h"
  17:Middlewares/lvgl/src/widgets/../core/../hal/../misc/lv_mem.h **** 
  18:Middlewares/lvgl/src/widgets/../core/../hal/../misc/lv_mem.h **** #include <stdint.h>
  19:Middlewares/lvgl/src/widgets/../core/../hal/../misc/lv_mem.h **** #include <stddef.h>
  20:Middlewares/lvgl/src/widgets/../core/../hal/../misc/lv_mem.h **** #include "lv_log.h"
  21:Middlewares/lvgl/src/widgets/../core/../hal/../misc/lv_mem.h **** #include "lv_types.h"
  22:Middlewares/lvgl/src/widgets/../core/../hal/../misc/lv_mem.h **** 
  23:Middlewares/lvgl/src/widgets/../core/../hal/../misc/lv_mem.h **** #if LV_MEMCPY_MEMSET_STD
  24:Middlewares/lvgl/src/widgets/../core/../hal/../misc/lv_mem.h **** #include <string.h>
  25:Middlewares/lvgl/src/widgets/../core/../hal/../misc/lv_mem.h **** #endif
  26:Middlewares/lvgl/src/widgets/../core/../hal/../misc/lv_mem.h **** 
  27:Middlewares/lvgl/src/widgets/../core/../hal/../misc/lv_mem.h **** /*********************
  28:Middlewares/lvgl/src/widgets/../core/../hal/../misc/lv_mem.h ****  *      DEFINES
  29:Middlewares/lvgl/src/widgets/../core/../hal/../misc/lv_mem.h ****  *********************/
  30:Middlewares/lvgl/src/widgets/../core/../hal/../misc/lv_mem.h **** 
  31:Middlewares/lvgl/src/widgets/../core/../hal/../misc/lv_mem.h **** #ifndef LV_MEM_BUF_MAX_NUM
  32:Middlewares/lvgl/src/widgets/../core/../hal/../misc/lv_mem.h **** #define LV_MEM_BUF_MAX_NUM    16
  33:Middlewares/lvgl/src/widgets/../core/../hal/../misc/lv_mem.h **** #endif
  34:Middlewares/lvgl/src/widgets/../core/../hal/../misc/lv_mem.h **** 
  35:Middlewares/lvgl/src/widgets/../core/../hal/../misc/lv_mem.h **** /**********************
  36:Middlewares/lvgl/src/widgets/../core/../hal/../misc/lv_mem.h ****  *      TYPEDEFS
  37:Middlewares/lvgl/src/widgets/../core/../hal/../misc/lv_mem.h ****  **********************/
  38:Middlewares/lvgl/src/widgets/../core/../hal/../misc/lv_mem.h **** 
  39:Middlewares/lvgl/src/widgets/../core/../hal/../misc/lv_mem.h **** /**
  40:Middlewares/lvgl/src/widgets/../core/../hal/../misc/lv_mem.h ****  * Heap information structure.
  41:Middlewares/lvgl/src/widgets/../core/../hal/../misc/lv_mem.h ****  */
  42:Middlewares/lvgl/src/widgets/../core/../hal/../misc/lv_mem.h **** typedef struct {
  43:Middlewares/lvgl/src/widgets/../core/../hal/../misc/lv_mem.h ****     uint32_t total_size; /**< Total heap size*/
  44:Middlewares/lvgl/src/widgets/../core/../hal/../misc/lv_mem.h ****     uint32_t free_cnt;
  45:Middlewares/lvgl/src/widgets/../core/../hal/../misc/lv_mem.h ****     uint32_t free_size; /**< Size of available memory*/
  46:Middlewares/lvgl/src/widgets/../core/../hal/../misc/lv_mem.h ****     uint32_t free_biggest_size;
  47:Middlewares/lvgl/src/widgets/../core/../hal/../misc/lv_mem.h ****     uint32_t used_cnt;
  48:Middlewares/lvgl/src/widgets/../core/../hal/../misc/lv_mem.h ****     uint32_t max_used; /**< Max size of Heap memory used*/
  49:Middlewares/lvgl/src/widgets/../core/../hal/../misc/lv_mem.h ****     uint8_t used_pct; /**< Percentage used*/
  50:Middlewares/lvgl/src/widgets/../core/../hal/../misc/lv_mem.h ****     uint8_t frag_pct; /**< Amount of fragmentation*/
  51:Middlewares/lvgl/src/widgets/../core/../hal/../misc/lv_mem.h **** } lv_mem_monitor_t;
  52:Middlewares/lvgl/src/widgets/../core/../hal/../misc/lv_mem.h **** 
  53:Middlewares/lvgl/src/widgets/../core/../hal/../misc/lv_mem.h **** typedef struct {
  54:Middlewares/lvgl/src/widgets/../core/../hal/../misc/lv_mem.h ****     void * p;
  55:Middlewares/lvgl/src/widgets/../core/../hal/../misc/lv_mem.h ****     uint16_t size;
  56:Middlewares/lvgl/src/widgets/../core/../hal/../misc/lv_mem.h ****     uint8_t used : 1;
  57:Middlewares/lvgl/src/widgets/../core/../hal/../misc/lv_mem.h **** } lv_mem_buf_t;
  58:Middlewares/lvgl/src/widgets/../core/../hal/../misc/lv_mem.h **** 
  59:Middlewares/lvgl/src/widgets/../core/../hal/../misc/lv_mem.h **** typedef lv_mem_buf_t lv_mem_buf_arr_t[LV_MEM_BUF_MAX_NUM];
  60:Middlewares/lvgl/src/widgets/../core/../hal/../misc/lv_mem.h **** 
  61:Middlewares/lvgl/src/widgets/../core/../hal/../misc/lv_mem.h **** /**********************
  62:Middlewares/lvgl/src/widgets/../core/../hal/../misc/lv_mem.h ****  * GLOBAL PROTOTYPES
  63:Middlewares/lvgl/src/widgets/../core/../hal/../misc/lv_mem.h ****  **********************/
  64:Middlewares/lvgl/src/widgets/../core/../hal/../misc/lv_mem.h **** 
  65:Middlewares/lvgl/src/widgets/../core/../hal/../misc/lv_mem.h **** /**
  66:Middlewares/lvgl/src/widgets/../core/../hal/../misc/lv_mem.h ****  * Initialize the dyn_mem module (work memory and other variables)
  67:Middlewares/lvgl/src/widgets/../core/../hal/../misc/lv_mem.h ****  */
ARM GAS  /tmp/ccQS5ib5.s 			page 112


  68:Middlewares/lvgl/src/widgets/../core/../hal/../misc/lv_mem.h **** void lv_mem_init(void);
  69:Middlewares/lvgl/src/widgets/../core/../hal/../misc/lv_mem.h **** 
  70:Middlewares/lvgl/src/widgets/../core/../hal/../misc/lv_mem.h **** /**
  71:Middlewares/lvgl/src/widgets/../core/../hal/../misc/lv_mem.h ****  * Clean up the memory buffer which frees all the allocated memories.
  72:Middlewares/lvgl/src/widgets/../core/../hal/../misc/lv_mem.h ****  * @note It work only if `LV_MEM_CUSTOM == 0`
  73:Middlewares/lvgl/src/widgets/../core/../hal/../misc/lv_mem.h ****  */
  74:Middlewares/lvgl/src/widgets/../core/../hal/../misc/lv_mem.h **** void lv_mem_deinit(void);
  75:Middlewares/lvgl/src/widgets/../core/../hal/../misc/lv_mem.h **** 
  76:Middlewares/lvgl/src/widgets/../core/../hal/../misc/lv_mem.h **** /**
  77:Middlewares/lvgl/src/widgets/../core/../hal/../misc/lv_mem.h ****  * Allocate a memory dynamically
  78:Middlewares/lvgl/src/widgets/../core/../hal/../misc/lv_mem.h ****  * @param size size of the memory to allocate in bytes
  79:Middlewares/lvgl/src/widgets/../core/../hal/../misc/lv_mem.h ****  * @return pointer to the allocated memory
  80:Middlewares/lvgl/src/widgets/../core/../hal/../misc/lv_mem.h ****  */
  81:Middlewares/lvgl/src/widgets/../core/../hal/../misc/lv_mem.h **** void * lv_mem_alloc(size_t size);
  82:Middlewares/lvgl/src/widgets/../core/../hal/../misc/lv_mem.h **** 
  83:Middlewares/lvgl/src/widgets/../core/../hal/../misc/lv_mem.h **** /**
  84:Middlewares/lvgl/src/widgets/../core/../hal/../misc/lv_mem.h ****  * Free an allocated data
  85:Middlewares/lvgl/src/widgets/../core/../hal/../misc/lv_mem.h ****  * @param data pointer to an allocated memory
  86:Middlewares/lvgl/src/widgets/../core/../hal/../misc/lv_mem.h ****  */
  87:Middlewares/lvgl/src/widgets/../core/../hal/../misc/lv_mem.h **** void lv_mem_free(void * data);
  88:Middlewares/lvgl/src/widgets/../core/../hal/../misc/lv_mem.h **** 
  89:Middlewares/lvgl/src/widgets/../core/../hal/../misc/lv_mem.h **** /**
  90:Middlewares/lvgl/src/widgets/../core/../hal/../misc/lv_mem.h ****  * Reallocate a memory with a new size. The old content will be kept.
  91:Middlewares/lvgl/src/widgets/../core/../hal/../misc/lv_mem.h ****  * @param data pointer to an allocated memory.
  92:Middlewares/lvgl/src/widgets/../core/../hal/../misc/lv_mem.h ****  * Its content will be copied to the new memory block and freed
  93:Middlewares/lvgl/src/widgets/../core/../hal/../misc/lv_mem.h ****  * @param new_size the desired new size in byte
  94:Middlewares/lvgl/src/widgets/../core/../hal/../misc/lv_mem.h ****  * @return pointer to the new memory
  95:Middlewares/lvgl/src/widgets/../core/../hal/../misc/lv_mem.h ****  */
  96:Middlewares/lvgl/src/widgets/../core/../hal/../misc/lv_mem.h **** void * lv_mem_realloc(void * data_p, size_t new_size);
  97:Middlewares/lvgl/src/widgets/../core/../hal/../misc/lv_mem.h **** 
  98:Middlewares/lvgl/src/widgets/../core/../hal/../misc/lv_mem.h **** /**
  99:Middlewares/lvgl/src/widgets/../core/../hal/../misc/lv_mem.h ****  *
 100:Middlewares/lvgl/src/widgets/../core/../hal/../misc/lv_mem.h ****  * @return
 101:Middlewares/lvgl/src/widgets/../core/../hal/../misc/lv_mem.h ****  */
 102:Middlewares/lvgl/src/widgets/../core/../hal/../misc/lv_mem.h **** lv_res_t lv_mem_test(void);
 103:Middlewares/lvgl/src/widgets/../core/../hal/../misc/lv_mem.h **** 
 104:Middlewares/lvgl/src/widgets/../core/../hal/../misc/lv_mem.h **** /**
 105:Middlewares/lvgl/src/widgets/../core/../hal/../misc/lv_mem.h ****  * Give information about the work memory of dynamic allocation
 106:Middlewares/lvgl/src/widgets/../core/../hal/../misc/lv_mem.h ****  * @param mon_p pointer to a dm_mon_p variable,
 107:Middlewares/lvgl/src/widgets/../core/../hal/../misc/lv_mem.h ****  *              the result of the analysis will be stored here
 108:Middlewares/lvgl/src/widgets/../core/../hal/../misc/lv_mem.h ****  */
 109:Middlewares/lvgl/src/widgets/../core/../hal/../misc/lv_mem.h **** void lv_mem_monitor(lv_mem_monitor_t * mon_p);
 110:Middlewares/lvgl/src/widgets/../core/../hal/../misc/lv_mem.h **** 
 111:Middlewares/lvgl/src/widgets/../core/../hal/../misc/lv_mem.h **** 
 112:Middlewares/lvgl/src/widgets/../core/../hal/../misc/lv_mem.h **** /**
 113:Middlewares/lvgl/src/widgets/../core/../hal/../misc/lv_mem.h ****  * Get a temporal buffer with the given size.
 114:Middlewares/lvgl/src/widgets/../core/../hal/../misc/lv_mem.h ****  * @param size the required size
 115:Middlewares/lvgl/src/widgets/../core/../hal/../misc/lv_mem.h ****  */
 116:Middlewares/lvgl/src/widgets/../core/../hal/../misc/lv_mem.h **** void * lv_mem_buf_get(uint32_t size);
 117:Middlewares/lvgl/src/widgets/../core/../hal/../misc/lv_mem.h **** 
 118:Middlewares/lvgl/src/widgets/../core/../hal/../misc/lv_mem.h **** /**
 119:Middlewares/lvgl/src/widgets/../core/../hal/../misc/lv_mem.h ****  * Release a memory buffer
 120:Middlewares/lvgl/src/widgets/../core/../hal/../misc/lv_mem.h ****  * @param p buffer to release
 121:Middlewares/lvgl/src/widgets/../core/../hal/../misc/lv_mem.h ****  */
 122:Middlewares/lvgl/src/widgets/../core/../hal/../misc/lv_mem.h **** void lv_mem_buf_release(void * p);
 123:Middlewares/lvgl/src/widgets/../core/../hal/../misc/lv_mem.h **** 
 124:Middlewares/lvgl/src/widgets/../core/../hal/../misc/lv_mem.h **** /**
ARM GAS  /tmp/ccQS5ib5.s 			page 113


 125:Middlewares/lvgl/src/widgets/../core/../hal/../misc/lv_mem.h ****  * Free all memory buffers
 126:Middlewares/lvgl/src/widgets/../core/../hal/../misc/lv_mem.h ****  */
 127:Middlewares/lvgl/src/widgets/../core/../hal/../misc/lv_mem.h **** void lv_mem_buf_free_all(void);
 128:Middlewares/lvgl/src/widgets/../core/../hal/../misc/lv_mem.h **** 
 129:Middlewares/lvgl/src/widgets/../core/../hal/../misc/lv_mem.h **** //! @cond Doxygen_Suppress
 130:Middlewares/lvgl/src/widgets/../core/../hal/../misc/lv_mem.h **** 
 131:Middlewares/lvgl/src/widgets/../core/../hal/../misc/lv_mem.h **** #if LV_MEMCPY_MEMSET_STD
 132:Middlewares/lvgl/src/widgets/../core/../hal/../misc/lv_mem.h **** 
 133:Middlewares/lvgl/src/widgets/../core/../hal/../misc/lv_mem.h **** /**
 134:Middlewares/lvgl/src/widgets/../core/../hal/../misc/lv_mem.h ****  * Wrapper for the standard memcpy
 135:Middlewares/lvgl/src/widgets/../core/../hal/../misc/lv_mem.h ****  * @param dst pointer to the destination buffer
 136:Middlewares/lvgl/src/widgets/../core/../hal/../misc/lv_mem.h ****  * @param src pointer to the source buffer
 137:Middlewares/lvgl/src/widgets/../core/../hal/../misc/lv_mem.h ****  * @param len number of byte to copy
 138:Middlewares/lvgl/src/widgets/../core/../hal/../misc/lv_mem.h ****  */
 139:Middlewares/lvgl/src/widgets/../core/../hal/../misc/lv_mem.h **** static inline void * lv_memcpy(void * dst, const void * src, size_t len)
 140:Middlewares/lvgl/src/widgets/../core/../hal/../misc/lv_mem.h **** {
 141:Middlewares/lvgl/src/widgets/../core/../hal/../misc/lv_mem.h ****     return memcpy(dst, src, len);
 142:Middlewares/lvgl/src/widgets/../core/../hal/../misc/lv_mem.h **** }
 143:Middlewares/lvgl/src/widgets/../core/../hal/../misc/lv_mem.h **** 
 144:Middlewares/lvgl/src/widgets/../core/../hal/../misc/lv_mem.h **** /**
 145:Middlewares/lvgl/src/widgets/../core/../hal/../misc/lv_mem.h ****  * Wrapper for the standard memcpy
 146:Middlewares/lvgl/src/widgets/../core/../hal/../misc/lv_mem.h ****  * @param dst pointer to the destination buffer
 147:Middlewares/lvgl/src/widgets/../core/../hal/../misc/lv_mem.h ****  * @param src pointer to the source buffer
 148:Middlewares/lvgl/src/widgets/../core/../hal/../misc/lv_mem.h ****  * @param len number of byte to copy
 149:Middlewares/lvgl/src/widgets/../core/../hal/../misc/lv_mem.h ****  */
 150:Middlewares/lvgl/src/widgets/../core/../hal/../misc/lv_mem.h **** static inline void * lv_memcpy_small(void * dst, const void * src, size_t len)
 151:Middlewares/lvgl/src/widgets/../core/../hal/../misc/lv_mem.h **** {
 152:Middlewares/lvgl/src/widgets/../core/../hal/../misc/lv_mem.h ****     return memcpy(dst, src, len);
 153:Middlewares/lvgl/src/widgets/../core/../hal/../misc/lv_mem.h **** }
 154:Middlewares/lvgl/src/widgets/../core/../hal/../misc/lv_mem.h **** 
 155:Middlewares/lvgl/src/widgets/../core/../hal/../misc/lv_mem.h **** /**
 156:Middlewares/lvgl/src/widgets/../core/../hal/../misc/lv_mem.h ****  * Wrapper for the standard memset
 157:Middlewares/lvgl/src/widgets/../core/../hal/../misc/lv_mem.h ****  * @param dst pointer to the destination buffer
 158:Middlewares/lvgl/src/widgets/../core/../hal/../misc/lv_mem.h ****  * @param v value to set [0..255]
 159:Middlewares/lvgl/src/widgets/../core/../hal/../misc/lv_mem.h ****  * @param len number of byte to set
 160:Middlewares/lvgl/src/widgets/../core/../hal/../misc/lv_mem.h ****  */
 161:Middlewares/lvgl/src/widgets/../core/../hal/../misc/lv_mem.h **** static inline void lv_memset(void * dst, uint8_t v, size_t len)
 162:Middlewares/lvgl/src/widgets/../core/../hal/../misc/lv_mem.h **** {
 163:Middlewares/lvgl/src/widgets/../core/../hal/../misc/lv_mem.h ****     memset(dst, v, len);
 164:Middlewares/lvgl/src/widgets/../core/../hal/../misc/lv_mem.h **** }
 165:Middlewares/lvgl/src/widgets/../core/../hal/../misc/lv_mem.h **** 
 166:Middlewares/lvgl/src/widgets/../core/../hal/../misc/lv_mem.h **** /**
 167:Middlewares/lvgl/src/widgets/../core/../hal/../misc/lv_mem.h ****  * Wrapper for the standard memset with fixed 0x00 value
 168:Middlewares/lvgl/src/widgets/../core/../hal/../misc/lv_mem.h ****  * @param dst pointer to the destination buffer
 169:Middlewares/lvgl/src/widgets/../core/../hal/../misc/lv_mem.h ****  * @param len number of byte to set
 170:Middlewares/lvgl/src/widgets/../core/../hal/../misc/lv_mem.h ****  */
 171:Middlewares/lvgl/src/widgets/../core/../hal/../misc/lv_mem.h **** static inline void lv_memset_00(void * dst, size_t len)
 172:Middlewares/lvgl/src/widgets/../core/../hal/../misc/lv_mem.h **** {
 173:Middlewares/lvgl/src/widgets/../core/../hal/../misc/lv_mem.h ****     memset(dst, 0x00, len);
 174:Middlewares/lvgl/src/widgets/../core/../hal/../misc/lv_mem.h **** }
 175:Middlewares/lvgl/src/widgets/../core/../hal/../misc/lv_mem.h **** 
 176:Middlewares/lvgl/src/widgets/../core/../hal/../misc/lv_mem.h **** /**
 177:Middlewares/lvgl/src/widgets/../core/../hal/../misc/lv_mem.h ****  * Wrapper for the standard memset with fixed 0xFF value
 178:Middlewares/lvgl/src/widgets/../core/../hal/../misc/lv_mem.h ****  * @param dst pointer to the destination buffer
 179:Middlewares/lvgl/src/widgets/../core/../hal/../misc/lv_mem.h ****  * @param len number of byte to set
 180:Middlewares/lvgl/src/widgets/../core/../hal/../misc/lv_mem.h ****  */
 181:Middlewares/lvgl/src/widgets/../core/../hal/../misc/lv_mem.h **** static inline void lv_memset_ff(void * dst, size_t len)
ARM GAS  /tmp/ccQS5ib5.s 			page 114


 182:Middlewares/lvgl/src/widgets/../core/../hal/../misc/lv_mem.h **** {
 183:Middlewares/lvgl/src/widgets/../core/../hal/../misc/lv_mem.h ****     memset(dst, 0xFF, len);
 184:Middlewares/lvgl/src/widgets/../core/../hal/../misc/lv_mem.h **** }
 185:Middlewares/lvgl/src/widgets/../core/../hal/../misc/lv_mem.h **** 
 186:Middlewares/lvgl/src/widgets/../core/../hal/../misc/lv_mem.h **** #else
 187:Middlewares/lvgl/src/widgets/../core/../hal/../misc/lv_mem.h **** /**
 188:Middlewares/lvgl/src/widgets/../core/../hal/../misc/lv_mem.h ****  * Same as `memcpy` but optimized for 4 byte operation.
 189:Middlewares/lvgl/src/widgets/../core/../hal/../misc/lv_mem.h ****  * @param dst pointer to the destination buffer
 190:Middlewares/lvgl/src/widgets/../core/../hal/../misc/lv_mem.h ****  * @param src pointer to the source buffer
 191:Middlewares/lvgl/src/widgets/../core/../hal/../misc/lv_mem.h ****  * @param len number of byte to copy
 192:Middlewares/lvgl/src/widgets/../core/../hal/../misc/lv_mem.h ****  */
 193:Middlewares/lvgl/src/widgets/../core/../hal/../misc/lv_mem.h **** LV_ATTRIBUTE_FAST_MEM void * lv_memcpy(void * dst, const void * src, size_t len);
 194:Middlewares/lvgl/src/widgets/../core/../hal/../misc/lv_mem.h **** 
 195:Middlewares/lvgl/src/widgets/../core/../hal/../misc/lv_mem.h **** /**
 196:Middlewares/lvgl/src/widgets/../core/../hal/../misc/lv_mem.h ****  * Same as `memcpy` but optimized to copy only a few bytes.
 197:Middlewares/lvgl/src/widgets/../core/../hal/../misc/lv_mem.h ****  * @param dst pointer to the destination buffer
 198:Middlewares/lvgl/src/widgets/../core/../hal/../misc/lv_mem.h ****  * @param src pointer to the source buffer
 199:Middlewares/lvgl/src/widgets/../core/../hal/../misc/lv_mem.h ****  * @param len number of byte to copy
 200:Middlewares/lvgl/src/widgets/../core/../hal/../misc/lv_mem.h ****  */
 201:Middlewares/lvgl/src/widgets/../core/../hal/../misc/lv_mem.h **** LV_ATTRIBUTE_FAST_MEM static inline void * lv_memcpy_small(void * dst, const void * src, size_t len
 202:Middlewares/lvgl/src/widgets/../core/../hal/../misc/lv_mem.h **** {
 203:Middlewares/lvgl/src/widgets/../core/../hal/../misc/lv_mem.h ****     uint8_t * d8 = (uint8_t *)dst;
 204:Middlewares/lvgl/src/widgets/../core/../hal/../misc/lv_mem.h ****     const uint8_t * s8 = (const uint8_t *)src;
 205:Middlewares/lvgl/src/widgets/../core/../hal/../misc/lv_mem.h **** 
 206:Middlewares/lvgl/src/widgets/../core/../hal/../misc/lv_mem.h ****     while(len) {
 207:Middlewares/lvgl/src/widgets/../core/../hal/../misc/lv_mem.h ****         *d8 = *s8;
 3616              		.loc 5 207 9 is_stmt 1 view .LVU1300
 3617              		.loc 5 207 15 is_stmt 0 view .LVU1301
 3618 0084 12F8011B 		ldrb	r1, [r2], #1	@ zero_extendqisi2
 3619              	.LVL389:
 3620              		.loc 5 207 13 view .LVU1302
 3621 0088 0CF8011B 		strb	r1, [ip], #1
 3622              	.LVL390:
 208:Middlewares/lvgl/src/widgets/../core/../hal/../misc/lv_mem.h ****         d8++;
 3623              		.loc 5 208 9 is_stmt 1 view .LVU1303
 209:Middlewares/lvgl/src/widgets/../core/../hal/../misc/lv_mem.h ****         s8++;
 3624              		.loc 5 209 9 view .LVU1304
 210:Middlewares/lvgl/src/widgets/../core/../hal/../misc/lv_mem.h ****         len--;
 3625              		.loc 5 210 9 view .LVU1305
 3626              		.loc 5 210 12 is_stmt 0 view .LVU1306
 3627 008c 013B     		subs	r3, r3, #1
 3628              	.LVL391:
 3629              	.L176:
 206:Middlewares/lvgl/src/widgets/../core/../hal/../misc/lv_mem.h ****         *d8 = *s8;
 3630              		.loc 5 206 10 is_stmt 1 view .LVU1307
 3631 008e 002B     		cmp	r3, #0
 3632 0090 F8D1     		bne	.L177
 211:Middlewares/lvgl/src/widgets/../core/../hal/../misc/lv_mem.h ****     }
 212:Middlewares/lvgl/src/widgets/../core/../hal/../misc/lv_mem.h **** 
 213:Middlewares/lvgl/src/widgets/../core/../hal/../misc/lv_mem.h ****     return dst;
 3633              		.loc 5 213 5 discriminator 3 view .LVU1308
 3634              	.LVL392:
 3635              		.loc 5 213 5 is_stmt 0 discriminator 3 view .LVU1309
 3636              	.LBE186:
 3637              	.LBE185:
 281:Middlewares/lvgl/src/widgets/lv_table.c ****         old_col_start = row * old_col_cnt;
 3638              		.loc 1 281 40 is_stmt 1 discriminator 3 view .LVU1310
ARM GAS  /tmp/ccQS5ib5.s 			page 115


 281:Middlewares/lvgl/src/widgets/lv_table.c ****         old_col_start = row * old_col_cnt;
 3639              		.loc 1 281 43 is_stmt 0 discriminator 3 view .LVU1311
 3640 0092 0130     		adds	r0, r0, #1
 3641              	.LVL393:
 3642              	.L175:
 281:Middlewares/lvgl/src/widgets/lv_table.c ****         old_col_start = row * old_col_cnt;
 3643              		.loc 1 281 18 is_stmt 1 discriminator 1 view .LVU1312
 281:Middlewares/lvgl/src/widgets/lv_table.c ****         old_col_start = row * old_col_cnt;
 3644              		.loc 1 281 29 is_stmt 0 discriminator 1 view .LVU1313
 3645 0094 E38C     		ldrh	r3, [r4, #38]
 281:Middlewares/lvgl/src/widgets/lv_table.c ****         old_col_start = row * old_col_cnt;
 3646              		.loc 1 281 5 discriminator 1 view .LVU1314
 3647 0096 8342     		cmp	r3, r0
 3648 0098 0BD9     		bls	.L180
 282:Middlewares/lvgl/src/widgets/lv_table.c ****         new_col_start = row * col_cnt;
 3649              		.loc 1 282 9 is_stmt 1 discriminator 3 view .LVU1315
 282:Middlewares/lvgl/src/widgets/lv_table.c ****         new_col_start = row * col_cnt;
 3650              		.loc 1 282 23 is_stmt 0 discriminator 3 view .LVU1316
 3651 009a 00FB06F2 		mul	r2, r0, r6
 283:Middlewares/lvgl/src/widgets/lv_table.c **** 
 3652              		.loc 1 283 9 is_stmt 1 discriminator 3 view .LVU1317
 283:Middlewares/lvgl/src/widgets/lv_table.c **** 
 3653              		.loc 1 283 23 is_stmt 0 discriminator 3 view .LVU1318
 3654 009e 00FB05FC 		mul	ip, r0, r5
 3655              	.LVL394:
 285:Middlewares/lvgl/src/widgets/lv_table.c ****     }
 3656              		.loc 1 285 9 is_stmt 1 discriminator 3 view .LVU1319
 285:Middlewares/lvgl/src/widgets/lv_table.c ****     }
 3657              		.loc 1 285 25 is_stmt 0 discriminator 3 view .LVU1320
 3658 00a2 07EB8C0C 		add	ip, r7, ip, lsl #2
 3659              	.LVL395:
 285:Middlewares/lvgl/src/widgets/lv_table.c ****     }
 3660              		.loc 1 285 62 discriminator 3 view .LVU1321
 3661 00a6 A36A     		ldr	r3, [r4, #40]
 285:Middlewares/lvgl/src/widgets/lv_table.c ****     }
 3662              		.loc 1 285 56 discriminator 3 view .LVU1322
 3663 00a8 03EB8202 		add	r2, r3, r2, lsl #2
 285:Middlewares/lvgl/src/widgets/lv_table.c ****     }
 3664              		.loc 1 285 115 discriminator 3 view .LVU1323
 3665 00ac 4FEA8E03 		lsl	r3, lr, #2
 3666              	.LVL396:
 3667              	.LBB188:
 3668              	.LBI185:
 201:Middlewares/lvgl/src/widgets/../core/../hal/../misc/lv_mem.h **** {
 3669              		.loc 5 201 44 is_stmt 1 discriminator 3 view .LVU1324
 3670              	.LBB187:
 203:Middlewares/lvgl/src/widgets/../core/../hal/../misc/lv_mem.h ****     const uint8_t * s8 = (const uint8_t *)src;
 3671              		.loc 5 203 5 discriminator 3 view .LVU1325
 204:Middlewares/lvgl/src/widgets/../core/../hal/../misc/lv_mem.h **** 
 3672              		.loc 5 204 5 discriminator 3 view .LVU1326
 206:Middlewares/lvgl/src/widgets/../core/../hal/../misc/lv_mem.h ****         *d8 = *s8;
 3673              		.loc 5 206 5 discriminator 3 view .LVU1327
 206:Middlewares/lvgl/src/widgets/../core/../hal/../misc/lv_mem.h ****         *d8 = *s8;
 3674              		.loc 5 206 10 is_stmt 0 discriminator 3 view .LVU1328
 3675 00b0 EDE7     		b	.L176
 3676              	.LVL397:
 3677              	.L180:
ARM GAS  /tmp/ccQS5ib5.s 			page 116


 206:Middlewares/lvgl/src/widgets/../core/../hal/../misc/lv_mem.h ****         *d8 = *s8;
 3678              		.loc 5 206 10 discriminator 3 view .LVU1329
 3679              	.LBE187:
 3680              	.LBE188:
 288:Middlewares/lvgl/src/widgets/lv_table.c ****     table->cell_data = new_cell_data;
 3681              		.loc 1 288 5 is_stmt 1 view .LVU1330
 3682 00b2 A06A     		ldr	r0, [r4, #40]
 3683              	.LVL398:
 288:Middlewares/lvgl/src/widgets/lv_table.c ****     table->cell_data = new_cell_data;
 3684              		.loc 1 288 5 is_stmt 0 view .LVU1331
 3685 00b4 FFF7FEFF 		bl	lv_mem_free
 3686              	.LVL399:
 289:Middlewares/lvgl/src/widgets/lv_table.c **** 
 3687              		.loc 1 289 5 is_stmt 1 view .LVU1332
 289:Middlewares/lvgl/src/widgets/lv_table.c **** 
 3688              		.loc 1 289 22 is_stmt 0 view .LVU1333
 3689 00b8 A762     		str	r7, [r4, #40]
 292:Middlewares/lvgl/src/widgets/lv_table.c **** }
 3690              		.loc 1 292 5 is_stmt 1 view .LVU1334
 3691 00ba 0021     		movs	r1, #0
 3692 00bc 2046     		mov	r0, r4
 3693 00be FFF7FEFF 		bl	refr_size
 3694              	.LVL400:
 293:Middlewares/lvgl/src/widgets/lv_table.c **** 
 3695              		.loc 1 293 1 is_stmt 0 view .LVU1335
 3696 00c2 BDE8F081 		pop	{r4, r5, r6, r7, r8, pc}
 293:Middlewares/lvgl/src/widgets/lv_table.c **** 
 3697              		.loc 1 293 1 view .LVU1336
 3698              		.cfi_endproc
 3699              	.LFE151:
 3701              		.section	.text.lv_table_set_cell_value,"ax",%progbits
 3702              		.align	1
 3703              		.global	lv_table_set_cell_value
 3704              		.syntax unified
 3705              		.thumb
 3706              		.thumb_func
 3707              		.fpu fpv4-sp-d16
 3709              	lv_table_set_cell_value:
 3710              	.LVL401:
 3711              	.LFB148:
  77:Middlewares/lvgl/src/widgets/lv_table.c ****     LV_ASSERT_OBJ(obj, MY_CLASS);
 3712              		.loc 1 77 1 is_stmt 1 view -0
 3713              		.cfi_startproc
 3714              		@ args = 0, pretend = 0, frame = 0
 3715              		@ frame_needed = 0, uses_anonymous_args = 0
  78:Middlewares/lvgl/src/widgets/lv_table.c ****     LV_ASSERT_NULL(txt);
 3716              		.loc 1 78 5 view .LVU1338
  78:Middlewares/lvgl/src/widgets/lv_table.c ****     LV_ASSERT_NULL(txt);
 3717              		.loc 1 78 5 view .LVU1339
  78:Middlewares/lvgl/src/widgets/lv_table.c ****     LV_ASSERT_NULL(txt);
 3718              		.loc 1 78 5 view .LVU1340
  79:Middlewares/lvgl/src/widgets/lv_table.c **** 
 3719              		.loc 1 79 5 view .LVU1341
  79:Middlewares/lvgl/src/widgets/lv_table.c **** 
 3720              		.loc 1 79 5 view .LVU1342
 3721 0000 A3B3     		cbz	r3, .L183
  77:Middlewares/lvgl/src/widgets/lv_table.c ****     LV_ASSERT_OBJ(obj, MY_CLASS);
ARM GAS  /tmp/ccQS5ib5.s 			page 117


 3722              		.loc 1 77 1 is_stmt 0 discriminator 2 view .LVU1343
 3723 0002 2DE9F047 		push	{r4, r5, r6, r7, r8, r9, r10, lr}
 3724              	.LCFI29:
 3725              		.cfi_def_cfa_offset 32
 3726              		.cfi_offset 4, -32
 3727              		.cfi_offset 5, -28
 3728              		.cfi_offset 6, -24
 3729              		.cfi_offset 7, -20
 3730              		.cfi_offset 8, -16
 3731              		.cfi_offset 9, -12
 3732              		.cfi_offset 10, -8
 3733              		.cfi_offset 14, -4
 3734 0006 0446     		mov	r4, r0
 3735 0008 0F46     		mov	r7, r1
 3736 000a 1546     		mov	r5, r2
 3737 000c 9946     		mov	r9, r3
  79:Middlewares/lvgl/src/widgets/lv_table.c **** 
 3738              		.loc 1 79 5 is_stmt 1 discriminator 2 view .LVU1344
  79:Middlewares/lvgl/src/widgets/lv_table.c **** 
 3739              		.loc 1 79 24 discriminator 2 view .LVU1345
  81:Middlewares/lvgl/src/widgets/lv_table.c **** 
 3740              		.loc 1 81 5 discriminator 2 view .LVU1346
 3741              	.LVL402:
  84:Middlewares/lvgl/src/widgets/lv_table.c ****     if(row >= table->row_cnt) lv_table_set_row_cnt(obj, row + 1);
 3742              		.loc 1 84 5 discriminator 2 view .LVU1347
  84:Middlewares/lvgl/src/widgets/lv_table.c ****     if(row >= table->row_cnt) lv_table_set_row_cnt(obj, row + 1);
 3743              		.loc 1 84 20 is_stmt 0 discriminator 2 view .LVU1348
 3744 000e 838C     		ldrh	r3, [r0, #36]
 3745              	.LVL403:
  84:Middlewares/lvgl/src/widgets/lv_table.c ****     if(row >= table->row_cnt) lv_table_set_row_cnt(obj, row + 1);
 3746              		.loc 1 84 7 discriminator 2 view .LVU1349
 3747 0010 9342     		cmp	r3, r2
 3748 0012 2CD9     		bls	.L192
 3749              	.LVL404:
 3750              	.L184:
  85:Middlewares/lvgl/src/widgets/lv_table.c **** 
 3751              		.loc 1 85 5 is_stmt 1 view .LVU1350
  85:Middlewares/lvgl/src/widgets/lv_table.c **** 
 3752              		.loc 1 85 20 is_stmt 0 view .LVU1351
 3753 0014 E38C     		ldrh	r3, [r4, #38]
  85:Middlewares/lvgl/src/widgets/lv_table.c **** 
 3754              		.loc 1 85 7 view .LVU1352
 3755 0016 BB42     		cmp	r3, r7
 3756 0018 2ED9     		bls	.L193
 3757              	.L185:
  87:Middlewares/lvgl/src/widgets/lv_table.c ****     lv_table_cell_ctrl_t ctrl = 0;
 3758              		.loc 1 87 5 is_stmt 1 view .LVU1353
  87:Middlewares/lvgl/src/widgets/lv_table.c ****     lv_table_cell_ctrl_t ctrl = 0;
 3759              		.loc 1 87 32 is_stmt 0 view .LVU1354
 3760 001a A38C     		ldrh	r3, [r4, #36]
  87:Middlewares/lvgl/src/widgets/lv_table.c ****     lv_table_cell_ctrl_t ctrl = 0;
 3761              		.loc 1 87 42 view .LVU1355
 3762 001c 03FB0755 		mla	r5, r3, r7, r5
 3763              	.LVL405:
  88:Middlewares/lvgl/src/widgets/lv_table.c **** 
 3764              		.loc 1 88 5 is_stmt 1 view .LVU1356
  91:Middlewares/lvgl/src/widgets/lv_table.c **** 
ARM GAS  /tmp/ccQS5ib5.s 			page 118


 3765              		.loc 1 91 5 view .LVU1357
  91:Middlewares/lvgl/src/widgets/lv_table.c **** 
 3766              		.loc 1 91 13 is_stmt 0 view .LVU1358
 3767 0020 D4F82880 		ldr	r8, [r4, #40]
  91:Middlewares/lvgl/src/widgets/lv_table.c **** 
 3768              		.loc 1 91 24 view .LVU1359
 3769 0024 58F82560 		ldr	r6, [r8, r5, lsl #2]
  91:Middlewares/lvgl/src/widgets/lv_table.c **** 
 3770              		.loc 1 91 7 view .LVU1360
 3771 0028 66B3     		cbz	r6, .L189
  91:Middlewares/lvgl/src/widgets/lv_table.c **** 
 3772              		.loc 1 91 32 is_stmt 1 discriminator 1 view .LVU1361
  91:Middlewares/lvgl/src/widgets/lv_table.c **** 
 3773              		.loc 1 91 37 is_stmt 0 discriminator 1 view .LVU1362
 3774 002a 96F800A0 		ldrb	r10, [r6]	@ zero_extendqisi2
 3775              	.LVL406:
 3776              	.L186:
 102:Middlewares/lvgl/src/widgets/lv_table.c ****     LV_ASSERT_MALLOC(table->cell_data[cell]);
 3777              		.loc 1 102 5 is_stmt 1 view .LVU1363
 102:Middlewares/lvgl/src/widgets/lv_table.c ****     LV_ASSERT_MALLOC(table->cell_data[cell]);
 3778              		.loc 1 102 69 is_stmt 0 view .LVU1364
 3779 002e 4846     		mov	r0, r9
 3780 0030 FFF7FEFF 		bl	strlen
 3781              	.LVL407:
 102:Middlewares/lvgl/src/widgets/lv_table.c ****     LV_ASSERT_MALLOC(table->cell_data[cell]);
 3782              		.loc 1 102 30 view .LVU1365
 3783 0034 811C     		adds	r1, r0, #2
 3784 0036 3046     		mov	r0, r6
 3785 0038 FFF7FEFF 		bl	lv_mem_realloc
 3786              	.LVL408:
 102:Middlewares/lvgl/src/widgets/lv_table.c ****     LV_ASSERT_MALLOC(table->cell_data[cell]);
 3787              		.loc 1 102 28 view .LVU1366
 3788 003c 48F82500 		str	r0, [r8, r5, lsl #2]
 103:Middlewares/lvgl/src/widgets/lv_table.c **** 
 3789              		.loc 1 103 5 is_stmt 1 view .LVU1367
 103:Middlewares/lvgl/src/widgets/lv_table.c **** 
 3790              		.loc 1 103 5 view .LVU1368
 3791 0040 A36A     		ldr	r3, [r4, #40]
 3792 0042 53F82500 		ldr	r0, [r3, r5, lsl #2]
 3793 0046 00B3     		cbz	r0, .L188
 103:Middlewares/lvgl/src/widgets/lv_table.c **** 
 3794              		.loc 1 103 5 discriminator 2 view .LVU1369
 103:Middlewares/lvgl/src/widgets/lv_table.c **** 
 3795              		.loc 1 103 45 discriminator 2 view .LVU1370
 105:Middlewares/lvgl/src/widgets/lv_table.c **** #endif
 3796              		.loc 1 105 5 discriminator 2 view .LVU1371
 3797 0048 4946     		mov	r1, r9
 3798 004a 0130     		adds	r0, r0, #1
 3799 004c FFF7FEFF 		bl	strcpy
 3800              	.LVL409:
 108:Middlewares/lvgl/src/widgets/lv_table.c ****     refr_size(obj, row);
 3801              		.loc 1 108 5 discriminator 2 view .LVU1372
 108:Middlewares/lvgl/src/widgets/lv_table.c ****     refr_size(obj, row);
 3802              		.loc 1 108 10 is_stmt 0 discriminator 2 view .LVU1373
 3803 0050 A36A     		ldr	r3, [r4, #40]
 108:Middlewares/lvgl/src/widgets/lv_table.c ****     refr_size(obj, row);
 3804              		.loc 1 108 21 discriminator 2 view .LVU1374
ARM GAS  /tmp/ccQS5ib5.s 			page 119


 3805 0052 53F82530 		ldr	r3, [r3, r5, lsl #2]
 108:Middlewares/lvgl/src/widgets/lv_table.c ****     refr_size(obj, row);
 3806              		.loc 1 108 31 discriminator 2 view .LVU1375
 3807 0056 83F800A0 		strb	r10, [r3]
 109:Middlewares/lvgl/src/widgets/lv_table.c **** 
 3808              		.loc 1 109 5 is_stmt 1 discriminator 2 view .LVU1376
 3809 005a 3946     		mov	r1, r7
 3810 005c 2046     		mov	r0, r4
 3811 005e FFF7FEFF 		bl	refr_size
 3812              	.LVL410:
 111:Middlewares/lvgl/src/widgets/lv_table.c **** }
 3813              		.loc 1 111 5 discriminator 2 view .LVU1377
 3814 0062 2046     		mov	r0, r4
 3815 0064 FFF7FEFF 		bl	lv_obj_invalidate
 3816              	.LVL411:
 112:Middlewares/lvgl/src/widgets/lv_table.c **** 
 3817              		.loc 1 112 1 is_stmt 0 discriminator 2 view .LVU1378
 3818 0068 BDE8F087 		pop	{r4, r5, r6, r7, r8, r9, r10, pc}
 3819              	.LVL412:
 3820              	.L183:
 3821              	.LCFI30:
 3822              		.cfi_def_cfa_offset 0
 3823              		.cfi_restore 4
 3824              		.cfi_restore 5
 3825              		.cfi_restore 6
 3826              		.cfi_restore 7
 3827              		.cfi_restore 8
 3828              		.cfi_restore 9
 3829              		.cfi_restore 10
 3830              		.cfi_restore 14
  79:Middlewares/lvgl/src/widgets/lv_table.c **** 
 3831              		.loc 1 79 5 is_stmt 1 discriminator 1 view .LVU1379
  79:Middlewares/lvgl/src/widgets/lv_table.c **** 
 3832              		.loc 1 79 5 discriminator 1 view .LVU1380
  79:Middlewares/lvgl/src/widgets/lv_table.c **** 
 3833              		.loc 1 79 5 discriminator 1 view .LVU1381
  79:Middlewares/lvgl/src/widgets/lv_table.c **** 
 3834              		.loc 1 79 5 discriminator 1 view .LVU1382
 3835 006c FEE7     		b	.L183
 3836              	.LVL413:
 3837              	.L192:
 3838              	.LCFI31:
 3839              		.cfi_def_cfa_offset 32
 3840              		.cfi_offset 4, -32
 3841              		.cfi_offset 5, -28
 3842              		.cfi_offset 6, -24
 3843              		.cfi_offset 7, -20
 3844              		.cfi_offset 8, -16
 3845              		.cfi_offset 9, -12
 3846              		.cfi_offset 10, -8
 3847              		.cfi_offset 14, -4
  84:Middlewares/lvgl/src/widgets/lv_table.c ****     if(row >= table->row_cnt) lv_table_set_row_cnt(obj, row + 1);
 3848              		.loc 1 84 31 discriminator 1 view .LVU1383
 3849 006e 511C     		adds	r1, r2, #1
 3850              	.LVL414:
  84:Middlewares/lvgl/src/widgets/lv_table.c ****     if(row >= table->row_cnt) lv_table_set_row_cnt(obj, row + 1);
 3851              		.loc 1 84 31 is_stmt 0 discriminator 1 view .LVU1384
ARM GAS  /tmp/ccQS5ib5.s 			page 120


 3852 0070 89B2     		uxth	r1, r1
 3853 0072 FFF7FEFF 		bl	lv_table_set_col_cnt
 3854              	.LVL415:
  84:Middlewares/lvgl/src/widgets/lv_table.c ****     if(row >= table->row_cnt) lv_table_set_row_cnt(obj, row + 1);
 3855              		.loc 1 84 31 discriminator 1 view .LVU1385
 3856 0076 CDE7     		b	.L184
 3857              	.L193:
  85:Middlewares/lvgl/src/widgets/lv_table.c **** 
 3858              		.loc 1 85 31 is_stmt 1 discriminator 1 view .LVU1386
 3859 0078 791C     		adds	r1, r7, #1
 3860 007a 89B2     		uxth	r1, r1
 3861 007c 2046     		mov	r0, r4
 3862 007e FFF7FEFF 		bl	lv_table_set_row_cnt
 3863              	.LVL416:
 3864 0082 CAE7     		b	.L185
 3865              	.LVL417:
 3866              	.L189:
  88:Middlewares/lvgl/src/widgets/lv_table.c **** 
 3867              		.loc 1 88 26 is_stmt 0 view .LVU1387
 3868 0084 4FF0000A 		mov	r10, #0
 3869 0088 D1E7     		b	.L186
 3870              	.LVL418:
 3871              	.L188:
 103:Middlewares/lvgl/src/widgets/lv_table.c **** 
 3872              		.loc 1 103 5 is_stmt 1 discriminator 2 view .LVU1388
 103:Middlewares/lvgl/src/widgets/lv_table.c **** 
 3873              		.loc 1 103 5 discriminator 2 view .LVU1389
 103:Middlewares/lvgl/src/widgets/lv_table.c **** 
 3874              		.loc 1 103 5 discriminator 2 view .LVU1390
 103:Middlewares/lvgl/src/widgets/lv_table.c **** 
 3875              		.loc 1 103 5 discriminator 2 view .LVU1391
 3876 008a FEE7     		b	.L188
 3877              		.cfi_endproc
 3878              	.LFE148:
 3880              		.section	.text.lv_table_set_col_width,"ax",%progbits
 3881              		.align	1
 3882              		.global	lv_table_set_col_width
 3883              		.syntax unified
 3884              		.thumb
 3885              		.thumb_func
 3886              		.fpu fpv4-sp-d16
 3888              	lv_table_set_col_width:
 3889              	.LVL419:
 3890              	.LFB152:
 296:Middlewares/lvgl/src/widgets/lv_table.c ****     LV_ASSERT_OBJ(obj, MY_CLASS);
 3891              		.loc 1 296 1 view -0
 3892              		.cfi_startproc
 3893              		@ args = 0, pretend = 0, frame = 0
 3894              		@ frame_needed = 0, uses_anonymous_args = 0
 296:Middlewares/lvgl/src/widgets/lv_table.c ****     LV_ASSERT_OBJ(obj, MY_CLASS);
 3895              		.loc 1 296 1 is_stmt 0 view .LVU1393
 3896 0000 70B5     		push	{r4, r5, r6, lr}
 3897              	.LCFI32:
 3898              		.cfi_def_cfa_offset 16
 3899              		.cfi_offset 4, -16
 3900              		.cfi_offset 5, -12
 3901              		.cfi_offset 6, -8
ARM GAS  /tmp/ccQS5ib5.s 			page 121


 3902              		.cfi_offset 14, -4
 3903 0002 0446     		mov	r4, r0
 3904 0004 0D46     		mov	r5, r1
 3905 0006 1646     		mov	r6, r2
 297:Middlewares/lvgl/src/widgets/lv_table.c **** 
 3906              		.loc 1 297 5 is_stmt 1 view .LVU1394
 297:Middlewares/lvgl/src/widgets/lv_table.c **** 
 3907              		.loc 1 297 5 view .LVU1395
 297:Middlewares/lvgl/src/widgets/lv_table.c **** 
 3908              		.loc 1 297 5 view .LVU1396
 299:Middlewares/lvgl/src/widgets/lv_table.c **** 
 3909              		.loc 1 299 5 view .LVU1397
 3910              	.LVL420:
 302:Middlewares/lvgl/src/widgets/lv_table.c **** 
 3911              		.loc 1 302 5 view .LVU1398
 302:Middlewares/lvgl/src/widgets/lv_table.c **** 
 3912              		.loc 1 302 23 is_stmt 0 view .LVU1399
 3913 0008 838C     		ldrh	r3, [r0, #36]
 302:Middlewares/lvgl/src/widgets/lv_table.c **** 
 3914              		.loc 1 302 7 view .LVU1400
 3915 000a 8B42     		cmp	r3, r1
 3916 000c 07D9     		bls	.L197
 3917              	.LVL421:
 3918              	.L195:
 304:Middlewares/lvgl/src/widgets/lv_table.c ****     refr_size(obj, 0) ;
 3919              		.loc 1 304 5 is_stmt 1 view .LVU1401
 304:Middlewares/lvgl/src/widgets/lv_table.c ****     refr_size(obj, 0) ;
 3920              		.loc 1 304 10 is_stmt 0 view .LVU1402
 3921 000e 236B     		ldr	r3, [r4, #48]
 304:Middlewares/lvgl/src/widgets/lv_table.c ****     refr_size(obj, 0) ;
 3922              		.loc 1 304 26 view .LVU1403
 3923 0010 23F81560 		strh	r6, [r3, r5, lsl #1]	@ movhi
 305:Middlewares/lvgl/src/widgets/lv_table.c **** }
 3924              		.loc 1 305 5 is_stmt 1 view .LVU1404
 3925 0014 0021     		movs	r1, #0
 3926 0016 2046     		mov	r0, r4
 3927 0018 FFF7FEFF 		bl	refr_size
 3928              	.LVL422:
 306:Middlewares/lvgl/src/widgets/lv_table.c **** 
 3929              		.loc 1 306 1 is_stmt 0 view .LVU1405
 3930 001c 70BD     		pop	{r4, r5, r6, pc}
 3931              	.LVL423:
 3932              	.L197:
 302:Middlewares/lvgl/src/widgets/lv_table.c **** 
 3933              		.loc 1 302 34 is_stmt 1 discriminator 1 view .LVU1406
 3934 001e 0131     		adds	r1, r1, #1
 3935              	.LVL424:
 302:Middlewares/lvgl/src/widgets/lv_table.c **** 
 3936              		.loc 1 302 34 is_stmt 0 discriminator 1 view .LVU1407
 3937 0020 89B2     		uxth	r1, r1
 3938 0022 FFF7FEFF 		bl	lv_table_set_col_cnt
 3939              	.LVL425:
 302:Middlewares/lvgl/src/widgets/lv_table.c **** 
 3940              		.loc 1 302 34 discriminator 1 view .LVU1408
 3941 0026 F2E7     		b	.L195
 3942              		.cfi_endproc
 3943              	.LFE152:
ARM GAS  /tmp/ccQS5ib5.s 			page 122


 3945              		.section	.text.lv_table_add_cell_ctrl,"ax",%progbits
 3946              		.align	1
 3947              		.global	lv_table_add_cell_ctrl
 3948              		.syntax unified
 3949              		.thumb
 3950              		.thumb_func
 3951              		.fpu fpv4-sp-d16
 3953              	lv_table_add_cell_ctrl:
 3954              	.LVL426:
 3955              	.LFB153:
 309:Middlewares/lvgl/src/widgets/lv_table.c ****     LV_ASSERT_OBJ(obj, MY_CLASS);
 3956              		.loc 1 309 1 is_stmt 1 view -0
 3957              		.cfi_startproc
 3958              		@ args = 0, pretend = 0, frame = 0
 3959              		@ frame_needed = 0, uses_anonymous_args = 0
 309:Middlewares/lvgl/src/widgets/lv_table.c ****     LV_ASSERT_OBJ(obj, MY_CLASS);
 3960              		.loc 1 309 1 is_stmt 0 view .LVU1410
 3961 0000 2DE9F041 		push	{r4, r5, r6, r7, r8, lr}
 3962              	.LCFI33:
 3963              		.cfi_def_cfa_offset 24
 3964              		.cfi_offset 4, -24
 3965              		.cfi_offset 5, -20
 3966              		.cfi_offset 6, -16
 3967              		.cfi_offset 7, -12
 3968              		.cfi_offset 8, -8
 3969              		.cfi_offset 14, -4
 3970 0004 0446     		mov	r4, r0
 3971 0006 8846     		mov	r8, r1
 3972 0008 1746     		mov	r7, r2
 3973 000a 1D46     		mov	r5, r3
 310:Middlewares/lvgl/src/widgets/lv_table.c **** 
 3974              		.loc 1 310 5 is_stmt 1 view .LVU1411
 310:Middlewares/lvgl/src/widgets/lv_table.c **** 
 3975              		.loc 1 310 5 view .LVU1412
 310:Middlewares/lvgl/src/widgets/lv_table.c **** 
 3976              		.loc 1 310 5 view .LVU1413
 312:Middlewares/lvgl/src/widgets/lv_table.c **** 
 3977              		.loc 1 312 5 view .LVU1414
 3978              	.LVL427:
 315:Middlewares/lvgl/src/widgets/lv_table.c ****     if(row >= table->row_cnt) lv_table_set_row_cnt(obj, row + 1);
 3979              		.loc 1 315 5 view .LVU1415
 315:Middlewares/lvgl/src/widgets/lv_table.c ****     if(row >= table->row_cnt) lv_table_set_row_cnt(obj, row + 1);
 3980              		.loc 1 315 20 is_stmt 0 view .LVU1416
 3981 000c 838C     		ldrh	r3, [r0, #36]
 3982              	.LVL428:
 315:Middlewares/lvgl/src/widgets/lv_table.c ****     if(row >= table->row_cnt) lv_table_set_row_cnt(obj, row + 1);
 3983              		.loc 1 315 7 view .LVU1417
 3984 000e 9342     		cmp	r3, r2
 3985 0010 11D9     		bls	.L205
 3986              	.LVL429:
 3987              	.L199:
 316:Middlewares/lvgl/src/widgets/lv_table.c **** 
 3988              		.loc 1 316 5 is_stmt 1 view .LVU1418
 316:Middlewares/lvgl/src/widgets/lv_table.c **** 
 3989              		.loc 1 316 20 is_stmt 0 view .LVU1419
 3990 0012 E38C     		ldrh	r3, [r4, #38]
 316:Middlewares/lvgl/src/widgets/lv_table.c **** 
ARM GAS  /tmp/ccQS5ib5.s 			page 123


 3991              		.loc 1 316 7 view .LVU1420
 3992 0014 4345     		cmp	r3, r8
 3993 0016 13D9     		bls	.L206
 3994              	.L200:
 318:Middlewares/lvgl/src/widgets/lv_table.c **** 
 3995              		.loc 1 318 5 is_stmt 1 view .LVU1421
 318:Middlewares/lvgl/src/widgets/lv_table.c **** 
 3996              		.loc 1 318 32 is_stmt 0 view .LVU1422
 3997 0018 A68C     		ldrh	r6, [r4, #36]
 318:Middlewares/lvgl/src/widgets/lv_table.c **** 
 3998              		.loc 1 318 42 view .LVU1423
 3999 001a 06FB0876 		mla	r6, r6, r8, r7
 4000              	.LVL430:
 320:Middlewares/lvgl/src/widgets/lv_table.c ****         table->cell_data[cell]    = lv_mem_alloc(2); /*+1: trailing '\0; +1: format byte*/
 4001              		.loc 1 320 5 is_stmt 1 view .LVU1424
 320:Middlewares/lvgl/src/widgets/lv_table.c ****         table->cell_data[cell]    = lv_mem_alloc(2); /*+1: trailing '\0; +1: format byte*/
 4002              		.loc 1 320 13 is_stmt 0 view .LVU1425
 4003 001e A76A     		ldr	r7, [r4, #40]
 320:Middlewares/lvgl/src/widgets/lv_table.c ****         table->cell_data[cell]    = lv_mem_alloc(2); /*+1: trailing '\0; +1: format byte*/
 4004              		.loc 1 320 24 view .LVU1426
 4005 0020 57F82630 		ldr	r3, [r7, r6, lsl #2]
 320:Middlewares/lvgl/src/widgets/lv_table.c ****         table->cell_data[cell]    = lv_mem_alloc(2); /*+1: trailing '\0; +1: format byte*/
 4006              		.loc 1 320 7 view .LVU1427
 4007 0024 9BB1     		cbz	r3, .L207
 4008              	.L201:
 329:Middlewares/lvgl/src/widgets/lv_table.c **** }
 4009              		.loc 1 329 5 is_stmt 1 view .LVU1428
 329:Middlewares/lvgl/src/widgets/lv_table.c **** }
 4010              		.loc 1 329 10 is_stmt 0 view .LVU1429
 4011 0026 A36A     		ldr	r3, [r4, #40]
 329:Middlewares/lvgl/src/widgets/lv_table.c **** }
 4012              		.loc 1 329 21 view .LVU1430
 4013 0028 53F82630 		ldr	r3, [r3, r6, lsl #2]
 329:Middlewares/lvgl/src/widgets/lv_table.c **** }
 4014              		.loc 1 329 31 view .LVU1431
 4015 002c 1A78     		ldrb	r2, [r3]	@ zero_extendqisi2
 4016 002e 1543     		orrs	r5, r5, r2
 4017 0030 1D70     		strb	r5, [r3]
 330:Middlewares/lvgl/src/widgets/lv_table.c **** 
 4018              		.loc 1 330 1 view .LVU1432
 4019 0032 BDE8F081 		pop	{r4, r5, r6, r7, r8, pc}
 4020              	.LVL431:
 4021              	.L205:
 315:Middlewares/lvgl/src/widgets/lv_table.c ****     if(row >= table->row_cnt) lv_table_set_row_cnt(obj, row + 1);
 4022              		.loc 1 315 31 is_stmt 1 discriminator 1 view .LVU1433
 4023 0036 511C     		adds	r1, r2, #1
 4024              	.LVL432:
 315:Middlewares/lvgl/src/widgets/lv_table.c ****     if(row >= table->row_cnt) lv_table_set_row_cnt(obj, row + 1);
 4025              		.loc 1 315 31 is_stmt 0 discriminator 1 view .LVU1434
 4026 0038 89B2     		uxth	r1, r1
 4027 003a FFF7FEFF 		bl	lv_table_set_col_cnt
 4028              	.LVL433:
 315:Middlewares/lvgl/src/widgets/lv_table.c ****     if(row >= table->row_cnt) lv_table_set_row_cnt(obj, row + 1);
 4029              		.loc 1 315 31 discriminator 1 view .LVU1435
 4030 003e E8E7     		b	.L199
 4031              	.L206:
 316:Middlewares/lvgl/src/widgets/lv_table.c **** 
ARM GAS  /tmp/ccQS5ib5.s 			page 124


 4032              		.loc 1 316 31 is_stmt 1 discriminator 1 view .LVU1436
 4033 0040 08F10101 		add	r1, r8, #1
 4034 0044 89B2     		uxth	r1, r1
 4035 0046 2046     		mov	r0, r4
 4036 0048 FFF7FEFF 		bl	lv_table_set_row_cnt
 4037              	.LVL434:
 4038 004c E4E7     		b	.L200
 4039              	.LVL435:
 4040              	.L207:
 321:Middlewares/lvgl/src/widgets/lv_table.c ****         LV_ASSERT_MALLOC(table->cell_data[cell]);
 4041              		.loc 1 321 9 view .LVU1437
 321:Middlewares/lvgl/src/widgets/lv_table.c ****         LV_ASSERT_MALLOC(table->cell_data[cell]);
 4042              		.loc 1 321 37 is_stmt 0 view .LVU1438
 4043 004e 0220     		movs	r0, #2
 4044 0050 FFF7FEFF 		bl	lv_mem_alloc
 4045              	.LVL436:
 321:Middlewares/lvgl/src/widgets/lv_table.c ****         LV_ASSERT_MALLOC(table->cell_data[cell]);
 4046              		.loc 1 321 35 view .LVU1439
 4047 0054 47F82600 		str	r0, [r7, r6, lsl #2]
 322:Middlewares/lvgl/src/widgets/lv_table.c ****         if(table->cell_data[cell] == NULL) return;
 4048              		.loc 1 322 9 is_stmt 1 view .LVU1440
 322:Middlewares/lvgl/src/widgets/lv_table.c ****         if(table->cell_data[cell] == NULL) return;
 4049              		.loc 1 322 9 view .LVU1441
 4050 0058 A36A     		ldr	r3, [r4, #40]
 4051 005a 53F82630 		ldr	r3, [r3, r6, lsl #2]
 4052 005e 33B1     		cbz	r3, .L203
 322:Middlewares/lvgl/src/widgets/lv_table.c ****         if(table->cell_data[cell] == NULL) return;
 4053              		.loc 1 322 9 view .LVU1442
 322:Middlewares/lvgl/src/widgets/lv_table.c ****         if(table->cell_data[cell] == NULL) return;
 4054              		.loc 1 322 49 view .LVU1443
 323:Middlewares/lvgl/src/widgets/lv_table.c **** 
 4055              		.loc 1 323 9 view .LVU1444
 325:Middlewares/lvgl/src/widgets/lv_table.c ****         table->cell_data[cell][1] = '\0';
 4056              		.loc 1 325 9 view .LVU1445
 325:Middlewares/lvgl/src/widgets/lv_table.c ****         table->cell_data[cell][1] = '\0';
 4057              		.loc 1 325 35 is_stmt 0 view .LVU1446
 4058 0060 0022     		movs	r2, #0
 4059 0062 1A70     		strb	r2, [r3]
 326:Middlewares/lvgl/src/widgets/lv_table.c ****     }
 4060              		.loc 1 326 9 is_stmt 1 view .LVU1447
 326:Middlewares/lvgl/src/widgets/lv_table.c ****     }
 4061              		.loc 1 326 14 is_stmt 0 view .LVU1448
 4062 0064 A36A     		ldr	r3, [r4, #40]
 326:Middlewares/lvgl/src/widgets/lv_table.c ****     }
 4063              		.loc 1 326 25 view .LVU1449
 4064 0066 53F82630 		ldr	r3, [r3, r6, lsl #2]
 326:Middlewares/lvgl/src/widgets/lv_table.c ****     }
 4065              		.loc 1 326 35 view .LVU1450
 4066 006a 5A70     		strb	r2, [r3, #1]
 4067 006c DBE7     		b	.L201
 4068              	.L203:
 322:Middlewares/lvgl/src/widgets/lv_table.c ****         if(table->cell_data[cell] == NULL) return;
 4069              		.loc 1 322 9 is_stmt 1 discriminator 1 view .LVU1451
 322:Middlewares/lvgl/src/widgets/lv_table.c ****         if(table->cell_data[cell] == NULL) return;
 4070              		.loc 1 322 9 discriminator 1 view .LVU1452
 322:Middlewares/lvgl/src/widgets/lv_table.c ****         if(table->cell_data[cell] == NULL) return;
 4071              		.loc 1 322 9 discriminator 1 view .LVU1453
ARM GAS  /tmp/ccQS5ib5.s 			page 125


 322:Middlewares/lvgl/src/widgets/lv_table.c ****         if(table->cell_data[cell] == NULL) return;
 4072              		.loc 1 322 9 discriminator 1 view .LVU1454
 4073 006e FEE7     		b	.L203
 4074              		.cfi_endproc
 4075              	.LFE153:
 4077              		.section	.text.lv_table_clear_cell_ctrl,"ax",%progbits
 4078              		.align	1
 4079              		.global	lv_table_clear_cell_ctrl
 4080              		.syntax unified
 4081              		.thumb
 4082              		.thumb_func
 4083              		.fpu fpv4-sp-d16
 4085              	lv_table_clear_cell_ctrl:
 4086              	.LVL437:
 4087              	.LFB154:
 333:Middlewares/lvgl/src/widgets/lv_table.c ****     LV_ASSERT_OBJ(obj, MY_CLASS);
 4088              		.loc 1 333 1 view -0
 4089              		.cfi_startproc
 4090              		@ args = 0, pretend = 0, frame = 0
 4091              		@ frame_needed = 0, uses_anonymous_args = 0
 333:Middlewares/lvgl/src/widgets/lv_table.c ****     LV_ASSERT_OBJ(obj, MY_CLASS);
 4092              		.loc 1 333 1 is_stmt 0 view .LVU1456
 4093 0000 2DE9F041 		push	{r4, r5, r6, r7, r8, lr}
 4094              	.LCFI34:
 4095              		.cfi_def_cfa_offset 24
 4096              		.cfi_offset 4, -24
 4097              		.cfi_offset 5, -20
 4098              		.cfi_offset 6, -16
 4099              		.cfi_offset 7, -12
 4100              		.cfi_offset 8, -8
 4101              		.cfi_offset 14, -4
 4102 0004 0446     		mov	r4, r0
 4103 0006 8846     		mov	r8, r1
 4104 0008 1646     		mov	r6, r2
 4105 000a 1F46     		mov	r7, r3
 334:Middlewares/lvgl/src/widgets/lv_table.c **** 
 4106              		.loc 1 334 5 is_stmt 1 view .LVU1457
 334:Middlewares/lvgl/src/widgets/lv_table.c **** 
 4107              		.loc 1 334 5 view .LVU1458
 334:Middlewares/lvgl/src/widgets/lv_table.c **** 
 4108              		.loc 1 334 5 view .LVU1459
 336:Middlewares/lvgl/src/widgets/lv_table.c **** 
 4109              		.loc 1 336 5 view .LVU1460
 4110              	.LVL438:
 339:Middlewares/lvgl/src/widgets/lv_table.c ****     if(row >= table->row_cnt) lv_table_set_row_cnt(obj, row + 1);
 4111              		.loc 1 339 5 view .LVU1461
 339:Middlewares/lvgl/src/widgets/lv_table.c ****     if(row >= table->row_cnt) lv_table_set_row_cnt(obj, row + 1);
 4112              		.loc 1 339 20 is_stmt 0 view .LVU1462
 4113 000c 838C     		ldrh	r3, [r0, #36]
 4114              	.LVL439:
 339:Middlewares/lvgl/src/widgets/lv_table.c ****     if(row >= table->row_cnt) lv_table_set_row_cnt(obj, row + 1);
 4115              		.loc 1 339 7 view .LVU1463
 4116 000e 9342     		cmp	r3, r2
 4117 0010 12D9     		bls	.L215
 4118              	.LVL440:
 4119              	.L209:
 340:Middlewares/lvgl/src/widgets/lv_table.c **** 
ARM GAS  /tmp/ccQS5ib5.s 			page 126


 4120              		.loc 1 340 5 is_stmt 1 view .LVU1464
 340:Middlewares/lvgl/src/widgets/lv_table.c **** 
 4121              		.loc 1 340 20 is_stmt 0 view .LVU1465
 4122 0012 E38C     		ldrh	r3, [r4, #38]
 340:Middlewares/lvgl/src/widgets/lv_table.c **** 
 4123              		.loc 1 340 7 view .LVU1466
 4124 0014 4345     		cmp	r3, r8
 4125 0016 14D9     		bls	.L216
 4126              	.L210:
 342:Middlewares/lvgl/src/widgets/lv_table.c **** 
 4127              		.loc 1 342 5 is_stmt 1 view .LVU1467
 342:Middlewares/lvgl/src/widgets/lv_table.c **** 
 4128              		.loc 1 342 32 is_stmt 0 view .LVU1468
 4129 0018 A58C     		ldrh	r5, [r4, #36]
 342:Middlewares/lvgl/src/widgets/lv_table.c **** 
 4130              		.loc 1 342 42 view .LVU1469
 4131 001a 05FB0865 		mla	r5, r5, r8, r6
 4132              	.LVL441:
 344:Middlewares/lvgl/src/widgets/lv_table.c ****         table->cell_data[cell]    = lv_mem_alloc(2); /*+1: trailing '\0; +1: format byte*/
 4133              		.loc 1 344 5 is_stmt 1 view .LVU1470
 344:Middlewares/lvgl/src/widgets/lv_table.c ****         table->cell_data[cell]    = lv_mem_alloc(2); /*+1: trailing '\0; +1: format byte*/
 4134              		.loc 1 344 13 is_stmt 0 view .LVU1471
 4135 001e A66A     		ldr	r6, [r4, #40]
 344:Middlewares/lvgl/src/widgets/lv_table.c ****         table->cell_data[cell]    = lv_mem_alloc(2); /*+1: trailing '\0; +1: format byte*/
 4136              		.loc 1 344 24 view .LVU1472
 4137 0020 56F82520 		ldr	r2, [r6, r5, lsl #2]
 344:Middlewares/lvgl/src/widgets/lv_table.c ****         table->cell_data[cell]    = lv_mem_alloc(2); /*+1: trailing '\0; +1: format byte*/
 4138              		.loc 1 344 7 view .LVU1473
 4139 0024 A2B1     		cbz	r2, .L217
 4140              	.L211:
 353:Middlewares/lvgl/src/widgets/lv_table.c **** }
 4141              		.loc 1 353 5 is_stmt 1 view .LVU1474
 353:Middlewares/lvgl/src/widgets/lv_table.c **** }
 4142              		.loc 1 353 10 is_stmt 0 view .LVU1475
 4143 0026 A36A     		ldr	r3, [r4, #40]
 353:Middlewares/lvgl/src/widgets/lv_table.c **** }
 4144              		.loc 1 353 21 view .LVU1476
 4145 0028 53F82510 		ldr	r1, [r3, r5, lsl #2]
 353:Middlewares/lvgl/src/widgets/lv_table.c **** }
 4146              		.loc 1 353 31 view .LVU1477
 4147 002c 0A78     		ldrb	r2, [r1]	@ zero_extendqisi2
 4148 002e 22EA0703 		bic	r3, r2, r7
 4149 0032 0B70     		strb	r3, [r1]
 354:Middlewares/lvgl/src/widgets/lv_table.c **** 
 4150              		.loc 1 354 1 view .LVU1478
 4151 0034 BDE8F081 		pop	{r4, r5, r6, r7, r8, pc}
 4152              	.LVL442:
 4153              	.L215:
 339:Middlewares/lvgl/src/widgets/lv_table.c ****     if(row >= table->row_cnt) lv_table_set_row_cnt(obj, row + 1);
 4154              		.loc 1 339 31 is_stmt 1 discriminator 1 view .LVU1479
 4155 0038 511C     		adds	r1, r2, #1
 4156              	.LVL443:
 339:Middlewares/lvgl/src/widgets/lv_table.c ****     if(row >= table->row_cnt) lv_table_set_row_cnt(obj, row + 1);
 4157              		.loc 1 339 31 is_stmt 0 discriminator 1 view .LVU1480
 4158 003a 89B2     		uxth	r1, r1
 4159 003c FFF7FEFF 		bl	lv_table_set_col_cnt
 4160              	.LVL444:
ARM GAS  /tmp/ccQS5ib5.s 			page 127


 339:Middlewares/lvgl/src/widgets/lv_table.c ****     if(row >= table->row_cnt) lv_table_set_row_cnt(obj, row + 1);
 4161              		.loc 1 339 31 discriminator 1 view .LVU1481
 4162 0040 E7E7     		b	.L209
 4163              	.L216:
 340:Middlewares/lvgl/src/widgets/lv_table.c **** 
 4164              		.loc 1 340 31 is_stmt 1 discriminator 1 view .LVU1482
 4165 0042 08F10101 		add	r1, r8, #1
 4166 0046 89B2     		uxth	r1, r1
 4167 0048 2046     		mov	r0, r4
 4168 004a FFF7FEFF 		bl	lv_table_set_row_cnt
 4169              	.LVL445:
 4170 004e E3E7     		b	.L210
 4171              	.LVL446:
 4172              	.L217:
 345:Middlewares/lvgl/src/widgets/lv_table.c ****         LV_ASSERT_MALLOC(table->cell_data[cell]);
 4173              		.loc 1 345 9 view .LVU1483
 345:Middlewares/lvgl/src/widgets/lv_table.c ****         LV_ASSERT_MALLOC(table->cell_data[cell]);
 4174              		.loc 1 345 37 is_stmt 0 view .LVU1484
 4175 0050 0220     		movs	r0, #2
 4176 0052 FFF7FEFF 		bl	lv_mem_alloc
 4177              	.LVL447:
 345:Middlewares/lvgl/src/widgets/lv_table.c ****         LV_ASSERT_MALLOC(table->cell_data[cell]);
 4178              		.loc 1 345 35 view .LVU1485
 4179 0056 46F82500 		str	r0, [r6, r5, lsl #2]
 346:Middlewares/lvgl/src/widgets/lv_table.c ****         if(table->cell_data[cell] == NULL) return;
 4180              		.loc 1 346 9 is_stmt 1 view .LVU1486
 346:Middlewares/lvgl/src/widgets/lv_table.c ****         if(table->cell_data[cell] == NULL) return;
 4181              		.loc 1 346 9 view .LVU1487
 4182 005a A36A     		ldr	r3, [r4, #40]
 4183 005c 53F82530 		ldr	r3, [r3, r5, lsl #2]
 4184 0060 33B1     		cbz	r3, .L213
 346:Middlewares/lvgl/src/widgets/lv_table.c ****         if(table->cell_data[cell] == NULL) return;
 4185              		.loc 1 346 9 view .LVU1488
 346:Middlewares/lvgl/src/widgets/lv_table.c ****         if(table->cell_data[cell] == NULL) return;
 4186              		.loc 1 346 49 view .LVU1489
 347:Middlewares/lvgl/src/widgets/lv_table.c **** 
 4187              		.loc 1 347 9 view .LVU1490
 349:Middlewares/lvgl/src/widgets/lv_table.c ****         table->cell_data[cell][1] = '\0';
 4188              		.loc 1 349 9 view .LVU1491
 349:Middlewares/lvgl/src/widgets/lv_table.c ****         table->cell_data[cell][1] = '\0';
 4189              		.loc 1 349 35 is_stmt 0 view .LVU1492
 4190 0062 0022     		movs	r2, #0
 4191 0064 1A70     		strb	r2, [r3]
 350:Middlewares/lvgl/src/widgets/lv_table.c ****     }
 4192              		.loc 1 350 9 is_stmt 1 view .LVU1493
 350:Middlewares/lvgl/src/widgets/lv_table.c ****     }
 4193              		.loc 1 350 14 is_stmt 0 view .LVU1494
 4194 0066 A36A     		ldr	r3, [r4, #40]
 350:Middlewares/lvgl/src/widgets/lv_table.c ****     }
 4195              		.loc 1 350 25 view .LVU1495
 4196 0068 53F82530 		ldr	r3, [r3, r5, lsl #2]
 350:Middlewares/lvgl/src/widgets/lv_table.c ****     }
 4197              		.loc 1 350 35 view .LVU1496
 4198 006c 5A70     		strb	r2, [r3, #1]
 4199 006e DAE7     		b	.L211
 4200              	.L213:
 346:Middlewares/lvgl/src/widgets/lv_table.c ****         if(table->cell_data[cell] == NULL) return;
ARM GAS  /tmp/ccQS5ib5.s 			page 128


 4201              		.loc 1 346 9 is_stmt 1 discriminator 1 view .LVU1497
 346:Middlewares/lvgl/src/widgets/lv_table.c ****         if(table->cell_data[cell] == NULL) return;
 4202              		.loc 1 346 9 discriminator 1 view .LVU1498
 346:Middlewares/lvgl/src/widgets/lv_table.c ****         if(table->cell_data[cell] == NULL) return;
 4203              		.loc 1 346 9 discriminator 1 view .LVU1499
 346:Middlewares/lvgl/src/widgets/lv_table.c ****         if(table->cell_data[cell] == NULL) return;
 4204              		.loc 1 346 9 discriminator 1 view .LVU1500
 4205 0070 FEE7     		b	.L213
 4206              		.cfi_endproc
 4207              	.LFE154:
 4209              		.section	.rodata.lv_table_get_cell_value.str1.4,"aMS",%progbits,1
 4210              		.align	2
 4211              	.LC0:
 4212 0000 00       		.ascii	"\000"
 4213              		.section	.text.lv_table_get_cell_value,"ax",%progbits
 4214              		.align	1
 4215              		.global	lv_table_get_cell_value
 4216              		.syntax unified
 4217              		.thumb
 4218              		.thumb_func
 4219              		.fpu fpv4-sp-d16
 4221              	lv_table_get_cell_value:
 4222              	.LVL448:
 4223              	.LFB155:
 361:Middlewares/lvgl/src/widgets/lv_table.c ****     LV_ASSERT_OBJ(obj, MY_CLASS);
 4224              		.loc 1 361 1 view -0
 4225              		.cfi_startproc
 4226              		@ args = 0, pretend = 0, frame = 0
 4227              		@ frame_needed = 0, uses_anonymous_args = 0
 4228              		@ link register save eliminated.
 362:Middlewares/lvgl/src/widgets/lv_table.c **** 
 4229              		.loc 1 362 5 view .LVU1502
 362:Middlewares/lvgl/src/widgets/lv_table.c **** 
 4230              		.loc 1 362 5 view .LVU1503
 362:Middlewares/lvgl/src/widgets/lv_table.c **** 
 4231              		.loc 1 362 5 view .LVU1504
 364:Middlewares/lvgl/src/widgets/lv_table.c ****     if(row >= table->row_cnt || col >= table->col_cnt) {
 4232              		.loc 1 364 5 view .LVU1505
 365:Middlewares/lvgl/src/widgets/lv_table.c ****         LV_LOG_WARN("lv_table_set_cell_value: invalid row or column");
 4233              		.loc 1 365 5 view .LVU1506
 365:Middlewares/lvgl/src/widgets/lv_table.c ****         LV_LOG_WARN("lv_table_set_cell_value: invalid row or column");
 4234              		.loc 1 365 20 is_stmt 0 view .LVU1507
 4235 0000 C38C     		ldrh	r3, [r0, #38]
 365:Middlewares/lvgl/src/widgets/lv_table.c ****         LV_LOG_WARN("lv_table_set_cell_value: invalid row or column");
 4236              		.loc 1 365 7 view .LVU1508
 4237 0002 8B42     		cmp	r3, r1
 4238 0004 0AD9     		bls	.L220
 365:Middlewares/lvgl/src/widgets/lv_table.c ****         LV_LOG_WARN("lv_table_set_cell_value: invalid row or column");
 4239              		.loc 1 365 45 discriminator 1 view .LVU1509
 4240 0006 838C     		ldrh	r3, [r0, #36]
 365:Middlewares/lvgl/src/widgets/lv_table.c ****         LV_LOG_WARN("lv_table_set_cell_value: invalid row or column");
 4241              		.loc 1 365 30 discriminator 1 view .LVU1510
 4242 0008 9342     		cmp	r3, r2
 4243 000a 09D9     		bls	.L221
 369:Middlewares/lvgl/src/widgets/lv_table.c **** 
 4244              		.loc 1 369 5 is_stmt 1 view .LVU1511
 369:Middlewares/lvgl/src/widgets/lv_table.c **** 
ARM GAS  /tmp/ccQS5ib5.s 			page 129


 4245              		.loc 1 369 42 is_stmt 0 view .LVU1512
 4246 000c 03FB0122 		mla	r2, r3, r1, r2
 4247              	.LVL449:
 371:Middlewares/lvgl/src/widgets/lv_table.c **** 
 4248              		.loc 1 371 5 is_stmt 1 view .LVU1513
 371:Middlewares/lvgl/src/widgets/lv_table.c **** 
 4249              		.loc 1 371 13 is_stmt 0 view .LVU1514
 4250 0010 836A     		ldr	r3, [r0, #40]
 371:Middlewares/lvgl/src/widgets/lv_table.c **** 
 4251              		.loc 1 371 24 view .LVU1515
 4252 0012 53F82200 		ldr	r0, [r3, r2, lsl #2]
 4253              	.LVL450:
 371:Middlewares/lvgl/src/widgets/lv_table.c **** 
 4254              		.loc 1 371 7 view .LVU1516
 4255 0016 28B1     		cbz	r0, .L222
 373:Middlewares/lvgl/src/widgets/lv_table.c **** }
 4256              		.loc 1 373 5 is_stmt 1 view .LVU1517
 373:Middlewares/lvgl/src/widgets/lv_table.c **** }
 4257              		.loc 1 373 12 is_stmt 0 view .LVU1518
 4258 0018 0130     		adds	r0, r0, #1
 4259 001a 7047     		bx	lr
 4260              	.LVL451:
 4261              	.L220:
 367:Middlewares/lvgl/src/widgets/lv_table.c ****     }
 4262              		.loc 1 367 16 view .LVU1519
 4263 001c 0248     		ldr	r0, .L223
 4264              	.LVL452:
 367:Middlewares/lvgl/src/widgets/lv_table.c ****     }
 4265              		.loc 1 367 16 view .LVU1520
 4266 001e 7047     		bx	lr
 4267              	.LVL453:
 4268              	.L221:
 367:Middlewares/lvgl/src/widgets/lv_table.c ****     }
 4269              		.loc 1 367 16 view .LVU1521
 4270 0020 0148     		ldr	r0, .L223
 4271              	.LVL454:
 367:Middlewares/lvgl/src/widgets/lv_table.c ****     }
 4272              		.loc 1 367 16 view .LVU1522
 4273 0022 7047     		bx	lr
 4274              	.LVL455:
 4275              	.L222:
 371:Middlewares/lvgl/src/widgets/lv_table.c **** 
 4276              		.loc 1 371 47 view .LVU1523
 4277 0024 0048     		ldr	r0, .L223
 374:Middlewares/lvgl/src/widgets/lv_table.c **** 
 4278              		.loc 1 374 1 view .LVU1524
 4279 0026 7047     		bx	lr
 4280              	.L224:
 4281              		.align	2
 4282              	.L223:
 4283 0028 00000000 		.word	.LC0
 4284              		.cfi_endproc
 4285              	.LFE155:
 4287              		.section	.text.lv_table_get_row_cnt,"ax",%progbits
 4288              		.align	1
 4289              		.global	lv_table_get_row_cnt
 4290              		.syntax unified
ARM GAS  /tmp/ccQS5ib5.s 			page 130


 4291              		.thumb
 4292              		.thumb_func
 4293              		.fpu fpv4-sp-d16
 4295              	lv_table_get_row_cnt:
 4296              	.LVL456:
 4297              	.LFB156:
 377:Middlewares/lvgl/src/widgets/lv_table.c ****     LV_ASSERT_OBJ(obj, MY_CLASS);
 4298              		.loc 1 377 1 is_stmt 1 view -0
 4299              		.cfi_startproc
 4300              		@ args = 0, pretend = 0, frame = 0
 4301              		@ frame_needed = 0, uses_anonymous_args = 0
 4302              		@ link register save eliminated.
 378:Middlewares/lvgl/src/widgets/lv_table.c **** 
 4303              		.loc 1 378 5 view .LVU1526
 378:Middlewares/lvgl/src/widgets/lv_table.c **** 
 4304              		.loc 1 378 5 view .LVU1527
 378:Middlewares/lvgl/src/widgets/lv_table.c **** 
 4305              		.loc 1 378 5 view .LVU1528
 380:Middlewares/lvgl/src/widgets/lv_table.c ****     return table->row_cnt;
 4306              		.loc 1 380 5 view .LVU1529
 381:Middlewares/lvgl/src/widgets/lv_table.c **** }
 4307              		.loc 1 381 5 view .LVU1530
 382:Middlewares/lvgl/src/widgets/lv_table.c **** 
 4308              		.loc 1 382 1 is_stmt 0 view .LVU1531
 4309 0000 C08C     		ldrh	r0, [r0, #38]
 4310              	.LVL457:
 382:Middlewares/lvgl/src/widgets/lv_table.c **** 
 4311              		.loc 1 382 1 view .LVU1532
 4312 0002 7047     		bx	lr
 4313              		.cfi_endproc
 4314              	.LFE156:
 4316              		.section	.text.lv_table_get_col_cnt,"ax",%progbits
 4317              		.align	1
 4318              		.global	lv_table_get_col_cnt
 4319              		.syntax unified
 4320              		.thumb
 4321              		.thumb_func
 4322              		.fpu fpv4-sp-d16
 4324              	lv_table_get_col_cnt:
 4325              	.LVL458:
 4326              	.LFB157:
 385:Middlewares/lvgl/src/widgets/lv_table.c ****     LV_ASSERT_OBJ(obj, MY_CLASS);
 4327              		.loc 1 385 1 is_stmt 1 view -0
 4328              		.cfi_startproc
 4329              		@ args = 0, pretend = 0, frame = 0
 4330              		@ frame_needed = 0, uses_anonymous_args = 0
 4331              		@ link register save eliminated.
 386:Middlewares/lvgl/src/widgets/lv_table.c **** 
 4332              		.loc 1 386 5 view .LVU1534
 386:Middlewares/lvgl/src/widgets/lv_table.c **** 
 4333              		.loc 1 386 5 view .LVU1535
 386:Middlewares/lvgl/src/widgets/lv_table.c **** 
 4334              		.loc 1 386 5 view .LVU1536
 388:Middlewares/lvgl/src/widgets/lv_table.c ****     return table->col_cnt;
 4335              		.loc 1 388 5 view .LVU1537
 389:Middlewares/lvgl/src/widgets/lv_table.c **** }
 4336              		.loc 1 389 5 view .LVU1538
ARM GAS  /tmp/ccQS5ib5.s 			page 131


 390:Middlewares/lvgl/src/widgets/lv_table.c **** 
 4337              		.loc 1 390 1 is_stmt 0 view .LVU1539
 4338 0000 808C     		ldrh	r0, [r0, #36]
 4339              	.LVL459:
 390:Middlewares/lvgl/src/widgets/lv_table.c **** 
 4340              		.loc 1 390 1 view .LVU1540
 4341 0002 7047     		bx	lr
 4342              		.cfi_endproc
 4343              	.LFE157:
 4345              		.section	.text.lv_table_get_col_width,"ax",%progbits
 4346              		.align	1
 4347              		.global	lv_table_get_col_width
 4348              		.syntax unified
 4349              		.thumb
 4350              		.thumb_func
 4351              		.fpu fpv4-sp-d16
 4353              	lv_table_get_col_width:
 4354              	.LVL460:
 4355              	.LFB158:
 393:Middlewares/lvgl/src/widgets/lv_table.c ****     LV_ASSERT_OBJ(obj, MY_CLASS);
 4356              		.loc 1 393 1 is_stmt 1 view -0
 4357              		.cfi_startproc
 4358              		@ args = 0, pretend = 0, frame = 0
 4359              		@ frame_needed = 0, uses_anonymous_args = 0
 4360              		@ link register save eliminated.
 394:Middlewares/lvgl/src/widgets/lv_table.c **** 
 4361              		.loc 1 394 5 view .LVU1542
 394:Middlewares/lvgl/src/widgets/lv_table.c **** 
 4362              		.loc 1 394 5 view .LVU1543
 394:Middlewares/lvgl/src/widgets/lv_table.c **** 
 4363              		.loc 1 394 5 view .LVU1544
 396:Middlewares/lvgl/src/widgets/lv_table.c **** 
 4364              		.loc 1 396 5 view .LVU1545
 398:Middlewares/lvgl/src/widgets/lv_table.c ****         LV_LOG_WARN("lv_table_set_col_width: too big 'col_id'. Must be < LV_TABLE_COL_MAX.");
 4365              		.loc 1 398 5 view .LVU1546
 398:Middlewares/lvgl/src/widgets/lv_table.c ****         LV_LOG_WARN("lv_table_set_col_width: too big 'col_id'. Must be < LV_TABLE_COL_MAX.");
 4366              		.loc 1 398 20 is_stmt 0 view .LVU1547
 4367 0000 838C     		ldrh	r3, [r0, #36]
 398:Middlewares/lvgl/src/widgets/lv_table.c ****         LV_LOG_WARN("lv_table_set_col_width: too big 'col_id'. Must be < LV_TABLE_COL_MAX.");
 4368              		.loc 1 398 7 view .LVU1548
 4369 0002 8B42     		cmp	r3, r1
 4370 0004 03D9     		bls	.L229
 403:Middlewares/lvgl/src/widgets/lv_table.c **** }
 4371              		.loc 1 403 5 is_stmt 1 view .LVU1549
 403:Middlewares/lvgl/src/widgets/lv_table.c **** }
 4372              		.loc 1 403 17 is_stmt 0 view .LVU1550
 4373 0006 036B     		ldr	r3, [r0, #48]
 403:Middlewares/lvgl/src/widgets/lv_table.c **** }
 4374              		.loc 1 403 24 view .LVU1551
 4375 0008 33F91100 		ldrsh	r0, [r3, r1, lsl #1]
 4376              	.LVL461:
 403:Middlewares/lvgl/src/widgets/lv_table.c **** }
 4377              		.loc 1 403 24 view .LVU1552
 4378 000c 7047     		bx	lr
 4379              	.LVL462:
 4380              	.L229:
 400:Middlewares/lvgl/src/widgets/lv_table.c ****     }
ARM GAS  /tmp/ccQS5ib5.s 			page 132


 4381              		.loc 1 400 16 view .LVU1553
 4382 000e 0020     		movs	r0, #0
 4383              	.LVL463:
 404:Middlewares/lvgl/src/widgets/lv_table.c **** 
 4384              		.loc 1 404 1 view .LVU1554
 4385 0010 7047     		bx	lr
 4386              		.cfi_endproc
 4387              	.LFE158:
 4389              		.section	.text.lv_table_has_cell_ctrl,"ax",%progbits
 4390              		.align	1
 4391              		.global	lv_table_has_cell_ctrl
 4392              		.syntax unified
 4393              		.thumb
 4394              		.thumb_func
 4395              		.fpu fpv4-sp-d16
 4397              	lv_table_has_cell_ctrl:
 4398              	.LVL464:
 4399              	.LFB159:
 407:Middlewares/lvgl/src/widgets/lv_table.c ****     LV_ASSERT_OBJ(obj, MY_CLASS);
 4400              		.loc 1 407 1 is_stmt 1 view -0
 4401              		.cfi_startproc
 4402              		@ args = 0, pretend = 0, frame = 0
 4403              		@ frame_needed = 0, uses_anonymous_args = 0
 4404              		@ link register save eliminated.
 408:Middlewares/lvgl/src/widgets/lv_table.c **** 
 4405              		.loc 1 408 5 view .LVU1556
 408:Middlewares/lvgl/src/widgets/lv_table.c **** 
 4406              		.loc 1 408 5 view .LVU1557
 408:Middlewares/lvgl/src/widgets/lv_table.c **** 
 4407              		.loc 1 408 5 view .LVU1558
 410:Middlewares/lvgl/src/widgets/lv_table.c ****     if(row >= table->row_cnt || col >= table->col_cnt) {
 4408              		.loc 1 410 5 view .LVU1559
 411:Middlewares/lvgl/src/widgets/lv_table.c ****         LV_LOG_WARN("lv_table_get_cell_crop: invalid row or column");
 4409              		.loc 1 411 5 view .LVU1560
 411:Middlewares/lvgl/src/widgets/lv_table.c ****         LV_LOG_WARN("lv_table_get_cell_crop: invalid row or column");
 4410              		.loc 1 411 20 is_stmt 0 view .LVU1561
 4411 0000 B0F826C0 		ldrh	ip, [r0, #38]
 411:Middlewares/lvgl/src/widgets/lv_table.c ****         LV_LOG_WARN("lv_table_get_cell_crop: invalid row or column");
 4412              		.loc 1 411 7 view .LVU1562
 4413 0004 8C45     		cmp	ip, r1
 4414 0006 0FD9     		bls	.L232
 411:Middlewares/lvgl/src/widgets/lv_table.c ****         LV_LOG_WARN("lv_table_get_cell_crop: invalid row or column");
 4415              		.loc 1 411 45 discriminator 1 view .LVU1563
 4416 0008 B0F824C0 		ldrh	ip, [r0, #36]
 411:Middlewares/lvgl/src/widgets/lv_table.c ****         LV_LOG_WARN("lv_table_get_cell_crop: invalid row or column");
 4417              		.loc 1 411 30 discriminator 1 view .LVU1564
 4418 000c 9445     		cmp	ip, r2
 4419 000e 0DD9     		bls	.L233
 415:Middlewares/lvgl/src/widgets/lv_table.c **** 
 4420              		.loc 1 415 5 is_stmt 1 view .LVU1565
 415:Middlewares/lvgl/src/widgets/lv_table.c **** 
 4421              		.loc 1 415 42 is_stmt 0 view .LVU1566
 4422 0010 0CFB0122 		mla	r2, ip, r1, r2
 4423              	.LVL465:
 417:Middlewares/lvgl/src/widgets/lv_table.c ****     else return (table->cell_data[cell][0] & ctrl) == ctrl ? true : false;
 4424              		.loc 1 417 5 is_stmt 1 view .LVU1567
 417:Middlewares/lvgl/src/widgets/lv_table.c ****     else return (table->cell_data[cell][0] & ctrl) == ctrl ? true : false;
ARM GAS  /tmp/ccQS5ib5.s 			page 133


 4425              		.loc 1 417 13 is_stmt 0 view .LVU1568
 4426 0014 816A     		ldr	r1, [r0, #40]
 4427              	.LVL466:
 417:Middlewares/lvgl/src/widgets/lv_table.c ****     else return (table->cell_data[cell][0] & ctrl) == ctrl ? true : false;
 4428              		.loc 1 417 24 view .LVU1569
 4429 0016 51F82220 		ldr	r2, [r1, r2, lsl #2]
 4430              	.LVL467:
 417:Middlewares/lvgl/src/widgets/lv_table.c ****     else return (table->cell_data[cell][0] & ctrl) == ctrl ? true : false;
 4431              		.loc 1 417 7 view .LVU1570
 4432 001a 4AB1     		cbz	r2, .L234
 418:Middlewares/lvgl/src/widgets/lv_table.c **** }
 4433              		.loc 1 418 10 is_stmt 1 view .LVU1571
 418:Middlewares/lvgl/src/widgets/lv_table.c **** }
 4434              		.loc 1 418 40 is_stmt 0 view .LVU1572
 4435 001c 1278     		ldrb	r2, [r2]	@ zero_extendqisi2
 418:Middlewares/lvgl/src/widgets/lv_table.c **** }
 4436              		.loc 1 418 67 view .LVU1573
 4437 001e 9343     		bics	r3, r3, r2
 4438              	.LVL468:
 418:Middlewares/lvgl/src/widgets/lv_table.c **** }
 4439              		.loc 1 418 67 view .LVU1574
 4440 0020 0CBF     		ite	eq
 4441 0022 0120     		moveq	r0, #1
 4442              	.LVL469:
 418:Middlewares/lvgl/src/widgets/lv_table.c **** }
 4443              		.loc 1 418 67 view .LVU1575
 4444 0024 0020     		movne	r0, #0
 4445 0026 7047     		bx	lr
 4446              	.LVL470:
 4447              	.L232:
 413:Middlewares/lvgl/src/widgets/lv_table.c ****     }
 4448              		.loc 1 413 16 view .LVU1576
 4449 0028 0020     		movs	r0, #0
 4450              	.LVL471:
 413:Middlewares/lvgl/src/widgets/lv_table.c ****     }
 4451              		.loc 1 413 16 view .LVU1577
 4452 002a 7047     		bx	lr
 4453              	.LVL472:
 4454              	.L233:
 413:Middlewares/lvgl/src/widgets/lv_table.c ****     }
 4455              		.loc 1 413 16 view .LVU1578
 4456 002c 0020     		movs	r0, #0
 4457              	.LVL473:
 413:Middlewares/lvgl/src/widgets/lv_table.c ****     }
 4458              		.loc 1 413 16 view .LVU1579
 4459 002e 7047     		bx	lr
 4460              	.LVL474:
 4461              	.L234:
 417:Middlewares/lvgl/src/widgets/lv_table.c ****     else return (table->cell_data[cell][0] & ctrl) == ctrl ? true : false;
 4462              		.loc 1 417 47 view .LVU1580
 4463 0030 0020     		movs	r0, #0
 4464              	.LVL475:
 419:Middlewares/lvgl/src/widgets/lv_table.c **** 
 4465              		.loc 1 419 1 view .LVU1581
 4466 0032 7047     		bx	lr
 4467              		.cfi_endproc
 4468              	.LFE159:
ARM GAS  /tmp/ccQS5ib5.s 			page 134


 4470              		.section	.text.lv_table_get_selected_cell,"ax",%progbits
 4471              		.align	1
 4472              		.global	lv_table_get_selected_cell
 4473              		.syntax unified
 4474              		.thumb
 4475              		.thumb_func
 4476              		.fpu fpv4-sp-d16
 4478              	lv_table_get_selected_cell:
 4479              	.LVL476:
 4480              	.LFB160:
 422:Middlewares/lvgl/src/widgets/lv_table.c ****     lv_table_t * table = (lv_table_t *)obj;
 4481              		.loc 1 422 1 is_stmt 1 view -0
 4482              		.cfi_startproc
 4483              		@ args = 0, pretend = 0, frame = 0
 4484              		@ frame_needed = 0, uses_anonymous_args = 0
 4485              		@ link register save eliminated.
 423:Middlewares/lvgl/src/widgets/lv_table.c ****     *row = table->row_act;
 4486              		.loc 1 423 5 view .LVU1583
 424:Middlewares/lvgl/src/widgets/lv_table.c ****     *col = table->col_act;
 4487              		.loc 1 424 5 view .LVU1584
 424:Middlewares/lvgl/src/widgets/lv_table.c ****     *col = table->col_act;
 4488              		.loc 1 424 17 is_stmt 0 view .LVU1585
 4489 0000 C38E     		ldrh	r3, [r0, #54]
 424:Middlewares/lvgl/src/widgets/lv_table.c ****     *col = table->col_act;
 4490              		.loc 1 424 10 view .LVU1586
 4491 0002 0B80     		strh	r3, [r1]	@ movhi
 425:Middlewares/lvgl/src/widgets/lv_table.c **** }
 4492              		.loc 1 425 5 is_stmt 1 view .LVU1587
 425:Middlewares/lvgl/src/widgets/lv_table.c **** }
 4493              		.loc 1 425 17 is_stmt 0 view .LVU1588
 4494 0004 838E     		ldrh	r3, [r0, #52]
 425:Middlewares/lvgl/src/widgets/lv_table.c **** }
 4495              		.loc 1 425 10 view .LVU1589
 4496 0006 1380     		strh	r3, [r2]	@ movhi
 426:Middlewares/lvgl/src/widgets/lv_table.c **** 
 4497              		.loc 1 426 1 view .LVU1590
 4498 0008 7047     		bx	lr
 4499              		.cfi_endproc
 4500              	.LFE160:
 4502              		.global	lv_table_class
 4503              		.section	.rodata.lv_table_class,"a"
 4504              		.align	2
 4505              		.set	.LANCHOR0,. + 0
 4508              	lv_table_class:
 4509 0000 00000000 		.word	lv_obj_class
 4510 0004 00000000 		.word	lv_table_constructor
 4511 0008 00000000 		.word	lv_table_destructor
 4512 000c 00000000 		.space	4
 4513 0010 00000000 		.word	lv_table_event
 4514 0014 D127     		.short	10193
 4515 0016 D127     		.short	10193
 4516 0018 85       		.byte	133
 4517 0019 03       		.byte	3
 4518 001a 00       		.byte	0
 4519 001b 00       		.space	1
 4520              		.text
 4521              	.Letext0:
ARM GAS  /tmp/ccQS5ib5.s 			page 135


 4522              		.file 6 "/home/akinya/gcc-arm-none-eabi/arm-none-eabi/include/machine/_default_types.h"
 4523              		.file 7 "/home/akinya/gcc-arm-none-eabi/arm-none-eabi/include/sys/_stdint.h"
 4524              		.file 8 "/home/akinya/gcc-arm-none-eabi/lib/gcc/arm-none-eabi/10.2.1/include/stddef.h"
 4525              		.file 9 "Middlewares/lvgl/src/widgets/../core/../misc/lv_types.h"
 4526              		.file 10 "Middlewares/lvgl/src/widgets/../core/../misc/lv_color.h"
 4527              		.file 11 "/home/akinya/gcc-arm-none-eabi/lib/gcc/arm-none-eabi/10.2.1/include/stdarg.h"
 4528              		.file 12 "Middlewares/lvgl/src/widgets/../core/../misc/lv_txt.h"
 4529              		.file 13 "Middlewares/lvgl/src/widgets/../core/../misc/lv_bidi.h"
 4530              		.file 14 "Middlewares/lvgl/src/widgets/../core/../misc/lv_style.h"
 4531              		.file 15 "Middlewares/lvgl/src/widgets/../core/../hal/../misc/lv_ll.h"
 4532              		.file 16 "Middlewares/lvgl/src/widgets/../core/../hal/../misc/lv_timer.h"
 4533              		.file 17 "Middlewares/lvgl/src/widgets/../core/../hal/lv_hal_disp.h"
 4534              		.file 18 "Middlewares/lvgl/src/widgets/../core/lv_obj.h"
 4535              		.file 19 "Middlewares/lvgl/src/widgets/../core/../hal/lv_hal_indev.h"
 4536              		.file 20 "Middlewares/lvgl/src/widgets/../core/lv_group.h"
 4537              		.file 21 "Middlewares/lvgl/src/widgets/../core/lv_obj_scroll.h"
 4538              		.file 22 "Middlewares/lvgl/src/widgets/../core/lv_obj_style.h"
 4539              		.file 23 "Middlewares/lvgl/src/widgets/../core/../draw/lv_draw_rect.h"
 4540              		.file 24 "Middlewares/lvgl/src/widgets/../core/../draw/lv_draw_label.h"
 4541              		.file 25 "Middlewares/lvgl/src/widgets/../core/../draw/lv_draw_img.h"
 4542              		.file 26 "Middlewares/lvgl/src/widgets/../core/../draw/lv_draw_line.h"
 4543              		.file 27 "Middlewares/lvgl/src/widgets/../core/../draw/lv_draw_arc.h"
 4544              		.file 28 "Middlewares/lvgl/src/widgets/../core/lv_obj_draw.h"
 4545              		.file 29 "Middlewares/lvgl/src/widgets/../core/lv_obj_class.h"
 4546              		.file 30 "Middlewares/lvgl/src/widgets/../core/lv_event.h"
 4547              		.file 31 "Middlewares/lvgl/src/widgets/lv_table.h"
 4548              		.file 32 "Middlewares/lvgl/src/widgets/../core/lv_indev.h"
 4549              		.file 33 "Middlewares/lvgl/src/widgets/../core/lv_obj_pos.h"
 4550              		.file 34 "Middlewares/lvgl/src/widgets/../core/../misc/lv_printf.h"
 4551              		.file 35 "/home/akinya/gcc-arm-none-eabi/arm-none-eabi/include/string.h"
 4552              		.file 36 "<built-in>"
ARM GAS  /tmp/ccQS5ib5.s 			page 136


DEFINED SYMBOLS
                            *ABS*:0000000000000000 lv_table.c
     /tmp/ccQS5ib5.s:18     .text.get_row_height:0000000000000000 $t
     /tmp/ccQS5ib5.s:25     .text.get_row_height:0000000000000000 get_row_height
     /tmp/ccQS5ib5.s:341    .text.refr_size:0000000000000000 $t
     /tmp/ccQS5ib5.s:347    .text.refr_size:0000000000000000 refr_size
     /tmp/ccQS5ib5.s:614    .text.get_pressed_cell:0000000000000000 $t
     /tmp/ccQS5ib5.s:620    .text.get_pressed_cell:0000000000000000 get_pressed_cell
     /tmp/ccQS5ib5.s:949    .text.draw_main:0000000000000000 $t
     /tmp/ccQS5ib5.s:955    .text.draw_main:0000000000000000 draw_main
     /tmp/ccQS5ib5.s:2025   .text.lv_table_event:0000000000000000 $t
     /tmp/ccQS5ib5.s:2031   .text.lv_table_event:0000000000000000 lv_table_event
     /tmp/ccQS5ib5.s:2579   .text.lv_table_event:00000000000001cc $d
     /tmp/ccQS5ib5.s:2585   .text.lv_table_destructor:0000000000000000 $t
     /tmp/ccQS5ib5.s:2591   .text.lv_table_destructor:0000000000000000 lv_table_destructor
     /tmp/ccQS5ib5.s:2680   .text.lv_table_constructor:0000000000000000 $t
     /tmp/ccQS5ib5.s:2686   .text.lv_table_constructor:0000000000000000 lv_table_constructor
     /tmp/ccQS5ib5.s:2766   .text.lv_table_create:0000000000000000 $t
     /tmp/ccQS5ib5.s:2773   .text.lv_table_create:0000000000000000 lv_table_create
     /tmp/ccQS5ib5.s:2809   .text.lv_table_create:0000000000000014 $d
     /tmp/ccQS5ib5.s:2814   .text.lv_table_set_row_cnt:0000000000000000 $t
     /tmp/ccQS5ib5.s:2821   .text.lv_table_set_row_cnt:0000000000000000 lv_table_set_row_cnt
     /tmp/ccQS5ib5.s:2993   .text.lv_table_set_cell_value_fmt:0000000000000000 $t
     /tmp/ccQS5ib5.s:3000   .text.lv_table_set_cell_value_fmt:0000000000000000 lv_table_set_cell_value_fmt
     /tmp/ccQS5ib5.s:3411   .text.lv_table_set_col_cnt:0000000000000000 $t
     /tmp/ccQS5ib5.s:3418   .text.lv_table_set_col_cnt:0000000000000000 lv_table_set_col_cnt
     /tmp/ccQS5ib5.s:3702   .text.lv_table_set_cell_value:0000000000000000 $t
     /tmp/ccQS5ib5.s:3709   .text.lv_table_set_cell_value:0000000000000000 lv_table_set_cell_value
     /tmp/ccQS5ib5.s:3881   .text.lv_table_set_col_width:0000000000000000 $t
     /tmp/ccQS5ib5.s:3888   .text.lv_table_set_col_width:0000000000000000 lv_table_set_col_width
     /tmp/ccQS5ib5.s:3946   .text.lv_table_add_cell_ctrl:0000000000000000 $t
     /tmp/ccQS5ib5.s:3953   .text.lv_table_add_cell_ctrl:0000000000000000 lv_table_add_cell_ctrl
     /tmp/ccQS5ib5.s:4078   .text.lv_table_clear_cell_ctrl:0000000000000000 $t
     /tmp/ccQS5ib5.s:4085   .text.lv_table_clear_cell_ctrl:0000000000000000 lv_table_clear_cell_ctrl
     /tmp/ccQS5ib5.s:4210   .rodata.lv_table_get_cell_value.str1.4:0000000000000000 $d
     /tmp/ccQS5ib5.s:4214   .text.lv_table_get_cell_value:0000000000000000 $t
     /tmp/ccQS5ib5.s:4221   .text.lv_table_get_cell_value:0000000000000000 lv_table_get_cell_value
     /tmp/ccQS5ib5.s:4283   .text.lv_table_get_cell_value:0000000000000028 $d
     /tmp/ccQS5ib5.s:4288   .text.lv_table_get_row_cnt:0000000000000000 $t
     /tmp/ccQS5ib5.s:4295   .text.lv_table_get_row_cnt:0000000000000000 lv_table_get_row_cnt
     /tmp/ccQS5ib5.s:4317   .text.lv_table_get_col_cnt:0000000000000000 $t
     /tmp/ccQS5ib5.s:4324   .text.lv_table_get_col_cnt:0000000000000000 lv_table_get_col_cnt
     /tmp/ccQS5ib5.s:4346   .text.lv_table_get_col_width:0000000000000000 $t
     /tmp/ccQS5ib5.s:4353   .text.lv_table_get_col_width:0000000000000000 lv_table_get_col_width
     /tmp/ccQS5ib5.s:4390   .text.lv_table_has_cell_ctrl:0000000000000000 $t
     /tmp/ccQS5ib5.s:4397   .text.lv_table_has_cell_ctrl:0000000000000000 lv_table_has_cell_ctrl
     /tmp/ccQS5ib5.s:4471   .text.lv_table_get_selected_cell:0000000000000000 $t
     /tmp/ccQS5ib5.s:4478   .text.lv_table_get_selected_cell:0000000000000000 lv_table_get_selected_cell
     /tmp/ccQS5ib5.s:4508   .rodata.lv_table_class:0000000000000000 lv_table_class
     /tmp/ccQS5ib5.s:4504   .rodata.lv_table_class:0000000000000000 $d

UNDEFINED SYMBOLS
lv_txt_get_size
lv_obj_get_style_prop
lv_obj_refresh_self_size
lv_indev_get_act
lv_indev_get_type
ARM GAS  /tmp/ccQS5ib5.s 			page 137


lv_indev_get_point
lv_obj_get_scroll_x
lv_obj_get_scroll_y
lv_event_get_target
lv_event_get_param
lv_draw_rect_dsc_init
lv_obj_init_draw_rect_dsc
lv_draw_label_dsc_init
lv_obj_init_draw_label_dsc
lv_obj_draw_dsc_init
lv_memcpy
lv_event_send
lv_draw_rect
_lv_area_intersect
lv_draw_label
lv_obj_event_base
lv_event_get_code
lv_obj_invalidate
lv_indev_get_scroll_obj
lv_mem_free
lv_mem_alloc
lv_mem_realloc
lv_obj_class_create_obj
lv_obj_class_init_obj
lv_memset_00
lv_vsnprintf
strlen
strcpy
lv_obj_class
