ARM GAS  /tmp/ccGsDr7b.s 			page 1


   1              		.cpu cortex-m4
   2              		.eabi_attribute 27, 1
   3              		.eabi_attribute 28, 1
   4              		.eabi_attribute 20, 1
   5              		.eabi_attribute 21, 1
   6              		.eabi_attribute 23, 3
   7              		.eabi_attribute 24, 1
   8              		.eabi_attribute 25, 1
   9              		.eabi_attribute 26, 1
  10              		.eabi_attribute 30, 1
  11              		.eabi_attribute 34, 1
  12              		.eabi_attribute 18, 4
  13              		.file	"lv_tileview.c"
  14              		.text
  15              	.Ltext0:
  16              		.cfi_sections	.debug_frame
  17              		.section	.text.lv_tileview_constructor,"ax",%progbits
  18              		.align	1
  19              		.arch armv7e-m
  20              		.syntax unified
  21              		.thumb
  22              		.thumb_func
  23              		.fpu fpv4-sp-d16
  25              	lv_tileview_constructor:
  26              	.LVL0:
  27              	.LFB152:
  28              		.file 1 "Middlewares/lvgl/src/extra/widgets/tileview/lv_tileview.c"
   1:Middlewares/lvgl/src/extra/widgets/tileview/lv_tileview.c **** /**
   2:Middlewares/lvgl/src/extra/widgets/tileview/lv_tileview.c ****  * @file lv_tileview.c
   3:Middlewares/lvgl/src/extra/widgets/tileview/lv_tileview.c ****  *
   4:Middlewares/lvgl/src/extra/widgets/tileview/lv_tileview.c ****  */
   5:Middlewares/lvgl/src/extra/widgets/tileview/lv_tileview.c **** 
   6:Middlewares/lvgl/src/extra/widgets/tileview/lv_tileview.c **** /*********************
   7:Middlewares/lvgl/src/extra/widgets/tileview/lv_tileview.c ****  *      INCLUDES
   8:Middlewares/lvgl/src/extra/widgets/tileview/lv_tileview.c ****  *********************/
   9:Middlewares/lvgl/src/extra/widgets/tileview/lv_tileview.c **** #include "lv_tileview.h"
  10:Middlewares/lvgl/src/extra/widgets/tileview/lv_tileview.c **** #if LV_USE_TILEVIEW
  11:Middlewares/lvgl/src/extra/widgets/tileview/lv_tileview.c **** 
  12:Middlewares/lvgl/src/extra/widgets/tileview/lv_tileview.c **** /*********************
  13:Middlewares/lvgl/src/extra/widgets/tileview/lv_tileview.c ****  *      DEFINES
  14:Middlewares/lvgl/src/extra/widgets/tileview/lv_tileview.c ****  *********************/
  15:Middlewares/lvgl/src/extra/widgets/tileview/lv_tileview.c **** 
  16:Middlewares/lvgl/src/extra/widgets/tileview/lv_tileview.c **** /**********************
  17:Middlewares/lvgl/src/extra/widgets/tileview/lv_tileview.c ****  *      TYPEDEFS
  18:Middlewares/lvgl/src/extra/widgets/tileview/lv_tileview.c ****  **********************/
  19:Middlewares/lvgl/src/extra/widgets/tileview/lv_tileview.c **** 
  20:Middlewares/lvgl/src/extra/widgets/tileview/lv_tileview.c **** /**********************
  21:Middlewares/lvgl/src/extra/widgets/tileview/lv_tileview.c ****  *  STATIC PROTOTYPES
  22:Middlewares/lvgl/src/extra/widgets/tileview/lv_tileview.c ****  **********************/
  23:Middlewares/lvgl/src/extra/widgets/tileview/lv_tileview.c **** static void lv_tileview_constructor(const lv_obj_class_t * class_p, lv_obj_t * obj);
  24:Middlewares/lvgl/src/extra/widgets/tileview/lv_tileview.c **** static void lv_tileview_tile_constructor(const lv_obj_class_t * class_p, lv_obj_t * obj);
  25:Middlewares/lvgl/src/extra/widgets/tileview/lv_tileview.c **** static void tileview_event_cb(lv_event_t * e);
  26:Middlewares/lvgl/src/extra/widgets/tileview/lv_tileview.c **** 
  27:Middlewares/lvgl/src/extra/widgets/tileview/lv_tileview.c **** /**********************
  28:Middlewares/lvgl/src/extra/widgets/tileview/lv_tileview.c ****  *  STATIC VARIABLES
  29:Middlewares/lvgl/src/extra/widgets/tileview/lv_tileview.c ****  **********************/
  30:Middlewares/lvgl/src/extra/widgets/tileview/lv_tileview.c **** 
ARM GAS  /tmp/ccGsDr7b.s 			page 2


  31:Middlewares/lvgl/src/extra/widgets/tileview/lv_tileview.c **** const lv_obj_class_t lv_tileview_class = {.constructor_cb = lv_tileview_constructor,
  32:Middlewares/lvgl/src/extra/widgets/tileview/lv_tileview.c ****                                     .base_class = &lv_obj_class,
  33:Middlewares/lvgl/src/extra/widgets/tileview/lv_tileview.c ****                                     .instance_size = sizeof(lv_tileview_t)};
  34:Middlewares/lvgl/src/extra/widgets/tileview/lv_tileview.c **** 
  35:Middlewares/lvgl/src/extra/widgets/tileview/lv_tileview.c **** const lv_obj_class_t lv_tileview_tile_class = {.constructor_cb = lv_tileview_tile_constructor,
  36:Middlewares/lvgl/src/extra/widgets/tileview/lv_tileview.c ****                                          .base_class = &lv_obj_class,
  37:Middlewares/lvgl/src/extra/widgets/tileview/lv_tileview.c ****                                          .instance_size = sizeof(lv_tileview_tile_t)};
  38:Middlewares/lvgl/src/extra/widgets/tileview/lv_tileview.c **** 
  39:Middlewares/lvgl/src/extra/widgets/tileview/lv_tileview.c **** static lv_dir_t create_dir;
  40:Middlewares/lvgl/src/extra/widgets/tileview/lv_tileview.c **** static uint32_t create_col_id;
  41:Middlewares/lvgl/src/extra/widgets/tileview/lv_tileview.c **** static uint32_t create_row_id;
  42:Middlewares/lvgl/src/extra/widgets/tileview/lv_tileview.c **** 
  43:Middlewares/lvgl/src/extra/widgets/tileview/lv_tileview.c **** /**********************
  44:Middlewares/lvgl/src/extra/widgets/tileview/lv_tileview.c ****  *      MACROS
  45:Middlewares/lvgl/src/extra/widgets/tileview/lv_tileview.c ****  **********************/
  46:Middlewares/lvgl/src/extra/widgets/tileview/lv_tileview.c **** 
  47:Middlewares/lvgl/src/extra/widgets/tileview/lv_tileview.c **** /**********************
  48:Middlewares/lvgl/src/extra/widgets/tileview/lv_tileview.c ****  *   GLOBAL FUNCTIONS
  49:Middlewares/lvgl/src/extra/widgets/tileview/lv_tileview.c ****  **********************/
  50:Middlewares/lvgl/src/extra/widgets/tileview/lv_tileview.c **** 
  51:Middlewares/lvgl/src/extra/widgets/tileview/lv_tileview.c **** lv_obj_t * lv_tileview_create(lv_obj_t * parent)
  52:Middlewares/lvgl/src/extra/widgets/tileview/lv_tileview.c **** {
  53:Middlewares/lvgl/src/extra/widgets/tileview/lv_tileview.c ****     LV_LOG_INFO("begin")
  54:Middlewares/lvgl/src/extra/widgets/tileview/lv_tileview.c ****     lv_obj_t * obj = lv_obj_class_create_obj(&lv_tileview_class, parent);
  55:Middlewares/lvgl/src/extra/widgets/tileview/lv_tileview.c ****     lv_obj_class_init_obj(obj);
  56:Middlewares/lvgl/src/extra/widgets/tileview/lv_tileview.c ****     return obj;
  57:Middlewares/lvgl/src/extra/widgets/tileview/lv_tileview.c **** }
  58:Middlewares/lvgl/src/extra/widgets/tileview/lv_tileview.c **** 
  59:Middlewares/lvgl/src/extra/widgets/tileview/lv_tileview.c **** /*======================
  60:Middlewares/lvgl/src/extra/widgets/tileview/lv_tileview.c ****  * Add/remove functions
  61:Middlewares/lvgl/src/extra/widgets/tileview/lv_tileview.c ****  *=====================*/
  62:Middlewares/lvgl/src/extra/widgets/tileview/lv_tileview.c **** 
  63:Middlewares/lvgl/src/extra/widgets/tileview/lv_tileview.c **** lv_obj_t * lv_tileview_add_tile(lv_obj_t * tv, uint8_t col_id, uint8_t row_id, lv_dir_t dir)
  64:Middlewares/lvgl/src/extra/widgets/tileview/lv_tileview.c **** {
  65:Middlewares/lvgl/src/extra/widgets/tileview/lv_tileview.c ****     LV_LOG_INFO("begin")
  66:Middlewares/lvgl/src/extra/widgets/tileview/lv_tileview.c ****     create_dir = dir;
  67:Middlewares/lvgl/src/extra/widgets/tileview/lv_tileview.c ****     create_col_id = col_id;
  68:Middlewares/lvgl/src/extra/widgets/tileview/lv_tileview.c ****     create_row_id = row_id;
  69:Middlewares/lvgl/src/extra/widgets/tileview/lv_tileview.c **** 
  70:Middlewares/lvgl/src/extra/widgets/tileview/lv_tileview.c ****     lv_obj_t * obj = lv_obj_class_create_obj(&lv_tileview_tile_class, tv);
  71:Middlewares/lvgl/src/extra/widgets/tileview/lv_tileview.c ****     lv_obj_class_init_obj(obj);
  72:Middlewares/lvgl/src/extra/widgets/tileview/lv_tileview.c ****     return obj;
  73:Middlewares/lvgl/src/extra/widgets/tileview/lv_tileview.c **** }
  74:Middlewares/lvgl/src/extra/widgets/tileview/lv_tileview.c **** 
  75:Middlewares/lvgl/src/extra/widgets/tileview/lv_tileview.c **** void lv_obj_set_tile(lv_obj_t * obj, lv_obj_t * tile_obj, lv_anim_enable_t anim_en)
  76:Middlewares/lvgl/src/extra/widgets/tileview/lv_tileview.c **** {
  77:Middlewares/lvgl/src/extra/widgets/tileview/lv_tileview.c ****     lv_coord_t tx = lv_obj_get_x(tile_obj);
  78:Middlewares/lvgl/src/extra/widgets/tileview/lv_tileview.c ****     lv_coord_t ty = lv_obj_get_y(tile_obj);
  79:Middlewares/lvgl/src/extra/widgets/tileview/lv_tileview.c **** 
  80:Middlewares/lvgl/src/extra/widgets/tileview/lv_tileview.c ****     lv_tileview_tile_t * tile = (lv_tileview_tile_t *)tile_obj;
  81:Middlewares/lvgl/src/extra/widgets/tileview/lv_tileview.c ****     lv_tileview_t * tv = (lv_tileview_t *) obj;
  82:Middlewares/lvgl/src/extra/widgets/tileview/lv_tileview.c ****     tv->tile_act = (lv_obj_t *)tile;
  83:Middlewares/lvgl/src/extra/widgets/tileview/lv_tileview.c **** 
  84:Middlewares/lvgl/src/extra/widgets/tileview/lv_tileview.c ****     lv_obj_set_scroll_dir(obj, tile->dir);
  85:Middlewares/lvgl/src/extra/widgets/tileview/lv_tileview.c ****     lv_obj_scroll_to(obj, tx, ty, anim_en);
  86:Middlewares/lvgl/src/extra/widgets/tileview/lv_tileview.c **** }
  87:Middlewares/lvgl/src/extra/widgets/tileview/lv_tileview.c **** 
ARM GAS  /tmp/ccGsDr7b.s 			page 3


  88:Middlewares/lvgl/src/extra/widgets/tileview/lv_tileview.c **** void lv_obj_set_tile_id(lv_obj_t * tv, uint32_t col_id, uint32_t row_id, lv_anim_enable_t anim_en)
  89:Middlewares/lvgl/src/extra/widgets/tileview/lv_tileview.c **** {
  90:Middlewares/lvgl/src/extra/widgets/tileview/lv_tileview.c ****     lv_coord_t w = lv_obj_get_content_width(tv);
  91:Middlewares/lvgl/src/extra/widgets/tileview/lv_tileview.c ****     lv_coord_t h = lv_obj_get_content_height(tv);
  92:Middlewares/lvgl/src/extra/widgets/tileview/lv_tileview.c **** 
  93:Middlewares/lvgl/src/extra/widgets/tileview/lv_tileview.c ****     lv_coord_t tx = col_id * w;
  94:Middlewares/lvgl/src/extra/widgets/tileview/lv_tileview.c ****     lv_coord_t ty = row_id * h;
  95:Middlewares/lvgl/src/extra/widgets/tileview/lv_tileview.c **** 
  96:Middlewares/lvgl/src/extra/widgets/tileview/lv_tileview.c ****     uint32_t i;
  97:Middlewares/lvgl/src/extra/widgets/tileview/lv_tileview.c ****     for(i = 0; i < lv_obj_get_child_cnt(tv); i++) {
  98:Middlewares/lvgl/src/extra/widgets/tileview/lv_tileview.c ****         lv_obj_t * tile_obj = lv_obj_get_child(tv, i);
  99:Middlewares/lvgl/src/extra/widgets/tileview/lv_tileview.c ****         lv_coord_t x = lv_obj_get_x(tile_obj);
 100:Middlewares/lvgl/src/extra/widgets/tileview/lv_tileview.c ****         lv_coord_t y = lv_obj_get_y(tile_obj);
 101:Middlewares/lvgl/src/extra/widgets/tileview/lv_tileview.c ****         if(x == tx && y == ty) {
 102:Middlewares/lvgl/src/extra/widgets/tileview/lv_tileview.c ****             lv_obj_set_tile(tv, tile_obj, anim_en);
 103:Middlewares/lvgl/src/extra/widgets/tileview/lv_tileview.c ****             return;
 104:Middlewares/lvgl/src/extra/widgets/tileview/lv_tileview.c ****         }
 105:Middlewares/lvgl/src/extra/widgets/tileview/lv_tileview.c ****     }
 106:Middlewares/lvgl/src/extra/widgets/tileview/lv_tileview.c **** 
 107:Middlewares/lvgl/src/extra/widgets/tileview/lv_tileview.c ****     LV_LOG_WARN("No tile found with at (%d,%d) index", col_id, row_id);
 108:Middlewares/lvgl/src/extra/widgets/tileview/lv_tileview.c **** }
 109:Middlewares/lvgl/src/extra/widgets/tileview/lv_tileview.c **** 
 110:Middlewares/lvgl/src/extra/widgets/tileview/lv_tileview.c **** lv_obj_t * lv_tileview_get_tile_act(lv_obj_t * obj)
 111:Middlewares/lvgl/src/extra/widgets/tileview/lv_tileview.c **** {
 112:Middlewares/lvgl/src/extra/widgets/tileview/lv_tileview.c ****     lv_tileview_t * tv = (lv_tileview_t *) obj;
 113:Middlewares/lvgl/src/extra/widgets/tileview/lv_tileview.c ****     return tv->tile_act;
 114:Middlewares/lvgl/src/extra/widgets/tileview/lv_tileview.c **** }
 115:Middlewares/lvgl/src/extra/widgets/tileview/lv_tileview.c **** 
 116:Middlewares/lvgl/src/extra/widgets/tileview/lv_tileview.c **** /**********************
 117:Middlewares/lvgl/src/extra/widgets/tileview/lv_tileview.c ****  *   STATIC FUNCTIONS
 118:Middlewares/lvgl/src/extra/widgets/tileview/lv_tileview.c ****  **********************/
 119:Middlewares/lvgl/src/extra/widgets/tileview/lv_tileview.c **** 
 120:Middlewares/lvgl/src/extra/widgets/tileview/lv_tileview.c **** static void lv_tileview_constructor(const lv_obj_class_t * class_p, lv_obj_t * obj)
 121:Middlewares/lvgl/src/extra/widgets/tileview/lv_tileview.c **** {
  29              		.loc 1 121 1 view -0
  30              		.cfi_startproc
  31              		@ args = 0, pretend = 0, frame = 0
  32              		@ frame_needed = 0, uses_anonymous_args = 0
  33              		.loc 1 121 1 is_stmt 0 view .LVU1
  34 0000 10B5     		push	{r4, lr}
  35              	.LCFI0:
  36              		.cfi_def_cfa_offset 8
  37              		.cfi_offset 4, -8
  38              		.cfi_offset 14, -4
  39 0002 0C46     		mov	r4, r1
 122:Middlewares/lvgl/src/extra/widgets/tileview/lv_tileview.c ****     LV_UNUSED(class_p);
  40              		.loc 1 122 5 is_stmt 1 view .LVU2
 123:Middlewares/lvgl/src/extra/widgets/tileview/lv_tileview.c ****     lv_obj_set_size(obj, LV_PCT(100), LV_PCT(100));
  41              		.loc 1 123 5 view .LVU3
  42 0004 42F26402 		movw	r2, #8292
  43 0008 1146     		mov	r1, r2
  44              	.LVL1:
  45              		.loc 1 123 5 is_stmt 0 view .LVU4
  46 000a 2046     		mov	r0, r4
  47              	.LVL2:
  48              		.loc 1 123 5 view .LVU5
  49 000c FFF7FEFF 		bl	lv_obj_set_size
ARM GAS  /tmp/ccGsDr7b.s 			page 4


  50              	.LVL3:
 124:Middlewares/lvgl/src/extra/widgets/tileview/lv_tileview.c ****     lv_obj_add_event_cb(obj, tileview_event_cb, LV_EVENT_ALL, NULL);
  51              		.loc 1 124 5 is_stmt 1 view .LVU6
  52 0010 0023     		movs	r3, #0
  53 0012 1A46     		mov	r2, r3
  54 0014 0849     		ldr	r1, .L3
  55 0016 2046     		mov	r0, r4
  56 0018 FFF7FEFF 		bl	lv_obj_add_event_cb
  57              	.LVL4:
 125:Middlewares/lvgl/src/extra/widgets/tileview/lv_tileview.c ****     lv_obj_add_flag(obj, LV_OBJ_FLAG_SCROLL_ONE);
  58              		.loc 1 125 5 view .LVU7
  59 001c 8021     		movs	r1, #128
  60 001e 2046     		mov	r0, r4
  61 0020 FFF7FEFF 		bl	lv_obj_add_flag
  62              	.LVL5:
 126:Middlewares/lvgl/src/extra/widgets/tileview/lv_tileview.c ****     lv_obj_set_scroll_snap_x(obj, LV_SCROLL_SNAP_CENTER);
  63              		.loc 1 126 5 view .LVU8
  64 0024 0321     		movs	r1, #3
  65 0026 2046     		mov	r0, r4
  66 0028 FFF7FEFF 		bl	lv_obj_set_scroll_snap_x
  67              	.LVL6:
 127:Middlewares/lvgl/src/extra/widgets/tileview/lv_tileview.c ****     lv_obj_set_scroll_snap_y(obj, LV_SCROLL_SNAP_CENTER);
  68              		.loc 1 127 5 view .LVU9
  69 002c 0321     		movs	r1, #3
  70 002e 2046     		mov	r0, r4
  71 0030 FFF7FEFF 		bl	lv_obj_set_scroll_snap_y
  72              	.LVL7:
 128:Middlewares/lvgl/src/extra/widgets/tileview/lv_tileview.c **** 
 129:Middlewares/lvgl/src/extra/widgets/tileview/lv_tileview.c **** }
  73              		.loc 1 129 1 is_stmt 0 view .LVU10
  74 0034 10BD     		pop	{r4, pc}
  75              	.LVL8:
  76              	.L4:
  77              		.loc 1 129 1 view .LVU11
  78 0036 00BF     		.align	2
  79              	.L3:
  80 0038 00000000 		.word	tileview_event_cb
  81              		.cfi_endproc
  82              	.LFE152:
  84              		.section	.text.tileview_event_cb,"ax",%progbits
  85              		.align	1
  86              		.syntax unified
  87              		.thumb
  88              		.thumb_func
  89              		.fpu fpv4-sp-d16
  91              	tileview_event_cb:
  92              	.LVL9:
  93              	.LFB154:
 130:Middlewares/lvgl/src/extra/widgets/tileview/lv_tileview.c **** 
 131:Middlewares/lvgl/src/extra/widgets/tileview/lv_tileview.c **** static void lv_tileview_tile_constructor(const lv_obj_class_t * class_p, lv_obj_t * obj)
 132:Middlewares/lvgl/src/extra/widgets/tileview/lv_tileview.c **** {
 133:Middlewares/lvgl/src/extra/widgets/tileview/lv_tileview.c **** 
 134:Middlewares/lvgl/src/extra/widgets/tileview/lv_tileview.c ****     LV_UNUSED(class_p);
 135:Middlewares/lvgl/src/extra/widgets/tileview/lv_tileview.c ****     lv_obj_t * parent = lv_obj_get_parent(obj);
 136:Middlewares/lvgl/src/extra/widgets/tileview/lv_tileview.c ****     lv_obj_set_size(obj, LV_PCT(100), LV_PCT(100));
 137:Middlewares/lvgl/src/extra/widgets/tileview/lv_tileview.c ****     lv_obj_update_layout(obj);  /*Be sure the size is correct*/
 138:Middlewares/lvgl/src/extra/widgets/tileview/lv_tileview.c ****     lv_obj_set_pos(obj, create_col_id * lv_obj_get_content_width(parent),  create_row_id * lv_obj_g
ARM GAS  /tmp/ccGsDr7b.s 			page 5


 139:Middlewares/lvgl/src/extra/widgets/tileview/lv_tileview.c **** 
 140:Middlewares/lvgl/src/extra/widgets/tileview/lv_tileview.c ****     lv_tileview_tile_t * tile = (lv_tileview_tile_t *)obj;
 141:Middlewares/lvgl/src/extra/widgets/tileview/lv_tileview.c ****     tile->dir = create_dir;
 142:Middlewares/lvgl/src/extra/widgets/tileview/lv_tileview.c **** 
 143:Middlewares/lvgl/src/extra/widgets/tileview/lv_tileview.c ****     if(create_col_id == 0 && create_row_id == 0) {
 144:Middlewares/lvgl/src/extra/widgets/tileview/lv_tileview.c ****         lv_obj_set_scroll_dir(parent, create_dir);
 145:Middlewares/lvgl/src/extra/widgets/tileview/lv_tileview.c ****     }
 146:Middlewares/lvgl/src/extra/widgets/tileview/lv_tileview.c **** }
 147:Middlewares/lvgl/src/extra/widgets/tileview/lv_tileview.c **** 
 148:Middlewares/lvgl/src/extra/widgets/tileview/lv_tileview.c **** static void tileview_event_cb(lv_event_t * e)
 149:Middlewares/lvgl/src/extra/widgets/tileview/lv_tileview.c **** {
  94              		.loc 1 149 1 is_stmt 1 view -0
  95              		.cfi_startproc
  96              		@ args = 0, pretend = 0, frame = 8
  97              		@ frame_needed = 0, uses_anonymous_args = 0
  98              		.loc 1 149 1 is_stmt 0 view .LVU13
  99 0000 2DE9F043 		push	{r4, r5, r6, r7, r8, r9, lr}
 100              	.LCFI1:
 101              		.cfi_def_cfa_offset 28
 102              		.cfi_offset 4, -28
 103              		.cfi_offset 5, -24
 104              		.cfi_offset 6, -20
 105              		.cfi_offset 7, -16
 106              		.cfi_offset 8, -12
 107              		.cfi_offset 9, -8
 108              		.cfi_offset 14, -4
 109 0004 83B0     		sub	sp, sp, #12
 110              	.LCFI2:
 111              		.cfi_def_cfa_offset 40
 112 0006 0546     		mov	r5, r0
 150:Middlewares/lvgl/src/extra/widgets/tileview/lv_tileview.c ****     lv_event_code_t code = lv_event_get_code(e);
 113              		.loc 1 150 5 is_stmt 1 view .LVU14
 114              		.loc 1 150 28 is_stmt 0 view .LVU15
 115 0008 FFF7FEFF 		bl	lv_event_get_code
 116              	.LVL10:
 117              		.loc 1 150 28 view .LVU16
 118 000c 0446     		mov	r4, r0
 119              	.LVL11:
 151:Middlewares/lvgl/src/extra/widgets/tileview/lv_tileview.c ****     lv_obj_t * obj = lv_event_get_target(e);
 120              		.loc 1 151 5 is_stmt 1 view .LVU17
 121              		.loc 1 151 22 is_stmt 0 view .LVU18
 122 000e 2846     		mov	r0, r5
 123 0010 FFF7FEFF 		bl	lv_event_get_target
 124              	.LVL12:
 152:Middlewares/lvgl/src/extra/widgets/tileview/lv_tileview.c ****     lv_tileview_t * tv = (lv_tileview_t *) obj;
 125              		.loc 1 152 5 is_stmt 1 view .LVU19
 153:Middlewares/lvgl/src/extra/widgets/tileview/lv_tileview.c **** 
 154:Middlewares/lvgl/src/extra/widgets/tileview/lv_tileview.c ****     if(code == LV_EVENT_SCROLL_END) {
 126              		.loc 1 154 5 view .LVU20
 127              		.loc 1 154 7 is_stmt 0 view .LVU21
 128 0014 0A2C     		cmp	r4, #10
 129 0016 02D0     		beq	.L12
 130              	.LVL13:
 131              	.L5:
 155:Middlewares/lvgl/src/extra/widgets/tileview/lv_tileview.c ****         lv_coord_t w = lv_obj_get_content_width(obj);
 156:Middlewares/lvgl/src/extra/widgets/tileview/lv_tileview.c ****         lv_coord_t h = lv_obj_get_content_height(obj);
 157:Middlewares/lvgl/src/extra/widgets/tileview/lv_tileview.c **** 
ARM GAS  /tmp/ccGsDr7b.s 			page 6


 158:Middlewares/lvgl/src/extra/widgets/tileview/lv_tileview.c ****         lv_point_t scroll_end;
 159:Middlewares/lvgl/src/extra/widgets/tileview/lv_tileview.c ****         lv_obj_get_scroll_end(obj, &scroll_end);
 160:Middlewares/lvgl/src/extra/widgets/tileview/lv_tileview.c ****         lv_coord_t left = scroll_end.x;
 161:Middlewares/lvgl/src/extra/widgets/tileview/lv_tileview.c ****         lv_coord_t top = scroll_end.y;
 162:Middlewares/lvgl/src/extra/widgets/tileview/lv_tileview.c **** 
 163:Middlewares/lvgl/src/extra/widgets/tileview/lv_tileview.c ****         lv_coord_t tx = ((left + (w / 2)) / w) * w;
 164:Middlewares/lvgl/src/extra/widgets/tileview/lv_tileview.c ****         lv_coord_t ty = ((top + (h / 2)) / h) * h;
 165:Middlewares/lvgl/src/extra/widgets/tileview/lv_tileview.c **** 
 166:Middlewares/lvgl/src/extra/widgets/tileview/lv_tileview.c ****         lv_dir_t dir = LV_DIR_ALL;
 167:Middlewares/lvgl/src/extra/widgets/tileview/lv_tileview.c ****         uint32_t i;
 168:Middlewares/lvgl/src/extra/widgets/tileview/lv_tileview.c ****         for(i = 0; i < lv_obj_get_child_cnt(obj); i++) {
 169:Middlewares/lvgl/src/extra/widgets/tileview/lv_tileview.c ****             lv_obj_t * tile_obj = lv_obj_get_child(obj, i);
 170:Middlewares/lvgl/src/extra/widgets/tileview/lv_tileview.c ****             lv_coord_t x = lv_obj_get_x(tile_obj);
 171:Middlewares/lvgl/src/extra/widgets/tileview/lv_tileview.c ****             lv_coord_t y = lv_obj_get_y(tile_obj);
 172:Middlewares/lvgl/src/extra/widgets/tileview/lv_tileview.c ****             if(x == tx && y == ty) {
 173:Middlewares/lvgl/src/extra/widgets/tileview/lv_tileview.c ****                 lv_tileview_tile_t * tile = (lv_tileview_tile_t *)tile_obj;
 174:Middlewares/lvgl/src/extra/widgets/tileview/lv_tileview.c ****                 tv->tile_act = (lv_obj_t *)tile;
 175:Middlewares/lvgl/src/extra/widgets/tileview/lv_tileview.c ****                 dir = tile->dir;
 176:Middlewares/lvgl/src/extra/widgets/tileview/lv_tileview.c ****                 lv_event_send(obj, LV_EVENT_VALUE_CHANGED, NULL);
 177:Middlewares/lvgl/src/extra/widgets/tileview/lv_tileview.c ****                 break;
 178:Middlewares/lvgl/src/extra/widgets/tileview/lv_tileview.c ****             }
 179:Middlewares/lvgl/src/extra/widgets/tileview/lv_tileview.c ****         }
 180:Middlewares/lvgl/src/extra/widgets/tileview/lv_tileview.c ****         lv_obj_set_scroll_dir(obj, dir);
 181:Middlewares/lvgl/src/extra/widgets/tileview/lv_tileview.c ****     }
 182:Middlewares/lvgl/src/extra/widgets/tileview/lv_tileview.c **** }
 132              		.loc 1 182 1 view .LVU22
 133 0018 03B0     		add	sp, sp, #12
 134              	.LCFI3:
 135              		.cfi_remember_state
 136              		.cfi_def_cfa_offset 28
 137              		@ sp needed
 138 001a BDE8F083 		pop	{r4, r5, r6, r7, r8, r9, pc}
 139              	.LVL14:
 140              	.L12:
 141              	.LCFI4:
 142              		.cfi_restore_state
 143              		.loc 1 182 1 view .LVU23
 144 001e 0746     		mov	r7, r0
 145              	.LBB2:
 155:Middlewares/lvgl/src/extra/widgets/tileview/lv_tileview.c ****         lv_coord_t w = lv_obj_get_content_width(obj);
 146              		.loc 1 155 9 is_stmt 1 view .LVU24
 155:Middlewares/lvgl/src/extra/widgets/tileview/lv_tileview.c ****         lv_coord_t w = lv_obj_get_content_width(obj);
 147              		.loc 1 155 24 is_stmt 0 view .LVU25
 148 0020 FFF7FEFF 		bl	lv_obj_get_content_width
 149              	.LVL15:
 155:Middlewares/lvgl/src/extra/widgets/tileview/lv_tileview.c ****         lv_coord_t w = lv_obj_get_content_width(obj);
 150              		.loc 1 155 24 view .LVU26
 151 0024 0546     		mov	r5, r0
 152              	.LVL16:
 156:Middlewares/lvgl/src/extra/widgets/tileview/lv_tileview.c **** 
 153              		.loc 1 156 9 is_stmt 1 view .LVU27
 156:Middlewares/lvgl/src/extra/widgets/tileview/lv_tileview.c **** 
 154              		.loc 1 156 24 is_stmt 0 view .LVU28
 155 0026 3846     		mov	r0, r7
 156 0028 FFF7FEFF 		bl	lv_obj_get_content_height
 157              	.LVL17:
 158 002c 0446     		mov	r4, r0
ARM GAS  /tmp/ccGsDr7b.s 			page 7


 159              	.LVL18:
 158:Middlewares/lvgl/src/extra/widgets/tileview/lv_tileview.c ****         lv_obj_get_scroll_end(obj, &scroll_end);
 160              		.loc 1 158 9 is_stmt 1 view .LVU29
 159:Middlewares/lvgl/src/extra/widgets/tileview/lv_tileview.c ****         lv_coord_t left = scroll_end.x;
 161              		.loc 1 159 9 view .LVU30
 162 002e 01A9     		add	r1, sp, #4
 163 0030 3846     		mov	r0, r7
 164 0032 FFF7FEFF 		bl	lv_obj_get_scroll_end
 165              	.LVL19:
 160:Middlewares/lvgl/src/extra/widgets/tileview/lv_tileview.c ****         lv_coord_t top = scroll_end.y;
 166              		.loc 1 160 9 view .LVU31
 160:Middlewares/lvgl/src/extra/widgets/tileview/lv_tileview.c ****         lv_coord_t top = scroll_end.y;
 167              		.loc 1 160 20 is_stmt 0 view .LVU32
 168 0036 BDF90480 		ldrsh	r8, [sp, #4]
 169              	.LVL20:
 161:Middlewares/lvgl/src/extra/widgets/tileview/lv_tileview.c **** 
 170              		.loc 1 161 9 is_stmt 1 view .LVU33
 161:Middlewares/lvgl/src/extra/widgets/tileview/lv_tileview.c **** 
 171              		.loc 1 161 20 is_stmt 0 view .LVU34
 172 003a BDF90690 		ldrsh	r9, [sp, #6]
 173              	.LVL21:
 163:Middlewares/lvgl/src/extra/widgets/tileview/lv_tileview.c ****         lv_coord_t ty = ((top + (h / 2)) / h) * h;
 174              		.loc 1 163 9 is_stmt 1 view .LVU35
 163:Middlewares/lvgl/src/extra/widgets/tileview/lv_tileview.c ****         lv_coord_t ty = ((top + (h / 2)) / h) * h;
 175              		.loc 1 163 37 is_stmt 0 view .LVU36
 176 003e 05EBD573 		add	r3, r5, r5, lsr #31
 177 0042 43F34F03 		sbfx	r3, r3, #1, #16
 163:Middlewares/lvgl/src/extra/widgets/tileview/lv_tileview.c ****         lv_coord_t ty = ((top + (h / 2)) / h) * h;
 178              		.loc 1 163 32 view .LVU37
 179 0046 9844     		add	r8, r8, r3
 180              	.LVL22:
 163:Middlewares/lvgl/src/extra/widgets/tileview/lv_tileview.c ****         lv_coord_t ty = ((top + (h / 2)) / h) * h;
 181              		.loc 1 163 43 view .LVU38
 182 0048 98FBF5F8 		sdiv	r8, r8, r5
 163:Middlewares/lvgl/src/extra/widgets/tileview/lv_tileview.c ****         lv_coord_t ty = ((top + (h / 2)) / h) * h;
 183              		.loc 1 163 20 view .LVU39
 184 004c 18FB05F8 		smulbb	r8, r8, r5
 185 0050 0FFA88F8 		sxth	r8, r8
 186              	.LVL23:
 164:Middlewares/lvgl/src/extra/widgets/tileview/lv_tileview.c **** 
 187              		.loc 1 164 9 is_stmt 1 view .LVU40
 164:Middlewares/lvgl/src/extra/widgets/tileview/lv_tileview.c **** 
 188              		.loc 1 164 36 is_stmt 0 view .LVU41
 189 0054 04EBD473 		add	r3, r4, r4, lsr #31
 190 0058 43F34F03 		sbfx	r3, r3, #1, #16
 164:Middlewares/lvgl/src/extra/widgets/tileview/lv_tileview.c **** 
 191              		.loc 1 164 31 view .LVU42
 192 005c 9944     		add	r9, r9, r3
 193              	.LVL24:
 164:Middlewares/lvgl/src/extra/widgets/tileview/lv_tileview.c **** 
 194              		.loc 1 164 42 view .LVU43
 195 005e 99FBF4F9 		sdiv	r9, r9, r4
 164:Middlewares/lvgl/src/extra/widgets/tileview/lv_tileview.c **** 
 196              		.loc 1 164 20 view .LVU44
 197 0062 19FB04F9 		smulbb	r9, r9, r4
 198 0066 0FFA89F9 		sxth	r9, r9
 199              	.LVL25:
ARM GAS  /tmp/ccGsDr7b.s 			page 8


 166:Middlewares/lvgl/src/extra/widgets/tileview/lv_tileview.c ****         uint32_t i;
 200              		.loc 1 166 9 is_stmt 1 view .LVU45
 167:Middlewares/lvgl/src/extra/widgets/tileview/lv_tileview.c ****         for(i = 0; i < lv_obj_get_child_cnt(obj); i++) {
 201              		.loc 1 167 9 view .LVU46
 168:Middlewares/lvgl/src/extra/widgets/tileview/lv_tileview.c ****             lv_obj_t * tile_obj = lv_obj_get_child(obj, i);
 202              		.loc 1 168 9 view .LVU47
 168:Middlewares/lvgl/src/extra/widgets/tileview/lv_tileview.c ****             lv_obj_t * tile_obj = lv_obj_get_child(obj, i);
 203              		.loc 1 168 15 is_stmt 0 view .LVU48
 204 006a 0024     		movs	r4, #0
 205              	.LVL26:
 168:Middlewares/lvgl/src/extra/widgets/tileview/lv_tileview.c ****             lv_obj_t * tile_obj = lv_obj_get_child(obj, i);
 206              		.loc 1 168 9 view .LVU49
 207 006c 00E0     		b	.L7
 208              	.LVL27:
 209              	.L8:
 168:Middlewares/lvgl/src/extra/widgets/tileview/lv_tileview.c ****             lv_obj_t * tile_obj = lv_obj_get_child(obj, i);
 210              		.loc 1 168 51 is_stmt 1 discriminator 2 view .LVU50
 168:Middlewares/lvgl/src/extra/widgets/tileview/lv_tileview.c ****             lv_obj_t * tile_obj = lv_obj_get_child(obj, i);
 211              		.loc 1 168 52 is_stmt 0 discriminator 2 view .LVU51
 212 006e 0134     		adds	r4, r4, #1
 213              	.LVL28:
 214              	.L7:
 168:Middlewares/lvgl/src/extra/widgets/tileview/lv_tileview.c ****             lv_obj_t * tile_obj = lv_obj_get_child(obj, i);
 215              		.loc 1 168 20 is_stmt 1 discriminator 1 view .LVU52
 168:Middlewares/lvgl/src/extra/widgets/tileview/lv_tileview.c ****             lv_obj_t * tile_obj = lv_obj_get_child(obj, i);
 216              		.loc 1 168 24 is_stmt 0 discriminator 1 view .LVU53
 217 0070 3846     		mov	r0, r7
 218 0072 FFF7FEFF 		bl	lv_obj_get_child_cnt
 219              	.LVL29:
 168:Middlewares/lvgl/src/extra/widgets/tileview/lv_tileview.c ****             lv_obj_t * tile_obj = lv_obj_get_child(obj, i);
 220              		.loc 1 168 9 discriminator 1 view .LVU54
 221 0076 A042     		cmp	r0, r4
 222 0078 17D9     		bls	.L13
 223              	.LBB3:
 169:Middlewares/lvgl/src/extra/widgets/tileview/lv_tileview.c ****             lv_coord_t x = lv_obj_get_x(tile_obj);
 224              		.loc 1 169 13 is_stmt 1 view .LVU55
 169:Middlewares/lvgl/src/extra/widgets/tileview/lv_tileview.c ****             lv_coord_t x = lv_obj_get_x(tile_obj);
 225              		.loc 1 169 35 is_stmt 0 view .LVU56
 226 007a 2146     		mov	r1, r4
 227 007c 3846     		mov	r0, r7
 228 007e FFF7FEFF 		bl	lv_obj_get_child
 229              	.LVL30:
 230 0082 0546     		mov	r5, r0
 231              	.LVL31:
 170:Middlewares/lvgl/src/extra/widgets/tileview/lv_tileview.c ****             lv_coord_t y = lv_obj_get_y(tile_obj);
 232              		.loc 1 170 13 is_stmt 1 view .LVU57
 170:Middlewares/lvgl/src/extra/widgets/tileview/lv_tileview.c ****             lv_coord_t y = lv_obj_get_y(tile_obj);
 233              		.loc 1 170 28 is_stmt 0 view .LVU58
 234 0084 FFF7FEFF 		bl	lv_obj_get_x
 235              	.LVL32:
 170:Middlewares/lvgl/src/extra/widgets/tileview/lv_tileview.c ****             lv_coord_t y = lv_obj_get_y(tile_obj);
 236              		.loc 1 170 28 view .LVU59
 237 0088 0646     		mov	r6, r0
 238              	.LVL33:
 171:Middlewares/lvgl/src/extra/widgets/tileview/lv_tileview.c ****             if(x == tx && y == ty) {
 239              		.loc 1 171 13 is_stmt 1 view .LVU60
 171:Middlewares/lvgl/src/extra/widgets/tileview/lv_tileview.c ****             if(x == tx && y == ty) {
ARM GAS  /tmp/ccGsDr7b.s 			page 9


 240              		.loc 1 171 28 is_stmt 0 view .LVU61
 241 008a 2846     		mov	r0, r5
 242 008c FFF7FEFF 		bl	lv_obj_get_y
 243              	.LVL34:
 172:Middlewares/lvgl/src/extra/widgets/tileview/lv_tileview.c ****                 lv_tileview_tile_t * tile = (lv_tileview_tile_t *)tile_obj;
 244              		.loc 1 172 13 is_stmt 1 view .LVU62
 172:Middlewares/lvgl/src/extra/widgets/tileview/lv_tileview.c ****                 lv_tileview_tile_t * tile = (lv_tileview_tile_t *)tile_obj;
 245              		.loc 1 172 15 is_stmt 0 view .LVU63
 246 0090 B045     		cmp	r8, r6
 247 0092 ECD1     		bne	.L8
 172:Middlewares/lvgl/src/extra/widgets/tileview/lv_tileview.c ****                 lv_tileview_tile_t * tile = (lv_tileview_tile_t *)tile_obj;
 248              		.loc 1 172 24 discriminator 1 view .LVU64
 249 0094 8145     		cmp	r9, r0
 250 0096 EAD1     		bne	.L8
 251              	.LBB4:
 173:Middlewares/lvgl/src/extra/widgets/tileview/lv_tileview.c ****                 tv->tile_act = (lv_obj_t *)tile;
 252              		.loc 1 173 17 is_stmt 1 view .LVU65
 253              	.LVL35:
 174:Middlewares/lvgl/src/extra/widgets/tileview/lv_tileview.c ****                 dir = tile->dir;
 254              		.loc 1 174 17 view .LVU66
 174:Middlewares/lvgl/src/extra/widgets/tileview/lv_tileview.c ****                 dir = tile->dir;
 255              		.loc 1 174 30 is_stmt 0 view .LVU67
 256 0098 7D62     		str	r5, [r7, #36]
 175:Middlewares/lvgl/src/extra/widgets/tileview/lv_tileview.c ****                 lv_event_send(obj, LV_EVENT_VALUE_CHANGED, NULL);
 257              		.loc 1 175 17 is_stmt 1 view .LVU68
 175:Middlewares/lvgl/src/extra/widgets/tileview/lv_tileview.c ****                 lv_event_send(obj, LV_EVENT_VALUE_CHANGED, NULL);
 258              		.loc 1 175 21 is_stmt 0 view .LVU69
 259 009a 95F82440 		ldrb	r4, [r5, #36]	@ zero_extendqisi2
 260              	.LVL36:
 176:Middlewares/lvgl/src/extra/widgets/tileview/lv_tileview.c ****                 break;
 261              		.loc 1 176 17 is_stmt 1 view .LVU70
 262 009e 0022     		movs	r2, #0
 263 00a0 1C21     		movs	r1, #28
 264 00a2 3846     		mov	r0, r7
 265              	.LVL37:
 176:Middlewares/lvgl/src/extra/widgets/tileview/lv_tileview.c ****                 break;
 266              		.loc 1 176 17 is_stmt 0 view .LVU71
 267 00a4 FFF7FEFF 		bl	lv_event_send
 268              	.LVL38:
 177:Middlewares/lvgl/src/extra/widgets/tileview/lv_tileview.c ****             }
 269              		.loc 1 177 17 is_stmt 1 view .LVU72
 270 00a8 00E0     		b	.L9
 271              	.LVL39:
 272              	.L13:
 177:Middlewares/lvgl/src/extra/widgets/tileview/lv_tileview.c ****             }
 273              		.loc 1 177 17 is_stmt 0 view .LVU73
 274              	.LBE4:
 275              	.LBE3:
 166:Middlewares/lvgl/src/extra/widgets/tileview/lv_tileview.c ****         uint32_t i;
 276              		.loc 1 166 18 view .LVU74
 277 00aa 0F24     		movs	r4, #15
 278              	.LVL40:
 279              	.L9:
 180:Middlewares/lvgl/src/extra/widgets/tileview/lv_tileview.c ****     }
 280              		.loc 1 180 9 is_stmt 1 view .LVU75
 281 00ac 2146     		mov	r1, r4
 282 00ae 3846     		mov	r0, r7
ARM GAS  /tmp/ccGsDr7b.s 			page 10


 283 00b0 FFF7FEFF 		bl	lv_obj_set_scroll_dir
 284              	.LVL41:
 285              	.LBE2:
 286              		.loc 1 182 1 is_stmt 0 view .LVU76
 287 00b4 B0E7     		b	.L5
 288              		.cfi_endproc
 289              	.LFE154:
 291              		.section	.text.lv_tileview_tile_constructor,"ax",%progbits
 292              		.align	1
 293              		.syntax unified
 294              		.thumb
 295              		.thumb_func
 296              		.fpu fpv4-sp-d16
 298              	lv_tileview_tile_constructor:
 299              	.LVL42:
 300              	.LFB153:
 132:Middlewares/lvgl/src/extra/widgets/tileview/lv_tileview.c **** 
 301              		.loc 1 132 1 is_stmt 1 view -0
 302              		.cfi_startproc
 303              		@ args = 0, pretend = 0, frame = 0
 304              		@ frame_needed = 0, uses_anonymous_args = 0
 132:Middlewares/lvgl/src/extra/widgets/tileview/lv_tileview.c **** 
 305              		.loc 1 132 1 is_stmt 0 view .LVU78
 306 0000 F8B5     		push	{r3, r4, r5, r6, r7, lr}
 307              	.LCFI5:
 308              		.cfi_def_cfa_offset 24
 309              		.cfi_offset 3, -24
 310              		.cfi_offset 4, -20
 311              		.cfi_offset 5, -16
 312              		.cfi_offset 6, -12
 313              		.cfi_offset 7, -8
 314              		.cfi_offset 14, -4
 315 0002 0C46     		mov	r4, r1
 134:Middlewares/lvgl/src/extra/widgets/tileview/lv_tileview.c ****     lv_obj_t * parent = lv_obj_get_parent(obj);
 316              		.loc 1 134 5 is_stmt 1 view .LVU79
 135:Middlewares/lvgl/src/extra/widgets/tileview/lv_tileview.c ****     lv_obj_set_size(obj, LV_PCT(100), LV_PCT(100));
 317              		.loc 1 135 5 view .LVU80
 135:Middlewares/lvgl/src/extra/widgets/tileview/lv_tileview.c ****     lv_obj_set_size(obj, LV_PCT(100), LV_PCT(100));
 318              		.loc 1 135 25 is_stmt 0 view .LVU81
 319 0004 0846     		mov	r0, r1
 320              	.LVL43:
 135:Middlewares/lvgl/src/extra/widgets/tileview/lv_tileview.c ****     lv_obj_set_size(obj, LV_PCT(100), LV_PCT(100));
 321              		.loc 1 135 25 view .LVU82
 322 0006 FFF7FEFF 		bl	lv_obj_get_parent
 323              	.LVL44:
 135:Middlewares/lvgl/src/extra/widgets/tileview/lv_tileview.c ****     lv_obj_set_size(obj, LV_PCT(100), LV_PCT(100));
 324              		.loc 1 135 25 view .LVU83
 325 000a 0646     		mov	r6, r0
 326              	.LVL45:
 136:Middlewares/lvgl/src/extra/widgets/tileview/lv_tileview.c ****     lv_obj_update_layout(obj);  /*Be sure the size is correct*/
 327              		.loc 1 136 5 is_stmt 1 view .LVU84
 328 000c 42F26402 		movw	r2, #8292
 329 0010 1146     		mov	r1, r2
 330 0012 2046     		mov	r0, r4
 331              	.LVL46:
 136:Middlewares/lvgl/src/extra/widgets/tileview/lv_tileview.c ****     lv_obj_update_layout(obj);  /*Be sure the size is correct*/
 332              		.loc 1 136 5 is_stmt 0 view .LVU85
ARM GAS  /tmp/ccGsDr7b.s 			page 11


 333 0014 FFF7FEFF 		bl	lv_obj_set_size
 334              	.LVL47:
 137:Middlewares/lvgl/src/extra/widgets/tileview/lv_tileview.c ****     lv_obj_set_pos(obj, create_col_id * lv_obj_get_content_width(parent),  create_row_id * lv_obj_g
 335              		.loc 1 137 5 is_stmt 1 view .LVU86
 336 0018 2046     		mov	r0, r4
 337 001a FFF7FEFF 		bl	lv_obj_update_layout
 338              	.LVL48:
 138:Middlewares/lvgl/src/extra/widgets/tileview/lv_tileview.c **** 
 339              		.loc 1 138 5 view .LVU87
 138:Middlewares/lvgl/src/extra/widgets/tileview/lv_tileview.c **** 
 340              		.loc 1 138 41 is_stmt 0 view .LVU88
 341 001e 3046     		mov	r0, r6
 342 0020 FFF7FEFF 		bl	lv_obj_get_content_width
 343              	.LVL49:
 138:Middlewares/lvgl/src/extra/widgets/tileview/lv_tileview.c **** 
 344              		.loc 1 138 5 view .LVU89
 345 0024 0F4F     		ldr	r7, .L18
 346 0026 3D68     		ldr	r5, [r7]
 347 0028 15FB00F5 		smulbb	r5, r5, r0
 348 002c 2DB2     		sxth	r5, r5
 138:Middlewares/lvgl/src/extra/widgets/tileview/lv_tileview.c **** 
 349              		.loc 1 138 92 view .LVU90
 350 002e 3046     		mov	r0, r6
 351 0030 FFF7FEFF 		bl	lv_obj_get_content_height
 352              	.LVL50:
 138:Middlewares/lvgl/src/extra/widgets/tileview/lv_tileview.c **** 
 353              		.loc 1 138 5 view .LVU91
 354 0034 0C4B     		ldr	r3, .L18+4
 355 0036 1A68     		ldr	r2, [r3]
 356 0038 12FB00F2 		smulbb	r2, r2, r0
 357 003c 12B2     		sxth	r2, r2
 358 003e 2946     		mov	r1, r5
 359 0040 2046     		mov	r0, r4
 360 0042 FFF7FEFF 		bl	lv_obj_set_pos
 361              	.LVL51:
 140:Middlewares/lvgl/src/extra/widgets/tileview/lv_tileview.c ****     tile->dir = create_dir;
 362              		.loc 1 140 5 is_stmt 1 view .LVU92
 141:Middlewares/lvgl/src/extra/widgets/tileview/lv_tileview.c **** 
 363              		.loc 1 141 5 view .LVU93
 141:Middlewares/lvgl/src/extra/widgets/tileview/lv_tileview.c **** 
 364              		.loc 1 141 15 is_stmt 0 view .LVU94
 365 0046 094B     		ldr	r3, .L18+8
 366 0048 1978     		ldrb	r1, [r3]	@ zero_extendqisi2
 367 004a 84F82410 		strb	r1, [r4, #36]
 143:Middlewares/lvgl/src/extra/widgets/tileview/lv_tileview.c ****         lv_obj_set_scroll_dir(parent, create_dir);
 368              		.loc 1 143 5 is_stmt 1 view .LVU95
 143:Middlewares/lvgl/src/extra/widgets/tileview/lv_tileview.c ****         lv_obj_set_scroll_dir(parent, create_dir);
 369              		.loc 1 143 22 is_stmt 0 view .LVU96
 370 004e 3B68     		ldr	r3, [r7]
 143:Middlewares/lvgl/src/extra/widgets/tileview/lv_tileview.c ****         lv_obj_set_scroll_dir(parent, create_dir);
 371              		.loc 1 143 7 view .LVU97
 372 0050 13B9     		cbnz	r3, .L14
 143:Middlewares/lvgl/src/extra/widgets/tileview/lv_tileview.c ****         lv_obj_set_scroll_dir(parent, create_dir);
 373              		.loc 1 143 44 discriminator 1 view .LVU98
 374 0052 054B     		ldr	r3, .L18+4
 375 0054 1B68     		ldr	r3, [r3]
 143:Middlewares/lvgl/src/extra/widgets/tileview/lv_tileview.c ****         lv_obj_set_scroll_dir(parent, create_dir);
ARM GAS  /tmp/ccGsDr7b.s 			page 12


 376              		.loc 1 143 27 discriminator 1 view .LVU99
 377 0056 03B1     		cbz	r3, .L17
 378              	.L14:
 146:Middlewares/lvgl/src/extra/widgets/tileview/lv_tileview.c **** 
 379              		.loc 1 146 1 view .LVU100
 380 0058 F8BD     		pop	{r3, r4, r5, r6, r7, pc}
 381              	.LVL52:
 382              	.L17:
 144:Middlewares/lvgl/src/extra/widgets/tileview/lv_tileview.c ****     }
 383              		.loc 1 144 9 is_stmt 1 view .LVU101
 384 005a 3046     		mov	r0, r6
 385 005c FFF7FEFF 		bl	lv_obj_set_scroll_dir
 386              	.LVL53:
 146:Middlewares/lvgl/src/extra/widgets/tileview/lv_tileview.c **** 
 387              		.loc 1 146 1 is_stmt 0 view .LVU102
 388 0060 FAE7     		b	.L14
 389              	.L19:
 390 0062 00BF     		.align	2
 391              	.L18:
 392 0064 00000000 		.word	.LANCHOR0
 393 0068 00000000 		.word	.LANCHOR1
 394 006c 00000000 		.word	.LANCHOR2
 395              		.cfi_endproc
 396              	.LFE153:
 398              		.section	.text.lv_tileview_create,"ax",%progbits
 399              		.align	1
 400              		.global	lv_tileview_create
 401              		.syntax unified
 402              		.thumb
 403              		.thumb_func
 404              		.fpu fpv4-sp-d16
 406              	lv_tileview_create:
 407              	.LVL54:
 408              	.LFB147:
  52:Middlewares/lvgl/src/extra/widgets/tileview/lv_tileview.c ****     LV_LOG_INFO("begin")
 409              		.loc 1 52 1 is_stmt 1 view -0
 410              		.cfi_startproc
 411              		@ args = 0, pretend = 0, frame = 0
 412              		@ frame_needed = 0, uses_anonymous_args = 0
  52:Middlewares/lvgl/src/extra/widgets/tileview/lv_tileview.c ****     LV_LOG_INFO("begin")
 413              		.loc 1 52 1 is_stmt 0 view .LVU104
 414 0000 10B5     		push	{r4, lr}
 415              	.LCFI6:
 416              		.cfi_def_cfa_offset 8
 417              		.cfi_offset 4, -8
 418              		.cfi_offset 14, -4
 419 0002 0146     		mov	r1, r0
  54:Middlewares/lvgl/src/extra/widgets/tileview/lv_tileview.c ****     lv_obj_class_init_obj(obj);
 420              		.loc 1 54 5 is_stmt 1 view .LVU105
  54:Middlewares/lvgl/src/extra/widgets/tileview/lv_tileview.c ****     lv_obj_class_init_obj(obj);
 421              		.loc 1 54 22 is_stmt 0 view .LVU106
 422 0004 0348     		ldr	r0, .L22
 423              	.LVL55:
  54:Middlewares/lvgl/src/extra/widgets/tileview/lv_tileview.c ****     lv_obj_class_init_obj(obj);
 424              		.loc 1 54 22 view .LVU107
 425 0006 FFF7FEFF 		bl	lv_obj_class_create_obj
 426              	.LVL56:
ARM GAS  /tmp/ccGsDr7b.s 			page 13


  54:Middlewares/lvgl/src/extra/widgets/tileview/lv_tileview.c ****     lv_obj_class_init_obj(obj);
 427              		.loc 1 54 22 view .LVU108
 428 000a 0446     		mov	r4, r0
 429              	.LVL57:
  55:Middlewares/lvgl/src/extra/widgets/tileview/lv_tileview.c ****     return obj;
 430              		.loc 1 55 5 is_stmt 1 view .LVU109
 431 000c FFF7FEFF 		bl	lv_obj_class_init_obj
 432              	.LVL58:
  56:Middlewares/lvgl/src/extra/widgets/tileview/lv_tileview.c **** }
 433              		.loc 1 56 5 view .LVU110
  57:Middlewares/lvgl/src/extra/widgets/tileview/lv_tileview.c **** 
 434              		.loc 1 57 1 is_stmt 0 view .LVU111
 435 0010 2046     		mov	r0, r4
 436 0012 10BD     		pop	{r4, pc}
 437              	.LVL59:
 438              	.L23:
  57:Middlewares/lvgl/src/extra/widgets/tileview/lv_tileview.c **** 
 439              		.loc 1 57 1 view .LVU112
 440              		.align	2
 441              	.L22:
 442 0014 00000000 		.word	.LANCHOR3
 443              		.cfi_endproc
 444              	.LFE147:
 446              		.section	.text.lv_tileview_add_tile,"ax",%progbits
 447              		.align	1
 448              		.global	lv_tileview_add_tile
 449              		.syntax unified
 450              		.thumb
 451              		.thumb_func
 452              		.fpu fpv4-sp-d16
 454              	lv_tileview_add_tile:
 455              	.LVL60:
 456              	.LFB148:
  64:Middlewares/lvgl/src/extra/widgets/tileview/lv_tileview.c ****     LV_LOG_INFO("begin")
 457              		.loc 1 64 1 is_stmt 1 view -0
 458              		.cfi_startproc
 459              		@ args = 0, pretend = 0, frame = 0
 460              		@ frame_needed = 0, uses_anonymous_args = 0
  64:Middlewares/lvgl/src/extra/widgets/tileview/lv_tileview.c ****     LV_LOG_INFO("begin")
 461              		.loc 1 64 1 is_stmt 0 view .LVU114
 462 0000 10B5     		push	{r4, lr}
 463              	.LCFI7:
 464              		.cfi_def_cfa_offset 8
 465              		.cfi_offset 4, -8
 466              		.cfi_offset 14, -4
  66:Middlewares/lvgl/src/extra/widgets/tileview/lv_tileview.c ****     create_col_id = col_id;
 467              		.loc 1 66 5 is_stmt 1 view .LVU115
  66:Middlewares/lvgl/src/extra/widgets/tileview/lv_tileview.c ****     create_col_id = col_id;
 468              		.loc 1 66 16 is_stmt 0 view .LVU116
 469 0002 074C     		ldr	r4, .L26
 470 0004 2370     		strb	r3, [r4]
  67:Middlewares/lvgl/src/extra/widgets/tileview/lv_tileview.c ****     create_row_id = row_id;
 471              		.loc 1 67 5 is_stmt 1 view .LVU117
  67:Middlewares/lvgl/src/extra/widgets/tileview/lv_tileview.c ****     create_row_id = row_id;
 472              		.loc 1 67 19 is_stmt 0 view .LVU118
 473 0006 074B     		ldr	r3, .L26+4
 474              	.LVL61:
ARM GAS  /tmp/ccGsDr7b.s 			page 14


  67:Middlewares/lvgl/src/extra/widgets/tileview/lv_tileview.c ****     create_row_id = row_id;
 475              		.loc 1 67 19 view .LVU119
 476 0008 1960     		str	r1, [r3]
  68:Middlewares/lvgl/src/extra/widgets/tileview/lv_tileview.c **** 
 477              		.loc 1 68 5 is_stmt 1 view .LVU120
  68:Middlewares/lvgl/src/extra/widgets/tileview/lv_tileview.c **** 
 478              		.loc 1 68 19 is_stmt 0 view .LVU121
 479 000a 074B     		ldr	r3, .L26+8
 480 000c 1A60     		str	r2, [r3]
  70:Middlewares/lvgl/src/extra/widgets/tileview/lv_tileview.c ****     lv_obj_class_init_obj(obj);
 481              		.loc 1 70 5 is_stmt 1 view .LVU122
  70:Middlewares/lvgl/src/extra/widgets/tileview/lv_tileview.c ****     lv_obj_class_init_obj(obj);
 482              		.loc 1 70 22 is_stmt 0 view .LVU123
 483 000e 0146     		mov	r1, r0
 484              	.LVL62:
  70:Middlewares/lvgl/src/extra/widgets/tileview/lv_tileview.c ****     lv_obj_class_init_obj(obj);
 485              		.loc 1 70 22 view .LVU124
 486 0010 0648     		ldr	r0, .L26+12
 487              	.LVL63:
  70:Middlewares/lvgl/src/extra/widgets/tileview/lv_tileview.c ****     lv_obj_class_init_obj(obj);
 488              		.loc 1 70 22 view .LVU125
 489 0012 FFF7FEFF 		bl	lv_obj_class_create_obj
 490              	.LVL64:
  70:Middlewares/lvgl/src/extra/widgets/tileview/lv_tileview.c ****     lv_obj_class_init_obj(obj);
 491              		.loc 1 70 22 view .LVU126
 492 0016 0446     		mov	r4, r0
 493              	.LVL65:
  71:Middlewares/lvgl/src/extra/widgets/tileview/lv_tileview.c ****     return obj;
 494              		.loc 1 71 5 is_stmt 1 view .LVU127
 495 0018 FFF7FEFF 		bl	lv_obj_class_init_obj
 496              	.LVL66:
  72:Middlewares/lvgl/src/extra/widgets/tileview/lv_tileview.c **** }
 497              		.loc 1 72 5 view .LVU128
  73:Middlewares/lvgl/src/extra/widgets/tileview/lv_tileview.c **** 
 498              		.loc 1 73 1 is_stmt 0 view .LVU129
 499 001c 2046     		mov	r0, r4
 500 001e 10BD     		pop	{r4, pc}
 501              	.LVL67:
 502              	.L27:
  73:Middlewares/lvgl/src/extra/widgets/tileview/lv_tileview.c **** 
 503              		.loc 1 73 1 view .LVU130
 504              		.align	2
 505              	.L26:
 506 0020 00000000 		.word	.LANCHOR2
 507 0024 00000000 		.word	.LANCHOR0
 508 0028 00000000 		.word	.LANCHOR1
 509 002c 00000000 		.word	.LANCHOR4
 510              		.cfi_endproc
 511              	.LFE148:
 513              		.section	.text.lv_obj_set_tile,"ax",%progbits
 514              		.align	1
 515              		.global	lv_obj_set_tile
 516              		.syntax unified
 517              		.thumb
 518              		.thumb_func
 519              		.fpu fpv4-sp-d16
 521              	lv_obj_set_tile:
ARM GAS  /tmp/ccGsDr7b.s 			page 15


 522              	.LVL68:
 523              	.LFB149:
  76:Middlewares/lvgl/src/extra/widgets/tileview/lv_tileview.c ****     lv_coord_t tx = lv_obj_get_x(tile_obj);
 524              		.loc 1 76 1 is_stmt 1 view -0
 525              		.cfi_startproc
 526              		@ args = 0, pretend = 0, frame = 0
 527              		@ frame_needed = 0, uses_anonymous_args = 0
  76:Middlewares/lvgl/src/extra/widgets/tileview/lv_tileview.c ****     lv_coord_t tx = lv_obj_get_x(tile_obj);
 528              		.loc 1 76 1 is_stmt 0 view .LVU132
 529 0000 2DE9F041 		push	{r4, r5, r6, r7, r8, lr}
 530              	.LCFI8:
 531              		.cfi_def_cfa_offset 24
 532              		.cfi_offset 4, -24
 533              		.cfi_offset 5, -20
 534              		.cfi_offset 6, -16
 535              		.cfi_offset 7, -12
 536              		.cfi_offset 8, -8
 537              		.cfi_offset 14, -4
 538 0004 0546     		mov	r5, r0
 539 0006 0C46     		mov	r4, r1
 540 0008 9046     		mov	r8, r2
  77:Middlewares/lvgl/src/extra/widgets/tileview/lv_tileview.c ****     lv_coord_t ty = lv_obj_get_y(tile_obj);
 541              		.loc 1 77 5 is_stmt 1 view .LVU133
  77:Middlewares/lvgl/src/extra/widgets/tileview/lv_tileview.c ****     lv_coord_t ty = lv_obj_get_y(tile_obj);
 542              		.loc 1 77 21 is_stmt 0 view .LVU134
 543 000a 0846     		mov	r0, r1
 544              	.LVL69:
  77:Middlewares/lvgl/src/extra/widgets/tileview/lv_tileview.c ****     lv_coord_t ty = lv_obj_get_y(tile_obj);
 545              		.loc 1 77 21 view .LVU135
 546 000c FFF7FEFF 		bl	lv_obj_get_x
 547              	.LVL70:
  77:Middlewares/lvgl/src/extra/widgets/tileview/lv_tileview.c ****     lv_coord_t ty = lv_obj_get_y(tile_obj);
 548              		.loc 1 77 21 view .LVU136
 549 0010 0646     		mov	r6, r0
 550              	.LVL71:
  78:Middlewares/lvgl/src/extra/widgets/tileview/lv_tileview.c **** 
 551              		.loc 1 78 5 is_stmt 1 view .LVU137
  78:Middlewares/lvgl/src/extra/widgets/tileview/lv_tileview.c **** 
 552              		.loc 1 78 21 is_stmt 0 view .LVU138
 553 0012 2046     		mov	r0, r4
 554 0014 FFF7FEFF 		bl	lv_obj_get_y
 555              	.LVL72:
 556 0018 0746     		mov	r7, r0
 557              	.LVL73:
  80:Middlewares/lvgl/src/extra/widgets/tileview/lv_tileview.c ****     lv_tileview_t * tv = (lv_tileview_t *) obj;
 558              		.loc 1 80 5 is_stmt 1 view .LVU139
  81:Middlewares/lvgl/src/extra/widgets/tileview/lv_tileview.c ****     tv->tile_act = (lv_obj_t *)tile;
 559              		.loc 1 81 5 view .LVU140
  82:Middlewares/lvgl/src/extra/widgets/tileview/lv_tileview.c **** 
 560              		.loc 1 82 5 view .LVU141
  82:Middlewares/lvgl/src/extra/widgets/tileview/lv_tileview.c **** 
 561              		.loc 1 82 18 is_stmt 0 view .LVU142
 562 001a 6C62     		str	r4, [r5, #36]
  84:Middlewares/lvgl/src/extra/widgets/tileview/lv_tileview.c ****     lv_obj_scroll_to(obj, tx, ty, anim_en);
 563              		.loc 1 84 5 is_stmt 1 view .LVU143
 564 001c 94F82410 		ldrb	r1, [r4, #36]	@ zero_extendqisi2
 565 0020 2846     		mov	r0, r5
ARM GAS  /tmp/ccGsDr7b.s 			page 16


 566 0022 FFF7FEFF 		bl	lv_obj_set_scroll_dir
 567              	.LVL74:
  85:Middlewares/lvgl/src/extra/widgets/tileview/lv_tileview.c **** }
 568              		.loc 1 85 5 view .LVU144
 569 0026 4346     		mov	r3, r8
 570 0028 3A46     		mov	r2, r7
 571 002a 3146     		mov	r1, r6
 572 002c 2846     		mov	r0, r5
 573 002e FFF7FEFF 		bl	lv_obj_scroll_to
 574              	.LVL75:
  86:Middlewares/lvgl/src/extra/widgets/tileview/lv_tileview.c **** 
 575              		.loc 1 86 1 is_stmt 0 view .LVU145
 576 0032 BDE8F081 		pop	{r4, r5, r6, r7, r8, pc}
  86:Middlewares/lvgl/src/extra/widgets/tileview/lv_tileview.c **** 
 577              		.loc 1 86 1 view .LVU146
 578              		.cfi_endproc
 579              	.LFE149:
 581              		.section	.text.lv_obj_set_tile_id,"ax",%progbits
 582              		.align	1
 583              		.global	lv_obj_set_tile_id
 584              		.syntax unified
 585              		.thumb
 586              		.thumb_func
 587              		.fpu fpv4-sp-d16
 589              	lv_obj_set_tile_id:
 590              	.LVL76:
 591              	.LFB150:
  89:Middlewares/lvgl/src/extra/widgets/tileview/lv_tileview.c ****     lv_coord_t w = lv_obj_get_content_width(tv);
 592              		.loc 1 89 1 is_stmt 1 view -0
 593              		.cfi_startproc
 594              		@ args = 0, pretend = 0, frame = 0
 595              		@ frame_needed = 0, uses_anonymous_args = 0
  89:Middlewares/lvgl/src/extra/widgets/tileview/lv_tileview.c ****     lv_coord_t w = lv_obj_get_content_width(tv);
 596              		.loc 1 89 1 is_stmt 0 view .LVU148
 597 0000 2DE9F047 		push	{r4, r5, r6, r7, r8, r9, r10, lr}
 598              	.LCFI9:
 599              		.cfi_def_cfa_offset 32
 600              		.cfi_offset 4, -32
 601              		.cfi_offset 5, -28
 602              		.cfi_offset 6, -24
 603              		.cfi_offset 7, -20
 604              		.cfi_offset 8, -16
 605              		.cfi_offset 9, -12
 606              		.cfi_offset 10, -8
 607              		.cfi_offset 14, -4
 608 0004 0746     		mov	r7, r0
 609 0006 0C46     		mov	r4, r1
 610 0008 9146     		mov	r9, r2
 611 000a 9A46     		mov	r10, r3
  90:Middlewares/lvgl/src/extra/widgets/tileview/lv_tileview.c ****     lv_coord_t h = lv_obj_get_content_height(tv);
 612              		.loc 1 90 5 is_stmt 1 view .LVU149
  90:Middlewares/lvgl/src/extra/widgets/tileview/lv_tileview.c ****     lv_coord_t h = lv_obj_get_content_height(tv);
 613              		.loc 1 90 20 is_stmt 0 view .LVU150
 614 000c FFF7FEFF 		bl	lv_obj_get_content_width
 615              	.LVL77:
  90:Middlewares/lvgl/src/extra/widgets/tileview/lv_tileview.c ****     lv_coord_t h = lv_obj_get_content_height(tv);
 616              		.loc 1 90 20 view .LVU151
ARM GAS  /tmp/ccGsDr7b.s 			page 17


 617 0010 8046     		mov	r8, r0
 618              	.LVL78:
  91:Middlewares/lvgl/src/extra/widgets/tileview/lv_tileview.c **** 
 619              		.loc 1 91 5 is_stmt 1 view .LVU152
  91:Middlewares/lvgl/src/extra/widgets/tileview/lv_tileview.c **** 
 620              		.loc 1 91 20 is_stmt 0 view .LVU153
 621 0012 3846     		mov	r0, r7
 622 0014 FFF7FEFF 		bl	lv_obj_get_content_height
 623              	.LVL79:
  93:Middlewares/lvgl/src/extra/widgets/tileview/lv_tileview.c ****     lv_coord_t ty = row_id * h;
 624              		.loc 1 93 5 is_stmt 1 view .LVU154
  93:Middlewares/lvgl/src/extra/widgets/tileview/lv_tileview.c ****     lv_coord_t ty = row_id * h;
 625              		.loc 1 93 16 is_stmt 0 view .LVU155
 626 0018 18FB04F8 		smulbb	r8, r8, r4
 627              	.LVL80:
  93:Middlewares/lvgl/src/extra/widgets/tileview/lv_tileview.c ****     lv_coord_t ty = row_id * h;
 628              		.loc 1 93 16 view .LVU156
 629 001c 0FFA88F8 		sxth	r8, r8
 630              	.LVL81:
  94:Middlewares/lvgl/src/extra/widgets/tileview/lv_tileview.c **** 
 631              		.loc 1 94 5 is_stmt 1 view .LVU157
  94:Middlewares/lvgl/src/extra/widgets/tileview/lv_tileview.c **** 
 632              		.loc 1 94 16 is_stmt 0 view .LVU158
 633 0020 10FB09F9 		smulbb	r9, r0, r9
 634              	.LVL82:
  94:Middlewares/lvgl/src/extra/widgets/tileview/lv_tileview.c **** 
 635              		.loc 1 94 16 view .LVU159
 636 0024 0FFA89F9 		sxth	r9, r9
 637              	.LVL83:
  96:Middlewares/lvgl/src/extra/widgets/tileview/lv_tileview.c ****     for(i = 0; i < lv_obj_get_child_cnt(tv); i++) {
 638              		.loc 1 96 5 is_stmt 1 view .LVU160
  97:Middlewares/lvgl/src/extra/widgets/tileview/lv_tileview.c ****         lv_obj_t * tile_obj = lv_obj_get_child(tv, i);
 639              		.loc 1 97 5 view .LVU161
  97:Middlewares/lvgl/src/extra/widgets/tileview/lv_tileview.c ****         lv_obj_t * tile_obj = lv_obj_get_child(tv, i);
 640              		.loc 1 97 11 is_stmt 0 view .LVU162
 641 0028 0024     		movs	r4, #0
 642              	.LVL84:
  97:Middlewares/lvgl/src/extra/widgets/tileview/lv_tileview.c ****         lv_obj_t * tile_obj = lv_obj_get_child(tv, i);
 643              		.loc 1 97 5 view .LVU163
 644 002a 00E0     		b	.L31
 645              	.LVL85:
 646              	.L32:
  97:Middlewares/lvgl/src/extra/widgets/tileview/lv_tileview.c ****         lv_obj_t * tile_obj = lv_obj_get_child(tv, i);
 647              		.loc 1 97 46 is_stmt 1 discriminator 2 view .LVU164
  97:Middlewares/lvgl/src/extra/widgets/tileview/lv_tileview.c ****         lv_obj_t * tile_obj = lv_obj_get_child(tv, i);
 648              		.loc 1 97 47 is_stmt 0 discriminator 2 view .LVU165
 649 002c 0134     		adds	r4, r4, #1
 650              	.LVL86:
 651              	.L31:
  97:Middlewares/lvgl/src/extra/widgets/tileview/lv_tileview.c ****         lv_obj_t * tile_obj = lv_obj_get_child(tv, i);
 652              		.loc 1 97 16 is_stmt 1 discriminator 1 view .LVU166
  97:Middlewares/lvgl/src/extra/widgets/tileview/lv_tileview.c ****         lv_obj_t * tile_obj = lv_obj_get_child(tv, i);
 653              		.loc 1 97 20 is_stmt 0 discriminator 1 view .LVU167
 654 002e 3846     		mov	r0, r7
 655 0030 FFF7FEFF 		bl	lv_obj_get_child_cnt
 656              	.LVL87:
  97:Middlewares/lvgl/src/extra/widgets/tileview/lv_tileview.c ****         lv_obj_t * tile_obj = lv_obj_get_child(tv, i);
ARM GAS  /tmp/ccGsDr7b.s 			page 18


 657              		.loc 1 97 5 discriminator 1 view .LVU168
 658 0034 A042     		cmp	r0, r4
 659 0036 13D9     		bls	.L30
 660              	.LBB5:
  98:Middlewares/lvgl/src/extra/widgets/tileview/lv_tileview.c ****         lv_coord_t x = lv_obj_get_x(tile_obj);
 661              		.loc 1 98 9 is_stmt 1 view .LVU169
  98:Middlewares/lvgl/src/extra/widgets/tileview/lv_tileview.c ****         lv_coord_t x = lv_obj_get_x(tile_obj);
 662              		.loc 1 98 31 is_stmt 0 view .LVU170
 663 0038 2146     		mov	r1, r4
 664 003a 3846     		mov	r0, r7
 665 003c FFF7FEFF 		bl	lv_obj_get_child
 666              	.LVL88:
 667 0040 0546     		mov	r5, r0
 668              	.LVL89:
  99:Middlewares/lvgl/src/extra/widgets/tileview/lv_tileview.c ****         lv_coord_t y = lv_obj_get_y(tile_obj);
 669              		.loc 1 99 9 is_stmt 1 view .LVU171
  99:Middlewares/lvgl/src/extra/widgets/tileview/lv_tileview.c ****         lv_coord_t y = lv_obj_get_y(tile_obj);
 670              		.loc 1 99 24 is_stmt 0 view .LVU172
 671 0042 FFF7FEFF 		bl	lv_obj_get_x
 672              	.LVL90:
  99:Middlewares/lvgl/src/extra/widgets/tileview/lv_tileview.c ****         lv_coord_t y = lv_obj_get_y(tile_obj);
 673              		.loc 1 99 24 view .LVU173
 674 0046 0646     		mov	r6, r0
 675              	.LVL91:
 100:Middlewares/lvgl/src/extra/widgets/tileview/lv_tileview.c ****         if(x == tx && y == ty) {
 676              		.loc 1 100 9 is_stmt 1 view .LVU174
 100:Middlewares/lvgl/src/extra/widgets/tileview/lv_tileview.c ****         if(x == tx && y == ty) {
 677              		.loc 1 100 24 is_stmt 0 view .LVU175
 678 0048 2846     		mov	r0, r5
 679 004a FFF7FEFF 		bl	lv_obj_get_y
 680              	.LVL92:
 101:Middlewares/lvgl/src/extra/widgets/tileview/lv_tileview.c ****             lv_obj_set_tile(tv, tile_obj, anim_en);
 681              		.loc 1 101 9 is_stmt 1 view .LVU176
 101:Middlewares/lvgl/src/extra/widgets/tileview/lv_tileview.c ****             lv_obj_set_tile(tv, tile_obj, anim_en);
 682              		.loc 1 101 11 is_stmt 0 view .LVU177
 683 004e B045     		cmp	r8, r6
 684 0050 ECD1     		bne	.L32
 101:Middlewares/lvgl/src/extra/widgets/tileview/lv_tileview.c ****             lv_obj_set_tile(tv, tile_obj, anim_en);
 685              		.loc 1 101 20 discriminator 1 view .LVU178
 686 0052 8145     		cmp	r9, r0
 687 0054 EAD1     		bne	.L32
 102:Middlewares/lvgl/src/extra/widgets/tileview/lv_tileview.c ****             return;
 688              		.loc 1 102 13 is_stmt 1 view .LVU179
 689 0056 5246     		mov	r2, r10
 690 0058 2946     		mov	r1, r5
 691 005a 3846     		mov	r0, r7
 692              	.LVL93:
 102:Middlewares/lvgl/src/extra/widgets/tileview/lv_tileview.c ****             return;
 693              		.loc 1 102 13 is_stmt 0 view .LVU180
 694 005c FFF7FEFF 		bl	lv_obj_set_tile
 695              	.LVL94:
 103:Middlewares/lvgl/src/extra/widgets/tileview/lv_tileview.c ****         }
 696              		.loc 1 103 13 is_stmt 1 view .LVU181
 697              	.L30:
 103:Middlewares/lvgl/src/extra/widgets/tileview/lv_tileview.c ****         }
 698              		.loc 1 103 13 is_stmt 0 view .LVU182
 699              	.LBE5:
ARM GAS  /tmp/ccGsDr7b.s 			page 19


 108:Middlewares/lvgl/src/extra/widgets/tileview/lv_tileview.c **** 
 700              		.loc 1 108 1 view .LVU183
 701 0060 BDE8F087 		pop	{r4, r5, r6, r7, r8, r9, r10, pc}
 108:Middlewares/lvgl/src/extra/widgets/tileview/lv_tileview.c **** 
 702              		.loc 1 108 1 view .LVU184
 703              		.cfi_endproc
 704              	.LFE150:
 706              		.section	.text.lv_tileview_get_tile_act,"ax",%progbits
 707              		.align	1
 708              		.global	lv_tileview_get_tile_act
 709              		.syntax unified
 710              		.thumb
 711              		.thumb_func
 712              		.fpu fpv4-sp-d16
 714              	lv_tileview_get_tile_act:
 715              	.LVL95:
 716              	.LFB151:
 111:Middlewares/lvgl/src/extra/widgets/tileview/lv_tileview.c ****     lv_tileview_t * tv = (lv_tileview_t *) obj;
 717              		.loc 1 111 1 is_stmt 1 view -0
 718              		.cfi_startproc
 719              		@ args = 0, pretend = 0, frame = 0
 720              		@ frame_needed = 0, uses_anonymous_args = 0
 721              		@ link register save eliminated.
 112:Middlewares/lvgl/src/extra/widgets/tileview/lv_tileview.c ****     return tv->tile_act;
 722              		.loc 1 112 5 view .LVU186
 113:Middlewares/lvgl/src/extra/widgets/tileview/lv_tileview.c **** }
 723              		.loc 1 113 5 view .LVU187
 114:Middlewares/lvgl/src/extra/widgets/tileview/lv_tileview.c **** 
 724              		.loc 1 114 1 is_stmt 0 view .LVU188
 725 0000 406A     		ldr	r0, [r0, #36]
 726              	.LVL96:
 114:Middlewares/lvgl/src/extra/widgets/tileview/lv_tileview.c **** 
 727              		.loc 1 114 1 view .LVU189
 728 0002 7047     		bx	lr
 729              		.cfi_endproc
 730              	.LFE151:
 732              		.global	lv_tileview_tile_class
 733              		.global	lv_tileview_class
 734              		.section	.bss.create_col_id,"aw",%nobits
 735              		.align	2
 736              		.set	.LANCHOR0,. + 0
 739              	create_col_id:
 740 0000 00000000 		.space	4
 741              		.section	.bss.create_dir,"aw",%nobits
 742              		.set	.LANCHOR2,. + 0
 745              	create_dir:
 746 0000 00       		.space	1
 747              		.section	.bss.create_row_id,"aw",%nobits
 748              		.align	2
 749              		.set	.LANCHOR1,. + 0
 752              	create_row_id:
 753 0000 00000000 		.space	4
 754              		.section	.rodata.lv_tileview_class,"a"
 755              		.align	2
 756              		.set	.LANCHOR3,. + 0
 759              	lv_tileview_class:
 760 0000 00000000 		.word	lv_obj_class
ARM GAS  /tmp/ccGsDr7b.s 			page 20


 761 0004 00000000 		.word	lv_tileview_constructor
 762 0008 00000000 		.space	16
 762      00000000 
 762      00000000 
 762      00000000 
 763 0018 80       		.byte	128
 764 0019 02       		.byte	2
 765 001a 00       		.byte	0
 766 001b 00       		.space	1
 767              		.section	.rodata.lv_tileview_tile_class,"a"
 768              		.align	2
 769              		.set	.LANCHOR4,. + 0
 772              	lv_tileview_tile_class:
 773 0000 00000000 		.word	lv_obj_class
 774 0004 00000000 		.word	lv_tileview_tile_constructor
 775 0008 00000000 		.space	16
 775      00000000 
 775      00000000 
 775      00000000 
 776 0018 80       		.byte	128
 777 0019 02       		.byte	2
 778 001a 00       		.byte	0
 779 001b 00       		.space	1
 780              		.text
 781              	.Letext0:
 782              		.file 2 "/home/akinya/gcc-arm-none-eabi/arm-none-eabi/include/machine/_default_types.h"
 783              		.file 3 "/home/akinya/gcc-arm-none-eabi/arm-none-eabi/include/sys/_stdint.h"
 784              		.file 4 "Middlewares/lvgl/src/extra/widgets/tileview/../../../core/../misc/../font/../misc/lv_area
 785              		.file 5 "Middlewares/lvgl/src/extra/widgets/tileview/../../../core/../misc/lv_color.h"
 786              		.file 6 "Middlewares/lvgl/src/extra/widgets/tileview/../../../core/../misc/lv_anim.h"
 787              		.file 7 "Middlewares/lvgl/src/extra/widgets/tileview/../../../core/../misc/lv_style.h"
 788              		.file 8 "Middlewares/lvgl/src/extra/widgets/tileview/../../../core/../hal/../misc/lv_ll.h"
 789              		.file 9 "Middlewares/lvgl/src/extra/widgets/tileview/../../../core/lv_obj.h"
 790              		.file 10 "Middlewares/lvgl/src/extra/widgets/tileview/../../../core/lv_group.h"
 791              		.file 11 "Middlewares/lvgl/src/extra/widgets/tileview/../../../core/lv_obj_scroll.h"
 792              		.file 12 "Middlewares/lvgl/src/extra/widgets/tileview/../../../core/lv_obj_style.h"
 793              		.file 13 "Middlewares/lvgl/src/extra/widgets/tileview/../../../core/lv_obj_class.h"
 794              		.file 14 "Middlewares/lvgl/src/extra/widgets/tileview/../../../core/lv_event.h"
 795              		.file 15 "Middlewares/lvgl/src/extra/widgets/tileview/lv_tileview.h"
 796              		.file 16 "Middlewares/lvgl/src/extra/widgets/tileview/../../../core/lv_obj_tree.h"
 797              		.file 17 "Middlewares/lvgl/src/extra/widgets/tileview/../../../core/lv_obj_pos.h"
ARM GAS  /tmp/ccGsDr7b.s 			page 21

