ARM GAS  /tmp/cc8Bxud5.s 			page 1


   1              		.cpu cortex-m4
   2              		.eabi_attribute 27, 1
   3              		.eabi_attribute 28, 1
   4              		.eabi_attribute 20, 1
   5              		.eabi_attribute 21, 1
   6              		.eabi_attribute 23, 3
   7              		.eabi_attribute 24, 1
   8              		.eabi_attribute 25, 1
   9              		.eabi_attribute 26, 1
  10              		.eabi_attribute 30, 1
  11              		.eabi_attribute 34, 1
  12              		.eabi_attribute 18, 4
  13              		.file	"lvgl_app.c"
  14              		.text
  15              	.Ltext0:
  16              		.cfi_sections	.debug_frame
  17              		.section	.rodata.counter_label.str1.4,"aMS",%progbits,1
  18              		.align	2
  19              	.LC0:
  20 0000 636F756E 		.ascii	"counter\000"
  20      74657200 
  21              		.section	.text.counter_label,"ax",%progbits
  22              		.align	1
  23              		.global	counter_label
  24              		.arch armv7e-m
  25              		.syntax unified
  26              		.thumb
  27              		.thumb_func
  28              		.fpu fpv4-sp-d16
  30              	counter_label:
  31              	.LFB187:
  32              		.file 1 "Core/Src/lvgl_app.c"
   1:Core/Src/lvgl_app.c **** #include "lvgl_app.h"
   2:Core/Src/lvgl_app.c **** #include <stdio.h>
   3:Core/Src/lvgl_app.c **** 
   4:Core/Src/lvgl_app.c **** 
   5:Core/Src/lvgl_app.c **** lv_obj_t * label1;
   6:Core/Src/lvgl_app.c **** void counter_label(void)
   7:Core/Src/lvgl_app.c **** {
  33              		.loc 1 7 1 view -0
  34              		.cfi_startproc
  35              		@ args = 0, pretend = 0, frame = 0
  36              		@ frame_needed = 0, uses_anonymous_args = 0
  37 0000 10B5     		push	{r4, lr}
  38              	.LCFI0:
  39              		.cfi_def_cfa_offset 8
  40              		.cfi_offset 4, -8
  41              		.cfi_offset 14, -4
   8:Core/Src/lvgl_app.c ****     label1 = lv_label_create(lv_scr_act());
  42              		.loc 1 8 5 view .LVU1
  43              	.LBB4:
  44              	.LBI4:
  45              		.file 2 "Middlewares/lvgl/src/core/lv_disp.h"
   1:Middlewares/lvgl/src/core/lv_disp.h **** /**
   2:Middlewares/lvgl/src/core/lv_disp.h ****  * @file lv_disp.h
   3:Middlewares/lvgl/src/core/lv_disp.h ****  *
   4:Middlewares/lvgl/src/core/lv_disp.h ****  */
ARM GAS  /tmp/cc8Bxud5.s 			page 2


   5:Middlewares/lvgl/src/core/lv_disp.h **** 
   6:Middlewares/lvgl/src/core/lv_disp.h **** #ifndef LV_DISP_H
   7:Middlewares/lvgl/src/core/lv_disp.h **** #define LV_DISP_H
   8:Middlewares/lvgl/src/core/lv_disp.h **** 
   9:Middlewares/lvgl/src/core/lv_disp.h **** #ifdef __cplusplus
  10:Middlewares/lvgl/src/core/lv_disp.h **** extern "C" {
  11:Middlewares/lvgl/src/core/lv_disp.h **** #endif
  12:Middlewares/lvgl/src/core/lv_disp.h **** 
  13:Middlewares/lvgl/src/core/lv_disp.h **** /*********************
  14:Middlewares/lvgl/src/core/lv_disp.h ****  *      INCLUDES
  15:Middlewares/lvgl/src/core/lv_disp.h ****  *********************/
  16:Middlewares/lvgl/src/core/lv_disp.h **** #include "../hal/lv_hal.h"
  17:Middlewares/lvgl/src/core/lv_disp.h **** #include "lv_obj.h"
  18:Middlewares/lvgl/src/core/lv_disp.h **** #include "lv_theme.h"
  19:Middlewares/lvgl/src/core/lv_disp.h **** 
  20:Middlewares/lvgl/src/core/lv_disp.h **** /*********************
  21:Middlewares/lvgl/src/core/lv_disp.h ****  *      DEFINES
  22:Middlewares/lvgl/src/core/lv_disp.h ****  *********************/
  23:Middlewares/lvgl/src/core/lv_disp.h **** 
  24:Middlewares/lvgl/src/core/lv_disp.h **** /**********************
  25:Middlewares/lvgl/src/core/lv_disp.h ****  *      TYPEDEFS
  26:Middlewares/lvgl/src/core/lv_disp.h ****  **********************/
  27:Middlewares/lvgl/src/core/lv_disp.h **** 
  28:Middlewares/lvgl/src/core/lv_disp.h **** typedef enum {
  29:Middlewares/lvgl/src/core/lv_disp.h ****     LV_SCR_LOAD_ANIM_NONE,
  30:Middlewares/lvgl/src/core/lv_disp.h ****     LV_SCR_LOAD_ANIM_OVER_LEFT,
  31:Middlewares/lvgl/src/core/lv_disp.h ****     LV_SCR_LOAD_ANIM_OVER_RIGHT,
  32:Middlewares/lvgl/src/core/lv_disp.h ****     LV_SCR_LOAD_ANIM_OVER_TOP,
  33:Middlewares/lvgl/src/core/lv_disp.h ****     LV_SCR_LOAD_ANIM_OVER_BOTTOM,
  34:Middlewares/lvgl/src/core/lv_disp.h ****     LV_SCR_LOAD_ANIM_MOVE_LEFT,
  35:Middlewares/lvgl/src/core/lv_disp.h ****     LV_SCR_LOAD_ANIM_MOVE_RIGHT,
  36:Middlewares/lvgl/src/core/lv_disp.h ****     LV_SCR_LOAD_ANIM_MOVE_TOP,
  37:Middlewares/lvgl/src/core/lv_disp.h ****     LV_SCR_LOAD_ANIM_MOVE_BOTTOM,
  38:Middlewares/lvgl/src/core/lv_disp.h ****     LV_SCR_LOAD_ANIM_FADE_ON,
  39:Middlewares/lvgl/src/core/lv_disp.h **** } lv_scr_load_anim_t;
  40:Middlewares/lvgl/src/core/lv_disp.h **** 
  41:Middlewares/lvgl/src/core/lv_disp.h **** /**********************
  42:Middlewares/lvgl/src/core/lv_disp.h ****  * GLOBAL PROTOTYPES
  43:Middlewares/lvgl/src/core/lv_disp.h ****  **********************/
  44:Middlewares/lvgl/src/core/lv_disp.h **** 
  45:Middlewares/lvgl/src/core/lv_disp.h **** /**
  46:Middlewares/lvgl/src/core/lv_disp.h ****  * Return with a pointer to the active screen
  47:Middlewares/lvgl/src/core/lv_disp.h ****  * @param disp pointer to display which active screen should be get. (NULL to use the default
  48:Middlewares/lvgl/src/core/lv_disp.h ****  * screen)
  49:Middlewares/lvgl/src/core/lv_disp.h ****  * @return pointer to the active screen object (loaded by 'lv_scr_load()')
  50:Middlewares/lvgl/src/core/lv_disp.h ****  */
  51:Middlewares/lvgl/src/core/lv_disp.h **** lv_obj_t * lv_disp_get_scr_act(lv_disp_t * disp);
  52:Middlewares/lvgl/src/core/lv_disp.h **** 
  53:Middlewares/lvgl/src/core/lv_disp.h **** /**
  54:Middlewares/lvgl/src/core/lv_disp.h ****  * Return with a pointer to the previous screen. Only used during screen transitions.
  55:Middlewares/lvgl/src/core/lv_disp.h ****  * @param disp pointer to display which previous screen should be get. (NULL to use the default
  56:Middlewares/lvgl/src/core/lv_disp.h ****  * screen)
  57:Middlewares/lvgl/src/core/lv_disp.h ****  * @return pointer to the previous screen object or NULL if not used now
  58:Middlewares/lvgl/src/core/lv_disp.h ****  */
  59:Middlewares/lvgl/src/core/lv_disp.h **** lv_obj_t * lv_disp_get_scr_prev(lv_disp_t * disp);
  60:Middlewares/lvgl/src/core/lv_disp.h **** 
  61:Middlewares/lvgl/src/core/lv_disp.h **** /**
ARM GAS  /tmp/cc8Bxud5.s 			page 3


  62:Middlewares/lvgl/src/core/lv_disp.h ****  * Make a screen active
  63:Middlewares/lvgl/src/core/lv_disp.h ****  * @param scr pointer to a screen
  64:Middlewares/lvgl/src/core/lv_disp.h ****  */
  65:Middlewares/lvgl/src/core/lv_disp.h **** void lv_disp_load_scr(lv_obj_t * scr);
  66:Middlewares/lvgl/src/core/lv_disp.h **** 
  67:Middlewares/lvgl/src/core/lv_disp.h **** /**
  68:Middlewares/lvgl/src/core/lv_disp.h ****  * Return with the top layer. (Same on every screen and it is above the normal screen layer)
  69:Middlewares/lvgl/src/core/lv_disp.h ****  * @param disp pointer to display which top layer should be get. (NULL to use the default screen)
  70:Middlewares/lvgl/src/core/lv_disp.h ****  * @return pointer to the top layer object  (transparent screen sized lv_obj)
  71:Middlewares/lvgl/src/core/lv_disp.h ****  */
  72:Middlewares/lvgl/src/core/lv_disp.h **** lv_obj_t * lv_disp_get_layer_top(lv_disp_t * disp);
  73:Middlewares/lvgl/src/core/lv_disp.h **** 
  74:Middlewares/lvgl/src/core/lv_disp.h **** /**
  75:Middlewares/lvgl/src/core/lv_disp.h ****  * Return with the sys. layer. (Same on every screen and it is above the normal screen and the top
  76:Middlewares/lvgl/src/core/lv_disp.h ****  * layer)
  77:Middlewares/lvgl/src/core/lv_disp.h ****  * @param disp pointer to display which sys. layer  should be get. (NULL to use the default screen)
  78:Middlewares/lvgl/src/core/lv_disp.h ****  * @return pointer to the sys layer object  (transparent screen sized lv_obj)
  79:Middlewares/lvgl/src/core/lv_disp.h ****  */
  80:Middlewares/lvgl/src/core/lv_disp.h **** lv_obj_t * lv_disp_get_layer_sys(lv_disp_t * disp);
  81:Middlewares/lvgl/src/core/lv_disp.h **** 
  82:Middlewares/lvgl/src/core/lv_disp.h **** /**
  83:Middlewares/lvgl/src/core/lv_disp.h ****  * Get the theme of a display
  84:Middlewares/lvgl/src/core/lv_disp.h ****  * @param disp pointer to a display
  85:Middlewares/lvgl/src/core/lv_disp.h ****  * @return the display's theme (can be NULL)
  86:Middlewares/lvgl/src/core/lv_disp.h ****  */
  87:Middlewares/lvgl/src/core/lv_disp.h **** void lv_disp_set_theme(lv_disp_t * disp, lv_theme_t * th);
  88:Middlewares/lvgl/src/core/lv_disp.h **** 
  89:Middlewares/lvgl/src/core/lv_disp.h **** /**
  90:Middlewares/lvgl/src/core/lv_disp.h ****  * Get the theme of a display
  91:Middlewares/lvgl/src/core/lv_disp.h ****  * @param disp pointer to a display
  92:Middlewares/lvgl/src/core/lv_disp.h ****  * @return the display's theme (can be NULL)
  93:Middlewares/lvgl/src/core/lv_disp.h ****  */
  94:Middlewares/lvgl/src/core/lv_disp.h **** lv_theme_t * lv_disp_get_theme(lv_disp_t * disp);
  95:Middlewares/lvgl/src/core/lv_disp.h **** 
  96:Middlewares/lvgl/src/core/lv_disp.h **** /**
  97:Middlewares/lvgl/src/core/lv_disp.h ****  * Set the background color of a display
  98:Middlewares/lvgl/src/core/lv_disp.h ****  * @param disp pointer to a display
  99:Middlewares/lvgl/src/core/lv_disp.h ****  * @param color color of the background
 100:Middlewares/lvgl/src/core/lv_disp.h ****  */
 101:Middlewares/lvgl/src/core/lv_disp.h **** void lv_disp_set_bg_color(lv_disp_t * disp, lv_color_t color);
 102:Middlewares/lvgl/src/core/lv_disp.h **** 
 103:Middlewares/lvgl/src/core/lv_disp.h **** /**
 104:Middlewares/lvgl/src/core/lv_disp.h ****  * Set the background image of a display
 105:Middlewares/lvgl/src/core/lv_disp.h ****  * @param disp pointer to a display
 106:Middlewares/lvgl/src/core/lv_disp.h ****  * @param img_src path to file or pointer to an `lv_img_dsc_t` variable
 107:Middlewares/lvgl/src/core/lv_disp.h ****  */
 108:Middlewares/lvgl/src/core/lv_disp.h **** void lv_disp_set_bg_image(lv_disp_t * disp, const void  * img_src);
 109:Middlewares/lvgl/src/core/lv_disp.h **** 
 110:Middlewares/lvgl/src/core/lv_disp.h **** /**
 111:Middlewares/lvgl/src/core/lv_disp.h ****  * Opacity of the background
 112:Middlewares/lvgl/src/core/lv_disp.h ****  * @param disp pointer to a display
 113:Middlewares/lvgl/src/core/lv_disp.h ****  * @param opa opacity (0..255)
 114:Middlewares/lvgl/src/core/lv_disp.h ****  */
 115:Middlewares/lvgl/src/core/lv_disp.h **** void lv_disp_set_bg_opa(lv_disp_t * disp, lv_opa_t opa);
 116:Middlewares/lvgl/src/core/lv_disp.h **** 
 117:Middlewares/lvgl/src/core/lv_disp.h **** /**
 118:Middlewares/lvgl/src/core/lv_disp.h ****  * Switch screen with animation
ARM GAS  /tmp/cc8Bxud5.s 			page 4


 119:Middlewares/lvgl/src/core/lv_disp.h ****  * @param scr pointer to the new screen to load
 120:Middlewares/lvgl/src/core/lv_disp.h ****  * @param anim_type type of the animation from `lv_scr_load_anim_t`. E.g.  `LV_SCR_LOAD_ANIM_MOVE_L
 121:Middlewares/lvgl/src/core/lv_disp.h ****  * @param time time of the animation
 122:Middlewares/lvgl/src/core/lv_disp.h ****  * @param delay delay before the transition
 123:Middlewares/lvgl/src/core/lv_disp.h ****  * @param auto_del true: automatically delete the old screen
 124:Middlewares/lvgl/src/core/lv_disp.h ****  */
 125:Middlewares/lvgl/src/core/lv_disp.h **** void lv_scr_load_anim(lv_obj_t * scr, lv_scr_load_anim_t anim_type, uint32_t time, uint32_t delay, 
 126:Middlewares/lvgl/src/core/lv_disp.h **** 
 127:Middlewares/lvgl/src/core/lv_disp.h **** /**
 128:Middlewares/lvgl/src/core/lv_disp.h ****  * Get elapsed time since last user activity on a display (e.g. click)
 129:Middlewares/lvgl/src/core/lv_disp.h ****  * @param disp pointer to an display (NULL to get the overall smallest inactivity)
 130:Middlewares/lvgl/src/core/lv_disp.h ****  * @return elapsed ticks (milliseconds) since the last activity
 131:Middlewares/lvgl/src/core/lv_disp.h ****  */
 132:Middlewares/lvgl/src/core/lv_disp.h **** uint32_t lv_disp_get_inactive_time(const lv_disp_t * disp);
 133:Middlewares/lvgl/src/core/lv_disp.h **** 
 134:Middlewares/lvgl/src/core/lv_disp.h **** /**
 135:Middlewares/lvgl/src/core/lv_disp.h ****  * Manually trigger an activity on a display
 136:Middlewares/lvgl/src/core/lv_disp.h ****  * @param disp pointer to an display (NULL to use the default display)
 137:Middlewares/lvgl/src/core/lv_disp.h ****  */
 138:Middlewares/lvgl/src/core/lv_disp.h **** void lv_disp_trig_activity(lv_disp_t * disp);
 139:Middlewares/lvgl/src/core/lv_disp.h **** 
 140:Middlewares/lvgl/src/core/lv_disp.h **** /**
 141:Middlewares/lvgl/src/core/lv_disp.h ****  * Clean any CPU cache that is related to the display.
 142:Middlewares/lvgl/src/core/lv_disp.h ****  * @param disp pointer to an display (NULL to use the default display)
 143:Middlewares/lvgl/src/core/lv_disp.h ****  */
 144:Middlewares/lvgl/src/core/lv_disp.h **** void lv_disp_clean_dcache(lv_disp_t * disp);
 145:Middlewares/lvgl/src/core/lv_disp.h **** 
 146:Middlewares/lvgl/src/core/lv_disp.h **** /**
 147:Middlewares/lvgl/src/core/lv_disp.h ****  * Get a pointer to the screen refresher timer to
 148:Middlewares/lvgl/src/core/lv_disp.h ****  * modify its parameters with `lv_timer_...` functions.
 149:Middlewares/lvgl/src/core/lv_disp.h ****  * @param disp pointer to a display
 150:Middlewares/lvgl/src/core/lv_disp.h ****  * @return pointer to the display refresher timer. (NULL on error)
 151:Middlewares/lvgl/src/core/lv_disp.h ****  */
 152:Middlewares/lvgl/src/core/lv_disp.h **** lv_timer_t * _lv_disp_get_refr_timer(lv_disp_t * disp);
 153:Middlewares/lvgl/src/core/lv_disp.h **** 
 154:Middlewares/lvgl/src/core/lv_disp.h **** /*------------------------------------------------
 155:Middlewares/lvgl/src/core/lv_disp.h ****  * To improve backward compatibility
 156:Middlewares/lvgl/src/core/lv_disp.h ****  * Recommended only if you have one display
 157:Middlewares/lvgl/src/core/lv_disp.h ****  *------------------------------------------------*/
 158:Middlewares/lvgl/src/core/lv_disp.h **** 
 159:Middlewares/lvgl/src/core/lv_disp.h **** /**
 160:Middlewares/lvgl/src/core/lv_disp.h ****  * Get the active screen of the default display
 161:Middlewares/lvgl/src/core/lv_disp.h ****  * @return pointer to the active screen
 162:Middlewares/lvgl/src/core/lv_disp.h ****  */
 163:Middlewares/lvgl/src/core/lv_disp.h **** static inline lv_obj_t * lv_scr_act(void)
  46              		.loc 2 163 26 view .LVU2
  47              	.LBB5:
 164:Middlewares/lvgl/src/core/lv_disp.h **** {
 165:Middlewares/lvgl/src/core/lv_disp.h ****     return lv_disp_get_scr_act(lv_disp_get_default());
  48              		.loc 2 165 5 view .LVU3
  49              		.loc 2 165 12 is_stmt 0 view .LVU4
  50 0002 FFF7FEFF 		bl	lv_disp_get_default
  51              	.LVL0:
  52 0006 FFF7FEFF 		bl	lv_disp_get_scr_act
  53              	.LVL1:
  54              	.LBE5:
  55              	.LBE4:
ARM GAS  /tmp/cc8Bxud5.s 			page 5


  56              		.loc 1 8 14 view .LVU5
  57 000a FFF7FEFF 		bl	lv_label_create
  58              	.LVL2:
  59              		.loc 1 8 12 view .LVU6
  60 000e 0F4C     		ldr	r4, .L3
  61 0010 2060     		str	r0, [r4]
   9:Core/Src/lvgl_app.c ****     lv_label_set_long_mode(label1, LV_LABEL_LONG_WRAP);     /*Break the long lines*/
  62              		.loc 1 9 5 is_stmt 1 view .LVU7
  63 0012 0021     		movs	r1, #0
  64 0014 FFF7FEFF 		bl	lv_label_set_long_mode
  65              	.LVL3:
  10:Core/Src/lvgl_app.c ****     lv_label_set_recolor(label1, true);                      /*Enable re-coloring by commands in th
  66              		.loc 1 10 5 view .LVU8
  67 0018 0121     		movs	r1, #1
  68 001a 2068     		ldr	r0, [r4]
  69 001c FFF7FEFF 		bl	lv_label_set_recolor
  70              	.LVL4:
  11:Core/Src/lvgl_app.c ****     
  12:Core/Src/lvgl_app.c ****     lv_label_set_text(label1, "counter");
  71              		.loc 1 12 5 view .LVU9
  72 0020 0B49     		ldr	r1, .L3+4
  73 0022 2068     		ldr	r0, [r4]
  74 0024 FFF7FEFF 		bl	lv_label_set_text
  75              	.LVL5:
  13:Core/Src/lvgl_app.c ****     lv_obj_set_width(label1, 150);  /*Set smaller width to make the lines wrap*/
  76              		.loc 1 13 5 view .LVU10
  77 0028 9621     		movs	r1, #150
  78 002a 2068     		ldr	r0, [r4]
  79 002c FFF7FEFF 		bl	lv_obj_set_width
  80              	.LVL6:
  14:Core/Src/lvgl_app.c ****     lv_obj_set_style_text_align(label1, LV_TEXT_ALIGN_CENTER, 0);
  81              		.loc 1 14 5 view .LVU11
  82 0030 0022     		movs	r2, #0
  83 0032 0221     		movs	r1, #2
  84 0034 2068     		ldr	r0, [r4]
  85 0036 FFF7FEFF 		bl	lv_obj_set_style_text_align
  86              	.LVL7:
  15:Core/Src/lvgl_app.c ****     lv_obj_align(label1, LV_ALIGN_CENTER, 0, -40);
  87              		.loc 1 15 5 view .LVU12
  88 003a 6FF02703 		mvn	r3, #39
  89 003e 0022     		movs	r2, #0
  90 0040 0921     		movs	r1, #9
  91 0042 2068     		ldr	r0, [r4]
  92 0044 FFF7FEFF 		bl	lv_obj_align
  93              	.LVL8:
  16:Core/Src/lvgl_app.c **** 
  17:Core/Src/lvgl_app.c **** 
  18:Core/Src/lvgl_app.c ****     // lv_obj_t * label2 = lv_label_create(lv_scr_act());
  19:Core/Src/lvgl_app.c ****     // lv_label_set_long_mode(label2, LV_LABEL_LONG_SCROLL_CIRCULAR);     /*Circular scroll*/
  20:Core/Src/lvgl_app.c ****     // lv_obj_set_width(label2, 150);
  21:Core/Src/lvgl_app.c ****     // lv_label_set_text(label2, "It is a circularly scrolling text.");
  22:Core/Src/lvgl_app.c ****     // lv_obj_align(label2, LV_ALIGN_CENTER, 0, 40);
  23:Core/Src/lvgl_app.c **** }
  94              		.loc 1 23 1 is_stmt 0 view .LVU13
  95 0048 10BD     		pop	{r4, pc}
  96              	.L4:
  97 004a 00BF     		.align	2
ARM GAS  /tmp/cc8Bxud5.s 			page 6


  98              	.L3:
  99 004c 00000000 		.word	.LANCHOR0
 100 0050 00000000 		.word	.LC0
 101              		.cfi_endproc
 102              	.LFE187:
 104              		.global	label1
 105              		.section	.bss.label1,"aw",%nobits
 106              		.align	2
 107              		.set	.LANCHOR0,. + 0
 110              	label1:
 111 0000 00000000 		.space	4
 112              		.text
 113              	.Letext0:
 114              		.file 3 "/home/akinya/gcc-arm-none-eabi/arm-none-eabi/include/machine/_default_types.h"
 115              		.file 4 "/home/akinya/gcc-arm-none-eabi/arm-none-eabi/include/sys/_stdint.h"
 116              		.file 5 "Middlewares/lvgl/src/misc/lv_ll.h"
 117              		.file 6 "Middlewares/lvgl/src/hal/../misc/lv_color.h"
 118              		.file 7 "Middlewares/lvgl/src/hal/../misc/lv_area.h"
 119              		.file 8 "Middlewares/lvgl/src/core/lv_obj.h"
 120              		.file 9 "Middlewares/lvgl/src/core/lv_group.h"
 121              		.file 10 "Middlewares/lvgl/src/core/../misc/lv_txt.h"
 122              		.file 11 "Middlewares/lvgl/src/core/../misc/lv_style.h"
 123              		.file 12 "Middlewares/lvgl/src/core/lv_obj_scroll.h"
 124              		.file 13 "Middlewares/lvgl/src/core/lv_obj_style.h"
 125              		.file 14 "Middlewares/lvgl/src/core/lv_obj_class.h"
 126              		.file 15 "Middlewares/lvgl/src/core/lv_event.h"
 127              		.file 16 "Middlewares/lvgl/src/widgets/lv_label.h"
 128              		.file 17 "Middlewares/lvgl/src/widgets/lv_bar.h"
 129              		.file 18 "Middlewares/lvgl/src/extra/widgets/imgbtn/lv_imgbtn.h"
 130              		.file 19 "Middlewares/lvgl/src/hal/lv_hal_disp.h"
 131              		.file 20 "Middlewares/lvgl/src/core/lv_obj_pos.h"
 132              		.file 21 "Middlewares/lvgl/src/core/lv_obj_style_gen.h"
ARM GAS  /tmp/cc8Bxud5.s 			page 7


DEFINED SYMBOLS
                            *ABS*:0000000000000000 lvgl_app.c
     /tmp/cc8Bxud5.s:18     .rodata.counter_label.str1.4:0000000000000000 $d
     /tmp/cc8Bxud5.s:22     .text.counter_label:0000000000000000 $t
     /tmp/cc8Bxud5.s:30     .text.counter_label:0000000000000000 counter_label
     /tmp/cc8Bxud5.s:99     .text.counter_label:000000000000004c $d
     /tmp/cc8Bxud5.s:110    .bss.label1:0000000000000000 label1
     /tmp/cc8Bxud5.s:106    .bss.label1:0000000000000000 $d

UNDEFINED SYMBOLS
lv_disp_get_default
lv_disp_get_scr_act
lv_label_create
lv_label_set_long_mode
lv_label_set_recolor
lv_label_set_text
lv_obj_set_width
lv_obj_set_style_text_align
lv_obj_align
