ARM GAS  /tmp/ccTudxh6.s 			page 1


   1              		.cpu cortex-m4
   2              		.eabi_attribute 27, 1
   3              		.eabi_attribute 28, 1
   4              		.eabi_attribute 20, 1
   5              		.eabi_attribute 21, 1
   6              		.eabi_attribute 23, 3
   7              		.eabi_attribute 24, 1
   8              		.eabi_attribute 25, 1
   9              		.eabi_attribute 26, 1
  10              		.eabi_attribute 30, 1
  11              		.eabi_attribute 34, 1
  12              		.eabi_attribute 18, 4
  13              		.file	"lv_animimg.c"
  14              		.text
  15              	.Ltext0:
  16              		.cfi_sections	.debug_frame
  17              		.section	.text.lv_animimg_constructor,"ax",%progbits
  18              		.align	1
  19              		.arch armv7e-m
  20              		.syntax unified
  21              		.thumb
  22              		.thumb_func
  23              		.fpu fpv4-sp-d16
  25              	lv_animimg_constructor:
  26              	.LVL0:
  27              	.LFB189:
  28              		.file 1 "Middlewares/lvgl/src/extra/widgets/animimg/lv_animimg.c"
   1:Middlewares/lvgl/src/extra/widgets/animimg/lv_animimg.c **** /**
   2:Middlewares/lvgl/src/extra/widgets/animimg/lv_animimg.c ****  * @file lv_animimg.c
   3:Middlewares/lvgl/src/extra/widgets/animimg/lv_animimg.c ****  *
   4:Middlewares/lvgl/src/extra/widgets/animimg/lv_animimg.c ****  */
   5:Middlewares/lvgl/src/extra/widgets/animimg/lv_animimg.c **** 
   6:Middlewares/lvgl/src/extra/widgets/animimg/lv_animimg.c **** /*********************
   7:Middlewares/lvgl/src/extra/widgets/animimg/lv_animimg.c ****  *      INCLUDES
   8:Middlewares/lvgl/src/extra/widgets/animimg/lv_animimg.c ****  *********************/
   9:Middlewares/lvgl/src/extra/widgets/animimg/lv_animimg.c **** #include "lv_animimg.h"
  10:Middlewares/lvgl/src/extra/widgets/animimg/lv_animimg.c **** #if LV_USE_ANIMIMG != 0
  11:Middlewares/lvgl/src/extra/widgets/animimg/lv_animimg.c **** 
  12:Middlewares/lvgl/src/extra/widgets/animimg/lv_animimg.c **** /*Testing of dependencies*/
  13:Middlewares/lvgl/src/extra/widgets/animimg/lv_animimg.c **** #if LV_USE_IMG == 0
  14:Middlewares/lvgl/src/extra/widgets/animimg/lv_animimg.c ****     #error "lv_animimg: lv_img is required. Enable it in lv_conf.h (LV_USE_IMG  1) "
  15:Middlewares/lvgl/src/extra/widgets/animimg/lv_animimg.c **** #endif
  16:Middlewares/lvgl/src/extra/widgets/animimg/lv_animimg.c **** 
  17:Middlewares/lvgl/src/extra/widgets/animimg/lv_animimg.c **** #include "../../../misc/lv_assert.h"
  18:Middlewares/lvgl/src/extra/widgets/animimg/lv_animimg.c **** #include "../../../draw/lv_img_decoder.h"
  19:Middlewares/lvgl/src/extra/widgets/animimg/lv_animimg.c **** #include "../../../misc/lv_fs.h"
  20:Middlewares/lvgl/src/extra/widgets/animimg/lv_animimg.c **** #include "../../../misc/lv_txt.h"
  21:Middlewares/lvgl/src/extra/widgets/animimg/lv_animimg.c **** #include "../../../misc/lv_math.h"
  22:Middlewares/lvgl/src/extra/widgets/animimg/lv_animimg.c **** #include "../../../misc/lv_log.h"
  23:Middlewares/lvgl/src/extra/widgets/animimg/lv_animimg.c **** #include "../../../misc/lv_anim.h"
  24:Middlewares/lvgl/src/extra/widgets/animimg/lv_animimg.c **** 
  25:Middlewares/lvgl/src/extra/widgets/animimg/lv_animimg.c **** /*********************
  26:Middlewares/lvgl/src/extra/widgets/animimg/lv_animimg.c ****  *      DEFINES
  27:Middlewares/lvgl/src/extra/widgets/animimg/lv_animimg.c ****  *********************/
  28:Middlewares/lvgl/src/extra/widgets/animimg/lv_animimg.c **** #define LV_OBJX_NAME "lv_animimg"
  29:Middlewares/lvgl/src/extra/widgets/animimg/lv_animimg.c **** 
  30:Middlewares/lvgl/src/extra/widgets/animimg/lv_animimg.c **** /**********************
ARM GAS  /tmp/ccTudxh6.s 			page 2


  31:Middlewares/lvgl/src/extra/widgets/animimg/lv_animimg.c ****  *      TYPEDEFS
  32:Middlewares/lvgl/src/extra/widgets/animimg/lv_animimg.c ****  **********************/
  33:Middlewares/lvgl/src/extra/widgets/animimg/lv_animimg.c **** 
  34:Middlewares/lvgl/src/extra/widgets/animimg/lv_animimg.c **** /**********************
  35:Middlewares/lvgl/src/extra/widgets/animimg/lv_animimg.c ****  *  STATIC PROTOTYPES
  36:Middlewares/lvgl/src/extra/widgets/animimg/lv_animimg.c ****  **********************/
  37:Middlewares/lvgl/src/extra/widgets/animimg/lv_animimg.c **** static void index_change(lv_obj_t * obj, int32_t index);
  38:Middlewares/lvgl/src/extra/widgets/animimg/lv_animimg.c **** static void lv_animimg_constructor(const lv_obj_class_t * class_p, lv_obj_t * obj);
  39:Middlewares/lvgl/src/extra/widgets/animimg/lv_animimg.c **** 
  40:Middlewares/lvgl/src/extra/widgets/animimg/lv_animimg.c **** /**********************
  41:Middlewares/lvgl/src/extra/widgets/animimg/lv_animimg.c ****  *  STATIC VARIABLES
  42:Middlewares/lvgl/src/extra/widgets/animimg/lv_animimg.c ****  **********************/
  43:Middlewares/lvgl/src/extra/widgets/animimg/lv_animimg.c **** const lv_obj_class_t lv_animimg_class = {
  44:Middlewares/lvgl/src/extra/widgets/animimg/lv_animimg.c ****     .constructor_cb = lv_animimg_constructor,
  45:Middlewares/lvgl/src/extra/widgets/animimg/lv_animimg.c ****     .instance_size = sizeof(lv_animimg_t),
  46:Middlewares/lvgl/src/extra/widgets/animimg/lv_animimg.c ****     .base_class = &lv_img_class
  47:Middlewares/lvgl/src/extra/widgets/animimg/lv_animimg.c **** };
  48:Middlewares/lvgl/src/extra/widgets/animimg/lv_animimg.c **** 
  49:Middlewares/lvgl/src/extra/widgets/animimg/lv_animimg.c **** /**********************
  50:Middlewares/lvgl/src/extra/widgets/animimg/lv_animimg.c ****  *      MACROS
  51:Middlewares/lvgl/src/extra/widgets/animimg/lv_animimg.c ****  **********************/
  52:Middlewares/lvgl/src/extra/widgets/animimg/lv_animimg.c **** 
  53:Middlewares/lvgl/src/extra/widgets/animimg/lv_animimg.c **** /**********************
  54:Middlewares/lvgl/src/extra/widgets/animimg/lv_animimg.c ****  *   GLOBAL FUNCTIONS
  55:Middlewares/lvgl/src/extra/widgets/animimg/lv_animimg.c ****  **********************/
  56:Middlewares/lvgl/src/extra/widgets/animimg/lv_animimg.c **** 
  57:Middlewares/lvgl/src/extra/widgets/animimg/lv_animimg.c **** lv_obj_t * lv_animimg_create(lv_obj_t * parent)
  58:Middlewares/lvgl/src/extra/widgets/animimg/lv_animimg.c **** {
  59:Middlewares/lvgl/src/extra/widgets/animimg/lv_animimg.c ****     LV_LOG_INFO("begin")
  60:Middlewares/lvgl/src/extra/widgets/animimg/lv_animimg.c ****     lv_obj_t * obj = lv_obj_class_create_obj(&lv_animimg_class, parent);
  61:Middlewares/lvgl/src/extra/widgets/animimg/lv_animimg.c ****     lv_obj_class_init_obj(obj);
  62:Middlewares/lvgl/src/extra/widgets/animimg/lv_animimg.c ****     return obj;
  63:Middlewares/lvgl/src/extra/widgets/animimg/lv_animimg.c **** }
  64:Middlewares/lvgl/src/extra/widgets/animimg/lv_animimg.c **** 
  65:Middlewares/lvgl/src/extra/widgets/animimg/lv_animimg.c **** void lv_animimg_set_src(lv_obj_t * obj,  lv_img_dsc_t * dsc[], uint8_t num)
  66:Middlewares/lvgl/src/extra/widgets/animimg/lv_animimg.c **** {
  67:Middlewares/lvgl/src/extra/widgets/animimg/lv_animimg.c ****     lv_animimg_t * animimg = (lv_animimg_t *)obj;
  68:Middlewares/lvgl/src/extra/widgets/animimg/lv_animimg.c ****     animimg->dsc = dsc;
  69:Middlewares/lvgl/src/extra/widgets/animimg/lv_animimg.c ****     animimg->pic_count = num;
  70:Middlewares/lvgl/src/extra/widgets/animimg/lv_animimg.c ****     lv_anim_set_values(&animimg->anim, 0 , num);
  71:Middlewares/lvgl/src/extra/widgets/animimg/lv_animimg.c **** }
  72:Middlewares/lvgl/src/extra/widgets/animimg/lv_animimg.c **** 
  73:Middlewares/lvgl/src/extra/widgets/animimg/lv_animimg.c **** void lv_animimg_start(lv_obj_t * obj)
  74:Middlewares/lvgl/src/extra/widgets/animimg/lv_animimg.c **** {
  75:Middlewares/lvgl/src/extra/widgets/animimg/lv_animimg.c ****     lv_animimg_t * animimg = (lv_animimg_t *)obj;
  76:Middlewares/lvgl/src/extra/widgets/animimg/lv_animimg.c ****     lv_anim_start(&animimg->anim);
  77:Middlewares/lvgl/src/extra/widgets/animimg/lv_animimg.c **** }
  78:Middlewares/lvgl/src/extra/widgets/animimg/lv_animimg.c **** 
  79:Middlewares/lvgl/src/extra/widgets/animimg/lv_animimg.c **** /*=====================
  80:Middlewares/lvgl/src/extra/widgets/animimg/lv_animimg.c ****  * Setter functions
  81:Middlewares/lvgl/src/extra/widgets/animimg/lv_animimg.c ****  *====================*/
  82:Middlewares/lvgl/src/extra/widgets/animimg/lv_animimg.c **** 
  83:Middlewares/lvgl/src/extra/widgets/animimg/lv_animimg.c **** void lv_animimg_set_duration(lv_obj_t * obj, uint32_t duration)
  84:Middlewares/lvgl/src/extra/widgets/animimg/lv_animimg.c **** {
  85:Middlewares/lvgl/src/extra/widgets/animimg/lv_animimg.c ****     lv_animimg_t * animimg = (lv_animimg_t *)obj;
  86:Middlewares/lvgl/src/extra/widgets/animimg/lv_animimg.c ****     lv_anim_set_time(&animimg->anim, duration);
  87:Middlewares/lvgl/src/extra/widgets/animimg/lv_animimg.c ****     lv_anim_set_playback_delay(&animimg->anim, duration);
ARM GAS  /tmp/ccTudxh6.s 			page 3


  88:Middlewares/lvgl/src/extra/widgets/animimg/lv_animimg.c **** }
  89:Middlewares/lvgl/src/extra/widgets/animimg/lv_animimg.c **** 
  90:Middlewares/lvgl/src/extra/widgets/animimg/lv_animimg.c **** void lv_animimg_set_repeat_count(lv_obj_t * obj, uint16_t count)
  91:Middlewares/lvgl/src/extra/widgets/animimg/lv_animimg.c **** {
  92:Middlewares/lvgl/src/extra/widgets/animimg/lv_animimg.c ****     lv_animimg_t * animimg = (lv_animimg_t *)obj;
  93:Middlewares/lvgl/src/extra/widgets/animimg/lv_animimg.c ****     lv_anim_set_repeat_count(&animimg->anim, count);
  94:Middlewares/lvgl/src/extra/widgets/animimg/lv_animimg.c **** }
  95:Middlewares/lvgl/src/extra/widgets/animimg/lv_animimg.c **** 
  96:Middlewares/lvgl/src/extra/widgets/animimg/lv_animimg.c **** /*=====================
  97:Middlewares/lvgl/src/extra/widgets/animimg/lv_animimg.c ****  * Getter functions
  98:Middlewares/lvgl/src/extra/widgets/animimg/lv_animimg.c ****  *====================*/
  99:Middlewares/lvgl/src/extra/widgets/animimg/lv_animimg.c **** 
 100:Middlewares/lvgl/src/extra/widgets/animimg/lv_animimg.c **** /**********************
 101:Middlewares/lvgl/src/extra/widgets/animimg/lv_animimg.c ****  *   STATIC FUNCTIONS
 102:Middlewares/lvgl/src/extra/widgets/animimg/lv_animimg.c ****  **********************/
 103:Middlewares/lvgl/src/extra/widgets/animimg/lv_animimg.c **** 
 104:Middlewares/lvgl/src/extra/widgets/animimg/lv_animimg.c **** static void lv_animimg_constructor(const lv_obj_class_t * class_p, lv_obj_t * obj)
 105:Middlewares/lvgl/src/extra/widgets/animimg/lv_animimg.c **** {
  29              		.loc 1 105 1 view -0
  30              		.cfi_startproc
  31              		@ args = 0, pretend = 0, frame = 0
  32              		@ frame_needed = 0, uses_anonymous_args = 0
  33              		.loc 1 105 1 is_stmt 0 view .LVU1
  34 0000 38B5     		push	{r3, r4, r5, lr}
  35              	.LCFI0:
  36              		.cfi_def_cfa_offset 16
  37              		.cfi_offset 3, -16
  38              		.cfi_offset 4, -12
  39              		.cfi_offset 5, -8
  40              		.cfi_offset 14, -4
  41 0002 0C46     		mov	r4, r1
 106:Middlewares/lvgl/src/extra/widgets/animimg/lv_animimg.c ****     LV_TRACE_OBJ_CREATE("begin");
  42              		.loc 1 106 33 is_stmt 1 view .LVU2
 107:Middlewares/lvgl/src/extra/widgets/animimg/lv_animimg.c **** 
 108:Middlewares/lvgl/src/extra/widgets/animimg/lv_animimg.c ****     LV_UNUSED(class_p);
  43              		.loc 1 108 5 view .LVU3
 109:Middlewares/lvgl/src/extra/widgets/animimg/lv_animimg.c ****     lv_animimg_t * animimg = (lv_animimg_t *)obj;
  44              		.loc 1 109 5 view .LVU4
  45              	.LVL1:
 110:Middlewares/lvgl/src/extra/widgets/animimg/lv_animimg.c **** 
 111:Middlewares/lvgl/src/extra/widgets/animimg/lv_animimg.c ****     animimg->dsc = NULL;
  46              		.loc 1 111 5 view .LVU5
  47              		.loc 1 111 18 is_stmt 0 view .LVU6
  48 0004 0025     		movs	r5, #0
  49 0006 C1F88050 		str	r5, [r1, #128]
 112:Middlewares/lvgl/src/extra/widgets/animimg/lv_animimg.c ****     animimg->pic_count = -1;
  50              		.loc 1 112 5 is_stmt 1 view .LVU7
  51              		.loc 1 112 24 is_stmt 0 view .LVU8
  52 000a FF23     		movs	r3, #255
  53 000c 81F88430 		strb	r3, [r1, #132]
 113:Middlewares/lvgl/src/extra/widgets/animimg/lv_animimg.c ****     //initial animation
 114:Middlewares/lvgl/src/extra/widgets/animimg/lv_animimg.c ****     lv_anim_init(&animimg->anim);
  54              		.loc 1 114 5 is_stmt 1 view .LVU9
  55 0010 01F13C00 		add	r0, r1, #60
  56              	.LVL2:
  57              		.loc 1 114 5 is_stmt 0 view .LVU10
  58 0014 FFF7FEFF 		bl	lv_anim_init
ARM GAS  /tmp/ccTudxh6.s 			page 4


  59              	.LVL3:
 115:Middlewares/lvgl/src/extra/widgets/animimg/lv_animimg.c ****     lv_anim_set_var(&animimg->anim, obj);
  60              		.loc 1 115 5 is_stmt 1 view .LVU11
  61              	.LBB20:
  62              	.LBI20:
  63              		.file 2 "Middlewares/lvgl/src/extra/widgets/animimg/../../../../src/core/../misc/lv_anim.h"
   1:Middlewares/lvgl/src/extra/widgets/animimg/../../../../src/core/../misc/lv_anim.h **** /**
   2:Middlewares/lvgl/src/extra/widgets/animimg/../../../../src/core/../misc/lv_anim.h ****  * @file lv_anim.h
   3:Middlewares/lvgl/src/extra/widgets/animimg/../../../../src/core/../misc/lv_anim.h ****  *
   4:Middlewares/lvgl/src/extra/widgets/animimg/../../../../src/core/../misc/lv_anim.h ****  */
   5:Middlewares/lvgl/src/extra/widgets/animimg/../../../../src/core/../misc/lv_anim.h **** 
   6:Middlewares/lvgl/src/extra/widgets/animimg/../../../../src/core/../misc/lv_anim.h **** #ifndef LV_ANIM_H
   7:Middlewares/lvgl/src/extra/widgets/animimg/../../../../src/core/../misc/lv_anim.h **** #define LV_ANIM_H
   8:Middlewares/lvgl/src/extra/widgets/animimg/../../../../src/core/../misc/lv_anim.h **** 
   9:Middlewares/lvgl/src/extra/widgets/animimg/../../../../src/core/../misc/lv_anim.h **** #ifdef __cplusplus
  10:Middlewares/lvgl/src/extra/widgets/animimg/../../../../src/core/../misc/lv_anim.h **** extern "C" {
  11:Middlewares/lvgl/src/extra/widgets/animimg/../../../../src/core/../misc/lv_anim.h **** #endif
  12:Middlewares/lvgl/src/extra/widgets/animimg/../../../../src/core/../misc/lv_anim.h **** 
  13:Middlewares/lvgl/src/extra/widgets/animimg/../../../../src/core/../misc/lv_anim.h **** /*********************
  14:Middlewares/lvgl/src/extra/widgets/animimg/../../../../src/core/../misc/lv_anim.h ****  *      INCLUDES
  15:Middlewares/lvgl/src/extra/widgets/animimg/../../../../src/core/../misc/lv_anim.h ****  *********************/
  16:Middlewares/lvgl/src/extra/widgets/animimg/../../../../src/core/../misc/lv_anim.h **** #include "../lv_conf_internal.h"
  17:Middlewares/lvgl/src/extra/widgets/animimg/../../../../src/core/../misc/lv_anim.h **** 
  18:Middlewares/lvgl/src/extra/widgets/animimg/../../../../src/core/../misc/lv_anim.h **** #include <stdint.h>
  19:Middlewares/lvgl/src/extra/widgets/animimg/../../../../src/core/../misc/lv_anim.h **** #include <stdbool.h>
  20:Middlewares/lvgl/src/extra/widgets/animimg/../../../../src/core/../misc/lv_anim.h **** #include <string.h>
  21:Middlewares/lvgl/src/extra/widgets/animimg/../../../../src/core/../misc/lv_anim.h **** 
  22:Middlewares/lvgl/src/extra/widgets/animimg/../../../../src/core/../misc/lv_anim.h **** /*********************
  23:Middlewares/lvgl/src/extra/widgets/animimg/../../../../src/core/../misc/lv_anim.h ****  *      DEFINES
  24:Middlewares/lvgl/src/extra/widgets/animimg/../../../../src/core/../misc/lv_anim.h ****  *********************/
  25:Middlewares/lvgl/src/extra/widgets/animimg/../../../../src/core/../misc/lv_anim.h **** 
  26:Middlewares/lvgl/src/extra/widgets/animimg/../../../../src/core/../misc/lv_anim.h **** /**********************
  27:Middlewares/lvgl/src/extra/widgets/animimg/../../../../src/core/../misc/lv_anim.h ****  *      TYPEDEFS
  28:Middlewares/lvgl/src/extra/widgets/animimg/../../../../src/core/../misc/lv_anim.h ****  **********************/
  29:Middlewares/lvgl/src/extra/widgets/animimg/../../../../src/core/../misc/lv_anim.h **** 
  30:Middlewares/lvgl/src/extra/widgets/animimg/../../../../src/core/../misc/lv_anim.h **** /** Can be used to indicate if animations are enabled or disabled in a case*/
  31:Middlewares/lvgl/src/extra/widgets/animimg/../../../../src/core/../misc/lv_anim.h **** typedef enum {
  32:Middlewares/lvgl/src/extra/widgets/animimg/../../../../src/core/../misc/lv_anim.h ****     LV_ANIM_OFF,
  33:Middlewares/lvgl/src/extra/widgets/animimg/../../../../src/core/../misc/lv_anim.h ****     LV_ANIM_ON,
  34:Middlewares/lvgl/src/extra/widgets/animimg/../../../../src/core/../misc/lv_anim.h **** }lv_anim_enable_t;
  35:Middlewares/lvgl/src/extra/widgets/animimg/../../../../src/core/../misc/lv_anim.h **** 
  36:Middlewares/lvgl/src/extra/widgets/animimg/../../../../src/core/../misc/lv_anim.h **** #define LV_ANIM_REPEAT_INFINITE      0xFFFF
  37:Middlewares/lvgl/src/extra/widgets/animimg/../../../../src/core/../misc/lv_anim.h **** LV_EXPORT_CONST_INT(LV_ANIM_REPEAT_INFINITE);
  38:Middlewares/lvgl/src/extra/widgets/animimg/../../../../src/core/../misc/lv_anim.h **** 
  39:Middlewares/lvgl/src/extra/widgets/animimg/../../../../src/core/../misc/lv_anim.h **** struct _lv_anim_t;
  40:Middlewares/lvgl/src/extra/widgets/animimg/../../../../src/core/../misc/lv_anim.h **** 
  41:Middlewares/lvgl/src/extra/widgets/animimg/../../../../src/core/../misc/lv_anim.h **** /** Get the current value during an animation*/
  42:Middlewares/lvgl/src/extra/widgets/animimg/../../../../src/core/../misc/lv_anim.h **** typedef int32_t (*lv_anim_path_cb_t)(const struct _lv_anim_t *);
  43:Middlewares/lvgl/src/extra/widgets/animimg/../../../../src/core/../misc/lv_anim.h **** 
  44:Middlewares/lvgl/src/extra/widgets/animimg/../../../../src/core/../misc/lv_anim.h **** /** Generic prototype of "animator" functions.
  45:Middlewares/lvgl/src/extra/widgets/animimg/../../../../src/core/../misc/lv_anim.h ****  * First parameter is the variable to animate.
  46:Middlewares/lvgl/src/extra/widgets/animimg/../../../../src/core/../misc/lv_anim.h ****  * Second parameter is the value to set.
  47:Middlewares/lvgl/src/extra/widgets/animimg/../../../../src/core/../misc/lv_anim.h ****  * Compatible with `lv_xxx_set_yyy(obj, value)` functions
  48:Middlewares/lvgl/src/extra/widgets/animimg/../../../../src/core/../misc/lv_anim.h ****  * The `x` in `_xcb_t` means its not a fully generic prototype because
  49:Middlewares/lvgl/src/extra/widgets/animimg/../../../../src/core/../misc/lv_anim.h ****  * it doesn't receive `lv_anim_t *` as its first argument*/
  50:Middlewares/lvgl/src/extra/widgets/animimg/../../../../src/core/../misc/lv_anim.h **** typedef void (*lv_anim_exec_xcb_t)(void *, int32_t);
  51:Middlewares/lvgl/src/extra/widgets/animimg/../../../../src/core/../misc/lv_anim.h **** 
ARM GAS  /tmp/ccTudxh6.s 			page 5


  52:Middlewares/lvgl/src/extra/widgets/animimg/../../../../src/core/../misc/lv_anim.h **** /** Same as `lv_anim_exec_xcb_t` but receives `lv_anim_t *` as the first parameter.
  53:Middlewares/lvgl/src/extra/widgets/animimg/../../../../src/core/../misc/lv_anim.h ****  * It's more consistent but less convenient. Might be used by binding generator functions.*/
  54:Middlewares/lvgl/src/extra/widgets/animimg/../../../../src/core/../misc/lv_anim.h **** typedef void (*lv_anim_custom_exec_cb_t)(struct _lv_anim_t *, int32_t);
  55:Middlewares/lvgl/src/extra/widgets/animimg/../../../../src/core/../misc/lv_anim.h **** 
  56:Middlewares/lvgl/src/extra/widgets/animimg/../../../../src/core/../misc/lv_anim.h **** /** Callback to call when the animation is ready*/
  57:Middlewares/lvgl/src/extra/widgets/animimg/../../../../src/core/../misc/lv_anim.h **** typedef void (*lv_anim_ready_cb_t)(struct _lv_anim_t *);
  58:Middlewares/lvgl/src/extra/widgets/animimg/../../../../src/core/../misc/lv_anim.h **** 
  59:Middlewares/lvgl/src/extra/widgets/animimg/../../../../src/core/../misc/lv_anim.h **** /** Callback to call when the animation really stars (considering `delay`)*/
  60:Middlewares/lvgl/src/extra/widgets/animimg/../../../../src/core/../misc/lv_anim.h **** typedef void (*lv_anim_start_cb_t)(struct _lv_anim_t *);
  61:Middlewares/lvgl/src/extra/widgets/animimg/../../../../src/core/../misc/lv_anim.h **** 
  62:Middlewares/lvgl/src/extra/widgets/animimg/../../../../src/core/../misc/lv_anim.h **** /** Callback used when the animation values are relative to get the current value*/
  63:Middlewares/lvgl/src/extra/widgets/animimg/../../../../src/core/../misc/lv_anim.h **** typedef int32_t (*lv_anim_get_value_cb_t)(struct _lv_anim_t *);
  64:Middlewares/lvgl/src/extra/widgets/animimg/../../../../src/core/../misc/lv_anim.h **** 
  65:Middlewares/lvgl/src/extra/widgets/animimg/../../../../src/core/../misc/lv_anim.h **** /** Describes an animation*/
  66:Middlewares/lvgl/src/extra/widgets/animimg/../../../../src/core/../misc/lv_anim.h **** typedef struct _lv_anim_t {
  67:Middlewares/lvgl/src/extra/widgets/animimg/../../../../src/core/../misc/lv_anim.h ****     void * var;                          /**<Variable to animate*/
  68:Middlewares/lvgl/src/extra/widgets/animimg/../../../../src/core/../misc/lv_anim.h ****     lv_anim_exec_xcb_t exec_cb;          /**< Function to execute to animate*/
  69:Middlewares/lvgl/src/extra/widgets/animimg/../../../../src/core/../misc/lv_anim.h ****     lv_anim_start_cb_t start_cb;         /**< Call it when the animation is starts (considering `de
  70:Middlewares/lvgl/src/extra/widgets/animimg/../../../../src/core/../misc/lv_anim.h ****     lv_anim_ready_cb_t ready_cb;         /**< Call it when the animation is ready*/
  71:Middlewares/lvgl/src/extra/widgets/animimg/../../../../src/core/../misc/lv_anim.h ****     lv_anim_get_value_cb_t get_value_cb; /**< Get the current value in relative mode*/
  72:Middlewares/lvgl/src/extra/widgets/animimg/../../../../src/core/../misc/lv_anim.h **** #if LV_USE_USER_DATA
  73:Middlewares/lvgl/src/extra/widgets/animimg/../../../../src/core/../misc/lv_anim.h ****     void * user_data; /**< Custom user data*/
  74:Middlewares/lvgl/src/extra/widgets/animimg/../../../../src/core/../misc/lv_anim.h **** #endif
  75:Middlewares/lvgl/src/extra/widgets/animimg/../../../../src/core/../misc/lv_anim.h ****     lv_anim_path_cb_t path_cb;         /**< Describe the path (curve) of animations*/
  76:Middlewares/lvgl/src/extra/widgets/animimg/../../../../src/core/../misc/lv_anim.h ****     int32_t start_value;               /**< Start value*/
  77:Middlewares/lvgl/src/extra/widgets/animimg/../../../../src/core/../misc/lv_anim.h ****     int32_t current_value;             /**< Current value*/
  78:Middlewares/lvgl/src/extra/widgets/animimg/../../../../src/core/../misc/lv_anim.h ****     int32_t end_value;                 /**< End value*/
  79:Middlewares/lvgl/src/extra/widgets/animimg/../../../../src/core/../misc/lv_anim.h ****     int32_t time;                /**< Animation time in ms*/
  80:Middlewares/lvgl/src/extra/widgets/animimg/../../../../src/core/../misc/lv_anim.h ****     int32_t act_time;            /**< Current time in animation. Set to negative to make delay.*/
  81:Middlewares/lvgl/src/extra/widgets/animimg/../../../../src/core/../misc/lv_anim.h ****     uint32_t playback_delay;     /**< Wait before play back*/
  82:Middlewares/lvgl/src/extra/widgets/animimg/../../../../src/core/../misc/lv_anim.h ****     uint32_t playback_time;      /**< Duration of playback animation*/
  83:Middlewares/lvgl/src/extra/widgets/animimg/../../../../src/core/../misc/lv_anim.h ****     uint32_t repeat_delay;       /**< Wait before repeat*/
  84:Middlewares/lvgl/src/extra/widgets/animimg/../../../../src/core/../misc/lv_anim.h ****     uint16_t repeat_cnt;         /**< Repeat count for the animation*/
  85:Middlewares/lvgl/src/extra/widgets/animimg/../../../../src/core/../misc/lv_anim.h ****     uint8_t early_apply  : 1;    /**< 1: Apply start value immediately even is there is `delay`*/
  86:Middlewares/lvgl/src/extra/widgets/animimg/../../../../src/core/../misc/lv_anim.h **** 
  87:Middlewares/lvgl/src/extra/widgets/animimg/../../../../src/core/../misc/lv_anim.h ****     /*Animation system use these - user shouldn't set*/
  88:Middlewares/lvgl/src/extra/widgets/animimg/../../../../src/core/../misc/lv_anim.h ****     uint8_t playback_now : 1; /**< Play back is in progress*/
  89:Middlewares/lvgl/src/extra/widgets/animimg/../../../../src/core/../misc/lv_anim.h ****     uint8_t run_round : 1;    /**< Indicates the animation has run in this round*/
  90:Middlewares/lvgl/src/extra/widgets/animimg/../../../../src/core/../misc/lv_anim.h ****     uint8_t start_cb_called : 1;    /**< Indicates that the `start_cb` was already called*/
  91:Middlewares/lvgl/src/extra/widgets/animimg/../../../../src/core/../misc/lv_anim.h ****     uint32_t time_orig;
  92:Middlewares/lvgl/src/extra/widgets/animimg/../../../../src/core/../misc/lv_anim.h **** } lv_anim_t;
  93:Middlewares/lvgl/src/extra/widgets/animimg/../../../../src/core/../misc/lv_anim.h **** 
  94:Middlewares/lvgl/src/extra/widgets/animimg/../../../../src/core/../misc/lv_anim.h **** /**********************
  95:Middlewares/lvgl/src/extra/widgets/animimg/../../../../src/core/../misc/lv_anim.h ****  * GLOBAL PROTOTYPES
  96:Middlewares/lvgl/src/extra/widgets/animimg/../../../../src/core/../misc/lv_anim.h ****  **********************/
  97:Middlewares/lvgl/src/extra/widgets/animimg/../../../../src/core/../misc/lv_anim.h **** 
  98:Middlewares/lvgl/src/extra/widgets/animimg/../../../../src/core/../misc/lv_anim.h **** /**
  99:Middlewares/lvgl/src/extra/widgets/animimg/../../../../src/core/../misc/lv_anim.h ****  * Init. the animation module
 100:Middlewares/lvgl/src/extra/widgets/animimg/../../../../src/core/../misc/lv_anim.h ****  */
 101:Middlewares/lvgl/src/extra/widgets/animimg/../../../../src/core/../misc/lv_anim.h **** void _lv_anim_core_init(void);
 102:Middlewares/lvgl/src/extra/widgets/animimg/../../../../src/core/../misc/lv_anim.h **** 
 103:Middlewares/lvgl/src/extra/widgets/animimg/../../../../src/core/../misc/lv_anim.h **** /**
 104:Middlewares/lvgl/src/extra/widgets/animimg/../../../../src/core/../misc/lv_anim.h ****  * Initialize an animation variable.
 105:Middlewares/lvgl/src/extra/widgets/animimg/../../../../src/core/../misc/lv_anim.h ****  * E.g.:
 106:Middlewares/lvgl/src/extra/widgets/animimg/../../../../src/core/../misc/lv_anim.h ****  * lv_anim_t a;
 107:Middlewares/lvgl/src/extra/widgets/animimg/../../../../src/core/../misc/lv_anim.h ****  * lv_anim_init(&a);
 108:Middlewares/lvgl/src/extra/widgets/animimg/../../../../src/core/../misc/lv_anim.h ****  * lv_anim_set_...(&a);
ARM GAS  /tmp/ccTudxh6.s 			page 6


 109:Middlewares/lvgl/src/extra/widgets/animimg/../../../../src/core/../misc/lv_anim.h ****  * lv_anim_start(&a);
 110:Middlewares/lvgl/src/extra/widgets/animimg/../../../../src/core/../misc/lv_anim.h ****  * @param a     pointer to an `lv_anim_t` variable to initialize
 111:Middlewares/lvgl/src/extra/widgets/animimg/../../../../src/core/../misc/lv_anim.h ****  */
 112:Middlewares/lvgl/src/extra/widgets/animimg/../../../../src/core/../misc/lv_anim.h **** void lv_anim_init(lv_anim_t * a);
 113:Middlewares/lvgl/src/extra/widgets/animimg/../../../../src/core/../misc/lv_anim.h **** 
 114:Middlewares/lvgl/src/extra/widgets/animimg/../../../../src/core/../misc/lv_anim.h **** /**
 115:Middlewares/lvgl/src/extra/widgets/animimg/../../../../src/core/../misc/lv_anim.h ****  * Set a variable to animate
 116:Middlewares/lvgl/src/extra/widgets/animimg/../../../../src/core/../misc/lv_anim.h ****  * @param a     pointer to an initialized `lv_anim_t` variable
 117:Middlewares/lvgl/src/extra/widgets/animimg/../../../../src/core/../misc/lv_anim.h ****  * @param var   pointer to a variable to animate
 118:Middlewares/lvgl/src/extra/widgets/animimg/../../../../src/core/../misc/lv_anim.h ****  */
 119:Middlewares/lvgl/src/extra/widgets/animimg/../../../../src/core/../misc/lv_anim.h **** static inline void lv_anim_set_var(lv_anim_t * a, void * var)
  64              		.loc 2 119 20 view .LVU12
  65              	.LBB21:
 120:Middlewares/lvgl/src/extra/widgets/animimg/../../../../src/core/../misc/lv_anim.h **** {
 121:Middlewares/lvgl/src/extra/widgets/animimg/../../../../src/core/../misc/lv_anim.h ****     a->var = var;
  66              		.loc 2 121 5 view .LVU13
  67              		.loc 2 121 12 is_stmt 0 view .LVU14
  68 0018 E463     		str	r4, [r4, #60]
  69              	.LVL4:
  70              		.loc 2 121 12 view .LVU15
  71              	.LBE21:
  72              	.LBE20:
 116:Middlewares/lvgl/src/extra/widgets/animimg/lv_animimg.c ****     lv_anim_set_time(&animimg->anim, 30);
  73              		.loc 1 116 5 is_stmt 1 view .LVU16
  74              	.LBB22:
  75              	.LBI22:
 122:Middlewares/lvgl/src/extra/widgets/animimg/../../../../src/core/../misc/lv_anim.h **** }
 123:Middlewares/lvgl/src/extra/widgets/animimg/../../../../src/core/../misc/lv_anim.h **** 
 124:Middlewares/lvgl/src/extra/widgets/animimg/../../../../src/core/../misc/lv_anim.h **** /**
 125:Middlewares/lvgl/src/extra/widgets/animimg/../../../../src/core/../misc/lv_anim.h ****  * Set a function to animate `var`
 126:Middlewares/lvgl/src/extra/widgets/animimg/../../../../src/core/../misc/lv_anim.h ****  * @param a         pointer to an initialized `lv_anim_t` variable
 127:Middlewares/lvgl/src/extra/widgets/animimg/../../../../src/core/../misc/lv_anim.h ****  * @param exec_cb   a function to execute during animation
 128:Middlewares/lvgl/src/extra/widgets/animimg/../../../../src/core/../misc/lv_anim.h ****  *                  LVGL's built-in functions can be used.
 129:Middlewares/lvgl/src/extra/widgets/animimg/../../../../src/core/../misc/lv_anim.h ****  *                  E.g. lv_obj_set_x
 130:Middlewares/lvgl/src/extra/widgets/animimg/../../../../src/core/../misc/lv_anim.h ****  */
 131:Middlewares/lvgl/src/extra/widgets/animimg/../../../../src/core/../misc/lv_anim.h **** static inline void lv_anim_set_exec_cb(lv_anim_t * a, lv_anim_exec_xcb_t exec_cb)
 132:Middlewares/lvgl/src/extra/widgets/animimg/../../../../src/core/../misc/lv_anim.h **** {
 133:Middlewares/lvgl/src/extra/widgets/animimg/../../../../src/core/../misc/lv_anim.h ****     a->exec_cb = exec_cb;
 134:Middlewares/lvgl/src/extra/widgets/animimg/../../../../src/core/../misc/lv_anim.h **** }
 135:Middlewares/lvgl/src/extra/widgets/animimg/../../../../src/core/../misc/lv_anim.h **** 
 136:Middlewares/lvgl/src/extra/widgets/animimg/../../../../src/core/../misc/lv_anim.h **** /**
 137:Middlewares/lvgl/src/extra/widgets/animimg/../../../../src/core/../misc/lv_anim.h ****  * Set the duration of an animation
 138:Middlewares/lvgl/src/extra/widgets/animimg/../../../../src/core/../misc/lv_anim.h ****  * @param a         pointer to an initialized `lv_anim_t` variable
 139:Middlewares/lvgl/src/extra/widgets/animimg/../../../../src/core/../misc/lv_anim.h ****  * @param duration  duration of the animation in milliseconds
 140:Middlewares/lvgl/src/extra/widgets/animimg/../../../../src/core/../misc/lv_anim.h ****  */
 141:Middlewares/lvgl/src/extra/widgets/animimg/../../../../src/core/../misc/lv_anim.h **** static inline void lv_anim_set_time(lv_anim_t * a, uint32_t duration)
  76              		.loc 2 141 20 view .LVU17
  77              	.LBB23:
 142:Middlewares/lvgl/src/extra/widgets/animimg/../../../../src/core/../misc/lv_anim.h **** {
 143:Middlewares/lvgl/src/extra/widgets/animimg/../../../../src/core/../misc/lv_anim.h ****     a->time = duration;
  78              		.loc 2 143 5 view .LVU18
  79              		.loc 2 143 13 is_stmt 0 view .LVU19
  80 001a 1E23     		movs	r3, #30
  81 001c 6366     		str	r3, [r4, #100]
  82              	.LVL5:
  83              		.loc 2 143 13 view .LVU20
  84              	.LBE23:
ARM GAS  /tmp/ccTudxh6.s 			page 7


  85              	.LBE22:
 117:Middlewares/lvgl/src/extra/widgets/animimg/lv_animimg.c ****     lv_anim_set_exec_cb(&animimg->anim, (lv_anim_exec_xcb_t)index_change);
  86              		.loc 1 117 5 is_stmt 1 view .LVU21
  87              	.LBB24:
  88              	.LBI24:
 131:Middlewares/lvgl/src/extra/widgets/animimg/../../../../src/core/../misc/lv_anim.h **** {
  89              		.loc 2 131 20 view .LVU22
  90              	.LBB25:
 133:Middlewares/lvgl/src/extra/widgets/animimg/../../../../src/core/../misc/lv_anim.h **** }
  91              		.loc 2 133 5 view .LVU23
 133:Middlewares/lvgl/src/extra/widgets/animimg/../../../../src/core/../misc/lv_anim.h **** }
  92              		.loc 2 133 16 is_stmt 0 view .LVU24
  93 001e 054B     		ldr	r3, .L3
  94 0020 2364     		str	r3, [r4, #64]
  95              	.LVL6:
 133:Middlewares/lvgl/src/extra/widgets/animimg/../../../../src/core/../misc/lv_anim.h **** }
  96              		.loc 2 133 16 view .LVU25
  97              	.LBE25:
  98              	.LBE24:
 118:Middlewares/lvgl/src/extra/widgets/animimg/lv_animimg.c ****     lv_anim_set_values(&animimg->anim, 0 , 1);
  99              		.loc 1 118 5 is_stmt 1 view .LVU26
 100              	.LBB26:
 101              	.LBI26:
 144:Middlewares/lvgl/src/extra/widgets/animimg/../../../../src/core/../misc/lv_anim.h **** }
 145:Middlewares/lvgl/src/extra/widgets/animimg/../../../../src/core/../misc/lv_anim.h **** 
 146:Middlewares/lvgl/src/extra/widgets/animimg/../../../../src/core/../misc/lv_anim.h **** /**
 147:Middlewares/lvgl/src/extra/widgets/animimg/../../../../src/core/../misc/lv_anim.h ****  * Set a delay before starting the animation
 148:Middlewares/lvgl/src/extra/widgets/animimg/../../../../src/core/../misc/lv_anim.h ****  * @param a         pointer to an initialized `lv_anim_t` variable
 149:Middlewares/lvgl/src/extra/widgets/animimg/../../../../src/core/../misc/lv_anim.h ****  * @param delay     delay before the animation in milliseconds
 150:Middlewares/lvgl/src/extra/widgets/animimg/../../../../src/core/../misc/lv_anim.h ****  */
 151:Middlewares/lvgl/src/extra/widgets/animimg/../../../../src/core/../misc/lv_anim.h **** static inline void lv_anim_set_delay(lv_anim_t * a, uint32_t delay)
 152:Middlewares/lvgl/src/extra/widgets/animimg/../../../../src/core/../misc/lv_anim.h **** {
 153:Middlewares/lvgl/src/extra/widgets/animimg/../../../../src/core/../misc/lv_anim.h ****     a->act_time = -(int32_t)(delay);
 154:Middlewares/lvgl/src/extra/widgets/animimg/../../../../src/core/../misc/lv_anim.h **** }
 155:Middlewares/lvgl/src/extra/widgets/animimg/../../../../src/core/../misc/lv_anim.h **** 
 156:Middlewares/lvgl/src/extra/widgets/animimg/../../../../src/core/../misc/lv_anim.h **** /**
 157:Middlewares/lvgl/src/extra/widgets/animimg/../../../../src/core/../misc/lv_anim.h ****  * Set the start and end values of an animation
 158:Middlewares/lvgl/src/extra/widgets/animimg/../../../../src/core/../misc/lv_anim.h ****  * @param a         pointer to an initialized `lv_anim_t` variable
 159:Middlewares/lvgl/src/extra/widgets/animimg/../../../../src/core/../misc/lv_anim.h ****  * @param start     the start value
 160:Middlewares/lvgl/src/extra/widgets/animimg/../../../../src/core/../misc/lv_anim.h ****  * @param end       the end value
 161:Middlewares/lvgl/src/extra/widgets/animimg/../../../../src/core/../misc/lv_anim.h ****  */
 162:Middlewares/lvgl/src/extra/widgets/animimg/../../../../src/core/../misc/lv_anim.h **** static inline void lv_anim_set_values(lv_anim_t * a, int32_t start, int32_t end)
 102              		.loc 2 162 20 view .LVU27
 103              	.LBB27:
 163:Middlewares/lvgl/src/extra/widgets/animimg/../../../../src/core/../misc/lv_anim.h **** {
 164:Middlewares/lvgl/src/extra/widgets/animimg/../../../../src/core/../misc/lv_anim.h ****     a->start_value = start;
 104              		.loc 2 164 5 view .LVU28
 105              		.loc 2 164 20 is_stmt 0 view .LVU29
 106 0022 A565     		str	r5, [r4, #88]
 165:Middlewares/lvgl/src/extra/widgets/animimg/../../../../src/core/../misc/lv_anim.h ****     a->current_value = start;
 107              		.loc 2 165 5 is_stmt 1 view .LVU30
 108              		.loc 2 165 22 is_stmt 0 view .LVU31
 109 0024 E565     		str	r5, [r4, #92]
 166:Middlewares/lvgl/src/extra/widgets/animimg/../../../../src/core/../misc/lv_anim.h ****     a->end_value = end;
 110              		.loc 2 166 5 is_stmt 1 view .LVU32
 111              		.loc 2 166 18 is_stmt 0 view .LVU33
 112 0026 0123     		movs	r3, #1
ARM GAS  /tmp/ccTudxh6.s 			page 8


 113 0028 2366     		str	r3, [r4, #96]
 114              	.LVL7:
 115              		.loc 2 166 18 view .LVU34
 116              	.LBE27:
 117              	.LBE26:
 119:Middlewares/lvgl/src/extra/widgets/animimg/lv_animimg.c ****     lv_anim_set_repeat_count(&animimg->anim, LV_ANIM_REPEAT_INFINITE);
 118              		.loc 1 119 5 is_stmt 1 view .LVU35
 119              	.LBB28:
 120              	.LBI28:
 167:Middlewares/lvgl/src/extra/widgets/animimg/../../../../src/core/../misc/lv_anim.h **** }
 168:Middlewares/lvgl/src/extra/widgets/animimg/../../../../src/core/../misc/lv_anim.h **** 
 169:Middlewares/lvgl/src/extra/widgets/animimg/../../../../src/core/../misc/lv_anim.h **** /**
 170:Middlewares/lvgl/src/extra/widgets/animimg/../../../../src/core/../misc/lv_anim.h ****  * Similar to `lv_anim_set_exec_cb` but `lv_anim_custom_exec_cb_t` receives
 171:Middlewares/lvgl/src/extra/widgets/animimg/../../../../src/core/../misc/lv_anim.h ****  * `lv_anim_t * ` as its first parameter instead of `void *`.
 172:Middlewares/lvgl/src/extra/widgets/animimg/../../../../src/core/../misc/lv_anim.h ****  * This function might be used when LVGL is binded to other languages because
 173:Middlewares/lvgl/src/extra/widgets/animimg/../../../../src/core/../misc/lv_anim.h ****  * it's more consistent to have `lv_anim_t *` as first parameter.
 174:Middlewares/lvgl/src/extra/widgets/animimg/../../../../src/core/../misc/lv_anim.h ****  * The variable to animate can be stored in the animation's `user_sata`
 175:Middlewares/lvgl/src/extra/widgets/animimg/../../../../src/core/../misc/lv_anim.h ****  * @param a         pointer to an initialized `lv_anim_t` variable
 176:Middlewares/lvgl/src/extra/widgets/animimg/../../../../src/core/../misc/lv_anim.h ****  * @param exec_cb   a function to execute.
 177:Middlewares/lvgl/src/extra/widgets/animimg/../../../../src/core/../misc/lv_anim.h ****  */
 178:Middlewares/lvgl/src/extra/widgets/animimg/../../../../src/core/../misc/lv_anim.h **** static inline void lv_anim_set_custom_exec_cb(lv_anim_t * a, lv_anim_custom_exec_cb_t exec_cb)
 179:Middlewares/lvgl/src/extra/widgets/animimg/../../../../src/core/../misc/lv_anim.h **** {
 180:Middlewares/lvgl/src/extra/widgets/animimg/../../../../src/core/../misc/lv_anim.h ****     a->var     = a;
 181:Middlewares/lvgl/src/extra/widgets/animimg/../../../../src/core/../misc/lv_anim.h ****     a->exec_cb = (lv_anim_exec_xcb_t)exec_cb;
 182:Middlewares/lvgl/src/extra/widgets/animimg/../../../../src/core/../misc/lv_anim.h **** }
 183:Middlewares/lvgl/src/extra/widgets/animimg/../../../../src/core/../misc/lv_anim.h **** 
 184:Middlewares/lvgl/src/extra/widgets/animimg/../../../../src/core/../misc/lv_anim.h **** /**
 185:Middlewares/lvgl/src/extra/widgets/animimg/../../../../src/core/../misc/lv_anim.h ****  * Set the path (curve) of the animation.
 186:Middlewares/lvgl/src/extra/widgets/animimg/../../../../src/core/../misc/lv_anim.h ****  * @param a         pointer to an initialized `lv_anim_t` variable
 187:Middlewares/lvgl/src/extra/widgets/animimg/../../../../src/core/../misc/lv_anim.h ****  * @param path_cb a function the get the current value of the animation.
 188:Middlewares/lvgl/src/extra/widgets/animimg/../../../../src/core/../misc/lv_anim.h ****  */
 189:Middlewares/lvgl/src/extra/widgets/animimg/../../../../src/core/../misc/lv_anim.h **** static inline void lv_anim_set_path_cb(lv_anim_t * a, lv_anim_path_cb_t path_cb)
 190:Middlewares/lvgl/src/extra/widgets/animimg/../../../../src/core/../misc/lv_anim.h **** {
 191:Middlewares/lvgl/src/extra/widgets/animimg/../../../../src/core/../misc/lv_anim.h ****     a->path_cb = path_cb;
 192:Middlewares/lvgl/src/extra/widgets/animimg/../../../../src/core/../misc/lv_anim.h **** }
 193:Middlewares/lvgl/src/extra/widgets/animimg/../../../../src/core/../misc/lv_anim.h **** 
 194:Middlewares/lvgl/src/extra/widgets/animimg/../../../../src/core/../misc/lv_anim.h **** /**
 195:Middlewares/lvgl/src/extra/widgets/animimg/../../../../src/core/../misc/lv_anim.h ****  * Set a function call when the animation really starts (considering `delay`)
 196:Middlewares/lvgl/src/extra/widgets/animimg/../../../../src/core/../misc/lv_anim.h ****  * @param a         pointer to an initialized `lv_anim_t` variable
 197:Middlewares/lvgl/src/extra/widgets/animimg/../../../../src/core/../misc/lv_anim.h ****  * @param start_cb  a function call when the animation starts
 198:Middlewares/lvgl/src/extra/widgets/animimg/../../../../src/core/../misc/lv_anim.h ****  */
 199:Middlewares/lvgl/src/extra/widgets/animimg/../../../../src/core/../misc/lv_anim.h **** static inline void lv_anim_set_start_cb(lv_anim_t * a, lv_anim_ready_cb_t start_cb)
 200:Middlewares/lvgl/src/extra/widgets/animimg/../../../../src/core/../misc/lv_anim.h **** {
 201:Middlewares/lvgl/src/extra/widgets/animimg/../../../../src/core/../misc/lv_anim.h ****     a->start_cb = start_cb;
 202:Middlewares/lvgl/src/extra/widgets/animimg/../../../../src/core/../misc/lv_anim.h **** }
 203:Middlewares/lvgl/src/extra/widgets/animimg/../../../../src/core/../misc/lv_anim.h **** 
 204:Middlewares/lvgl/src/extra/widgets/animimg/../../../../src/core/../misc/lv_anim.h **** /**
 205:Middlewares/lvgl/src/extra/widgets/animimg/../../../../src/core/../misc/lv_anim.h ****  * Set a function to use the current value of the variable and make start and end value
 206:Middlewares/lvgl/src/extra/widgets/animimg/../../../../src/core/../misc/lv_anim.h ****  * relative the the returned current value.
 207:Middlewares/lvgl/src/extra/widgets/animimg/../../../../src/core/../misc/lv_anim.h ****  * @param a             pointer to an initialized `lv_anim_t` variable
 208:Middlewares/lvgl/src/extra/widgets/animimg/../../../../src/core/../misc/lv_anim.h ****  * @param get_value_cb  a function call when the animation starts
 209:Middlewares/lvgl/src/extra/widgets/animimg/../../../../src/core/../misc/lv_anim.h ****  */
 210:Middlewares/lvgl/src/extra/widgets/animimg/../../../../src/core/../misc/lv_anim.h **** static inline void lv_anim_set_get_value_cb(lv_anim_t * a, lv_anim_get_value_cb_t get_value_cb)
 211:Middlewares/lvgl/src/extra/widgets/animimg/../../../../src/core/../misc/lv_anim.h **** {
 212:Middlewares/lvgl/src/extra/widgets/animimg/../../../../src/core/../misc/lv_anim.h ****     a->get_value_cb = get_value_cb;
 213:Middlewares/lvgl/src/extra/widgets/animimg/../../../../src/core/../misc/lv_anim.h **** }
 214:Middlewares/lvgl/src/extra/widgets/animimg/../../../../src/core/../misc/lv_anim.h **** 
ARM GAS  /tmp/ccTudxh6.s 			page 9


 215:Middlewares/lvgl/src/extra/widgets/animimg/../../../../src/core/../misc/lv_anim.h **** /**
 216:Middlewares/lvgl/src/extra/widgets/animimg/../../../../src/core/../misc/lv_anim.h ****  * Set a function call when the animation is ready
 217:Middlewares/lvgl/src/extra/widgets/animimg/../../../../src/core/../misc/lv_anim.h ****  * @param a         pointer to an initialized `lv_anim_t` variable
 218:Middlewares/lvgl/src/extra/widgets/animimg/../../../../src/core/../misc/lv_anim.h ****  * @param ready_cb  a function call when the animation is ready
 219:Middlewares/lvgl/src/extra/widgets/animimg/../../../../src/core/../misc/lv_anim.h ****  */
 220:Middlewares/lvgl/src/extra/widgets/animimg/../../../../src/core/../misc/lv_anim.h **** static inline void lv_anim_set_ready_cb(lv_anim_t * a, lv_anim_ready_cb_t ready_cb)
 221:Middlewares/lvgl/src/extra/widgets/animimg/../../../../src/core/../misc/lv_anim.h **** {
 222:Middlewares/lvgl/src/extra/widgets/animimg/../../../../src/core/../misc/lv_anim.h ****     a->ready_cb = ready_cb;
 223:Middlewares/lvgl/src/extra/widgets/animimg/../../../../src/core/../misc/lv_anim.h **** }
 224:Middlewares/lvgl/src/extra/widgets/animimg/../../../../src/core/../misc/lv_anim.h **** /**
 225:Middlewares/lvgl/src/extra/widgets/animimg/../../../../src/core/../misc/lv_anim.h ****  * Make the animation to play back to when the forward direction is ready
 226:Middlewares/lvgl/src/extra/widgets/animimg/../../../../src/core/../misc/lv_anim.h ****  * @param a         pointer to an initialized `lv_anim_t` variable
 227:Middlewares/lvgl/src/extra/widgets/animimg/../../../../src/core/../misc/lv_anim.h ****  * @param time      the duration of the playback animation in in milliseconds. 0: disable playback
 228:Middlewares/lvgl/src/extra/widgets/animimg/../../../../src/core/../misc/lv_anim.h ****  */
 229:Middlewares/lvgl/src/extra/widgets/animimg/../../../../src/core/../misc/lv_anim.h **** static inline void lv_anim_set_playback_time(lv_anim_t * a, uint32_t time)
 230:Middlewares/lvgl/src/extra/widgets/animimg/../../../../src/core/../misc/lv_anim.h **** {
 231:Middlewares/lvgl/src/extra/widgets/animimg/../../../../src/core/../misc/lv_anim.h ****     a->playback_time = time;
 232:Middlewares/lvgl/src/extra/widgets/animimg/../../../../src/core/../misc/lv_anim.h **** }
 233:Middlewares/lvgl/src/extra/widgets/animimg/../../../../src/core/../misc/lv_anim.h **** 
 234:Middlewares/lvgl/src/extra/widgets/animimg/../../../../src/core/../misc/lv_anim.h **** /**
 235:Middlewares/lvgl/src/extra/widgets/animimg/../../../../src/core/../misc/lv_anim.h ****  * Make the animation to play back to when the forward direction is ready
 236:Middlewares/lvgl/src/extra/widgets/animimg/../../../../src/core/../misc/lv_anim.h ****  * @param a         pointer to an initialized `lv_anim_t` variable
 237:Middlewares/lvgl/src/extra/widgets/animimg/../../../../src/core/../misc/lv_anim.h ****  * @param delay     delay in milliseconds before starting the playback animation.
 238:Middlewares/lvgl/src/extra/widgets/animimg/../../../../src/core/../misc/lv_anim.h ****  */
 239:Middlewares/lvgl/src/extra/widgets/animimg/../../../../src/core/../misc/lv_anim.h **** static inline void lv_anim_set_playback_delay(lv_anim_t * a, uint32_t delay)
 240:Middlewares/lvgl/src/extra/widgets/animimg/../../../../src/core/../misc/lv_anim.h **** {
 241:Middlewares/lvgl/src/extra/widgets/animimg/../../../../src/core/../misc/lv_anim.h ****     a->playback_delay = delay;
 242:Middlewares/lvgl/src/extra/widgets/animimg/../../../../src/core/../misc/lv_anim.h **** }
 243:Middlewares/lvgl/src/extra/widgets/animimg/../../../../src/core/../misc/lv_anim.h **** 
 244:Middlewares/lvgl/src/extra/widgets/animimg/../../../../src/core/../misc/lv_anim.h **** /**
 245:Middlewares/lvgl/src/extra/widgets/animimg/../../../../src/core/../misc/lv_anim.h ****  * Make the animation repeat itself.
 246:Middlewares/lvgl/src/extra/widgets/animimg/../../../../src/core/../misc/lv_anim.h ****  * @param a         pointer to an initialized `lv_anim_t` variable
 247:Middlewares/lvgl/src/extra/widgets/animimg/../../../../src/core/../misc/lv_anim.h ****  * @param cnt       repeat count or `LV_ANIM_REPEAT_INFINITE` for infinite repetition. 0: to disabl
 248:Middlewares/lvgl/src/extra/widgets/animimg/../../../../src/core/../misc/lv_anim.h ****  */
 249:Middlewares/lvgl/src/extra/widgets/animimg/../../../../src/core/../misc/lv_anim.h **** static inline void lv_anim_set_repeat_count(lv_anim_t * a, uint16_t cnt)
 121              		.loc 2 249 20 view .LVU36
 122              	.LBB29:
 250:Middlewares/lvgl/src/extra/widgets/animimg/../../../../src/core/../misc/lv_anim.h **** {
 251:Middlewares/lvgl/src/extra/widgets/animimg/../../../../src/core/../misc/lv_anim.h ****     a->repeat_cnt = cnt;
 123              		.loc 2 251 5 view .LVU37
 124              		.loc 2 251 19 is_stmt 0 view .LVU38
 125 002a 4FF6FF73 		movw	r3, #65535
 126 002e A4F87830 		strh	r3, [r4, #120]	@ movhi
 127              	.LVL8:
 128              		.loc 2 251 19 view .LVU39
 129              	.LBE29:
 130              	.LBE28:
 120:Middlewares/lvgl/src/extra/widgets/animimg/lv_animimg.c **** }
 131              		.loc 1 120 1 view .LVU40
 132 0032 38BD     		pop	{r3, r4, r5, pc}
 133              	.LVL9:
 134              	.L4:
 135              		.loc 1 120 1 view .LVU41
 136              		.align	2
 137              	.L3:
 138 0034 00000000 		.word	index_change
 139              		.cfi_endproc
ARM GAS  /tmp/ccTudxh6.s 			page 10


 140              	.LFE189:
 142              		.section	.text.index_change,"ax",%progbits
 143              		.align	1
 144              		.syntax unified
 145              		.thumb
 146              		.thumb_func
 147              		.fpu fpv4-sp-d16
 149              	index_change:
 150              	.LVL10:
 151              	.LFB190:
 121:Middlewares/lvgl/src/extra/widgets/animimg/lv_animimg.c **** 
 122:Middlewares/lvgl/src/extra/widgets/animimg/lv_animimg.c **** static void index_change(lv_obj_t * obj, int32_t index)
 123:Middlewares/lvgl/src/extra/widgets/animimg/lv_animimg.c **** {
 152              		.loc 1 123 1 is_stmt 1 view -0
 153              		.cfi_startproc
 154              		@ args = 0, pretend = 0, frame = 0
 155              		@ frame_needed = 0, uses_anonymous_args = 0
 156              		.loc 1 123 1 is_stmt 0 view .LVU43
 157 0000 08B5     		push	{r3, lr}
 158              	.LCFI1:
 159              		.cfi_def_cfa_offset 8
 160              		.cfi_offset 3, -8
 161              		.cfi_offset 14, -4
 124:Middlewares/lvgl/src/extra/widgets/animimg/lv_animimg.c ****     lv_coord_t idx;
 162              		.loc 1 124 5 is_stmt 1 view .LVU44
 125:Middlewares/lvgl/src/extra/widgets/animimg/lv_animimg.c ****     lv_animimg_t * animimg = (lv_animimg_t *)obj;
 163              		.loc 1 125 5 view .LVU45
 164              	.LVL11:
 126:Middlewares/lvgl/src/extra/widgets/animimg/lv_animimg.c **** 
 127:Middlewares/lvgl/src/extra/widgets/animimg/lv_animimg.c ****     idx = index % animimg->pic_count;
 165              		.loc 1 127 5 view .LVU46
 166              		.loc 1 127 26 is_stmt 0 view .LVU47
 167 0002 90F98420 		ldrsb	r2, [r0, #132]
 168              		.loc 1 127 17 view .LVU48
 169 0006 91FBF2FC 		sdiv	ip, r1, r2
 170 000a 02FB1C11 		mls	r1, r2, ip, r1
 171              	.LVL12:
 172              		.loc 1 127 9 view .LVU49
 173 000e 09B2     		sxth	r1, r1
 174              	.LVL13:
 128:Middlewares/lvgl/src/extra/widgets/animimg/lv_animimg.c **** 
 129:Middlewares/lvgl/src/extra/widgets/animimg/lv_animimg.c ****     lv_img_set_src(obj, animimg->dsc[idx]);
 175              		.loc 1 129 5 is_stmt 1 view .LVU50
 176              		.loc 1 129 32 is_stmt 0 view .LVU51
 177 0010 D0F88030 		ldr	r3, [r0, #128]
 178              		.loc 1 129 5 view .LVU52
 179 0014 53F82110 		ldr	r1, [r3, r1, lsl #2]
 180              	.LVL14:
 181              		.loc 1 129 5 view .LVU53
 182 0018 FFF7FEFF 		bl	lv_img_set_src
 183              	.LVL15:
 130:Middlewares/lvgl/src/extra/widgets/animimg/lv_animimg.c **** }
 184              		.loc 1 130 1 view .LVU54
 185 001c 08BD     		pop	{r3, pc}
 186              		.cfi_endproc
 187              	.LFE190:
 189              		.section	.text.lv_animimg_create,"ax",%progbits
ARM GAS  /tmp/ccTudxh6.s 			page 11


 190              		.align	1
 191              		.global	lv_animimg_create
 192              		.syntax unified
 193              		.thumb
 194              		.thumb_func
 195              		.fpu fpv4-sp-d16
 197              	lv_animimg_create:
 198              	.LVL16:
 199              	.LFB184:
  58:Middlewares/lvgl/src/extra/widgets/animimg/lv_animimg.c ****     LV_LOG_INFO("begin")
 200              		.loc 1 58 1 is_stmt 1 view -0
 201              		.cfi_startproc
 202              		@ args = 0, pretend = 0, frame = 0
 203              		@ frame_needed = 0, uses_anonymous_args = 0
  58:Middlewares/lvgl/src/extra/widgets/animimg/lv_animimg.c ****     LV_LOG_INFO("begin")
 204              		.loc 1 58 1 is_stmt 0 view .LVU56
 205 0000 10B5     		push	{r4, lr}
 206              	.LCFI2:
 207              		.cfi_def_cfa_offset 8
 208              		.cfi_offset 4, -8
 209              		.cfi_offset 14, -4
 210 0002 0146     		mov	r1, r0
  60:Middlewares/lvgl/src/extra/widgets/animimg/lv_animimg.c ****     lv_obj_class_init_obj(obj);
 211              		.loc 1 60 5 is_stmt 1 view .LVU57
  60:Middlewares/lvgl/src/extra/widgets/animimg/lv_animimg.c ****     lv_obj_class_init_obj(obj);
 212              		.loc 1 60 22 is_stmt 0 view .LVU58
 213 0004 0348     		ldr	r0, .L9
 214              	.LVL17:
  60:Middlewares/lvgl/src/extra/widgets/animimg/lv_animimg.c ****     lv_obj_class_init_obj(obj);
 215              		.loc 1 60 22 view .LVU59
 216 0006 FFF7FEFF 		bl	lv_obj_class_create_obj
 217              	.LVL18:
  60:Middlewares/lvgl/src/extra/widgets/animimg/lv_animimg.c ****     lv_obj_class_init_obj(obj);
 218              		.loc 1 60 22 view .LVU60
 219 000a 0446     		mov	r4, r0
 220              	.LVL19:
  61:Middlewares/lvgl/src/extra/widgets/animimg/lv_animimg.c ****     return obj;
 221              		.loc 1 61 5 is_stmt 1 view .LVU61
 222 000c FFF7FEFF 		bl	lv_obj_class_init_obj
 223              	.LVL20:
  62:Middlewares/lvgl/src/extra/widgets/animimg/lv_animimg.c **** }
 224              		.loc 1 62 5 view .LVU62
  63:Middlewares/lvgl/src/extra/widgets/animimg/lv_animimg.c **** 
 225              		.loc 1 63 1 is_stmt 0 view .LVU63
 226 0010 2046     		mov	r0, r4
 227 0012 10BD     		pop	{r4, pc}
 228              	.LVL21:
 229              	.L10:
  63:Middlewares/lvgl/src/extra/widgets/animimg/lv_animimg.c **** 
 230              		.loc 1 63 1 view .LVU64
 231              		.align	2
 232              	.L9:
 233 0014 00000000 		.word	.LANCHOR0
 234              		.cfi_endproc
 235              	.LFE184:
 237              		.section	.text.lv_animimg_set_src,"ax",%progbits
 238              		.align	1
ARM GAS  /tmp/ccTudxh6.s 			page 12


 239              		.global	lv_animimg_set_src
 240              		.syntax unified
 241              		.thumb
 242              		.thumb_func
 243              		.fpu fpv4-sp-d16
 245              	lv_animimg_set_src:
 246              	.LVL22:
 247              	.LFB185:
  66:Middlewares/lvgl/src/extra/widgets/animimg/lv_animimg.c ****     lv_animimg_t * animimg = (lv_animimg_t *)obj;
 248              		.loc 1 66 1 is_stmt 1 view -0
 249              		.cfi_startproc
 250              		@ args = 0, pretend = 0, frame = 0
 251              		@ frame_needed = 0, uses_anonymous_args = 0
 252              		@ link register save eliminated.
  67:Middlewares/lvgl/src/extra/widgets/animimg/lv_animimg.c ****     animimg->dsc = dsc;
 253              		.loc 1 67 5 view .LVU66
  68:Middlewares/lvgl/src/extra/widgets/animimg/lv_animimg.c ****     animimg->pic_count = num;
 254              		.loc 1 68 5 view .LVU67
  68:Middlewares/lvgl/src/extra/widgets/animimg/lv_animimg.c ****     animimg->pic_count = num;
 255              		.loc 1 68 18 is_stmt 0 view .LVU68
 256 0000 C0F88010 		str	r1, [r0, #128]
  69:Middlewares/lvgl/src/extra/widgets/animimg/lv_animimg.c ****     lv_anim_set_values(&animimg->anim, 0 , num);
 257              		.loc 1 69 5 is_stmt 1 view .LVU69
  69:Middlewares/lvgl/src/extra/widgets/animimg/lv_animimg.c ****     lv_anim_set_values(&animimg->anim, 0 , num);
 258              		.loc 1 69 24 is_stmt 0 view .LVU70
 259 0004 80F88420 		strb	r2, [r0, #132]
  70:Middlewares/lvgl/src/extra/widgets/animimg/lv_animimg.c **** }
 260              		.loc 1 70 5 is_stmt 1 view .LVU71
 261              	.LVL23:
 262              	.LBB30:
 263              	.LBI30:
 162:Middlewares/lvgl/src/extra/widgets/animimg/../../../../src/core/../misc/lv_anim.h **** {
 264              		.loc 2 162 20 view .LVU72
 265              	.LBB31:
 164:Middlewares/lvgl/src/extra/widgets/animimg/../../../../src/core/../misc/lv_anim.h ****     a->current_value = start;
 266              		.loc 2 164 5 view .LVU73
 164:Middlewares/lvgl/src/extra/widgets/animimg/../../../../src/core/../misc/lv_anim.h ****     a->current_value = start;
 267              		.loc 2 164 20 is_stmt 0 view .LVU74
 268 0008 0023     		movs	r3, #0
 269 000a 8365     		str	r3, [r0, #88]
 165:Middlewares/lvgl/src/extra/widgets/animimg/../../../../src/core/../misc/lv_anim.h ****     a->end_value = end;
 270              		.loc 2 165 5 is_stmt 1 view .LVU75
 165:Middlewares/lvgl/src/extra/widgets/animimg/../../../../src/core/../misc/lv_anim.h ****     a->end_value = end;
 271              		.loc 2 165 22 is_stmt 0 view .LVU76
 272 000c C365     		str	r3, [r0, #92]
 166:Middlewares/lvgl/src/extra/widgets/animimg/../../../../src/core/../misc/lv_anim.h **** }
 273              		.loc 2 166 5 is_stmt 1 view .LVU77
 166:Middlewares/lvgl/src/extra/widgets/animimg/../../../../src/core/../misc/lv_anim.h **** }
 274              		.loc 2 166 18 is_stmt 0 view .LVU78
 275 000e 0266     		str	r2, [r0, #96]
 276              	.LVL24:
 166:Middlewares/lvgl/src/extra/widgets/animimg/../../../../src/core/../misc/lv_anim.h **** }
 277              		.loc 2 166 18 view .LVU79
 278              	.LBE31:
 279              	.LBE30:
  71:Middlewares/lvgl/src/extra/widgets/animimg/lv_animimg.c **** 
 280              		.loc 1 71 1 view .LVU80
ARM GAS  /tmp/ccTudxh6.s 			page 13


 281 0010 7047     		bx	lr
 282              		.cfi_endproc
 283              	.LFE185:
 285              		.section	.text.lv_animimg_start,"ax",%progbits
 286              		.align	1
 287              		.global	lv_animimg_start
 288              		.syntax unified
 289              		.thumb
 290              		.thumb_func
 291              		.fpu fpv4-sp-d16
 293              	lv_animimg_start:
 294              	.LVL25:
 295              	.LFB186:
  74:Middlewares/lvgl/src/extra/widgets/animimg/lv_animimg.c ****     lv_animimg_t * animimg = (lv_animimg_t *)obj;
 296              		.loc 1 74 1 is_stmt 1 view -0
 297              		.cfi_startproc
 298              		@ args = 0, pretend = 0, frame = 0
 299              		@ frame_needed = 0, uses_anonymous_args = 0
  74:Middlewares/lvgl/src/extra/widgets/animimg/lv_animimg.c ****     lv_animimg_t * animimg = (lv_animimg_t *)obj;
 300              		.loc 1 74 1 is_stmt 0 view .LVU82
 301 0000 08B5     		push	{r3, lr}
 302              	.LCFI3:
 303              		.cfi_def_cfa_offset 8
 304              		.cfi_offset 3, -8
 305              		.cfi_offset 14, -4
  75:Middlewares/lvgl/src/extra/widgets/animimg/lv_animimg.c ****     lv_anim_start(&animimg->anim);
 306              		.loc 1 75 5 is_stmt 1 view .LVU83
 307              	.LVL26:
  76:Middlewares/lvgl/src/extra/widgets/animimg/lv_animimg.c **** }
 308              		.loc 1 76 5 view .LVU84
 309 0002 3C30     		adds	r0, r0, #60
 310              	.LVL27:
  76:Middlewares/lvgl/src/extra/widgets/animimg/lv_animimg.c **** }
 311              		.loc 1 76 5 is_stmt 0 view .LVU85
 312 0004 FFF7FEFF 		bl	lv_anim_start
 313              	.LVL28:
  77:Middlewares/lvgl/src/extra/widgets/animimg/lv_animimg.c **** 
 314              		.loc 1 77 1 view .LVU86
 315 0008 08BD     		pop	{r3, pc}
 316              		.cfi_endproc
 317              	.LFE186:
 319              		.section	.text.lv_animimg_set_duration,"ax",%progbits
 320              		.align	1
 321              		.global	lv_animimg_set_duration
 322              		.syntax unified
 323              		.thumb
 324              		.thumb_func
 325              		.fpu fpv4-sp-d16
 327              	lv_animimg_set_duration:
 328              	.LVL29:
 329              	.LFB187:
  84:Middlewares/lvgl/src/extra/widgets/animimg/lv_animimg.c ****     lv_animimg_t * animimg = (lv_animimg_t *)obj;
 330              		.loc 1 84 1 is_stmt 1 view -0
 331              		.cfi_startproc
 332              		@ args = 0, pretend = 0, frame = 0
 333              		@ frame_needed = 0, uses_anonymous_args = 0
 334              		@ link register save eliminated.
ARM GAS  /tmp/ccTudxh6.s 			page 14


  85:Middlewares/lvgl/src/extra/widgets/animimg/lv_animimg.c ****     lv_anim_set_time(&animimg->anim, duration);
 335              		.loc 1 85 5 view .LVU88
  86:Middlewares/lvgl/src/extra/widgets/animimg/lv_animimg.c ****     lv_anim_set_playback_delay(&animimg->anim, duration);
 336              		.loc 1 86 5 view .LVU89
 337              	.LBB32:
 338              	.LBI32:
 141:Middlewares/lvgl/src/extra/widgets/animimg/../../../../src/core/../misc/lv_anim.h **** {
 339              		.loc 2 141 20 view .LVU90
 340              	.LBB33:
 143:Middlewares/lvgl/src/extra/widgets/animimg/../../../../src/core/../misc/lv_anim.h **** }
 341              		.loc 2 143 5 view .LVU91
 143:Middlewares/lvgl/src/extra/widgets/animimg/../../../../src/core/../misc/lv_anim.h **** }
 342              		.loc 2 143 13 is_stmt 0 view .LVU92
 343 0000 4166     		str	r1, [r0, #100]
 344              	.LVL30:
 143:Middlewares/lvgl/src/extra/widgets/animimg/../../../../src/core/../misc/lv_anim.h **** }
 345              		.loc 2 143 13 view .LVU93
 346              	.LBE33:
 347              	.LBE32:
  87:Middlewares/lvgl/src/extra/widgets/animimg/lv_animimg.c **** }
 348              		.loc 1 87 5 is_stmt 1 view .LVU94
 349              	.LBB34:
 350              	.LBI34:
 239:Middlewares/lvgl/src/extra/widgets/animimg/../../../../src/core/../misc/lv_anim.h **** {
 351              		.loc 2 239 20 view .LVU95
 352              	.LBB35:
 241:Middlewares/lvgl/src/extra/widgets/animimg/../../../../src/core/../misc/lv_anim.h **** }
 353              		.loc 2 241 5 view .LVU96
 241:Middlewares/lvgl/src/extra/widgets/animimg/../../../../src/core/../misc/lv_anim.h **** }
 354              		.loc 2 241 23 is_stmt 0 view .LVU97
 355 0002 C166     		str	r1, [r0, #108]
 356              	.LVL31:
 241:Middlewares/lvgl/src/extra/widgets/animimg/../../../../src/core/../misc/lv_anim.h **** }
 357              		.loc 2 241 23 view .LVU98
 358              	.LBE35:
 359              	.LBE34:
  88:Middlewares/lvgl/src/extra/widgets/animimg/lv_animimg.c **** 
 360              		.loc 1 88 1 view .LVU99
 361 0004 7047     		bx	lr
 362              		.cfi_endproc
 363              	.LFE187:
 365              		.section	.text.lv_animimg_set_repeat_count,"ax",%progbits
 366              		.align	1
 367              		.global	lv_animimg_set_repeat_count
 368              		.syntax unified
 369              		.thumb
 370              		.thumb_func
 371              		.fpu fpv4-sp-d16
 373              	lv_animimg_set_repeat_count:
 374              	.LVL32:
 375              	.LFB188:
  91:Middlewares/lvgl/src/extra/widgets/animimg/lv_animimg.c ****     lv_animimg_t * animimg = (lv_animimg_t *)obj;
 376              		.loc 1 91 1 is_stmt 1 view -0
 377              		.cfi_startproc
 378              		@ args = 0, pretend = 0, frame = 0
 379              		@ frame_needed = 0, uses_anonymous_args = 0
 380              		@ link register save eliminated.
ARM GAS  /tmp/ccTudxh6.s 			page 15


  92:Middlewares/lvgl/src/extra/widgets/animimg/lv_animimg.c ****     lv_anim_set_repeat_count(&animimg->anim, count);
 381              		.loc 1 92 5 view .LVU101
  93:Middlewares/lvgl/src/extra/widgets/animimg/lv_animimg.c **** }
 382              		.loc 1 93 5 view .LVU102
 383              	.LBB36:
 384              	.LBI36:
 249:Middlewares/lvgl/src/extra/widgets/animimg/../../../../src/core/../misc/lv_anim.h **** {
 385              		.loc 2 249 20 view .LVU103
 386              	.LBB37:
 387              		.loc 2 251 5 view .LVU104
 388              		.loc 2 251 19 is_stmt 0 view .LVU105
 389 0000 A0F87810 		strh	r1, [r0, #120]	@ movhi
 390              	.LVL33:
 391              		.loc 2 251 19 view .LVU106
 392              	.LBE37:
 393              	.LBE36:
  94:Middlewares/lvgl/src/extra/widgets/animimg/lv_animimg.c **** 
 394              		.loc 1 94 1 view .LVU107
 395 0004 7047     		bx	lr
 396              		.cfi_endproc
 397              	.LFE188:
 399              		.global	lv_animimg_class
 400              		.section	.rodata.lv_animimg_class,"a"
 401              		.align	2
 402              		.set	.LANCHOR0,. + 0
 405              	lv_animimg_class:
 406 0000 00000000 		.word	lv_img_class
 407 0004 00000000 		.word	lv_animimg_constructor
 408 0008 00000000 		.space	16
 408      00000000 
 408      00000000 
 408      00000000 
 409 0018 80       		.byte	128
 410 0019 08       		.byte	8
 411 001a 00       		.byte	0
 412 001b 00       		.space	1
 413              		.text
 414              	.Letext0:
 415              		.file 3 "/home/akinya/gcc-arm-none-eabi/arm-none-eabi/include/machine/_default_types.h"
 416              		.file 4 "/home/akinya/gcc-arm-none-eabi/arm-none-eabi/include/sys/_stdint.h"
 417              		.file 5 "Middlewares/lvgl/src/extra/widgets/animimg/../../../../src/misc/lv_ll.h"
 418              		.file 6 "Middlewares/lvgl/src/extra/widgets/animimg/../../../../src/hal/../misc/lv_color.h"
 419              		.file 7 "Middlewares/lvgl/src/extra/widgets/animimg/../../../../src/hal/../misc/lv_area.h"
 420              		.file 8 "Middlewares/lvgl/src/extra/widgets/animimg/../../../../src/core/lv_obj.h"
 421              		.file 9 "Middlewares/lvgl/src/extra/widgets/animimg/../../../../src/core/lv_group.h"
 422              		.file 10 "Middlewares/lvgl/src/extra/widgets/animimg/../../../../src/core/../misc/lv_style.h"
 423              		.file 11 "Middlewares/lvgl/src/extra/widgets/animimg/../../../../src/core/lv_obj_scroll.h"
 424              		.file 12 "Middlewares/lvgl/src/extra/widgets/animimg/../../../../src/core/lv_obj_style.h"
 425              		.file 13 "Middlewares/lvgl/src/extra/widgets/animimg/../../../../src/core/../draw/lv_img_buf.h"
 426              		.file 14 "Middlewares/lvgl/src/extra/widgets/animimg/../../../../src/core/lv_obj_class.h"
 427              		.file 15 "Middlewares/lvgl/src/extra/widgets/animimg/../../../../src/core/lv_event.h"
 428              		.file 16 "Middlewares/lvgl/src/extra/widgets/animimg/../../../../src/widgets/lv_img.h"
 429              		.file 17 "Middlewares/lvgl/src/extra/widgets/animimg/../../../../src/widgets/lv_bar.h"
 430              		.file 18 "Middlewares/lvgl/src/extra/widgets/animimg/../../../../src/extra/widgets/imgbtn/lv_imgbt
 431              		.file 19 "Middlewares/lvgl/src/extra/widgets/animimg/lv_animimg.h"
ARM GAS  /tmp/ccTudxh6.s 			page 16

