ARM GAS  /tmp/ccQ28q5O.s 			page 1


   1              		.cpu cortex-m4
   2              		.arch armv7e-m
   3              		.fpu fpv4-sp-d16
   4              		.eabi_attribute 27, 1
   5              		.eabi_attribute 28, 1
   6              		.eabi_attribute 20, 1
   7              		.eabi_attribute 21, 1
   8              		.eabi_attribute 23, 3
   9              		.eabi_attribute 24, 1
  10              		.eabi_attribute 25, 1
  11              		.eabi_attribute 26, 1
  12              		.eabi_attribute 30, 1
  13              		.eabi_attribute 34, 1
  14              		.eabi_attribute 18, 4
  15              		.file	"lv_area.c"
  16              		.text
  17              	.Ltext0:
  18              		.cfi_sections	.debug_frame
  19              		.section	.text.lv_point_within_circle,"ax",%progbits
  20              		.align	1
  21              		.syntax unified
  22              		.thumb
  23              		.thumb_func
  25              	lv_point_within_circle:
  26              	.LVL0:
  27              	.LFB18:
  28              		.file 1 "Middlewares/lvgl/src/misc/lv_area.c"
   1:Middlewares/lvgl/src/misc/lv_area.c **** /**
   2:Middlewares/lvgl/src/misc/lv_area.c ****  * @file lv_area.c
   3:Middlewares/lvgl/src/misc/lv_area.c ****  *
   4:Middlewares/lvgl/src/misc/lv_area.c ****  */
   5:Middlewares/lvgl/src/misc/lv_area.c **** 
   6:Middlewares/lvgl/src/misc/lv_area.c **** /*********************
   7:Middlewares/lvgl/src/misc/lv_area.c ****  *      INCLUDES
   8:Middlewares/lvgl/src/misc/lv_area.c ****  *********************/
   9:Middlewares/lvgl/src/misc/lv_area.c **** #include "../lv_conf_internal.h"
  10:Middlewares/lvgl/src/misc/lv_area.c **** 
  11:Middlewares/lvgl/src/misc/lv_area.c **** #include "lv_area.h"
  12:Middlewares/lvgl/src/misc/lv_area.c **** #include "lv_math.h"
  13:Middlewares/lvgl/src/misc/lv_area.c **** 
  14:Middlewares/lvgl/src/misc/lv_area.c **** /*********************
  15:Middlewares/lvgl/src/misc/lv_area.c ****  *      DEFINES
  16:Middlewares/lvgl/src/misc/lv_area.c ****  *********************/
  17:Middlewares/lvgl/src/misc/lv_area.c **** 
  18:Middlewares/lvgl/src/misc/lv_area.c **** /**********************
  19:Middlewares/lvgl/src/misc/lv_area.c ****  *      TYPEDEFS
  20:Middlewares/lvgl/src/misc/lv_area.c ****  **********************/
  21:Middlewares/lvgl/src/misc/lv_area.c **** 
  22:Middlewares/lvgl/src/misc/lv_area.c **** /**********************
  23:Middlewares/lvgl/src/misc/lv_area.c ****  *  STATIC PROTOTYPES
  24:Middlewares/lvgl/src/misc/lv_area.c ****  **********************/
  25:Middlewares/lvgl/src/misc/lv_area.c **** 
  26:Middlewares/lvgl/src/misc/lv_area.c **** static bool lv_point_within_circle(const lv_area_t * area, const lv_point_t * p);
  27:Middlewares/lvgl/src/misc/lv_area.c **** 
  28:Middlewares/lvgl/src/misc/lv_area.c **** /**********************
  29:Middlewares/lvgl/src/misc/lv_area.c ****  *  STATIC VARIABLES
  30:Middlewares/lvgl/src/misc/lv_area.c ****  **********************/
ARM GAS  /tmp/ccQ28q5O.s 			page 2


  31:Middlewares/lvgl/src/misc/lv_area.c **** 
  32:Middlewares/lvgl/src/misc/lv_area.c **** /**********************
  33:Middlewares/lvgl/src/misc/lv_area.c ****  *      MACROS
  34:Middlewares/lvgl/src/misc/lv_area.c ****  **********************/
  35:Middlewares/lvgl/src/misc/lv_area.c **** 
  36:Middlewares/lvgl/src/misc/lv_area.c **** /**********************
  37:Middlewares/lvgl/src/misc/lv_area.c ****  *   GLOBAL FUNCTIONS
  38:Middlewares/lvgl/src/misc/lv_area.c ****  **********************/
  39:Middlewares/lvgl/src/misc/lv_area.c **** 
  40:Middlewares/lvgl/src/misc/lv_area.c **** /**
  41:Middlewares/lvgl/src/misc/lv_area.c ****  * Initialize an area
  42:Middlewares/lvgl/src/misc/lv_area.c ****  * @param area_p pointer to an area
  43:Middlewares/lvgl/src/misc/lv_area.c ****  * @param x1 left coordinate of the area
  44:Middlewares/lvgl/src/misc/lv_area.c ****  * @param y1 top coordinate of the area
  45:Middlewares/lvgl/src/misc/lv_area.c ****  * @param x2 right coordinate of the area
  46:Middlewares/lvgl/src/misc/lv_area.c ****  * @param y2 bottom coordinate of the area
  47:Middlewares/lvgl/src/misc/lv_area.c ****  */
  48:Middlewares/lvgl/src/misc/lv_area.c **** void lv_area_set(lv_area_t * area_p, lv_coord_t x1, lv_coord_t y1, lv_coord_t x2, lv_coord_t y2)
  49:Middlewares/lvgl/src/misc/lv_area.c **** {
  50:Middlewares/lvgl/src/misc/lv_area.c ****     area_p->x1 = x1;
  51:Middlewares/lvgl/src/misc/lv_area.c ****     area_p->y1 = y1;
  52:Middlewares/lvgl/src/misc/lv_area.c ****     area_p->x2 = x2;
  53:Middlewares/lvgl/src/misc/lv_area.c ****     area_p->y2 = y2;
  54:Middlewares/lvgl/src/misc/lv_area.c **** }
  55:Middlewares/lvgl/src/misc/lv_area.c **** 
  56:Middlewares/lvgl/src/misc/lv_area.c **** /**
  57:Middlewares/lvgl/src/misc/lv_area.c ****  * Set the width of an area
  58:Middlewares/lvgl/src/misc/lv_area.c ****  * @param area_p pointer to an area
  59:Middlewares/lvgl/src/misc/lv_area.c ****  * @param w the new width of the area (w == 1 makes x1 == x2)
  60:Middlewares/lvgl/src/misc/lv_area.c ****  */
  61:Middlewares/lvgl/src/misc/lv_area.c **** void lv_area_set_width(lv_area_t * area_p, lv_coord_t w)
  62:Middlewares/lvgl/src/misc/lv_area.c **** {
  63:Middlewares/lvgl/src/misc/lv_area.c ****     area_p->x2 = area_p->x1 + w - 1;
  64:Middlewares/lvgl/src/misc/lv_area.c **** }
  65:Middlewares/lvgl/src/misc/lv_area.c **** 
  66:Middlewares/lvgl/src/misc/lv_area.c **** /**
  67:Middlewares/lvgl/src/misc/lv_area.c ****  * Set the height of an area
  68:Middlewares/lvgl/src/misc/lv_area.c ****  * @param area_p pointer to an area
  69:Middlewares/lvgl/src/misc/lv_area.c ****  * @param h the new height of the area (h == 1 makes y1 == y2)
  70:Middlewares/lvgl/src/misc/lv_area.c ****  */
  71:Middlewares/lvgl/src/misc/lv_area.c **** void lv_area_set_height(lv_area_t * area_p, lv_coord_t h)
  72:Middlewares/lvgl/src/misc/lv_area.c **** {
  73:Middlewares/lvgl/src/misc/lv_area.c ****     area_p->y2 = area_p->y1 + h - 1;
  74:Middlewares/lvgl/src/misc/lv_area.c **** }
  75:Middlewares/lvgl/src/misc/lv_area.c **** 
  76:Middlewares/lvgl/src/misc/lv_area.c **** /**
  77:Middlewares/lvgl/src/misc/lv_area.c ****  * Set the position of an area (width and height will be kept)
  78:Middlewares/lvgl/src/misc/lv_area.c ****  * @param area_p pointer to an area
  79:Middlewares/lvgl/src/misc/lv_area.c ****  * @param x the new x coordinate of the area
  80:Middlewares/lvgl/src/misc/lv_area.c ****  * @param y the new y coordinate of the area
  81:Middlewares/lvgl/src/misc/lv_area.c ****  */
  82:Middlewares/lvgl/src/misc/lv_area.c **** void _lv_area_set_pos(lv_area_t * area_p, lv_coord_t x, lv_coord_t y)
  83:Middlewares/lvgl/src/misc/lv_area.c **** {
  84:Middlewares/lvgl/src/misc/lv_area.c ****     lv_coord_t w = lv_area_get_width(area_p);
  85:Middlewares/lvgl/src/misc/lv_area.c ****     lv_coord_t h = lv_area_get_height(area_p);
  86:Middlewares/lvgl/src/misc/lv_area.c ****     area_p->x1   = x;
  87:Middlewares/lvgl/src/misc/lv_area.c ****     area_p->y1   = y;
ARM GAS  /tmp/ccQ28q5O.s 			page 3


  88:Middlewares/lvgl/src/misc/lv_area.c ****     lv_area_set_width(area_p, w);
  89:Middlewares/lvgl/src/misc/lv_area.c ****     lv_area_set_height(area_p, h);
  90:Middlewares/lvgl/src/misc/lv_area.c **** }
  91:Middlewares/lvgl/src/misc/lv_area.c **** 
  92:Middlewares/lvgl/src/misc/lv_area.c **** /**
  93:Middlewares/lvgl/src/misc/lv_area.c ****  * Return with area of an area (x * y)
  94:Middlewares/lvgl/src/misc/lv_area.c ****  * @param area_p pointer to an area
  95:Middlewares/lvgl/src/misc/lv_area.c ****  * @return size of area
  96:Middlewares/lvgl/src/misc/lv_area.c ****  */
  97:Middlewares/lvgl/src/misc/lv_area.c **** uint32_t lv_area_get_size(const lv_area_t * area_p)
  98:Middlewares/lvgl/src/misc/lv_area.c **** {
  99:Middlewares/lvgl/src/misc/lv_area.c ****     uint32_t size;
 100:Middlewares/lvgl/src/misc/lv_area.c **** 
 101:Middlewares/lvgl/src/misc/lv_area.c ****     size = (uint32_t)(area_p->x2 - area_p->x1 + 1) * (area_p->y2 - area_p->y1 + 1);
 102:Middlewares/lvgl/src/misc/lv_area.c **** 
 103:Middlewares/lvgl/src/misc/lv_area.c ****     return size;
 104:Middlewares/lvgl/src/misc/lv_area.c **** }
 105:Middlewares/lvgl/src/misc/lv_area.c **** 
 106:Middlewares/lvgl/src/misc/lv_area.c **** void lv_area_increase(lv_area_t * area, lv_coord_t w_extra, lv_coord_t h_extra)
 107:Middlewares/lvgl/src/misc/lv_area.c **** {
 108:Middlewares/lvgl/src/misc/lv_area.c ****     area->x1 -= w_extra;
 109:Middlewares/lvgl/src/misc/lv_area.c ****     area->x2 += w_extra;
 110:Middlewares/lvgl/src/misc/lv_area.c ****     area->y1 -= h_extra;
 111:Middlewares/lvgl/src/misc/lv_area.c ****     area->y2 += h_extra;
 112:Middlewares/lvgl/src/misc/lv_area.c **** }
 113:Middlewares/lvgl/src/misc/lv_area.c **** 
 114:Middlewares/lvgl/src/misc/lv_area.c **** void lv_area_move(lv_area_t * area, lv_coord_t x_ofs, lv_coord_t y_ofs)
 115:Middlewares/lvgl/src/misc/lv_area.c **** {
 116:Middlewares/lvgl/src/misc/lv_area.c ****     area->x1 += x_ofs;
 117:Middlewares/lvgl/src/misc/lv_area.c ****     area->x2 += x_ofs;
 118:Middlewares/lvgl/src/misc/lv_area.c ****     area->y1 += y_ofs;
 119:Middlewares/lvgl/src/misc/lv_area.c ****     area->y2 += y_ofs;
 120:Middlewares/lvgl/src/misc/lv_area.c **** }
 121:Middlewares/lvgl/src/misc/lv_area.c **** 
 122:Middlewares/lvgl/src/misc/lv_area.c **** /**
 123:Middlewares/lvgl/src/misc/lv_area.c ****  * Get the common parts of two areas
 124:Middlewares/lvgl/src/misc/lv_area.c ****  * @param res_p pointer to an area, the result will be stored here
 125:Middlewares/lvgl/src/misc/lv_area.c ****  * @param a1_p pointer to the first area
 126:Middlewares/lvgl/src/misc/lv_area.c ****  * @param a2_p pointer to the second area
 127:Middlewares/lvgl/src/misc/lv_area.c ****  * @return false: the two area has NO common parts, res_p is invalid
 128:Middlewares/lvgl/src/misc/lv_area.c ****  */
 129:Middlewares/lvgl/src/misc/lv_area.c **** bool _lv_area_intersect(lv_area_t * res_p, const lv_area_t * a1_p, const lv_area_t * a2_p)
 130:Middlewares/lvgl/src/misc/lv_area.c **** {
 131:Middlewares/lvgl/src/misc/lv_area.c ****     /*Get the smaller area from 'a1_p' and 'a2_p'*/
 132:Middlewares/lvgl/src/misc/lv_area.c ****     res_p->x1 = LV_MAX(a1_p->x1, a2_p->x1);
 133:Middlewares/lvgl/src/misc/lv_area.c ****     res_p->y1 = LV_MAX(a1_p->y1, a2_p->y1);
 134:Middlewares/lvgl/src/misc/lv_area.c ****     res_p->x2 = LV_MIN(a1_p->x2, a2_p->x2);
 135:Middlewares/lvgl/src/misc/lv_area.c ****     res_p->y2 = LV_MIN(a1_p->y2, a2_p->y2);
 136:Middlewares/lvgl/src/misc/lv_area.c **** 
 137:Middlewares/lvgl/src/misc/lv_area.c ****     /*If x1 or y1 greater then x2 or y2 then the areas union is empty*/
 138:Middlewares/lvgl/src/misc/lv_area.c ****     bool union_ok = true;
 139:Middlewares/lvgl/src/misc/lv_area.c ****     if((res_p->x1 > res_p->x2) || (res_p->y1 > res_p->y2)) {
 140:Middlewares/lvgl/src/misc/lv_area.c ****         union_ok = false;
 141:Middlewares/lvgl/src/misc/lv_area.c ****     }
 142:Middlewares/lvgl/src/misc/lv_area.c **** 
 143:Middlewares/lvgl/src/misc/lv_area.c ****     return union_ok;
 144:Middlewares/lvgl/src/misc/lv_area.c **** }
ARM GAS  /tmp/ccQ28q5O.s 			page 4


 145:Middlewares/lvgl/src/misc/lv_area.c **** /**
 146:Middlewares/lvgl/src/misc/lv_area.c ****  * Join two areas into a third which involves the other two
 147:Middlewares/lvgl/src/misc/lv_area.c ****  * @param res_p pointer to an area, the result will be stored here
 148:Middlewares/lvgl/src/misc/lv_area.c ****  * @param a1_p pointer to the first area
 149:Middlewares/lvgl/src/misc/lv_area.c ****  * @param a2_p pointer to the second area
 150:Middlewares/lvgl/src/misc/lv_area.c ****  */
 151:Middlewares/lvgl/src/misc/lv_area.c **** void _lv_area_join(lv_area_t * a_res_p, const lv_area_t * a1_p, const lv_area_t * a2_p)
 152:Middlewares/lvgl/src/misc/lv_area.c **** {
 153:Middlewares/lvgl/src/misc/lv_area.c ****     a_res_p->x1 = LV_MIN(a1_p->x1, a2_p->x1);
 154:Middlewares/lvgl/src/misc/lv_area.c ****     a_res_p->y1 = LV_MIN(a1_p->y1, a2_p->y1);
 155:Middlewares/lvgl/src/misc/lv_area.c ****     a_res_p->x2 = LV_MAX(a1_p->x2, a2_p->x2);
 156:Middlewares/lvgl/src/misc/lv_area.c ****     a_res_p->y2 = LV_MAX(a1_p->y2, a2_p->y2);
 157:Middlewares/lvgl/src/misc/lv_area.c **** }
 158:Middlewares/lvgl/src/misc/lv_area.c **** 
 159:Middlewares/lvgl/src/misc/lv_area.c **** /**
 160:Middlewares/lvgl/src/misc/lv_area.c ****  * Check if a point is on an area
 161:Middlewares/lvgl/src/misc/lv_area.c ****  * @param a_p pointer to an area
 162:Middlewares/lvgl/src/misc/lv_area.c ****  * @param p_p pointer to a point
 163:Middlewares/lvgl/src/misc/lv_area.c ****  * @param radius radius of area (e.g. for rounded rectangle)
 164:Middlewares/lvgl/src/misc/lv_area.c ****  * @return false:the point is out of the area
 165:Middlewares/lvgl/src/misc/lv_area.c ****  */
 166:Middlewares/lvgl/src/misc/lv_area.c **** bool _lv_area_is_point_on(const lv_area_t * a_p, const lv_point_t * p_p, lv_coord_t radius)
 167:Middlewares/lvgl/src/misc/lv_area.c **** {
 168:Middlewares/lvgl/src/misc/lv_area.c ****     /*First check the basic area*/
 169:Middlewares/lvgl/src/misc/lv_area.c ****     bool is_on_rect = false;
 170:Middlewares/lvgl/src/misc/lv_area.c ****     if((p_p->x >= a_p->x1 && p_p->x <= a_p->x2) && ((p_p->y >= a_p->y1 && p_p->y <= a_p->y2))) {
 171:Middlewares/lvgl/src/misc/lv_area.c ****         is_on_rect = true;
 172:Middlewares/lvgl/src/misc/lv_area.c ****     }
 173:Middlewares/lvgl/src/misc/lv_area.c ****     if(!is_on_rect)
 174:Middlewares/lvgl/src/misc/lv_area.c ****         return false;
 175:Middlewares/lvgl/src/misc/lv_area.c ****     /*Now handle potential rounded rectangles*/
 176:Middlewares/lvgl/src/misc/lv_area.c ****     if(radius <= 0) {
 177:Middlewares/lvgl/src/misc/lv_area.c ****         /*No radius, it is within the rectangle*/
 178:Middlewares/lvgl/src/misc/lv_area.c ****         return true;
 179:Middlewares/lvgl/src/misc/lv_area.c ****     }
 180:Middlewares/lvgl/src/misc/lv_area.c ****     lv_coord_t w = lv_area_get_width(a_p) / 2;
 181:Middlewares/lvgl/src/misc/lv_area.c ****     lv_coord_t h = lv_area_get_height(a_p) / 2;
 182:Middlewares/lvgl/src/misc/lv_area.c ****     lv_coord_t max_radius = LV_MIN(w, h);
 183:Middlewares/lvgl/src/misc/lv_area.c ****     if(radius > max_radius)
 184:Middlewares/lvgl/src/misc/lv_area.c ****         radius = max_radius;
 185:Middlewares/lvgl/src/misc/lv_area.c **** 
 186:Middlewares/lvgl/src/misc/lv_area.c ****     /*Check if it's in one of the corners*/
 187:Middlewares/lvgl/src/misc/lv_area.c ****     lv_area_t corner_area;
 188:Middlewares/lvgl/src/misc/lv_area.c ****     /*Top left*/
 189:Middlewares/lvgl/src/misc/lv_area.c ****     corner_area.x1 = a_p->x1;
 190:Middlewares/lvgl/src/misc/lv_area.c ****     corner_area.x2 = a_p->x1 + radius;
 191:Middlewares/lvgl/src/misc/lv_area.c ****     corner_area.y1 = a_p->y1;
 192:Middlewares/lvgl/src/misc/lv_area.c ****     corner_area.y2 = a_p->y1 + radius;
 193:Middlewares/lvgl/src/misc/lv_area.c ****     if(_lv_area_is_point_on(&corner_area, p_p, 0)) {
 194:Middlewares/lvgl/src/misc/lv_area.c ****         corner_area.x2 += radius;
 195:Middlewares/lvgl/src/misc/lv_area.c ****         corner_area.y2 += radius;
 196:Middlewares/lvgl/src/misc/lv_area.c ****         return lv_point_within_circle(&corner_area, p_p);
 197:Middlewares/lvgl/src/misc/lv_area.c ****     }
 198:Middlewares/lvgl/src/misc/lv_area.c ****     /*Bottom left*/
 199:Middlewares/lvgl/src/misc/lv_area.c ****     corner_area.y1 = a_p->y2 - radius;
 200:Middlewares/lvgl/src/misc/lv_area.c ****     corner_area.y2 = a_p->y2;
 201:Middlewares/lvgl/src/misc/lv_area.c ****     if(_lv_area_is_point_on(&corner_area, p_p, 0)) {
ARM GAS  /tmp/ccQ28q5O.s 			page 5


 202:Middlewares/lvgl/src/misc/lv_area.c ****         corner_area.x2 += radius;
 203:Middlewares/lvgl/src/misc/lv_area.c ****         corner_area.y1 -= radius;
 204:Middlewares/lvgl/src/misc/lv_area.c ****         return lv_point_within_circle(&corner_area, p_p);
 205:Middlewares/lvgl/src/misc/lv_area.c ****     }
 206:Middlewares/lvgl/src/misc/lv_area.c ****     /*Bottom right*/
 207:Middlewares/lvgl/src/misc/lv_area.c ****     corner_area.x1 = a_p->x2 - radius;
 208:Middlewares/lvgl/src/misc/lv_area.c ****     corner_area.x2 = a_p->x2;
 209:Middlewares/lvgl/src/misc/lv_area.c ****     if(_lv_area_is_point_on(&corner_area, p_p, 0)) {
 210:Middlewares/lvgl/src/misc/lv_area.c ****         corner_area.x1 -= radius;
 211:Middlewares/lvgl/src/misc/lv_area.c ****         corner_area.y1 -= radius;
 212:Middlewares/lvgl/src/misc/lv_area.c ****         return lv_point_within_circle(&corner_area, p_p);
 213:Middlewares/lvgl/src/misc/lv_area.c ****     }
 214:Middlewares/lvgl/src/misc/lv_area.c ****     /*Top right*/
 215:Middlewares/lvgl/src/misc/lv_area.c ****     corner_area.y1 = a_p->y1;
 216:Middlewares/lvgl/src/misc/lv_area.c ****     corner_area.y2 = a_p->y1 + radius;
 217:Middlewares/lvgl/src/misc/lv_area.c ****     if(_lv_area_is_point_on(&corner_area, p_p, 0)) {
 218:Middlewares/lvgl/src/misc/lv_area.c ****         corner_area.x1 -= radius;
 219:Middlewares/lvgl/src/misc/lv_area.c ****         corner_area.y2 += radius;
 220:Middlewares/lvgl/src/misc/lv_area.c ****         return lv_point_within_circle(&corner_area, p_p);
 221:Middlewares/lvgl/src/misc/lv_area.c ****     }
 222:Middlewares/lvgl/src/misc/lv_area.c ****     /*Not within corners*/
 223:Middlewares/lvgl/src/misc/lv_area.c ****     return true;
 224:Middlewares/lvgl/src/misc/lv_area.c **** }
 225:Middlewares/lvgl/src/misc/lv_area.c **** 
 226:Middlewares/lvgl/src/misc/lv_area.c **** /**
 227:Middlewares/lvgl/src/misc/lv_area.c ****  * Check if two area has common parts
 228:Middlewares/lvgl/src/misc/lv_area.c ****  * @param a1_p pointer to an area.
 229:Middlewares/lvgl/src/misc/lv_area.c ****  * @param a2_p pointer to an other area
 230:Middlewares/lvgl/src/misc/lv_area.c ****  * @return false: a1_p and a2_p has no common parts
 231:Middlewares/lvgl/src/misc/lv_area.c ****  */
 232:Middlewares/lvgl/src/misc/lv_area.c **** bool _lv_area_is_on(const lv_area_t * a1_p, const lv_area_t * a2_p)
 233:Middlewares/lvgl/src/misc/lv_area.c **** {
 234:Middlewares/lvgl/src/misc/lv_area.c ****     if((a1_p->x1 <= a2_p->x2) && (a1_p->x2 >= a2_p->x1) && (a1_p->y1 <= a2_p->y2) && (a1_p->y2 >= a
 235:Middlewares/lvgl/src/misc/lv_area.c ****         return true;
 236:Middlewares/lvgl/src/misc/lv_area.c ****     }
 237:Middlewares/lvgl/src/misc/lv_area.c ****     else {
 238:Middlewares/lvgl/src/misc/lv_area.c ****         return false;
 239:Middlewares/lvgl/src/misc/lv_area.c ****     }
 240:Middlewares/lvgl/src/misc/lv_area.c **** }
 241:Middlewares/lvgl/src/misc/lv_area.c **** 
 242:Middlewares/lvgl/src/misc/lv_area.c **** /**
 243:Middlewares/lvgl/src/misc/lv_area.c ****  * Check if an area is fully on an other
 244:Middlewares/lvgl/src/misc/lv_area.c ****  * @param ain_p pointer to an area which could be in 'aholder_p'
 245:Middlewares/lvgl/src/misc/lv_area.c ****  * @param aholder_p pointer to an area which could involve 'ain_p'
 246:Middlewares/lvgl/src/misc/lv_area.c ****  * @param radius radius of `aholder_p` (e.g. for rounded rectangle)
 247:Middlewares/lvgl/src/misc/lv_area.c ****  * @return true: `ain_p` is fully inside `aholder_p`
 248:Middlewares/lvgl/src/misc/lv_area.c ****  */
 249:Middlewares/lvgl/src/misc/lv_area.c **** bool _lv_area_is_in(const lv_area_t * ain_p, const lv_area_t * aholder_p, lv_coord_t radius)
 250:Middlewares/lvgl/src/misc/lv_area.c **** {
 251:Middlewares/lvgl/src/misc/lv_area.c ****     bool is_in = false;
 252:Middlewares/lvgl/src/misc/lv_area.c **** 
 253:Middlewares/lvgl/src/misc/lv_area.c ****     if(ain_p->x1 >= aholder_p->x1 && ain_p->y1 >= aholder_p->y1 && ain_p->x2 <= aholder_p->x2 &&
 254:Middlewares/lvgl/src/misc/lv_area.c ****        ain_p->y2 <= aholder_p->y2) {
 255:Middlewares/lvgl/src/misc/lv_area.c ****         is_in = true;
 256:Middlewares/lvgl/src/misc/lv_area.c ****     }
 257:Middlewares/lvgl/src/misc/lv_area.c **** 
 258:Middlewares/lvgl/src/misc/lv_area.c ****     if(!is_in) return false;
ARM GAS  /tmp/ccQ28q5O.s 			page 6


 259:Middlewares/lvgl/src/misc/lv_area.c ****     if(radius == 0) return true;
 260:Middlewares/lvgl/src/misc/lv_area.c **** 
 261:Middlewares/lvgl/src/misc/lv_area.c ****     /*Check if the corner points are inside the radius or not*/
 262:Middlewares/lvgl/src/misc/lv_area.c ****     lv_point_t p;
 263:Middlewares/lvgl/src/misc/lv_area.c **** 
 264:Middlewares/lvgl/src/misc/lv_area.c ****     p.x = ain_p->x1;
 265:Middlewares/lvgl/src/misc/lv_area.c ****     p.y = ain_p->y1;
 266:Middlewares/lvgl/src/misc/lv_area.c ****     if(_lv_area_is_point_on(aholder_p, &p, radius) == false) return false;
 267:Middlewares/lvgl/src/misc/lv_area.c **** 
 268:Middlewares/lvgl/src/misc/lv_area.c ****     p.x = ain_p->x2;
 269:Middlewares/lvgl/src/misc/lv_area.c ****     p.y = ain_p->y1;
 270:Middlewares/lvgl/src/misc/lv_area.c ****     if(_lv_area_is_point_on(aholder_p, &p, radius) == false) return false;
 271:Middlewares/lvgl/src/misc/lv_area.c **** 
 272:Middlewares/lvgl/src/misc/lv_area.c ****     p.x = ain_p->x1;
 273:Middlewares/lvgl/src/misc/lv_area.c ****     p.y = ain_p->y2;
 274:Middlewares/lvgl/src/misc/lv_area.c ****     if(_lv_area_is_point_on(aholder_p, &p, radius) == false) return false;
 275:Middlewares/lvgl/src/misc/lv_area.c **** 
 276:Middlewares/lvgl/src/misc/lv_area.c ****     p.x = ain_p->x2;
 277:Middlewares/lvgl/src/misc/lv_area.c ****     p.y = ain_p->y2;
 278:Middlewares/lvgl/src/misc/lv_area.c ****     if(_lv_area_is_point_on(aholder_p, &p, radius) == false) return false;
 279:Middlewares/lvgl/src/misc/lv_area.c **** 
 280:Middlewares/lvgl/src/misc/lv_area.c ****     return true;
 281:Middlewares/lvgl/src/misc/lv_area.c **** }
 282:Middlewares/lvgl/src/misc/lv_area.c **** 
 283:Middlewares/lvgl/src/misc/lv_area.c **** /**
 284:Middlewares/lvgl/src/misc/lv_area.c ****  * Align an area to an other
 285:Middlewares/lvgl/src/misc/lv_area.c ****  * @param base an are where the other will be aligned
 286:Middlewares/lvgl/src/misc/lv_area.c ****  * @param to_align the area to align
 287:Middlewares/lvgl/src/misc/lv_area.c ****  * @param align `LV_ALIGN_...`
 288:Middlewares/lvgl/src/misc/lv_area.c ****  * @param res x/y coordinates where `to_align` align area should be placed
 289:Middlewares/lvgl/src/misc/lv_area.c ****  */
 290:Middlewares/lvgl/src/misc/lv_area.c **** void lv_area_align(const lv_area_t * base, lv_area_t * to_align, lv_align_t align, lv_coord_t ofs_x
 291:Middlewares/lvgl/src/misc/lv_area.c **** {
 292:Middlewares/lvgl/src/misc/lv_area.c **** 
 293:Middlewares/lvgl/src/misc/lv_area.c ****     lv_coord_t x;
 294:Middlewares/lvgl/src/misc/lv_area.c ****     lv_coord_t y;
 295:Middlewares/lvgl/src/misc/lv_area.c ****     switch(align) {
 296:Middlewares/lvgl/src/misc/lv_area.c ****         case LV_ALIGN_CENTER:
 297:Middlewares/lvgl/src/misc/lv_area.c ****             x = lv_area_get_width(base) / 2 - lv_area_get_width(to_align) / 2;
 298:Middlewares/lvgl/src/misc/lv_area.c ****             y = lv_area_get_height(base) / 2 - lv_area_get_height(to_align) / 2;
 299:Middlewares/lvgl/src/misc/lv_area.c ****             break;
 300:Middlewares/lvgl/src/misc/lv_area.c **** 
 301:Middlewares/lvgl/src/misc/lv_area.c ****         case LV_ALIGN_TOP_LEFT:
 302:Middlewares/lvgl/src/misc/lv_area.c ****             x = 0;
 303:Middlewares/lvgl/src/misc/lv_area.c ****             y = 0;
 304:Middlewares/lvgl/src/misc/lv_area.c ****             break;
 305:Middlewares/lvgl/src/misc/lv_area.c ****         case LV_ALIGN_TOP_MID:
 306:Middlewares/lvgl/src/misc/lv_area.c ****             x = lv_area_get_width(base) / 2 - lv_area_get_width(to_align) / 2;
 307:Middlewares/lvgl/src/misc/lv_area.c ****             y = 0;
 308:Middlewares/lvgl/src/misc/lv_area.c ****             break;
 309:Middlewares/lvgl/src/misc/lv_area.c **** 
 310:Middlewares/lvgl/src/misc/lv_area.c ****         case LV_ALIGN_TOP_RIGHT:
 311:Middlewares/lvgl/src/misc/lv_area.c ****             x = lv_area_get_width(base) - lv_area_get_width(to_align);
 312:Middlewares/lvgl/src/misc/lv_area.c ****             y = 0;
 313:Middlewares/lvgl/src/misc/lv_area.c ****             break;
 314:Middlewares/lvgl/src/misc/lv_area.c **** 
 315:Middlewares/lvgl/src/misc/lv_area.c ****         case LV_ALIGN_BOTTOM_LEFT:
ARM GAS  /tmp/ccQ28q5O.s 			page 7


 316:Middlewares/lvgl/src/misc/lv_area.c ****             x = 0;
 317:Middlewares/lvgl/src/misc/lv_area.c ****             y = lv_area_get_height(base) - lv_area_get_height(to_align);
 318:Middlewares/lvgl/src/misc/lv_area.c ****             break;
 319:Middlewares/lvgl/src/misc/lv_area.c ****         case LV_ALIGN_BOTTOM_MID:
 320:Middlewares/lvgl/src/misc/lv_area.c ****             x = lv_area_get_width(base) / 2 - lv_area_get_width(to_align) / 2;
 321:Middlewares/lvgl/src/misc/lv_area.c ****             y = lv_area_get_height(base) - lv_area_get_height(to_align);
 322:Middlewares/lvgl/src/misc/lv_area.c ****             break;
 323:Middlewares/lvgl/src/misc/lv_area.c **** 
 324:Middlewares/lvgl/src/misc/lv_area.c ****         case LV_ALIGN_BOTTOM_RIGHT:
 325:Middlewares/lvgl/src/misc/lv_area.c ****             x = lv_area_get_width(base) - lv_area_get_width(to_align);
 326:Middlewares/lvgl/src/misc/lv_area.c ****             y = lv_area_get_height(base) - lv_area_get_height(to_align);
 327:Middlewares/lvgl/src/misc/lv_area.c ****             break;
 328:Middlewares/lvgl/src/misc/lv_area.c **** 
 329:Middlewares/lvgl/src/misc/lv_area.c ****         case LV_ALIGN_LEFT_MID:
 330:Middlewares/lvgl/src/misc/lv_area.c ****             x = 0;
 331:Middlewares/lvgl/src/misc/lv_area.c ****             y = lv_area_get_height(base) / 2 - lv_area_get_height(to_align) / 2;
 332:Middlewares/lvgl/src/misc/lv_area.c ****             break;
 333:Middlewares/lvgl/src/misc/lv_area.c **** 
 334:Middlewares/lvgl/src/misc/lv_area.c ****         case LV_ALIGN_RIGHT_MID:
 335:Middlewares/lvgl/src/misc/lv_area.c ****             x = lv_area_get_width(base) - lv_area_get_width(to_align);
 336:Middlewares/lvgl/src/misc/lv_area.c ****             y = lv_area_get_height(base) / 2 - lv_area_get_height(to_align) / 2;
 337:Middlewares/lvgl/src/misc/lv_area.c ****             break;
 338:Middlewares/lvgl/src/misc/lv_area.c **** 
 339:Middlewares/lvgl/src/misc/lv_area.c ****         case LV_ALIGN_OUT_TOP_LEFT:
 340:Middlewares/lvgl/src/misc/lv_area.c ****             x = 0;
 341:Middlewares/lvgl/src/misc/lv_area.c ****             y = -lv_area_get_height(to_align);
 342:Middlewares/lvgl/src/misc/lv_area.c ****             break;
 343:Middlewares/lvgl/src/misc/lv_area.c **** 
 344:Middlewares/lvgl/src/misc/lv_area.c ****         case LV_ALIGN_OUT_TOP_MID:
 345:Middlewares/lvgl/src/misc/lv_area.c ****             x = lv_area_get_width(base) / 2 - lv_area_get_width(to_align) / 2;
 346:Middlewares/lvgl/src/misc/lv_area.c ****             y = -lv_area_get_height(to_align);
 347:Middlewares/lvgl/src/misc/lv_area.c ****             break;
 348:Middlewares/lvgl/src/misc/lv_area.c **** 
 349:Middlewares/lvgl/src/misc/lv_area.c ****         case LV_ALIGN_OUT_TOP_RIGHT:
 350:Middlewares/lvgl/src/misc/lv_area.c ****             x = lv_area_get_width(base) - lv_area_get_width(to_align);
 351:Middlewares/lvgl/src/misc/lv_area.c ****             y = -lv_area_get_height(to_align);
 352:Middlewares/lvgl/src/misc/lv_area.c ****             break;
 353:Middlewares/lvgl/src/misc/lv_area.c **** 
 354:Middlewares/lvgl/src/misc/lv_area.c ****         case LV_ALIGN_OUT_BOTTOM_LEFT:
 355:Middlewares/lvgl/src/misc/lv_area.c ****             x = 0;
 356:Middlewares/lvgl/src/misc/lv_area.c ****             y = lv_area_get_height(base);
 357:Middlewares/lvgl/src/misc/lv_area.c ****             break;
 358:Middlewares/lvgl/src/misc/lv_area.c **** 
 359:Middlewares/lvgl/src/misc/lv_area.c ****         case LV_ALIGN_OUT_BOTTOM_MID:
 360:Middlewares/lvgl/src/misc/lv_area.c ****             x = lv_area_get_width(base) / 2 - lv_area_get_width(to_align) / 2;
 361:Middlewares/lvgl/src/misc/lv_area.c ****             y = lv_area_get_height(base);
 362:Middlewares/lvgl/src/misc/lv_area.c ****             break;
 363:Middlewares/lvgl/src/misc/lv_area.c **** 
 364:Middlewares/lvgl/src/misc/lv_area.c ****         case LV_ALIGN_OUT_BOTTOM_RIGHT:
 365:Middlewares/lvgl/src/misc/lv_area.c ****             x = lv_area_get_width(base) - lv_area_get_width(to_align);
 366:Middlewares/lvgl/src/misc/lv_area.c ****             y = lv_area_get_height(base);
 367:Middlewares/lvgl/src/misc/lv_area.c ****             break;
 368:Middlewares/lvgl/src/misc/lv_area.c **** 
 369:Middlewares/lvgl/src/misc/lv_area.c ****         case LV_ALIGN_OUT_LEFT_TOP:
 370:Middlewares/lvgl/src/misc/lv_area.c ****             x = -lv_area_get_width(to_align);
 371:Middlewares/lvgl/src/misc/lv_area.c ****             y = 0;
 372:Middlewares/lvgl/src/misc/lv_area.c ****             break;
ARM GAS  /tmp/ccQ28q5O.s 			page 8


 373:Middlewares/lvgl/src/misc/lv_area.c **** 
 374:Middlewares/lvgl/src/misc/lv_area.c ****         case LV_ALIGN_OUT_LEFT_MID:
 375:Middlewares/lvgl/src/misc/lv_area.c ****             x = -lv_area_get_width(to_align);
 376:Middlewares/lvgl/src/misc/lv_area.c ****             y = lv_area_get_height(base) / 2 - lv_area_get_height(to_align) / 2;
 377:Middlewares/lvgl/src/misc/lv_area.c ****             break;
 378:Middlewares/lvgl/src/misc/lv_area.c **** 
 379:Middlewares/lvgl/src/misc/lv_area.c ****         case LV_ALIGN_OUT_LEFT_BOTTOM:
 380:Middlewares/lvgl/src/misc/lv_area.c ****             x = -lv_area_get_width(to_align);
 381:Middlewares/lvgl/src/misc/lv_area.c ****             y = lv_area_get_height(base) - lv_area_get_height(to_align);
 382:Middlewares/lvgl/src/misc/lv_area.c ****             break;
 383:Middlewares/lvgl/src/misc/lv_area.c **** 
 384:Middlewares/lvgl/src/misc/lv_area.c ****         case LV_ALIGN_OUT_RIGHT_TOP:
 385:Middlewares/lvgl/src/misc/lv_area.c ****             x = lv_area_get_width(base);
 386:Middlewares/lvgl/src/misc/lv_area.c ****             y = 0;
 387:Middlewares/lvgl/src/misc/lv_area.c ****             break;
 388:Middlewares/lvgl/src/misc/lv_area.c **** 
 389:Middlewares/lvgl/src/misc/lv_area.c ****         case LV_ALIGN_OUT_RIGHT_MID:
 390:Middlewares/lvgl/src/misc/lv_area.c ****             x = lv_area_get_width(base);
 391:Middlewares/lvgl/src/misc/lv_area.c ****             y = lv_area_get_height(base) / 2 - lv_area_get_height(to_align) / 2;
 392:Middlewares/lvgl/src/misc/lv_area.c ****             break;
 393:Middlewares/lvgl/src/misc/lv_area.c **** 
 394:Middlewares/lvgl/src/misc/lv_area.c ****         case LV_ALIGN_OUT_RIGHT_BOTTOM:
 395:Middlewares/lvgl/src/misc/lv_area.c ****             x = lv_area_get_width(base);
 396:Middlewares/lvgl/src/misc/lv_area.c ****             y = lv_area_get_height(base) - lv_area_get_height(to_align);
 397:Middlewares/lvgl/src/misc/lv_area.c ****             break;
 398:Middlewares/lvgl/src/misc/lv_area.c ****         default:
 399:Middlewares/lvgl/src/misc/lv_area.c ****             x = 0;
 400:Middlewares/lvgl/src/misc/lv_area.c ****             y = 0;
 401:Middlewares/lvgl/src/misc/lv_area.c ****             break;
 402:Middlewares/lvgl/src/misc/lv_area.c ****     }
 403:Middlewares/lvgl/src/misc/lv_area.c **** 
 404:Middlewares/lvgl/src/misc/lv_area.c ****     x += base->x1;
 405:Middlewares/lvgl/src/misc/lv_area.c ****     y += base->y1;
 406:Middlewares/lvgl/src/misc/lv_area.c **** 
 407:Middlewares/lvgl/src/misc/lv_area.c ****     lv_coord_t w = lv_area_get_width(to_align);
 408:Middlewares/lvgl/src/misc/lv_area.c ****     lv_coord_t h = lv_area_get_height(to_align);
 409:Middlewares/lvgl/src/misc/lv_area.c ****     to_align->x1 = x + ofs_x;
 410:Middlewares/lvgl/src/misc/lv_area.c ****     to_align->y1 = y + ofs_y;
 411:Middlewares/lvgl/src/misc/lv_area.c ****     to_align->x2 = to_align->x1 + w - 1;
 412:Middlewares/lvgl/src/misc/lv_area.c ****     to_align->y2 = to_align->y1 + h - 1;
 413:Middlewares/lvgl/src/misc/lv_area.c **** }
 414:Middlewares/lvgl/src/misc/lv_area.c **** 
 415:Middlewares/lvgl/src/misc/lv_area.c **** /**********************
 416:Middlewares/lvgl/src/misc/lv_area.c ****  *   STATIC FUNCTIONS
 417:Middlewares/lvgl/src/misc/lv_area.c ****  **********************/
 418:Middlewares/lvgl/src/misc/lv_area.c **** 
 419:Middlewares/lvgl/src/misc/lv_area.c **** static bool lv_point_within_circle(const lv_area_t * area, const lv_point_t * p)
 420:Middlewares/lvgl/src/misc/lv_area.c **** {
  29              		.loc 1 420 1 view -0
  30              		.cfi_startproc
  31              		@ args = 0, pretend = 0, frame = 0
  32              		@ frame_needed = 0, uses_anonymous_args = 0
  33              		.loc 1 420 1 is_stmt 0 view .LVU1
  34 0000 00B5     		push	{lr}
  35              	.LCFI0:
  36              		.cfi_def_cfa_offset 4
  37              		.cfi_offset 14, -4
ARM GAS  /tmp/ccQ28q5O.s 			page 9


 421:Middlewares/lvgl/src/misc/lv_area.c ****     lv_coord_t r = (area->x2 - area->x1) / 2;
  38              		.loc 1 421 5 is_stmt 1 view .LVU2
  39              		.loc 1 421 25 is_stmt 0 view .LVU3
  40 0002 B0F90430 		ldrsh	r3, [r0, #4]
  41              		.loc 1 421 36 view .LVU4
  42 0006 B0F90020 		ldrsh	r2, [r0]
  43              		.loc 1 421 30 view .LVU5
  44 000a 9B1A     		subs	r3, r3, r2
  45              		.loc 1 421 42 view .LVU6
  46 000c 03EBD373 		add	r3, r3, r3, lsr #31
  47              		.loc 1 421 16 view .LVU7
  48 0010 43F34F0E 		sbfx	lr, r3, #1, #16
  49              	.LVL1:
 422:Middlewares/lvgl/src/misc/lv_area.c **** 
 423:Middlewares/lvgl/src/misc/lv_area.c ****     /*Circle center*/
 424:Middlewares/lvgl/src/misc/lv_area.c ****     lv_coord_t cx = area->x1 + r;
  50              		.loc 1 424 5 is_stmt 1 view .LVU8
  51              		.loc 1 424 30 is_stmt 0 view .LVU9
  52 0014 C3F34F03 		ubfx	r3, r3, #1, #16
  53 0018 13FA82F2 		uxtah	r2, r3, r2
  54 001c 1FFA82FC 		uxth	ip, r2
  55              	.LVL2:
 425:Middlewares/lvgl/src/misc/lv_area.c ****     lv_coord_t cy = area->y1 + r;
  56              		.loc 1 425 5 is_stmt 1 view .LVU10
  57              		.loc 1 425 25 is_stmt 0 view .LVU11
  58 0020 4288     		ldrh	r2, [r0, #2]
  59              		.loc 1 425 30 view .LVU12
  60 0022 1344     		add	r3, r3, r2
  61 0024 9BB2     		uxth	r3, r3
  62              	.LVL3:
 426:Middlewares/lvgl/src/misc/lv_area.c **** 
 427:Middlewares/lvgl/src/misc/lv_area.c ****     /*Simplify the code by moving everything to (0, 0)*/
 428:Middlewares/lvgl/src/misc/lv_area.c ****     lv_coord_t px = p->x - cx;
  63              		.loc 1 428 5 is_stmt 1 view .LVU13
  64              		.loc 1 428 22 is_stmt 0 view .LVU14
  65 0026 0A88     		ldrh	r2, [r1]
  66              		.loc 1 428 26 view .LVU15
  67 0028 A2EB0C02 		sub	r2, r2, ip
  68              	.LVL4:
 429:Middlewares/lvgl/src/misc/lv_area.c ****     lv_coord_t py = p->y - cy;
  69              		.loc 1 429 5 is_stmt 1 view .LVU16
  70              		.loc 1 429 22 is_stmt 0 view .LVU17
  71 002c 4988     		ldrh	r1, [r1, #2]
  72              	.LVL5:
  73              		.loc 1 429 26 view .LVU18
  74 002e CB1A     		subs	r3, r1, r3
  75              	.LVL6:
 430:Middlewares/lvgl/src/misc/lv_area.c **** 
 431:Middlewares/lvgl/src/misc/lv_area.c ****     uint32_t r_sqrd = r * r;
  76              		.loc 1 431 5 is_stmt 1 view .LVU19
  77              		.loc 1 431 25 is_stmt 0 view .LVU20
  78 0030 0EFB0EFE 		mul	lr, lr, lr
  79              	.LVL7:
 432:Middlewares/lvgl/src/misc/lv_area.c ****     uint32_t dist = (px * px) + (py * py);
  80              		.loc 1 432 5 is_stmt 1 view .LVU21
  81              		.loc 1 432 37 is_stmt 0 view .LVU22
  82 0034 13FB03F3 		smulbb	r3, r3, r3
ARM GAS  /tmp/ccQ28q5O.s 			page 10


  83              	.LVL8:
  84              		.loc 1 432 31 view .LVU23
  85 0038 12FB0232 		smlabb	r2, r2, r2, r3
  86              	.LVL9:
 433:Middlewares/lvgl/src/misc/lv_area.c **** 
 434:Middlewares/lvgl/src/misc/lv_area.c ****     if(dist <= r_sqrd)
  87              		.loc 1 434 5 is_stmt 1 view .LVU24
  88              		.loc 1 434 7 is_stmt 0 view .LVU25
  89 003c 9645     		cmp	lr, r2
  90 003e 02D3     		bcc	.L3
 435:Middlewares/lvgl/src/misc/lv_area.c ****         return true;
  91              		.loc 1 435 16 view .LVU26
  92 0040 0120     		movs	r0, #1
  93              	.LVL10:
  94              	.L2:
 436:Middlewares/lvgl/src/misc/lv_area.c ****     else
 437:Middlewares/lvgl/src/misc/lv_area.c ****         return false;
 438:Middlewares/lvgl/src/misc/lv_area.c **** }
  95              		.loc 1 438 1 view .LVU27
  96 0042 5DF804FB 		ldr	pc, [sp], #4
  97              	.LVL11:
  98              	.L3:
 437:Middlewares/lvgl/src/misc/lv_area.c **** }
  99              		.loc 1 437 16 view .LVU28
 100 0046 0020     		movs	r0, #0
 101              	.LVL12:
 437:Middlewares/lvgl/src/misc/lv_area.c **** }
 102              		.loc 1 437 16 view .LVU29
 103 0048 FBE7     		b	.L2
 104              		.cfi_endproc
 105              	.LFE18:
 107              		.section	.text.lv_area_set,"ax",%progbits
 108              		.align	1
 109              		.global	lv_area_set
 110              		.syntax unified
 111              		.thumb
 112              		.thumb_func
 114              	lv_area_set:
 115              	.LVL13:
 116              	.LFB5:
  49:Middlewares/lvgl/src/misc/lv_area.c ****     area_p->x1 = x1;
 117              		.loc 1 49 1 is_stmt 1 view -0
 118              		.cfi_startproc
 119              		@ args = 4, pretend = 0, frame = 0
 120              		@ frame_needed = 0, uses_anonymous_args = 0
 121              		@ link register save eliminated.
  50:Middlewares/lvgl/src/misc/lv_area.c ****     area_p->y1 = y1;
 122              		.loc 1 50 5 view .LVU31
  50:Middlewares/lvgl/src/misc/lv_area.c ****     area_p->y1 = y1;
 123              		.loc 1 50 16 is_stmt 0 view .LVU32
 124 0000 0180     		strh	r1, [r0]	@ movhi
  51:Middlewares/lvgl/src/misc/lv_area.c ****     area_p->x2 = x2;
 125              		.loc 1 51 5 is_stmt 1 view .LVU33
  51:Middlewares/lvgl/src/misc/lv_area.c ****     area_p->x2 = x2;
 126              		.loc 1 51 16 is_stmt 0 view .LVU34
 127 0002 4280     		strh	r2, [r0, #2]	@ movhi
  52:Middlewares/lvgl/src/misc/lv_area.c ****     area_p->y2 = y2;
ARM GAS  /tmp/ccQ28q5O.s 			page 11


 128              		.loc 1 52 5 is_stmt 1 view .LVU35
  52:Middlewares/lvgl/src/misc/lv_area.c ****     area_p->y2 = y2;
 129              		.loc 1 52 16 is_stmt 0 view .LVU36
 130 0004 8380     		strh	r3, [r0, #4]	@ movhi
  53:Middlewares/lvgl/src/misc/lv_area.c **** }
 131              		.loc 1 53 5 is_stmt 1 view .LVU37
  53:Middlewares/lvgl/src/misc/lv_area.c **** }
 132              		.loc 1 53 16 is_stmt 0 view .LVU38
 133 0006 BDF90030 		ldrsh	r3, [sp]
 134              	.LVL14:
  53:Middlewares/lvgl/src/misc/lv_area.c **** }
 135              		.loc 1 53 16 view .LVU39
 136 000a C380     		strh	r3, [r0, #6]	@ movhi
  54:Middlewares/lvgl/src/misc/lv_area.c **** 
 137              		.loc 1 54 1 view .LVU40
 138 000c 7047     		bx	lr
 139              		.cfi_endproc
 140              	.LFE5:
 142              		.section	.text.lv_area_set_width,"ax",%progbits
 143              		.align	1
 144              		.global	lv_area_set_width
 145              		.syntax unified
 146              		.thumb
 147              		.thumb_func
 149              	lv_area_set_width:
 150              	.LVL15:
 151              	.LFB6:
  62:Middlewares/lvgl/src/misc/lv_area.c ****     area_p->x2 = area_p->x1 + w - 1;
 152              		.loc 1 62 1 is_stmt 1 view -0
 153              		.cfi_startproc
 154              		@ args = 0, pretend = 0, frame = 0
 155              		@ frame_needed = 0, uses_anonymous_args = 0
 156              		@ link register save eliminated.
  63:Middlewares/lvgl/src/misc/lv_area.c **** }
 157              		.loc 1 63 5 view .LVU42
  63:Middlewares/lvgl/src/misc/lv_area.c **** }
 158              		.loc 1 63 24 is_stmt 0 view .LVU43
 159 0000 0388     		ldrh	r3, [r0]
  63:Middlewares/lvgl/src/misc/lv_area.c **** }
 160              		.loc 1 63 29 view .LVU44
 161 0002 0B44     		add	r3, r3, r1
 162 0004 9BB2     		uxth	r3, r3
  63:Middlewares/lvgl/src/misc/lv_area.c **** }
 163              		.loc 1 63 33 view .LVU45
 164 0006 013B     		subs	r3, r3, #1
  63:Middlewares/lvgl/src/misc/lv_area.c **** }
 165              		.loc 1 63 16 view .LVU46
 166 0008 8380     		strh	r3, [r0, #4]	@ movhi
  64:Middlewares/lvgl/src/misc/lv_area.c **** 
 167              		.loc 1 64 1 view .LVU47
 168 000a 7047     		bx	lr
 169              		.cfi_endproc
 170              	.LFE6:
 172              		.section	.text.lv_area_set_height,"ax",%progbits
 173              		.align	1
 174              		.global	lv_area_set_height
 175              		.syntax unified
ARM GAS  /tmp/ccQ28q5O.s 			page 12


 176              		.thumb
 177              		.thumb_func
 179              	lv_area_set_height:
 180              	.LVL16:
 181              	.LFB7:
  72:Middlewares/lvgl/src/misc/lv_area.c ****     area_p->y2 = area_p->y1 + h - 1;
 182              		.loc 1 72 1 is_stmt 1 view -0
 183              		.cfi_startproc
 184              		@ args = 0, pretend = 0, frame = 0
 185              		@ frame_needed = 0, uses_anonymous_args = 0
 186              		@ link register save eliminated.
  73:Middlewares/lvgl/src/misc/lv_area.c **** }
 187              		.loc 1 73 5 view .LVU49
  73:Middlewares/lvgl/src/misc/lv_area.c **** }
 188              		.loc 1 73 24 is_stmt 0 view .LVU50
 189 0000 4388     		ldrh	r3, [r0, #2]
  73:Middlewares/lvgl/src/misc/lv_area.c **** }
 190              		.loc 1 73 29 view .LVU51
 191 0002 0B44     		add	r3, r3, r1
 192 0004 9BB2     		uxth	r3, r3
  73:Middlewares/lvgl/src/misc/lv_area.c **** }
 193              		.loc 1 73 33 view .LVU52
 194 0006 013B     		subs	r3, r3, #1
  73:Middlewares/lvgl/src/misc/lv_area.c **** }
 195              		.loc 1 73 16 view .LVU53
 196 0008 C380     		strh	r3, [r0, #6]	@ movhi
  74:Middlewares/lvgl/src/misc/lv_area.c **** 
 197              		.loc 1 74 1 view .LVU54
 198 000a 7047     		bx	lr
 199              		.cfi_endproc
 200              	.LFE7:
 202              		.section	.text._lv_area_set_pos,"ax",%progbits
 203              		.align	1
 204              		.global	_lv_area_set_pos
 205              		.syntax unified
 206              		.thumb
 207              		.thumb_func
 209              	_lv_area_set_pos:
 210              	.LVL17:
 211              	.LFB8:
  83:Middlewares/lvgl/src/misc/lv_area.c ****     lv_coord_t w = lv_area_get_width(area_p);
 212              		.loc 1 83 1 is_stmt 1 view -0
 213              		.cfi_startproc
 214              		@ args = 0, pretend = 0, frame = 0
 215              		@ frame_needed = 0, uses_anonymous_args = 0
  83:Middlewares/lvgl/src/misc/lv_area.c ****     lv_coord_t w = lv_area_get_width(area_p);
 216              		.loc 1 83 1 is_stmt 0 view .LVU56
 217 0000 38B5     		push	{r3, r4, r5, lr}
 218              	.LCFI1:
 219              		.cfi_def_cfa_offset 16
 220              		.cfi_offset 3, -16
 221              		.cfi_offset 4, -12
 222              		.cfi_offset 5, -8
 223              		.cfi_offset 14, -4
 224 0002 0446     		mov	r4, r0
  84:Middlewares/lvgl/src/misc/lv_area.c ****     lv_coord_t h = lv_area_get_height(area_p);
 225              		.loc 1 84 5 is_stmt 1 view .LVU57
ARM GAS  /tmp/ccQ28q5O.s 			page 13


 226              	.LVL18:
 227              	.LBB118:
 228              	.LBI118:
 229              		.file 2 "Middlewares/lvgl/src/misc/lv_area.h"
   1:Middlewares/lvgl/src/misc/lv_area.h **** /**
   2:Middlewares/lvgl/src/misc/lv_area.h ****  * @file lv_area.h
   3:Middlewares/lvgl/src/misc/lv_area.h ****  *
   4:Middlewares/lvgl/src/misc/lv_area.h ****  */
   5:Middlewares/lvgl/src/misc/lv_area.h **** 
   6:Middlewares/lvgl/src/misc/lv_area.h **** #ifndef LV_AREA_H
   7:Middlewares/lvgl/src/misc/lv_area.h **** #define LV_AREA_H
   8:Middlewares/lvgl/src/misc/lv_area.h **** 
   9:Middlewares/lvgl/src/misc/lv_area.h **** #ifdef __cplusplus
  10:Middlewares/lvgl/src/misc/lv_area.h **** extern "C" {
  11:Middlewares/lvgl/src/misc/lv_area.h **** #endif
  12:Middlewares/lvgl/src/misc/lv_area.h **** 
  13:Middlewares/lvgl/src/misc/lv_area.h **** /*********************
  14:Middlewares/lvgl/src/misc/lv_area.h ****  *      INCLUDES
  15:Middlewares/lvgl/src/misc/lv_area.h ****  *********************/
  16:Middlewares/lvgl/src/misc/lv_area.h **** #include "../lv_conf_internal.h"
  17:Middlewares/lvgl/src/misc/lv_area.h **** #include <string.h>
  18:Middlewares/lvgl/src/misc/lv_area.h **** #include <stdbool.h>
  19:Middlewares/lvgl/src/misc/lv_area.h **** #include <stdint.h>
  20:Middlewares/lvgl/src/misc/lv_area.h **** 
  21:Middlewares/lvgl/src/misc/lv_area.h **** /*********************
  22:Middlewares/lvgl/src/misc/lv_area.h ****  *      DEFINES
  23:Middlewares/lvgl/src/misc/lv_area.h ****  *********************/
  24:Middlewares/lvgl/src/misc/lv_area.h **** 
  25:Middlewares/lvgl/src/misc/lv_area.h **** #define _LV_COORD_MAX_REDUCE    8192
  26:Middlewares/lvgl/src/misc/lv_area.h **** 
  27:Middlewares/lvgl/src/misc/lv_area.h **** #if LV_USE_LARGE_COORD
  28:Middlewares/lvgl/src/misc/lv_area.h **** typedef int32_t lv_coord_t;
  29:Middlewares/lvgl/src/misc/lv_area.h **** #else
  30:Middlewares/lvgl/src/misc/lv_area.h **** typedef int16_t lv_coord_t;
  31:Middlewares/lvgl/src/misc/lv_area.h **** #endif
  32:Middlewares/lvgl/src/misc/lv_area.h **** 
  33:Middlewares/lvgl/src/misc/lv_area.h **** /*To allow some special values in the end reduce the max value*/
  34:Middlewares/lvgl/src/misc/lv_area.h **** #define LV_COORD_MAX ((lv_coord_t)((uint32_t)((uint32_t)1 << (8 * sizeof(lv_coord_t) - 1)) - _LV_CO
  35:Middlewares/lvgl/src/misc/lv_area.h **** #define LV_COORD_MIN (-LV_COORD_MAX)
  36:Middlewares/lvgl/src/misc/lv_area.h **** 
  37:Middlewares/lvgl/src/misc/lv_area.h **** LV_EXPORT_CONST_INT(LV_COORD_MAX);
  38:Middlewares/lvgl/src/misc/lv_area.h **** LV_EXPORT_CONST_INT(LV_COORD_MIN);
  39:Middlewares/lvgl/src/misc/lv_area.h **** 
  40:Middlewares/lvgl/src/misc/lv_area.h **** /**********************
  41:Middlewares/lvgl/src/misc/lv_area.h ****  *      TYPEDEFS
  42:Middlewares/lvgl/src/misc/lv_area.h ****  **********************/
  43:Middlewares/lvgl/src/misc/lv_area.h **** 
  44:Middlewares/lvgl/src/misc/lv_area.h **** /**
  45:Middlewares/lvgl/src/misc/lv_area.h ****  * Represents a point on the screen.
  46:Middlewares/lvgl/src/misc/lv_area.h ****  */
  47:Middlewares/lvgl/src/misc/lv_area.h **** typedef struct {
  48:Middlewares/lvgl/src/misc/lv_area.h ****     lv_coord_t x;
  49:Middlewares/lvgl/src/misc/lv_area.h ****     lv_coord_t y;
  50:Middlewares/lvgl/src/misc/lv_area.h **** } lv_point_t;
  51:Middlewares/lvgl/src/misc/lv_area.h **** 
  52:Middlewares/lvgl/src/misc/lv_area.h **** /** Represents an area of the screen.*/
  53:Middlewares/lvgl/src/misc/lv_area.h **** typedef struct {
ARM GAS  /tmp/ccQ28q5O.s 			page 14


  54:Middlewares/lvgl/src/misc/lv_area.h ****     lv_coord_t x1;
  55:Middlewares/lvgl/src/misc/lv_area.h ****     lv_coord_t y1;
  56:Middlewares/lvgl/src/misc/lv_area.h ****     lv_coord_t x2;
  57:Middlewares/lvgl/src/misc/lv_area.h ****     lv_coord_t y2;
  58:Middlewares/lvgl/src/misc/lv_area.h **** } lv_area_t;
  59:Middlewares/lvgl/src/misc/lv_area.h **** 
  60:Middlewares/lvgl/src/misc/lv_area.h **** /** Alignments*/
  61:Middlewares/lvgl/src/misc/lv_area.h **** enum {
  62:Middlewares/lvgl/src/misc/lv_area.h ****     LV_ALIGN_DEFAULT = 0,
  63:Middlewares/lvgl/src/misc/lv_area.h ****     LV_ALIGN_TOP_LEFT,
  64:Middlewares/lvgl/src/misc/lv_area.h ****     LV_ALIGN_TOP_MID,
  65:Middlewares/lvgl/src/misc/lv_area.h ****     LV_ALIGN_TOP_RIGHT,
  66:Middlewares/lvgl/src/misc/lv_area.h ****     LV_ALIGN_BOTTOM_LEFT,
  67:Middlewares/lvgl/src/misc/lv_area.h ****     LV_ALIGN_BOTTOM_MID,
  68:Middlewares/lvgl/src/misc/lv_area.h ****     LV_ALIGN_BOTTOM_RIGHT,
  69:Middlewares/lvgl/src/misc/lv_area.h ****     LV_ALIGN_LEFT_MID,
  70:Middlewares/lvgl/src/misc/lv_area.h ****     LV_ALIGN_RIGHT_MID,
  71:Middlewares/lvgl/src/misc/lv_area.h ****     LV_ALIGN_CENTER,
  72:Middlewares/lvgl/src/misc/lv_area.h **** 
  73:Middlewares/lvgl/src/misc/lv_area.h ****     LV_ALIGN_OUT_TOP_LEFT,
  74:Middlewares/lvgl/src/misc/lv_area.h ****     LV_ALIGN_OUT_TOP_MID,
  75:Middlewares/lvgl/src/misc/lv_area.h ****     LV_ALIGN_OUT_TOP_RIGHT,
  76:Middlewares/lvgl/src/misc/lv_area.h ****     LV_ALIGN_OUT_BOTTOM_LEFT,
  77:Middlewares/lvgl/src/misc/lv_area.h ****     LV_ALIGN_OUT_BOTTOM_MID,
  78:Middlewares/lvgl/src/misc/lv_area.h ****     LV_ALIGN_OUT_BOTTOM_RIGHT,
  79:Middlewares/lvgl/src/misc/lv_area.h ****     LV_ALIGN_OUT_LEFT_TOP,
  80:Middlewares/lvgl/src/misc/lv_area.h ****     LV_ALIGN_OUT_LEFT_MID,
  81:Middlewares/lvgl/src/misc/lv_area.h ****     LV_ALIGN_OUT_LEFT_BOTTOM,
  82:Middlewares/lvgl/src/misc/lv_area.h ****     LV_ALIGN_OUT_RIGHT_TOP,
  83:Middlewares/lvgl/src/misc/lv_area.h ****     LV_ALIGN_OUT_RIGHT_MID,
  84:Middlewares/lvgl/src/misc/lv_area.h ****     LV_ALIGN_OUT_RIGHT_BOTTOM,
  85:Middlewares/lvgl/src/misc/lv_area.h **** };
  86:Middlewares/lvgl/src/misc/lv_area.h **** typedef uint8_t lv_align_t;
  87:Middlewares/lvgl/src/misc/lv_area.h **** 
  88:Middlewares/lvgl/src/misc/lv_area.h **** enum {
  89:Middlewares/lvgl/src/misc/lv_area.h ****     LV_DIR_NONE     = 0x00,
  90:Middlewares/lvgl/src/misc/lv_area.h ****     LV_DIR_LEFT     = (1 << 0),
  91:Middlewares/lvgl/src/misc/lv_area.h ****     LV_DIR_RIGHT    = (1 << 1),
  92:Middlewares/lvgl/src/misc/lv_area.h ****     LV_DIR_TOP      = (1 << 2),
  93:Middlewares/lvgl/src/misc/lv_area.h ****     LV_DIR_BOTTOM   = (1 << 3),
  94:Middlewares/lvgl/src/misc/lv_area.h ****     LV_DIR_HOR      = LV_DIR_LEFT | LV_DIR_RIGHT,
  95:Middlewares/lvgl/src/misc/lv_area.h ****     LV_DIR_VER      = LV_DIR_TOP | LV_DIR_BOTTOM,
  96:Middlewares/lvgl/src/misc/lv_area.h ****     LV_DIR_ALL      = LV_DIR_HOR | LV_DIR_VER,
  97:Middlewares/lvgl/src/misc/lv_area.h **** };
  98:Middlewares/lvgl/src/misc/lv_area.h **** 
  99:Middlewares/lvgl/src/misc/lv_area.h **** typedef uint8_t lv_dir_t;
 100:Middlewares/lvgl/src/misc/lv_area.h **** 
 101:Middlewares/lvgl/src/misc/lv_area.h **** /**********************
 102:Middlewares/lvgl/src/misc/lv_area.h ****  * GLOBAL PROTOTYPES
 103:Middlewares/lvgl/src/misc/lv_area.h ****  **********************/
 104:Middlewares/lvgl/src/misc/lv_area.h **** 
 105:Middlewares/lvgl/src/misc/lv_area.h **** /**
 106:Middlewares/lvgl/src/misc/lv_area.h ****  * Initialize an area
 107:Middlewares/lvgl/src/misc/lv_area.h ****  * @param area_p pointer to an area
 108:Middlewares/lvgl/src/misc/lv_area.h ****  * @param x1 left coordinate of the area
 109:Middlewares/lvgl/src/misc/lv_area.h ****  * @param y1 top coordinate of the area
 110:Middlewares/lvgl/src/misc/lv_area.h ****  * @param x2 right coordinate of the area
ARM GAS  /tmp/ccQ28q5O.s 			page 15


 111:Middlewares/lvgl/src/misc/lv_area.h ****  * @param y2 bottom coordinate of the area
 112:Middlewares/lvgl/src/misc/lv_area.h ****  */
 113:Middlewares/lvgl/src/misc/lv_area.h **** void lv_area_set(lv_area_t * area_p, lv_coord_t x1, lv_coord_t y1, lv_coord_t x2, lv_coord_t y2);
 114:Middlewares/lvgl/src/misc/lv_area.h **** 
 115:Middlewares/lvgl/src/misc/lv_area.h **** /**
 116:Middlewares/lvgl/src/misc/lv_area.h ****  * Copy an area
 117:Middlewares/lvgl/src/misc/lv_area.h ****  * @param dest pointer to the destination area
 118:Middlewares/lvgl/src/misc/lv_area.h ****  * @param src pointer to the source area
 119:Middlewares/lvgl/src/misc/lv_area.h ****  */
 120:Middlewares/lvgl/src/misc/lv_area.h **** inline static void lv_area_copy(lv_area_t * dest, const lv_area_t * src)
 121:Middlewares/lvgl/src/misc/lv_area.h **** {
 122:Middlewares/lvgl/src/misc/lv_area.h ****     dest->x1 = src->x1;
 123:Middlewares/lvgl/src/misc/lv_area.h ****     dest->y1 = src->y1;
 124:Middlewares/lvgl/src/misc/lv_area.h ****     dest->x2 = src->x2;
 125:Middlewares/lvgl/src/misc/lv_area.h ****     dest->y2 = src->y2;
 126:Middlewares/lvgl/src/misc/lv_area.h **** }
 127:Middlewares/lvgl/src/misc/lv_area.h **** 
 128:Middlewares/lvgl/src/misc/lv_area.h **** /**
 129:Middlewares/lvgl/src/misc/lv_area.h ****  * Get the width of an area
 130:Middlewares/lvgl/src/misc/lv_area.h ****  * @param area_p pointer to an area
 131:Middlewares/lvgl/src/misc/lv_area.h ****  * @return the width of the area (if x1 == x2 -> width = 1)
 132:Middlewares/lvgl/src/misc/lv_area.h ****  */
 133:Middlewares/lvgl/src/misc/lv_area.h **** static inline lv_coord_t lv_area_get_width(const lv_area_t * area_p)
 230              		.loc 2 133 26 view .LVU58
 231              	.LBB119:
 134:Middlewares/lvgl/src/misc/lv_area.h **** {
 135:Middlewares/lvgl/src/misc/lv_area.h ****     return (lv_coord_t)(area_p->x2 - area_p->x1 + 1);
 232              		.loc 2 135 5 view .LVU59
 233              		.loc 2 135 31 is_stmt 0 view .LVU60
 234 0004 8388     		ldrh	r3, [r0, #4]
 235              		.loc 2 135 44 view .LVU61
 236 0006 0588     		ldrh	r5, [r0]
 237              		.loc 2 135 36 view .LVU62
 238 0008 5B1B     		subs	r3, r3, r5
 239 000a 9BB2     		uxth	r3, r3
 240              		.loc 2 135 49 view .LVU63
 241 000c 0133     		adds	r3, r3, #1
 242              	.LVL19:
 243              		.loc 2 135 49 view .LVU64
 244              	.LBE119:
 245              	.LBE118:
  85:Middlewares/lvgl/src/misc/lv_area.c ****     area_p->x1   = x;
 246              		.loc 1 85 5 is_stmt 1 view .LVU65
 247              	.LBB120:
 248              	.LBI120:
 136:Middlewares/lvgl/src/misc/lv_area.h **** }
 137:Middlewares/lvgl/src/misc/lv_area.h **** 
 138:Middlewares/lvgl/src/misc/lv_area.h **** /**
 139:Middlewares/lvgl/src/misc/lv_area.h ****  * Get the height of an area
 140:Middlewares/lvgl/src/misc/lv_area.h ****  * @param area_p pointer to an area
 141:Middlewares/lvgl/src/misc/lv_area.h ****  * @return the height of the area (if y1 == y2 -> height = 1)
 142:Middlewares/lvgl/src/misc/lv_area.h ****  */
 143:Middlewares/lvgl/src/misc/lv_area.h **** static inline lv_coord_t lv_area_get_height(const lv_area_t * area_p)
 249              		.loc 2 143 26 view .LVU66
 250              	.LBB121:
 144:Middlewares/lvgl/src/misc/lv_area.h **** {
 145:Middlewares/lvgl/src/misc/lv_area.h ****     return (lv_coord_t)(area_p->y2 - area_p->y1 + 1);
ARM GAS  /tmp/ccQ28q5O.s 			page 16


 251              		.loc 2 145 5 view .LVU67
 252              		.loc 2 145 31 is_stmt 0 view .LVU68
 253 000e C588     		ldrh	r5, [r0, #6]
 254              		.loc 2 145 44 view .LVU69
 255 0010 B0F802C0 		ldrh	ip, [r0, #2]
 256              		.loc 2 145 36 view .LVU70
 257 0014 A5EB0C05 		sub	r5, r5, ip
 258 0018 ADB2     		uxth	r5, r5
 259              		.loc 2 145 49 view .LVU71
 260 001a 0135     		adds	r5, r5, #1
 261              		.loc 2 145 12 view .LVU72
 262 001c 2DB2     		sxth	r5, r5
 263              	.LVL20:
 264              		.loc 2 145 12 view .LVU73
 265              	.LBE121:
 266              	.LBE120:
  86:Middlewares/lvgl/src/misc/lv_area.c ****     area_p->y1   = y;
 267              		.loc 1 86 5 is_stmt 1 view .LVU74
  86:Middlewares/lvgl/src/misc/lv_area.c ****     area_p->y1   = y;
 268              		.loc 1 86 18 is_stmt 0 view .LVU75
 269 001e 0180     		strh	r1, [r0]	@ movhi
  87:Middlewares/lvgl/src/misc/lv_area.c ****     lv_area_set_width(area_p, w);
 270              		.loc 1 87 5 is_stmt 1 view .LVU76
  87:Middlewares/lvgl/src/misc/lv_area.c ****     lv_area_set_width(area_p, w);
 271              		.loc 1 87 18 is_stmt 0 view .LVU77
 272 0020 4280     		strh	r2, [r0, #2]	@ movhi
  88:Middlewares/lvgl/src/misc/lv_area.c ****     lv_area_set_height(area_p, h);
 273              		.loc 1 88 5 is_stmt 1 view .LVU78
 274 0022 19B2     		sxth	r1, r3
 275              	.LVL21:
  88:Middlewares/lvgl/src/misc/lv_area.c ****     lv_area_set_height(area_p, h);
 276              		.loc 1 88 5 is_stmt 0 view .LVU79
 277 0024 FFF7FEFF 		bl	lv_area_set_width
 278              	.LVL22:
  89:Middlewares/lvgl/src/misc/lv_area.c **** }
 279              		.loc 1 89 5 is_stmt 1 view .LVU80
 280 0028 2946     		mov	r1, r5
 281 002a 2046     		mov	r0, r4
 282 002c FFF7FEFF 		bl	lv_area_set_height
 283              	.LVL23:
  90:Middlewares/lvgl/src/misc/lv_area.c **** 
 284              		.loc 1 90 1 is_stmt 0 view .LVU81
 285 0030 38BD     		pop	{r3, r4, r5, pc}
  90:Middlewares/lvgl/src/misc/lv_area.c **** 
 286              		.loc 1 90 1 view .LVU82
 287              		.cfi_endproc
 288              	.LFE8:
 290              		.section	.text.lv_area_get_size,"ax",%progbits
 291              		.align	1
 292              		.global	lv_area_get_size
 293              		.syntax unified
 294              		.thumb
 295              		.thumb_func
 297              	lv_area_get_size:
 298              	.LVL24:
 299              	.LFB9:
  98:Middlewares/lvgl/src/misc/lv_area.c ****     uint32_t size;
ARM GAS  /tmp/ccQ28q5O.s 			page 17


 300              		.loc 1 98 1 is_stmt 1 view -0
 301              		.cfi_startproc
 302              		@ args = 0, pretend = 0, frame = 0
 303              		@ frame_needed = 0, uses_anonymous_args = 0
 304              		@ link register save eliminated.
  99:Middlewares/lvgl/src/misc/lv_area.c **** 
 305              		.loc 1 99 5 view .LVU84
 101:Middlewares/lvgl/src/misc/lv_area.c **** 
 306              		.loc 1 101 5 view .LVU85
 101:Middlewares/lvgl/src/misc/lv_area.c **** 
 307              		.loc 1 101 29 is_stmt 0 view .LVU86
 308 0000 B0F90420 		ldrsh	r2, [r0, #4]
 101:Middlewares/lvgl/src/misc/lv_area.c **** 
 309              		.loc 1 101 42 view .LVU87
 310 0004 B0F90030 		ldrsh	r3, [r0]
 101:Middlewares/lvgl/src/misc/lv_area.c **** 
 311              		.loc 1 101 34 view .LVU88
 312 0008 D21A     		subs	r2, r2, r3
 101:Middlewares/lvgl/src/misc/lv_area.c **** 
 313              		.loc 1 101 61 view .LVU89
 314 000a B0F90630 		ldrsh	r3, [r0, #6]
 101:Middlewares/lvgl/src/misc/lv_area.c **** 
 315              		.loc 1 101 74 view .LVU90
 316 000e B0F90200 		ldrsh	r0, [r0, #2]
 317              	.LVL25:
 101:Middlewares/lvgl/src/misc/lv_area.c **** 
 318              		.loc 1 101 66 view .LVU91
 319 0012 181A     		subs	r0, r3, r0
 101:Middlewares/lvgl/src/misc/lv_area.c **** 
 320              		.loc 1 101 79 view .LVU92
 321 0014 0130     		adds	r0, r0, #1
 322              	.LVL26:
 103:Middlewares/lvgl/src/misc/lv_area.c **** }
 323              		.loc 1 103 5 is_stmt 1 view .LVU93
 104:Middlewares/lvgl/src/misc/lv_area.c **** 
 324              		.loc 1 104 1 is_stmt 0 view .LVU94
 325 0016 02FB0000 		mla	r0, r2, r0, r0
 326              	.LVL27:
 104:Middlewares/lvgl/src/misc/lv_area.c **** 
 327              		.loc 1 104 1 view .LVU95
 328 001a 7047     		bx	lr
 329              		.cfi_endproc
 330              	.LFE9:
 332              		.section	.text.lv_area_increase,"ax",%progbits
 333              		.align	1
 334              		.global	lv_area_increase
 335              		.syntax unified
 336              		.thumb
 337              		.thumb_func
 339              	lv_area_increase:
 340              	.LVL28:
 341              	.LFB10:
 107:Middlewares/lvgl/src/misc/lv_area.c ****     area->x1 -= w_extra;
 342              		.loc 1 107 1 is_stmt 1 view -0
 343              		.cfi_startproc
 344              		@ args = 0, pretend = 0, frame = 0
 345              		@ frame_needed = 0, uses_anonymous_args = 0
ARM GAS  /tmp/ccQ28q5O.s 			page 18


 346              		@ link register save eliminated.
 108:Middlewares/lvgl/src/misc/lv_area.c ****     area->x2 += w_extra;
 347              		.loc 1 108 5 view .LVU97
 108:Middlewares/lvgl/src/misc/lv_area.c ****     area->x2 += w_extra;
 348              		.loc 1 108 14 is_stmt 0 view .LVU98
 349 0000 89B2     		uxth	r1, r1
 108:Middlewares/lvgl/src/misc/lv_area.c ****     area->x2 += w_extra;
 350              		.loc 1 108 14 view .LVU99
 351 0002 0388     		ldrh	r3, [r0]
 352 0004 5B1A     		subs	r3, r3, r1
 353 0006 0380     		strh	r3, [r0]	@ movhi
 109:Middlewares/lvgl/src/misc/lv_area.c ****     area->y1 -= h_extra;
 354              		.loc 1 109 5 is_stmt 1 view .LVU100
 109:Middlewares/lvgl/src/misc/lv_area.c ****     area->y1 -= h_extra;
 355              		.loc 1 109 14 is_stmt 0 view .LVU101
 356 0008 8388     		ldrh	r3, [r0, #4]
 357 000a 1944     		add	r1, r1, r3
 358              	.LVL29:
 109:Middlewares/lvgl/src/misc/lv_area.c ****     area->y1 -= h_extra;
 359              		.loc 1 109 14 view .LVU102
 360 000c 8180     		strh	r1, [r0, #4]	@ movhi
 110:Middlewares/lvgl/src/misc/lv_area.c ****     area->y2 += h_extra;
 361              		.loc 1 110 5 is_stmt 1 view .LVU103
 110:Middlewares/lvgl/src/misc/lv_area.c ****     area->y2 += h_extra;
 362              		.loc 1 110 14 is_stmt 0 view .LVU104
 363 000e 92B2     		uxth	r2, r2
 110:Middlewares/lvgl/src/misc/lv_area.c ****     area->y2 += h_extra;
 364              		.loc 1 110 14 view .LVU105
 365 0010 4388     		ldrh	r3, [r0, #2]
 366 0012 9B1A     		subs	r3, r3, r2
 367 0014 4380     		strh	r3, [r0, #2]	@ movhi
 111:Middlewares/lvgl/src/misc/lv_area.c **** }
 368              		.loc 1 111 5 is_stmt 1 view .LVU106
 111:Middlewares/lvgl/src/misc/lv_area.c **** }
 369              		.loc 1 111 14 is_stmt 0 view .LVU107
 370 0016 C388     		ldrh	r3, [r0, #6]
 371 0018 1A44     		add	r2, r2, r3
 372              	.LVL30:
 111:Middlewares/lvgl/src/misc/lv_area.c **** }
 373              		.loc 1 111 14 view .LVU108
 374 001a C280     		strh	r2, [r0, #6]	@ movhi
 112:Middlewares/lvgl/src/misc/lv_area.c **** 
 375              		.loc 1 112 1 view .LVU109
 376 001c 7047     		bx	lr
 377              		.cfi_endproc
 378              	.LFE10:
 380              		.section	.text.lv_area_move,"ax",%progbits
 381              		.align	1
 382              		.global	lv_area_move
 383              		.syntax unified
 384              		.thumb
 385              		.thumb_func
 387              	lv_area_move:
 388              	.LVL31:
 389              	.LFB11:
 115:Middlewares/lvgl/src/misc/lv_area.c ****     area->x1 += x_ofs;
 390              		.loc 1 115 1 is_stmt 1 view -0
ARM GAS  /tmp/ccQ28q5O.s 			page 19


 391              		.cfi_startproc
 392              		@ args = 0, pretend = 0, frame = 0
 393              		@ frame_needed = 0, uses_anonymous_args = 0
 394              		@ link register save eliminated.
 116:Middlewares/lvgl/src/misc/lv_area.c ****     area->x2 += x_ofs;
 395              		.loc 1 116 5 view .LVU111
 116:Middlewares/lvgl/src/misc/lv_area.c ****     area->x2 += x_ofs;
 396              		.loc 1 116 14 is_stmt 0 view .LVU112
 397 0000 89B2     		uxth	r1, r1
 116:Middlewares/lvgl/src/misc/lv_area.c ****     area->x2 += x_ofs;
 398              		.loc 1 116 14 view .LVU113
 399 0002 0388     		ldrh	r3, [r0]
 400 0004 0B44     		add	r3, r3, r1
 401 0006 0380     		strh	r3, [r0]	@ movhi
 117:Middlewares/lvgl/src/misc/lv_area.c ****     area->y1 += y_ofs;
 402              		.loc 1 117 5 is_stmt 1 view .LVU114
 117:Middlewares/lvgl/src/misc/lv_area.c ****     area->y1 += y_ofs;
 403              		.loc 1 117 14 is_stmt 0 view .LVU115
 404 0008 8388     		ldrh	r3, [r0, #4]
 405 000a 1944     		add	r1, r1, r3
 406              	.LVL32:
 117:Middlewares/lvgl/src/misc/lv_area.c ****     area->y1 += y_ofs;
 407              		.loc 1 117 14 view .LVU116
 408 000c 8180     		strh	r1, [r0, #4]	@ movhi
 118:Middlewares/lvgl/src/misc/lv_area.c ****     area->y2 += y_ofs;
 409              		.loc 1 118 5 is_stmt 1 view .LVU117
 118:Middlewares/lvgl/src/misc/lv_area.c ****     area->y2 += y_ofs;
 410              		.loc 1 118 14 is_stmt 0 view .LVU118
 411 000e 92B2     		uxth	r2, r2
 118:Middlewares/lvgl/src/misc/lv_area.c ****     area->y2 += y_ofs;
 412              		.loc 1 118 14 view .LVU119
 413 0010 4388     		ldrh	r3, [r0, #2]
 414 0012 1344     		add	r3, r3, r2
 415 0014 4380     		strh	r3, [r0, #2]	@ movhi
 119:Middlewares/lvgl/src/misc/lv_area.c **** }
 416              		.loc 1 119 5 is_stmt 1 view .LVU120
 119:Middlewares/lvgl/src/misc/lv_area.c **** }
 417              		.loc 1 119 14 is_stmt 0 view .LVU121
 418 0016 C388     		ldrh	r3, [r0, #6]
 419 0018 1A44     		add	r2, r2, r3
 420              	.LVL33:
 119:Middlewares/lvgl/src/misc/lv_area.c **** }
 421              		.loc 1 119 14 view .LVU122
 422 001a C280     		strh	r2, [r0, #6]	@ movhi
 120:Middlewares/lvgl/src/misc/lv_area.c **** 
 423              		.loc 1 120 1 view .LVU123
 424 001c 7047     		bx	lr
 425              		.cfi_endproc
 426              	.LFE11:
 428              		.section	.text._lv_area_intersect,"ax",%progbits
 429              		.align	1
 430              		.global	_lv_area_intersect
 431              		.syntax unified
 432              		.thumb
 433              		.thumb_func
 435              	_lv_area_intersect:
 436              	.LVL34:
ARM GAS  /tmp/ccQ28q5O.s 			page 20


 437              	.LFB12:
 130:Middlewares/lvgl/src/misc/lv_area.c ****     /*Get the smaller area from 'a1_p' and 'a2_p'*/
 438              		.loc 1 130 1 is_stmt 1 view -0
 439              		.cfi_startproc
 440              		@ args = 0, pretend = 0, frame = 0
 441              		@ frame_needed = 0, uses_anonymous_args = 0
 130:Middlewares/lvgl/src/misc/lv_area.c ****     /*Get the smaller area from 'a1_p' and 'a2_p'*/
 442              		.loc 1 130 1 is_stmt 0 view .LVU125
 443 0000 10B5     		push	{r4, lr}
 444              	.LCFI2:
 445              		.cfi_def_cfa_offset 8
 446              		.cfi_offset 4, -8
 447              		.cfi_offset 14, -4
 132:Middlewares/lvgl/src/misc/lv_area.c ****     res_p->y1 = LV_MAX(a1_p->y1, a2_p->y1);
 448              		.loc 1 132 5 is_stmt 1 view .LVU126
 132:Middlewares/lvgl/src/misc/lv_area.c ****     res_p->y1 = LV_MAX(a1_p->y1, a2_p->y1);
 449              		.loc 1 132 17 is_stmt 0 view .LVU127
 450 0002 B2F900C0 		ldrsh	ip, [r2]
 451 0006 B1F90030 		ldrsh	r3, [r1]
 452 000a 9C45     		cmp	ip, r3
 453 000c B8BF     		it	lt
 454 000e 9C46     		movlt	ip, r3
 132:Middlewares/lvgl/src/misc/lv_area.c ****     res_p->y1 = LV_MAX(a1_p->y1, a2_p->y1);
 455              		.loc 1 132 15 view .LVU128
 456 0010 A0F800C0 		strh	ip, [r0]	@ movhi
 133:Middlewares/lvgl/src/misc/lv_area.c ****     res_p->x2 = LV_MIN(a1_p->x2, a2_p->x2);
 457              		.loc 1 133 5 is_stmt 1 view .LVU129
 133:Middlewares/lvgl/src/misc/lv_area.c ****     res_p->x2 = LV_MIN(a1_p->x2, a2_p->x2);
 458              		.loc 1 133 17 is_stmt 0 view .LVU130
 459 0014 B2F902E0 		ldrsh	lr, [r2, #2]
 460 0018 B1F90230 		ldrsh	r3, [r1, #2]
 461 001c 9E45     		cmp	lr, r3
 462 001e B8BF     		it	lt
 463 0020 9E46     		movlt	lr, r3
 133:Middlewares/lvgl/src/misc/lv_area.c ****     res_p->x2 = LV_MIN(a1_p->x2, a2_p->x2);
 464              		.loc 1 133 15 view .LVU131
 465 0022 A0F802E0 		strh	lr, [r0, #2]	@ movhi
 134:Middlewares/lvgl/src/misc/lv_area.c ****     res_p->y2 = LV_MIN(a1_p->y2, a2_p->y2);
 466              		.loc 1 134 5 is_stmt 1 view .LVU132
 134:Middlewares/lvgl/src/misc/lv_area.c ****     res_p->y2 = LV_MIN(a1_p->y2, a2_p->y2);
 467              		.loc 1 134 17 is_stmt 0 view .LVU133
 468 0026 B2F90430 		ldrsh	r3, [r2, #4]
 469 002a B1F90440 		ldrsh	r4, [r1, #4]
 470 002e A342     		cmp	r3, r4
 471 0030 A8BF     		it	ge
 472 0032 2346     		movge	r3, r4
 134:Middlewares/lvgl/src/misc/lv_area.c ****     res_p->y2 = LV_MIN(a1_p->y2, a2_p->y2);
 473              		.loc 1 134 15 view .LVU134
 474 0034 8380     		strh	r3, [r0, #4]	@ movhi
 135:Middlewares/lvgl/src/misc/lv_area.c **** 
 475              		.loc 1 135 5 is_stmt 1 view .LVU135
 135:Middlewares/lvgl/src/misc/lv_area.c **** 
 476              		.loc 1 135 17 is_stmt 0 view .LVU136
 477 0036 B2F90620 		ldrsh	r2, [r2, #6]
 478              	.LVL35:
 135:Middlewares/lvgl/src/misc/lv_area.c **** 
 479              		.loc 1 135 17 view .LVU137
ARM GAS  /tmp/ccQ28q5O.s 			page 21


 480 003a B1F90610 		ldrsh	r1, [r1, #6]
 481              	.LVL36:
 135:Middlewares/lvgl/src/misc/lv_area.c **** 
 482              		.loc 1 135 17 view .LVU138
 483 003e 8A42     		cmp	r2, r1
 484 0040 A8BF     		it	ge
 485 0042 0A46     		movge	r2, r1
 135:Middlewares/lvgl/src/misc/lv_area.c **** 
 486              		.loc 1 135 15 view .LVU139
 487 0044 C280     		strh	r2, [r0, #6]	@ movhi
 138:Middlewares/lvgl/src/misc/lv_area.c ****     if((res_p->x1 > res_p->x2) || (res_p->y1 > res_p->y2)) {
 488              		.loc 1 138 5 is_stmt 1 view .LVU140
 489              	.LVL37:
 139:Middlewares/lvgl/src/misc/lv_area.c ****         union_ok = false;
 490              		.loc 1 139 5 view .LVU141
 139:Middlewares/lvgl/src/misc/lv_area.c ****         union_ok = false;
 491              		.loc 1 139 7 is_stmt 0 view .LVU142
 492 0046 9C45     		cmp	ip, r3
 493 0048 03DC     		bgt	.L15
 139:Middlewares/lvgl/src/misc/lv_area.c ****         union_ok = false;
 494              		.loc 1 139 32 discriminator 1 view .LVU143
 495 004a 9645     		cmp	lr, r2
 496 004c 03DC     		bgt	.L16
 138:Middlewares/lvgl/src/misc/lv_area.c ****     if((res_p->x1 > res_p->x2) || (res_p->y1 > res_p->y2)) {
 497              		.loc 1 138 10 view .LVU144
 498 004e 0120     		movs	r0, #1
 499              	.LVL38:
 138:Middlewares/lvgl/src/misc/lv_area.c ****     if((res_p->x1 > res_p->x2) || (res_p->y1 > res_p->y2)) {
 500              		.loc 1 138 10 view .LVU145
 501 0050 00E0     		b	.L14
 502              	.LVL39:
 503              	.L15:
 140:Middlewares/lvgl/src/misc/lv_area.c ****     }
 504              		.loc 1 140 18 view .LVU146
 505 0052 0020     		movs	r0, #0
 506              	.LVL40:
 507              	.L14:
 143:Middlewares/lvgl/src/misc/lv_area.c **** }
 508              		.loc 1 143 5 is_stmt 1 view .LVU147
 144:Middlewares/lvgl/src/misc/lv_area.c **** /**
 509              		.loc 1 144 1 is_stmt 0 view .LVU148
 510 0054 10BD     		pop	{r4, pc}
 511              	.LVL41:
 512              	.L16:
 140:Middlewares/lvgl/src/misc/lv_area.c ****     }
 513              		.loc 1 140 18 view .LVU149
 514 0056 0020     		movs	r0, #0
 515              	.LVL42:
 140:Middlewares/lvgl/src/misc/lv_area.c ****     }
 516              		.loc 1 140 18 view .LVU150
 517 0058 FCE7     		b	.L14
 518              		.cfi_endproc
 519              	.LFE12:
 521              		.section	.text._lv_area_join,"ax",%progbits
 522              		.align	1
 523              		.global	_lv_area_join
 524              		.syntax unified
ARM GAS  /tmp/ccQ28q5O.s 			page 22


 525              		.thumb
 526              		.thumb_func
 528              	_lv_area_join:
 529              	.LVL43:
 530              	.LFB13:
 152:Middlewares/lvgl/src/misc/lv_area.c ****     a_res_p->x1 = LV_MIN(a1_p->x1, a2_p->x1);
 531              		.loc 1 152 1 is_stmt 1 view -0
 532              		.cfi_startproc
 533              		@ args = 0, pretend = 0, frame = 0
 534              		@ frame_needed = 0, uses_anonymous_args = 0
 535              		@ link register save eliminated.
 153:Middlewares/lvgl/src/misc/lv_area.c ****     a_res_p->y1 = LV_MIN(a1_p->y1, a2_p->y1);
 536              		.loc 1 153 5 view .LVU152
 153:Middlewares/lvgl/src/misc/lv_area.c ****     a_res_p->y1 = LV_MIN(a1_p->y1, a2_p->y1);
 537              		.loc 1 153 19 is_stmt 0 view .LVU153
 538 0000 B2F90030 		ldrsh	r3, [r2]
 539 0004 B1F900C0 		ldrsh	ip, [r1]
 540 0008 6345     		cmp	r3, ip
 541 000a A8BF     		it	ge
 542 000c 6346     		movge	r3, ip
 153:Middlewares/lvgl/src/misc/lv_area.c ****     a_res_p->y1 = LV_MIN(a1_p->y1, a2_p->y1);
 543              		.loc 1 153 17 view .LVU154
 544 000e 0380     		strh	r3, [r0]	@ movhi
 154:Middlewares/lvgl/src/misc/lv_area.c ****     a_res_p->x2 = LV_MAX(a1_p->x2, a2_p->x2);
 545              		.loc 1 154 5 is_stmt 1 view .LVU155
 154:Middlewares/lvgl/src/misc/lv_area.c ****     a_res_p->x2 = LV_MAX(a1_p->x2, a2_p->x2);
 546              		.loc 1 154 19 is_stmt 0 view .LVU156
 547 0010 B2F90230 		ldrsh	r3, [r2, #2]
 548 0014 B1F902C0 		ldrsh	ip, [r1, #2]
 549 0018 6345     		cmp	r3, ip
 550 001a A8BF     		it	ge
 551 001c 6346     		movge	r3, ip
 154:Middlewares/lvgl/src/misc/lv_area.c ****     a_res_p->x2 = LV_MAX(a1_p->x2, a2_p->x2);
 552              		.loc 1 154 17 view .LVU157
 553 001e 4380     		strh	r3, [r0, #2]	@ movhi
 155:Middlewares/lvgl/src/misc/lv_area.c ****     a_res_p->y2 = LV_MAX(a1_p->y2, a2_p->y2);
 554              		.loc 1 155 5 is_stmt 1 view .LVU158
 155:Middlewares/lvgl/src/misc/lv_area.c ****     a_res_p->y2 = LV_MAX(a1_p->y2, a2_p->y2);
 555              		.loc 1 155 19 is_stmt 0 view .LVU159
 556 0020 B2F90430 		ldrsh	r3, [r2, #4]
 557 0024 B1F904C0 		ldrsh	ip, [r1, #4]
 558 0028 6345     		cmp	r3, ip
 559 002a B8BF     		it	lt
 560 002c 6346     		movlt	r3, ip
 155:Middlewares/lvgl/src/misc/lv_area.c ****     a_res_p->y2 = LV_MAX(a1_p->y2, a2_p->y2);
 561              		.loc 1 155 17 view .LVU160
 562 002e 8380     		strh	r3, [r0, #4]	@ movhi
 156:Middlewares/lvgl/src/misc/lv_area.c **** }
 563              		.loc 1 156 5 is_stmt 1 view .LVU161
 156:Middlewares/lvgl/src/misc/lv_area.c **** }
 564              		.loc 1 156 19 is_stmt 0 view .LVU162
 565 0030 B2F90630 		ldrsh	r3, [r2, #6]
 566 0034 B1F90620 		ldrsh	r2, [r1, #6]
 567              	.LVL44:
 156:Middlewares/lvgl/src/misc/lv_area.c **** }
 568              		.loc 1 156 19 view .LVU163
 569 0038 9342     		cmp	r3, r2
ARM GAS  /tmp/ccQ28q5O.s 			page 23


 570 003a B8BF     		it	lt
 571 003c 1346     		movlt	r3, r2
 156:Middlewares/lvgl/src/misc/lv_area.c **** }
 572              		.loc 1 156 17 view .LVU164
 573 003e C380     		strh	r3, [r0, #6]	@ movhi
 157:Middlewares/lvgl/src/misc/lv_area.c **** 
 574              		.loc 1 157 1 view .LVU165
 575 0040 7047     		bx	lr
 576              		.cfi_endproc
 577              	.LFE13:
 579              		.section	.text._lv_area_is_point_on,"ax",%progbits
 580              		.align	1
 581              		.global	_lv_area_is_point_on
 582              		.syntax unified
 583              		.thumb
 584              		.thumb_func
 586              	_lv_area_is_point_on:
 587              	.LVL45:
 588              	.LFB14:
 167:Middlewares/lvgl/src/misc/lv_area.c ****     /*First check the basic area*/
 589              		.loc 1 167 1 is_stmt 1 view -0
 590              		.cfi_startproc
 591              		@ args = 0, pretend = 0, frame = 8
 592              		@ frame_needed = 0, uses_anonymous_args = 0
 167:Middlewares/lvgl/src/misc/lv_area.c ****     /*First check the basic area*/
 593              		.loc 1 167 1 is_stmt 0 view .LVU167
 594 0000 70B5     		push	{r4, r5, r6, lr}
 595              	.LCFI3:
 596              		.cfi_def_cfa_offset 16
 597              		.cfi_offset 4, -16
 598              		.cfi_offset 5, -12
 599              		.cfi_offset 6, -8
 600              		.cfi_offset 14, -4
 601 0002 82B0     		sub	sp, sp, #8
 602              	.LCFI4:
 603              		.cfi_def_cfa_offset 24
 604 0004 0446     		mov	r4, r0
 605 0006 0D46     		mov	r5, r1
 169:Middlewares/lvgl/src/misc/lv_area.c ****     if((p_p->x >= a_p->x1 && p_p->x <= a_p->x2) && ((p_p->y >= a_p->y1 && p_p->y <= a_p->y2))) {
 606              		.loc 1 169 5 is_stmt 1 view .LVU168
 607              	.LVL46:
 170:Middlewares/lvgl/src/misc/lv_area.c ****         is_on_rect = true;
 608              		.loc 1 170 5 view .LVU169
 170:Middlewares/lvgl/src/misc/lv_area.c ****         is_on_rect = true;
 609              		.loc 1 170 12 is_stmt 0 view .LVU170
 610 0008 B1F90010 		ldrsh	r1, [r1]
 611              	.LVL47:
 170:Middlewares/lvgl/src/misc/lv_area.c ****         is_on_rect = true;
 612              		.loc 1 170 22 view .LVU171
 613 000c B0F90000 		ldrsh	r0, [r0]
 614              	.LVL48:
 170:Middlewares/lvgl/src/misc/lv_area.c ****         is_on_rect = true;
 615              		.loc 1 170 7 view .LVU172
 616 0010 8142     		cmp	r1, r0
 617 0012 C0F2AE80 		blt	.L25
 170:Middlewares/lvgl/src/misc/lv_area.c ****         is_on_rect = true;
 618              		.loc 1 170 43 discriminator 1 view .LVU173
ARM GAS  /tmp/ccQ28q5O.s 			page 24


 619 0016 B4F90430 		ldrsh	r3, [r4, #4]
 170:Middlewares/lvgl/src/misc/lv_area.c ****         is_on_rect = true;
 620              		.loc 1 170 27 discriminator 1 view .LVU174
 621 001a 9942     		cmp	r1, r3
 622 001c 00F3AC80 		bgt	.L26
 170:Middlewares/lvgl/src/misc/lv_area.c ****         is_on_rect = true;
 623              		.loc 1 170 57 discriminator 2 view .LVU175
 624 0020 B5F90260 		ldrsh	r6, [r5, #2]
 170:Middlewares/lvgl/src/misc/lv_area.c ****         is_on_rect = true;
 625              		.loc 1 170 67 discriminator 2 view .LVU176
 626 0024 B4F902E0 		ldrsh	lr, [r4, #2]
 170:Middlewares/lvgl/src/misc/lv_area.c ****         is_on_rect = true;
 627              		.loc 1 170 49 discriminator 2 view .LVU177
 628 0028 7645     		cmp	r6, lr
 629 002a C0F2A780 		blt	.L27
 170:Middlewares/lvgl/src/misc/lv_area.c ****         is_on_rect = true;
 630              		.loc 1 170 88 discriminator 3 view .LVU178
 631 002e B4F90610 		ldrsh	r1, [r4, #6]
 170:Middlewares/lvgl/src/misc/lv_area.c ****         is_on_rect = true;
 632              		.loc 1 170 72 discriminator 3 view .LVU179
 633 0032 8E42     		cmp	r6, r1
 634 0034 00F3A480 		bgt	.L28
 171:Middlewares/lvgl/src/misc/lv_area.c ****     }
 635              		.loc 1 171 9 is_stmt 1 view .LVU180
 636              	.LVL49:
 173:Middlewares/lvgl/src/misc/lv_area.c ****         return false;
 637              		.loc 1 173 5 view .LVU181
 176:Middlewares/lvgl/src/misc/lv_area.c ****         /*No radius, it is within the rectangle*/
 638              		.loc 1 176 5 view .LVU182
 176:Middlewares/lvgl/src/misc/lv_area.c ****         /*No radius, it is within the rectangle*/
 639              		.loc 1 176 7 is_stmt 0 view .LVU183
 640 0038 002A     		cmp	r2, #0
 641 003a 40F3A380 		ble	.L29
 180:Middlewares/lvgl/src/misc/lv_area.c ****     lv_coord_t h = lv_area_get_height(a_p) / 2;
 642              		.loc 1 180 5 is_stmt 1 view .LVU184
 643              	.LVL50:
 644              	.LBB122:
 645              	.LBI122:
 133:Middlewares/lvgl/src/misc/lv_area.h **** {
 646              		.loc 2 133 26 view .LVU185
 647              	.LBB123:
 135:Middlewares/lvgl/src/misc/lv_area.h **** }
 648              		.loc 2 135 5 view .LVU186
 135:Middlewares/lvgl/src/misc/lv_area.h **** }
 649              		.loc 2 135 31 is_stmt 0 view .LVU187
 650 003e 9BB2     		uxth	r3, r3
 135:Middlewares/lvgl/src/misc/lv_area.h **** }
 651              		.loc 2 135 44 view .LVU188
 652 0040 1FFA80FC 		uxth	ip, r0
 135:Middlewares/lvgl/src/misc/lv_area.h **** }
 653              		.loc 2 135 36 view .LVU189
 654 0044 A3EB0C03 		sub	r3, r3, ip
 655 0048 9BB2     		uxth	r3, r3
 135:Middlewares/lvgl/src/misc/lv_area.h **** }
 656              		.loc 2 135 49 view .LVU190
 657 004a 0133     		adds	r3, r3, #1
 658              	.LVL51:
ARM GAS  /tmp/ccQ28q5O.s 			page 25


 135:Middlewares/lvgl/src/misc/lv_area.h **** }
 659              		.loc 2 135 49 view .LVU191
 660              	.LBE123:
 661              	.LBE122:
 180:Middlewares/lvgl/src/misc/lv_area.c ****     lv_coord_t h = lv_area_get_height(a_p) / 2;
 662              		.loc 1 180 16 view .LVU192
 663 004c C3F3C036 		ubfx	r6, r3, #15, #1
 664 0050 06FA83F3 		sxtah	r3, r6, r3
 665 0054 5B10     		asrs	r3, r3, #1
 666              	.LVL52:
 181:Middlewares/lvgl/src/misc/lv_area.c ****     lv_coord_t max_radius = LV_MIN(w, h);
 667              		.loc 1 181 5 is_stmt 1 view .LVU193
 668              	.LBB124:
 669              	.LBI124:
 143:Middlewares/lvgl/src/misc/lv_area.h **** {
 670              		.loc 2 143 26 view .LVU194
 671              	.LBB125:
 672              		.loc 2 145 5 view .LVU195
 673              		.loc 2 145 31 is_stmt 0 view .LVU196
 674 0056 89B2     		uxth	r1, r1
 675              		.loc 2 145 44 view .LVU197
 676 0058 1FFA8EFE 		uxth	lr, lr
 677              		.loc 2 145 36 view .LVU198
 678 005c A1EB0E01 		sub	r1, r1, lr
 679 0060 89B2     		uxth	r1, r1
 680              		.loc 2 145 49 view .LVU199
 681 0062 0131     		adds	r1, r1, #1
 682              	.LVL53:
 683              		.loc 2 145 49 view .LVU200
 684              	.LBE125:
 685              	.LBE124:
 181:Middlewares/lvgl/src/misc/lv_area.c ****     lv_coord_t max_radius = LV_MIN(w, h);
 686              		.loc 1 181 16 view .LVU201
 687 0064 C1F3C036 		ubfx	r6, r1, #15, #1
 688 0068 06FA81F1 		sxtah	r1, r6, r1
 689 006c 4910     		asrs	r1, r1, #1
 690              	.LVL54:
 182:Middlewares/lvgl/src/misc/lv_area.c ****     if(radius > max_radius)
 691              		.loc 1 182 5 is_stmt 1 view .LVU202
 182:Middlewares/lvgl/src/misc/lv_area.c ****     if(radius > max_radius)
 692              		.loc 1 182 16 is_stmt 0 view .LVU203
 693 006e 8B42     		cmp	r3, r1
 694 0070 A8BF     		it	ge
 695 0072 0B46     		movge	r3, r1
 696              	.LVL55:
 183:Middlewares/lvgl/src/misc/lv_area.c ****         radius = max_radius;
 697              		.loc 1 183 5 is_stmt 1 view .LVU204
 183:Middlewares/lvgl/src/misc/lv_area.c ****         radius = max_radius;
 698              		.loc 1 183 7 is_stmt 0 view .LVU205
 699 0074 9A42     		cmp	r2, r3
 700 0076 00DC     		bgt	.L21
 701 0078 1346     		mov	r3, r2
 702              	.LVL56:
 703              	.L21:
 187:Middlewares/lvgl/src/misc/lv_area.c ****     /*Top left*/
 704              		.loc 1 187 5 is_stmt 1 view .LVU206
 189:Middlewares/lvgl/src/misc/lv_area.c ****     corner_area.x2 = a_p->x1 + radius;
ARM GAS  /tmp/ccQ28q5O.s 			page 26


 705              		.loc 1 189 5 view .LVU207
 189:Middlewares/lvgl/src/misc/lv_area.c ****     corner_area.x2 = a_p->x1 + radius;
 706              		.loc 1 189 20 is_stmt 0 view .LVU208
 707 007a ADF80000 		strh	r0, [sp]	@ movhi
 190:Middlewares/lvgl/src/misc/lv_area.c ****     corner_area.y1 = a_p->y1;
 708              		.loc 1 190 5 is_stmt 1 view .LVU209
 190:Middlewares/lvgl/src/misc/lv_area.c ****     corner_area.y1 = a_p->y1;
 709              		.loc 1 190 30 is_stmt 0 view .LVU210
 710 007e 9EB2     		uxth	r6, r3
 711 0080 B444     		add	ip, ip, r6
 712              	.LVL57:
 190:Middlewares/lvgl/src/misc/lv_area.c ****     corner_area.y1 = a_p->y1;
 713              		.loc 1 190 20 view .LVU211
 714 0082 ADF804C0 		strh	ip, [sp, #4]	@ movhi
 715              	.LVL58:
 191:Middlewares/lvgl/src/misc/lv_area.c ****     corner_area.y2 = a_p->y1 + radius;
 716              		.loc 1 191 5 is_stmt 1 view .LVU212
 191:Middlewares/lvgl/src/misc/lv_area.c ****     corner_area.y2 = a_p->y1 + radius;
 717              		.loc 1 191 25 is_stmt 0 view .LVU213
 718 0086 B4F90230 		ldrsh	r3, [r4, #2]
 719              	.LVL59:
 191:Middlewares/lvgl/src/misc/lv_area.c ****     corner_area.y2 = a_p->y1 + radius;
 720              		.loc 1 191 20 view .LVU214
 721 008a ADF80230 		strh	r3, [sp, #2]	@ movhi
 192:Middlewares/lvgl/src/misc/lv_area.c ****     if(_lv_area_is_point_on(&corner_area, p_p, 0)) {
 722              		.loc 1 192 5 is_stmt 1 view .LVU215
 192:Middlewares/lvgl/src/misc/lv_area.c ****     if(_lv_area_is_point_on(&corner_area, p_p, 0)) {
 723              		.loc 1 192 30 is_stmt 0 view .LVU216
 724 008e 16FA83F3 		uxtah	r3, r6, r3
 192:Middlewares/lvgl/src/misc/lv_area.c ****     if(_lv_area_is_point_on(&corner_area, p_p, 0)) {
 725              		.loc 1 192 20 view .LVU217
 726 0092 ADF80630 		strh	r3, [sp, #6]	@ movhi
 193:Middlewares/lvgl/src/misc/lv_area.c ****         corner_area.x2 += radius;
 727              		.loc 1 193 5 is_stmt 1 view .LVU218
 193:Middlewares/lvgl/src/misc/lv_area.c ****         corner_area.x2 += radius;
 728              		.loc 1 193 8 is_stmt 0 view .LVU219
 729 0096 0022     		movs	r2, #0
 730 0098 2946     		mov	r1, r5
 731              	.LVL60:
 193:Middlewares/lvgl/src/misc/lv_area.c ****         corner_area.x2 += radius;
 732              		.loc 1 193 8 view .LVU220
 733 009a 6846     		mov	r0, sp
 734 009c FFF7FEFF 		bl	_lv_area_is_point_on
 735              	.LVL61:
 193:Middlewares/lvgl/src/misc/lv_area.c ****         corner_area.x2 += radius;
 736              		.loc 1 193 7 view .LVU221
 737 00a0 70B1     		cbz	r0, .L22
 194:Middlewares/lvgl/src/misc/lv_area.c ****         corner_area.y2 += radius;
 738              		.loc 1 194 9 is_stmt 1 view .LVU222
 194:Middlewares/lvgl/src/misc/lv_area.c ****         corner_area.y2 += radius;
 739              		.loc 1 194 24 is_stmt 0 view .LVU223
 740 00a2 BDF80430 		ldrh	r3, [sp, #4]
 741 00a6 3344     		add	r3, r3, r6
 742 00a8 ADF80430 		strh	r3, [sp, #4]	@ movhi
 195:Middlewares/lvgl/src/misc/lv_area.c ****         return lv_point_within_circle(&corner_area, p_p);
 743              		.loc 1 195 9 is_stmt 1 view .LVU224
 195:Middlewares/lvgl/src/misc/lv_area.c ****         return lv_point_within_circle(&corner_area, p_p);
ARM GAS  /tmp/ccQ28q5O.s 			page 27


 744              		.loc 1 195 24 is_stmt 0 view .LVU225
 745 00ac BDF80610 		ldrh	r1, [sp, #6]
 746 00b0 0E44     		add	r6, r6, r1
 747              	.LVL62:
 195:Middlewares/lvgl/src/misc/lv_area.c ****         return lv_point_within_circle(&corner_area, p_p);
 748              		.loc 1 195 24 view .LVU226
 749 00b2 ADF80660 		strh	r6, [sp, #6]	@ movhi
 196:Middlewares/lvgl/src/misc/lv_area.c ****     }
 750              		.loc 1 196 9 is_stmt 1 view .LVU227
 196:Middlewares/lvgl/src/misc/lv_area.c ****     }
 751              		.loc 1 196 16 is_stmt 0 view .LVU228
 752 00b6 2946     		mov	r1, r5
 753 00b8 6846     		mov	r0, sp
 754 00ba FFF7FEFF 		bl	lv_point_within_circle
 755              	.LVL63:
 756 00be 59E0     		b	.L20
 757              	.LVL64:
 758              	.L22:
 199:Middlewares/lvgl/src/misc/lv_area.c ****     corner_area.y2 = a_p->y2;
 759              		.loc 1 199 5 is_stmt 1 view .LVU229
 199:Middlewares/lvgl/src/misc/lv_area.c ****     corner_area.y2 = a_p->y2;
 760              		.loc 1 199 25 is_stmt 0 view .LVU230
 761 00c0 B4F90620 		ldrsh	r2, [r4, #6]
 762 00c4 93B2     		uxth	r3, r2
 199:Middlewares/lvgl/src/misc/lv_area.c ****     corner_area.y2 = a_p->y2;
 763              		.loc 1 199 30 view .LVU231
 764 00c6 9B1B     		subs	r3, r3, r6
 199:Middlewares/lvgl/src/misc/lv_area.c ****     corner_area.y2 = a_p->y2;
 765              		.loc 1 199 20 view .LVU232
 766 00c8 ADF80230 		strh	r3, [sp, #2]	@ movhi
 200:Middlewares/lvgl/src/misc/lv_area.c ****     if(_lv_area_is_point_on(&corner_area, p_p, 0)) {
 767              		.loc 1 200 5 is_stmt 1 view .LVU233
 200:Middlewares/lvgl/src/misc/lv_area.c ****     if(_lv_area_is_point_on(&corner_area, p_p, 0)) {
 768              		.loc 1 200 20 is_stmt 0 view .LVU234
 769 00cc ADF80620 		strh	r2, [sp, #6]	@ movhi
 201:Middlewares/lvgl/src/misc/lv_area.c ****         corner_area.x2 += radius;
 770              		.loc 1 201 5 is_stmt 1 view .LVU235
 201:Middlewares/lvgl/src/misc/lv_area.c ****         corner_area.x2 += radius;
 771              		.loc 1 201 8 is_stmt 0 view .LVU236
 772 00d0 0022     		movs	r2, #0
 773 00d2 2946     		mov	r1, r5
 774 00d4 6846     		mov	r0, sp
 775 00d6 FFF7FEFF 		bl	_lv_area_is_point_on
 776              	.LVL65:
 201:Middlewares/lvgl/src/misc/lv_area.c ****         corner_area.x2 += radius;
 777              		.loc 1 201 7 view .LVU237
 778 00da 70B1     		cbz	r0, .L23
 202:Middlewares/lvgl/src/misc/lv_area.c ****         corner_area.y1 -= radius;
 779              		.loc 1 202 9 is_stmt 1 view .LVU238
 202:Middlewares/lvgl/src/misc/lv_area.c ****         corner_area.y1 -= radius;
 780              		.loc 1 202 24 is_stmt 0 view .LVU239
 781 00dc BDF80430 		ldrh	r3, [sp, #4]
 782 00e0 3344     		add	r3, r3, r6
 783 00e2 ADF80430 		strh	r3, [sp, #4]	@ movhi
 203:Middlewares/lvgl/src/misc/lv_area.c ****         return lv_point_within_circle(&corner_area, p_p);
 784              		.loc 1 203 9 is_stmt 1 view .LVU240
 203:Middlewares/lvgl/src/misc/lv_area.c ****         return lv_point_within_circle(&corner_area, p_p);
ARM GAS  /tmp/ccQ28q5O.s 			page 28


 785              		.loc 1 203 24 is_stmt 0 view .LVU241
 786 00e6 BDF80230 		ldrh	r3, [sp, #2]
 787 00ea 9E1B     		subs	r6, r3, r6
 788              	.LVL66:
 203:Middlewares/lvgl/src/misc/lv_area.c ****         return lv_point_within_circle(&corner_area, p_p);
 789              		.loc 1 203 24 view .LVU242
 790 00ec ADF80260 		strh	r6, [sp, #2]	@ movhi
 204:Middlewares/lvgl/src/misc/lv_area.c ****     }
 791              		.loc 1 204 9 is_stmt 1 view .LVU243
 204:Middlewares/lvgl/src/misc/lv_area.c ****     }
 792              		.loc 1 204 16 is_stmt 0 view .LVU244
 793 00f0 2946     		mov	r1, r5
 794 00f2 6846     		mov	r0, sp
 795 00f4 FFF7FEFF 		bl	lv_point_within_circle
 796              	.LVL67:
 797 00f8 3CE0     		b	.L20
 798              	.LVL68:
 799              	.L23:
 207:Middlewares/lvgl/src/misc/lv_area.c ****     corner_area.x2 = a_p->x2;
 800              		.loc 1 207 5 is_stmt 1 view .LVU245
 207:Middlewares/lvgl/src/misc/lv_area.c ****     corner_area.x2 = a_p->x2;
 801              		.loc 1 207 25 is_stmt 0 view .LVU246
 802 00fa B4F90420 		ldrsh	r2, [r4, #4]
 803 00fe 93B2     		uxth	r3, r2
 207:Middlewares/lvgl/src/misc/lv_area.c ****     corner_area.x2 = a_p->x2;
 804              		.loc 1 207 30 view .LVU247
 805 0100 9B1B     		subs	r3, r3, r6
 207:Middlewares/lvgl/src/misc/lv_area.c ****     corner_area.x2 = a_p->x2;
 806              		.loc 1 207 20 view .LVU248
 807 0102 ADF80030 		strh	r3, [sp]	@ movhi
 208:Middlewares/lvgl/src/misc/lv_area.c ****     if(_lv_area_is_point_on(&corner_area, p_p, 0)) {
 808              		.loc 1 208 5 is_stmt 1 view .LVU249
 208:Middlewares/lvgl/src/misc/lv_area.c ****     if(_lv_area_is_point_on(&corner_area, p_p, 0)) {
 809              		.loc 1 208 20 is_stmt 0 view .LVU250
 810 0106 ADF80420 		strh	r2, [sp, #4]	@ movhi
 209:Middlewares/lvgl/src/misc/lv_area.c ****         corner_area.x1 -= radius;
 811              		.loc 1 209 5 is_stmt 1 view .LVU251
 209:Middlewares/lvgl/src/misc/lv_area.c ****         corner_area.x1 -= radius;
 812              		.loc 1 209 8 is_stmt 0 view .LVU252
 813 010a 0022     		movs	r2, #0
 814 010c 2946     		mov	r1, r5
 815 010e 6846     		mov	r0, sp
 816 0110 FFF7FEFF 		bl	_lv_area_is_point_on
 817              	.LVL69:
 209:Middlewares/lvgl/src/misc/lv_area.c ****         corner_area.x1 -= radius;
 818              		.loc 1 209 7 view .LVU253
 819 0114 70B1     		cbz	r0, .L24
 210:Middlewares/lvgl/src/misc/lv_area.c ****         corner_area.y1 -= radius;
 820              		.loc 1 210 9 is_stmt 1 view .LVU254
 210:Middlewares/lvgl/src/misc/lv_area.c ****         corner_area.y1 -= radius;
 821              		.loc 1 210 24 is_stmt 0 view .LVU255
 822 0116 BDF80030 		ldrh	r3, [sp]
 823 011a 9B1B     		subs	r3, r3, r6
 824 011c ADF80030 		strh	r3, [sp]	@ movhi
 211:Middlewares/lvgl/src/misc/lv_area.c ****         return lv_point_within_circle(&corner_area, p_p);
 825              		.loc 1 211 9 is_stmt 1 view .LVU256
 211:Middlewares/lvgl/src/misc/lv_area.c ****         return lv_point_within_circle(&corner_area, p_p);
ARM GAS  /tmp/ccQ28q5O.s 			page 29


 826              		.loc 1 211 24 is_stmt 0 view .LVU257
 827 0120 BDF80230 		ldrh	r3, [sp, #2]
 828 0124 9E1B     		subs	r6, r3, r6
 829              	.LVL70:
 211:Middlewares/lvgl/src/misc/lv_area.c ****         return lv_point_within_circle(&corner_area, p_p);
 830              		.loc 1 211 24 view .LVU258
 831 0126 ADF80260 		strh	r6, [sp, #2]	@ movhi
 212:Middlewares/lvgl/src/misc/lv_area.c ****     }
 832              		.loc 1 212 9 is_stmt 1 view .LVU259
 212:Middlewares/lvgl/src/misc/lv_area.c ****     }
 833              		.loc 1 212 16 is_stmt 0 view .LVU260
 834 012a 2946     		mov	r1, r5
 835 012c 6846     		mov	r0, sp
 836 012e FFF7FEFF 		bl	lv_point_within_circle
 837              	.LVL71:
 838 0132 1FE0     		b	.L20
 839              	.LVL72:
 840              	.L24:
 215:Middlewares/lvgl/src/misc/lv_area.c ****     corner_area.y2 = a_p->y1 + radius;
 841              		.loc 1 215 5 is_stmt 1 view .LVU261
 215:Middlewares/lvgl/src/misc/lv_area.c ****     corner_area.y2 = a_p->y1 + radius;
 842              		.loc 1 215 25 is_stmt 0 view .LVU262
 843 0134 B4F90230 		ldrsh	r3, [r4, #2]
 215:Middlewares/lvgl/src/misc/lv_area.c ****     corner_area.y2 = a_p->y1 + radius;
 844              		.loc 1 215 20 view .LVU263
 845 0138 ADF80230 		strh	r3, [sp, #2]	@ movhi
 216:Middlewares/lvgl/src/misc/lv_area.c ****     if(_lv_area_is_point_on(&corner_area, p_p, 0)) {
 846              		.loc 1 216 5 is_stmt 1 view .LVU264
 216:Middlewares/lvgl/src/misc/lv_area.c ****     if(_lv_area_is_point_on(&corner_area, p_p, 0)) {
 847              		.loc 1 216 30 is_stmt 0 view .LVU265
 848 013c 16FA83F3 		uxtah	r3, r6, r3
 216:Middlewares/lvgl/src/misc/lv_area.c ****     if(_lv_area_is_point_on(&corner_area, p_p, 0)) {
 849              		.loc 1 216 20 view .LVU266
 850 0140 ADF80630 		strh	r3, [sp, #6]	@ movhi
 217:Middlewares/lvgl/src/misc/lv_area.c ****         corner_area.x1 -= radius;
 851              		.loc 1 217 5 is_stmt 1 view .LVU267
 217:Middlewares/lvgl/src/misc/lv_area.c ****         corner_area.x1 -= radius;
 852              		.loc 1 217 8 is_stmt 0 view .LVU268
 853 0144 0022     		movs	r2, #0
 854 0146 2946     		mov	r1, r5
 855 0148 6846     		mov	r0, sp
 856 014a FFF7FEFF 		bl	_lv_area_is_point_on
 857              	.LVL73:
 217:Middlewares/lvgl/src/misc/lv_area.c ****         corner_area.x1 -= radius;
 858              		.loc 1 217 7 view .LVU269
 859 014e 08B9     		cbnz	r0, .L32
 223:Middlewares/lvgl/src/misc/lv_area.c **** }
 860              		.loc 1 223 12 view .LVU270
 861 0150 0120     		movs	r0, #1
 862 0152 0FE0     		b	.L20
 863              	.L32:
 218:Middlewares/lvgl/src/misc/lv_area.c ****         corner_area.y2 += radius;
 864              		.loc 1 218 9 is_stmt 1 view .LVU271
 218:Middlewares/lvgl/src/misc/lv_area.c ****         corner_area.y2 += radius;
 865              		.loc 1 218 24 is_stmt 0 view .LVU272
 866 0154 BDF80030 		ldrh	r3, [sp]
 867 0158 9B1B     		subs	r3, r3, r6
ARM GAS  /tmp/ccQ28q5O.s 			page 30


 868 015a ADF80030 		strh	r3, [sp]	@ movhi
 219:Middlewares/lvgl/src/misc/lv_area.c ****         return lv_point_within_circle(&corner_area, p_p);
 869              		.loc 1 219 9 is_stmt 1 view .LVU273
 219:Middlewares/lvgl/src/misc/lv_area.c ****         return lv_point_within_circle(&corner_area, p_p);
 870              		.loc 1 219 24 is_stmt 0 view .LVU274
 871 015e BDF80630 		ldrh	r3, [sp, #6]
 872 0162 1E44     		add	r6, r6, r3
 873              	.LVL74:
 219:Middlewares/lvgl/src/misc/lv_area.c ****         return lv_point_within_circle(&corner_area, p_p);
 874              		.loc 1 219 24 view .LVU275
 875 0164 ADF80660 		strh	r6, [sp, #6]	@ movhi
 220:Middlewares/lvgl/src/misc/lv_area.c ****     }
 876              		.loc 1 220 9 is_stmt 1 view .LVU276
 220:Middlewares/lvgl/src/misc/lv_area.c ****     }
 877              		.loc 1 220 16 is_stmt 0 view .LVU277
 878 0168 2946     		mov	r1, r5
 879 016a 6846     		mov	r0, sp
 880 016c FFF7FEFF 		bl	lv_point_within_circle
 881              	.LVL75:
 882 0170 00E0     		b	.L20
 883              	.LVL76:
 884              	.L25:
 174:Middlewares/lvgl/src/misc/lv_area.c ****     /*Now handle potential rounded rectangles*/
 885              		.loc 1 174 16 view .LVU278
 886 0172 0020     		movs	r0, #0
 887              	.LVL77:
 888              	.L20:
 224:Middlewares/lvgl/src/misc/lv_area.c **** 
 889              		.loc 1 224 1 view .LVU279
 890 0174 02B0     		add	sp, sp, #8
 891              	.LCFI5:
 892              		.cfi_remember_state
 893              		.cfi_def_cfa_offset 16
 894              		@ sp needed
 895 0176 70BD     		pop	{r4, r5, r6, pc}
 896              	.LVL78:
 897              	.L26:
 898              	.LCFI6:
 899              		.cfi_restore_state
 174:Middlewares/lvgl/src/misc/lv_area.c ****     /*Now handle potential rounded rectangles*/
 900              		.loc 1 174 16 view .LVU280
 901 0178 0020     		movs	r0, #0
 902 017a FBE7     		b	.L20
 903              	.L27:
 904 017c 0020     		movs	r0, #0
 905 017e F9E7     		b	.L20
 906              	.L28:
 907 0180 0020     		movs	r0, #0
 908 0182 F7E7     		b	.L20
 909              	.LVL79:
 910              	.L29:
 178:Middlewares/lvgl/src/misc/lv_area.c ****     }
 911              		.loc 1 178 16 view .LVU281
 912 0184 0120     		movs	r0, #1
 913 0186 F5E7     		b	.L20
 914              		.cfi_endproc
 915              	.LFE14:
ARM GAS  /tmp/ccQ28q5O.s 			page 31


 917              		.section	.text._lv_area_is_on,"ax",%progbits
 918              		.align	1
 919              		.global	_lv_area_is_on
 920              		.syntax unified
 921              		.thumb
 922              		.thumb_func
 924              	_lv_area_is_on:
 925              	.LVL80:
 926              	.LFB15:
 233:Middlewares/lvgl/src/misc/lv_area.c ****     if((a1_p->x1 <= a2_p->x2) && (a1_p->x2 >= a2_p->x1) && (a1_p->y1 <= a2_p->y2) && (a1_p->y2 >= a
 927              		.loc 1 233 1 is_stmt 1 view -0
 928              		.cfi_startproc
 929              		@ args = 0, pretend = 0, frame = 0
 930              		@ frame_needed = 0, uses_anonymous_args = 0
 931              		@ link register save eliminated.
 234:Middlewares/lvgl/src/misc/lv_area.c ****         return true;
 932              		.loc 1 234 5 view .LVU283
 234:Middlewares/lvgl/src/misc/lv_area.c ****         return true;
 933              		.loc 1 234 13 is_stmt 0 view .LVU284
 934 0000 B0F90020 		ldrsh	r2, [r0]
 234:Middlewares/lvgl/src/misc/lv_area.c ****         return true;
 935              		.loc 1 234 25 view .LVU285
 936 0004 B1F90430 		ldrsh	r3, [r1, #4]
 234:Middlewares/lvgl/src/misc/lv_area.c ****         return true;
 937              		.loc 1 234 7 view .LVU286
 938 0008 9A42     		cmp	r2, r3
 939 000a 13DC     		bgt	.L35
 234:Middlewares/lvgl/src/misc/lv_area.c ****         return true;
 940              		.loc 1 234 39 discriminator 1 view .LVU287
 941 000c B0F90420 		ldrsh	r2, [r0, #4]
 234:Middlewares/lvgl/src/misc/lv_area.c ****         return true;
 942              		.loc 1 234 51 discriminator 1 view .LVU288
 943 0010 B1F90030 		ldrsh	r3, [r1]
 234:Middlewares/lvgl/src/misc/lv_area.c ****         return true;
 944              		.loc 1 234 31 discriminator 1 view .LVU289
 945 0014 9A42     		cmp	r2, r3
 946 0016 0FDB     		blt	.L36
 234:Middlewares/lvgl/src/misc/lv_area.c ****         return true;
 947              		.loc 1 234 65 discriminator 2 view .LVU290
 948 0018 B0F90220 		ldrsh	r2, [r0, #2]
 234:Middlewares/lvgl/src/misc/lv_area.c ****         return true;
 949              		.loc 1 234 77 discriminator 2 view .LVU291
 950 001c B1F90630 		ldrsh	r3, [r1, #6]
 234:Middlewares/lvgl/src/misc/lv_area.c ****         return true;
 951              		.loc 1 234 57 discriminator 2 view .LVU292
 952 0020 9A42     		cmp	r2, r3
 953 0022 0BDC     		bgt	.L37
 234:Middlewares/lvgl/src/misc/lv_area.c ****         return true;
 954              		.loc 1 234 91 discriminator 3 view .LVU293
 955 0024 B0F90620 		ldrsh	r2, [r0, #6]
 234:Middlewares/lvgl/src/misc/lv_area.c ****         return true;
 956              		.loc 1 234 103 discriminator 3 view .LVU294
 957 0028 B1F90230 		ldrsh	r3, [r1, #2]
 234:Middlewares/lvgl/src/misc/lv_area.c ****         return true;
 958              		.loc 1 234 83 discriminator 3 view .LVU295
 959 002c 9A42     		cmp	r2, r3
 960 002e 07DA     		bge	.L38
ARM GAS  /tmp/ccQ28q5O.s 			page 32


 238:Middlewares/lvgl/src/misc/lv_area.c ****     }
 961              		.loc 1 238 16 view .LVU296
 962 0030 0020     		movs	r0, #0
 963              	.LVL81:
 238:Middlewares/lvgl/src/misc/lv_area.c ****     }
 964              		.loc 1 238 16 view .LVU297
 965 0032 7047     		bx	lr
 966              	.LVL82:
 967              	.L35:
 238:Middlewares/lvgl/src/misc/lv_area.c ****     }
 968              		.loc 1 238 16 view .LVU298
 969 0034 0020     		movs	r0, #0
 970              	.LVL83:
 238:Middlewares/lvgl/src/misc/lv_area.c ****     }
 971              		.loc 1 238 16 view .LVU299
 972 0036 7047     		bx	lr
 973              	.LVL84:
 974              	.L36:
 238:Middlewares/lvgl/src/misc/lv_area.c ****     }
 975              		.loc 1 238 16 view .LVU300
 976 0038 0020     		movs	r0, #0
 977              	.LVL85:
 238:Middlewares/lvgl/src/misc/lv_area.c ****     }
 978              		.loc 1 238 16 view .LVU301
 979 003a 7047     		bx	lr
 980              	.LVL86:
 981              	.L37:
 238:Middlewares/lvgl/src/misc/lv_area.c ****     }
 982              		.loc 1 238 16 view .LVU302
 983 003c 0020     		movs	r0, #0
 984              	.LVL87:
 238:Middlewares/lvgl/src/misc/lv_area.c ****     }
 985              		.loc 1 238 16 view .LVU303
 986 003e 7047     		bx	lr
 987              	.LVL88:
 988              	.L38:
 235:Middlewares/lvgl/src/misc/lv_area.c ****     }
 989              		.loc 1 235 16 view .LVU304
 990 0040 0120     		movs	r0, #1
 991              	.LVL89:
 240:Middlewares/lvgl/src/misc/lv_area.c **** 
 992              		.loc 1 240 1 view .LVU305
 993 0042 7047     		bx	lr
 994              		.cfi_endproc
 995              	.LFE15:
 997              		.section	.text._lv_area_is_in,"ax",%progbits
 998              		.align	1
 999              		.global	_lv_area_is_in
 1000              		.syntax unified
 1001              		.thumb
 1002              		.thumb_func
 1004              	_lv_area_is_in:
 1005              	.LVL90:
 1006              	.LFB16:
 250:Middlewares/lvgl/src/misc/lv_area.c ****     bool is_in = false;
 1007              		.loc 1 250 1 is_stmt 1 view -0
 1008              		.cfi_startproc
ARM GAS  /tmp/ccQ28q5O.s 			page 33


 1009              		@ args = 0, pretend = 0, frame = 8
 1010              		@ frame_needed = 0, uses_anonymous_args = 0
 250:Middlewares/lvgl/src/misc/lv_area.c ****     bool is_in = false;
 1011              		.loc 1 250 1 is_stmt 0 view .LVU307
 1012 0000 2DE9F041 		push	{r4, r5, r6, r7, r8, lr}
 1013              	.LCFI7:
 1014              		.cfi_def_cfa_offset 24
 1015              		.cfi_offset 4, -24
 1016              		.cfi_offset 5, -20
 1017              		.cfi_offset 6, -16
 1018              		.cfi_offset 7, -12
 1019              		.cfi_offset 8, -8
 1020              		.cfi_offset 14, -4
 1021 0004 82B0     		sub	sp, sp, #8
 1022              	.LCFI8:
 1023              		.cfi_def_cfa_offset 32
 1024 0006 0C46     		mov	r4, r1
 251:Middlewares/lvgl/src/misc/lv_area.c **** 
 1025              		.loc 1 251 5 is_stmt 1 view .LVU308
 1026              	.LVL91:
 253:Middlewares/lvgl/src/misc/lv_area.c ****        ain_p->y2 <= aholder_p->y2) {
 1027              		.loc 1 253 5 view .LVU309
 253:Middlewares/lvgl/src/misc/lv_area.c ****        ain_p->y2 <= aholder_p->y2) {
 1028              		.loc 1 253 13 is_stmt 0 view .LVU310
 1029 0008 B0F90030 		ldrsh	r3, [r0]
 253:Middlewares/lvgl/src/misc/lv_area.c ****        ain_p->y2 <= aholder_p->y2) {
 1030              		.loc 1 253 30 view .LVU311
 1031 000c B1F90010 		ldrsh	r1, [r1]
 1032              	.LVL92:
 253:Middlewares/lvgl/src/misc/lv_area.c ****        ain_p->y2 <= aholder_p->y2) {
 1033              		.loc 1 253 7 view .LVU312
 1034 0010 8B42     		cmp	r3, r1
 1035 0012 40DB     		blt	.L41
 1036 0014 0646     		mov	r6, r0
 1037 0016 1546     		mov	r5, r2
 253:Middlewares/lvgl/src/misc/lv_area.c ****        ain_p->y2 <= aholder_p->y2) {
 1038              		.loc 1 253 43 discriminator 1 view .LVU313
 1039 0018 B0F90220 		ldrsh	r2, [r0, #2]
 1040              	.LVL93:
 253:Middlewares/lvgl/src/misc/lv_area.c ****        ain_p->y2 <= aholder_p->y2) {
 1041              		.loc 1 253 60 discriminator 1 view .LVU314
 1042 001c B4F90210 		ldrsh	r1, [r4, #2]
 253:Middlewares/lvgl/src/misc/lv_area.c ****        ain_p->y2 <= aholder_p->y2) {
 1043              		.loc 1 253 35 discriminator 1 view .LVU315
 1044 0020 8A42     		cmp	r2, r1
 1045 0022 3CDB     		blt	.L42
 253:Middlewares/lvgl/src/misc/lv_area.c ****        ain_p->y2 <= aholder_p->y2) {
 1046              		.loc 1 253 73 discriminator 2 view .LVU316
 1047 0024 B0F90470 		ldrsh	r7, [r0, #4]
 253:Middlewares/lvgl/src/misc/lv_area.c ****        ain_p->y2 <= aholder_p->y2) {
 1048              		.loc 1 253 90 discriminator 2 view .LVU317
 1049 0028 B4F90410 		ldrsh	r1, [r4, #4]
 253:Middlewares/lvgl/src/misc/lv_area.c ****        ain_p->y2 <= aholder_p->y2) {
 1050              		.loc 1 253 65 discriminator 2 view .LVU318
 1051 002c 8F42     		cmp	r7, r1
 1052 002e 38DC     		bgt	.L43
 254:Middlewares/lvgl/src/misc/lv_area.c ****         is_in = true;
ARM GAS  /tmp/ccQ28q5O.s 			page 34


 1053              		.loc 1 254 13 discriminator 3 view .LVU319
 1054 0030 B0F90680 		ldrsh	r8, [r0, #6]
 254:Middlewares/lvgl/src/misc/lv_area.c ****         is_in = true;
 1055              		.loc 1 254 30 discriminator 3 view .LVU320
 1056 0034 B4F90610 		ldrsh	r1, [r4, #6]
 253:Middlewares/lvgl/src/misc/lv_area.c ****        ain_p->y2 <= aholder_p->y2) {
 1057              		.loc 1 253 95 discriminator 3 view .LVU321
 1058 0038 8845     		cmp	r8, r1
 1059 003a 34DC     		bgt	.L44
 255:Middlewares/lvgl/src/misc/lv_area.c ****     }
 1060              		.loc 1 255 9 is_stmt 1 view .LVU322
 1061              	.LVL94:
 258:Middlewares/lvgl/src/misc/lv_area.c ****     if(radius == 0) return true;
 1062              		.loc 1 258 5 view .LVU323
 259:Middlewares/lvgl/src/misc/lv_area.c **** 
 1063              		.loc 1 259 5 view .LVU324
 259:Middlewares/lvgl/src/misc/lv_area.c **** 
 1064              		.loc 1 259 7 is_stmt 0 view .LVU325
 1065 003c 0DB9     		cbnz	r5, .L47
 259:Middlewares/lvgl/src/misc/lv_area.c **** 
 1066              		.loc 1 259 28 view .LVU326
 1067 003e 0120     		movs	r0, #1
 1068              	.LVL95:
 259:Middlewares/lvgl/src/misc/lv_area.c **** 
 1069              		.loc 1 259 28 view .LVU327
 1070 0040 2AE0     		b	.L40
 1071              	.LVL96:
 1072              	.L47:
 262:Middlewares/lvgl/src/misc/lv_area.c **** 
 1073              		.loc 1 262 5 is_stmt 1 view .LVU328
 264:Middlewares/lvgl/src/misc/lv_area.c ****     p.y = ain_p->y1;
 1074              		.loc 1 264 5 view .LVU329
 264:Middlewares/lvgl/src/misc/lv_area.c ****     p.y = ain_p->y1;
 1075              		.loc 1 264 9 is_stmt 0 view .LVU330
 1076 0042 ADF80430 		strh	r3, [sp, #4]	@ movhi
 265:Middlewares/lvgl/src/misc/lv_area.c ****     if(_lv_area_is_point_on(aholder_p, &p, radius) == false) return false;
 1077              		.loc 1 265 5 is_stmt 1 view .LVU331
 265:Middlewares/lvgl/src/misc/lv_area.c ****     if(_lv_area_is_point_on(aholder_p, &p, radius) == false) return false;
 1078              		.loc 1 265 9 is_stmt 0 view .LVU332
 1079 0046 ADF80620 		strh	r2, [sp, #6]	@ movhi
 266:Middlewares/lvgl/src/misc/lv_area.c **** 
 1080              		.loc 1 266 5 is_stmt 1 view .LVU333
 266:Middlewares/lvgl/src/misc/lv_area.c **** 
 1081              		.loc 1 266 8 is_stmt 0 view .LVU334
 1082 004a 2A46     		mov	r2, r5
 1083 004c 01A9     		add	r1, sp, #4
 1084 004e 2046     		mov	r0, r4
 1085              	.LVL97:
 266:Middlewares/lvgl/src/misc/lv_area.c **** 
 1086              		.loc 1 266 8 view .LVU335
 1087 0050 FFF7FEFF 		bl	_lv_area_is_point_on
 1088              	.LVL98:
 266:Middlewares/lvgl/src/misc/lv_area.c **** 
 1089              		.loc 1 266 7 view .LVU336
 1090 0054 00B3     		cbz	r0, .L40
 268:Middlewares/lvgl/src/misc/lv_area.c ****     p.y = ain_p->y1;
 1091              		.loc 1 268 5 is_stmt 1 view .LVU337
ARM GAS  /tmp/ccQ28q5O.s 			page 35


 268:Middlewares/lvgl/src/misc/lv_area.c ****     p.y = ain_p->y1;
 1092              		.loc 1 268 9 is_stmt 0 view .LVU338
 1093 0056 ADF80470 		strh	r7, [sp, #4]	@ movhi
 269:Middlewares/lvgl/src/misc/lv_area.c ****     if(_lv_area_is_point_on(aholder_p, &p, radius) == false) return false;
 1094              		.loc 1 269 5 is_stmt 1 view .LVU339
 269:Middlewares/lvgl/src/misc/lv_area.c ****     if(_lv_area_is_point_on(aholder_p, &p, radius) == false) return false;
 1095              		.loc 1 269 16 is_stmt 0 view .LVU340
 1096 005a B6F90230 		ldrsh	r3, [r6, #2]
 269:Middlewares/lvgl/src/misc/lv_area.c ****     if(_lv_area_is_point_on(aholder_p, &p, radius) == false) return false;
 1097              		.loc 1 269 9 view .LVU341
 1098 005e ADF80630 		strh	r3, [sp, #6]	@ movhi
 270:Middlewares/lvgl/src/misc/lv_area.c **** 
 1099              		.loc 1 270 5 is_stmt 1 view .LVU342
 270:Middlewares/lvgl/src/misc/lv_area.c **** 
 1100              		.loc 1 270 8 is_stmt 0 view .LVU343
 1101 0062 2A46     		mov	r2, r5
 1102 0064 01A9     		add	r1, sp, #4
 1103 0066 2046     		mov	r0, r4
 1104 0068 FFF7FEFF 		bl	_lv_area_is_point_on
 1105              	.LVL99:
 270:Middlewares/lvgl/src/misc/lv_area.c **** 
 1106              		.loc 1 270 7 view .LVU344
 1107 006c A0B1     		cbz	r0, .L40
 272:Middlewares/lvgl/src/misc/lv_area.c ****     p.y = ain_p->y2;
 1108              		.loc 1 272 5 is_stmt 1 view .LVU345
 272:Middlewares/lvgl/src/misc/lv_area.c ****     p.y = ain_p->y2;
 1109              		.loc 1 272 16 is_stmt 0 view .LVU346
 1110 006e B6F90030 		ldrsh	r3, [r6]
 272:Middlewares/lvgl/src/misc/lv_area.c ****     p.y = ain_p->y2;
 1111              		.loc 1 272 9 view .LVU347
 1112 0072 ADF80430 		strh	r3, [sp, #4]	@ movhi
 273:Middlewares/lvgl/src/misc/lv_area.c ****     if(_lv_area_is_point_on(aholder_p, &p, radius) == false) return false;
 1113              		.loc 1 273 5 is_stmt 1 view .LVU348
 273:Middlewares/lvgl/src/misc/lv_area.c ****     if(_lv_area_is_point_on(aholder_p, &p, radius) == false) return false;
 1114              		.loc 1 273 9 is_stmt 0 view .LVU349
 1115 0076 ADF80680 		strh	r8, [sp, #6]	@ movhi
 274:Middlewares/lvgl/src/misc/lv_area.c **** 
 1116              		.loc 1 274 5 is_stmt 1 view .LVU350
 274:Middlewares/lvgl/src/misc/lv_area.c **** 
 1117              		.loc 1 274 8 is_stmt 0 view .LVU351
 1118 007a 2A46     		mov	r2, r5
 1119 007c 01A9     		add	r1, sp, #4
 1120 007e 2046     		mov	r0, r4
 1121 0080 FFF7FEFF 		bl	_lv_area_is_point_on
 1122              	.LVL100:
 274:Middlewares/lvgl/src/misc/lv_area.c **** 
 1123              		.loc 1 274 7 view .LVU352
 1124 0084 40B1     		cbz	r0, .L40
 276:Middlewares/lvgl/src/misc/lv_area.c ****     p.y = ain_p->y2;
 1125              		.loc 1 276 5 is_stmt 1 view .LVU353
 276:Middlewares/lvgl/src/misc/lv_area.c ****     p.y = ain_p->y2;
 1126              		.loc 1 276 9 is_stmt 0 view .LVU354
 1127 0086 ADF80470 		strh	r7, [sp, #4]	@ movhi
 277:Middlewares/lvgl/src/misc/lv_area.c ****     if(_lv_area_is_point_on(aholder_p, &p, radius) == false) return false;
 1128              		.loc 1 277 5 is_stmt 1 view .LVU355
 278:Middlewares/lvgl/src/misc/lv_area.c **** 
 1129              		.loc 1 278 5 view .LVU356
ARM GAS  /tmp/ccQ28q5O.s 			page 36


 278:Middlewares/lvgl/src/misc/lv_area.c **** 
 1130              		.loc 1 278 8 is_stmt 0 view .LVU357
 1131 008a 2A46     		mov	r2, r5
 1132 008c 01A9     		add	r1, sp, #4
 1133 008e 2046     		mov	r0, r4
 1134 0090 FFF7FEFF 		bl	_lv_area_is_point_on
 1135              	.LVL101:
 1136 0094 00E0     		b	.L40
 1137              	.LVL102:
 1138              	.L41:
 258:Middlewares/lvgl/src/misc/lv_area.c ****     if(radius == 0) return true;
 1139              		.loc 1 258 23 view .LVU358
 1140 0096 0020     		movs	r0, #0
 1141              	.LVL103:
 1142              	.L40:
 281:Middlewares/lvgl/src/misc/lv_area.c **** 
 1143              		.loc 1 281 1 view .LVU359
 1144 0098 02B0     		add	sp, sp, #8
 1145              	.LCFI9:
 1146              		.cfi_remember_state
 1147              		.cfi_def_cfa_offset 24
 1148              		@ sp needed
 1149 009a BDE8F081 		pop	{r4, r5, r6, r7, r8, pc}
 1150              	.LVL104:
 1151              	.L42:
 1152              	.LCFI10:
 1153              		.cfi_restore_state
 258:Middlewares/lvgl/src/misc/lv_area.c ****     if(radius == 0) return true;
 1154              		.loc 1 258 23 view .LVU360
 1155 009e 0020     		movs	r0, #0
 1156              	.LVL105:
 258:Middlewares/lvgl/src/misc/lv_area.c ****     if(radius == 0) return true;
 1157              		.loc 1 258 23 view .LVU361
 1158 00a0 FAE7     		b	.L40
 1159              	.LVL106:
 1160              	.L43:
 258:Middlewares/lvgl/src/misc/lv_area.c ****     if(radius == 0) return true;
 1161              		.loc 1 258 23 view .LVU362
 1162 00a2 0020     		movs	r0, #0
 1163              	.LVL107:
 258:Middlewares/lvgl/src/misc/lv_area.c ****     if(radius == 0) return true;
 1164              		.loc 1 258 23 view .LVU363
 1165 00a4 F8E7     		b	.L40
 1166              	.LVL108:
 1167              	.L44:
 258:Middlewares/lvgl/src/misc/lv_area.c ****     if(radius == 0) return true;
 1168              		.loc 1 258 23 view .LVU364
 1169 00a6 0020     		movs	r0, #0
 1170              	.LVL109:
 258:Middlewares/lvgl/src/misc/lv_area.c ****     if(radius == 0) return true;
 1171              		.loc 1 258 23 view .LVU365
 1172 00a8 F6E7     		b	.L40
 1173              		.cfi_endproc
 1174              	.LFE16:
 1176              		.section	.text.lv_area_align,"ax",%progbits
 1177              		.align	1
 1178              		.global	lv_area_align
ARM GAS  /tmp/ccQ28q5O.s 			page 37


 1179              		.syntax unified
 1180              		.thumb
 1181              		.thumb_func
 1183              	lv_area_align:
 1184              	.LVL110:
 1185              	.LFB17:
 291:Middlewares/lvgl/src/misc/lv_area.c **** 
 1186              		.loc 1 291 1 is_stmt 1 view -0
 1187              		.cfi_startproc
 1188              		@ args = 4, pretend = 0, frame = 0
 1189              		@ frame_needed = 0, uses_anonymous_args = 0
 291:Middlewares/lvgl/src/misc/lv_area.c **** 
 1190              		.loc 1 291 1 is_stmt 0 view .LVU367
 1191 0000 10B5     		push	{r4, lr}
 1192              	.LCFI11:
 1193              		.cfi_def_cfa_offset 8
 1194              		.cfi_offset 4, -8
 1195              		.cfi_offset 14, -4
 1196 0002 0446     		mov	r4, r0
 293:Middlewares/lvgl/src/misc/lv_area.c ****     lv_coord_t y;
 1197              		.loc 1 293 5 is_stmt 1 view .LVU368
 294:Middlewares/lvgl/src/misc/lv_area.c ****     switch(align) {
 1198              		.loc 1 294 5 view .LVU369
 295:Middlewares/lvgl/src/misc/lv_area.c ****         case LV_ALIGN_CENTER:
 1199              		.loc 1 295 5 view .LVU370
 1200 0004 023A     		subs	r2, r2, #2
 1201              	.LVL111:
 295:Middlewares/lvgl/src/misc/lv_area.c ****         case LV_ALIGN_CENTER:
 1202              		.loc 1 295 5 is_stmt 0 view .LVU371
 1203 0006 132A     		cmp	r2, #19
 1204 0008 00F21E82 		bhi	.L71
 1205 000c DFE812F0 		tbh	[pc, r2, lsl #1]
 1206              	.LVL112:
 1207              	.L51:
 1208 0010 7100     		.2byte	(.L70-.L51)/2
 1209 0012 8B00     		.2byte	(.L69-.L51)/2
 1210 0014 9800     		.2byte	(.L68-.L51)/2
 1211 0016 A500     		.2byte	(.L67-.L51)/2
 1212 0018 CC00     		.2byte	(.L66-.L51)/2
 1213 001a E600     		.2byte	(.L65-.L51)/2
 1214 001c 0001     		.2byte	(.L64-.L51)/2
 1215 001e 1400     		.2byte	(.L63-.L51)/2
 1216 0020 2801     		.2byte	(.L62-.L51)/2
 1217 0022 2F01     		.2byte	(.L61-.L51)/2
 1218 0024 4F01     		.2byte	(.L60-.L51)/2
 1219 0026 6201     		.2byte	(.L59-.L51)/2
 1220 0028 6A01     		.2byte	(.L58-.L51)/2
 1221 002a 8B01     		.2byte	(.L57-.L51)/2
 1222 002c 9F01     		.2byte	(.L56-.L51)/2
 1223 002e A601     		.2byte	(.L55-.L51)/2
 1224 0030 C801     		.2byte	(.L54-.L51)/2
 1225 0032 DC01     		.2byte	(.L53-.L51)/2
 1226 0034 E401     		.2byte	(.L52-.L51)/2
 1227 0036 0702     		.2byte	(.L50-.L51)/2
 1228              		.p2align 1
 1229              	.L63:
 297:Middlewares/lvgl/src/misc/lv_area.c ****             y = lv_area_get_height(base) / 2 - lv_area_get_height(to_align) / 2;
ARM GAS  /tmp/ccQ28q5O.s 			page 38


 1230              		.loc 1 297 13 is_stmt 1 view .LVU372
 1231              	.LBB126:
 1232              	.LBI126:
 133:Middlewares/lvgl/src/misc/lv_area.h **** {
 1233              		.loc 2 133 26 view .LVU373
 1234              	.LBB127:
 135:Middlewares/lvgl/src/misc/lv_area.h **** }
 1235              		.loc 2 135 5 view .LVU374
 135:Middlewares/lvgl/src/misc/lv_area.h **** }
 1236              		.loc 2 135 31 is_stmt 0 view .LVU375
 1237 0038 A088     		ldrh	r0, [r4, #4]
 135:Middlewares/lvgl/src/misc/lv_area.h **** }
 1238              		.loc 2 135 44 view .LVU376
 1239 003a 2288     		ldrh	r2, [r4]
 135:Middlewares/lvgl/src/misc/lv_area.h **** }
 1240              		.loc 2 135 36 view .LVU377
 1241 003c 801A     		subs	r0, r0, r2
 1242 003e 80B2     		uxth	r0, r0
 135:Middlewares/lvgl/src/misc/lv_area.h **** }
 1243              		.loc 2 135 49 view .LVU378
 1244 0040 0130     		adds	r0, r0, #1
 1245              	.LVL113:
 135:Middlewares/lvgl/src/misc/lv_area.h **** }
 1246              		.loc 2 135 49 view .LVU379
 1247              	.LBE127:
 1248              	.LBE126:
 1249              	.LBB128:
 1250              	.LBI128:
 133:Middlewares/lvgl/src/misc/lv_area.h **** {
 1251              		.loc 2 133 26 is_stmt 1 view .LVU380
 1252              	.LBB129:
 135:Middlewares/lvgl/src/misc/lv_area.h **** }
 1253              		.loc 2 135 5 view .LVU381
 135:Middlewares/lvgl/src/misc/lv_area.h **** }
 1254              		.loc 2 135 31 is_stmt 0 view .LVU382
 1255 0042 8A88     		ldrh	r2, [r1, #4]
 135:Middlewares/lvgl/src/misc/lv_area.h **** }
 1256              		.loc 2 135 44 view .LVU383
 1257 0044 B1F800C0 		ldrh	ip, [r1]
 135:Middlewares/lvgl/src/misc/lv_area.h **** }
 1258              		.loc 2 135 36 view .LVU384
 1259 0048 A2EB0C02 		sub	r2, r2, ip
 1260 004c 92B2     		uxth	r2, r2
 135:Middlewares/lvgl/src/misc/lv_area.h **** }
 1261              		.loc 2 135 49 view .LVU385
 1262 004e 0132     		adds	r2, r2, #1
 1263              	.LVL114:
 135:Middlewares/lvgl/src/misc/lv_area.h **** }
 1264              		.loc 2 135 49 view .LVU386
 1265              	.LBE129:
 1266              	.LBE128:
 297:Middlewares/lvgl/src/misc/lv_area.c ****             y = lv_area_get_height(base) / 2 - lv_area_get_height(to_align) / 2;
 1267              		.loc 1 297 45 view .LVU387
 1268 0050 C0F3C03C 		ubfx	ip, r0, #15, #1
 1269 0054 0CFA80FC 		sxtah	ip, ip, r0
 1270 0058 C2F3C030 		ubfx	r0, r2, #15, #1
 1271 005c 00FA82F0 		sxtah	r0, r0, r2
ARM GAS  /tmp/ccQ28q5O.s 			page 39


 1272 0060 4010     		asrs	r0, r0, #1
 1273 0062 C0EB6C00 		rsb	r0, r0, ip, asr #1
 297:Middlewares/lvgl/src/misc/lv_area.c ****             y = lv_area_get_height(base) / 2 - lv_area_get_height(to_align) / 2;
 1274              		.loc 1 297 15 view .LVU388
 1275 0066 00B2     		sxth	r0, r0
 1276              	.LVL115:
 298:Middlewares/lvgl/src/misc/lv_area.c ****             break;
 1277              		.loc 1 298 13 is_stmt 1 view .LVU389
 1278              	.LBB130:
 1279              	.LBI130:
 143:Middlewares/lvgl/src/misc/lv_area.h **** {
 1280              		.loc 2 143 26 view .LVU390
 1281              	.LBB131:
 1282              		.loc 2 145 5 view .LVU391
 1283              		.loc 2 145 31 is_stmt 0 view .LVU392
 1284 0068 B4F806C0 		ldrh	ip, [r4, #6]
 1285              		.loc 2 145 44 view .LVU393
 1286 006c 6288     		ldrh	r2, [r4, #2]
 1287              		.loc 2 145 36 view .LVU394
 1288 006e ACEB020C 		sub	ip, ip, r2
 1289 0072 1FFA8CFC 		uxth	ip, ip
 1290              		.loc 2 145 49 view .LVU395
 1291 0076 0CF1010C 		add	ip, ip, #1
 1292              	.LVL116:
 1293              		.loc 2 145 49 view .LVU396
 1294              	.LBE131:
 1295              	.LBE130:
 1296              	.LBB132:
 1297              	.LBI132:
 143:Middlewares/lvgl/src/misc/lv_area.h **** {
 1298              		.loc 2 143 26 is_stmt 1 view .LVU397
 1299              	.LBB133:
 1300              		.loc 2 145 5 view .LVU398
 1301              		.loc 2 145 31 is_stmt 0 view .LVU399
 1302 007a CA88     		ldrh	r2, [r1, #6]
 1303              		.loc 2 145 44 view .LVU400
 1304 007c B1F802E0 		ldrh	lr, [r1, #2]
 1305              		.loc 2 145 36 view .LVU401
 1306 0080 A2EB0E02 		sub	r2, r2, lr
 1307 0084 92B2     		uxth	r2, r2
 1308              		.loc 2 145 49 view .LVU402
 1309 0086 0132     		adds	r2, r2, #1
 1310              	.LVL117:
 1311              		.loc 2 145 49 view .LVU403
 1312              	.LBE133:
 1313              	.LBE132:
 298:Middlewares/lvgl/src/misc/lv_area.c ****             break;
 1314              		.loc 1 298 46 view .LVU404
 1315 0088 CCF3C03E 		ubfx	lr, ip, #15, #1
 1316 008c 0EFA8CFC 		sxtah	ip, lr, ip
 1317 0090 C2F3C03E 		ubfx	lr, r2, #15, #1
 1318 0094 0EFA82F2 		sxtah	r2, lr, r2
 1319 0098 5210     		asrs	r2, r2, #1
 1320 009a C2EB6C02 		rsb	r2, r2, ip, asr #1
 298:Middlewares/lvgl/src/misc/lv_area.c ****             break;
 1321              		.loc 1 298 15 view .LVU405
 1322 009e 12B2     		sxth	r2, r2
ARM GAS  /tmp/ccQ28q5O.s 			page 40


 1323              	.LVL118:
 299:Middlewares/lvgl/src/misc/lv_area.c **** 
 1324              		.loc 1 299 13 is_stmt 1 view .LVU406
 1325              	.L49:
 404:Middlewares/lvgl/src/misc/lv_area.c ****     y += base->y1;
 1326              		.loc 1 404 5 view .LVU407
 404:Middlewares/lvgl/src/misc/lv_area.c ****     y += base->y1;
 1327              		.loc 1 404 14 is_stmt 0 view .LVU408
 1328 00a0 B4F800C0 		ldrh	ip, [r4]
 404:Middlewares/lvgl/src/misc/lv_area.c ****     y += base->y1;
 1329              		.loc 1 404 7 view .LVU409
 1330 00a4 8444     		add	ip, ip, r0
 1331              	.LVL119:
 405:Middlewares/lvgl/src/misc/lv_area.c **** 
 1332              		.loc 1 405 5 is_stmt 1 view .LVU410
 405:Middlewares/lvgl/src/misc/lv_area.c **** 
 1333              		.loc 1 405 14 is_stmt 0 view .LVU411
 1334 00a6 6088     		ldrh	r0, [r4, #2]
 405:Middlewares/lvgl/src/misc/lv_area.c **** 
 1335              		.loc 1 405 7 view .LVU412
 1336 00a8 0244     		add	r2, r2, r0
 1337              	.LVL120:
 407:Middlewares/lvgl/src/misc/lv_area.c ****     lv_coord_t h = lv_area_get_height(to_align);
 1338              		.loc 1 407 5 is_stmt 1 view .LVU413
 1339              	.LBB134:
 1340              	.LBI134:
 133:Middlewares/lvgl/src/misc/lv_area.h **** {
 1341              		.loc 2 133 26 view .LVU414
 1342              	.LBB135:
 135:Middlewares/lvgl/src/misc/lv_area.h **** }
 1343              		.loc 2 135 5 view .LVU415
 135:Middlewares/lvgl/src/misc/lv_area.h **** }
 1344              		.loc 2 135 31 is_stmt 0 view .LVU416
 1345 00aa 8C88     		ldrh	r4, [r1, #4]
 1346              	.LVL121:
 135:Middlewares/lvgl/src/misc/lv_area.h **** }
 1347              		.loc 2 135 44 view .LVU417
 1348 00ac 0888     		ldrh	r0, [r1]
 135:Middlewares/lvgl/src/misc/lv_area.h **** }
 1349              		.loc 2 135 36 view .LVU418
 1350 00ae 241A     		subs	r4, r4, r0
 1351 00b0 A4B2     		uxth	r4, r4
 135:Middlewares/lvgl/src/misc/lv_area.h **** }
 1352              		.loc 2 135 49 view .LVU419
 1353 00b2 601C     		adds	r0, r4, #1
 1354 00b4 84B2     		uxth	r4, r0
 1355              	.LVL122:
 135:Middlewares/lvgl/src/misc/lv_area.h **** }
 1356              		.loc 2 135 49 view .LVU420
 1357              	.LBE135:
 1358              	.LBE134:
 408:Middlewares/lvgl/src/misc/lv_area.c ****     to_align->x1 = x + ofs_x;
 1359              		.loc 1 408 5 is_stmt 1 view .LVU421
 1360              	.LBB136:
 1361              	.LBI136:
 143:Middlewares/lvgl/src/misc/lv_area.h **** {
 1362              		.loc 2 143 26 view .LVU422
ARM GAS  /tmp/ccQ28q5O.s 			page 41


 1363              	.LBB137:
 1364              		.loc 2 145 5 view .LVU423
 1365              		.loc 2 145 31 is_stmt 0 view .LVU424
 1366 00b6 B1F806E0 		ldrh	lr, [r1, #6]
 1367              		.loc 2 145 44 view .LVU425
 1368 00ba 4888     		ldrh	r0, [r1, #2]
 1369              		.loc 2 145 36 view .LVU426
 1370 00bc AEEB000E 		sub	lr, lr, r0
 1371 00c0 1FFA8EFE 		uxth	lr, lr
 1372              		.loc 2 145 49 view .LVU427
 1373 00c4 0EF1010E 		add	lr, lr, #1
 1374 00c8 1FFA8EFE 		uxth	lr, lr
 1375              	.LVL123:
 1376              		.loc 2 145 49 view .LVU428
 1377              	.LBE137:
 1378              	.LBE136:
 409:Middlewares/lvgl/src/misc/lv_area.c ****     to_align->y1 = y + ofs_y;
 1379              		.loc 1 409 5 is_stmt 1 view .LVU429
 409:Middlewares/lvgl/src/misc/lv_area.c ****     to_align->y1 = y + ofs_y;
 1380              		.loc 1 409 22 is_stmt 0 view .LVU430
 1381 00cc 13FA8CF0 		uxtah	r0, r3, ip
 409:Middlewares/lvgl/src/misc/lv_area.c ****     to_align->y1 = y + ofs_y;
 1382              		.loc 1 409 18 view .LVU431
 1383 00d0 0880     		strh	r0, [r1]	@ movhi
 410:Middlewares/lvgl/src/misc/lv_area.c ****     to_align->x2 = to_align->x1 + w - 1;
 1384              		.loc 1 410 5 is_stmt 1 view .LVU432
 410:Middlewares/lvgl/src/misc/lv_area.c ****     to_align->x2 = to_align->x1 + w - 1;
 1385              		.loc 1 410 22 is_stmt 0 view .LVU433
 1386 00d2 BDF90830 		ldrsh	r3, [sp, #8]
 1387              	.LVL124:
 410:Middlewares/lvgl/src/misc/lv_area.c ****     to_align->x2 = to_align->x1 + w - 1;
 1388              		.loc 1 410 22 view .LVU434
 1389 00d6 13FA82F3 		uxtah	r3, r3, r2
 410:Middlewares/lvgl/src/misc/lv_area.c ****     to_align->x2 = to_align->x1 + w - 1;
 1390              		.loc 1 410 18 view .LVU435
 1391 00da 4B80     		strh	r3, [r1, #2]	@ movhi
 411:Middlewares/lvgl/src/misc/lv_area.c ****     to_align->y2 = to_align->y1 + h - 1;
 1392              		.loc 1 411 5 is_stmt 1 view .LVU436
 411:Middlewares/lvgl/src/misc/lv_area.c ****     to_align->y2 = to_align->y1 + h - 1;
 1393              		.loc 1 411 33 is_stmt 0 view .LVU437
 1394 00dc 14FA80F0 		uxtah	r0, r4, r0
 1395 00e0 80B2     		uxth	r0, r0
 411:Middlewares/lvgl/src/misc/lv_area.c ****     to_align->y2 = to_align->y1 + h - 1;
 1396              		.loc 1 411 37 view .LVU438
 1397 00e2 0138     		subs	r0, r0, #1
 411:Middlewares/lvgl/src/misc/lv_area.c ****     to_align->y2 = to_align->y1 + h - 1;
 1398              		.loc 1 411 18 view .LVU439
 1399 00e4 8880     		strh	r0, [r1, #4]	@ movhi
 412:Middlewares/lvgl/src/misc/lv_area.c **** }
 1400              		.loc 1 412 5 is_stmt 1 view .LVU440
 412:Middlewares/lvgl/src/misc/lv_area.c **** }
 1401              		.loc 1 412 33 is_stmt 0 view .LVU441
 1402 00e6 1EFA83F3 		uxtah	r3, lr, r3
 1403 00ea 9BB2     		uxth	r3, r3
 412:Middlewares/lvgl/src/misc/lv_area.c **** }
 1404              		.loc 1 412 37 view .LVU442
 1405 00ec 013B     		subs	r3, r3, #1
ARM GAS  /tmp/ccQ28q5O.s 			page 42


 412:Middlewares/lvgl/src/misc/lv_area.c **** }
 1406              		.loc 1 412 18 view .LVU443
 1407 00ee CB80     		strh	r3, [r1, #6]	@ movhi
 413:Middlewares/lvgl/src/misc/lv_area.c **** 
 1408              		.loc 1 413 1 view .LVU444
 1409 00f0 10BD     		pop	{r4, pc}
 1410              	.LVL125:
 1411              	.L70:
 306:Middlewares/lvgl/src/misc/lv_area.c ****             y = 0;
 1412              		.loc 1 306 13 is_stmt 1 view .LVU445
 1413              	.LBB138:
 1414              	.LBI138:
 133:Middlewares/lvgl/src/misc/lv_area.h **** {
 1415              		.loc 2 133 26 view .LVU446
 1416              	.LBB139:
 135:Middlewares/lvgl/src/misc/lv_area.h **** }
 1417              		.loc 2 135 5 view .LVU447
 135:Middlewares/lvgl/src/misc/lv_area.h **** }
 1418              		.loc 2 135 31 is_stmt 0 view .LVU448
 1419 00f2 A088     		ldrh	r0, [r4, #4]
 135:Middlewares/lvgl/src/misc/lv_area.h **** }
 1420              		.loc 2 135 44 view .LVU449
 1421 00f4 2288     		ldrh	r2, [r4]
 135:Middlewares/lvgl/src/misc/lv_area.h **** }
 1422              		.loc 2 135 36 view .LVU450
 1423 00f6 801A     		subs	r0, r0, r2
 1424 00f8 80B2     		uxth	r0, r0
 135:Middlewares/lvgl/src/misc/lv_area.h **** }
 1425              		.loc 2 135 49 view .LVU451
 1426 00fa 0130     		adds	r0, r0, #1
 1427              	.LVL126:
 135:Middlewares/lvgl/src/misc/lv_area.h **** }
 1428              		.loc 2 135 49 view .LVU452
 1429              	.LBE139:
 1430              	.LBE138:
 1431              	.LBB140:
 1432              	.LBI140:
 133:Middlewares/lvgl/src/misc/lv_area.h **** {
 1433              		.loc 2 133 26 is_stmt 1 view .LVU453
 1434              	.LBB141:
 135:Middlewares/lvgl/src/misc/lv_area.h **** }
 1435              		.loc 2 135 5 view .LVU454
 135:Middlewares/lvgl/src/misc/lv_area.h **** }
 1436              		.loc 2 135 31 is_stmt 0 view .LVU455
 1437 00fc 8A88     		ldrh	r2, [r1, #4]
 135:Middlewares/lvgl/src/misc/lv_area.h **** }
 1438              		.loc 2 135 44 view .LVU456
 1439 00fe B1F800C0 		ldrh	ip, [r1]
 135:Middlewares/lvgl/src/misc/lv_area.h **** }
 1440              		.loc 2 135 36 view .LVU457
 1441 0102 A2EB0C02 		sub	r2, r2, ip
 1442 0106 92B2     		uxth	r2, r2
 135:Middlewares/lvgl/src/misc/lv_area.h **** }
 1443              		.loc 2 135 49 view .LVU458
 1444 0108 0132     		adds	r2, r2, #1
 1445              	.LVL127:
 135:Middlewares/lvgl/src/misc/lv_area.h **** }
ARM GAS  /tmp/ccQ28q5O.s 			page 43


 1446              		.loc 2 135 49 view .LVU459
 1447              	.LBE141:
 1448              	.LBE140:
 306:Middlewares/lvgl/src/misc/lv_area.c ****             y = 0;
 1449              		.loc 1 306 45 view .LVU460
 1450 010a C0F3C03C 		ubfx	ip, r0, #15, #1
 1451 010e 0CFA80FC 		sxtah	ip, ip, r0
 1452 0112 C2F3C030 		ubfx	r0, r2, #15, #1
 1453 0116 00FA82F0 		sxtah	r0, r0, r2
 1454 011a 4010     		asrs	r0, r0, #1
 1455 011c C0EB6C00 		rsb	r0, r0, ip, asr #1
 306:Middlewares/lvgl/src/misc/lv_area.c ****             y = 0;
 1456              		.loc 1 306 15 view .LVU461
 1457 0120 00B2     		sxth	r0, r0
 1458              	.LVL128:
 307:Middlewares/lvgl/src/misc/lv_area.c ****             break;
 1459              		.loc 1 307 13 is_stmt 1 view .LVU462
 308:Middlewares/lvgl/src/misc/lv_area.c **** 
 1460              		.loc 1 308 13 view .LVU463
 307:Middlewares/lvgl/src/misc/lv_area.c ****             break;
 1461              		.loc 1 307 15 is_stmt 0 view .LVU464
 1462 0122 0022     		movs	r2, #0
 308:Middlewares/lvgl/src/misc/lv_area.c **** 
 1463              		.loc 1 308 13 view .LVU465
 1464 0124 BCE7     		b	.L49
 1465              	.LVL129:
 1466              	.L69:
 311:Middlewares/lvgl/src/misc/lv_area.c ****             y = 0;
 1467              		.loc 1 311 13 is_stmt 1 view .LVU466
 1468              	.LBB142:
 1469              	.LBI142:
 133:Middlewares/lvgl/src/misc/lv_area.h **** {
 1470              		.loc 2 133 26 view .LVU467
 1471              	.LBB143:
 135:Middlewares/lvgl/src/misc/lv_area.h **** }
 1472              		.loc 2 135 5 view .LVU468
 135:Middlewares/lvgl/src/misc/lv_area.h **** }
 1473              		.loc 2 135 31 is_stmt 0 view .LVU469
 1474 0126 A088     		ldrh	r0, [r4, #4]
 135:Middlewares/lvgl/src/misc/lv_area.h **** }
 1475              		.loc 2 135 44 view .LVU470
 1476 0128 2288     		ldrh	r2, [r4]
 135:Middlewares/lvgl/src/misc/lv_area.h **** }
 1477              		.loc 2 135 36 view .LVU471
 1478 012a 801A     		subs	r0, r0, r2
 1479              	.LVL130:
 135:Middlewares/lvgl/src/misc/lv_area.h **** }
 1480              		.loc 2 135 36 view .LVU472
 1481              	.LBE143:
 1482              	.LBE142:
 1483              	.LBB144:
 1484              	.LBI144:
 133:Middlewares/lvgl/src/misc/lv_area.h **** {
 1485              		.loc 2 133 26 is_stmt 1 view .LVU473
 1486              	.LBB145:
 135:Middlewares/lvgl/src/misc/lv_area.h **** }
 1487              		.loc 2 135 5 view .LVU474
ARM GAS  /tmp/ccQ28q5O.s 			page 44


 135:Middlewares/lvgl/src/misc/lv_area.h **** }
 1488              		.loc 2 135 31 is_stmt 0 view .LVU475
 1489 012c 8A88     		ldrh	r2, [r1, #4]
 135:Middlewares/lvgl/src/misc/lv_area.h **** }
 1490              		.loc 2 135 44 view .LVU476
 1491 012e B1F800C0 		ldrh	ip, [r1]
 1492              	.LVL131:
 135:Middlewares/lvgl/src/misc/lv_area.h **** }
 1493              		.loc 2 135 44 view .LVU477
 1494              	.LBE145:
 1495              	.LBE144:
 311:Middlewares/lvgl/src/misc/lv_area.c ****             y = 0;
 1496              		.loc 1 311 41 view .LVU478
 1497 0132 ACEB020C 		sub	ip, ip, r2
 1498 0136 1CFA80F0 		uxtah	r0, ip, r0
 311:Middlewares/lvgl/src/misc/lv_area.c ****             y = 0;
 1499              		.loc 1 311 15 view .LVU479
 1500 013a 00B2     		sxth	r0, r0
 1501              	.LVL132:
 312:Middlewares/lvgl/src/misc/lv_area.c ****             break;
 1502              		.loc 1 312 13 is_stmt 1 view .LVU480
 313:Middlewares/lvgl/src/misc/lv_area.c **** 
 1503              		.loc 1 313 13 view .LVU481
 312:Middlewares/lvgl/src/misc/lv_area.c ****             break;
 1504              		.loc 1 312 15 is_stmt 0 view .LVU482
 1505 013c 0022     		movs	r2, #0
 313:Middlewares/lvgl/src/misc/lv_area.c **** 
 1506              		.loc 1 313 13 view .LVU483
 1507 013e AFE7     		b	.L49
 1508              	.LVL133:
 1509              	.L68:
 316:Middlewares/lvgl/src/misc/lv_area.c ****             y = lv_area_get_height(base) - lv_area_get_height(to_align);
 1510              		.loc 1 316 13 is_stmt 1 view .LVU484
 317:Middlewares/lvgl/src/misc/lv_area.c ****             break;
 1511              		.loc 1 317 13 view .LVU485
 1512              	.LBB146:
 1513              	.LBI146:
 143:Middlewares/lvgl/src/misc/lv_area.h **** {
 1514              		.loc 2 143 26 view .LVU486
 1515              	.LBB147:
 1516              		.loc 2 145 5 view .LVU487
 1517              		.loc 2 145 31 is_stmt 0 view .LVU488
 1518 0140 E288     		ldrh	r2, [r4, #6]
 1519              		.loc 2 145 44 view .LVU489
 1520 0142 6088     		ldrh	r0, [r4, #2]
 1521              		.loc 2 145 36 view .LVU490
 1522 0144 121A     		subs	r2, r2, r0
 1523              	.LVL134:
 1524              		.loc 2 145 36 view .LVU491
 1525              	.LBE147:
 1526              	.LBE146:
 1527              	.LBB148:
 1528              	.LBI148:
 143:Middlewares/lvgl/src/misc/lv_area.h **** {
 1529              		.loc 2 143 26 is_stmt 1 view .LVU492
 1530              	.LBB149:
 1531              		.loc 2 145 5 view .LVU493
ARM GAS  /tmp/ccQ28q5O.s 			page 45


 1532              		.loc 2 145 31 is_stmt 0 view .LVU494
 1533 0146 B1F806C0 		ldrh	ip, [r1, #6]
 1534              		.loc 2 145 44 view .LVU495
 1535 014a 4888     		ldrh	r0, [r1, #2]
 1536              	.LVL135:
 1537              		.loc 2 145 44 view .LVU496
 1538              	.LBE149:
 1539              	.LBE148:
 317:Middlewares/lvgl/src/misc/lv_area.c ****             break;
 1540              		.loc 1 317 42 view .LVU497
 1541 014c A0EB0C00 		sub	r0, r0, ip
 1542 0150 10FA82F2 		uxtah	r2, r0, r2
 317:Middlewares/lvgl/src/misc/lv_area.c ****             break;
 1543              		.loc 1 317 15 view .LVU498
 1544 0154 12B2     		sxth	r2, r2
 1545              	.LVL136:
 318:Middlewares/lvgl/src/misc/lv_area.c ****         case LV_ALIGN_BOTTOM_MID:
 1546              		.loc 1 318 13 is_stmt 1 view .LVU499
 316:Middlewares/lvgl/src/misc/lv_area.c ****             y = lv_area_get_height(base) - lv_area_get_height(to_align);
 1547              		.loc 1 316 15 is_stmt 0 view .LVU500
 1548 0156 0020     		movs	r0, #0
 318:Middlewares/lvgl/src/misc/lv_area.c ****         case LV_ALIGN_BOTTOM_MID:
 1549              		.loc 1 318 13 view .LVU501
 1550 0158 A2E7     		b	.L49
 1551              	.LVL137:
 1552              	.L67:
 320:Middlewares/lvgl/src/misc/lv_area.c ****             y = lv_area_get_height(base) - lv_area_get_height(to_align);
 1553              		.loc 1 320 13 is_stmt 1 view .LVU502
 1554              	.LBB150:
 1555              	.LBI150:
 133:Middlewares/lvgl/src/misc/lv_area.h **** {
 1556              		.loc 2 133 26 view .LVU503
 1557              	.LBB151:
 135:Middlewares/lvgl/src/misc/lv_area.h **** }
 1558              		.loc 2 135 5 view .LVU504
 135:Middlewares/lvgl/src/misc/lv_area.h **** }
 1559              		.loc 2 135 31 is_stmt 0 view .LVU505
 1560 015a A088     		ldrh	r0, [r4, #4]
 135:Middlewares/lvgl/src/misc/lv_area.h **** }
 1561              		.loc 2 135 44 view .LVU506
 1562 015c 2288     		ldrh	r2, [r4]
 135:Middlewares/lvgl/src/misc/lv_area.h **** }
 1563              		.loc 2 135 36 view .LVU507
 1564 015e 801A     		subs	r0, r0, r2
 1565 0160 80B2     		uxth	r0, r0
 135:Middlewares/lvgl/src/misc/lv_area.h **** }
 1566              		.loc 2 135 49 view .LVU508
 1567 0162 0130     		adds	r0, r0, #1
 1568              	.LVL138:
 135:Middlewares/lvgl/src/misc/lv_area.h **** }
 1569              		.loc 2 135 49 view .LVU509
 1570              	.LBE151:
 1571              	.LBE150:
 1572              	.LBB152:
 1573              	.LBI152:
 133:Middlewares/lvgl/src/misc/lv_area.h **** {
 1574              		.loc 2 133 26 is_stmt 1 view .LVU510
ARM GAS  /tmp/ccQ28q5O.s 			page 46


 1575              	.LBB153:
 135:Middlewares/lvgl/src/misc/lv_area.h **** }
 1576              		.loc 2 135 5 view .LVU511
 135:Middlewares/lvgl/src/misc/lv_area.h **** }
 1577              		.loc 2 135 31 is_stmt 0 view .LVU512
 1578 0164 8A88     		ldrh	r2, [r1, #4]
 135:Middlewares/lvgl/src/misc/lv_area.h **** }
 1579              		.loc 2 135 44 view .LVU513
 1580 0166 B1F800C0 		ldrh	ip, [r1]
 135:Middlewares/lvgl/src/misc/lv_area.h **** }
 1581              		.loc 2 135 36 view .LVU514
 1582 016a A2EB0C02 		sub	r2, r2, ip
 1583 016e 92B2     		uxth	r2, r2
 135:Middlewares/lvgl/src/misc/lv_area.h **** }
 1584              		.loc 2 135 49 view .LVU515
 1585 0170 0132     		adds	r2, r2, #1
 1586              	.LVL139:
 135:Middlewares/lvgl/src/misc/lv_area.h **** }
 1587              		.loc 2 135 49 view .LVU516
 1588              	.LBE153:
 1589              	.LBE152:
 320:Middlewares/lvgl/src/misc/lv_area.c ****             y = lv_area_get_height(base) - lv_area_get_height(to_align);
 1590              		.loc 1 320 45 view .LVU517
 1591 0172 C0F3C03C 		ubfx	ip, r0, #15, #1
 1592 0176 0CFA80FC 		sxtah	ip, ip, r0
 1593 017a C2F3C030 		ubfx	r0, r2, #15, #1
 1594 017e 00FA82F0 		sxtah	r0, r0, r2
 1595 0182 4010     		asrs	r0, r0, #1
 1596 0184 C0EB6C00 		rsb	r0, r0, ip, asr #1
 320:Middlewares/lvgl/src/misc/lv_area.c ****             y = lv_area_get_height(base) - lv_area_get_height(to_align);
 1597              		.loc 1 320 15 view .LVU518
 1598 0188 00B2     		sxth	r0, r0
 1599              	.LVL140:
 321:Middlewares/lvgl/src/misc/lv_area.c ****             break;
 1600              		.loc 1 321 13 is_stmt 1 view .LVU519
 1601              	.LBB154:
 1602              	.LBI154:
 143:Middlewares/lvgl/src/misc/lv_area.h **** {
 1603              		.loc 2 143 26 view .LVU520
 1604              	.LBB155:
 1605              		.loc 2 145 5 view .LVU521
 1606              		.loc 2 145 31 is_stmt 0 view .LVU522
 1607 018a E288     		ldrh	r2, [r4, #6]
 1608              		.loc 2 145 44 view .LVU523
 1609 018c B4F802C0 		ldrh	ip, [r4, #2]
 1610              		.loc 2 145 36 view .LVU524
 1611 0190 A2EB0C02 		sub	r2, r2, ip
 1612              	.LVL141:
 1613              		.loc 2 145 36 view .LVU525
 1614              	.LBE155:
 1615              	.LBE154:
 1616              	.LBB156:
 1617              	.LBI156:
 143:Middlewares/lvgl/src/misc/lv_area.h **** {
 1618              		.loc 2 143 26 is_stmt 1 view .LVU526
 1619              	.LBB157:
 1620              		.loc 2 145 5 view .LVU527
ARM GAS  /tmp/ccQ28q5O.s 			page 47


 1621              		.loc 2 145 31 is_stmt 0 view .LVU528
 1622 0194 B1F806E0 		ldrh	lr, [r1, #6]
 1623              		.loc 2 145 44 view .LVU529
 1624 0198 B1F802C0 		ldrh	ip, [r1, #2]
 1625              	.LVL142:
 1626              		.loc 2 145 44 view .LVU530
 1627              	.LBE157:
 1628              	.LBE156:
 321:Middlewares/lvgl/src/misc/lv_area.c ****             break;
 1629              		.loc 1 321 42 view .LVU531
 1630 019c ACEB0E0C 		sub	ip, ip, lr
 1631 01a0 1CFA82F2 		uxtah	r2, ip, r2
 321:Middlewares/lvgl/src/misc/lv_area.c ****             break;
 1632              		.loc 1 321 15 view .LVU532
 1633 01a4 12B2     		sxth	r2, r2
 1634              	.LVL143:
 322:Middlewares/lvgl/src/misc/lv_area.c **** 
 1635              		.loc 1 322 13 is_stmt 1 view .LVU533
 1636 01a6 7BE7     		b	.L49
 1637              	.LVL144:
 1638              	.L66:
 325:Middlewares/lvgl/src/misc/lv_area.c ****             y = lv_area_get_height(base) - lv_area_get_height(to_align);
 1639              		.loc 1 325 13 view .LVU534
 1640              	.LBB158:
 1641              	.LBI158:
 133:Middlewares/lvgl/src/misc/lv_area.h **** {
 1642              		.loc 2 133 26 view .LVU535
 1643              	.LBB159:
 135:Middlewares/lvgl/src/misc/lv_area.h **** }
 1644              		.loc 2 135 5 view .LVU536
 135:Middlewares/lvgl/src/misc/lv_area.h **** }
 1645              		.loc 2 135 31 is_stmt 0 view .LVU537
 1646 01a8 A088     		ldrh	r0, [r4, #4]
 135:Middlewares/lvgl/src/misc/lv_area.h **** }
 1647              		.loc 2 135 44 view .LVU538
 1648 01aa 2288     		ldrh	r2, [r4]
 135:Middlewares/lvgl/src/misc/lv_area.h **** }
 1649              		.loc 2 135 36 view .LVU539
 1650 01ac 801A     		subs	r0, r0, r2
 1651              	.LVL145:
 135:Middlewares/lvgl/src/misc/lv_area.h **** }
 1652              		.loc 2 135 36 view .LVU540
 1653              	.LBE159:
 1654              	.LBE158:
 1655              	.LBB160:
 1656              	.LBI160:
 133:Middlewares/lvgl/src/misc/lv_area.h **** {
 1657              		.loc 2 133 26 is_stmt 1 view .LVU541
 1658              	.LBB161:
 135:Middlewares/lvgl/src/misc/lv_area.h **** }
 1659              		.loc 2 135 5 view .LVU542
 135:Middlewares/lvgl/src/misc/lv_area.h **** }
 1660              		.loc 2 135 31 is_stmt 0 view .LVU543
 1661 01ae 8A88     		ldrh	r2, [r1, #4]
 135:Middlewares/lvgl/src/misc/lv_area.h **** }
 1662              		.loc 2 135 44 view .LVU544
 1663 01b0 B1F800C0 		ldrh	ip, [r1]
ARM GAS  /tmp/ccQ28q5O.s 			page 48


 1664              	.LVL146:
 135:Middlewares/lvgl/src/misc/lv_area.h **** }
 1665              		.loc 2 135 44 view .LVU545
 1666              	.LBE161:
 1667              	.LBE160:
 325:Middlewares/lvgl/src/misc/lv_area.c ****             y = lv_area_get_height(base) - lv_area_get_height(to_align);
 1668              		.loc 1 325 41 view .LVU546
 1669 01b4 ACEB020C 		sub	ip, ip, r2
 1670 01b8 1CFA80F0 		uxtah	r0, ip, r0
 325:Middlewares/lvgl/src/misc/lv_area.c ****             y = lv_area_get_height(base) - lv_area_get_height(to_align);
 1671              		.loc 1 325 15 view .LVU547
 1672 01bc 00B2     		sxth	r0, r0
 1673              	.LVL147:
 326:Middlewares/lvgl/src/misc/lv_area.c ****             break;
 1674              		.loc 1 326 13 is_stmt 1 view .LVU548
 1675              	.LBB162:
 1676              	.LBI162:
 143:Middlewares/lvgl/src/misc/lv_area.h **** {
 1677              		.loc 2 143 26 view .LVU549
 1678              	.LBB163:
 1679              		.loc 2 145 5 view .LVU550
 1680              		.loc 2 145 31 is_stmt 0 view .LVU551
 1681 01be E288     		ldrh	r2, [r4, #6]
 1682              		.loc 2 145 44 view .LVU552
 1683 01c0 B4F802C0 		ldrh	ip, [r4, #2]
 1684              		.loc 2 145 36 view .LVU553
 1685 01c4 A2EB0C02 		sub	r2, r2, ip
 1686              	.LVL148:
 1687              		.loc 2 145 36 view .LVU554
 1688              	.LBE163:
 1689              	.LBE162:
 1690              	.LBB164:
 1691              	.LBI164:
 143:Middlewares/lvgl/src/misc/lv_area.h **** {
 1692              		.loc 2 143 26 is_stmt 1 view .LVU555
 1693              	.LBB165:
 1694              		.loc 2 145 5 view .LVU556
 1695              		.loc 2 145 31 is_stmt 0 view .LVU557
 1696 01c8 B1F806E0 		ldrh	lr, [r1, #6]
 1697              		.loc 2 145 44 view .LVU558
 1698 01cc B1F802C0 		ldrh	ip, [r1, #2]
 1699              	.LVL149:
 1700              		.loc 2 145 44 view .LVU559
 1701              	.LBE165:
 1702              	.LBE164:
 326:Middlewares/lvgl/src/misc/lv_area.c ****             break;
 1703              		.loc 1 326 42 view .LVU560
 1704 01d0 ACEB0E0C 		sub	ip, ip, lr
 1705 01d4 1CFA82F2 		uxtah	r2, ip, r2
 326:Middlewares/lvgl/src/misc/lv_area.c ****             break;
 1706              		.loc 1 326 15 view .LVU561
 1707 01d8 12B2     		sxth	r2, r2
 1708              	.LVL150:
 327:Middlewares/lvgl/src/misc/lv_area.c **** 
 1709              		.loc 1 327 13 is_stmt 1 view .LVU562
 1710 01da 61E7     		b	.L49
 1711              	.LVL151:
ARM GAS  /tmp/ccQ28q5O.s 			page 49


 1712              	.L65:
 330:Middlewares/lvgl/src/misc/lv_area.c ****             y = lv_area_get_height(base) / 2 - lv_area_get_height(to_align) / 2;
 1713              		.loc 1 330 13 view .LVU563
 331:Middlewares/lvgl/src/misc/lv_area.c ****             break;
 1714              		.loc 1 331 13 view .LVU564
 1715              	.LBB166:
 1716              	.LBI166:
 143:Middlewares/lvgl/src/misc/lv_area.h **** {
 1717              		.loc 2 143 26 view .LVU565
 1718              	.LBB167:
 1719              		.loc 2 145 5 view .LVU566
 1720              		.loc 2 145 31 is_stmt 0 view .LVU567
 1721 01dc E088     		ldrh	r0, [r4, #6]
 1722              		.loc 2 145 44 view .LVU568
 1723 01de 6288     		ldrh	r2, [r4, #2]
 1724              		.loc 2 145 36 view .LVU569
 1725 01e0 801A     		subs	r0, r0, r2
 1726 01e2 80B2     		uxth	r0, r0
 1727              		.loc 2 145 49 view .LVU570
 1728 01e4 0130     		adds	r0, r0, #1
 1729              	.LVL152:
 1730              		.loc 2 145 49 view .LVU571
 1731              	.LBE167:
 1732              	.LBE166:
 1733              	.LBB168:
 1734              	.LBI168:
 143:Middlewares/lvgl/src/misc/lv_area.h **** {
 1735              		.loc 2 143 26 is_stmt 1 view .LVU572
 1736              	.LBB169:
 1737              		.loc 2 145 5 view .LVU573
 1738              		.loc 2 145 31 is_stmt 0 view .LVU574
 1739 01e6 CA88     		ldrh	r2, [r1, #6]
 1740              		.loc 2 145 44 view .LVU575
 1741 01e8 B1F802C0 		ldrh	ip, [r1, #2]
 1742              		.loc 2 145 36 view .LVU576
 1743 01ec A2EB0C02 		sub	r2, r2, ip
 1744 01f0 92B2     		uxth	r2, r2
 1745              		.loc 2 145 49 view .LVU577
 1746 01f2 0132     		adds	r2, r2, #1
 1747              	.LVL153:
 1748              		.loc 2 145 49 view .LVU578
 1749              	.LBE169:
 1750              	.LBE168:
 331:Middlewares/lvgl/src/misc/lv_area.c ****             break;
 1751              		.loc 1 331 46 view .LVU579
 1752 01f4 C0F3C03C 		ubfx	ip, r0, #15, #1
 1753 01f8 0CFA80F0 		sxtah	r0, ip, r0
 1754 01fc C2F3C03C 		ubfx	ip, r2, #15, #1
 1755 0200 0CFA82F2 		sxtah	r2, ip, r2
 1756 0204 5210     		asrs	r2, r2, #1
 1757 0206 C2EB6002 		rsb	r2, r2, r0, asr #1
 331:Middlewares/lvgl/src/misc/lv_area.c ****             break;
 1758              		.loc 1 331 15 view .LVU580
 1759 020a 12B2     		sxth	r2, r2
 1760              	.LVL154:
 332:Middlewares/lvgl/src/misc/lv_area.c **** 
 1761              		.loc 1 332 13 is_stmt 1 view .LVU581
ARM GAS  /tmp/ccQ28q5O.s 			page 50


 330:Middlewares/lvgl/src/misc/lv_area.c ****             y = lv_area_get_height(base) / 2 - lv_area_get_height(to_align) / 2;
 1762              		.loc 1 330 15 is_stmt 0 view .LVU582
 1763 020c 0020     		movs	r0, #0
 332:Middlewares/lvgl/src/misc/lv_area.c **** 
 1764              		.loc 1 332 13 view .LVU583
 1765 020e 47E7     		b	.L49
 1766              	.LVL155:
 1767              	.L64:
 335:Middlewares/lvgl/src/misc/lv_area.c ****             y = lv_area_get_height(base) / 2 - lv_area_get_height(to_align) / 2;
 1768              		.loc 1 335 13 is_stmt 1 view .LVU584
 1769              	.LBB170:
 1770              	.LBI170:
 133:Middlewares/lvgl/src/misc/lv_area.h **** {
 1771              		.loc 2 133 26 view .LVU585
 1772              	.LBB171:
 135:Middlewares/lvgl/src/misc/lv_area.h **** }
 1773              		.loc 2 135 5 view .LVU586
 135:Middlewares/lvgl/src/misc/lv_area.h **** }
 1774              		.loc 2 135 31 is_stmt 0 view .LVU587
 1775 0210 A088     		ldrh	r0, [r4, #4]
 135:Middlewares/lvgl/src/misc/lv_area.h **** }
 1776              		.loc 2 135 44 view .LVU588
 1777 0212 2288     		ldrh	r2, [r4]
 135:Middlewares/lvgl/src/misc/lv_area.h **** }
 1778              		.loc 2 135 36 view .LVU589
 1779 0214 801A     		subs	r0, r0, r2
 1780              	.LVL156:
 135:Middlewares/lvgl/src/misc/lv_area.h **** }
 1781              		.loc 2 135 36 view .LVU590
 1782              	.LBE171:
 1783              	.LBE170:
 1784              	.LBB172:
 1785              	.LBI172:
 133:Middlewares/lvgl/src/misc/lv_area.h **** {
 1786              		.loc 2 133 26 is_stmt 1 view .LVU591
 1787              	.LBB173:
 135:Middlewares/lvgl/src/misc/lv_area.h **** }
 1788              		.loc 2 135 5 view .LVU592
 135:Middlewares/lvgl/src/misc/lv_area.h **** }
 1789              		.loc 2 135 31 is_stmt 0 view .LVU593
 1790 0216 8A88     		ldrh	r2, [r1, #4]
 135:Middlewares/lvgl/src/misc/lv_area.h **** }
 1791              		.loc 2 135 44 view .LVU594
 1792 0218 B1F800C0 		ldrh	ip, [r1]
 1793              	.LVL157:
 135:Middlewares/lvgl/src/misc/lv_area.h **** }
 1794              		.loc 2 135 44 view .LVU595
 1795              	.LBE173:
 1796              	.LBE172:
 335:Middlewares/lvgl/src/misc/lv_area.c ****             y = lv_area_get_height(base) / 2 - lv_area_get_height(to_align) / 2;
 1797              		.loc 1 335 41 view .LVU596
 1798 021c ACEB020C 		sub	ip, ip, r2
 1799 0220 1CFA80F0 		uxtah	r0, ip, r0
 335:Middlewares/lvgl/src/misc/lv_area.c ****             y = lv_area_get_height(base) / 2 - lv_area_get_height(to_align) / 2;
 1800              		.loc 1 335 15 view .LVU597
 1801 0224 00B2     		sxth	r0, r0
 1802              	.LVL158:
ARM GAS  /tmp/ccQ28q5O.s 			page 51


 336:Middlewares/lvgl/src/misc/lv_area.c ****             break;
 1803              		.loc 1 336 13 is_stmt 1 view .LVU598
 1804              	.LBB174:
 1805              	.LBI174:
 143:Middlewares/lvgl/src/misc/lv_area.h **** {
 1806              		.loc 2 143 26 view .LVU599
 1807              	.LBB175:
 1808              		.loc 2 145 5 view .LVU600
 1809              		.loc 2 145 31 is_stmt 0 view .LVU601
 1810 0226 B4F806C0 		ldrh	ip, [r4, #6]
 1811              		.loc 2 145 44 view .LVU602
 1812 022a 6288     		ldrh	r2, [r4, #2]
 1813              		.loc 2 145 36 view .LVU603
 1814 022c ACEB020C 		sub	ip, ip, r2
 1815 0230 1FFA8CFC 		uxth	ip, ip
 1816              		.loc 2 145 49 view .LVU604
 1817 0234 0CF1010C 		add	ip, ip, #1
 1818              	.LVL159:
 1819              		.loc 2 145 49 view .LVU605
 1820              	.LBE175:
 1821              	.LBE174:
 1822              	.LBB176:
 1823              	.LBI176:
 143:Middlewares/lvgl/src/misc/lv_area.h **** {
 1824              		.loc 2 143 26 is_stmt 1 view .LVU606
 1825              	.LBB177:
 1826              		.loc 2 145 5 view .LVU607
 1827              		.loc 2 145 31 is_stmt 0 view .LVU608
 1828 0238 CA88     		ldrh	r2, [r1, #6]
 1829              		.loc 2 145 44 view .LVU609
 1830 023a B1F802E0 		ldrh	lr, [r1, #2]
 1831              		.loc 2 145 36 view .LVU610
 1832 023e A2EB0E02 		sub	r2, r2, lr
 1833 0242 92B2     		uxth	r2, r2
 1834              		.loc 2 145 49 view .LVU611
 1835 0244 0132     		adds	r2, r2, #1
 1836              	.LVL160:
 1837              		.loc 2 145 49 view .LVU612
 1838              	.LBE177:
 1839              	.LBE176:
 336:Middlewares/lvgl/src/misc/lv_area.c ****             break;
 1840              		.loc 1 336 46 view .LVU613
 1841 0246 CCF3C03E 		ubfx	lr, ip, #15, #1
 1842 024a 0EFA8CFC 		sxtah	ip, lr, ip
 1843 024e C2F3C03E 		ubfx	lr, r2, #15, #1
 1844 0252 0EFA82F2 		sxtah	r2, lr, r2
 1845 0256 5210     		asrs	r2, r2, #1
 1846 0258 C2EB6C02 		rsb	r2, r2, ip, asr #1
 336:Middlewares/lvgl/src/misc/lv_area.c ****             break;
 1847              		.loc 1 336 15 view .LVU614
 1848 025c 12B2     		sxth	r2, r2
 1849              	.LVL161:
 337:Middlewares/lvgl/src/misc/lv_area.c **** 
 1850              		.loc 1 337 13 is_stmt 1 view .LVU615
 1851 025e 1FE7     		b	.L49
 1852              	.LVL162:
 1853              	.L62:
ARM GAS  /tmp/ccQ28q5O.s 			page 52


 340:Middlewares/lvgl/src/misc/lv_area.c ****             y = -lv_area_get_height(to_align);
 1854              		.loc 1 340 13 view .LVU616
 341:Middlewares/lvgl/src/misc/lv_area.c ****             break;
 1855              		.loc 1 341 13 view .LVU617
 1856              	.LBB178:
 1857              	.LBI178:
 143:Middlewares/lvgl/src/misc/lv_area.h **** {
 1858              		.loc 2 143 26 view .LVU618
 1859              	.LBB179:
 1860              		.loc 2 145 5 view .LVU619
 1861              		.loc 2 145 31 is_stmt 0 view .LVU620
 1862 0260 C888     		ldrh	r0, [r1, #6]
 1863              		.loc 2 145 44 view .LVU621
 1864 0262 4A88     		ldrh	r2, [r1, #2]
 1865              	.LVL163:
 1866              		.loc 2 145 44 view .LVU622
 1867              	.LBE179:
 1868              	.LBE178:
 341:Middlewares/lvgl/src/misc/lv_area.c ****             break;
 1869              		.loc 1 341 15 view .LVU623
 1870 0264 121A     		subs	r2, r2, r0
 1871 0266 013A     		subs	r2, r2, #1
 1872 0268 12B2     		sxth	r2, r2
 1873              	.LVL164:
 342:Middlewares/lvgl/src/misc/lv_area.c **** 
 1874              		.loc 1 342 13 is_stmt 1 view .LVU624
 340:Middlewares/lvgl/src/misc/lv_area.c ****             y = -lv_area_get_height(to_align);
 1875              		.loc 1 340 15 is_stmt 0 view .LVU625
 1876 026a 0020     		movs	r0, #0
 342:Middlewares/lvgl/src/misc/lv_area.c **** 
 1877              		.loc 1 342 13 view .LVU626
 1878 026c 18E7     		b	.L49
 1879              	.LVL165:
 1880              	.L61:
 345:Middlewares/lvgl/src/misc/lv_area.c ****             y = -lv_area_get_height(to_align);
 1881              		.loc 1 345 13 is_stmt 1 view .LVU627
 1882              	.LBB180:
 1883              	.LBI180:
 133:Middlewares/lvgl/src/misc/lv_area.h **** {
 1884              		.loc 2 133 26 view .LVU628
 1885              	.LBB181:
 135:Middlewares/lvgl/src/misc/lv_area.h **** }
 1886              		.loc 2 135 5 view .LVU629
 135:Middlewares/lvgl/src/misc/lv_area.h **** }
 1887              		.loc 2 135 31 is_stmt 0 view .LVU630
 1888 026e A088     		ldrh	r0, [r4, #4]
 135:Middlewares/lvgl/src/misc/lv_area.h **** }
 1889              		.loc 2 135 44 view .LVU631
 1890 0270 2288     		ldrh	r2, [r4]
 135:Middlewares/lvgl/src/misc/lv_area.h **** }
 1891              		.loc 2 135 36 view .LVU632
 1892 0272 801A     		subs	r0, r0, r2
 1893 0274 80B2     		uxth	r0, r0
 135:Middlewares/lvgl/src/misc/lv_area.h **** }
 1894              		.loc 2 135 49 view .LVU633
 1895 0276 0130     		adds	r0, r0, #1
 1896              	.LVL166:
ARM GAS  /tmp/ccQ28q5O.s 			page 53


 135:Middlewares/lvgl/src/misc/lv_area.h **** }
 1897              		.loc 2 135 49 view .LVU634
 1898              	.LBE181:
 1899              	.LBE180:
 1900              	.LBB182:
 1901              	.LBI182:
 133:Middlewares/lvgl/src/misc/lv_area.h **** {
 1902              		.loc 2 133 26 is_stmt 1 view .LVU635
 1903              	.LBB183:
 135:Middlewares/lvgl/src/misc/lv_area.h **** }
 1904              		.loc 2 135 5 view .LVU636
 135:Middlewares/lvgl/src/misc/lv_area.h **** }
 1905              		.loc 2 135 31 is_stmt 0 view .LVU637
 1906 0278 8A88     		ldrh	r2, [r1, #4]
 135:Middlewares/lvgl/src/misc/lv_area.h **** }
 1907              		.loc 2 135 44 view .LVU638
 1908 027a B1F800C0 		ldrh	ip, [r1]
 135:Middlewares/lvgl/src/misc/lv_area.h **** }
 1909              		.loc 2 135 36 view .LVU639
 1910 027e A2EB0C02 		sub	r2, r2, ip
 1911 0282 92B2     		uxth	r2, r2
 135:Middlewares/lvgl/src/misc/lv_area.h **** }
 1912              		.loc 2 135 49 view .LVU640
 1913 0284 0132     		adds	r2, r2, #1
 1914              	.LVL167:
 135:Middlewares/lvgl/src/misc/lv_area.h **** }
 1915              		.loc 2 135 49 view .LVU641
 1916              	.LBE183:
 1917              	.LBE182:
 345:Middlewares/lvgl/src/misc/lv_area.c ****             y = -lv_area_get_height(to_align);
 1918              		.loc 1 345 45 view .LVU642
 1919 0286 C0F3C03C 		ubfx	ip, r0, #15, #1
 1920 028a 0CFA80FC 		sxtah	ip, ip, r0
 1921 028e C2F3C030 		ubfx	r0, r2, #15, #1
 1922 0292 00FA82F0 		sxtah	r0, r0, r2
 1923 0296 4010     		asrs	r0, r0, #1
 1924 0298 C0EB6C00 		rsb	r0, r0, ip, asr #1
 345:Middlewares/lvgl/src/misc/lv_area.c ****             y = -lv_area_get_height(to_align);
 1925              		.loc 1 345 15 view .LVU643
 1926 029c 00B2     		sxth	r0, r0
 1927              	.LVL168:
 346:Middlewares/lvgl/src/misc/lv_area.c ****             break;
 1928              		.loc 1 346 13 is_stmt 1 view .LVU644
 1929              	.LBB184:
 1930              	.LBI184:
 143:Middlewares/lvgl/src/misc/lv_area.h **** {
 1931              		.loc 2 143 26 view .LVU645
 1932              	.LBB185:
 1933              		.loc 2 145 5 view .LVU646
 1934              		.loc 2 145 31 is_stmt 0 view .LVU647
 1935 029e B1F806C0 		ldrh	ip, [r1, #6]
 1936              		.loc 2 145 44 view .LVU648
 1937 02a2 4A88     		ldrh	r2, [r1, #2]
 1938              	.LVL169:
 1939              		.loc 2 145 44 view .LVU649
 1940              	.LBE185:
 1941              	.LBE184:
ARM GAS  /tmp/ccQ28q5O.s 			page 54


 346:Middlewares/lvgl/src/misc/lv_area.c ****             break;
 1942              		.loc 1 346 15 view .LVU650
 1943 02a4 A2EB0C02 		sub	r2, r2, ip
 1944 02a8 013A     		subs	r2, r2, #1
 1945 02aa 12B2     		sxth	r2, r2
 1946              	.LVL170:
 347:Middlewares/lvgl/src/misc/lv_area.c **** 
 1947              		.loc 1 347 13 is_stmt 1 view .LVU651
 1948 02ac F8E6     		b	.L49
 1949              	.LVL171:
 1950              	.L60:
 350:Middlewares/lvgl/src/misc/lv_area.c ****             y = -lv_area_get_height(to_align);
 1951              		.loc 1 350 13 view .LVU652
 1952              	.LBB186:
 1953              	.LBI186:
 133:Middlewares/lvgl/src/misc/lv_area.h **** {
 1954              		.loc 2 133 26 view .LVU653
 1955              	.LBB187:
 135:Middlewares/lvgl/src/misc/lv_area.h **** }
 1956              		.loc 2 135 5 view .LVU654
 135:Middlewares/lvgl/src/misc/lv_area.h **** }
 1957              		.loc 2 135 31 is_stmt 0 view .LVU655
 1958 02ae A088     		ldrh	r0, [r4, #4]
 135:Middlewares/lvgl/src/misc/lv_area.h **** }
 1959              		.loc 2 135 44 view .LVU656
 1960 02b0 2288     		ldrh	r2, [r4]
 135:Middlewares/lvgl/src/misc/lv_area.h **** }
 1961              		.loc 2 135 36 view .LVU657
 1962 02b2 801A     		subs	r0, r0, r2
 1963              	.LVL172:
 135:Middlewares/lvgl/src/misc/lv_area.h **** }
 1964              		.loc 2 135 36 view .LVU658
 1965              	.LBE187:
 1966              	.LBE186:
 1967              	.LBB188:
 1968              	.LBI188:
 133:Middlewares/lvgl/src/misc/lv_area.h **** {
 1969              		.loc 2 133 26 is_stmt 1 view .LVU659
 1970              	.LBB189:
 135:Middlewares/lvgl/src/misc/lv_area.h **** }
 1971              		.loc 2 135 5 view .LVU660
 135:Middlewares/lvgl/src/misc/lv_area.h **** }
 1972              		.loc 2 135 31 is_stmt 0 view .LVU661
 1973 02b4 8A88     		ldrh	r2, [r1, #4]
 135:Middlewares/lvgl/src/misc/lv_area.h **** }
 1974              		.loc 2 135 44 view .LVU662
 1975 02b6 B1F800C0 		ldrh	ip, [r1]
 1976              	.LVL173:
 135:Middlewares/lvgl/src/misc/lv_area.h **** }
 1977              		.loc 2 135 44 view .LVU663
 1978              	.LBE189:
 1979              	.LBE188:
 350:Middlewares/lvgl/src/misc/lv_area.c ****             y = -lv_area_get_height(to_align);
 1980              		.loc 1 350 41 view .LVU664
 1981 02ba ACEB020C 		sub	ip, ip, r2
 1982 02be 1CFA80F0 		uxtah	r0, ip, r0
 350:Middlewares/lvgl/src/misc/lv_area.c ****             y = -lv_area_get_height(to_align);
ARM GAS  /tmp/ccQ28q5O.s 			page 55


 1983              		.loc 1 350 15 view .LVU665
 1984 02c2 00B2     		sxth	r0, r0
 1985              	.LVL174:
 351:Middlewares/lvgl/src/misc/lv_area.c ****             break;
 1986              		.loc 1 351 13 is_stmt 1 view .LVU666
 1987              	.LBB190:
 1988              	.LBI190:
 143:Middlewares/lvgl/src/misc/lv_area.h **** {
 1989              		.loc 2 143 26 view .LVU667
 1990              	.LBB191:
 1991              		.loc 2 145 5 view .LVU668
 1992              		.loc 2 145 31 is_stmt 0 view .LVU669
 1993 02c4 B1F806C0 		ldrh	ip, [r1, #6]
 1994              		.loc 2 145 44 view .LVU670
 1995 02c8 4A88     		ldrh	r2, [r1, #2]
 1996              	.LVL175:
 1997              		.loc 2 145 44 view .LVU671
 1998              	.LBE191:
 1999              	.LBE190:
 351:Middlewares/lvgl/src/misc/lv_area.c ****             break;
 2000              		.loc 1 351 15 view .LVU672
 2001 02ca A2EB0C02 		sub	r2, r2, ip
 2002 02ce 013A     		subs	r2, r2, #1
 2003 02d0 12B2     		sxth	r2, r2
 2004              	.LVL176:
 352:Middlewares/lvgl/src/misc/lv_area.c **** 
 2005              		.loc 1 352 13 is_stmt 1 view .LVU673
 2006 02d2 E5E6     		b	.L49
 2007              	.LVL177:
 2008              	.L59:
 355:Middlewares/lvgl/src/misc/lv_area.c ****             y = lv_area_get_height(base);
 2009              		.loc 1 355 13 view .LVU674
 356:Middlewares/lvgl/src/misc/lv_area.c ****             break;
 2010              		.loc 1 356 13 view .LVU675
 2011              	.LBB192:
 2012              	.LBI192:
 143:Middlewares/lvgl/src/misc/lv_area.h **** {
 2013              		.loc 2 143 26 view .LVU676
 2014              	.LBB193:
 2015              		.loc 2 145 5 view .LVU677
 2016              		.loc 2 145 31 is_stmt 0 view .LVU678
 2017 02d4 E288     		ldrh	r2, [r4, #6]
 2018              		.loc 2 145 44 view .LVU679
 2019 02d6 6088     		ldrh	r0, [r4, #2]
 2020              		.loc 2 145 36 view .LVU680
 2021 02d8 121A     		subs	r2, r2, r0
 2022 02da 92B2     		uxth	r2, r2
 2023              		.loc 2 145 49 view .LVU681
 2024 02dc 0132     		adds	r2, r2, #1
 2025              		.loc 2 145 12 view .LVU682
 2026 02de 12B2     		sxth	r2, r2
 2027              	.LVL178:
 2028              		.loc 2 145 12 view .LVU683
 2029              	.LBE193:
 2030              	.LBE192:
 357:Middlewares/lvgl/src/misc/lv_area.c **** 
 2031              		.loc 1 357 13 is_stmt 1 view .LVU684
ARM GAS  /tmp/ccQ28q5O.s 			page 56


 355:Middlewares/lvgl/src/misc/lv_area.c ****             y = lv_area_get_height(base);
 2032              		.loc 1 355 15 is_stmt 0 view .LVU685
 2033 02e0 0020     		movs	r0, #0
 357:Middlewares/lvgl/src/misc/lv_area.c **** 
 2034              		.loc 1 357 13 view .LVU686
 2035 02e2 DDE6     		b	.L49
 2036              	.LVL179:
 2037              	.L58:
 360:Middlewares/lvgl/src/misc/lv_area.c ****             y = lv_area_get_height(base);
 2038              		.loc 1 360 13 is_stmt 1 view .LVU687
 2039              	.LBB194:
 2040              	.LBI194:
 133:Middlewares/lvgl/src/misc/lv_area.h **** {
 2041              		.loc 2 133 26 view .LVU688
 2042              	.LBB195:
 135:Middlewares/lvgl/src/misc/lv_area.h **** }
 2043              		.loc 2 135 5 view .LVU689
 135:Middlewares/lvgl/src/misc/lv_area.h **** }
 2044              		.loc 2 135 31 is_stmt 0 view .LVU690
 2045 02e4 A088     		ldrh	r0, [r4, #4]
 135:Middlewares/lvgl/src/misc/lv_area.h **** }
 2046              		.loc 2 135 44 view .LVU691
 2047 02e6 2288     		ldrh	r2, [r4]
 135:Middlewares/lvgl/src/misc/lv_area.h **** }
 2048              		.loc 2 135 36 view .LVU692
 2049 02e8 801A     		subs	r0, r0, r2
 2050 02ea 80B2     		uxth	r0, r0
 135:Middlewares/lvgl/src/misc/lv_area.h **** }
 2051              		.loc 2 135 49 view .LVU693
 2052 02ec 0130     		adds	r0, r0, #1
 2053              	.LVL180:
 135:Middlewares/lvgl/src/misc/lv_area.h **** }
 2054              		.loc 2 135 49 view .LVU694
 2055              	.LBE195:
 2056              	.LBE194:
 2057              	.LBB196:
 2058              	.LBI196:
 133:Middlewares/lvgl/src/misc/lv_area.h **** {
 2059              		.loc 2 133 26 is_stmt 1 view .LVU695
 2060              	.LBB197:
 135:Middlewares/lvgl/src/misc/lv_area.h **** }
 2061              		.loc 2 135 5 view .LVU696
 135:Middlewares/lvgl/src/misc/lv_area.h **** }
 2062              		.loc 2 135 31 is_stmt 0 view .LVU697
 2063 02ee 8A88     		ldrh	r2, [r1, #4]
 135:Middlewares/lvgl/src/misc/lv_area.h **** }
 2064              		.loc 2 135 44 view .LVU698
 2065 02f0 B1F800C0 		ldrh	ip, [r1]
 135:Middlewares/lvgl/src/misc/lv_area.h **** }
 2066              		.loc 2 135 36 view .LVU699
 2067 02f4 A2EB0C02 		sub	r2, r2, ip
 2068 02f8 92B2     		uxth	r2, r2
 135:Middlewares/lvgl/src/misc/lv_area.h **** }
 2069              		.loc 2 135 49 view .LVU700
 2070 02fa 0132     		adds	r2, r2, #1
 2071              	.LVL181:
 135:Middlewares/lvgl/src/misc/lv_area.h **** }
ARM GAS  /tmp/ccQ28q5O.s 			page 57


 2072              		.loc 2 135 49 view .LVU701
 2073              	.LBE197:
 2074              	.LBE196:
 360:Middlewares/lvgl/src/misc/lv_area.c ****             y = lv_area_get_height(base);
 2075              		.loc 1 360 45 view .LVU702
 2076 02fc C0F3C03C 		ubfx	ip, r0, #15, #1
 2077 0300 0CFA80FC 		sxtah	ip, ip, r0
 2078 0304 C2F3C030 		ubfx	r0, r2, #15, #1
 2079 0308 00FA82F0 		sxtah	r0, r0, r2
 2080 030c 4010     		asrs	r0, r0, #1
 2081 030e C0EB6C00 		rsb	r0, r0, ip, asr #1
 360:Middlewares/lvgl/src/misc/lv_area.c ****             y = lv_area_get_height(base);
 2082              		.loc 1 360 15 view .LVU703
 2083 0312 00B2     		sxth	r0, r0
 2084              	.LVL182:
 361:Middlewares/lvgl/src/misc/lv_area.c ****             break;
 2085              		.loc 1 361 13 is_stmt 1 view .LVU704
 2086              	.LBB198:
 2087              	.LBI198:
 143:Middlewares/lvgl/src/misc/lv_area.h **** {
 2088              		.loc 2 143 26 view .LVU705
 2089              	.LBB199:
 2090              		.loc 2 145 5 view .LVU706
 2091              		.loc 2 145 31 is_stmt 0 view .LVU707
 2092 0314 E288     		ldrh	r2, [r4, #6]
 2093              		.loc 2 145 44 view .LVU708
 2094 0316 B4F802C0 		ldrh	ip, [r4, #2]
 2095              		.loc 2 145 36 view .LVU709
 2096 031a A2EB0C02 		sub	r2, r2, ip
 2097 031e 92B2     		uxth	r2, r2
 2098              		.loc 2 145 49 view .LVU710
 2099 0320 0132     		adds	r2, r2, #1
 2100              		.loc 2 145 12 view .LVU711
 2101 0322 12B2     		sxth	r2, r2
 2102              	.LVL183:
 2103              		.loc 2 145 12 view .LVU712
 2104              	.LBE199:
 2105              	.LBE198:
 362:Middlewares/lvgl/src/misc/lv_area.c **** 
 2106              		.loc 1 362 13 is_stmt 1 view .LVU713
 2107 0324 BCE6     		b	.L49
 2108              	.LVL184:
 2109              	.L57:
 365:Middlewares/lvgl/src/misc/lv_area.c ****             y = lv_area_get_height(base);
 2110              		.loc 1 365 13 view .LVU714
 2111              	.LBB200:
 2112              	.LBI200:
 133:Middlewares/lvgl/src/misc/lv_area.h **** {
 2113              		.loc 2 133 26 view .LVU715
 2114              	.LBB201:
 135:Middlewares/lvgl/src/misc/lv_area.h **** }
 2115              		.loc 2 135 5 view .LVU716
 135:Middlewares/lvgl/src/misc/lv_area.h **** }
 2116              		.loc 2 135 31 is_stmt 0 view .LVU717
 2117 0326 A088     		ldrh	r0, [r4, #4]
 135:Middlewares/lvgl/src/misc/lv_area.h **** }
 2118              		.loc 2 135 44 view .LVU718
ARM GAS  /tmp/ccQ28q5O.s 			page 58


 2119 0328 2288     		ldrh	r2, [r4]
 135:Middlewares/lvgl/src/misc/lv_area.h **** }
 2120              		.loc 2 135 36 view .LVU719
 2121 032a 801A     		subs	r0, r0, r2
 2122              	.LVL185:
 135:Middlewares/lvgl/src/misc/lv_area.h **** }
 2123              		.loc 2 135 36 view .LVU720
 2124              	.LBE201:
 2125              	.LBE200:
 2126              	.LBB202:
 2127              	.LBI202:
 133:Middlewares/lvgl/src/misc/lv_area.h **** {
 2128              		.loc 2 133 26 is_stmt 1 view .LVU721
 2129              	.LBB203:
 135:Middlewares/lvgl/src/misc/lv_area.h **** }
 2130              		.loc 2 135 5 view .LVU722
 135:Middlewares/lvgl/src/misc/lv_area.h **** }
 2131              		.loc 2 135 31 is_stmt 0 view .LVU723
 2132 032c 8A88     		ldrh	r2, [r1, #4]
 135:Middlewares/lvgl/src/misc/lv_area.h **** }
 2133              		.loc 2 135 44 view .LVU724
 2134 032e B1F800C0 		ldrh	ip, [r1]
 2135              	.LVL186:
 135:Middlewares/lvgl/src/misc/lv_area.h **** }
 2136              		.loc 2 135 44 view .LVU725
 2137              	.LBE203:
 2138              	.LBE202:
 365:Middlewares/lvgl/src/misc/lv_area.c ****             y = lv_area_get_height(base);
 2139              		.loc 1 365 41 view .LVU726
 2140 0332 ACEB020C 		sub	ip, ip, r2
 2141 0336 1CFA80F0 		uxtah	r0, ip, r0
 365:Middlewares/lvgl/src/misc/lv_area.c ****             y = lv_area_get_height(base);
 2142              		.loc 1 365 15 view .LVU727
 2143 033a 00B2     		sxth	r0, r0
 2144              	.LVL187:
 366:Middlewares/lvgl/src/misc/lv_area.c ****             break;
 2145              		.loc 1 366 13 is_stmt 1 view .LVU728
 2146              	.LBB204:
 2147              	.LBI204:
 143:Middlewares/lvgl/src/misc/lv_area.h **** {
 2148              		.loc 2 143 26 view .LVU729
 2149              	.LBB205:
 2150              		.loc 2 145 5 view .LVU730
 2151              		.loc 2 145 31 is_stmt 0 view .LVU731
 2152 033c E288     		ldrh	r2, [r4, #6]
 2153              		.loc 2 145 44 view .LVU732
 2154 033e B4F802C0 		ldrh	ip, [r4, #2]
 2155              		.loc 2 145 36 view .LVU733
 2156 0342 A2EB0C02 		sub	r2, r2, ip
 2157 0346 92B2     		uxth	r2, r2
 2158              		.loc 2 145 49 view .LVU734
 2159 0348 0132     		adds	r2, r2, #1
 2160              		.loc 2 145 12 view .LVU735
 2161 034a 12B2     		sxth	r2, r2
 2162              	.LVL188:
 2163              		.loc 2 145 12 view .LVU736
 2164              	.LBE205:
ARM GAS  /tmp/ccQ28q5O.s 			page 59


 2165              	.LBE204:
 367:Middlewares/lvgl/src/misc/lv_area.c **** 
 2166              		.loc 1 367 13 is_stmt 1 view .LVU737
 2167 034c A8E6     		b	.L49
 2168              	.LVL189:
 2169              	.L56:
 370:Middlewares/lvgl/src/misc/lv_area.c ****             y = 0;
 2170              		.loc 1 370 13 view .LVU738
 2171              	.LBB206:
 2172              	.LBI206:
 133:Middlewares/lvgl/src/misc/lv_area.h **** {
 2173              		.loc 2 133 26 view .LVU739
 2174              	.LBB207:
 135:Middlewares/lvgl/src/misc/lv_area.h **** }
 2175              		.loc 2 135 5 view .LVU740
 135:Middlewares/lvgl/src/misc/lv_area.h **** }
 2176              		.loc 2 135 31 is_stmt 0 view .LVU741
 2177 034e 8A88     		ldrh	r2, [r1, #4]
 135:Middlewares/lvgl/src/misc/lv_area.h **** }
 2178              		.loc 2 135 44 view .LVU742
 2179 0350 0888     		ldrh	r0, [r1]
 2180              	.LVL190:
 135:Middlewares/lvgl/src/misc/lv_area.h **** }
 2181              		.loc 2 135 44 view .LVU743
 2182              	.LBE207:
 2183              	.LBE206:
 370:Middlewares/lvgl/src/misc/lv_area.c ****             y = 0;
 2184              		.loc 1 370 15 view .LVU744
 2185 0352 801A     		subs	r0, r0, r2
 2186 0354 0138     		subs	r0, r0, #1
 2187 0356 00B2     		sxth	r0, r0
 2188              	.LVL191:
 371:Middlewares/lvgl/src/misc/lv_area.c ****             break;
 2189              		.loc 1 371 13 is_stmt 1 view .LVU745
 372:Middlewares/lvgl/src/misc/lv_area.c **** 
 2190              		.loc 1 372 13 view .LVU746
 371:Middlewares/lvgl/src/misc/lv_area.c ****             break;
 2191              		.loc 1 371 15 is_stmt 0 view .LVU747
 2192 0358 0022     		movs	r2, #0
 372:Middlewares/lvgl/src/misc/lv_area.c **** 
 2193              		.loc 1 372 13 view .LVU748
 2194 035a A1E6     		b	.L49
 2195              	.LVL192:
 2196              	.L55:
 375:Middlewares/lvgl/src/misc/lv_area.c ****             y = lv_area_get_height(base) / 2 - lv_area_get_height(to_align) / 2;
 2197              		.loc 1 375 13 is_stmt 1 view .LVU749
 2198              	.LBB208:
 2199              	.LBI208:
 133:Middlewares/lvgl/src/misc/lv_area.h **** {
 2200              		.loc 2 133 26 view .LVU750
 2201              	.LBB209:
 135:Middlewares/lvgl/src/misc/lv_area.h **** }
 2202              		.loc 2 135 5 view .LVU751
 135:Middlewares/lvgl/src/misc/lv_area.h **** }
 2203              		.loc 2 135 31 is_stmt 0 view .LVU752
 2204 035c 8A88     		ldrh	r2, [r1, #4]
 135:Middlewares/lvgl/src/misc/lv_area.h **** }
ARM GAS  /tmp/ccQ28q5O.s 			page 60


 2205              		.loc 2 135 44 view .LVU753
 2206 035e 0888     		ldrh	r0, [r1]
 2207              	.LVL193:
 135:Middlewares/lvgl/src/misc/lv_area.h **** }
 2208              		.loc 2 135 44 view .LVU754
 2209              	.LBE209:
 2210              	.LBE208:
 375:Middlewares/lvgl/src/misc/lv_area.c ****             y = lv_area_get_height(base) / 2 - lv_area_get_height(to_align) / 2;
 2211              		.loc 1 375 15 view .LVU755
 2212 0360 801A     		subs	r0, r0, r2
 2213 0362 0138     		subs	r0, r0, #1
 2214 0364 00B2     		sxth	r0, r0
 2215              	.LVL194:
 376:Middlewares/lvgl/src/misc/lv_area.c ****             break;
 2216              		.loc 1 376 13 is_stmt 1 view .LVU756
 2217              	.LBB210:
 2218              	.LBI210:
 143:Middlewares/lvgl/src/misc/lv_area.h **** {
 2219              		.loc 2 143 26 view .LVU757
 2220              	.LBB211:
 2221              		.loc 2 145 5 view .LVU758
 2222              		.loc 2 145 31 is_stmt 0 view .LVU759
 2223 0366 B4F806C0 		ldrh	ip, [r4, #6]
 2224              		.loc 2 145 44 view .LVU760
 2225 036a 6288     		ldrh	r2, [r4, #2]
 2226              		.loc 2 145 36 view .LVU761
 2227 036c ACEB020C 		sub	ip, ip, r2
 2228 0370 1FFA8CFC 		uxth	ip, ip
 2229              		.loc 2 145 49 view .LVU762
 2230 0374 0CF1010C 		add	ip, ip, #1
 2231              	.LVL195:
 2232              		.loc 2 145 49 view .LVU763
 2233              	.LBE211:
 2234              	.LBE210:
 2235              	.LBB212:
 2236              	.LBI212:
 143:Middlewares/lvgl/src/misc/lv_area.h **** {
 2237              		.loc 2 143 26 is_stmt 1 view .LVU764
 2238              	.LBB213:
 2239              		.loc 2 145 5 view .LVU765
 2240              		.loc 2 145 31 is_stmt 0 view .LVU766
 2241 0378 CA88     		ldrh	r2, [r1, #6]
 2242              		.loc 2 145 44 view .LVU767
 2243 037a B1F802E0 		ldrh	lr, [r1, #2]
 2244              		.loc 2 145 36 view .LVU768
 2245 037e A2EB0E02 		sub	r2, r2, lr
 2246 0382 92B2     		uxth	r2, r2
 2247              		.loc 2 145 49 view .LVU769
 2248 0384 0132     		adds	r2, r2, #1
 2249              	.LVL196:
 2250              		.loc 2 145 49 view .LVU770
 2251              	.LBE213:
 2252              	.LBE212:
 376:Middlewares/lvgl/src/misc/lv_area.c ****             break;
 2253              		.loc 1 376 46 view .LVU771
 2254 0386 CCF3C03E 		ubfx	lr, ip, #15, #1
 2255 038a 0EFA8CFC 		sxtah	ip, lr, ip
ARM GAS  /tmp/ccQ28q5O.s 			page 61


 2256 038e C2F3C03E 		ubfx	lr, r2, #15, #1
 2257 0392 0EFA82F2 		sxtah	r2, lr, r2
 2258 0396 5210     		asrs	r2, r2, #1
 2259 0398 C2EB6C02 		rsb	r2, r2, ip, asr #1
 376:Middlewares/lvgl/src/misc/lv_area.c ****             break;
 2260              		.loc 1 376 15 view .LVU772
 2261 039c 12B2     		sxth	r2, r2
 2262              	.LVL197:
 377:Middlewares/lvgl/src/misc/lv_area.c **** 
 2263              		.loc 1 377 13 is_stmt 1 view .LVU773
 2264 039e 7FE6     		b	.L49
 2265              	.LVL198:
 2266              	.L54:
 380:Middlewares/lvgl/src/misc/lv_area.c ****             y = lv_area_get_height(base) - lv_area_get_height(to_align);
 2267              		.loc 1 380 13 view .LVU774
 2268              	.LBB214:
 2269              	.LBI214:
 133:Middlewares/lvgl/src/misc/lv_area.h **** {
 2270              		.loc 2 133 26 view .LVU775
 2271              	.LBB215:
 135:Middlewares/lvgl/src/misc/lv_area.h **** }
 2272              		.loc 2 135 5 view .LVU776
 135:Middlewares/lvgl/src/misc/lv_area.h **** }
 2273              		.loc 2 135 31 is_stmt 0 view .LVU777
 2274 03a0 8A88     		ldrh	r2, [r1, #4]
 135:Middlewares/lvgl/src/misc/lv_area.h **** }
 2275              		.loc 2 135 44 view .LVU778
 2276 03a2 0888     		ldrh	r0, [r1]
 2277              	.LVL199:
 135:Middlewares/lvgl/src/misc/lv_area.h **** }
 2278              		.loc 2 135 44 view .LVU779
 2279              	.LBE215:
 2280              	.LBE214:
 380:Middlewares/lvgl/src/misc/lv_area.c ****             y = lv_area_get_height(base) - lv_area_get_height(to_align);
 2281              		.loc 1 380 15 view .LVU780
 2282 03a4 801A     		subs	r0, r0, r2
 2283 03a6 0138     		subs	r0, r0, #1
 2284 03a8 00B2     		sxth	r0, r0
 2285              	.LVL200:
 381:Middlewares/lvgl/src/misc/lv_area.c ****             break;
 2286              		.loc 1 381 13 is_stmt 1 view .LVU781
 2287              	.LBB216:
 2288              	.LBI216:
 143:Middlewares/lvgl/src/misc/lv_area.h **** {
 2289              		.loc 2 143 26 view .LVU782
 2290              	.LBB217:
 2291              		.loc 2 145 5 view .LVU783
 2292              		.loc 2 145 31 is_stmt 0 view .LVU784
 2293 03aa E288     		ldrh	r2, [r4, #6]
 2294              		.loc 2 145 44 view .LVU785
 2295 03ac B4F802C0 		ldrh	ip, [r4, #2]
 2296              		.loc 2 145 36 view .LVU786
 2297 03b0 A2EB0C02 		sub	r2, r2, ip
 2298              	.LVL201:
 2299              		.loc 2 145 36 view .LVU787
 2300              	.LBE217:
 2301              	.LBE216:
ARM GAS  /tmp/ccQ28q5O.s 			page 62


 2302              	.LBB218:
 2303              	.LBI218:
 143:Middlewares/lvgl/src/misc/lv_area.h **** {
 2304              		.loc 2 143 26 is_stmt 1 view .LVU788
 2305              	.LBB219:
 2306              		.loc 2 145 5 view .LVU789
 2307              		.loc 2 145 31 is_stmt 0 view .LVU790
 2308 03b4 B1F806E0 		ldrh	lr, [r1, #6]
 2309              		.loc 2 145 44 view .LVU791
 2310 03b8 B1F802C0 		ldrh	ip, [r1, #2]
 2311              	.LVL202:
 2312              		.loc 2 145 44 view .LVU792
 2313              	.LBE219:
 2314              	.LBE218:
 381:Middlewares/lvgl/src/misc/lv_area.c ****             break;
 2315              		.loc 1 381 42 view .LVU793
 2316 03bc ACEB0E0C 		sub	ip, ip, lr
 2317 03c0 1CFA82F2 		uxtah	r2, ip, r2
 381:Middlewares/lvgl/src/misc/lv_area.c ****             break;
 2318              		.loc 1 381 15 view .LVU794
 2319 03c4 12B2     		sxth	r2, r2
 2320              	.LVL203:
 382:Middlewares/lvgl/src/misc/lv_area.c **** 
 2321              		.loc 1 382 13 is_stmt 1 view .LVU795
 2322 03c6 6BE6     		b	.L49
 2323              	.LVL204:
 2324              	.L53:
 385:Middlewares/lvgl/src/misc/lv_area.c ****             y = 0;
 2325              		.loc 1 385 13 view .LVU796
 2326              	.LBB220:
 2327              	.LBI220:
 133:Middlewares/lvgl/src/misc/lv_area.h **** {
 2328              		.loc 2 133 26 view .LVU797
 2329              	.LBB221:
 135:Middlewares/lvgl/src/misc/lv_area.h **** }
 2330              		.loc 2 135 5 view .LVU798
 135:Middlewares/lvgl/src/misc/lv_area.h **** }
 2331              		.loc 2 135 31 is_stmt 0 view .LVU799
 2332 03c8 A088     		ldrh	r0, [r4, #4]
 135:Middlewares/lvgl/src/misc/lv_area.h **** }
 2333              		.loc 2 135 44 view .LVU800
 2334 03ca 2288     		ldrh	r2, [r4]
 135:Middlewares/lvgl/src/misc/lv_area.h **** }
 2335              		.loc 2 135 36 view .LVU801
 2336 03cc 801A     		subs	r0, r0, r2
 2337 03ce 80B2     		uxth	r0, r0
 135:Middlewares/lvgl/src/misc/lv_area.h **** }
 2338              		.loc 2 135 49 view .LVU802
 2339 03d0 0130     		adds	r0, r0, #1
 135:Middlewares/lvgl/src/misc/lv_area.h **** }
 2340              		.loc 2 135 12 view .LVU803
 2341 03d2 00B2     		sxth	r0, r0
 2342              	.LVL205:
 135:Middlewares/lvgl/src/misc/lv_area.h **** }
 2343              		.loc 2 135 12 view .LVU804
 2344              	.LBE221:
 2345              	.LBE220:
ARM GAS  /tmp/ccQ28q5O.s 			page 63


 386:Middlewares/lvgl/src/misc/lv_area.c ****             break;
 2346              		.loc 1 386 13 is_stmt 1 view .LVU805
 387:Middlewares/lvgl/src/misc/lv_area.c **** 
 2347              		.loc 1 387 13 view .LVU806
 386:Middlewares/lvgl/src/misc/lv_area.c ****             break;
 2348              		.loc 1 386 15 is_stmt 0 view .LVU807
 2349 03d4 0022     		movs	r2, #0
 387:Middlewares/lvgl/src/misc/lv_area.c **** 
 2350              		.loc 1 387 13 view .LVU808
 2351 03d6 63E6     		b	.L49
 2352              	.LVL206:
 2353              	.L52:
 390:Middlewares/lvgl/src/misc/lv_area.c ****             y = lv_area_get_height(base) / 2 - lv_area_get_height(to_align) / 2;
 2354              		.loc 1 390 13 is_stmt 1 view .LVU809
 2355              	.LBB222:
 2356              	.LBI222:
 133:Middlewares/lvgl/src/misc/lv_area.h **** {
 2357              		.loc 2 133 26 view .LVU810
 2358              	.LBB223:
 135:Middlewares/lvgl/src/misc/lv_area.h **** }
 2359              		.loc 2 135 5 view .LVU811
 135:Middlewares/lvgl/src/misc/lv_area.h **** }
 2360              		.loc 2 135 31 is_stmt 0 view .LVU812
 2361 03d8 A088     		ldrh	r0, [r4, #4]
 135:Middlewares/lvgl/src/misc/lv_area.h **** }
 2362              		.loc 2 135 44 view .LVU813
 2363 03da 2288     		ldrh	r2, [r4]
 135:Middlewares/lvgl/src/misc/lv_area.h **** }
 2364              		.loc 2 135 36 view .LVU814
 2365 03dc 801A     		subs	r0, r0, r2
 2366 03de 80B2     		uxth	r0, r0
 135:Middlewares/lvgl/src/misc/lv_area.h **** }
 2367              		.loc 2 135 49 view .LVU815
 2368 03e0 0130     		adds	r0, r0, #1
 135:Middlewares/lvgl/src/misc/lv_area.h **** }
 2369              		.loc 2 135 12 view .LVU816
 2370 03e2 00B2     		sxth	r0, r0
 2371              	.LVL207:
 135:Middlewares/lvgl/src/misc/lv_area.h **** }
 2372              		.loc 2 135 12 view .LVU817
 2373              	.LBE223:
 2374              	.LBE222:
 391:Middlewares/lvgl/src/misc/lv_area.c ****             break;
 2375              		.loc 1 391 13 is_stmt 1 view .LVU818
 2376              	.LBB224:
 2377              	.LBI224:
 143:Middlewares/lvgl/src/misc/lv_area.h **** {
 2378              		.loc 2 143 26 view .LVU819
 2379              	.LBB225:
 2380              		.loc 2 145 5 view .LVU820
 2381              		.loc 2 145 31 is_stmt 0 view .LVU821
 2382 03e4 B4F806C0 		ldrh	ip, [r4, #6]
 2383              		.loc 2 145 44 view .LVU822
 2384 03e8 6288     		ldrh	r2, [r4, #2]
 2385              		.loc 2 145 36 view .LVU823
 2386 03ea ACEB020C 		sub	ip, ip, r2
 2387 03ee 1FFA8CFC 		uxth	ip, ip
ARM GAS  /tmp/ccQ28q5O.s 			page 64


 2388              		.loc 2 145 49 view .LVU824
 2389 03f2 0CF1010C 		add	ip, ip, #1
 2390              	.LVL208:
 2391              		.loc 2 145 49 view .LVU825
 2392              	.LBE225:
 2393              	.LBE224:
 2394              	.LBB226:
 2395              	.LBI226:
 143:Middlewares/lvgl/src/misc/lv_area.h **** {
 2396              		.loc 2 143 26 is_stmt 1 view .LVU826
 2397              	.LBB227:
 2398              		.loc 2 145 5 view .LVU827
 2399              		.loc 2 145 31 is_stmt 0 view .LVU828
 2400 03f6 CA88     		ldrh	r2, [r1, #6]
 2401              		.loc 2 145 44 view .LVU829
 2402 03f8 B1F802E0 		ldrh	lr, [r1, #2]
 2403              		.loc 2 145 36 view .LVU830
 2404 03fc A2EB0E02 		sub	r2, r2, lr
 2405 0400 92B2     		uxth	r2, r2
 2406              		.loc 2 145 49 view .LVU831
 2407 0402 0132     		adds	r2, r2, #1
 2408              	.LVL209:
 2409              		.loc 2 145 49 view .LVU832
 2410              	.LBE227:
 2411              	.LBE226:
 391:Middlewares/lvgl/src/misc/lv_area.c ****             break;
 2412              		.loc 1 391 46 view .LVU833
 2413 0404 CCF3C03E 		ubfx	lr, ip, #15, #1
 2414 0408 0EFA8CFC 		sxtah	ip, lr, ip
 2415 040c C2F3C03E 		ubfx	lr, r2, #15, #1
 2416 0410 0EFA82F2 		sxtah	r2, lr, r2
 2417 0414 5210     		asrs	r2, r2, #1
 2418 0416 C2EB6C02 		rsb	r2, r2, ip, asr #1
 391:Middlewares/lvgl/src/misc/lv_area.c ****             break;
 2419              		.loc 1 391 15 view .LVU834
 2420 041a 12B2     		sxth	r2, r2
 2421              	.LVL210:
 392:Middlewares/lvgl/src/misc/lv_area.c **** 
 2422              		.loc 1 392 13 is_stmt 1 view .LVU835
 2423 041c 40E6     		b	.L49
 2424              	.LVL211:
 2425              	.L50:
 395:Middlewares/lvgl/src/misc/lv_area.c ****             y = lv_area_get_height(base) - lv_area_get_height(to_align);
 2426              		.loc 1 395 13 view .LVU836
 2427              	.LBB228:
 2428              	.LBI228:
 133:Middlewares/lvgl/src/misc/lv_area.h **** {
 2429              		.loc 2 133 26 view .LVU837
 2430              	.LBB229:
 135:Middlewares/lvgl/src/misc/lv_area.h **** }
 2431              		.loc 2 135 5 view .LVU838
 135:Middlewares/lvgl/src/misc/lv_area.h **** }
 2432              		.loc 2 135 31 is_stmt 0 view .LVU839
 2433 041e A088     		ldrh	r0, [r4, #4]
 135:Middlewares/lvgl/src/misc/lv_area.h **** }
 2434              		.loc 2 135 44 view .LVU840
 2435 0420 2288     		ldrh	r2, [r4]
ARM GAS  /tmp/ccQ28q5O.s 			page 65


 135:Middlewares/lvgl/src/misc/lv_area.h **** }
 2436              		.loc 2 135 36 view .LVU841
 2437 0422 801A     		subs	r0, r0, r2
 2438 0424 80B2     		uxth	r0, r0
 135:Middlewares/lvgl/src/misc/lv_area.h **** }
 2439              		.loc 2 135 49 view .LVU842
 2440 0426 0130     		adds	r0, r0, #1
 135:Middlewares/lvgl/src/misc/lv_area.h **** }
 2441              		.loc 2 135 12 view .LVU843
 2442 0428 00B2     		sxth	r0, r0
 2443              	.LVL212:
 135:Middlewares/lvgl/src/misc/lv_area.h **** }
 2444              		.loc 2 135 12 view .LVU844
 2445              	.LBE229:
 2446              	.LBE228:
 396:Middlewares/lvgl/src/misc/lv_area.c ****             break;
 2447              		.loc 1 396 13 is_stmt 1 view .LVU845
 2448              	.LBB230:
 2449              	.LBI230:
 143:Middlewares/lvgl/src/misc/lv_area.h **** {
 2450              		.loc 2 143 26 view .LVU846
 2451              	.LBB231:
 2452              		.loc 2 145 5 view .LVU847
 2453              		.loc 2 145 31 is_stmt 0 view .LVU848
 2454 042a E288     		ldrh	r2, [r4, #6]
 2455              		.loc 2 145 44 view .LVU849
 2456 042c B4F802C0 		ldrh	ip, [r4, #2]
 2457              		.loc 2 145 36 view .LVU850
 2458 0430 A2EB0C02 		sub	r2, r2, ip
 2459              	.LVL213:
 2460              		.loc 2 145 36 view .LVU851
 2461              	.LBE231:
 2462              	.LBE230:
 2463              	.LBB232:
 2464              	.LBI232:
 143:Middlewares/lvgl/src/misc/lv_area.h **** {
 2465              		.loc 2 143 26 is_stmt 1 view .LVU852
 2466              	.LBB233:
 2467              		.loc 2 145 5 view .LVU853
 2468              		.loc 2 145 31 is_stmt 0 view .LVU854
 2469 0434 B1F806E0 		ldrh	lr, [r1, #6]
 2470              		.loc 2 145 44 view .LVU855
 2471 0438 B1F802C0 		ldrh	ip, [r1, #2]
 2472              	.LVL214:
 2473              		.loc 2 145 44 view .LVU856
 2474              	.LBE233:
 2475              	.LBE232:
 396:Middlewares/lvgl/src/misc/lv_area.c ****             break;
 2476              		.loc 1 396 42 view .LVU857
 2477 043c ACEB0E0C 		sub	ip, ip, lr
 2478 0440 1CFA82F2 		uxtah	r2, ip, r2
 396:Middlewares/lvgl/src/misc/lv_area.c ****             break;
 2479              		.loc 1 396 15 view .LVU858
 2480 0444 12B2     		sxth	r2, r2
 2481              	.LVL215:
 397:Middlewares/lvgl/src/misc/lv_area.c ****         default:
 2482              		.loc 1 397 13 is_stmt 1 view .LVU859
ARM GAS  /tmp/ccQ28q5O.s 			page 66


 2483 0446 2BE6     		b	.L49
 2484              	.LVL216:
 2485              	.L71:
 295:Middlewares/lvgl/src/misc/lv_area.c ****         case LV_ALIGN_CENTER:
 2486              		.loc 1 295 5 is_stmt 0 view .LVU860
 2487 0448 0022     		movs	r2, #0
 2488 044a 1046     		mov	r0, r2
 2489 044c 28E6     		b	.L49
 2490              		.cfi_endproc
 2491              	.LFE17:
 2493              		.text
 2494              	.Letext0:
 2495              		.file 3 "/home/akinya/gcc-arm-none-eabi/arm-none-eabi/include/machine/_default_types.h"
 2496              		.file 4 "/home/akinya/gcc-arm-none-eabi/arm-none-eabi/include/sys/_stdint.h"
ARM GAS  /tmp/ccQ28q5O.s 			page 67

