ARM GAS  /tmp/ccJYH9fy.s 			page 1


   1              		.cpu cortex-m4
   2              		.eabi_attribute 27, 1
   3              		.eabi_attribute 28, 1
   4              		.eabi_attribute 20, 1
   5              		.eabi_attribute 21, 1
   6              		.eabi_attribute 23, 3
   7              		.eabi_attribute 24, 1
   8              		.eabi_attribute 25, 1
   9              		.eabi_attribute 26, 1
  10              		.eabi_attribute 30, 1
  11              		.eabi_attribute 34, 1
  12              		.eabi_attribute 18, 4
  13              		.file	"lv_example_meter_4.c"
  14              		.text
  15              	.Ltext0:
  16              		.cfi_sections	.debug_frame
  17              		.section	.text.lv_example_meter_4,"ax",%progbits
  18              		.align	1
  19              		.global	lv_example_meter_4
  20              		.arch armv7e-m
  21              		.syntax unified
  22              		.thumb
  23              		.thumb_func
  24              		.fpu fpv4-sp-d16
  26              	lv_example_meter_4:
  27              	.LFB184:
  28              		.file 1 "Middlewares/lvgl/examples/widgets/meter/lv_example_meter_4.c"
   1:Middlewares/lvgl/examples/widgets/meter/lv_example_meter_4.c **** #include "../../lv_examples.h"
   2:Middlewares/lvgl/examples/widgets/meter/lv_example_meter_4.c **** #if LV_USE_METER && LV_BUILD_EXAMPLES
   3:Middlewares/lvgl/examples/widgets/meter/lv_example_meter_4.c **** 
   4:Middlewares/lvgl/examples/widgets/meter/lv_example_meter_4.c **** /**
   5:Middlewares/lvgl/examples/widgets/meter/lv_example_meter_4.c ****  * Create a pie chart
   6:Middlewares/lvgl/examples/widgets/meter/lv_example_meter_4.c ****  */
   7:Middlewares/lvgl/examples/widgets/meter/lv_example_meter_4.c **** void lv_example_meter_4(void)
   8:Middlewares/lvgl/examples/widgets/meter/lv_example_meter_4.c **** {
  29              		.loc 1 8 1 view -0
  30              		.cfi_startproc
  31              		@ args = 0, pretend = 0, frame = 0
  32              		@ frame_needed = 0, uses_anonymous_args = 0
  33 0000 F0B5     		push	{r4, r5, r6, r7, lr}
  34              	.LCFI0:
  35              		.cfi_def_cfa_offset 20
  36              		.cfi_offset 4, -20
  37              		.cfi_offset 5, -16
  38              		.cfi_offset 6, -12
  39              		.cfi_offset 7, -8
  40              		.cfi_offset 14, -4
  41 0002 83B0     		sub	sp, sp, #12
  42              	.LCFI1:
  43              		.cfi_def_cfa_offset 32
   9:Middlewares/lvgl/examples/widgets/meter/lv_example_meter_4.c ****     lv_obj_t * meter = lv_meter_create(lv_scr_act());
  44              		.loc 1 9 5 view .LVU1
  45              	.LBB17:
  46              	.LBI17:
  47              		.file 2 "Middlewares/lvgl/examples/widgets/meter/../../../src/core/lv_disp.h"
   1:Middlewares/lvgl/examples/widgets/meter/../../../src/core/lv_disp.h **** /**
   2:Middlewares/lvgl/examples/widgets/meter/../../../src/core/lv_disp.h ****  * @file lv_disp.h
ARM GAS  /tmp/ccJYH9fy.s 			page 2


   3:Middlewares/lvgl/examples/widgets/meter/../../../src/core/lv_disp.h ****  *
   4:Middlewares/lvgl/examples/widgets/meter/../../../src/core/lv_disp.h ****  */
   5:Middlewares/lvgl/examples/widgets/meter/../../../src/core/lv_disp.h **** 
   6:Middlewares/lvgl/examples/widgets/meter/../../../src/core/lv_disp.h **** #ifndef LV_DISP_H
   7:Middlewares/lvgl/examples/widgets/meter/../../../src/core/lv_disp.h **** #define LV_DISP_H
   8:Middlewares/lvgl/examples/widgets/meter/../../../src/core/lv_disp.h **** 
   9:Middlewares/lvgl/examples/widgets/meter/../../../src/core/lv_disp.h **** #ifdef __cplusplus
  10:Middlewares/lvgl/examples/widgets/meter/../../../src/core/lv_disp.h **** extern "C" {
  11:Middlewares/lvgl/examples/widgets/meter/../../../src/core/lv_disp.h **** #endif
  12:Middlewares/lvgl/examples/widgets/meter/../../../src/core/lv_disp.h **** 
  13:Middlewares/lvgl/examples/widgets/meter/../../../src/core/lv_disp.h **** /*********************
  14:Middlewares/lvgl/examples/widgets/meter/../../../src/core/lv_disp.h ****  *      INCLUDES
  15:Middlewares/lvgl/examples/widgets/meter/../../../src/core/lv_disp.h ****  *********************/
  16:Middlewares/lvgl/examples/widgets/meter/../../../src/core/lv_disp.h **** #include "../hal/lv_hal.h"
  17:Middlewares/lvgl/examples/widgets/meter/../../../src/core/lv_disp.h **** #include "lv_obj.h"
  18:Middlewares/lvgl/examples/widgets/meter/../../../src/core/lv_disp.h **** #include "lv_theme.h"
  19:Middlewares/lvgl/examples/widgets/meter/../../../src/core/lv_disp.h **** 
  20:Middlewares/lvgl/examples/widgets/meter/../../../src/core/lv_disp.h **** /*********************
  21:Middlewares/lvgl/examples/widgets/meter/../../../src/core/lv_disp.h ****  *      DEFINES
  22:Middlewares/lvgl/examples/widgets/meter/../../../src/core/lv_disp.h ****  *********************/
  23:Middlewares/lvgl/examples/widgets/meter/../../../src/core/lv_disp.h **** 
  24:Middlewares/lvgl/examples/widgets/meter/../../../src/core/lv_disp.h **** /**********************
  25:Middlewares/lvgl/examples/widgets/meter/../../../src/core/lv_disp.h ****  *      TYPEDEFS
  26:Middlewares/lvgl/examples/widgets/meter/../../../src/core/lv_disp.h ****  **********************/
  27:Middlewares/lvgl/examples/widgets/meter/../../../src/core/lv_disp.h **** 
  28:Middlewares/lvgl/examples/widgets/meter/../../../src/core/lv_disp.h **** typedef enum {
  29:Middlewares/lvgl/examples/widgets/meter/../../../src/core/lv_disp.h ****     LV_SCR_LOAD_ANIM_NONE,
  30:Middlewares/lvgl/examples/widgets/meter/../../../src/core/lv_disp.h ****     LV_SCR_LOAD_ANIM_OVER_LEFT,
  31:Middlewares/lvgl/examples/widgets/meter/../../../src/core/lv_disp.h ****     LV_SCR_LOAD_ANIM_OVER_RIGHT,
  32:Middlewares/lvgl/examples/widgets/meter/../../../src/core/lv_disp.h ****     LV_SCR_LOAD_ANIM_OVER_TOP,
  33:Middlewares/lvgl/examples/widgets/meter/../../../src/core/lv_disp.h ****     LV_SCR_LOAD_ANIM_OVER_BOTTOM,
  34:Middlewares/lvgl/examples/widgets/meter/../../../src/core/lv_disp.h ****     LV_SCR_LOAD_ANIM_MOVE_LEFT,
  35:Middlewares/lvgl/examples/widgets/meter/../../../src/core/lv_disp.h ****     LV_SCR_LOAD_ANIM_MOVE_RIGHT,
  36:Middlewares/lvgl/examples/widgets/meter/../../../src/core/lv_disp.h ****     LV_SCR_LOAD_ANIM_MOVE_TOP,
  37:Middlewares/lvgl/examples/widgets/meter/../../../src/core/lv_disp.h ****     LV_SCR_LOAD_ANIM_MOVE_BOTTOM,
  38:Middlewares/lvgl/examples/widgets/meter/../../../src/core/lv_disp.h ****     LV_SCR_LOAD_ANIM_FADE_ON,
  39:Middlewares/lvgl/examples/widgets/meter/../../../src/core/lv_disp.h **** } lv_scr_load_anim_t;
  40:Middlewares/lvgl/examples/widgets/meter/../../../src/core/lv_disp.h **** 
  41:Middlewares/lvgl/examples/widgets/meter/../../../src/core/lv_disp.h **** /**********************
  42:Middlewares/lvgl/examples/widgets/meter/../../../src/core/lv_disp.h ****  * GLOBAL PROTOTYPES
  43:Middlewares/lvgl/examples/widgets/meter/../../../src/core/lv_disp.h ****  **********************/
  44:Middlewares/lvgl/examples/widgets/meter/../../../src/core/lv_disp.h **** 
  45:Middlewares/lvgl/examples/widgets/meter/../../../src/core/lv_disp.h **** /**
  46:Middlewares/lvgl/examples/widgets/meter/../../../src/core/lv_disp.h ****  * Return with a pointer to the active screen
  47:Middlewares/lvgl/examples/widgets/meter/../../../src/core/lv_disp.h ****  * @param disp pointer to display which active screen should be get. (NULL to use the default
  48:Middlewares/lvgl/examples/widgets/meter/../../../src/core/lv_disp.h ****  * screen)
  49:Middlewares/lvgl/examples/widgets/meter/../../../src/core/lv_disp.h ****  * @return pointer to the active screen object (loaded by 'lv_scr_load()')
  50:Middlewares/lvgl/examples/widgets/meter/../../../src/core/lv_disp.h ****  */
  51:Middlewares/lvgl/examples/widgets/meter/../../../src/core/lv_disp.h **** lv_obj_t * lv_disp_get_scr_act(lv_disp_t * disp);
  52:Middlewares/lvgl/examples/widgets/meter/../../../src/core/lv_disp.h **** 
  53:Middlewares/lvgl/examples/widgets/meter/../../../src/core/lv_disp.h **** /**
  54:Middlewares/lvgl/examples/widgets/meter/../../../src/core/lv_disp.h ****  * Return with a pointer to the previous screen. Only used during screen transitions.
  55:Middlewares/lvgl/examples/widgets/meter/../../../src/core/lv_disp.h ****  * @param disp pointer to display which previous screen should be get. (NULL to use the default
  56:Middlewares/lvgl/examples/widgets/meter/../../../src/core/lv_disp.h ****  * screen)
  57:Middlewares/lvgl/examples/widgets/meter/../../../src/core/lv_disp.h ****  * @return pointer to the previous screen object or NULL if not used now
  58:Middlewares/lvgl/examples/widgets/meter/../../../src/core/lv_disp.h ****  */
  59:Middlewares/lvgl/examples/widgets/meter/../../../src/core/lv_disp.h **** lv_obj_t * lv_disp_get_scr_prev(lv_disp_t * disp);
ARM GAS  /tmp/ccJYH9fy.s 			page 3


  60:Middlewares/lvgl/examples/widgets/meter/../../../src/core/lv_disp.h **** 
  61:Middlewares/lvgl/examples/widgets/meter/../../../src/core/lv_disp.h **** /**
  62:Middlewares/lvgl/examples/widgets/meter/../../../src/core/lv_disp.h ****  * Make a screen active
  63:Middlewares/lvgl/examples/widgets/meter/../../../src/core/lv_disp.h ****  * @param scr pointer to a screen
  64:Middlewares/lvgl/examples/widgets/meter/../../../src/core/lv_disp.h ****  */
  65:Middlewares/lvgl/examples/widgets/meter/../../../src/core/lv_disp.h **** void lv_disp_load_scr(lv_obj_t * scr);
  66:Middlewares/lvgl/examples/widgets/meter/../../../src/core/lv_disp.h **** 
  67:Middlewares/lvgl/examples/widgets/meter/../../../src/core/lv_disp.h **** /**
  68:Middlewares/lvgl/examples/widgets/meter/../../../src/core/lv_disp.h ****  * Return with the top layer. (Same on every screen and it is above the normal screen layer)
  69:Middlewares/lvgl/examples/widgets/meter/../../../src/core/lv_disp.h ****  * @param disp pointer to display which top layer should be get. (NULL to use the default screen)
  70:Middlewares/lvgl/examples/widgets/meter/../../../src/core/lv_disp.h ****  * @return pointer to the top layer object  (transparent screen sized lv_obj)
  71:Middlewares/lvgl/examples/widgets/meter/../../../src/core/lv_disp.h ****  */
  72:Middlewares/lvgl/examples/widgets/meter/../../../src/core/lv_disp.h **** lv_obj_t * lv_disp_get_layer_top(lv_disp_t * disp);
  73:Middlewares/lvgl/examples/widgets/meter/../../../src/core/lv_disp.h **** 
  74:Middlewares/lvgl/examples/widgets/meter/../../../src/core/lv_disp.h **** /**
  75:Middlewares/lvgl/examples/widgets/meter/../../../src/core/lv_disp.h ****  * Return with the sys. layer. (Same on every screen and it is above the normal screen and the top
  76:Middlewares/lvgl/examples/widgets/meter/../../../src/core/lv_disp.h ****  * layer)
  77:Middlewares/lvgl/examples/widgets/meter/../../../src/core/lv_disp.h ****  * @param disp pointer to display which sys. layer  should be get. (NULL to use the default screen)
  78:Middlewares/lvgl/examples/widgets/meter/../../../src/core/lv_disp.h ****  * @return pointer to the sys layer object  (transparent screen sized lv_obj)
  79:Middlewares/lvgl/examples/widgets/meter/../../../src/core/lv_disp.h ****  */
  80:Middlewares/lvgl/examples/widgets/meter/../../../src/core/lv_disp.h **** lv_obj_t * lv_disp_get_layer_sys(lv_disp_t * disp);
  81:Middlewares/lvgl/examples/widgets/meter/../../../src/core/lv_disp.h **** 
  82:Middlewares/lvgl/examples/widgets/meter/../../../src/core/lv_disp.h **** /**
  83:Middlewares/lvgl/examples/widgets/meter/../../../src/core/lv_disp.h ****  * Get the theme of a display
  84:Middlewares/lvgl/examples/widgets/meter/../../../src/core/lv_disp.h ****  * @param disp pointer to a display
  85:Middlewares/lvgl/examples/widgets/meter/../../../src/core/lv_disp.h ****  * @return the display's theme (can be NULL)
  86:Middlewares/lvgl/examples/widgets/meter/../../../src/core/lv_disp.h ****  */
  87:Middlewares/lvgl/examples/widgets/meter/../../../src/core/lv_disp.h **** void lv_disp_set_theme(lv_disp_t * disp, lv_theme_t * th);
  88:Middlewares/lvgl/examples/widgets/meter/../../../src/core/lv_disp.h **** 
  89:Middlewares/lvgl/examples/widgets/meter/../../../src/core/lv_disp.h **** /**
  90:Middlewares/lvgl/examples/widgets/meter/../../../src/core/lv_disp.h ****  * Get the theme of a display
  91:Middlewares/lvgl/examples/widgets/meter/../../../src/core/lv_disp.h ****  * @param disp pointer to a display
  92:Middlewares/lvgl/examples/widgets/meter/../../../src/core/lv_disp.h ****  * @return the display's theme (can be NULL)
  93:Middlewares/lvgl/examples/widgets/meter/../../../src/core/lv_disp.h ****  */
  94:Middlewares/lvgl/examples/widgets/meter/../../../src/core/lv_disp.h **** lv_theme_t * lv_disp_get_theme(lv_disp_t * disp);
  95:Middlewares/lvgl/examples/widgets/meter/../../../src/core/lv_disp.h **** 
  96:Middlewares/lvgl/examples/widgets/meter/../../../src/core/lv_disp.h **** /**
  97:Middlewares/lvgl/examples/widgets/meter/../../../src/core/lv_disp.h ****  * Set the background color of a display
  98:Middlewares/lvgl/examples/widgets/meter/../../../src/core/lv_disp.h ****  * @param disp pointer to a display
  99:Middlewares/lvgl/examples/widgets/meter/../../../src/core/lv_disp.h ****  * @param color color of the background
 100:Middlewares/lvgl/examples/widgets/meter/../../../src/core/lv_disp.h ****  */
 101:Middlewares/lvgl/examples/widgets/meter/../../../src/core/lv_disp.h **** void lv_disp_set_bg_color(lv_disp_t * disp, lv_color_t color);
 102:Middlewares/lvgl/examples/widgets/meter/../../../src/core/lv_disp.h **** 
 103:Middlewares/lvgl/examples/widgets/meter/../../../src/core/lv_disp.h **** /**
 104:Middlewares/lvgl/examples/widgets/meter/../../../src/core/lv_disp.h ****  * Set the background image of a display
 105:Middlewares/lvgl/examples/widgets/meter/../../../src/core/lv_disp.h ****  * @param disp pointer to a display
 106:Middlewares/lvgl/examples/widgets/meter/../../../src/core/lv_disp.h ****  * @param img_src path to file or pointer to an `lv_img_dsc_t` variable
 107:Middlewares/lvgl/examples/widgets/meter/../../../src/core/lv_disp.h ****  */
 108:Middlewares/lvgl/examples/widgets/meter/../../../src/core/lv_disp.h **** void lv_disp_set_bg_image(lv_disp_t * disp, const void  * img_src);
 109:Middlewares/lvgl/examples/widgets/meter/../../../src/core/lv_disp.h **** 
 110:Middlewares/lvgl/examples/widgets/meter/../../../src/core/lv_disp.h **** /**
 111:Middlewares/lvgl/examples/widgets/meter/../../../src/core/lv_disp.h ****  * Opacity of the background
 112:Middlewares/lvgl/examples/widgets/meter/../../../src/core/lv_disp.h ****  * @param disp pointer to a display
 113:Middlewares/lvgl/examples/widgets/meter/../../../src/core/lv_disp.h ****  * @param opa opacity (0..255)
 114:Middlewares/lvgl/examples/widgets/meter/../../../src/core/lv_disp.h ****  */
 115:Middlewares/lvgl/examples/widgets/meter/../../../src/core/lv_disp.h **** void lv_disp_set_bg_opa(lv_disp_t * disp, lv_opa_t opa);
 116:Middlewares/lvgl/examples/widgets/meter/../../../src/core/lv_disp.h **** 
ARM GAS  /tmp/ccJYH9fy.s 			page 4


 117:Middlewares/lvgl/examples/widgets/meter/../../../src/core/lv_disp.h **** /**
 118:Middlewares/lvgl/examples/widgets/meter/../../../src/core/lv_disp.h ****  * Switch screen with animation
 119:Middlewares/lvgl/examples/widgets/meter/../../../src/core/lv_disp.h ****  * @param scr pointer to the new screen to load
 120:Middlewares/lvgl/examples/widgets/meter/../../../src/core/lv_disp.h ****  * @param anim_type type of the animation from `lv_scr_load_anim_t`. E.g.  `LV_SCR_LOAD_ANIM_MOVE_L
 121:Middlewares/lvgl/examples/widgets/meter/../../../src/core/lv_disp.h ****  * @param time time of the animation
 122:Middlewares/lvgl/examples/widgets/meter/../../../src/core/lv_disp.h ****  * @param delay delay before the transition
 123:Middlewares/lvgl/examples/widgets/meter/../../../src/core/lv_disp.h ****  * @param auto_del true: automatically delete the old screen
 124:Middlewares/lvgl/examples/widgets/meter/../../../src/core/lv_disp.h ****  */
 125:Middlewares/lvgl/examples/widgets/meter/../../../src/core/lv_disp.h **** void lv_scr_load_anim(lv_obj_t * scr, lv_scr_load_anim_t anim_type, uint32_t time, uint32_t delay, 
 126:Middlewares/lvgl/examples/widgets/meter/../../../src/core/lv_disp.h **** 
 127:Middlewares/lvgl/examples/widgets/meter/../../../src/core/lv_disp.h **** /**
 128:Middlewares/lvgl/examples/widgets/meter/../../../src/core/lv_disp.h ****  * Get elapsed time since last user activity on a display (e.g. click)
 129:Middlewares/lvgl/examples/widgets/meter/../../../src/core/lv_disp.h ****  * @param disp pointer to an display (NULL to get the overall smallest inactivity)
 130:Middlewares/lvgl/examples/widgets/meter/../../../src/core/lv_disp.h ****  * @return elapsed ticks (milliseconds) since the last activity
 131:Middlewares/lvgl/examples/widgets/meter/../../../src/core/lv_disp.h ****  */
 132:Middlewares/lvgl/examples/widgets/meter/../../../src/core/lv_disp.h **** uint32_t lv_disp_get_inactive_time(const lv_disp_t * disp);
 133:Middlewares/lvgl/examples/widgets/meter/../../../src/core/lv_disp.h **** 
 134:Middlewares/lvgl/examples/widgets/meter/../../../src/core/lv_disp.h **** /**
 135:Middlewares/lvgl/examples/widgets/meter/../../../src/core/lv_disp.h ****  * Manually trigger an activity on a display
 136:Middlewares/lvgl/examples/widgets/meter/../../../src/core/lv_disp.h ****  * @param disp pointer to an display (NULL to use the default display)
 137:Middlewares/lvgl/examples/widgets/meter/../../../src/core/lv_disp.h ****  */
 138:Middlewares/lvgl/examples/widgets/meter/../../../src/core/lv_disp.h **** void lv_disp_trig_activity(lv_disp_t * disp);
 139:Middlewares/lvgl/examples/widgets/meter/../../../src/core/lv_disp.h **** 
 140:Middlewares/lvgl/examples/widgets/meter/../../../src/core/lv_disp.h **** /**
 141:Middlewares/lvgl/examples/widgets/meter/../../../src/core/lv_disp.h ****  * Clean any CPU cache that is related to the display.
 142:Middlewares/lvgl/examples/widgets/meter/../../../src/core/lv_disp.h ****  * @param disp pointer to an display (NULL to use the default display)
 143:Middlewares/lvgl/examples/widgets/meter/../../../src/core/lv_disp.h ****  */
 144:Middlewares/lvgl/examples/widgets/meter/../../../src/core/lv_disp.h **** void lv_disp_clean_dcache(lv_disp_t * disp);
 145:Middlewares/lvgl/examples/widgets/meter/../../../src/core/lv_disp.h **** 
 146:Middlewares/lvgl/examples/widgets/meter/../../../src/core/lv_disp.h **** /**
 147:Middlewares/lvgl/examples/widgets/meter/../../../src/core/lv_disp.h ****  * Get a pointer to the screen refresher timer to
 148:Middlewares/lvgl/examples/widgets/meter/../../../src/core/lv_disp.h ****  * modify its parameters with `lv_timer_...` functions.
 149:Middlewares/lvgl/examples/widgets/meter/../../../src/core/lv_disp.h ****  * @param disp pointer to a display
 150:Middlewares/lvgl/examples/widgets/meter/../../../src/core/lv_disp.h ****  * @return pointer to the display refresher timer. (NULL on error)
 151:Middlewares/lvgl/examples/widgets/meter/../../../src/core/lv_disp.h ****  */
 152:Middlewares/lvgl/examples/widgets/meter/../../../src/core/lv_disp.h **** lv_timer_t * _lv_disp_get_refr_timer(lv_disp_t * disp);
 153:Middlewares/lvgl/examples/widgets/meter/../../../src/core/lv_disp.h **** 
 154:Middlewares/lvgl/examples/widgets/meter/../../../src/core/lv_disp.h **** /*------------------------------------------------
 155:Middlewares/lvgl/examples/widgets/meter/../../../src/core/lv_disp.h ****  * To improve backward compatibility
 156:Middlewares/lvgl/examples/widgets/meter/../../../src/core/lv_disp.h ****  * Recommended only if you have one display
 157:Middlewares/lvgl/examples/widgets/meter/../../../src/core/lv_disp.h ****  *------------------------------------------------*/
 158:Middlewares/lvgl/examples/widgets/meter/../../../src/core/lv_disp.h **** 
 159:Middlewares/lvgl/examples/widgets/meter/../../../src/core/lv_disp.h **** /**
 160:Middlewares/lvgl/examples/widgets/meter/../../../src/core/lv_disp.h ****  * Get the active screen of the default display
 161:Middlewares/lvgl/examples/widgets/meter/../../../src/core/lv_disp.h ****  * @return pointer to the active screen
 162:Middlewares/lvgl/examples/widgets/meter/../../../src/core/lv_disp.h ****  */
 163:Middlewares/lvgl/examples/widgets/meter/../../../src/core/lv_disp.h **** static inline lv_obj_t * lv_scr_act(void)
  48              		.loc 2 163 26 view .LVU2
  49              	.LBB18:
 164:Middlewares/lvgl/examples/widgets/meter/../../../src/core/lv_disp.h **** {
 165:Middlewares/lvgl/examples/widgets/meter/../../../src/core/lv_disp.h ****     return lv_disp_get_scr_act(lv_disp_get_default());
  50              		.loc 2 165 5 view .LVU3
  51              		.loc 2 165 12 is_stmt 0 view .LVU4
  52 0004 FFF7FEFF 		bl	lv_disp_get_default
  53              	.LVL0:
  54 0008 FFF7FEFF 		bl	lv_disp_get_scr_act
  55              	.LVL1:
ARM GAS  /tmp/ccJYH9fy.s 			page 5


  56              	.LBE18:
  57              	.LBE17:
  58              		.loc 1 9 24 view .LVU5
  59 000c FFF7FEFF 		bl	lv_meter_create
  60              	.LVL2:
  61 0010 0446     		mov	r4, r0
  62              	.LVL3:
  10:Middlewares/lvgl/examples/widgets/meter/lv_example_meter_4.c **** 
  11:Middlewares/lvgl/examples/widgets/meter/lv_example_meter_4.c ****     /*Remove the background and the circle from the middle*/
  12:Middlewares/lvgl/examples/widgets/meter/lv_example_meter_4.c ****     lv_obj_remove_style(meter, NULL, LV_PART_MAIN);
  63              		.loc 1 12 5 is_stmt 1 view .LVU6
  64 0012 0022     		movs	r2, #0
  65 0014 1146     		mov	r1, r2
  66 0016 FFF7FEFF 		bl	lv_obj_remove_style
  67              	.LVL4:
  13:Middlewares/lvgl/examples/widgets/meter/lv_example_meter_4.c ****     lv_obj_remove_style(meter, NULL, LV_PART_INDICATOR);
  68              		.loc 1 13 5 view .LVU7
  69 001a 4FF40032 		mov	r2, #131072
  70 001e 0021     		movs	r1, #0
  71 0020 2046     		mov	r0, r4
  72 0022 FFF7FEFF 		bl	lv_obj_remove_style
  73              	.LVL5:
  14:Middlewares/lvgl/examples/widgets/meter/lv_example_meter_4.c **** 
  15:Middlewares/lvgl/examples/widgets/meter/lv_example_meter_4.c ****     lv_obj_set_size(meter, 200, 200);
  74              		.loc 1 15 5 view .LVU8
  75 0026 C822     		movs	r2, #200
  76 0028 1146     		mov	r1, r2
  77 002a 2046     		mov	r0, r4
  78 002c FFF7FEFF 		bl	lv_obj_set_size
  79              	.LVL6:
  16:Middlewares/lvgl/examples/widgets/meter/lv_example_meter_4.c ****     lv_obj_center(meter);
  80              		.loc 1 16 5 view .LVU9
  81              	.LBB19:
  82              	.LBI19:
  83              		.file 3 "Middlewares/lvgl/examples/widgets/meter/../../../src/core/lv_obj_pos.h"
   1:Middlewares/lvgl/examples/widgets/meter/../../../src/core/lv_obj_pos.h **** /**
   2:Middlewares/lvgl/examples/widgets/meter/../../../src/core/lv_obj_pos.h ****  * @file lv_obj_pos.h
   3:Middlewares/lvgl/examples/widgets/meter/../../../src/core/lv_obj_pos.h ****  *
   4:Middlewares/lvgl/examples/widgets/meter/../../../src/core/lv_obj_pos.h ****  */
   5:Middlewares/lvgl/examples/widgets/meter/../../../src/core/lv_obj_pos.h **** 
   6:Middlewares/lvgl/examples/widgets/meter/../../../src/core/lv_obj_pos.h **** #ifndef LV_OBJ_POS_H
   7:Middlewares/lvgl/examples/widgets/meter/../../../src/core/lv_obj_pos.h **** #define LV_OBJ_POS_H
   8:Middlewares/lvgl/examples/widgets/meter/../../../src/core/lv_obj_pos.h **** 
   9:Middlewares/lvgl/examples/widgets/meter/../../../src/core/lv_obj_pos.h **** #ifdef __cplusplus
  10:Middlewares/lvgl/examples/widgets/meter/../../../src/core/lv_obj_pos.h **** extern "C" {
  11:Middlewares/lvgl/examples/widgets/meter/../../../src/core/lv_obj_pos.h **** #endif
  12:Middlewares/lvgl/examples/widgets/meter/../../../src/core/lv_obj_pos.h **** 
  13:Middlewares/lvgl/examples/widgets/meter/../../../src/core/lv_obj_pos.h **** /*********************
  14:Middlewares/lvgl/examples/widgets/meter/../../../src/core/lv_obj_pos.h ****  *      INCLUDES
  15:Middlewares/lvgl/examples/widgets/meter/../../../src/core/lv_obj_pos.h ****  *********************/
  16:Middlewares/lvgl/examples/widgets/meter/../../../src/core/lv_obj_pos.h **** #include "../misc/lv_area.h"
  17:Middlewares/lvgl/examples/widgets/meter/../../../src/core/lv_obj_pos.h **** 
  18:Middlewares/lvgl/examples/widgets/meter/../../../src/core/lv_obj_pos.h **** /*********************
  19:Middlewares/lvgl/examples/widgets/meter/../../../src/core/lv_obj_pos.h ****  *      DEFINES
  20:Middlewares/lvgl/examples/widgets/meter/../../../src/core/lv_obj_pos.h ****  *********************/
  21:Middlewares/lvgl/examples/widgets/meter/../../../src/core/lv_obj_pos.h **** 
  22:Middlewares/lvgl/examples/widgets/meter/../../../src/core/lv_obj_pos.h **** /**********************
ARM GAS  /tmp/ccJYH9fy.s 			page 6


  23:Middlewares/lvgl/examples/widgets/meter/../../../src/core/lv_obj_pos.h ****  *      TYPEDEFS
  24:Middlewares/lvgl/examples/widgets/meter/../../../src/core/lv_obj_pos.h ****  **********************/
  25:Middlewares/lvgl/examples/widgets/meter/../../../src/core/lv_obj_pos.h **** struct _lv_obj_t;
  26:Middlewares/lvgl/examples/widgets/meter/../../../src/core/lv_obj_pos.h **** 
  27:Middlewares/lvgl/examples/widgets/meter/../../../src/core/lv_obj_pos.h **** typedef void (*lv_layout_update_cb_t)(struct _lv_obj_t *, void * user_data);
  28:Middlewares/lvgl/examples/widgets/meter/../../../src/core/lv_obj_pos.h **** typedef struct {
  29:Middlewares/lvgl/examples/widgets/meter/../../../src/core/lv_obj_pos.h ****     lv_layout_update_cb_t cb;
  30:Middlewares/lvgl/examples/widgets/meter/../../../src/core/lv_obj_pos.h ****     void * user_data;
  31:Middlewares/lvgl/examples/widgets/meter/../../../src/core/lv_obj_pos.h **** }lv_layout_dsc_t;
  32:Middlewares/lvgl/examples/widgets/meter/../../../src/core/lv_obj_pos.h **** 
  33:Middlewares/lvgl/examples/widgets/meter/../../../src/core/lv_obj_pos.h **** /**********************
  34:Middlewares/lvgl/examples/widgets/meter/../../../src/core/lv_obj_pos.h ****  * GLOBAL PROTOTYPES
  35:Middlewares/lvgl/examples/widgets/meter/../../../src/core/lv_obj_pos.h ****  **********************/
  36:Middlewares/lvgl/examples/widgets/meter/../../../src/core/lv_obj_pos.h **** 
  37:Middlewares/lvgl/examples/widgets/meter/../../../src/core/lv_obj_pos.h **** /**
  38:Middlewares/lvgl/examples/widgets/meter/../../../src/core/lv_obj_pos.h ****  * Set the relative the position of an object (relative to the parent's top left corner)
  39:Middlewares/lvgl/examples/widgets/meter/../../../src/core/lv_obj_pos.h ****  * @param obj       pointer to an object
  40:Middlewares/lvgl/examples/widgets/meter/../../../src/core/lv_obj_pos.h ****  * @param x         new distance from the left side of the parent plus the parent's left padding
  41:Middlewares/lvgl/examples/widgets/meter/../../../src/core/lv_obj_pos.h ****  * @param y         new distance from the top side of the parent  plus the parent's right padding
  42:Middlewares/lvgl/examples/widgets/meter/../../../src/core/lv_obj_pos.h ****  */
  43:Middlewares/lvgl/examples/widgets/meter/../../../src/core/lv_obj_pos.h **** void lv_obj_set_pos(struct _lv_obj_t * obj, lv_coord_t x, lv_coord_t y);
  44:Middlewares/lvgl/examples/widgets/meter/../../../src/core/lv_obj_pos.h **** 
  45:Middlewares/lvgl/examples/widgets/meter/../../../src/core/lv_obj_pos.h **** /**
  46:Middlewares/lvgl/examples/widgets/meter/../../../src/core/lv_obj_pos.h ****  * Set the x coordinate of a object
  47:Middlewares/lvgl/examples/widgets/meter/../../../src/core/lv_obj_pos.h ****  * @param obj       pointer to an object
  48:Middlewares/lvgl/examples/widgets/meter/../../../src/core/lv_obj_pos.h ****  * @param x         new distance from the left side from the parent plus the parent's left padding
  49:Middlewares/lvgl/examples/widgets/meter/../../../src/core/lv_obj_pos.h ****  */
  50:Middlewares/lvgl/examples/widgets/meter/../../../src/core/lv_obj_pos.h **** void lv_obj_set_x(struct _lv_obj_t * obj, lv_coord_t x);
  51:Middlewares/lvgl/examples/widgets/meter/../../../src/core/lv_obj_pos.h **** 
  52:Middlewares/lvgl/examples/widgets/meter/../../../src/core/lv_obj_pos.h **** /**
  53:Middlewares/lvgl/examples/widgets/meter/../../../src/core/lv_obj_pos.h ****  * Set the y coordinate of a object
  54:Middlewares/lvgl/examples/widgets/meter/../../../src/core/lv_obj_pos.h ****  * @param obj       pointer to an object
  55:Middlewares/lvgl/examples/widgets/meter/../../../src/core/lv_obj_pos.h ****  * @param y         new distance from the top of the parent  plus the parent's top padding
  56:Middlewares/lvgl/examples/widgets/meter/../../../src/core/lv_obj_pos.h ****  */
  57:Middlewares/lvgl/examples/widgets/meter/../../../src/core/lv_obj_pos.h **** void lv_obj_set_y(struct _lv_obj_t * obj, lv_coord_t y);
  58:Middlewares/lvgl/examples/widgets/meter/../../../src/core/lv_obj_pos.h **** 
  59:Middlewares/lvgl/examples/widgets/meter/../../../src/core/lv_obj_pos.h **** /**
  60:Middlewares/lvgl/examples/widgets/meter/../../../src/core/lv_obj_pos.h ****  * Set the size of an object.
  61:Middlewares/lvgl/examples/widgets/meter/../../../src/core/lv_obj_pos.h ****  * @param obj       pointer to an object
  62:Middlewares/lvgl/examples/widgets/meter/../../../src/core/lv_obj_pos.h ****  * @param w         the new width
  63:Middlewares/lvgl/examples/widgets/meter/../../../src/core/lv_obj_pos.h ****  * @param h         the new height
  64:Middlewares/lvgl/examples/widgets/meter/../../../src/core/lv_obj_pos.h ****  * @note            possible values are:
  65:Middlewares/lvgl/examples/widgets/meter/../../../src/core/lv_obj_pos.h ****  *                  pixel               simple set the size accordingly
  66:Middlewares/lvgl/examples/widgets/meter/../../../src/core/lv_obj_pos.h ****  *                  LV_SIZE_CONTENT     set the size to involve all children in the given direction
  67:Middlewares/lvgl/examples/widgets/meter/../../../src/core/lv_obj_pos.h ****  *                  LV_SIZE_PCT(x)     to set size in percentage of the parent's content area size 
  68:Middlewares/lvgl/examples/widgets/meter/../../../src/core/lv_obj_pos.h ****  *                                      x should be in [0..1000]% range
  69:Middlewares/lvgl/examples/widgets/meter/../../../src/core/lv_obj_pos.h ****  */
  70:Middlewares/lvgl/examples/widgets/meter/../../../src/core/lv_obj_pos.h **** void lv_obj_set_size(struct _lv_obj_t * obj, lv_coord_t w, lv_coord_t h);
  71:Middlewares/lvgl/examples/widgets/meter/../../../src/core/lv_obj_pos.h **** 
  72:Middlewares/lvgl/examples/widgets/meter/../../../src/core/lv_obj_pos.h **** /**
  73:Middlewares/lvgl/examples/widgets/meter/../../../src/core/lv_obj_pos.h ****  * Recalculate the size of the object
  74:Middlewares/lvgl/examples/widgets/meter/../../../src/core/lv_obj_pos.h ****  * @param obj       pointer to an object
  75:Middlewares/lvgl/examples/widgets/meter/../../../src/core/lv_obj_pos.h ****  * @return          true: the size has been changed
  76:Middlewares/lvgl/examples/widgets/meter/../../../src/core/lv_obj_pos.h ****  */
  77:Middlewares/lvgl/examples/widgets/meter/../../../src/core/lv_obj_pos.h **** bool lv_obj_refr_size(struct _lv_obj_t * obj);
  78:Middlewares/lvgl/examples/widgets/meter/../../../src/core/lv_obj_pos.h **** 
  79:Middlewares/lvgl/examples/widgets/meter/../../../src/core/lv_obj_pos.h **** /**
ARM GAS  /tmp/ccJYH9fy.s 			page 7


  80:Middlewares/lvgl/examples/widgets/meter/../../../src/core/lv_obj_pos.h ****  * Set the width of an object
  81:Middlewares/lvgl/examples/widgets/meter/../../../src/core/lv_obj_pos.h ****  * @param obj       pointer to an object
  82:Middlewares/lvgl/examples/widgets/meter/../../../src/core/lv_obj_pos.h ****  * @param w         the new width
  83:Middlewares/lvgl/examples/widgets/meter/../../../src/core/lv_obj_pos.h ****  * @note            possible values are:
  84:Middlewares/lvgl/examples/widgets/meter/../../../src/core/lv_obj_pos.h ****  *                  pixel               simple set the size accordingly
  85:Middlewares/lvgl/examples/widgets/meter/../../../src/core/lv_obj_pos.h ****  *                  LV_SIZE_CONTENT     set the size to involve all children in the given direction
  86:Middlewares/lvgl/examples/widgets/meter/../../../src/core/lv_obj_pos.h ****  *                  lv_pct(x)           to set size in percentage of the parent's content area size
  87:Middlewares/lvgl/examples/widgets/meter/../../../src/core/lv_obj_pos.h ****  *                                      x should be in [0..1000]% range
  88:Middlewares/lvgl/examples/widgets/meter/../../../src/core/lv_obj_pos.h ****  */
  89:Middlewares/lvgl/examples/widgets/meter/../../../src/core/lv_obj_pos.h **** void lv_obj_set_width(struct _lv_obj_t * obj, lv_coord_t w);
  90:Middlewares/lvgl/examples/widgets/meter/../../../src/core/lv_obj_pos.h **** 
  91:Middlewares/lvgl/examples/widgets/meter/../../../src/core/lv_obj_pos.h **** /**
  92:Middlewares/lvgl/examples/widgets/meter/../../../src/core/lv_obj_pos.h ****  * Set the height of an object
  93:Middlewares/lvgl/examples/widgets/meter/../../../src/core/lv_obj_pos.h ****  * @param obj       pointer to an object
  94:Middlewares/lvgl/examples/widgets/meter/../../../src/core/lv_obj_pos.h ****  * @param h         the new height
  95:Middlewares/lvgl/examples/widgets/meter/../../../src/core/lv_obj_pos.h ****  * @note            possible values are:
  96:Middlewares/lvgl/examples/widgets/meter/../../../src/core/lv_obj_pos.h ****  *                  pixel               simple set the size accordingly
  97:Middlewares/lvgl/examples/widgets/meter/../../../src/core/lv_obj_pos.h ****  *                  LV_SIZE_CONTENT     set the size to involve all children in the given direction
  98:Middlewares/lvgl/examples/widgets/meter/../../../src/core/lv_obj_pos.h ****  *                  lv_pct(x)           to set size in percentage of the parent's content area size
  99:Middlewares/lvgl/examples/widgets/meter/../../../src/core/lv_obj_pos.h ****  *                                      x should be in [0..1000]% range
 100:Middlewares/lvgl/examples/widgets/meter/../../../src/core/lv_obj_pos.h ****  */
 101:Middlewares/lvgl/examples/widgets/meter/../../../src/core/lv_obj_pos.h **** void lv_obj_set_height(struct _lv_obj_t * obj, lv_coord_t h);
 102:Middlewares/lvgl/examples/widgets/meter/../../../src/core/lv_obj_pos.h **** 
 103:Middlewares/lvgl/examples/widgets/meter/../../../src/core/lv_obj_pos.h **** /**
 104:Middlewares/lvgl/examples/widgets/meter/../../../src/core/lv_obj_pos.h ****  * Set the width reduced by the left and right padding and the border width.
 105:Middlewares/lvgl/examples/widgets/meter/../../../src/core/lv_obj_pos.h ****  * @param obj       pointer to an object
 106:Middlewares/lvgl/examples/widgets/meter/../../../src/core/lv_obj_pos.h ****  * @param w         the width without paddings in pixels
 107:Middlewares/lvgl/examples/widgets/meter/../../../src/core/lv_obj_pos.h ****  */
 108:Middlewares/lvgl/examples/widgets/meter/../../../src/core/lv_obj_pos.h **** void lv_obj_set_content_width(struct _lv_obj_t * obj, lv_coord_t w);
 109:Middlewares/lvgl/examples/widgets/meter/../../../src/core/lv_obj_pos.h **** 
 110:Middlewares/lvgl/examples/widgets/meter/../../../src/core/lv_obj_pos.h **** /**
 111:Middlewares/lvgl/examples/widgets/meter/../../../src/core/lv_obj_pos.h ****  * Set the height reduced by the top and bottom padding and the border width.
 112:Middlewares/lvgl/examples/widgets/meter/../../../src/core/lv_obj_pos.h ****  * @param obj       pointer to an object
 113:Middlewares/lvgl/examples/widgets/meter/../../../src/core/lv_obj_pos.h ****  * @param h         the height without paddings in pixels
 114:Middlewares/lvgl/examples/widgets/meter/../../../src/core/lv_obj_pos.h ****  */
 115:Middlewares/lvgl/examples/widgets/meter/../../../src/core/lv_obj_pos.h **** void lv_obj_set_content_height(struct _lv_obj_t * obj, lv_coord_t h);
 116:Middlewares/lvgl/examples/widgets/meter/../../../src/core/lv_obj_pos.h **** 
 117:Middlewares/lvgl/examples/widgets/meter/../../../src/core/lv_obj_pos.h **** /**
 118:Middlewares/lvgl/examples/widgets/meter/../../../src/core/lv_obj_pos.h ****  * Set a layout for an object
 119:Middlewares/lvgl/examples/widgets/meter/../../../src/core/lv_obj_pos.h ****  * @param obj       pointer to an object
 120:Middlewares/lvgl/examples/widgets/meter/../../../src/core/lv_obj_pos.h ****  * @param layout    pointer to a layout descriptor to set
 121:Middlewares/lvgl/examples/widgets/meter/../../../src/core/lv_obj_pos.h ****  */
 122:Middlewares/lvgl/examples/widgets/meter/../../../src/core/lv_obj_pos.h **** void lv_obj_set_layout(struct _lv_obj_t * obj, uint32_t layout);
 123:Middlewares/lvgl/examples/widgets/meter/../../../src/core/lv_obj_pos.h **** 
 124:Middlewares/lvgl/examples/widgets/meter/../../../src/core/lv_obj_pos.h **** /**
 125:Middlewares/lvgl/examples/widgets/meter/../../../src/core/lv_obj_pos.h ****  * Test whether the and object is positioned by a layout or not
 126:Middlewares/lvgl/examples/widgets/meter/../../../src/core/lv_obj_pos.h ****  * @param obj       pointer to an object to test
 127:Middlewares/lvgl/examples/widgets/meter/../../../src/core/lv_obj_pos.h ****  * @return true:    positioned by a layout; false: not positioned by a layout
 128:Middlewares/lvgl/examples/widgets/meter/../../../src/core/lv_obj_pos.h ****  */
 129:Middlewares/lvgl/examples/widgets/meter/../../../src/core/lv_obj_pos.h **** bool lv_obj_is_layout_positioned(const struct _lv_obj_t * obj);
 130:Middlewares/lvgl/examples/widgets/meter/../../../src/core/lv_obj_pos.h **** 
 131:Middlewares/lvgl/examples/widgets/meter/../../../src/core/lv_obj_pos.h **** /**
 132:Middlewares/lvgl/examples/widgets/meter/../../../src/core/lv_obj_pos.h ****  * Mark the object for layout update.
 133:Middlewares/lvgl/examples/widgets/meter/../../../src/core/lv_obj_pos.h ****  * @param obj      pointer to an object whose children needs to be updated
 134:Middlewares/lvgl/examples/widgets/meter/../../../src/core/lv_obj_pos.h ****  */
 135:Middlewares/lvgl/examples/widgets/meter/../../../src/core/lv_obj_pos.h **** void lv_obj_mark_layout_as_dirty(struct _lv_obj_t * obj);
 136:Middlewares/lvgl/examples/widgets/meter/../../../src/core/lv_obj_pos.h **** 
ARM GAS  /tmp/ccJYH9fy.s 			page 8


 137:Middlewares/lvgl/examples/widgets/meter/../../../src/core/lv_obj_pos.h **** /**
 138:Middlewares/lvgl/examples/widgets/meter/../../../src/core/lv_obj_pos.h ****  * Update the layout of an object.
 139:Middlewares/lvgl/examples/widgets/meter/../../../src/core/lv_obj_pos.h ****  * @param obj      pointer to an object whose children needs to be updated
 140:Middlewares/lvgl/examples/widgets/meter/../../../src/core/lv_obj_pos.h ****  */
 141:Middlewares/lvgl/examples/widgets/meter/../../../src/core/lv_obj_pos.h **** void lv_obj_update_layout(const struct _lv_obj_t * obj);
 142:Middlewares/lvgl/examples/widgets/meter/../../../src/core/lv_obj_pos.h **** 
 143:Middlewares/lvgl/examples/widgets/meter/../../../src/core/lv_obj_pos.h **** /**
 144:Middlewares/lvgl/examples/widgets/meter/../../../src/core/lv_obj_pos.h ****  * Regsiter a new layout
 145:Middlewares/lvgl/examples/widgets/meter/../../../src/core/lv_obj_pos.h ****  * @param cb        the layout update callback
 146:Middlewares/lvgl/examples/widgets/meter/../../../src/core/lv_obj_pos.h ****  * @param user_data custom data that will be passed to `cb`
 147:Middlewares/lvgl/examples/widgets/meter/../../../src/core/lv_obj_pos.h ****  * @return          the ID of the new layout
 148:Middlewares/lvgl/examples/widgets/meter/../../../src/core/lv_obj_pos.h ****  */
 149:Middlewares/lvgl/examples/widgets/meter/../../../src/core/lv_obj_pos.h **** uint32_t lv_layout_register(lv_layout_update_cb_t cb, void * user_data);
 150:Middlewares/lvgl/examples/widgets/meter/../../../src/core/lv_obj_pos.h **** 
 151:Middlewares/lvgl/examples/widgets/meter/../../../src/core/lv_obj_pos.h **** /**
 152:Middlewares/lvgl/examples/widgets/meter/../../../src/core/lv_obj_pos.h ****  * Change the alignment of an object.
 153:Middlewares/lvgl/examples/widgets/meter/../../../src/core/lv_obj_pos.h ****  * @param obj       pointer to an object to align
 154:Middlewares/lvgl/examples/widgets/meter/../../../src/core/lv_obj_pos.h ****  * @param align     type of alignment (see 'lv_align_t' enum) `LV_ALIGN_OUT_...` can't be used.
 155:Middlewares/lvgl/examples/widgets/meter/../../../src/core/lv_obj_pos.h ****  */
 156:Middlewares/lvgl/examples/widgets/meter/../../../src/core/lv_obj_pos.h **** void lv_obj_set_align(struct _lv_obj_t * obj, lv_align_t align);
 157:Middlewares/lvgl/examples/widgets/meter/../../../src/core/lv_obj_pos.h **** 
 158:Middlewares/lvgl/examples/widgets/meter/../../../src/core/lv_obj_pos.h **** /**
 159:Middlewares/lvgl/examples/widgets/meter/../../../src/core/lv_obj_pos.h ****  * Change the alignment of an object and set new coordinates.
 160:Middlewares/lvgl/examples/widgets/meter/../../../src/core/lv_obj_pos.h ****  * Equivalent to:
 161:Middlewares/lvgl/examples/widgets/meter/../../../src/core/lv_obj_pos.h ****  * lv_obj_set_align(obj, align);
 162:Middlewares/lvgl/examples/widgets/meter/../../../src/core/lv_obj_pos.h ****  * lv_obj_set_pos(obj, x_ofs, y_ofs);
 163:Middlewares/lvgl/examples/widgets/meter/../../../src/core/lv_obj_pos.h ****  * @param obj       pointer to an object to align
 164:Middlewares/lvgl/examples/widgets/meter/../../../src/core/lv_obj_pos.h ****  * @param align     type of alignment (see 'lv_align_t' enum) `LV_ALIGN_OUT_...` can't be used.
 165:Middlewares/lvgl/examples/widgets/meter/../../../src/core/lv_obj_pos.h ****  * @param x_ofs     x coordinate offset after alignment
 166:Middlewares/lvgl/examples/widgets/meter/../../../src/core/lv_obj_pos.h ****  * @param y_ofs     y coordinate offset after alignment
 167:Middlewares/lvgl/examples/widgets/meter/../../../src/core/lv_obj_pos.h ****  */
 168:Middlewares/lvgl/examples/widgets/meter/../../../src/core/lv_obj_pos.h **** void lv_obj_align(struct _lv_obj_t * obj, lv_align_t align, lv_coord_t x_ofs, lv_coord_t y_ofs);
 169:Middlewares/lvgl/examples/widgets/meter/../../../src/core/lv_obj_pos.h **** 
 170:Middlewares/lvgl/examples/widgets/meter/../../../src/core/lv_obj_pos.h **** /**
 171:Middlewares/lvgl/examples/widgets/meter/../../../src/core/lv_obj_pos.h ****  * Align an object to an other object.
 172:Middlewares/lvgl/examples/widgets/meter/../../../src/core/lv_obj_pos.h ****  * @param obj       pointer to an object to align
 173:Middlewares/lvgl/examples/widgets/meter/../../../src/core/lv_obj_pos.h ****  * @param base      pointer to an other object (if NULL `obj`s parent is used). 'obj' will be align
 174:Middlewares/lvgl/examples/widgets/meter/../../../src/core/lv_obj_pos.h ****  * @param align     type of alignment (see 'lv_align_t' enum)
 175:Middlewares/lvgl/examples/widgets/meter/../../../src/core/lv_obj_pos.h ****  * @param x_ofs     x coordinate offset after alignment
 176:Middlewares/lvgl/examples/widgets/meter/../../../src/core/lv_obj_pos.h ****  * @param y_ofs     y coordinate offset after alignment
 177:Middlewares/lvgl/examples/widgets/meter/../../../src/core/lv_obj_pos.h ****  * @note            if the position or size of `base` changes `obj` needs to be aligned manually ag
 178:Middlewares/lvgl/examples/widgets/meter/../../../src/core/lv_obj_pos.h ****  */
 179:Middlewares/lvgl/examples/widgets/meter/../../../src/core/lv_obj_pos.h **** void lv_obj_align_to(struct _lv_obj_t * obj, const struct _lv_obj_t * base, lv_align_t align, lv_co
 180:Middlewares/lvgl/examples/widgets/meter/../../../src/core/lv_obj_pos.h **** 
 181:Middlewares/lvgl/examples/widgets/meter/../../../src/core/lv_obj_pos.h **** /**
 182:Middlewares/lvgl/examples/widgets/meter/../../../src/core/lv_obj_pos.h ****  * Align an object to the center on its parent.
 183:Middlewares/lvgl/examples/widgets/meter/../../../src/core/lv_obj_pos.h ****  * @param obj       pointer to an object to align
 184:Middlewares/lvgl/examples/widgets/meter/../../../src/core/lv_obj_pos.h ****  * @note            if the parent size changes `obj` needs to be aligned manually again
 185:Middlewares/lvgl/examples/widgets/meter/../../../src/core/lv_obj_pos.h ****  */
 186:Middlewares/lvgl/examples/widgets/meter/../../../src/core/lv_obj_pos.h **** static inline void lv_obj_center(struct _lv_obj_t * obj)
  84              		.loc 3 186 20 view .LVU10
  85              	.LBB20:
 187:Middlewares/lvgl/examples/widgets/meter/../../../src/core/lv_obj_pos.h **** {
 188:Middlewares/lvgl/examples/widgets/meter/../../../src/core/lv_obj_pos.h ****     lv_obj_align(obj, LV_ALIGN_CENTER, 0, 0);
  86              		.loc 3 188 5 view .LVU11
  87 0030 0023     		movs	r3, #0
  88 0032 1A46     		mov	r2, r3
ARM GAS  /tmp/ccJYH9fy.s 			page 9


  89 0034 0921     		movs	r1, #9
  90 0036 2046     		mov	r0, r4
  91 0038 FFF7FEFF 		bl	lv_obj_align
  92              	.LVL7:
  93              		.loc 3 188 5 is_stmt 0 view .LVU12
  94              	.LBE20:
  95              	.LBE19:
  17:Middlewares/lvgl/examples/widgets/meter/lv_example_meter_4.c **** 
  18:Middlewares/lvgl/examples/widgets/meter/lv_example_meter_4.c ****     /*Add a scale first with no ticks.*/
  19:Middlewares/lvgl/examples/widgets/meter/lv_example_meter_4.c ****     lv_meter_scale_t * scale = lv_meter_add_scale(meter);
  96              		.loc 1 19 5 is_stmt 1 view .LVU13
  97              		.loc 1 19 32 is_stmt 0 view .LVU14
  98 003c 2046     		mov	r0, r4
  99 003e FFF7FEFF 		bl	lv_meter_add_scale
 100              	.LVL8:
 101 0042 0646     		mov	r6, r0
 102              	.LVL9:
  20:Middlewares/lvgl/examples/widgets/meter/lv_example_meter_4.c ****     lv_meter_set_scale_ticks(meter, scale, 0, 0, 0, lv_color_black());
 103              		.loc 1 20 5 is_stmt 1 view .LVU15
 104              	.LBB21:
 105              	.LBI21:
 106              		.file 4 "Middlewares/lvgl/examples/widgets/meter/../../../src/hal/../misc/lv_color.h"
   1:Middlewares/lvgl/examples/widgets/meter/../../../src/hal/../misc/lv_color.h **** /**
   2:Middlewares/lvgl/examples/widgets/meter/../../../src/hal/../misc/lv_color.h ****  * @file lv_color.h
   3:Middlewares/lvgl/examples/widgets/meter/../../../src/hal/../misc/lv_color.h ****  *
   4:Middlewares/lvgl/examples/widgets/meter/../../../src/hal/../misc/lv_color.h ****  */
   5:Middlewares/lvgl/examples/widgets/meter/../../../src/hal/../misc/lv_color.h **** 
   6:Middlewares/lvgl/examples/widgets/meter/../../../src/hal/../misc/lv_color.h **** #ifndef LV_COLOR_H
   7:Middlewares/lvgl/examples/widgets/meter/../../../src/hal/../misc/lv_color.h **** #define LV_COLOR_H
   8:Middlewares/lvgl/examples/widgets/meter/../../../src/hal/../misc/lv_color.h **** 
   9:Middlewares/lvgl/examples/widgets/meter/../../../src/hal/../misc/lv_color.h **** #ifdef __cplusplus
  10:Middlewares/lvgl/examples/widgets/meter/../../../src/hal/../misc/lv_color.h **** extern "C" {
  11:Middlewares/lvgl/examples/widgets/meter/../../../src/hal/../misc/lv_color.h **** #endif
  12:Middlewares/lvgl/examples/widgets/meter/../../../src/hal/../misc/lv_color.h **** 
  13:Middlewares/lvgl/examples/widgets/meter/../../../src/hal/../misc/lv_color.h **** /*********************
  14:Middlewares/lvgl/examples/widgets/meter/../../../src/hal/../misc/lv_color.h ****  *      INCLUDES
  15:Middlewares/lvgl/examples/widgets/meter/../../../src/hal/../misc/lv_color.h ****  *********************/
  16:Middlewares/lvgl/examples/widgets/meter/../../../src/hal/../misc/lv_color.h **** #include "../lv_conf_internal.h"
  17:Middlewares/lvgl/examples/widgets/meter/../../../src/hal/../misc/lv_color.h **** #include "lv_math.h"
  18:Middlewares/lvgl/examples/widgets/meter/../../../src/hal/../misc/lv_color.h **** #include "lv_types.h"
  19:Middlewares/lvgl/examples/widgets/meter/../../../src/hal/../misc/lv_color.h **** 
  20:Middlewares/lvgl/examples/widgets/meter/../../../src/hal/../misc/lv_color.h **** /*Error checking*/
  21:Middlewares/lvgl/examples/widgets/meter/../../../src/hal/../misc/lv_color.h **** #if LV_COLOR_DEPTH == 24
  22:Middlewares/lvgl/examples/widgets/meter/../../../src/hal/../misc/lv_color.h **** #error "LV_COLOR_DEPTH 24 is deprecated. Use LV_COLOR_DEPTH 32 instead (lv_conf.h)"
  23:Middlewares/lvgl/examples/widgets/meter/../../../src/hal/../misc/lv_color.h **** #endif
  24:Middlewares/lvgl/examples/widgets/meter/../../../src/hal/../misc/lv_color.h **** 
  25:Middlewares/lvgl/examples/widgets/meter/../../../src/hal/../misc/lv_color.h **** #if LV_COLOR_DEPTH != 32 && LV_COLOR_SCREEN_TRANSP != 0
  26:Middlewares/lvgl/examples/widgets/meter/../../../src/hal/../misc/lv_color.h **** #error "LV_COLOR_SCREEN_TRANSP requires LV_COLOR_DEPTH == 32. Set it in lv_conf.h"
  27:Middlewares/lvgl/examples/widgets/meter/../../../src/hal/../misc/lv_color.h **** #endif
  28:Middlewares/lvgl/examples/widgets/meter/../../../src/hal/../misc/lv_color.h **** 
  29:Middlewares/lvgl/examples/widgets/meter/../../../src/hal/../misc/lv_color.h **** #if LV_COLOR_DEPTH != 16 && LV_COLOR_16_SWAP != 0
  30:Middlewares/lvgl/examples/widgets/meter/../../../src/hal/../misc/lv_color.h **** #error "LV_COLOR_16_SWAP requires LV_COLOR_DEPTH == 16. Set it in lv_conf.h"
  31:Middlewares/lvgl/examples/widgets/meter/../../../src/hal/../misc/lv_color.h **** #endif
  32:Middlewares/lvgl/examples/widgets/meter/../../../src/hal/../misc/lv_color.h **** 
  33:Middlewares/lvgl/examples/widgets/meter/../../../src/hal/../misc/lv_color.h **** #include <stdint.h>
  34:Middlewares/lvgl/examples/widgets/meter/../../../src/hal/../misc/lv_color.h **** 
  35:Middlewares/lvgl/examples/widgets/meter/../../../src/hal/../misc/lv_color.h **** /*********************
ARM GAS  /tmp/ccJYH9fy.s 			page 10


  36:Middlewares/lvgl/examples/widgets/meter/../../../src/hal/../misc/lv_color.h ****  *      DEFINES
  37:Middlewares/lvgl/examples/widgets/meter/../../../src/hal/../misc/lv_color.h ****  *********************/
  38:Middlewares/lvgl/examples/widgets/meter/../../../src/hal/../misc/lv_color.h **** 
  39:Middlewares/lvgl/examples/widgets/meter/../../../src/hal/../misc/lv_color.h **** /**
  40:Middlewares/lvgl/examples/widgets/meter/../../../src/hal/../misc/lv_color.h ****  * Opacity percentages.
  41:Middlewares/lvgl/examples/widgets/meter/../../../src/hal/../misc/lv_color.h ****  */
  42:Middlewares/lvgl/examples/widgets/meter/../../../src/hal/../misc/lv_color.h **** enum {
  43:Middlewares/lvgl/examples/widgets/meter/../../../src/hal/../misc/lv_color.h ****     LV_OPA_TRANSP = 0,
  44:Middlewares/lvgl/examples/widgets/meter/../../../src/hal/../misc/lv_color.h ****     LV_OPA_0      = 0,
  45:Middlewares/lvgl/examples/widgets/meter/../../../src/hal/../misc/lv_color.h ****     LV_OPA_10     = 25,
  46:Middlewares/lvgl/examples/widgets/meter/../../../src/hal/../misc/lv_color.h ****     LV_OPA_20     = 51,
  47:Middlewares/lvgl/examples/widgets/meter/../../../src/hal/../misc/lv_color.h ****     LV_OPA_30     = 76,
  48:Middlewares/lvgl/examples/widgets/meter/../../../src/hal/../misc/lv_color.h ****     LV_OPA_40     = 102,
  49:Middlewares/lvgl/examples/widgets/meter/../../../src/hal/../misc/lv_color.h ****     LV_OPA_50     = 127,
  50:Middlewares/lvgl/examples/widgets/meter/../../../src/hal/../misc/lv_color.h ****     LV_OPA_60     = 153,
  51:Middlewares/lvgl/examples/widgets/meter/../../../src/hal/../misc/lv_color.h ****     LV_OPA_70     = 178,
  52:Middlewares/lvgl/examples/widgets/meter/../../../src/hal/../misc/lv_color.h ****     LV_OPA_80     = 204,
  53:Middlewares/lvgl/examples/widgets/meter/../../../src/hal/../misc/lv_color.h ****     LV_OPA_90     = 229,
  54:Middlewares/lvgl/examples/widgets/meter/../../../src/hal/../misc/lv_color.h ****     LV_OPA_100    = 255,
  55:Middlewares/lvgl/examples/widgets/meter/../../../src/hal/../misc/lv_color.h ****     LV_OPA_COVER  = 255,
  56:Middlewares/lvgl/examples/widgets/meter/../../../src/hal/../misc/lv_color.h **** };
  57:Middlewares/lvgl/examples/widgets/meter/../../../src/hal/../misc/lv_color.h **** 
  58:Middlewares/lvgl/examples/widgets/meter/../../../src/hal/../misc/lv_color.h **** #define LV_OPA_MIN 2    /*Opacities below this will be transparent*/
  59:Middlewares/lvgl/examples/widgets/meter/../../../src/hal/../misc/lv_color.h **** #define LV_OPA_MAX 253  /*Opacities above this will fully cover*/
  60:Middlewares/lvgl/examples/widgets/meter/../../../src/hal/../misc/lv_color.h **** 
  61:Middlewares/lvgl/examples/widgets/meter/../../../src/hal/../misc/lv_color.h **** #if LV_COLOR_DEPTH == 1
  62:Middlewares/lvgl/examples/widgets/meter/../../../src/hal/../misc/lv_color.h **** #define LV_COLOR_SIZE 8
  63:Middlewares/lvgl/examples/widgets/meter/../../../src/hal/../misc/lv_color.h **** #elif LV_COLOR_DEPTH == 8
  64:Middlewares/lvgl/examples/widgets/meter/../../../src/hal/../misc/lv_color.h **** #define LV_COLOR_SIZE 8
  65:Middlewares/lvgl/examples/widgets/meter/../../../src/hal/../misc/lv_color.h **** #elif LV_COLOR_DEPTH == 16
  66:Middlewares/lvgl/examples/widgets/meter/../../../src/hal/../misc/lv_color.h **** #define LV_COLOR_SIZE 16
  67:Middlewares/lvgl/examples/widgets/meter/../../../src/hal/../misc/lv_color.h **** #elif LV_COLOR_DEPTH == 32
  68:Middlewares/lvgl/examples/widgets/meter/../../../src/hal/../misc/lv_color.h **** #define LV_COLOR_SIZE 32
  69:Middlewares/lvgl/examples/widgets/meter/../../../src/hal/../misc/lv_color.h **** #else
  70:Middlewares/lvgl/examples/widgets/meter/../../../src/hal/../misc/lv_color.h **** #error "Invalid LV_COLOR_DEPTH in lv_conf.h! Set it to 1, 8, 16 or 32!"
  71:Middlewares/lvgl/examples/widgets/meter/../../../src/hal/../misc/lv_color.h **** #endif
  72:Middlewares/lvgl/examples/widgets/meter/../../../src/hal/../misc/lv_color.h **** 
  73:Middlewares/lvgl/examples/widgets/meter/../../../src/hal/../misc/lv_color.h **** /**
  74:Middlewares/lvgl/examples/widgets/meter/../../../src/hal/../misc/lv_color.h ****  * Adjust color mix functions rounding.
  75:Middlewares/lvgl/examples/widgets/meter/../../../src/hal/../misc/lv_color.h ****  * GPUs might calculate color mix (blending) differently.
  76:Middlewares/lvgl/examples/widgets/meter/../../../src/hal/../misc/lv_color.h ****  * Should be in range of 0..254
  77:Middlewares/lvgl/examples/widgets/meter/../../../src/hal/../misc/lv_color.h ****  * 0: no adjustment, get the integer part of the result (round down)
  78:Middlewares/lvgl/examples/widgets/meter/../../../src/hal/../misc/lv_color.h ****  * 64: round up from x.75
  79:Middlewares/lvgl/examples/widgets/meter/../../../src/hal/../misc/lv_color.h ****  * 128: round up from half
  80:Middlewares/lvgl/examples/widgets/meter/../../../src/hal/../misc/lv_color.h ****  * 192: round up from x.25
  81:Middlewares/lvgl/examples/widgets/meter/../../../src/hal/../misc/lv_color.h ****  * 254: round up*/
  82:Middlewares/lvgl/examples/widgets/meter/../../../src/hal/../misc/lv_color.h **** #ifndef LV_COLOR_MIX_ROUND_OFS
  83:Middlewares/lvgl/examples/widgets/meter/../../../src/hal/../misc/lv_color.h **** #if LV_COLOR_DEPTH == 32
  84:Middlewares/lvgl/examples/widgets/meter/../../../src/hal/../misc/lv_color.h **** #define LV_COLOR_MIX_ROUND_OFS 0
  85:Middlewares/lvgl/examples/widgets/meter/../../../src/hal/../misc/lv_color.h **** #else
  86:Middlewares/lvgl/examples/widgets/meter/../../../src/hal/../misc/lv_color.h **** #define LV_COLOR_MIX_ROUND_OFS 128
  87:Middlewares/lvgl/examples/widgets/meter/../../../src/hal/../misc/lv_color.h **** #endif
  88:Middlewares/lvgl/examples/widgets/meter/../../../src/hal/../misc/lv_color.h **** #endif
  89:Middlewares/lvgl/examples/widgets/meter/../../../src/hal/../misc/lv_color.h **** 
  90:Middlewares/lvgl/examples/widgets/meter/../../../src/hal/../misc/lv_color.h **** #if defined(__cplusplus) && !defined(_LV_COLOR_HAS_MODERN_CPP)
  91:Middlewares/lvgl/examples/widgets/meter/../../../src/hal/../misc/lv_color.h **** /**
  92:Middlewares/lvgl/examples/widgets/meter/../../../src/hal/../misc/lv_color.h **** * MSVC compiler's definition of the __cplusplus indicating 199711L regardless to C++ standard versi
ARM GAS  /tmp/ccJYH9fy.s 			page 11


  93:Middlewares/lvgl/examples/widgets/meter/../../../src/hal/../misc/lv_color.h **** * see https://devblogs.microsoft.com/cppblog/msvc-now-correctly-reports-cplusplus
  94:Middlewares/lvgl/examples/widgets/meter/../../../src/hal/../misc/lv_color.h **** * so we use _MSC_VER macro instead of __cplusplus
  95:Middlewares/lvgl/examples/widgets/meter/../../../src/hal/../misc/lv_color.h **** */
  96:Middlewares/lvgl/examples/widgets/meter/../../../src/hal/../misc/lv_color.h **** #ifdef _MSC_VER
  97:Middlewares/lvgl/examples/widgets/meter/../../../src/hal/../misc/lv_color.h **** #if _MSC_VER >= 1900 /*Visual Studio 2015*/
  98:Middlewares/lvgl/examples/widgets/meter/../../../src/hal/../misc/lv_color.h **** #define _LV_COLOR_HAS_MODERN_CPP 1
  99:Middlewares/lvgl/examples/widgets/meter/../../../src/hal/../misc/lv_color.h **** #endif
 100:Middlewares/lvgl/examples/widgets/meter/../../../src/hal/../misc/lv_color.h **** #else
 101:Middlewares/lvgl/examples/widgets/meter/../../../src/hal/../misc/lv_color.h **** #if __cplusplus >= 201103L
 102:Middlewares/lvgl/examples/widgets/meter/../../../src/hal/../misc/lv_color.h **** #define _LV_COLOR_HAS_MODERN_CPP 1
 103:Middlewares/lvgl/examples/widgets/meter/../../../src/hal/../misc/lv_color.h **** #endif
 104:Middlewares/lvgl/examples/widgets/meter/../../../src/hal/../misc/lv_color.h **** #endif
 105:Middlewares/lvgl/examples/widgets/meter/../../../src/hal/../misc/lv_color.h **** #endif /*__cplusplus*/
 106:Middlewares/lvgl/examples/widgets/meter/../../../src/hal/../misc/lv_color.h **** 
 107:Middlewares/lvgl/examples/widgets/meter/../../../src/hal/../misc/lv_color.h **** #ifndef _LV_COLOR_HAS_MODERN_CPP
 108:Middlewares/lvgl/examples/widgets/meter/../../../src/hal/../misc/lv_color.h **** #define _LV_COLOR_HAS_MODERN_CPP 0
 109:Middlewares/lvgl/examples/widgets/meter/../../../src/hal/../misc/lv_color.h **** #endif
 110:Middlewares/lvgl/examples/widgets/meter/../../../src/hal/../misc/lv_color.h **** 
 111:Middlewares/lvgl/examples/widgets/meter/../../../src/hal/../misc/lv_color.h **** #if _LV_COLOR_HAS_MODERN_CPP
 112:Middlewares/lvgl/examples/widgets/meter/../../../src/hal/../misc/lv_color.h **** /*Fix msvc compiler error C4576 inside C++ code*/
 113:Middlewares/lvgl/examples/widgets/meter/../../../src/hal/../misc/lv_color.h **** #define _LV_COLOR_MAKE_TYPE_HELPER lv_color_t
 114:Middlewares/lvgl/examples/widgets/meter/../../../src/hal/../misc/lv_color.h **** #else
 115:Middlewares/lvgl/examples/widgets/meter/../../../src/hal/../misc/lv_color.h **** #define _LV_COLOR_MAKE_TYPE_HELPER (lv_color_t)
 116:Middlewares/lvgl/examples/widgets/meter/../../../src/hal/../misc/lv_color.h **** #endif
 117:Middlewares/lvgl/examples/widgets/meter/../../../src/hal/../misc/lv_color.h **** 
 118:Middlewares/lvgl/examples/widgets/meter/../../../src/hal/../misc/lv_color.h **** /*---------------------------------------
 119:Middlewares/lvgl/examples/widgets/meter/../../../src/hal/../misc/lv_color.h ****  * Macros for all existing color depths
 120:Middlewares/lvgl/examples/widgets/meter/../../../src/hal/../misc/lv_color.h ****  * to set/get values of the color channels
 121:Middlewares/lvgl/examples/widgets/meter/../../../src/hal/../misc/lv_color.h ****  *------------------------------------------*/
 122:Middlewares/lvgl/examples/widgets/meter/../../../src/hal/../misc/lv_color.h **** # define LV_COLOR_SET_R1(c, v) (c).ch.red = (uint8_t)((v) & 0x1)
 123:Middlewares/lvgl/examples/widgets/meter/../../../src/hal/../misc/lv_color.h **** # define LV_COLOR_SET_G1(c, v) (c).ch.green = (uint8_t)((v) & 0x1)
 124:Middlewares/lvgl/examples/widgets/meter/../../../src/hal/../misc/lv_color.h **** # define LV_COLOR_SET_B1(c, v) (c).ch.blue = (uint8_t)((v) & 0x1)
 125:Middlewares/lvgl/examples/widgets/meter/../../../src/hal/../misc/lv_color.h **** # define LV_COLOR_SET_A1(c, v) do {} while(0)
 126:Middlewares/lvgl/examples/widgets/meter/../../../src/hal/../misc/lv_color.h **** 
 127:Middlewares/lvgl/examples/widgets/meter/../../../src/hal/../misc/lv_color.h **** # define LV_COLOR_GET_R1(c) (c).ch.red
 128:Middlewares/lvgl/examples/widgets/meter/../../../src/hal/../misc/lv_color.h **** # define LV_COLOR_GET_G1(c) (c).ch.green
 129:Middlewares/lvgl/examples/widgets/meter/../../../src/hal/../misc/lv_color.h **** # define LV_COLOR_GET_B1(c) (c).ch.blue
 130:Middlewares/lvgl/examples/widgets/meter/../../../src/hal/../misc/lv_color.h **** # define LV_COLOR_GET_A1(c) 0xFF
 131:Middlewares/lvgl/examples/widgets/meter/../../../src/hal/../misc/lv_color.h **** 
 132:Middlewares/lvgl/examples/widgets/meter/../../../src/hal/../misc/lv_color.h **** # define _LV_COLOR_ZERO_INITIALIZER1 {0x00}
 133:Middlewares/lvgl/examples/widgets/meter/../../../src/hal/../misc/lv_color.h **** # define LV_COLOR_MAKE1(r8, g8, b8)  {(uint8_t)((b8 >> 7) | (g8 >> 7) | (r8 >> 7))}
 134:Middlewares/lvgl/examples/widgets/meter/../../../src/hal/../misc/lv_color.h **** 
 135:Middlewares/lvgl/examples/widgets/meter/../../../src/hal/../misc/lv_color.h **** # define LV_COLOR_SET_R8(c, v) (c).ch.red = (uint8_t)((v) & 0x7U)
 136:Middlewares/lvgl/examples/widgets/meter/../../../src/hal/../misc/lv_color.h **** # define LV_COLOR_SET_G8(c, v) (c).ch.green = (uint8_t)((v) & 0x7U)
 137:Middlewares/lvgl/examples/widgets/meter/../../../src/hal/../misc/lv_color.h **** # define LV_COLOR_SET_B8(c, v) (c).ch.blue = (uint8_t)((v) & 0x3U)
 138:Middlewares/lvgl/examples/widgets/meter/../../../src/hal/../misc/lv_color.h **** # define LV_COLOR_SET_A8(c, v) do {} while(0)
 139:Middlewares/lvgl/examples/widgets/meter/../../../src/hal/../misc/lv_color.h **** 
 140:Middlewares/lvgl/examples/widgets/meter/../../../src/hal/../misc/lv_color.h **** # define LV_COLOR_GET_R8(c) (c).ch.red
 141:Middlewares/lvgl/examples/widgets/meter/../../../src/hal/../misc/lv_color.h **** # define LV_COLOR_GET_G8(c) (c).ch.green
 142:Middlewares/lvgl/examples/widgets/meter/../../../src/hal/../misc/lv_color.h **** # define LV_COLOR_GET_B8(c) (c).ch.blue
 143:Middlewares/lvgl/examples/widgets/meter/../../../src/hal/../misc/lv_color.h **** # define LV_COLOR_GET_A8(c) 0xFF
 144:Middlewares/lvgl/examples/widgets/meter/../../../src/hal/../misc/lv_color.h **** 
 145:Middlewares/lvgl/examples/widgets/meter/../../../src/hal/../misc/lv_color.h **** # define _LV_COLOR_ZERO_INITIALIZER8 _LV_COLOR_MAKE_TYPE_HELPER {{0x00, 0x00, 0x00}}
 146:Middlewares/lvgl/examples/widgets/meter/../../../src/hal/../misc/lv_color.h **** # define LV_COLOR_MAKE8(r8, g8, b8) _LV_COLOR_MAKE_TYPE_HELPER  {{(uint8_t)((b8 >> 6) & 0x3U), (uin
 147:Middlewares/lvgl/examples/widgets/meter/../../../src/hal/../misc/lv_color.h **** 
 148:Middlewares/lvgl/examples/widgets/meter/../../../src/hal/../misc/lv_color.h **** # define LV_COLOR_SET_R16(c, v) (c).ch.red = (uint8_t)((v) & 0x1FU)
 149:Middlewares/lvgl/examples/widgets/meter/../../../src/hal/../misc/lv_color.h **** #if LV_COLOR_16_SWAP == 0
ARM GAS  /tmp/ccJYH9fy.s 			page 12


 150:Middlewares/lvgl/examples/widgets/meter/../../../src/hal/../misc/lv_color.h **** # define LV_COLOR_SET_G16(c, v) (c).ch.green = (uint8_t)((v) & 0x3FU)
 151:Middlewares/lvgl/examples/widgets/meter/../../../src/hal/../misc/lv_color.h **** #else
 152:Middlewares/lvgl/examples/widgets/meter/../../../src/hal/../misc/lv_color.h **** # define LV_COLOR_SET_G16(c, v) {(c).ch.green_h = (uint8_t)(((v) >> 3) & 0x7); (c).ch.green_l = (ui
 153:Middlewares/lvgl/examples/widgets/meter/../../../src/hal/../misc/lv_color.h **** #endif
 154:Middlewares/lvgl/examples/widgets/meter/../../../src/hal/../misc/lv_color.h **** # define LV_COLOR_SET_B16(c, v) (c).ch.blue = (uint8_t)((v) & 0x1FU)
 155:Middlewares/lvgl/examples/widgets/meter/../../../src/hal/../misc/lv_color.h **** # define LV_COLOR_SET_A16(c, v) do {} while(0)
 156:Middlewares/lvgl/examples/widgets/meter/../../../src/hal/../misc/lv_color.h **** 
 157:Middlewares/lvgl/examples/widgets/meter/../../../src/hal/../misc/lv_color.h **** # define LV_COLOR_GET_R16(c) (c).ch.red
 158:Middlewares/lvgl/examples/widgets/meter/../../../src/hal/../misc/lv_color.h **** #if LV_COLOR_16_SWAP == 0
 159:Middlewares/lvgl/examples/widgets/meter/../../../src/hal/../misc/lv_color.h **** # define LV_COLOR_GET_G16(c) (c).ch.green
 160:Middlewares/lvgl/examples/widgets/meter/../../../src/hal/../misc/lv_color.h **** #else
 161:Middlewares/lvgl/examples/widgets/meter/../../../src/hal/../misc/lv_color.h **** # define LV_COLOR_GET_G16(c) (((c).ch.green_h << 3) + (c).ch.green_l)
 162:Middlewares/lvgl/examples/widgets/meter/../../../src/hal/../misc/lv_color.h **** #endif
 163:Middlewares/lvgl/examples/widgets/meter/../../../src/hal/../misc/lv_color.h **** # define LV_COLOR_GET_B16(c) (c).ch.blue
 164:Middlewares/lvgl/examples/widgets/meter/../../../src/hal/../misc/lv_color.h **** # define LV_COLOR_GET_A16(c) 0xFF
 165:Middlewares/lvgl/examples/widgets/meter/../../../src/hal/../misc/lv_color.h **** 
 166:Middlewares/lvgl/examples/widgets/meter/../../../src/hal/../misc/lv_color.h **** #if LV_COLOR_16_SWAP == 0
 167:Middlewares/lvgl/examples/widgets/meter/../../../src/hal/../misc/lv_color.h **** # define _LV_COLOR_ZERO_INITIALIZER16  {{0x00, 0x00, 0x00}}
 168:Middlewares/lvgl/examples/widgets/meter/../../../src/hal/../misc/lv_color.h **** # define LV_COLOR_MAKE16(r8, g8, b8) {{(uint8_t)((b8 >> 3) & 0x1FU), (uint8_t)((g8 >> 2) & 0x3FU), 
 169:Middlewares/lvgl/examples/widgets/meter/../../../src/hal/../misc/lv_color.h **** #else
 170:Middlewares/lvgl/examples/widgets/meter/../../../src/hal/../misc/lv_color.h **** # define _LV_COLOR_ZERO_INITIALIZER16 {{0x00, 0x00, 0x00, 0x00}}
 171:Middlewares/lvgl/examples/widgets/meter/../../../src/hal/../misc/lv_color.h **** # define LV_COLOR_MAKE16(r8, g8, b8) {{(uint8_t)((g8 >> 5) & 0x7U), (uint8_t)((r8 >> 3) & 0x1FU), (
 172:Middlewares/lvgl/examples/widgets/meter/../../../src/hal/../misc/lv_color.h **** #endif
 173:Middlewares/lvgl/examples/widgets/meter/../../../src/hal/../misc/lv_color.h **** 
 174:Middlewares/lvgl/examples/widgets/meter/../../../src/hal/../misc/lv_color.h **** # define LV_COLOR_SET_R32(c, v) (c).ch.red = (uint8_t)((v) & 0xFF)
 175:Middlewares/lvgl/examples/widgets/meter/../../../src/hal/../misc/lv_color.h **** # define LV_COLOR_SET_G32(c, v) (c).ch.green = (uint8_t)((v) & 0xFF)
 176:Middlewares/lvgl/examples/widgets/meter/../../../src/hal/../misc/lv_color.h **** # define LV_COLOR_SET_B32(c, v) (c).ch.blue = (uint8_t)((v) & 0xFF)
 177:Middlewares/lvgl/examples/widgets/meter/../../../src/hal/../misc/lv_color.h **** # define LV_COLOR_SET_A32(c, v) (c).ch.alpha = (uint8_t)((v) & 0xFF)
 178:Middlewares/lvgl/examples/widgets/meter/../../../src/hal/../misc/lv_color.h **** 
 179:Middlewares/lvgl/examples/widgets/meter/../../../src/hal/../misc/lv_color.h **** # define LV_COLOR_GET_R32(c) (c).ch.red
 180:Middlewares/lvgl/examples/widgets/meter/../../../src/hal/../misc/lv_color.h **** # define LV_COLOR_GET_G32(c) (c).ch.green
 181:Middlewares/lvgl/examples/widgets/meter/../../../src/hal/../misc/lv_color.h **** # define LV_COLOR_GET_B32(c) (c).ch.blue
 182:Middlewares/lvgl/examples/widgets/meter/../../../src/hal/../misc/lv_color.h **** # define LV_COLOR_GET_A32(c) (c).ch.alpha
 183:Middlewares/lvgl/examples/widgets/meter/../../../src/hal/../misc/lv_color.h **** 
 184:Middlewares/lvgl/examples/widgets/meter/../../../src/hal/../misc/lv_color.h **** # define _LV_COLOR_ZERO_INITIALIZER32  {{0x00, 0x00, 0x00, 0x00}}
 185:Middlewares/lvgl/examples/widgets/meter/../../../src/hal/../misc/lv_color.h **** # define LV_COLOR_MAKE32(r8, g8, b8) {{b8, g8, r8, 0xff}} /*Fix 0xff alpha*/
 186:Middlewares/lvgl/examples/widgets/meter/../../../src/hal/../misc/lv_color.h **** 
 187:Middlewares/lvgl/examples/widgets/meter/../../../src/hal/../misc/lv_color.h **** /*---------------------------------------
 188:Middlewares/lvgl/examples/widgets/meter/../../../src/hal/../misc/lv_color.h ****  * Macros for the current color depth
 189:Middlewares/lvgl/examples/widgets/meter/../../../src/hal/../misc/lv_color.h ****  * to set/get values of the color channels
 190:Middlewares/lvgl/examples/widgets/meter/../../../src/hal/../misc/lv_color.h ****  *------------------------------------------*/
 191:Middlewares/lvgl/examples/widgets/meter/../../../src/hal/../misc/lv_color.h **** #define LV_COLOR_SET_R(c, v) LV_CONCAT(LV_COLOR_SET_R, LV_COLOR_DEPTH)(c, v)
 192:Middlewares/lvgl/examples/widgets/meter/../../../src/hal/../misc/lv_color.h **** #define LV_COLOR_SET_G(c, v) LV_CONCAT(LV_COLOR_SET_G, LV_COLOR_DEPTH)(c, v)
 193:Middlewares/lvgl/examples/widgets/meter/../../../src/hal/../misc/lv_color.h **** #define LV_COLOR_SET_B(c, v) LV_CONCAT(LV_COLOR_SET_B, LV_COLOR_DEPTH)(c, v)
 194:Middlewares/lvgl/examples/widgets/meter/../../../src/hal/../misc/lv_color.h **** #define LV_COLOR_SET_A(c, v) LV_CONCAT(LV_COLOR_SET_A, LV_COLOR_DEPTH)(c, v)
 195:Middlewares/lvgl/examples/widgets/meter/../../../src/hal/../misc/lv_color.h **** 
 196:Middlewares/lvgl/examples/widgets/meter/../../../src/hal/../misc/lv_color.h **** #define LV_COLOR_GET_R(c) LV_CONCAT(LV_COLOR_GET_R, LV_COLOR_DEPTH)(c)
 197:Middlewares/lvgl/examples/widgets/meter/../../../src/hal/../misc/lv_color.h **** #define LV_COLOR_GET_G(c) LV_CONCAT(LV_COLOR_GET_G, LV_COLOR_DEPTH)(c)
 198:Middlewares/lvgl/examples/widgets/meter/../../../src/hal/../misc/lv_color.h **** #define LV_COLOR_GET_B(c) LV_CONCAT(LV_COLOR_GET_B, LV_COLOR_DEPTH)(c)
 199:Middlewares/lvgl/examples/widgets/meter/../../../src/hal/../misc/lv_color.h **** #define LV_COLOR_GET_A(c) LV_CONCAT(LV_COLOR_GET_A, LV_COLOR_DEPTH)(c)
 200:Middlewares/lvgl/examples/widgets/meter/../../../src/hal/../misc/lv_color.h **** 
 201:Middlewares/lvgl/examples/widgets/meter/../../../src/hal/../misc/lv_color.h **** #define _LV_COLOR_ZERO_INITIALIZER LV_CONCAT(_LV_COLOR_ZERO_INITIALIZER, LV_COLOR_DEPTH)
 202:Middlewares/lvgl/examples/widgets/meter/../../../src/hal/../misc/lv_color.h **** #define LV_COLOR_MAKE(r8, g8, b8) LV_CONCAT(LV_COLOR_MAKE, LV_COLOR_DEPTH)(r8, g8, b8)
 203:Middlewares/lvgl/examples/widgets/meter/../../../src/hal/../misc/lv_color.h **** 
 204:Middlewares/lvgl/examples/widgets/meter/../../../src/hal/../misc/lv_color.h **** #define LV_UDIV255(x) ((uint32_t)((uint32_t) (x) * 0x8081) >> 0x17)
 205:Middlewares/lvgl/examples/widgets/meter/../../../src/hal/../misc/lv_color.h **** 
 206:Middlewares/lvgl/examples/widgets/meter/../../../src/hal/../misc/lv_color.h **** /**********************
ARM GAS  /tmp/ccJYH9fy.s 			page 13


 207:Middlewares/lvgl/examples/widgets/meter/../../../src/hal/../misc/lv_color.h ****  *      TYPEDEFS
 208:Middlewares/lvgl/examples/widgets/meter/../../../src/hal/../misc/lv_color.h ****  **********************/
 209:Middlewares/lvgl/examples/widgets/meter/../../../src/hal/../misc/lv_color.h **** 
 210:Middlewares/lvgl/examples/widgets/meter/../../../src/hal/../misc/lv_color.h **** typedef union {
 211:Middlewares/lvgl/examples/widgets/meter/../../../src/hal/../misc/lv_color.h ****     uint8_t full; /*must be declared first to set all bits of byte via initializer list*/
 212:Middlewares/lvgl/examples/widgets/meter/../../../src/hal/../misc/lv_color.h ****     union {
 213:Middlewares/lvgl/examples/widgets/meter/../../../src/hal/../misc/lv_color.h ****         uint8_t blue : 1;
 214:Middlewares/lvgl/examples/widgets/meter/../../../src/hal/../misc/lv_color.h ****         uint8_t green : 1;
 215:Middlewares/lvgl/examples/widgets/meter/../../../src/hal/../misc/lv_color.h ****         uint8_t red : 1;
 216:Middlewares/lvgl/examples/widgets/meter/../../../src/hal/../misc/lv_color.h ****     } ch;
 217:Middlewares/lvgl/examples/widgets/meter/../../../src/hal/../misc/lv_color.h **** } lv_color1_t;
 218:Middlewares/lvgl/examples/widgets/meter/../../../src/hal/../misc/lv_color.h **** 
 219:Middlewares/lvgl/examples/widgets/meter/../../../src/hal/../misc/lv_color.h **** typedef union {
 220:Middlewares/lvgl/examples/widgets/meter/../../../src/hal/../misc/lv_color.h ****     struct {
 221:Middlewares/lvgl/examples/widgets/meter/../../../src/hal/../misc/lv_color.h ****         uint8_t blue : 2;
 222:Middlewares/lvgl/examples/widgets/meter/../../../src/hal/../misc/lv_color.h ****         uint8_t green : 3;
 223:Middlewares/lvgl/examples/widgets/meter/../../../src/hal/../misc/lv_color.h ****         uint8_t red : 3;
 224:Middlewares/lvgl/examples/widgets/meter/../../../src/hal/../misc/lv_color.h ****     } ch;
 225:Middlewares/lvgl/examples/widgets/meter/../../../src/hal/../misc/lv_color.h ****     uint8_t full;
 226:Middlewares/lvgl/examples/widgets/meter/../../../src/hal/../misc/lv_color.h **** } lv_color8_t;
 227:Middlewares/lvgl/examples/widgets/meter/../../../src/hal/../misc/lv_color.h **** 
 228:Middlewares/lvgl/examples/widgets/meter/../../../src/hal/../misc/lv_color.h **** typedef union {
 229:Middlewares/lvgl/examples/widgets/meter/../../../src/hal/../misc/lv_color.h ****     struct {
 230:Middlewares/lvgl/examples/widgets/meter/../../../src/hal/../misc/lv_color.h **** #if LV_COLOR_16_SWAP == 0
 231:Middlewares/lvgl/examples/widgets/meter/../../../src/hal/../misc/lv_color.h ****         uint16_t blue : 5;
 232:Middlewares/lvgl/examples/widgets/meter/../../../src/hal/../misc/lv_color.h ****         uint16_t green : 6;
 233:Middlewares/lvgl/examples/widgets/meter/../../../src/hal/../misc/lv_color.h ****         uint16_t red : 5;
 234:Middlewares/lvgl/examples/widgets/meter/../../../src/hal/../misc/lv_color.h **** #else
 235:Middlewares/lvgl/examples/widgets/meter/../../../src/hal/../misc/lv_color.h ****         uint16_t green_h : 3;
 236:Middlewares/lvgl/examples/widgets/meter/../../../src/hal/../misc/lv_color.h ****         uint16_t red : 5;
 237:Middlewares/lvgl/examples/widgets/meter/../../../src/hal/../misc/lv_color.h ****         uint16_t blue : 5;
 238:Middlewares/lvgl/examples/widgets/meter/../../../src/hal/../misc/lv_color.h ****         uint16_t green_l : 3;
 239:Middlewares/lvgl/examples/widgets/meter/../../../src/hal/../misc/lv_color.h **** #endif
 240:Middlewares/lvgl/examples/widgets/meter/../../../src/hal/../misc/lv_color.h ****     } ch;
 241:Middlewares/lvgl/examples/widgets/meter/../../../src/hal/../misc/lv_color.h ****     uint16_t full;
 242:Middlewares/lvgl/examples/widgets/meter/../../../src/hal/../misc/lv_color.h **** } lv_color16_t;
 243:Middlewares/lvgl/examples/widgets/meter/../../../src/hal/../misc/lv_color.h **** 
 244:Middlewares/lvgl/examples/widgets/meter/../../../src/hal/../misc/lv_color.h **** typedef union {
 245:Middlewares/lvgl/examples/widgets/meter/../../../src/hal/../misc/lv_color.h ****     struct {
 246:Middlewares/lvgl/examples/widgets/meter/../../../src/hal/../misc/lv_color.h ****         uint8_t blue;
 247:Middlewares/lvgl/examples/widgets/meter/../../../src/hal/../misc/lv_color.h ****         uint8_t green;
 248:Middlewares/lvgl/examples/widgets/meter/../../../src/hal/../misc/lv_color.h ****         uint8_t red;
 249:Middlewares/lvgl/examples/widgets/meter/../../../src/hal/../misc/lv_color.h ****         uint8_t alpha;
 250:Middlewares/lvgl/examples/widgets/meter/../../../src/hal/../misc/lv_color.h ****     } ch;
 251:Middlewares/lvgl/examples/widgets/meter/../../../src/hal/../misc/lv_color.h ****     uint32_t full;
 252:Middlewares/lvgl/examples/widgets/meter/../../../src/hal/../misc/lv_color.h **** } lv_color32_t;
 253:Middlewares/lvgl/examples/widgets/meter/../../../src/hal/../misc/lv_color.h **** 
 254:Middlewares/lvgl/examples/widgets/meter/../../../src/hal/../misc/lv_color.h **** typedef LV_CONCAT3(uint, LV_COLOR_SIZE, _t) lv_color_int_t;
 255:Middlewares/lvgl/examples/widgets/meter/../../../src/hal/../misc/lv_color.h **** typedef LV_CONCAT3(lv_color, LV_COLOR_DEPTH, _t) lv_color_t;
 256:Middlewares/lvgl/examples/widgets/meter/../../../src/hal/../misc/lv_color.h **** 
 257:Middlewares/lvgl/examples/widgets/meter/../../../src/hal/../misc/lv_color.h **** typedef struct {
 258:Middlewares/lvgl/examples/widgets/meter/../../../src/hal/../misc/lv_color.h ****     uint16_t h;
 259:Middlewares/lvgl/examples/widgets/meter/../../../src/hal/../misc/lv_color.h ****     uint8_t s;
 260:Middlewares/lvgl/examples/widgets/meter/../../../src/hal/../misc/lv_color.h ****     uint8_t v;
 261:Middlewares/lvgl/examples/widgets/meter/../../../src/hal/../misc/lv_color.h **** } lv_color_hsv_t;
 262:Middlewares/lvgl/examples/widgets/meter/../../../src/hal/../misc/lv_color.h **** 
 263:Middlewares/lvgl/examples/widgets/meter/../../../src/hal/../misc/lv_color.h **** //! @cond Doxygen_Suppress
ARM GAS  /tmp/ccJYH9fy.s 			page 14


 264:Middlewares/lvgl/examples/widgets/meter/../../../src/hal/../misc/lv_color.h **** /*No idea where the guard is required but else throws warnings in the docs*/
 265:Middlewares/lvgl/examples/widgets/meter/../../../src/hal/../misc/lv_color.h **** typedef uint8_t lv_opa_t;
 266:Middlewares/lvgl/examples/widgets/meter/../../../src/hal/../misc/lv_color.h **** //! @endcond
 267:Middlewares/lvgl/examples/widgets/meter/../../../src/hal/../misc/lv_color.h **** 
 268:Middlewares/lvgl/examples/widgets/meter/../../../src/hal/../misc/lv_color.h **** struct _lv_color_filter_dsc_t;
 269:Middlewares/lvgl/examples/widgets/meter/../../../src/hal/../misc/lv_color.h **** 
 270:Middlewares/lvgl/examples/widgets/meter/../../../src/hal/../misc/lv_color.h **** typedef lv_color_t (*lv_color_filter_cb_t)(const struct _lv_color_filter_dsc_t *, lv_color_t, lv_op
 271:Middlewares/lvgl/examples/widgets/meter/../../../src/hal/../misc/lv_color.h **** 
 272:Middlewares/lvgl/examples/widgets/meter/../../../src/hal/../misc/lv_color.h **** typedef struct _lv_color_filter_dsc_t {
 273:Middlewares/lvgl/examples/widgets/meter/../../../src/hal/../misc/lv_color.h ****     lv_color_filter_cb_t filter_cb;
 274:Middlewares/lvgl/examples/widgets/meter/../../../src/hal/../misc/lv_color.h ****     void * user_data;
 275:Middlewares/lvgl/examples/widgets/meter/../../../src/hal/../misc/lv_color.h **** }lv_color_filter_dsc_t;
 276:Middlewares/lvgl/examples/widgets/meter/../../../src/hal/../misc/lv_color.h **** 
 277:Middlewares/lvgl/examples/widgets/meter/../../../src/hal/../misc/lv_color.h **** 
 278:Middlewares/lvgl/examples/widgets/meter/../../../src/hal/../misc/lv_color.h **** typedef enum {
 279:Middlewares/lvgl/examples/widgets/meter/../../../src/hal/../misc/lv_color.h ****     LV_PALETTE_RED,
 280:Middlewares/lvgl/examples/widgets/meter/../../../src/hal/../misc/lv_color.h ****     LV_PALETTE_PINK,
 281:Middlewares/lvgl/examples/widgets/meter/../../../src/hal/../misc/lv_color.h ****     LV_PALETTE_PURPLE,
 282:Middlewares/lvgl/examples/widgets/meter/../../../src/hal/../misc/lv_color.h ****     LV_PALETTE_DEEP_PURPLE,
 283:Middlewares/lvgl/examples/widgets/meter/../../../src/hal/../misc/lv_color.h ****     LV_PALETTE_INDIGO,
 284:Middlewares/lvgl/examples/widgets/meter/../../../src/hal/../misc/lv_color.h ****     LV_PALETTE_BLUE,
 285:Middlewares/lvgl/examples/widgets/meter/../../../src/hal/../misc/lv_color.h ****     LV_PALETTE_LIGHT_BLUE,
 286:Middlewares/lvgl/examples/widgets/meter/../../../src/hal/../misc/lv_color.h ****     LV_PALETTE_CYAN,
 287:Middlewares/lvgl/examples/widgets/meter/../../../src/hal/../misc/lv_color.h ****     LV_PALETTE_TEAL,
 288:Middlewares/lvgl/examples/widgets/meter/../../../src/hal/../misc/lv_color.h ****     LV_PALETTE_GREEN,
 289:Middlewares/lvgl/examples/widgets/meter/../../../src/hal/../misc/lv_color.h ****     LV_PALETTE_LIGHT_GREEN,
 290:Middlewares/lvgl/examples/widgets/meter/../../../src/hal/../misc/lv_color.h ****     LV_PALETTE_LIME,
 291:Middlewares/lvgl/examples/widgets/meter/../../../src/hal/../misc/lv_color.h ****     LV_PALETTE_YELLOW,
 292:Middlewares/lvgl/examples/widgets/meter/../../../src/hal/../misc/lv_color.h ****     LV_PALETTE_AMBER,
 293:Middlewares/lvgl/examples/widgets/meter/../../../src/hal/../misc/lv_color.h ****     LV_PALETTE_ORANGE,
 294:Middlewares/lvgl/examples/widgets/meter/../../../src/hal/../misc/lv_color.h ****     LV_PALETTE_DEEP_ORANGE,
 295:Middlewares/lvgl/examples/widgets/meter/../../../src/hal/../misc/lv_color.h ****     LV_PALETTE_BROWN,
 296:Middlewares/lvgl/examples/widgets/meter/../../../src/hal/../misc/lv_color.h ****     LV_PALETTE_BLUE_GREY,
 297:Middlewares/lvgl/examples/widgets/meter/../../../src/hal/../misc/lv_color.h ****     LV_PALETTE_GREY,
 298:Middlewares/lvgl/examples/widgets/meter/../../../src/hal/../misc/lv_color.h ****     _LV_PALETTE_LAST,
 299:Middlewares/lvgl/examples/widgets/meter/../../../src/hal/../misc/lv_color.h ****     LV_PALETTE_NONE = 0xff,
 300:Middlewares/lvgl/examples/widgets/meter/../../../src/hal/../misc/lv_color.h **** }lv_palette_t;
 301:Middlewares/lvgl/examples/widgets/meter/../../../src/hal/../misc/lv_color.h **** 
 302:Middlewares/lvgl/examples/widgets/meter/../../../src/hal/../misc/lv_color.h **** /**********************
 303:Middlewares/lvgl/examples/widgets/meter/../../../src/hal/../misc/lv_color.h ****  * GLOBAL PROTOTYPES
 304:Middlewares/lvgl/examples/widgets/meter/../../../src/hal/../misc/lv_color.h ****  **********************/
 305:Middlewares/lvgl/examples/widgets/meter/../../../src/hal/../misc/lv_color.h **** 
 306:Middlewares/lvgl/examples/widgets/meter/../../../src/hal/../misc/lv_color.h **** /*In color conversations:
 307:Middlewares/lvgl/examples/widgets/meter/../../../src/hal/../misc/lv_color.h ****  * - When converting to bigger color type the LSB weight of 1 LSB is calculated
 308:Middlewares/lvgl/examples/widgets/meter/../../../src/hal/../misc/lv_color.h ****  *   E.g. 16 bit Red has 5 bits
 309:Middlewares/lvgl/examples/widgets/meter/../../../src/hal/../misc/lv_color.h ****  *         8 bit Red has 3 bits
 310:Middlewares/lvgl/examples/widgets/meter/../../../src/hal/../misc/lv_color.h ****  *        ----------------------
 311:Middlewares/lvgl/examples/widgets/meter/../../../src/hal/../misc/lv_color.h ****  *        8 bit red LSB = (2^5 - 1) / (2^3 - 1) = 31 / 7 = 4
 312:Middlewares/lvgl/examples/widgets/meter/../../../src/hal/../misc/lv_color.h ****  *
 313:Middlewares/lvgl/examples/widgets/meter/../../../src/hal/../misc/lv_color.h ****  * - When calculating to smaller color type simply shift out the LSBs
 314:Middlewares/lvgl/examples/widgets/meter/../../../src/hal/../misc/lv_color.h ****  *   E.g.  8 bit Red has 3 bits
 315:Middlewares/lvgl/examples/widgets/meter/../../../src/hal/../misc/lv_color.h ****  *        16 bit Red has 5 bits
 316:Middlewares/lvgl/examples/widgets/meter/../../../src/hal/../misc/lv_color.h ****  *        ----------------------
 317:Middlewares/lvgl/examples/widgets/meter/../../../src/hal/../misc/lv_color.h ****  *         Shift right with 5 - 3 = 2
 318:Middlewares/lvgl/examples/widgets/meter/../../../src/hal/../misc/lv_color.h ****  */
 319:Middlewares/lvgl/examples/widgets/meter/../../../src/hal/../misc/lv_color.h **** static inline uint8_t lv_color_to1(lv_color_t color)
 320:Middlewares/lvgl/examples/widgets/meter/../../../src/hal/../misc/lv_color.h **** {
ARM GAS  /tmp/ccJYH9fy.s 			page 15


 321:Middlewares/lvgl/examples/widgets/meter/../../../src/hal/../misc/lv_color.h **** #if LV_COLOR_DEPTH == 1
 322:Middlewares/lvgl/examples/widgets/meter/../../../src/hal/../misc/lv_color.h ****     return color.full;
 323:Middlewares/lvgl/examples/widgets/meter/../../../src/hal/../misc/lv_color.h **** #elif LV_COLOR_DEPTH == 8
 324:Middlewares/lvgl/examples/widgets/meter/../../../src/hal/../misc/lv_color.h ****     if((LV_COLOR_GET_R(color) & 0x4) || (LV_COLOR_GET_G(color) & 0x4) || (LV_COLOR_GET_B(color) & 0
 325:Middlewares/lvgl/examples/widgets/meter/../../../src/hal/../misc/lv_color.h ****         return 1;
 326:Middlewares/lvgl/examples/widgets/meter/../../../src/hal/../misc/lv_color.h ****     }
 327:Middlewares/lvgl/examples/widgets/meter/../../../src/hal/../misc/lv_color.h ****     else {
 328:Middlewares/lvgl/examples/widgets/meter/../../../src/hal/../misc/lv_color.h ****         return 0;
 329:Middlewares/lvgl/examples/widgets/meter/../../../src/hal/../misc/lv_color.h ****     }
 330:Middlewares/lvgl/examples/widgets/meter/../../../src/hal/../misc/lv_color.h **** #elif LV_COLOR_DEPTH == 16
 331:Middlewares/lvgl/examples/widgets/meter/../../../src/hal/../misc/lv_color.h ****     if((LV_COLOR_GET_R(color) & 0x10) || (LV_COLOR_GET_G(color) & 0x20) || (LV_COLOR_GET_B(color) &
 332:Middlewares/lvgl/examples/widgets/meter/../../../src/hal/../misc/lv_color.h ****         return 1;
 333:Middlewares/lvgl/examples/widgets/meter/../../../src/hal/../misc/lv_color.h ****     }
 334:Middlewares/lvgl/examples/widgets/meter/../../../src/hal/../misc/lv_color.h ****     else {
 335:Middlewares/lvgl/examples/widgets/meter/../../../src/hal/../misc/lv_color.h ****         return 0;
 336:Middlewares/lvgl/examples/widgets/meter/../../../src/hal/../misc/lv_color.h ****     }
 337:Middlewares/lvgl/examples/widgets/meter/../../../src/hal/../misc/lv_color.h **** #elif LV_COLOR_DEPTH == 32
 338:Middlewares/lvgl/examples/widgets/meter/../../../src/hal/../misc/lv_color.h ****     if((LV_COLOR_GET_R(color) & 0x80) || (LV_COLOR_GET_G(color) & 0x80) || (LV_COLOR_GET_B(color) &
 339:Middlewares/lvgl/examples/widgets/meter/../../../src/hal/../misc/lv_color.h ****         return 1;
 340:Middlewares/lvgl/examples/widgets/meter/../../../src/hal/../misc/lv_color.h ****     }
 341:Middlewares/lvgl/examples/widgets/meter/../../../src/hal/../misc/lv_color.h ****     else {
 342:Middlewares/lvgl/examples/widgets/meter/../../../src/hal/../misc/lv_color.h ****         return 0;
 343:Middlewares/lvgl/examples/widgets/meter/../../../src/hal/../misc/lv_color.h ****     }
 344:Middlewares/lvgl/examples/widgets/meter/../../../src/hal/../misc/lv_color.h **** #endif
 345:Middlewares/lvgl/examples/widgets/meter/../../../src/hal/../misc/lv_color.h **** }
 346:Middlewares/lvgl/examples/widgets/meter/../../../src/hal/../misc/lv_color.h **** 
 347:Middlewares/lvgl/examples/widgets/meter/../../../src/hal/../misc/lv_color.h **** static inline uint8_t lv_color_to8(lv_color_t color)
 348:Middlewares/lvgl/examples/widgets/meter/../../../src/hal/../misc/lv_color.h **** {
 349:Middlewares/lvgl/examples/widgets/meter/../../../src/hal/../misc/lv_color.h **** #if LV_COLOR_DEPTH == 1
 350:Middlewares/lvgl/examples/widgets/meter/../../../src/hal/../misc/lv_color.h ****     if(color.full == 0)
 351:Middlewares/lvgl/examples/widgets/meter/../../../src/hal/../misc/lv_color.h ****         return 0;
 352:Middlewares/lvgl/examples/widgets/meter/../../../src/hal/../misc/lv_color.h ****     else
 353:Middlewares/lvgl/examples/widgets/meter/../../../src/hal/../misc/lv_color.h ****         return 0xFF;
 354:Middlewares/lvgl/examples/widgets/meter/../../../src/hal/../misc/lv_color.h **** #elif LV_COLOR_DEPTH == 8
 355:Middlewares/lvgl/examples/widgets/meter/../../../src/hal/../misc/lv_color.h ****     return color.full;
 356:Middlewares/lvgl/examples/widgets/meter/../../../src/hal/../misc/lv_color.h **** #elif LV_COLOR_DEPTH == 16
 357:Middlewares/lvgl/examples/widgets/meter/../../../src/hal/../misc/lv_color.h ****     lv_color8_t ret;
 358:Middlewares/lvgl/examples/widgets/meter/../../../src/hal/../misc/lv_color.h ****     LV_COLOR_SET_R8(ret, LV_COLOR_GET_R(color) >> 2); /*5 - 3  = 2*/
 359:Middlewares/lvgl/examples/widgets/meter/../../../src/hal/../misc/lv_color.h ****     LV_COLOR_SET_G8(ret, LV_COLOR_GET_G(color) >> 3); /*6 - 3  = 3*/
 360:Middlewares/lvgl/examples/widgets/meter/../../../src/hal/../misc/lv_color.h ****     LV_COLOR_SET_B8(ret, LV_COLOR_GET_B(color) >> 3); /*5 - 2  = 3*/
 361:Middlewares/lvgl/examples/widgets/meter/../../../src/hal/../misc/lv_color.h ****     return ret.full;
 362:Middlewares/lvgl/examples/widgets/meter/../../../src/hal/../misc/lv_color.h **** #elif LV_COLOR_DEPTH == 32
 363:Middlewares/lvgl/examples/widgets/meter/../../../src/hal/../misc/lv_color.h ****     lv_color8_t ret;
 364:Middlewares/lvgl/examples/widgets/meter/../../../src/hal/../misc/lv_color.h ****     LV_COLOR_SET_R8(ret, LV_COLOR_GET_R(color) >> 5); /*8 - 3  = 5*/
 365:Middlewares/lvgl/examples/widgets/meter/../../../src/hal/../misc/lv_color.h ****     LV_COLOR_SET_G8(ret, LV_COLOR_GET_G(color) >> 5); /*8 - 3  = 5*/
 366:Middlewares/lvgl/examples/widgets/meter/../../../src/hal/../misc/lv_color.h ****     LV_COLOR_SET_B8(ret, LV_COLOR_GET_B(color) >> 6); /*8 - 2  = 6*/
 367:Middlewares/lvgl/examples/widgets/meter/../../../src/hal/../misc/lv_color.h ****     return ret.full;
 368:Middlewares/lvgl/examples/widgets/meter/../../../src/hal/../misc/lv_color.h **** #endif
 369:Middlewares/lvgl/examples/widgets/meter/../../../src/hal/../misc/lv_color.h **** }
 370:Middlewares/lvgl/examples/widgets/meter/../../../src/hal/../misc/lv_color.h **** 
 371:Middlewares/lvgl/examples/widgets/meter/../../../src/hal/../misc/lv_color.h **** static inline uint16_t lv_color_to16(lv_color_t color)
 372:Middlewares/lvgl/examples/widgets/meter/../../../src/hal/../misc/lv_color.h **** {
 373:Middlewares/lvgl/examples/widgets/meter/../../../src/hal/../misc/lv_color.h **** #if LV_COLOR_DEPTH == 1
 374:Middlewares/lvgl/examples/widgets/meter/../../../src/hal/../misc/lv_color.h ****     if(color.full == 0)
 375:Middlewares/lvgl/examples/widgets/meter/../../../src/hal/../misc/lv_color.h ****         return 0;
 376:Middlewares/lvgl/examples/widgets/meter/../../../src/hal/../misc/lv_color.h ****     else
 377:Middlewares/lvgl/examples/widgets/meter/../../../src/hal/../misc/lv_color.h ****         return 0xFFFF;
ARM GAS  /tmp/ccJYH9fy.s 			page 16


 378:Middlewares/lvgl/examples/widgets/meter/../../../src/hal/../misc/lv_color.h **** #elif LV_COLOR_DEPTH == 8
 379:Middlewares/lvgl/examples/widgets/meter/../../../src/hal/../misc/lv_color.h ****     lv_color16_t ret;
 380:Middlewares/lvgl/examples/widgets/meter/../../../src/hal/../misc/lv_color.h ****     LV_COLOR_SET_R16(ret, LV_COLOR_GET_R(color) * 4);  /*(2^5 - 1)/(2^3 - 1) = 31/7 = 4*/
 381:Middlewares/lvgl/examples/widgets/meter/../../../src/hal/../misc/lv_color.h ****     LV_COLOR_SET_G16(ret, LV_COLOR_GET_G(color) * 9);  /*(2^6 - 1)/(2^3 - 1) = 63/7 = 9*/
 382:Middlewares/lvgl/examples/widgets/meter/../../../src/hal/../misc/lv_color.h ****     LV_COLOR_SET_B16(ret, LV_COLOR_GET_B(color) * 10); /*(2^5 - 1)/(2^2 - 1) = 31/3 = 10*/
 383:Middlewares/lvgl/examples/widgets/meter/../../../src/hal/../misc/lv_color.h ****     return ret.full;
 384:Middlewares/lvgl/examples/widgets/meter/../../../src/hal/../misc/lv_color.h **** #elif LV_COLOR_DEPTH == 16
 385:Middlewares/lvgl/examples/widgets/meter/../../../src/hal/../misc/lv_color.h ****     return color.full;
 386:Middlewares/lvgl/examples/widgets/meter/../../../src/hal/../misc/lv_color.h **** #elif LV_COLOR_DEPTH == 32
 387:Middlewares/lvgl/examples/widgets/meter/../../../src/hal/../misc/lv_color.h ****     lv_color16_t ret;
 388:Middlewares/lvgl/examples/widgets/meter/../../../src/hal/../misc/lv_color.h ****     LV_COLOR_SET_R16(ret, LV_COLOR_GET_R(color) >> 3); /*8 - 5  = 3*/
 389:Middlewares/lvgl/examples/widgets/meter/../../../src/hal/../misc/lv_color.h ****     LV_COLOR_SET_G16(ret, LV_COLOR_GET_G(color) >> 2); /*8 - 6  = 2*/
 390:Middlewares/lvgl/examples/widgets/meter/../../../src/hal/../misc/lv_color.h ****     LV_COLOR_SET_B16(ret, LV_COLOR_GET_B(color) >> 3); /*8 - 5  = 3*/
 391:Middlewares/lvgl/examples/widgets/meter/../../../src/hal/../misc/lv_color.h ****     return ret.full;
 392:Middlewares/lvgl/examples/widgets/meter/../../../src/hal/../misc/lv_color.h **** #endif
 393:Middlewares/lvgl/examples/widgets/meter/../../../src/hal/../misc/lv_color.h **** }
 394:Middlewares/lvgl/examples/widgets/meter/../../../src/hal/../misc/lv_color.h **** 
 395:Middlewares/lvgl/examples/widgets/meter/../../../src/hal/../misc/lv_color.h **** static inline uint32_t lv_color_to32(lv_color_t color)
 396:Middlewares/lvgl/examples/widgets/meter/../../../src/hal/../misc/lv_color.h **** {
 397:Middlewares/lvgl/examples/widgets/meter/../../../src/hal/../misc/lv_color.h **** #if LV_COLOR_DEPTH == 1
 398:Middlewares/lvgl/examples/widgets/meter/../../../src/hal/../misc/lv_color.h ****     if(color.full == 0)
 399:Middlewares/lvgl/examples/widgets/meter/../../../src/hal/../misc/lv_color.h ****         return 0xFF000000;
 400:Middlewares/lvgl/examples/widgets/meter/../../../src/hal/../misc/lv_color.h ****     else
 401:Middlewares/lvgl/examples/widgets/meter/../../../src/hal/../misc/lv_color.h ****         return 0xFFFFFFFF;
 402:Middlewares/lvgl/examples/widgets/meter/../../../src/hal/../misc/lv_color.h **** #elif LV_COLOR_DEPTH == 8
 403:Middlewares/lvgl/examples/widgets/meter/../../../src/hal/../misc/lv_color.h ****     lv_color32_t ret;
 404:Middlewares/lvgl/examples/widgets/meter/../../../src/hal/../misc/lv_color.h ****     LV_COLOR_SET_R32(ret, LV_COLOR_GET_R(color) * 36); /*(2^8 - 1)/(2^3 - 1) = 255/7 = 36*/
 405:Middlewares/lvgl/examples/widgets/meter/../../../src/hal/../misc/lv_color.h ****     LV_COLOR_SET_G32(ret, LV_COLOR_GET_G(color) * 36); /*(2^8 - 1)/(2^3 - 1) = 255/7 = 36*/
 406:Middlewares/lvgl/examples/widgets/meter/../../../src/hal/../misc/lv_color.h ****     LV_COLOR_SET_B32(ret, LV_COLOR_GET_B(color) * 85); /*(2^8 - 1)/(2^2 - 1) = 255/3 = 85*/
 407:Middlewares/lvgl/examples/widgets/meter/../../../src/hal/../misc/lv_color.h ****     LV_COLOR_SET_A32(ret, 0xFF);
 408:Middlewares/lvgl/examples/widgets/meter/../../../src/hal/../misc/lv_color.h ****     return ret.full;
 409:Middlewares/lvgl/examples/widgets/meter/../../../src/hal/../misc/lv_color.h **** #elif LV_COLOR_DEPTH == 16
 410:Middlewares/lvgl/examples/widgets/meter/../../../src/hal/../misc/lv_color.h ****     /**
 411:Middlewares/lvgl/examples/widgets/meter/../../../src/hal/../misc/lv_color.h ****      * The floating point math for conversion is:
 412:Middlewares/lvgl/examples/widgets/meter/../../../src/hal/../misc/lv_color.h ****      *  valueto = valuefrom * ( (2^bitsto - 1) / (float)(2^bitsfrom - 1) )
 413:Middlewares/lvgl/examples/widgets/meter/../../../src/hal/../misc/lv_color.h ****      * The faster integer math for conversion is:
 414:Middlewares/lvgl/examples/widgets/meter/../../../src/hal/../misc/lv_color.h ****      *  valueto = ( valuefrom * multiplier + adder ) >> divisor
 415:Middlewares/lvgl/examples/widgets/meter/../../../src/hal/../misc/lv_color.h ****      *   multiplier = FLOOR( ( (2^bitsto - 1) << divisor ) / (float)(2^bitsfrom - 1) )
 416:Middlewares/lvgl/examples/widgets/meter/../../../src/hal/../misc/lv_color.h ****      *
 417:Middlewares/lvgl/examples/widgets/meter/../../../src/hal/../misc/lv_color.h ****      * Find the first divisor where ( adder >> divisor ) <= 0
 418:Middlewares/lvgl/examples/widgets/meter/../../../src/hal/../misc/lv_color.h ****      *
 419:Middlewares/lvgl/examples/widgets/meter/../../../src/hal/../misc/lv_color.h ****      * 5-bit to 8-bit: ( 31 * multiplier + adder ) >> divisor = 255
 420:Middlewares/lvgl/examples/widgets/meter/../../../src/hal/../misc/lv_color.h ****      * divisor  multiplier  adder  min (0)  max (31)
 421:Middlewares/lvgl/examples/widgets/meter/../../../src/hal/../misc/lv_color.h ****      *       0           8      7        7       255
 422:Middlewares/lvgl/examples/widgets/meter/../../../src/hal/../misc/lv_color.h ****      *       1          16     14        7       255
 423:Middlewares/lvgl/examples/widgets/meter/../../../src/hal/../misc/lv_color.h ****      *       2          32     28        7       255
 424:Middlewares/lvgl/examples/widgets/meter/../../../src/hal/../misc/lv_color.h ****      *       3          65     25        3       255
 425:Middlewares/lvgl/examples/widgets/meter/../../../src/hal/../misc/lv_color.h ****      *       4         131     19        1       255
 426:Middlewares/lvgl/examples/widgets/meter/../../../src/hal/../misc/lv_color.h ****      *       5         263      7        0       255
 427:Middlewares/lvgl/examples/widgets/meter/../../../src/hal/../misc/lv_color.h ****      *
 428:Middlewares/lvgl/examples/widgets/meter/../../../src/hal/../misc/lv_color.h ****      * 6-bit to 8-bit: 255 = ( 63 * multiplier + adder ) >> divisor
 429:Middlewares/lvgl/examples/widgets/meter/../../../src/hal/../misc/lv_color.h ****      * divisor  multiplier  adder  min (0)  max (63)
 430:Middlewares/lvgl/examples/widgets/meter/../../../src/hal/../misc/lv_color.h ****      *       0           4      3        3       255
 431:Middlewares/lvgl/examples/widgets/meter/../../../src/hal/../misc/lv_color.h ****      *       1           8      6        3       255
 432:Middlewares/lvgl/examples/widgets/meter/../../../src/hal/../misc/lv_color.h ****      *       2          16     12        3       255
 433:Middlewares/lvgl/examples/widgets/meter/../../../src/hal/../misc/lv_color.h ****      *       3          32     24        3       255
 434:Middlewares/lvgl/examples/widgets/meter/../../../src/hal/../misc/lv_color.h ****      *       4          64     48        3       255
ARM GAS  /tmp/ccJYH9fy.s 			page 17


 435:Middlewares/lvgl/examples/widgets/meter/../../../src/hal/../misc/lv_color.h ****      *       5         129     33        1       255
 436:Middlewares/lvgl/examples/widgets/meter/../../../src/hal/../misc/lv_color.h ****      *       6         259      3        0       255
 437:Middlewares/lvgl/examples/widgets/meter/../../../src/hal/../misc/lv_color.h ****      */
 438:Middlewares/lvgl/examples/widgets/meter/../../../src/hal/../misc/lv_color.h **** 
 439:Middlewares/lvgl/examples/widgets/meter/../../../src/hal/../misc/lv_color.h ****     lv_color32_t ret;
 440:Middlewares/lvgl/examples/widgets/meter/../../../src/hal/../misc/lv_color.h ****     LV_COLOR_SET_R32(ret, (LV_COLOR_GET_R(color) * 263 + 7) >> 5);
 441:Middlewares/lvgl/examples/widgets/meter/../../../src/hal/../misc/lv_color.h ****     LV_COLOR_SET_G32(ret, (LV_COLOR_GET_G(color) * 259 + 3) >> 6);
 442:Middlewares/lvgl/examples/widgets/meter/../../../src/hal/../misc/lv_color.h ****     LV_COLOR_SET_B32(ret, (LV_COLOR_GET_B(color) * 263 + 7) >> 5);
 443:Middlewares/lvgl/examples/widgets/meter/../../../src/hal/../misc/lv_color.h ****     LV_COLOR_SET_A32(ret, 0xFF);
 444:Middlewares/lvgl/examples/widgets/meter/../../../src/hal/../misc/lv_color.h ****     return ret.full;
 445:Middlewares/lvgl/examples/widgets/meter/../../../src/hal/../misc/lv_color.h **** #elif LV_COLOR_DEPTH == 32
 446:Middlewares/lvgl/examples/widgets/meter/../../../src/hal/../misc/lv_color.h ****     return color.full;
 447:Middlewares/lvgl/examples/widgets/meter/../../../src/hal/../misc/lv_color.h **** #endif
 448:Middlewares/lvgl/examples/widgets/meter/../../../src/hal/../misc/lv_color.h **** }
 449:Middlewares/lvgl/examples/widgets/meter/../../../src/hal/../misc/lv_color.h **** 
 450:Middlewares/lvgl/examples/widgets/meter/../../../src/hal/../misc/lv_color.h **** //! @cond Doxygen_Suppress
 451:Middlewares/lvgl/examples/widgets/meter/../../../src/hal/../misc/lv_color.h **** 
 452:Middlewares/lvgl/examples/widgets/meter/../../../src/hal/../misc/lv_color.h **** /**
 453:Middlewares/lvgl/examples/widgets/meter/../../../src/hal/../misc/lv_color.h ****  * Mix two colors with a given ratio.
 454:Middlewares/lvgl/examples/widgets/meter/../../../src/hal/../misc/lv_color.h ****  * @param c1 the first color to mix (usually the foreground)
 455:Middlewares/lvgl/examples/widgets/meter/../../../src/hal/../misc/lv_color.h ****  * @param c2 the second color to mix (usually the background)
 456:Middlewares/lvgl/examples/widgets/meter/../../../src/hal/../misc/lv_color.h ****  * @param mix The ratio of the colors. 0: full `c2`, 255: full `c1`, 127: half `c1` and half`c2`
 457:Middlewares/lvgl/examples/widgets/meter/../../../src/hal/../misc/lv_color.h ****  * @return the mixed color
 458:Middlewares/lvgl/examples/widgets/meter/../../../src/hal/../misc/lv_color.h ****  */
 459:Middlewares/lvgl/examples/widgets/meter/../../../src/hal/../misc/lv_color.h **** LV_ATTRIBUTE_FAST_MEM static inline lv_color_t lv_color_mix(lv_color_t c1, lv_color_t c2, uint8_t m
 460:Middlewares/lvgl/examples/widgets/meter/../../../src/hal/../misc/lv_color.h **** {
 461:Middlewares/lvgl/examples/widgets/meter/../../../src/hal/../misc/lv_color.h ****     lv_color_t ret;
 462:Middlewares/lvgl/examples/widgets/meter/../../../src/hal/../misc/lv_color.h **** #if LV_COLOR_DEPTH != 1
 463:Middlewares/lvgl/examples/widgets/meter/../../../src/hal/../misc/lv_color.h ****     /*LV_COLOR_DEPTH == 8, 16 or 32*/
 464:Middlewares/lvgl/examples/widgets/meter/../../../src/hal/../misc/lv_color.h ****     LV_COLOR_SET_R(ret, LV_UDIV255((uint16_t) LV_COLOR_GET_R(c1) * mix + LV_COLOR_GET_R(c2) *
 465:Middlewares/lvgl/examples/widgets/meter/../../../src/hal/../misc/lv_color.h ****                                         (255 - mix) + LV_COLOR_MIX_ROUND_OFS));
 466:Middlewares/lvgl/examples/widgets/meter/../../../src/hal/../misc/lv_color.h ****     LV_COLOR_SET_G(ret, LV_UDIV255((uint16_t) LV_COLOR_GET_G(c1) * mix + LV_COLOR_GET_G(c2) *
 467:Middlewares/lvgl/examples/widgets/meter/../../../src/hal/../misc/lv_color.h ****                                         (255 - mix) + LV_COLOR_MIX_ROUND_OFS));
 468:Middlewares/lvgl/examples/widgets/meter/../../../src/hal/../misc/lv_color.h ****     LV_COLOR_SET_B(ret, LV_UDIV255((uint16_t) LV_COLOR_GET_B(c1) * mix + LV_COLOR_GET_B(c2) *
 469:Middlewares/lvgl/examples/widgets/meter/../../../src/hal/../misc/lv_color.h ****                                         (255 - mix) + LV_COLOR_MIX_ROUND_OFS));
 470:Middlewares/lvgl/examples/widgets/meter/../../../src/hal/../misc/lv_color.h ****     LV_COLOR_SET_A(ret, 0xFF);
 471:Middlewares/lvgl/examples/widgets/meter/../../../src/hal/../misc/lv_color.h **** #else
 472:Middlewares/lvgl/examples/widgets/meter/../../../src/hal/../misc/lv_color.h ****     /*LV_COLOR_DEPTH == 1*/
 473:Middlewares/lvgl/examples/widgets/meter/../../../src/hal/../misc/lv_color.h ****     ret.full = mix > LV_OPA_50 ? c1.full : c2.full;
 474:Middlewares/lvgl/examples/widgets/meter/../../../src/hal/../misc/lv_color.h **** #endif
 475:Middlewares/lvgl/examples/widgets/meter/../../../src/hal/../misc/lv_color.h **** 
 476:Middlewares/lvgl/examples/widgets/meter/../../../src/hal/../misc/lv_color.h ****     return ret;
 477:Middlewares/lvgl/examples/widgets/meter/../../../src/hal/../misc/lv_color.h **** }
 478:Middlewares/lvgl/examples/widgets/meter/../../../src/hal/../misc/lv_color.h **** 
 479:Middlewares/lvgl/examples/widgets/meter/../../../src/hal/../misc/lv_color.h **** LV_ATTRIBUTE_FAST_MEM static inline void lv_color_premult(lv_color_t c, uint8_t mix, uint16_t * out
 480:Middlewares/lvgl/examples/widgets/meter/../../../src/hal/../misc/lv_color.h **** {
 481:Middlewares/lvgl/examples/widgets/meter/../../../src/hal/../misc/lv_color.h **** #if LV_COLOR_DEPTH != 1
 482:Middlewares/lvgl/examples/widgets/meter/../../../src/hal/../misc/lv_color.h ****     out[0] = (uint16_t) LV_COLOR_GET_R(c) * mix;
 483:Middlewares/lvgl/examples/widgets/meter/../../../src/hal/../misc/lv_color.h ****     out[1] = (uint16_t) LV_COLOR_GET_G(c) * mix;
 484:Middlewares/lvgl/examples/widgets/meter/../../../src/hal/../misc/lv_color.h ****     out[2] = (uint16_t) LV_COLOR_GET_B(c) * mix;
 485:Middlewares/lvgl/examples/widgets/meter/../../../src/hal/../misc/lv_color.h **** #else
 486:Middlewares/lvgl/examples/widgets/meter/../../../src/hal/../misc/lv_color.h ****     (void) mix;
 487:Middlewares/lvgl/examples/widgets/meter/../../../src/hal/../misc/lv_color.h ****     /*Pre-multiplication can't be used with 1 bpp*/
 488:Middlewares/lvgl/examples/widgets/meter/../../../src/hal/../misc/lv_color.h ****     out[0] = LV_COLOR_GET_R(c);
 489:Middlewares/lvgl/examples/widgets/meter/../../../src/hal/../misc/lv_color.h ****     out[1] = LV_COLOR_GET_G(c);
 490:Middlewares/lvgl/examples/widgets/meter/../../../src/hal/../misc/lv_color.h ****     out[2] = LV_COLOR_GET_B(c);
 491:Middlewares/lvgl/examples/widgets/meter/../../../src/hal/../misc/lv_color.h **** #endif
ARM GAS  /tmp/ccJYH9fy.s 			page 18


 492:Middlewares/lvgl/examples/widgets/meter/../../../src/hal/../misc/lv_color.h **** 
 493:Middlewares/lvgl/examples/widgets/meter/../../../src/hal/../misc/lv_color.h **** }
 494:Middlewares/lvgl/examples/widgets/meter/../../../src/hal/../misc/lv_color.h **** 
 495:Middlewares/lvgl/examples/widgets/meter/../../../src/hal/../misc/lv_color.h **** /**
 496:Middlewares/lvgl/examples/widgets/meter/../../../src/hal/../misc/lv_color.h ****  * Mix two colors with a given ratio. It runs faster then `lv_color_mix` but requires some pre comp
 497:Middlewares/lvgl/examples/widgets/meter/../../../src/hal/../misc/lv_color.h ****  * @param premult_c1 The first color. Should be preprocessed with `lv_color_premult(c1)`
 498:Middlewares/lvgl/examples/widgets/meter/../../../src/hal/../misc/lv_color.h ****  * @param c2 The second color. As it is no pre computation required on it
 499:Middlewares/lvgl/examples/widgets/meter/../../../src/hal/../misc/lv_color.h ****  * @param mix The ratio of the colors. 0: full `c1`, 255: full `c2`, 127: half `c1` and half `c2`.
 500:Middlewares/lvgl/examples/widgets/meter/../../../src/hal/../misc/lv_color.h ****  *            Should be modified like mix = `255 - mix`
 501:Middlewares/lvgl/examples/widgets/meter/../../../src/hal/../misc/lv_color.h ****  * @return the mixed color
 502:Middlewares/lvgl/examples/widgets/meter/../../../src/hal/../misc/lv_color.h ****  * @note 255 won't give clearly `c1`.
 503:Middlewares/lvgl/examples/widgets/meter/../../../src/hal/../misc/lv_color.h ****  */
 504:Middlewares/lvgl/examples/widgets/meter/../../../src/hal/../misc/lv_color.h **** LV_ATTRIBUTE_FAST_MEM static inline lv_color_t lv_color_mix_premult(uint16_t * premult_c1, lv_color
 505:Middlewares/lvgl/examples/widgets/meter/../../../src/hal/../misc/lv_color.h **** {
 506:Middlewares/lvgl/examples/widgets/meter/../../../src/hal/../misc/lv_color.h ****     lv_color_t ret;
 507:Middlewares/lvgl/examples/widgets/meter/../../../src/hal/../misc/lv_color.h **** #if LV_COLOR_DEPTH != 1
 508:Middlewares/lvgl/examples/widgets/meter/../../../src/hal/../misc/lv_color.h ****     /*LV_COLOR_DEPTH == 8, 16 or 32*/
 509:Middlewares/lvgl/examples/widgets/meter/../../../src/hal/../misc/lv_color.h ****     LV_COLOR_SET_R(ret, LV_UDIV255(premult_c1[0] + LV_COLOR_GET_R(c2) * mix + LV_COLOR_MIX_ROUND_OF
 510:Middlewares/lvgl/examples/widgets/meter/../../../src/hal/../misc/lv_color.h ****     LV_COLOR_SET_G(ret, LV_UDIV255(premult_c1[1] + LV_COLOR_GET_G(c2) * mix + LV_COLOR_MIX_ROUND_OF
 511:Middlewares/lvgl/examples/widgets/meter/../../../src/hal/../misc/lv_color.h ****     LV_COLOR_SET_B(ret, LV_UDIV255(premult_c1[2] + LV_COLOR_GET_B(c2) * mix + LV_COLOR_MIX_ROUND_OF
 512:Middlewares/lvgl/examples/widgets/meter/../../../src/hal/../misc/lv_color.h ****     LV_COLOR_SET_A(ret, 0xFF);
 513:Middlewares/lvgl/examples/widgets/meter/../../../src/hal/../misc/lv_color.h **** #else
 514:Middlewares/lvgl/examples/widgets/meter/../../../src/hal/../misc/lv_color.h ****     /*LV_COLOR_DEPTH == 1*/
 515:Middlewares/lvgl/examples/widgets/meter/../../../src/hal/../misc/lv_color.h ****     /*Restore color1*/
 516:Middlewares/lvgl/examples/widgets/meter/../../../src/hal/../misc/lv_color.h ****     lv_color_t c1;
 517:Middlewares/lvgl/examples/widgets/meter/../../../src/hal/../misc/lv_color.h ****     LV_COLOR_SET_R(c1, premult_c1[0]);
 518:Middlewares/lvgl/examples/widgets/meter/../../../src/hal/../misc/lv_color.h ****     LV_COLOR_SET_G(c1, premult_c1[1]);
 519:Middlewares/lvgl/examples/widgets/meter/../../../src/hal/../misc/lv_color.h ****     LV_COLOR_SET_B(c1, premult_c1[2]);
 520:Middlewares/lvgl/examples/widgets/meter/../../../src/hal/../misc/lv_color.h ****     ret.full = mix > LV_OPA_50 ? c2.full : c1.full;
 521:Middlewares/lvgl/examples/widgets/meter/../../../src/hal/../misc/lv_color.h **** #endif
 522:Middlewares/lvgl/examples/widgets/meter/../../../src/hal/../misc/lv_color.h **** 
 523:Middlewares/lvgl/examples/widgets/meter/../../../src/hal/../misc/lv_color.h ****     return ret;
 524:Middlewares/lvgl/examples/widgets/meter/../../../src/hal/../misc/lv_color.h **** }
 525:Middlewares/lvgl/examples/widgets/meter/../../../src/hal/../misc/lv_color.h **** 
 526:Middlewares/lvgl/examples/widgets/meter/../../../src/hal/../misc/lv_color.h **** /**
 527:Middlewares/lvgl/examples/widgets/meter/../../../src/hal/../misc/lv_color.h ****  * Mix two colors. Both color can have alpha value.
 528:Middlewares/lvgl/examples/widgets/meter/../../../src/hal/../misc/lv_color.h ****  * @param bg_color background color
 529:Middlewares/lvgl/examples/widgets/meter/../../../src/hal/../misc/lv_color.h ****  * @param bg_opa alpha of the background color
 530:Middlewares/lvgl/examples/widgets/meter/../../../src/hal/../misc/lv_color.h ****  * @param fg_color foreground color
 531:Middlewares/lvgl/examples/widgets/meter/../../../src/hal/../misc/lv_color.h ****  * @param fg_opa alpha of the foreground color
 532:Middlewares/lvgl/examples/widgets/meter/../../../src/hal/../misc/lv_color.h ****  * @param res_color the result color
 533:Middlewares/lvgl/examples/widgets/meter/../../../src/hal/../misc/lv_color.h ****  * @param res_opa the result opacity
 534:Middlewares/lvgl/examples/widgets/meter/../../../src/hal/../misc/lv_color.h ****  */
 535:Middlewares/lvgl/examples/widgets/meter/../../../src/hal/../misc/lv_color.h **** LV_ATTRIBUTE_FAST_MEM static inline void lv_color_mix_with_alpha(lv_color_t bg_color, lv_opa_t bg_o
 536:Middlewares/lvgl/examples/widgets/meter/../../../src/hal/../misc/lv_color.h ****                                                                  lv_color_t fg_color, lv_opa_t fg_o
 537:Middlewares/lvgl/examples/widgets/meter/../../../src/hal/../misc/lv_color.h ****                                                                  lv_color_t * res_color, lv_opa_t *
 538:Middlewares/lvgl/examples/widgets/meter/../../../src/hal/../misc/lv_color.h **** {
 539:Middlewares/lvgl/examples/widgets/meter/../../../src/hal/../misc/lv_color.h ****     /*Pick the foreground if it's fully opaque or the Background is fully transparent*/
 540:Middlewares/lvgl/examples/widgets/meter/../../../src/hal/../misc/lv_color.h ****     if(fg_opa >= LV_OPA_MAX || bg_opa <= LV_OPA_MIN) {
 541:Middlewares/lvgl/examples/widgets/meter/../../../src/hal/../misc/lv_color.h ****         res_color->full = fg_color.full;
 542:Middlewares/lvgl/examples/widgets/meter/../../../src/hal/../misc/lv_color.h ****         *res_opa = fg_opa;
 543:Middlewares/lvgl/examples/widgets/meter/../../../src/hal/../misc/lv_color.h ****     }
 544:Middlewares/lvgl/examples/widgets/meter/../../../src/hal/../misc/lv_color.h ****     /*Transparent foreground: use the Background*/
 545:Middlewares/lvgl/examples/widgets/meter/../../../src/hal/../misc/lv_color.h ****     else if(fg_opa <= LV_OPA_MIN) {
 546:Middlewares/lvgl/examples/widgets/meter/../../../src/hal/../misc/lv_color.h ****         res_color->full = bg_color.full;
 547:Middlewares/lvgl/examples/widgets/meter/../../../src/hal/../misc/lv_color.h ****         *res_opa = bg_opa;
 548:Middlewares/lvgl/examples/widgets/meter/../../../src/hal/../misc/lv_color.h ****     }
ARM GAS  /tmp/ccJYH9fy.s 			page 19


 549:Middlewares/lvgl/examples/widgets/meter/../../../src/hal/../misc/lv_color.h ****     /*Opaque background: use simple mix*/
 550:Middlewares/lvgl/examples/widgets/meter/../../../src/hal/../misc/lv_color.h ****     else if(bg_opa >= LV_OPA_MAX) {
 551:Middlewares/lvgl/examples/widgets/meter/../../../src/hal/../misc/lv_color.h ****         *res_color = lv_color_mix(fg_color, bg_color, fg_opa);
 552:Middlewares/lvgl/examples/widgets/meter/../../../src/hal/../misc/lv_color.h ****         *res_opa = LV_OPA_COVER;
 553:Middlewares/lvgl/examples/widgets/meter/../../../src/hal/../misc/lv_color.h ****     }
 554:Middlewares/lvgl/examples/widgets/meter/../../../src/hal/../misc/lv_color.h ****     /*Both colors have alpha. Expensive calculation need to be applied*/
 555:Middlewares/lvgl/examples/widgets/meter/../../../src/hal/../misc/lv_color.h ****     else {
 556:Middlewares/lvgl/examples/widgets/meter/../../../src/hal/../misc/lv_color.h ****         /*Save the parameters and the result. If they will be asked again don't compute again*/
 557:Middlewares/lvgl/examples/widgets/meter/../../../src/hal/../misc/lv_color.h ****         static lv_opa_t fg_opa_save     = 0;
 558:Middlewares/lvgl/examples/widgets/meter/../../../src/hal/../misc/lv_color.h ****         static lv_opa_t bg_opa_save     = 0;
 559:Middlewares/lvgl/examples/widgets/meter/../../../src/hal/../misc/lv_color.h ****         static lv_color_t fg_color_save = _LV_COLOR_ZERO_INITIALIZER;
 560:Middlewares/lvgl/examples/widgets/meter/../../../src/hal/../misc/lv_color.h ****         static lv_color_t bg_color_save = _LV_COLOR_ZERO_INITIALIZER;
 561:Middlewares/lvgl/examples/widgets/meter/../../../src/hal/../misc/lv_color.h ****         static lv_color_t res_color_saved = _LV_COLOR_ZERO_INITIALIZER;
 562:Middlewares/lvgl/examples/widgets/meter/../../../src/hal/../misc/lv_color.h ****         static lv_opa_t res_opa_saved = 0;
 563:Middlewares/lvgl/examples/widgets/meter/../../../src/hal/../misc/lv_color.h **** 
 564:Middlewares/lvgl/examples/widgets/meter/../../../src/hal/../misc/lv_color.h ****         if(fg_opa != fg_opa_save || bg_opa != bg_opa_save || fg_color.full != fg_color_save.full ||
 565:Middlewares/lvgl/examples/widgets/meter/../../../src/hal/../misc/lv_color.h ****            bg_color.full != bg_color_save.full) {
 566:Middlewares/lvgl/examples/widgets/meter/../../../src/hal/../misc/lv_color.h ****             fg_opa_save        = fg_opa;
 567:Middlewares/lvgl/examples/widgets/meter/../../../src/hal/../misc/lv_color.h ****             bg_opa_save        = bg_opa;
 568:Middlewares/lvgl/examples/widgets/meter/../../../src/hal/../misc/lv_color.h ****             fg_color_save.full = fg_color.full;
 569:Middlewares/lvgl/examples/widgets/meter/../../../src/hal/../misc/lv_color.h ****             bg_color_save.full = bg_color.full;
 570:Middlewares/lvgl/examples/widgets/meter/../../../src/hal/../misc/lv_color.h ****             /*Info:
 571:Middlewares/lvgl/examples/widgets/meter/../../../src/hal/../misc/lv_color.h ****              * https://en.wikipedia.org/wiki/Alpha_compositing#Analytical_derivation_of_the_over_op
 572:Middlewares/lvgl/examples/widgets/meter/../../../src/hal/../misc/lv_color.h ****             res_opa_saved = 255 - ((uint16_t)((uint16_t)(255 - fg_opa) * (255 - bg_opa)) >> 8);
 573:Middlewares/lvgl/examples/widgets/meter/../../../src/hal/../misc/lv_color.h ****             if(res_opa_saved == 0) {
 574:Middlewares/lvgl/examples/widgets/meter/../../../src/hal/../misc/lv_color.h ****                 while(1)
 575:Middlewares/lvgl/examples/widgets/meter/../../../src/hal/../misc/lv_color.h ****                     ;
 576:Middlewares/lvgl/examples/widgets/meter/../../../src/hal/../misc/lv_color.h ****             }
 577:Middlewares/lvgl/examples/widgets/meter/../../../src/hal/../misc/lv_color.h ****             lv_opa_t ratio = (uint16_t)((uint16_t)fg_opa * 255) / res_opa_saved;
 578:Middlewares/lvgl/examples/widgets/meter/../../../src/hal/../misc/lv_color.h ****             res_color_saved = lv_color_mix(fg_color, bg_color, ratio);
 579:Middlewares/lvgl/examples/widgets/meter/../../../src/hal/../misc/lv_color.h **** 
 580:Middlewares/lvgl/examples/widgets/meter/../../../src/hal/../misc/lv_color.h ****         }
 581:Middlewares/lvgl/examples/widgets/meter/../../../src/hal/../misc/lv_color.h **** 
 582:Middlewares/lvgl/examples/widgets/meter/../../../src/hal/../misc/lv_color.h ****         res_color->full = res_color_saved.full;
 583:Middlewares/lvgl/examples/widgets/meter/../../../src/hal/../misc/lv_color.h ****         *res_opa = res_opa_saved;
 584:Middlewares/lvgl/examples/widgets/meter/../../../src/hal/../misc/lv_color.h ****     }
 585:Middlewares/lvgl/examples/widgets/meter/../../../src/hal/../misc/lv_color.h **** }
 586:Middlewares/lvgl/examples/widgets/meter/../../../src/hal/../misc/lv_color.h **** 
 587:Middlewares/lvgl/examples/widgets/meter/../../../src/hal/../misc/lv_color.h **** //! @endcond
 588:Middlewares/lvgl/examples/widgets/meter/../../../src/hal/../misc/lv_color.h **** 
 589:Middlewares/lvgl/examples/widgets/meter/../../../src/hal/../misc/lv_color.h **** /**
 590:Middlewares/lvgl/examples/widgets/meter/../../../src/hal/../misc/lv_color.h ****  * Get the brightness of a color
 591:Middlewares/lvgl/examples/widgets/meter/../../../src/hal/../misc/lv_color.h ****  * @param color a color
 592:Middlewares/lvgl/examples/widgets/meter/../../../src/hal/../misc/lv_color.h ****  * @return the brightness [0..255]
 593:Middlewares/lvgl/examples/widgets/meter/../../../src/hal/../misc/lv_color.h ****  */
 594:Middlewares/lvgl/examples/widgets/meter/../../../src/hal/../misc/lv_color.h **** static inline uint8_t lv_color_brightness(lv_color_t color)
 595:Middlewares/lvgl/examples/widgets/meter/../../../src/hal/../misc/lv_color.h **** {
 596:Middlewares/lvgl/examples/widgets/meter/../../../src/hal/../misc/lv_color.h ****     lv_color32_t c32;
 597:Middlewares/lvgl/examples/widgets/meter/../../../src/hal/../misc/lv_color.h ****     c32.full        = lv_color_to32(color);
 598:Middlewares/lvgl/examples/widgets/meter/../../../src/hal/../misc/lv_color.h ****     uint16_t bright = (uint16_t)(3u * LV_COLOR_GET_R32(c32) + LV_COLOR_GET_B32(c32) + 4u * LV_COLOR
 599:Middlewares/lvgl/examples/widgets/meter/../../../src/hal/../misc/lv_color.h ****     return (uint8_t)(bright >> 3);
 600:Middlewares/lvgl/examples/widgets/meter/../../../src/hal/../misc/lv_color.h **** }
 601:Middlewares/lvgl/examples/widgets/meter/../../../src/hal/../misc/lv_color.h **** 
 602:Middlewares/lvgl/examples/widgets/meter/../../../src/hal/../misc/lv_color.h **** static inline lv_color_t lv_color_make(uint8_t r, uint8_t g, uint8_t b)
 603:Middlewares/lvgl/examples/widgets/meter/../../../src/hal/../misc/lv_color.h **** {
 604:Middlewares/lvgl/examples/widgets/meter/../../../src/hal/../misc/lv_color.h ****     return _LV_COLOR_MAKE_TYPE_HELPER LV_COLOR_MAKE(r, g, b);
 605:Middlewares/lvgl/examples/widgets/meter/../../../src/hal/../misc/lv_color.h **** }
ARM GAS  /tmp/ccJYH9fy.s 			page 20


 606:Middlewares/lvgl/examples/widgets/meter/../../../src/hal/../misc/lv_color.h **** 
 607:Middlewares/lvgl/examples/widgets/meter/../../../src/hal/../misc/lv_color.h **** static inline lv_color_t lv_color_hex(uint32_t c)
 608:Middlewares/lvgl/examples/widgets/meter/../../../src/hal/../misc/lv_color.h **** {
 609:Middlewares/lvgl/examples/widgets/meter/../../../src/hal/../misc/lv_color.h ****     return lv_color_make((uint8_t)((c >> 16) & 0xFF), (uint8_t)((c >> 8) & 0xFF), (uint8_t)(c & 0xF
 610:Middlewares/lvgl/examples/widgets/meter/../../../src/hal/../misc/lv_color.h **** }
 611:Middlewares/lvgl/examples/widgets/meter/../../../src/hal/../misc/lv_color.h **** 
 612:Middlewares/lvgl/examples/widgets/meter/../../../src/hal/../misc/lv_color.h **** static inline lv_color_t lv_color_hex3(uint32_t c)
 613:Middlewares/lvgl/examples/widgets/meter/../../../src/hal/../misc/lv_color.h **** {
 614:Middlewares/lvgl/examples/widgets/meter/../../../src/hal/../misc/lv_color.h ****     return lv_color_make((uint8_t)(((c >> 4) & 0xF0) | ((c >> 8) & 0xF)), (uint8_t)((c & 0xF0) | ((
 615:Middlewares/lvgl/examples/widgets/meter/../../../src/hal/../misc/lv_color.h ****                          (uint8_t)((c & 0xF) | ((c & 0xF) << 4)));
 616:Middlewares/lvgl/examples/widgets/meter/../../../src/hal/../misc/lv_color.h **** }
 617:Middlewares/lvgl/examples/widgets/meter/../../../src/hal/../misc/lv_color.h **** 
 618:Middlewares/lvgl/examples/widgets/meter/../../../src/hal/../misc/lv_color.h **** static inline void lv_color_filter_dsc_init(lv_color_filter_dsc_t * dsc, lv_color_filter_cb_t cb)
 619:Middlewares/lvgl/examples/widgets/meter/../../../src/hal/../misc/lv_color.h **** {
 620:Middlewares/lvgl/examples/widgets/meter/../../../src/hal/../misc/lv_color.h ****     dsc->filter_cb = cb;
 621:Middlewares/lvgl/examples/widgets/meter/../../../src/hal/../misc/lv_color.h **** }
 622:Middlewares/lvgl/examples/widgets/meter/../../../src/hal/../misc/lv_color.h **** 
 623:Middlewares/lvgl/examples/widgets/meter/../../../src/hal/../misc/lv_color.h **** //! @cond Doxygen_Suppress
 624:Middlewares/lvgl/examples/widgets/meter/../../../src/hal/../misc/lv_color.h **** //!
 625:Middlewares/lvgl/examples/widgets/meter/../../../src/hal/../misc/lv_color.h **** LV_ATTRIBUTE_FAST_MEM void lv_color_fill(lv_color_t * buf, lv_color_t color, uint32_t px_num);
 626:Middlewares/lvgl/examples/widgets/meter/../../../src/hal/../misc/lv_color.h **** 
 627:Middlewares/lvgl/examples/widgets/meter/../../../src/hal/../misc/lv_color.h **** //! @endcond
 628:Middlewares/lvgl/examples/widgets/meter/../../../src/hal/../misc/lv_color.h **** lv_color_t lv_color_lighten(lv_color_t c, lv_opa_t lvl);
 629:Middlewares/lvgl/examples/widgets/meter/../../../src/hal/../misc/lv_color.h **** 
 630:Middlewares/lvgl/examples/widgets/meter/../../../src/hal/../misc/lv_color.h **** lv_color_t lv_color_darken(lv_color_t c, lv_opa_t lvl);
 631:Middlewares/lvgl/examples/widgets/meter/../../../src/hal/../misc/lv_color.h **** 
 632:Middlewares/lvgl/examples/widgets/meter/../../../src/hal/../misc/lv_color.h **** lv_color_t lv_color_change_lightness(lv_color_t c, lv_opa_t lvl);
 633:Middlewares/lvgl/examples/widgets/meter/../../../src/hal/../misc/lv_color.h **** 
 634:Middlewares/lvgl/examples/widgets/meter/../../../src/hal/../misc/lv_color.h **** /**
 635:Middlewares/lvgl/examples/widgets/meter/../../../src/hal/../misc/lv_color.h ****  * Convert a HSV color to RGB
 636:Middlewares/lvgl/examples/widgets/meter/../../../src/hal/../misc/lv_color.h ****  * @param h hue [0..359]
 637:Middlewares/lvgl/examples/widgets/meter/../../../src/hal/../misc/lv_color.h ****  * @param s saturation [0..100]
 638:Middlewares/lvgl/examples/widgets/meter/../../../src/hal/../misc/lv_color.h ****  * @param v value [0..100]
 639:Middlewares/lvgl/examples/widgets/meter/../../../src/hal/../misc/lv_color.h ****  * @return the given RGB color in RGB (with LV_COLOR_DEPTH depth)
 640:Middlewares/lvgl/examples/widgets/meter/../../../src/hal/../misc/lv_color.h ****  */
 641:Middlewares/lvgl/examples/widgets/meter/../../../src/hal/../misc/lv_color.h **** lv_color_t lv_color_hsv_to_rgb(uint16_t h, uint8_t s, uint8_t v);
 642:Middlewares/lvgl/examples/widgets/meter/../../../src/hal/../misc/lv_color.h **** 
 643:Middlewares/lvgl/examples/widgets/meter/../../../src/hal/../misc/lv_color.h **** /**
 644:Middlewares/lvgl/examples/widgets/meter/../../../src/hal/../misc/lv_color.h ****  * Convert a 32-bit RGB color to HSV
 645:Middlewares/lvgl/examples/widgets/meter/../../../src/hal/../misc/lv_color.h ****  * @param r8 8-bit red
 646:Middlewares/lvgl/examples/widgets/meter/../../../src/hal/../misc/lv_color.h ****  * @param g8 8-bit green
 647:Middlewares/lvgl/examples/widgets/meter/../../../src/hal/../misc/lv_color.h ****  * @param b8 8-bit blue
 648:Middlewares/lvgl/examples/widgets/meter/../../../src/hal/../misc/lv_color.h ****  * @return the given RGB color in HSV
 649:Middlewares/lvgl/examples/widgets/meter/../../../src/hal/../misc/lv_color.h ****  */
 650:Middlewares/lvgl/examples/widgets/meter/../../../src/hal/../misc/lv_color.h **** lv_color_hsv_t lv_color_rgb_to_hsv(uint8_t r8, uint8_t g8, uint8_t b8);
 651:Middlewares/lvgl/examples/widgets/meter/../../../src/hal/../misc/lv_color.h **** 
 652:Middlewares/lvgl/examples/widgets/meter/../../../src/hal/../misc/lv_color.h **** /**
 653:Middlewares/lvgl/examples/widgets/meter/../../../src/hal/../misc/lv_color.h ****  * Convert a color to HSV
 654:Middlewares/lvgl/examples/widgets/meter/../../../src/hal/../misc/lv_color.h ****  * @param color color
 655:Middlewares/lvgl/examples/widgets/meter/../../../src/hal/../misc/lv_color.h ****  * @return the given color in HSV
 656:Middlewares/lvgl/examples/widgets/meter/../../../src/hal/../misc/lv_color.h ****  */
 657:Middlewares/lvgl/examples/widgets/meter/../../../src/hal/../misc/lv_color.h **** lv_color_hsv_t lv_color_to_hsv(lv_color_t color);
 658:Middlewares/lvgl/examples/widgets/meter/../../../src/hal/../misc/lv_color.h **** 
 659:Middlewares/lvgl/examples/widgets/meter/../../../src/hal/../misc/lv_color.h **** /**
 660:Middlewares/lvgl/examples/widgets/meter/../../../src/hal/../misc/lv_color.h ****  * Just a wrapper around LV_COLOR_CHROMA_KEY because it might be more convenient to use a function 
 661:Middlewares/lvgl/examples/widgets/meter/../../../src/hal/../misc/lv_color.h ****  * @return LV_COLOR_CHROMA_KEY
 662:Middlewares/lvgl/examples/widgets/meter/../../../src/hal/../misc/lv_color.h ****  */
ARM GAS  /tmp/ccJYH9fy.s 			page 21


 663:Middlewares/lvgl/examples/widgets/meter/../../../src/hal/../misc/lv_color.h **** static inline lv_color_t lv_color_chroma_key(void)
 664:Middlewares/lvgl/examples/widgets/meter/../../../src/hal/../misc/lv_color.h **** {
 665:Middlewares/lvgl/examples/widgets/meter/../../../src/hal/../misc/lv_color.h ****     return LV_COLOR_CHROMA_KEY;
 666:Middlewares/lvgl/examples/widgets/meter/../../../src/hal/../misc/lv_color.h **** }
 667:Middlewares/lvgl/examples/widgets/meter/../../../src/hal/../misc/lv_color.h **** 
 668:Middlewares/lvgl/examples/widgets/meter/../../../src/hal/../misc/lv_color.h **** /**********************
 669:Middlewares/lvgl/examples/widgets/meter/../../../src/hal/../misc/lv_color.h ****  *  PREDEFINED COLORS
 670:Middlewares/lvgl/examples/widgets/meter/../../../src/hal/../misc/lv_color.h ****  **********************/
 671:Middlewares/lvgl/examples/widgets/meter/../../../src/hal/../misc/lv_color.h **** /*Source: https://vuetifyjs.com/en/styles/colors/#material-colors*/
 672:Middlewares/lvgl/examples/widgets/meter/../../../src/hal/../misc/lv_color.h **** 
 673:Middlewares/lvgl/examples/widgets/meter/../../../src/hal/../misc/lv_color.h **** lv_color_t lv_palette_main(lv_palette_t p);
 674:Middlewares/lvgl/examples/widgets/meter/../../../src/hal/../misc/lv_color.h **** static inline lv_color_t lv_color_white(void) { return lv_color_make(0xff, 0xff, 0xff);}
 675:Middlewares/lvgl/examples/widgets/meter/../../../src/hal/../misc/lv_color.h **** static inline lv_color_t lv_color_black(void) { return lv_color_make(0x00, 0x0, 0x00);}
 107              		.loc 4 675 26 view .LVU16
 108              	.LBE21:
 109              		.loc 4 675 49 view .LVU17
 110              	.LBB24:
 111              	.LBB22:
 112              	.LBI22:
 602:Middlewares/lvgl/examples/widgets/meter/../../../src/hal/../misc/lv_color.h **** {
 113              		.loc 4 602 26 view .LVU18
 114              	.LBB23:
 604:Middlewares/lvgl/examples/widgets/meter/../../../src/hal/../misc/lv_color.h **** }
 115              		.loc 4 604 5 view .LVU19
 604:Middlewares/lvgl/examples/widgets/meter/../../../src/hal/../misc/lv_color.h **** }
 116              		.loc 4 604 12 is_stmt 0 view .LVU20
 117 0044 4FF00003 		mov	r3, #0	@ movhi
 118              	.LVL10:
 604:Middlewares/lvgl/examples/widgets/meter/../../../src/hal/../misc/lv_color.h **** }
 119              		.loc 4 604 12 view .LVU21
 120              	.LBE23:
 121              	.LBE22:
 122              	.LBE24:
 123              		.loc 1 20 5 view .LVU22
 124 0048 ADF80430 		strh	r3, [sp, #4]	@ movhi
 125 004c 0025     		movs	r5, #0
 126 004e 0095     		str	r5, [sp]
 127 0050 2B46     		mov	r3, r5
 128 0052 2A46     		mov	r2, r5
 129 0054 0146     		mov	r1, r0
 130 0056 2046     		mov	r0, r4
 131              	.LVL11:
 132              		.loc 1 20 5 view .LVU23
 133 0058 FFF7FEFF 		bl	lv_meter_set_scale_ticks
 134              	.LVL12:
  21:Middlewares/lvgl/examples/widgets/meter/lv_example_meter_4.c ****     lv_meter_set_scale_range(meter, scale, 0, 100, 360, 0);
 135              		.loc 1 21 5 is_stmt 1 view .LVU24
 136 005c 0195     		str	r5, [sp, #4]
 137 005e 4FF4B473 		mov	r3, #360
 138 0062 0093     		str	r3, [sp]
 139 0064 6423     		movs	r3, #100
 140 0066 2A46     		mov	r2, r5
 141 0068 3146     		mov	r1, r6
 142 006a 2046     		mov	r0, r4
 143 006c FFF7FEFF 		bl	lv_meter_set_scale_range
 144              	.LVL13:
  22:Middlewares/lvgl/examples/widgets/meter/lv_example_meter_4.c **** 
ARM GAS  /tmp/ccJYH9fy.s 			page 22


  23:Middlewares/lvgl/examples/widgets/meter/lv_example_meter_4.c ****     /*Add a three arc indicator*/
  24:Middlewares/lvgl/examples/widgets/meter/lv_example_meter_4.c ****     lv_coord_t indic_w = 100;
 145              		.loc 1 24 5 view .LVU25
  25:Middlewares/lvgl/examples/widgets/meter/lv_example_meter_4.c ****     lv_meter_indicator_t * indic1 = lv_meter_add_arc(meter, scale, indic_w,lv_palette_main(LV_PALET
 146              		.loc 1 25 5 view .LVU26
 147              		.loc 1 25 37 is_stmt 0 view .LVU27
 148 0070 0E20     		movs	r0, #14
 149 0072 FFF7FEFF 		bl	lv_palette_main
 150              	.LVL14:
 151 0076 0346     		mov	r3, r0	@ movhi
 152 0078 0095     		str	r5, [sp]
 153 007a 6422     		movs	r2, #100
 154 007c 3146     		mov	r1, r6
 155 007e 2046     		mov	r0, r4
 156 0080 FFF7FEFF 		bl	lv_meter_add_arc
 157              	.LVL15:
 158 0084 0746     		mov	r7, r0
 159              	.LVL16:
  26:Middlewares/lvgl/examples/widgets/meter/lv_example_meter_4.c ****     lv_meter_set_indicator_start_value(meter, indic1, 0);
 160              		.loc 1 26 5 is_stmt 1 view .LVU28
 161 0086 2A46     		mov	r2, r5
 162 0088 0146     		mov	r1, r0
 163 008a 2046     		mov	r0, r4
 164              	.LVL17:
 165              		.loc 1 26 5 is_stmt 0 view .LVU29
 166 008c FFF7FEFF 		bl	lv_meter_set_indicator_start_value
 167              	.LVL18:
  27:Middlewares/lvgl/examples/widgets/meter/lv_example_meter_4.c ****     lv_meter_set_indicator_end_value(meter, indic1, 40);
 168              		.loc 1 27 5 is_stmt 1 view .LVU30
 169 0090 2822     		movs	r2, #40
 170 0092 3946     		mov	r1, r7
 171 0094 2046     		mov	r0, r4
 172 0096 FFF7FEFF 		bl	lv_meter_set_indicator_end_value
 173              	.LVL19:
  28:Middlewares/lvgl/examples/widgets/meter/lv_example_meter_4.c **** 
  29:Middlewares/lvgl/examples/widgets/meter/lv_example_meter_4.c ****     lv_meter_indicator_t * indic2 = lv_meter_add_arc(meter, scale, indic_w, lv_palette_main(LV_PALE
 174              		.loc 1 29 5 view .LVU31
 175              		.loc 1 29 37 is_stmt 0 view .LVU32
 176 009a 0C20     		movs	r0, #12
 177 009c FFF7FEFF 		bl	lv_palette_main
 178              	.LVL20:
 179 00a0 0346     		mov	r3, r0	@ movhi
 180 00a2 0095     		str	r5, [sp]
 181 00a4 6422     		movs	r2, #100
 182 00a6 3146     		mov	r1, r6
 183 00a8 2046     		mov	r0, r4
 184 00aa FFF7FEFF 		bl	lv_meter_add_arc
 185              	.LVL21:
 186 00ae 0746     		mov	r7, r0
 187              	.LVL22:
  30:Middlewares/lvgl/examples/widgets/meter/lv_example_meter_4.c ****     lv_meter_set_indicator_start_value(meter, indic2, 40);  /*Start from the previous*/
 188              		.loc 1 30 5 is_stmt 1 view .LVU33
 189 00b0 2822     		movs	r2, #40
 190 00b2 0146     		mov	r1, r0
 191 00b4 2046     		mov	r0, r4
 192              	.LVL23:
 193              		.loc 1 30 5 is_stmt 0 view .LVU34
ARM GAS  /tmp/ccJYH9fy.s 			page 23


 194 00b6 FFF7FEFF 		bl	lv_meter_set_indicator_start_value
 195              	.LVL24:
  31:Middlewares/lvgl/examples/widgets/meter/lv_example_meter_4.c ****     lv_meter_set_indicator_end_value(meter, indic2, 80);
 196              		.loc 1 31 5 is_stmt 1 view .LVU35
 197 00ba 5022     		movs	r2, #80
 198 00bc 3946     		mov	r1, r7
 199 00be 2046     		mov	r0, r4
 200 00c0 FFF7FEFF 		bl	lv_meter_set_indicator_end_value
 201              	.LVL25:
  32:Middlewares/lvgl/examples/widgets/meter/lv_example_meter_4.c **** 
  33:Middlewares/lvgl/examples/widgets/meter/lv_example_meter_4.c ****     lv_meter_indicator_t * indic3 = lv_meter_add_arc(meter, scale, indic_w, lv_palette_main(LV_PALE
 202              		.loc 1 33 5 view .LVU36
 203              		.loc 1 33 37 is_stmt 0 view .LVU37
 204 00c4 0F20     		movs	r0, #15
 205 00c6 FFF7FEFF 		bl	lv_palette_main
 206              	.LVL26:
 207 00ca 0346     		mov	r3, r0	@ movhi
 208 00cc 0095     		str	r5, [sp]
 209 00ce 6422     		movs	r2, #100
 210 00d0 3146     		mov	r1, r6
 211 00d2 2046     		mov	r0, r4
 212 00d4 FFF7FEFF 		bl	lv_meter_add_arc
 213              	.LVL27:
 214 00d8 0546     		mov	r5, r0
 215              	.LVL28:
  34:Middlewares/lvgl/examples/widgets/meter/lv_example_meter_4.c ****     lv_meter_set_indicator_start_value(meter, indic3, 80);  /*Start from the previous*/
 216              		.loc 1 34 5 is_stmt 1 view .LVU38
 217 00da 5022     		movs	r2, #80
 218 00dc 0146     		mov	r1, r0
 219 00de 2046     		mov	r0, r4
 220              	.LVL29:
 221              		.loc 1 34 5 is_stmt 0 view .LVU39
 222 00e0 FFF7FEFF 		bl	lv_meter_set_indicator_start_value
 223              	.LVL30:
  35:Middlewares/lvgl/examples/widgets/meter/lv_example_meter_4.c ****     lv_meter_set_indicator_end_value(meter, indic3, 100);
 224              		.loc 1 35 5 is_stmt 1 view .LVU40
 225 00e4 6422     		movs	r2, #100
 226 00e6 2946     		mov	r1, r5
 227 00e8 2046     		mov	r0, r4
 228 00ea FFF7FEFF 		bl	lv_meter_set_indicator_end_value
 229              	.LVL31:
  36:Middlewares/lvgl/examples/widgets/meter/lv_example_meter_4.c **** }
 230              		.loc 1 36 1 is_stmt 0 view .LVU41
 231 00ee 03B0     		add	sp, sp, #12
 232              	.LCFI2:
 233              		.cfi_def_cfa_offset 20
 234              		@ sp needed
 235 00f0 F0BD     		pop	{r4, r5, r6, r7, pc}
 236              		.loc 1 36 1 view .LVU42
 237              		.cfi_endproc
 238              	.LFE184:
 240              		.text
 241              	.Letext0:
 242              		.file 5 "/home/akinya/gcc-arm-none-eabi/arm-none-eabi/include/machine/_default_types.h"
 243              		.file 6 "/home/akinya/gcc-arm-none-eabi/arm-none-eabi/include/sys/_stdint.h"
 244              		.file 7 "Middlewares/lvgl/examples/widgets/meter/../../../src/misc/lv_ll.h"
 245              		.file 8 "Middlewares/lvgl/examples/widgets/meter/../../../src/hal/../misc/lv_area.h"
ARM GAS  /tmp/ccJYH9fy.s 			page 24


 246              		.file 9 "Middlewares/lvgl/examples/widgets/meter/../../../src/core/lv_obj.h"
 247              		.file 10 "Middlewares/lvgl/examples/widgets/meter/../../../src/core/lv_group.h"
 248              		.file 11 "Middlewares/lvgl/examples/widgets/meter/../../../src/core/../misc/lv_style.h"
 249              		.file 12 "Middlewares/lvgl/examples/widgets/meter/../../../src/core/lv_obj_scroll.h"
 250              		.file 13 "Middlewares/lvgl/examples/widgets/meter/../../../src/core/lv_obj_style.h"
 251              		.file 14 "Middlewares/lvgl/examples/widgets/meter/../../../src/core/lv_obj_class.h"
 252              		.file 15 "Middlewares/lvgl/examples/widgets/meter/../../../src/core/lv_event.h"
 253              		.file 16 "Middlewares/lvgl/examples/widgets/meter/../../../src/extra/widgets/meter/lv_meter.h"
 254              		.file 17 "Middlewares/lvgl/examples/widgets/meter/../../../src/hal/lv_hal_disp.h"
ARM GAS  /tmp/ccJYH9fy.s 			page 25

