ARM GAS  /tmp/ccMI40i9.s 			page 1


   1              		.cpu cortex-m4
   2              		.arch armv7e-m
   3              		.fpu fpv4-sp-d16
   4              		.eabi_attribute 27, 1
   5              		.eabi_attribute 28, 1
   6              		.eabi_attribute 20, 1
   7              		.eabi_attribute 21, 1
   8              		.eabi_attribute 23, 3
   9              		.eabi_attribute 24, 1
  10              		.eabi_attribute 25, 1
  11              		.eabi_attribute 26, 1
  12              		.eabi_attribute 30, 1
  13              		.eabi_attribute 34, 1
  14              		.eabi_attribute 18, 4
  15              		.file	"lv_example_textarea_2.c"
  16              		.text
  17              	.Ltext0:
  18              		.cfi_sections	.debug_frame
  19              		.section	.text.ta_event_cb,"ax",%progbits
  20              		.align	1
  21              		.syntax unified
  22              		.thumb
  23              		.thumb_func
  25              	ta_event_cb:
  26              	.LVL0:
  27              	.LFB185:
  28              		.file 1 "Middlewares/lvgl/examples/widgets/textarea/lv_example_textarea_2.c"
   1:Middlewares/lvgl/examples/widgets/textarea/lv_example_textarea_2.c **** #include "../../lv_examples.h"
   2:Middlewares/lvgl/examples/widgets/textarea/lv_example_textarea_2.c **** #if LV_USE_TEXTAREA && LV_USE_KEYBOARD && LV_BUILD_EXAMPLES
   3:Middlewares/lvgl/examples/widgets/textarea/lv_example_textarea_2.c **** 
   4:Middlewares/lvgl/examples/widgets/textarea/lv_example_textarea_2.c **** static void ta_event_cb(lv_event_t * e);
   5:Middlewares/lvgl/examples/widgets/textarea/lv_example_textarea_2.c **** 
   6:Middlewares/lvgl/examples/widgets/textarea/lv_example_textarea_2.c **** static lv_obj_t * kb;
   7:Middlewares/lvgl/examples/widgets/textarea/lv_example_textarea_2.c **** 
   8:Middlewares/lvgl/examples/widgets/textarea/lv_example_textarea_2.c **** void lv_example_textarea_2(void)
   9:Middlewares/lvgl/examples/widgets/textarea/lv_example_textarea_2.c **** {
  10:Middlewares/lvgl/examples/widgets/textarea/lv_example_textarea_2.c ****     /*Create the password box*/
  11:Middlewares/lvgl/examples/widgets/textarea/lv_example_textarea_2.c ****     lv_obj_t * pwd_ta = lv_textarea_create(lv_scr_act());
  12:Middlewares/lvgl/examples/widgets/textarea/lv_example_textarea_2.c ****     lv_textarea_set_text(pwd_ta, "");
  13:Middlewares/lvgl/examples/widgets/textarea/lv_example_textarea_2.c ****     lv_textarea_set_password_mode(pwd_ta, true);
  14:Middlewares/lvgl/examples/widgets/textarea/lv_example_textarea_2.c ****     lv_textarea_set_one_line(pwd_ta, true);
  15:Middlewares/lvgl/examples/widgets/textarea/lv_example_textarea_2.c ****     lv_obj_set_width(pwd_ta, lv_pct(40));
  16:Middlewares/lvgl/examples/widgets/textarea/lv_example_textarea_2.c ****     lv_obj_set_pos(pwd_ta, 5, 20);
  17:Middlewares/lvgl/examples/widgets/textarea/lv_example_textarea_2.c ****     lv_obj_add_event_cb(pwd_ta, ta_event_cb, LV_EVENT_ALL, NULL);
  18:Middlewares/lvgl/examples/widgets/textarea/lv_example_textarea_2.c **** 
  19:Middlewares/lvgl/examples/widgets/textarea/lv_example_textarea_2.c ****     /*Create a label and position it above the text box*/
  20:Middlewares/lvgl/examples/widgets/textarea/lv_example_textarea_2.c ****     lv_obj_t * pwd_label = lv_label_create(lv_scr_act());
  21:Middlewares/lvgl/examples/widgets/textarea/lv_example_textarea_2.c ****     lv_label_set_text(pwd_label, "Password:");
  22:Middlewares/lvgl/examples/widgets/textarea/lv_example_textarea_2.c ****     lv_obj_align_to(pwd_label, pwd_ta, LV_ALIGN_OUT_TOP_LEFT, 0, 0);
  23:Middlewares/lvgl/examples/widgets/textarea/lv_example_textarea_2.c **** 
  24:Middlewares/lvgl/examples/widgets/textarea/lv_example_textarea_2.c ****     /*Create the one-line mode text area*/
  25:Middlewares/lvgl/examples/widgets/textarea/lv_example_textarea_2.c ****     lv_obj_t * text_ta = lv_textarea_create(lv_scr_act());
  26:Middlewares/lvgl/examples/widgets/textarea/lv_example_textarea_2.c ****     lv_textarea_set_one_line(text_ta, true);
  27:Middlewares/lvgl/examples/widgets/textarea/lv_example_textarea_2.c ****     lv_textarea_set_password_mode(text_ta, false);
  28:Middlewares/lvgl/examples/widgets/textarea/lv_example_textarea_2.c ****     lv_obj_set_width(text_ta, lv_pct(40));
  29:Middlewares/lvgl/examples/widgets/textarea/lv_example_textarea_2.c ****     lv_obj_add_event_cb(text_ta, ta_event_cb, LV_EVENT_ALL, NULL);
  30:Middlewares/lvgl/examples/widgets/textarea/lv_example_textarea_2.c ****     lv_obj_align(text_ta, LV_ALIGN_TOP_RIGHT, -5, 20);
ARM GAS  /tmp/ccMI40i9.s 			page 2


  31:Middlewares/lvgl/examples/widgets/textarea/lv_example_textarea_2.c **** 
  32:Middlewares/lvgl/examples/widgets/textarea/lv_example_textarea_2.c **** 
  33:Middlewares/lvgl/examples/widgets/textarea/lv_example_textarea_2.c ****     /*Create a label and position it above the text box*/
  34:Middlewares/lvgl/examples/widgets/textarea/lv_example_textarea_2.c ****     lv_obj_t * oneline_label = lv_label_create(lv_scr_act());
  35:Middlewares/lvgl/examples/widgets/textarea/lv_example_textarea_2.c ****     lv_label_set_text(oneline_label, "Text:");
  36:Middlewares/lvgl/examples/widgets/textarea/lv_example_textarea_2.c ****     lv_obj_align_to(oneline_label, text_ta, LV_ALIGN_OUT_TOP_LEFT, 0, 0);
  37:Middlewares/lvgl/examples/widgets/textarea/lv_example_textarea_2.c **** 
  38:Middlewares/lvgl/examples/widgets/textarea/lv_example_textarea_2.c ****     /*Create a keyboard*/
  39:Middlewares/lvgl/examples/widgets/textarea/lv_example_textarea_2.c ****     kb = lv_keyboard_create(lv_scr_act());
  40:Middlewares/lvgl/examples/widgets/textarea/lv_example_textarea_2.c ****     lv_obj_set_size(kb,  LV_HOR_RES, LV_VER_RES / 2);
  41:Middlewares/lvgl/examples/widgets/textarea/lv_example_textarea_2.c **** 
  42:Middlewares/lvgl/examples/widgets/textarea/lv_example_textarea_2.c ****     lv_keyboard_set_textarea(kb, pwd_ta); /*Focus it on one of the text areas to start*/
  43:Middlewares/lvgl/examples/widgets/textarea/lv_example_textarea_2.c **** }
  44:Middlewares/lvgl/examples/widgets/textarea/lv_example_textarea_2.c **** 
  45:Middlewares/lvgl/examples/widgets/textarea/lv_example_textarea_2.c **** static void ta_event_cb(lv_event_t * e)
  46:Middlewares/lvgl/examples/widgets/textarea/lv_example_textarea_2.c **** {
  29              		.loc 1 46 1 view -0
  30              		.cfi_startproc
  31              		@ args = 0, pretend = 0, frame = 0
  32              		@ frame_needed = 0, uses_anonymous_args = 0
  33              		.loc 1 46 1 is_stmt 0 view .LVU1
  34 0000 38B5     		push	{r3, r4, r5, lr}
  35              	.LCFI0:
  36              		.cfi_def_cfa_offset 16
  37              		.cfi_offset 3, -16
  38              		.cfi_offset 4, -12
  39              		.cfi_offset 5, -8
  40              		.cfi_offset 14, -4
  41 0002 0546     		mov	r5, r0
  47:Middlewares/lvgl/examples/widgets/textarea/lv_example_textarea_2.c ****     lv_event_code_t code = lv_event_get_code(e);
  42              		.loc 1 47 5 is_stmt 1 view .LVU2
  43              		.loc 1 47 28 is_stmt 0 view .LVU3
  44 0004 FFF7FEFF 		bl	lv_event_get_code
  45              	.LVL1:
  46              		.loc 1 47 28 view .LVU4
  47 0008 0446     		mov	r4, r0
  48              	.LVL2:
  48:Middlewares/lvgl/examples/widgets/textarea/lv_example_textarea_2.c ****     lv_obj_t * ta = lv_event_get_target(e);
  49              		.loc 1 48 5 is_stmt 1 view .LVU5
  50              		.loc 1 48 21 is_stmt 0 view .LVU6
  51 000a 2846     		mov	r0, r5
  52 000c FFF7FEFF 		bl	lv_event_get_target
  53              	.LVL3:
  54 0010 0146     		mov	r1, r0
  55              	.LVL4:
  49:Middlewares/lvgl/examples/widgets/textarea/lv_example_textarea_2.c ****     if(code == LV_EVENT_CLICKED || code == LV_EVENT_FOCUSED) {
  56              		.loc 1 49 5 is_stmt 1 view .LVU7
  57              		.loc 1 49 7 is_stmt 0 view .LVU8
  58 0012 072C     		cmp	r4, #7
  59 0014 02D0     		beq	.L2
  60              		.loc 1 49 33 discriminator 1 view .LVU9
  61 0016 0E2C     		cmp	r4, #14
  62 0018 00D0     		beq	.L2
  63              	.LVL5:
  64              	.L1:
  50:Middlewares/lvgl/examples/widgets/textarea/lv_example_textarea_2.c ****         /*Focus on the clicked text area*/
  51:Middlewares/lvgl/examples/widgets/textarea/lv_example_textarea_2.c ****         if(kb != NULL) lv_keyboard_set_textarea(kb, ta);
ARM GAS  /tmp/ccMI40i9.s 			page 3


  52:Middlewares/lvgl/examples/widgets/textarea/lv_example_textarea_2.c ****     }
  53:Middlewares/lvgl/examples/widgets/textarea/lv_example_textarea_2.c **** 
  54:Middlewares/lvgl/examples/widgets/textarea/lv_example_textarea_2.c ****     else if(code == LV_EVENT_READY) {
  55:Middlewares/lvgl/examples/widgets/textarea/lv_example_textarea_2.c ****         LV_LOG_USER("Ready, current text: %s", lv_textarea_get_text(ta));
  56:Middlewares/lvgl/examples/widgets/textarea/lv_example_textarea_2.c ****     }
  57:Middlewares/lvgl/examples/widgets/textarea/lv_example_textarea_2.c **** }
  65              		.loc 1 57 1 view .LVU10
  66 001a 38BD     		pop	{r3, r4, r5, pc}
  67              	.LVL6:
  68              	.L2:
  51:Middlewares/lvgl/examples/widgets/textarea/lv_example_textarea_2.c ****     }
  69              		.loc 1 51 9 is_stmt 1 view .LVU11
  51:Middlewares/lvgl/examples/widgets/textarea/lv_example_textarea_2.c ****     }
  70              		.loc 1 51 15 is_stmt 0 view .LVU12
  71 001c 034B     		ldr	r3, .L5
  72 001e 1868     		ldr	r0, [r3]
  73              	.LVL7:
  51:Middlewares/lvgl/examples/widgets/textarea/lv_example_textarea_2.c ****     }
  74              		.loc 1 51 11 view .LVU13
  75 0020 0028     		cmp	r0, #0
  76 0022 FAD0     		beq	.L1
  51:Middlewares/lvgl/examples/widgets/textarea/lv_example_textarea_2.c ****     }
  77              		.loc 1 51 24 is_stmt 1 discriminator 1 view .LVU14
  78 0024 FFF7FEFF 		bl	lv_keyboard_set_textarea
  79              	.LVL8:
  80              		.loc 1 57 1 is_stmt 0 discriminator 1 view .LVU15
  81 0028 F7E7     		b	.L1
  82              	.L6:
  83 002a 00BF     		.align	2
  84              	.L5:
  85 002c 00000000 		.word	.LANCHOR0
  86              		.cfi_endproc
  87              	.LFE185:
  89              		.section	.rodata.lv_example_textarea_2.str1.4,"aMS",%progbits,1
  90              		.align	2
  91              	.LC0:
  92 0000 00       		.ascii	"\000"
  93 0001 000000   		.align	2
  94              	.LC1:
  95 0004 50617373 		.ascii	"Password:\000"
  95      776F7264 
  95      3A00
  96 000e 0000     		.align	2
  97              	.LC2:
  98 0010 54657874 		.ascii	"Text:\000"
  98      3A00
  99              		.section	.text.lv_example_textarea_2,"ax",%progbits
 100              		.align	1
 101              		.global	lv_example_textarea_2
 102              		.syntax unified
 103              		.thumb
 104              		.thumb_func
 106              	lv_example_textarea_2:
 107              	.LFB184:
   9:Middlewares/lvgl/examples/widgets/textarea/lv_example_textarea_2.c ****     /*Create the password box*/
 108              		.loc 1 9 1 is_stmt 1 view -0
 109              		.cfi_startproc
ARM GAS  /tmp/ccMI40i9.s 			page 4


 110              		@ args = 0, pretend = 0, frame = 0
 111              		@ frame_needed = 0, uses_anonymous_args = 0
 112 0000 F0B5     		push	{r4, r5, r6, r7, lr}
 113              	.LCFI1:
 114              		.cfi_def_cfa_offset 20
 115              		.cfi_offset 4, -20
 116              		.cfi_offset 5, -16
 117              		.cfi_offset 6, -12
 118              		.cfi_offset 7, -8
 119              		.cfi_offset 14, -4
 120 0002 83B0     		sub	sp, sp, #12
 121              	.LCFI2:
 122              		.cfi_def_cfa_offset 32
  11:Middlewares/lvgl/examples/widgets/textarea/lv_example_textarea_2.c ****     lv_textarea_set_text(pwd_ta, "");
 123              		.loc 1 11 5 view .LVU17
 124              	.LBB16:
 125              	.LBI16:
 126              		.file 2 "Middlewares/lvgl/examples/widgets/textarea/../../../src/core/lv_disp.h"
   1:Middlewares/lvgl/examples/widgets/textarea/../../../src/core/lv_disp.h **** /**
   2:Middlewares/lvgl/examples/widgets/textarea/../../../src/core/lv_disp.h ****  * @file lv_disp.h
   3:Middlewares/lvgl/examples/widgets/textarea/../../../src/core/lv_disp.h ****  *
   4:Middlewares/lvgl/examples/widgets/textarea/../../../src/core/lv_disp.h ****  */
   5:Middlewares/lvgl/examples/widgets/textarea/../../../src/core/lv_disp.h **** 
   6:Middlewares/lvgl/examples/widgets/textarea/../../../src/core/lv_disp.h **** #ifndef LV_DISP_H
   7:Middlewares/lvgl/examples/widgets/textarea/../../../src/core/lv_disp.h **** #define LV_DISP_H
   8:Middlewares/lvgl/examples/widgets/textarea/../../../src/core/lv_disp.h **** 
   9:Middlewares/lvgl/examples/widgets/textarea/../../../src/core/lv_disp.h **** #ifdef __cplusplus
  10:Middlewares/lvgl/examples/widgets/textarea/../../../src/core/lv_disp.h **** extern "C" {
  11:Middlewares/lvgl/examples/widgets/textarea/../../../src/core/lv_disp.h **** #endif
  12:Middlewares/lvgl/examples/widgets/textarea/../../../src/core/lv_disp.h **** 
  13:Middlewares/lvgl/examples/widgets/textarea/../../../src/core/lv_disp.h **** /*********************
  14:Middlewares/lvgl/examples/widgets/textarea/../../../src/core/lv_disp.h ****  *      INCLUDES
  15:Middlewares/lvgl/examples/widgets/textarea/../../../src/core/lv_disp.h ****  *********************/
  16:Middlewares/lvgl/examples/widgets/textarea/../../../src/core/lv_disp.h **** #include "../hal/lv_hal.h"
  17:Middlewares/lvgl/examples/widgets/textarea/../../../src/core/lv_disp.h **** #include "lv_obj.h"
  18:Middlewares/lvgl/examples/widgets/textarea/../../../src/core/lv_disp.h **** #include "lv_theme.h"
  19:Middlewares/lvgl/examples/widgets/textarea/../../../src/core/lv_disp.h **** 
  20:Middlewares/lvgl/examples/widgets/textarea/../../../src/core/lv_disp.h **** /*********************
  21:Middlewares/lvgl/examples/widgets/textarea/../../../src/core/lv_disp.h ****  *      DEFINES
  22:Middlewares/lvgl/examples/widgets/textarea/../../../src/core/lv_disp.h ****  *********************/
  23:Middlewares/lvgl/examples/widgets/textarea/../../../src/core/lv_disp.h **** 
  24:Middlewares/lvgl/examples/widgets/textarea/../../../src/core/lv_disp.h **** /**********************
  25:Middlewares/lvgl/examples/widgets/textarea/../../../src/core/lv_disp.h ****  *      TYPEDEFS
  26:Middlewares/lvgl/examples/widgets/textarea/../../../src/core/lv_disp.h ****  **********************/
  27:Middlewares/lvgl/examples/widgets/textarea/../../../src/core/lv_disp.h **** 
  28:Middlewares/lvgl/examples/widgets/textarea/../../../src/core/lv_disp.h **** typedef enum {
  29:Middlewares/lvgl/examples/widgets/textarea/../../../src/core/lv_disp.h ****     LV_SCR_LOAD_ANIM_NONE,
  30:Middlewares/lvgl/examples/widgets/textarea/../../../src/core/lv_disp.h ****     LV_SCR_LOAD_ANIM_OVER_LEFT,
  31:Middlewares/lvgl/examples/widgets/textarea/../../../src/core/lv_disp.h ****     LV_SCR_LOAD_ANIM_OVER_RIGHT,
  32:Middlewares/lvgl/examples/widgets/textarea/../../../src/core/lv_disp.h ****     LV_SCR_LOAD_ANIM_OVER_TOP,
  33:Middlewares/lvgl/examples/widgets/textarea/../../../src/core/lv_disp.h ****     LV_SCR_LOAD_ANIM_OVER_BOTTOM,
  34:Middlewares/lvgl/examples/widgets/textarea/../../../src/core/lv_disp.h ****     LV_SCR_LOAD_ANIM_MOVE_LEFT,
  35:Middlewares/lvgl/examples/widgets/textarea/../../../src/core/lv_disp.h ****     LV_SCR_LOAD_ANIM_MOVE_RIGHT,
  36:Middlewares/lvgl/examples/widgets/textarea/../../../src/core/lv_disp.h ****     LV_SCR_LOAD_ANIM_MOVE_TOP,
  37:Middlewares/lvgl/examples/widgets/textarea/../../../src/core/lv_disp.h ****     LV_SCR_LOAD_ANIM_MOVE_BOTTOM,
  38:Middlewares/lvgl/examples/widgets/textarea/../../../src/core/lv_disp.h ****     LV_SCR_LOAD_ANIM_FADE_ON,
  39:Middlewares/lvgl/examples/widgets/textarea/../../../src/core/lv_disp.h **** } lv_scr_load_anim_t;
ARM GAS  /tmp/ccMI40i9.s 			page 5


  40:Middlewares/lvgl/examples/widgets/textarea/../../../src/core/lv_disp.h **** 
  41:Middlewares/lvgl/examples/widgets/textarea/../../../src/core/lv_disp.h **** /**********************
  42:Middlewares/lvgl/examples/widgets/textarea/../../../src/core/lv_disp.h ****  * GLOBAL PROTOTYPES
  43:Middlewares/lvgl/examples/widgets/textarea/../../../src/core/lv_disp.h ****  **********************/
  44:Middlewares/lvgl/examples/widgets/textarea/../../../src/core/lv_disp.h **** 
  45:Middlewares/lvgl/examples/widgets/textarea/../../../src/core/lv_disp.h **** /**
  46:Middlewares/lvgl/examples/widgets/textarea/../../../src/core/lv_disp.h ****  * Return with a pointer to the active screen
  47:Middlewares/lvgl/examples/widgets/textarea/../../../src/core/lv_disp.h ****  * @param disp pointer to display which active screen should be get. (NULL to use the default
  48:Middlewares/lvgl/examples/widgets/textarea/../../../src/core/lv_disp.h ****  * screen)
  49:Middlewares/lvgl/examples/widgets/textarea/../../../src/core/lv_disp.h ****  * @return pointer to the active screen object (loaded by 'lv_scr_load()')
  50:Middlewares/lvgl/examples/widgets/textarea/../../../src/core/lv_disp.h ****  */
  51:Middlewares/lvgl/examples/widgets/textarea/../../../src/core/lv_disp.h **** lv_obj_t * lv_disp_get_scr_act(lv_disp_t * disp);
  52:Middlewares/lvgl/examples/widgets/textarea/../../../src/core/lv_disp.h **** 
  53:Middlewares/lvgl/examples/widgets/textarea/../../../src/core/lv_disp.h **** /**
  54:Middlewares/lvgl/examples/widgets/textarea/../../../src/core/lv_disp.h ****  * Return with a pointer to the previous screen. Only used during screen transitions.
  55:Middlewares/lvgl/examples/widgets/textarea/../../../src/core/lv_disp.h ****  * @param disp pointer to display which previous screen should be get. (NULL to use the default
  56:Middlewares/lvgl/examples/widgets/textarea/../../../src/core/lv_disp.h ****  * screen)
  57:Middlewares/lvgl/examples/widgets/textarea/../../../src/core/lv_disp.h ****  * @return pointer to the previous screen object or NULL if not used now
  58:Middlewares/lvgl/examples/widgets/textarea/../../../src/core/lv_disp.h ****  */
  59:Middlewares/lvgl/examples/widgets/textarea/../../../src/core/lv_disp.h **** lv_obj_t * lv_disp_get_scr_prev(lv_disp_t * disp);
  60:Middlewares/lvgl/examples/widgets/textarea/../../../src/core/lv_disp.h **** 
  61:Middlewares/lvgl/examples/widgets/textarea/../../../src/core/lv_disp.h **** /**
  62:Middlewares/lvgl/examples/widgets/textarea/../../../src/core/lv_disp.h ****  * Make a screen active
  63:Middlewares/lvgl/examples/widgets/textarea/../../../src/core/lv_disp.h ****  * @param scr pointer to a screen
  64:Middlewares/lvgl/examples/widgets/textarea/../../../src/core/lv_disp.h ****  */
  65:Middlewares/lvgl/examples/widgets/textarea/../../../src/core/lv_disp.h **** void lv_disp_load_scr(lv_obj_t * scr);
  66:Middlewares/lvgl/examples/widgets/textarea/../../../src/core/lv_disp.h **** 
  67:Middlewares/lvgl/examples/widgets/textarea/../../../src/core/lv_disp.h **** /**
  68:Middlewares/lvgl/examples/widgets/textarea/../../../src/core/lv_disp.h ****  * Return with the top layer. (Same on every screen and it is above the normal screen layer)
  69:Middlewares/lvgl/examples/widgets/textarea/../../../src/core/lv_disp.h ****  * @param disp pointer to display which top layer should be get. (NULL to use the default screen)
  70:Middlewares/lvgl/examples/widgets/textarea/../../../src/core/lv_disp.h ****  * @return pointer to the top layer object  (transparent screen sized lv_obj)
  71:Middlewares/lvgl/examples/widgets/textarea/../../../src/core/lv_disp.h ****  */
  72:Middlewares/lvgl/examples/widgets/textarea/../../../src/core/lv_disp.h **** lv_obj_t * lv_disp_get_layer_top(lv_disp_t * disp);
  73:Middlewares/lvgl/examples/widgets/textarea/../../../src/core/lv_disp.h **** 
  74:Middlewares/lvgl/examples/widgets/textarea/../../../src/core/lv_disp.h **** /**
  75:Middlewares/lvgl/examples/widgets/textarea/../../../src/core/lv_disp.h ****  * Return with the sys. layer. (Same on every screen and it is above the normal screen and the top
  76:Middlewares/lvgl/examples/widgets/textarea/../../../src/core/lv_disp.h ****  * layer)
  77:Middlewares/lvgl/examples/widgets/textarea/../../../src/core/lv_disp.h ****  * @param disp pointer to display which sys. layer  should be get. (NULL to use the default screen)
  78:Middlewares/lvgl/examples/widgets/textarea/../../../src/core/lv_disp.h ****  * @return pointer to the sys layer object  (transparent screen sized lv_obj)
  79:Middlewares/lvgl/examples/widgets/textarea/../../../src/core/lv_disp.h ****  */
  80:Middlewares/lvgl/examples/widgets/textarea/../../../src/core/lv_disp.h **** lv_obj_t * lv_disp_get_layer_sys(lv_disp_t * disp);
  81:Middlewares/lvgl/examples/widgets/textarea/../../../src/core/lv_disp.h **** 
  82:Middlewares/lvgl/examples/widgets/textarea/../../../src/core/lv_disp.h **** /**
  83:Middlewares/lvgl/examples/widgets/textarea/../../../src/core/lv_disp.h ****  * Get the theme of a display
  84:Middlewares/lvgl/examples/widgets/textarea/../../../src/core/lv_disp.h ****  * @param disp pointer to a display
  85:Middlewares/lvgl/examples/widgets/textarea/../../../src/core/lv_disp.h ****  * @return the display's theme (can be NULL)
  86:Middlewares/lvgl/examples/widgets/textarea/../../../src/core/lv_disp.h ****  */
  87:Middlewares/lvgl/examples/widgets/textarea/../../../src/core/lv_disp.h **** void lv_disp_set_theme(lv_disp_t * disp, lv_theme_t * th);
  88:Middlewares/lvgl/examples/widgets/textarea/../../../src/core/lv_disp.h **** 
  89:Middlewares/lvgl/examples/widgets/textarea/../../../src/core/lv_disp.h **** /**
  90:Middlewares/lvgl/examples/widgets/textarea/../../../src/core/lv_disp.h ****  * Get the theme of a display
  91:Middlewares/lvgl/examples/widgets/textarea/../../../src/core/lv_disp.h ****  * @param disp pointer to a display
  92:Middlewares/lvgl/examples/widgets/textarea/../../../src/core/lv_disp.h ****  * @return the display's theme (can be NULL)
  93:Middlewares/lvgl/examples/widgets/textarea/../../../src/core/lv_disp.h ****  */
  94:Middlewares/lvgl/examples/widgets/textarea/../../../src/core/lv_disp.h **** lv_theme_t * lv_disp_get_theme(lv_disp_t * disp);
  95:Middlewares/lvgl/examples/widgets/textarea/../../../src/core/lv_disp.h **** 
  96:Middlewares/lvgl/examples/widgets/textarea/../../../src/core/lv_disp.h **** /**
ARM GAS  /tmp/ccMI40i9.s 			page 6


  97:Middlewares/lvgl/examples/widgets/textarea/../../../src/core/lv_disp.h ****  * Set the background color of a display
  98:Middlewares/lvgl/examples/widgets/textarea/../../../src/core/lv_disp.h ****  * @param disp pointer to a display
  99:Middlewares/lvgl/examples/widgets/textarea/../../../src/core/lv_disp.h ****  * @param color color of the background
 100:Middlewares/lvgl/examples/widgets/textarea/../../../src/core/lv_disp.h ****  */
 101:Middlewares/lvgl/examples/widgets/textarea/../../../src/core/lv_disp.h **** void lv_disp_set_bg_color(lv_disp_t * disp, lv_color_t color);
 102:Middlewares/lvgl/examples/widgets/textarea/../../../src/core/lv_disp.h **** 
 103:Middlewares/lvgl/examples/widgets/textarea/../../../src/core/lv_disp.h **** /**
 104:Middlewares/lvgl/examples/widgets/textarea/../../../src/core/lv_disp.h ****  * Set the background image of a display
 105:Middlewares/lvgl/examples/widgets/textarea/../../../src/core/lv_disp.h ****  * @param disp pointer to a display
 106:Middlewares/lvgl/examples/widgets/textarea/../../../src/core/lv_disp.h ****  * @param img_src path to file or pointer to an `lv_img_dsc_t` variable
 107:Middlewares/lvgl/examples/widgets/textarea/../../../src/core/lv_disp.h ****  */
 108:Middlewares/lvgl/examples/widgets/textarea/../../../src/core/lv_disp.h **** void lv_disp_set_bg_image(lv_disp_t * disp, const void  * img_src);
 109:Middlewares/lvgl/examples/widgets/textarea/../../../src/core/lv_disp.h **** 
 110:Middlewares/lvgl/examples/widgets/textarea/../../../src/core/lv_disp.h **** /**
 111:Middlewares/lvgl/examples/widgets/textarea/../../../src/core/lv_disp.h ****  * Opacity of the background
 112:Middlewares/lvgl/examples/widgets/textarea/../../../src/core/lv_disp.h ****  * @param disp pointer to a display
 113:Middlewares/lvgl/examples/widgets/textarea/../../../src/core/lv_disp.h ****  * @param opa opacity (0..255)
 114:Middlewares/lvgl/examples/widgets/textarea/../../../src/core/lv_disp.h ****  */
 115:Middlewares/lvgl/examples/widgets/textarea/../../../src/core/lv_disp.h **** void lv_disp_set_bg_opa(lv_disp_t * disp, lv_opa_t opa);
 116:Middlewares/lvgl/examples/widgets/textarea/../../../src/core/lv_disp.h **** 
 117:Middlewares/lvgl/examples/widgets/textarea/../../../src/core/lv_disp.h **** /**
 118:Middlewares/lvgl/examples/widgets/textarea/../../../src/core/lv_disp.h ****  * Switch screen with animation
 119:Middlewares/lvgl/examples/widgets/textarea/../../../src/core/lv_disp.h ****  * @param scr pointer to the new screen to load
 120:Middlewares/lvgl/examples/widgets/textarea/../../../src/core/lv_disp.h ****  * @param anim_type type of the animation from `lv_scr_load_anim_t`. E.g.  `LV_SCR_LOAD_ANIM_MOVE_L
 121:Middlewares/lvgl/examples/widgets/textarea/../../../src/core/lv_disp.h ****  * @param time time of the animation
 122:Middlewares/lvgl/examples/widgets/textarea/../../../src/core/lv_disp.h ****  * @param delay delay before the transition
 123:Middlewares/lvgl/examples/widgets/textarea/../../../src/core/lv_disp.h ****  * @param auto_del true: automatically delete the old screen
 124:Middlewares/lvgl/examples/widgets/textarea/../../../src/core/lv_disp.h ****  */
 125:Middlewares/lvgl/examples/widgets/textarea/../../../src/core/lv_disp.h **** void lv_scr_load_anim(lv_obj_t * scr, lv_scr_load_anim_t anim_type, uint32_t time, uint32_t delay, 
 126:Middlewares/lvgl/examples/widgets/textarea/../../../src/core/lv_disp.h **** 
 127:Middlewares/lvgl/examples/widgets/textarea/../../../src/core/lv_disp.h **** /**
 128:Middlewares/lvgl/examples/widgets/textarea/../../../src/core/lv_disp.h ****  * Get elapsed time since last user activity on a display (e.g. click)
 129:Middlewares/lvgl/examples/widgets/textarea/../../../src/core/lv_disp.h ****  * @param disp pointer to an display (NULL to get the overall smallest inactivity)
 130:Middlewares/lvgl/examples/widgets/textarea/../../../src/core/lv_disp.h ****  * @return elapsed ticks (milliseconds) since the last activity
 131:Middlewares/lvgl/examples/widgets/textarea/../../../src/core/lv_disp.h ****  */
 132:Middlewares/lvgl/examples/widgets/textarea/../../../src/core/lv_disp.h **** uint32_t lv_disp_get_inactive_time(const lv_disp_t * disp);
 133:Middlewares/lvgl/examples/widgets/textarea/../../../src/core/lv_disp.h **** 
 134:Middlewares/lvgl/examples/widgets/textarea/../../../src/core/lv_disp.h **** /**
 135:Middlewares/lvgl/examples/widgets/textarea/../../../src/core/lv_disp.h ****  * Manually trigger an activity on a display
 136:Middlewares/lvgl/examples/widgets/textarea/../../../src/core/lv_disp.h ****  * @param disp pointer to an display (NULL to use the default display)
 137:Middlewares/lvgl/examples/widgets/textarea/../../../src/core/lv_disp.h ****  */
 138:Middlewares/lvgl/examples/widgets/textarea/../../../src/core/lv_disp.h **** void lv_disp_trig_activity(lv_disp_t * disp);
 139:Middlewares/lvgl/examples/widgets/textarea/../../../src/core/lv_disp.h **** 
 140:Middlewares/lvgl/examples/widgets/textarea/../../../src/core/lv_disp.h **** /**
 141:Middlewares/lvgl/examples/widgets/textarea/../../../src/core/lv_disp.h ****  * Clean any CPU cache that is related to the display.
 142:Middlewares/lvgl/examples/widgets/textarea/../../../src/core/lv_disp.h ****  * @param disp pointer to an display (NULL to use the default display)
 143:Middlewares/lvgl/examples/widgets/textarea/../../../src/core/lv_disp.h ****  */
 144:Middlewares/lvgl/examples/widgets/textarea/../../../src/core/lv_disp.h **** void lv_disp_clean_dcache(lv_disp_t * disp);
 145:Middlewares/lvgl/examples/widgets/textarea/../../../src/core/lv_disp.h **** 
 146:Middlewares/lvgl/examples/widgets/textarea/../../../src/core/lv_disp.h **** /**
 147:Middlewares/lvgl/examples/widgets/textarea/../../../src/core/lv_disp.h ****  * Get a pointer to the screen refresher timer to
 148:Middlewares/lvgl/examples/widgets/textarea/../../../src/core/lv_disp.h ****  * modify its parameters with `lv_timer_...` functions.
 149:Middlewares/lvgl/examples/widgets/textarea/../../../src/core/lv_disp.h ****  * @param disp pointer to a display
 150:Middlewares/lvgl/examples/widgets/textarea/../../../src/core/lv_disp.h ****  * @return pointer to the display refresher timer. (NULL on error)
 151:Middlewares/lvgl/examples/widgets/textarea/../../../src/core/lv_disp.h ****  */
 152:Middlewares/lvgl/examples/widgets/textarea/../../../src/core/lv_disp.h **** lv_timer_t * _lv_disp_get_refr_timer(lv_disp_t * disp);
 153:Middlewares/lvgl/examples/widgets/textarea/../../../src/core/lv_disp.h **** 
ARM GAS  /tmp/ccMI40i9.s 			page 7


 154:Middlewares/lvgl/examples/widgets/textarea/../../../src/core/lv_disp.h **** /*------------------------------------------------
 155:Middlewares/lvgl/examples/widgets/textarea/../../../src/core/lv_disp.h ****  * To improve backward compatibility
 156:Middlewares/lvgl/examples/widgets/textarea/../../../src/core/lv_disp.h ****  * Recommended only if you have one display
 157:Middlewares/lvgl/examples/widgets/textarea/../../../src/core/lv_disp.h ****  *------------------------------------------------*/
 158:Middlewares/lvgl/examples/widgets/textarea/../../../src/core/lv_disp.h **** 
 159:Middlewares/lvgl/examples/widgets/textarea/../../../src/core/lv_disp.h **** /**
 160:Middlewares/lvgl/examples/widgets/textarea/../../../src/core/lv_disp.h ****  * Get the active screen of the default display
 161:Middlewares/lvgl/examples/widgets/textarea/../../../src/core/lv_disp.h ****  * @return pointer to the active screen
 162:Middlewares/lvgl/examples/widgets/textarea/../../../src/core/lv_disp.h ****  */
 163:Middlewares/lvgl/examples/widgets/textarea/../../../src/core/lv_disp.h **** static inline lv_obj_t * lv_scr_act(void)
 127              		.loc 2 163 26 view .LVU18
 128              	.LBB17:
 164:Middlewares/lvgl/examples/widgets/textarea/../../../src/core/lv_disp.h **** {
 165:Middlewares/lvgl/examples/widgets/textarea/../../../src/core/lv_disp.h ****     return lv_disp_get_scr_act(lv_disp_get_default());
 129              		.loc 2 165 5 view .LVU19
 130              		.loc 2 165 12 is_stmt 0 view .LVU20
 131 0004 FFF7FEFF 		bl	lv_disp_get_default
 132              	.LVL9:
 133 0008 FFF7FEFF 		bl	lv_disp_get_scr_act
 134              	.LVL10:
 135              	.LBE17:
 136              	.LBE16:
  11:Middlewares/lvgl/examples/widgets/textarea/lv_example_textarea_2.c ****     lv_textarea_set_text(pwd_ta, "");
 137              		.loc 1 11 25 view .LVU21
 138 000c FFF7FEFF 		bl	lv_textarea_create
 139              	.LVL11:
 140 0010 0446     		mov	r4, r0
 141              	.LVL12:
  12:Middlewares/lvgl/examples/widgets/textarea/lv_example_textarea_2.c ****     lv_textarea_set_password_mode(pwd_ta, true);
 142              		.loc 1 12 5 is_stmt 1 view .LVU22
 143 0012 3F49     		ldr	r1, .L9
 144 0014 FFF7FEFF 		bl	lv_textarea_set_text
 145              	.LVL13:
  13:Middlewares/lvgl/examples/widgets/textarea/lv_example_textarea_2.c ****     lv_textarea_set_one_line(pwd_ta, true);
 146              		.loc 1 13 5 view .LVU23
 147 0018 0121     		movs	r1, #1
 148 001a 2046     		mov	r0, r4
 149 001c FFF7FEFF 		bl	lv_textarea_set_password_mode
 150              	.LVL14:
  14:Middlewares/lvgl/examples/widgets/textarea/lv_example_textarea_2.c ****     lv_obj_set_width(pwd_ta, lv_pct(40));
 151              		.loc 1 14 5 view .LVU24
 152 0020 0121     		movs	r1, #1
 153 0022 2046     		mov	r0, r4
 154 0024 FFF7FEFF 		bl	lv_textarea_set_one_line
 155              	.LVL15:
  15:Middlewares/lvgl/examples/widgets/textarea/lv_example_textarea_2.c ****     lv_obj_set_pos(pwd_ta, 5, 20);
 156              		.loc 1 15 5 view .LVU25
 157              		.file 3 "Middlewares/lvgl/examples/widgets/textarea/../../../src/hal/../misc/lv_area.h"
   1:Middlewares/lvgl/examples/widgets/textarea/../../../src/hal/../misc/lv_area.h **** /**
   2:Middlewares/lvgl/examples/widgets/textarea/../../../src/hal/../misc/lv_area.h ****  * @file lv_area.h
   3:Middlewares/lvgl/examples/widgets/textarea/../../../src/hal/../misc/lv_area.h ****  *
   4:Middlewares/lvgl/examples/widgets/textarea/../../../src/hal/../misc/lv_area.h ****  */
   5:Middlewares/lvgl/examples/widgets/textarea/../../../src/hal/../misc/lv_area.h **** 
   6:Middlewares/lvgl/examples/widgets/textarea/../../../src/hal/../misc/lv_area.h **** #ifndef LV_AREA_H
   7:Middlewares/lvgl/examples/widgets/textarea/../../../src/hal/../misc/lv_area.h **** #define LV_AREA_H
   8:Middlewares/lvgl/examples/widgets/textarea/../../../src/hal/../misc/lv_area.h **** 
   9:Middlewares/lvgl/examples/widgets/textarea/../../../src/hal/../misc/lv_area.h **** #ifdef __cplusplus
ARM GAS  /tmp/ccMI40i9.s 			page 8


  10:Middlewares/lvgl/examples/widgets/textarea/../../../src/hal/../misc/lv_area.h **** extern "C" {
  11:Middlewares/lvgl/examples/widgets/textarea/../../../src/hal/../misc/lv_area.h **** #endif
  12:Middlewares/lvgl/examples/widgets/textarea/../../../src/hal/../misc/lv_area.h **** 
  13:Middlewares/lvgl/examples/widgets/textarea/../../../src/hal/../misc/lv_area.h **** /*********************
  14:Middlewares/lvgl/examples/widgets/textarea/../../../src/hal/../misc/lv_area.h ****  *      INCLUDES
  15:Middlewares/lvgl/examples/widgets/textarea/../../../src/hal/../misc/lv_area.h ****  *********************/
  16:Middlewares/lvgl/examples/widgets/textarea/../../../src/hal/../misc/lv_area.h **** #include "../lv_conf_internal.h"
  17:Middlewares/lvgl/examples/widgets/textarea/../../../src/hal/../misc/lv_area.h **** #include <string.h>
  18:Middlewares/lvgl/examples/widgets/textarea/../../../src/hal/../misc/lv_area.h **** #include <stdbool.h>
  19:Middlewares/lvgl/examples/widgets/textarea/../../../src/hal/../misc/lv_area.h **** #include <stdint.h>
  20:Middlewares/lvgl/examples/widgets/textarea/../../../src/hal/../misc/lv_area.h **** 
  21:Middlewares/lvgl/examples/widgets/textarea/../../../src/hal/../misc/lv_area.h **** /*********************
  22:Middlewares/lvgl/examples/widgets/textarea/../../../src/hal/../misc/lv_area.h ****  *      DEFINES
  23:Middlewares/lvgl/examples/widgets/textarea/../../../src/hal/../misc/lv_area.h ****  *********************/
  24:Middlewares/lvgl/examples/widgets/textarea/../../../src/hal/../misc/lv_area.h **** 
  25:Middlewares/lvgl/examples/widgets/textarea/../../../src/hal/../misc/lv_area.h **** #define _LV_COORD_MAX_REDUCE    8192
  26:Middlewares/lvgl/examples/widgets/textarea/../../../src/hal/../misc/lv_area.h **** 
  27:Middlewares/lvgl/examples/widgets/textarea/../../../src/hal/../misc/lv_area.h **** #if LV_USE_LARGE_COORD
  28:Middlewares/lvgl/examples/widgets/textarea/../../../src/hal/../misc/lv_area.h **** typedef int32_t lv_coord_t;
  29:Middlewares/lvgl/examples/widgets/textarea/../../../src/hal/../misc/lv_area.h **** #else
  30:Middlewares/lvgl/examples/widgets/textarea/../../../src/hal/../misc/lv_area.h **** typedef int16_t lv_coord_t;
  31:Middlewares/lvgl/examples/widgets/textarea/../../../src/hal/../misc/lv_area.h **** #endif
  32:Middlewares/lvgl/examples/widgets/textarea/../../../src/hal/../misc/lv_area.h **** 
  33:Middlewares/lvgl/examples/widgets/textarea/../../../src/hal/../misc/lv_area.h **** /*To allow some special values in the end reduce the max value*/
  34:Middlewares/lvgl/examples/widgets/textarea/../../../src/hal/../misc/lv_area.h **** #define LV_COORD_MAX ((lv_coord_t)((uint32_t)((uint32_t)1 << (8 * sizeof(lv_coord_t) - 1)) - _LV_CO
  35:Middlewares/lvgl/examples/widgets/textarea/../../../src/hal/../misc/lv_area.h **** #define LV_COORD_MIN (-LV_COORD_MAX)
  36:Middlewares/lvgl/examples/widgets/textarea/../../../src/hal/../misc/lv_area.h **** 
  37:Middlewares/lvgl/examples/widgets/textarea/../../../src/hal/../misc/lv_area.h **** LV_EXPORT_CONST_INT(LV_COORD_MAX);
  38:Middlewares/lvgl/examples/widgets/textarea/../../../src/hal/../misc/lv_area.h **** LV_EXPORT_CONST_INT(LV_COORD_MIN);
  39:Middlewares/lvgl/examples/widgets/textarea/../../../src/hal/../misc/lv_area.h **** 
  40:Middlewares/lvgl/examples/widgets/textarea/../../../src/hal/../misc/lv_area.h **** /**********************
  41:Middlewares/lvgl/examples/widgets/textarea/../../../src/hal/../misc/lv_area.h ****  *      TYPEDEFS
  42:Middlewares/lvgl/examples/widgets/textarea/../../../src/hal/../misc/lv_area.h ****  **********************/
  43:Middlewares/lvgl/examples/widgets/textarea/../../../src/hal/../misc/lv_area.h **** 
  44:Middlewares/lvgl/examples/widgets/textarea/../../../src/hal/../misc/lv_area.h **** /**
  45:Middlewares/lvgl/examples/widgets/textarea/../../../src/hal/../misc/lv_area.h ****  * Represents a point on the screen.
  46:Middlewares/lvgl/examples/widgets/textarea/../../../src/hal/../misc/lv_area.h ****  */
  47:Middlewares/lvgl/examples/widgets/textarea/../../../src/hal/../misc/lv_area.h **** typedef struct {
  48:Middlewares/lvgl/examples/widgets/textarea/../../../src/hal/../misc/lv_area.h ****     lv_coord_t x;
  49:Middlewares/lvgl/examples/widgets/textarea/../../../src/hal/../misc/lv_area.h ****     lv_coord_t y;
  50:Middlewares/lvgl/examples/widgets/textarea/../../../src/hal/../misc/lv_area.h **** } lv_point_t;
  51:Middlewares/lvgl/examples/widgets/textarea/../../../src/hal/../misc/lv_area.h **** 
  52:Middlewares/lvgl/examples/widgets/textarea/../../../src/hal/../misc/lv_area.h **** /** Represents an area of the screen.*/
  53:Middlewares/lvgl/examples/widgets/textarea/../../../src/hal/../misc/lv_area.h **** typedef struct {
  54:Middlewares/lvgl/examples/widgets/textarea/../../../src/hal/../misc/lv_area.h ****     lv_coord_t x1;
  55:Middlewares/lvgl/examples/widgets/textarea/../../../src/hal/../misc/lv_area.h ****     lv_coord_t y1;
  56:Middlewares/lvgl/examples/widgets/textarea/../../../src/hal/../misc/lv_area.h ****     lv_coord_t x2;
  57:Middlewares/lvgl/examples/widgets/textarea/../../../src/hal/../misc/lv_area.h ****     lv_coord_t y2;
  58:Middlewares/lvgl/examples/widgets/textarea/../../../src/hal/../misc/lv_area.h **** } lv_area_t;
  59:Middlewares/lvgl/examples/widgets/textarea/../../../src/hal/../misc/lv_area.h **** 
  60:Middlewares/lvgl/examples/widgets/textarea/../../../src/hal/../misc/lv_area.h **** /** Alignments*/
  61:Middlewares/lvgl/examples/widgets/textarea/../../../src/hal/../misc/lv_area.h **** enum {
  62:Middlewares/lvgl/examples/widgets/textarea/../../../src/hal/../misc/lv_area.h ****     LV_ALIGN_DEFAULT = 0,
  63:Middlewares/lvgl/examples/widgets/textarea/../../../src/hal/../misc/lv_area.h ****     LV_ALIGN_TOP_LEFT,
  64:Middlewares/lvgl/examples/widgets/textarea/../../../src/hal/../misc/lv_area.h ****     LV_ALIGN_TOP_MID,
  65:Middlewares/lvgl/examples/widgets/textarea/../../../src/hal/../misc/lv_area.h ****     LV_ALIGN_TOP_RIGHT,
  66:Middlewares/lvgl/examples/widgets/textarea/../../../src/hal/../misc/lv_area.h ****     LV_ALIGN_BOTTOM_LEFT,
ARM GAS  /tmp/ccMI40i9.s 			page 9


  67:Middlewares/lvgl/examples/widgets/textarea/../../../src/hal/../misc/lv_area.h ****     LV_ALIGN_BOTTOM_MID,
  68:Middlewares/lvgl/examples/widgets/textarea/../../../src/hal/../misc/lv_area.h ****     LV_ALIGN_BOTTOM_RIGHT,
  69:Middlewares/lvgl/examples/widgets/textarea/../../../src/hal/../misc/lv_area.h ****     LV_ALIGN_LEFT_MID,
  70:Middlewares/lvgl/examples/widgets/textarea/../../../src/hal/../misc/lv_area.h ****     LV_ALIGN_RIGHT_MID,
  71:Middlewares/lvgl/examples/widgets/textarea/../../../src/hal/../misc/lv_area.h ****     LV_ALIGN_CENTER,
  72:Middlewares/lvgl/examples/widgets/textarea/../../../src/hal/../misc/lv_area.h **** 
  73:Middlewares/lvgl/examples/widgets/textarea/../../../src/hal/../misc/lv_area.h ****     LV_ALIGN_OUT_TOP_LEFT,
  74:Middlewares/lvgl/examples/widgets/textarea/../../../src/hal/../misc/lv_area.h ****     LV_ALIGN_OUT_TOP_MID,
  75:Middlewares/lvgl/examples/widgets/textarea/../../../src/hal/../misc/lv_area.h ****     LV_ALIGN_OUT_TOP_RIGHT,
  76:Middlewares/lvgl/examples/widgets/textarea/../../../src/hal/../misc/lv_area.h ****     LV_ALIGN_OUT_BOTTOM_LEFT,
  77:Middlewares/lvgl/examples/widgets/textarea/../../../src/hal/../misc/lv_area.h ****     LV_ALIGN_OUT_BOTTOM_MID,
  78:Middlewares/lvgl/examples/widgets/textarea/../../../src/hal/../misc/lv_area.h ****     LV_ALIGN_OUT_BOTTOM_RIGHT,
  79:Middlewares/lvgl/examples/widgets/textarea/../../../src/hal/../misc/lv_area.h ****     LV_ALIGN_OUT_LEFT_TOP,
  80:Middlewares/lvgl/examples/widgets/textarea/../../../src/hal/../misc/lv_area.h ****     LV_ALIGN_OUT_LEFT_MID,
  81:Middlewares/lvgl/examples/widgets/textarea/../../../src/hal/../misc/lv_area.h ****     LV_ALIGN_OUT_LEFT_BOTTOM,
  82:Middlewares/lvgl/examples/widgets/textarea/../../../src/hal/../misc/lv_area.h ****     LV_ALIGN_OUT_RIGHT_TOP,
  83:Middlewares/lvgl/examples/widgets/textarea/../../../src/hal/../misc/lv_area.h ****     LV_ALIGN_OUT_RIGHT_MID,
  84:Middlewares/lvgl/examples/widgets/textarea/../../../src/hal/../misc/lv_area.h ****     LV_ALIGN_OUT_RIGHT_BOTTOM,
  85:Middlewares/lvgl/examples/widgets/textarea/../../../src/hal/../misc/lv_area.h **** };
  86:Middlewares/lvgl/examples/widgets/textarea/../../../src/hal/../misc/lv_area.h **** typedef uint8_t lv_align_t;
  87:Middlewares/lvgl/examples/widgets/textarea/../../../src/hal/../misc/lv_area.h **** 
  88:Middlewares/lvgl/examples/widgets/textarea/../../../src/hal/../misc/lv_area.h **** enum {
  89:Middlewares/lvgl/examples/widgets/textarea/../../../src/hal/../misc/lv_area.h ****     LV_DIR_NONE     = 0x00,
  90:Middlewares/lvgl/examples/widgets/textarea/../../../src/hal/../misc/lv_area.h ****     LV_DIR_LEFT     = (1 << 0),
  91:Middlewares/lvgl/examples/widgets/textarea/../../../src/hal/../misc/lv_area.h ****     LV_DIR_RIGHT    = (1 << 1),
  92:Middlewares/lvgl/examples/widgets/textarea/../../../src/hal/../misc/lv_area.h ****     LV_DIR_TOP      = (1 << 2),
  93:Middlewares/lvgl/examples/widgets/textarea/../../../src/hal/../misc/lv_area.h ****     LV_DIR_BOTTOM   = (1 << 3),
  94:Middlewares/lvgl/examples/widgets/textarea/../../../src/hal/../misc/lv_area.h ****     LV_DIR_HOR      = LV_DIR_LEFT | LV_DIR_RIGHT,
  95:Middlewares/lvgl/examples/widgets/textarea/../../../src/hal/../misc/lv_area.h ****     LV_DIR_VER      = LV_DIR_TOP | LV_DIR_BOTTOM,
  96:Middlewares/lvgl/examples/widgets/textarea/../../../src/hal/../misc/lv_area.h ****     LV_DIR_ALL      = LV_DIR_HOR | LV_DIR_VER,
  97:Middlewares/lvgl/examples/widgets/textarea/../../../src/hal/../misc/lv_area.h **** };
  98:Middlewares/lvgl/examples/widgets/textarea/../../../src/hal/../misc/lv_area.h **** 
  99:Middlewares/lvgl/examples/widgets/textarea/../../../src/hal/../misc/lv_area.h **** typedef uint8_t lv_dir_t;
 100:Middlewares/lvgl/examples/widgets/textarea/../../../src/hal/../misc/lv_area.h **** 
 101:Middlewares/lvgl/examples/widgets/textarea/../../../src/hal/../misc/lv_area.h **** /**********************
 102:Middlewares/lvgl/examples/widgets/textarea/../../../src/hal/../misc/lv_area.h ****  * GLOBAL PROTOTYPES
 103:Middlewares/lvgl/examples/widgets/textarea/../../../src/hal/../misc/lv_area.h ****  **********************/
 104:Middlewares/lvgl/examples/widgets/textarea/../../../src/hal/../misc/lv_area.h **** 
 105:Middlewares/lvgl/examples/widgets/textarea/../../../src/hal/../misc/lv_area.h **** /**
 106:Middlewares/lvgl/examples/widgets/textarea/../../../src/hal/../misc/lv_area.h ****  * Initialize an area
 107:Middlewares/lvgl/examples/widgets/textarea/../../../src/hal/../misc/lv_area.h ****  * @param area_p pointer to an area
 108:Middlewares/lvgl/examples/widgets/textarea/../../../src/hal/../misc/lv_area.h ****  * @param x1 left coordinate of the area
 109:Middlewares/lvgl/examples/widgets/textarea/../../../src/hal/../misc/lv_area.h ****  * @param y1 top coordinate of the area
 110:Middlewares/lvgl/examples/widgets/textarea/../../../src/hal/../misc/lv_area.h ****  * @param x2 right coordinate of the area
 111:Middlewares/lvgl/examples/widgets/textarea/../../../src/hal/../misc/lv_area.h ****  * @param y2 bottom coordinate of the area
 112:Middlewares/lvgl/examples/widgets/textarea/../../../src/hal/../misc/lv_area.h ****  */
 113:Middlewares/lvgl/examples/widgets/textarea/../../../src/hal/../misc/lv_area.h **** void lv_area_set(lv_area_t * area_p, lv_coord_t x1, lv_coord_t y1, lv_coord_t x2, lv_coord_t y2);
 114:Middlewares/lvgl/examples/widgets/textarea/../../../src/hal/../misc/lv_area.h **** 
 115:Middlewares/lvgl/examples/widgets/textarea/../../../src/hal/../misc/lv_area.h **** /**
 116:Middlewares/lvgl/examples/widgets/textarea/../../../src/hal/../misc/lv_area.h ****  * Copy an area
 117:Middlewares/lvgl/examples/widgets/textarea/../../../src/hal/../misc/lv_area.h ****  * @param dest pointer to the destination area
 118:Middlewares/lvgl/examples/widgets/textarea/../../../src/hal/../misc/lv_area.h ****  * @param src pointer to the source area
 119:Middlewares/lvgl/examples/widgets/textarea/../../../src/hal/../misc/lv_area.h ****  */
 120:Middlewares/lvgl/examples/widgets/textarea/../../../src/hal/../misc/lv_area.h **** inline static void lv_area_copy(lv_area_t * dest, const lv_area_t * src)
 121:Middlewares/lvgl/examples/widgets/textarea/../../../src/hal/../misc/lv_area.h **** {
 122:Middlewares/lvgl/examples/widgets/textarea/../../../src/hal/../misc/lv_area.h ****     dest->x1 = src->x1;
 123:Middlewares/lvgl/examples/widgets/textarea/../../../src/hal/../misc/lv_area.h ****     dest->y1 = src->y1;
ARM GAS  /tmp/ccMI40i9.s 			page 10


 124:Middlewares/lvgl/examples/widgets/textarea/../../../src/hal/../misc/lv_area.h ****     dest->x2 = src->x2;
 125:Middlewares/lvgl/examples/widgets/textarea/../../../src/hal/../misc/lv_area.h ****     dest->y2 = src->y2;
 126:Middlewares/lvgl/examples/widgets/textarea/../../../src/hal/../misc/lv_area.h **** }
 127:Middlewares/lvgl/examples/widgets/textarea/../../../src/hal/../misc/lv_area.h **** 
 128:Middlewares/lvgl/examples/widgets/textarea/../../../src/hal/../misc/lv_area.h **** /**
 129:Middlewares/lvgl/examples/widgets/textarea/../../../src/hal/../misc/lv_area.h ****  * Get the width of an area
 130:Middlewares/lvgl/examples/widgets/textarea/../../../src/hal/../misc/lv_area.h ****  * @param area_p pointer to an area
 131:Middlewares/lvgl/examples/widgets/textarea/../../../src/hal/../misc/lv_area.h ****  * @return the width of the area (if x1 == x2 -> width = 1)
 132:Middlewares/lvgl/examples/widgets/textarea/../../../src/hal/../misc/lv_area.h ****  */
 133:Middlewares/lvgl/examples/widgets/textarea/../../../src/hal/../misc/lv_area.h **** static inline lv_coord_t lv_area_get_width(const lv_area_t * area_p)
 134:Middlewares/lvgl/examples/widgets/textarea/../../../src/hal/../misc/lv_area.h **** {
 135:Middlewares/lvgl/examples/widgets/textarea/../../../src/hal/../misc/lv_area.h ****     return (lv_coord_t)(area_p->x2 - area_p->x1 + 1);
 136:Middlewares/lvgl/examples/widgets/textarea/../../../src/hal/../misc/lv_area.h **** }
 137:Middlewares/lvgl/examples/widgets/textarea/../../../src/hal/../misc/lv_area.h **** 
 138:Middlewares/lvgl/examples/widgets/textarea/../../../src/hal/../misc/lv_area.h **** /**
 139:Middlewares/lvgl/examples/widgets/textarea/../../../src/hal/../misc/lv_area.h ****  * Get the height of an area
 140:Middlewares/lvgl/examples/widgets/textarea/../../../src/hal/../misc/lv_area.h ****  * @param area_p pointer to an area
 141:Middlewares/lvgl/examples/widgets/textarea/../../../src/hal/../misc/lv_area.h ****  * @return the height of the area (if y1 == y2 -> height = 1)
 142:Middlewares/lvgl/examples/widgets/textarea/../../../src/hal/../misc/lv_area.h ****  */
 143:Middlewares/lvgl/examples/widgets/textarea/../../../src/hal/../misc/lv_area.h **** static inline lv_coord_t lv_area_get_height(const lv_area_t * area_p)
 144:Middlewares/lvgl/examples/widgets/textarea/../../../src/hal/../misc/lv_area.h **** {
 145:Middlewares/lvgl/examples/widgets/textarea/../../../src/hal/../misc/lv_area.h ****     return (lv_coord_t)(area_p->y2 - area_p->y1 + 1);
 146:Middlewares/lvgl/examples/widgets/textarea/../../../src/hal/../misc/lv_area.h **** }
 147:Middlewares/lvgl/examples/widgets/textarea/../../../src/hal/../misc/lv_area.h **** 
 148:Middlewares/lvgl/examples/widgets/textarea/../../../src/hal/../misc/lv_area.h **** /**
 149:Middlewares/lvgl/examples/widgets/textarea/../../../src/hal/../misc/lv_area.h ****  * Set the width of an area
 150:Middlewares/lvgl/examples/widgets/textarea/../../../src/hal/../misc/lv_area.h ****  * @param area_p pointer to an area
 151:Middlewares/lvgl/examples/widgets/textarea/../../../src/hal/../misc/lv_area.h ****  * @param w the new width of the area (w == 1 makes x1 == x2)
 152:Middlewares/lvgl/examples/widgets/textarea/../../../src/hal/../misc/lv_area.h ****  */
 153:Middlewares/lvgl/examples/widgets/textarea/../../../src/hal/../misc/lv_area.h **** void lv_area_set_width(lv_area_t * area_p, lv_coord_t w);
 154:Middlewares/lvgl/examples/widgets/textarea/../../../src/hal/../misc/lv_area.h **** 
 155:Middlewares/lvgl/examples/widgets/textarea/../../../src/hal/../misc/lv_area.h **** /**
 156:Middlewares/lvgl/examples/widgets/textarea/../../../src/hal/../misc/lv_area.h ****  * Set the height of an area
 157:Middlewares/lvgl/examples/widgets/textarea/../../../src/hal/../misc/lv_area.h ****  * @param area_p pointer to an area
 158:Middlewares/lvgl/examples/widgets/textarea/../../../src/hal/../misc/lv_area.h ****  * @param h the new height of the area (h == 1 makes y1 == y2)
 159:Middlewares/lvgl/examples/widgets/textarea/../../../src/hal/../misc/lv_area.h ****  */
 160:Middlewares/lvgl/examples/widgets/textarea/../../../src/hal/../misc/lv_area.h **** void lv_area_set_height(lv_area_t * area_p, lv_coord_t h);
 161:Middlewares/lvgl/examples/widgets/textarea/../../../src/hal/../misc/lv_area.h **** 
 162:Middlewares/lvgl/examples/widgets/textarea/../../../src/hal/../misc/lv_area.h **** /**
 163:Middlewares/lvgl/examples/widgets/textarea/../../../src/hal/../misc/lv_area.h ****  * Set the position of an area (width and height will be kept)
 164:Middlewares/lvgl/examples/widgets/textarea/../../../src/hal/../misc/lv_area.h ****  * @param area_p pointer to an area
 165:Middlewares/lvgl/examples/widgets/textarea/../../../src/hal/../misc/lv_area.h ****  * @param x the new x coordinate of the area
 166:Middlewares/lvgl/examples/widgets/textarea/../../../src/hal/../misc/lv_area.h ****  * @param y the new y coordinate of the area
 167:Middlewares/lvgl/examples/widgets/textarea/../../../src/hal/../misc/lv_area.h ****  */
 168:Middlewares/lvgl/examples/widgets/textarea/../../../src/hal/../misc/lv_area.h **** void _lv_area_set_pos(lv_area_t * area_p, lv_coord_t x, lv_coord_t y);
 169:Middlewares/lvgl/examples/widgets/textarea/../../../src/hal/../misc/lv_area.h **** 
 170:Middlewares/lvgl/examples/widgets/textarea/../../../src/hal/../misc/lv_area.h **** /**
 171:Middlewares/lvgl/examples/widgets/textarea/../../../src/hal/../misc/lv_area.h ****  * Return with area of an area (x * y)
 172:Middlewares/lvgl/examples/widgets/textarea/../../../src/hal/../misc/lv_area.h ****  * @param area_p pointer to an area
 173:Middlewares/lvgl/examples/widgets/textarea/../../../src/hal/../misc/lv_area.h ****  * @return size of area
 174:Middlewares/lvgl/examples/widgets/textarea/../../../src/hal/../misc/lv_area.h ****  */
 175:Middlewares/lvgl/examples/widgets/textarea/../../../src/hal/../misc/lv_area.h **** uint32_t lv_area_get_size(const lv_area_t * area_p);
 176:Middlewares/lvgl/examples/widgets/textarea/../../../src/hal/../misc/lv_area.h **** 
 177:Middlewares/lvgl/examples/widgets/textarea/../../../src/hal/../misc/lv_area.h **** void lv_area_increase(lv_area_t * area, lv_coord_t w_extra, lv_coord_t h_extra);
 178:Middlewares/lvgl/examples/widgets/textarea/../../../src/hal/../misc/lv_area.h **** 
 179:Middlewares/lvgl/examples/widgets/textarea/../../../src/hal/../misc/lv_area.h **** void lv_area_move(lv_area_t * area, lv_coord_t x_ofs, lv_coord_t y_ofs);
 180:Middlewares/lvgl/examples/widgets/textarea/../../../src/hal/../misc/lv_area.h **** 
ARM GAS  /tmp/ccMI40i9.s 			page 11


 181:Middlewares/lvgl/examples/widgets/textarea/../../../src/hal/../misc/lv_area.h **** /**
 182:Middlewares/lvgl/examples/widgets/textarea/../../../src/hal/../misc/lv_area.h ****  * Get the common parts of two areas
 183:Middlewares/lvgl/examples/widgets/textarea/../../../src/hal/../misc/lv_area.h ****  * @param res_p pointer to an area, the result will be stored her
 184:Middlewares/lvgl/examples/widgets/textarea/../../../src/hal/../misc/lv_area.h ****  * @param a1_p pointer to the first area
 185:Middlewares/lvgl/examples/widgets/textarea/../../../src/hal/../misc/lv_area.h ****  * @param a2_p pointer to the second area
 186:Middlewares/lvgl/examples/widgets/textarea/../../../src/hal/../misc/lv_area.h ****  * @return false: the two area has NO common parts, res_p is invalid
 187:Middlewares/lvgl/examples/widgets/textarea/../../../src/hal/../misc/lv_area.h ****  */
 188:Middlewares/lvgl/examples/widgets/textarea/../../../src/hal/../misc/lv_area.h **** bool _lv_area_intersect(lv_area_t * res_p, const lv_area_t * a1_p, const lv_area_t * a2_p);
 189:Middlewares/lvgl/examples/widgets/textarea/../../../src/hal/../misc/lv_area.h **** 
 190:Middlewares/lvgl/examples/widgets/textarea/../../../src/hal/../misc/lv_area.h **** /**
 191:Middlewares/lvgl/examples/widgets/textarea/../../../src/hal/../misc/lv_area.h ****  * Join two areas into a third which involves the other two
 192:Middlewares/lvgl/examples/widgets/textarea/../../../src/hal/../misc/lv_area.h ****  * @param res_p pointer to an area, the result will be stored here
 193:Middlewares/lvgl/examples/widgets/textarea/../../../src/hal/../misc/lv_area.h ****  * @param a1_p pointer to the first area
 194:Middlewares/lvgl/examples/widgets/textarea/../../../src/hal/../misc/lv_area.h ****  * @param a2_p pointer to the second area
 195:Middlewares/lvgl/examples/widgets/textarea/../../../src/hal/../misc/lv_area.h ****  */
 196:Middlewares/lvgl/examples/widgets/textarea/../../../src/hal/../misc/lv_area.h **** void _lv_area_join(lv_area_t * a_res_p, const lv_area_t * a1_p, const lv_area_t * a2_p);
 197:Middlewares/lvgl/examples/widgets/textarea/../../../src/hal/../misc/lv_area.h **** 
 198:Middlewares/lvgl/examples/widgets/textarea/../../../src/hal/../misc/lv_area.h **** /**
 199:Middlewares/lvgl/examples/widgets/textarea/../../../src/hal/../misc/lv_area.h ****  * Check if a point is on an area
 200:Middlewares/lvgl/examples/widgets/textarea/../../../src/hal/../misc/lv_area.h ****  * @param a_p pointer to an area
 201:Middlewares/lvgl/examples/widgets/textarea/../../../src/hal/../misc/lv_area.h ****  * @param p_p pointer to a point
 202:Middlewares/lvgl/examples/widgets/textarea/../../../src/hal/../misc/lv_area.h ****  * @param radius radius of area (e.g. for rounded rectangle)
 203:Middlewares/lvgl/examples/widgets/textarea/../../../src/hal/../misc/lv_area.h ****  * @return false:the point is out of the area
 204:Middlewares/lvgl/examples/widgets/textarea/../../../src/hal/../misc/lv_area.h ****  */
 205:Middlewares/lvgl/examples/widgets/textarea/../../../src/hal/../misc/lv_area.h **** bool _lv_area_is_point_on(const lv_area_t * a_p, const lv_point_t * p_p, lv_coord_t radius);
 206:Middlewares/lvgl/examples/widgets/textarea/../../../src/hal/../misc/lv_area.h **** 
 207:Middlewares/lvgl/examples/widgets/textarea/../../../src/hal/../misc/lv_area.h **** /**
 208:Middlewares/lvgl/examples/widgets/textarea/../../../src/hal/../misc/lv_area.h ****  * Check if two area has common parts
 209:Middlewares/lvgl/examples/widgets/textarea/../../../src/hal/../misc/lv_area.h ****  * @param a1_p pointer to an area.
 210:Middlewares/lvgl/examples/widgets/textarea/../../../src/hal/../misc/lv_area.h ****  * @param a2_p pointer to an other area
 211:Middlewares/lvgl/examples/widgets/textarea/../../../src/hal/../misc/lv_area.h ****  * @return false: a1_p and a2_p has no common parts
 212:Middlewares/lvgl/examples/widgets/textarea/../../../src/hal/../misc/lv_area.h ****  */
 213:Middlewares/lvgl/examples/widgets/textarea/../../../src/hal/../misc/lv_area.h **** bool _lv_area_is_on(const lv_area_t * a1_p, const lv_area_t * a2_p);
 214:Middlewares/lvgl/examples/widgets/textarea/../../../src/hal/../misc/lv_area.h **** 
 215:Middlewares/lvgl/examples/widgets/textarea/../../../src/hal/../misc/lv_area.h **** /**
 216:Middlewares/lvgl/examples/widgets/textarea/../../../src/hal/../misc/lv_area.h ****  * Check if an area is fully on an other
 217:Middlewares/lvgl/examples/widgets/textarea/../../../src/hal/../misc/lv_area.h ****  * @param ain_p pointer to an area which could be in 'aholder_p'
 218:Middlewares/lvgl/examples/widgets/textarea/../../../src/hal/../misc/lv_area.h ****  * @param aholder_p pointer to an area which could involve 'ain_p'
 219:Middlewares/lvgl/examples/widgets/textarea/../../../src/hal/../misc/lv_area.h ****  * @param radius radius of `aholder_p` (e.g. for rounded rectangle)
 220:Middlewares/lvgl/examples/widgets/textarea/../../../src/hal/../misc/lv_area.h ****  * @return true: `ain_p` is fully inside `aholder_p`
 221:Middlewares/lvgl/examples/widgets/textarea/../../../src/hal/../misc/lv_area.h ****  */
 222:Middlewares/lvgl/examples/widgets/textarea/../../../src/hal/../misc/lv_area.h **** bool _lv_area_is_in(const lv_area_t * ain_p, const lv_area_t * aholder_p, lv_coord_t radius);
 223:Middlewares/lvgl/examples/widgets/textarea/../../../src/hal/../misc/lv_area.h **** 
 224:Middlewares/lvgl/examples/widgets/textarea/../../../src/hal/../misc/lv_area.h **** /**
 225:Middlewares/lvgl/examples/widgets/textarea/../../../src/hal/../misc/lv_area.h ****  * Align an area to an other
 226:Middlewares/lvgl/examples/widgets/textarea/../../../src/hal/../misc/lv_area.h ****  * @param base an are where the other will be aligned
 227:Middlewares/lvgl/examples/widgets/textarea/../../../src/hal/../misc/lv_area.h ****  * @param to_align the area to align
 228:Middlewares/lvgl/examples/widgets/textarea/../../../src/hal/../misc/lv_area.h ****  * @param align `LV_ALIGN_...`
 229:Middlewares/lvgl/examples/widgets/textarea/../../../src/hal/../misc/lv_area.h ****  */
 230:Middlewares/lvgl/examples/widgets/textarea/../../../src/hal/../misc/lv_area.h **** void lv_area_align(const lv_area_t * base, lv_area_t * to_align, lv_align_t align, lv_coord_t ofs_x
 231:Middlewares/lvgl/examples/widgets/textarea/../../../src/hal/../misc/lv_area.h **** 
 232:Middlewares/lvgl/examples/widgets/textarea/../../../src/hal/../misc/lv_area.h **** /**********************
 233:Middlewares/lvgl/examples/widgets/textarea/../../../src/hal/../misc/lv_area.h ****  *      MACROS
 234:Middlewares/lvgl/examples/widgets/textarea/../../../src/hal/../misc/lv_area.h ****  **********************/
 235:Middlewares/lvgl/examples/widgets/textarea/../../../src/hal/../misc/lv_area.h **** 
 236:Middlewares/lvgl/examples/widgets/textarea/../../../src/hal/../misc/lv_area.h **** #if LV_USE_LARGE_COORD
 237:Middlewares/lvgl/examples/widgets/textarea/../../../src/hal/../misc/lv_area.h **** #define _LV_COORD_TYPE_SHIFT    (29)
ARM GAS  /tmp/ccMI40i9.s 			page 12


 238:Middlewares/lvgl/examples/widgets/textarea/../../../src/hal/../misc/lv_area.h **** #else
 239:Middlewares/lvgl/examples/widgets/textarea/../../../src/hal/../misc/lv_area.h **** #define _LV_COORD_TYPE_SHIFT    (13)
 240:Middlewares/lvgl/examples/widgets/textarea/../../../src/hal/../misc/lv_area.h **** #endif
 241:Middlewares/lvgl/examples/widgets/textarea/../../../src/hal/../misc/lv_area.h **** 
 242:Middlewares/lvgl/examples/widgets/textarea/../../../src/hal/../misc/lv_area.h **** #define _LV_COORD_TYPE_MASK     (3 << _LV_COORD_TYPE_SHIFT)
 243:Middlewares/lvgl/examples/widgets/textarea/../../../src/hal/../misc/lv_area.h **** #define _LV_COORD_PLAIN(x)      ((x) & (~_LV_COORD_TYPE_MASK))  /*Remove type specifiers*/
 244:Middlewares/lvgl/examples/widgets/textarea/../../../src/hal/../misc/lv_area.h **** 
 245:Middlewares/lvgl/examples/widgets/textarea/../../../src/hal/../misc/lv_area.h **** #define _LV_COORD_TYPE_PX       (0 << _LV_COORD_TYPE_SHIFT)
 246:Middlewares/lvgl/examples/widgets/textarea/../../../src/hal/../misc/lv_area.h **** #define _LV_COORD_TYPE_SPEC     (1 << _LV_COORD_TYPE_SHIFT)
 247:Middlewares/lvgl/examples/widgets/textarea/../../../src/hal/../misc/lv_area.h **** #define _LV_COORD_TYPE_RESERVED (3 << _LV_COORD_TYPE_SHIFT)
 248:Middlewares/lvgl/examples/widgets/textarea/../../../src/hal/../misc/lv_area.h **** 
 249:Middlewares/lvgl/examples/widgets/textarea/../../../src/hal/../misc/lv_area.h **** #define LV_COORD_IS_PX(x)     ((((x) & _LV_COORD_TYPE_MASK) == _LV_COORD_TYPE_PX) ? true : false)
 250:Middlewares/lvgl/examples/widgets/textarea/../../../src/hal/../misc/lv_area.h **** #define LV_COORD_IS_SPEC(x)   ((((x) & _LV_COORD_TYPE_MASK) == _LV_COORD_TYPE_SPEC) ? true : false)
 251:Middlewares/lvgl/examples/widgets/textarea/../../../src/hal/../misc/lv_area.h **** 
 252:Middlewares/lvgl/examples/widgets/textarea/../../../src/hal/../misc/lv_area.h **** #define LV_COORD_SET_SPEC(x)   ((x) | _LV_COORD_TYPE_SPEC)
 253:Middlewares/lvgl/examples/widgets/textarea/../../../src/hal/../misc/lv_area.h **** 
 254:Middlewares/lvgl/examples/widgets/textarea/../../../src/hal/../misc/lv_area.h **** /*Special coordinates*/
 255:Middlewares/lvgl/examples/widgets/textarea/../../../src/hal/../misc/lv_area.h **** #define LV_PCT(x)               (x < 0 ? LV_COORD_SET_SPEC(1000 - (x)) : LV_COORD_SET_SPEC(x))
 256:Middlewares/lvgl/examples/widgets/textarea/../../../src/hal/../misc/lv_area.h **** #define LV_COORD_IS_PCT(x)      ((LV_COORD_IS_SPEC(x) && _LV_COORD_PLAIN(x) <= 2000) ? true : false
 257:Middlewares/lvgl/examples/widgets/textarea/../../../src/hal/../misc/lv_area.h **** #define LV_COORD_GET_PCT(x)     (_LV_COORD_PLAIN(x) > 1000 ? 1000 - _LV_COORD_PLAIN(x) : _LV_COORD_
 258:Middlewares/lvgl/examples/widgets/textarea/../../../src/hal/../misc/lv_area.h **** #define LV_SIZE_CONTENT         LV_COORD_SET_SPEC(2001)
 259:Middlewares/lvgl/examples/widgets/textarea/../../../src/hal/../misc/lv_area.h **** 
 260:Middlewares/lvgl/examples/widgets/textarea/../../../src/hal/../misc/lv_area.h **** LV_EXPORT_CONST_INT(LV_SIZE_CONTENT);
 261:Middlewares/lvgl/examples/widgets/textarea/../../../src/hal/../misc/lv_area.h **** 
 262:Middlewares/lvgl/examples/widgets/textarea/../../../src/hal/../misc/lv_area.h **** /**
 263:Middlewares/lvgl/examples/widgets/textarea/../../../src/hal/../misc/lv_area.h ****  * Convert a percentage value to `lv_coord_t`.
 264:Middlewares/lvgl/examples/widgets/textarea/../../../src/hal/../misc/lv_area.h ****  * Percentage values are stored in special range
 265:Middlewares/lvgl/examples/widgets/textarea/../../../src/hal/../misc/lv_area.h ****  * @param x the percentage (0..1000)
 266:Middlewares/lvgl/examples/widgets/textarea/../../../src/hal/../misc/lv_area.h ****  * @return a coordinate that stores the percentage
 267:Middlewares/lvgl/examples/widgets/textarea/../../../src/hal/../misc/lv_area.h ****  */
 268:Middlewares/lvgl/examples/widgets/textarea/../../../src/hal/../misc/lv_area.h **** static inline lv_coord_t lv_pct(lv_coord_t x)
 269:Middlewares/lvgl/examples/widgets/textarea/../../../src/hal/../misc/lv_area.h **** {
 270:Middlewares/lvgl/examples/widgets/textarea/../../../src/hal/../misc/lv_area.h ****     return LV_PCT(x);
 158              		.loc 3 270 5 view .LVU26
  15:Middlewares/lvgl/examples/widgets/textarea/lv_example_textarea_2.c ****     lv_obj_set_pos(pwd_ta, 5, 20);
 159              		.loc 1 15 5 is_stmt 0 view .LVU27
 160 0028 42F22801 		movw	r1, #8232
 161 002c 2046     		mov	r0, r4
 162 002e FFF7FEFF 		bl	lv_obj_set_width
 163              	.LVL16:
  16:Middlewares/lvgl/examples/widgets/textarea/lv_example_textarea_2.c ****     lv_obj_add_event_cb(pwd_ta, ta_event_cb, LV_EVENT_ALL, NULL);
 164              		.loc 1 16 5 is_stmt 1 view .LVU28
 165 0032 1422     		movs	r2, #20
 166 0034 0521     		movs	r1, #5
 167 0036 2046     		mov	r0, r4
 168 0038 FFF7FEFF 		bl	lv_obj_set_pos
 169              	.LVL17:
  17:Middlewares/lvgl/examples/widgets/textarea/lv_example_textarea_2.c **** 
 170              		.loc 1 17 5 view .LVU29
 171 003c 354F     		ldr	r7, .L9+4
 172 003e 0023     		movs	r3, #0
 173 0040 1A46     		mov	r2, r3
 174 0042 3946     		mov	r1, r7
 175 0044 2046     		mov	r0, r4
 176 0046 FFF7FEFF 		bl	lv_obj_add_event_cb
 177              	.LVL18:
  20:Middlewares/lvgl/examples/widgets/textarea/lv_example_textarea_2.c ****     lv_label_set_text(pwd_label, "Password:");
ARM GAS  /tmp/ccMI40i9.s 			page 13


 178              		.loc 1 20 5 view .LVU30
 179              	.LBB18:
 180              	.LBI18:
 163:Middlewares/lvgl/examples/widgets/textarea/../../../src/core/lv_disp.h **** {
 181              		.loc 2 163 26 view .LVU31
 182              	.LBB19:
 183              		.loc 2 165 5 view .LVU32
 184              		.loc 2 165 12 is_stmt 0 view .LVU33
 185 004a FFF7FEFF 		bl	lv_disp_get_default
 186              	.LVL19:
 187 004e FFF7FEFF 		bl	lv_disp_get_scr_act
 188              	.LVL20:
 189              	.LBE19:
 190              	.LBE18:
  20:Middlewares/lvgl/examples/widgets/textarea/lv_example_textarea_2.c ****     lv_label_set_text(pwd_label, "Password:");
 191              		.loc 1 20 28 view .LVU34
 192 0052 FFF7FEFF 		bl	lv_label_create
 193              	.LVL21:
 194 0056 0546     		mov	r5, r0
 195              	.LVL22:
  21:Middlewares/lvgl/examples/widgets/textarea/lv_example_textarea_2.c ****     lv_obj_align_to(pwd_label, pwd_ta, LV_ALIGN_OUT_TOP_LEFT, 0, 0);
 196              		.loc 1 21 5 is_stmt 1 view .LVU35
 197 0058 2F49     		ldr	r1, .L9+8
 198 005a FFF7FEFF 		bl	lv_label_set_text
 199              	.LVL23:
  22:Middlewares/lvgl/examples/widgets/textarea/lv_example_textarea_2.c **** 
 200              		.loc 1 22 5 view .LVU36
 201 005e 0026     		movs	r6, #0
 202 0060 0096     		str	r6, [sp]
 203 0062 3346     		mov	r3, r6
 204 0064 0A22     		movs	r2, #10
 205 0066 2146     		mov	r1, r4
 206 0068 2846     		mov	r0, r5
 207 006a FFF7FEFF 		bl	lv_obj_align_to
 208              	.LVL24:
  25:Middlewares/lvgl/examples/widgets/textarea/lv_example_textarea_2.c ****     lv_textarea_set_one_line(text_ta, true);
 209              		.loc 1 25 5 view .LVU37
 210              	.LBB20:
 211              	.LBI20:
 163:Middlewares/lvgl/examples/widgets/textarea/../../../src/core/lv_disp.h **** {
 212              		.loc 2 163 26 view .LVU38
 213              	.LBB21:
 214              		.loc 2 165 5 view .LVU39
 215              		.loc 2 165 12 is_stmt 0 view .LVU40
 216 006e FFF7FEFF 		bl	lv_disp_get_default
 217              	.LVL25:
 218 0072 FFF7FEFF 		bl	lv_disp_get_scr_act
 219              	.LVL26:
 220              	.LBE21:
 221              	.LBE20:
  25:Middlewares/lvgl/examples/widgets/textarea/lv_example_textarea_2.c ****     lv_textarea_set_one_line(text_ta, true);
 222              		.loc 1 25 26 view .LVU41
 223 0076 FFF7FEFF 		bl	lv_textarea_create
 224              	.LVL27:
 225 007a 0546     		mov	r5, r0
 226              	.LVL28:
  26:Middlewares/lvgl/examples/widgets/textarea/lv_example_textarea_2.c ****     lv_textarea_set_password_mode(text_ta, false);
ARM GAS  /tmp/ccMI40i9.s 			page 14


 227              		.loc 1 26 5 is_stmt 1 view .LVU42
 228 007c 0121     		movs	r1, #1
 229 007e FFF7FEFF 		bl	lv_textarea_set_one_line
 230              	.LVL29:
  27:Middlewares/lvgl/examples/widgets/textarea/lv_example_textarea_2.c ****     lv_obj_set_width(text_ta, lv_pct(40));
 231              		.loc 1 27 5 view .LVU43
 232 0082 3146     		mov	r1, r6
 233 0084 2846     		mov	r0, r5
 234 0086 FFF7FEFF 		bl	lv_textarea_set_password_mode
 235              	.LVL30:
  28:Middlewares/lvgl/examples/widgets/textarea/lv_example_textarea_2.c ****     lv_obj_add_event_cb(text_ta, ta_event_cb, LV_EVENT_ALL, NULL);
 236              		.loc 1 28 5 view .LVU44
 237              		.loc 3 270 5 view .LVU45
  28:Middlewares/lvgl/examples/widgets/textarea/lv_example_textarea_2.c ****     lv_obj_add_event_cb(text_ta, ta_event_cb, LV_EVENT_ALL, NULL);
 238              		.loc 1 28 5 is_stmt 0 view .LVU46
 239 008a 42F22801 		movw	r1, #8232
 240 008e 2846     		mov	r0, r5
 241 0090 FFF7FEFF 		bl	lv_obj_set_width
 242              	.LVL31:
  29:Middlewares/lvgl/examples/widgets/textarea/lv_example_textarea_2.c ****     lv_obj_align(text_ta, LV_ALIGN_TOP_RIGHT, -5, 20);
 243              		.loc 1 29 5 is_stmt 1 view .LVU47
 244 0094 3346     		mov	r3, r6
 245 0096 3246     		mov	r2, r6
 246 0098 3946     		mov	r1, r7
 247 009a 2846     		mov	r0, r5
 248 009c FFF7FEFF 		bl	lv_obj_add_event_cb
 249              	.LVL32:
  30:Middlewares/lvgl/examples/widgets/textarea/lv_example_textarea_2.c **** 
 250              		.loc 1 30 5 view .LVU48
 251 00a0 1423     		movs	r3, #20
 252 00a2 6FF00402 		mvn	r2, #4
 253 00a6 0321     		movs	r1, #3
 254 00a8 2846     		mov	r0, r5
 255 00aa FFF7FEFF 		bl	lv_obj_align
 256              	.LVL33:
  34:Middlewares/lvgl/examples/widgets/textarea/lv_example_textarea_2.c ****     lv_label_set_text(oneline_label, "Text:");
 257              		.loc 1 34 5 view .LVU49
 258              	.LBB22:
 259              	.LBI22:
 163:Middlewares/lvgl/examples/widgets/textarea/../../../src/core/lv_disp.h **** {
 260              		.loc 2 163 26 view .LVU50
 261              	.LBB23:
 262              		.loc 2 165 5 view .LVU51
 263              		.loc 2 165 12 is_stmt 0 view .LVU52
 264 00ae FFF7FEFF 		bl	lv_disp_get_default
 265              	.LVL34:
 266 00b2 FFF7FEFF 		bl	lv_disp_get_scr_act
 267              	.LVL35:
 268              	.LBE23:
 269              	.LBE22:
  34:Middlewares/lvgl/examples/widgets/textarea/lv_example_textarea_2.c ****     lv_label_set_text(oneline_label, "Text:");
 270              		.loc 1 34 32 view .LVU53
 271 00b6 FFF7FEFF 		bl	lv_label_create
 272              	.LVL36:
 273 00ba 0746     		mov	r7, r0
 274              	.LVL37:
  35:Middlewares/lvgl/examples/widgets/textarea/lv_example_textarea_2.c ****     lv_obj_align_to(oneline_label, text_ta, LV_ALIGN_OUT_TOP_LEFT, 0, 0);
ARM GAS  /tmp/ccMI40i9.s 			page 15


 275              		.loc 1 35 5 is_stmt 1 view .LVU54
 276 00bc 1749     		ldr	r1, .L9+12
 277 00be FFF7FEFF 		bl	lv_label_set_text
 278              	.LVL38:
  36:Middlewares/lvgl/examples/widgets/textarea/lv_example_textarea_2.c **** 
 279              		.loc 1 36 5 view .LVU55
 280 00c2 0096     		str	r6, [sp]
 281 00c4 3346     		mov	r3, r6
 282 00c6 0A22     		movs	r2, #10
 283 00c8 2946     		mov	r1, r5
 284 00ca 3846     		mov	r0, r7
 285 00cc FFF7FEFF 		bl	lv_obj_align_to
 286              	.LVL39:
  39:Middlewares/lvgl/examples/widgets/textarea/lv_example_textarea_2.c ****     lv_obj_set_size(kb,  LV_HOR_RES, LV_VER_RES / 2);
 287              		.loc 1 39 5 view .LVU56
 288              	.LBB24:
 289              	.LBI24:
 163:Middlewares/lvgl/examples/widgets/textarea/../../../src/core/lv_disp.h **** {
 290              		.loc 2 163 26 view .LVU57
 291              	.LBB25:
 292              		.loc 2 165 5 view .LVU58
 293              		.loc 2 165 12 is_stmt 0 view .LVU59
 294 00d0 FFF7FEFF 		bl	lv_disp_get_default
 295              	.LVL40:
 296 00d4 FFF7FEFF 		bl	lv_disp_get_scr_act
 297              	.LVL41:
 298              	.LBE25:
 299              	.LBE24:
  39:Middlewares/lvgl/examples/widgets/textarea/lv_example_textarea_2.c ****     lv_obj_set_size(kb,  LV_HOR_RES, LV_VER_RES / 2);
 300              		.loc 1 39 10 view .LVU60
 301 00d8 FFF7FEFF 		bl	lv_keyboard_create
 302              	.LVL42:
 303 00dc 0546     		mov	r5, r0
 304              	.LVL43:
  39:Middlewares/lvgl/examples/widgets/textarea/lv_example_textarea_2.c ****     lv_obj_set_size(kb,  LV_HOR_RES, LV_VER_RES / 2);
 305              		.loc 1 39 8 view .LVU61
 306 00de 104F     		ldr	r7, .L9+16
 307              	.LVL44:
  39:Middlewares/lvgl/examples/widgets/textarea/lv_example_textarea_2.c ****     lv_obj_set_size(kb,  LV_HOR_RES, LV_VER_RES / 2);
 308              		.loc 1 39 8 view .LVU62
 309 00e0 3860     		str	r0, [r7]
  40:Middlewares/lvgl/examples/widgets/textarea/lv_example_textarea_2.c **** 
 310              		.loc 1 40 5 is_stmt 1 view .LVU63
 311 00e2 FFF7FEFF 		bl	lv_disp_get_default
 312              	.LVL45:
 313 00e6 FFF7FEFF 		bl	lv_disp_get_hor_res
 314              	.LVL46:
 315 00ea 0646     		mov	r6, r0
  40:Middlewares/lvgl/examples/widgets/textarea/lv_example_textarea_2.c **** 
 316              		.loc 1 40 38 is_stmt 0 view .LVU64
 317 00ec FFF7FEFF 		bl	lv_disp_get_default
 318              	.LVL47:
 319 00f0 FFF7FEFF 		bl	lv_disp_get_ver_res
 320              	.LVL48:
  40:Middlewares/lvgl/examples/widgets/textarea/lv_example_textarea_2.c **** 
 321              		.loc 1 40 5 view .LVU65
 322 00f4 00EBD070 		add	r0, r0, r0, lsr #31
ARM GAS  /tmp/ccMI40i9.s 			page 16


 323 00f8 40F34F02 		sbfx	r2, r0, #1, #16
 324 00fc 3146     		mov	r1, r6
 325 00fe 2846     		mov	r0, r5
 326 0100 FFF7FEFF 		bl	lv_obj_set_size
 327              	.LVL49:
  42:Middlewares/lvgl/examples/widgets/textarea/lv_example_textarea_2.c **** }
 328              		.loc 1 42 5 is_stmt 1 view .LVU66
 329 0104 2146     		mov	r1, r4
 330 0106 3868     		ldr	r0, [r7]
 331 0108 FFF7FEFF 		bl	lv_keyboard_set_textarea
 332              	.LVL50:
  43:Middlewares/lvgl/examples/widgets/textarea/lv_example_textarea_2.c **** 
 333              		.loc 1 43 1 is_stmt 0 view .LVU67
 334 010c 03B0     		add	sp, sp, #12
 335              	.LCFI3:
 336              		.cfi_def_cfa_offset 20
 337              		@ sp needed
 338 010e F0BD     		pop	{r4, r5, r6, r7, pc}
 339              	.LVL51:
 340              	.L10:
  43:Middlewares/lvgl/examples/widgets/textarea/lv_example_textarea_2.c **** 
 341              		.loc 1 43 1 view .LVU68
 342              		.align	2
 343              	.L9:
 344 0110 00000000 		.word	.LC0
 345 0114 00000000 		.word	ta_event_cb
 346 0118 04000000 		.word	.LC1
 347 011c 10000000 		.word	.LC2
 348 0120 00000000 		.word	.LANCHOR0
 349              		.cfi_endproc
 350              	.LFE184:
 352              		.section	.bss.kb,"aw",%nobits
 353              		.align	2
 354              		.set	.LANCHOR0,. + 0
 357              	kb:
 358 0000 00000000 		.space	4
 359              		.text
 360              	.Letext0:
 361              		.file 4 "/home/akinya/gcc-arm-none-eabi/arm-none-eabi/include/machine/_default_types.h"
 362              		.file 5 "/home/akinya/gcc-arm-none-eabi/arm-none-eabi/include/sys/_stdint.h"
 363              		.file 6 "Middlewares/lvgl/examples/widgets/textarea/../../../src/misc/lv_ll.h"
 364              		.file 7 "Middlewares/lvgl/examples/widgets/textarea/../../../src/hal/../misc/lv_color.h"
 365              		.file 8 "Middlewares/lvgl/examples/widgets/textarea/../../../src/core/lv_obj.h"
 366              		.file 9 "Middlewares/lvgl/examples/widgets/textarea/../../../src/core/lv_group.h"
 367              		.file 10 "Middlewares/lvgl/examples/widgets/textarea/../../../src/core/../misc/lv_style.h"
 368              		.file 11 "Middlewares/lvgl/examples/widgets/textarea/../../../src/core/lv_obj_scroll.h"
 369              		.file 12 "Middlewares/lvgl/examples/widgets/textarea/../../../src/core/lv_obj_style.h"
 370              		.file 13 "Middlewares/lvgl/examples/widgets/textarea/../../../src/core/lv_obj_class.h"
 371              		.file 14 "Middlewares/lvgl/examples/widgets/textarea/../../../src/core/lv_event.h"
 372              		.file 15 "Middlewares/lvgl/examples/widgets/textarea/../../../src/widgets/lv_bar.h"
 373              		.file 16 "Middlewares/lvgl/examples/widgets/textarea/../../../src/extra/widgets/imgbtn/lv_imgbtn.h
 374              		.file 17 "Middlewares/lvgl/examples/widgets/textarea/../../../src/extra/widgets/keyboard/lv_keyboa
 375              		.file 18 "Middlewares/lvgl/examples/widgets/textarea/../../../src/hal/lv_hal_disp.h"
 376              		.file 19 "Middlewares/lvgl/examples/widgets/textarea/../../../src/widgets/lv_textarea.h"
 377              		.file 20 "Middlewares/lvgl/examples/widgets/textarea/../../../src/core/lv_obj_pos.h"
 378              		.file 21 "Middlewares/lvgl/examples/widgets/textarea/../../../src/widgets/lv_label.h"
ARM GAS  /tmp/ccMI40i9.s 			page 17

