ARM GAS  /tmp/ccSwAuxA.s 			page 1


   1              		.cpu cortex-m4
   2              		.arch armv7e-m
   3              		.fpu fpv4-sp-d16
   4              		.eabi_attribute 27, 1
   5              		.eabi_attribute 28, 1
   6              		.eabi_attribute 20, 1
   7              		.eabi_attribute 21, 1
   8              		.eabi_attribute 23, 3
   9              		.eabi_attribute 24, 1
  10              		.eabi_attribute 25, 1
  11              		.eabi_attribute 26, 1
  12              		.eabi_attribute 30, 1
  13              		.eabi_attribute 34, 1
  14              		.eabi_attribute 18, 4
  15              		.file	"lv_example_style_14.c"
  16              		.text
  17              	.Ltext0:
  18              		.cfi_sections	.debug_frame
  19              		.section	.text.new_theme_init_and_set,"ax",%progbits
  20              		.align	1
  21              		.syntax unified
  22              		.thumb
  23              		.thumb_func
  25              	new_theme_init_and_set:
  26              	.LFB185:
  27              		.file 1 "Middlewares/lvgl/examples/styles/lv_example_style_14.c"
   1:Middlewares/lvgl/examples/styles/lv_example_style_14.c **** #include "../lv_examples.h"
   2:Middlewares/lvgl/examples/styles/lv_example_style_14.c **** #if LV_BUILD_EXAMPLES && LV_USE_IMG
   3:Middlewares/lvgl/examples/styles/lv_example_style_14.c **** 
   4:Middlewares/lvgl/examples/styles/lv_example_style_14.c **** 
   5:Middlewares/lvgl/examples/styles/lv_example_style_14.c **** static lv_style_t style_btn;
   6:Middlewares/lvgl/examples/styles/lv_example_style_14.c **** 
   7:Middlewares/lvgl/examples/styles/lv_example_style_14.c **** /*Will be called when the styles of the base theme are already added
   8:Middlewares/lvgl/examples/styles/lv_example_style_14.c ****   to add new styles*/
   9:Middlewares/lvgl/examples/styles/lv_example_style_14.c **** static void new_theme_apply_cb(lv_theme_t * th, lv_obj_t * obj)
  10:Middlewares/lvgl/examples/styles/lv_example_style_14.c **** {
  11:Middlewares/lvgl/examples/styles/lv_example_style_14.c ****     LV_UNUSED(th);
  12:Middlewares/lvgl/examples/styles/lv_example_style_14.c **** 
  13:Middlewares/lvgl/examples/styles/lv_example_style_14.c ****     if(lv_obj_check_type(obj, &lv_btn_class)) {
  14:Middlewares/lvgl/examples/styles/lv_example_style_14.c ****         lv_obj_add_style(obj, &style_btn, 0);
  15:Middlewares/lvgl/examples/styles/lv_example_style_14.c ****     }
  16:Middlewares/lvgl/examples/styles/lv_example_style_14.c **** }
  17:Middlewares/lvgl/examples/styles/lv_example_style_14.c **** 
  18:Middlewares/lvgl/examples/styles/lv_example_style_14.c **** static void new_theme_init_and_set(void)
  19:Middlewares/lvgl/examples/styles/lv_example_style_14.c **** {
  28              		.loc 1 19 1 view -0
  29              		.cfi_startproc
  30              		@ args = 0, pretend = 0, frame = 0
  31              		@ frame_needed = 0, uses_anonymous_args = 0
  32 0000 38B5     		push	{r3, r4, r5, lr}
  33              	.LCFI0:
  34              		.cfi_def_cfa_offset 16
  35              		.cfi_offset 3, -16
  36              		.cfi_offset 4, -12
  37              		.cfi_offset 5, -8
  38              		.cfi_offset 14, -4
  20:Middlewares/lvgl/examples/styles/lv_example_style_14.c ****     /*Initialize the styles*/
ARM GAS  /tmp/ccSwAuxA.s 			page 2


  21:Middlewares/lvgl/examples/styles/lv_example_style_14.c ****     lv_style_init(&style_btn);
  39              		.loc 1 21 5 view .LVU1
  40 0002 1B4C     		ldr	r4, .L3
  41 0004 2046     		mov	r0, r4
  42 0006 FFF7FEFF 		bl	lv_style_init
  43              	.LVL0:
  22:Middlewares/lvgl/examples/styles/lv_example_style_14.c ****     lv_style_set_bg_color(&style_btn, lv_palette_main(LV_PALETTE_GREEN));
  44              		.loc 1 22 5 view .LVU2
  45 000a 0920     		movs	r0, #9
  46 000c FFF7FEFF 		bl	lv_palette_main
  47              	.LVL1:
  48 0010 0146     		mov	r1, r0	@ movhi
  49 0012 2046     		mov	r0, r4
  50 0014 FFF7FEFF 		bl	lv_style_set_bg_color
  51              	.LVL2:
  23:Middlewares/lvgl/examples/styles/lv_example_style_14.c ****     lv_style_set_border_color(&style_btn, lv_palette_darken(LV_PALETTE_GREEN, 3));
  52              		.loc 1 23 5 view .LVU3
  53 0018 0321     		movs	r1, #3
  54 001a 0920     		movs	r0, #9
  55 001c FFF7FEFF 		bl	lv_palette_darken
  56              	.LVL3:
  57 0020 0146     		mov	r1, r0	@ movhi
  58 0022 2046     		mov	r0, r4
  59 0024 FFF7FEFF 		bl	lv_style_set_border_color
  60              	.LVL4:
  24:Middlewares/lvgl/examples/styles/lv_example_style_14.c ****     lv_style_set_border_width(&style_btn, 3);
  61              		.loc 1 24 5 view .LVU4
  62 0028 0321     		movs	r1, #3
  63 002a 2046     		mov	r0, r4
  64 002c FFF7FEFF 		bl	lv_style_set_border_width
  65              	.LVL5:
  25:Middlewares/lvgl/examples/styles/lv_example_style_14.c **** 
  26:Middlewares/lvgl/examples/styles/lv_example_style_14.c ****     /*Initialize the new theme from the current theme*/
  27:Middlewares/lvgl/examples/styles/lv_example_style_14.c ****     lv_theme_t * th_act = lv_disp_get_theme(NULL);
  66              		.loc 1 27 5 view .LVU5
  67              		.loc 1 27 27 is_stmt 0 view .LVU6
  68 0030 0020     		movs	r0, #0
  69 0032 FFF7FEFF 		bl	lv_disp_get_theme
  70              	.LVL6:
  71 0036 0546     		mov	r5, r0
  72              	.LVL7:
  28:Middlewares/lvgl/examples/styles/lv_example_style_14.c ****     static lv_theme_t th_new;
  73              		.loc 1 28 5 is_stmt 1 view .LVU7
  29:Middlewares/lvgl/examples/styles/lv_example_style_14.c ****     th_new = *th_act;
  74              		.loc 1 29 5 view .LVU8
  75              		.loc 1 29 12 is_stmt 0 view .LVU9
  76 0038 0E4C     		ldr	r4, .L3+4
  77 003a A446     		mov	ip, r4
  78 003c 8646     		mov	lr, r0
  79 003e BEE80F00 		ldmia	lr!, {r0, r1, r2, r3}
  80              	.LVL8:
  81              		.loc 1 29 12 view .LVU10
  82 0042 ACE80F00 		stmia	ip!, {r0, r1, r2, r3}
  83 0046 BEE80F00 		ldmia	lr!, {r0, r1, r2, r3}
  84 004a ACE80F00 		stmia	ip!, {r0, r1, r2, r3}
  85 004e DEF80030 		ldr	r3, [lr]
  86 0052 CCF80030 		str	r3, [ip]
ARM GAS  /tmp/ccSwAuxA.s 			page 3


  30:Middlewares/lvgl/examples/styles/lv_example_style_14.c **** 
  31:Middlewares/lvgl/examples/styles/lv_example_style_14.c ****     /*Set the parent theme ans the style applay callback for the new theme*/
  32:Middlewares/lvgl/examples/styles/lv_example_style_14.c ****     lv_theme_set_parent(&th_new, th_act);
  87              		.loc 1 32 5 is_stmt 1 view .LVU11
  88 0056 2946     		mov	r1, r5
  89 0058 2046     		mov	r0, r4
  90 005a FFF7FEFF 		bl	lv_theme_set_parent
  91              	.LVL9:
  33:Middlewares/lvgl/examples/styles/lv_example_style_14.c ****     lv_theme_set_apply_cb(&th_new, new_theme_apply_cb);
  92              		.loc 1 33 5 view .LVU12
  93 005e 0649     		ldr	r1, .L3+8
  94 0060 2046     		mov	r0, r4
  95 0062 FFF7FEFF 		bl	lv_theme_set_apply_cb
  96              	.LVL10:
  34:Middlewares/lvgl/examples/styles/lv_example_style_14.c **** 
  35:Middlewares/lvgl/examples/styles/lv_example_style_14.c ****     /*Assign the new theme the the current display*/
  36:Middlewares/lvgl/examples/styles/lv_example_style_14.c ****     lv_disp_set_theme(NULL, &th_new);
  97              		.loc 1 36 5 view .LVU13
  98 0066 2146     		mov	r1, r4
  99 0068 0020     		movs	r0, #0
 100 006a FFF7FEFF 		bl	lv_disp_set_theme
 101              	.LVL11:
  37:Middlewares/lvgl/examples/styles/lv_example_style_14.c **** }
 102              		.loc 1 37 1 is_stmt 0 view .LVU14
 103 006e 38BD     		pop	{r3, r4, r5, pc}
 104              	.LVL12:
 105              	.L4:
 106              		.loc 1 37 1 view .LVU15
 107              		.align	2
 108              	.L3:
 109 0070 00000000 		.word	.LANCHOR0
 110 0074 00000000 		.word	.LANCHOR1
 111 0078 00000000 		.word	new_theme_apply_cb
 112              		.cfi_endproc
 113              	.LFE185:
 115              		.section	.text.new_theme_apply_cb,"ax",%progbits
 116              		.align	1
 117              		.syntax unified
 118              		.thumb
 119              		.thumb_func
 121              	new_theme_apply_cb:
 122              	.LVL13:
 123              	.LFB184:
  10:Middlewares/lvgl/examples/styles/lv_example_style_14.c ****     LV_UNUSED(th);
 124              		.loc 1 10 1 is_stmt 1 view -0
 125              		.cfi_startproc
 126              		@ args = 0, pretend = 0, frame = 0
 127              		@ frame_needed = 0, uses_anonymous_args = 0
  10:Middlewares/lvgl/examples/styles/lv_example_style_14.c ****     LV_UNUSED(th);
 128              		.loc 1 10 1 is_stmt 0 view .LVU17
 129 0000 10B5     		push	{r4, lr}
 130              	.LCFI1:
 131              		.cfi_def_cfa_offset 8
 132              		.cfi_offset 4, -8
 133              		.cfi_offset 14, -4
 134 0002 0C46     		mov	r4, r1
  11:Middlewares/lvgl/examples/styles/lv_example_style_14.c **** 
ARM GAS  /tmp/ccSwAuxA.s 			page 4


 135              		.loc 1 11 5 is_stmt 1 view .LVU18
  13:Middlewares/lvgl/examples/styles/lv_example_style_14.c ****         lv_obj_add_style(obj, &style_btn, 0);
 136              		.loc 1 13 5 view .LVU19
  13:Middlewares/lvgl/examples/styles/lv_example_style_14.c ****         lv_obj_add_style(obj, &style_btn, 0);
 137              		.loc 1 13 8 is_stmt 0 view .LVU20
 138 0004 0549     		ldr	r1, .L9
 139              	.LVL14:
  13:Middlewares/lvgl/examples/styles/lv_example_style_14.c ****         lv_obj_add_style(obj, &style_btn, 0);
 140              		.loc 1 13 8 view .LVU21
 141 0006 2046     		mov	r0, r4
 142              	.LVL15:
  13:Middlewares/lvgl/examples/styles/lv_example_style_14.c ****         lv_obj_add_style(obj, &style_btn, 0);
 143              		.loc 1 13 8 view .LVU22
 144 0008 FFF7FEFF 		bl	lv_obj_check_type
 145              	.LVL16:
  13:Middlewares/lvgl/examples/styles/lv_example_style_14.c ****         lv_obj_add_style(obj, &style_btn, 0);
 146              		.loc 1 13 7 view .LVU23
 147 000c 00B9     		cbnz	r0, .L8
 148              	.L5:
  16:Middlewares/lvgl/examples/styles/lv_example_style_14.c **** 
 149              		.loc 1 16 1 view .LVU24
 150 000e 10BD     		pop	{r4, pc}
 151              	.LVL17:
 152              	.L8:
  14:Middlewares/lvgl/examples/styles/lv_example_style_14.c ****     }
 153              		.loc 1 14 9 is_stmt 1 view .LVU25
 154 0010 0022     		movs	r2, #0
 155 0012 0349     		ldr	r1, .L9+4
 156 0014 2046     		mov	r0, r4
 157 0016 FFF7FEFF 		bl	lv_obj_add_style
 158              	.LVL18:
  16:Middlewares/lvgl/examples/styles/lv_example_style_14.c **** 
 159              		.loc 1 16 1 is_stmt 0 view .LVU26
 160 001a F8E7     		b	.L5
 161              	.L10:
 162              		.align	2
 163              	.L9:
 164 001c 00000000 		.word	lv_btn_class
 165 0020 00000000 		.word	.LANCHOR0
 166              		.cfi_endproc
 167              	.LFE184:
 169              		.section	.rodata.lv_example_style_14.str1.4,"aMS",%progbits,1
 170              		.align	2
 171              	.LC0:
 172 0000 4F726967 		.ascii	"Original theme\000"
 172      696E616C 
 172      20746865 
 172      6D6500
 173 000f 00       		.align	2
 174              	.LC1:
 175 0010 4E657720 		.ascii	"New theme\000"
 175      7468656D 
 175      6500
 176              		.section	.text.lv_example_style_14,"ax",%progbits
 177              		.align	1
 178              		.global	lv_example_style_14
 179              		.syntax unified
ARM GAS  /tmp/ccSwAuxA.s 			page 5


 180              		.thumb
 181              		.thumb_func
 183              	lv_example_style_14:
 184              	.LFB186:
  38:Middlewares/lvgl/examples/styles/lv_example_style_14.c **** 
  39:Middlewares/lvgl/examples/styles/lv_example_style_14.c **** 
  40:Middlewares/lvgl/examples/styles/lv_example_style_14.c **** 
  41:Middlewares/lvgl/examples/styles/lv_example_style_14.c **** /**
  42:Middlewares/lvgl/examples/styles/lv_example_style_14.c ****  * Extending the current theme
  43:Middlewares/lvgl/examples/styles/lv_example_style_14.c ****  */
  44:Middlewares/lvgl/examples/styles/lv_example_style_14.c **** void lv_example_style_14(void)
  45:Middlewares/lvgl/examples/styles/lv_example_style_14.c **** {
 185              		.loc 1 45 1 is_stmt 1 view -0
 186              		.cfi_startproc
 187              		@ args = 0, pretend = 0, frame = 0
 188              		@ frame_needed = 0, uses_anonymous_args = 0
 189 0000 10B5     		push	{r4, lr}
 190              	.LCFI2:
 191              		.cfi_def_cfa_offset 8
 192              		.cfi_offset 4, -8
 193              		.cfi_offset 14, -4
  46:Middlewares/lvgl/examples/styles/lv_example_style_14.c ****     lv_obj_t * btn;
 194              		.loc 1 46 5 view .LVU28
  47:Middlewares/lvgl/examples/styles/lv_example_style_14.c ****     lv_obj_t * label;
 195              		.loc 1 47 5 view .LVU29
  48:Middlewares/lvgl/examples/styles/lv_example_style_14.c **** 
  49:Middlewares/lvgl/examples/styles/lv_example_style_14.c ****     btn = lv_btn_create(lv_scr_act());
 196              		.loc 1 49 5 view .LVU30
 197              	.LBB6:
 198              	.LBI6:
 199              		.file 2 "Middlewares/lvgl/examples/styles/../../src/core/lv_disp.h"
   1:Middlewares/lvgl/examples/styles/../../src/core/lv_disp.h **** /**
   2:Middlewares/lvgl/examples/styles/../../src/core/lv_disp.h ****  * @file lv_disp.h
   3:Middlewares/lvgl/examples/styles/../../src/core/lv_disp.h ****  *
   4:Middlewares/lvgl/examples/styles/../../src/core/lv_disp.h ****  */
   5:Middlewares/lvgl/examples/styles/../../src/core/lv_disp.h **** 
   6:Middlewares/lvgl/examples/styles/../../src/core/lv_disp.h **** #ifndef LV_DISP_H
   7:Middlewares/lvgl/examples/styles/../../src/core/lv_disp.h **** #define LV_DISP_H
   8:Middlewares/lvgl/examples/styles/../../src/core/lv_disp.h **** 
   9:Middlewares/lvgl/examples/styles/../../src/core/lv_disp.h **** #ifdef __cplusplus
  10:Middlewares/lvgl/examples/styles/../../src/core/lv_disp.h **** extern "C" {
  11:Middlewares/lvgl/examples/styles/../../src/core/lv_disp.h **** #endif
  12:Middlewares/lvgl/examples/styles/../../src/core/lv_disp.h **** 
  13:Middlewares/lvgl/examples/styles/../../src/core/lv_disp.h **** /*********************
  14:Middlewares/lvgl/examples/styles/../../src/core/lv_disp.h ****  *      INCLUDES
  15:Middlewares/lvgl/examples/styles/../../src/core/lv_disp.h ****  *********************/
  16:Middlewares/lvgl/examples/styles/../../src/core/lv_disp.h **** #include "../hal/lv_hal.h"
  17:Middlewares/lvgl/examples/styles/../../src/core/lv_disp.h **** #include "lv_obj.h"
  18:Middlewares/lvgl/examples/styles/../../src/core/lv_disp.h **** #include "lv_theme.h"
  19:Middlewares/lvgl/examples/styles/../../src/core/lv_disp.h **** 
  20:Middlewares/lvgl/examples/styles/../../src/core/lv_disp.h **** /*********************
  21:Middlewares/lvgl/examples/styles/../../src/core/lv_disp.h ****  *      DEFINES
  22:Middlewares/lvgl/examples/styles/../../src/core/lv_disp.h ****  *********************/
  23:Middlewares/lvgl/examples/styles/../../src/core/lv_disp.h **** 
  24:Middlewares/lvgl/examples/styles/../../src/core/lv_disp.h **** /**********************
  25:Middlewares/lvgl/examples/styles/../../src/core/lv_disp.h ****  *      TYPEDEFS
  26:Middlewares/lvgl/examples/styles/../../src/core/lv_disp.h ****  **********************/
ARM GAS  /tmp/ccSwAuxA.s 			page 6


  27:Middlewares/lvgl/examples/styles/../../src/core/lv_disp.h **** 
  28:Middlewares/lvgl/examples/styles/../../src/core/lv_disp.h **** typedef enum {
  29:Middlewares/lvgl/examples/styles/../../src/core/lv_disp.h ****     LV_SCR_LOAD_ANIM_NONE,
  30:Middlewares/lvgl/examples/styles/../../src/core/lv_disp.h ****     LV_SCR_LOAD_ANIM_OVER_LEFT,
  31:Middlewares/lvgl/examples/styles/../../src/core/lv_disp.h ****     LV_SCR_LOAD_ANIM_OVER_RIGHT,
  32:Middlewares/lvgl/examples/styles/../../src/core/lv_disp.h ****     LV_SCR_LOAD_ANIM_OVER_TOP,
  33:Middlewares/lvgl/examples/styles/../../src/core/lv_disp.h ****     LV_SCR_LOAD_ANIM_OVER_BOTTOM,
  34:Middlewares/lvgl/examples/styles/../../src/core/lv_disp.h ****     LV_SCR_LOAD_ANIM_MOVE_LEFT,
  35:Middlewares/lvgl/examples/styles/../../src/core/lv_disp.h ****     LV_SCR_LOAD_ANIM_MOVE_RIGHT,
  36:Middlewares/lvgl/examples/styles/../../src/core/lv_disp.h ****     LV_SCR_LOAD_ANIM_MOVE_TOP,
  37:Middlewares/lvgl/examples/styles/../../src/core/lv_disp.h ****     LV_SCR_LOAD_ANIM_MOVE_BOTTOM,
  38:Middlewares/lvgl/examples/styles/../../src/core/lv_disp.h ****     LV_SCR_LOAD_ANIM_FADE_ON,
  39:Middlewares/lvgl/examples/styles/../../src/core/lv_disp.h **** } lv_scr_load_anim_t;
  40:Middlewares/lvgl/examples/styles/../../src/core/lv_disp.h **** 
  41:Middlewares/lvgl/examples/styles/../../src/core/lv_disp.h **** /**********************
  42:Middlewares/lvgl/examples/styles/../../src/core/lv_disp.h ****  * GLOBAL PROTOTYPES
  43:Middlewares/lvgl/examples/styles/../../src/core/lv_disp.h ****  **********************/
  44:Middlewares/lvgl/examples/styles/../../src/core/lv_disp.h **** 
  45:Middlewares/lvgl/examples/styles/../../src/core/lv_disp.h **** /**
  46:Middlewares/lvgl/examples/styles/../../src/core/lv_disp.h ****  * Return with a pointer to the active screen
  47:Middlewares/lvgl/examples/styles/../../src/core/lv_disp.h ****  * @param disp pointer to display which active screen should be get. (NULL to use the default
  48:Middlewares/lvgl/examples/styles/../../src/core/lv_disp.h ****  * screen)
  49:Middlewares/lvgl/examples/styles/../../src/core/lv_disp.h ****  * @return pointer to the active screen object (loaded by 'lv_scr_load()')
  50:Middlewares/lvgl/examples/styles/../../src/core/lv_disp.h ****  */
  51:Middlewares/lvgl/examples/styles/../../src/core/lv_disp.h **** lv_obj_t * lv_disp_get_scr_act(lv_disp_t * disp);
  52:Middlewares/lvgl/examples/styles/../../src/core/lv_disp.h **** 
  53:Middlewares/lvgl/examples/styles/../../src/core/lv_disp.h **** /**
  54:Middlewares/lvgl/examples/styles/../../src/core/lv_disp.h ****  * Return with a pointer to the previous screen. Only used during screen transitions.
  55:Middlewares/lvgl/examples/styles/../../src/core/lv_disp.h ****  * @param disp pointer to display which previous screen should be get. (NULL to use the default
  56:Middlewares/lvgl/examples/styles/../../src/core/lv_disp.h ****  * screen)
  57:Middlewares/lvgl/examples/styles/../../src/core/lv_disp.h ****  * @return pointer to the previous screen object or NULL if not used now
  58:Middlewares/lvgl/examples/styles/../../src/core/lv_disp.h ****  */
  59:Middlewares/lvgl/examples/styles/../../src/core/lv_disp.h **** lv_obj_t * lv_disp_get_scr_prev(lv_disp_t * disp);
  60:Middlewares/lvgl/examples/styles/../../src/core/lv_disp.h **** 
  61:Middlewares/lvgl/examples/styles/../../src/core/lv_disp.h **** /**
  62:Middlewares/lvgl/examples/styles/../../src/core/lv_disp.h ****  * Make a screen active
  63:Middlewares/lvgl/examples/styles/../../src/core/lv_disp.h ****  * @param scr pointer to a screen
  64:Middlewares/lvgl/examples/styles/../../src/core/lv_disp.h ****  */
  65:Middlewares/lvgl/examples/styles/../../src/core/lv_disp.h **** void lv_disp_load_scr(lv_obj_t * scr);
  66:Middlewares/lvgl/examples/styles/../../src/core/lv_disp.h **** 
  67:Middlewares/lvgl/examples/styles/../../src/core/lv_disp.h **** /**
  68:Middlewares/lvgl/examples/styles/../../src/core/lv_disp.h ****  * Return with the top layer. (Same on every screen and it is above the normal screen layer)
  69:Middlewares/lvgl/examples/styles/../../src/core/lv_disp.h ****  * @param disp pointer to display which top layer should be get. (NULL to use the default screen)
  70:Middlewares/lvgl/examples/styles/../../src/core/lv_disp.h ****  * @return pointer to the top layer object  (transparent screen sized lv_obj)
  71:Middlewares/lvgl/examples/styles/../../src/core/lv_disp.h ****  */
  72:Middlewares/lvgl/examples/styles/../../src/core/lv_disp.h **** lv_obj_t * lv_disp_get_layer_top(lv_disp_t * disp);
  73:Middlewares/lvgl/examples/styles/../../src/core/lv_disp.h **** 
  74:Middlewares/lvgl/examples/styles/../../src/core/lv_disp.h **** /**
  75:Middlewares/lvgl/examples/styles/../../src/core/lv_disp.h ****  * Return with the sys. layer. (Same on every screen and it is above the normal screen and the top
  76:Middlewares/lvgl/examples/styles/../../src/core/lv_disp.h ****  * layer)
  77:Middlewares/lvgl/examples/styles/../../src/core/lv_disp.h ****  * @param disp pointer to display which sys. layer  should be get. (NULL to use the default screen)
  78:Middlewares/lvgl/examples/styles/../../src/core/lv_disp.h ****  * @return pointer to the sys layer object  (transparent screen sized lv_obj)
  79:Middlewares/lvgl/examples/styles/../../src/core/lv_disp.h ****  */
  80:Middlewares/lvgl/examples/styles/../../src/core/lv_disp.h **** lv_obj_t * lv_disp_get_layer_sys(lv_disp_t * disp);
  81:Middlewares/lvgl/examples/styles/../../src/core/lv_disp.h **** 
  82:Middlewares/lvgl/examples/styles/../../src/core/lv_disp.h **** /**
  83:Middlewares/lvgl/examples/styles/../../src/core/lv_disp.h ****  * Get the theme of a display
ARM GAS  /tmp/ccSwAuxA.s 			page 7


  84:Middlewares/lvgl/examples/styles/../../src/core/lv_disp.h ****  * @param disp pointer to a display
  85:Middlewares/lvgl/examples/styles/../../src/core/lv_disp.h ****  * @return the display's theme (can be NULL)
  86:Middlewares/lvgl/examples/styles/../../src/core/lv_disp.h ****  */
  87:Middlewares/lvgl/examples/styles/../../src/core/lv_disp.h **** void lv_disp_set_theme(lv_disp_t * disp, lv_theme_t * th);
  88:Middlewares/lvgl/examples/styles/../../src/core/lv_disp.h **** 
  89:Middlewares/lvgl/examples/styles/../../src/core/lv_disp.h **** /**
  90:Middlewares/lvgl/examples/styles/../../src/core/lv_disp.h ****  * Get the theme of a display
  91:Middlewares/lvgl/examples/styles/../../src/core/lv_disp.h ****  * @param disp pointer to a display
  92:Middlewares/lvgl/examples/styles/../../src/core/lv_disp.h ****  * @return the display's theme (can be NULL)
  93:Middlewares/lvgl/examples/styles/../../src/core/lv_disp.h ****  */
  94:Middlewares/lvgl/examples/styles/../../src/core/lv_disp.h **** lv_theme_t * lv_disp_get_theme(lv_disp_t * disp);
  95:Middlewares/lvgl/examples/styles/../../src/core/lv_disp.h **** 
  96:Middlewares/lvgl/examples/styles/../../src/core/lv_disp.h **** /**
  97:Middlewares/lvgl/examples/styles/../../src/core/lv_disp.h ****  * Set the background color of a display
  98:Middlewares/lvgl/examples/styles/../../src/core/lv_disp.h ****  * @param disp pointer to a display
  99:Middlewares/lvgl/examples/styles/../../src/core/lv_disp.h ****  * @param color color of the background
 100:Middlewares/lvgl/examples/styles/../../src/core/lv_disp.h ****  */
 101:Middlewares/lvgl/examples/styles/../../src/core/lv_disp.h **** void lv_disp_set_bg_color(lv_disp_t * disp, lv_color_t color);
 102:Middlewares/lvgl/examples/styles/../../src/core/lv_disp.h **** 
 103:Middlewares/lvgl/examples/styles/../../src/core/lv_disp.h **** /**
 104:Middlewares/lvgl/examples/styles/../../src/core/lv_disp.h ****  * Set the background image of a display
 105:Middlewares/lvgl/examples/styles/../../src/core/lv_disp.h ****  * @param disp pointer to a display
 106:Middlewares/lvgl/examples/styles/../../src/core/lv_disp.h ****  * @param img_src path to file or pointer to an `lv_img_dsc_t` variable
 107:Middlewares/lvgl/examples/styles/../../src/core/lv_disp.h ****  */
 108:Middlewares/lvgl/examples/styles/../../src/core/lv_disp.h **** void lv_disp_set_bg_image(lv_disp_t * disp, const void  * img_src);
 109:Middlewares/lvgl/examples/styles/../../src/core/lv_disp.h **** 
 110:Middlewares/lvgl/examples/styles/../../src/core/lv_disp.h **** /**
 111:Middlewares/lvgl/examples/styles/../../src/core/lv_disp.h ****  * Opacity of the background
 112:Middlewares/lvgl/examples/styles/../../src/core/lv_disp.h ****  * @param disp pointer to a display
 113:Middlewares/lvgl/examples/styles/../../src/core/lv_disp.h ****  * @param opa opacity (0..255)
 114:Middlewares/lvgl/examples/styles/../../src/core/lv_disp.h ****  */
 115:Middlewares/lvgl/examples/styles/../../src/core/lv_disp.h **** void lv_disp_set_bg_opa(lv_disp_t * disp, lv_opa_t opa);
 116:Middlewares/lvgl/examples/styles/../../src/core/lv_disp.h **** 
 117:Middlewares/lvgl/examples/styles/../../src/core/lv_disp.h **** /**
 118:Middlewares/lvgl/examples/styles/../../src/core/lv_disp.h ****  * Switch screen with animation
 119:Middlewares/lvgl/examples/styles/../../src/core/lv_disp.h ****  * @param scr pointer to the new screen to load
 120:Middlewares/lvgl/examples/styles/../../src/core/lv_disp.h ****  * @param anim_type type of the animation from `lv_scr_load_anim_t`. E.g.  `LV_SCR_LOAD_ANIM_MOVE_L
 121:Middlewares/lvgl/examples/styles/../../src/core/lv_disp.h ****  * @param time time of the animation
 122:Middlewares/lvgl/examples/styles/../../src/core/lv_disp.h ****  * @param delay delay before the transition
 123:Middlewares/lvgl/examples/styles/../../src/core/lv_disp.h ****  * @param auto_del true: automatically delete the old screen
 124:Middlewares/lvgl/examples/styles/../../src/core/lv_disp.h ****  */
 125:Middlewares/lvgl/examples/styles/../../src/core/lv_disp.h **** void lv_scr_load_anim(lv_obj_t * scr, lv_scr_load_anim_t anim_type, uint32_t time, uint32_t delay, 
 126:Middlewares/lvgl/examples/styles/../../src/core/lv_disp.h **** 
 127:Middlewares/lvgl/examples/styles/../../src/core/lv_disp.h **** /**
 128:Middlewares/lvgl/examples/styles/../../src/core/lv_disp.h ****  * Get elapsed time since last user activity on a display (e.g. click)
 129:Middlewares/lvgl/examples/styles/../../src/core/lv_disp.h ****  * @param disp pointer to an display (NULL to get the overall smallest inactivity)
 130:Middlewares/lvgl/examples/styles/../../src/core/lv_disp.h ****  * @return elapsed ticks (milliseconds) since the last activity
 131:Middlewares/lvgl/examples/styles/../../src/core/lv_disp.h ****  */
 132:Middlewares/lvgl/examples/styles/../../src/core/lv_disp.h **** uint32_t lv_disp_get_inactive_time(const lv_disp_t * disp);
 133:Middlewares/lvgl/examples/styles/../../src/core/lv_disp.h **** 
 134:Middlewares/lvgl/examples/styles/../../src/core/lv_disp.h **** /**
 135:Middlewares/lvgl/examples/styles/../../src/core/lv_disp.h ****  * Manually trigger an activity on a display
 136:Middlewares/lvgl/examples/styles/../../src/core/lv_disp.h ****  * @param disp pointer to an display (NULL to use the default display)
 137:Middlewares/lvgl/examples/styles/../../src/core/lv_disp.h ****  */
 138:Middlewares/lvgl/examples/styles/../../src/core/lv_disp.h **** void lv_disp_trig_activity(lv_disp_t * disp);
 139:Middlewares/lvgl/examples/styles/../../src/core/lv_disp.h **** 
 140:Middlewares/lvgl/examples/styles/../../src/core/lv_disp.h **** /**
ARM GAS  /tmp/ccSwAuxA.s 			page 8


 141:Middlewares/lvgl/examples/styles/../../src/core/lv_disp.h ****  * Clean any CPU cache that is related to the display.
 142:Middlewares/lvgl/examples/styles/../../src/core/lv_disp.h ****  * @param disp pointer to an display (NULL to use the default display)
 143:Middlewares/lvgl/examples/styles/../../src/core/lv_disp.h ****  */
 144:Middlewares/lvgl/examples/styles/../../src/core/lv_disp.h **** void lv_disp_clean_dcache(lv_disp_t * disp);
 145:Middlewares/lvgl/examples/styles/../../src/core/lv_disp.h **** 
 146:Middlewares/lvgl/examples/styles/../../src/core/lv_disp.h **** /**
 147:Middlewares/lvgl/examples/styles/../../src/core/lv_disp.h ****  * Get a pointer to the screen refresher timer to
 148:Middlewares/lvgl/examples/styles/../../src/core/lv_disp.h ****  * modify its parameters with `lv_timer_...` functions.
 149:Middlewares/lvgl/examples/styles/../../src/core/lv_disp.h ****  * @param disp pointer to a display
 150:Middlewares/lvgl/examples/styles/../../src/core/lv_disp.h ****  * @return pointer to the display refresher timer. (NULL on error)
 151:Middlewares/lvgl/examples/styles/../../src/core/lv_disp.h ****  */
 152:Middlewares/lvgl/examples/styles/../../src/core/lv_disp.h **** lv_timer_t * _lv_disp_get_refr_timer(lv_disp_t * disp);
 153:Middlewares/lvgl/examples/styles/../../src/core/lv_disp.h **** 
 154:Middlewares/lvgl/examples/styles/../../src/core/lv_disp.h **** /*------------------------------------------------
 155:Middlewares/lvgl/examples/styles/../../src/core/lv_disp.h ****  * To improve backward compatibility
 156:Middlewares/lvgl/examples/styles/../../src/core/lv_disp.h ****  * Recommended only if you have one display
 157:Middlewares/lvgl/examples/styles/../../src/core/lv_disp.h ****  *------------------------------------------------*/
 158:Middlewares/lvgl/examples/styles/../../src/core/lv_disp.h **** 
 159:Middlewares/lvgl/examples/styles/../../src/core/lv_disp.h **** /**
 160:Middlewares/lvgl/examples/styles/../../src/core/lv_disp.h ****  * Get the active screen of the default display
 161:Middlewares/lvgl/examples/styles/../../src/core/lv_disp.h ****  * @return pointer to the active screen
 162:Middlewares/lvgl/examples/styles/../../src/core/lv_disp.h ****  */
 163:Middlewares/lvgl/examples/styles/../../src/core/lv_disp.h **** static inline lv_obj_t * lv_scr_act(void)
 200              		.loc 2 163 26 view .LVU31
 201              	.LBB7:
 164:Middlewares/lvgl/examples/styles/../../src/core/lv_disp.h **** {
 165:Middlewares/lvgl/examples/styles/../../src/core/lv_disp.h ****     return lv_disp_get_scr_act(lv_disp_get_default());
 202              		.loc 2 165 5 view .LVU32
 203              		.loc 2 165 12 is_stmt 0 view .LVU33
 204 0002 FFF7FEFF 		bl	lv_disp_get_default
 205              	.LVL19:
 206 0006 FFF7FEFF 		bl	lv_disp_get_scr_act
 207              	.LVL20:
 208              	.LBE7:
 209              	.LBE6:
 210              		.loc 1 49 11 view .LVU34
 211 000a FFF7FEFF 		bl	lv_btn_create
 212              	.LVL21:
 213 000e 0446     		mov	r4, r0
 214              	.LVL22:
  50:Middlewares/lvgl/examples/styles/lv_example_style_14.c ****     lv_obj_align(btn, LV_ALIGN_TOP_MID, 0, 20);
 215              		.loc 1 50 5 is_stmt 1 view .LVU35
 216 0010 1423     		movs	r3, #20
 217 0012 0022     		movs	r2, #0
 218 0014 0221     		movs	r1, #2
 219 0016 FFF7FEFF 		bl	lv_obj_align
 220              	.LVL23:
  51:Middlewares/lvgl/examples/styles/lv_example_style_14.c **** 
  52:Middlewares/lvgl/examples/styles/lv_example_style_14.c ****     label = lv_label_create(btn);
 221              		.loc 1 52 5 view .LVU36
 222              		.loc 1 52 13 is_stmt 0 view .LVU37
 223 001a 2046     		mov	r0, r4
 224 001c FFF7FEFF 		bl	lv_label_create
 225              	.LVL24:
  53:Middlewares/lvgl/examples/styles/lv_example_style_14.c ****     lv_label_set_text(label, "Original theme");
 226              		.loc 1 53 5 is_stmt 1 view .LVU38
 227 0020 0C49     		ldr	r1, .L13
ARM GAS  /tmp/ccSwAuxA.s 			page 9


 228 0022 FFF7FEFF 		bl	lv_label_set_text
 229              	.LVL25:
  54:Middlewares/lvgl/examples/styles/lv_example_style_14.c **** 
  55:Middlewares/lvgl/examples/styles/lv_example_style_14.c ****     new_theme_init_and_set();
 230              		.loc 1 55 5 view .LVU39
 231 0026 FFF7FEFF 		bl	new_theme_init_and_set
 232              	.LVL26:
  56:Middlewares/lvgl/examples/styles/lv_example_style_14.c **** 
  57:Middlewares/lvgl/examples/styles/lv_example_style_14.c ****     btn = lv_btn_create(lv_scr_act());
 233              		.loc 1 57 5 view .LVU40
 234              	.LBB8:
 235              	.LBI8:
 163:Middlewares/lvgl/examples/styles/../../src/core/lv_disp.h **** {
 236              		.loc 2 163 26 view .LVU41
 237              	.LBB9:
 238              		.loc 2 165 5 view .LVU42
 239              		.loc 2 165 12 is_stmt 0 view .LVU43
 240 002a FFF7FEFF 		bl	lv_disp_get_default
 241              	.LVL27:
 242 002e FFF7FEFF 		bl	lv_disp_get_scr_act
 243              	.LVL28:
 244              	.LBE9:
 245              	.LBE8:
 246              		.loc 1 57 11 view .LVU44
 247 0032 FFF7FEFF 		bl	lv_btn_create
 248              	.LVL29:
 249 0036 0446     		mov	r4, r0
 250              	.LVL30:
  58:Middlewares/lvgl/examples/styles/lv_example_style_14.c ****     lv_obj_align(btn, LV_ALIGN_BOTTOM_MID, 0, -20);
 251              		.loc 1 58 5 is_stmt 1 view .LVU45
 252 0038 6FF01303 		mvn	r3, #19
 253 003c 0022     		movs	r2, #0
 254 003e 0521     		movs	r1, #5
 255 0040 FFF7FEFF 		bl	lv_obj_align
 256              	.LVL31:
  59:Middlewares/lvgl/examples/styles/lv_example_style_14.c **** 
  60:Middlewares/lvgl/examples/styles/lv_example_style_14.c ****     label = lv_label_create(btn);
 257              		.loc 1 60 5 view .LVU46
 258              		.loc 1 60 13 is_stmt 0 view .LVU47
 259 0044 2046     		mov	r0, r4
 260 0046 FFF7FEFF 		bl	lv_label_create
 261              	.LVL32:
  61:Middlewares/lvgl/examples/styles/lv_example_style_14.c ****     lv_label_set_text(label, "New theme");
 262              		.loc 1 61 5 is_stmt 1 view .LVU48
 263 004a 0349     		ldr	r1, .L13+4
 264 004c FFF7FEFF 		bl	lv_label_set_text
 265              	.LVL33:
  62:Middlewares/lvgl/examples/styles/lv_example_style_14.c **** 
  63:Middlewares/lvgl/examples/styles/lv_example_style_14.c **** 
  64:Middlewares/lvgl/examples/styles/lv_example_style_14.c **** }
 266              		.loc 1 64 1 is_stmt 0 view .LVU49
 267 0050 10BD     		pop	{r4, pc}
 268              	.LVL34:
 269              	.L14:
 270              		.loc 1 64 1 view .LVU50
 271 0052 00BF     		.align	2
 272              	.L13:
ARM GAS  /tmp/ccSwAuxA.s 			page 10


 273 0054 00000000 		.word	.LC0
 274 0058 10000000 		.word	.LC1
 275              		.cfi_endproc
 276              	.LFE186:
 278              		.section	.bss.style_btn,"aw",%nobits
 279              		.align	2
 280              		.set	.LANCHOR0,. + 0
 283              	style_btn:
 284 0000 00000000 		.space	8
 284      00000000 
 285              		.section	.bss.th_new.0,"aw",%nobits
 286              		.align	2
 287              		.set	.LANCHOR1,. + 0
 290              	th_new.0:
 291 0000 00000000 		.space	36
 291      00000000 
 291      00000000 
 291      00000000 
 291      00000000 
 292              		.text
 293              	.Letext0:
 294              		.file 3 "/home/akinya/gcc-arm-none-eabi/arm-none-eabi/include/machine/_default_types.h"
 295              		.file 4 "/home/akinya/gcc-arm-none-eabi/arm-none-eabi/include/sys/_stdint.h"
 296              		.file 5 "Middlewares/lvgl/examples/styles/../../src/misc/lv_ll.h"
 297              		.file 6 "Middlewares/lvgl/examples/styles/../../src/misc/lv_timer.h"
 298              		.file 7 "Middlewares/lvgl/examples/styles/../../src/hal/../misc/lv_color.h"
 299              		.file 8 "Middlewares/lvgl/examples/styles/../../src/hal/../misc/lv_area.h"
 300              		.file 9 "Middlewares/lvgl/examples/styles/../../src/hal/lv_hal_disp.h"
 301              		.file 10 "Middlewares/lvgl/examples/styles/../../src/core/lv_theme.h"
 302              		.file 11 "Middlewares/lvgl/examples/styles/../../src/core/lv_obj.h"
 303              		.file 12 "Middlewares/lvgl/examples/styles/../../src/core/lv_group.h"
 304              		.file 13 "Middlewares/lvgl/examples/styles/../../src/core/../misc/../font/lv_font.h"
 305              		.file 14 "Middlewares/lvgl/examples/styles/../../src/core/../misc/lv_style.h"
 306              		.file 15 "Middlewares/lvgl/examples/styles/../../src/core/lv_obj_scroll.h"
 307              		.file 16 "Middlewares/lvgl/examples/styles/../../src/core/lv_obj_style.h"
 308              		.file 17 "Middlewares/lvgl/examples/styles/../../src/core/lv_obj_class.h"
 309              		.file 18 "Middlewares/lvgl/examples/styles/../../src/core/lv_event.h"
 310              		.file 19 "Middlewares/lvgl/examples/styles/../../src/widgets/lv_bar.h"
 311              		.file 20 "Middlewares/lvgl/examples/styles/../../src/extra/widgets/imgbtn/lv_imgbtn.h"
 312              		.file 21 "Middlewares/lvgl/examples/styles/../../src/widgets/lv_btn.h"
 313              		.file 22 "Middlewares/lvgl/examples/styles/../../src/core/lv_obj_pos.h"
 314              		.file 23 "Middlewares/lvgl/examples/styles/../../src/widgets/lv_label.h"
 315              		.file 24 "Middlewares/lvgl/examples/styles/../../src/core/../misc/lv_style_gen.h"
ARM GAS  /tmp/ccSwAuxA.s 			page 11

