ARM GAS  /tmp/ccEwAEcV.s 			page 1


   1              		.cpu cortex-m4
   2              		.arch armv7e-m
   3              		.fpu fpv4-sp-d16
   4              		.eabi_attribute 27, 1
   5              		.eabi_attribute 28, 1
   6              		.eabi_attribute 20, 1
   7              		.eabi_attribute 21, 1
   8              		.eabi_attribute 23, 3
   9              		.eabi_attribute 24, 1
  10              		.eabi_attribute 25, 1
  11              		.eabi_attribute 26, 1
  12              		.eabi_attribute 30, 1
  13              		.eabi_attribute 34, 1
  14              		.eabi_attribute 18, 4
  15              		.file	"lv_event.c"
  16              		.text
  17              	.Ltext0:
  18              		.cfi_sections	.debug_frame
  19              		.section	.text.lv_obj_get_event_dsc,"ax",%progbits
  20              		.align	1
  21              		.syntax unified
  22              		.thumb
  23              		.thumb_func
  25              	lv_obj_get_event_dsc:
  26              	.LVL0:
  27              	.LFB170:
  28              		.file 1 "Middlewares/lvgl/src/core/lv_event.c"
   1:Middlewares/lvgl/src/core/lv_event.c **** /**
   2:Middlewares/lvgl/src/core/lv_event.c ****  * @file lv_event.c
   3:Middlewares/lvgl/src/core/lv_event.c ****  *
   4:Middlewares/lvgl/src/core/lv_event.c ****  */
   5:Middlewares/lvgl/src/core/lv_event.c **** 
   6:Middlewares/lvgl/src/core/lv_event.c **** /*********************
   7:Middlewares/lvgl/src/core/lv_event.c ****  *      INCLUDES
   8:Middlewares/lvgl/src/core/lv_event.c ****  *********************/
   9:Middlewares/lvgl/src/core/lv_event.c **** #include "lv_obj.h"
  10:Middlewares/lvgl/src/core/lv_event.c **** #include "lv_indev.h"
  11:Middlewares/lvgl/src/core/lv_event.c **** 
  12:Middlewares/lvgl/src/core/lv_event.c **** /*********************
  13:Middlewares/lvgl/src/core/lv_event.c ****  *      DEFINES
  14:Middlewares/lvgl/src/core/lv_event.c ****  *********************/
  15:Middlewares/lvgl/src/core/lv_event.c **** #define MY_CLASS &lv_obj_class
  16:Middlewares/lvgl/src/core/lv_event.c **** 
  17:Middlewares/lvgl/src/core/lv_event.c **** /**********************
  18:Middlewares/lvgl/src/core/lv_event.c ****  *      TYPEDEFS
  19:Middlewares/lvgl/src/core/lv_event.c ****  **********************/
  20:Middlewares/lvgl/src/core/lv_event.c **** typedef struct _lv_event_dsc_t{
  21:Middlewares/lvgl/src/core/lv_event.c ****     lv_event_cb_t cb;
  22:Middlewares/lvgl/src/core/lv_event.c ****     void * user_data;
  23:Middlewares/lvgl/src/core/lv_event.c ****     lv_event_code_t filter :8;
  24:Middlewares/lvgl/src/core/lv_event.c **** }lv_event_dsc_t;
  25:Middlewares/lvgl/src/core/lv_event.c **** 
  26:Middlewares/lvgl/src/core/lv_event.c **** /**********************
  27:Middlewares/lvgl/src/core/lv_event.c ****  *  STATIC PROTOTYPES
  28:Middlewares/lvgl/src/core/lv_event.c ****  **********************/
  29:Middlewares/lvgl/src/core/lv_event.c **** static lv_event_dsc_t * lv_obj_get_event_dsc(const lv_obj_t * obj, uint32_t id);
  30:Middlewares/lvgl/src/core/lv_event.c **** static lv_res_t event_send_core(lv_event_t * e);
ARM GAS  /tmp/ccEwAEcV.s 			page 2


  31:Middlewares/lvgl/src/core/lv_event.c **** static bool event_is_bubbled(lv_event_code_t e);
  32:Middlewares/lvgl/src/core/lv_event.c **** 
  33:Middlewares/lvgl/src/core/lv_event.c **** /**********************
  34:Middlewares/lvgl/src/core/lv_event.c ****  *  STATIC VARIABLES
  35:Middlewares/lvgl/src/core/lv_event.c ****  **********************/
  36:Middlewares/lvgl/src/core/lv_event.c **** static lv_event_t * event_head;
  37:Middlewares/lvgl/src/core/lv_event.c **** 
  38:Middlewares/lvgl/src/core/lv_event.c **** /**********************
  39:Middlewares/lvgl/src/core/lv_event.c ****  *      MACROS
  40:Middlewares/lvgl/src/core/lv_event.c ****  **********************/
  41:Middlewares/lvgl/src/core/lv_event.c **** #if LV_LOG_TRACE_EVENT
  42:Middlewares/lvgl/src/core/lv_event.c **** #  define EVENT_TRACE(...) LV_LOG_TRACE( __VA_ARGS__)
  43:Middlewares/lvgl/src/core/lv_event.c **** #else
  44:Middlewares/lvgl/src/core/lv_event.c **** #  define EVENT_TRACE(...)
  45:Middlewares/lvgl/src/core/lv_event.c **** #endif
  46:Middlewares/lvgl/src/core/lv_event.c **** 
  47:Middlewares/lvgl/src/core/lv_event.c **** /**********************
  48:Middlewares/lvgl/src/core/lv_event.c ****  *   GLOBAL FUNCTIONS
  49:Middlewares/lvgl/src/core/lv_event.c ****  **********************/
  50:Middlewares/lvgl/src/core/lv_event.c **** 
  51:Middlewares/lvgl/src/core/lv_event.c **** lv_res_t lv_event_send(lv_obj_t * obj, lv_event_code_t event_code, void * param)
  52:Middlewares/lvgl/src/core/lv_event.c **** {
  53:Middlewares/lvgl/src/core/lv_event.c ****     if(obj == NULL) return LV_RES_OK;
  54:Middlewares/lvgl/src/core/lv_event.c **** 
  55:Middlewares/lvgl/src/core/lv_event.c ****     LV_ASSERT_OBJ(obj, MY_CLASS);
  56:Middlewares/lvgl/src/core/lv_event.c **** 
  57:Middlewares/lvgl/src/core/lv_event.c ****     lv_event_t e;
  58:Middlewares/lvgl/src/core/lv_event.c ****     e.target = obj;
  59:Middlewares/lvgl/src/core/lv_event.c ****     e.current_target = obj;
  60:Middlewares/lvgl/src/core/lv_event.c ****     e.code = event_code;
  61:Middlewares/lvgl/src/core/lv_event.c ****     e.user_data = NULL;
  62:Middlewares/lvgl/src/core/lv_event.c ****     e.param = param;
  63:Middlewares/lvgl/src/core/lv_event.c ****     e.deleted = 0;
  64:Middlewares/lvgl/src/core/lv_event.c **** 
  65:Middlewares/lvgl/src/core/lv_event.c **** 
  66:Middlewares/lvgl/src/core/lv_event.c ****     /*Build a simple linked list from the objects used in the events
  67:Middlewares/lvgl/src/core/lv_event.c ****      *It's important to know if an this object was deleted by a nested event
  68:Middlewares/lvgl/src/core/lv_event.c ****      *called from this `event_cb`.*/
  69:Middlewares/lvgl/src/core/lv_event.c ****     e.prev = event_head;
  70:Middlewares/lvgl/src/core/lv_event.c ****     event_head = &e;
  71:Middlewares/lvgl/src/core/lv_event.c **** 
  72:Middlewares/lvgl/src/core/lv_event.c ****     /*Send the event*/
  73:Middlewares/lvgl/src/core/lv_event.c ****     lv_res_t res = event_send_core(&e);
  74:Middlewares/lvgl/src/core/lv_event.c **** 
  75:Middlewares/lvgl/src/core/lv_event.c ****     /*Remove this element from the list*/
  76:Middlewares/lvgl/src/core/lv_event.c ****     event_head = e.prev;
  77:Middlewares/lvgl/src/core/lv_event.c **** 
  78:Middlewares/lvgl/src/core/lv_event.c ****     return res;
  79:Middlewares/lvgl/src/core/lv_event.c **** }
  80:Middlewares/lvgl/src/core/lv_event.c **** 
  81:Middlewares/lvgl/src/core/lv_event.c **** 
  82:Middlewares/lvgl/src/core/lv_event.c **** lv_res_t lv_obj_event_base(const lv_obj_class_t * class_p, lv_event_t * e)
  83:Middlewares/lvgl/src/core/lv_event.c **** {
  84:Middlewares/lvgl/src/core/lv_event.c ****     const lv_obj_class_t * base;
  85:Middlewares/lvgl/src/core/lv_event.c ****     if(class_p == NULL) base = e->current_target->class_p;
  86:Middlewares/lvgl/src/core/lv_event.c ****     else base = class_p->base_class;
  87:Middlewares/lvgl/src/core/lv_event.c **** 
ARM GAS  /tmp/ccEwAEcV.s 			page 3


  88:Middlewares/lvgl/src/core/lv_event.c ****     /*Find a base in which Call the ancestor's event handler_cb is set*/
  89:Middlewares/lvgl/src/core/lv_event.c ****     while(base && base->event_cb == NULL) base = base->base_class;
  90:Middlewares/lvgl/src/core/lv_event.c **** 
  91:Middlewares/lvgl/src/core/lv_event.c ****     if(base == NULL) return LV_RES_OK;
  92:Middlewares/lvgl/src/core/lv_event.c ****     if(base->event_cb == NULL) return LV_RES_OK;
  93:Middlewares/lvgl/src/core/lv_event.c **** 
  94:Middlewares/lvgl/src/core/lv_event.c ****     /*Call the actual event callback*/
  95:Middlewares/lvgl/src/core/lv_event.c ****     e->user_data = NULL;
  96:Middlewares/lvgl/src/core/lv_event.c ****     base->event_cb(base, e);
  97:Middlewares/lvgl/src/core/lv_event.c **** 
  98:Middlewares/lvgl/src/core/lv_event.c ****     lv_res_t res = LV_RES_OK;
  99:Middlewares/lvgl/src/core/lv_event.c ****     /*Stop if the object is deleted*/
 100:Middlewares/lvgl/src/core/lv_event.c ****     if(e->deleted) res = LV_RES_INV;
 101:Middlewares/lvgl/src/core/lv_event.c **** 
 102:Middlewares/lvgl/src/core/lv_event.c ****     return res;
 103:Middlewares/lvgl/src/core/lv_event.c **** }
 104:Middlewares/lvgl/src/core/lv_event.c **** 
 105:Middlewares/lvgl/src/core/lv_event.c **** 
 106:Middlewares/lvgl/src/core/lv_event.c **** lv_obj_t * lv_event_get_target(lv_event_t * e)
 107:Middlewares/lvgl/src/core/lv_event.c **** {
 108:Middlewares/lvgl/src/core/lv_event.c ****     return e->target;
 109:Middlewares/lvgl/src/core/lv_event.c **** }
 110:Middlewares/lvgl/src/core/lv_event.c **** 
 111:Middlewares/lvgl/src/core/lv_event.c **** lv_obj_t * lv_event_get_current_target(lv_event_t * e)
 112:Middlewares/lvgl/src/core/lv_event.c **** {
 113:Middlewares/lvgl/src/core/lv_event.c ****     return e->current_target;
 114:Middlewares/lvgl/src/core/lv_event.c **** }
 115:Middlewares/lvgl/src/core/lv_event.c **** 
 116:Middlewares/lvgl/src/core/lv_event.c **** lv_event_code_t lv_event_get_code(lv_event_t * e)
 117:Middlewares/lvgl/src/core/lv_event.c **** {
 118:Middlewares/lvgl/src/core/lv_event.c ****     return e->code;
 119:Middlewares/lvgl/src/core/lv_event.c **** }
 120:Middlewares/lvgl/src/core/lv_event.c **** 
 121:Middlewares/lvgl/src/core/lv_event.c **** void * lv_event_get_param(lv_event_t * e)
 122:Middlewares/lvgl/src/core/lv_event.c **** {
 123:Middlewares/lvgl/src/core/lv_event.c ****     return e->param;
 124:Middlewares/lvgl/src/core/lv_event.c **** }
 125:Middlewares/lvgl/src/core/lv_event.c **** 
 126:Middlewares/lvgl/src/core/lv_event.c **** void * lv_event_get_user_data(lv_event_t * e)
 127:Middlewares/lvgl/src/core/lv_event.c **** {
 128:Middlewares/lvgl/src/core/lv_event.c ****     return e->user_data;
 129:Middlewares/lvgl/src/core/lv_event.c **** }
 130:Middlewares/lvgl/src/core/lv_event.c **** 
 131:Middlewares/lvgl/src/core/lv_event.c **** 
 132:Middlewares/lvgl/src/core/lv_event.c **** uint32_t lv_event_register_id(void)
 133:Middlewares/lvgl/src/core/lv_event.c **** {
 134:Middlewares/lvgl/src/core/lv_event.c ****     static uint32_t last_id = _LV_EVENT_LAST;
 135:Middlewares/lvgl/src/core/lv_event.c ****     last_id ++;
 136:Middlewares/lvgl/src/core/lv_event.c ****     return last_id;
 137:Middlewares/lvgl/src/core/lv_event.c **** }
 138:Middlewares/lvgl/src/core/lv_event.c **** 
 139:Middlewares/lvgl/src/core/lv_event.c **** void _lv_event_mark_deleted(lv_obj_t * obj)
 140:Middlewares/lvgl/src/core/lv_event.c **** {
 141:Middlewares/lvgl/src/core/lv_event.c ****     lv_event_t * e = event_head;
 142:Middlewares/lvgl/src/core/lv_event.c **** 
 143:Middlewares/lvgl/src/core/lv_event.c ****     while(e) {
 144:Middlewares/lvgl/src/core/lv_event.c ****         if(e->current_target == obj || e->target == obj) e->deleted = 1;
ARM GAS  /tmp/ccEwAEcV.s 			page 4


 145:Middlewares/lvgl/src/core/lv_event.c ****         e = e->prev;
 146:Middlewares/lvgl/src/core/lv_event.c ****     }
 147:Middlewares/lvgl/src/core/lv_event.c **** }
 148:Middlewares/lvgl/src/core/lv_event.c **** 
 149:Middlewares/lvgl/src/core/lv_event.c **** 
 150:Middlewares/lvgl/src/core/lv_event.c **** struct _lv_event_dsc_t * lv_obj_add_event_cb(lv_obj_t * obj, lv_event_cb_t event_cb, lv_event_code_
 151:Middlewares/lvgl/src/core/lv_event.c **** {
 152:Middlewares/lvgl/src/core/lv_event.c ****     LV_ASSERT_OBJ(obj, MY_CLASS);
 153:Middlewares/lvgl/src/core/lv_event.c ****     lv_obj_allocate_spec_attr(obj);
 154:Middlewares/lvgl/src/core/lv_event.c **** 
 155:Middlewares/lvgl/src/core/lv_event.c ****     obj->spec_attr->event_dsc_cnt++;
 156:Middlewares/lvgl/src/core/lv_event.c ****     obj->spec_attr->event_dsc = lv_mem_realloc(obj->spec_attr->event_dsc, obj->spec_attr->event_dsc
 157:Middlewares/lvgl/src/core/lv_event.c ****     LV_ASSERT_MALLOC(obj->spec_attr->event_dsc);
 158:Middlewares/lvgl/src/core/lv_event.c **** 
 159:Middlewares/lvgl/src/core/lv_event.c ****     obj->spec_attr->event_dsc[obj->spec_attr->event_dsc_cnt - 1].cb = event_cb;
 160:Middlewares/lvgl/src/core/lv_event.c ****     obj->spec_attr->event_dsc[obj->spec_attr->event_dsc_cnt - 1].filter = filter;
 161:Middlewares/lvgl/src/core/lv_event.c ****     obj->spec_attr->event_dsc[obj->spec_attr->event_dsc_cnt - 1].user_data = user_data;
 162:Middlewares/lvgl/src/core/lv_event.c **** 
 163:Middlewares/lvgl/src/core/lv_event.c ****     return &obj->spec_attr->event_dsc[obj->spec_attr->event_dsc_cnt - 1];
 164:Middlewares/lvgl/src/core/lv_event.c **** }
 165:Middlewares/lvgl/src/core/lv_event.c **** 
 166:Middlewares/lvgl/src/core/lv_event.c **** bool lv_obj_remove_event_cb(lv_obj_t * obj, lv_event_cb_t event_cb)
 167:Middlewares/lvgl/src/core/lv_event.c **** {
 168:Middlewares/lvgl/src/core/lv_event.c ****     LV_ASSERT_OBJ(obj, MY_CLASS);
 169:Middlewares/lvgl/src/core/lv_event.c ****     if(obj->spec_attr == NULL) return false;
 170:Middlewares/lvgl/src/core/lv_event.c **** 
 171:Middlewares/lvgl/src/core/lv_event.c ****     int32_t i = 0;
 172:Middlewares/lvgl/src/core/lv_event.c ****     for(i = 0; i < obj->spec_attr->event_dsc_cnt; i++) {
 173:Middlewares/lvgl/src/core/lv_event.c ****         if(obj->spec_attr->event_dsc[i].cb == event_cb) {
 174:Middlewares/lvgl/src/core/lv_event.c ****             /*Shift the remaining event handlers forward*/
 175:Middlewares/lvgl/src/core/lv_event.c ****             for(; i < (obj->spec_attr->event_dsc_cnt-1); i++) {
 176:Middlewares/lvgl/src/core/lv_event.c ****                 obj->spec_attr->event_dsc[i].cb = obj->spec_attr->event_dsc[i+1].cb;
 177:Middlewares/lvgl/src/core/lv_event.c ****                 obj->spec_attr->event_dsc[i].user_data = obj->spec_attr->event_dsc[i+1].user_data;
 178:Middlewares/lvgl/src/core/lv_event.c ****             }
 179:Middlewares/lvgl/src/core/lv_event.c ****             obj->spec_attr->event_dsc_cnt--;
 180:Middlewares/lvgl/src/core/lv_event.c ****             obj->spec_attr->event_dsc = lv_mem_realloc(obj->spec_attr->event_dsc, obj->spec_attr->e
 181:Middlewares/lvgl/src/core/lv_event.c ****             LV_ASSERT_MALLOC(obj->spec_attr->event_dsc);
 182:Middlewares/lvgl/src/core/lv_event.c ****             return true;
 183:Middlewares/lvgl/src/core/lv_event.c ****         }
 184:Middlewares/lvgl/src/core/lv_event.c ****     }
 185:Middlewares/lvgl/src/core/lv_event.c **** 
 186:Middlewares/lvgl/src/core/lv_event.c ****     /*No event handler found*/
 187:Middlewares/lvgl/src/core/lv_event.c ****     return false;
 188:Middlewares/lvgl/src/core/lv_event.c **** }
 189:Middlewares/lvgl/src/core/lv_event.c **** 
 190:Middlewares/lvgl/src/core/lv_event.c **** bool lv_obj_remove_event_dsc(lv_obj_t * obj, struct _lv_event_dsc_t * event_dsc)
 191:Middlewares/lvgl/src/core/lv_event.c **** {
 192:Middlewares/lvgl/src/core/lv_event.c ****     LV_ASSERT_OBJ(obj, MY_CLASS);
 193:Middlewares/lvgl/src/core/lv_event.c ****     if(obj->spec_attr == NULL) return false;
 194:Middlewares/lvgl/src/core/lv_event.c **** 
 195:Middlewares/lvgl/src/core/lv_event.c ****     int32_t i = 0;
 196:Middlewares/lvgl/src/core/lv_event.c ****     for(i = 0; i < obj->spec_attr->event_dsc_cnt; i++) {
 197:Middlewares/lvgl/src/core/lv_event.c ****         if(&obj->spec_attr->event_dsc[i] == event_dsc) {
 198:Middlewares/lvgl/src/core/lv_event.c ****             /*Shift the remaining event handlers forward*/
 199:Middlewares/lvgl/src/core/lv_event.c ****             for(; i < (obj->spec_attr->event_dsc_cnt-1); i++) {
 200:Middlewares/lvgl/src/core/lv_event.c ****                 obj->spec_attr->event_dsc[i].cb = obj->spec_attr->event_dsc[i+1].cb;
 201:Middlewares/lvgl/src/core/lv_event.c ****                 obj->spec_attr->event_dsc[i].user_data = obj->spec_attr->event_dsc[i+1].user_data;
ARM GAS  /tmp/ccEwAEcV.s 			page 5


 202:Middlewares/lvgl/src/core/lv_event.c ****             }
 203:Middlewares/lvgl/src/core/lv_event.c ****             obj->spec_attr->event_dsc_cnt--;
 204:Middlewares/lvgl/src/core/lv_event.c ****             obj->spec_attr->event_dsc = lv_mem_realloc(obj->spec_attr->event_dsc, obj->spec_attr->e
 205:Middlewares/lvgl/src/core/lv_event.c ****             LV_ASSERT_MALLOC(obj->spec_attr->event_dsc);
 206:Middlewares/lvgl/src/core/lv_event.c ****             return true;
 207:Middlewares/lvgl/src/core/lv_event.c ****         }
 208:Middlewares/lvgl/src/core/lv_event.c ****     }
 209:Middlewares/lvgl/src/core/lv_event.c **** 
 210:Middlewares/lvgl/src/core/lv_event.c ****     /*No event handler found*/
 211:Middlewares/lvgl/src/core/lv_event.c ****     return false;
 212:Middlewares/lvgl/src/core/lv_event.c **** }
 213:Middlewares/lvgl/src/core/lv_event.c **** 
 214:Middlewares/lvgl/src/core/lv_event.c **** lv_indev_t * lv_event_get_indev(lv_event_t * e)
 215:Middlewares/lvgl/src/core/lv_event.c **** {
 216:Middlewares/lvgl/src/core/lv_event.c **** 
 217:Middlewares/lvgl/src/core/lv_event.c ****     if(e->code == LV_EVENT_PRESSED ||
 218:Middlewares/lvgl/src/core/lv_event.c ****         e->code == LV_EVENT_PRESSING ||
 219:Middlewares/lvgl/src/core/lv_event.c ****         e->code == LV_EVENT_PRESS_LOST ||
 220:Middlewares/lvgl/src/core/lv_event.c ****         e->code == LV_EVENT_SHORT_CLICKED ||
 221:Middlewares/lvgl/src/core/lv_event.c ****         e->code == LV_EVENT_LONG_PRESSED ||
 222:Middlewares/lvgl/src/core/lv_event.c ****         e->code == LV_EVENT_LONG_PRESSED_REPEAT ||
 223:Middlewares/lvgl/src/core/lv_event.c ****         e->code == LV_EVENT_CLICKED ||
 224:Middlewares/lvgl/src/core/lv_event.c ****         e->code == LV_EVENT_RELEASED ||
 225:Middlewares/lvgl/src/core/lv_event.c ****         e->code == LV_EVENT_SCROLL_BEGIN ||
 226:Middlewares/lvgl/src/core/lv_event.c ****         e->code == LV_EVENT_SCROLL_END ||
 227:Middlewares/lvgl/src/core/lv_event.c ****         e->code == LV_EVENT_SCROLL ||
 228:Middlewares/lvgl/src/core/lv_event.c ****         e->code == LV_EVENT_GESTURE ||
 229:Middlewares/lvgl/src/core/lv_event.c ****         e->code == LV_EVENT_KEY ||
 230:Middlewares/lvgl/src/core/lv_event.c ****         e->code == LV_EVENT_FOCUSED ||
 231:Middlewares/lvgl/src/core/lv_event.c ****         e->code == LV_EVENT_DEFOCUSED ||
 232:Middlewares/lvgl/src/core/lv_event.c ****         e->code == LV_EVENT_LEAVE)
 233:Middlewares/lvgl/src/core/lv_event.c ****     {
 234:Middlewares/lvgl/src/core/lv_event.c ****         return lv_event_get_param(e);
 235:Middlewares/lvgl/src/core/lv_event.c ****     } else {
 236:Middlewares/lvgl/src/core/lv_event.c ****         LV_LOG_WARN("Not interpreted with this event code");
 237:Middlewares/lvgl/src/core/lv_event.c ****         return NULL;
 238:Middlewares/lvgl/src/core/lv_event.c ****     }
 239:Middlewares/lvgl/src/core/lv_event.c **** }
 240:Middlewares/lvgl/src/core/lv_event.c **** 
 241:Middlewares/lvgl/src/core/lv_event.c **** lv_obj_draw_part_dsc_t * lv_event_get_draw_part_dsc(lv_event_t * e)
 242:Middlewares/lvgl/src/core/lv_event.c **** {
 243:Middlewares/lvgl/src/core/lv_event.c ****     if(e->code == LV_EVENT_DRAW_PART_BEGIN||
 244:Middlewares/lvgl/src/core/lv_event.c ****         e->code == LV_EVENT_DRAW_PART_END)
 245:Middlewares/lvgl/src/core/lv_event.c ****     {
 246:Middlewares/lvgl/src/core/lv_event.c ****         return lv_event_get_param(e);
 247:Middlewares/lvgl/src/core/lv_event.c ****     } else {
 248:Middlewares/lvgl/src/core/lv_event.c ****         LV_LOG_WARN("Not interpreted with this event code");
 249:Middlewares/lvgl/src/core/lv_event.c ****         return NULL;
 250:Middlewares/lvgl/src/core/lv_event.c ****     }
 251:Middlewares/lvgl/src/core/lv_event.c **** }
 252:Middlewares/lvgl/src/core/lv_event.c **** 
 253:Middlewares/lvgl/src/core/lv_event.c **** const lv_area_t * lv_event_get_clip_area(lv_event_t * e)
 254:Middlewares/lvgl/src/core/lv_event.c **** {
 255:Middlewares/lvgl/src/core/lv_event.c ****     if(e->code == LV_EVENT_DRAW_MAIN ||
 256:Middlewares/lvgl/src/core/lv_event.c ****         e->code == LV_EVENT_DRAW_MAIN_BEGIN ||
 257:Middlewares/lvgl/src/core/lv_event.c ****         e->code == LV_EVENT_DRAW_MAIN_END ||
 258:Middlewares/lvgl/src/core/lv_event.c ****         e->code == LV_EVENT_DRAW_POST ||
ARM GAS  /tmp/ccEwAEcV.s 			page 6


 259:Middlewares/lvgl/src/core/lv_event.c ****         e->code == LV_EVENT_DRAW_POST_BEGIN ||
 260:Middlewares/lvgl/src/core/lv_event.c ****         e->code == LV_EVENT_DRAW_POST_END)
 261:Middlewares/lvgl/src/core/lv_event.c ****     {
 262:Middlewares/lvgl/src/core/lv_event.c ****         return lv_event_get_param(e);
 263:Middlewares/lvgl/src/core/lv_event.c ****     } else {
 264:Middlewares/lvgl/src/core/lv_event.c ****         LV_LOG_WARN("Not interpreted with this event code");
 265:Middlewares/lvgl/src/core/lv_event.c ****         return NULL;
 266:Middlewares/lvgl/src/core/lv_event.c ****     }
 267:Middlewares/lvgl/src/core/lv_event.c **** }
 268:Middlewares/lvgl/src/core/lv_event.c **** 
 269:Middlewares/lvgl/src/core/lv_event.c **** const lv_area_t * lv_event_get_old_size(lv_event_t * e)
 270:Middlewares/lvgl/src/core/lv_event.c **** {
 271:Middlewares/lvgl/src/core/lv_event.c ****     if(e->code == LV_EVENT_SIZE_CHANGED) {
 272:Middlewares/lvgl/src/core/lv_event.c ****         return lv_event_get_param(e);
 273:Middlewares/lvgl/src/core/lv_event.c ****     } else {
 274:Middlewares/lvgl/src/core/lv_event.c ****         LV_LOG_WARN("Not interpreted with this event code");
 275:Middlewares/lvgl/src/core/lv_event.c ****         return NULL;
 276:Middlewares/lvgl/src/core/lv_event.c ****     }
 277:Middlewares/lvgl/src/core/lv_event.c **** }
 278:Middlewares/lvgl/src/core/lv_event.c **** 
 279:Middlewares/lvgl/src/core/lv_event.c **** uint32_t lv_event_get_key(lv_event_t * e)
 280:Middlewares/lvgl/src/core/lv_event.c **** {
 281:Middlewares/lvgl/src/core/lv_event.c ****     if(e->code == LV_EVENT_KEY) {
 282:Middlewares/lvgl/src/core/lv_event.c ****         uint32_t * k = lv_event_get_param(e);
 283:Middlewares/lvgl/src/core/lv_event.c ****         if(k) return *k;
 284:Middlewares/lvgl/src/core/lv_event.c ****         else return 0;
 285:Middlewares/lvgl/src/core/lv_event.c ****     } else {
 286:Middlewares/lvgl/src/core/lv_event.c ****         LV_LOG_WARN("Not interpreted with this event code");
 287:Middlewares/lvgl/src/core/lv_event.c ****         return 0;
 288:Middlewares/lvgl/src/core/lv_event.c ****     }
 289:Middlewares/lvgl/src/core/lv_event.c **** }
 290:Middlewares/lvgl/src/core/lv_event.c **** 
 291:Middlewares/lvgl/src/core/lv_event.c **** lv_anim_t * lv_event_get_scroll_anim(lv_event_t * e)
 292:Middlewares/lvgl/src/core/lv_event.c **** {
 293:Middlewares/lvgl/src/core/lv_event.c ****     if(e->code == LV_EVENT_SCROLL_BEGIN) {
 294:Middlewares/lvgl/src/core/lv_event.c ****         return lv_event_get_param(e);
 295:Middlewares/lvgl/src/core/lv_event.c ****     } else {
 296:Middlewares/lvgl/src/core/lv_event.c ****         LV_LOG_WARN("Not interpreted with this event code");
 297:Middlewares/lvgl/src/core/lv_event.c ****         return 0;
 298:Middlewares/lvgl/src/core/lv_event.c ****     }
 299:Middlewares/lvgl/src/core/lv_event.c **** }
 300:Middlewares/lvgl/src/core/lv_event.c **** 
 301:Middlewares/lvgl/src/core/lv_event.c **** void lv_event_set_ext_draw_size(lv_event_t * e, lv_coord_t size)
 302:Middlewares/lvgl/src/core/lv_event.c **** {
 303:Middlewares/lvgl/src/core/lv_event.c ****     if(e->code == LV_EVENT_REFR_EXT_DRAW_SIZE) {
 304:Middlewares/lvgl/src/core/lv_event.c ****         lv_coord_t * cur_size = lv_event_get_param(e);
 305:Middlewares/lvgl/src/core/lv_event.c ****         *cur_size = LV_MAX(*cur_size, size);
 306:Middlewares/lvgl/src/core/lv_event.c ****     } else {
 307:Middlewares/lvgl/src/core/lv_event.c ****         LV_LOG_WARN("Not interpreted with this event code");
 308:Middlewares/lvgl/src/core/lv_event.c ****     }
 309:Middlewares/lvgl/src/core/lv_event.c **** }
 310:Middlewares/lvgl/src/core/lv_event.c **** 
 311:Middlewares/lvgl/src/core/lv_event.c **** lv_point_t * lv_event_get_self_size_info(lv_event_t * e)
 312:Middlewares/lvgl/src/core/lv_event.c **** {
 313:Middlewares/lvgl/src/core/lv_event.c ****     if(e->code == LV_EVENT_GET_SELF_SIZE) {
 314:Middlewares/lvgl/src/core/lv_event.c ****         return lv_event_get_param(e);
 315:Middlewares/lvgl/src/core/lv_event.c ****     } else {
ARM GAS  /tmp/ccEwAEcV.s 			page 7


 316:Middlewares/lvgl/src/core/lv_event.c ****         LV_LOG_WARN("Not interpreted with this event code");
 317:Middlewares/lvgl/src/core/lv_event.c ****         return 0;
 318:Middlewares/lvgl/src/core/lv_event.c ****     }
 319:Middlewares/lvgl/src/core/lv_event.c **** }
 320:Middlewares/lvgl/src/core/lv_event.c **** 
 321:Middlewares/lvgl/src/core/lv_event.c **** lv_hit_test_info_t * lv_event_get_hit_test_info(lv_event_t * e)
 322:Middlewares/lvgl/src/core/lv_event.c **** {
 323:Middlewares/lvgl/src/core/lv_event.c ****     if(e->code == LV_EVENT_HIT_TEST) {
 324:Middlewares/lvgl/src/core/lv_event.c ****         return lv_event_get_param(e);
 325:Middlewares/lvgl/src/core/lv_event.c ****     } else {
 326:Middlewares/lvgl/src/core/lv_event.c ****         LV_LOG_WARN("Not interpreted with this event code");
 327:Middlewares/lvgl/src/core/lv_event.c ****         return 0;
 328:Middlewares/lvgl/src/core/lv_event.c ****     }
 329:Middlewares/lvgl/src/core/lv_event.c **** }
 330:Middlewares/lvgl/src/core/lv_event.c **** 
 331:Middlewares/lvgl/src/core/lv_event.c **** const lv_area_t * lv_event_get_cover_area(lv_event_t * e)
 332:Middlewares/lvgl/src/core/lv_event.c **** {
 333:Middlewares/lvgl/src/core/lv_event.c ****     if(e->code == LV_EVENT_COVER_CHECK) {
 334:Middlewares/lvgl/src/core/lv_event.c ****         lv_cover_check_info_t * p = lv_event_get_param(e);
 335:Middlewares/lvgl/src/core/lv_event.c ****         return p->area;
 336:Middlewares/lvgl/src/core/lv_event.c ****     } else {
 337:Middlewares/lvgl/src/core/lv_event.c ****         LV_LOG_WARN("Not interpreted with this event code");
 338:Middlewares/lvgl/src/core/lv_event.c ****         return NULL;
 339:Middlewares/lvgl/src/core/lv_event.c ****     }
 340:Middlewares/lvgl/src/core/lv_event.c **** }
 341:Middlewares/lvgl/src/core/lv_event.c **** 
 342:Middlewares/lvgl/src/core/lv_event.c **** void lv_event_set_cover_res(lv_event_t * e, lv_cover_res_t res)
 343:Middlewares/lvgl/src/core/lv_event.c **** {
 344:Middlewares/lvgl/src/core/lv_event.c ****     if(e->code == LV_EVENT_COVER_CHECK) {
 345:Middlewares/lvgl/src/core/lv_event.c ****         lv_cover_check_info_t * p = lv_event_get_param(e);
 346:Middlewares/lvgl/src/core/lv_event.c ****         if(res > p->res) p->res = res;  /*Save only "stronger" results*/
 347:Middlewares/lvgl/src/core/lv_event.c ****     } else {
 348:Middlewares/lvgl/src/core/lv_event.c ****         LV_LOG_WARN("Not interpreted with this event code");
 349:Middlewares/lvgl/src/core/lv_event.c ****     }
 350:Middlewares/lvgl/src/core/lv_event.c **** }
 351:Middlewares/lvgl/src/core/lv_event.c **** 
 352:Middlewares/lvgl/src/core/lv_event.c **** /**********************
 353:Middlewares/lvgl/src/core/lv_event.c ****  *   STATIC FUNCTIONS
 354:Middlewares/lvgl/src/core/lv_event.c ****  **********************/
 355:Middlewares/lvgl/src/core/lv_event.c **** 
 356:Middlewares/lvgl/src/core/lv_event.c **** static lv_event_dsc_t * lv_obj_get_event_dsc(const lv_obj_t * obj, uint32_t id)
 357:Middlewares/lvgl/src/core/lv_event.c **** {
  29              		.loc 1 357 1 view -0
  30              		.cfi_startproc
  31              		@ args = 0, pretend = 0, frame = 0
  32              		@ frame_needed = 0, uses_anonymous_args = 0
  33              		@ link register save eliminated.
 358:Middlewares/lvgl/src/core/lv_event.c ****     LV_ASSERT_OBJ(obj, MY_CLASS);
  34              		.loc 1 358 5 view .LVU1
  35              		.loc 1 358 5 view .LVU2
  36              		.loc 1 358 5 view .LVU3
 359:Middlewares/lvgl/src/core/lv_event.c **** 
 360:Middlewares/lvgl/src/core/lv_event.c ****     if(!obj->spec_attr) return NULL;
  37              		.loc 1 360 5 view .LVU4
  38              		.loc 1 360 12 is_stmt 0 view .LVU5
  39 0000 8068     		ldr	r0, [r0, #8]
  40              	.LVL1:
ARM GAS  /tmp/ccEwAEcV.s 			page 8


  41              		.loc 1 360 7 view .LVU6
  42 0002 48B1     		cbz	r0, .L1
 361:Middlewares/lvgl/src/core/lv_event.c ****     if(id >= obj->spec_attr->event_dsc_cnt) return NULL;
  43              		.loc 1 361 5 is_stmt 1 view .LVU7
  44              		.loc 1 361 28 is_stmt 0 view .LVU8
  45 0004 837E     		ldrb	r3, [r0, #26]	@ zero_extendqisi2
  46              		.loc 1 361 7 view .LVU9
  47 0006 8B42     		cmp	r3, r1
  48 0008 05D9     		bls	.L3
 362:Middlewares/lvgl/src/core/lv_event.c **** 
 363:Middlewares/lvgl/src/core/lv_event.c ****     return &obj->spec_attr->event_dsc[id];
  49              		.loc 1 363 5 is_stmt 1 view .LVU10
  50              		.loc 1 363 27 is_stmt 0 view .LVU11
  51 000a C068     		ldr	r0, [r0, #12]
  52              		.loc 1 363 38 view .LVU12
  53 000c 01EB4101 		add	r1, r1, r1, lsl #1
  54              	.LVL2:
  55              		.loc 1 363 12 view .LVU13
  56 0010 00EB8100 		add	r0, r0, r1, lsl #2
  57 0014 7047     		bx	lr
  58              	.LVL3:
  59              	.L3:
 361:Middlewares/lvgl/src/core/lv_event.c ****     if(id >= obj->spec_attr->event_dsc_cnt) return NULL;
  60              		.loc 1 361 52 view .LVU14
  61 0016 0020     		movs	r0, #0
  62              	.L1:
 364:Middlewares/lvgl/src/core/lv_event.c **** }
  63              		.loc 1 364 1 view .LVU15
  64 0018 7047     		bx	lr
  65              		.cfi_endproc
  66              	.LFE170:
  68              		.section	.text.event_is_bubbled,"ax",%progbits
  69              		.align	1
  70              		.syntax unified
  71              		.thumb
  72              		.thumb_func
  74              	event_is_bubbled:
  75              	.LVL4:
  76              	.LFB172:
 365:Middlewares/lvgl/src/core/lv_event.c **** 
 366:Middlewares/lvgl/src/core/lv_event.c **** static lv_res_t event_send_core(lv_event_t * e)
 367:Middlewares/lvgl/src/core/lv_event.c **** {
 368:Middlewares/lvgl/src/core/lv_event.c ****     EVENT_TRACE("Sending event %d to %p with %p param", e->code, e->current_target, e->param);
 369:Middlewares/lvgl/src/core/lv_event.c **** 
 370:Middlewares/lvgl/src/core/lv_event.c ****     /*Call the input device's feedback callback if set*/
 371:Middlewares/lvgl/src/core/lv_event.c ****     lv_indev_t * indev_act = lv_indev_get_act();
 372:Middlewares/lvgl/src/core/lv_event.c ****     if(indev_act) {
 373:Middlewares/lvgl/src/core/lv_event.c ****         if(indev_act->driver->feedback_cb) indev_act->driver->feedback_cb(indev_act->driver, e->cod
 374:Middlewares/lvgl/src/core/lv_event.c ****     }
 375:Middlewares/lvgl/src/core/lv_event.c **** 
 376:Middlewares/lvgl/src/core/lv_event.c ****     lv_event_dsc_t * event_dsc = lv_obj_get_event_dsc(e->current_target, 0);
 377:Middlewares/lvgl/src/core/lv_event.c ****     lv_res_t res = LV_RES_OK;
 378:Middlewares/lvgl/src/core/lv_event.c ****     res = lv_obj_event_base(NULL, e);
 379:Middlewares/lvgl/src/core/lv_event.c **** 
 380:Middlewares/lvgl/src/core/lv_event.c ****     uint32_t i = 0;
 381:Middlewares/lvgl/src/core/lv_event.c ****     while(event_dsc && res == LV_RES_OK) {
 382:Middlewares/lvgl/src/core/lv_event.c ****         if(event_dsc->cb && (event_dsc->filter == LV_EVENT_ALL || event_dsc->filter == e->code)) {
ARM GAS  /tmp/ccEwAEcV.s 			page 9


 383:Middlewares/lvgl/src/core/lv_event.c ****             e->user_data = event_dsc->user_data;
 384:Middlewares/lvgl/src/core/lv_event.c ****             event_dsc->cb(e);
 385:Middlewares/lvgl/src/core/lv_event.c **** 
 386:Middlewares/lvgl/src/core/lv_event.c ****             /*Stop if the object is deleted*/
 387:Middlewares/lvgl/src/core/lv_event.c ****             if(e->deleted) return LV_RES_INV;
 388:Middlewares/lvgl/src/core/lv_event.c ****         }
 389:Middlewares/lvgl/src/core/lv_event.c **** 
 390:Middlewares/lvgl/src/core/lv_event.c ****         i++;
 391:Middlewares/lvgl/src/core/lv_event.c ****         event_dsc = lv_obj_get_event_dsc(e->current_target, i);
 392:Middlewares/lvgl/src/core/lv_event.c ****     }
 393:Middlewares/lvgl/src/core/lv_event.c **** 
 394:Middlewares/lvgl/src/core/lv_event.c ****     if(res == LV_RES_OK && event_is_bubbled(e->code)) {
 395:Middlewares/lvgl/src/core/lv_event.c ****         if(lv_obj_has_flag(e->current_target, LV_OBJ_FLAG_EVENT_BUBBLE) && e->current_target->paren
 396:Middlewares/lvgl/src/core/lv_event.c ****             e->current_target = e->current_target->parent;
 397:Middlewares/lvgl/src/core/lv_event.c ****             res = event_send_core(e);
 398:Middlewares/lvgl/src/core/lv_event.c ****             if(res != LV_RES_OK) return LV_RES_INV;
 399:Middlewares/lvgl/src/core/lv_event.c ****         }
 400:Middlewares/lvgl/src/core/lv_event.c ****     }
 401:Middlewares/lvgl/src/core/lv_event.c **** 
 402:Middlewares/lvgl/src/core/lv_event.c ****     return res;
 403:Middlewares/lvgl/src/core/lv_event.c **** }
 404:Middlewares/lvgl/src/core/lv_event.c **** 
 405:Middlewares/lvgl/src/core/lv_event.c **** static bool event_is_bubbled(lv_event_code_t e)
 406:Middlewares/lvgl/src/core/lv_event.c **** {
  77              		.loc 1 406 1 is_stmt 1 view -0
  78              		.cfi_startproc
  79              		@ args = 0, pretend = 0, frame = 0
  80              		@ frame_needed = 0, uses_anonymous_args = 0
  81              		@ link register save eliminated.
 407:Middlewares/lvgl/src/core/lv_event.c ****     switch(e) {
  82              		.loc 1 407 5 view .LVU17
  83 0000 1138     		subs	r0, r0, #17
  84              	.LVL5:
  85              		.loc 1 407 5 is_stmt 0 view .LVU18
  86 0002 1528     		cmp	r0, #21
  87 0004 0ED8     		bhi	.L8
  88 0006 DFE800F0 		tbb	[pc, r0]
  89              	.L7:
  90 000a 0B       		.byte	(.L6-.L7)/2
  91 000b 0B       		.byte	(.L6-.L7)/2
  92 000c 0B       		.byte	(.L6-.L7)/2
  93 000d 0B       		.byte	(.L6-.L7)/2
  94 000e 0B       		.byte	(.L6-.L7)/2
  95 000f 0B       		.byte	(.L6-.L7)/2
  96 0010 0B       		.byte	(.L6-.L7)/2
  97 0011 0B       		.byte	(.L6-.L7)/2
  98 0012 0B       		.byte	(.L6-.L7)/2
  99 0013 0B       		.byte	(.L6-.L7)/2
 100 0014 0B       		.byte	(.L6-.L7)/2
 101 0015 0D       		.byte	(.L8-.L7)/2
 102 0016 0D       		.byte	(.L8-.L7)/2
 103 0017 0B       		.byte	(.L6-.L7)/2
 104 0018 0D       		.byte	(.L8-.L7)/2
 105 0019 0D       		.byte	(.L8-.L7)/2
 106 001a 0B       		.byte	(.L6-.L7)/2
 107 001b 0B       		.byte	(.L6-.L7)/2
 108 001c 0B       		.byte	(.L6-.L7)/2
ARM GAS  /tmp/ccEwAEcV.s 			page 10


 109 001d 0B       		.byte	(.L6-.L7)/2
 110 001e 0D       		.byte	(.L8-.L7)/2
 111 001f 0B       		.byte	(.L6-.L7)/2
 112              		.p2align 1
 113              	.L6:
 114 0020 0020     		movs	r0, #0
 115 0022 7047     		bx	lr
 116              	.L8:
 408:Middlewares/lvgl/src/core/lv_event.c ****     case LV_EVENT_HIT_TEST:
 409:Middlewares/lvgl/src/core/lv_event.c ****     case LV_EVENT_COVER_CHECK:
 410:Middlewares/lvgl/src/core/lv_event.c ****     case LV_EVENT_REFR_EXT_DRAW_SIZE:
 411:Middlewares/lvgl/src/core/lv_event.c ****     case LV_EVENT_DRAW_MAIN_BEGIN:
 412:Middlewares/lvgl/src/core/lv_event.c ****     case LV_EVENT_DRAW_MAIN:
 413:Middlewares/lvgl/src/core/lv_event.c ****     case LV_EVENT_DRAW_MAIN_END:
 414:Middlewares/lvgl/src/core/lv_event.c ****     case LV_EVENT_DRAW_POST_BEGIN:
 415:Middlewares/lvgl/src/core/lv_event.c ****     case LV_EVENT_DRAW_POST:
 416:Middlewares/lvgl/src/core/lv_event.c ****     case LV_EVENT_DRAW_POST_END:
 417:Middlewares/lvgl/src/core/lv_event.c ****     case LV_EVENT_DRAW_PART_BEGIN:
 418:Middlewares/lvgl/src/core/lv_event.c ****     case LV_EVENT_DRAW_PART_END:
 419:Middlewares/lvgl/src/core/lv_event.c ****     case LV_EVENT_REFRESH:
 420:Middlewares/lvgl/src/core/lv_event.c ****     case LV_EVENT_DELETE:
 421:Middlewares/lvgl/src/core/lv_event.c ****     case LV_EVENT_CHILD_CHANGED:
 422:Middlewares/lvgl/src/core/lv_event.c ****     case LV_EVENT_SIZE_CHANGED:
 423:Middlewares/lvgl/src/core/lv_event.c ****     case LV_EVENT_STYLE_CHANGED:
 424:Middlewares/lvgl/src/core/lv_event.c ****     case LV_EVENT_GET_SELF_SIZE:
 425:Middlewares/lvgl/src/core/lv_event.c ****         return false;
 426:Middlewares/lvgl/src/core/lv_event.c ****     default:
 427:Middlewares/lvgl/src/core/lv_event.c ****         return true;
 117              		.loc 1 427 16 view .LVU19
 118 0024 0120     		movs	r0, #1
 428:Middlewares/lvgl/src/core/lv_event.c ****     }
 429:Middlewares/lvgl/src/core/lv_event.c **** }
 119              		.loc 1 429 1 view .LVU20
 120 0026 7047     		bx	lr
 121              		.cfi_endproc
 122              	.LFE172:
 124              		.section	.text.lv_obj_event_base,"ax",%progbits
 125              		.align	1
 126              		.global	lv_obj_event_base
 127              		.syntax unified
 128              		.thumb
 129              		.thumb_func
 131              	lv_obj_event_base:
 132              	.LVL6:
 133              	.LFB148:
  83:Middlewares/lvgl/src/core/lv_event.c ****     const lv_obj_class_t * base;
 134              		.loc 1 83 1 is_stmt 1 view -0
 135              		.cfi_startproc
 136              		@ args = 0, pretend = 0, frame = 0
 137              		@ frame_needed = 0, uses_anonymous_args = 0
  83:Middlewares/lvgl/src/core/lv_event.c ****     const lv_obj_class_t * base;
 138              		.loc 1 83 1 is_stmt 0 view .LVU22
 139 0000 10B5     		push	{r4, lr}
 140              	.LCFI0:
 141              		.cfi_def_cfa_offset 8
 142              		.cfi_offset 4, -8
 143              		.cfi_offset 14, -4
ARM GAS  /tmp/ccEwAEcV.s 			page 11


 144 0002 0C46     		mov	r4, r1
  84:Middlewares/lvgl/src/core/lv_event.c ****     if(class_p == NULL) base = e->current_target->class_p;
 145              		.loc 1 84 5 is_stmt 1 view .LVU23
  85:Middlewares/lvgl/src/core/lv_event.c ****     else base = class_p->base_class;
 146              		.loc 1 85 5 view .LVU24
  85:Middlewares/lvgl/src/core/lv_event.c ****     else base = class_p->base_class;
 147              		.loc 1 85 7 is_stmt 0 view .LVU25
 148 0004 08B1     		cbz	r0, .L20
  86:Middlewares/lvgl/src/core/lv_event.c **** 
 149              		.loc 1 86 10 is_stmt 1 view .LVU26
  86:Middlewares/lvgl/src/core/lv_event.c **** 
 150              		.loc 1 86 15 is_stmt 0 view .LVU27
 151 0006 0068     		ldr	r0, [r0]
 152              	.LVL7:
  86:Middlewares/lvgl/src/core/lv_event.c **** 
 153              		.loc 1 86 15 view .LVU28
 154 0008 03E0     		b	.L12
 155              	.LVL8:
 156              	.L20:
  85:Middlewares/lvgl/src/core/lv_event.c ****     else base = class_p->base_class;
 157              		.loc 1 85 25 is_stmt 1 discriminator 1 view .LVU29
  85:Middlewares/lvgl/src/core/lv_event.c ****     else base = class_p->base_class;
 158              		.loc 1 85 33 is_stmt 0 discriminator 1 view .LVU30
 159 000a 4B68     		ldr	r3, [r1, #4]
  85:Middlewares/lvgl/src/core/lv_event.c ****     else base = class_p->base_class;
 160              		.loc 1 85 30 discriminator 1 view .LVU31
 161 000c 1868     		ldr	r0, [r3]
 162              	.LVL9:
  85:Middlewares/lvgl/src/core/lv_event.c ****     else base = class_p->base_class;
 163              		.loc 1 85 30 discriminator 1 view .LVU32
 164 000e 00E0     		b	.L12
 165              	.L14:
  89:Middlewares/lvgl/src/core/lv_event.c **** 
 166              		.loc 1 89 43 is_stmt 1 discriminator 3 view .LVU33
  89:Middlewares/lvgl/src/core/lv_event.c **** 
 167              		.loc 1 89 48 is_stmt 0 discriminator 3 view .LVU34
 168 0010 0068     		ldr	r0, [r0]
 169              	.LVL10:
 170              	.L12:
  89:Middlewares/lvgl/src/core/lv_event.c **** 
 171              		.loc 1 89 10 is_stmt 1 discriminator 1 view .LVU35
 172 0012 10B1     		cbz	r0, .L13
  89:Middlewares/lvgl/src/core/lv_event.c **** 
 173              		.loc 1 89 23 is_stmt 0 discriminator 2 view .LVU36
 174 0014 0369     		ldr	r3, [r0, #16]
  89:Middlewares/lvgl/src/core/lv_event.c **** 
 175              		.loc 1 89 16 discriminator 2 view .LVU37
 176 0016 002B     		cmp	r3, #0
 177 0018 FAD0     		beq	.L14
 178              	.L13:
  91:Middlewares/lvgl/src/core/lv_event.c ****     if(base->event_cb == NULL) return LV_RES_OK;
 179              		.loc 1 91 5 is_stmt 1 view .LVU38
  91:Middlewares/lvgl/src/core/lv_event.c ****     if(base->event_cb == NULL) return LV_RES_OK;
 180              		.loc 1 91 7 is_stmt 0 view .LVU39
 181 001a 60B1     		cbz	r0, .L16
  92:Middlewares/lvgl/src/core/lv_event.c **** 
 182              		.loc 1 92 5 is_stmt 1 view .LVU40
ARM GAS  /tmp/ccEwAEcV.s 			page 12


  92:Middlewares/lvgl/src/core/lv_event.c **** 
 183              		.loc 1 92 12 is_stmt 0 view .LVU41
 184 001c 0369     		ldr	r3, [r0, #16]
  92:Middlewares/lvgl/src/core/lv_event.c **** 
 185              		.loc 1 92 7 view .LVU42
 186 001e 63B1     		cbz	r3, .L17
  95:Middlewares/lvgl/src/core/lv_event.c ****     base->event_cb(base, e);
 187              		.loc 1 95 5 is_stmt 1 view .LVU43
  95:Middlewares/lvgl/src/core/lv_event.c ****     base->event_cb(base, e);
 188              		.loc 1 95 18 is_stmt 0 view .LVU44
 189 0020 0023     		movs	r3, #0
 190 0022 E360     		str	r3, [r4, #12]
  96:Middlewares/lvgl/src/core/lv_event.c **** 
 191              		.loc 1 96 5 is_stmt 1 view .LVU45
  96:Middlewares/lvgl/src/core/lv_event.c **** 
 192              		.loc 1 96 9 is_stmt 0 view .LVU46
 193 0024 0369     		ldr	r3, [r0, #16]
  96:Middlewares/lvgl/src/core/lv_event.c **** 
 194              		.loc 1 96 5 view .LVU47
 195 0026 2146     		mov	r1, r4
 196              	.LVL11:
  96:Middlewares/lvgl/src/core/lv_event.c **** 
 197              		.loc 1 96 5 view .LVU48
 198 0028 9847     		blx	r3
 199              	.LVL12:
  98:Middlewares/lvgl/src/core/lv_event.c ****     /*Stop if the object is deleted*/
 200              		.loc 1 98 5 is_stmt 1 view .LVU49
 100:Middlewares/lvgl/src/core/lv_event.c **** 
 201              		.loc 1 100 5 view .LVU50
 100:Middlewares/lvgl/src/core/lv_event.c **** 
 202              		.loc 1 100 8 is_stmt 0 view .LVU51
 203 002a 237E     		ldrb	r3, [r4, #24]	@ zero_extendqisi2
 100:Middlewares/lvgl/src/core/lv_event.c **** 
 204              		.loc 1 100 7 view .LVU52
 205 002c 13F0010F 		tst	r3, #1
 206 0030 05D1     		bne	.L18
  98:Middlewares/lvgl/src/core/lv_event.c ****     /*Stop if the object is deleted*/
 207              		.loc 1 98 14 view .LVU53
 208 0032 0120     		movs	r0, #1
 209              	.LVL13:
 210              	.L15:
 103:Middlewares/lvgl/src/core/lv_event.c **** 
 211              		.loc 1 103 1 view .LVU54
 212 0034 10BD     		pop	{r4, pc}
 213              	.LVL14:
 214              	.L16:
  91:Middlewares/lvgl/src/core/lv_event.c ****     if(base->event_cb == NULL) return LV_RES_OK;
 215              		.loc 1 91 29 view .LVU55
 216 0036 0120     		movs	r0, #1
 217              	.LVL15:
  91:Middlewares/lvgl/src/core/lv_event.c ****     if(base->event_cb == NULL) return LV_RES_OK;
 218              		.loc 1 91 29 view .LVU56
 219 0038 FCE7     		b	.L15
 220              	.LVL16:
 221              	.L17:
  92:Middlewares/lvgl/src/core/lv_event.c **** 
 222              		.loc 1 92 39 view .LVU57
ARM GAS  /tmp/ccEwAEcV.s 			page 13


 223 003a 0120     		movs	r0, #1
 224              	.LVL17:
  92:Middlewares/lvgl/src/core/lv_event.c **** 
 225              		.loc 1 92 39 view .LVU58
 226 003c FAE7     		b	.L15
 227              	.LVL18:
 228              	.L18:
 100:Middlewares/lvgl/src/core/lv_event.c **** 
 229              		.loc 1 100 24 view .LVU59
 230 003e 0020     		movs	r0, #0
 231 0040 F8E7     		b	.L15
 232              		.cfi_endproc
 233              	.LFE148:
 235              		.section	.text.event_send_core,"ax",%progbits
 236              		.align	1
 237              		.syntax unified
 238              		.thumb
 239              		.thumb_func
 241              	event_send_core:
 242              	.LVL19:
 243              	.LFB171:
 367:Middlewares/lvgl/src/core/lv_event.c ****     EVENT_TRACE("Sending event %d to %p with %p param", e->code, e->current_target, e->param);
 244              		.loc 1 367 1 is_stmt 1 view -0
 245              		.cfi_startproc
 246              		@ args = 0, pretend = 0, frame = 0
 247              		@ frame_needed = 0, uses_anonymous_args = 0
 367:Middlewares/lvgl/src/core/lv_event.c ****     EVENT_TRACE("Sending event %d to %p with %p param", e->code, e->current_target, e->param);
 248              		.loc 1 367 1 is_stmt 0 view .LVU61
 249 0000 F8B5     		push	{r3, r4, r5, r6, r7, lr}
 250              	.LCFI1:
 251              		.cfi_def_cfa_offset 24
 252              		.cfi_offset 3, -24
 253              		.cfi_offset 4, -20
 254              		.cfi_offset 5, -16
 255              		.cfi_offset 6, -12
 256              		.cfi_offset 7, -8
 257              		.cfi_offset 14, -4
 258 0002 0546     		mov	r5, r0
 368:Middlewares/lvgl/src/core/lv_event.c **** 
 259              		.loc 1 368 94 is_stmt 1 view .LVU62
 371:Middlewares/lvgl/src/core/lv_event.c ****     if(indev_act) {
 260              		.loc 1 371 5 view .LVU63
 371:Middlewares/lvgl/src/core/lv_event.c ****     if(indev_act) {
 261              		.loc 1 371 30 is_stmt 0 view .LVU64
 262 0004 FFF7FEFF 		bl	lv_indev_get_act
 263              	.LVL20:
 372:Middlewares/lvgl/src/core/lv_event.c ****         if(indev_act->driver->feedback_cb) indev_act->driver->feedback_cb(indev_act->driver, e->cod
 264              		.loc 1 372 5 is_stmt 1 view .LVU65
 372:Middlewares/lvgl/src/core/lv_event.c ****         if(indev_act->driver->feedback_cb) indev_act->driver->feedback_cb(indev_act->driver, e->cod
 265              		.loc 1 372 7 is_stmt 0 view .LVU66
 266 0008 20B1     		cbz	r0, .L22
 373:Middlewares/lvgl/src/core/lv_event.c ****     }
 267              		.loc 1 373 9 is_stmt 1 view .LVU67
 373:Middlewares/lvgl/src/core/lv_event.c ****     }
 268              		.loc 1 373 21 is_stmt 0 view .LVU68
 269 000a 0068     		ldr	r0, [r0]
 270              	.LVL21:
ARM GAS  /tmp/ccEwAEcV.s 			page 14


 373:Middlewares/lvgl/src/core/lv_event.c ****     }
 271              		.loc 1 373 29 view .LVU69
 272 000c 8368     		ldr	r3, [r0, #8]
 373:Middlewares/lvgl/src/core/lv_event.c ****     }
 273              		.loc 1 373 11 view .LVU70
 274 000e 0BB1     		cbz	r3, .L22
 373:Middlewares/lvgl/src/core/lv_event.c ****     }
 275              		.loc 1 373 44 is_stmt 1 discriminator 1 view .LVU71
 276 0010 297A     		ldrb	r1, [r5, #8]	@ zero_extendqisi2
 277 0012 9847     		blx	r3
 278              	.LVL22:
 279              	.L22:
 376:Middlewares/lvgl/src/core/lv_event.c ****     lv_res_t res = LV_RES_OK;
 280              		.loc 1 376 5 view .LVU72
 376:Middlewares/lvgl/src/core/lv_event.c ****     lv_res_t res = LV_RES_OK;
 281              		.loc 1 376 34 is_stmt 0 view .LVU73
 282 0014 0021     		movs	r1, #0
 283 0016 6868     		ldr	r0, [r5, #4]
 284 0018 FFF7FEFF 		bl	lv_obj_get_event_dsc
 285              	.LVL23:
 286 001c 0446     		mov	r4, r0
 287              	.LVL24:
 377:Middlewares/lvgl/src/core/lv_event.c ****     res = lv_obj_event_base(NULL, e);
 288              		.loc 1 377 5 is_stmt 1 view .LVU74
 378:Middlewares/lvgl/src/core/lv_event.c **** 
 289              		.loc 1 378 5 view .LVU75
 378:Middlewares/lvgl/src/core/lv_event.c **** 
 290              		.loc 1 378 11 is_stmt 0 view .LVU76
 291 001e 2946     		mov	r1, r5
 292 0020 0020     		movs	r0, #0
 293              	.LVL25:
 378:Middlewares/lvgl/src/core/lv_event.c **** 
 294              		.loc 1 378 11 view .LVU77
 295 0022 FFF7FEFF 		bl	lv_obj_event_base
 296              	.LVL26:
 297 0026 0746     		mov	r7, r0
 298              	.LVL27:
 380:Middlewares/lvgl/src/core/lv_event.c ****     while(event_dsc && res == LV_RES_OK) {
 299              		.loc 1 380 5 is_stmt 1 view .LVU78
 381:Middlewares/lvgl/src/core/lv_event.c ****         if(event_dsc->cb && (event_dsc->filter == LV_EVENT_ALL || event_dsc->filter == e->code)) {
 300              		.loc 1 381 5 view .LVU79
 380:Middlewares/lvgl/src/core/lv_event.c ****     while(event_dsc && res == LV_RES_OK) {
 301              		.loc 1 380 14 is_stmt 0 view .LVU80
 302 0028 0026     		movs	r6, #0
 381:Middlewares/lvgl/src/core/lv_event.c ****         if(event_dsc->cb && (event_dsc->filter == LV_EVENT_ALL || event_dsc->filter == e->code)) {
 303              		.loc 1 381 10 view .LVU81
 304 002a 0EE0     		b	.L23
 305              	.LVL28:
 306              	.L25:
 383:Middlewares/lvgl/src/core/lv_event.c ****             event_dsc->cb(e);
 307              		.loc 1 383 13 is_stmt 1 view .LVU82
 383:Middlewares/lvgl/src/core/lv_event.c ****             event_dsc->cb(e);
 308              		.loc 1 383 37 is_stmt 0 view .LVU83
 309 002c 6368     		ldr	r3, [r4, #4]
 383:Middlewares/lvgl/src/core/lv_event.c ****             event_dsc->cb(e);
 310              		.loc 1 383 26 view .LVU84
 311 002e EB60     		str	r3, [r5, #12]
ARM GAS  /tmp/ccEwAEcV.s 			page 15


 384:Middlewares/lvgl/src/core/lv_event.c **** 
 312              		.loc 1 384 13 is_stmt 1 view .LVU85
 384:Middlewares/lvgl/src/core/lv_event.c **** 
 313              		.loc 1 384 22 is_stmt 0 view .LVU86
 314 0030 2368     		ldr	r3, [r4]
 384:Middlewares/lvgl/src/core/lv_event.c **** 
 315              		.loc 1 384 13 view .LVU87
 316 0032 2846     		mov	r0, r5
 317 0034 9847     		blx	r3
 318              	.LVL29:
 387:Middlewares/lvgl/src/core/lv_event.c ****         }
 319              		.loc 1 387 13 is_stmt 1 view .LVU88
 387:Middlewares/lvgl/src/core/lv_event.c ****         }
 320              		.loc 1 387 16 is_stmt 0 view .LVU89
 321 0036 2B7E     		ldrb	r3, [r5, #24]	@ zero_extendqisi2
 387:Middlewares/lvgl/src/core/lv_event.c ****         }
 322              		.loc 1 387 15 view .LVU90
 323 0038 13F0010F 		tst	r3, #1
 324 003c 2FD1     		bne	.L29
 325              	.L24:
 390:Middlewares/lvgl/src/core/lv_event.c ****         event_dsc = lv_obj_get_event_dsc(e->current_target, i);
 326              		.loc 1 390 9 is_stmt 1 view .LVU91
 390:Middlewares/lvgl/src/core/lv_event.c ****         event_dsc = lv_obj_get_event_dsc(e->current_target, i);
 327              		.loc 1 390 10 is_stmt 0 view .LVU92
 328 003e 0136     		adds	r6, r6, #1
 329              	.LVL30:
 391:Middlewares/lvgl/src/core/lv_event.c ****     }
 330              		.loc 1 391 9 is_stmt 1 view .LVU93
 391:Middlewares/lvgl/src/core/lv_event.c ****     }
 331              		.loc 1 391 21 is_stmt 0 view .LVU94
 332 0040 3146     		mov	r1, r6
 333 0042 6868     		ldr	r0, [r5, #4]
 334 0044 FFF7FEFF 		bl	lv_obj_get_event_dsc
 335              	.LVL31:
 336 0048 0446     		mov	r4, r0
 337              	.LVL32:
 338              	.L23:
 381:Middlewares/lvgl/src/core/lv_event.c ****         if(event_dsc->cb && (event_dsc->filter == LV_EVENT_ALL || event_dsc->filter == e->code)) {
 339              		.loc 1 381 10 is_stmt 1 view .LVU95
 340 004a 5CB1     		cbz	r4, .L27
 381:Middlewares/lvgl/src/core/lv_event.c ****         if(event_dsc->cb && (event_dsc->filter == LV_EVENT_ALL || event_dsc->filter == e->code)) {
 341              		.loc 1 381 21 is_stmt 0 discriminator 1 view .LVU96
 342 004c 012F     		cmp	r7, #1
 343 004e 09D1     		bne	.L27
 382:Middlewares/lvgl/src/core/lv_event.c ****             e->user_data = event_dsc->user_data;
 344              		.loc 1 382 9 is_stmt 1 view .LVU97
 382:Middlewares/lvgl/src/core/lv_event.c ****             e->user_data = event_dsc->user_data;
 345              		.loc 1 382 21 is_stmt 0 view .LVU98
 346 0050 2368     		ldr	r3, [r4]
 382:Middlewares/lvgl/src/core/lv_event.c ****             e->user_data = event_dsc->user_data;
 347              		.loc 1 382 11 view .LVU99
 348 0052 002B     		cmp	r3, #0
 349 0054 F3D0     		beq	.L24
 382:Middlewares/lvgl/src/core/lv_event.c ****             e->user_data = event_dsc->user_data;
 350              		.loc 1 382 39 discriminator 1 view .LVU100
 351 0056 237A     		ldrb	r3, [r4, #8]	@ zero_extendqisi2
 382:Middlewares/lvgl/src/core/lv_event.c ****             e->user_data = event_dsc->user_data;
ARM GAS  /tmp/ccEwAEcV.s 			page 16


 352              		.loc 1 382 26 discriminator 1 view .LVU101
 353 0058 002B     		cmp	r3, #0
 354 005a E7D0     		beq	.L25
 382:Middlewares/lvgl/src/core/lv_event.c ****             e->user_data = event_dsc->user_data;
 355              		.loc 1 382 89 discriminator 2 view .LVU102
 356 005c 2A7A     		ldrb	r2, [r5, #8]	@ zero_extendqisi2
 382:Middlewares/lvgl/src/core/lv_event.c ****             e->user_data = event_dsc->user_data;
 357              		.loc 1 382 64 discriminator 2 view .LVU103
 358 005e 9342     		cmp	r3, r2
 359 0060 EDD1     		bne	.L24
 360 0062 E3E7     		b	.L25
 361              	.L27:
 394:Middlewares/lvgl/src/core/lv_event.c ****         if(lv_obj_has_flag(e->current_target, LV_OBJ_FLAG_EVENT_BUBBLE) && e->current_target->paren
 362              		.loc 1 394 5 is_stmt 1 view .LVU104
 394:Middlewares/lvgl/src/core/lv_event.c ****         if(lv_obj_has_flag(e->current_target, LV_OBJ_FLAG_EVENT_BUBBLE) && e->current_target->paren
 363              		.loc 1 394 7 is_stmt 0 view .LVU105
 364 0064 012F     		cmp	r7, #1
 365 0066 01D0     		beq	.L32
 366              	.LVL33:
 367              	.L26:
 403:Middlewares/lvgl/src/core/lv_event.c **** 
 368              		.loc 1 403 1 view .LVU106
 369 0068 3846     		mov	r0, r7
 370 006a F8BD     		pop	{r3, r4, r5, r6, r7, pc}
 371              	.LVL34:
 372              	.L32:
 394:Middlewares/lvgl/src/core/lv_event.c ****         if(lv_obj_has_flag(e->current_target, LV_OBJ_FLAG_EVENT_BUBBLE) && e->current_target->paren
 373              		.loc 1 394 28 discriminator 1 view .LVU107
 374 006c 287A     		ldrb	r0, [r5, #8]	@ zero_extendqisi2
 375 006e FFF7FEFF 		bl	event_is_bubbled
 376              	.LVL35:
 394:Middlewares/lvgl/src/core/lv_event.c ****         if(lv_obj_has_flag(e->current_target, LV_OBJ_FLAG_EVENT_BUBBLE) && e->current_target->paren
 377              		.loc 1 394 25 discriminator 1 view .LVU108
 378 0072 0028     		cmp	r0, #0
 379 0074 F8D0     		beq	.L26
 395:Middlewares/lvgl/src/core/lv_event.c ****             e->current_target = e->current_target->parent;
 380              		.loc 1 395 9 is_stmt 1 view .LVU109
 395:Middlewares/lvgl/src/core/lv_event.c ****             e->current_target = e->current_target->parent;
 381              		.loc 1 395 12 is_stmt 0 view .LVU110
 382 0076 4FF48051 		mov	r1, #4096
 383 007a 6868     		ldr	r0, [r5, #4]
 384 007c FFF7FEFF 		bl	lv_obj_has_flag
 385              	.LVL36:
 395:Middlewares/lvgl/src/core/lv_event.c ****             e->current_target = e->current_target->parent;
 386              		.loc 1 395 11 view .LVU111
 387 0080 0028     		cmp	r0, #0
 388 0082 F1D0     		beq	.L26
 395:Middlewares/lvgl/src/core/lv_event.c ****             e->current_target = e->current_target->parent;
 389              		.loc 1 395 77 discriminator 1 view .LVU112
 390 0084 6B68     		ldr	r3, [r5, #4]
 395:Middlewares/lvgl/src/core/lv_event.c ****             e->current_target = e->current_target->parent;
 391              		.loc 1 395 93 discriminator 1 view .LVU113
 392 0086 5B68     		ldr	r3, [r3, #4]
 395:Middlewares/lvgl/src/core/lv_event.c ****             e->current_target = e->current_target->parent;
 393              		.loc 1 395 73 discriminator 1 view .LVU114
 394 0088 002B     		cmp	r3, #0
 395 008a EDD0     		beq	.L26
ARM GAS  /tmp/ccEwAEcV.s 			page 17


 396:Middlewares/lvgl/src/core/lv_event.c ****             res = event_send_core(e);
 396              		.loc 1 396 13 is_stmt 1 view .LVU115
 396:Middlewares/lvgl/src/core/lv_event.c ****             res = event_send_core(e);
 397              		.loc 1 396 31 is_stmt 0 view .LVU116
 398 008c 6B60     		str	r3, [r5, #4]
 397:Middlewares/lvgl/src/core/lv_event.c ****             if(res != LV_RES_OK) return LV_RES_INV;
 399              		.loc 1 397 13 is_stmt 1 view .LVU117
 397:Middlewares/lvgl/src/core/lv_event.c ****             if(res != LV_RES_OK) return LV_RES_INV;
 400              		.loc 1 397 19 is_stmt 0 view .LVU118
 401 008e 2846     		mov	r0, r5
 402 0090 FFF7B6FF 		bl	event_send_core
 403              	.LVL37:
 404 0094 0746     		mov	r7, r0
 405              	.LVL38:
 398:Middlewares/lvgl/src/core/lv_event.c ****         }
 406              		.loc 1 398 13 is_stmt 1 view .LVU119
 398:Middlewares/lvgl/src/core/lv_event.c ****         }
 407              		.loc 1 398 15 is_stmt 0 view .LVU120
 408 0096 0128     		cmp	r0, #1
 409 0098 E6D0     		beq	.L26
 398:Middlewares/lvgl/src/core/lv_event.c ****         }
 410              		.loc 1 398 41 view .LVU121
 411 009a 0027     		movs	r7, #0
 412 009c E4E7     		b	.L26
 413              	.LVL39:
 414              	.L29:
 387:Middlewares/lvgl/src/core/lv_event.c ****         }
 415              		.loc 1 387 35 view .LVU122
 416 009e 0027     		movs	r7, #0
 417              	.LVL40:
 387:Middlewares/lvgl/src/core/lv_event.c ****         }
 418              		.loc 1 387 35 view .LVU123
 419 00a0 E2E7     		b	.L26
 420              		.cfi_endproc
 421              	.LFE171:
 423              		.section	.text.lv_event_send,"ax",%progbits
 424              		.align	1
 425              		.global	lv_event_send
 426              		.syntax unified
 427              		.thumb
 428              		.thumb_func
 430              	lv_event_send:
 431              	.LVL41:
 432              	.LFB147:
  52:Middlewares/lvgl/src/core/lv_event.c ****     if(obj == NULL) return LV_RES_OK;
 433              		.loc 1 52 1 is_stmt 1 view -0
 434              		.cfi_startproc
 435              		@ args = 0, pretend = 0, frame = 32
 436              		@ frame_needed = 0, uses_anonymous_args = 0
  53:Middlewares/lvgl/src/core/lv_event.c **** 
 437              		.loc 1 53 5 view .LVU125
  53:Middlewares/lvgl/src/core/lv_event.c **** 
 438              		.loc 1 53 7 is_stmt 0 view .LVU126
 439 0000 C8B1     		cbz	r0, .L35
  52:Middlewares/lvgl/src/core/lv_event.c ****     if(obj == NULL) return LV_RES_OK;
 440              		.loc 1 52 1 view .LVU127
 441 0002 10B5     		push	{r4, lr}
ARM GAS  /tmp/ccEwAEcV.s 			page 18


 442              	.LCFI2:
 443              		.cfi_def_cfa_offset 8
 444              		.cfi_offset 4, -8
 445              		.cfi_offset 14, -4
 446 0004 88B0     		sub	sp, sp, #32
 447              	.LCFI3:
 448              		.cfi_def_cfa_offset 40
  55:Middlewares/lvgl/src/core/lv_event.c **** 
 449              		.loc 1 55 5 is_stmt 1 view .LVU128
  55:Middlewares/lvgl/src/core/lv_event.c **** 
 450              		.loc 1 55 5 view .LVU129
  55:Middlewares/lvgl/src/core/lv_event.c **** 
 451              		.loc 1 55 5 view .LVU130
  57:Middlewares/lvgl/src/core/lv_event.c ****     e.target = obj;
 452              		.loc 1 57 5 view .LVU131
  58:Middlewares/lvgl/src/core/lv_event.c ****     e.current_target = obj;
 453              		.loc 1 58 5 view .LVU132
  58:Middlewares/lvgl/src/core/lv_event.c ****     e.current_target = obj;
 454              		.loc 1 58 14 is_stmt 0 view .LVU133
 455 0006 0190     		str	r0, [sp, #4]
  59:Middlewares/lvgl/src/core/lv_event.c ****     e.code = event_code;
 456              		.loc 1 59 5 is_stmt 1 view .LVU134
  59:Middlewares/lvgl/src/core/lv_event.c ****     e.code = event_code;
 457              		.loc 1 59 22 is_stmt 0 view .LVU135
 458 0008 0290     		str	r0, [sp, #8]
  60:Middlewares/lvgl/src/core/lv_event.c ****     e.user_data = NULL;
 459              		.loc 1 60 5 is_stmt 1 view .LVU136
  60:Middlewares/lvgl/src/core/lv_event.c ****     e.user_data = NULL;
 460              		.loc 1 60 12 is_stmt 0 view .LVU137
 461 000a 8DF80C10 		strb	r1, [sp, #12]
  61:Middlewares/lvgl/src/core/lv_event.c ****     e.param = param;
 462              		.loc 1 61 5 is_stmt 1 view .LVU138
  61:Middlewares/lvgl/src/core/lv_event.c ****     e.param = param;
 463              		.loc 1 61 17 is_stmt 0 view .LVU139
 464 000e 0021     		movs	r1, #0
 465              	.LVL42:
  61:Middlewares/lvgl/src/core/lv_event.c ****     e.param = param;
 466              		.loc 1 61 17 view .LVU140
 467 0010 0491     		str	r1, [sp, #16]
  62:Middlewares/lvgl/src/core/lv_event.c ****     e.deleted = 0;
 468              		.loc 1 62 5 is_stmt 1 view .LVU141
  62:Middlewares/lvgl/src/core/lv_event.c ****     e.deleted = 0;
 469              		.loc 1 62 13 is_stmt 0 view .LVU142
 470 0012 0592     		str	r2, [sp, #20]
  63:Middlewares/lvgl/src/core/lv_event.c **** 
 471              		.loc 1 63 5 is_stmt 1 view .LVU143
  63:Middlewares/lvgl/src/core/lv_event.c **** 
 472              		.loc 1 63 15 is_stmt 0 view .LVU144
 473 0014 9DF81C30 		ldrb	r3, [sp, #28]	@ zero_extendqisi2
 474 0018 61F30003 		bfi	r3, r1, #0, #1
 475 001c 8DF81C30 		strb	r3, [sp, #28]
  69:Middlewares/lvgl/src/core/lv_event.c ****     event_head = &e;
 476              		.loc 1 69 5 is_stmt 1 view .LVU145
  69:Middlewares/lvgl/src/core/lv_event.c ****     event_head = &e;
 477              		.loc 1 69 12 is_stmt 0 view .LVU146
 478 0020 064C     		ldr	r4, .L40
 479 0022 2368     		ldr	r3, [r4]
ARM GAS  /tmp/ccEwAEcV.s 			page 19


 480 0024 0693     		str	r3, [sp, #24]
  70:Middlewares/lvgl/src/core/lv_event.c **** 
 481              		.loc 1 70 5 is_stmt 1 view .LVU147
  70:Middlewares/lvgl/src/core/lv_event.c **** 
 482              		.loc 1 70 16 is_stmt 0 view .LVU148
 483 0026 01A8     		add	r0, sp, #4
 484              	.LVL43:
  70:Middlewares/lvgl/src/core/lv_event.c **** 
 485              		.loc 1 70 16 view .LVU149
 486 0028 2060     		str	r0, [r4]
  73:Middlewares/lvgl/src/core/lv_event.c **** 
 487              		.loc 1 73 5 is_stmt 1 view .LVU150
  73:Middlewares/lvgl/src/core/lv_event.c **** 
 488              		.loc 1 73 20 is_stmt 0 view .LVU151
 489 002a FFF7FEFF 		bl	event_send_core
 490              	.LVL44:
  76:Middlewares/lvgl/src/core/lv_event.c **** 
 491              		.loc 1 76 5 is_stmt 1 view .LVU152
  76:Middlewares/lvgl/src/core/lv_event.c **** 
 492              		.loc 1 76 19 is_stmt 0 view .LVU153
 493 002e 069B     		ldr	r3, [sp, #24]
  76:Middlewares/lvgl/src/core/lv_event.c **** 
 494              		.loc 1 76 16 view .LVU154
 495 0030 2360     		str	r3, [r4]
  78:Middlewares/lvgl/src/core/lv_event.c **** }
 496              		.loc 1 78 5 is_stmt 1 view .LVU155
  79:Middlewares/lvgl/src/core/lv_event.c **** 
 497              		.loc 1 79 1 is_stmt 0 view .LVU156
 498 0032 08B0     		add	sp, sp, #32
 499              	.LCFI4:
 500              		.cfi_def_cfa_offset 8
 501              		@ sp needed
 502 0034 10BD     		pop	{r4, pc}
 503              	.LVL45:
 504              	.L35:
 505              	.LCFI5:
 506              		.cfi_def_cfa_offset 0
 507              		.cfi_restore 4
 508              		.cfi_restore 14
  53:Middlewares/lvgl/src/core/lv_event.c **** 
 509              		.loc 1 53 28 view .LVU157
 510 0036 0120     		movs	r0, #1
 511              	.LVL46:
  79:Middlewares/lvgl/src/core/lv_event.c **** 
 512              		.loc 1 79 1 view .LVU158
 513 0038 7047     		bx	lr
 514              	.L41:
 515 003a 00BF     		.align	2
 516              	.L40:
 517 003c 00000000 		.word	.LANCHOR0
 518              		.cfi_endproc
 519              	.LFE147:
 521              		.section	.text.lv_event_get_target,"ax",%progbits
 522              		.align	1
 523              		.global	lv_event_get_target
 524              		.syntax unified
 525              		.thumb
ARM GAS  /tmp/ccEwAEcV.s 			page 20


 526              		.thumb_func
 528              	lv_event_get_target:
 529              	.LVL47:
 530              	.LFB149:
 107:Middlewares/lvgl/src/core/lv_event.c ****     return e->target;
 531              		.loc 1 107 1 is_stmt 1 view -0
 532              		.cfi_startproc
 533              		@ args = 0, pretend = 0, frame = 0
 534              		@ frame_needed = 0, uses_anonymous_args = 0
 535              		@ link register save eliminated.
 108:Middlewares/lvgl/src/core/lv_event.c **** }
 536              		.loc 1 108 5 view .LVU160
 109:Middlewares/lvgl/src/core/lv_event.c **** 
 537              		.loc 1 109 1 is_stmt 0 view .LVU161
 538 0000 0068     		ldr	r0, [r0]
 539              	.LVL48:
 109:Middlewares/lvgl/src/core/lv_event.c **** 
 540              		.loc 1 109 1 view .LVU162
 541 0002 7047     		bx	lr
 542              		.cfi_endproc
 543              	.LFE149:
 545              		.section	.text.lv_event_get_current_target,"ax",%progbits
 546              		.align	1
 547              		.global	lv_event_get_current_target
 548              		.syntax unified
 549              		.thumb
 550              		.thumb_func
 552              	lv_event_get_current_target:
 553              	.LVL49:
 554              	.LFB150:
 112:Middlewares/lvgl/src/core/lv_event.c ****     return e->current_target;
 555              		.loc 1 112 1 is_stmt 1 view -0
 556              		.cfi_startproc
 557              		@ args = 0, pretend = 0, frame = 0
 558              		@ frame_needed = 0, uses_anonymous_args = 0
 559              		@ link register save eliminated.
 113:Middlewares/lvgl/src/core/lv_event.c **** }
 560              		.loc 1 113 5 view .LVU164
 114:Middlewares/lvgl/src/core/lv_event.c **** 
 561              		.loc 1 114 1 is_stmt 0 view .LVU165
 562 0000 4068     		ldr	r0, [r0, #4]
 563              	.LVL50:
 114:Middlewares/lvgl/src/core/lv_event.c **** 
 564              		.loc 1 114 1 view .LVU166
 565 0002 7047     		bx	lr
 566              		.cfi_endproc
 567              	.LFE150:
 569              		.section	.text.lv_event_get_code,"ax",%progbits
 570              		.align	1
 571              		.global	lv_event_get_code
 572              		.syntax unified
 573              		.thumb
 574              		.thumb_func
 576              	lv_event_get_code:
 577              	.LVL51:
 578              	.LFB151:
 117:Middlewares/lvgl/src/core/lv_event.c ****     return e->code;
ARM GAS  /tmp/ccEwAEcV.s 			page 21


 579              		.loc 1 117 1 is_stmt 1 view -0
 580              		.cfi_startproc
 581              		@ args = 0, pretend = 0, frame = 0
 582              		@ frame_needed = 0, uses_anonymous_args = 0
 583              		@ link register save eliminated.
 118:Middlewares/lvgl/src/core/lv_event.c **** }
 584              		.loc 1 118 5 view .LVU168
 119:Middlewares/lvgl/src/core/lv_event.c **** 
 585              		.loc 1 119 1 is_stmt 0 view .LVU169
 586 0000 007A     		ldrb	r0, [r0, #8]	@ zero_extendqisi2
 587              	.LVL52:
 119:Middlewares/lvgl/src/core/lv_event.c **** 
 588              		.loc 1 119 1 view .LVU170
 589 0002 7047     		bx	lr
 590              		.cfi_endproc
 591              	.LFE151:
 593              		.section	.text.lv_event_get_param,"ax",%progbits
 594              		.align	1
 595              		.global	lv_event_get_param
 596              		.syntax unified
 597              		.thumb
 598              		.thumb_func
 600              	lv_event_get_param:
 601              	.LVL53:
 602              	.LFB152:
 122:Middlewares/lvgl/src/core/lv_event.c ****     return e->param;
 603              		.loc 1 122 1 is_stmt 1 view -0
 604              		.cfi_startproc
 605              		@ args = 0, pretend = 0, frame = 0
 606              		@ frame_needed = 0, uses_anonymous_args = 0
 607              		@ link register save eliminated.
 123:Middlewares/lvgl/src/core/lv_event.c **** }
 608              		.loc 1 123 5 view .LVU172
 124:Middlewares/lvgl/src/core/lv_event.c **** 
 609              		.loc 1 124 1 is_stmt 0 view .LVU173
 610 0000 0069     		ldr	r0, [r0, #16]
 611              	.LVL54:
 124:Middlewares/lvgl/src/core/lv_event.c **** 
 612              		.loc 1 124 1 view .LVU174
 613 0002 7047     		bx	lr
 614              		.cfi_endproc
 615              	.LFE152:
 617              		.section	.text.lv_event_get_user_data,"ax",%progbits
 618              		.align	1
 619              		.global	lv_event_get_user_data
 620              		.syntax unified
 621              		.thumb
 622              		.thumb_func
 624              	lv_event_get_user_data:
 625              	.LVL55:
 626              	.LFB153:
 127:Middlewares/lvgl/src/core/lv_event.c ****     return e->user_data;
 627              		.loc 1 127 1 is_stmt 1 view -0
 628              		.cfi_startproc
 629              		@ args = 0, pretend = 0, frame = 0
 630              		@ frame_needed = 0, uses_anonymous_args = 0
 631              		@ link register save eliminated.
ARM GAS  /tmp/ccEwAEcV.s 			page 22


 128:Middlewares/lvgl/src/core/lv_event.c **** }
 632              		.loc 1 128 5 view .LVU176
 129:Middlewares/lvgl/src/core/lv_event.c **** 
 633              		.loc 1 129 1 is_stmt 0 view .LVU177
 634 0000 C068     		ldr	r0, [r0, #12]
 635              	.LVL56:
 129:Middlewares/lvgl/src/core/lv_event.c **** 
 636              		.loc 1 129 1 view .LVU178
 637 0002 7047     		bx	lr
 638              		.cfi_endproc
 639              	.LFE153:
 641              		.section	.text.lv_event_register_id,"ax",%progbits
 642              		.align	1
 643              		.global	lv_event_register_id
 644              		.syntax unified
 645              		.thumb
 646              		.thumb_func
 648              	lv_event_register_id:
 649              	.LFB154:
 133:Middlewares/lvgl/src/core/lv_event.c ****     static uint32_t last_id = _LV_EVENT_LAST;
 650              		.loc 1 133 1 is_stmt 1 view -0
 651              		.cfi_startproc
 652              		@ args = 0, pretend = 0, frame = 0
 653              		@ frame_needed = 0, uses_anonymous_args = 0
 654              		@ link register save eliminated.
 134:Middlewares/lvgl/src/core/lv_event.c ****     last_id ++;
 655              		.loc 1 134 5 view .LVU180
 135:Middlewares/lvgl/src/core/lv_event.c ****     return last_id;
 656              		.loc 1 135 5 view .LVU181
 135:Middlewares/lvgl/src/core/lv_event.c ****     return last_id;
 657              		.loc 1 135 13 is_stmt 0 view .LVU182
 658 0000 024B     		ldr	r3, .L48
 659 0002 1868     		ldr	r0, [r3]
 660 0004 0130     		adds	r0, r0, #1
 661 0006 1860     		str	r0, [r3]
 136:Middlewares/lvgl/src/core/lv_event.c **** }
 662              		.loc 1 136 5 is_stmt 1 view .LVU183
 137:Middlewares/lvgl/src/core/lv_event.c **** 
 663              		.loc 1 137 1 is_stmt 0 view .LVU184
 664 0008 7047     		bx	lr
 665              	.L49:
 666 000a 00BF     		.align	2
 667              	.L48:
 668 000c 00000000 		.word	.LANCHOR1
 669              		.cfi_endproc
 670              	.LFE154:
 672              		.section	.text._lv_event_mark_deleted,"ax",%progbits
 673              		.align	1
 674              		.global	_lv_event_mark_deleted
 675              		.syntax unified
 676              		.thumb
 677              		.thumb_func
 679              	_lv_event_mark_deleted:
 680              	.LVL57:
 681              	.LFB155:
 140:Middlewares/lvgl/src/core/lv_event.c ****     lv_event_t * e = event_head;
 682              		.loc 1 140 1 is_stmt 1 view -0
ARM GAS  /tmp/ccEwAEcV.s 			page 23


 683              		.cfi_startproc
 684              		@ args = 0, pretend = 0, frame = 0
 685              		@ frame_needed = 0, uses_anonymous_args = 0
 686              		@ link register save eliminated.
 141:Middlewares/lvgl/src/core/lv_event.c **** 
 687              		.loc 1 141 5 view .LVU186
 141:Middlewares/lvgl/src/core/lv_event.c **** 
 688              		.loc 1 141 18 is_stmt 0 view .LVU187
 689 0000 084B     		ldr	r3, .L56
 690 0002 1B68     		ldr	r3, [r3]
 691              	.LVL58:
 143:Middlewares/lvgl/src/core/lv_event.c ****         if(e->current_target == obj || e->target == obj) e->deleted = 1;
 692              		.loc 1 143 5 is_stmt 1 view .LVU188
 143:Middlewares/lvgl/src/core/lv_event.c ****         if(e->current_target == obj || e->target == obj) e->deleted = 1;
 693              		.loc 1 143 10 is_stmt 0 view .LVU189
 694 0004 04E0     		b	.L51
 695              	.L52:
 144:Middlewares/lvgl/src/core/lv_event.c ****         e = e->prev;
 696              		.loc 1 144 58 is_stmt 1 discriminator 3 view .LVU190
 144:Middlewares/lvgl/src/core/lv_event.c ****         e = e->prev;
 697              		.loc 1 144 69 is_stmt 0 discriminator 3 view .LVU191
 698 0006 1A7E     		ldrb	r2, [r3, #24]	@ zero_extendqisi2
 699 0008 42F00102 		orr	r2, r2, #1
 700 000c 1A76     		strb	r2, [r3, #24]
 701              	.L53:
 145:Middlewares/lvgl/src/core/lv_event.c ****     }
 702              		.loc 1 145 9 is_stmt 1 view .LVU192
 145:Middlewares/lvgl/src/core/lv_event.c ****     }
 703              		.loc 1 145 11 is_stmt 0 view .LVU193
 704 000e 5B69     		ldr	r3, [r3, #20]
 705              	.LVL59:
 706              	.L51:
 143:Middlewares/lvgl/src/core/lv_event.c ****         if(e->current_target == obj || e->target == obj) e->deleted = 1;
 707              		.loc 1 143 10 is_stmt 1 view .LVU194
 708 0010 33B1     		cbz	r3, .L55
 144:Middlewares/lvgl/src/core/lv_event.c ****         e = e->prev;
 709              		.loc 1 144 9 view .LVU195
 144:Middlewares/lvgl/src/core/lv_event.c ****         e = e->prev;
 710              		.loc 1 144 13 is_stmt 0 view .LVU196
 711 0012 5A68     		ldr	r2, [r3, #4]
 144:Middlewares/lvgl/src/core/lv_event.c ****         e = e->prev;
 712              		.loc 1 144 11 view .LVU197
 713 0014 8242     		cmp	r2, r0
 714 0016 F6D0     		beq	.L52
 144:Middlewares/lvgl/src/core/lv_event.c ****         e = e->prev;
 715              		.loc 1 144 41 discriminator 2 view .LVU198
 716 0018 1A68     		ldr	r2, [r3]
 144:Middlewares/lvgl/src/core/lv_event.c ****         e = e->prev;
 717              		.loc 1 144 37 discriminator 2 view .LVU199
 718 001a 8242     		cmp	r2, r0
 719 001c F7D1     		bne	.L53
 720 001e F2E7     		b	.L52
 721              	.L55:
 147:Middlewares/lvgl/src/core/lv_event.c **** 
 722              		.loc 1 147 1 view .LVU200
 723 0020 7047     		bx	lr
 724              	.L57:
ARM GAS  /tmp/ccEwAEcV.s 			page 24


 725 0022 00BF     		.align	2
 726              	.L56:
 727 0024 00000000 		.word	.LANCHOR0
 728              		.cfi_endproc
 729              	.LFE155:
 731              		.section	.text.lv_obj_add_event_cb,"ax",%progbits
 732              		.align	1
 733              		.global	lv_obj_add_event_cb
 734              		.syntax unified
 735              		.thumb
 736              		.thumb_func
 738              	lv_obj_add_event_cb:
 739              	.LVL60:
 740              	.LFB156:
 151:Middlewares/lvgl/src/core/lv_event.c ****     LV_ASSERT_OBJ(obj, MY_CLASS);
 741              		.loc 1 151 1 is_stmt 1 view -0
 742              		.cfi_startproc
 743              		@ args = 0, pretend = 0, frame = 0
 744              		@ frame_needed = 0, uses_anonymous_args = 0
 151:Middlewares/lvgl/src/core/lv_event.c ****     LV_ASSERT_OBJ(obj, MY_CLASS);
 745              		.loc 1 151 1 is_stmt 0 view .LVU202
 746 0000 2DE9F041 		push	{r4, r5, r6, r7, r8, lr}
 747              	.LCFI6:
 748              		.cfi_def_cfa_offset 24
 749              		.cfi_offset 4, -24
 750              		.cfi_offset 5, -20
 751              		.cfi_offset 6, -16
 752              		.cfi_offset 7, -12
 753              		.cfi_offset 8, -8
 754              		.cfi_offset 14, -4
 755 0004 0446     		mov	r4, r0
 756 0006 0F46     		mov	r7, r1
 757 0008 1646     		mov	r6, r2
 758 000a 1D46     		mov	r5, r3
 152:Middlewares/lvgl/src/core/lv_event.c ****     lv_obj_allocate_spec_attr(obj);
 759              		.loc 1 152 5 is_stmt 1 view .LVU203
 152:Middlewares/lvgl/src/core/lv_event.c ****     lv_obj_allocate_spec_attr(obj);
 760              		.loc 1 152 5 view .LVU204
 152:Middlewares/lvgl/src/core/lv_event.c ****     lv_obj_allocate_spec_attr(obj);
 761              		.loc 1 152 5 view .LVU205
 153:Middlewares/lvgl/src/core/lv_event.c **** 
 762              		.loc 1 153 5 view .LVU206
 763 000c FFF7FEFF 		bl	lv_obj_allocate_spec_attr
 764              	.LVL61:
 155:Middlewares/lvgl/src/core/lv_event.c ****     obj->spec_attr->event_dsc = lv_mem_realloc(obj->spec_attr->event_dsc, obj->spec_attr->event_dsc
 765              		.loc 1 155 5 view .LVU207
 155:Middlewares/lvgl/src/core/lv_event.c ****     obj->spec_attr->event_dsc = lv_mem_realloc(obj->spec_attr->event_dsc, obj->spec_attr->event_dsc
 766              		.loc 1 155 8 is_stmt 0 view .LVU208
 767 0010 A268     		ldr	r2, [r4, #8]
 155:Middlewares/lvgl/src/core/lv_event.c ****     obj->spec_attr->event_dsc = lv_mem_realloc(obj->spec_attr->event_dsc, obj->spec_attr->event_dsc
 768              		.loc 1 155 19 view .LVU209
 769 0012 937E     		ldrb	r3, [r2, #26]	@ zero_extendqisi2
 155:Middlewares/lvgl/src/core/lv_event.c ****     obj->spec_attr->event_dsc = lv_mem_realloc(obj->spec_attr->event_dsc, obj->spec_attr->event_dsc
 770              		.loc 1 155 34 view .LVU210
 771 0014 0133     		adds	r3, r3, #1
 772 0016 9376     		strb	r3, [r2, #26]
 156:Middlewares/lvgl/src/core/lv_event.c ****     LV_ASSERT_MALLOC(obj->spec_attr->event_dsc);
ARM GAS  /tmp/ccEwAEcV.s 			page 25


 773              		.loc 1 156 5 is_stmt 1 view .LVU211
 156:Middlewares/lvgl/src/core/lv_event.c ****     LV_ASSERT_MALLOC(obj->spec_attr->event_dsc);
 774              		.loc 1 156 51 is_stmt 0 view .LVU212
 775 0018 D4F80880 		ldr	r8, [r4, #8]
 156:Middlewares/lvgl/src/core/lv_event.c ****     LV_ASSERT_MALLOC(obj->spec_attr->event_dsc);
 776              		.loc 1 156 89 view .LVU213
 777 001c 98F81A10 		ldrb	r1, [r8, #26]	@ zero_extendqisi2
 156:Middlewares/lvgl/src/core/lv_event.c ****     LV_ASSERT_MALLOC(obj->spec_attr->event_dsc);
 778              		.loc 1 156 33 view .LVU214
 779 0020 01EB4101 		add	r1, r1, r1, lsl #1
 780 0024 8900     		lsls	r1, r1, #2
 781 0026 D8F80C00 		ldr	r0, [r8, #12]
 782 002a FFF7FEFF 		bl	lv_mem_realloc
 783              	.LVL62:
 156:Middlewares/lvgl/src/core/lv_event.c ****     LV_ASSERT_MALLOC(obj->spec_attr->event_dsc);
 784              		.loc 1 156 31 view .LVU215
 785 002e C8F80C00 		str	r0, [r8, #12]
 157:Middlewares/lvgl/src/core/lv_event.c **** 
 786              		.loc 1 157 5 is_stmt 1 view .LVU216
 157:Middlewares/lvgl/src/core/lv_event.c **** 
 787              		.loc 1 157 5 view .LVU217
 788 0032 A368     		ldr	r3, [r4, #8]
 789 0034 DA68     		ldr	r2, [r3, #12]
 790 0036 0AB3     		cbz	r2, .L60
 157:Middlewares/lvgl/src/core/lv_event.c **** 
 791              		.loc 1 157 5 discriminator 2 view .LVU218
 157:Middlewares/lvgl/src/core/lv_event.c **** 
 792              		.loc 1 157 48 discriminator 2 view .LVU219
 159:Middlewares/lvgl/src/core/lv_event.c ****     obj->spec_attr->event_dsc[obj->spec_attr->event_dsc_cnt - 1].filter = filter;
 793              		.loc 1 159 5 discriminator 2 view .LVU220
 159:Middlewares/lvgl/src/core/lv_event.c ****     obj->spec_attr->event_dsc[obj->spec_attr->event_dsc_cnt - 1].filter = filter;
 794              		.loc 1 159 45 is_stmt 0 discriminator 2 view .LVU221
 795 0038 9B7E     		ldrb	r3, [r3, #26]	@ zero_extendqisi2
 159:Middlewares/lvgl/src/core/lv_event.c ****     obj->spec_attr->event_dsc[obj->spec_attr->event_dsc_cnt - 1].filter = filter;
 796              		.loc 1 159 30 discriminator 2 view .LVU222
 797 003a 03EB4303 		add	r3, r3, r3, lsl #1
 798 003e 9B00     		lsls	r3, r3, #2
 799 0040 0C3B     		subs	r3, r3, #12
 159:Middlewares/lvgl/src/core/lv_event.c ****     obj->spec_attr->event_dsc[obj->spec_attr->event_dsc_cnt - 1].filter = filter;
 800              		.loc 1 159 69 discriminator 2 view .LVU223
 801 0042 D750     		str	r7, [r2, r3]
 160:Middlewares/lvgl/src/core/lv_event.c ****     obj->spec_attr->event_dsc[obj->spec_attr->event_dsc_cnt - 1].user_data = user_data;
 802              		.loc 1 160 5 is_stmt 1 discriminator 2 view .LVU224
 160:Middlewares/lvgl/src/core/lv_event.c ****     obj->spec_attr->event_dsc[obj->spec_attr->event_dsc_cnt - 1].user_data = user_data;
 803              		.loc 1 160 8 is_stmt 0 discriminator 2 view .LVU225
 804 0044 A268     		ldr	r2, [r4, #8]
 160:Middlewares/lvgl/src/core/lv_event.c ****     obj->spec_attr->event_dsc[obj->spec_attr->event_dsc_cnt - 1].user_data = user_data;
 805              		.loc 1 160 19 discriminator 2 view .LVU226
 806 0046 D368     		ldr	r3, [r2, #12]
 160:Middlewares/lvgl/src/core/lv_event.c ****     obj->spec_attr->event_dsc[obj->spec_attr->event_dsc_cnt - 1].user_data = user_data;
 807              		.loc 1 160 45 discriminator 2 view .LVU227
 808 0048 917E     		ldrb	r1, [r2, #26]	@ zero_extendqisi2
 160:Middlewares/lvgl/src/core/lv_event.c ****     obj->spec_attr->event_dsc[obj->spec_attr->event_dsc_cnt - 1].user_data = user_data;
 809              		.loc 1 160 30 discriminator 2 view .LVU228
 810 004a 01EB4101 		add	r1, r1, r1, lsl #1
 811 004e 8900     		lsls	r1, r1, #2
 812 0050 0C39     		subs	r1, r1, #12
ARM GAS  /tmp/ccEwAEcV.s 			page 26


 813 0052 1944     		add	r1, r1, r3
 160:Middlewares/lvgl/src/core/lv_event.c ****     obj->spec_attr->event_dsc[obj->spec_attr->event_dsc_cnt - 1].user_data = user_data;
 814              		.loc 1 160 73 discriminator 2 view .LVU229
 815 0054 0E72     		strb	r6, [r1, #8]
 161:Middlewares/lvgl/src/core/lv_event.c **** 
 816              		.loc 1 161 5 is_stmt 1 discriminator 2 view .LVU230
 161:Middlewares/lvgl/src/core/lv_event.c **** 
 817              		.loc 1 161 8 is_stmt 0 discriminator 2 view .LVU231
 818 0056 A268     		ldr	r2, [r4, #8]
 161:Middlewares/lvgl/src/core/lv_event.c **** 
 819              		.loc 1 161 19 discriminator 2 view .LVU232
 820 0058 D368     		ldr	r3, [r2, #12]
 161:Middlewares/lvgl/src/core/lv_event.c **** 
 821              		.loc 1 161 45 discriminator 2 view .LVU233
 822 005a 927E     		ldrb	r2, [r2, #26]	@ zero_extendqisi2
 161:Middlewares/lvgl/src/core/lv_event.c **** 
 823              		.loc 1 161 30 discriminator 2 view .LVU234
 824 005c 02EB4202 		add	r2, r2, r2, lsl #1
 825 0060 9200     		lsls	r2, r2, #2
 826 0062 0C3A     		subs	r2, r2, #12
 827 0064 1A44     		add	r2, r2, r3
 161:Middlewares/lvgl/src/core/lv_event.c **** 
 828              		.loc 1 161 76 discriminator 2 view .LVU235
 829 0066 5560     		str	r5, [r2, #4]
 163:Middlewares/lvgl/src/core/lv_event.c **** }
 830              		.loc 1 163 5 is_stmt 1 discriminator 2 view .LVU236
 163:Middlewares/lvgl/src/core/lv_event.c **** }
 831              		.loc 1 163 16 is_stmt 0 discriminator 2 view .LVU237
 832 0068 A368     		ldr	r3, [r4, #8]
 163:Middlewares/lvgl/src/core/lv_event.c **** }
 833              		.loc 1 163 27 discriminator 2 view .LVU238
 834 006a D868     		ldr	r0, [r3, #12]
 163:Middlewares/lvgl/src/core/lv_event.c **** }
 835              		.loc 1 163 53 discriminator 2 view .LVU239
 836 006c 9B7E     		ldrb	r3, [r3, #26]	@ zero_extendqisi2
 163:Middlewares/lvgl/src/core/lv_event.c **** }
 837              		.loc 1 163 38 discriminator 2 view .LVU240
 838 006e 03EB4303 		add	r3, r3, r3, lsl #1
 839 0072 9B00     		lsls	r3, r3, #2
 840 0074 0C3B     		subs	r3, r3, #12
 164:Middlewares/lvgl/src/core/lv_event.c **** 
 841              		.loc 1 164 1 discriminator 2 view .LVU241
 842 0076 1844     		add	r0, r0, r3
 843 0078 BDE8F081 		pop	{r4, r5, r6, r7, r8, pc}
 844              	.LVL63:
 845              	.L60:
 157:Middlewares/lvgl/src/core/lv_event.c **** 
 846              		.loc 1 157 5 is_stmt 1 discriminator 1 view .LVU242
 157:Middlewares/lvgl/src/core/lv_event.c **** 
 847              		.loc 1 157 5 discriminator 1 view .LVU243
 157:Middlewares/lvgl/src/core/lv_event.c **** 
 848              		.loc 1 157 5 discriminator 1 view .LVU244
 157:Middlewares/lvgl/src/core/lv_event.c **** 
 849              		.loc 1 157 5 discriminator 1 view .LVU245
 850 007c FEE7     		b	.L60
 851              		.cfi_endproc
 852              	.LFE156:
ARM GAS  /tmp/ccEwAEcV.s 			page 27


 854              		.section	.text.lv_obj_remove_event_cb,"ax",%progbits
 855              		.align	1
 856              		.global	lv_obj_remove_event_cb
 857              		.syntax unified
 858              		.thumb
 859              		.thumb_func
 861              	lv_obj_remove_event_cb:
 862              	.LVL64:
 863              	.LFB157:
 167:Middlewares/lvgl/src/core/lv_event.c ****     LV_ASSERT_OBJ(obj, MY_CLASS);
 864              		.loc 1 167 1 view -0
 865              		.cfi_startproc
 866              		@ args = 0, pretend = 0, frame = 0
 867              		@ frame_needed = 0, uses_anonymous_args = 0
 168:Middlewares/lvgl/src/core/lv_event.c ****     if(obj->spec_attr == NULL) return false;
 868              		.loc 1 168 5 view .LVU247
 168:Middlewares/lvgl/src/core/lv_event.c ****     if(obj->spec_attr == NULL) return false;
 869              		.loc 1 168 5 view .LVU248
 168:Middlewares/lvgl/src/core/lv_event.c ****     if(obj->spec_attr == NULL) return false;
 870              		.loc 1 168 5 view .LVU249
 169:Middlewares/lvgl/src/core/lv_event.c **** 
 871              		.loc 1 169 5 view .LVU250
 169:Middlewares/lvgl/src/core/lv_event.c **** 
 872              		.loc 1 169 11 is_stmt 0 view .LVU251
 873 0000 8268     		ldr	r2, [r0, #8]
 169:Middlewares/lvgl/src/core/lv_event.c **** 
 874              		.loc 1 169 7 view .LVU252
 875 0002 002A     		cmp	r2, #0
 876 0004 37D0     		beq	.L70
 167:Middlewares/lvgl/src/core/lv_event.c ****     LV_ASSERT_OBJ(obj, MY_CLASS);
 877              		.loc 1 167 1 view .LVU253
 878 0006 38B5     		push	{r3, r4, r5, lr}
 879              	.LCFI7:
 880              		.cfi_def_cfa_offset 16
 881              		.cfi_offset 3, -16
 882              		.cfi_offset 4, -12
 883              		.cfi_offset 5, -8
 884              		.cfi_offset 14, -4
 885 0008 0446     		mov	r4, r0
 172:Middlewares/lvgl/src/core/lv_event.c ****         if(obj->spec_attr->event_dsc[i].cb == event_cb) {
 886              		.loc 1 172 11 view .LVU254
 887 000a 0023     		movs	r3, #0
 888 000c 26E0     		b	.L64
 889              	.LVL65:
 890              	.L67:
 176:Middlewares/lvgl/src/core/lv_event.c ****                 obj->spec_attr->event_dsc[i].user_data = obj->spec_attr->event_dsc[i+1].user_data;
 891              		.loc 1 176 17 is_stmt 1 discriminator 2 view .LVU255
 176:Middlewares/lvgl/src/core/lv_event.c ****                 obj->spec_attr->event_dsc[i].user_data = obj->spec_attr->event_dsc[i+1].user_data;
 892              		.loc 1 176 65 is_stmt 0 discriminator 2 view .LVU256
 893 000e D168     		ldr	r1, [r2, #12]
 176:Middlewares/lvgl/src/core/lv_event.c ****                 obj->spec_attr->event_dsc[i].user_data = obj->spec_attr->event_dsc[i+1].user_data;
 894              		.loc 1 176 76 discriminator 2 view .LVU257
 895 0010 581C     		adds	r0, r3, #1
 896 0012 00EB4002 		add	r2, r0, r0, lsl #1
 897 0016 9200     		lsls	r2, r2, #2
 176:Middlewares/lvgl/src/core/lv_event.c ****                 obj->spec_attr->event_dsc[i].user_data = obj->spec_attr->event_dsc[i+1].user_data;
 898              		.loc 1 176 42 discriminator 2 view .LVU258
ARM GAS  /tmp/ccEwAEcV.s 			page 28


 899 0018 03EB4303 		add	r3, r3, r3, lsl #1
 900              	.LVL66:
 176:Middlewares/lvgl/src/core/lv_event.c ****                 obj->spec_attr->event_dsc[i].user_data = obj->spec_attr->event_dsc[i+1].user_data;
 901              		.loc 1 176 42 discriminator 2 view .LVU259
 902 001c 9B00     		lsls	r3, r3, #2
 176:Middlewares/lvgl/src/core/lv_event.c ****                 obj->spec_attr->event_dsc[i].user_data = obj->spec_attr->event_dsc[i+1].user_data;
 903              		.loc 1 176 49 discriminator 2 view .LVU260
 904 001e 8D58     		ldr	r5, [r1, r2]
 905 0020 CD50     		str	r5, [r1, r3]
 177:Middlewares/lvgl/src/core/lv_event.c ****             }
 906              		.loc 1 177 17 is_stmt 1 discriminator 2 view .LVU261
 177:Middlewares/lvgl/src/core/lv_event.c ****             }
 907              		.loc 1 177 61 is_stmt 0 discriminator 2 view .LVU262
 908 0022 A168     		ldr	r1, [r4, #8]
 177:Middlewares/lvgl/src/core/lv_event.c ****             }
 909              		.loc 1 177 72 discriminator 2 view .LVU263
 910 0024 C968     		ldr	r1, [r1, #12]
 177:Middlewares/lvgl/src/core/lv_event.c ****             }
 911              		.loc 1 177 83 discriminator 2 view .LVU264
 912 0026 0A44     		add	r2, r2, r1
 177:Middlewares/lvgl/src/core/lv_event.c ****             }
 913              		.loc 1 177 42 discriminator 2 view .LVU265
 914 0028 1944     		add	r1, r1, r3
 177:Middlewares/lvgl/src/core/lv_event.c ****             }
 915              		.loc 1 177 88 discriminator 2 view .LVU266
 916 002a 5368     		ldr	r3, [r2, #4]
 177:Middlewares/lvgl/src/core/lv_event.c ****             }
 917              		.loc 1 177 56 discriminator 2 view .LVU267
 918 002c 4B60     		str	r3, [r1, #4]
 175:Middlewares/lvgl/src/core/lv_event.c ****                 obj->spec_attr->event_dsc[i].cb = obj->spec_attr->event_dsc[i+1].cb;
 919              		.loc 1 175 58 is_stmt 1 discriminator 2 view .LVU268
 175:Middlewares/lvgl/src/core/lv_event.c ****                 obj->spec_attr->event_dsc[i].cb = obj->spec_attr->event_dsc[i+1].cb;
 920              		.loc 1 175 59 is_stmt 0 discriminator 2 view .LVU269
 921 002e 0346     		mov	r3, r0
 922              	.LVL67:
 923              	.L65:
 175:Middlewares/lvgl/src/core/lv_event.c ****                 obj->spec_attr->event_dsc[i].cb = obj->spec_attr->event_dsc[i+1].cb;
 924              		.loc 1 175 19 is_stmt 1 discriminator 1 view .LVU270
 175:Middlewares/lvgl/src/core/lv_event.c ****                 obj->spec_attr->event_dsc[i].cb = obj->spec_attr->event_dsc[i+1].cb;
 925              		.loc 1 175 27 is_stmt 0 discriminator 1 view .LVU271
 926 0030 A268     		ldr	r2, [r4, #8]
 175:Middlewares/lvgl/src/core/lv_event.c ****                 obj->spec_attr->event_dsc[i].cb = obj->spec_attr->event_dsc[i+1].cb;
 927              		.loc 1 175 38 discriminator 1 view .LVU272
 928 0032 917E     		ldrb	r1, [r2, #26]	@ zero_extendqisi2
 175:Middlewares/lvgl/src/core/lv_event.c ****                 obj->spec_attr->event_dsc[i].cb = obj->spec_attr->event_dsc[i+1].cb;
 929              		.loc 1 175 53 discriminator 1 view .LVU273
 930 0034 481E     		subs	r0, r1, #1
 175:Middlewares/lvgl/src/core/lv_event.c ****                 obj->spec_attr->event_dsc[i].cb = obj->spec_attr->event_dsc[i+1].cb;
 931              		.loc 1 175 13 discriminator 1 view .LVU274
 932 0036 9842     		cmp	r0, r3
 933 0038 E9DC     		bgt	.L67
 179:Middlewares/lvgl/src/core/lv_event.c ****             obj->spec_attr->event_dsc = lv_mem_realloc(obj->spec_attr->event_dsc, obj->spec_attr->e
 934              		.loc 1 179 13 is_stmt 1 view .LVU275
 179:Middlewares/lvgl/src/core/lv_event.c ****             obj->spec_attr->event_dsc = lv_mem_realloc(obj->spec_attr->event_dsc, obj->spec_attr->e
 935              		.loc 1 179 42 is_stmt 0 view .LVU276
 936 003a 9076     		strb	r0, [r2, #26]
 180:Middlewares/lvgl/src/core/lv_event.c ****             LV_ASSERT_MALLOC(obj->spec_attr->event_dsc);
ARM GAS  /tmp/ccEwAEcV.s 			page 29


 937              		.loc 1 180 13 is_stmt 1 view .LVU277
 180:Middlewares/lvgl/src/core/lv_event.c ****             LV_ASSERT_MALLOC(obj->spec_attr->event_dsc);
 938              		.loc 1 180 59 is_stmt 0 view .LVU278
 939 003c A568     		ldr	r5, [r4, #8]
 180:Middlewares/lvgl/src/core/lv_event.c ****             LV_ASSERT_MALLOC(obj->spec_attr->event_dsc);
 940              		.loc 1 180 97 view .LVU279
 941 003e A97E     		ldrb	r1, [r5, #26]	@ zero_extendqisi2
 180:Middlewares/lvgl/src/core/lv_event.c ****             LV_ASSERT_MALLOC(obj->spec_attr->event_dsc);
 942              		.loc 1 180 41 view .LVU280
 943 0040 01EB4101 		add	r1, r1, r1, lsl #1
 944 0044 8900     		lsls	r1, r1, #2
 945 0046 E868     		ldr	r0, [r5, #12]
 946 0048 FFF7FEFF 		bl	lv_mem_realloc
 947              	.LVL68:
 180:Middlewares/lvgl/src/core/lv_event.c ****             LV_ASSERT_MALLOC(obj->spec_attr->event_dsc);
 948              		.loc 1 180 39 view .LVU281
 949 004c E860     		str	r0, [r5, #12]
 181:Middlewares/lvgl/src/core/lv_event.c ****             return true;
 950              		.loc 1 181 13 is_stmt 1 view .LVU282
 181:Middlewares/lvgl/src/core/lv_event.c ****             return true;
 951              		.loc 1 181 13 view .LVU283
 952 004e A368     		ldr	r3, [r4, #8]
 953 0050 DB68     		ldr	r3, [r3, #12]
 954 0052 0BB1     		cbz	r3, .L68
 182:Middlewares/lvgl/src/core/lv_event.c ****         }
 955              		.loc 1 182 20 is_stmt 0 view .LVU284
 956 0054 0120     		movs	r0, #1
 957 0056 0DE0     		b	.L63
 958              	.L68:
 181:Middlewares/lvgl/src/core/lv_event.c ****             return true;
 959              		.loc 1 181 13 is_stmt 1 discriminator 1 view .LVU285
 181:Middlewares/lvgl/src/core/lv_event.c ****             return true;
 960              		.loc 1 181 13 discriminator 1 view .LVU286
 181:Middlewares/lvgl/src/core/lv_event.c ****             return true;
 961              		.loc 1 181 13 discriminator 1 view .LVU287
 181:Middlewares/lvgl/src/core/lv_event.c ****             return true;
 962              		.loc 1 181 13 discriminator 1 view .LVU288
 963 0058 FEE7     		b	.L68
 964              	.LVL69:
 965              	.L72:
 172:Middlewares/lvgl/src/core/lv_event.c ****         if(obj->spec_attr->event_dsc[i].cb == event_cb) {
 966              		.loc 1 172 51 discriminator 2 view .LVU289
 172:Middlewares/lvgl/src/core/lv_event.c ****         if(obj->spec_attr->event_dsc[i].cb == event_cb) {
 967              		.loc 1 172 52 is_stmt 0 discriminator 2 view .LVU290
 968 005a 0133     		adds	r3, r3, #1
 969              	.LVL70:
 970              	.L64:
 172:Middlewares/lvgl/src/core/lv_event.c ****         if(obj->spec_attr->event_dsc[i].cb == event_cb) {
 971              		.loc 1 172 16 is_stmt 1 discriminator 1 view .LVU291
 172:Middlewares/lvgl/src/core/lv_event.c ****         if(obj->spec_attr->event_dsc[i].cb == event_cb) {
 972              		.loc 1 172 34 is_stmt 0 discriminator 1 view .LVU292
 973 005c 907E     		ldrb	r0, [r2, #26]	@ zero_extendqisi2
 172:Middlewares/lvgl/src/core/lv_event.c ****         if(obj->spec_attr->event_dsc[i].cb == event_cb) {
 974              		.loc 1 172 5 discriminator 1 view .LVU293
 975 005e 9842     		cmp	r0, r3
 976 0060 07DD     		ble	.L77
 173:Middlewares/lvgl/src/core/lv_event.c ****             /*Shift the remaining event handlers forward*/
ARM GAS  /tmp/ccEwAEcV.s 			page 30


 977              		.loc 1 173 9 is_stmt 1 view .LVU294
 173:Middlewares/lvgl/src/core/lv_event.c ****             /*Shift the remaining event handlers forward*/
 978              		.loc 1 173 26 is_stmt 0 view .LVU295
 979 0062 D068     		ldr	r0, [r2, #12]
 173:Middlewares/lvgl/src/core/lv_event.c ****             /*Shift the remaining event handlers forward*/
 980              		.loc 1 173 37 view .LVU296
 981 0064 03EB430C 		add	ip, r3, r3, lsl #1
 173:Middlewares/lvgl/src/core/lv_event.c ****             /*Shift the remaining event handlers forward*/
 982              		.loc 1 173 40 view .LVU297
 983 0068 50F82C00 		ldr	r0, [r0, ip, lsl #2]
 173:Middlewares/lvgl/src/core/lv_event.c ****             /*Shift the remaining event handlers forward*/
 984              		.loc 1 173 11 view .LVU298
 985 006c 8842     		cmp	r0, r1
 986 006e F4D1     		bne	.L72
 987 0070 DEE7     		b	.L65
 988              	.L77:
 187:Middlewares/lvgl/src/core/lv_event.c **** }
 989              		.loc 1 187 12 view .LVU299
 990 0072 0020     		movs	r0, #0
 991              	.LVL71:
 992              	.L63:
 188:Middlewares/lvgl/src/core/lv_event.c **** 
 993              		.loc 1 188 1 view .LVU300
 994 0074 38BD     		pop	{r3, r4, r5, pc}
 995              	.LVL72:
 996              	.L70:
 997              	.LCFI8:
 998              		.cfi_def_cfa_offset 0
 999              		.cfi_restore 3
 1000              		.cfi_restore 4
 1001              		.cfi_restore 5
 1002              		.cfi_restore 14
 169:Middlewares/lvgl/src/core/lv_event.c **** 
 1003              		.loc 1 169 39 view .LVU301
 1004 0076 0020     		movs	r0, #0
 1005              	.LVL73:
 188:Middlewares/lvgl/src/core/lv_event.c **** 
 1006              		.loc 1 188 1 view .LVU302
 1007 0078 7047     		bx	lr
 1008              		.cfi_endproc
 1009              	.LFE157:
 1011              		.section	.text.lv_obj_remove_event_dsc,"ax",%progbits
 1012              		.align	1
 1013              		.global	lv_obj_remove_event_dsc
 1014              		.syntax unified
 1015              		.thumb
 1016              		.thumb_func
 1018              	lv_obj_remove_event_dsc:
 1019              	.LVL74:
 1020              	.LFB158:
 191:Middlewares/lvgl/src/core/lv_event.c ****     LV_ASSERT_OBJ(obj, MY_CLASS);
 1021              		.loc 1 191 1 is_stmt 1 view -0
 1022              		.cfi_startproc
 1023              		@ args = 0, pretend = 0, frame = 0
 1024              		@ frame_needed = 0, uses_anonymous_args = 0
 191:Middlewares/lvgl/src/core/lv_event.c ****     LV_ASSERT_OBJ(obj, MY_CLASS);
 1025              		.loc 1 191 1 is_stmt 0 view .LVU304
ARM GAS  /tmp/ccEwAEcV.s 			page 31


 1026 0000 38B5     		push	{r3, r4, r5, lr}
 1027              	.LCFI9:
 1028              		.cfi_def_cfa_offset 16
 1029              		.cfi_offset 3, -16
 1030              		.cfi_offset 4, -12
 1031              		.cfi_offset 5, -8
 1032              		.cfi_offset 14, -4
 192:Middlewares/lvgl/src/core/lv_event.c ****     if(obj->spec_attr == NULL) return false;
 1033              		.loc 1 192 5 is_stmt 1 view .LVU305
 192:Middlewares/lvgl/src/core/lv_event.c ****     if(obj->spec_attr == NULL) return false;
 1034              		.loc 1 192 5 view .LVU306
 192:Middlewares/lvgl/src/core/lv_event.c ****     if(obj->spec_attr == NULL) return false;
 1035              		.loc 1 192 5 view .LVU307
 193:Middlewares/lvgl/src/core/lv_event.c **** 
 1036              		.loc 1 193 5 view .LVU308
 193:Middlewares/lvgl/src/core/lv_event.c **** 
 1037              		.loc 1 193 11 is_stmt 0 view .LVU309
 1038 0002 8468     		ldr	r4, [r0, #8]
 193:Middlewares/lvgl/src/core/lv_event.c **** 
 1039              		.loc 1 193 7 view .LVU310
 1040 0004 002C     		cmp	r4, #0
 1041 0006 36D0     		beq	.L86
 1042 0008 0546     		mov	r5, r0
 196:Middlewares/lvgl/src/core/lv_event.c ****         if(&obj->spec_attr->event_dsc[i] == event_dsc) {
 1043              		.loc 1 196 11 view .LVU311
 1044 000a 0023     		movs	r3, #0
 1045 000c 26E0     		b	.L80
 1046              	.LVL75:
 1047              	.L83:
 200:Middlewares/lvgl/src/core/lv_event.c ****                 obj->spec_attr->event_dsc[i].user_data = obj->spec_attr->event_dsc[i+1].user_data;
 1048              		.loc 1 200 17 is_stmt 1 discriminator 2 view .LVU312
 200:Middlewares/lvgl/src/core/lv_event.c ****                 obj->spec_attr->event_dsc[i].user_data = obj->spec_attr->event_dsc[i+1].user_data;
 1049              		.loc 1 200 65 is_stmt 0 discriminator 2 view .LVU313
 1050 000e D168     		ldr	r1, [r2, #12]
 200:Middlewares/lvgl/src/core/lv_event.c ****                 obj->spec_attr->event_dsc[i].user_data = obj->spec_attr->event_dsc[i+1].user_data;
 1051              		.loc 1 200 76 discriminator 2 view .LVU314
 1052 0010 581C     		adds	r0, r3, #1
 1053 0012 00EB4002 		add	r2, r0, r0, lsl #1
 1054 0016 9200     		lsls	r2, r2, #2
 200:Middlewares/lvgl/src/core/lv_event.c ****                 obj->spec_attr->event_dsc[i].user_data = obj->spec_attr->event_dsc[i+1].user_data;
 1055              		.loc 1 200 42 discriminator 2 view .LVU315
 1056 0018 03EB4303 		add	r3, r3, r3, lsl #1
 1057              	.LVL76:
 200:Middlewares/lvgl/src/core/lv_event.c ****                 obj->spec_attr->event_dsc[i].user_data = obj->spec_attr->event_dsc[i+1].user_data;
 1058              		.loc 1 200 42 discriminator 2 view .LVU316
 1059 001c 9B00     		lsls	r3, r3, #2
 200:Middlewares/lvgl/src/core/lv_event.c ****                 obj->spec_attr->event_dsc[i].user_data = obj->spec_attr->event_dsc[i+1].user_data;
 1060              		.loc 1 200 81 discriminator 2 view .LVU317
 1061 001e 8C58     		ldr	r4, [r1, r2]
 200:Middlewares/lvgl/src/core/lv_event.c ****                 obj->spec_attr->event_dsc[i].user_data = obj->spec_attr->event_dsc[i+1].user_data;
 1062              		.loc 1 200 49 discriminator 2 view .LVU318
 1063 0020 CC50     		str	r4, [r1, r3]
 201:Middlewares/lvgl/src/core/lv_event.c ****             }
 1064              		.loc 1 201 17 is_stmt 1 discriminator 2 view .LVU319
 201:Middlewares/lvgl/src/core/lv_event.c ****             }
 1065              		.loc 1 201 61 is_stmt 0 discriminator 2 view .LVU320
 1066 0022 A968     		ldr	r1, [r5, #8]
ARM GAS  /tmp/ccEwAEcV.s 			page 32


 201:Middlewares/lvgl/src/core/lv_event.c ****             }
 1067              		.loc 1 201 72 discriminator 2 view .LVU321
 1068 0024 C968     		ldr	r1, [r1, #12]
 201:Middlewares/lvgl/src/core/lv_event.c ****             }
 1069              		.loc 1 201 83 discriminator 2 view .LVU322
 1070 0026 0A44     		add	r2, r2, r1
 201:Middlewares/lvgl/src/core/lv_event.c ****             }
 1071              		.loc 1 201 42 discriminator 2 view .LVU323
 1072 0028 1944     		add	r1, r1, r3
 201:Middlewares/lvgl/src/core/lv_event.c ****             }
 1073              		.loc 1 201 88 discriminator 2 view .LVU324
 1074 002a 5368     		ldr	r3, [r2, #4]
 201:Middlewares/lvgl/src/core/lv_event.c ****             }
 1075              		.loc 1 201 56 discriminator 2 view .LVU325
 1076 002c 4B60     		str	r3, [r1, #4]
 199:Middlewares/lvgl/src/core/lv_event.c ****                 obj->spec_attr->event_dsc[i].cb = obj->spec_attr->event_dsc[i+1].cb;
 1077              		.loc 1 199 58 is_stmt 1 discriminator 2 view .LVU326
 199:Middlewares/lvgl/src/core/lv_event.c ****                 obj->spec_attr->event_dsc[i].cb = obj->spec_attr->event_dsc[i+1].cb;
 1078              		.loc 1 199 59 is_stmt 0 discriminator 2 view .LVU327
 1079 002e 0346     		mov	r3, r0
 1080              	.LVL77:
 1081              	.L81:
 199:Middlewares/lvgl/src/core/lv_event.c ****                 obj->spec_attr->event_dsc[i].cb = obj->spec_attr->event_dsc[i+1].cb;
 1082              		.loc 1 199 19 is_stmt 1 discriminator 1 view .LVU328
 199:Middlewares/lvgl/src/core/lv_event.c ****                 obj->spec_attr->event_dsc[i].cb = obj->spec_attr->event_dsc[i+1].cb;
 1083              		.loc 1 199 27 is_stmt 0 discriminator 1 view .LVU329
 1084 0030 AA68     		ldr	r2, [r5, #8]
 199:Middlewares/lvgl/src/core/lv_event.c ****                 obj->spec_attr->event_dsc[i].cb = obj->spec_attr->event_dsc[i+1].cb;
 1085              		.loc 1 199 38 discriminator 1 view .LVU330
 1086 0032 917E     		ldrb	r1, [r2, #26]	@ zero_extendqisi2
 199:Middlewares/lvgl/src/core/lv_event.c ****                 obj->spec_attr->event_dsc[i].cb = obj->spec_attr->event_dsc[i+1].cb;
 1087              		.loc 1 199 53 discriminator 1 view .LVU331
 1088 0034 481E     		subs	r0, r1, #1
 199:Middlewares/lvgl/src/core/lv_event.c ****                 obj->spec_attr->event_dsc[i].cb = obj->spec_attr->event_dsc[i+1].cb;
 1089              		.loc 1 199 13 discriminator 1 view .LVU332
 1090 0036 9842     		cmp	r0, r3
 1091 0038 E9DC     		bgt	.L83
 203:Middlewares/lvgl/src/core/lv_event.c ****             obj->spec_attr->event_dsc = lv_mem_realloc(obj->spec_attr->event_dsc, obj->spec_attr->e
 1092              		.loc 1 203 13 is_stmt 1 view .LVU333
 203:Middlewares/lvgl/src/core/lv_event.c ****             obj->spec_attr->event_dsc = lv_mem_realloc(obj->spec_attr->event_dsc, obj->spec_attr->e
 1093              		.loc 1 203 42 is_stmt 0 view .LVU334
 1094 003a 9076     		strb	r0, [r2, #26]
 204:Middlewares/lvgl/src/core/lv_event.c ****             LV_ASSERT_MALLOC(obj->spec_attr->event_dsc);
 1095              		.loc 1 204 13 is_stmt 1 view .LVU335
 204:Middlewares/lvgl/src/core/lv_event.c ****             LV_ASSERT_MALLOC(obj->spec_attr->event_dsc);
 1096              		.loc 1 204 59 is_stmt 0 view .LVU336
 1097 003c AC68     		ldr	r4, [r5, #8]
 204:Middlewares/lvgl/src/core/lv_event.c ****             LV_ASSERT_MALLOC(obj->spec_attr->event_dsc);
 1098              		.loc 1 204 97 view .LVU337
 1099 003e A17E     		ldrb	r1, [r4, #26]	@ zero_extendqisi2
 204:Middlewares/lvgl/src/core/lv_event.c ****             LV_ASSERT_MALLOC(obj->spec_attr->event_dsc);
 1100              		.loc 1 204 41 view .LVU338
 1101 0040 01EB4101 		add	r1, r1, r1, lsl #1
 1102 0044 8900     		lsls	r1, r1, #2
 1103 0046 E068     		ldr	r0, [r4, #12]
 1104 0048 FFF7FEFF 		bl	lv_mem_realloc
 1105              	.LVL78:
ARM GAS  /tmp/ccEwAEcV.s 			page 33


 204:Middlewares/lvgl/src/core/lv_event.c ****             LV_ASSERT_MALLOC(obj->spec_attr->event_dsc);
 1106              		.loc 1 204 39 view .LVU339
 1107 004c E060     		str	r0, [r4, #12]
 205:Middlewares/lvgl/src/core/lv_event.c ****             return true;
 1108              		.loc 1 205 13 is_stmt 1 view .LVU340
 205:Middlewares/lvgl/src/core/lv_event.c ****             return true;
 1109              		.loc 1 205 13 view .LVU341
 1110 004e AB68     		ldr	r3, [r5, #8]
 1111 0050 DB68     		ldr	r3, [r3, #12]
 1112 0052 0BB1     		cbz	r3, .L84
 206:Middlewares/lvgl/src/core/lv_event.c ****         }
 1113              		.loc 1 206 20 is_stmt 0 view .LVU342
 1114 0054 0120     		movs	r0, #1
 1115 0056 0DE0     		b	.L79
 1116              	.L84:
 205:Middlewares/lvgl/src/core/lv_event.c ****             return true;
 1117              		.loc 1 205 13 is_stmt 1 discriminator 1 view .LVU343
 205:Middlewares/lvgl/src/core/lv_event.c ****             return true;
 1118              		.loc 1 205 13 discriminator 1 view .LVU344
 205:Middlewares/lvgl/src/core/lv_event.c ****             return true;
 1119              		.loc 1 205 13 discriminator 1 view .LVU345
 205:Middlewares/lvgl/src/core/lv_event.c ****             return true;
 1120              		.loc 1 205 13 discriminator 1 view .LVU346
 1121 0058 FEE7     		b	.L84
 1122              	.LVL79:
 1123              	.L88:
 196:Middlewares/lvgl/src/core/lv_event.c ****         if(&obj->spec_attr->event_dsc[i] == event_dsc) {
 1124              		.loc 1 196 51 discriminator 2 view .LVU347
 196:Middlewares/lvgl/src/core/lv_event.c ****         if(&obj->spec_attr->event_dsc[i] == event_dsc) {
 1125              		.loc 1 196 52 is_stmt 0 discriminator 2 view .LVU348
 1126 005a 0133     		adds	r3, r3, #1
 1127              	.LVL80:
 1128              	.L80:
 196:Middlewares/lvgl/src/core/lv_event.c ****         if(&obj->spec_attr->event_dsc[i] == event_dsc) {
 1129              		.loc 1 196 16 is_stmt 1 discriminator 1 view .LVU349
 196:Middlewares/lvgl/src/core/lv_event.c ****         if(&obj->spec_attr->event_dsc[i] == event_dsc) {
 1130              		.loc 1 196 34 is_stmt 0 discriminator 1 view .LVU350
 1131 005c A27E     		ldrb	r2, [r4, #26]	@ zero_extendqisi2
 196:Middlewares/lvgl/src/core/lv_event.c ****         if(&obj->spec_attr->event_dsc[i] == event_dsc) {
 1132              		.loc 1 196 5 discriminator 1 view .LVU351
 1133 005e 9A42     		cmp	r2, r3
 1134 0060 07DD     		ble	.L90
 197:Middlewares/lvgl/src/core/lv_event.c ****             /*Shift the remaining event handlers forward*/
 1135              		.loc 1 197 9 is_stmt 1 view .LVU352
 197:Middlewares/lvgl/src/core/lv_event.c ****             /*Shift the remaining event handlers forward*/
 1136              		.loc 1 197 27 is_stmt 0 view .LVU353
 1137 0062 E268     		ldr	r2, [r4, #12]
 197:Middlewares/lvgl/src/core/lv_event.c ****             /*Shift the remaining event handlers forward*/
 1138              		.loc 1 197 38 view .LVU354
 1139 0064 03EB4300 		add	r0, r3, r3, lsl #1
 197:Middlewares/lvgl/src/core/lv_event.c ****             /*Shift the remaining event handlers forward*/
 1140              		.loc 1 197 12 view .LVU355
 1141 0068 02EB8002 		add	r2, r2, r0, lsl #2
 197:Middlewares/lvgl/src/core/lv_event.c ****             /*Shift the remaining event handlers forward*/
 1142              		.loc 1 197 11 view .LVU356
 1143 006c 8A42     		cmp	r2, r1
 1144 006e F4D1     		bne	.L88
ARM GAS  /tmp/ccEwAEcV.s 			page 34


 1145 0070 DEE7     		b	.L81
 1146              	.L90:
 211:Middlewares/lvgl/src/core/lv_event.c **** }
 1147              		.loc 1 211 12 view .LVU357
 1148 0072 0020     		movs	r0, #0
 1149              	.LVL81:
 1150              	.L79:
 212:Middlewares/lvgl/src/core/lv_event.c **** 
 1151              		.loc 1 212 1 view .LVU358
 1152 0074 38BD     		pop	{r3, r4, r5, pc}
 1153              	.LVL82:
 1154              	.L86:
 193:Middlewares/lvgl/src/core/lv_event.c **** 
 1155              		.loc 1 193 39 view .LVU359
 1156 0076 0020     		movs	r0, #0
 1157              	.LVL83:
 193:Middlewares/lvgl/src/core/lv_event.c **** 
 1158              		.loc 1 193 39 view .LVU360
 1159 0078 FCE7     		b	.L79
 1160              		.cfi_endproc
 1161              	.LFE158:
 1163              		.section	.text.lv_event_get_indev,"ax",%progbits
 1164              		.align	1
 1165              		.global	lv_event_get_indev
 1166              		.syntax unified
 1167              		.thumb
 1168              		.thumb_func
 1170              	lv_event_get_indev:
 1171              	.LVL84:
 1172              	.LFB159:
 215:Middlewares/lvgl/src/core/lv_event.c **** 
 1173              		.loc 1 215 1 is_stmt 1 view -0
 1174              		.cfi_startproc
 1175              		@ args = 0, pretend = 0, frame = 0
 1176              		@ frame_needed = 0, uses_anonymous_args = 0
 215:Middlewares/lvgl/src/core/lv_event.c **** 
 1177              		.loc 1 215 1 is_stmt 0 view .LVU362
 1178 0000 08B5     		push	{r3, lr}
 1179              	.LCFI10:
 1180              		.cfi_def_cfa_offset 8
 1181              		.cfi_offset 3, -8
 1182              		.cfi_offset 14, -4
 217:Middlewares/lvgl/src/core/lv_event.c ****         e->code == LV_EVENT_PRESSING ||
 1183              		.loc 1 217 5 is_stmt 1 view .LVU363
 217:Middlewares/lvgl/src/core/lv_event.c ****         e->code == LV_EVENT_PRESSING ||
 1184              		.loc 1 217 9 is_stmt 0 view .LVU364
 1185 0002 037A     		ldrb	r3, [r0, #8]	@ zero_extendqisi2
 231:Middlewares/lvgl/src/core/lv_event.c ****         e->code == LV_EVENT_LEAVE)
 1186              		.loc 1 231 39 view .LVU365
 1187 0004 013B     		subs	r3, r3, #1
 1188 0006 DBB2     		uxtb	r3, r3
 217:Middlewares/lvgl/src/core/lv_event.c ****         e->code == LV_EVENT_PRESSING ||
 1189              		.loc 1 217 7 view .LVU366
 1190 0008 0F2B     		cmp	r3, #15
 1191 000a 02D8     		bhi	.L93
 234:Middlewares/lvgl/src/core/lv_event.c ****     } else {
 1192              		.loc 1 234 9 is_stmt 1 view .LVU367
ARM GAS  /tmp/ccEwAEcV.s 			page 35


 234:Middlewares/lvgl/src/core/lv_event.c ****     } else {
 1193              		.loc 1 234 16 is_stmt 0 view .LVU368
 1194 000c FFF7FEFF 		bl	lv_event_get_param
 1195              	.LVL85:
 1196              	.L91:
 239:Middlewares/lvgl/src/core/lv_event.c **** 
 1197              		.loc 1 239 1 view .LVU369
 1198 0010 08BD     		pop	{r3, pc}
 1199              	.LVL86:
 1200              	.L93:
 237:Middlewares/lvgl/src/core/lv_event.c ****     }
 1201              		.loc 1 237 16 view .LVU370
 1202 0012 0020     		movs	r0, #0
 1203              	.LVL87:
 237:Middlewares/lvgl/src/core/lv_event.c ****     }
 1204              		.loc 1 237 16 view .LVU371
 1205 0014 FCE7     		b	.L91
 1206              		.cfi_endproc
 1207              	.LFE159:
 1209              		.section	.text.lv_event_get_draw_part_dsc,"ax",%progbits
 1210              		.align	1
 1211              		.global	lv_event_get_draw_part_dsc
 1212              		.syntax unified
 1213              		.thumb
 1214              		.thumb_func
 1216              	lv_event_get_draw_part_dsc:
 1217              	.LVL88:
 1218              	.LFB160:
 242:Middlewares/lvgl/src/core/lv_event.c ****     if(e->code == LV_EVENT_DRAW_PART_BEGIN||
 1219              		.loc 1 242 1 is_stmt 1 view -0
 1220              		.cfi_startproc
 1221              		@ args = 0, pretend = 0, frame = 0
 1222              		@ frame_needed = 0, uses_anonymous_args = 0
 242:Middlewares/lvgl/src/core/lv_event.c ****     if(e->code == LV_EVENT_DRAW_PART_BEGIN||
 1223              		.loc 1 242 1 is_stmt 0 view .LVU373
 1224 0000 08B5     		push	{r3, lr}
 1225              	.LCFI11:
 1226              		.cfi_def_cfa_offset 8
 1227              		.cfi_offset 3, -8
 1228              		.cfi_offset 14, -4
 243:Middlewares/lvgl/src/core/lv_event.c ****         e->code == LV_EVENT_DRAW_PART_END)
 1229              		.loc 1 243 5 is_stmt 1 view .LVU374
 243:Middlewares/lvgl/src/core/lv_event.c ****         e->code == LV_EVENT_DRAW_PART_END)
 1230              		.loc 1 243 9 is_stmt 0 view .LVU375
 1231 0002 037A     		ldrb	r3, [r0, #8]	@ zero_extendqisi2
 243:Middlewares/lvgl/src/core/lv_event.c ****         e->code == LV_EVENT_DRAW_PART_END)
 1232              		.loc 1 243 43 view .LVU376
 1233 0004 1A3B     		subs	r3, r3, #26
 1234 0006 DBB2     		uxtb	r3, r3
 243:Middlewares/lvgl/src/core/lv_event.c ****         e->code == LV_EVENT_DRAW_PART_END)
 1235              		.loc 1 243 7 view .LVU377
 1236 0008 012B     		cmp	r3, #1
 1237 000a 02D8     		bhi	.L97
 246:Middlewares/lvgl/src/core/lv_event.c ****     } else {
 1238              		.loc 1 246 9 is_stmt 1 view .LVU378
 246:Middlewares/lvgl/src/core/lv_event.c ****     } else {
 1239              		.loc 1 246 16 is_stmt 0 view .LVU379
ARM GAS  /tmp/ccEwAEcV.s 			page 36


 1240 000c FFF7FEFF 		bl	lv_event_get_param
 1241              	.LVL89:
 1242              	.L95:
 251:Middlewares/lvgl/src/core/lv_event.c **** 
 1243              		.loc 1 251 1 view .LVU380
 1244 0010 08BD     		pop	{r3, pc}
 1245              	.LVL90:
 1246              	.L97:
 249:Middlewares/lvgl/src/core/lv_event.c ****     }
 1247              		.loc 1 249 16 view .LVU381
 1248 0012 0020     		movs	r0, #0
 1249              	.LVL91:
 249:Middlewares/lvgl/src/core/lv_event.c ****     }
 1250              		.loc 1 249 16 view .LVU382
 1251 0014 FCE7     		b	.L95
 1252              		.cfi_endproc
 1253              	.LFE160:
 1255              		.section	.text.lv_event_get_clip_area,"ax",%progbits
 1256              		.align	1
 1257              		.global	lv_event_get_clip_area
 1258              		.syntax unified
 1259              		.thumb
 1260              		.thumb_func
 1262              	lv_event_get_clip_area:
 1263              	.LVL92:
 1264              	.LFB161:
 254:Middlewares/lvgl/src/core/lv_event.c ****     if(e->code == LV_EVENT_DRAW_MAIN ||
 1265              		.loc 1 254 1 is_stmt 1 view -0
 1266              		.cfi_startproc
 1267              		@ args = 0, pretend = 0, frame = 0
 1268              		@ frame_needed = 0, uses_anonymous_args = 0
 254:Middlewares/lvgl/src/core/lv_event.c ****     if(e->code == LV_EVENT_DRAW_MAIN ||
 1269              		.loc 1 254 1 is_stmt 0 view .LVU384
 1270 0000 08B5     		push	{r3, lr}
 1271              	.LCFI12:
 1272              		.cfi_def_cfa_offset 8
 1273              		.cfi_offset 3, -8
 1274              		.cfi_offset 14, -4
 255:Middlewares/lvgl/src/core/lv_event.c ****         e->code == LV_EVENT_DRAW_MAIN_BEGIN ||
 1275              		.loc 1 255 5 is_stmt 1 view .LVU385
 255:Middlewares/lvgl/src/core/lv_event.c ****         e->code == LV_EVENT_DRAW_MAIN_BEGIN ||
 1276              		.loc 1 255 9 is_stmt 0 view .LVU386
 1277 0002 027A     		ldrb	r2, [r0, #8]	@ zero_extendqisi2
 256:Middlewares/lvgl/src/core/lv_event.c ****         e->code == LV_EVENT_DRAW_MAIN_END ||
 1278              		.loc 1 256 45 view .LVU387
 1279 0004 A2F11403 		sub	r3, r2, #20
 1280 0008 DBB2     		uxtb	r3, r3
 255:Middlewares/lvgl/src/core/lv_event.c ****         e->code == LV_EVENT_DRAW_MAIN_BEGIN ||
 1281              		.loc 1 255 7 view .LVU388
 1282 000a 022B     		cmp	r3, #2
 1283 000c 05D9     		bls	.L100
 257:Middlewares/lvgl/src/core/lv_event.c ****         e->code == LV_EVENT_DRAW_POST ||
 1284              		.loc 1 257 43 view .LVU389
 1285 000e 182A     		cmp	r2, #24
 1286 0010 03D0     		beq	.L100
 258:Middlewares/lvgl/src/core/lv_event.c ****         e->code == LV_EVENT_DRAW_POST_BEGIN ||
 1287              		.loc 1 258 39 view .LVU390
ARM GAS  /tmp/ccEwAEcV.s 			page 37


 1288 0012 172A     		cmp	r2, #23
 1289 0014 01D0     		beq	.L100
 259:Middlewares/lvgl/src/core/lv_event.c ****         e->code == LV_EVENT_DRAW_POST_END)
 1290              		.loc 1 259 45 view .LVU391
 1291 0016 192A     		cmp	r2, #25
 1292 0018 02D1     		bne	.L102
 1293              	.L100:
 262:Middlewares/lvgl/src/core/lv_event.c ****     } else {
 1294              		.loc 1 262 9 is_stmt 1 view .LVU392
 262:Middlewares/lvgl/src/core/lv_event.c ****     } else {
 1295              		.loc 1 262 16 is_stmt 0 view .LVU393
 1296 001a FFF7FEFF 		bl	lv_event_get_param
 1297              	.LVL93:
 1298              	.L99:
 267:Middlewares/lvgl/src/core/lv_event.c **** 
 1299              		.loc 1 267 1 view .LVU394
 1300 001e 08BD     		pop	{r3, pc}
 1301              	.LVL94:
 1302              	.L102:
 265:Middlewares/lvgl/src/core/lv_event.c ****     }
 1303              		.loc 1 265 16 view .LVU395
 1304 0020 0020     		movs	r0, #0
 1305              	.LVL95:
 265:Middlewares/lvgl/src/core/lv_event.c ****     }
 1306              		.loc 1 265 16 view .LVU396
 1307 0022 FCE7     		b	.L99
 1308              		.cfi_endproc
 1309              	.LFE161:
 1311              		.section	.text.lv_event_get_old_size,"ax",%progbits
 1312              		.align	1
 1313              		.global	lv_event_get_old_size
 1314              		.syntax unified
 1315              		.thumb
 1316              		.thumb_func
 1318              	lv_event_get_old_size:
 1319              	.LVL96:
 1320              	.LFB162:
 270:Middlewares/lvgl/src/core/lv_event.c ****     if(e->code == LV_EVENT_SIZE_CHANGED) {
 1321              		.loc 1 270 1 is_stmt 1 view -0
 1322              		.cfi_startproc
 1323              		@ args = 0, pretend = 0, frame = 0
 1324              		@ frame_needed = 0, uses_anonymous_args = 0
 270:Middlewares/lvgl/src/core/lv_event.c ****     if(e->code == LV_EVENT_SIZE_CHANGED) {
 1325              		.loc 1 270 1 is_stmt 0 view .LVU398
 1326 0000 08B5     		push	{r3, lr}
 1327              	.LCFI13:
 1328              		.cfi_def_cfa_offset 8
 1329              		.cfi_offset 3, -8
 1330              		.cfi_offset 14, -4
 271:Middlewares/lvgl/src/core/lv_event.c ****         return lv_event_get_param(e);
 1331              		.loc 1 271 5 is_stmt 1 view .LVU399
 271:Middlewares/lvgl/src/core/lv_event.c ****         return lv_event_get_param(e);
 1332              		.loc 1 271 9 is_stmt 0 view .LVU400
 1333 0002 037A     		ldrb	r3, [r0, #8]	@ zero_extendqisi2
 271:Middlewares/lvgl/src/core/lv_event.c ****         return lv_event_get_param(e);
 1334              		.loc 1 271 7 view .LVU401
 1335 0004 232B     		cmp	r3, #35
ARM GAS  /tmp/ccEwAEcV.s 			page 38


 1336 0006 02D1     		bne	.L106
 272:Middlewares/lvgl/src/core/lv_event.c ****     } else {
 1337              		.loc 1 272 9 is_stmt 1 view .LVU402
 272:Middlewares/lvgl/src/core/lv_event.c ****     } else {
 1338              		.loc 1 272 16 is_stmt 0 view .LVU403
 1339 0008 FFF7FEFF 		bl	lv_event_get_param
 1340              	.LVL97:
 1341              	.L104:
 277:Middlewares/lvgl/src/core/lv_event.c **** 
 1342              		.loc 1 277 1 view .LVU404
 1343 000c 08BD     		pop	{r3, pc}
 1344              	.LVL98:
 1345              	.L106:
 275:Middlewares/lvgl/src/core/lv_event.c ****     }
 1346              		.loc 1 275 16 view .LVU405
 1347 000e 0020     		movs	r0, #0
 1348              	.LVL99:
 275:Middlewares/lvgl/src/core/lv_event.c ****     }
 1349              		.loc 1 275 16 view .LVU406
 1350 0010 FCE7     		b	.L104
 1351              		.cfi_endproc
 1352              	.LFE162:
 1354              		.section	.text.lv_event_get_key,"ax",%progbits
 1355              		.align	1
 1356              		.global	lv_event_get_key
 1357              		.syntax unified
 1358              		.thumb
 1359              		.thumb_func
 1361              	lv_event_get_key:
 1362              	.LVL100:
 1363              	.LFB163:
 280:Middlewares/lvgl/src/core/lv_event.c ****     if(e->code == LV_EVENT_KEY) {
 1364              		.loc 1 280 1 is_stmt 1 view -0
 1365              		.cfi_startproc
 1366              		@ args = 0, pretend = 0, frame = 0
 1367              		@ frame_needed = 0, uses_anonymous_args = 0
 280:Middlewares/lvgl/src/core/lv_event.c ****     if(e->code == LV_EVENT_KEY) {
 1368              		.loc 1 280 1 is_stmt 0 view .LVU408
 1369 0000 08B5     		push	{r3, lr}
 1370              	.LCFI14:
 1371              		.cfi_def_cfa_offset 8
 1372              		.cfi_offset 3, -8
 1373              		.cfi_offset 14, -4
 281:Middlewares/lvgl/src/core/lv_event.c ****         uint32_t * k = lv_event_get_param(e);
 1374              		.loc 1 281 5 is_stmt 1 view .LVU409
 281:Middlewares/lvgl/src/core/lv_event.c ****         uint32_t * k = lv_event_get_param(e);
 1375              		.loc 1 281 9 is_stmt 0 view .LVU410
 1376 0002 037A     		ldrb	r3, [r0, #8]	@ zero_extendqisi2
 281:Middlewares/lvgl/src/core/lv_event.c ****         uint32_t * k = lv_event_get_param(e);
 1377              		.loc 1 281 7 view .LVU411
 1378 0004 0D2B     		cmp	r3, #13
 1379 0006 04D1     		bne	.L110
 1380              	.LBB2:
 282:Middlewares/lvgl/src/core/lv_event.c ****         if(k) return *k;
 1381              		.loc 1 282 9 is_stmt 1 view .LVU412
 282:Middlewares/lvgl/src/core/lv_event.c ****         if(k) return *k;
 1382              		.loc 1 282 24 is_stmt 0 view .LVU413
ARM GAS  /tmp/ccEwAEcV.s 			page 39


 1383 0008 FFF7FEFF 		bl	lv_event_get_param
 1384              	.LVL101:
 283:Middlewares/lvgl/src/core/lv_event.c ****         else return 0;
 1385              		.loc 1 283 9 is_stmt 1 view .LVU414
 283:Middlewares/lvgl/src/core/lv_event.c ****         else return 0;
 1386              		.loc 1 283 11 is_stmt 0 view .LVU415
 1387 000c 18B1     		cbz	r0, .L111
 283:Middlewares/lvgl/src/core/lv_event.c ****         else return 0;
 1388              		.loc 1 283 15 is_stmt 1 discriminator 1 view .LVU416
 283:Middlewares/lvgl/src/core/lv_event.c ****         else return 0;
 1389              		.loc 1 283 22 is_stmt 0 discriminator 1 view .LVU417
 1390 000e 0068     		ldr	r0, [r0]
 1391              	.LVL102:
 283:Middlewares/lvgl/src/core/lv_event.c ****         else return 0;
 1392              		.loc 1 283 22 discriminator 1 view .LVU418
 1393 0010 00E0     		b	.L108
 1394              	.LVL103:
 1395              	.L110:
 283:Middlewares/lvgl/src/core/lv_event.c ****         else return 0;
 1396              		.loc 1 283 22 discriminator 1 view .LVU419
 1397              	.LBE2:
 287:Middlewares/lvgl/src/core/lv_event.c ****     }
 1398              		.loc 1 287 16 view .LVU420
 1399 0012 0020     		movs	r0, #0
 1400              	.LVL104:
 1401              	.L108:
 289:Middlewares/lvgl/src/core/lv_event.c **** 
 1402              		.loc 1 289 1 view .LVU421
 1403 0014 08BD     		pop	{r3, pc}
 1404              	.LVL105:
 1405              	.L111:
 1406              	.LBB3:
 284:Middlewares/lvgl/src/core/lv_event.c ****     } else {
 1407              		.loc 1 284 21 view .LVU422
 1408 0016 0020     		movs	r0, #0
 1409              	.LVL106:
 284:Middlewares/lvgl/src/core/lv_event.c ****     } else {
 1410              		.loc 1 284 21 view .LVU423
 1411 0018 FCE7     		b	.L108
 1412              	.LBE3:
 1413              		.cfi_endproc
 1414              	.LFE163:
 1416              		.section	.text.lv_event_get_scroll_anim,"ax",%progbits
 1417              		.align	1
 1418              		.global	lv_event_get_scroll_anim
 1419              		.syntax unified
 1420              		.thumb
 1421              		.thumb_func
 1423              	lv_event_get_scroll_anim:
 1424              	.LVL107:
 1425              	.LFB164:
 292:Middlewares/lvgl/src/core/lv_event.c ****     if(e->code == LV_EVENT_SCROLL_BEGIN) {
 1426              		.loc 1 292 1 is_stmt 1 view -0
 1427              		.cfi_startproc
 1428              		@ args = 0, pretend = 0, frame = 0
 1429              		@ frame_needed = 0, uses_anonymous_args = 0
 292:Middlewares/lvgl/src/core/lv_event.c ****     if(e->code == LV_EVENT_SCROLL_BEGIN) {
ARM GAS  /tmp/ccEwAEcV.s 			page 40


 1430              		.loc 1 292 1 is_stmt 0 view .LVU425
 1431 0000 08B5     		push	{r3, lr}
 1432              	.LCFI15:
 1433              		.cfi_def_cfa_offset 8
 1434              		.cfi_offset 3, -8
 1435              		.cfi_offset 14, -4
 293:Middlewares/lvgl/src/core/lv_event.c ****         return lv_event_get_param(e);
 1436              		.loc 1 293 5 is_stmt 1 view .LVU426
 293:Middlewares/lvgl/src/core/lv_event.c ****         return lv_event_get_param(e);
 1437              		.loc 1 293 9 is_stmt 0 view .LVU427
 1438 0002 037A     		ldrb	r3, [r0, #8]	@ zero_extendqisi2
 293:Middlewares/lvgl/src/core/lv_event.c ****         return lv_event_get_param(e);
 1439              		.loc 1 293 7 view .LVU428
 1440 0004 092B     		cmp	r3, #9
 1441 0006 02D1     		bne	.L115
 294:Middlewares/lvgl/src/core/lv_event.c ****     } else {
 1442              		.loc 1 294 9 is_stmt 1 view .LVU429
 294:Middlewares/lvgl/src/core/lv_event.c ****     } else {
 1443              		.loc 1 294 16 is_stmt 0 view .LVU430
 1444 0008 FFF7FEFF 		bl	lv_event_get_param
 1445              	.LVL108:
 1446              	.L113:
 299:Middlewares/lvgl/src/core/lv_event.c **** 
 1447              		.loc 1 299 1 view .LVU431
 1448 000c 08BD     		pop	{r3, pc}
 1449              	.LVL109:
 1450              	.L115:
 297:Middlewares/lvgl/src/core/lv_event.c ****     }
 1451              		.loc 1 297 16 view .LVU432
 1452 000e 0020     		movs	r0, #0
 1453              	.LVL110:
 297:Middlewares/lvgl/src/core/lv_event.c ****     }
 1454              		.loc 1 297 16 view .LVU433
 1455 0010 FCE7     		b	.L113
 1456              		.cfi_endproc
 1457              	.LFE164:
 1459              		.section	.text.lv_event_set_ext_draw_size,"ax",%progbits
 1460              		.align	1
 1461              		.global	lv_event_set_ext_draw_size
 1462              		.syntax unified
 1463              		.thumb
 1464              		.thumb_func
 1466              	lv_event_set_ext_draw_size:
 1467              	.LVL111:
 1468              	.LFB165:
 302:Middlewares/lvgl/src/core/lv_event.c ****     if(e->code == LV_EVENT_REFR_EXT_DRAW_SIZE) {
 1469              		.loc 1 302 1 is_stmt 1 view -0
 1470              		.cfi_startproc
 1471              		@ args = 0, pretend = 0, frame = 0
 1472              		@ frame_needed = 0, uses_anonymous_args = 0
 303:Middlewares/lvgl/src/core/lv_event.c ****         lv_coord_t * cur_size = lv_event_get_param(e);
 1473              		.loc 1 303 5 view .LVU435
 303:Middlewares/lvgl/src/core/lv_event.c ****         lv_coord_t * cur_size = lv_event_get_param(e);
 1474              		.loc 1 303 9 is_stmt 0 view .LVU436
 1475 0000 037A     		ldrb	r3, [r0, #8]	@ zero_extendqisi2
 303:Middlewares/lvgl/src/core/lv_event.c ****         lv_coord_t * cur_size = lv_event_get_param(e);
 1476              		.loc 1 303 7 view .LVU437
ARM GAS  /tmp/ccEwAEcV.s 			page 41


 1477 0002 132B     		cmp	r3, #19
 1478 0004 00D0     		beq	.L123
 1479 0006 7047     		bx	lr
 1480              	.L123:
 302:Middlewares/lvgl/src/core/lv_event.c ****     if(e->code == LV_EVENT_REFR_EXT_DRAW_SIZE) {
 1481              		.loc 1 302 1 view .LVU438
 1482 0008 10B5     		push	{r4, lr}
 1483              	.LCFI16:
 1484              		.cfi_def_cfa_offset 8
 1485              		.cfi_offset 4, -8
 1486              		.cfi_offset 14, -4
 1487 000a 0C46     		mov	r4, r1
 1488              	.LBB4:
 304:Middlewares/lvgl/src/core/lv_event.c ****         *cur_size = LV_MAX(*cur_size, size);
 1489              		.loc 1 304 9 is_stmt 1 view .LVU439
 304:Middlewares/lvgl/src/core/lv_event.c ****         *cur_size = LV_MAX(*cur_size, size);
 1490              		.loc 1 304 33 is_stmt 0 view .LVU440
 1491 000c FFF7FEFF 		bl	lv_event_get_param
 1492              	.LVL112:
 305:Middlewares/lvgl/src/core/lv_event.c ****     } else {
 1493              		.loc 1 305 9 is_stmt 1 view .LVU441
 305:Middlewares/lvgl/src/core/lv_event.c ****     } else {
 1494              		.loc 1 305 21 is_stmt 0 view .LVU442
 1495 0010 B0F90010 		ldrsh	r1, [r0]
 1496 0014 A142     		cmp	r1, r4
 1497 0016 B8BF     		it	lt
 1498 0018 2146     		movlt	r1, r4
 305:Middlewares/lvgl/src/core/lv_event.c ****     } else {
 1499              		.loc 1 305 19 view .LVU443
 1500 001a 0180     		strh	r1, [r0]	@ movhi
 1501              	.LBE4:
 307:Middlewares/lvgl/src/core/lv_event.c ****     }
 1502              		.loc 1 307 60 is_stmt 1 view .LVU444
 309:Middlewares/lvgl/src/core/lv_event.c **** 
 1503              		.loc 1 309 1 is_stmt 0 view .LVU445
 1504 001c 10BD     		pop	{r4, pc}
 1505              		.cfi_endproc
 1506              	.LFE165:
 1508              		.section	.text.lv_event_get_self_size_info,"ax",%progbits
 1509              		.align	1
 1510              		.global	lv_event_get_self_size_info
 1511              		.syntax unified
 1512              		.thumb
 1513              		.thumb_func
 1515              	lv_event_get_self_size_info:
 1516              	.LVL113:
 1517              	.LFB166:
 312:Middlewares/lvgl/src/core/lv_event.c ****     if(e->code == LV_EVENT_GET_SELF_SIZE) {
 1518              		.loc 1 312 1 is_stmt 1 view -0
 1519              		.cfi_startproc
 1520              		@ args = 0, pretend = 0, frame = 0
 1521              		@ frame_needed = 0, uses_anonymous_args = 0
 312:Middlewares/lvgl/src/core/lv_event.c ****     if(e->code == LV_EVENT_GET_SELF_SIZE) {
 1522              		.loc 1 312 1 is_stmt 0 view .LVU447
 1523 0000 08B5     		push	{r3, lr}
 1524              	.LCFI17:
 1525              		.cfi_def_cfa_offset 8
ARM GAS  /tmp/ccEwAEcV.s 			page 42


 1526              		.cfi_offset 3, -8
 1527              		.cfi_offset 14, -4
 313:Middlewares/lvgl/src/core/lv_event.c ****         return lv_event_get_param(e);
 1528              		.loc 1 313 5 is_stmt 1 view .LVU448
 313:Middlewares/lvgl/src/core/lv_event.c ****         return lv_event_get_param(e);
 1529              		.loc 1 313 9 is_stmt 0 view .LVU449
 1530 0002 037A     		ldrb	r3, [r0, #8]	@ zero_extendqisi2
 313:Middlewares/lvgl/src/core/lv_event.c ****         return lv_event_get_param(e);
 1531              		.loc 1 313 7 view .LVU450
 1532 0004 262B     		cmp	r3, #38
 1533 0006 02D1     		bne	.L126
 314:Middlewares/lvgl/src/core/lv_event.c ****     } else {
 1534              		.loc 1 314 9 is_stmt 1 view .LVU451
 314:Middlewares/lvgl/src/core/lv_event.c ****     } else {
 1535              		.loc 1 314 16 is_stmt 0 view .LVU452
 1536 0008 FFF7FEFF 		bl	lv_event_get_param
 1537              	.LVL114:
 1538              	.L124:
 319:Middlewares/lvgl/src/core/lv_event.c **** 
 1539              		.loc 1 319 1 view .LVU453
 1540 000c 08BD     		pop	{r3, pc}
 1541              	.LVL115:
 1542              	.L126:
 317:Middlewares/lvgl/src/core/lv_event.c ****     }
 1543              		.loc 1 317 16 view .LVU454
 1544 000e 0020     		movs	r0, #0
 1545              	.LVL116:
 317:Middlewares/lvgl/src/core/lv_event.c ****     }
 1546              		.loc 1 317 16 view .LVU455
 1547 0010 FCE7     		b	.L124
 1548              		.cfi_endproc
 1549              	.LFE166:
 1551              		.section	.text.lv_event_get_hit_test_info,"ax",%progbits
 1552              		.align	1
 1553              		.global	lv_event_get_hit_test_info
 1554              		.syntax unified
 1555              		.thumb
 1556              		.thumb_func
 1558              	lv_event_get_hit_test_info:
 1559              	.LVL117:
 1560              	.LFB167:
 322:Middlewares/lvgl/src/core/lv_event.c ****     if(e->code == LV_EVENT_HIT_TEST) {
 1561              		.loc 1 322 1 is_stmt 1 view -0
 1562              		.cfi_startproc
 1563              		@ args = 0, pretend = 0, frame = 0
 1564              		@ frame_needed = 0, uses_anonymous_args = 0
 322:Middlewares/lvgl/src/core/lv_event.c ****     if(e->code == LV_EVENT_HIT_TEST) {
 1565              		.loc 1 322 1 is_stmt 0 view .LVU457
 1566 0000 08B5     		push	{r3, lr}
 1567              	.LCFI18:
 1568              		.cfi_def_cfa_offset 8
 1569              		.cfi_offset 3, -8
 1570              		.cfi_offset 14, -4
 323:Middlewares/lvgl/src/core/lv_event.c ****         return lv_event_get_param(e);
 1571              		.loc 1 323 5 is_stmt 1 view .LVU458
 323:Middlewares/lvgl/src/core/lv_event.c ****         return lv_event_get_param(e);
 1572              		.loc 1 323 9 is_stmt 0 view .LVU459
ARM GAS  /tmp/ccEwAEcV.s 			page 43


 1573 0002 037A     		ldrb	r3, [r0, #8]	@ zero_extendqisi2
 323:Middlewares/lvgl/src/core/lv_event.c ****         return lv_event_get_param(e);
 1574              		.loc 1 323 7 view .LVU460
 1575 0004 112B     		cmp	r3, #17
 1576 0006 02D1     		bne	.L130
 324:Middlewares/lvgl/src/core/lv_event.c ****     } else {
 1577              		.loc 1 324 9 is_stmt 1 view .LVU461
 324:Middlewares/lvgl/src/core/lv_event.c ****     } else {
 1578              		.loc 1 324 16 is_stmt 0 view .LVU462
 1579 0008 FFF7FEFF 		bl	lv_event_get_param
 1580              	.LVL118:
 1581              	.L128:
 329:Middlewares/lvgl/src/core/lv_event.c **** 
 1582              		.loc 1 329 1 view .LVU463
 1583 000c 08BD     		pop	{r3, pc}
 1584              	.LVL119:
 1585              	.L130:
 327:Middlewares/lvgl/src/core/lv_event.c ****     }
 1586              		.loc 1 327 16 view .LVU464
 1587 000e 0020     		movs	r0, #0
 1588              	.LVL120:
 327:Middlewares/lvgl/src/core/lv_event.c ****     }
 1589              		.loc 1 327 16 view .LVU465
 1590 0010 FCE7     		b	.L128
 1591              		.cfi_endproc
 1592              	.LFE167:
 1594              		.section	.text.lv_event_get_cover_area,"ax",%progbits
 1595              		.align	1
 1596              		.global	lv_event_get_cover_area
 1597              		.syntax unified
 1598              		.thumb
 1599              		.thumb_func
 1601              	lv_event_get_cover_area:
 1602              	.LVL121:
 1603              	.LFB168:
 332:Middlewares/lvgl/src/core/lv_event.c ****     if(e->code == LV_EVENT_COVER_CHECK) {
 1604              		.loc 1 332 1 is_stmt 1 view -0
 1605              		.cfi_startproc
 1606              		@ args = 0, pretend = 0, frame = 0
 1607              		@ frame_needed = 0, uses_anonymous_args = 0
 332:Middlewares/lvgl/src/core/lv_event.c ****     if(e->code == LV_EVENT_COVER_CHECK) {
 1608              		.loc 1 332 1 is_stmt 0 view .LVU467
 1609 0000 08B5     		push	{r3, lr}
 1610              	.LCFI19:
 1611              		.cfi_def_cfa_offset 8
 1612              		.cfi_offset 3, -8
 1613              		.cfi_offset 14, -4
 333:Middlewares/lvgl/src/core/lv_event.c ****         lv_cover_check_info_t * p = lv_event_get_param(e);
 1614              		.loc 1 333 5 is_stmt 1 view .LVU468
 333:Middlewares/lvgl/src/core/lv_event.c ****         lv_cover_check_info_t * p = lv_event_get_param(e);
 1615              		.loc 1 333 9 is_stmt 0 view .LVU469
 1616 0002 037A     		ldrb	r3, [r0, #8]	@ zero_extendqisi2
 333:Middlewares/lvgl/src/core/lv_event.c ****         lv_cover_check_info_t * p = lv_event_get_param(e);
 1617              		.loc 1 333 7 view .LVU470
 1618 0004 122B     		cmp	r3, #18
 1619 0006 03D1     		bne	.L134
 1620              	.LBB5:
ARM GAS  /tmp/ccEwAEcV.s 			page 44


 334:Middlewares/lvgl/src/core/lv_event.c ****         return p->area;
 1621              		.loc 1 334 9 is_stmt 1 view .LVU471
 334:Middlewares/lvgl/src/core/lv_event.c ****         return p->area;
 1622              		.loc 1 334 37 is_stmt 0 view .LVU472
 1623 0008 FFF7FEFF 		bl	lv_event_get_param
 1624              	.LVL122:
 335:Middlewares/lvgl/src/core/lv_event.c ****     } else {
 1625              		.loc 1 335 9 is_stmt 1 view .LVU473
 335:Middlewares/lvgl/src/core/lv_event.c ****     } else {
 1626              		.loc 1 335 17 is_stmt 0 view .LVU474
 1627 000c 4068     		ldr	r0, [r0, #4]
 1628              	.LVL123:
 1629              	.L132:
 335:Middlewares/lvgl/src/core/lv_event.c ****     } else {
 1630              		.loc 1 335 17 view .LVU475
 1631              	.LBE5:
 340:Middlewares/lvgl/src/core/lv_event.c **** 
 1632              		.loc 1 340 1 view .LVU476
 1633 000e 08BD     		pop	{r3, pc}
 1634              	.LVL124:
 1635              	.L134:
 338:Middlewares/lvgl/src/core/lv_event.c ****     }
 1636              		.loc 1 338 16 view .LVU477
 1637 0010 0020     		movs	r0, #0
 1638              	.LVL125:
 338:Middlewares/lvgl/src/core/lv_event.c ****     }
 1639              		.loc 1 338 16 view .LVU478
 1640 0012 FCE7     		b	.L132
 1641              		.cfi_endproc
 1642              	.LFE168:
 1644              		.section	.text.lv_event_set_cover_res,"ax",%progbits
 1645              		.align	1
 1646              		.global	lv_event_set_cover_res
 1647              		.syntax unified
 1648              		.thumb
 1649              		.thumb_func
 1651              	lv_event_set_cover_res:
 1652              	.LVL126:
 1653              	.LFB169:
 343:Middlewares/lvgl/src/core/lv_event.c ****     if(e->code == LV_EVENT_COVER_CHECK) {
 1654              		.loc 1 343 1 is_stmt 1 view -0
 1655              		.cfi_startproc
 1656              		@ args = 0, pretend = 0, frame = 0
 1657              		@ frame_needed = 0, uses_anonymous_args = 0
 344:Middlewares/lvgl/src/core/lv_event.c ****         lv_cover_check_info_t * p = lv_event_get_param(e);
 1658              		.loc 1 344 5 view .LVU480
 344:Middlewares/lvgl/src/core/lv_event.c ****         lv_cover_check_info_t * p = lv_event_get_param(e);
 1659              		.loc 1 344 9 is_stmt 0 view .LVU481
 1660 0000 037A     		ldrb	r3, [r0, #8]	@ zero_extendqisi2
 344:Middlewares/lvgl/src/core/lv_event.c ****         lv_cover_check_info_t * p = lv_event_get_param(e);
 1661              		.loc 1 344 7 view .LVU482
 1662 0002 122B     		cmp	r3, #18
 1663 0004 00D0     		beq	.L142
 1664 0006 7047     		bx	lr
 1665              	.L142:
 343:Middlewares/lvgl/src/core/lv_event.c ****     if(e->code == LV_EVENT_COVER_CHECK) {
 1666              		.loc 1 343 1 view .LVU483
ARM GAS  /tmp/ccEwAEcV.s 			page 45


 1667 0008 10B5     		push	{r4, lr}
 1668              	.LCFI20:
 1669              		.cfi_def_cfa_offset 8
 1670              		.cfi_offset 4, -8
 1671              		.cfi_offset 14, -4
 1672 000a 0C46     		mov	r4, r1
 1673              	.LBB6:
 345:Middlewares/lvgl/src/core/lv_event.c ****         if(res > p->res) p->res = res;  /*Save only "stronger" results*/
 1674              		.loc 1 345 9 is_stmt 1 view .LVU484
 345:Middlewares/lvgl/src/core/lv_event.c ****         if(res > p->res) p->res = res;  /*Save only "stronger" results*/
 1675              		.loc 1 345 37 is_stmt 0 view .LVU485
 1676 000c FFF7FEFF 		bl	lv_event_get_param
 1677              	.LVL127:
 346:Middlewares/lvgl/src/core/lv_event.c ****     } else {
 1678              		.loc 1 346 9 is_stmt 1 view .LVU486
 346:Middlewares/lvgl/src/core/lv_event.c ****     } else {
 1679              		.loc 1 346 19 is_stmt 0 view .LVU487
 1680 0010 0378     		ldrb	r3, [r0]	@ zero_extendqisi2
 346:Middlewares/lvgl/src/core/lv_event.c ****     } else {
 1681              		.loc 1 346 11 view .LVU488
 1682 0012 A342     		cmp	r3, r4
 1683 0014 00D2     		bcs	.L136
 346:Middlewares/lvgl/src/core/lv_event.c ****     } else {
 1684              		.loc 1 346 26 is_stmt 1 discriminator 1 view .LVU489
 346:Middlewares/lvgl/src/core/lv_event.c ****     } else {
 1685              		.loc 1 346 33 is_stmt 0 discriminator 1 view .LVU490
 1686 0016 0470     		strb	r4, [r0]
 1687              	.LBE6:
 348:Middlewares/lvgl/src/core/lv_event.c ****     }
 1688              		.loc 1 348 60 is_stmt 1 discriminator 1 view .LVU491
 1689              	.L136:
 350:Middlewares/lvgl/src/core/lv_event.c **** 
 1690              		.loc 1 350 1 is_stmt 0 view .LVU492
 1691 0018 10BD     		pop	{r4, pc}
 1692              		.cfi_endproc
 1693              	.LFE169:
 1695              		.section	.bss.event_head,"aw",%nobits
 1696              		.align	2
 1697              		.set	.LANCHOR0,. + 0
 1700              	event_head:
 1701 0000 00000000 		.space	4
 1702              		.section	.data.last_id.0,"aw"
 1703              		.align	2
 1704              		.set	.LANCHOR1,. + 0
 1707              	last_id.0:
 1708 0000 27000000 		.word	39
 1709              		.text
 1710              	.Letext0:
 1711              		.file 2 "/home/akinya/gcc-arm-none-eabi/arm-none-eabi/include/machine/_default_types.h"
 1712              		.file 3 "/home/akinya/gcc-arm-none-eabi/arm-none-eabi/include/sys/_stdint.h"
 1713              		.file 4 "Middlewares/lvgl/src/core/../misc/../font/../misc/lv_area.h"
 1714              		.file 5 "Middlewares/lvgl/src/core/../misc/../font/lv_font.h"
 1715              		.file 6 "Middlewares/lvgl/src/core/../misc/lv_types.h"
 1716              		.file 7 "Middlewares/lvgl/src/core/../misc/lv_color.h"
 1717              		.file 8 "Middlewares/lvgl/src/core/../misc/lv_anim.h"
 1718              		.file 9 "Middlewares/lvgl/src/core/../misc/lv_txt.h"
 1719              		.file 10 "Middlewares/lvgl/src/core/../misc/lv_bidi.h"
ARM GAS  /tmp/ccEwAEcV.s 			page 46


 1720              		.file 11 "Middlewares/lvgl/src/core/../misc/lv_style.h"
 1721              		.file 12 "Middlewares/lvgl/src/core/../hal/../misc/lv_ll.h"
 1722              		.file 13 "Middlewares/lvgl/src/core/../hal/../misc/lv_timer.h"
 1723              		.file 14 "Middlewares/lvgl/src/core/../hal/lv_hal_disp.h"
 1724              		.file 15 "Middlewares/lvgl/src/core/lv_obj.h"
 1725              		.file 16 "Middlewares/lvgl/src/core/../hal/lv_hal_indev.h"
 1726              		.file 17 "Middlewares/lvgl/src/core/lv_group.h"
 1727              		.file 18 "Middlewares/lvgl/src/core/lv_obj_scroll.h"
 1728              		.file 19 "Middlewares/lvgl/src/core/lv_obj_style.h"
 1729              		.file 20 "Middlewares/lvgl/src/core/../draw/lv_draw_rect.h"
 1730              		.file 21 "Middlewares/lvgl/src/core/../draw/lv_draw_label.h"
 1731              		.file 22 "Middlewares/lvgl/src/core/../draw/lv_draw_img.h"
 1732              		.file 23 "Middlewares/lvgl/src/core/../draw/lv_draw_line.h"
 1733              		.file 24 "Middlewares/lvgl/src/core/../draw/lv_draw_arc.h"
 1734              		.file 25 "Middlewares/lvgl/src/core/lv_obj_draw.h"
 1735              		.file 26 "Middlewares/lvgl/src/core/lv_obj_class.h"
 1736              		.file 27 "Middlewares/lvgl/src/core/lv_event.h"
 1737              		.file 28 "Middlewares/lvgl/src/core/lv_indev.h"
 1738              		.file 29 "Middlewares/lvgl/src/core/../hal/../misc/lv_mem.h"
ARM GAS  /tmp/ccEwAEcV.s 			page 47

