ARM GAS  /tmp/ccmgRVpn.s 			page 1


   1              		.cpu cortex-m4
   2              		.arch armv7e-m
   3              		.fpu fpv4-sp-d16
   4              		.eabi_attribute 27, 1
   5              		.eabi_attribute 28, 1
   6              		.eabi_attribute 20, 1
   7              		.eabi_attribute 21, 1
   8              		.eabi_attribute 23, 3
   9              		.eabi_attribute 24, 1
  10              		.eabi_attribute 25, 1
  11              		.eabi_attribute 26, 1
  12              		.eabi_attribute 30, 1
  13              		.eabi_attribute 34, 1
  14              		.eabi_attribute 18, 4
  15              		.file	"lv_obj_pos.c"
  16              		.text
  17              	.Ltext0:
  18              		.cfi_sections	.debug_frame
  19              		.section	.text.lv_obj_set_width,"ax",%progbits
  20              		.align	1
  21              		.global	lv_obj_set_width
  22              		.syntax unified
  23              		.thumb
  24              		.thumb_func
  26              	lv_obj_set_width:
  27              	.LVL0:
  28              	.LFB158:
  29              		.file 1 "Middlewares/lvgl/src/core/lv_obj_pos.c"
   1:Middlewares/lvgl/src/core/lv_obj_pos.c **** /**
   2:Middlewares/lvgl/src/core/lv_obj_pos.c ****  * @file lv_obj_pos.c
   3:Middlewares/lvgl/src/core/lv_obj_pos.c ****  *
   4:Middlewares/lvgl/src/core/lv_obj_pos.c ****  */
   5:Middlewares/lvgl/src/core/lv_obj_pos.c **** 
   6:Middlewares/lvgl/src/core/lv_obj_pos.c **** /*********************
   7:Middlewares/lvgl/src/core/lv_obj_pos.c ****  *      INCLUDES
   8:Middlewares/lvgl/src/core/lv_obj_pos.c ****  *********************/
   9:Middlewares/lvgl/src/core/lv_obj_pos.c **** #include "lv_obj.h"
  10:Middlewares/lvgl/src/core/lv_obj_pos.c **** #include "lv_disp.h"
  11:Middlewares/lvgl/src/core/lv_obj_pos.c **** #include "lv_refr.h"
  12:Middlewares/lvgl/src/core/lv_obj_pos.c **** #include "../misc/lv_gc.h"
  13:Middlewares/lvgl/src/core/lv_obj_pos.c **** 
  14:Middlewares/lvgl/src/core/lv_obj_pos.c **** /*********************
  15:Middlewares/lvgl/src/core/lv_obj_pos.c ****  *      DEFINES
  16:Middlewares/lvgl/src/core/lv_obj_pos.c ****  *********************/
  17:Middlewares/lvgl/src/core/lv_obj_pos.c **** #define MY_CLASS &lv_obj_class
  18:Middlewares/lvgl/src/core/lv_obj_pos.c **** 
  19:Middlewares/lvgl/src/core/lv_obj_pos.c **** /**********************
  20:Middlewares/lvgl/src/core/lv_obj_pos.c ****  *      TYPEDEFS
  21:Middlewares/lvgl/src/core/lv_obj_pos.c ****  **********************/
  22:Middlewares/lvgl/src/core/lv_obj_pos.c **** 
  23:Middlewares/lvgl/src/core/lv_obj_pos.c **** /**********************
  24:Middlewares/lvgl/src/core/lv_obj_pos.c ****  *  STATIC PROTOTYPES
  25:Middlewares/lvgl/src/core/lv_obj_pos.c ****  **********************/
  26:Middlewares/lvgl/src/core/lv_obj_pos.c **** static void calc_auto_size(lv_obj_t * obj, lv_coord_t * w_out, lv_coord_t * h_out);
  27:Middlewares/lvgl/src/core/lv_obj_pos.c **** static void layout_update_core(lv_obj_t * obj);
  28:Middlewares/lvgl/src/core/lv_obj_pos.c **** 
  29:Middlewares/lvgl/src/core/lv_obj_pos.c **** /**********************
ARM GAS  /tmp/ccmgRVpn.s 			page 2


  30:Middlewares/lvgl/src/core/lv_obj_pos.c ****  *  STATIC VARIABLES
  31:Middlewares/lvgl/src/core/lv_obj_pos.c ****  **********************/
  32:Middlewares/lvgl/src/core/lv_obj_pos.c **** static uint32_t layout_cnt;
  33:Middlewares/lvgl/src/core/lv_obj_pos.c **** 
  34:Middlewares/lvgl/src/core/lv_obj_pos.c **** /**********************
  35:Middlewares/lvgl/src/core/lv_obj_pos.c ****  *      MACROS
  36:Middlewares/lvgl/src/core/lv_obj_pos.c ****  **********************/
  37:Middlewares/lvgl/src/core/lv_obj_pos.c **** 
  38:Middlewares/lvgl/src/core/lv_obj_pos.c **** /**********************
  39:Middlewares/lvgl/src/core/lv_obj_pos.c ****  *   GLOBAL FUNCTIONS
  40:Middlewares/lvgl/src/core/lv_obj_pos.c ****  **********************/
  41:Middlewares/lvgl/src/core/lv_obj_pos.c **** 
  42:Middlewares/lvgl/src/core/lv_obj_pos.c **** void lv_obj_set_pos(lv_obj_t * obj, lv_coord_t x, lv_coord_t y)
  43:Middlewares/lvgl/src/core/lv_obj_pos.c **** {
  44:Middlewares/lvgl/src/core/lv_obj_pos.c ****     LV_ASSERT_OBJ(obj, MY_CLASS);
  45:Middlewares/lvgl/src/core/lv_obj_pos.c **** 
  46:Middlewares/lvgl/src/core/lv_obj_pos.c ****     lv_obj_set_x(obj, x);
  47:Middlewares/lvgl/src/core/lv_obj_pos.c ****     lv_obj_set_y(obj, y);
  48:Middlewares/lvgl/src/core/lv_obj_pos.c **** }
  49:Middlewares/lvgl/src/core/lv_obj_pos.c **** 
  50:Middlewares/lvgl/src/core/lv_obj_pos.c **** void lv_obj_set_x(lv_obj_t * obj, lv_coord_t x)
  51:Middlewares/lvgl/src/core/lv_obj_pos.c **** {
  52:Middlewares/lvgl/src/core/lv_obj_pos.c ****     LV_ASSERT_OBJ(obj, MY_CLASS);
  53:Middlewares/lvgl/src/core/lv_obj_pos.c ****     if(lv_obj_is_layout_positioned(obj)) {
  54:Middlewares/lvgl/src/core/lv_obj_pos.c ****         return;
  55:Middlewares/lvgl/src/core/lv_obj_pos.c ****     }
  56:Middlewares/lvgl/src/core/lv_obj_pos.c **** 
  57:Middlewares/lvgl/src/core/lv_obj_pos.c ****     lv_res_t res_x;
  58:Middlewares/lvgl/src/core/lv_obj_pos.c ****     lv_style_value_t v_x;
  59:Middlewares/lvgl/src/core/lv_obj_pos.c **** 
  60:Middlewares/lvgl/src/core/lv_obj_pos.c ****     res_x = lv_obj_get_local_style_prop(obj, LV_STYLE_X, &v_x, 0);
  61:Middlewares/lvgl/src/core/lv_obj_pos.c **** 
  62:Middlewares/lvgl/src/core/lv_obj_pos.c ****     if((res_x == LV_RES_OK && v_x.num != x) || res_x == LV_RES_INV) {
  63:Middlewares/lvgl/src/core/lv_obj_pos.c ****         lv_obj_set_style_x(obj, x, 0);
  64:Middlewares/lvgl/src/core/lv_obj_pos.c ****     }
  65:Middlewares/lvgl/src/core/lv_obj_pos.c **** }
  66:Middlewares/lvgl/src/core/lv_obj_pos.c **** 
  67:Middlewares/lvgl/src/core/lv_obj_pos.c **** void lv_obj_set_y(lv_obj_t * obj, lv_coord_t y)
  68:Middlewares/lvgl/src/core/lv_obj_pos.c **** {
  69:Middlewares/lvgl/src/core/lv_obj_pos.c ****     if(lv_obj_is_layout_positioned(obj)) {
  70:Middlewares/lvgl/src/core/lv_obj_pos.c ****         return;
  71:Middlewares/lvgl/src/core/lv_obj_pos.c ****     }
  72:Middlewares/lvgl/src/core/lv_obj_pos.c ****     LV_ASSERT_OBJ(obj, MY_CLASS);
  73:Middlewares/lvgl/src/core/lv_obj_pos.c **** 
  74:Middlewares/lvgl/src/core/lv_obj_pos.c ****     lv_res_t res_y;
  75:Middlewares/lvgl/src/core/lv_obj_pos.c ****     lv_style_value_t v_y;
  76:Middlewares/lvgl/src/core/lv_obj_pos.c **** 
  77:Middlewares/lvgl/src/core/lv_obj_pos.c ****     res_y = lv_obj_get_local_style_prop(obj, LV_STYLE_Y, &v_y, 0);
  78:Middlewares/lvgl/src/core/lv_obj_pos.c **** 
  79:Middlewares/lvgl/src/core/lv_obj_pos.c ****     if((res_y == LV_RES_OK && v_y.num != y) || res_y == LV_RES_INV) {
  80:Middlewares/lvgl/src/core/lv_obj_pos.c ****         lv_obj_set_style_y(obj, y, 0);
  81:Middlewares/lvgl/src/core/lv_obj_pos.c ****     }
  82:Middlewares/lvgl/src/core/lv_obj_pos.c **** }
  83:Middlewares/lvgl/src/core/lv_obj_pos.c **** 
  84:Middlewares/lvgl/src/core/lv_obj_pos.c **** bool lv_obj_refr_size(lv_obj_t * obj)
  85:Middlewares/lvgl/src/core/lv_obj_pos.c **** {
  86:Middlewares/lvgl/src/core/lv_obj_pos.c ****     LV_ASSERT_OBJ(obj, MY_CLASS);
ARM GAS  /tmp/ccmgRVpn.s 			page 3


  87:Middlewares/lvgl/src/core/lv_obj_pos.c **** 
  88:Middlewares/lvgl/src/core/lv_obj_pos.c ****     /*If the width or height is set by a layout do not modify them*/
  89:Middlewares/lvgl/src/core/lv_obj_pos.c ****     if(obj->w_layout && obj->h_layout) return false;
  90:Middlewares/lvgl/src/core/lv_obj_pos.c **** 
  91:Middlewares/lvgl/src/core/lv_obj_pos.c ****     lv_obj_t * parent = lv_obj_get_parent(obj);
  92:Middlewares/lvgl/src/core/lv_obj_pos.c ****     if(parent == NULL) return false;
  93:Middlewares/lvgl/src/core/lv_obj_pos.c **** 
  94:Middlewares/lvgl/src/core/lv_obj_pos.c ****     lv_coord_t w;
  95:Middlewares/lvgl/src/core/lv_obj_pos.c ****     lv_coord_t sl_ori = lv_obj_get_scroll_left(obj);
  96:Middlewares/lvgl/src/core/lv_obj_pos.c ****     bool w_content = false;
  97:Middlewares/lvgl/src/core/lv_obj_pos.c ****     if(obj->w_layout) {
  98:Middlewares/lvgl/src/core/lv_obj_pos.c ****         w = lv_obj_get_width(obj);
  99:Middlewares/lvgl/src/core/lv_obj_pos.c ****     } else {
 100:Middlewares/lvgl/src/core/lv_obj_pos.c ****         w = lv_obj_get_style_width(obj, LV_PART_MAIN);
 101:Middlewares/lvgl/src/core/lv_obj_pos.c ****         w_content = w == LV_SIZE_CONTENT ? true : false;
 102:Middlewares/lvgl/src/core/lv_obj_pos.c **** 
 103:Middlewares/lvgl/src/core/lv_obj_pos.c ****         /*Be sure the object is not scrolled when it has auto size*/
 104:Middlewares/lvgl/src/core/lv_obj_pos.c ****         if(w_content) {
 105:Middlewares/lvgl/src/core/lv_obj_pos.c ****             lv_obj_scroll_to_x(obj, 0, LV_ANIM_OFF);
 106:Middlewares/lvgl/src/core/lv_obj_pos.c ****             calc_auto_size(obj, &w, NULL);
 107:Middlewares/lvgl/src/core/lv_obj_pos.c ****         }
 108:Middlewares/lvgl/src/core/lv_obj_pos.c **** 
 109:Middlewares/lvgl/src/core/lv_obj_pos.c ****         /*Calculate the sizes in percentage*/
 110:Middlewares/lvgl/src/core/lv_obj_pos.c ****         bool pct_w = LV_COORD_IS_PCT(w) ? true : false;
 111:Middlewares/lvgl/src/core/lv_obj_pos.c **** 
 112:Middlewares/lvgl/src/core/lv_obj_pos.c ****         lv_coord_t parent_w = lv_obj_get_content_width(parent);
 113:Middlewares/lvgl/src/core/lv_obj_pos.c ****         if(pct_w) w = (LV_COORD_GET_PCT(w) * parent_w) / 100;
 114:Middlewares/lvgl/src/core/lv_obj_pos.c **** 
 115:Middlewares/lvgl/src/core/lv_obj_pos.c ****         lv_coord_t minw = lv_obj_get_style_min_width(obj, LV_PART_MAIN);
 116:Middlewares/lvgl/src/core/lv_obj_pos.c ****         lv_coord_t maxw = lv_obj_get_style_max_width(obj, LV_PART_MAIN);
 117:Middlewares/lvgl/src/core/lv_obj_pos.c ****         w = lv_clamp_width(w, minw, maxw, parent_w);
 118:Middlewares/lvgl/src/core/lv_obj_pos.c ****     }
 119:Middlewares/lvgl/src/core/lv_obj_pos.c **** 
 120:Middlewares/lvgl/src/core/lv_obj_pos.c ****     lv_coord_t h;
 121:Middlewares/lvgl/src/core/lv_obj_pos.c ****     lv_coord_t st_ori = lv_obj_get_scroll_top(obj);
 122:Middlewares/lvgl/src/core/lv_obj_pos.c ****     bool h_content = false;
 123:Middlewares/lvgl/src/core/lv_obj_pos.c ****     if(obj->h_layout) {
 124:Middlewares/lvgl/src/core/lv_obj_pos.c ****         h = lv_obj_get_height(obj);
 125:Middlewares/lvgl/src/core/lv_obj_pos.c ****     } else {
 126:Middlewares/lvgl/src/core/lv_obj_pos.c ****         h = lv_obj_get_style_height(obj, LV_PART_MAIN);
 127:Middlewares/lvgl/src/core/lv_obj_pos.c ****         h_content = h == LV_SIZE_CONTENT ? true : false;
 128:Middlewares/lvgl/src/core/lv_obj_pos.c **** 
 129:Middlewares/lvgl/src/core/lv_obj_pos.c ****         /*Be sure the object is not scrolled when it has auto size*/
 130:Middlewares/lvgl/src/core/lv_obj_pos.c ****         if(h_content) {
 131:Middlewares/lvgl/src/core/lv_obj_pos.c ****             lv_obj_scroll_to_y(obj, 0, LV_ANIM_OFF);
 132:Middlewares/lvgl/src/core/lv_obj_pos.c ****             calc_auto_size(obj, NULL, &h);
 133:Middlewares/lvgl/src/core/lv_obj_pos.c ****         }
 134:Middlewares/lvgl/src/core/lv_obj_pos.c **** 
 135:Middlewares/lvgl/src/core/lv_obj_pos.c ****         /*Calculate the sizes in percentage*/
 136:Middlewares/lvgl/src/core/lv_obj_pos.c ****         bool pct_h = LV_COORD_IS_PCT(h) ? true : false;
 137:Middlewares/lvgl/src/core/lv_obj_pos.c ****         lv_coord_t parent_h = lv_obj_get_content_height(parent);
 138:Middlewares/lvgl/src/core/lv_obj_pos.c ****         if(pct_h) h = (LV_COORD_GET_PCT(h) * parent_h) / 100;
 139:Middlewares/lvgl/src/core/lv_obj_pos.c **** 
 140:Middlewares/lvgl/src/core/lv_obj_pos.c ****         lv_coord_t minh = lv_obj_get_style_min_height(obj, LV_PART_MAIN);
 141:Middlewares/lvgl/src/core/lv_obj_pos.c ****         lv_coord_t maxh = lv_obj_get_style_max_height(obj, LV_PART_MAIN);
 142:Middlewares/lvgl/src/core/lv_obj_pos.c ****         h = lv_clamp_height(h, minh, maxh, parent_h);
 143:Middlewares/lvgl/src/core/lv_obj_pos.c ****     }
ARM GAS  /tmp/ccmgRVpn.s 			page 4


 144:Middlewares/lvgl/src/core/lv_obj_pos.c **** 
 145:Middlewares/lvgl/src/core/lv_obj_pos.c ****     /*calc_auto_size set the scroll x/y to 0 so revert the original value*/
 146:Middlewares/lvgl/src/core/lv_obj_pos.c ****     if(w_content || h_content) {
 147:Middlewares/lvgl/src/core/lv_obj_pos.c ****         lv_obj_scroll_to(obj, sl_ori, st_ori, LV_ANIM_OFF);
 148:Middlewares/lvgl/src/core/lv_obj_pos.c ****     }
 149:Middlewares/lvgl/src/core/lv_obj_pos.c **** 
 150:Middlewares/lvgl/src/core/lv_obj_pos.c ****     /*Do nothing if the size is not changed*/
 151:Middlewares/lvgl/src/core/lv_obj_pos.c ****     /*It is very important else recursive resizing can occur without size change*/
 152:Middlewares/lvgl/src/core/lv_obj_pos.c ****     if(lv_obj_get_width(obj) == w && lv_obj_get_height(obj) == h) return false;
 153:Middlewares/lvgl/src/core/lv_obj_pos.c **** 
 154:Middlewares/lvgl/src/core/lv_obj_pos.c ****     /*Invalidate the original area*/
 155:Middlewares/lvgl/src/core/lv_obj_pos.c ****     lv_obj_invalidate(obj);
 156:Middlewares/lvgl/src/core/lv_obj_pos.c **** 
 157:Middlewares/lvgl/src/core/lv_obj_pos.c ****     /*Save the original coordinates*/
 158:Middlewares/lvgl/src/core/lv_obj_pos.c ****     lv_area_t ori;
 159:Middlewares/lvgl/src/core/lv_obj_pos.c ****     lv_obj_get_coords(obj, &ori);
 160:Middlewares/lvgl/src/core/lv_obj_pos.c **** 
 161:Middlewares/lvgl/src/core/lv_obj_pos.c ****     /*Check if the object inside the parent or not*/
 162:Middlewares/lvgl/src/core/lv_obj_pos.c ****     lv_area_t parent_fit_area;
 163:Middlewares/lvgl/src/core/lv_obj_pos.c ****     lv_obj_get_content_coords(parent, &parent_fit_area);
 164:Middlewares/lvgl/src/core/lv_obj_pos.c **** 
 165:Middlewares/lvgl/src/core/lv_obj_pos.c ****     /*If the object is already out of the parent and its position is changes
 166:Middlewares/lvgl/src/core/lv_obj_pos.c ****      *surely the scrollbars also changes so invalidate them*/
 167:Middlewares/lvgl/src/core/lv_obj_pos.c ****     bool on1 = _lv_area_is_in(&ori, &parent_fit_area, 0);
 168:Middlewares/lvgl/src/core/lv_obj_pos.c ****     if(!on1) lv_obj_scrollbar_invalidate(parent);
 169:Middlewares/lvgl/src/core/lv_obj_pos.c **** 
 170:Middlewares/lvgl/src/core/lv_obj_pos.c ****     /*Set the length and height
 171:Middlewares/lvgl/src/core/lv_obj_pos.c ****      *Be sure the content is not scrolled in an invalid position on the new size*/
 172:Middlewares/lvgl/src/core/lv_obj_pos.c ****     obj->coords.y2 = obj->coords.y1 + h - 1;
 173:Middlewares/lvgl/src/core/lv_obj_pos.c ****     if(lv_obj_get_style_base_dir(obj, LV_PART_MAIN) == LV_BASE_DIR_RTL) {
 174:Middlewares/lvgl/src/core/lv_obj_pos.c ****         obj->coords.x1 = obj->coords.x2 - w + 1;
 175:Middlewares/lvgl/src/core/lv_obj_pos.c ****     }
 176:Middlewares/lvgl/src/core/lv_obj_pos.c ****     else {
 177:Middlewares/lvgl/src/core/lv_obj_pos.c ****         obj->coords.x2 = obj->coords.x1 + w - 1;
 178:Middlewares/lvgl/src/core/lv_obj_pos.c ****     }
 179:Middlewares/lvgl/src/core/lv_obj_pos.c **** 
 180:Middlewares/lvgl/src/core/lv_obj_pos.c ****     /*Call the ancestor's event handler to the object with its new coordinates*/
 181:Middlewares/lvgl/src/core/lv_obj_pos.c ****     lv_event_send(obj, LV_EVENT_SIZE_CHANGED, &ori);
 182:Middlewares/lvgl/src/core/lv_obj_pos.c **** 
 183:Middlewares/lvgl/src/core/lv_obj_pos.c ****     /*Call the ancestor's event handler to the parent too*/
 184:Middlewares/lvgl/src/core/lv_obj_pos.c ****     lv_event_send(parent, LV_EVENT_CHILD_CHANGED, obj);
 185:Middlewares/lvgl/src/core/lv_obj_pos.c **** 
 186:Middlewares/lvgl/src/core/lv_obj_pos.c ****     /*Invalidate the new area*/
 187:Middlewares/lvgl/src/core/lv_obj_pos.c ****     lv_obj_invalidate(obj);
 188:Middlewares/lvgl/src/core/lv_obj_pos.c **** 
 189:Middlewares/lvgl/src/core/lv_obj_pos.c ****     lv_obj_readjust_scroll(obj, LV_ANIM_OFF);
 190:Middlewares/lvgl/src/core/lv_obj_pos.c **** 
 191:Middlewares/lvgl/src/core/lv_obj_pos.c ****     /*If the object was out of the parent invalidate the new scrollbar area too.
 192:Middlewares/lvgl/src/core/lv_obj_pos.c ****      *If it wasn't out of the parent but out now, also invalidate the srollbars*/
 193:Middlewares/lvgl/src/core/lv_obj_pos.c ****     bool on2 = _lv_area_is_in(&obj->coords, &parent_fit_area, 0);
 194:Middlewares/lvgl/src/core/lv_obj_pos.c ****     if(on1 || (!on1 && on2)) lv_obj_scrollbar_invalidate(parent);
 195:Middlewares/lvgl/src/core/lv_obj_pos.c **** 
 196:Middlewares/lvgl/src/core/lv_obj_pos.c **** 
 197:Middlewares/lvgl/src/core/lv_obj_pos.c **** 
 198:Middlewares/lvgl/src/core/lv_obj_pos.c **** 
 199:Middlewares/lvgl/src/core/lv_obj_pos.c **** 
 200:Middlewares/lvgl/src/core/lv_obj_pos.c ****     return true;
ARM GAS  /tmp/ccmgRVpn.s 			page 5


 201:Middlewares/lvgl/src/core/lv_obj_pos.c **** }
 202:Middlewares/lvgl/src/core/lv_obj_pos.c **** 
 203:Middlewares/lvgl/src/core/lv_obj_pos.c **** void lv_obj_set_size(lv_obj_t * obj, lv_coord_t w, lv_coord_t h)
 204:Middlewares/lvgl/src/core/lv_obj_pos.c **** {
 205:Middlewares/lvgl/src/core/lv_obj_pos.c ****     LV_ASSERT_OBJ(obj, MY_CLASS);
 206:Middlewares/lvgl/src/core/lv_obj_pos.c **** 
 207:Middlewares/lvgl/src/core/lv_obj_pos.c ****     lv_obj_set_width(obj, w);
 208:Middlewares/lvgl/src/core/lv_obj_pos.c ****     lv_obj_set_height(obj, h);
 209:Middlewares/lvgl/src/core/lv_obj_pos.c **** }
 210:Middlewares/lvgl/src/core/lv_obj_pos.c **** 
 211:Middlewares/lvgl/src/core/lv_obj_pos.c **** void lv_obj_set_width(lv_obj_t * obj, lv_coord_t w)
 212:Middlewares/lvgl/src/core/lv_obj_pos.c **** {
  30              		.loc 1 212 1 view -0
  31              		.cfi_startproc
  32              		@ args = 0, pretend = 0, frame = 8
  33              		@ frame_needed = 0, uses_anonymous_args = 0
  34              		.loc 1 212 1 is_stmt 0 view .LVU1
  35 0000 30B5     		push	{r4, r5, lr}
  36              	.LCFI0:
  37              		.cfi_def_cfa_offset 12
  38              		.cfi_offset 4, -12
  39              		.cfi_offset 5, -8
  40              		.cfi_offset 14, -4
  41 0002 83B0     		sub	sp, sp, #12
  42              	.LCFI1:
  43              		.cfi_def_cfa_offset 24
  44 0004 0546     		mov	r5, r0
  45 0006 0C46     		mov	r4, r1
 213:Middlewares/lvgl/src/core/lv_obj_pos.c ****     LV_ASSERT_OBJ(obj, MY_CLASS);
  46              		.loc 1 213 5 is_stmt 1 view .LVU2
  47              		.loc 1 213 5 view .LVU3
  48              		.loc 1 213 5 view .LVU4
 214:Middlewares/lvgl/src/core/lv_obj_pos.c ****     lv_res_t res_w;
  49              		.loc 1 214 5 view .LVU5
 215:Middlewares/lvgl/src/core/lv_obj_pos.c ****     lv_style_value_t v_w;
  50              		.loc 1 215 5 view .LVU6
 216:Middlewares/lvgl/src/core/lv_obj_pos.c **** 
 217:Middlewares/lvgl/src/core/lv_obj_pos.c ****     res_w = lv_obj_get_local_style_prop(obj, LV_STYLE_WIDTH, &v_w, 0);
  51              		.loc 1 217 5 view .LVU7
  52              		.loc 1 217 13 is_stmt 0 view .LVU8
  53 0008 0023     		movs	r3, #0
  54 000a 01AA     		add	r2, sp, #4
  55 000c 41F20101 		movw	r1, #4097
  56              	.LVL1:
  57              		.loc 1 217 13 view .LVU9
  58 0010 FFF7FEFF 		bl	lv_obj_get_local_style_prop
  59              	.LVL2:
 218:Middlewares/lvgl/src/core/lv_obj_pos.c **** 
 219:Middlewares/lvgl/src/core/lv_obj_pos.c ****     if((res_w == LV_RES_OK && v_w.num != w) || res_w == LV_RES_INV) {
  60              		.loc 1 219 5 is_stmt 1 view .LVU10
  61              		.loc 1 219 7 is_stmt 0 view .LVU11
  62 0014 0128     		cmp	r0, #1
  63 0016 07D0     		beq	.L6
  64              	.L2:
  65              		.loc 1 219 45 discriminator 3 view .LVU12
  66 0018 20B9     		cbnz	r0, .L1
  67              	.L3:
ARM GAS  /tmp/ccmgRVpn.s 			page 6


 220:Middlewares/lvgl/src/core/lv_obj_pos.c ****         lv_obj_set_style_width(obj, w, 0);
  68              		.loc 1 220 9 is_stmt 1 view .LVU13
  69 001a 0022     		movs	r2, #0
  70 001c 2146     		mov	r1, r4
  71 001e 2846     		mov	r0, r5
  72              	.LVL3:
  73              		.loc 1 220 9 is_stmt 0 view .LVU14
  74 0020 FFF7FEFF 		bl	lv_obj_set_style_width
  75              	.LVL4:
  76              	.L1:
 221:Middlewares/lvgl/src/core/lv_obj_pos.c ****     }
 222:Middlewares/lvgl/src/core/lv_obj_pos.c **** }
  77              		.loc 1 222 1 view .LVU15
  78 0024 03B0     		add	sp, sp, #12
  79              	.LCFI2:
  80              		.cfi_remember_state
  81              		.cfi_def_cfa_offset 12
  82              		@ sp needed
  83 0026 30BD     		pop	{r4, r5, pc}
  84              	.LVL5:
  85              	.L6:
  86              	.LCFI3:
  87              		.cfi_restore_state
 219:Middlewares/lvgl/src/core/lv_obj_pos.c ****         lv_obj_set_style_width(obj, w, 0);
  88              		.loc 1 219 34 discriminator 1 view .LVU16
  89 0028 019B     		ldr	r3, [sp, #4]
 219:Middlewares/lvgl/src/core/lv_obj_pos.c ****         lv_obj_set_style_width(obj, w, 0);
  90              		.loc 1 219 28 discriminator 1 view .LVU17
  91 002a A342     		cmp	r3, r4
  92 002c F5D1     		bne	.L3
  93 002e F3E7     		b	.L2
  94              		.cfi_endproc
  95              	.LFE158:
  97              		.section	.text.lv_obj_set_height,"ax",%progbits
  98              		.align	1
  99              		.global	lv_obj_set_height
 100              		.syntax unified
 101              		.thumb
 102              		.thumb_func
 104              	lv_obj_set_height:
 105              	.LVL6:
 106              	.LFB159:
 223:Middlewares/lvgl/src/core/lv_obj_pos.c **** 
 224:Middlewares/lvgl/src/core/lv_obj_pos.c **** void lv_obj_set_height(lv_obj_t * obj, lv_coord_t h)
 225:Middlewares/lvgl/src/core/lv_obj_pos.c **** {
 107              		.loc 1 225 1 is_stmt 1 view -0
 108              		.cfi_startproc
 109              		@ args = 0, pretend = 0, frame = 8
 110              		@ frame_needed = 0, uses_anonymous_args = 0
 111              		.loc 1 225 1 is_stmt 0 view .LVU19
 112 0000 30B5     		push	{r4, r5, lr}
 113              	.LCFI4:
 114              		.cfi_def_cfa_offset 12
 115              		.cfi_offset 4, -12
 116              		.cfi_offset 5, -8
 117              		.cfi_offset 14, -4
 118 0002 83B0     		sub	sp, sp, #12
ARM GAS  /tmp/ccmgRVpn.s 			page 7


 119              	.LCFI5:
 120              		.cfi_def_cfa_offset 24
 121 0004 0546     		mov	r5, r0
 122 0006 0C46     		mov	r4, r1
 226:Middlewares/lvgl/src/core/lv_obj_pos.c ****     LV_ASSERT_OBJ(obj, MY_CLASS);
 123              		.loc 1 226 5 is_stmt 1 view .LVU20
 124              		.loc 1 226 5 view .LVU21
 125              		.loc 1 226 5 view .LVU22
 227:Middlewares/lvgl/src/core/lv_obj_pos.c ****     lv_res_t res_h;
 126              		.loc 1 227 5 view .LVU23
 228:Middlewares/lvgl/src/core/lv_obj_pos.c ****     lv_style_value_t v_h;
 127              		.loc 1 228 5 view .LVU24
 229:Middlewares/lvgl/src/core/lv_obj_pos.c **** 
 230:Middlewares/lvgl/src/core/lv_obj_pos.c ****     res_h = lv_obj_get_local_style_prop(obj, LV_STYLE_HEIGHT, &v_h, 0);
 128              		.loc 1 230 5 view .LVU25
 129              		.loc 1 230 13 is_stmt 0 view .LVU26
 130 0008 0023     		movs	r3, #0
 131 000a 01AA     		add	r2, sp, #4
 132 000c 41F20401 		movw	r1, #4100
 133              	.LVL7:
 134              		.loc 1 230 13 view .LVU27
 135 0010 FFF7FEFF 		bl	lv_obj_get_local_style_prop
 136              	.LVL8:
 231:Middlewares/lvgl/src/core/lv_obj_pos.c **** 
 232:Middlewares/lvgl/src/core/lv_obj_pos.c ****     if((res_h == LV_RES_OK && v_h.num != h) || res_h == LV_RES_INV) {
 137              		.loc 1 232 5 is_stmt 1 view .LVU28
 138              		.loc 1 232 7 is_stmt 0 view .LVU29
 139 0014 0128     		cmp	r0, #1
 140 0016 07D0     		beq	.L12
 141              	.L8:
 142              		.loc 1 232 45 discriminator 3 view .LVU30
 143 0018 20B9     		cbnz	r0, .L7
 144              	.L9:
 233:Middlewares/lvgl/src/core/lv_obj_pos.c ****         lv_obj_set_style_height(obj, h, 0);
 145              		.loc 1 233 9 is_stmt 1 view .LVU31
 146 001a 0022     		movs	r2, #0
 147 001c 2146     		mov	r1, r4
 148 001e 2846     		mov	r0, r5
 149              	.LVL9:
 150              		.loc 1 233 9 is_stmt 0 view .LVU32
 151 0020 FFF7FEFF 		bl	lv_obj_set_style_height
 152              	.LVL10:
 153              	.L7:
 234:Middlewares/lvgl/src/core/lv_obj_pos.c ****     }
 235:Middlewares/lvgl/src/core/lv_obj_pos.c **** }
 154              		.loc 1 235 1 view .LVU33
 155 0024 03B0     		add	sp, sp, #12
 156              	.LCFI6:
 157              		.cfi_remember_state
 158              		.cfi_def_cfa_offset 12
 159              		@ sp needed
 160 0026 30BD     		pop	{r4, r5, pc}
 161              	.LVL11:
 162              	.L12:
 163              	.LCFI7:
 164              		.cfi_restore_state
 232:Middlewares/lvgl/src/core/lv_obj_pos.c ****         lv_obj_set_style_height(obj, h, 0);
ARM GAS  /tmp/ccmgRVpn.s 			page 8


 165              		.loc 1 232 34 discriminator 1 view .LVU34
 166 0028 019B     		ldr	r3, [sp, #4]
 232:Middlewares/lvgl/src/core/lv_obj_pos.c ****         lv_obj_set_style_height(obj, h, 0);
 167              		.loc 1 232 28 discriminator 1 view .LVU35
 168 002a A342     		cmp	r3, r4
 169 002c F5D1     		bne	.L9
 170 002e F3E7     		b	.L8
 171              		.cfi_endproc
 172              	.LFE159:
 174              		.section	.text.lv_obj_set_size,"ax",%progbits
 175              		.align	1
 176              		.global	lv_obj_set_size
 177              		.syntax unified
 178              		.thumb
 179              		.thumb_func
 181              	lv_obj_set_size:
 182              	.LVL12:
 183              	.LFB157:
 204:Middlewares/lvgl/src/core/lv_obj_pos.c ****     LV_ASSERT_OBJ(obj, MY_CLASS);
 184              		.loc 1 204 1 is_stmt 1 view -0
 185              		.cfi_startproc
 186              		@ args = 0, pretend = 0, frame = 0
 187              		@ frame_needed = 0, uses_anonymous_args = 0
 204:Middlewares/lvgl/src/core/lv_obj_pos.c ****     LV_ASSERT_OBJ(obj, MY_CLASS);
 188              		.loc 1 204 1 is_stmt 0 view .LVU37
 189 0000 38B5     		push	{r3, r4, r5, lr}
 190              	.LCFI8:
 191              		.cfi_def_cfa_offset 16
 192              		.cfi_offset 3, -16
 193              		.cfi_offset 4, -12
 194              		.cfi_offset 5, -8
 195              		.cfi_offset 14, -4
 196 0002 0446     		mov	r4, r0
 197 0004 1546     		mov	r5, r2
 205:Middlewares/lvgl/src/core/lv_obj_pos.c **** 
 198              		.loc 1 205 5 is_stmt 1 view .LVU38
 205:Middlewares/lvgl/src/core/lv_obj_pos.c **** 
 199              		.loc 1 205 5 view .LVU39
 205:Middlewares/lvgl/src/core/lv_obj_pos.c **** 
 200              		.loc 1 205 5 view .LVU40
 207:Middlewares/lvgl/src/core/lv_obj_pos.c ****     lv_obj_set_height(obj, h);
 201              		.loc 1 207 5 view .LVU41
 202 0006 FFF7FEFF 		bl	lv_obj_set_width
 203              	.LVL13:
 208:Middlewares/lvgl/src/core/lv_obj_pos.c **** }
 204              		.loc 1 208 5 view .LVU42
 205 000a 2946     		mov	r1, r5
 206 000c 2046     		mov	r0, r4
 207 000e FFF7FEFF 		bl	lv_obj_set_height
 208              	.LVL14:
 209:Middlewares/lvgl/src/core/lv_obj_pos.c **** 
 209              		.loc 1 209 1 is_stmt 0 view .LVU43
 210 0012 38BD     		pop	{r3, r4, r5, pc}
 209:Middlewares/lvgl/src/core/lv_obj_pos.c **** 
 211              		.loc 1 209 1 view .LVU44
 212              		.cfi_endproc
 213              	.LFE157:
ARM GAS  /tmp/ccmgRVpn.s 			page 9


 215              		.section	.text.lv_obj_set_content_width,"ax",%progbits
 216              		.align	1
 217              		.global	lv_obj_set_content_width
 218              		.syntax unified
 219              		.thumb
 220              		.thumb_func
 222              	lv_obj_set_content_width:
 223              	.LVL15:
 224              	.LFB160:
 236:Middlewares/lvgl/src/core/lv_obj_pos.c **** 
 237:Middlewares/lvgl/src/core/lv_obj_pos.c **** void lv_obj_set_content_width(lv_obj_t * obj, lv_coord_t w)
 238:Middlewares/lvgl/src/core/lv_obj_pos.c **** {
 225              		.loc 1 238 1 is_stmt 1 view -0
 226              		.cfi_startproc
 227              		@ args = 0, pretend = 0, frame = 0
 228              		@ frame_needed = 0, uses_anonymous_args = 0
 229              		.loc 1 238 1 is_stmt 0 view .LVU46
 230 0000 F8B5     		push	{r3, r4, r5, r6, r7, lr}
 231              	.LCFI9:
 232              		.cfi_def_cfa_offset 24
 233              		.cfi_offset 3, -24
 234              		.cfi_offset 4, -20
 235              		.cfi_offset 5, -16
 236              		.cfi_offset 6, -12
 237              		.cfi_offset 7, -8
 238              		.cfi_offset 14, -4
 239 0002 0546     		mov	r5, r0
 240 0004 0C46     		mov	r4, r1
 239:Middlewares/lvgl/src/core/lv_obj_pos.c ****     lv_coord_t pleft = lv_obj_get_style_pad_left(obj, LV_PART_MAIN);
 241              		.loc 1 239 5 is_stmt 1 view .LVU47
 242              	.LVL16:
 243              	.LBB121:
 244              	.LBI121:
 245              		.file 2 "Middlewares/lvgl/src/core/lv_obj_style_gen.h"
   1:Middlewares/lvgl/src/core/lv_obj_style_gen.h **** static inline lv_coord_t lv_obj_get_style_width(const struct _lv_obj_t * obj, uint32_t part)
   2:Middlewares/lvgl/src/core/lv_obj_style_gen.h **** {
   3:Middlewares/lvgl/src/core/lv_obj_style_gen.h ****     lv_style_value_t v = lv_obj_get_style_prop(obj, part, LV_STYLE_WIDTH);
   4:Middlewares/lvgl/src/core/lv_obj_style_gen.h ****     return (lv_coord_t)v.num;
   5:Middlewares/lvgl/src/core/lv_obj_style_gen.h **** }
   6:Middlewares/lvgl/src/core/lv_obj_style_gen.h **** 
   7:Middlewares/lvgl/src/core/lv_obj_style_gen.h **** static inline lv_coord_t lv_obj_get_style_min_width(const struct _lv_obj_t * obj, uint32_t part)
   8:Middlewares/lvgl/src/core/lv_obj_style_gen.h **** {
   9:Middlewares/lvgl/src/core/lv_obj_style_gen.h ****     lv_style_value_t v = lv_obj_get_style_prop(obj, part, LV_STYLE_MIN_WIDTH);
  10:Middlewares/lvgl/src/core/lv_obj_style_gen.h ****     return (lv_coord_t)v.num;
  11:Middlewares/lvgl/src/core/lv_obj_style_gen.h **** }
  12:Middlewares/lvgl/src/core/lv_obj_style_gen.h **** 
  13:Middlewares/lvgl/src/core/lv_obj_style_gen.h **** static inline lv_coord_t lv_obj_get_style_max_width(const struct _lv_obj_t * obj, uint32_t part)
  14:Middlewares/lvgl/src/core/lv_obj_style_gen.h **** {
  15:Middlewares/lvgl/src/core/lv_obj_style_gen.h ****     lv_style_value_t v = lv_obj_get_style_prop(obj, part, LV_STYLE_MAX_WIDTH);
  16:Middlewares/lvgl/src/core/lv_obj_style_gen.h ****     return (lv_coord_t)v.num;
  17:Middlewares/lvgl/src/core/lv_obj_style_gen.h **** }
  18:Middlewares/lvgl/src/core/lv_obj_style_gen.h **** 
  19:Middlewares/lvgl/src/core/lv_obj_style_gen.h **** static inline lv_coord_t lv_obj_get_style_height(const struct _lv_obj_t * obj, uint32_t part)
  20:Middlewares/lvgl/src/core/lv_obj_style_gen.h **** {
  21:Middlewares/lvgl/src/core/lv_obj_style_gen.h ****     lv_style_value_t v = lv_obj_get_style_prop(obj, part, LV_STYLE_HEIGHT);
  22:Middlewares/lvgl/src/core/lv_obj_style_gen.h ****     return (lv_coord_t)v.num;
  23:Middlewares/lvgl/src/core/lv_obj_style_gen.h **** }
ARM GAS  /tmp/ccmgRVpn.s 			page 10


  24:Middlewares/lvgl/src/core/lv_obj_style_gen.h **** 
  25:Middlewares/lvgl/src/core/lv_obj_style_gen.h **** static inline lv_coord_t lv_obj_get_style_min_height(const struct _lv_obj_t * obj, uint32_t part)
  26:Middlewares/lvgl/src/core/lv_obj_style_gen.h **** {
  27:Middlewares/lvgl/src/core/lv_obj_style_gen.h ****     lv_style_value_t v = lv_obj_get_style_prop(obj, part, LV_STYLE_MIN_HEIGHT);
  28:Middlewares/lvgl/src/core/lv_obj_style_gen.h ****     return (lv_coord_t)v.num;
  29:Middlewares/lvgl/src/core/lv_obj_style_gen.h **** }
  30:Middlewares/lvgl/src/core/lv_obj_style_gen.h **** 
  31:Middlewares/lvgl/src/core/lv_obj_style_gen.h **** static inline lv_coord_t lv_obj_get_style_max_height(const struct _lv_obj_t * obj, uint32_t part)
  32:Middlewares/lvgl/src/core/lv_obj_style_gen.h **** {
  33:Middlewares/lvgl/src/core/lv_obj_style_gen.h ****     lv_style_value_t v = lv_obj_get_style_prop(obj, part, LV_STYLE_MAX_HEIGHT);
  34:Middlewares/lvgl/src/core/lv_obj_style_gen.h ****     return (lv_coord_t)v.num;
  35:Middlewares/lvgl/src/core/lv_obj_style_gen.h **** }
  36:Middlewares/lvgl/src/core/lv_obj_style_gen.h **** 
  37:Middlewares/lvgl/src/core/lv_obj_style_gen.h **** static inline lv_coord_t lv_obj_get_style_x(const struct _lv_obj_t * obj, uint32_t part)
  38:Middlewares/lvgl/src/core/lv_obj_style_gen.h **** {
  39:Middlewares/lvgl/src/core/lv_obj_style_gen.h ****     lv_style_value_t v = lv_obj_get_style_prop(obj, part, LV_STYLE_X);
  40:Middlewares/lvgl/src/core/lv_obj_style_gen.h ****     return (lv_coord_t)v.num;
  41:Middlewares/lvgl/src/core/lv_obj_style_gen.h **** }
  42:Middlewares/lvgl/src/core/lv_obj_style_gen.h **** 
  43:Middlewares/lvgl/src/core/lv_obj_style_gen.h **** static inline lv_coord_t lv_obj_get_style_y(const struct _lv_obj_t * obj, uint32_t part)
  44:Middlewares/lvgl/src/core/lv_obj_style_gen.h **** {
  45:Middlewares/lvgl/src/core/lv_obj_style_gen.h ****     lv_style_value_t v = lv_obj_get_style_prop(obj, part, LV_STYLE_Y);
  46:Middlewares/lvgl/src/core/lv_obj_style_gen.h ****     return (lv_coord_t)v.num;
  47:Middlewares/lvgl/src/core/lv_obj_style_gen.h **** }
  48:Middlewares/lvgl/src/core/lv_obj_style_gen.h **** 
  49:Middlewares/lvgl/src/core/lv_obj_style_gen.h **** static inline lv_align_t lv_obj_get_style_align(const struct _lv_obj_t * obj, uint32_t part)
  50:Middlewares/lvgl/src/core/lv_obj_style_gen.h **** {
  51:Middlewares/lvgl/src/core/lv_obj_style_gen.h ****     lv_style_value_t v = lv_obj_get_style_prop(obj, part, LV_STYLE_ALIGN);
  52:Middlewares/lvgl/src/core/lv_obj_style_gen.h ****     return (lv_align_t)v.num;
  53:Middlewares/lvgl/src/core/lv_obj_style_gen.h **** }
  54:Middlewares/lvgl/src/core/lv_obj_style_gen.h **** 
  55:Middlewares/lvgl/src/core/lv_obj_style_gen.h **** static inline lv_coord_t lv_obj_get_style_transform_width(const struct _lv_obj_t * obj, uint32_t pa
  56:Middlewares/lvgl/src/core/lv_obj_style_gen.h **** {
  57:Middlewares/lvgl/src/core/lv_obj_style_gen.h ****     lv_style_value_t v = lv_obj_get_style_prop(obj, part, LV_STYLE_TRANSFORM_WIDTH);
  58:Middlewares/lvgl/src/core/lv_obj_style_gen.h ****     return (lv_coord_t)v.num;
  59:Middlewares/lvgl/src/core/lv_obj_style_gen.h **** }
  60:Middlewares/lvgl/src/core/lv_obj_style_gen.h **** 
  61:Middlewares/lvgl/src/core/lv_obj_style_gen.h **** static inline lv_coord_t lv_obj_get_style_transform_height(const struct _lv_obj_t * obj, uint32_t p
  62:Middlewares/lvgl/src/core/lv_obj_style_gen.h **** {
  63:Middlewares/lvgl/src/core/lv_obj_style_gen.h ****     lv_style_value_t v = lv_obj_get_style_prop(obj, part, LV_STYLE_TRANSFORM_HEIGHT);
  64:Middlewares/lvgl/src/core/lv_obj_style_gen.h ****     return (lv_coord_t)v.num;
  65:Middlewares/lvgl/src/core/lv_obj_style_gen.h **** }
  66:Middlewares/lvgl/src/core/lv_obj_style_gen.h **** 
  67:Middlewares/lvgl/src/core/lv_obj_style_gen.h **** static inline lv_coord_t lv_obj_get_style_translate_x(const struct _lv_obj_t * obj, uint32_t part)
  68:Middlewares/lvgl/src/core/lv_obj_style_gen.h **** {
  69:Middlewares/lvgl/src/core/lv_obj_style_gen.h ****     lv_style_value_t v = lv_obj_get_style_prop(obj, part, LV_STYLE_TRANSLATE_X);
  70:Middlewares/lvgl/src/core/lv_obj_style_gen.h ****     return (lv_coord_t)v.num;
  71:Middlewares/lvgl/src/core/lv_obj_style_gen.h **** }
  72:Middlewares/lvgl/src/core/lv_obj_style_gen.h **** 
  73:Middlewares/lvgl/src/core/lv_obj_style_gen.h **** static inline lv_coord_t lv_obj_get_style_translate_y(const struct _lv_obj_t * obj, uint32_t part)
  74:Middlewares/lvgl/src/core/lv_obj_style_gen.h **** {
  75:Middlewares/lvgl/src/core/lv_obj_style_gen.h ****     lv_style_value_t v = lv_obj_get_style_prop(obj, part, LV_STYLE_TRANSLATE_Y);
  76:Middlewares/lvgl/src/core/lv_obj_style_gen.h ****     return (lv_coord_t)v.num;
  77:Middlewares/lvgl/src/core/lv_obj_style_gen.h **** }
  78:Middlewares/lvgl/src/core/lv_obj_style_gen.h **** 
  79:Middlewares/lvgl/src/core/lv_obj_style_gen.h **** static inline lv_coord_t lv_obj_get_style_transform_zoom(const struct _lv_obj_t * obj, uint32_t par
  80:Middlewares/lvgl/src/core/lv_obj_style_gen.h **** {
ARM GAS  /tmp/ccmgRVpn.s 			page 11


  81:Middlewares/lvgl/src/core/lv_obj_style_gen.h ****     lv_style_value_t v = lv_obj_get_style_prop(obj, part, LV_STYLE_TRANSFORM_ZOOM);
  82:Middlewares/lvgl/src/core/lv_obj_style_gen.h ****     return (lv_coord_t)v.num;
  83:Middlewares/lvgl/src/core/lv_obj_style_gen.h **** }
  84:Middlewares/lvgl/src/core/lv_obj_style_gen.h **** 
  85:Middlewares/lvgl/src/core/lv_obj_style_gen.h **** static inline lv_coord_t lv_obj_get_style_transform_angle(const struct _lv_obj_t * obj, uint32_t pa
  86:Middlewares/lvgl/src/core/lv_obj_style_gen.h **** {
  87:Middlewares/lvgl/src/core/lv_obj_style_gen.h ****     lv_style_value_t v = lv_obj_get_style_prop(obj, part, LV_STYLE_TRANSFORM_ANGLE);
  88:Middlewares/lvgl/src/core/lv_obj_style_gen.h ****     return (lv_coord_t)v.num;
  89:Middlewares/lvgl/src/core/lv_obj_style_gen.h **** }
  90:Middlewares/lvgl/src/core/lv_obj_style_gen.h **** 
  91:Middlewares/lvgl/src/core/lv_obj_style_gen.h **** static inline lv_coord_t lv_obj_get_style_pad_top(const struct _lv_obj_t * obj, uint32_t part)
  92:Middlewares/lvgl/src/core/lv_obj_style_gen.h **** {
  93:Middlewares/lvgl/src/core/lv_obj_style_gen.h ****     lv_style_value_t v = lv_obj_get_style_prop(obj, part, LV_STYLE_PAD_TOP);
  94:Middlewares/lvgl/src/core/lv_obj_style_gen.h ****     return (lv_coord_t)v.num;
  95:Middlewares/lvgl/src/core/lv_obj_style_gen.h **** }
  96:Middlewares/lvgl/src/core/lv_obj_style_gen.h **** 
  97:Middlewares/lvgl/src/core/lv_obj_style_gen.h **** static inline lv_coord_t lv_obj_get_style_pad_bottom(const struct _lv_obj_t * obj, uint32_t part)
  98:Middlewares/lvgl/src/core/lv_obj_style_gen.h **** {
  99:Middlewares/lvgl/src/core/lv_obj_style_gen.h ****     lv_style_value_t v = lv_obj_get_style_prop(obj, part, LV_STYLE_PAD_BOTTOM);
 100:Middlewares/lvgl/src/core/lv_obj_style_gen.h ****     return (lv_coord_t)v.num;
 101:Middlewares/lvgl/src/core/lv_obj_style_gen.h **** }
 102:Middlewares/lvgl/src/core/lv_obj_style_gen.h **** 
 103:Middlewares/lvgl/src/core/lv_obj_style_gen.h **** static inline lv_coord_t lv_obj_get_style_pad_left(const struct _lv_obj_t * obj, uint32_t part)
 246              		.loc 2 103 26 view .LVU48
 247              	.LBB122:
 104:Middlewares/lvgl/src/core/lv_obj_style_gen.h **** {
 105:Middlewares/lvgl/src/core/lv_obj_style_gen.h ****     lv_style_value_t v = lv_obj_get_style_prop(obj, part, LV_STYLE_PAD_LEFT);
 248              		.loc 2 105 5 view .LVU49
 249              		.loc 2 105 26 is_stmt 0 view .LVU50
 250 0006 41F21202 		movw	r2, #4114
 251 000a 0021     		movs	r1, #0
 252              	.LVL17:
 253              		.loc 2 105 26 view .LVU51
 254 000c FFF7FEFF 		bl	lv_obj_get_style_prop
 255              	.LVL18:
 256              		.loc 2 105 26 view .LVU52
 257 0010 0746     		mov	r7, r0
 258              	.LVL19:
 106:Middlewares/lvgl/src/core/lv_obj_style_gen.h ****     return (lv_coord_t)v.num;
 259              		.loc 2 106 5 is_stmt 1 view .LVU53
 260              		.loc 2 106 5 is_stmt 0 view .LVU54
 261              	.LBE122:
 262              	.LBE121:
 240:Middlewares/lvgl/src/core/lv_obj_pos.c ****     lv_coord_t pright = lv_obj_get_style_pad_right(obj, LV_PART_MAIN);
 263              		.loc 1 240 5 is_stmt 1 view .LVU55
 264              	.LBB123:
 265              	.LBI123:
 107:Middlewares/lvgl/src/core/lv_obj_style_gen.h **** }
 108:Middlewares/lvgl/src/core/lv_obj_style_gen.h **** 
 109:Middlewares/lvgl/src/core/lv_obj_style_gen.h **** static inline lv_coord_t lv_obj_get_style_pad_right(const struct _lv_obj_t * obj, uint32_t part)
 266              		.loc 2 109 26 view .LVU56
 267              	.LBB124:
 110:Middlewares/lvgl/src/core/lv_obj_style_gen.h **** {
 111:Middlewares/lvgl/src/core/lv_obj_style_gen.h ****     lv_style_value_t v = lv_obj_get_style_prop(obj, part, LV_STYLE_PAD_RIGHT);
 268              		.loc 2 111 5 view .LVU57
 269              		.loc 2 111 26 is_stmt 0 view .LVU58
 270 0012 41F21302 		movw	r2, #4115
ARM GAS  /tmp/ccmgRVpn.s 			page 12


 271 0016 0021     		movs	r1, #0
 272 0018 2846     		mov	r0, r5
 273 001a FFF7FEFF 		bl	lv_obj_get_style_prop
 274              	.LVL20:
 275 001e 0646     		mov	r6, r0
 276              	.LVL21:
 112:Middlewares/lvgl/src/core/lv_obj_style_gen.h ****     return (lv_coord_t)v.num;
 277              		.loc 2 112 5 is_stmt 1 view .LVU59
 278              		.loc 2 112 5 is_stmt 0 view .LVU60
 279              	.LBE124:
 280              	.LBE123:
 241:Middlewares/lvgl/src/core/lv_obj_pos.c ****     lv_coord_t border_width = lv_obj_get_style_border_width(obj, LV_PART_MAIN);
 281              		.loc 1 241 5 is_stmt 1 view .LVU61
 282              	.LBB125:
 283              	.LBI125:
 113:Middlewares/lvgl/src/core/lv_obj_style_gen.h **** }
 114:Middlewares/lvgl/src/core/lv_obj_style_gen.h **** 
 115:Middlewares/lvgl/src/core/lv_obj_style_gen.h **** static inline lv_coord_t lv_obj_get_style_pad_row(const struct _lv_obj_t * obj, uint32_t part)
 116:Middlewares/lvgl/src/core/lv_obj_style_gen.h **** {
 117:Middlewares/lvgl/src/core/lv_obj_style_gen.h ****     lv_style_value_t v = lv_obj_get_style_prop(obj, part, LV_STYLE_PAD_ROW);
 118:Middlewares/lvgl/src/core/lv_obj_style_gen.h ****     return (lv_coord_t)v.num;
 119:Middlewares/lvgl/src/core/lv_obj_style_gen.h **** }
 120:Middlewares/lvgl/src/core/lv_obj_style_gen.h **** 
 121:Middlewares/lvgl/src/core/lv_obj_style_gen.h **** static inline lv_coord_t lv_obj_get_style_pad_column(const struct _lv_obj_t * obj, uint32_t part)
 122:Middlewares/lvgl/src/core/lv_obj_style_gen.h **** {
 123:Middlewares/lvgl/src/core/lv_obj_style_gen.h ****     lv_style_value_t v = lv_obj_get_style_prop(obj, part, LV_STYLE_PAD_COLUMN);
 124:Middlewares/lvgl/src/core/lv_obj_style_gen.h ****     return (lv_coord_t)v.num;
 125:Middlewares/lvgl/src/core/lv_obj_style_gen.h **** }
 126:Middlewares/lvgl/src/core/lv_obj_style_gen.h **** 
 127:Middlewares/lvgl/src/core/lv_obj_style_gen.h **** static inline lv_coord_t lv_obj_get_style_radius(const struct _lv_obj_t * obj, uint32_t part)
 128:Middlewares/lvgl/src/core/lv_obj_style_gen.h **** {
 129:Middlewares/lvgl/src/core/lv_obj_style_gen.h ****     lv_style_value_t v = lv_obj_get_style_prop(obj, part, LV_STYLE_RADIUS);
 130:Middlewares/lvgl/src/core/lv_obj_style_gen.h ****     return (lv_coord_t)v.num;
 131:Middlewares/lvgl/src/core/lv_obj_style_gen.h **** }
 132:Middlewares/lvgl/src/core/lv_obj_style_gen.h **** 
 133:Middlewares/lvgl/src/core/lv_obj_style_gen.h **** static inline bool lv_obj_get_style_clip_corner(const struct _lv_obj_t * obj, uint32_t part)
 134:Middlewares/lvgl/src/core/lv_obj_style_gen.h **** {
 135:Middlewares/lvgl/src/core/lv_obj_style_gen.h ****     lv_style_value_t v = lv_obj_get_style_prop(obj, part, LV_STYLE_CLIP_CORNER);
 136:Middlewares/lvgl/src/core/lv_obj_style_gen.h ****     return (bool)v.num;
 137:Middlewares/lvgl/src/core/lv_obj_style_gen.h **** }
 138:Middlewares/lvgl/src/core/lv_obj_style_gen.h **** 
 139:Middlewares/lvgl/src/core/lv_obj_style_gen.h **** static inline lv_opa_t lv_obj_get_style_opa(const struct _lv_obj_t * obj, uint32_t part)
 140:Middlewares/lvgl/src/core/lv_obj_style_gen.h **** {
 141:Middlewares/lvgl/src/core/lv_obj_style_gen.h ****     lv_style_value_t v = lv_obj_get_style_prop(obj, part, LV_STYLE_OPA);
 142:Middlewares/lvgl/src/core/lv_obj_style_gen.h ****     return (lv_opa_t)v.num;
 143:Middlewares/lvgl/src/core/lv_obj_style_gen.h **** }
 144:Middlewares/lvgl/src/core/lv_obj_style_gen.h **** 
 145:Middlewares/lvgl/src/core/lv_obj_style_gen.h **** static inline const lv_color_filter_dsc_t * lv_obj_get_style_color_filter_dsc(const struct _lv_obj_
 146:Middlewares/lvgl/src/core/lv_obj_style_gen.h **** {
 147:Middlewares/lvgl/src/core/lv_obj_style_gen.h ****     lv_style_value_t v = lv_obj_get_style_prop(obj, part, LV_STYLE_COLOR_FILTER_DSC);
 148:Middlewares/lvgl/src/core/lv_obj_style_gen.h ****     return (const lv_color_filter_dsc_t *)v.ptr;
 149:Middlewares/lvgl/src/core/lv_obj_style_gen.h **** }
 150:Middlewares/lvgl/src/core/lv_obj_style_gen.h **** 
 151:Middlewares/lvgl/src/core/lv_obj_style_gen.h **** static inline lv_opa_t lv_obj_get_style_color_filter_opa(const struct _lv_obj_t * obj, uint32_t par
 152:Middlewares/lvgl/src/core/lv_obj_style_gen.h **** {
 153:Middlewares/lvgl/src/core/lv_obj_style_gen.h ****     lv_style_value_t v = lv_obj_get_style_prop(obj, part, LV_STYLE_COLOR_FILTER_OPA);
 154:Middlewares/lvgl/src/core/lv_obj_style_gen.h ****     return (lv_opa_t)v.num;
ARM GAS  /tmp/ccmgRVpn.s 			page 13


 155:Middlewares/lvgl/src/core/lv_obj_style_gen.h **** }
 156:Middlewares/lvgl/src/core/lv_obj_style_gen.h **** 
 157:Middlewares/lvgl/src/core/lv_obj_style_gen.h **** static inline uint32_t lv_obj_get_style_anim_time(const struct _lv_obj_t * obj, uint32_t part)
 158:Middlewares/lvgl/src/core/lv_obj_style_gen.h **** {
 159:Middlewares/lvgl/src/core/lv_obj_style_gen.h ****     lv_style_value_t v = lv_obj_get_style_prop(obj, part, LV_STYLE_ANIM_TIME);
 160:Middlewares/lvgl/src/core/lv_obj_style_gen.h ****     return (uint32_t)v.num;
 161:Middlewares/lvgl/src/core/lv_obj_style_gen.h **** }
 162:Middlewares/lvgl/src/core/lv_obj_style_gen.h **** 
 163:Middlewares/lvgl/src/core/lv_obj_style_gen.h **** static inline uint32_t lv_obj_get_style_anim_speed(const struct _lv_obj_t * obj, uint32_t part)
 164:Middlewares/lvgl/src/core/lv_obj_style_gen.h **** {
 165:Middlewares/lvgl/src/core/lv_obj_style_gen.h ****     lv_style_value_t v = lv_obj_get_style_prop(obj, part, LV_STYLE_ANIM_SPEED);
 166:Middlewares/lvgl/src/core/lv_obj_style_gen.h ****     return (uint32_t)v.num;
 167:Middlewares/lvgl/src/core/lv_obj_style_gen.h **** }
 168:Middlewares/lvgl/src/core/lv_obj_style_gen.h **** 
 169:Middlewares/lvgl/src/core/lv_obj_style_gen.h **** static inline const lv_style_transition_dsc_t * lv_obj_get_style_transition(const struct _lv_obj_t 
 170:Middlewares/lvgl/src/core/lv_obj_style_gen.h **** {
 171:Middlewares/lvgl/src/core/lv_obj_style_gen.h ****     lv_style_value_t v = lv_obj_get_style_prop(obj, part, LV_STYLE_TRANSITION);
 172:Middlewares/lvgl/src/core/lv_obj_style_gen.h ****     return (const lv_style_transition_dsc_t *)v.ptr;
 173:Middlewares/lvgl/src/core/lv_obj_style_gen.h **** }
 174:Middlewares/lvgl/src/core/lv_obj_style_gen.h **** 
 175:Middlewares/lvgl/src/core/lv_obj_style_gen.h **** static inline lv_blend_mode_t lv_obj_get_style_blend_mode(const struct _lv_obj_t * obj, uint32_t pa
 176:Middlewares/lvgl/src/core/lv_obj_style_gen.h **** {
 177:Middlewares/lvgl/src/core/lv_obj_style_gen.h ****     lv_style_value_t v = lv_obj_get_style_prop(obj, part, LV_STYLE_BLEND_MODE);
 178:Middlewares/lvgl/src/core/lv_obj_style_gen.h ****     return (lv_blend_mode_t)v.num;
 179:Middlewares/lvgl/src/core/lv_obj_style_gen.h **** }
 180:Middlewares/lvgl/src/core/lv_obj_style_gen.h **** 
 181:Middlewares/lvgl/src/core/lv_obj_style_gen.h **** static inline uint16_t lv_obj_get_style_layout(const struct _lv_obj_t * obj, uint32_t part)
 182:Middlewares/lvgl/src/core/lv_obj_style_gen.h **** {
 183:Middlewares/lvgl/src/core/lv_obj_style_gen.h ****     lv_style_value_t v = lv_obj_get_style_prop(obj, part, LV_STYLE_LAYOUT);
 184:Middlewares/lvgl/src/core/lv_obj_style_gen.h ****     return (uint16_t)v.num;
 185:Middlewares/lvgl/src/core/lv_obj_style_gen.h **** }
 186:Middlewares/lvgl/src/core/lv_obj_style_gen.h **** 
 187:Middlewares/lvgl/src/core/lv_obj_style_gen.h **** static inline lv_base_dir_t lv_obj_get_style_base_dir(const struct _lv_obj_t * obj, uint32_t part)
 188:Middlewares/lvgl/src/core/lv_obj_style_gen.h **** {
 189:Middlewares/lvgl/src/core/lv_obj_style_gen.h ****     lv_style_value_t v = lv_obj_get_style_prop(obj, part, LV_STYLE_BASE_DIR);
 190:Middlewares/lvgl/src/core/lv_obj_style_gen.h ****     return (lv_base_dir_t)v.num;
 191:Middlewares/lvgl/src/core/lv_obj_style_gen.h **** }
 192:Middlewares/lvgl/src/core/lv_obj_style_gen.h **** 
 193:Middlewares/lvgl/src/core/lv_obj_style_gen.h **** static inline lv_color_t lv_obj_get_style_bg_color(const struct _lv_obj_t * obj, uint32_t part)
 194:Middlewares/lvgl/src/core/lv_obj_style_gen.h **** {
 195:Middlewares/lvgl/src/core/lv_obj_style_gen.h ****     lv_style_value_t v = lv_obj_get_style_prop(obj, part, LV_STYLE_BG_COLOR);
 196:Middlewares/lvgl/src/core/lv_obj_style_gen.h ****     return v.color;
 197:Middlewares/lvgl/src/core/lv_obj_style_gen.h **** }
 198:Middlewares/lvgl/src/core/lv_obj_style_gen.h **** 
 199:Middlewares/lvgl/src/core/lv_obj_style_gen.h **** static inline lv_color_t lv_obj_get_style_bg_color_filtered(const struct _lv_obj_t * obj, uint32_t 
 200:Middlewares/lvgl/src/core/lv_obj_style_gen.h **** {
 201:Middlewares/lvgl/src/core/lv_obj_style_gen.h ****     lv_style_value_t v = lv_obj_get_style_prop(obj, part, LV_STYLE_BG_COLOR_FILTERED);
 202:Middlewares/lvgl/src/core/lv_obj_style_gen.h ****     return v.color;
 203:Middlewares/lvgl/src/core/lv_obj_style_gen.h **** }
 204:Middlewares/lvgl/src/core/lv_obj_style_gen.h **** 
 205:Middlewares/lvgl/src/core/lv_obj_style_gen.h **** static inline lv_opa_t lv_obj_get_style_bg_opa(const struct _lv_obj_t * obj, uint32_t part)
 206:Middlewares/lvgl/src/core/lv_obj_style_gen.h **** {
 207:Middlewares/lvgl/src/core/lv_obj_style_gen.h ****     lv_style_value_t v = lv_obj_get_style_prop(obj, part, LV_STYLE_BG_OPA);
 208:Middlewares/lvgl/src/core/lv_obj_style_gen.h ****     return (lv_opa_t)v.num;
 209:Middlewares/lvgl/src/core/lv_obj_style_gen.h **** }
 210:Middlewares/lvgl/src/core/lv_obj_style_gen.h **** 
 211:Middlewares/lvgl/src/core/lv_obj_style_gen.h **** static inline lv_color_t lv_obj_get_style_bg_grad_color(const struct _lv_obj_t * obj, uint32_t part
ARM GAS  /tmp/ccmgRVpn.s 			page 14


 212:Middlewares/lvgl/src/core/lv_obj_style_gen.h **** {
 213:Middlewares/lvgl/src/core/lv_obj_style_gen.h ****     lv_style_value_t v = lv_obj_get_style_prop(obj, part, LV_STYLE_BG_GRAD_COLOR);
 214:Middlewares/lvgl/src/core/lv_obj_style_gen.h ****     return v.color;
 215:Middlewares/lvgl/src/core/lv_obj_style_gen.h **** }
 216:Middlewares/lvgl/src/core/lv_obj_style_gen.h **** 
 217:Middlewares/lvgl/src/core/lv_obj_style_gen.h **** static inline lv_color_t lv_obj_get_style_bg_grad_color_filtered(const struct _lv_obj_t * obj, uint
 218:Middlewares/lvgl/src/core/lv_obj_style_gen.h **** {
 219:Middlewares/lvgl/src/core/lv_obj_style_gen.h ****     lv_style_value_t v = lv_obj_get_style_prop(obj, part, LV_STYLE_BG_GRAD_COLOR_FILTERED);
 220:Middlewares/lvgl/src/core/lv_obj_style_gen.h ****     return v.color;
 221:Middlewares/lvgl/src/core/lv_obj_style_gen.h **** }
 222:Middlewares/lvgl/src/core/lv_obj_style_gen.h **** 
 223:Middlewares/lvgl/src/core/lv_obj_style_gen.h **** static inline lv_grad_dir_t lv_obj_get_style_bg_grad_dir(const struct _lv_obj_t * obj, uint32_t par
 224:Middlewares/lvgl/src/core/lv_obj_style_gen.h **** {
 225:Middlewares/lvgl/src/core/lv_obj_style_gen.h ****     lv_style_value_t v = lv_obj_get_style_prop(obj, part, LV_STYLE_BG_GRAD_DIR);
 226:Middlewares/lvgl/src/core/lv_obj_style_gen.h ****     return (lv_grad_dir_t)v.num;
 227:Middlewares/lvgl/src/core/lv_obj_style_gen.h **** }
 228:Middlewares/lvgl/src/core/lv_obj_style_gen.h **** 
 229:Middlewares/lvgl/src/core/lv_obj_style_gen.h **** static inline lv_coord_t lv_obj_get_style_bg_main_stop(const struct _lv_obj_t * obj, uint32_t part)
 230:Middlewares/lvgl/src/core/lv_obj_style_gen.h **** {
 231:Middlewares/lvgl/src/core/lv_obj_style_gen.h ****     lv_style_value_t v = lv_obj_get_style_prop(obj, part, LV_STYLE_BG_MAIN_STOP);
 232:Middlewares/lvgl/src/core/lv_obj_style_gen.h ****     return (lv_coord_t)v.num;
 233:Middlewares/lvgl/src/core/lv_obj_style_gen.h **** }
 234:Middlewares/lvgl/src/core/lv_obj_style_gen.h **** 
 235:Middlewares/lvgl/src/core/lv_obj_style_gen.h **** static inline lv_coord_t lv_obj_get_style_bg_grad_stop(const struct _lv_obj_t * obj, uint32_t part)
 236:Middlewares/lvgl/src/core/lv_obj_style_gen.h **** {
 237:Middlewares/lvgl/src/core/lv_obj_style_gen.h ****     lv_style_value_t v = lv_obj_get_style_prop(obj, part, LV_STYLE_BG_GRAD_STOP);
 238:Middlewares/lvgl/src/core/lv_obj_style_gen.h ****     return (lv_coord_t)v.num;
 239:Middlewares/lvgl/src/core/lv_obj_style_gen.h **** }
 240:Middlewares/lvgl/src/core/lv_obj_style_gen.h **** 
 241:Middlewares/lvgl/src/core/lv_obj_style_gen.h **** static inline const void * lv_obj_get_style_bg_img_src(const struct _lv_obj_t * obj, uint32_t part)
 242:Middlewares/lvgl/src/core/lv_obj_style_gen.h **** {
 243:Middlewares/lvgl/src/core/lv_obj_style_gen.h ****     lv_style_value_t v = lv_obj_get_style_prop(obj, part, LV_STYLE_BG_IMG_SRC);
 244:Middlewares/lvgl/src/core/lv_obj_style_gen.h ****     return (const void *)v.ptr;
 245:Middlewares/lvgl/src/core/lv_obj_style_gen.h **** }
 246:Middlewares/lvgl/src/core/lv_obj_style_gen.h **** 
 247:Middlewares/lvgl/src/core/lv_obj_style_gen.h **** static inline lv_opa_t lv_obj_get_style_bg_img_opa(const struct _lv_obj_t * obj, uint32_t part)
 248:Middlewares/lvgl/src/core/lv_obj_style_gen.h **** {
 249:Middlewares/lvgl/src/core/lv_obj_style_gen.h ****     lv_style_value_t v = lv_obj_get_style_prop(obj, part, LV_STYLE_BG_IMG_OPA);
 250:Middlewares/lvgl/src/core/lv_obj_style_gen.h ****     return (lv_opa_t)v.num;
 251:Middlewares/lvgl/src/core/lv_obj_style_gen.h **** }
 252:Middlewares/lvgl/src/core/lv_obj_style_gen.h **** 
 253:Middlewares/lvgl/src/core/lv_obj_style_gen.h **** static inline lv_color_t lv_obj_get_style_bg_img_recolor(const struct _lv_obj_t * obj, uint32_t par
 254:Middlewares/lvgl/src/core/lv_obj_style_gen.h **** {
 255:Middlewares/lvgl/src/core/lv_obj_style_gen.h ****     lv_style_value_t v = lv_obj_get_style_prop(obj, part, LV_STYLE_BG_IMG_RECOLOR);
 256:Middlewares/lvgl/src/core/lv_obj_style_gen.h ****     return v.color;
 257:Middlewares/lvgl/src/core/lv_obj_style_gen.h **** }
 258:Middlewares/lvgl/src/core/lv_obj_style_gen.h **** 
 259:Middlewares/lvgl/src/core/lv_obj_style_gen.h **** static inline lv_color_t lv_obj_get_style_bg_img_recolor_filtered(const struct _lv_obj_t * obj, uin
 260:Middlewares/lvgl/src/core/lv_obj_style_gen.h **** {
 261:Middlewares/lvgl/src/core/lv_obj_style_gen.h ****     lv_style_value_t v = lv_obj_get_style_prop(obj, part, LV_STYLE_BG_IMG_RECOLOR_FILTERED);
 262:Middlewares/lvgl/src/core/lv_obj_style_gen.h ****     return v.color;
 263:Middlewares/lvgl/src/core/lv_obj_style_gen.h **** }
 264:Middlewares/lvgl/src/core/lv_obj_style_gen.h **** 
 265:Middlewares/lvgl/src/core/lv_obj_style_gen.h **** static inline lv_opa_t lv_obj_get_style_bg_img_recolor_opa(const struct _lv_obj_t * obj, uint32_t p
 266:Middlewares/lvgl/src/core/lv_obj_style_gen.h **** {
 267:Middlewares/lvgl/src/core/lv_obj_style_gen.h ****     lv_style_value_t v = lv_obj_get_style_prop(obj, part, LV_STYLE_BG_IMG_RECOLOR_OPA);
 268:Middlewares/lvgl/src/core/lv_obj_style_gen.h ****     return (lv_opa_t)v.num;
ARM GAS  /tmp/ccmgRVpn.s 			page 15


 269:Middlewares/lvgl/src/core/lv_obj_style_gen.h **** }
 270:Middlewares/lvgl/src/core/lv_obj_style_gen.h **** 
 271:Middlewares/lvgl/src/core/lv_obj_style_gen.h **** static inline bool lv_obj_get_style_bg_img_tiled(const struct _lv_obj_t * obj, uint32_t part)
 272:Middlewares/lvgl/src/core/lv_obj_style_gen.h **** {
 273:Middlewares/lvgl/src/core/lv_obj_style_gen.h ****     lv_style_value_t v = lv_obj_get_style_prop(obj, part, LV_STYLE_BG_IMG_TILED);
 274:Middlewares/lvgl/src/core/lv_obj_style_gen.h ****     return (bool)v.num;
 275:Middlewares/lvgl/src/core/lv_obj_style_gen.h **** }
 276:Middlewares/lvgl/src/core/lv_obj_style_gen.h **** 
 277:Middlewares/lvgl/src/core/lv_obj_style_gen.h **** static inline lv_color_t lv_obj_get_style_border_color(const struct _lv_obj_t * obj, uint32_t part)
 278:Middlewares/lvgl/src/core/lv_obj_style_gen.h **** {
 279:Middlewares/lvgl/src/core/lv_obj_style_gen.h ****     lv_style_value_t v = lv_obj_get_style_prop(obj, part, LV_STYLE_BORDER_COLOR);
 280:Middlewares/lvgl/src/core/lv_obj_style_gen.h ****     return v.color;
 281:Middlewares/lvgl/src/core/lv_obj_style_gen.h **** }
 282:Middlewares/lvgl/src/core/lv_obj_style_gen.h **** 
 283:Middlewares/lvgl/src/core/lv_obj_style_gen.h **** static inline lv_color_t lv_obj_get_style_border_color_filtered(const struct _lv_obj_t * obj, uint3
 284:Middlewares/lvgl/src/core/lv_obj_style_gen.h **** {
 285:Middlewares/lvgl/src/core/lv_obj_style_gen.h ****     lv_style_value_t v = lv_obj_get_style_prop(obj, part, LV_STYLE_BORDER_COLOR_FILTERED);
 286:Middlewares/lvgl/src/core/lv_obj_style_gen.h ****     return v.color;
 287:Middlewares/lvgl/src/core/lv_obj_style_gen.h **** }
 288:Middlewares/lvgl/src/core/lv_obj_style_gen.h **** 
 289:Middlewares/lvgl/src/core/lv_obj_style_gen.h **** static inline lv_opa_t lv_obj_get_style_border_opa(const struct _lv_obj_t * obj, uint32_t part)
 290:Middlewares/lvgl/src/core/lv_obj_style_gen.h **** {
 291:Middlewares/lvgl/src/core/lv_obj_style_gen.h ****     lv_style_value_t v = lv_obj_get_style_prop(obj, part, LV_STYLE_BORDER_OPA);
 292:Middlewares/lvgl/src/core/lv_obj_style_gen.h ****     return (lv_opa_t)v.num;
 293:Middlewares/lvgl/src/core/lv_obj_style_gen.h **** }
 294:Middlewares/lvgl/src/core/lv_obj_style_gen.h **** 
 295:Middlewares/lvgl/src/core/lv_obj_style_gen.h **** static inline lv_coord_t lv_obj_get_style_border_width(const struct _lv_obj_t * obj, uint32_t part)
 284              		.loc 2 295 26 view .LVU62
 285              	.LBB126:
 296:Middlewares/lvgl/src/core/lv_obj_style_gen.h **** {
 297:Middlewares/lvgl/src/core/lv_obj_style_gen.h ****     lv_style_value_t v = lv_obj_get_style_prop(obj, part, LV_STYLE_BORDER_WIDTH);
 286              		.loc 2 297 5 view .LVU63
 287              		.loc 2 297 26 is_stmt 0 view .LVU64
 288 0020 41F23202 		movw	r2, #4146
 289 0024 0021     		movs	r1, #0
 290 0026 2846     		mov	r0, r5
 291 0028 FFF7FEFF 		bl	lv_obj_get_style_prop
 292              	.LVL22:
 298:Middlewares/lvgl/src/core/lv_obj_style_gen.h ****     return (lv_coord_t)v.num;
 293              		.loc 2 298 5 is_stmt 1 view .LVU65
 294              		.loc 2 298 5 is_stmt 0 view .LVU66
 295              	.LBE126:
 296              	.LBE125:
 242:Middlewares/lvgl/src/core/lv_obj_pos.c **** 
 243:Middlewares/lvgl/src/core/lv_obj_pos.c ****     lv_obj_set_width(obj, w + pleft + pright + 2 * border_width);
 297              		.loc 1 243 5 is_stmt 1 view .LVU67
 298              		.loc 1 243 29 is_stmt 0 view .LVU68
 299 002c E119     		adds	r1, r4, r7
 300              		.loc 1 243 37 view .LVU69
 301 002e 16FA81F1 		uxtah	r1, r6, r1
 302              		.loc 1 243 50 view .LVU70
 303 0032 4000     		lsls	r0, r0, #1
 304              	.LVL23:
 305              		.loc 1 243 50 view .LVU71
 306 0034 80B2     		uxth	r0, r0
 307              		.loc 1 243 46 view .LVU72
 308 0036 10FA81F1 		uxtah	r1, r0, r1
ARM GAS  /tmp/ccmgRVpn.s 			page 16


 309              		.loc 1 243 5 view .LVU73
 310 003a 09B2     		sxth	r1, r1
 311 003c 2846     		mov	r0, r5
 312 003e FFF7FEFF 		bl	lv_obj_set_width
 313              	.LVL24:
 244:Middlewares/lvgl/src/core/lv_obj_pos.c **** }
 314              		.loc 1 244 1 view .LVU74
 315 0042 F8BD     		pop	{r3, r4, r5, r6, r7, pc}
 316              		.loc 1 244 1 view .LVU75
 317              		.cfi_endproc
 318              	.LFE160:
 320              		.section	.text.lv_obj_set_content_height,"ax",%progbits
 321              		.align	1
 322              		.global	lv_obj_set_content_height
 323              		.syntax unified
 324              		.thumb
 325              		.thumb_func
 327              	lv_obj_set_content_height:
 328              	.LVL25:
 329              	.LFB161:
 245:Middlewares/lvgl/src/core/lv_obj_pos.c **** 
 246:Middlewares/lvgl/src/core/lv_obj_pos.c **** void lv_obj_set_content_height(lv_obj_t * obj, lv_coord_t h)
 247:Middlewares/lvgl/src/core/lv_obj_pos.c **** {
 330              		.loc 1 247 1 is_stmt 1 view -0
 331              		.cfi_startproc
 332              		@ args = 0, pretend = 0, frame = 0
 333              		@ frame_needed = 0, uses_anonymous_args = 0
 334              		.loc 1 247 1 is_stmt 0 view .LVU77
 335 0000 F8B5     		push	{r3, r4, r5, r6, r7, lr}
 336              	.LCFI10:
 337              		.cfi_def_cfa_offset 24
 338              		.cfi_offset 3, -24
 339              		.cfi_offset 4, -20
 340              		.cfi_offset 5, -16
 341              		.cfi_offset 6, -12
 342              		.cfi_offset 7, -8
 343              		.cfi_offset 14, -4
 344 0002 0546     		mov	r5, r0
 345 0004 0C46     		mov	r4, r1
 248:Middlewares/lvgl/src/core/lv_obj_pos.c ****     lv_coord_t ptop = lv_obj_get_style_pad_top(obj, LV_PART_MAIN);
 346              		.loc 1 248 5 is_stmt 1 view .LVU78
 347              	.LVL26:
 348              	.LBB127:
 349              	.LBI127:
  91:Middlewares/lvgl/src/core/lv_obj_style_gen.h **** {
 350              		.loc 2 91 26 view .LVU79
 351              	.LBB128:
  93:Middlewares/lvgl/src/core/lv_obj_style_gen.h ****     return (lv_coord_t)v.num;
 352              		.loc 2 93 5 view .LVU80
  93:Middlewares/lvgl/src/core/lv_obj_style_gen.h ****     return (lv_coord_t)v.num;
 353              		.loc 2 93 26 is_stmt 0 view .LVU81
 354 0006 41F21002 		movw	r2, #4112
 355 000a 0021     		movs	r1, #0
 356              	.LVL27:
  93:Middlewares/lvgl/src/core/lv_obj_style_gen.h ****     return (lv_coord_t)v.num;
 357              		.loc 2 93 26 view .LVU82
 358 000c FFF7FEFF 		bl	lv_obj_get_style_prop
ARM GAS  /tmp/ccmgRVpn.s 			page 17


 359              	.LVL28:
  93:Middlewares/lvgl/src/core/lv_obj_style_gen.h ****     return (lv_coord_t)v.num;
 360              		.loc 2 93 26 view .LVU83
 361 0010 0746     		mov	r7, r0
 362              	.LVL29:
  94:Middlewares/lvgl/src/core/lv_obj_style_gen.h **** }
 363              		.loc 2 94 5 is_stmt 1 view .LVU84
  94:Middlewares/lvgl/src/core/lv_obj_style_gen.h **** }
 364              		.loc 2 94 5 is_stmt 0 view .LVU85
 365              	.LBE128:
 366              	.LBE127:
 249:Middlewares/lvgl/src/core/lv_obj_pos.c ****     lv_coord_t pbottom = lv_obj_get_style_pad_bottom(obj, LV_PART_MAIN);
 367              		.loc 1 249 5 is_stmt 1 view .LVU86
 368              	.LBB129:
 369              	.LBI129:
  97:Middlewares/lvgl/src/core/lv_obj_style_gen.h **** {
 370              		.loc 2 97 26 view .LVU87
 371              	.LBB130:
  99:Middlewares/lvgl/src/core/lv_obj_style_gen.h ****     return (lv_coord_t)v.num;
 372              		.loc 2 99 5 view .LVU88
  99:Middlewares/lvgl/src/core/lv_obj_style_gen.h ****     return (lv_coord_t)v.num;
 373              		.loc 2 99 26 is_stmt 0 view .LVU89
 374 0012 41F21102 		movw	r2, #4113
 375 0016 0021     		movs	r1, #0
 376 0018 2846     		mov	r0, r5
 377 001a FFF7FEFF 		bl	lv_obj_get_style_prop
 378              	.LVL30:
 379 001e 0646     		mov	r6, r0
 380              	.LVL31:
 100:Middlewares/lvgl/src/core/lv_obj_style_gen.h **** }
 381              		.loc 2 100 5 is_stmt 1 view .LVU90
 100:Middlewares/lvgl/src/core/lv_obj_style_gen.h **** }
 382              		.loc 2 100 5 is_stmt 0 view .LVU91
 383              	.LBE130:
 384              	.LBE129:
 250:Middlewares/lvgl/src/core/lv_obj_pos.c ****     lv_coord_t border_width = lv_obj_get_style_border_width(obj, LV_PART_MAIN);
 385              		.loc 1 250 5 is_stmt 1 view .LVU92
 386              	.LBB131:
 387              	.LBI131:
 295:Middlewares/lvgl/src/core/lv_obj_style_gen.h **** {
 388              		.loc 2 295 26 view .LVU93
 389              	.LBB132:
 297:Middlewares/lvgl/src/core/lv_obj_style_gen.h ****     return (lv_coord_t)v.num;
 390              		.loc 2 297 5 view .LVU94
 297:Middlewares/lvgl/src/core/lv_obj_style_gen.h ****     return (lv_coord_t)v.num;
 391              		.loc 2 297 26 is_stmt 0 view .LVU95
 392 0020 41F23202 		movw	r2, #4146
 393 0024 0021     		movs	r1, #0
 394 0026 2846     		mov	r0, r5
 395 0028 FFF7FEFF 		bl	lv_obj_get_style_prop
 396              	.LVL32:
 397              		.loc 2 298 5 is_stmt 1 view .LVU96
 398              		.loc 2 298 5 is_stmt 0 view .LVU97
 399              	.LBE132:
 400              	.LBE131:
 251:Middlewares/lvgl/src/core/lv_obj_pos.c **** 
 252:Middlewares/lvgl/src/core/lv_obj_pos.c ****     lv_obj_set_height(obj, h + ptop + pbottom + 2 * border_width);
ARM GAS  /tmp/ccmgRVpn.s 			page 18


 401              		.loc 1 252 5 is_stmt 1 view .LVU98
 402              		.loc 1 252 30 is_stmt 0 view .LVU99
 403 002c E119     		adds	r1, r4, r7
 404              		.loc 1 252 37 view .LVU100
 405 002e 16FA81F1 		uxtah	r1, r6, r1
 406              		.loc 1 252 51 view .LVU101
 407 0032 4000     		lsls	r0, r0, #1
 408              	.LVL33:
 409              		.loc 1 252 51 view .LVU102
 410 0034 80B2     		uxth	r0, r0
 411              		.loc 1 252 47 view .LVU103
 412 0036 10FA81F1 		uxtah	r1, r0, r1
 413              		.loc 1 252 5 view .LVU104
 414 003a 09B2     		sxth	r1, r1
 415 003c 2846     		mov	r0, r5
 416 003e FFF7FEFF 		bl	lv_obj_set_height
 417              	.LVL34:
 253:Middlewares/lvgl/src/core/lv_obj_pos.c **** }
 418              		.loc 1 253 1 view .LVU105
 419 0042 F8BD     		pop	{r3, r4, r5, r6, r7, pc}
 420              		.loc 1 253 1 view .LVU106
 421              		.cfi_endproc
 422              	.LFE161:
 424              		.section	.text.lv_obj_is_layout_positioned,"ax",%progbits
 425              		.align	1
 426              		.global	lv_obj_is_layout_positioned
 427              		.syntax unified
 428              		.thumb
 429              		.thumb_func
 431              	lv_obj_is_layout_positioned:
 432              	.LVL35:
 433              	.LFB163:
 254:Middlewares/lvgl/src/core/lv_obj_pos.c **** 
 255:Middlewares/lvgl/src/core/lv_obj_pos.c **** void lv_obj_set_layout(lv_obj_t * obj, uint32_t layout)
 256:Middlewares/lvgl/src/core/lv_obj_pos.c **** {
 257:Middlewares/lvgl/src/core/lv_obj_pos.c ****     LV_ASSERT_OBJ(obj, MY_CLASS);
 258:Middlewares/lvgl/src/core/lv_obj_pos.c **** 
 259:Middlewares/lvgl/src/core/lv_obj_pos.c ****     lv_obj_set_style_layout(obj, layout, 0);
 260:Middlewares/lvgl/src/core/lv_obj_pos.c **** 
 261:Middlewares/lvgl/src/core/lv_obj_pos.c ****     lv_obj_mark_layout_as_dirty(obj);
 262:Middlewares/lvgl/src/core/lv_obj_pos.c **** }
 263:Middlewares/lvgl/src/core/lv_obj_pos.c **** 
 264:Middlewares/lvgl/src/core/lv_obj_pos.c **** bool lv_obj_is_layout_positioned(const lv_obj_t * obj)
 265:Middlewares/lvgl/src/core/lv_obj_pos.c **** {
 434              		.loc 1 265 1 is_stmt 1 view -0
 435              		.cfi_startproc
 436              		@ args = 0, pretend = 0, frame = 0
 437              		@ frame_needed = 0, uses_anonymous_args = 0
 438              		.loc 1 265 1 is_stmt 0 view .LVU108
 439 0000 38B5     		push	{r3, r4, r5, lr}
 440              	.LCFI11:
 441              		.cfi_def_cfa_offset 16
 442              		.cfi_offset 3, -16
 443              		.cfi_offset 4, -12
 444              		.cfi_offset 5, -8
 445              		.cfi_offset 14, -4
 446 0002 0446     		mov	r4, r0
ARM GAS  /tmp/ccmgRVpn.s 			page 19


 266:Middlewares/lvgl/src/core/lv_obj_pos.c ****     if(lv_obj_has_flag_any(obj, LV_OBJ_FLAG_HIDDEN | LV_OBJ_FLAG_IGNORE_LAYOUT | LV_OBJ_FLAG_FLOATI
 447              		.loc 1 266 5 is_stmt 1 view .LVU109
 448              		.loc 1 266 8 is_stmt 0 view .LVU110
 449 0004 0B49     		ldr	r1, .L24
 450 0006 FFF7FEFF 		bl	lv_obj_has_flag_any
 451              	.LVL36:
 452              		.loc 1 266 7 view .LVU111
 453 000a 10B1     		cbz	r0, .L23
 454              		.loc 1 266 112 view .LVU112
 455 000c 0025     		movs	r5, #0
 456              	.L20:
 267:Middlewares/lvgl/src/core/lv_obj_pos.c **** 
 268:Middlewares/lvgl/src/core/lv_obj_pos.c ****     lv_obj_t * parent = lv_obj_get_parent(obj);
 269:Middlewares/lvgl/src/core/lv_obj_pos.c ****     if(parent == NULL) return false;
 270:Middlewares/lvgl/src/core/lv_obj_pos.c **** 
 271:Middlewares/lvgl/src/core/lv_obj_pos.c ****     uint32_t layout = lv_obj_get_style_layout(parent, LV_PART_MAIN);
 272:Middlewares/lvgl/src/core/lv_obj_pos.c ****     if(layout) return true;
 273:Middlewares/lvgl/src/core/lv_obj_pos.c ****     else return false;
 274:Middlewares/lvgl/src/core/lv_obj_pos.c **** }
 457              		.loc 1 274 1 view .LVU113
 458 000e 2846     		mov	r0, r5
 459 0010 38BD     		pop	{r3, r4, r5, pc}
 460              	.LVL37:
 461              	.L23:
 462              		.loc 1 274 1 view .LVU114
 463 0012 0546     		mov	r5, r0
 268:Middlewares/lvgl/src/core/lv_obj_pos.c ****     if(parent == NULL) return false;
 464              		.loc 1 268 5 is_stmt 1 view .LVU115
 268:Middlewares/lvgl/src/core/lv_obj_pos.c ****     if(parent == NULL) return false;
 465              		.loc 1 268 25 is_stmt 0 view .LVU116
 466 0014 2046     		mov	r0, r4
 467 0016 FFF7FEFF 		bl	lv_obj_get_parent
 468              	.LVL38:
 269:Middlewares/lvgl/src/core/lv_obj_pos.c **** 
 469              		.loc 1 269 5 is_stmt 1 view .LVU117
 269:Middlewares/lvgl/src/core/lv_obj_pos.c **** 
 470              		.loc 1 269 7 is_stmt 0 view .LVU118
 471 001a 0028     		cmp	r0, #0
 472 001c F7D0     		beq	.L20
 271:Middlewares/lvgl/src/core/lv_obj_pos.c ****     if(layout) return true;
 473              		.loc 1 271 5 is_stmt 1 view .LVU119
 474              	.LVL39:
 475              	.LBB133:
 476              	.LBI133:
 181:Middlewares/lvgl/src/core/lv_obj_style_gen.h **** {
 477              		.loc 2 181 24 view .LVU120
 478              	.LBB134:
 183:Middlewares/lvgl/src/core/lv_obj_style_gen.h ****     return (uint16_t)v.num;
 479              		.loc 2 183 5 view .LVU121
 183:Middlewares/lvgl/src/core/lv_obj_style_gen.h ****     return (uint16_t)v.num;
 480              		.loc 2 183 26 is_stmt 0 view .LVU122
 481 001e 41F26902 		movw	r2, #4201
 482 0022 0021     		movs	r1, #0
 483 0024 FFF7FEFF 		bl	lv_obj_get_style_prop
 484              	.LVL40:
 184:Middlewares/lvgl/src/core/lv_obj_style_gen.h **** }
 485              		.loc 2 184 5 is_stmt 1 view .LVU123
ARM GAS  /tmp/ccmgRVpn.s 			page 20


 184:Middlewares/lvgl/src/core/lv_obj_style_gen.h **** }
 486              		.loc 2 184 5 is_stmt 0 view .LVU124
 487              	.LBE134:
 488              	.LBE133:
 272:Middlewares/lvgl/src/core/lv_obj_pos.c ****     else return false;
 489              		.loc 1 272 5 is_stmt 1 view .LVU125
 272:Middlewares/lvgl/src/core/lv_obj_pos.c ****     else return false;
 490              		.loc 1 272 7 is_stmt 0 view .LVU126
 491 0028 80B2     		uxth	r0, r0
 492              	.LVL41:
 272:Middlewares/lvgl/src/core/lv_obj_pos.c ****     else return false;
 493              		.loc 1 272 7 view .LVU127
 494 002a 0028     		cmp	r0, #0
 495 002c EFD0     		beq	.L20
 272:Middlewares/lvgl/src/core/lv_obj_pos.c ****     else return false;
 496              		.loc 1 272 23 view .LVU128
 497 002e 0125     		movs	r5, #1
 498 0030 EDE7     		b	.L20
 499              	.L25:
 500 0032 00BF     		.align	2
 501              	.L24:
 502 0034 01800100 		.word	98305
 503              		.cfi_endproc
 504              	.LFE163:
 506              		.section	.text.lv_obj_set_x,"ax",%progbits
 507              		.align	1
 508              		.global	lv_obj_set_x
 509              		.syntax unified
 510              		.thumb
 511              		.thumb_func
 513              	lv_obj_set_x:
 514              	.LVL42:
 515              	.LFB154:
  51:Middlewares/lvgl/src/core/lv_obj_pos.c ****     LV_ASSERT_OBJ(obj, MY_CLASS);
 516              		.loc 1 51 1 is_stmt 1 view -0
 517              		.cfi_startproc
 518              		@ args = 0, pretend = 0, frame = 8
 519              		@ frame_needed = 0, uses_anonymous_args = 0
  51:Middlewares/lvgl/src/core/lv_obj_pos.c ****     LV_ASSERT_OBJ(obj, MY_CLASS);
 520              		.loc 1 51 1 is_stmt 0 view .LVU130
 521 0000 30B5     		push	{r4, r5, lr}
 522              	.LCFI12:
 523              		.cfi_def_cfa_offset 12
 524              		.cfi_offset 4, -12
 525              		.cfi_offset 5, -8
 526              		.cfi_offset 14, -4
 527 0002 83B0     		sub	sp, sp, #12
 528              	.LCFI13:
 529              		.cfi_def_cfa_offset 24
 530 0004 0446     		mov	r4, r0
 531 0006 0D46     		mov	r5, r1
  52:Middlewares/lvgl/src/core/lv_obj_pos.c ****     if(lv_obj_is_layout_positioned(obj)) {
 532              		.loc 1 52 5 is_stmt 1 view .LVU131
  52:Middlewares/lvgl/src/core/lv_obj_pos.c ****     if(lv_obj_is_layout_positioned(obj)) {
 533              		.loc 1 52 5 view .LVU132
  52:Middlewares/lvgl/src/core/lv_obj_pos.c ****     if(lv_obj_is_layout_positioned(obj)) {
 534              		.loc 1 52 5 view .LVU133
ARM GAS  /tmp/ccmgRVpn.s 			page 21


  53:Middlewares/lvgl/src/core/lv_obj_pos.c ****         return;
 535              		.loc 1 53 5 view .LVU134
  53:Middlewares/lvgl/src/core/lv_obj_pos.c ****         return;
 536              		.loc 1 53 8 is_stmt 0 view .LVU135
 537 0008 FFF7FEFF 		bl	lv_obj_is_layout_positioned
 538              	.LVL43:
  53:Middlewares/lvgl/src/core/lv_obj_pos.c ****         return;
 539              		.loc 1 53 7 view .LVU136
 540 000c 08B1     		cbz	r0, .L33
 541              	.L26:
  65:Middlewares/lvgl/src/core/lv_obj_pos.c **** 
 542              		.loc 1 65 1 view .LVU137
 543 000e 03B0     		add	sp, sp, #12
 544              	.LCFI14:
 545              		.cfi_remember_state
 546              		.cfi_def_cfa_offset 12
 547              		@ sp needed
 548 0010 30BD     		pop	{r4, r5, pc}
 549              	.LVL44:
 550              	.L33:
 551              	.LCFI15:
 552              		.cfi_restore_state
  57:Middlewares/lvgl/src/core/lv_obj_pos.c ****     lv_style_value_t v_x;
 553              		.loc 1 57 5 is_stmt 1 view .LVU138
  58:Middlewares/lvgl/src/core/lv_obj_pos.c **** 
 554              		.loc 1 58 5 view .LVU139
  60:Middlewares/lvgl/src/core/lv_obj_pos.c **** 
 555              		.loc 1 60 5 view .LVU140
  60:Middlewares/lvgl/src/core/lv_obj_pos.c **** 
 556              		.loc 1 60 13 is_stmt 0 view .LVU141
 557 0012 0023     		movs	r3, #0
 558 0014 01AA     		add	r2, sp, #4
 559 0016 41F20701 		movw	r1, #4103
 560 001a 2046     		mov	r0, r4
 561 001c FFF7FEFF 		bl	lv_obj_get_local_style_prop
 562              	.LVL45:
  62:Middlewares/lvgl/src/core/lv_obj_pos.c ****         lv_obj_set_style_x(obj, x, 0);
 563              		.loc 1 62 5 is_stmt 1 view .LVU142
  62:Middlewares/lvgl/src/core/lv_obj_pos.c ****         lv_obj_set_style_x(obj, x, 0);
 564              		.loc 1 62 7 is_stmt 0 view .LVU143
 565 0020 0128     		cmp	r0, #1
 566 0022 07D0     		beq	.L34
 567              	.L29:
  62:Middlewares/lvgl/src/core/lv_obj_pos.c ****         lv_obj_set_style_x(obj, x, 0);
 568              		.loc 1 62 45 discriminator 3 view .LVU144
 569 0024 0028     		cmp	r0, #0
 570 0026 F2D1     		bne	.L26
 571              	.L30:
  63:Middlewares/lvgl/src/core/lv_obj_pos.c ****     }
 572              		.loc 1 63 9 is_stmt 1 view .LVU145
 573 0028 0022     		movs	r2, #0
 574 002a 2946     		mov	r1, r5
 575 002c 2046     		mov	r0, r4
 576              	.LVL46:
  63:Middlewares/lvgl/src/core/lv_obj_pos.c ****     }
 577              		.loc 1 63 9 is_stmt 0 view .LVU146
 578 002e FFF7FEFF 		bl	lv_obj_set_style_x
ARM GAS  /tmp/ccmgRVpn.s 			page 22


 579              	.LVL47:
 580 0032 ECE7     		b	.L26
 581              	.LVL48:
 582              	.L34:
  62:Middlewares/lvgl/src/core/lv_obj_pos.c ****         lv_obj_set_style_x(obj, x, 0);
 583              		.loc 1 62 34 discriminator 1 view .LVU147
 584 0034 019B     		ldr	r3, [sp, #4]
  62:Middlewares/lvgl/src/core/lv_obj_pos.c ****         lv_obj_set_style_x(obj, x, 0);
 585              		.loc 1 62 28 discriminator 1 view .LVU148
 586 0036 AB42     		cmp	r3, r5
 587 0038 F6D1     		bne	.L30
 588 003a F3E7     		b	.L29
 589              		.cfi_endproc
 590              	.LFE154:
 592              		.section	.text.lv_obj_set_y,"ax",%progbits
 593              		.align	1
 594              		.global	lv_obj_set_y
 595              		.syntax unified
 596              		.thumb
 597              		.thumb_func
 599              	lv_obj_set_y:
 600              	.LVL49:
 601              	.LFB155:
  68:Middlewares/lvgl/src/core/lv_obj_pos.c ****     if(lv_obj_is_layout_positioned(obj)) {
 602              		.loc 1 68 1 is_stmt 1 view -0
 603              		.cfi_startproc
 604              		@ args = 0, pretend = 0, frame = 8
 605              		@ frame_needed = 0, uses_anonymous_args = 0
  68:Middlewares/lvgl/src/core/lv_obj_pos.c ****     if(lv_obj_is_layout_positioned(obj)) {
 606              		.loc 1 68 1 is_stmt 0 view .LVU150
 607 0000 30B5     		push	{r4, r5, lr}
 608              	.LCFI16:
 609              		.cfi_def_cfa_offset 12
 610              		.cfi_offset 4, -12
 611              		.cfi_offset 5, -8
 612              		.cfi_offset 14, -4
 613 0002 83B0     		sub	sp, sp, #12
 614              	.LCFI17:
 615              		.cfi_def_cfa_offset 24
 616 0004 0446     		mov	r4, r0
 617 0006 0D46     		mov	r5, r1
  69:Middlewares/lvgl/src/core/lv_obj_pos.c ****         return;
 618              		.loc 1 69 5 is_stmt 1 view .LVU151
  69:Middlewares/lvgl/src/core/lv_obj_pos.c ****         return;
 619              		.loc 1 69 8 is_stmt 0 view .LVU152
 620 0008 FFF7FEFF 		bl	lv_obj_is_layout_positioned
 621              	.LVL50:
  69:Middlewares/lvgl/src/core/lv_obj_pos.c ****         return;
 622              		.loc 1 69 7 view .LVU153
 623 000c 08B1     		cbz	r0, .L42
 624              	.L35:
  82:Middlewares/lvgl/src/core/lv_obj_pos.c **** 
 625              		.loc 1 82 1 view .LVU154
 626 000e 03B0     		add	sp, sp, #12
 627              	.LCFI18:
 628              		.cfi_remember_state
 629              		.cfi_def_cfa_offset 12
ARM GAS  /tmp/ccmgRVpn.s 			page 23


 630              		@ sp needed
 631 0010 30BD     		pop	{r4, r5, pc}
 632              	.LVL51:
 633              	.L42:
 634              	.LCFI19:
 635              		.cfi_restore_state
  72:Middlewares/lvgl/src/core/lv_obj_pos.c **** 
 636              		.loc 1 72 5 is_stmt 1 view .LVU155
  72:Middlewares/lvgl/src/core/lv_obj_pos.c **** 
 637              		.loc 1 72 5 view .LVU156
  72:Middlewares/lvgl/src/core/lv_obj_pos.c **** 
 638              		.loc 1 72 5 view .LVU157
  74:Middlewares/lvgl/src/core/lv_obj_pos.c ****     lv_style_value_t v_y;
 639              		.loc 1 74 5 view .LVU158
  75:Middlewares/lvgl/src/core/lv_obj_pos.c **** 
 640              		.loc 1 75 5 view .LVU159
  77:Middlewares/lvgl/src/core/lv_obj_pos.c **** 
 641              		.loc 1 77 5 view .LVU160
  77:Middlewares/lvgl/src/core/lv_obj_pos.c **** 
 642              		.loc 1 77 13 is_stmt 0 view .LVU161
 643 0012 0023     		movs	r3, #0
 644 0014 01AA     		add	r2, sp, #4
 645 0016 41F20801 		movw	r1, #4104
 646 001a 2046     		mov	r0, r4
 647 001c FFF7FEFF 		bl	lv_obj_get_local_style_prop
 648              	.LVL52:
  79:Middlewares/lvgl/src/core/lv_obj_pos.c ****         lv_obj_set_style_y(obj, y, 0);
 649              		.loc 1 79 5 is_stmt 1 view .LVU162
  79:Middlewares/lvgl/src/core/lv_obj_pos.c ****         lv_obj_set_style_y(obj, y, 0);
 650              		.loc 1 79 7 is_stmt 0 view .LVU163
 651 0020 0128     		cmp	r0, #1
 652 0022 07D0     		beq	.L43
 653              	.L38:
  79:Middlewares/lvgl/src/core/lv_obj_pos.c ****         lv_obj_set_style_y(obj, y, 0);
 654              		.loc 1 79 45 discriminator 3 view .LVU164
 655 0024 0028     		cmp	r0, #0
 656 0026 F2D1     		bne	.L35
 657              	.L39:
  80:Middlewares/lvgl/src/core/lv_obj_pos.c ****     }
 658              		.loc 1 80 9 is_stmt 1 view .LVU165
 659 0028 0022     		movs	r2, #0
 660 002a 2946     		mov	r1, r5
 661 002c 2046     		mov	r0, r4
 662              	.LVL53:
  80:Middlewares/lvgl/src/core/lv_obj_pos.c ****     }
 663              		.loc 1 80 9 is_stmt 0 view .LVU166
 664 002e FFF7FEFF 		bl	lv_obj_set_style_y
 665              	.LVL54:
 666 0032 ECE7     		b	.L35
 667              	.LVL55:
 668              	.L43:
  79:Middlewares/lvgl/src/core/lv_obj_pos.c ****         lv_obj_set_style_y(obj, y, 0);
 669              		.loc 1 79 34 discriminator 1 view .LVU167
 670 0034 019B     		ldr	r3, [sp, #4]
  79:Middlewares/lvgl/src/core/lv_obj_pos.c ****         lv_obj_set_style_y(obj, y, 0);
 671              		.loc 1 79 28 discriminator 1 view .LVU168
 672 0036 AB42     		cmp	r3, r5
ARM GAS  /tmp/ccmgRVpn.s 			page 24


 673 0038 F6D1     		bne	.L39
 674 003a F3E7     		b	.L38
 675              		.cfi_endproc
 676              	.LFE155:
 678              		.section	.text.lv_obj_set_pos,"ax",%progbits
 679              		.align	1
 680              		.global	lv_obj_set_pos
 681              		.syntax unified
 682              		.thumb
 683              		.thumb_func
 685              	lv_obj_set_pos:
 686              	.LVL56:
 687              	.LFB153:
  43:Middlewares/lvgl/src/core/lv_obj_pos.c ****     LV_ASSERT_OBJ(obj, MY_CLASS);
 688              		.loc 1 43 1 is_stmt 1 view -0
 689              		.cfi_startproc
 690              		@ args = 0, pretend = 0, frame = 0
 691              		@ frame_needed = 0, uses_anonymous_args = 0
  43:Middlewares/lvgl/src/core/lv_obj_pos.c ****     LV_ASSERT_OBJ(obj, MY_CLASS);
 692              		.loc 1 43 1 is_stmt 0 view .LVU170
 693 0000 38B5     		push	{r3, r4, r5, lr}
 694              	.LCFI20:
 695              		.cfi_def_cfa_offset 16
 696              		.cfi_offset 3, -16
 697              		.cfi_offset 4, -12
 698              		.cfi_offset 5, -8
 699              		.cfi_offset 14, -4
 700 0002 0446     		mov	r4, r0
 701 0004 1546     		mov	r5, r2
  44:Middlewares/lvgl/src/core/lv_obj_pos.c **** 
 702              		.loc 1 44 5 is_stmt 1 view .LVU171
  44:Middlewares/lvgl/src/core/lv_obj_pos.c **** 
 703              		.loc 1 44 5 view .LVU172
  44:Middlewares/lvgl/src/core/lv_obj_pos.c **** 
 704              		.loc 1 44 5 view .LVU173
  46:Middlewares/lvgl/src/core/lv_obj_pos.c ****     lv_obj_set_y(obj, y);
 705              		.loc 1 46 5 view .LVU174
 706 0006 FFF7FEFF 		bl	lv_obj_set_x
 707              	.LVL57:
  47:Middlewares/lvgl/src/core/lv_obj_pos.c **** }
 708              		.loc 1 47 5 view .LVU175
 709 000a 2946     		mov	r1, r5
 710 000c 2046     		mov	r0, r4
 711 000e FFF7FEFF 		bl	lv_obj_set_y
 712              	.LVL58:
  48:Middlewares/lvgl/src/core/lv_obj_pos.c **** 
 713              		.loc 1 48 1 is_stmt 0 view .LVU176
 714 0012 38BD     		pop	{r3, r4, r5, pc}
  48:Middlewares/lvgl/src/core/lv_obj_pos.c **** 
 715              		.loc 1 48 1 view .LVU177
 716              		.cfi_endproc
 717              	.LFE153:
 719              		.section	.text.lv_obj_mark_layout_as_dirty,"ax",%progbits
 720              		.align	1
 721              		.global	lv_obj_mark_layout_as_dirty
 722              		.syntax unified
 723              		.thumb
ARM GAS  /tmp/ccmgRVpn.s 			page 25


 724              		.thumb_func
 726              	lv_obj_mark_layout_as_dirty:
 727              	.LVL59:
 728              	.LFB164:
 275:Middlewares/lvgl/src/core/lv_obj_pos.c **** 
 276:Middlewares/lvgl/src/core/lv_obj_pos.c **** void lv_obj_mark_layout_as_dirty(lv_obj_t * obj)
 277:Middlewares/lvgl/src/core/lv_obj_pos.c **** {
 729              		.loc 1 277 1 is_stmt 1 view -0
 730              		.cfi_startproc
 731              		@ args = 0, pretend = 0, frame = 0
 732              		@ frame_needed = 0, uses_anonymous_args = 0
 733              		.loc 1 277 1 is_stmt 0 view .LVU179
 734 0000 08B5     		push	{r3, lr}
 735              	.LCFI21:
 736              		.cfi_def_cfa_offset 8
 737              		.cfi_offset 3, -8
 738              		.cfi_offset 14, -4
 278:Middlewares/lvgl/src/core/lv_obj_pos.c ****     obj->layout_inv = 1;
 739              		.loc 1 278 5 is_stmt 1 view .LVU180
 740              		.loc 1 278 21 is_stmt 0 view .LVU181
 741 0002 90F82220 		ldrb	r2, [r0, #34]	@ zero_extendqisi2
 742 0006 42F00102 		orr	r2, r2, #1
 743 000a 80F82220 		strb	r2, [r0, #34]
 279:Middlewares/lvgl/src/core/lv_obj_pos.c **** 
 280:Middlewares/lvgl/src/core/lv_obj_pos.c ****     /*Mark the screen as dirty too to mark that there is an something to do on this screen*/
 281:Middlewares/lvgl/src/core/lv_obj_pos.c ****     lv_obj_t * scr = lv_obj_get_screen(obj);
 744              		.loc 1 281 5 is_stmt 1 view .LVU182
 745              		.loc 1 281 22 is_stmt 0 view .LVU183
 746 000e FFF7FEFF 		bl	lv_obj_get_screen
 747              	.LVL60:
 282:Middlewares/lvgl/src/core/lv_obj_pos.c ****     scr->scr_layout_inv = 1;
 748              		.loc 1 282 5 is_stmt 1 view .LVU184
 749              		.loc 1 282 25 is_stmt 0 view .LVU185
 750 0012 90F82220 		ldrb	r2, [r0, #34]	@ zero_extendqisi2
 751 0016 42F00202 		orr	r2, r2, #2
 752 001a 80F82220 		strb	r2, [r0, #34]
 283:Middlewares/lvgl/src/core/lv_obj_pos.c **** 
 284:Middlewares/lvgl/src/core/lv_obj_pos.c ****     /*Make the display refreshing*/
 285:Middlewares/lvgl/src/core/lv_obj_pos.c ****     lv_disp_t * disp = lv_obj_get_disp(scr);
 753              		.loc 1 285 5 is_stmt 1 view .LVU186
 754              		.loc 1 285 24 is_stmt 0 view .LVU187
 755 001e FFF7FEFF 		bl	lv_obj_get_disp
 756              	.LVL61:
 286:Middlewares/lvgl/src/core/lv_obj_pos.c ****     lv_timer_resume(disp->refr_timer);
 757              		.loc 1 286 5 is_stmt 1 view .LVU188
 758 0022 4068     		ldr	r0, [r0, #4]
 759              	.LVL62:
 760              		.loc 1 286 5 is_stmt 0 view .LVU189
 761 0024 FFF7FEFF 		bl	lv_timer_resume
 762              	.LVL63:
 287:Middlewares/lvgl/src/core/lv_obj_pos.c **** }
 763              		.loc 1 287 1 view .LVU190
 764 0028 08BD     		pop	{r3, pc}
 765              		.cfi_endproc
 766              	.LFE164:
 768              		.section	.text.lv_obj_set_layout,"ax",%progbits
 769              		.align	1
ARM GAS  /tmp/ccmgRVpn.s 			page 26


 770              		.global	lv_obj_set_layout
 771              		.syntax unified
 772              		.thumb
 773              		.thumb_func
 775              	lv_obj_set_layout:
 776              	.LVL64:
 777              	.LFB162:
 256:Middlewares/lvgl/src/core/lv_obj_pos.c ****     LV_ASSERT_OBJ(obj, MY_CLASS);
 778              		.loc 1 256 1 is_stmt 1 view -0
 779              		.cfi_startproc
 780              		@ args = 0, pretend = 0, frame = 0
 781              		@ frame_needed = 0, uses_anonymous_args = 0
 256:Middlewares/lvgl/src/core/lv_obj_pos.c ****     LV_ASSERT_OBJ(obj, MY_CLASS);
 782              		.loc 1 256 1 is_stmt 0 view .LVU192
 783 0000 10B5     		push	{r4, lr}
 784              	.LCFI22:
 785              		.cfi_def_cfa_offset 8
 786              		.cfi_offset 4, -8
 787              		.cfi_offset 14, -4
 788 0002 0446     		mov	r4, r0
 257:Middlewares/lvgl/src/core/lv_obj_pos.c **** 
 789              		.loc 1 257 5 is_stmt 1 view .LVU193
 257:Middlewares/lvgl/src/core/lv_obj_pos.c **** 
 790              		.loc 1 257 5 view .LVU194
 257:Middlewares/lvgl/src/core/lv_obj_pos.c **** 
 791              		.loc 1 257 5 view .LVU195
 259:Middlewares/lvgl/src/core/lv_obj_pos.c **** 
 792              		.loc 1 259 5 view .LVU196
 793 0004 0022     		movs	r2, #0
 794 0006 89B2     		uxth	r1, r1
 795              	.LVL65:
 259:Middlewares/lvgl/src/core/lv_obj_pos.c **** 
 796              		.loc 1 259 5 is_stmt 0 view .LVU197
 797 0008 FFF7FEFF 		bl	lv_obj_set_style_layout
 798              	.LVL66:
 261:Middlewares/lvgl/src/core/lv_obj_pos.c **** }
 799              		.loc 1 261 5 is_stmt 1 view .LVU198
 800 000c 2046     		mov	r0, r4
 801 000e FFF7FEFF 		bl	lv_obj_mark_layout_as_dirty
 802              	.LVL67:
 262:Middlewares/lvgl/src/core/lv_obj_pos.c **** 
 803              		.loc 1 262 1 is_stmt 0 view .LVU199
 804 0012 10BD     		pop	{r4, pc}
 262:Middlewares/lvgl/src/core/lv_obj_pos.c **** 
 805              		.loc 1 262 1 view .LVU200
 806              		.cfi_endproc
 807              	.LFE162:
 809              		.section	.text.lv_layout_register,"ax",%progbits
 810              		.align	1
 811              		.global	lv_layout_register
 812              		.syntax unified
 813              		.thumb
 814              		.thumb_func
 816              	lv_layout_register:
 817              	.LVL68:
 818              	.LFB166:
 288:Middlewares/lvgl/src/core/lv_obj_pos.c **** 
ARM GAS  /tmp/ccmgRVpn.s 			page 27


 289:Middlewares/lvgl/src/core/lv_obj_pos.c **** void lv_obj_update_layout(const lv_obj_t * obj)
 290:Middlewares/lvgl/src/core/lv_obj_pos.c **** {
 291:Middlewares/lvgl/src/core/lv_obj_pos.c ****     static bool mutex = false;
 292:Middlewares/lvgl/src/core/lv_obj_pos.c ****     if(mutex) {
 293:Middlewares/lvgl/src/core/lv_obj_pos.c ****         LV_LOG_TRACE("Already running, returning")
 294:Middlewares/lvgl/src/core/lv_obj_pos.c ****         return;
 295:Middlewares/lvgl/src/core/lv_obj_pos.c ****     }
 296:Middlewares/lvgl/src/core/lv_obj_pos.c ****     mutex = true;
 297:Middlewares/lvgl/src/core/lv_obj_pos.c **** 
 298:Middlewares/lvgl/src/core/lv_obj_pos.c ****     lv_obj_t * scr = lv_obj_get_screen(obj);
 299:Middlewares/lvgl/src/core/lv_obj_pos.c **** 
 300:Middlewares/lvgl/src/core/lv_obj_pos.c ****     /*Repeat until there where layout invalidations*/
 301:Middlewares/lvgl/src/core/lv_obj_pos.c ****     while(scr->scr_layout_inv) {
 302:Middlewares/lvgl/src/core/lv_obj_pos.c ****         LV_LOG_INFO("Layout update begin")
 303:Middlewares/lvgl/src/core/lv_obj_pos.c ****         scr->scr_layout_inv = 0;
 304:Middlewares/lvgl/src/core/lv_obj_pos.c ****         layout_update_core(scr);
 305:Middlewares/lvgl/src/core/lv_obj_pos.c ****         LV_LOG_TRACE("Layout update end")
 306:Middlewares/lvgl/src/core/lv_obj_pos.c ****     }
 307:Middlewares/lvgl/src/core/lv_obj_pos.c **** 
 308:Middlewares/lvgl/src/core/lv_obj_pos.c ****     mutex = false;
 309:Middlewares/lvgl/src/core/lv_obj_pos.c **** }
 310:Middlewares/lvgl/src/core/lv_obj_pos.c **** 
 311:Middlewares/lvgl/src/core/lv_obj_pos.c **** uint32_t lv_layout_register(lv_layout_update_cb_t cb, void * user_data)
 312:Middlewares/lvgl/src/core/lv_obj_pos.c **** {
 819              		.loc 1 312 1 is_stmt 1 view -0
 820              		.cfi_startproc
 821              		@ args = 0, pretend = 0, frame = 0
 822              		@ frame_needed = 0, uses_anonymous_args = 0
 823              		.loc 1 312 1 is_stmt 0 view .LVU202
 824 0000 70B5     		push	{r4, r5, r6, lr}
 825              	.LCFI23:
 826              		.cfi_def_cfa_offset 16
 827              		.cfi_offset 4, -16
 828              		.cfi_offset 5, -12
 829              		.cfi_offset 6, -8
 830              		.cfi_offset 14, -4
 831 0002 0546     		mov	r5, r0
 832 0004 0C46     		mov	r4, r1
 313:Middlewares/lvgl/src/core/lv_obj_pos.c ****     layout_cnt++;
 833              		.loc 1 313 5 is_stmt 1 view .LVU203
 834              		.loc 1 313 15 is_stmt 0 view .LVU204
 835 0006 0D4A     		ldr	r2, .L54
 836 0008 1368     		ldr	r3, [r2]
 837 000a 0133     		adds	r3, r3, #1
 838 000c 1360     		str	r3, [r2]
 314:Middlewares/lvgl/src/core/lv_obj_pos.c ****     LV_GC_ROOT(_lv_layout_list) = lv_mem_realloc(LV_GC_ROOT(_lv_layout_list), layout_cnt * sizeof(l
 839              		.loc 1 314 5 is_stmt 1 view .LVU205
 840              		.loc 1 314 35 is_stmt 0 view .LVU206
 841 000e 0C4E     		ldr	r6, .L54+4
 842 0010 D900     		lsls	r1, r3, #3
 843              	.LVL69:
 844              		.loc 1 314 35 view .LVU207
 845 0012 3068     		ldr	r0, [r6]
 846              	.LVL70:
 847              		.loc 1 314 35 view .LVU208
 848 0014 FFF7FEFF 		bl	lv_mem_realloc
 849              	.LVL71:
ARM GAS  /tmp/ccmgRVpn.s 			page 28


 850              		.loc 1 314 33 view .LVU209
 851 0018 3060     		str	r0, [r6]
 315:Middlewares/lvgl/src/core/lv_obj_pos.c ****     LV_ASSERT_MALLOC(LV_GC_ROOT(_lv_layout_list));
 852              		.loc 1 315 5 is_stmt 1 view .LVU210
 853              		.loc 1 315 5 view .LVU211
 854 001a 68B1     		cbz	r0, .L52
 855 001c 0346     		mov	r3, r0
 856              		.loc 1 315 5 discriminator 2 view .LVU212
 857              		.loc 1 315 50 discriminator 2 view .LVU213
 316:Middlewares/lvgl/src/core/lv_obj_pos.c **** 
 317:Middlewares/lvgl/src/core/lv_obj_pos.c ****     LV_GC_ROOT(_lv_layout_list)[layout_cnt - 1].cb = cb;
 858              		.loc 1 317 5 discriminator 2 view .LVU214
 859              		.loc 1 317 32 is_stmt 0 discriminator 2 view .LVU215
 860 001e 074A     		ldr	r2, .L54
 861 0020 1068     		ldr	r0, [r2]
 862 0022 00F10052 		add	r2, r0, #536870912
 863 0026 013A     		subs	r2, r2, #1
 864              		.loc 1 317 52 discriminator 2 view .LVU216
 865 0028 43F83250 		str	r5, [r3, r2, lsl #3]
 318:Middlewares/lvgl/src/core/lv_obj_pos.c ****     LV_GC_ROOT(_lv_layout_list)[layout_cnt - 1].user_data = user_data;
 866              		.loc 1 318 5 is_stmt 1 discriminator 2 view .LVU217
 867              		.loc 1 318 32 is_stmt 0 discriminator 2 view .LVU218
 868 002c 044B     		ldr	r3, .L54+4
 869 002e 1B68     		ldr	r3, [r3]
 870 0030 03EBC202 		add	r2, r3, r2, lsl #3
 871              		.loc 1 318 59 discriminator 2 view .LVU219
 872 0034 5460     		str	r4, [r2, #4]
 319:Middlewares/lvgl/src/core/lv_obj_pos.c ****     return layout_cnt;  /*No -1 to skip 0th index*/
 873              		.loc 1 319 5 is_stmt 1 discriminator 2 view .LVU220
 320:Middlewares/lvgl/src/core/lv_obj_pos.c **** }
 874              		.loc 1 320 1 is_stmt 0 discriminator 2 view .LVU221
 875 0036 70BD     		pop	{r4, r5, r6, pc}
 876              	.LVL72:
 877              	.L52:
 315:Middlewares/lvgl/src/core/lv_obj_pos.c **** 
 878              		.loc 1 315 5 is_stmt 1 discriminator 1 view .LVU222
 315:Middlewares/lvgl/src/core/lv_obj_pos.c **** 
 879              		.loc 1 315 5 discriminator 1 view .LVU223
 315:Middlewares/lvgl/src/core/lv_obj_pos.c **** 
 880              		.loc 1 315 5 discriminator 1 view .LVU224
 315:Middlewares/lvgl/src/core/lv_obj_pos.c **** 
 881              		.loc 1 315 5 discriminator 1 view .LVU225
 882 0038 FEE7     		b	.L52
 883              	.L55:
 884 003a 00BF     		.align	2
 885              	.L54:
 886 003c 00000000 		.word	.LANCHOR0
 887 0040 00000000 		.word	_lv_layout_list
 888              		.cfi_endproc
 889              	.LFE166:
 891              		.section	.text.lv_obj_set_align,"ax",%progbits
 892              		.align	1
 893              		.global	lv_obj_set_align
 894              		.syntax unified
 895              		.thumb
 896              		.thumb_func
 898              	lv_obj_set_align:
ARM GAS  /tmp/ccmgRVpn.s 			page 29


 899              	.LVL73:
 900              	.LFB167:
 321:Middlewares/lvgl/src/core/lv_obj_pos.c **** 
 322:Middlewares/lvgl/src/core/lv_obj_pos.c **** void lv_obj_set_align(lv_obj_t * obj, lv_align_t align)
 323:Middlewares/lvgl/src/core/lv_obj_pos.c **** {
 901              		.loc 1 323 1 view -0
 902              		.cfi_startproc
 903              		@ args = 0, pretend = 0, frame = 0
 904              		@ frame_needed = 0, uses_anonymous_args = 0
 905              		.loc 1 323 1 is_stmt 0 view .LVU227
 906 0000 08B5     		push	{r3, lr}
 907              	.LCFI24:
 908              		.cfi_def_cfa_offset 8
 909              		.cfi_offset 3, -8
 910              		.cfi_offset 14, -4
 324:Middlewares/lvgl/src/core/lv_obj_pos.c ****     lv_obj_set_style_align(obj, align, 0);
 911              		.loc 1 324 5 is_stmt 1 view .LVU228
 912 0002 0022     		movs	r2, #0
 913 0004 FFF7FEFF 		bl	lv_obj_set_style_align
 914              	.LVL74:
 325:Middlewares/lvgl/src/core/lv_obj_pos.c **** }
 915              		.loc 1 325 1 is_stmt 0 view .LVU229
 916 0008 08BD     		pop	{r3, pc}
 917              		.cfi_endproc
 918              	.LFE167:
 920              		.section	.text.lv_obj_align,"ax",%progbits
 921              		.align	1
 922              		.global	lv_obj_align
 923              		.syntax unified
 924              		.thumb
 925              		.thumb_func
 927              	lv_obj_align:
 928              	.LVL75:
 929              	.LFB168:
 326:Middlewares/lvgl/src/core/lv_obj_pos.c **** 
 327:Middlewares/lvgl/src/core/lv_obj_pos.c **** void lv_obj_align(lv_obj_t * obj, lv_align_t align, lv_coord_t x_ofs, lv_coord_t y_ofs)
 328:Middlewares/lvgl/src/core/lv_obj_pos.c **** {
 930              		.loc 1 328 1 is_stmt 1 view -0
 931              		.cfi_startproc
 932              		@ args = 0, pretend = 0, frame = 0
 933              		@ frame_needed = 0, uses_anonymous_args = 0
 934              		.loc 1 328 1 is_stmt 0 view .LVU231
 935 0000 70B5     		push	{r4, r5, r6, lr}
 936              	.LCFI25:
 937              		.cfi_def_cfa_offset 16
 938              		.cfi_offset 4, -16
 939              		.cfi_offset 5, -12
 940              		.cfi_offset 6, -8
 941              		.cfi_offset 14, -4
 942 0002 0446     		mov	r4, r0
 943 0004 1546     		mov	r5, r2
 944 0006 1E46     		mov	r6, r3
 329:Middlewares/lvgl/src/core/lv_obj_pos.c ****     lv_obj_set_style_align(obj, align, 0);
 945              		.loc 1 329 5 is_stmt 1 view .LVU232
 946 0008 0022     		movs	r2, #0
 947              	.LVL76:
 948              		.loc 1 329 5 is_stmt 0 view .LVU233
ARM GAS  /tmp/ccmgRVpn.s 			page 30


 949 000a FFF7FEFF 		bl	lv_obj_set_style_align
 950              	.LVL77:
 330:Middlewares/lvgl/src/core/lv_obj_pos.c ****     lv_obj_set_pos(obj, x_ofs, y_ofs);
 951              		.loc 1 330 5 is_stmt 1 view .LVU234
 952 000e 3246     		mov	r2, r6
 953 0010 2946     		mov	r1, r5
 954 0012 2046     		mov	r0, r4
 955 0014 FFF7FEFF 		bl	lv_obj_set_pos
 956              	.LVL78:
 331:Middlewares/lvgl/src/core/lv_obj_pos.c **** }
 957              		.loc 1 331 1 is_stmt 0 view .LVU235
 958 0018 70BD     		pop	{r4, r5, r6, pc}
 959              		.loc 1 331 1 view .LVU236
 960              		.cfi_endproc
 961              	.LFE168:
 963              		.section	.text.lv_obj_get_coords,"ax",%progbits
 964              		.align	1
 965              		.global	lv_obj_get_coords
 966              		.syntax unified
 967              		.thumb
 968              		.thumb_func
 970              	lv_obj_get_coords:
 971              	.LVL79:
 972              	.LFB170:
 332:Middlewares/lvgl/src/core/lv_obj_pos.c **** 
 333:Middlewares/lvgl/src/core/lv_obj_pos.c **** void lv_obj_align_to(lv_obj_t * obj, const lv_obj_t * base, lv_align_t align, lv_coord_t x_ofs, lv_
 334:Middlewares/lvgl/src/core/lv_obj_pos.c **** {
 335:Middlewares/lvgl/src/core/lv_obj_pos.c ****     LV_ASSERT_OBJ(obj, MY_CLASS);
 336:Middlewares/lvgl/src/core/lv_obj_pos.c **** 
 337:Middlewares/lvgl/src/core/lv_obj_pos.c ****     lv_obj_update_layout(obj);
 338:Middlewares/lvgl/src/core/lv_obj_pos.c ****     if(base == NULL) base = lv_obj_get_parent(obj);
 339:Middlewares/lvgl/src/core/lv_obj_pos.c **** 
 340:Middlewares/lvgl/src/core/lv_obj_pos.c ****     LV_ASSERT_OBJ(base, MY_CLASS);
 341:Middlewares/lvgl/src/core/lv_obj_pos.c **** 
 342:Middlewares/lvgl/src/core/lv_obj_pos.c ****     lv_coord_t x = 0;
 343:Middlewares/lvgl/src/core/lv_obj_pos.c ****     lv_coord_t y = 0;
 344:Middlewares/lvgl/src/core/lv_obj_pos.c **** 
 345:Middlewares/lvgl/src/core/lv_obj_pos.c ****     lv_obj_t * parent = lv_obj_get_parent(obj);
 346:Middlewares/lvgl/src/core/lv_obj_pos.c ****     lv_coord_t pborder = lv_obj_get_style_border_width(parent, LV_PART_MAIN);
 347:Middlewares/lvgl/src/core/lv_obj_pos.c ****     lv_coord_t pleft = lv_obj_get_style_pad_left(parent, LV_PART_MAIN) + pborder;
 348:Middlewares/lvgl/src/core/lv_obj_pos.c ****     lv_coord_t ptop = lv_obj_get_style_pad_top(parent, LV_PART_MAIN) + pborder;
 349:Middlewares/lvgl/src/core/lv_obj_pos.c **** 
 350:Middlewares/lvgl/src/core/lv_obj_pos.c ****     lv_coord_t bborder = lv_obj_get_style_border_width(base, LV_PART_MAIN);
 351:Middlewares/lvgl/src/core/lv_obj_pos.c ****     lv_coord_t bleft = lv_obj_get_style_pad_left(base, LV_PART_MAIN) + bborder;
 352:Middlewares/lvgl/src/core/lv_obj_pos.c ****     lv_coord_t btop = lv_obj_get_style_pad_top(base, LV_PART_MAIN) + bborder;
 353:Middlewares/lvgl/src/core/lv_obj_pos.c **** 
 354:Middlewares/lvgl/src/core/lv_obj_pos.c ****     if(align == LV_ALIGN_DEFAULT) {
 355:Middlewares/lvgl/src/core/lv_obj_pos.c ****         if(lv_obj_get_style_base_dir(base, LV_PART_MAIN) == LV_BASE_DIR_RTL) align = LV_ALIGN_TOP_R
 356:Middlewares/lvgl/src/core/lv_obj_pos.c ****         else align = LV_ALIGN_TOP_LEFT;
 357:Middlewares/lvgl/src/core/lv_obj_pos.c ****     }
 358:Middlewares/lvgl/src/core/lv_obj_pos.c **** 
 359:Middlewares/lvgl/src/core/lv_obj_pos.c ****     switch(align) {
 360:Middlewares/lvgl/src/core/lv_obj_pos.c ****     case LV_ALIGN_CENTER:
 361:Middlewares/lvgl/src/core/lv_obj_pos.c ****         x = lv_obj_get_content_width(base) / 2 - lv_obj_get_width(obj) / 2 + bleft;
 362:Middlewares/lvgl/src/core/lv_obj_pos.c ****         y = lv_obj_get_content_height(base) / 2 - lv_obj_get_height(obj) / 2 + btop;
 363:Middlewares/lvgl/src/core/lv_obj_pos.c ****         break;
 364:Middlewares/lvgl/src/core/lv_obj_pos.c ****     case LV_ALIGN_TOP_LEFT:
ARM GAS  /tmp/ccmgRVpn.s 			page 31


 365:Middlewares/lvgl/src/core/lv_obj_pos.c ****         x = bleft;
 366:Middlewares/lvgl/src/core/lv_obj_pos.c ****         y = btop;
 367:Middlewares/lvgl/src/core/lv_obj_pos.c ****         break;
 368:Middlewares/lvgl/src/core/lv_obj_pos.c ****     case LV_ALIGN_TOP_MID:
 369:Middlewares/lvgl/src/core/lv_obj_pos.c ****         x = lv_obj_get_content_width(base) / 2 - lv_obj_get_width(obj) / 2 + bleft;
 370:Middlewares/lvgl/src/core/lv_obj_pos.c ****         y = btop;
 371:Middlewares/lvgl/src/core/lv_obj_pos.c ****         break;
 372:Middlewares/lvgl/src/core/lv_obj_pos.c **** 
 373:Middlewares/lvgl/src/core/lv_obj_pos.c ****     case LV_ALIGN_TOP_RIGHT:
 374:Middlewares/lvgl/src/core/lv_obj_pos.c ****         x = lv_obj_get_content_width(base) - lv_obj_get_width(obj) + bleft;
 375:Middlewares/lvgl/src/core/lv_obj_pos.c ****         y = btop;
 376:Middlewares/lvgl/src/core/lv_obj_pos.c ****         break;
 377:Middlewares/lvgl/src/core/lv_obj_pos.c **** 
 378:Middlewares/lvgl/src/core/lv_obj_pos.c ****     case LV_ALIGN_BOTTOM_LEFT:
 379:Middlewares/lvgl/src/core/lv_obj_pos.c ****         x = bleft;
 380:Middlewares/lvgl/src/core/lv_obj_pos.c ****         y = lv_obj_get_content_height(base) - lv_obj_get_height(obj) + btop;
 381:Middlewares/lvgl/src/core/lv_obj_pos.c ****         break;
 382:Middlewares/lvgl/src/core/lv_obj_pos.c ****     case LV_ALIGN_BOTTOM_MID:
 383:Middlewares/lvgl/src/core/lv_obj_pos.c ****         x = lv_obj_get_content_width(base) / 2 - lv_obj_get_width(obj) / 2 + bleft;
 384:Middlewares/lvgl/src/core/lv_obj_pos.c ****         y = lv_obj_get_content_height(base) - lv_obj_get_height(obj) + btop;
 385:Middlewares/lvgl/src/core/lv_obj_pos.c ****         break;
 386:Middlewares/lvgl/src/core/lv_obj_pos.c **** 
 387:Middlewares/lvgl/src/core/lv_obj_pos.c ****     case LV_ALIGN_BOTTOM_RIGHT:
 388:Middlewares/lvgl/src/core/lv_obj_pos.c ****         x = lv_obj_get_content_width(base) - lv_obj_get_width(obj) + bleft;
 389:Middlewares/lvgl/src/core/lv_obj_pos.c ****         y = lv_obj_get_content_height(base) - lv_obj_get_height(obj) + btop;
 390:Middlewares/lvgl/src/core/lv_obj_pos.c ****         break;
 391:Middlewares/lvgl/src/core/lv_obj_pos.c **** 
 392:Middlewares/lvgl/src/core/lv_obj_pos.c ****     case LV_ALIGN_LEFT_MID:
 393:Middlewares/lvgl/src/core/lv_obj_pos.c ****         x = bleft;
 394:Middlewares/lvgl/src/core/lv_obj_pos.c ****         y = lv_obj_get_content_height(base) / 2 - lv_obj_get_height(obj) / 2 + btop;
 395:Middlewares/lvgl/src/core/lv_obj_pos.c ****         break;
 396:Middlewares/lvgl/src/core/lv_obj_pos.c **** 
 397:Middlewares/lvgl/src/core/lv_obj_pos.c ****     case LV_ALIGN_RIGHT_MID:
 398:Middlewares/lvgl/src/core/lv_obj_pos.c ****         x = lv_obj_get_content_width(base) - lv_obj_get_width(obj) + bleft;
 399:Middlewares/lvgl/src/core/lv_obj_pos.c ****         y = lv_obj_get_content_height(base) / 2 - lv_obj_get_height(obj) / 2 + btop;
 400:Middlewares/lvgl/src/core/lv_obj_pos.c ****         break;
 401:Middlewares/lvgl/src/core/lv_obj_pos.c **** 
 402:Middlewares/lvgl/src/core/lv_obj_pos.c ****     case LV_ALIGN_OUT_TOP_LEFT:
 403:Middlewares/lvgl/src/core/lv_obj_pos.c ****         x = 0;
 404:Middlewares/lvgl/src/core/lv_obj_pos.c ****         y = -lv_obj_get_height(obj);
 405:Middlewares/lvgl/src/core/lv_obj_pos.c ****         break;
 406:Middlewares/lvgl/src/core/lv_obj_pos.c **** 
 407:Middlewares/lvgl/src/core/lv_obj_pos.c ****     case LV_ALIGN_OUT_TOP_MID:
 408:Middlewares/lvgl/src/core/lv_obj_pos.c ****         x = lv_obj_get_width(base) / 2 - lv_obj_get_width(obj) / 2;
 409:Middlewares/lvgl/src/core/lv_obj_pos.c ****         y = -lv_obj_get_height(obj);
 410:Middlewares/lvgl/src/core/lv_obj_pos.c ****         break;
 411:Middlewares/lvgl/src/core/lv_obj_pos.c **** 
 412:Middlewares/lvgl/src/core/lv_obj_pos.c ****     case LV_ALIGN_OUT_TOP_RIGHT:
 413:Middlewares/lvgl/src/core/lv_obj_pos.c ****         x = lv_obj_get_width(base) - lv_obj_get_width(obj);
 414:Middlewares/lvgl/src/core/lv_obj_pos.c ****         y = -lv_obj_get_height(obj);
 415:Middlewares/lvgl/src/core/lv_obj_pos.c ****         break;
 416:Middlewares/lvgl/src/core/lv_obj_pos.c **** 
 417:Middlewares/lvgl/src/core/lv_obj_pos.c ****     case LV_ALIGN_OUT_BOTTOM_LEFT:
 418:Middlewares/lvgl/src/core/lv_obj_pos.c ****         x = 0;
 419:Middlewares/lvgl/src/core/lv_obj_pos.c ****         y = lv_obj_get_height(base);
 420:Middlewares/lvgl/src/core/lv_obj_pos.c ****         break;
 421:Middlewares/lvgl/src/core/lv_obj_pos.c **** 
ARM GAS  /tmp/ccmgRVpn.s 			page 32


 422:Middlewares/lvgl/src/core/lv_obj_pos.c ****     case LV_ALIGN_OUT_BOTTOM_MID:
 423:Middlewares/lvgl/src/core/lv_obj_pos.c ****         x = lv_obj_get_width(base) / 2 - lv_obj_get_width(obj) / 2;
 424:Middlewares/lvgl/src/core/lv_obj_pos.c ****         y = lv_obj_get_height(base);
 425:Middlewares/lvgl/src/core/lv_obj_pos.c ****         break;
 426:Middlewares/lvgl/src/core/lv_obj_pos.c **** 
 427:Middlewares/lvgl/src/core/lv_obj_pos.c ****     case LV_ALIGN_OUT_BOTTOM_RIGHT:
 428:Middlewares/lvgl/src/core/lv_obj_pos.c ****         x = lv_obj_get_width(base) - lv_obj_get_width(obj);
 429:Middlewares/lvgl/src/core/lv_obj_pos.c ****         y = lv_obj_get_height(base);
 430:Middlewares/lvgl/src/core/lv_obj_pos.c ****         break;
 431:Middlewares/lvgl/src/core/lv_obj_pos.c **** 
 432:Middlewares/lvgl/src/core/lv_obj_pos.c ****     case LV_ALIGN_OUT_LEFT_TOP:
 433:Middlewares/lvgl/src/core/lv_obj_pos.c ****         x = -lv_obj_get_width(obj);
 434:Middlewares/lvgl/src/core/lv_obj_pos.c ****         y = 0;
 435:Middlewares/lvgl/src/core/lv_obj_pos.c ****         break;
 436:Middlewares/lvgl/src/core/lv_obj_pos.c **** 
 437:Middlewares/lvgl/src/core/lv_obj_pos.c ****     case LV_ALIGN_OUT_LEFT_MID:
 438:Middlewares/lvgl/src/core/lv_obj_pos.c ****         x = -lv_obj_get_width(obj);
 439:Middlewares/lvgl/src/core/lv_obj_pos.c ****         y = lv_obj_get_height(base) / 2 - lv_obj_get_height(obj) / 2;
 440:Middlewares/lvgl/src/core/lv_obj_pos.c ****         break;
 441:Middlewares/lvgl/src/core/lv_obj_pos.c **** 
 442:Middlewares/lvgl/src/core/lv_obj_pos.c ****     case LV_ALIGN_OUT_LEFT_BOTTOM:
 443:Middlewares/lvgl/src/core/lv_obj_pos.c ****         x = -lv_obj_get_width(obj);
 444:Middlewares/lvgl/src/core/lv_obj_pos.c ****         y = lv_obj_get_height(base) - lv_obj_get_height(obj);
 445:Middlewares/lvgl/src/core/lv_obj_pos.c ****         break;
 446:Middlewares/lvgl/src/core/lv_obj_pos.c **** 
 447:Middlewares/lvgl/src/core/lv_obj_pos.c ****     case LV_ALIGN_OUT_RIGHT_TOP:
 448:Middlewares/lvgl/src/core/lv_obj_pos.c ****         x = lv_obj_get_width(base);
 449:Middlewares/lvgl/src/core/lv_obj_pos.c ****         y = 0;
 450:Middlewares/lvgl/src/core/lv_obj_pos.c ****         break;
 451:Middlewares/lvgl/src/core/lv_obj_pos.c **** 
 452:Middlewares/lvgl/src/core/lv_obj_pos.c ****     case LV_ALIGN_OUT_RIGHT_MID:
 453:Middlewares/lvgl/src/core/lv_obj_pos.c ****         x = lv_obj_get_width(base);
 454:Middlewares/lvgl/src/core/lv_obj_pos.c ****         y = lv_obj_get_height(base) / 2 - lv_obj_get_height(obj) / 2;
 455:Middlewares/lvgl/src/core/lv_obj_pos.c ****         break;
 456:Middlewares/lvgl/src/core/lv_obj_pos.c **** 
 457:Middlewares/lvgl/src/core/lv_obj_pos.c ****     case LV_ALIGN_OUT_RIGHT_BOTTOM:
 458:Middlewares/lvgl/src/core/lv_obj_pos.c ****         x = lv_obj_get_width(base);
 459:Middlewares/lvgl/src/core/lv_obj_pos.c ****         y = lv_obj_get_height(base) - lv_obj_get_height(obj);
 460:Middlewares/lvgl/src/core/lv_obj_pos.c ****         break;
 461:Middlewares/lvgl/src/core/lv_obj_pos.c ****     }
 462:Middlewares/lvgl/src/core/lv_obj_pos.c **** 
 463:Middlewares/lvgl/src/core/lv_obj_pos.c ****     x += x_ofs + base->coords.x1 - parent->coords.x1 + lv_obj_get_scroll_left(parent) - pleft;
 464:Middlewares/lvgl/src/core/lv_obj_pos.c ****     y += y_ofs + base->coords.y1 - parent->coords.y1 + lv_obj_get_scroll_top(parent) - ptop;
 465:Middlewares/lvgl/src/core/lv_obj_pos.c ****     lv_obj_set_style_align(obj, LV_ALIGN_TOP_LEFT, 0);
 466:Middlewares/lvgl/src/core/lv_obj_pos.c ****     lv_obj_set_pos(obj, x, y);
 467:Middlewares/lvgl/src/core/lv_obj_pos.c **** 
 468:Middlewares/lvgl/src/core/lv_obj_pos.c **** }
 469:Middlewares/lvgl/src/core/lv_obj_pos.c **** 
 470:Middlewares/lvgl/src/core/lv_obj_pos.c **** void lv_obj_get_coords(const lv_obj_t * obj, lv_area_t * coords)
 471:Middlewares/lvgl/src/core/lv_obj_pos.c **** {
 973              		.loc 1 471 1 is_stmt 1 view -0
 974              		.cfi_startproc
 975              		@ args = 0, pretend = 0, frame = 0
 976              		@ frame_needed = 0, uses_anonymous_args = 0
 977              		@ link register save eliminated.
 472:Middlewares/lvgl/src/core/lv_obj_pos.c ****     LV_ASSERT_OBJ(obj, MY_CLASS);
 978              		.loc 1 472 5 view .LVU238
ARM GAS  /tmp/ccmgRVpn.s 			page 33


 979              		.loc 1 472 5 view .LVU239
 980              		.loc 1 472 5 view .LVU240
 473:Middlewares/lvgl/src/core/lv_obj_pos.c **** 
 474:Middlewares/lvgl/src/core/lv_obj_pos.c ****     lv_area_copy(coords, &obj->coords);
 981              		.loc 1 474 5 view .LVU241
 982              	.LBB135:
 983              	.LBI135:
 984              		.file 3 "Middlewares/lvgl/src/core/../misc/../font/../misc/lv_area.h"
   1:Middlewares/lvgl/src/core/../misc/../font/../misc/lv_area.h **** /**
   2:Middlewares/lvgl/src/core/../misc/../font/../misc/lv_area.h ****  * @file lv_area.h
   3:Middlewares/lvgl/src/core/../misc/../font/../misc/lv_area.h ****  *
   4:Middlewares/lvgl/src/core/../misc/../font/../misc/lv_area.h ****  */
   5:Middlewares/lvgl/src/core/../misc/../font/../misc/lv_area.h **** 
   6:Middlewares/lvgl/src/core/../misc/../font/../misc/lv_area.h **** #ifndef LV_AREA_H
   7:Middlewares/lvgl/src/core/../misc/../font/../misc/lv_area.h **** #define LV_AREA_H
   8:Middlewares/lvgl/src/core/../misc/../font/../misc/lv_area.h **** 
   9:Middlewares/lvgl/src/core/../misc/../font/../misc/lv_area.h **** #ifdef __cplusplus
  10:Middlewares/lvgl/src/core/../misc/../font/../misc/lv_area.h **** extern "C" {
  11:Middlewares/lvgl/src/core/../misc/../font/../misc/lv_area.h **** #endif
  12:Middlewares/lvgl/src/core/../misc/../font/../misc/lv_area.h **** 
  13:Middlewares/lvgl/src/core/../misc/../font/../misc/lv_area.h **** /*********************
  14:Middlewares/lvgl/src/core/../misc/../font/../misc/lv_area.h ****  *      INCLUDES
  15:Middlewares/lvgl/src/core/../misc/../font/../misc/lv_area.h ****  *********************/
  16:Middlewares/lvgl/src/core/../misc/../font/../misc/lv_area.h **** #include "../lv_conf_internal.h"
  17:Middlewares/lvgl/src/core/../misc/../font/../misc/lv_area.h **** #include <string.h>
  18:Middlewares/lvgl/src/core/../misc/../font/../misc/lv_area.h **** #include <stdbool.h>
  19:Middlewares/lvgl/src/core/../misc/../font/../misc/lv_area.h **** #include <stdint.h>
  20:Middlewares/lvgl/src/core/../misc/../font/../misc/lv_area.h **** 
  21:Middlewares/lvgl/src/core/../misc/../font/../misc/lv_area.h **** /*********************
  22:Middlewares/lvgl/src/core/../misc/../font/../misc/lv_area.h ****  *      DEFINES
  23:Middlewares/lvgl/src/core/../misc/../font/../misc/lv_area.h ****  *********************/
  24:Middlewares/lvgl/src/core/../misc/../font/../misc/lv_area.h **** 
  25:Middlewares/lvgl/src/core/../misc/../font/../misc/lv_area.h **** #define _LV_COORD_MAX_REDUCE    8192
  26:Middlewares/lvgl/src/core/../misc/../font/../misc/lv_area.h **** 
  27:Middlewares/lvgl/src/core/../misc/../font/../misc/lv_area.h **** #if LV_USE_LARGE_COORD
  28:Middlewares/lvgl/src/core/../misc/../font/../misc/lv_area.h **** typedef int32_t lv_coord_t;
  29:Middlewares/lvgl/src/core/../misc/../font/../misc/lv_area.h **** #else
  30:Middlewares/lvgl/src/core/../misc/../font/../misc/lv_area.h **** typedef int16_t lv_coord_t;
  31:Middlewares/lvgl/src/core/../misc/../font/../misc/lv_area.h **** #endif
  32:Middlewares/lvgl/src/core/../misc/../font/../misc/lv_area.h **** 
  33:Middlewares/lvgl/src/core/../misc/../font/../misc/lv_area.h **** /*To allow some special values in the end reduce the max value*/
  34:Middlewares/lvgl/src/core/../misc/../font/../misc/lv_area.h **** #define LV_COORD_MAX ((lv_coord_t)((uint32_t)((uint32_t)1 << (8 * sizeof(lv_coord_t) - 1)) - _LV_CO
  35:Middlewares/lvgl/src/core/../misc/../font/../misc/lv_area.h **** #define LV_COORD_MIN (-LV_COORD_MAX)
  36:Middlewares/lvgl/src/core/../misc/../font/../misc/lv_area.h **** 
  37:Middlewares/lvgl/src/core/../misc/../font/../misc/lv_area.h **** LV_EXPORT_CONST_INT(LV_COORD_MAX);
  38:Middlewares/lvgl/src/core/../misc/../font/../misc/lv_area.h **** LV_EXPORT_CONST_INT(LV_COORD_MIN);
  39:Middlewares/lvgl/src/core/../misc/../font/../misc/lv_area.h **** 
  40:Middlewares/lvgl/src/core/../misc/../font/../misc/lv_area.h **** /**********************
  41:Middlewares/lvgl/src/core/../misc/../font/../misc/lv_area.h ****  *      TYPEDEFS
  42:Middlewares/lvgl/src/core/../misc/../font/../misc/lv_area.h ****  **********************/
  43:Middlewares/lvgl/src/core/../misc/../font/../misc/lv_area.h **** 
  44:Middlewares/lvgl/src/core/../misc/../font/../misc/lv_area.h **** /**
  45:Middlewares/lvgl/src/core/../misc/../font/../misc/lv_area.h ****  * Represents a point on the screen.
  46:Middlewares/lvgl/src/core/../misc/../font/../misc/lv_area.h ****  */
  47:Middlewares/lvgl/src/core/../misc/../font/../misc/lv_area.h **** typedef struct {
  48:Middlewares/lvgl/src/core/../misc/../font/../misc/lv_area.h ****     lv_coord_t x;
  49:Middlewares/lvgl/src/core/../misc/../font/../misc/lv_area.h ****     lv_coord_t y;
ARM GAS  /tmp/ccmgRVpn.s 			page 34


  50:Middlewares/lvgl/src/core/../misc/../font/../misc/lv_area.h **** } lv_point_t;
  51:Middlewares/lvgl/src/core/../misc/../font/../misc/lv_area.h **** 
  52:Middlewares/lvgl/src/core/../misc/../font/../misc/lv_area.h **** /** Represents an area of the screen.*/
  53:Middlewares/lvgl/src/core/../misc/../font/../misc/lv_area.h **** typedef struct {
  54:Middlewares/lvgl/src/core/../misc/../font/../misc/lv_area.h ****     lv_coord_t x1;
  55:Middlewares/lvgl/src/core/../misc/../font/../misc/lv_area.h ****     lv_coord_t y1;
  56:Middlewares/lvgl/src/core/../misc/../font/../misc/lv_area.h ****     lv_coord_t x2;
  57:Middlewares/lvgl/src/core/../misc/../font/../misc/lv_area.h ****     lv_coord_t y2;
  58:Middlewares/lvgl/src/core/../misc/../font/../misc/lv_area.h **** } lv_area_t;
  59:Middlewares/lvgl/src/core/../misc/../font/../misc/lv_area.h **** 
  60:Middlewares/lvgl/src/core/../misc/../font/../misc/lv_area.h **** /** Alignments*/
  61:Middlewares/lvgl/src/core/../misc/../font/../misc/lv_area.h **** enum {
  62:Middlewares/lvgl/src/core/../misc/../font/../misc/lv_area.h ****     LV_ALIGN_DEFAULT = 0,
  63:Middlewares/lvgl/src/core/../misc/../font/../misc/lv_area.h ****     LV_ALIGN_TOP_LEFT,
  64:Middlewares/lvgl/src/core/../misc/../font/../misc/lv_area.h ****     LV_ALIGN_TOP_MID,
  65:Middlewares/lvgl/src/core/../misc/../font/../misc/lv_area.h ****     LV_ALIGN_TOP_RIGHT,
  66:Middlewares/lvgl/src/core/../misc/../font/../misc/lv_area.h ****     LV_ALIGN_BOTTOM_LEFT,
  67:Middlewares/lvgl/src/core/../misc/../font/../misc/lv_area.h ****     LV_ALIGN_BOTTOM_MID,
  68:Middlewares/lvgl/src/core/../misc/../font/../misc/lv_area.h ****     LV_ALIGN_BOTTOM_RIGHT,
  69:Middlewares/lvgl/src/core/../misc/../font/../misc/lv_area.h ****     LV_ALIGN_LEFT_MID,
  70:Middlewares/lvgl/src/core/../misc/../font/../misc/lv_area.h ****     LV_ALIGN_RIGHT_MID,
  71:Middlewares/lvgl/src/core/../misc/../font/../misc/lv_area.h ****     LV_ALIGN_CENTER,
  72:Middlewares/lvgl/src/core/../misc/../font/../misc/lv_area.h **** 
  73:Middlewares/lvgl/src/core/../misc/../font/../misc/lv_area.h ****     LV_ALIGN_OUT_TOP_LEFT,
  74:Middlewares/lvgl/src/core/../misc/../font/../misc/lv_area.h ****     LV_ALIGN_OUT_TOP_MID,
  75:Middlewares/lvgl/src/core/../misc/../font/../misc/lv_area.h ****     LV_ALIGN_OUT_TOP_RIGHT,
  76:Middlewares/lvgl/src/core/../misc/../font/../misc/lv_area.h ****     LV_ALIGN_OUT_BOTTOM_LEFT,
  77:Middlewares/lvgl/src/core/../misc/../font/../misc/lv_area.h ****     LV_ALIGN_OUT_BOTTOM_MID,
  78:Middlewares/lvgl/src/core/../misc/../font/../misc/lv_area.h ****     LV_ALIGN_OUT_BOTTOM_RIGHT,
  79:Middlewares/lvgl/src/core/../misc/../font/../misc/lv_area.h ****     LV_ALIGN_OUT_LEFT_TOP,
  80:Middlewares/lvgl/src/core/../misc/../font/../misc/lv_area.h ****     LV_ALIGN_OUT_LEFT_MID,
  81:Middlewares/lvgl/src/core/../misc/../font/../misc/lv_area.h ****     LV_ALIGN_OUT_LEFT_BOTTOM,
  82:Middlewares/lvgl/src/core/../misc/../font/../misc/lv_area.h ****     LV_ALIGN_OUT_RIGHT_TOP,
  83:Middlewares/lvgl/src/core/../misc/../font/../misc/lv_area.h ****     LV_ALIGN_OUT_RIGHT_MID,
  84:Middlewares/lvgl/src/core/../misc/../font/../misc/lv_area.h ****     LV_ALIGN_OUT_RIGHT_BOTTOM,
  85:Middlewares/lvgl/src/core/../misc/../font/../misc/lv_area.h **** };
  86:Middlewares/lvgl/src/core/../misc/../font/../misc/lv_area.h **** typedef uint8_t lv_align_t;
  87:Middlewares/lvgl/src/core/../misc/../font/../misc/lv_area.h **** 
  88:Middlewares/lvgl/src/core/../misc/../font/../misc/lv_area.h **** enum {
  89:Middlewares/lvgl/src/core/../misc/../font/../misc/lv_area.h ****     LV_DIR_NONE     = 0x00,
  90:Middlewares/lvgl/src/core/../misc/../font/../misc/lv_area.h ****     LV_DIR_LEFT     = (1 << 0),
  91:Middlewares/lvgl/src/core/../misc/../font/../misc/lv_area.h ****     LV_DIR_RIGHT    = (1 << 1),
  92:Middlewares/lvgl/src/core/../misc/../font/../misc/lv_area.h ****     LV_DIR_TOP      = (1 << 2),
  93:Middlewares/lvgl/src/core/../misc/../font/../misc/lv_area.h ****     LV_DIR_BOTTOM   = (1 << 3),
  94:Middlewares/lvgl/src/core/../misc/../font/../misc/lv_area.h ****     LV_DIR_HOR      = LV_DIR_LEFT | LV_DIR_RIGHT,
  95:Middlewares/lvgl/src/core/../misc/../font/../misc/lv_area.h ****     LV_DIR_VER      = LV_DIR_TOP | LV_DIR_BOTTOM,
  96:Middlewares/lvgl/src/core/../misc/../font/../misc/lv_area.h ****     LV_DIR_ALL      = LV_DIR_HOR | LV_DIR_VER,
  97:Middlewares/lvgl/src/core/../misc/../font/../misc/lv_area.h **** };
  98:Middlewares/lvgl/src/core/../misc/../font/../misc/lv_area.h **** 
  99:Middlewares/lvgl/src/core/../misc/../font/../misc/lv_area.h **** typedef uint8_t lv_dir_t;
 100:Middlewares/lvgl/src/core/../misc/../font/../misc/lv_area.h **** 
 101:Middlewares/lvgl/src/core/../misc/../font/../misc/lv_area.h **** /**********************
 102:Middlewares/lvgl/src/core/../misc/../font/../misc/lv_area.h ****  * GLOBAL PROTOTYPES
 103:Middlewares/lvgl/src/core/../misc/../font/../misc/lv_area.h ****  **********************/
 104:Middlewares/lvgl/src/core/../misc/../font/../misc/lv_area.h **** 
 105:Middlewares/lvgl/src/core/../misc/../font/../misc/lv_area.h **** /**
 106:Middlewares/lvgl/src/core/../misc/../font/../misc/lv_area.h ****  * Initialize an area
ARM GAS  /tmp/ccmgRVpn.s 			page 35


 107:Middlewares/lvgl/src/core/../misc/../font/../misc/lv_area.h ****  * @param area_p pointer to an area
 108:Middlewares/lvgl/src/core/../misc/../font/../misc/lv_area.h ****  * @param x1 left coordinate of the area
 109:Middlewares/lvgl/src/core/../misc/../font/../misc/lv_area.h ****  * @param y1 top coordinate of the area
 110:Middlewares/lvgl/src/core/../misc/../font/../misc/lv_area.h ****  * @param x2 right coordinate of the area
 111:Middlewares/lvgl/src/core/../misc/../font/../misc/lv_area.h ****  * @param y2 bottom coordinate of the area
 112:Middlewares/lvgl/src/core/../misc/../font/../misc/lv_area.h ****  */
 113:Middlewares/lvgl/src/core/../misc/../font/../misc/lv_area.h **** void lv_area_set(lv_area_t * area_p, lv_coord_t x1, lv_coord_t y1, lv_coord_t x2, lv_coord_t y2);
 114:Middlewares/lvgl/src/core/../misc/../font/../misc/lv_area.h **** 
 115:Middlewares/lvgl/src/core/../misc/../font/../misc/lv_area.h **** /**
 116:Middlewares/lvgl/src/core/../misc/../font/../misc/lv_area.h ****  * Copy an area
 117:Middlewares/lvgl/src/core/../misc/../font/../misc/lv_area.h ****  * @param dest pointer to the destination area
 118:Middlewares/lvgl/src/core/../misc/../font/../misc/lv_area.h ****  * @param src pointer to the source area
 119:Middlewares/lvgl/src/core/../misc/../font/../misc/lv_area.h ****  */
 120:Middlewares/lvgl/src/core/../misc/../font/../misc/lv_area.h **** inline static void lv_area_copy(lv_area_t * dest, const lv_area_t * src)
 985              		.loc 3 120 20 view .LVU242
 986              	.LBB136:
 121:Middlewares/lvgl/src/core/../misc/../font/../misc/lv_area.h **** {
 122:Middlewares/lvgl/src/core/../misc/../font/../misc/lv_area.h ****     dest->x1 = src->x1;
 987              		.loc 3 122 5 view .LVU243
 988              		.loc 3 122 19 is_stmt 0 view .LVU244
 989 0000 B0F91430 		ldrsh	r3, [r0, #20]
 990              		.loc 3 122 14 view .LVU245
 991 0004 0B80     		strh	r3, [r1]	@ movhi
 123:Middlewares/lvgl/src/core/../misc/../font/../misc/lv_area.h ****     dest->y1 = src->y1;
 992              		.loc 3 123 5 is_stmt 1 view .LVU246
 993              		.loc 3 123 19 is_stmt 0 view .LVU247
 994 0006 B0F91630 		ldrsh	r3, [r0, #22]
 995              		.loc 3 123 14 view .LVU248
 996 000a 4B80     		strh	r3, [r1, #2]	@ movhi
 124:Middlewares/lvgl/src/core/../misc/../font/../misc/lv_area.h ****     dest->x2 = src->x2;
 997              		.loc 3 124 5 is_stmt 1 view .LVU249
 998              		.loc 3 124 19 is_stmt 0 view .LVU250
 999 000c B0F91830 		ldrsh	r3, [r0, #24]
 1000              		.loc 3 124 14 view .LVU251
 1001 0010 8B80     		strh	r3, [r1, #4]	@ movhi
 125:Middlewares/lvgl/src/core/../misc/../font/../misc/lv_area.h ****     dest->y2 = src->y2;
 1002              		.loc 3 125 5 is_stmt 1 view .LVU252
 1003              		.loc 3 125 19 is_stmt 0 view .LVU253
 1004 0012 B0F91A30 		ldrsh	r3, [r0, #26]
 1005              		.loc 3 125 14 view .LVU254
 1006 0016 CB80     		strh	r3, [r1, #6]	@ movhi
 1007              	.LVL80:
 1008              		.loc 3 125 14 view .LVU255
 1009              	.LBE136:
 1010              	.LBE135:
 475:Middlewares/lvgl/src/core/lv_obj_pos.c **** }
 1011              		.loc 1 475 1 view .LVU256
 1012 0018 7047     		bx	lr
 1013              		.cfi_endproc
 1014              	.LFE170:
 1016              		.section	.text.lv_obj_get_x,"ax",%progbits
 1017              		.align	1
 1018              		.global	lv_obj_get_x
 1019              		.syntax unified
 1020              		.thumb
 1021              		.thumb_func
 1023              	lv_obj_get_x:
ARM GAS  /tmp/ccmgRVpn.s 			page 36


 1024              	.LVL81:
 1025              	.LFB171:
 476:Middlewares/lvgl/src/core/lv_obj_pos.c **** 
 477:Middlewares/lvgl/src/core/lv_obj_pos.c **** lv_coord_t lv_obj_get_x(const lv_obj_t * obj)
 478:Middlewares/lvgl/src/core/lv_obj_pos.c **** {
 1026              		.loc 1 478 1 is_stmt 1 view -0
 1027              		.cfi_startproc
 1028              		@ args = 0, pretend = 0, frame = 0
 1029              		@ frame_needed = 0, uses_anonymous_args = 0
 1030              		.loc 1 478 1 is_stmt 0 view .LVU258
 1031 0000 38B5     		push	{r3, r4, r5, lr}
 1032              	.LCFI26:
 1033              		.cfi_def_cfa_offset 16
 1034              		.cfi_offset 3, -16
 1035              		.cfi_offset 4, -12
 1036              		.cfi_offset 5, -8
 1037              		.cfi_offset 14, -4
 1038 0002 0446     		mov	r4, r0
 479:Middlewares/lvgl/src/core/lv_obj_pos.c ****     LV_ASSERT_OBJ(obj, MY_CLASS);
 1039              		.loc 1 479 5 is_stmt 1 view .LVU259
 1040              		.loc 1 479 5 view .LVU260
 1041              		.loc 1 479 5 view .LVU261
 480:Middlewares/lvgl/src/core/lv_obj_pos.c **** 
 481:Middlewares/lvgl/src/core/lv_obj_pos.c ****     lv_coord_t rel_x;
 1042              		.loc 1 481 5 view .LVU262
 482:Middlewares/lvgl/src/core/lv_obj_pos.c ****     lv_obj_t * parent = lv_obj_get_parent(obj);
 1043              		.loc 1 482 5 view .LVU263
 1044              		.loc 1 482 25 is_stmt 0 view .LVU264
 1045 0004 FFF7FEFF 		bl	lv_obj_get_parent
 1046              	.LVL82:
 483:Middlewares/lvgl/src/core/lv_obj_pos.c ****     if(parent) {
 1047              		.loc 1 483 5 is_stmt 1 view .LVU265
 1048              		.loc 1 483 7 is_stmt 0 view .LVU266
 1049 0008 E0B1     		cbz	r0, .L62
 1050 000a 0546     		mov	r5, r0
 484:Middlewares/lvgl/src/core/lv_obj_pos.c ****         rel_x  = obj->coords.x1 - parent->coords.x1;
 1051              		.loc 1 484 9 is_stmt 1 view .LVU267
 1052              		.loc 1 484 29 is_stmt 0 view .LVU268
 1053 000c A48A     		ldrh	r4, [r4, #20]
 1054              	.LVL83:
 1055              		.loc 1 484 49 view .LVU269
 1056 000e 838A     		ldrh	r3, [r0, #20]
 1057              		.loc 1 484 33 view .LVU270
 1058 0010 E41A     		subs	r4, r4, r3
 1059 0012 A4B2     		uxth	r4, r4
 1060              	.LVL84:
 485:Middlewares/lvgl/src/core/lv_obj_pos.c ****         rel_x += lv_obj_get_scroll_x(parent);
 1061              		.loc 1 485 9 is_stmt 1 view .LVU271
 1062              		.loc 1 485 18 is_stmt 0 view .LVU272
 1063 0014 FFF7FEFF 		bl	lv_obj_get_scroll_x
 1064              	.LVL85:
 1065              		.loc 1 485 15 view .LVU273
 1066 0018 14FA80F4 		uxtah	r4, r4, r0
 1067              	.LVL86:
 1068              		.loc 1 485 15 view .LVU274
 1069 001c A4B2     		uxth	r4, r4
 1070              	.LVL87:
ARM GAS  /tmp/ccmgRVpn.s 			page 37


 486:Middlewares/lvgl/src/core/lv_obj_pos.c ****         rel_x -= lv_obj_get_style_pad_left(parent, LV_PART_MAIN);
 1071              		.loc 1 486 9 is_stmt 1 view .LVU275
 1072              	.LBB137:
 1073              	.LBI137:
 103:Middlewares/lvgl/src/core/lv_obj_style_gen.h **** {
 1074              		.loc 2 103 26 view .LVU276
 1075              	.LBB138:
 105:Middlewares/lvgl/src/core/lv_obj_style_gen.h ****     return (lv_coord_t)v.num;
 1076              		.loc 2 105 5 view .LVU277
 105:Middlewares/lvgl/src/core/lv_obj_style_gen.h ****     return (lv_coord_t)v.num;
 1077              		.loc 2 105 26 is_stmt 0 view .LVU278
 1078 001e 41F21202 		movw	r2, #4114
 1079 0022 0021     		movs	r1, #0
 1080 0024 2846     		mov	r0, r5
 1081 0026 FFF7FEFF 		bl	lv_obj_get_style_prop
 1082              	.LVL88:
 106:Middlewares/lvgl/src/core/lv_obj_style_gen.h **** }
 1083              		.loc 2 106 5 is_stmt 1 view .LVU279
 106:Middlewares/lvgl/src/core/lv_obj_style_gen.h **** }
 1084              		.loc 2 106 5 is_stmt 0 view .LVU280
 1085              	.LBE138:
 1086              	.LBE137:
 1087              		.loc 1 486 18 view .LVU281
 1088 002a 80B2     		uxth	r0, r0
 1089              		.loc 1 486 15 view .LVU282
 1090 002c 241A     		subs	r4, r4, r0
 1091              	.LVL89:
 1092              		.loc 1 486 15 view .LVU283
 1093 002e A4B2     		uxth	r4, r4
 1094              	.LVL90:
 487:Middlewares/lvgl/src/core/lv_obj_pos.c ****         rel_x -= lv_obj_get_style_border_width(parent, LV_PART_MAIN);
 1095              		.loc 1 487 9 is_stmt 1 view .LVU284
 1096              	.LBB139:
 1097              	.LBI139:
 295:Middlewares/lvgl/src/core/lv_obj_style_gen.h **** {
 1098              		.loc 2 295 26 view .LVU285
 1099              	.LBB140:
 297:Middlewares/lvgl/src/core/lv_obj_style_gen.h ****     return (lv_coord_t)v.num;
 1100              		.loc 2 297 5 view .LVU286
 297:Middlewares/lvgl/src/core/lv_obj_style_gen.h ****     return (lv_coord_t)v.num;
 1101              		.loc 2 297 26 is_stmt 0 view .LVU287
 1102 0030 41F23202 		movw	r2, #4146
 1103 0034 0021     		movs	r1, #0
 1104 0036 2846     		mov	r0, r5
 1105 0038 FFF7FEFF 		bl	lv_obj_get_style_prop
 1106              	.LVL91:
 1107              		.loc 2 298 5 is_stmt 1 view .LVU288
 1108              		.loc 2 298 5 is_stmt 0 view .LVU289
 1109              	.LBE140:
 1110              	.LBE139:
 1111              		.loc 1 487 18 view .LVU290
 1112 003c 80B2     		uxth	r0, r0
 1113              		.loc 1 487 15 view .LVU291
 1114 003e 201A     		subs	r0, r4, r0
 1115 0040 00B2     		sxth	r0, r0
 1116              	.LVL92:
 1117              	.L63:
ARM GAS  /tmp/ccmgRVpn.s 			page 38


 488:Middlewares/lvgl/src/core/lv_obj_pos.c ****     }
 489:Middlewares/lvgl/src/core/lv_obj_pos.c ****     else {
 490:Middlewares/lvgl/src/core/lv_obj_pos.c ****         rel_x = obj->coords.x1;
 491:Middlewares/lvgl/src/core/lv_obj_pos.c ****     }
 492:Middlewares/lvgl/src/core/lv_obj_pos.c ****     return rel_x;
 1118              		.loc 1 492 5 is_stmt 1 view .LVU292
 493:Middlewares/lvgl/src/core/lv_obj_pos.c **** }
 1119              		.loc 1 493 1 is_stmt 0 view .LVU293
 1120 0042 38BD     		pop	{r3, r4, r5, pc}
 1121              	.LVL93:
 1122              	.L62:
 490:Middlewares/lvgl/src/core/lv_obj_pos.c ****     }
 1123              		.loc 1 490 9 is_stmt 1 view .LVU294
 490:Middlewares/lvgl/src/core/lv_obj_pos.c ****     }
 1124              		.loc 1 490 15 is_stmt 0 view .LVU295
 1125 0044 B4F91400 		ldrsh	r0, [r4, #20]
 1126              	.LVL94:
 490:Middlewares/lvgl/src/core/lv_obj_pos.c ****     }
 1127              		.loc 1 490 15 view .LVU296
 1128 0048 FBE7     		b	.L63
 1129              		.cfi_endproc
 1130              	.LFE171:
 1132              		.section	.text.lv_obj_get_y,"ax",%progbits
 1133              		.align	1
 1134              		.global	lv_obj_get_y
 1135              		.syntax unified
 1136              		.thumb
 1137              		.thumb_func
 1139              	lv_obj_get_y:
 1140              	.LVL95:
 1141              	.LFB173:
 494:Middlewares/lvgl/src/core/lv_obj_pos.c **** 
 495:Middlewares/lvgl/src/core/lv_obj_pos.c **** lv_coord_t lv_obj_get_x2(const lv_obj_t * obj)
 496:Middlewares/lvgl/src/core/lv_obj_pos.c **** {
 497:Middlewares/lvgl/src/core/lv_obj_pos.c ****     LV_ASSERT_OBJ(obj, MY_CLASS);
 498:Middlewares/lvgl/src/core/lv_obj_pos.c **** 
 499:Middlewares/lvgl/src/core/lv_obj_pos.c ****     return lv_obj_get_x(obj) + lv_obj_get_width(obj);
 500:Middlewares/lvgl/src/core/lv_obj_pos.c **** }
 501:Middlewares/lvgl/src/core/lv_obj_pos.c **** 
 502:Middlewares/lvgl/src/core/lv_obj_pos.c **** lv_coord_t lv_obj_get_y(const lv_obj_t * obj)
 503:Middlewares/lvgl/src/core/lv_obj_pos.c **** {
 1142              		.loc 1 503 1 is_stmt 1 view -0
 1143              		.cfi_startproc
 1144              		@ args = 0, pretend = 0, frame = 0
 1145              		@ frame_needed = 0, uses_anonymous_args = 0
 1146              		.loc 1 503 1 is_stmt 0 view .LVU298
 1147 0000 38B5     		push	{r3, r4, r5, lr}
 1148              	.LCFI27:
 1149              		.cfi_def_cfa_offset 16
 1150              		.cfi_offset 3, -16
 1151              		.cfi_offset 4, -12
 1152              		.cfi_offset 5, -8
 1153              		.cfi_offset 14, -4
 1154 0002 0446     		mov	r4, r0
 504:Middlewares/lvgl/src/core/lv_obj_pos.c ****     LV_ASSERT_OBJ(obj, MY_CLASS);
 1155              		.loc 1 504 5 is_stmt 1 view .LVU299
 1156              		.loc 1 504 5 view .LVU300
ARM GAS  /tmp/ccmgRVpn.s 			page 39


 1157              		.loc 1 504 5 view .LVU301
 505:Middlewares/lvgl/src/core/lv_obj_pos.c **** 
 506:Middlewares/lvgl/src/core/lv_obj_pos.c ****     lv_coord_t rel_y;
 1158              		.loc 1 506 5 view .LVU302
 507:Middlewares/lvgl/src/core/lv_obj_pos.c ****     lv_obj_t * parent = lv_obj_get_parent(obj);
 1159              		.loc 1 507 5 view .LVU303
 1160              		.loc 1 507 25 is_stmt 0 view .LVU304
 1161 0004 FFF7FEFF 		bl	lv_obj_get_parent
 1162              	.LVL96:
 508:Middlewares/lvgl/src/core/lv_obj_pos.c ****     if(parent) {
 1163              		.loc 1 508 5 is_stmt 1 view .LVU305
 1164              		.loc 1 508 7 is_stmt 0 view .LVU306
 1165 0008 E0B1     		cbz	r0, .L66
 1166 000a 0546     		mov	r5, r0
 509:Middlewares/lvgl/src/core/lv_obj_pos.c ****         rel_y = obj->coords.y1 - parent->coords.y1;
 1167              		.loc 1 509 9 is_stmt 1 view .LVU307
 1168              		.loc 1 509 28 is_stmt 0 view .LVU308
 1169 000c E48A     		ldrh	r4, [r4, #22]
 1170              	.LVL97:
 1171              		.loc 1 509 48 view .LVU309
 1172 000e C38A     		ldrh	r3, [r0, #22]
 1173              		.loc 1 509 32 view .LVU310
 1174 0010 E41A     		subs	r4, r4, r3
 1175 0012 A4B2     		uxth	r4, r4
 1176              	.LVL98:
 510:Middlewares/lvgl/src/core/lv_obj_pos.c ****         rel_y += lv_obj_get_scroll_y(parent);
 1177              		.loc 1 510 9 is_stmt 1 view .LVU311
 1178              		.loc 1 510 18 is_stmt 0 view .LVU312
 1179 0014 FFF7FEFF 		bl	lv_obj_get_scroll_y
 1180              	.LVL99:
 1181              		.loc 1 510 15 view .LVU313
 1182 0018 14FA80F4 		uxtah	r4, r4, r0
 1183              	.LVL100:
 1184              		.loc 1 510 15 view .LVU314
 1185 001c A4B2     		uxth	r4, r4
 1186              	.LVL101:
 511:Middlewares/lvgl/src/core/lv_obj_pos.c ****         rel_y -= lv_obj_get_style_pad_top(parent, LV_PART_MAIN);
 1187              		.loc 1 511 9 is_stmt 1 view .LVU315
 1188              	.LBB141:
 1189              	.LBI141:
  91:Middlewares/lvgl/src/core/lv_obj_style_gen.h **** {
 1190              		.loc 2 91 26 view .LVU316
 1191              	.LBB142:
  93:Middlewares/lvgl/src/core/lv_obj_style_gen.h ****     return (lv_coord_t)v.num;
 1192              		.loc 2 93 5 view .LVU317
  93:Middlewares/lvgl/src/core/lv_obj_style_gen.h ****     return (lv_coord_t)v.num;
 1193              		.loc 2 93 26 is_stmt 0 view .LVU318
 1194 001e 41F21002 		movw	r2, #4112
 1195 0022 0021     		movs	r1, #0
 1196 0024 2846     		mov	r0, r5
 1197 0026 FFF7FEFF 		bl	lv_obj_get_style_prop
 1198              	.LVL102:
  94:Middlewares/lvgl/src/core/lv_obj_style_gen.h **** }
 1199              		.loc 2 94 5 is_stmt 1 view .LVU319
  94:Middlewares/lvgl/src/core/lv_obj_style_gen.h **** }
 1200              		.loc 2 94 5 is_stmt 0 view .LVU320
 1201              	.LBE142:
ARM GAS  /tmp/ccmgRVpn.s 			page 40


 1202              	.LBE141:
 1203              		.loc 1 511 18 view .LVU321
 1204 002a 80B2     		uxth	r0, r0
 1205              		.loc 1 511 15 view .LVU322
 1206 002c 241A     		subs	r4, r4, r0
 1207              	.LVL103:
 1208              		.loc 1 511 15 view .LVU323
 1209 002e A4B2     		uxth	r4, r4
 1210              	.LVL104:
 512:Middlewares/lvgl/src/core/lv_obj_pos.c ****         rel_y -= lv_obj_get_style_border_width(parent, LV_PART_MAIN);
 1211              		.loc 1 512 9 is_stmt 1 view .LVU324
 1212              	.LBB143:
 1213              	.LBI143:
 295:Middlewares/lvgl/src/core/lv_obj_style_gen.h **** {
 1214              		.loc 2 295 26 view .LVU325
 1215              	.LBB144:
 297:Middlewares/lvgl/src/core/lv_obj_style_gen.h ****     return (lv_coord_t)v.num;
 1216              		.loc 2 297 5 view .LVU326
 297:Middlewares/lvgl/src/core/lv_obj_style_gen.h ****     return (lv_coord_t)v.num;
 1217              		.loc 2 297 26 is_stmt 0 view .LVU327
 1218 0030 41F23202 		movw	r2, #4146
 1219 0034 0021     		movs	r1, #0
 1220 0036 2846     		mov	r0, r5
 1221 0038 FFF7FEFF 		bl	lv_obj_get_style_prop
 1222              	.LVL105:
 1223              		.loc 2 298 5 is_stmt 1 view .LVU328
 1224              		.loc 2 298 5 is_stmt 0 view .LVU329
 1225              	.LBE144:
 1226              	.LBE143:
 1227              		.loc 1 512 18 view .LVU330
 1228 003c 80B2     		uxth	r0, r0
 1229              		.loc 1 512 15 view .LVU331
 1230 003e 201A     		subs	r0, r4, r0
 1231 0040 00B2     		sxth	r0, r0
 1232              	.LVL106:
 1233              	.L67:
 513:Middlewares/lvgl/src/core/lv_obj_pos.c ****     }
 514:Middlewares/lvgl/src/core/lv_obj_pos.c ****     else {
 515:Middlewares/lvgl/src/core/lv_obj_pos.c ****         rel_y = obj->coords.y1;
 516:Middlewares/lvgl/src/core/lv_obj_pos.c ****     }
 517:Middlewares/lvgl/src/core/lv_obj_pos.c ****     return rel_y;
 1234              		.loc 1 517 5 is_stmt 1 view .LVU332
 518:Middlewares/lvgl/src/core/lv_obj_pos.c **** }
 1235              		.loc 1 518 1 is_stmt 0 view .LVU333
 1236 0042 38BD     		pop	{r3, r4, r5, pc}
 1237              	.LVL107:
 1238              	.L66:
 515:Middlewares/lvgl/src/core/lv_obj_pos.c ****     }
 1239              		.loc 1 515 9 is_stmt 1 view .LVU334
 515:Middlewares/lvgl/src/core/lv_obj_pos.c ****     }
 1240              		.loc 1 515 15 is_stmt 0 view .LVU335
 1241 0044 B4F91600 		ldrsh	r0, [r4, #22]
 1242              	.LVL108:
 515:Middlewares/lvgl/src/core/lv_obj_pos.c ****     }
 1243              		.loc 1 515 15 view .LVU336
 1244 0048 FBE7     		b	.L67
 1245              		.cfi_endproc
ARM GAS  /tmp/ccmgRVpn.s 			page 41


 1246              	.LFE173:
 1248              		.section	.text.lv_obj_get_width,"ax",%progbits
 1249              		.align	1
 1250              		.global	lv_obj_get_width
 1251              		.syntax unified
 1252              		.thumb
 1253              		.thumb_func
 1255              	lv_obj_get_width:
 1256              	.LVL109:
 1257              	.LFB175:
 519:Middlewares/lvgl/src/core/lv_obj_pos.c **** 
 520:Middlewares/lvgl/src/core/lv_obj_pos.c **** lv_coord_t lv_obj_get_y2(const lv_obj_t * obj)
 521:Middlewares/lvgl/src/core/lv_obj_pos.c **** {
 522:Middlewares/lvgl/src/core/lv_obj_pos.c ****     LV_ASSERT_OBJ(obj, MY_CLASS);
 523:Middlewares/lvgl/src/core/lv_obj_pos.c **** 
 524:Middlewares/lvgl/src/core/lv_obj_pos.c ****     return lv_obj_get_y(obj) + lv_obj_get_height(obj);
 525:Middlewares/lvgl/src/core/lv_obj_pos.c **** }
 526:Middlewares/lvgl/src/core/lv_obj_pos.c **** 
 527:Middlewares/lvgl/src/core/lv_obj_pos.c **** lv_coord_t lv_obj_get_width(const lv_obj_t * obj)
 528:Middlewares/lvgl/src/core/lv_obj_pos.c **** {
 1258              		.loc 1 528 1 is_stmt 1 view -0
 1259              		.cfi_startproc
 1260              		@ args = 0, pretend = 0, frame = 0
 1261              		@ frame_needed = 0, uses_anonymous_args = 0
 1262              		@ link register save eliminated.
 1263              		.loc 1 528 1 is_stmt 0 view .LVU338
 1264 0000 0346     		mov	r3, r0
 529:Middlewares/lvgl/src/core/lv_obj_pos.c ****     LV_ASSERT_OBJ(obj, MY_CLASS);
 1265              		.loc 1 529 5 is_stmt 1 view .LVU339
 1266              		.loc 1 529 5 view .LVU340
 1267              		.loc 1 529 5 view .LVU341
 530:Middlewares/lvgl/src/core/lv_obj_pos.c **** 
 531:Middlewares/lvgl/src/core/lv_obj_pos.c ****     return lv_area_get_width(&obj->coords);
 1268              		.loc 1 531 5 view .LVU342
 1269              	.LVL110:
 1270              	.LBB145:
 1271              	.LBI145:
 126:Middlewares/lvgl/src/core/../misc/../font/../misc/lv_area.h **** }
 127:Middlewares/lvgl/src/core/../misc/../font/../misc/lv_area.h **** 
 128:Middlewares/lvgl/src/core/../misc/../font/../misc/lv_area.h **** /**
 129:Middlewares/lvgl/src/core/../misc/../font/../misc/lv_area.h ****  * Get the width of an area
 130:Middlewares/lvgl/src/core/../misc/../font/../misc/lv_area.h ****  * @param area_p pointer to an area
 131:Middlewares/lvgl/src/core/../misc/../font/../misc/lv_area.h ****  * @return the width of the area (if x1 == x2 -> width = 1)
 132:Middlewares/lvgl/src/core/../misc/../font/../misc/lv_area.h ****  */
 133:Middlewares/lvgl/src/core/../misc/../font/../misc/lv_area.h **** static inline lv_coord_t lv_area_get_width(const lv_area_t * area_p)
 1272              		.loc 3 133 26 view .LVU343
 1273              	.LBB146:
 134:Middlewares/lvgl/src/core/../misc/../font/../misc/lv_area.h **** {
 135:Middlewares/lvgl/src/core/../misc/../font/../misc/lv_area.h ****     return (lv_coord_t)(area_p->x2 - area_p->x1 + 1);
 1274              		.loc 3 135 5 view .LVU344
 1275              		.loc 3 135 31 is_stmt 0 view .LVU345
 1276 0002 008B     		ldrh	r0, [r0, #24]
 1277              	.LVL111:
 1278              		.loc 3 135 44 view .LVU346
 1279 0004 9B8A     		ldrh	r3, [r3, #20]
 1280              	.LVL112:
 1281              		.loc 3 135 36 view .LVU347
ARM GAS  /tmp/ccmgRVpn.s 			page 42


 1282 0006 C01A     		subs	r0, r0, r3
 1283 0008 80B2     		uxth	r0, r0
 1284              		.loc 3 135 49 view .LVU348
 1285 000a 0130     		adds	r0, r0, #1
 1286              	.LVL113:
 1287              		.loc 3 135 49 view .LVU349
 1288              	.LBE146:
 1289              	.LBE145:
 532:Middlewares/lvgl/src/core/lv_obj_pos.c **** }
 1290              		.loc 1 532 1 view .LVU350
 1291 000c 00B2     		sxth	r0, r0
 1292 000e 7047     		bx	lr
 1293              		.cfi_endproc
 1294              	.LFE175:
 1296              		.section	.text.lv_obj_get_x2,"ax",%progbits
 1297              		.align	1
 1298              		.global	lv_obj_get_x2
 1299              		.syntax unified
 1300              		.thumb
 1301              		.thumb_func
 1303              	lv_obj_get_x2:
 1304              	.LVL114:
 1305              	.LFB172:
 496:Middlewares/lvgl/src/core/lv_obj_pos.c ****     LV_ASSERT_OBJ(obj, MY_CLASS);
 1306              		.loc 1 496 1 is_stmt 1 view -0
 1307              		.cfi_startproc
 1308              		@ args = 0, pretend = 0, frame = 0
 1309              		@ frame_needed = 0, uses_anonymous_args = 0
 496:Middlewares/lvgl/src/core/lv_obj_pos.c ****     LV_ASSERT_OBJ(obj, MY_CLASS);
 1310              		.loc 1 496 1 is_stmt 0 view .LVU352
 1311 0000 38B5     		push	{r3, r4, r5, lr}
 1312              	.LCFI28:
 1313              		.cfi_def_cfa_offset 16
 1314              		.cfi_offset 3, -16
 1315              		.cfi_offset 4, -12
 1316              		.cfi_offset 5, -8
 1317              		.cfi_offset 14, -4
 1318 0002 0546     		mov	r5, r0
 497:Middlewares/lvgl/src/core/lv_obj_pos.c **** 
 1319              		.loc 1 497 5 is_stmt 1 view .LVU353
 497:Middlewares/lvgl/src/core/lv_obj_pos.c **** 
 1320              		.loc 1 497 5 view .LVU354
 497:Middlewares/lvgl/src/core/lv_obj_pos.c **** 
 1321              		.loc 1 497 5 view .LVU355
 499:Middlewares/lvgl/src/core/lv_obj_pos.c **** }
 1322              		.loc 1 499 5 view .LVU356
 499:Middlewares/lvgl/src/core/lv_obj_pos.c **** }
 1323              		.loc 1 499 12 is_stmt 0 view .LVU357
 1324 0004 FFF7FEFF 		bl	lv_obj_get_x
 1325              	.LVL115:
 499:Middlewares/lvgl/src/core/lv_obj_pos.c **** }
 1326              		.loc 1 499 12 view .LVU358
 1327 0008 84B2     		uxth	r4, r0
 499:Middlewares/lvgl/src/core/lv_obj_pos.c **** }
 1328              		.loc 1 499 32 view .LVU359
 1329 000a 2846     		mov	r0, r5
 1330 000c FFF7FEFF 		bl	lv_obj_get_width
ARM GAS  /tmp/ccmgRVpn.s 			page 43


 1331              	.LVL116:
 499:Middlewares/lvgl/src/core/lv_obj_pos.c **** }
 1332              		.loc 1 499 30 view .LVU360
 1333 0010 14FA80F0 		uxtah	r0, r4, r0
 500:Middlewares/lvgl/src/core/lv_obj_pos.c **** 
 1334              		.loc 1 500 1 view .LVU361
 1335 0014 00B2     		sxth	r0, r0
 1336 0016 38BD     		pop	{r3, r4, r5, pc}
 500:Middlewares/lvgl/src/core/lv_obj_pos.c **** 
 1337              		.loc 1 500 1 view .LVU362
 1338              		.cfi_endproc
 1339              	.LFE172:
 1341              		.section	.text.lv_obj_get_height,"ax",%progbits
 1342              		.align	1
 1343              		.global	lv_obj_get_height
 1344              		.syntax unified
 1345              		.thumb
 1346              		.thumb_func
 1348              	lv_obj_get_height:
 1349              	.LVL117:
 1350              	.LFB176:
 533:Middlewares/lvgl/src/core/lv_obj_pos.c **** 
 534:Middlewares/lvgl/src/core/lv_obj_pos.c **** lv_coord_t lv_obj_get_height(const lv_obj_t * obj)
 535:Middlewares/lvgl/src/core/lv_obj_pos.c **** {
 1351              		.loc 1 535 1 is_stmt 1 view -0
 1352              		.cfi_startproc
 1353              		@ args = 0, pretend = 0, frame = 0
 1354              		@ frame_needed = 0, uses_anonymous_args = 0
 1355              		@ link register save eliminated.
 1356              		.loc 1 535 1 is_stmt 0 view .LVU364
 1357 0000 0346     		mov	r3, r0
 536:Middlewares/lvgl/src/core/lv_obj_pos.c ****     LV_ASSERT_OBJ(obj, MY_CLASS);
 1358              		.loc 1 536 5 is_stmt 1 view .LVU365
 1359              		.loc 1 536 5 view .LVU366
 1360              		.loc 1 536 5 view .LVU367
 537:Middlewares/lvgl/src/core/lv_obj_pos.c **** 
 538:Middlewares/lvgl/src/core/lv_obj_pos.c ****     return lv_area_get_height(&obj->coords);
 1361              		.loc 1 538 5 view .LVU368
 1362              	.LVL118:
 1363              	.LBB147:
 1364              	.LBI147:
 136:Middlewares/lvgl/src/core/../misc/../font/../misc/lv_area.h **** }
 137:Middlewares/lvgl/src/core/../misc/../font/../misc/lv_area.h **** 
 138:Middlewares/lvgl/src/core/../misc/../font/../misc/lv_area.h **** /**
 139:Middlewares/lvgl/src/core/../misc/../font/../misc/lv_area.h ****  * Get the height of an area
 140:Middlewares/lvgl/src/core/../misc/../font/../misc/lv_area.h ****  * @param area_p pointer to an area
 141:Middlewares/lvgl/src/core/../misc/../font/../misc/lv_area.h ****  * @return the height of the area (if y1 == y2 -> height = 1)
 142:Middlewares/lvgl/src/core/../misc/../font/../misc/lv_area.h ****  */
 143:Middlewares/lvgl/src/core/../misc/../font/../misc/lv_area.h **** static inline lv_coord_t lv_area_get_height(const lv_area_t * area_p)
 1365              		.loc 3 143 26 view .LVU369
 1366              	.LBB148:
 144:Middlewares/lvgl/src/core/../misc/../font/../misc/lv_area.h **** {
 145:Middlewares/lvgl/src/core/../misc/../font/../misc/lv_area.h ****     return (lv_coord_t)(area_p->y2 - area_p->y1 + 1);
 1367              		.loc 3 145 5 view .LVU370
 1368              		.loc 3 145 31 is_stmt 0 view .LVU371
 1369 0002 408B     		ldrh	r0, [r0, #26]
 1370              	.LVL119:
ARM GAS  /tmp/ccmgRVpn.s 			page 44


 1371              		.loc 3 145 44 view .LVU372
 1372 0004 DB8A     		ldrh	r3, [r3, #22]
 1373              	.LVL120:
 1374              		.loc 3 145 36 view .LVU373
 1375 0006 C01A     		subs	r0, r0, r3
 1376 0008 80B2     		uxth	r0, r0
 1377              		.loc 3 145 49 view .LVU374
 1378 000a 0130     		adds	r0, r0, #1
 1379              	.LVL121:
 1380              		.loc 3 145 49 view .LVU375
 1381              	.LBE148:
 1382              	.LBE147:
 539:Middlewares/lvgl/src/core/lv_obj_pos.c **** }
 1383              		.loc 1 539 1 view .LVU376
 1384 000c 00B2     		sxth	r0, r0
 1385 000e 7047     		bx	lr
 1386              		.cfi_endproc
 1387              	.LFE176:
 1389              		.section	.text.calc_auto_size,"ax",%progbits
 1390              		.align	1
 1391              		.syntax unified
 1392              		.thumb
 1393              		.thumb_func
 1395              	calc_auto_size:
 1396              	.LVL122:
 1397              	.LFB195:
 540:Middlewares/lvgl/src/core/lv_obj_pos.c **** 
 541:Middlewares/lvgl/src/core/lv_obj_pos.c **** lv_coord_t lv_obj_get_content_width(const lv_obj_t * obj)
 542:Middlewares/lvgl/src/core/lv_obj_pos.c **** {
 543:Middlewares/lvgl/src/core/lv_obj_pos.c ****     LV_ASSERT_OBJ(obj, MY_CLASS);
 544:Middlewares/lvgl/src/core/lv_obj_pos.c **** 
 545:Middlewares/lvgl/src/core/lv_obj_pos.c ****     lv_coord_t left = lv_obj_get_style_pad_left(obj, LV_PART_MAIN);
 546:Middlewares/lvgl/src/core/lv_obj_pos.c ****     lv_coord_t right = lv_obj_get_style_pad_right(obj, LV_PART_MAIN);
 547:Middlewares/lvgl/src/core/lv_obj_pos.c ****     lv_coord_t border_width = lv_obj_get_style_border_width(obj, LV_PART_MAIN);
 548:Middlewares/lvgl/src/core/lv_obj_pos.c **** 
 549:Middlewares/lvgl/src/core/lv_obj_pos.c ****     return lv_obj_get_width(obj) - left - right - 2 * border_width;
 550:Middlewares/lvgl/src/core/lv_obj_pos.c **** }
 551:Middlewares/lvgl/src/core/lv_obj_pos.c **** 
 552:Middlewares/lvgl/src/core/lv_obj_pos.c **** lv_coord_t lv_obj_get_content_height(const lv_obj_t * obj)
 553:Middlewares/lvgl/src/core/lv_obj_pos.c **** {
 554:Middlewares/lvgl/src/core/lv_obj_pos.c ****     LV_ASSERT_OBJ(obj, MY_CLASS);
 555:Middlewares/lvgl/src/core/lv_obj_pos.c **** 
 556:Middlewares/lvgl/src/core/lv_obj_pos.c ****     lv_coord_t top = lv_obj_get_style_pad_top(obj, LV_PART_MAIN);
 557:Middlewares/lvgl/src/core/lv_obj_pos.c ****     lv_coord_t bottom =  lv_obj_get_style_pad_bottom(obj, LV_PART_MAIN);
 558:Middlewares/lvgl/src/core/lv_obj_pos.c ****     lv_coord_t border_width = lv_obj_get_style_border_width(obj, LV_PART_MAIN);
 559:Middlewares/lvgl/src/core/lv_obj_pos.c **** 
 560:Middlewares/lvgl/src/core/lv_obj_pos.c ****     return lv_obj_get_height(obj) - top - bottom - 2 * border_width;
 561:Middlewares/lvgl/src/core/lv_obj_pos.c **** }
 562:Middlewares/lvgl/src/core/lv_obj_pos.c **** 
 563:Middlewares/lvgl/src/core/lv_obj_pos.c **** void lv_obj_get_content_coords(const lv_obj_t * obj, lv_area_t * area)
 564:Middlewares/lvgl/src/core/lv_obj_pos.c **** {
 565:Middlewares/lvgl/src/core/lv_obj_pos.c ****     LV_ASSERT_OBJ(obj, MY_CLASS);
 566:Middlewares/lvgl/src/core/lv_obj_pos.c ****     lv_coord_t border_width = lv_obj_get_style_border_width(obj, LV_PART_MAIN);
 567:Middlewares/lvgl/src/core/lv_obj_pos.c **** 
 568:Middlewares/lvgl/src/core/lv_obj_pos.c ****     lv_obj_get_coords(obj, area);
 569:Middlewares/lvgl/src/core/lv_obj_pos.c ****     lv_area_increase(area, -border_width, -border_width);
 570:Middlewares/lvgl/src/core/lv_obj_pos.c ****     area->x1 += lv_obj_get_style_pad_left(obj, LV_PART_MAIN);
ARM GAS  /tmp/ccmgRVpn.s 			page 45


 571:Middlewares/lvgl/src/core/lv_obj_pos.c ****     area->x2 -= lv_obj_get_style_pad_right(obj, LV_PART_MAIN);
 572:Middlewares/lvgl/src/core/lv_obj_pos.c ****     area->y1 += lv_obj_get_style_pad_top(obj, LV_PART_MAIN);
 573:Middlewares/lvgl/src/core/lv_obj_pos.c ****     area->y2 -= lv_obj_get_style_pad_bottom(obj, LV_PART_MAIN);
 574:Middlewares/lvgl/src/core/lv_obj_pos.c **** 
 575:Middlewares/lvgl/src/core/lv_obj_pos.c **** }
 576:Middlewares/lvgl/src/core/lv_obj_pos.c **** 
 577:Middlewares/lvgl/src/core/lv_obj_pos.c **** lv_coord_t lv_obj_get_self_width(const lv_obj_t * obj)
 578:Middlewares/lvgl/src/core/lv_obj_pos.c **** {
 579:Middlewares/lvgl/src/core/lv_obj_pos.c ****     lv_point_t p = {0, LV_COORD_MIN};
 580:Middlewares/lvgl/src/core/lv_obj_pos.c ****     lv_event_send((lv_obj_t * )obj, LV_EVENT_GET_SELF_SIZE, &p);
 581:Middlewares/lvgl/src/core/lv_obj_pos.c ****     return p.x;
 582:Middlewares/lvgl/src/core/lv_obj_pos.c **** }
 583:Middlewares/lvgl/src/core/lv_obj_pos.c **** 
 584:Middlewares/lvgl/src/core/lv_obj_pos.c **** lv_coord_t lv_obj_get_self_height(const lv_obj_t * obj)
 585:Middlewares/lvgl/src/core/lv_obj_pos.c **** {
 586:Middlewares/lvgl/src/core/lv_obj_pos.c ****     lv_point_t p = {LV_COORD_MIN, 0};
 587:Middlewares/lvgl/src/core/lv_obj_pos.c ****     lv_event_send((lv_obj_t * )obj, LV_EVENT_GET_SELF_SIZE, &p);
 588:Middlewares/lvgl/src/core/lv_obj_pos.c ****     return p.y;
 589:Middlewares/lvgl/src/core/lv_obj_pos.c **** }
 590:Middlewares/lvgl/src/core/lv_obj_pos.c **** 
 591:Middlewares/lvgl/src/core/lv_obj_pos.c **** bool lv_obj_refresh_self_size(lv_obj_t * obj)
 592:Middlewares/lvgl/src/core/lv_obj_pos.c **** {
 593:Middlewares/lvgl/src/core/lv_obj_pos.c ****     lv_coord_t w_set = lv_obj_get_style_width(obj, LV_PART_MAIN);
 594:Middlewares/lvgl/src/core/lv_obj_pos.c ****     lv_coord_t h_set = lv_obj_get_style_height(obj, LV_PART_MAIN);
 595:Middlewares/lvgl/src/core/lv_obj_pos.c ****     if(w_set != LV_SIZE_CONTENT && h_set != LV_SIZE_CONTENT) return false;
 596:Middlewares/lvgl/src/core/lv_obj_pos.c **** 
 597:Middlewares/lvgl/src/core/lv_obj_pos.c ****     lv_obj_mark_layout_as_dirty(obj);
 598:Middlewares/lvgl/src/core/lv_obj_pos.c ****     return true;
 599:Middlewares/lvgl/src/core/lv_obj_pos.c **** }
 600:Middlewares/lvgl/src/core/lv_obj_pos.c **** 
 601:Middlewares/lvgl/src/core/lv_obj_pos.c **** void lv_obj_refr_pos(lv_obj_t * obj)
 602:Middlewares/lvgl/src/core/lv_obj_pos.c **** {
 603:Middlewares/lvgl/src/core/lv_obj_pos.c ****     if(lv_obj_is_layout_positioned(obj)) return;
 604:Middlewares/lvgl/src/core/lv_obj_pos.c **** 
 605:Middlewares/lvgl/src/core/lv_obj_pos.c ****     lv_obj_t * parent = lv_obj_get_parent(obj);
 606:Middlewares/lvgl/src/core/lv_obj_pos.c ****     lv_coord_t x = lv_obj_get_style_x(obj, LV_PART_MAIN);
 607:Middlewares/lvgl/src/core/lv_obj_pos.c ****     lv_coord_t y = lv_obj_get_style_y(obj, LV_PART_MAIN);
 608:Middlewares/lvgl/src/core/lv_obj_pos.c **** 
 609:Middlewares/lvgl/src/core/lv_obj_pos.c ****     if(parent == NULL) {
 610:Middlewares/lvgl/src/core/lv_obj_pos.c ****         lv_obj_move_to(obj, x, y);
 611:Middlewares/lvgl/src/core/lv_obj_pos.c ****         return;
 612:Middlewares/lvgl/src/core/lv_obj_pos.c ****     }
 613:Middlewares/lvgl/src/core/lv_obj_pos.c **** 
 614:Middlewares/lvgl/src/core/lv_obj_pos.c ****     /*Handle percentage value*/
 615:Middlewares/lvgl/src/core/lv_obj_pos.c ****     lv_coord_t pw = lv_obj_get_content_width(parent);
 616:Middlewares/lvgl/src/core/lv_obj_pos.c ****     lv_coord_t ph = lv_obj_get_content_height(parent);
 617:Middlewares/lvgl/src/core/lv_obj_pos.c ****     if(LV_COORD_IS_PCT(x)) x = (pw * LV_COORD_GET_PCT(x)) / 100;
 618:Middlewares/lvgl/src/core/lv_obj_pos.c ****     if(LV_COORD_IS_PCT(y)) y = (ph * LV_COORD_GET_PCT(y)) / 100;
 619:Middlewares/lvgl/src/core/lv_obj_pos.c **** 
 620:Middlewares/lvgl/src/core/lv_obj_pos.c ****     /*Handle percentage value of translate*/
 621:Middlewares/lvgl/src/core/lv_obj_pos.c ****     lv_coord_t tr_x = lv_obj_get_style_translate_x(obj, LV_PART_MAIN);
 622:Middlewares/lvgl/src/core/lv_obj_pos.c ****     lv_coord_t tr_y = lv_obj_get_style_translate_y(obj, LV_PART_MAIN);
 623:Middlewares/lvgl/src/core/lv_obj_pos.c ****     lv_coord_t w = lv_obj_get_width(obj);
 624:Middlewares/lvgl/src/core/lv_obj_pos.c ****     lv_coord_t h = lv_obj_get_height(obj);
 625:Middlewares/lvgl/src/core/lv_obj_pos.c ****     if(LV_COORD_IS_PCT(tr_x)) tr_x = (w * LV_COORD_GET_PCT(tr_x)) / 100;
 626:Middlewares/lvgl/src/core/lv_obj_pos.c ****     if(LV_COORD_IS_PCT(tr_y)) tr_y = (h * LV_COORD_GET_PCT(tr_y)) / 100;
 627:Middlewares/lvgl/src/core/lv_obj_pos.c **** 
ARM GAS  /tmp/ccmgRVpn.s 			page 46


 628:Middlewares/lvgl/src/core/lv_obj_pos.c ****     /*Use the translation*/
 629:Middlewares/lvgl/src/core/lv_obj_pos.c ****     x += tr_x;
 630:Middlewares/lvgl/src/core/lv_obj_pos.c ****     y += tr_y;
 631:Middlewares/lvgl/src/core/lv_obj_pos.c **** 
 632:Middlewares/lvgl/src/core/lv_obj_pos.c ****     lv_align_t align = lv_obj_get_style_align(obj, LV_PART_MAIN);
 633:Middlewares/lvgl/src/core/lv_obj_pos.c **** 
 634:Middlewares/lvgl/src/core/lv_obj_pos.c ****     if(align == LV_ALIGN_DEFAULT) {
 635:Middlewares/lvgl/src/core/lv_obj_pos.c ****         if(lv_obj_get_style_base_dir(parent, LV_PART_MAIN) == LV_BASE_DIR_RTL) align = LV_ALIGN_TOP
 636:Middlewares/lvgl/src/core/lv_obj_pos.c ****         else align = LV_ALIGN_TOP_LEFT;
 637:Middlewares/lvgl/src/core/lv_obj_pos.c ****     }
 638:Middlewares/lvgl/src/core/lv_obj_pos.c **** 
 639:Middlewares/lvgl/src/core/lv_obj_pos.c ****     if(align == LV_ALIGN_TOP_LEFT) {
 640:Middlewares/lvgl/src/core/lv_obj_pos.c ****         lv_obj_move_to(obj, x, y);
 641:Middlewares/lvgl/src/core/lv_obj_pos.c ****     }
 642:Middlewares/lvgl/src/core/lv_obj_pos.c ****     else {
 643:Middlewares/lvgl/src/core/lv_obj_pos.c **** 
 644:Middlewares/lvgl/src/core/lv_obj_pos.c ****         switch(align) {
 645:Middlewares/lvgl/src/core/lv_obj_pos.c ****         case LV_ALIGN_TOP_MID:
 646:Middlewares/lvgl/src/core/lv_obj_pos.c ****             x += pw / 2 - w / 2;
 647:Middlewares/lvgl/src/core/lv_obj_pos.c ****             break;
 648:Middlewares/lvgl/src/core/lv_obj_pos.c ****         case LV_ALIGN_TOP_RIGHT:
 649:Middlewares/lvgl/src/core/lv_obj_pos.c ****             x += pw - w;
 650:Middlewares/lvgl/src/core/lv_obj_pos.c ****             break;
 651:Middlewares/lvgl/src/core/lv_obj_pos.c ****         case LV_ALIGN_LEFT_MID:
 652:Middlewares/lvgl/src/core/lv_obj_pos.c ****             y += ph / 2 - h / 2;
 653:Middlewares/lvgl/src/core/lv_obj_pos.c ****             break;
 654:Middlewares/lvgl/src/core/lv_obj_pos.c ****         case LV_ALIGN_BOTTOM_LEFT:
 655:Middlewares/lvgl/src/core/lv_obj_pos.c ****             y += ph - h;
 656:Middlewares/lvgl/src/core/lv_obj_pos.c ****             break;
 657:Middlewares/lvgl/src/core/lv_obj_pos.c ****         case LV_ALIGN_BOTTOM_MID:
 658:Middlewares/lvgl/src/core/lv_obj_pos.c ****             x += pw / 2 - w / 2;
 659:Middlewares/lvgl/src/core/lv_obj_pos.c ****             y += ph - h;
 660:Middlewares/lvgl/src/core/lv_obj_pos.c ****             break;
 661:Middlewares/lvgl/src/core/lv_obj_pos.c ****         case LV_ALIGN_BOTTOM_RIGHT:
 662:Middlewares/lvgl/src/core/lv_obj_pos.c ****             x += pw - w;
 663:Middlewares/lvgl/src/core/lv_obj_pos.c ****             y += ph - h;
 664:Middlewares/lvgl/src/core/lv_obj_pos.c ****             break;
 665:Middlewares/lvgl/src/core/lv_obj_pos.c ****         case LV_ALIGN_RIGHT_MID:
 666:Middlewares/lvgl/src/core/lv_obj_pos.c ****             x += pw - w;
 667:Middlewares/lvgl/src/core/lv_obj_pos.c ****             y += ph / 2 - h / 2;
 668:Middlewares/lvgl/src/core/lv_obj_pos.c ****             break;
 669:Middlewares/lvgl/src/core/lv_obj_pos.c ****         case LV_ALIGN_CENTER:
 670:Middlewares/lvgl/src/core/lv_obj_pos.c ****             x += pw / 2 - w / 2;
 671:Middlewares/lvgl/src/core/lv_obj_pos.c ****             y += ph / 2 - h / 2;
 672:Middlewares/lvgl/src/core/lv_obj_pos.c ****             break;
 673:Middlewares/lvgl/src/core/lv_obj_pos.c ****         default:
 674:Middlewares/lvgl/src/core/lv_obj_pos.c ****             break;
 675:Middlewares/lvgl/src/core/lv_obj_pos.c ****         }
 676:Middlewares/lvgl/src/core/lv_obj_pos.c ****         lv_obj_move_to(obj, x, y);
 677:Middlewares/lvgl/src/core/lv_obj_pos.c ****     }
 678:Middlewares/lvgl/src/core/lv_obj_pos.c **** }
 679:Middlewares/lvgl/src/core/lv_obj_pos.c **** 
 680:Middlewares/lvgl/src/core/lv_obj_pos.c **** void lv_obj_move_to(lv_obj_t * obj, lv_coord_t x, lv_coord_t y)
 681:Middlewares/lvgl/src/core/lv_obj_pos.c **** {
 682:Middlewares/lvgl/src/core/lv_obj_pos.c ****     /*Convert x and y to absolute coordinates*/
 683:Middlewares/lvgl/src/core/lv_obj_pos.c ****     lv_obj_t * parent = obj->parent;
 684:Middlewares/lvgl/src/core/lv_obj_pos.c **** 
ARM GAS  /tmp/ccmgRVpn.s 			page 47


 685:Middlewares/lvgl/src/core/lv_obj_pos.c ****     if(parent) {
 686:Middlewares/lvgl/src/core/lv_obj_pos.c ****         lv_coord_t pad_left = lv_obj_get_style_pad_left(parent, LV_PART_MAIN);
 687:Middlewares/lvgl/src/core/lv_obj_pos.c ****         lv_coord_t pad_top = lv_obj_get_style_pad_top(parent, LV_PART_MAIN);
 688:Middlewares/lvgl/src/core/lv_obj_pos.c **** 
 689:Middlewares/lvgl/src/core/lv_obj_pos.c ****         if(lv_obj_has_flag(obj, LV_OBJ_FLAG_FLOATING)) {
 690:Middlewares/lvgl/src/core/lv_obj_pos.c ****             x += pad_left + parent->coords.x1;
 691:Middlewares/lvgl/src/core/lv_obj_pos.c ****             y += pad_top + parent->coords.y1;
 692:Middlewares/lvgl/src/core/lv_obj_pos.c ****         } else {
 693:Middlewares/lvgl/src/core/lv_obj_pos.c ****             x += pad_left + parent->coords.x1 - lv_obj_get_scroll_x(parent);
 694:Middlewares/lvgl/src/core/lv_obj_pos.c ****             y += pad_top + parent->coords.y1 - lv_obj_get_scroll_y(parent);
 695:Middlewares/lvgl/src/core/lv_obj_pos.c ****         }
 696:Middlewares/lvgl/src/core/lv_obj_pos.c **** 
 697:Middlewares/lvgl/src/core/lv_obj_pos.c ****         lv_coord_t border_width = lv_obj_get_style_border_width(parent, LV_PART_MAIN);
 698:Middlewares/lvgl/src/core/lv_obj_pos.c ****         x += border_width;
 699:Middlewares/lvgl/src/core/lv_obj_pos.c ****         y += border_width;
 700:Middlewares/lvgl/src/core/lv_obj_pos.c ****     }
 701:Middlewares/lvgl/src/core/lv_obj_pos.c **** 
 702:Middlewares/lvgl/src/core/lv_obj_pos.c ****     /*Calculate and set the movement*/
 703:Middlewares/lvgl/src/core/lv_obj_pos.c ****     lv_point_t diff;
 704:Middlewares/lvgl/src/core/lv_obj_pos.c ****     diff.x = x - obj->coords.x1;
 705:Middlewares/lvgl/src/core/lv_obj_pos.c ****     diff.y = y - obj->coords.y1;
 706:Middlewares/lvgl/src/core/lv_obj_pos.c **** 
 707:Middlewares/lvgl/src/core/lv_obj_pos.c ****     /*Do nothing if the position is not changed*/
 708:Middlewares/lvgl/src/core/lv_obj_pos.c ****     /*It is very important else recursive positioning can
 709:Middlewares/lvgl/src/core/lv_obj_pos.c ****      *occur without position change*/
 710:Middlewares/lvgl/src/core/lv_obj_pos.c ****     if(diff.x == 0 && diff.y == 0) return;
 711:Middlewares/lvgl/src/core/lv_obj_pos.c **** 
 712:Middlewares/lvgl/src/core/lv_obj_pos.c ****     /*Invalidate the original area*/
 713:Middlewares/lvgl/src/core/lv_obj_pos.c ****     lv_obj_invalidate(obj);
 714:Middlewares/lvgl/src/core/lv_obj_pos.c **** 
 715:Middlewares/lvgl/src/core/lv_obj_pos.c ****     /*Save the original coordinates*/
 716:Middlewares/lvgl/src/core/lv_obj_pos.c ****     lv_area_t ori;
 717:Middlewares/lvgl/src/core/lv_obj_pos.c ****     lv_obj_get_coords(obj, &ori);
 718:Middlewares/lvgl/src/core/lv_obj_pos.c **** 
 719:Middlewares/lvgl/src/core/lv_obj_pos.c ****     /*Check if the object inside the parent or not*/
 720:Middlewares/lvgl/src/core/lv_obj_pos.c ****     lv_area_t parent_fit_area;
 721:Middlewares/lvgl/src/core/lv_obj_pos.c ****     bool on1 = false;
 722:Middlewares/lvgl/src/core/lv_obj_pos.c ****     if(parent) {
 723:Middlewares/lvgl/src/core/lv_obj_pos.c ****         lv_obj_get_content_coords(parent, &parent_fit_area);
 724:Middlewares/lvgl/src/core/lv_obj_pos.c **** 
 725:Middlewares/lvgl/src/core/lv_obj_pos.c ****         /*If the object is already out of the parent and its position is changes
 726:Middlewares/lvgl/src/core/lv_obj_pos.c ****          *surely the scrollbars also changes so invalidate them*/
 727:Middlewares/lvgl/src/core/lv_obj_pos.c ****         on1 = _lv_area_is_in(&ori, &parent_fit_area, 0);
 728:Middlewares/lvgl/src/core/lv_obj_pos.c ****         if(!on1) lv_obj_scrollbar_invalidate(parent);
 729:Middlewares/lvgl/src/core/lv_obj_pos.c ****     }
 730:Middlewares/lvgl/src/core/lv_obj_pos.c **** 
 731:Middlewares/lvgl/src/core/lv_obj_pos.c ****     obj->coords.x1 += diff.x;
 732:Middlewares/lvgl/src/core/lv_obj_pos.c ****     obj->coords.y1 += diff.y;
 733:Middlewares/lvgl/src/core/lv_obj_pos.c ****     obj->coords.x2 += diff.x;
 734:Middlewares/lvgl/src/core/lv_obj_pos.c ****     obj->coords.y2 += diff.y;
 735:Middlewares/lvgl/src/core/lv_obj_pos.c **** 
 736:Middlewares/lvgl/src/core/lv_obj_pos.c ****     lv_obj_move_children_by(obj, diff.x, diff.y, false);
 737:Middlewares/lvgl/src/core/lv_obj_pos.c **** 
 738:Middlewares/lvgl/src/core/lv_obj_pos.c ****     /*Call the ancestor's event handler to the parent too*/
 739:Middlewares/lvgl/src/core/lv_obj_pos.c ****     if(parent) lv_event_send(parent, LV_EVENT_CHILD_CHANGED, obj);
 740:Middlewares/lvgl/src/core/lv_obj_pos.c **** 
 741:Middlewares/lvgl/src/core/lv_obj_pos.c ****     /*Invalidate the new area*/
ARM GAS  /tmp/ccmgRVpn.s 			page 48


 742:Middlewares/lvgl/src/core/lv_obj_pos.c ****     lv_obj_invalidate(obj);
 743:Middlewares/lvgl/src/core/lv_obj_pos.c **** 
 744:Middlewares/lvgl/src/core/lv_obj_pos.c ****     /*If the object was out of the parent invalidate the new scrollbar area too.
 745:Middlewares/lvgl/src/core/lv_obj_pos.c ****      *If it wasn't out of the parent but out now, also invalidate the srollbars*/
 746:Middlewares/lvgl/src/core/lv_obj_pos.c ****     if(parent) {
 747:Middlewares/lvgl/src/core/lv_obj_pos.c ****         bool on2 = _lv_area_is_in(&obj->coords, &parent_fit_area, 0);
 748:Middlewares/lvgl/src/core/lv_obj_pos.c ****         if(on1 || (!on1 && on2)) lv_obj_scrollbar_invalidate(parent);
 749:Middlewares/lvgl/src/core/lv_obj_pos.c ****     }
 750:Middlewares/lvgl/src/core/lv_obj_pos.c **** }
 751:Middlewares/lvgl/src/core/lv_obj_pos.c **** 
 752:Middlewares/lvgl/src/core/lv_obj_pos.c **** void lv_obj_move_children_by(lv_obj_t * obj, lv_coord_t x_diff, lv_coord_t y_diff, bool ignore_floa
 753:Middlewares/lvgl/src/core/lv_obj_pos.c **** {
 754:Middlewares/lvgl/src/core/lv_obj_pos.c ****     uint32_t i;
 755:Middlewares/lvgl/src/core/lv_obj_pos.c ****     uint32_t child_cnt = lv_obj_get_child_cnt(obj);
 756:Middlewares/lvgl/src/core/lv_obj_pos.c ****     for(i = 0; i < child_cnt; i++) {
 757:Middlewares/lvgl/src/core/lv_obj_pos.c ****         lv_obj_t * child = lv_obj_get_child(obj, i);
 758:Middlewares/lvgl/src/core/lv_obj_pos.c ****         if(ignore_floating && lv_obj_has_flag(child, LV_OBJ_FLAG_FLOATING)) continue;
 759:Middlewares/lvgl/src/core/lv_obj_pos.c ****         child->coords.x1 += x_diff;
 760:Middlewares/lvgl/src/core/lv_obj_pos.c ****         child->coords.y1 += y_diff;
 761:Middlewares/lvgl/src/core/lv_obj_pos.c ****         child->coords.x2 += x_diff;
 762:Middlewares/lvgl/src/core/lv_obj_pos.c ****         child->coords.y2 += y_diff;
 763:Middlewares/lvgl/src/core/lv_obj_pos.c **** 
 764:Middlewares/lvgl/src/core/lv_obj_pos.c ****         lv_obj_move_children_by(child, x_diff, y_diff, false);
 765:Middlewares/lvgl/src/core/lv_obj_pos.c ****     }
 766:Middlewares/lvgl/src/core/lv_obj_pos.c **** }
 767:Middlewares/lvgl/src/core/lv_obj_pos.c **** 
 768:Middlewares/lvgl/src/core/lv_obj_pos.c **** 
 769:Middlewares/lvgl/src/core/lv_obj_pos.c **** void lv_obj_invalidate_area(const lv_obj_t * obj, const lv_area_t * area)
 770:Middlewares/lvgl/src/core/lv_obj_pos.c **** {
 771:Middlewares/lvgl/src/core/lv_obj_pos.c ****     LV_ASSERT_OBJ(obj, MY_CLASS);
 772:Middlewares/lvgl/src/core/lv_obj_pos.c **** 
 773:Middlewares/lvgl/src/core/lv_obj_pos.c ****     lv_area_t area_tmp;
 774:Middlewares/lvgl/src/core/lv_obj_pos.c ****     lv_area_copy(&area_tmp, area);
 775:Middlewares/lvgl/src/core/lv_obj_pos.c ****     bool visible = lv_obj_area_is_visible(obj, &area_tmp);
 776:Middlewares/lvgl/src/core/lv_obj_pos.c **** 
 777:Middlewares/lvgl/src/core/lv_obj_pos.c ****     if(visible) _lv_inv_area(lv_obj_get_disp(obj), &area_tmp);
 778:Middlewares/lvgl/src/core/lv_obj_pos.c **** }
 779:Middlewares/lvgl/src/core/lv_obj_pos.c **** 
 780:Middlewares/lvgl/src/core/lv_obj_pos.c **** void lv_obj_invalidate(const lv_obj_t * obj)
 781:Middlewares/lvgl/src/core/lv_obj_pos.c **** {
 782:Middlewares/lvgl/src/core/lv_obj_pos.c ****     LV_ASSERT_OBJ(obj, MY_CLASS);
 783:Middlewares/lvgl/src/core/lv_obj_pos.c **** 
 784:Middlewares/lvgl/src/core/lv_obj_pos.c ****     /*Truncate the area to the object*/
 785:Middlewares/lvgl/src/core/lv_obj_pos.c ****     lv_area_t obj_coords;
 786:Middlewares/lvgl/src/core/lv_obj_pos.c ****     lv_coord_t ext_size = _lv_obj_get_ext_draw_size(obj);
 787:Middlewares/lvgl/src/core/lv_obj_pos.c ****     lv_area_copy(&obj_coords, &obj->coords);
 788:Middlewares/lvgl/src/core/lv_obj_pos.c ****     obj_coords.x1 -= ext_size;
 789:Middlewares/lvgl/src/core/lv_obj_pos.c ****     obj_coords.y1 -= ext_size;
 790:Middlewares/lvgl/src/core/lv_obj_pos.c ****     obj_coords.x2 += ext_size;
 791:Middlewares/lvgl/src/core/lv_obj_pos.c ****     obj_coords.y2 += ext_size;
 792:Middlewares/lvgl/src/core/lv_obj_pos.c **** 
 793:Middlewares/lvgl/src/core/lv_obj_pos.c ****     lv_obj_invalidate_area(obj, &obj_coords);
 794:Middlewares/lvgl/src/core/lv_obj_pos.c **** 
 795:Middlewares/lvgl/src/core/lv_obj_pos.c **** }
 796:Middlewares/lvgl/src/core/lv_obj_pos.c **** 
 797:Middlewares/lvgl/src/core/lv_obj_pos.c **** bool lv_obj_area_is_visible(const lv_obj_t * obj, lv_area_t * area)
 798:Middlewares/lvgl/src/core/lv_obj_pos.c **** {
ARM GAS  /tmp/ccmgRVpn.s 			page 49


 799:Middlewares/lvgl/src/core/lv_obj_pos.c ****     if(lv_obj_has_flag(obj, LV_OBJ_FLAG_HIDDEN)) return false;
 800:Middlewares/lvgl/src/core/lv_obj_pos.c **** 
 801:Middlewares/lvgl/src/core/lv_obj_pos.c ****     /*Invalidate the object only if it belongs to the current or previous'*/
 802:Middlewares/lvgl/src/core/lv_obj_pos.c ****     lv_obj_t * obj_scr = lv_obj_get_screen(obj);
 803:Middlewares/lvgl/src/core/lv_obj_pos.c ****     lv_disp_t * disp   = lv_obj_get_disp(obj_scr);
 804:Middlewares/lvgl/src/core/lv_obj_pos.c ****     if(obj_scr != lv_disp_get_scr_act(disp) &&
 805:Middlewares/lvgl/src/core/lv_obj_pos.c ****        obj_scr != lv_disp_get_scr_prev(disp) &&
 806:Middlewares/lvgl/src/core/lv_obj_pos.c ****        obj_scr != lv_disp_get_layer_top(disp) &&
 807:Middlewares/lvgl/src/core/lv_obj_pos.c ****        obj_scr != lv_disp_get_layer_sys(disp))
 808:Middlewares/lvgl/src/core/lv_obj_pos.c ****     {
 809:Middlewares/lvgl/src/core/lv_obj_pos.c ****         return false;
 810:Middlewares/lvgl/src/core/lv_obj_pos.c ****     }
 811:Middlewares/lvgl/src/core/lv_obj_pos.c **** 
 812:Middlewares/lvgl/src/core/lv_obj_pos.c ****     /*Truncate the area to the object*/
 813:Middlewares/lvgl/src/core/lv_obj_pos.c ****     lv_area_t obj_coords;
 814:Middlewares/lvgl/src/core/lv_obj_pos.c ****     lv_coord_t ext_size = _lv_obj_get_ext_draw_size(obj);
 815:Middlewares/lvgl/src/core/lv_obj_pos.c ****     lv_area_copy(&obj_coords, &obj->coords);
 816:Middlewares/lvgl/src/core/lv_obj_pos.c ****     obj_coords.x1 -= ext_size;
 817:Middlewares/lvgl/src/core/lv_obj_pos.c ****     obj_coords.y1 -= ext_size;
 818:Middlewares/lvgl/src/core/lv_obj_pos.c ****     obj_coords.x2 += ext_size;
 819:Middlewares/lvgl/src/core/lv_obj_pos.c ****     obj_coords.y2 += ext_size;
 820:Middlewares/lvgl/src/core/lv_obj_pos.c **** 
 821:Middlewares/lvgl/src/core/lv_obj_pos.c ****     bool is_common;
 822:Middlewares/lvgl/src/core/lv_obj_pos.c **** 
 823:Middlewares/lvgl/src/core/lv_obj_pos.c ****     is_common = _lv_area_intersect(area, area, &obj_coords);
 824:Middlewares/lvgl/src/core/lv_obj_pos.c ****     if(is_common == false) return false;  /*The area is not on the object*/
 825:Middlewares/lvgl/src/core/lv_obj_pos.c **** 
 826:Middlewares/lvgl/src/core/lv_obj_pos.c ****     /*Truncate recursively to the parents*/
 827:Middlewares/lvgl/src/core/lv_obj_pos.c ****     lv_obj_t * par = lv_obj_get_parent(obj);
 828:Middlewares/lvgl/src/core/lv_obj_pos.c ****     while(par != NULL) {
 829:Middlewares/lvgl/src/core/lv_obj_pos.c ****         is_common = _lv_area_intersect(area, area, &par->coords);
 830:Middlewares/lvgl/src/core/lv_obj_pos.c ****         if(is_common == false) return false;       /*If no common parts with parent break;*/
 831:Middlewares/lvgl/src/core/lv_obj_pos.c ****         if(lv_obj_has_flag(par, LV_OBJ_FLAG_HIDDEN)) return false; /*If the parent is hidden then t
 832:Middlewares/lvgl/src/core/lv_obj_pos.c **** 
 833:Middlewares/lvgl/src/core/lv_obj_pos.c ****         par = lv_obj_get_parent(par);
 834:Middlewares/lvgl/src/core/lv_obj_pos.c ****     }
 835:Middlewares/lvgl/src/core/lv_obj_pos.c **** 
 836:Middlewares/lvgl/src/core/lv_obj_pos.c ****     return true;
 837:Middlewares/lvgl/src/core/lv_obj_pos.c **** }
 838:Middlewares/lvgl/src/core/lv_obj_pos.c **** 
 839:Middlewares/lvgl/src/core/lv_obj_pos.c **** bool lv_obj_is_visible(const lv_obj_t * obj)
 840:Middlewares/lvgl/src/core/lv_obj_pos.c **** {
 841:Middlewares/lvgl/src/core/lv_obj_pos.c ****     LV_ASSERT_OBJ(obj, MY_CLASS);
 842:Middlewares/lvgl/src/core/lv_obj_pos.c **** 
 843:Middlewares/lvgl/src/core/lv_obj_pos.c ****     lv_area_t obj_coords;
 844:Middlewares/lvgl/src/core/lv_obj_pos.c ****     lv_coord_t ext_size = _lv_obj_get_ext_draw_size(obj);
 845:Middlewares/lvgl/src/core/lv_obj_pos.c ****     lv_area_copy(&obj_coords, &obj->coords);
 846:Middlewares/lvgl/src/core/lv_obj_pos.c ****     obj_coords.x1 -= ext_size;
 847:Middlewares/lvgl/src/core/lv_obj_pos.c ****     obj_coords.y1 -= ext_size;
 848:Middlewares/lvgl/src/core/lv_obj_pos.c ****     obj_coords.x2 += ext_size;
 849:Middlewares/lvgl/src/core/lv_obj_pos.c ****     obj_coords.y2 += ext_size;
 850:Middlewares/lvgl/src/core/lv_obj_pos.c **** 
 851:Middlewares/lvgl/src/core/lv_obj_pos.c ****     return lv_obj_area_is_visible(obj, &obj_coords);
 852:Middlewares/lvgl/src/core/lv_obj_pos.c **** 
 853:Middlewares/lvgl/src/core/lv_obj_pos.c **** }
 854:Middlewares/lvgl/src/core/lv_obj_pos.c **** 
 855:Middlewares/lvgl/src/core/lv_obj_pos.c **** void lv_obj_set_ext_click_area(lv_obj_t * obj, lv_coord_t size)
ARM GAS  /tmp/ccmgRVpn.s 			page 50


 856:Middlewares/lvgl/src/core/lv_obj_pos.c **** {
 857:Middlewares/lvgl/src/core/lv_obj_pos.c ****     LV_ASSERT_OBJ(obj, MY_CLASS);
 858:Middlewares/lvgl/src/core/lv_obj_pos.c **** 
 859:Middlewares/lvgl/src/core/lv_obj_pos.c ****     lv_obj_allocate_spec_attr(obj);
 860:Middlewares/lvgl/src/core/lv_obj_pos.c ****     obj->spec_attr->ext_click_pad = size;
 861:Middlewares/lvgl/src/core/lv_obj_pos.c **** }
 862:Middlewares/lvgl/src/core/lv_obj_pos.c **** 
 863:Middlewares/lvgl/src/core/lv_obj_pos.c **** void lv_obj_get_click_area(const lv_obj_t * obj, lv_area_t * area)
 864:Middlewares/lvgl/src/core/lv_obj_pos.c **** {
 865:Middlewares/lvgl/src/core/lv_obj_pos.c ****     lv_area_copy(area, &obj->coords);
 866:Middlewares/lvgl/src/core/lv_obj_pos.c ****     if(obj->spec_attr) {
 867:Middlewares/lvgl/src/core/lv_obj_pos.c ****         area->x1 -= obj->spec_attr->ext_click_pad;
 868:Middlewares/lvgl/src/core/lv_obj_pos.c ****         area->x2 += obj->spec_attr->ext_click_pad;
 869:Middlewares/lvgl/src/core/lv_obj_pos.c ****         area->y1 -= obj->spec_attr->ext_click_pad;
 870:Middlewares/lvgl/src/core/lv_obj_pos.c ****         area->y2 += obj->spec_attr->ext_click_pad;
 871:Middlewares/lvgl/src/core/lv_obj_pos.c ****     }
 872:Middlewares/lvgl/src/core/lv_obj_pos.c **** }
 873:Middlewares/lvgl/src/core/lv_obj_pos.c **** 
 874:Middlewares/lvgl/src/core/lv_obj_pos.c **** bool lv_obj_hit_test(lv_obj_t * obj, const lv_point_t * point)
 875:Middlewares/lvgl/src/core/lv_obj_pos.c **** {
 876:Middlewares/lvgl/src/core/lv_obj_pos.c ****     lv_area_t a;
 877:Middlewares/lvgl/src/core/lv_obj_pos.c ****     lv_obj_get_click_area(obj, &a);
 878:Middlewares/lvgl/src/core/lv_obj_pos.c ****     bool res = _lv_area_is_point_on(&a, point, 0);
 879:Middlewares/lvgl/src/core/lv_obj_pos.c ****     if(res == false) return false;
 880:Middlewares/lvgl/src/core/lv_obj_pos.c **** 
 881:Middlewares/lvgl/src/core/lv_obj_pos.c ****     if(lv_obj_has_flag(obj, LV_OBJ_FLAG_ADV_HITTEST)) {
 882:Middlewares/lvgl/src/core/lv_obj_pos.c ****         lv_hit_test_info_t hit_info;
 883:Middlewares/lvgl/src/core/lv_obj_pos.c ****         hit_info.point = point;
 884:Middlewares/lvgl/src/core/lv_obj_pos.c ****         hit_info.res = true;
 885:Middlewares/lvgl/src/core/lv_obj_pos.c ****         lv_event_send(obj, LV_EVENT_HIT_TEST, &hit_info);
 886:Middlewares/lvgl/src/core/lv_obj_pos.c ****         return hit_info.res;
 887:Middlewares/lvgl/src/core/lv_obj_pos.c ****     }
 888:Middlewares/lvgl/src/core/lv_obj_pos.c **** 
 889:Middlewares/lvgl/src/core/lv_obj_pos.c ****     return res;
 890:Middlewares/lvgl/src/core/lv_obj_pos.c **** }
 891:Middlewares/lvgl/src/core/lv_obj_pos.c **** 
 892:Middlewares/lvgl/src/core/lv_obj_pos.c **** lv_coord_t lv_clamp_width(lv_coord_t width, lv_coord_t min_width, lv_coord_t max_width, lv_coord_t 
 893:Middlewares/lvgl/src/core/lv_obj_pos.c **** {
 894:Middlewares/lvgl/src/core/lv_obj_pos.c ****     if(LV_COORD_IS_PCT(min_width)) min_width = (ref_width * LV_COORD_GET_PCT(min_width)) / 100;
 895:Middlewares/lvgl/src/core/lv_obj_pos.c ****     if(LV_COORD_IS_PCT(max_width)) max_width = (ref_width * LV_COORD_GET_PCT(max_width)) / 100;
 896:Middlewares/lvgl/src/core/lv_obj_pos.c ****     return LV_CLAMP(min_width, width, max_width);
 897:Middlewares/lvgl/src/core/lv_obj_pos.c **** }
 898:Middlewares/lvgl/src/core/lv_obj_pos.c **** 
 899:Middlewares/lvgl/src/core/lv_obj_pos.c **** lv_coord_t lv_clamp_height(lv_coord_t height, lv_coord_t min_height, lv_coord_t max_height, lv_coor
 900:Middlewares/lvgl/src/core/lv_obj_pos.c **** {
 901:Middlewares/lvgl/src/core/lv_obj_pos.c ****     if(LV_COORD_IS_PCT(min_height)) min_height = (ref_height * LV_COORD_GET_PCT(min_height)) / 100;
 902:Middlewares/lvgl/src/core/lv_obj_pos.c ****     if(LV_COORD_IS_PCT(max_height)) max_height = (ref_height * LV_COORD_GET_PCT(max_height)) / 100;
 903:Middlewares/lvgl/src/core/lv_obj_pos.c ****     return LV_CLAMP(min_height, height, max_height);
 904:Middlewares/lvgl/src/core/lv_obj_pos.c **** }
 905:Middlewares/lvgl/src/core/lv_obj_pos.c **** 
 906:Middlewares/lvgl/src/core/lv_obj_pos.c **** 
 907:Middlewares/lvgl/src/core/lv_obj_pos.c **** 
 908:Middlewares/lvgl/src/core/lv_obj_pos.c **** /**********************
 909:Middlewares/lvgl/src/core/lv_obj_pos.c ****  *   STATIC FUNCTIONS
 910:Middlewares/lvgl/src/core/lv_obj_pos.c ****  **********************/
 911:Middlewares/lvgl/src/core/lv_obj_pos.c **** 
 912:Middlewares/lvgl/src/core/lv_obj_pos.c **** /**
ARM GAS  /tmp/ccmgRVpn.s 			page 51


 913:Middlewares/lvgl/src/core/lv_obj_pos.c ****  * Calculate the "auto size". It's `auto_size = max(children_size, self_size)`
 914:Middlewares/lvgl/src/core/lv_obj_pos.c ****  * @param obj pointer to an object
 915:Middlewares/lvgl/src/core/lv_obj_pos.c ****  * @param w_out store the width here. NULL to not calculate width
 916:Middlewares/lvgl/src/core/lv_obj_pos.c ****  * @param h_out store the height here. NULL to not calculate height
 917:Middlewares/lvgl/src/core/lv_obj_pos.c ****  */
 918:Middlewares/lvgl/src/core/lv_obj_pos.c **** static void calc_auto_size(lv_obj_t * obj, lv_coord_t * w_out, lv_coord_t * h_out)
 919:Middlewares/lvgl/src/core/lv_obj_pos.c **** {
 1398              		.loc 1 919 1 is_stmt 1 view -0
 1399              		.cfi_startproc
 1400              		@ args = 0, pretend = 0, frame = 0
 1401              		@ frame_needed = 0, uses_anonymous_args = 0
 1402              		.loc 1 919 1 is_stmt 0 view .LVU378
 1403 0000 2DE9F041 		push	{r4, r5, r6, r7, r8, lr}
 1404              	.LCFI29:
 1405              		.cfi_def_cfa_offset 24
 1406              		.cfi_offset 4, -24
 1407              		.cfi_offset 5, -20
 1408              		.cfi_offset 6, -16
 1409              		.cfi_offset 7, -12
 1410              		.cfi_offset 8, -8
 1411              		.cfi_offset 14, -4
 1412 0004 0446     		mov	r4, r0
 1413 0006 1546     		mov	r5, r2
 920:Middlewares/lvgl/src/core/lv_obj_pos.c ****     if(!w_out && !h_out) return;
 1414              		.loc 1 920 5 is_stmt 1 view .LVU379
 1415              		.loc 1 920 7 is_stmt 0 view .LVU380
 1416 0008 0E46     		mov	r6, r1
 1417 000a 19B3     		cbz	r1, .L78
 1418              	.L74:
 921:Middlewares/lvgl/src/core/lv_obj_pos.c ****     /*Get the bounding box of the children*/
 922:Middlewares/lvgl/src/core/lv_obj_pos.c ****     if(w_out) {
 1419              		.loc 1 922 5 is_stmt 1 view .LVU381
 1420              		.loc 1 922 7 is_stmt 0 view .LVU382
 1421 000c 7EB1     		cbz	r6, .L76
 1422              	.LBB149:
 923:Middlewares/lvgl/src/core/lv_obj_pos.c ****         lv_coord_t scroll_right = lv_obj_get_scroll_right(obj);
 1423              		.loc 1 923 9 is_stmt 1 view .LVU383
 1424              		.loc 1 923 35 is_stmt 0 view .LVU384
 1425 000e 2046     		mov	r0, r4
 1426              	.LVL123:
 1427              		.loc 1 923 35 view .LVU385
 1428 0010 FFF7FEFF 		bl	lv_obj_get_scroll_right
 1429              	.LVL124:
 1430              		.loc 1 923 35 view .LVU386
 1431 0014 8046     		mov	r8, r0
 1432              	.LVL125:
 924:Middlewares/lvgl/src/core/lv_obj_pos.c ****         lv_coord_t scroll_left = lv_obj_get_scroll_left(obj);
 1433              		.loc 1 924 9 is_stmt 1 view .LVU387
 1434              		.loc 1 924 34 is_stmt 0 view .LVU388
 1435 0016 2046     		mov	r0, r4
 1436 0018 FFF7FEFF 		bl	lv_obj_get_scroll_left
 1437              	.LVL126:
 1438 001c 0746     		mov	r7, r0
 1439              	.LVL127:
 925:Middlewares/lvgl/src/core/lv_obj_pos.c ****         *w_out = lv_obj_get_width(obj) + scroll_right + scroll_left;
 1440              		.loc 1 925 9 is_stmt 1 view .LVU389
 1441              		.loc 1 925 18 is_stmt 0 view .LVU390
ARM GAS  /tmp/ccmgRVpn.s 			page 52


 1442 001e 2046     		mov	r0, r4
 1443 0020 FFF7FEFF 		bl	lv_obj_get_width
 1444              	.LVL128:
 1445              		.loc 1 925 40 view .LVU391
 1446 0024 18FA80F3 		uxtah	r3, r8, r0
 1447              		.loc 1 925 55 view .LVU392
 1448 0028 17FA83F0 		uxtah	r0, r7, r3
 1449              		.loc 1 925 16 view .LVU393
 1450 002c 3080     		strh	r0, [r6]	@ movhi
 1451              	.LVL129:
 1452              	.L76:
 1453              		.loc 1 925 16 view .LVU394
 1454              	.LBE149:
 926:Middlewares/lvgl/src/core/lv_obj_pos.c ****     }
 927:Middlewares/lvgl/src/core/lv_obj_pos.c **** 
 928:Middlewares/lvgl/src/core/lv_obj_pos.c ****     if(h_out) {
 1455              		.loc 1 928 5 is_stmt 1 view .LVU395
 1456              		.loc 1 928 7 is_stmt 0 view .LVU396
 1457 002e 7DB1     		cbz	r5, .L73
 1458              	.LBB150:
 929:Middlewares/lvgl/src/core/lv_obj_pos.c ****         lv_coord_t scroll_bottom = lv_obj_get_scroll_bottom(obj);
 1459              		.loc 1 929 9 is_stmt 1 view .LVU397
 1460              		.loc 1 929 36 is_stmt 0 view .LVU398
 1461 0030 2046     		mov	r0, r4
 1462 0032 FFF7FEFF 		bl	lv_obj_get_scroll_bottom
 1463              	.LVL130:
 1464 0036 0746     		mov	r7, r0
 1465              	.LVL131:
 930:Middlewares/lvgl/src/core/lv_obj_pos.c ****         lv_coord_t scroll_top = lv_obj_get_scroll_top(obj);
 1466              		.loc 1 930 9 is_stmt 1 view .LVU399
 1467              		.loc 1 930 33 is_stmt 0 view .LVU400
 1468 0038 2046     		mov	r0, r4
 1469 003a FFF7FEFF 		bl	lv_obj_get_scroll_top
 1470              	.LVL132:
 1471 003e 0646     		mov	r6, r0
 1472              	.LVL133:
 931:Middlewares/lvgl/src/core/lv_obj_pos.c ****         *h_out = lv_obj_get_height(obj) + scroll_bottom + scroll_top;
 1473              		.loc 1 931 9 is_stmt 1 view .LVU401
 1474              		.loc 1 931 18 is_stmt 0 view .LVU402
 1475 0040 2046     		mov	r0, r4
 1476 0042 FFF7FEFF 		bl	lv_obj_get_height
 1477              	.LVL134:
 1478              		.loc 1 931 41 view .LVU403
 1479 0046 17FA80F3 		uxtah	r3, r7, r0
 1480              		.loc 1 931 57 view .LVU404
 1481 004a 16FA83F0 		uxtah	r0, r6, r3
 1482              		.loc 1 931 16 view .LVU405
 1483 004e 2880     		strh	r0, [r5]	@ movhi
 1484              	.LVL135:
 1485              	.L73:
 1486              		.loc 1 931 16 view .LVU406
 1487              	.LBE150:
 932:Middlewares/lvgl/src/core/lv_obj_pos.c ****     }
 933:Middlewares/lvgl/src/core/lv_obj_pos.c **** }
 1488              		.loc 1 933 1 view .LVU407
 1489 0050 BDE8F081 		pop	{r4, r5, r6, r7, r8, pc}
 1490              	.LVL136:
ARM GAS  /tmp/ccmgRVpn.s 			page 53


 1491              	.L78:
 920:Middlewares/lvgl/src/core/lv_obj_pos.c ****     /*Get the bounding box of the children*/
 1492              		.loc 1 920 15 discriminator 1 view .LVU408
 1493 0054 002A     		cmp	r2, #0
 1494 0056 D9D1     		bne	.L74
 1495 0058 FAE7     		b	.L73
 1496              		.cfi_endproc
 1497              	.LFE195:
 1499              		.section	.text.lv_obj_get_y2,"ax",%progbits
 1500              		.align	1
 1501              		.global	lv_obj_get_y2
 1502              		.syntax unified
 1503              		.thumb
 1504              		.thumb_func
 1506              	lv_obj_get_y2:
 1507              	.LVL137:
 1508              	.LFB174:
 521:Middlewares/lvgl/src/core/lv_obj_pos.c ****     LV_ASSERT_OBJ(obj, MY_CLASS);
 1509              		.loc 1 521 1 is_stmt 1 view -0
 1510              		.cfi_startproc
 1511              		@ args = 0, pretend = 0, frame = 0
 1512              		@ frame_needed = 0, uses_anonymous_args = 0
 521:Middlewares/lvgl/src/core/lv_obj_pos.c ****     LV_ASSERT_OBJ(obj, MY_CLASS);
 1513              		.loc 1 521 1 is_stmt 0 view .LVU410
 1514 0000 38B5     		push	{r3, r4, r5, lr}
 1515              	.LCFI30:
 1516              		.cfi_def_cfa_offset 16
 1517              		.cfi_offset 3, -16
 1518              		.cfi_offset 4, -12
 1519              		.cfi_offset 5, -8
 1520              		.cfi_offset 14, -4
 1521 0002 0546     		mov	r5, r0
 522:Middlewares/lvgl/src/core/lv_obj_pos.c **** 
 1522              		.loc 1 522 5 is_stmt 1 view .LVU411
 522:Middlewares/lvgl/src/core/lv_obj_pos.c **** 
 1523              		.loc 1 522 5 view .LVU412
 522:Middlewares/lvgl/src/core/lv_obj_pos.c **** 
 1524              		.loc 1 522 5 view .LVU413
 524:Middlewares/lvgl/src/core/lv_obj_pos.c **** }
 1525              		.loc 1 524 5 view .LVU414
 524:Middlewares/lvgl/src/core/lv_obj_pos.c **** }
 1526              		.loc 1 524 12 is_stmt 0 view .LVU415
 1527 0004 FFF7FEFF 		bl	lv_obj_get_y
 1528              	.LVL138:
 524:Middlewares/lvgl/src/core/lv_obj_pos.c **** }
 1529              		.loc 1 524 12 view .LVU416
 1530 0008 84B2     		uxth	r4, r0
 524:Middlewares/lvgl/src/core/lv_obj_pos.c **** }
 1531              		.loc 1 524 32 view .LVU417
 1532 000a 2846     		mov	r0, r5
 1533 000c FFF7FEFF 		bl	lv_obj_get_height
 1534              	.LVL139:
 524:Middlewares/lvgl/src/core/lv_obj_pos.c **** }
 1535              		.loc 1 524 30 view .LVU418
 1536 0010 14FA80F0 		uxtah	r0, r4, r0
 525:Middlewares/lvgl/src/core/lv_obj_pos.c **** 
 1537              		.loc 1 525 1 view .LVU419
ARM GAS  /tmp/ccmgRVpn.s 			page 54


 1538 0014 00B2     		sxth	r0, r0
 1539 0016 38BD     		pop	{r3, r4, r5, pc}
 525:Middlewares/lvgl/src/core/lv_obj_pos.c **** 
 1540              		.loc 1 525 1 view .LVU420
 1541              		.cfi_endproc
 1542              	.LFE174:
 1544              		.section	.text.lv_obj_get_content_width,"ax",%progbits
 1545              		.align	1
 1546              		.global	lv_obj_get_content_width
 1547              		.syntax unified
 1548              		.thumb
 1549              		.thumb_func
 1551              	lv_obj_get_content_width:
 1552              	.LVL140:
 1553              	.LFB177:
 542:Middlewares/lvgl/src/core/lv_obj_pos.c ****     LV_ASSERT_OBJ(obj, MY_CLASS);
 1554              		.loc 1 542 1 is_stmt 1 view -0
 1555              		.cfi_startproc
 1556              		@ args = 0, pretend = 0, frame = 0
 1557              		@ frame_needed = 0, uses_anonymous_args = 0
 542:Middlewares/lvgl/src/core/lv_obj_pos.c ****     LV_ASSERT_OBJ(obj, MY_CLASS);
 1558              		.loc 1 542 1 is_stmt 0 view .LVU422
 1559 0000 F8B5     		push	{r3, r4, r5, r6, r7, lr}
 1560              	.LCFI31:
 1561              		.cfi_def_cfa_offset 24
 1562              		.cfi_offset 3, -24
 1563              		.cfi_offset 4, -20
 1564              		.cfi_offset 5, -16
 1565              		.cfi_offset 6, -12
 1566              		.cfi_offset 7, -8
 1567              		.cfi_offset 14, -4
 1568 0002 0546     		mov	r5, r0
 543:Middlewares/lvgl/src/core/lv_obj_pos.c **** 
 1569              		.loc 1 543 5 is_stmt 1 view .LVU423
 543:Middlewares/lvgl/src/core/lv_obj_pos.c **** 
 1570              		.loc 1 543 5 view .LVU424
 543:Middlewares/lvgl/src/core/lv_obj_pos.c **** 
 1571              		.loc 1 543 5 view .LVU425
 545:Middlewares/lvgl/src/core/lv_obj_pos.c ****     lv_coord_t right = lv_obj_get_style_pad_right(obj, LV_PART_MAIN);
 1572              		.loc 1 545 5 view .LVU426
 1573              	.LVL141:
 1574              	.LBB151:
 1575              	.LBI151:
 103:Middlewares/lvgl/src/core/lv_obj_style_gen.h **** {
 1576              		.loc 2 103 26 view .LVU427
 1577              	.LBB152:
 105:Middlewares/lvgl/src/core/lv_obj_style_gen.h ****     return (lv_coord_t)v.num;
 1578              		.loc 2 105 5 view .LVU428
 105:Middlewares/lvgl/src/core/lv_obj_style_gen.h ****     return (lv_coord_t)v.num;
 1579              		.loc 2 105 26 is_stmt 0 view .LVU429
 1580 0004 41F21202 		movw	r2, #4114
 1581 0008 0021     		movs	r1, #0
 1582 000a FFF7FEFF 		bl	lv_obj_get_style_prop
 1583              	.LVL142:
 105:Middlewares/lvgl/src/core/lv_obj_style_gen.h ****     return (lv_coord_t)v.num;
 1584              		.loc 2 105 26 view .LVU430
 1585 000e 0746     		mov	r7, r0
ARM GAS  /tmp/ccmgRVpn.s 			page 55


 1586              	.LVL143:
 106:Middlewares/lvgl/src/core/lv_obj_style_gen.h **** }
 1587              		.loc 2 106 5 is_stmt 1 view .LVU431
 106:Middlewares/lvgl/src/core/lv_obj_style_gen.h **** }
 1588              		.loc 2 106 5 is_stmt 0 view .LVU432
 1589              	.LBE152:
 1590              	.LBE151:
 546:Middlewares/lvgl/src/core/lv_obj_pos.c ****     lv_coord_t border_width = lv_obj_get_style_border_width(obj, LV_PART_MAIN);
 1591              		.loc 1 546 5 is_stmt 1 view .LVU433
 1592              	.LBB153:
 1593              	.LBI153:
 109:Middlewares/lvgl/src/core/lv_obj_style_gen.h **** {
 1594              		.loc 2 109 26 view .LVU434
 1595              	.LBB154:
 111:Middlewares/lvgl/src/core/lv_obj_style_gen.h ****     return (lv_coord_t)v.num;
 1596              		.loc 2 111 5 view .LVU435
 111:Middlewares/lvgl/src/core/lv_obj_style_gen.h ****     return (lv_coord_t)v.num;
 1597              		.loc 2 111 26 is_stmt 0 view .LVU436
 1598 0010 41F21302 		movw	r2, #4115
 1599 0014 0021     		movs	r1, #0
 1600 0016 2846     		mov	r0, r5
 1601 0018 FFF7FEFF 		bl	lv_obj_get_style_prop
 1602              	.LVL144:
 1603 001c 0646     		mov	r6, r0
 1604              	.LVL145:
 112:Middlewares/lvgl/src/core/lv_obj_style_gen.h **** }
 1605              		.loc 2 112 5 is_stmt 1 view .LVU437
 112:Middlewares/lvgl/src/core/lv_obj_style_gen.h **** }
 1606              		.loc 2 112 5 is_stmt 0 view .LVU438
 1607              	.LBE154:
 1608              	.LBE153:
 547:Middlewares/lvgl/src/core/lv_obj_pos.c **** 
 1609              		.loc 1 547 5 is_stmt 1 view .LVU439
 1610              	.LBB155:
 1611              	.LBI155:
 295:Middlewares/lvgl/src/core/lv_obj_style_gen.h **** {
 1612              		.loc 2 295 26 view .LVU440
 1613              	.LBB156:
 297:Middlewares/lvgl/src/core/lv_obj_style_gen.h ****     return (lv_coord_t)v.num;
 1614              		.loc 2 297 5 view .LVU441
 297:Middlewares/lvgl/src/core/lv_obj_style_gen.h ****     return (lv_coord_t)v.num;
 1615              		.loc 2 297 26 is_stmt 0 view .LVU442
 1616 001e 41F23202 		movw	r2, #4146
 1617 0022 0021     		movs	r1, #0
 1618 0024 2846     		mov	r0, r5
 1619 0026 FFF7FEFF 		bl	lv_obj_get_style_prop
 1620              	.LVL146:
 1621 002a 0446     		mov	r4, r0
 1622              	.LVL147:
 1623              		.loc 2 298 5 is_stmt 1 view .LVU443
 1624              		.loc 2 298 5 is_stmt 0 view .LVU444
 1625              	.LBE156:
 1626              	.LBE155:
 549:Middlewares/lvgl/src/core/lv_obj_pos.c **** }
 1627              		.loc 1 549 5 is_stmt 1 view .LVU445
 549:Middlewares/lvgl/src/core/lv_obj_pos.c **** }
 1628              		.loc 1 549 12 is_stmt 0 view .LVU446
ARM GAS  /tmp/ccmgRVpn.s 			page 56


 1629 002c 2846     		mov	r0, r5
 1630 002e FFF7FEFF 		bl	lv_obj_get_width
 1631              	.LVL148:
 1632 0032 83B2     		uxth	r3, r0
 549:Middlewares/lvgl/src/core/lv_obj_pos.c **** }
 1633              		.loc 1 549 34 view .LVU447
 1634 0034 DB1B     		subs	r3, r3, r7
 1635 0036 9BB2     		uxth	r3, r3
 549:Middlewares/lvgl/src/core/lv_obj_pos.c **** }
 1636              		.loc 1 549 41 view .LVU448
 1637 0038 9B1B     		subs	r3, r3, r6
 1638 003a 9BB2     		uxth	r3, r3
 549:Middlewares/lvgl/src/core/lv_obj_pos.c **** }
 1639              		.loc 1 549 53 view .LVU449
 1640 003c 6000     		lsls	r0, r4, #1
 1641 003e 80B2     		uxth	r0, r0
 549:Middlewares/lvgl/src/core/lv_obj_pos.c **** }
 1642              		.loc 1 549 49 view .LVU450
 1643 0040 181A     		subs	r0, r3, r0
 550:Middlewares/lvgl/src/core/lv_obj_pos.c **** 
 1644              		.loc 1 550 1 view .LVU451
 1645 0042 00B2     		sxth	r0, r0
 1646 0044 F8BD     		pop	{r3, r4, r5, r6, r7, pc}
 550:Middlewares/lvgl/src/core/lv_obj_pos.c **** 
 1647              		.loc 1 550 1 view .LVU452
 1648              		.cfi_endproc
 1649              	.LFE177:
 1651              		.section	.text.lv_obj_get_content_height,"ax",%progbits
 1652              		.align	1
 1653              		.global	lv_obj_get_content_height
 1654              		.syntax unified
 1655              		.thumb
 1656              		.thumb_func
 1658              	lv_obj_get_content_height:
 1659              	.LVL149:
 1660              	.LFB178:
 553:Middlewares/lvgl/src/core/lv_obj_pos.c ****     LV_ASSERT_OBJ(obj, MY_CLASS);
 1661              		.loc 1 553 1 is_stmt 1 view -0
 1662              		.cfi_startproc
 1663              		@ args = 0, pretend = 0, frame = 0
 1664              		@ frame_needed = 0, uses_anonymous_args = 0
 553:Middlewares/lvgl/src/core/lv_obj_pos.c ****     LV_ASSERT_OBJ(obj, MY_CLASS);
 1665              		.loc 1 553 1 is_stmt 0 view .LVU454
 1666 0000 F8B5     		push	{r3, r4, r5, r6, r7, lr}
 1667              	.LCFI32:
 1668              		.cfi_def_cfa_offset 24
 1669              		.cfi_offset 3, -24
 1670              		.cfi_offset 4, -20
 1671              		.cfi_offset 5, -16
 1672              		.cfi_offset 6, -12
 1673              		.cfi_offset 7, -8
 1674              		.cfi_offset 14, -4
 1675 0002 0546     		mov	r5, r0
 554:Middlewares/lvgl/src/core/lv_obj_pos.c **** 
 1676              		.loc 1 554 5 is_stmt 1 view .LVU455
 554:Middlewares/lvgl/src/core/lv_obj_pos.c **** 
 1677              		.loc 1 554 5 view .LVU456
ARM GAS  /tmp/ccmgRVpn.s 			page 57


 554:Middlewares/lvgl/src/core/lv_obj_pos.c **** 
 1678              		.loc 1 554 5 view .LVU457
 556:Middlewares/lvgl/src/core/lv_obj_pos.c ****     lv_coord_t bottom =  lv_obj_get_style_pad_bottom(obj, LV_PART_MAIN);
 1679              		.loc 1 556 5 view .LVU458
 1680              	.LVL150:
 1681              	.LBB157:
 1682              	.LBI157:
  91:Middlewares/lvgl/src/core/lv_obj_style_gen.h **** {
 1683              		.loc 2 91 26 view .LVU459
 1684              	.LBB158:
  93:Middlewares/lvgl/src/core/lv_obj_style_gen.h ****     return (lv_coord_t)v.num;
 1685              		.loc 2 93 5 view .LVU460
  93:Middlewares/lvgl/src/core/lv_obj_style_gen.h ****     return (lv_coord_t)v.num;
 1686              		.loc 2 93 26 is_stmt 0 view .LVU461
 1687 0004 41F21002 		movw	r2, #4112
 1688 0008 0021     		movs	r1, #0
 1689 000a FFF7FEFF 		bl	lv_obj_get_style_prop
 1690              	.LVL151:
  93:Middlewares/lvgl/src/core/lv_obj_style_gen.h ****     return (lv_coord_t)v.num;
 1691              		.loc 2 93 26 view .LVU462
 1692 000e 0746     		mov	r7, r0
 1693              	.LVL152:
  94:Middlewares/lvgl/src/core/lv_obj_style_gen.h **** }
 1694              		.loc 2 94 5 is_stmt 1 view .LVU463
  94:Middlewares/lvgl/src/core/lv_obj_style_gen.h **** }
 1695              		.loc 2 94 5 is_stmt 0 view .LVU464
 1696              	.LBE158:
 1697              	.LBE157:
 557:Middlewares/lvgl/src/core/lv_obj_pos.c ****     lv_coord_t border_width = lv_obj_get_style_border_width(obj, LV_PART_MAIN);
 1698              		.loc 1 557 5 is_stmt 1 view .LVU465
 1699              	.LBB159:
 1700              	.LBI159:
  97:Middlewares/lvgl/src/core/lv_obj_style_gen.h **** {
 1701              		.loc 2 97 26 view .LVU466
 1702              	.LBB160:
  99:Middlewares/lvgl/src/core/lv_obj_style_gen.h ****     return (lv_coord_t)v.num;
 1703              		.loc 2 99 5 view .LVU467
  99:Middlewares/lvgl/src/core/lv_obj_style_gen.h ****     return (lv_coord_t)v.num;
 1704              		.loc 2 99 26 is_stmt 0 view .LVU468
 1705 0010 41F21102 		movw	r2, #4113
 1706 0014 0021     		movs	r1, #0
 1707 0016 2846     		mov	r0, r5
 1708 0018 FFF7FEFF 		bl	lv_obj_get_style_prop
 1709              	.LVL153:
 1710 001c 0646     		mov	r6, r0
 1711              	.LVL154:
 100:Middlewares/lvgl/src/core/lv_obj_style_gen.h **** }
 1712              		.loc 2 100 5 is_stmt 1 view .LVU469
 100:Middlewares/lvgl/src/core/lv_obj_style_gen.h **** }
 1713              		.loc 2 100 5 is_stmt 0 view .LVU470
 1714              	.LBE160:
 1715              	.LBE159:
 558:Middlewares/lvgl/src/core/lv_obj_pos.c **** 
 1716              		.loc 1 558 5 is_stmt 1 view .LVU471
 1717              	.LBB161:
 1718              	.LBI161:
 295:Middlewares/lvgl/src/core/lv_obj_style_gen.h **** {
ARM GAS  /tmp/ccmgRVpn.s 			page 58


 1719              		.loc 2 295 26 view .LVU472
 1720              	.LBB162:
 297:Middlewares/lvgl/src/core/lv_obj_style_gen.h ****     return (lv_coord_t)v.num;
 1721              		.loc 2 297 5 view .LVU473
 297:Middlewares/lvgl/src/core/lv_obj_style_gen.h ****     return (lv_coord_t)v.num;
 1722              		.loc 2 297 26 is_stmt 0 view .LVU474
 1723 001e 41F23202 		movw	r2, #4146
 1724 0022 0021     		movs	r1, #0
 1725 0024 2846     		mov	r0, r5
 1726 0026 FFF7FEFF 		bl	lv_obj_get_style_prop
 1727              	.LVL155:
 1728 002a 0446     		mov	r4, r0
 1729              	.LVL156:
 1730              		.loc 2 298 5 is_stmt 1 view .LVU475
 1731              		.loc 2 298 5 is_stmt 0 view .LVU476
 1732              	.LBE162:
 1733              	.LBE161:
 560:Middlewares/lvgl/src/core/lv_obj_pos.c **** }
 1734              		.loc 1 560 5 is_stmt 1 view .LVU477
 560:Middlewares/lvgl/src/core/lv_obj_pos.c **** }
 1735              		.loc 1 560 12 is_stmt 0 view .LVU478
 1736 002c 2846     		mov	r0, r5
 1737 002e FFF7FEFF 		bl	lv_obj_get_height
 1738              	.LVL157:
 1739 0032 83B2     		uxth	r3, r0
 560:Middlewares/lvgl/src/core/lv_obj_pos.c **** }
 1740              		.loc 1 560 35 view .LVU479
 1741 0034 DB1B     		subs	r3, r3, r7
 1742 0036 9BB2     		uxth	r3, r3
 560:Middlewares/lvgl/src/core/lv_obj_pos.c **** }
 1743              		.loc 1 560 41 view .LVU480
 1744 0038 9B1B     		subs	r3, r3, r6
 1745 003a 9BB2     		uxth	r3, r3
 560:Middlewares/lvgl/src/core/lv_obj_pos.c **** }
 1746              		.loc 1 560 54 view .LVU481
 1747 003c 6000     		lsls	r0, r4, #1
 1748 003e 80B2     		uxth	r0, r0
 560:Middlewares/lvgl/src/core/lv_obj_pos.c **** }
 1749              		.loc 1 560 50 view .LVU482
 1750 0040 181A     		subs	r0, r3, r0
 561:Middlewares/lvgl/src/core/lv_obj_pos.c **** 
 1751              		.loc 1 561 1 view .LVU483
 1752 0042 00B2     		sxth	r0, r0
 1753 0044 F8BD     		pop	{r3, r4, r5, r6, r7, pc}
 561:Middlewares/lvgl/src/core/lv_obj_pos.c **** 
 1754              		.loc 1 561 1 view .LVU484
 1755              		.cfi_endproc
 1756              	.LFE178:
 1758              		.section	.text.lv_obj_get_content_coords,"ax",%progbits
 1759              		.align	1
 1760              		.global	lv_obj_get_content_coords
 1761              		.syntax unified
 1762              		.thumb
 1763              		.thumb_func
 1765              	lv_obj_get_content_coords:
 1766              	.LVL158:
 1767              	.LFB179:
ARM GAS  /tmp/ccmgRVpn.s 			page 59


 564:Middlewares/lvgl/src/core/lv_obj_pos.c ****     LV_ASSERT_OBJ(obj, MY_CLASS);
 1768              		.loc 1 564 1 is_stmt 1 view -0
 1769              		.cfi_startproc
 1770              		@ args = 0, pretend = 0, frame = 0
 1771              		@ frame_needed = 0, uses_anonymous_args = 0
 564:Middlewares/lvgl/src/core/lv_obj_pos.c ****     LV_ASSERT_OBJ(obj, MY_CLASS);
 1772              		.loc 1 564 1 is_stmt 0 view .LVU486
 1773 0000 70B5     		push	{r4, r5, r6, lr}
 1774              	.LCFI33:
 1775              		.cfi_def_cfa_offset 16
 1776              		.cfi_offset 4, -16
 1777              		.cfi_offset 5, -12
 1778              		.cfi_offset 6, -8
 1779              		.cfi_offset 14, -4
 1780 0002 0646     		mov	r6, r0
 1781 0004 0C46     		mov	r4, r1
 565:Middlewares/lvgl/src/core/lv_obj_pos.c ****     lv_coord_t border_width = lv_obj_get_style_border_width(obj, LV_PART_MAIN);
 1782              		.loc 1 565 5 is_stmt 1 view .LVU487
 565:Middlewares/lvgl/src/core/lv_obj_pos.c ****     lv_coord_t border_width = lv_obj_get_style_border_width(obj, LV_PART_MAIN);
 1783              		.loc 1 565 5 view .LVU488
 565:Middlewares/lvgl/src/core/lv_obj_pos.c ****     lv_coord_t border_width = lv_obj_get_style_border_width(obj, LV_PART_MAIN);
 1784              		.loc 1 565 5 view .LVU489
 566:Middlewares/lvgl/src/core/lv_obj_pos.c **** 
 1785              		.loc 1 566 5 view .LVU490
 1786              	.LVL159:
 1787              	.LBB163:
 1788              	.LBI163:
 295:Middlewares/lvgl/src/core/lv_obj_style_gen.h **** {
 1789              		.loc 2 295 26 view .LVU491
 1790              	.LBB164:
 297:Middlewares/lvgl/src/core/lv_obj_style_gen.h ****     return (lv_coord_t)v.num;
 1791              		.loc 2 297 5 view .LVU492
 297:Middlewares/lvgl/src/core/lv_obj_style_gen.h ****     return (lv_coord_t)v.num;
 1792              		.loc 2 297 26 is_stmt 0 view .LVU493
 1793 0006 41F23202 		movw	r2, #4146
 1794 000a 0021     		movs	r1, #0
 1795              	.LVL160:
 297:Middlewares/lvgl/src/core/lv_obj_style_gen.h ****     return (lv_coord_t)v.num;
 1796              		.loc 2 297 26 view .LVU494
 1797 000c FFF7FEFF 		bl	lv_obj_get_style_prop
 1798              	.LVL161:
 297:Middlewares/lvgl/src/core/lv_obj_style_gen.h ****     return (lv_coord_t)v.num;
 1799              		.loc 2 297 26 view .LVU495
 1800 0010 0546     		mov	r5, r0
 1801              	.LVL162:
 1802              		.loc 2 298 5 is_stmt 1 view .LVU496
 1803              		.loc 2 298 5 is_stmt 0 view .LVU497
 1804              	.LBE164:
 1805              	.LBE163:
 568:Middlewares/lvgl/src/core/lv_obj_pos.c ****     lv_area_increase(area, -border_width, -border_width);
 1806              		.loc 1 568 5 is_stmt 1 view .LVU498
 1807 0012 2146     		mov	r1, r4
 1808 0014 3046     		mov	r0, r6
 1809 0016 FFF7FEFF 		bl	lv_obj_get_coords
 1810              	.LVL163:
 569:Middlewares/lvgl/src/core/lv_obj_pos.c ****     area->x1 += lv_obj_get_style_pad_left(obj, LV_PART_MAIN);
 1811              		.loc 1 569 5 view .LVU499
ARM GAS  /tmp/ccmgRVpn.s 			page 60


 1812 001a 6942     		rsbs	r1, r5, #0
 1813 001c 09B2     		sxth	r1, r1
 1814 001e 0A46     		mov	r2, r1
 1815 0020 2046     		mov	r0, r4
 1816 0022 FFF7FEFF 		bl	lv_area_increase
 1817              	.LVL164:
 570:Middlewares/lvgl/src/core/lv_obj_pos.c ****     area->x2 -= lv_obj_get_style_pad_right(obj, LV_PART_MAIN);
 1818              		.loc 1 570 5 view .LVU500
 1819              	.LBB165:
 1820              	.LBI165:
 103:Middlewares/lvgl/src/core/lv_obj_style_gen.h **** {
 1821              		.loc 2 103 26 view .LVU501
 1822              	.LBB166:
 105:Middlewares/lvgl/src/core/lv_obj_style_gen.h ****     return (lv_coord_t)v.num;
 1823              		.loc 2 105 5 view .LVU502
 105:Middlewares/lvgl/src/core/lv_obj_style_gen.h ****     return (lv_coord_t)v.num;
 1824              		.loc 2 105 26 is_stmt 0 view .LVU503
 1825 0026 41F21202 		movw	r2, #4114
 1826 002a 0021     		movs	r1, #0
 1827 002c 3046     		mov	r0, r6
 1828 002e FFF7FEFF 		bl	lv_obj_get_style_prop
 1829              	.LVL165:
 106:Middlewares/lvgl/src/core/lv_obj_style_gen.h **** }
 1830              		.loc 2 106 5 is_stmt 1 view .LVU504
 106:Middlewares/lvgl/src/core/lv_obj_style_gen.h **** }
 1831              		.loc 2 106 5 is_stmt 0 view .LVU505
 1832              	.LBE166:
 1833              	.LBE165:
 570:Middlewares/lvgl/src/core/lv_obj_pos.c ****     area->x2 -= lv_obj_get_style_pad_right(obj, LV_PART_MAIN);
 1834              		.loc 1 570 14 view .LVU506
 1835 0032 2388     		ldrh	r3, [r4]
 1836 0034 13FA80F0 		uxtah	r0, r3, r0
 1837 0038 2080     		strh	r0, [r4]	@ movhi
 571:Middlewares/lvgl/src/core/lv_obj_pos.c ****     area->y1 += lv_obj_get_style_pad_top(obj, LV_PART_MAIN);
 1838              		.loc 1 571 5 is_stmt 1 view .LVU507
 1839              	.LVL166:
 1840              	.LBB167:
 1841              	.LBI167:
 109:Middlewares/lvgl/src/core/lv_obj_style_gen.h **** {
 1842              		.loc 2 109 26 view .LVU508
 1843              	.LBB168:
 111:Middlewares/lvgl/src/core/lv_obj_style_gen.h ****     return (lv_coord_t)v.num;
 1844              		.loc 2 111 5 view .LVU509
 111:Middlewares/lvgl/src/core/lv_obj_style_gen.h ****     return (lv_coord_t)v.num;
 1845              		.loc 2 111 26 is_stmt 0 view .LVU510
 1846 003a 41F21302 		movw	r2, #4115
 1847 003e 0021     		movs	r1, #0
 1848 0040 3046     		mov	r0, r6
 1849 0042 FFF7FEFF 		bl	lv_obj_get_style_prop
 1850              	.LVL167:
 112:Middlewares/lvgl/src/core/lv_obj_style_gen.h **** }
 1851              		.loc 2 112 5 is_stmt 1 view .LVU511
 112:Middlewares/lvgl/src/core/lv_obj_style_gen.h **** }
 1852              		.loc 2 112 5 is_stmt 0 view .LVU512
 1853              	.LBE168:
 1854              	.LBE167:
 571:Middlewares/lvgl/src/core/lv_obj_pos.c ****     area->y1 += lv_obj_get_style_pad_top(obj, LV_PART_MAIN);
ARM GAS  /tmp/ccmgRVpn.s 			page 61


 1855              		.loc 1 571 17 view .LVU513
 1856 0046 83B2     		uxth	r3, r0
 571:Middlewares/lvgl/src/core/lv_obj_pos.c ****     area->y1 += lv_obj_get_style_pad_top(obj, LV_PART_MAIN);
 1857              		.loc 1 571 14 view .LVU514
 1858 0048 A088     		ldrh	r0, [r4, #4]
 1859 004a C01A     		subs	r0, r0, r3
 1860 004c A080     		strh	r0, [r4, #4]	@ movhi
 572:Middlewares/lvgl/src/core/lv_obj_pos.c ****     area->y2 -= lv_obj_get_style_pad_bottom(obj, LV_PART_MAIN);
 1861              		.loc 1 572 5 is_stmt 1 view .LVU515
 1862              	.LVL168:
 1863              	.LBB169:
 1864              	.LBI169:
  91:Middlewares/lvgl/src/core/lv_obj_style_gen.h **** {
 1865              		.loc 2 91 26 view .LVU516
 1866              	.LBB170:
  93:Middlewares/lvgl/src/core/lv_obj_style_gen.h ****     return (lv_coord_t)v.num;
 1867              		.loc 2 93 5 view .LVU517
  93:Middlewares/lvgl/src/core/lv_obj_style_gen.h ****     return (lv_coord_t)v.num;
 1868              		.loc 2 93 26 is_stmt 0 view .LVU518
 1869 004e 41F21002 		movw	r2, #4112
 1870 0052 0021     		movs	r1, #0
 1871 0054 3046     		mov	r0, r6
 1872 0056 FFF7FEFF 		bl	lv_obj_get_style_prop
 1873              	.LVL169:
  94:Middlewares/lvgl/src/core/lv_obj_style_gen.h **** }
 1874              		.loc 2 94 5 is_stmt 1 view .LVU519
  94:Middlewares/lvgl/src/core/lv_obj_style_gen.h **** }
 1875              		.loc 2 94 5 is_stmt 0 view .LVU520
 1876              	.LBE170:
 1877              	.LBE169:
 572:Middlewares/lvgl/src/core/lv_obj_pos.c ****     area->y2 -= lv_obj_get_style_pad_bottom(obj, LV_PART_MAIN);
 1878              		.loc 1 572 14 view .LVU521
 1879 005a 6388     		ldrh	r3, [r4, #2]
 1880 005c 13FA80F0 		uxtah	r0, r3, r0
 1881 0060 6080     		strh	r0, [r4, #2]	@ movhi
 573:Middlewares/lvgl/src/core/lv_obj_pos.c **** 
 1882              		.loc 1 573 5 is_stmt 1 view .LVU522
 1883              	.LVL170:
 1884              	.LBB171:
 1885              	.LBI171:
  97:Middlewares/lvgl/src/core/lv_obj_style_gen.h **** {
 1886              		.loc 2 97 26 view .LVU523
 1887              	.LBB172:
  99:Middlewares/lvgl/src/core/lv_obj_style_gen.h ****     return (lv_coord_t)v.num;
 1888              		.loc 2 99 5 view .LVU524
  99:Middlewares/lvgl/src/core/lv_obj_style_gen.h ****     return (lv_coord_t)v.num;
 1889              		.loc 2 99 26 is_stmt 0 view .LVU525
 1890 0062 41F21102 		movw	r2, #4113
 1891 0066 0021     		movs	r1, #0
 1892 0068 3046     		mov	r0, r6
 1893 006a FFF7FEFF 		bl	lv_obj_get_style_prop
 1894              	.LVL171:
 100:Middlewares/lvgl/src/core/lv_obj_style_gen.h **** }
 1895              		.loc 2 100 5 is_stmt 1 view .LVU526
 100:Middlewares/lvgl/src/core/lv_obj_style_gen.h **** }
 1896              		.loc 2 100 5 is_stmt 0 view .LVU527
 1897              	.LBE172:
ARM GAS  /tmp/ccmgRVpn.s 			page 62


 1898              	.LBE171:
 573:Middlewares/lvgl/src/core/lv_obj_pos.c **** 
 1899              		.loc 1 573 17 view .LVU528
 1900 006e 83B2     		uxth	r3, r0
 573:Middlewares/lvgl/src/core/lv_obj_pos.c **** 
 1901              		.loc 1 573 14 view .LVU529
 1902 0070 E088     		ldrh	r0, [r4, #6]
 1903 0072 C01A     		subs	r0, r0, r3
 1904 0074 E080     		strh	r0, [r4, #6]	@ movhi
 575:Middlewares/lvgl/src/core/lv_obj_pos.c **** 
 1905              		.loc 1 575 1 view .LVU530
 1906 0076 70BD     		pop	{r4, r5, r6, pc}
 575:Middlewares/lvgl/src/core/lv_obj_pos.c **** 
 1907              		.loc 1 575 1 view .LVU531
 1908              		.cfi_endproc
 1909              	.LFE179:
 1911              		.section	.text.lv_obj_get_self_width,"ax",%progbits
 1912              		.align	1
 1913              		.global	lv_obj_get_self_width
 1914              		.syntax unified
 1915              		.thumb
 1916              		.thumb_func
 1918              	lv_obj_get_self_width:
 1919              	.LVL172:
 1920              	.LFB180:
 578:Middlewares/lvgl/src/core/lv_obj_pos.c ****     lv_point_t p = {0, LV_COORD_MIN};
 1921              		.loc 1 578 1 is_stmt 1 view -0
 1922              		.cfi_startproc
 1923              		@ args = 0, pretend = 0, frame = 8
 1924              		@ frame_needed = 0, uses_anonymous_args = 0
 578:Middlewares/lvgl/src/core/lv_obj_pos.c ****     lv_point_t p = {0, LV_COORD_MIN};
 1925              		.loc 1 578 1 is_stmt 0 view .LVU533
 1926 0000 00B5     		push	{lr}
 1927              	.LCFI34:
 1928              		.cfi_def_cfa_offset 4
 1929              		.cfi_offset 14, -4
 1930 0002 83B0     		sub	sp, sp, #12
 1931              	.LCFI35:
 1932              		.cfi_def_cfa_offset 16
 579:Middlewares/lvgl/src/core/lv_obj_pos.c ****     lv_event_send((lv_obj_t * )obj, LV_EVENT_GET_SELF_SIZE, &p);
 1933              		.loc 1 579 5 is_stmt 1 view .LVU534
 579:Middlewares/lvgl/src/core/lv_obj_pos.c ****     lv_event_send((lv_obj_t * )obj, LV_EVENT_GET_SELF_SIZE, &p);
 1934              		.loc 1 579 16 is_stmt 0 view .LVU535
 1935 0004 0023     		movs	r3, #0
 1936 0006 ADF80430 		strh	r3, [sp, #4]	@ movhi
 1937 000a 4FF42043 		mov	r3, #40960
 1938 000e ADF80630 		strh	r3, [sp, #6]	@ movhi
 580:Middlewares/lvgl/src/core/lv_obj_pos.c ****     return p.x;
 1939              		.loc 1 580 5 is_stmt 1 view .LVU536
 1940 0012 01AA     		add	r2, sp, #4
 1941 0014 2621     		movs	r1, #38
 1942 0016 FFF7FEFF 		bl	lv_event_send
 1943              	.LVL173:
 581:Middlewares/lvgl/src/core/lv_obj_pos.c **** }
 1944              		.loc 1 581 5 view .LVU537
 582:Middlewares/lvgl/src/core/lv_obj_pos.c **** 
 1945              		.loc 1 582 1 is_stmt 0 view .LVU538
ARM GAS  /tmp/ccmgRVpn.s 			page 63


 1946 001a BDF90400 		ldrsh	r0, [sp, #4]
 1947 001e 03B0     		add	sp, sp, #12
 1948              	.LCFI36:
 1949              		.cfi_def_cfa_offset 4
 1950              		@ sp needed
 1951 0020 5DF804FB 		ldr	pc, [sp], #4
 1952              		.cfi_endproc
 1953              	.LFE180:
 1955              		.section	.text.lv_obj_get_self_height,"ax",%progbits
 1956              		.align	1
 1957              		.global	lv_obj_get_self_height
 1958              		.syntax unified
 1959              		.thumb
 1960              		.thumb_func
 1962              	lv_obj_get_self_height:
 1963              	.LVL174:
 1964              	.LFB181:
 585:Middlewares/lvgl/src/core/lv_obj_pos.c ****     lv_point_t p = {LV_COORD_MIN, 0};
 1965              		.loc 1 585 1 is_stmt 1 view -0
 1966              		.cfi_startproc
 1967              		@ args = 0, pretend = 0, frame = 8
 1968              		@ frame_needed = 0, uses_anonymous_args = 0
 585:Middlewares/lvgl/src/core/lv_obj_pos.c ****     lv_point_t p = {LV_COORD_MIN, 0};
 1969              		.loc 1 585 1 is_stmt 0 view .LVU540
 1970 0000 00B5     		push	{lr}
 1971              	.LCFI37:
 1972              		.cfi_def_cfa_offset 4
 1973              		.cfi_offset 14, -4
 1974 0002 83B0     		sub	sp, sp, #12
 1975              	.LCFI38:
 1976              		.cfi_def_cfa_offset 16
 586:Middlewares/lvgl/src/core/lv_obj_pos.c ****     lv_event_send((lv_obj_t * )obj, LV_EVENT_GET_SELF_SIZE, &p);
 1977              		.loc 1 586 5 is_stmt 1 view .LVU541
 586:Middlewares/lvgl/src/core/lv_obj_pos.c ****     lv_event_send((lv_obj_t * )obj, LV_EVENT_GET_SELF_SIZE, &p);
 1978              		.loc 1 586 16 is_stmt 0 view .LVU542
 1979 0004 4FF42043 		mov	r3, #40960
 1980 0008 ADF80430 		strh	r3, [sp, #4]	@ movhi
 1981 000c 0023     		movs	r3, #0
 1982 000e ADF80630 		strh	r3, [sp, #6]	@ movhi
 587:Middlewares/lvgl/src/core/lv_obj_pos.c ****     return p.y;
 1983              		.loc 1 587 5 is_stmt 1 view .LVU543
 1984 0012 01AA     		add	r2, sp, #4
 1985 0014 2621     		movs	r1, #38
 1986 0016 FFF7FEFF 		bl	lv_event_send
 1987              	.LVL175:
 588:Middlewares/lvgl/src/core/lv_obj_pos.c **** }
 1988              		.loc 1 588 5 view .LVU544
 589:Middlewares/lvgl/src/core/lv_obj_pos.c **** 
 1989              		.loc 1 589 1 is_stmt 0 view .LVU545
 1990 001a BDF90600 		ldrsh	r0, [sp, #6]
 1991 001e 03B0     		add	sp, sp, #12
 1992              	.LCFI39:
 1993              		.cfi_def_cfa_offset 4
 1994              		@ sp needed
 1995 0020 5DF804FB 		ldr	pc, [sp], #4
 1996              		.cfi_endproc
 1997              	.LFE181:
ARM GAS  /tmp/ccmgRVpn.s 			page 64


 1999              		.section	.text.lv_obj_refresh_self_size,"ax",%progbits
 2000              		.align	1
 2001              		.global	lv_obj_refresh_self_size
 2002              		.syntax unified
 2003              		.thumb
 2004              		.thumb_func
 2006              	lv_obj_refresh_self_size:
 2007              	.LVL176:
 2008              	.LFB182:
 592:Middlewares/lvgl/src/core/lv_obj_pos.c ****     lv_coord_t w_set = lv_obj_get_style_width(obj, LV_PART_MAIN);
 2009              		.loc 1 592 1 is_stmt 1 view -0
 2010              		.cfi_startproc
 2011              		@ args = 0, pretend = 0, frame = 0
 2012              		@ frame_needed = 0, uses_anonymous_args = 0
 592:Middlewares/lvgl/src/core/lv_obj_pos.c ****     lv_coord_t w_set = lv_obj_get_style_width(obj, LV_PART_MAIN);
 2013              		.loc 1 592 1 is_stmt 0 view .LVU547
 2014 0000 38B5     		push	{r3, r4, r5, lr}
 2015              	.LCFI40:
 2016              		.cfi_def_cfa_offset 16
 2017              		.cfi_offset 3, -16
 2018              		.cfi_offset 4, -12
 2019              		.cfi_offset 5, -8
 2020              		.cfi_offset 14, -4
 2021 0002 0446     		mov	r4, r0
 593:Middlewares/lvgl/src/core/lv_obj_pos.c ****     lv_coord_t h_set = lv_obj_get_style_height(obj, LV_PART_MAIN);
 2022              		.loc 1 593 5 is_stmt 1 view .LVU548
 2023              	.LVL177:
 2024              	.LBB173:
 2025              	.LBI173:
   1:Middlewares/lvgl/src/core/lv_obj_style_gen.h **** {
 2026              		.loc 2 1 26 view .LVU549
 2027              	.LBB174:
   3:Middlewares/lvgl/src/core/lv_obj_style_gen.h ****     return (lv_coord_t)v.num;
 2028              		.loc 2 3 5 view .LVU550
   3:Middlewares/lvgl/src/core/lv_obj_style_gen.h ****     return (lv_coord_t)v.num;
 2029              		.loc 2 3 26 is_stmt 0 view .LVU551
 2030 0004 41F20102 		movw	r2, #4097
 2031 0008 0021     		movs	r1, #0
 2032 000a FFF7FEFF 		bl	lv_obj_get_style_prop
 2033              	.LVL178:
   4:Middlewares/lvgl/src/core/lv_obj_style_gen.h **** }
 2034              		.loc 2 4 5 is_stmt 1 view .LVU552
   4:Middlewares/lvgl/src/core/lv_obj_style_gen.h **** }
 2035              		.loc 2 4 12 is_stmt 0 view .LVU553
 2036 000e 05B2     		sxth	r5, r0
 2037              	.LVL179:
   4:Middlewares/lvgl/src/core/lv_obj_style_gen.h **** }
 2038              		.loc 2 4 12 view .LVU554
 2039              	.LBE174:
 2040              	.LBE173:
 594:Middlewares/lvgl/src/core/lv_obj_pos.c ****     if(w_set != LV_SIZE_CONTENT && h_set != LV_SIZE_CONTENT) return false;
 2041              		.loc 1 594 5 is_stmt 1 view .LVU555
 2042              	.LBB175:
 2043              	.LBI175:
  19:Middlewares/lvgl/src/core/lv_obj_style_gen.h **** {
 2044              		.loc 2 19 26 view .LVU556
 2045              	.LBB176:
ARM GAS  /tmp/ccmgRVpn.s 			page 65


  21:Middlewares/lvgl/src/core/lv_obj_style_gen.h ****     return (lv_coord_t)v.num;
 2046              		.loc 2 21 5 view .LVU557
  21:Middlewares/lvgl/src/core/lv_obj_style_gen.h ****     return (lv_coord_t)v.num;
 2047              		.loc 2 21 26 is_stmt 0 view .LVU558
 2048 0010 41F20402 		movw	r2, #4100
 2049 0014 0021     		movs	r1, #0
 2050 0016 2046     		mov	r0, r4
 2051 0018 FFF7FEFF 		bl	lv_obj_get_style_prop
 2052              	.LVL180:
  22:Middlewares/lvgl/src/core/lv_obj_style_gen.h **** }
 2053              		.loc 2 22 5 is_stmt 1 view .LVU559
  22:Middlewares/lvgl/src/core/lv_obj_style_gen.h **** }
 2054              		.loc 2 22 5 is_stmt 0 view .LVU560
 2055              	.LBE176:
 2056              	.LBE175:
 595:Middlewares/lvgl/src/core/lv_obj_pos.c **** 
 2057              		.loc 1 595 5 is_stmt 1 view .LVU561
 595:Middlewares/lvgl/src/core/lv_obj_pos.c **** 
 2058              		.loc 1 595 7 is_stmt 0 view .LVU562
 2059 001c 42F2D173 		movw	r3, #10193
 2060 0020 9D42     		cmp	r5, r3
 2061 0022 02D0     		beq	.L92
 2062 0024 00B2     		sxth	r0, r0
 595:Middlewares/lvgl/src/core/lv_obj_pos.c **** 
 2063              		.loc 1 595 33 discriminator 1 view .LVU563
 2064 0026 9842     		cmp	r0, r3
 2065 0028 04D1     		bne	.L94
 2066              	.LVL181:
 2067              	.L92:
 597:Middlewares/lvgl/src/core/lv_obj_pos.c ****     return true;
 2068              		.loc 1 597 5 is_stmt 1 view .LVU564
 2069 002a 2046     		mov	r0, r4
 2070 002c FFF7FEFF 		bl	lv_obj_mark_layout_as_dirty
 2071              	.LVL182:
 598:Middlewares/lvgl/src/core/lv_obj_pos.c **** }
 2072              		.loc 1 598 5 view .LVU565
 598:Middlewares/lvgl/src/core/lv_obj_pos.c **** }
 2073              		.loc 1 598 12 is_stmt 0 view .LVU566
 2074 0030 0120     		movs	r0, #1
 2075              	.L93:
 599:Middlewares/lvgl/src/core/lv_obj_pos.c **** 
 2076              		.loc 1 599 1 view .LVU567
 2077 0032 38BD     		pop	{r3, r4, r5, pc}
 2078              	.LVL183:
 2079              	.L94:
 595:Middlewares/lvgl/src/core/lv_obj_pos.c **** 
 2080              		.loc 1 595 69 view .LVU568
 2081 0034 0020     		movs	r0, #0
 2082              	.LVL184:
 595:Middlewares/lvgl/src/core/lv_obj_pos.c **** 
 2083              		.loc 1 595 69 view .LVU569
 2084 0036 FCE7     		b	.L93
 2085              		.cfi_endproc
 2086              	.LFE182:
 2088              		.section	.text.lv_obj_move_children_by,"ax",%progbits
 2089              		.align	1
 2090              		.global	lv_obj_move_children_by
ARM GAS  /tmp/ccmgRVpn.s 			page 66


 2091              		.syntax unified
 2092              		.thumb
 2093              		.thumb_func
 2095              	lv_obj_move_children_by:
 2096              	.LVL185:
 2097              	.LFB185:
 753:Middlewares/lvgl/src/core/lv_obj_pos.c ****     uint32_t i;
 2098              		.loc 1 753 1 is_stmt 1 view -0
 2099              		.cfi_startproc
 2100              		@ args = 0, pretend = 0, frame = 0
 2101              		@ frame_needed = 0, uses_anonymous_args = 0
 753:Middlewares/lvgl/src/core/lv_obj_pos.c ****     uint32_t i;
 2102              		.loc 1 753 1 is_stmt 0 view .LVU571
 2103 0000 2DE9F047 		push	{r4, r5, r6, r7, r8, r9, r10, lr}
 2104              	.LCFI41:
 2105              		.cfi_def_cfa_offset 32
 2106              		.cfi_offset 4, -32
 2107              		.cfi_offset 5, -28
 2108              		.cfi_offset 6, -24
 2109              		.cfi_offset 7, -20
 2110              		.cfi_offset 8, -16
 2111              		.cfi_offset 9, -12
 2112              		.cfi_offset 10, -8
 2113              		.cfi_offset 14, -4
 2114 0004 8246     		mov	r10, r0
 2115 0006 0F46     		mov	r7, r1
 2116 0008 1646     		mov	r6, r2
 2117 000a 9946     		mov	r9, r3
 754:Middlewares/lvgl/src/core/lv_obj_pos.c ****     uint32_t child_cnt = lv_obj_get_child_cnt(obj);
 2118              		.loc 1 754 5 is_stmt 1 view .LVU572
 755:Middlewares/lvgl/src/core/lv_obj_pos.c ****     for(i = 0; i < child_cnt; i++) {
 2119              		.loc 1 755 5 view .LVU573
 755:Middlewares/lvgl/src/core/lv_obj_pos.c ****     for(i = 0; i < child_cnt; i++) {
 2120              		.loc 1 755 26 is_stmt 0 view .LVU574
 2121 000c FFF7FEFF 		bl	lv_obj_get_child_cnt
 2122              	.LVL186:
 755:Middlewares/lvgl/src/core/lv_obj_pos.c ****     for(i = 0; i < child_cnt; i++) {
 2123              		.loc 1 755 26 view .LVU575
 2124 0010 8046     		mov	r8, r0
 2125              	.LVL187:
 756:Middlewares/lvgl/src/core/lv_obj_pos.c ****         lv_obj_t * child = lv_obj_get_child(obj, i);
 2126              		.loc 1 756 5 is_stmt 1 view .LVU576
 756:Middlewares/lvgl/src/core/lv_obj_pos.c ****         lv_obj_t * child = lv_obj_get_child(obj, i);
 2127              		.loc 1 756 11 is_stmt 0 view .LVU577
 2128 0012 0025     		movs	r5, #0
 756:Middlewares/lvgl/src/core/lv_obj_pos.c ****         lv_obj_t * child = lv_obj_get_child(obj, i);
 2129              		.loc 1 756 5 view .LVU578
 2130 0014 16E0     		b	.L97
 2131              	.LVL188:
 2132              	.L98:
 2133              	.LBB177:
 759:Middlewares/lvgl/src/core/lv_obj_pos.c ****         child->coords.y1 += y_diff;
 2134              		.loc 1 759 9 is_stmt 1 view .LVU579
 759:Middlewares/lvgl/src/core/lv_obj_pos.c ****         child->coords.y1 += y_diff;
 2135              		.loc 1 759 26 is_stmt 0 view .LVU580
 2136 0016 BBB2     		uxth	r3, r7
 2137 0018 A28A     		ldrh	r2, [r4, #20]
ARM GAS  /tmp/ccmgRVpn.s 			page 67


 2138 001a 1A44     		add	r2, r2, r3
 2139 001c A282     		strh	r2, [r4, #20]	@ movhi
 760:Middlewares/lvgl/src/core/lv_obj_pos.c ****         child->coords.x2 += x_diff;
 2140              		.loc 1 760 9 is_stmt 1 view .LVU581
 760:Middlewares/lvgl/src/core/lv_obj_pos.c ****         child->coords.x2 += x_diff;
 2141              		.loc 1 760 26 is_stmt 0 view .LVU582
 2142 001e 1FFA86FC 		uxth	ip, r6
 2143 0022 E28A     		ldrh	r2, [r4, #22]
 2144 0024 6244     		add	r2, r2, ip
 2145 0026 E282     		strh	r2, [r4, #22]	@ movhi
 761:Middlewares/lvgl/src/core/lv_obj_pos.c ****         child->coords.y2 += y_diff;
 2146              		.loc 1 761 9 is_stmt 1 view .LVU583
 761:Middlewares/lvgl/src/core/lv_obj_pos.c ****         child->coords.y2 += y_diff;
 2147              		.loc 1 761 26 is_stmt 0 view .LVU584
 2148 0028 228B     		ldrh	r2, [r4, #24]
 2149 002a 1344     		add	r3, r3, r2
 2150 002c 2383     		strh	r3, [r4, #24]	@ movhi
 762:Middlewares/lvgl/src/core/lv_obj_pos.c **** 
 2151              		.loc 1 762 9 is_stmt 1 view .LVU585
 762:Middlewares/lvgl/src/core/lv_obj_pos.c **** 
 2152              		.loc 1 762 26 is_stmt 0 view .LVU586
 2153 002e 638B     		ldrh	r3, [r4, #26]
 2154 0030 9C44     		add	ip, ip, r3
 2155 0032 A4F81AC0 		strh	ip, [r4, #26]	@ movhi
 764:Middlewares/lvgl/src/core/lv_obj_pos.c ****     }
 2156              		.loc 1 764 9 is_stmt 1 view .LVU587
 2157 0036 0023     		movs	r3, #0
 2158 0038 3246     		mov	r2, r6
 2159 003a 3946     		mov	r1, r7
 2160 003c 2046     		mov	r0, r4
 2161 003e FFF7FEFF 		bl	lv_obj_move_children_by
 2162              	.LVL189:
 2163              	.L99:
 764:Middlewares/lvgl/src/core/lv_obj_pos.c ****     }
 2164              		.loc 1 764 9 is_stmt 0 view .LVU588
 2165              	.LBE177:
 756:Middlewares/lvgl/src/core/lv_obj_pos.c ****         lv_obj_t * child = lv_obj_get_child(obj, i);
 2166              		.loc 1 756 31 is_stmt 1 discriminator 2 view .LVU589
 756:Middlewares/lvgl/src/core/lv_obj_pos.c ****         lv_obj_t * child = lv_obj_get_child(obj, i);
 2167              		.loc 1 756 32 is_stmt 0 discriminator 2 view .LVU590
 2168 0042 0135     		adds	r5, r5, #1
 2169              	.LVL190:
 2170              	.L97:
 756:Middlewares/lvgl/src/core/lv_obj_pos.c ****         lv_obj_t * child = lv_obj_get_child(obj, i);
 2171              		.loc 1 756 16 is_stmt 1 discriminator 1 view .LVU591
 756:Middlewares/lvgl/src/core/lv_obj_pos.c ****         lv_obj_t * child = lv_obj_get_child(obj, i);
 2172              		.loc 1 756 5 is_stmt 0 discriminator 1 view .LVU592
 2173 0044 4545     		cmp	r5, r8
 2174 0046 0ED2     		bcs	.L102
 2175              	.LBB178:
 757:Middlewares/lvgl/src/core/lv_obj_pos.c ****         if(ignore_floating && lv_obj_has_flag(child, LV_OBJ_FLAG_FLOATING)) continue;
 2176              		.loc 1 757 9 is_stmt 1 view .LVU593
 757:Middlewares/lvgl/src/core/lv_obj_pos.c ****         if(ignore_floating && lv_obj_has_flag(child, LV_OBJ_FLAG_FLOATING)) continue;
 2177              		.loc 1 757 28 is_stmt 0 view .LVU594
 2178 0048 2946     		mov	r1, r5
 2179 004a 5046     		mov	r0, r10
 2180 004c FFF7FEFF 		bl	lv_obj_get_child
ARM GAS  /tmp/ccmgRVpn.s 			page 68


 2181              	.LVL191:
 2182 0050 0446     		mov	r4, r0
 2183              	.LVL192:
 758:Middlewares/lvgl/src/core/lv_obj_pos.c ****         child->coords.x1 += x_diff;
 2184              		.loc 1 758 9 is_stmt 1 view .LVU595
 758:Middlewares/lvgl/src/core/lv_obj_pos.c ****         child->coords.x1 += x_diff;
 2185              		.loc 1 758 11 is_stmt 0 view .LVU596
 2186 0052 B9F1000F 		cmp	r9, #0
 2187 0056 DED0     		beq	.L98
 758:Middlewares/lvgl/src/core/lv_obj_pos.c ****         child->coords.x1 += x_diff;
 2188              		.loc 1 758 31 discriminator 1 view .LVU597
 2189 0058 4FF48031 		mov	r1, #65536
 2190 005c FFF7FEFF 		bl	lv_obj_has_flag
 2191              	.LVL193:
 758:Middlewares/lvgl/src/core/lv_obj_pos.c ****         child->coords.x1 += x_diff;
 2192              		.loc 1 758 28 discriminator 1 view .LVU598
 2193 0060 0028     		cmp	r0, #0
 2194 0062 D8D0     		beq	.L98
 2195 0064 EDE7     		b	.L99
 2196              	.LVL194:
 2197              	.L102:
 758:Middlewares/lvgl/src/core/lv_obj_pos.c ****         child->coords.x1 += x_diff;
 2198              		.loc 1 758 28 discriminator 1 view .LVU599
 2199              	.LBE178:
 766:Middlewares/lvgl/src/core/lv_obj_pos.c **** 
 2200              		.loc 1 766 1 view .LVU600
 2201 0066 BDE8F087 		pop	{r4, r5, r6, r7, r8, r9, r10, pc}
 766:Middlewares/lvgl/src/core/lv_obj_pos.c **** 
 2202              		.loc 1 766 1 view .LVU601
 2203              		.cfi_endproc
 2204              	.LFE185:
 2206              		.section	.text.lv_obj_area_is_visible,"ax",%progbits
 2207              		.align	1
 2208              		.global	lv_obj_area_is_visible
 2209              		.syntax unified
 2210              		.thumb
 2211              		.thumb_func
 2213              	lv_obj_area_is_visible:
 2214              	.LVL195:
 2215              	.LFB188:
 798:Middlewares/lvgl/src/core/lv_obj_pos.c ****     if(lv_obj_has_flag(obj, LV_OBJ_FLAG_HIDDEN)) return false;
 2216              		.loc 1 798 1 is_stmt 1 view -0
 2217              		.cfi_startproc
 2218              		@ args = 0, pretend = 0, frame = 8
 2219              		@ frame_needed = 0, uses_anonymous_args = 0
 798:Middlewares/lvgl/src/core/lv_obj_pos.c ****     if(lv_obj_has_flag(obj, LV_OBJ_FLAG_HIDDEN)) return false;
 2220              		.loc 1 798 1 is_stmt 0 view .LVU603
 2221 0000 2DE9F041 		push	{r4, r5, r6, r7, r8, lr}
 2222              	.LCFI42:
 2223              		.cfi_def_cfa_offset 24
 2224              		.cfi_offset 4, -24
 2225              		.cfi_offset 5, -20
 2226              		.cfi_offset 6, -16
 2227              		.cfi_offset 7, -12
 2228              		.cfi_offset 8, -8
 2229              		.cfi_offset 14, -4
 2230 0004 82B0     		sub	sp, sp, #8
ARM GAS  /tmp/ccmgRVpn.s 			page 69


 2231              	.LCFI43:
 2232              		.cfi_def_cfa_offset 32
 2233 0006 0446     		mov	r4, r0
 2234 0008 0D46     		mov	r5, r1
 799:Middlewares/lvgl/src/core/lv_obj_pos.c **** 
 2235              		.loc 1 799 5 is_stmt 1 view .LVU604
 799:Middlewares/lvgl/src/core/lv_obj_pos.c **** 
 2236              		.loc 1 799 8 is_stmt 0 view .LVU605
 2237 000a 0121     		movs	r1, #1
 2238              	.LVL196:
 799:Middlewares/lvgl/src/core/lv_obj_pos.c **** 
 2239              		.loc 1 799 8 view .LVU606
 2240 000c FFF7FEFF 		bl	lv_obj_has_flag
 2241              	.LVL197:
 799:Middlewares/lvgl/src/core/lv_obj_pos.c **** 
 2242              		.loc 1 799 7 view .LVU607
 2243 0010 20B1     		cbz	r0, .L113
 799:Middlewares/lvgl/src/core/lv_obj_pos.c **** 
 2244              		.loc 1 799 57 view .LVU608
 2245 0012 0027     		movs	r7, #0
 2246              	.LVL198:
 2247              	.L104:
 837:Middlewares/lvgl/src/core/lv_obj_pos.c **** 
 2248              		.loc 1 837 1 view .LVU609
 2249 0014 3846     		mov	r0, r7
 2250 0016 02B0     		add	sp, sp, #8
 2251              	.LCFI44:
 2252              		.cfi_remember_state
 2253              		.cfi_def_cfa_offset 24
 2254              		@ sp needed
 2255 0018 BDE8F081 		pop	{r4, r5, r6, r7, r8, pc}
 2256              	.LVL199:
 2257              	.L113:
 2258              	.LCFI45:
 2259              		.cfi_restore_state
 837:Middlewares/lvgl/src/core/lv_obj_pos.c **** 
 2260              		.loc 1 837 1 view .LVU610
 2261 001c 0646     		mov	r6, r0
 802:Middlewares/lvgl/src/core/lv_obj_pos.c ****     lv_disp_t * disp   = lv_obj_get_disp(obj_scr);
 2262              		.loc 1 802 5 is_stmt 1 view .LVU611
 802:Middlewares/lvgl/src/core/lv_obj_pos.c ****     lv_disp_t * disp   = lv_obj_get_disp(obj_scr);
 2263              		.loc 1 802 26 is_stmt 0 view .LVU612
 2264 001e 2046     		mov	r0, r4
 2265 0020 FFF7FEFF 		bl	lv_obj_get_screen
 2266              	.LVL200:
 2267 0024 0746     		mov	r7, r0
 2268              	.LVL201:
 803:Middlewares/lvgl/src/core/lv_obj_pos.c ****     if(obj_scr != lv_disp_get_scr_act(disp) &&
 2269              		.loc 1 803 5 is_stmt 1 view .LVU613
 803:Middlewares/lvgl/src/core/lv_obj_pos.c ****     if(obj_scr != lv_disp_get_scr_act(disp) &&
 2270              		.loc 1 803 26 is_stmt 0 view .LVU614
 2271 0026 FFF7FEFF 		bl	lv_obj_get_disp
 2272              	.LVL202:
 803:Middlewares/lvgl/src/core/lv_obj_pos.c ****     if(obj_scr != lv_disp_get_scr_act(disp) &&
 2273              		.loc 1 803 26 view .LVU615
 2274 002a 8046     		mov	r8, r0
 2275              	.LVL203:
ARM GAS  /tmp/ccmgRVpn.s 			page 70


 804:Middlewares/lvgl/src/core/lv_obj_pos.c ****        obj_scr != lv_disp_get_scr_prev(disp) &&
 2276              		.loc 1 804 5 is_stmt 1 view .LVU616
 804:Middlewares/lvgl/src/core/lv_obj_pos.c ****        obj_scr != lv_disp_get_scr_prev(disp) &&
 2277              		.loc 1 804 19 is_stmt 0 view .LVU617
 2278 002c FFF7FEFF 		bl	lv_disp_get_scr_act
 2279              	.LVL204:
 804:Middlewares/lvgl/src/core/lv_obj_pos.c ****        obj_scr != lv_disp_get_scr_prev(disp) &&
 2280              		.loc 1 804 7 view .LVU618
 2281 0030 8742     		cmp	r7, r0
 2282 0032 10D0     		beq	.L105
 805:Middlewares/lvgl/src/core/lv_obj_pos.c ****        obj_scr != lv_disp_get_layer_top(disp) &&
 2283              		.loc 1 805 19 discriminator 1 view .LVU619
 2284 0034 4046     		mov	r0, r8
 2285 0036 FFF7FEFF 		bl	lv_disp_get_scr_prev
 2286              	.LVL205:
 804:Middlewares/lvgl/src/core/lv_obj_pos.c ****        obj_scr != lv_disp_get_scr_prev(disp) &&
 2287              		.loc 1 804 45 discriminator 1 view .LVU620
 2288 003a 8742     		cmp	r7, r0
 2289 003c 0BD0     		beq	.L105
 806:Middlewares/lvgl/src/core/lv_obj_pos.c ****        obj_scr != lv_disp_get_layer_sys(disp))
 2290              		.loc 1 806 19 view .LVU621
 2291 003e 4046     		mov	r0, r8
 2292 0040 FFF7FEFF 		bl	lv_disp_get_layer_top
 2293              	.LVL206:
 805:Middlewares/lvgl/src/core/lv_obj_pos.c ****        obj_scr != lv_disp_get_layer_top(disp) &&
 2294              		.loc 1 805 46 view .LVU622
 2295 0044 8742     		cmp	r7, r0
 2296 0046 06D0     		beq	.L105
 807:Middlewares/lvgl/src/core/lv_obj_pos.c ****     {
 2297              		.loc 1 807 19 view .LVU623
 2298 0048 4046     		mov	r0, r8
 2299 004a FFF7FEFF 		bl	lv_disp_get_layer_sys
 2300              	.LVL207:
 806:Middlewares/lvgl/src/core/lv_obj_pos.c ****        obj_scr != lv_disp_get_layer_sys(disp))
 2301              		.loc 1 806 47 view .LVU624
 2302 004e 8742     		cmp	r7, r0
 2303 0050 01D0     		beq	.L105
 809:Middlewares/lvgl/src/core/lv_obj_pos.c ****     }
 2304              		.loc 1 809 16 view .LVU625
 2305 0052 3746     		mov	r7, r6
 2306              	.LVL208:
 809:Middlewares/lvgl/src/core/lv_obj_pos.c ****     }
 2307              		.loc 1 809 16 view .LVU626
 2308 0054 DEE7     		b	.L104
 2309              	.LVL209:
 2310              	.L105:
 813:Middlewares/lvgl/src/core/lv_obj_pos.c ****     lv_coord_t ext_size = _lv_obj_get_ext_draw_size(obj);
 2311              		.loc 1 813 5 is_stmt 1 view .LVU627
 814:Middlewares/lvgl/src/core/lv_obj_pos.c ****     lv_area_copy(&obj_coords, &obj->coords);
 2312              		.loc 1 814 5 view .LVU628
 814:Middlewares/lvgl/src/core/lv_obj_pos.c ****     lv_area_copy(&obj_coords, &obj->coords);
 2313              		.loc 1 814 27 is_stmt 0 view .LVU629
 2314 0056 2046     		mov	r0, r4
 2315 0058 FFF7FEFF 		bl	_lv_obj_get_ext_draw_size
 2316              	.LVL210:
 815:Middlewares/lvgl/src/core/lv_obj_pos.c ****     obj_coords.x1 -= ext_size;
 2317              		.loc 1 815 5 is_stmt 1 view .LVU630
ARM GAS  /tmp/ccmgRVpn.s 			page 71


 2318              	.LBB179:
 2319              	.LBI179:
 120:Middlewares/lvgl/src/core/../misc/../font/../misc/lv_area.h **** {
 2320              		.loc 3 120 20 view .LVU631
 2321              	.LBB180:
 122:Middlewares/lvgl/src/core/../misc/../font/../misc/lv_area.h ****     dest->y1 = src->y1;
 2322              		.loc 3 122 5 view .LVU632
 122:Middlewares/lvgl/src/core/../misc/../font/../misc/lv_area.h ****     dest->y1 = src->y1;
 2323              		.loc 3 122 19 is_stmt 0 view .LVU633
 2324 005c B4F91410 		ldrsh	r1, [r4, #20]
 122:Middlewares/lvgl/src/core/../misc/../font/../misc/lv_area.h ****     dest->y1 = src->y1;
 2325              		.loc 3 122 14 view .LVU634
 2326 0060 ADF80010 		strh	r1, [sp]	@ movhi
 123:Middlewares/lvgl/src/core/../misc/../font/../misc/lv_area.h ****     dest->x2 = src->x2;
 2327              		.loc 3 123 5 is_stmt 1 view .LVU635
 123:Middlewares/lvgl/src/core/../misc/../font/../misc/lv_area.h ****     dest->x2 = src->x2;
 2328              		.loc 3 123 19 is_stmt 0 view .LVU636
 2329 0064 B4F91620 		ldrsh	r2, [r4, #22]
 123:Middlewares/lvgl/src/core/../misc/../font/../misc/lv_area.h ****     dest->x2 = src->x2;
 2330              		.loc 3 123 14 view .LVU637
 2331 0068 ADF80220 		strh	r2, [sp, #2]	@ movhi
 124:Middlewares/lvgl/src/core/../misc/../font/../misc/lv_area.h ****     dest->y2 = src->y2;
 2332              		.loc 3 124 5 is_stmt 1 view .LVU638
 124:Middlewares/lvgl/src/core/../misc/../font/../misc/lv_area.h ****     dest->y2 = src->y2;
 2333              		.loc 3 124 19 is_stmt 0 view .LVU639
 2334 006c B4F91830 		ldrsh	r3, [r4, #24]
 124:Middlewares/lvgl/src/core/../misc/../font/../misc/lv_area.h ****     dest->y2 = src->y2;
 2335              		.loc 3 124 14 view .LVU640
 2336 0070 ADF80430 		strh	r3, [sp, #4]	@ movhi
 125:Middlewares/lvgl/src/core/../misc/../font/../misc/lv_area.h **** }
 2337              		.loc 3 125 5 is_stmt 1 view .LVU641
 125:Middlewares/lvgl/src/core/../misc/../font/../misc/lv_area.h **** }
 2338              		.loc 3 125 19 is_stmt 0 view .LVU642
 2339 0074 B4F91A70 		ldrsh	r7, [r4, #26]
 2340              	.LVL211:
 125:Middlewares/lvgl/src/core/../misc/../font/../misc/lv_area.h **** }
 2341              		.loc 3 125 14 view .LVU643
 2342 0078 ADF80670 		strh	r7, [sp, #6]	@ movhi
 2343              	.LVL212:
 125:Middlewares/lvgl/src/core/../misc/../font/../misc/lv_area.h **** }
 2344              		.loc 3 125 14 view .LVU644
 2345              	.LBE180:
 2346              	.LBE179:
 816:Middlewares/lvgl/src/core/lv_obj_pos.c ****     obj_coords.y1 -= ext_size;
 2347              		.loc 1 816 5 is_stmt 1 view .LVU645
 816:Middlewares/lvgl/src/core/lv_obj_pos.c ****     obj_coords.y1 -= ext_size;
 2348              		.loc 1 816 19 is_stmt 0 view .LVU646
 2349 007c 80B2     		uxth	r0, r0
 816:Middlewares/lvgl/src/core/lv_obj_pos.c ****     obj_coords.y1 -= ext_size;
 2350              		.loc 1 816 19 view .LVU647
 2351 007e 091A     		subs	r1, r1, r0
 2352 0080 ADF80010 		strh	r1, [sp]	@ movhi
 817:Middlewares/lvgl/src/core/lv_obj_pos.c ****     obj_coords.x2 += ext_size;
 2353              		.loc 1 817 5 is_stmt 1 view .LVU648
 817:Middlewares/lvgl/src/core/lv_obj_pos.c ****     obj_coords.x2 += ext_size;
 2354              		.loc 1 817 19 is_stmt 0 view .LVU649
 2355 0084 121A     		subs	r2, r2, r0
ARM GAS  /tmp/ccmgRVpn.s 			page 72


 2356 0086 ADF80220 		strh	r2, [sp, #2]	@ movhi
 818:Middlewares/lvgl/src/core/lv_obj_pos.c ****     obj_coords.y2 += ext_size;
 2357              		.loc 1 818 5 is_stmt 1 view .LVU650
 818:Middlewares/lvgl/src/core/lv_obj_pos.c ****     obj_coords.y2 += ext_size;
 2358              		.loc 1 818 19 is_stmt 0 view .LVU651
 2359 008a 0344     		add	r3, r3, r0
 2360 008c ADF80430 		strh	r3, [sp, #4]	@ movhi
 819:Middlewares/lvgl/src/core/lv_obj_pos.c **** 
 2361              		.loc 1 819 5 is_stmt 1 view .LVU652
 819:Middlewares/lvgl/src/core/lv_obj_pos.c **** 
 2362              		.loc 1 819 19 is_stmt 0 view .LVU653
 2363 0090 3844     		add	r0, r0, r7
 2364              	.LVL213:
 819:Middlewares/lvgl/src/core/lv_obj_pos.c **** 
 2365              		.loc 1 819 19 view .LVU654
 2366 0092 ADF80600 		strh	r0, [sp, #6]	@ movhi
 821:Middlewares/lvgl/src/core/lv_obj_pos.c **** 
 2367              		.loc 1 821 5 is_stmt 1 view .LVU655
 823:Middlewares/lvgl/src/core/lv_obj_pos.c ****     if(is_common == false) return false;  /*The area is not on the object*/
 2368              		.loc 1 823 5 view .LVU656
 823:Middlewares/lvgl/src/core/lv_obj_pos.c ****     if(is_common == false) return false;  /*The area is not on the object*/
 2369              		.loc 1 823 17 is_stmt 0 view .LVU657
 2370 0096 6A46     		mov	r2, sp
 2371 0098 2946     		mov	r1, r5
 2372 009a 2846     		mov	r0, r5
 2373 009c FFF7FEFF 		bl	_lv_area_intersect
 2374              	.LVL214:
 824:Middlewares/lvgl/src/core/lv_obj_pos.c **** 
 2375              		.loc 1 824 5 is_stmt 1 view .LVU658
 824:Middlewares/lvgl/src/core/lv_obj_pos.c **** 
 2376              		.loc 1 824 7 is_stmt 0 view .LVU659
 2377 00a0 0746     		mov	r7, r0
 2378 00a2 0028     		cmp	r0, #0
 2379 00a4 B6D0     		beq	.L104
 827:Middlewares/lvgl/src/core/lv_obj_pos.c ****     while(par != NULL) {
 2380              		.loc 1 827 5 is_stmt 1 view .LVU660
 827:Middlewares/lvgl/src/core/lv_obj_pos.c ****     while(par != NULL) {
 2381              		.loc 1 827 22 is_stmt 0 view .LVU661
 2382 00a6 2046     		mov	r0, r4
 2383              	.LVL215:
 827:Middlewares/lvgl/src/core/lv_obj_pos.c ****     while(par != NULL) {
 2384              		.loc 1 827 22 view .LVU662
 2385 00a8 FFF7FEFF 		bl	lv_obj_get_parent
 2386              	.LVL216:
 2387 00ac 0446     		mov	r4, r0
 2388              	.LVL217:
 828:Middlewares/lvgl/src/core/lv_obj_pos.c ****         is_common = _lv_area_intersect(area, area, &par->coords);
 2389              		.loc 1 828 5 is_stmt 1 view .LVU663
 2390              	.L106:
 828:Middlewares/lvgl/src/core/lv_obj_pos.c ****         is_common = _lv_area_intersect(area, area, &par->coords);
 2391              		.loc 1 828 10 view .LVU664
 2392 00ae 002C     		cmp	r4, #0
 2393 00b0 B0D0     		beq	.L104
 829:Middlewares/lvgl/src/core/lv_obj_pos.c ****         if(is_common == false) return false;       /*If no common parts with parent break;*/
 2394              		.loc 1 829 9 view .LVU665
 829:Middlewares/lvgl/src/core/lv_obj_pos.c ****         if(is_common == false) return false;       /*If no common parts with parent break;*/
 2395              		.loc 1 829 21 is_stmt 0 view .LVU666
ARM GAS  /tmp/ccmgRVpn.s 			page 73


 2396 00b2 04F11402 		add	r2, r4, #20
 2397 00b6 2946     		mov	r1, r5
 2398 00b8 2846     		mov	r0, r5
 2399              	.LVL218:
 829:Middlewares/lvgl/src/core/lv_obj_pos.c ****         if(is_common == false) return false;       /*If no common parts with parent break;*/
 2400              		.loc 1 829 21 view .LVU667
 2401 00ba FFF7FEFF 		bl	_lv_area_intersect
 2402              	.LVL219:
 830:Middlewares/lvgl/src/core/lv_obj_pos.c ****         if(lv_obj_has_flag(par, LV_OBJ_FLAG_HIDDEN)) return false; /*If the parent is hidden then t
 2403              		.loc 1 830 9 is_stmt 1 view .LVU668
 830:Middlewares/lvgl/src/core/lv_obj_pos.c ****         if(lv_obj_has_flag(par, LV_OBJ_FLAG_HIDDEN)) return false; /*If the parent is hidden then t
 2404              		.loc 1 830 11 is_stmt 0 view .LVU669
 2405 00be 48B1     		cbz	r0, .L110
 831:Middlewares/lvgl/src/core/lv_obj_pos.c **** 
 2406              		.loc 1 831 9 is_stmt 1 view .LVU670
 831:Middlewares/lvgl/src/core/lv_obj_pos.c **** 
 2407              		.loc 1 831 12 is_stmt 0 view .LVU671
 2408 00c0 0121     		movs	r1, #1
 2409 00c2 2046     		mov	r0, r4
 2410              	.LVL220:
 831:Middlewares/lvgl/src/core/lv_obj_pos.c **** 
 2411              		.loc 1 831 12 view .LVU672
 2412 00c4 FFF7FEFF 		bl	lv_obj_has_flag
 2413              	.LVL221:
 831:Middlewares/lvgl/src/core/lv_obj_pos.c **** 
 2414              		.loc 1 831 11 view .LVU673
 2415 00c8 30B9     		cbnz	r0, .L111
 833:Middlewares/lvgl/src/core/lv_obj_pos.c ****     }
 2416              		.loc 1 833 9 is_stmt 1 view .LVU674
 833:Middlewares/lvgl/src/core/lv_obj_pos.c ****     }
 2417              		.loc 1 833 15 is_stmt 0 view .LVU675
 2418 00ca 2046     		mov	r0, r4
 2419 00cc FFF7FEFF 		bl	lv_obj_get_parent
 2420              	.LVL222:
 2421 00d0 0446     		mov	r4, r0
 2422              	.LVL223:
 833:Middlewares/lvgl/src/core/lv_obj_pos.c ****     }
 2423              		.loc 1 833 15 view .LVU676
 2424 00d2 ECE7     		b	.L106
 2425              	.LVL224:
 2426              	.L110:
 830:Middlewares/lvgl/src/core/lv_obj_pos.c ****         if(lv_obj_has_flag(par, LV_OBJ_FLAG_HIDDEN)) return false; /*If the parent is hidden then t
 2427              		.loc 1 830 39 view .LVU677
 2428 00d4 0746     		mov	r7, r0
 2429 00d6 9DE7     		b	.L104
 2430              	.LVL225:
 2431              	.L111:
 831:Middlewares/lvgl/src/core/lv_obj_pos.c **** 
 2432              		.loc 1 831 61 view .LVU678
 2433 00d8 3746     		mov	r7, r6
 2434 00da 9BE7     		b	.L104
 2435              		.cfi_endproc
 2436              	.LFE188:
 2438              		.section	.text.lv_obj_invalidate_area,"ax",%progbits
 2439              		.align	1
 2440              		.global	lv_obj_invalidate_area
 2441              		.syntax unified
ARM GAS  /tmp/ccmgRVpn.s 			page 74


 2442              		.thumb
 2443              		.thumb_func
 2445              	lv_obj_invalidate_area:
 2446              	.LVL226:
 2447              	.LFB186:
 770:Middlewares/lvgl/src/core/lv_obj_pos.c ****     LV_ASSERT_OBJ(obj, MY_CLASS);
 2448              		.loc 1 770 1 is_stmt 1 view -0
 2449              		.cfi_startproc
 2450              		@ args = 0, pretend = 0, frame = 8
 2451              		@ frame_needed = 0, uses_anonymous_args = 0
 770:Middlewares/lvgl/src/core/lv_obj_pos.c ****     LV_ASSERT_OBJ(obj, MY_CLASS);
 2452              		.loc 1 770 1 is_stmt 0 view .LVU680
 2453 0000 10B5     		push	{r4, lr}
 2454              	.LCFI46:
 2455              		.cfi_def_cfa_offset 8
 2456              		.cfi_offset 4, -8
 2457              		.cfi_offset 14, -4
 2458 0002 82B0     		sub	sp, sp, #8
 2459              	.LCFI47:
 2460              		.cfi_def_cfa_offset 16
 2461 0004 0446     		mov	r4, r0
 771:Middlewares/lvgl/src/core/lv_obj_pos.c **** 
 2462              		.loc 1 771 5 is_stmt 1 view .LVU681
 771:Middlewares/lvgl/src/core/lv_obj_pos.c **** 
 2463              		.loc 1 771 5 view .LVU682
 771:Middlewares/lvgl/src/core/lv_obj_pos.c **** 
 2464              		.loc 1 771 5 view .LVU683
 773:Middlewares/lvgl/src/core/lv_obj_pos.c ****     lv_area_copy(&area_tmp, area);
 2465              		.loc 1 773 5 view .LVU684
 774:Middlewares/lvgl/src/core/lv_obj_pos.c ****     bool visible = lv_obj_area_is_visible(obj, &area_tmp);
 2466              		.loc 1 774 5 view .LVU685
 2467              	.LVL227:
 2468              	.LBB181:
 2469              	.LBI181:
 120:Middlewares/lvgl/src/core/../misc/../font/../misc/lv_area.h **** {
 2470              		.loc 3 120 20 view .LVU686
 2471              	.LBB182:
 122:Middlewares/lvgl/src/core/../misc/../font/../misc/lv_area.h ****     dest->y1 = src->y1;
 2472              		.loc 3 122 5 view .LVU687
 122:Middlewares/lvgl/src/core/../misc/../font/../misc/lv_area.h ****     dest->y1 = src->y1;
 2473              		.loc 3 122 19 is_stmt 0 view .LVU688
 2474 0006 B1F90030 		ldrsh	r3, [r1]
 122:Middlewares/lvgl/src/core/../misc/../font/../misc/lv_area.h ****     dest->y1 = src->y1;
 2475              		.loc 3 122 14 view .LVU689
 2476 000a ADF80030 		strh	r3, [sp]	@ movhi
 123:Middlewares/lvgl/src/core/../misc/../font/../misc/lv_area.h ****     dest->x2 = src->x2;
 2477              		.loc 3 123 5 is_stmt 1 view .LVU690
 123:Middlewares/lvgl/src/core/../misc/../font/../misc/lv_area.h ****     dest->x2 = src->x2;
 2478              		.loc 3 123 19 is_stmt 0 view .LVU691
 2479 000e B1F90230 		ldrsh	r3, [r1, #2]
 123:Middlewares/lvgl/src/core/../misc/../font/../misc/lv_area.h ****     dest->x2 = src->x2;
 2480              		.loc 3 123 14 view .LVU692
 2481 0012 ADF80230 		strh	r3, [sp, #2]	@ movhi
 124:Middlewares/lvgl/src/core/../misc/../font/../misc/lv_area.h ****     dest->y2 = src->y2;
 2482              		.loc 3 124 5 is_stmt 1 view .LVU693
 124:Middlewares/lvgl/src/core/../misc/../font/../misc/lv_area.h ****     dest->y2 = src->y2;
 2483              		.loc 3 124 19 is_stmt 0 view .LVU694
ARM GAS  /tmp/ccmgRVpn.s 			page 75


 2484 0016 B1F90430 		ldrsh	r3, [r1, #4]
 124:Middlewares/lvgl/src/core/../misc/../font/../misc/lv_area.h ****     dest->y2 = src->y2;
 2485              		.loc 3 124 14 view .LVU695
 2486 001a ADF80430 		strh	r3, [sp, #4]	@ movhi
 125:Middlewares/lvgl/src/core/../misc/../font/../misc/lv_area.h **** }
 2487              		.loc 3 125 5 is_stmt 1 view .LVU696
 125:Middlewares/lvgl/src/core/../misc/../font/../misc/lv_area.h **** }
 2488              		.loc 3 125 19 is_stmt 0 view .LVU697
 2489 001e B1F90630 		ldrsh	r3, [r1, #6]
 125:Middlewares/lvgl/src/core/../misc/../font/../misc/lv_area.h **** }
 2490              		.loc 3 125 14 view .LVU698
 2491 0022 ADF80630 		strh	r3, [sp, #6]	@ movhi
 2492              	.LVL228:
 125:Middlewares/lvgl/src/core/../misc/../font/../misc/lv_area.h **** }
 2493              		.loc 3 125 14 view .LVU699
 2494              	.LBE182:
 2495              	.LBE181:
 775:Middlewares/lvgl/src/core/lv_obj_pos.c **** 
 2496              		.loc 1 775 5 is_stmt 1 view .LVU700
 775:Middlewares/lvgl/src/core/lv_obj_pos.c **** 
 2497              		.loc 1 775 20 is_stmt 0 view .LVU701
 2498 0026 6946     		mov	r1, sp
 2499              	.LVL229:
 775:Middlewares/lvgl/src/core/lv_obj_pos.c **** 
 2500              		.loc 1 775 20 view .LVU702
 2501 0028 FFF7FEFF 		bl	lv_obj_area_is_visible
 2502              	.LVL230:
 777:Middlewares/lvgl/src/core/lv_obj_pos.c **** }
 2503              		.loc 1 777 5 is_stmt 1 view .LVU703
 777:Middlewares/lvgl/src/core/lv_obj_pos.c **** }
 2504              		.loc 1 777 7 is_stmt 0 view .LVU704
 2505 002c 08B9     		cbnz	r0, .L117
 2506              	.LVL231:
 2507              	.L114:
 778:Middlewares/lvgl/src/core/lv_obj_pos.c **** 
 2508              		.loc 1 778 1 view .LVU705
 2509 002e 02B0     		add	sp, sp, #8
 2510              	.LCFI48:
 2511              		.cfi_remember_state
 2512              		.cfi_def_cfa_offset 8
 2513              		@ sp needed
 2514 0030 10BD     		pop	{r4, pc}
 2515              	.LVL232:
 2516              	.L117:
 2517              	.LCFI49:
 2518              		.cfi_restore_state
 777:Middlewares/lvgl/src/core/lv_obj_pos.c **** }
 2519              		.loc 1 777 17 is_stmt 1 discriminator 1 view .LVU706
 2520 0032 2046     		mov	r0, r4
 2521              	.LVL233:
 777:Middlewares/lvgl/src/core/lv_obj_pos.c **** }
 2522              		.loc 1 777 17 is_stmt 0 discriminator 1 view .LVU707
 2523 0034 FFF7FEFF 		bl	lv_obj_get_disp
 2524              	.LVL234:
 2525 0038 6946     		mov	r1, sp
 2526 003a FFF7FEFF 		bl	_lv_inv_area
 2527              	.LVL235:
ARM GAS  /tmp/ccmgRVpn.s 			page 76


 778:Middlewares/lvgl/src/core/lv_obj_pos.c **** 
 2528              		.loc 1 778 1 discriminator 1 view .LVU708
 2529 003e F6E7     		b	.L114
 2530              		.cfi_endproc
 2531              	.LFE186:
 2533              		.section	.text.lv_obj_invalidate,"ax",%progbits
 2534              		.align	1
 2535              		.global	lv_obj_invalidate
 2536              		.syntax unified
 2537              		.thumb
 2538              		.thumb_func
 2540              	lv_obj_invalidate:
 2541              	.LVL236:
 2542              	.LFB187:
 781:Middlewares/lvgl/src/core/lv_obj_pos.c ****     LV_ASSERT_OBJ(obj, MY_CLASS);
 2543              		.loc 1 781 1 is_stmt 1 view -0
 2544              		.cfi_startproc
