ARM GAS  /tmp/ccmgRVpn.s 			page 1


   1              		.cpu cortex-m4
   2              		.arch armv7e-m
   3              		.fpu fpv4-sp-d16
   4              		.eabi_attribute 27, 1
   5              		.eabi_attribute 28, 1
   6              		.eabi_attribute 20, 1
   7              		.eabi_attribute 21, 1
   8              		.eabi_attribute 23, 3
   9              		.eabi_attribute 24, 1
  10              		.eabi_attribute 25, 1
  11              		.eabi_attribute 26, 1
  12              		.eabi_attribute 30, 1
  13              		.eabi_attribute 34, 1
  14              		.eabi_attribute 18, 4
  15              		.file	"lv_obj_pos.c"
  16              		.text
  17              	.Ltext0:
  18              		.cfi_sections	.debug_frame
  19              		.section	.text.lv_obj_set_width,"ax",%progbits
  20              		.align	1
  21              		.global	lv_obj_set_width
  22              		.syntax unified
  23              		.thumb
  24              		.thumb_func
  26              	lv_obj_set_width:
  27              	.LVL0:
  28              	.LFB158:
  29              		.file 1 "Middlewares/lvgl/src/core/lv_obj_pos.c"
   1:Middlewares/lvgl/src/core/lv_obj_pos.c **** /**
   2:Middlewares/lvgl/src/core/lv_obj_pos.c ****  * @file lv_obj_pos.c
   3:Middlewares/lvgl/src/core/lv_obj_pos.c ****  *
   4:Middlewares/lvgl/src/core/lv_obj_pos.c ****  */
   5:Middlewares/lvgl/src/core/lv_obj_pos.c **** 
   6:Middlewares/lvgl/src/core/lv_obj_pos.c **** /*********************
   7:Middlewares/lvgl/src/core/lv_obj_pos.c ****  *      INCLUDES
   8:Middlewares/lvgl/src/core/lv_obj_pos.c ****  *********************/
   9:Middlewares/lvgl/src/core/lv_obj_pos.c **** #include "lv_obj.h"
  10:Middlewares/lvgl/src/core/lv_obj_pos.c **** #include "lv_disp.h"
  11:Middlewares/lvgl/src/core/lv_obj_pos.c **** #include "lv_refr.h"
  12:Middlewares/lvgl/src/core/lv_obj_pos.c **** #include "../misc/lv_gc.h"
  13:Middlewares/lvgl/src/core/lv_obj_pos.c **** 
  14:Middlewares/lvgl/src/core/lv_obj_pos.c **** /*********************
  15:Middlewares/lvgl/src/core/lv_obj_pos.c ****  *      DEFINES
  16:Middlewares/lvgl/src/core/lv_obj_pos.c ****  *********************/
  17:Middlewares/lvgl/src/core/lv_obj_pos.c **** #define MY_CLASS &lv_obj_class
  18:Middlewares/lvgl/src/core/lv_obj_pos.c **** 
  19:Middlewares/lvgl/src/core/lv_obj_pos.c **** /**********************
  20:Middlewares/lvgl/src/core/lv_obj_pos.c ****  *      TYPEDEFS
  21:Middlewares/lvgl/src/core/lv_obj_pos.c ****  **********************/
  22:Middlewares/lvgl/src/core/lv_obj_pos.c **** 
  23:Middlewares/lvgl/src/core/lv_obj_pos.c **** /**********************
  24:Middlewares/lvgl/src/core/lv_obj_pos.c ****  *  STATIC PROTOTYPES
  25:Middlewares/lvgl/src/core/lv_obj_pos.c ****  **********************/
  26:Middlewares/lvgl/src/core/lv_obj_pos.c **** static void calc_auto_size(lv_obj_t * obj, lv_coord_t * w_out, lv_coord_t * h_out);
  27:Middlewares/lvgl/src/core/lv_obj_pos.c **** static void layout_update_core(lv_obj_t * obj);
  28:Middlewares/lvgl/src/core/lv_obj_pos.c **** 
  29:Middlewares/lvgl/src/core/lv_obj_pos.c **** /**********************
ARM GAS  /tmp/ccmgRVpn.s 			page 2


  30:Middlewares/lvgl/src/core/lv_obj_pos.c ****  *  STATIC VARIABLES
  31:Middlewares/lvgl/src/core/lv_obj_pos.c ****  **********************/
  32:Middlewares/lvgl/src/core/lv_obj_pos.c **** static uint32_t layout_cnt;
  33:Middlewares/lvgl/src/core/lv_obj_pos.c **** 
  34:Middlewares/lvgl/src/core/lv_obj_pos.c **** /**********************
  35:Middlewares/lvgl/src/core/lv_obj_pos.c ****  *      MACROS
  36:Middlewares/lvgl/src/core/lv_obj_pos.c ****  **********************/
  37:Middlewares/lvgl/src/core/lv_obj_pos.c **** 
  38:Middlewares/lvgl/src/core/lv_obj_pos.c **** /**********************
  39:Middlewares/lvgl/src/core/lv_obj_pos.c ****  *   GLOBAL FUNCTIONS
  40:Middlewares/lvgl/src/core/lv_obj_pos.c ****  **********************/
  41:Middlewares/lvgl/src/core/lv_obj_pos.c **** 
  42:Middlewares/lvgl/src/core/lv_obj_pos.c **** void lv_obj_set_pos(lv_obj_t * obj, lv_coord_t x, lv_coord_t y)
  43:Middlewares/lvgl/src/core/lv_obj_pos.c **** {
  44:Middlewares/lvgl/src/core/lv_obj_pos.c ****     LV_ASSERT_OBJ(obj, MY_CLASS);
  45:Middlewares/lvgl/src/core/lv_obj_pos.c **** 
  46:Middlewares/lvgl/src/core/lv_obj_pos.c ****     lv_obj_set_x(obj, x);
  47:Middlewares/lvgl/src/core/lv_obj_pos.c ****     lv_obj_set_y(obj, y);
  48:Middlewares/lvgl/src/core/lv_obj_pos.c **** }
  49:Middlewares/lvgl/src/core/lv_obj_pos.c **** 
  50:Middlewares/lvgl/src/core/lv_obj_pos.c **** void lv_obj_set_x(lv_obj_t * obj, lv_coord_t x)
  51:Middlewares/lvgl/src/core/lv_obj_pos.c **** {
  52:Middlewares/lvgl/src/core/lv_obj_pos.c ****     LV_ASSERT_OBJ(obj, MY_CLASS);
  53:Middlewares/lvgl/src/core/lv_obj_pos.c ****     if(lv_obj_is_layout_positioned(obj)) {
  54:Middlewares/lvgl/src/core/lv_obj_pos.c ****         return;
  55:Middlewares/lvgl/src/core/lv_obj_pos.c ****     }
  56:Middlewares/lvgl/src/core/lv_obj_pos.c **** 
  57:Middlewares/lvgl/src/core/lv_obj_pos.c ****     lv_res_t res_x;
  58:Middlewares/lvgl/src/core/lv_obj_pos.c ****     lv_style_value_t v_x;
  59:Middlewares/lvgl/src/core/lv_obj_pos.c **** 
  60:Middlewares/lvgl/src/core/lv_obj_pos.c ****     res_x = lv_obj_get_local_style_prop(obj, LV_STYLE_X, &v_x, 0);
  61:Middlewares/lvgl/src/core/lv_obj_pos.c **** 
  62:Middlewares/lvgl/src/core/lv_obj_pos.c ****     if((res_x == LV_RES_OK && v_x.num != x) || res_x == LV_RES_INV) {
  63:Middlewares/lvgl/src/core/lv_obj_pos.c ****         lv_obj_set_style_x(obj, x, 0);
  64:Middlewares/lvgl/src/core/lv_obj_pos.c ****     }
  65:Middlewares/lvgl/src/core/lv_obj_pos.c **** }
  66:Middlewares/lvgl/src/core/lv_obj_pos.c **** 
  67:Middlewares/lvgl/src/core/lv_obj_pos.c **** void lv_obj_set_y(lv_obj_t * obj, lv_coord_t y)
  68:Middlewares/lvgl/src/core/lv_obj_pos.c **** {
  69:Middlewares/lvgl/src/core/lv_obj_pos.c ****     if(lv_obj_is_layout_positioned(obj)) {
  70:Middlewares/lvgl/src/core/lv_obj_pos.c ****         return;
  71:Middlewares/lvgl/src/core/lv_obj_pos.c ****     }
  72:Middlewares/lvgl/src/core/lv_obj_pos.c ****     LV_ASSERT_OBJ(obj, MY_CLASS);
  73:Middlewares/lvgl/src/core/lv_obj_pos.c **** 
  74:Middlewares/lvgl/src/core/lv_obj_pos.c ****     lv_res_t res_y;
  75:Middlewares/lvgl/src/core/lv_obj_pos.c ****     lv_style_value_t v_y;
  76:Middlewares/lvgl/src/core/lv_obj_pos.c **** 
  77:Middlewares/lvgl/src/core/lv_obj_pos.c ****     res_y = lv_obj_get_local_style_prop(obj, LV_STYLE_Y, &v_y, 0);
  78:Middlewares/lvgl/src/core/lv_obj_pos.c **** 
  79:Middlewares/lvgl/src/core/lv_obj_pos.c ****     if((res_y == LV_RES_OK && v_y.num != y) || res_y == LV_RES_INV) {
  80:Middlewares/lvgl/src/core/lv_obj_pos.c ****         lv_obj_set_style_y(obj, y, 0);
  81:Middlewares/lvgl/src/core/lv_obj_pos.c ****     }
  82:Middlewares/lvgl/src/core/lv_obj_pos.c **** }
  83:Middlewares/lvgl/src/core/lv_obj_pos.c **** 
  84:Middlewares/lvgl/src/core/lv_obj_pos.c **** bool lv_obj_refr_size(lv_obj_t * obj)
  85:Middlewares/lvgl/src/core/lv_obj_pos.c **** {
  86:Middlewares/lvgl/src/core/lv_obj_pos.c ****     LV_ASSERT_OBJ(obj, MY_CLASS);
ARM GAS  /tmp/ccmgRVpn.s 			page 3


  87:Middlewares/lvgl/src/core/lv_obj_pos.c **** 
  88:Middlewares/lvgl/src/core/lv_obj_pos.c ****     /*If the width or height is set by a layout do not modify them*/
  89:Middlewares/lvgl/src/core/lv_obj_pos.c ****     if(obj->w_layout && obj->h_layout) return false;
  90:Middlewares/lvgl/src/core/lv_obj_pos.c **** 
  91:Middlewares/lvgl/src/core/lv_obj_pos.c ****     lv_obj_t * parent = lv_obj_get_parent(obj);
  92:Middlewares/lvgl/src/core/lv_obj_pos.c ****     if(parent == NULL) return false;
  93:Middlewares/lvgl/src/core/lv_obj_pos.c **** 
  94:Middlewares/lvgl/src/core/lv_obj_pos.c ****     lv_coord_t w;
  95:Middlewares/lvgl/src/core/lv_obj_pos.c ****     lv_coord_t sl_ori = lv_obj_get_scroll_left(obj);
  96:Middlewares/lvgl/src/core/lv_obj_pos.c ****     bool w_content = false;
  97:Middlewares/lvgl/src/core/lv_obj_pos.c ****     if(obj->w_layout) {
  98:Middlewares/lvgl/src/core/lv_obj_pos.c ****         w = lv_obj_get_width(obj);
  99:Middlewares/lvgl/src/core/lv_obj_pos.c ****     } else {
 100:Middlewares/lvgl/src/core/lv_obj_pos.c ****         w = lv_obj_get_style_width(obj, LV_PART_MAIN);
 101:Middlewares/lvgl/src/core/lv_obj_pos.c ****         w_content = w == LV_SIZE_CONTENT ? true : false;
 102:Middlewares/lvgl/src/core/lv_obj_pos.c **** 
 103:Middlewares/lvgl/src/core/lv_obj_pos.c ****         /*Be sure the object is not scrolled when it has auto size*/
 104:Middlewares/lvgl/src/core/lv_obj_pos.c ****         if(w_content) {
 105:Middlewares/lvgl/src/core/lv_obj_pos.c ****             lv_obj_scroll_to_x(obj, 0, LV_ANIM_OFF);
 106:Middlewares/lvgl/src/core/lv_obj_pos.c ****             calc_auto_size(obj, &w, NULL);
 107:Middlewares/lvgl/src/core/lv_obj_pos.c ****         }
 108:Middlewares/lvgl/src/core/lv_obj_pos.c **** 
 109:Middlewares/lvgl/src/core/lv_obj_pos.c ****         /*Calculate the sizes in percentage*/
 110:Middlewares/lvgl/src/core/lv_obj_pos.c ****         bool pct_w = LV_COORD_IS_PCT(w) ? true : false;
 111:Middlewares/lvgl/src/core/lv_obj_pos.c **** 
 112:Middlewares/lvgl/src/core/lv_obj_pos.c ****         lv_coord_t parent_w = lv_obj_get_content_width(parent);
 113:Middlewares/lvgl/src/core/lv_obj_pos.c ****         if(pct_w) w = (LV_COORD_GET_PCT(w) * parent_w) / 100;
 114:Middlewares/lvgl/src/core/lv_obj_pos.c **** 
 115:Middlewares/lvgl/src/core/lv_obj_pos.c ****         lv_coord_t minw = lv_obj_get_style_min_width(obj, LV_PART_MAIN);
 116:Middlewares/lvgl/src/core/lv_obj_pos.c ****         lv_coord_t maxw = lv_obj_get_style_max_width(obj, LV_PART_MAIN);
 117:Middlewares/lvgl/src/core/lv_obj_pos.c ****         w = lv_clamp_width(w, minw, maxw, parent_w);
 118:Middlewares/lvgl/src/core/lv_obj_pos.c ****     }
 119:Middlewares/lvgl/src/core/lv_obj_pos.c **** 
 120:Middlewares/lvgl/src/core/lv_obj_pos.c ****     lv_coord_t h;
 121:Middlewares/lvgl/src/core/lv_obj_pos.c ****     lv_coord_t st_ori = lv_obj_get_scroll_top(obj);
 122:Middlewares/lvgl/src/core/lv_obj_pos.c ****     bool h_content = false;
 123:Middlewares/lvgl/src/core/lv_obj_pos.c ****     if(obj->h_layout) {
 124:Middlewares/lvgl/src/core/lv_obj_pos.c ****         h = lv_obj_get_height(obj);
 125:Middlewares/lvgl/src/core/lv_obj_pos.c ****     } else {
 126:Middlewares/lvgl/src/core/lv_obj_pos.c ****         h = lv_obj_get_style_height(obj, LV_PART_MAIN);
 127:Middlewares/lvgl/src/core/lv_obj_pos.c ****         h_content = h == LV_SIZE_CONTENT ? true : false;
 128:Middlewares/lvgl/src/core/lv_obj_pos.c **** 
 129:Middlewares/lvgl/src/core/lv_obj_pos.c ****         /*Be sure the object is not scrolled when it has auto size*/
 130:Middlewares/lvgl/src/core/lv_obj_pos.c ****         if(h_content) {
 131:Middlewares/lvgl/src/core/lv_obj_pos.c ****             lv_obj_scroll_to_y(obj, 0, LV_ANIM_OFF);
 132:Middlewares/lvgl/src/core/lv_obj_pos.c ****             calc_auto_size(obj, NULL, &h);
 133:Middlewares/lvgl/src/core/lv_obj_pos.c ****         }
 134:Middlewares/lvgl/src/core/lv_obj_pos.c **** 
 135:Middlewares/lvgl/src/core/lv_obj_pos.c ****         /*Calculate the sizes in percentage*/
 136:Middlewares/lvgl/src/core/lv_obj_pos.c ****         bool pct_h = LV_COORD_IS_PCT(h) ? true : false;
 137:Middlewares/lvgl/src/core/lv_obj_pos.c ****         lv_coord_t parent_h = lv_obj_get_content_height(parent);
 138:Middlewares/lvgl/src/core/lv_obj_pos.c ****         if(pct_h) h = (LV_COORD_GET_PCT(h) * parent_h) / 100;
 139:Middlewares/lvgl/src/core/lv_obj_pos.c **** 
 140:Middlewares/lvgl/src/core/lv_obj_pos.c ****         lv_coord_t minh = lv_obj_get_style_min_height(obj, LV_PART_MAIN);
 141:Middlewares/lvgl/src/core/lv_obj_pos.c ****         lv_coord_t maxh = lv_obj_get_style_max_height(obj, LV_PART_MAIN);
 142:Middlewares/lvgl/src/core/lv_obj_pos.c ****         h = lv_clamp_height(h, minh, maxh, parent_h);
 143:Middlewares/lvgl/src/core/lv_obj_pos.c ****     }
ARM GAS  /tmp/ccmgRVpn.s 			page 4


 144:Middlewares/lvgl/src/core/lv_obj_pos.c **** 
 145:Middlewares/lvgl/src/core/lv_obj_pos.c ****     /*calc_auto_size set the scroll x/y to 0 so revert the original value*/
 146:Middlewares/lvgl/src/core/lv_obj_pos.c ****     if(w_content || h_content) {
 147:Middlewares/lvgl/src/core/lv_obj_pos.c ****         lv_obj_scroll_to(obj, sl_ori, st_ori, LV_ANIM_OFF);
 148:Middlewares/lvgl/src/core/lv_obj_pos.c ****     }
 149:Middlewares/lvgl/src/core/lv_obj_pos.c **** 
 150:Middlewares/lvgl/src/core/lv_obj_pos.c ****     /*Do nothing if the size is not changed*/
 151:Middlewares/lvgl/src/core/lv_obj_pos.c ****     /*It is very important else recursive resizing can occur without size change*/
 152:Middlewares/lvgl/src/core/lv_obj_pos.c ****     if(lv_obj_get_width(obj) == w && lv_obj_get_height(obj) == h) return false;
 153:Middlewares/lvgl/src/core/lv_obj_pos.c **** 
 154:Middlewares/lvgl/src/core/lv_obj_pos.c ****     /*Invalidate the original area*/
 155:Middlewares/lvgl/src/core/lv_obj_pos.c ****     lv_obj_invalidate(obj);
 156:Middlewares/lvgl/src/core/lv_obj_pos.c **** 
 157:Middlewares/lvgl/src/core/lv_obj_pos.c ****     /*Save the original coordinates*/
 158:Middlewares/lvgl/src/core/lv_obj_pos.c ****     lv_area_t ori;
 159:Middlewares/lvgl/src/core/lv_obj_pos.c ****     lv_obj_get_coords(obj, &ori);
 160:Middlewares/lvgl/src/core/lv_obj_pos.c **** 
 161:Middlewares/lvgl/src/core/lv_obj_pos.c ****     /*Check if the object inside the parent or not*/
 162:Middlewares/lvgl/src/core/lv_obj_pos.c ****     lv_area_t parent_fit_area;
 163:Middlewares/lvgl/src/core/lv_obj_pos.c ****     lv_obj_get_content_coords(parent, &parent_fit_area);
 164:Middlewares/lvgl/src/core/lv_obj_pos.c **** 
 165:Middlewares/lvgl/src/core/lv_obj_pos.c ****     /*If the object is already out of the parent and its position is changes
 166:Middlewares/lvgl/src/core/lv_obj_pos.c ****      *surely the scrollbars also changes so invalidate them*/
 167:Middlewares/lvgl/src/core/lv_obj_pos.c ****     bool on1 = _lv_area_is_in(&ori, &parent_fit_area, 0);
 168:Middlewares/lvgl/src/core/lv_obj_pos.c ****     if(!on1) lv_obj_scrollbar_invalidate(parent);
 169:Middlewares/lvgl/src/core/lv_obj_pos.c **** 
 170:Middlewares/lvgl/src/core/lv_obj_pos.c ****     /*Set the length and height
 171:Middlewares/lvgl/src/core/lv_obj_pos.c ****      *Be sure the content is not scrolled in an invalid position on the new size*/
 172:Middlewares/lvgl/src/core/lv_obj_pos.c ****     obj->coords.y2 = obj->coords.y1 + h - 1;
 173:Middlewares/lvgl/src/core/lv_obj_pos.c ****     if(lv_obj_get_style_base_dir(obj, LV_PART_MAIN) == LV_BASE_DIR_RTL) {
 174:Middlewares/lvgl/src/core/lv_obj_pos.c ****         obj->coords.x1 = obj->coords.x2 - w + 1;
 175:Middlewares/lvgl/src/core/lv_obj_pos.c ****     }
 176:Middlewares/lvgl/src/core/lv_obj_pos.c ****     else {
 177:Middlewares/lvgl/src/core/lv_obj_pos.c ****         obj->coords.x2 = obj->coords.x1 + w - 1;
 178:Middlewares/lvgl/src/core/lv_obj_pos.c ****     }
 179:Middlewares/lvgl/src/core/lv_obj_pos.c **** 
 180:Middlewares/lvgl/src/core/lv_obj_pos.c ****     /*Call the ancestor's event handler to the object with its new coordinates*/
 181:Middlewares/lvgl/src/core/lv_obj_pos.c ****     lv_event_send(obj, LV_EVENT_SIZE_CHANGED, &ori);
 182:Middlewares/lvgl/src/core/lv_obj_pos.c **** 
 183:Middlewares/lvgl/src/core/lv_obj_pos.c ****     /*Call the ancestor's event handler to the parent too*/
 184:Middlewares/lvgl/src/core/lv_obj_pos.c ****     lv_event_send(parent, LV_EVENT_CHILD_CHANGED, obj);
 185:Middlewares/lvgl/src/core/lv_obj_pos.c **** 
 186:Middlewares/lvgl/src/core/lv_obj_pos.c ****     /*Invalidate the new area*/
 187:Middlewares/lvgl/src/core/lv_obj_pos.c ****     lv_obj_invalidate(obj);
 188:Middlewares/lvgl/src/core/lv_obj_pos.c **** 
 189:Middlewares/lvgl/src/core/lv_obj_pos.c ****     lv_obj_readjust_scroll(obj, LV_ANIM_OFF);
 190:Middlewares/lvgl/src/core/lv_obj_pos.c **** 
 191:Middlewares/lvgl/src/core/lv_obj_pos.c ****     /*If the object was out of the parent invalidate the new scrollbar area too.
 192:Middlewares/lvgl/src/core/lv_obj_pos.c ****      *If it wasn't out of the parent but out now, also invalidate the srollbars*/
 193:Middlewares/lvgl/src/core/lv_obj_pos.c ****     bool on2 = _lv_area_is_in(&obj->coords, &parent_fit_area, 0);
 194:Middlewares/lvgl/src/core/lv_obj_pos.c ****     if(on1 || (!on1 && on2)) lv_obj_scrollbar_invalidate(parent);
 195:Middlewares/lvgl/src/core/lv_obj_pos.c **** 
 196:Middlewares/lvgl/src/core/lv_obj_pos.c **** 
 197:Middlewares/lvgl/src/core/lv_obj_pos.c **** 
 198:Middlewares/lvgl/src/core/lv_obj_pos.c **** 
 199:Middlewares/lvgl/src/core/lv_obj_pos.c **** 
 200:Middlewares/lvgl/src/core/lv_obj_pos.c ****     return true;
ARM GAS  /tmp/ccmgRVpn.s 			page 5


 201:Middlewares/lvgl/src/core/lv_obj_pos.c **** }
 202:Middlewares/lvgl/src/core/lv_obj_pos.c **** 
 203:Middlewares/lvgl/src/core/lv_obj_pos.c **** void lv_obj_set_size(lv_obj_t * obj, lv_coord_t w, lv_coord_t h)
 204:Middlewares/lvgl/src/core/lv_obj_pos.c **** {
 205:Middlewares/lvgl/src/core/lv_obj_pos.c ****     LV_ASSERT_OBJ(obj, MY_CLASS);
 206:Middlewares/lvgl/src/core/lv_obj_pos.c **** 
 207:Middlewares/lvgl/src/core/lv_obj_pos.c ****     lv_obj_set_width(obj, w);
 208:Middlewares/lvgl/src/core/lv_obj_pos.c ****     lv_obj_set_height(obj, h);
 209:Middlewares/lvgl/src/core/lv_obj_pos.c **** }
 210:Middlewares/lvgl/src/core/lv_obj_pos.c **** 
 211:Middlewares/lvgl/src/core/lv_obj_pos.c **** void lv_obj_set_width(lv_obj_t * obj, lv_coord_t w)
 212:Middlewares/lvgl/src/core/lv_obj_pos.c **** {
  30              		.loc 1 212 1 view -0
  31              		.cfi_startproc
  32              		@ args = 0, pretend = 0, frame = 8
  33              		@ frame_needed = 0, uses_anonymous_args = 0
  34              		.loc 1 212 1 is_stmt 0 view .LVU1
  35 0000 30B5     		push	{r4, r5, lr}
  36              	.LCFI0:
  37              		.cfi_def_cfa_offset 12
  38              		.cfi_offset 4, -12
  39              		.cfi_offset 5, -8
  40              		.cfi_offset 14, -4
  41 0002 83B0     		sub	sp, sp, #12
  42              	.LCFI1:
  43              		.cfi_def_cfa_offset 24
  44 0004 0546     		mov	r5, r0
  45 0006 0C46     		mov	r4, r1
 213:Middlewares/lvgl/src/core/lv_obj_pos.c ****     LV_ASSERT_OBJ(obj, MY_CLASS);
  46              		.loc 1 213 5 is_stmt 1 view .LVU2
  47              		.loc 1 213 5 view .LVU3
  48              		.loc 1 213 5 view .LVU4
 214:Middlewares/lvgl/src/core/lv_obj_pos.c ****     lv_res_t res_w;
  49              		.loc 1 214 5 view .LVU5
 215:Middlewares/lvgl/src/core/lv_obj_pos.c ****     lv_style_value_t v_w;
  50              		.loc 1 215 5 view .LVU6
 216:Middlewares/lvgl/src/core/lv_obj_pos.c **** 
 217:Middlewares/lvgl/src/core/lv_obj_pos.c ****     res_w = lv_obj_get_local_style_prop(obj, LV_STYLE_WIDTH, &v_w, 0);
  51              		.loc 1 217 5 view .LVU7
  52              		.loc 1 217 13 is_stmt 0 view .LVU8
  53 0008 0023     		movs	r3, #0
  54 000a 01AA     		add	r2, sp, #4
  55 000c 41F20101 		movw	r1, #4097
  56              	.LVL1:
  57              		.loc 1 217 13 view .LVU9
  58 0010 FFF7FEFF 		bl	lv_obj_get_local_style_prop
  59              	.LVL2:
 218:Middlewares/lvgl/src/core/lv_obj_pos.c **** 
 219:Middlewares/lvgl/src/core/lv_obj_pos.c ****     if((res_w == LV_RES_OK && v_w.num != w) || res_w == LV_RES_INV) {
  60              		.loc 1 219 5 is_stmt 1 view .LVU10
  61              		.loc 1 219 7 is_stmt 0 view .LVU11
  62 0014 0128     		cmp	r0, #1
  63 0016 07D0     		beq	.L6
  64              	.L2:
  65              		.loc 1 219 45 discriminator 3 view .LVU12
  66 0018 20B9     		cbnz	r0, .L1
  67              	.L3:
ARM GAS  /tmp/ccmgRVpn.s 			page 6


 220:Middlewares/lvgl/src/core/lv_obj_pos.c ****         lv_obj_set_style_width(obj, w, 0);
  68              		.loc 1 220 9 is_stmt 1 view .LVU13
  69 001a 0022     		movs	r2, #0
  70 001c 2146     		mov	r1, r4
  71 001e 2846     		mov	r0, r5
  72              	.LVL3:
  73              		.loc 1 220 9 is_stmt 0 view .LVU14
  74 0020 FFF7FEFF 		bl	lv_obj_set_style_width
  75              	.LVL4:
  76              	.L1:
 221:Middlewares/lvgl/src/core/lv_obj_pos.c ****     }
 222:Middlewares/lvgl/src/core/lv_obj_pos.c **** }
  77              		.loc 1 222 1 view .LVU15
  78 0024 03B0     		add	sp, sp, #12
  79              	.LCFI2:
  80              		.cfi_remember_state
  81              		.cfi_def_cfa_offset 12
  82              		@ sp needed
  83 0026 30BD     		pop	{r4, r5, pc}
  84              	.LVL5:
  85              	.L6:
  86              	.LCFI3:
  87              		.cfi_restore_state
 219:Middlewares/lvgl/src/core/lv_obj_pos.c ****         lv_obj_set_style_width(obj, w, 0);
  88              		.loc 1 219 34 discriminator 1 view .LVU16
  89 0028 019B     		ldr	r3, [sp, #4]
 219:Middlewares/lvgl/src/core/lv_obj_pos.c ****         lv_obj_set_style_width(obj, w, 0);
  90              		.loc 1 219 28 discriminator 1 view .LVU17
  91 002a A342     		cmp	r3, r4
  92 002c F5D1     		bne	.L3
  93 002e F3E7     		b	.L2
  94              		.cfi_endproc
  95              	.LFE158:
  97              		.section	.text.lv_obj_set_height,"ax",%progbits
  98              		.align	1
  99              		.global	lv_obj_set_height
 100              		.syntax unified
 101              		.thumb
 102              		.thumb_func
 104              	lv_obj_set_height:
 105              	.LVL6:
 106              	.LFB159:
 223:Middlewares/lvgl/src/core/lv_obj_pos.c **** 
 224:Middlewares/lvgl/src/core/lv_obj_pos.c **** void lv_obj_set_height(lv_obj_t * obj, lv_coord_t h)
 225:Middlewares/lvgl/src/core/lv_obj_pos.c **** {
 107              		.loc 1 225 1 is_stmt 1 view -0
 108              		.cfi_startproc
 109              		@ args = 0, pretend = 0, frame = 8
 110              		@ frame_needed = 0, uses_anonymous_args = 0
 111              		.loc 1 225 1 is_stmt 0 view .LVU19
 112 0000 30B5     		push	{r4, r5, lr}
 113              	.LCFI4:
 114              		.cfi_def_cfa_offset 12
 115              		.cfi_offset 4, -12
 116              		.cfi_offset 5, -8
 117              		.cfi_offset 14, -4
 118 0002 83B0     		sub	sp, sp, #12
ARM GAS  /tmp/ccmgRVpn.s 			page 7


 119              	.LCFI5:
 120              		.cfi_def_cfa_offset 24
 121 0004 0546     		mov	r5, r0
 122 0006 0C46     		mov	r4, r1
 226:Middlewares/lvgl/src/core/lv_obj_pos.c ****     LV_ASSERT_OBJ(obj, MY_CLASS);
 123              		.loc 1 226 5 is_stmt 1 view .LVU20
 124              		.loc 1 226 5 view .LVU21
 125              		.loc 1 226 5 view .LVU22
 227:Middlewares/lvgl/src/core/lv_obj_pos.c ****     lv_res_t res_h;
 126              		.loc 1 227 5 view .LVU23
 228:Middlewares/lvgl/src/core/lv_obj_pos.c ****     lv_style_value_t v_h;
 127              		.loc 1 228 5 view .LVU24
 229:Middlewares/lvgl/src/core/lv_obj_pos.c **** 
 230:Middlewares/lvgl/src/core/lv_obj_pos.c ****     res_h = lv_obj_get_local_style_prop(obj, LV_STYLE_HEIGHT, &v_h, 0);
 128              		.loc 1 230 5 view .LVU25
 129              		.loc 1 230 13 is_stmt 0 view .LVU26
 130 0008 0023     		movs	r3, #0
 131 000a 01AA     		add	r2, sp, #4
 132 000c 41F20401 		movw	r1, #4100
 133              	.LVL7:
 134              		.loc 1 230 13 view .LVU27
 135 0010 FFF7FEFF 		bl	lv_obj_get_local_style_prop
 136              	.LVL8:
 231:Middlewares/lvgl/src/core/lv_obj_pos.c **** 
 232:Middlewares/lvgl/src/core/lv_obj_pos.c ****     if((res_h == LV_RES_OK && v_h.num != h) || res_h == LV_RES_INV) {
 137              		.loc 1 232 5 is_stmt 1 view .LVU28
 138              		.loc 1 232 7 is_stmt 0 view .LVU29
 139 0014 0128     		cmp	r0, #1
 140 0016 07D0     		beq	.L12
 141              	.L8:
 142              		.loc 1 232 45 discriminator 3 view .LVU30
 143 0018 20B9     		cbnz	r0, .L7
 144              	.L9:
 233:Middlewares/lvgl/src/core/lv_obj_pos.c ****         lv_obj_set_style_height(obj, h, 0);
 145              		.loc 1 233 9 is_stmt 1 view .LVU31
 146 001a 0022     		movs	r2, #0
 147 001c 2146     		mov	r1, r4
 148 001e 2846     		mov	r0, r5
 149              	.LVL9:
 150              		.loc 1 233 9 is_stmt 0 view .LVU32
 151 0020 FFF7FEFF 		bl	lv_obj_set_style_height
 152              	.LVL10:
 153              	.L7:
 234:Middlewares/lvgl/src/core/lv_obj_pos.c ****     }
 235:Middlewares/lvgl/src/core/lv_obj_pos.c **** }
 154              		.loc 1 235 1 view .LVU33
 155 0024 03B0     		add	sp, sp, #12
 156              	.LCFI6:
 157              		.cfi_remember_state
 158              		.cfi_def_cfa_offset 12
 159              		@ sp needed
 160 0026 30BD     		pop	{r4, r5, pc}
 161              	.LVL11:
 162              	.L12:
 163              	.LCFI7:
 164              		.cfi_restore_state
 232:Middlewares/lvgl/src/core/lv_obj_pos.c ****         lv_obj_set_style_height(obj, h, 0);
ARM GAS  /tmp/ccmgRVpn.s 			page 8


 165              		.loc 1 232 34 discriminator 1 view .LVU34
 166 0028 019B     		ldr	r3, [sp, #4]
 232:Middlewares/lvgl/src/core/lv_obj_pos.c ****         lv_obj_set_style_height(obj, h, 0);
 167              		.loc 1 232 28 discriminator 1 view .LVU35
 168 002a A342     		cmp	r3, r4
 169 002c F5D1     		bne	.L9
 170 002e F3E7     		b	.L8
 171              		.cfi_endproc
 172              	.LFE159:
 174              		.section	.text.lv_obj_set_size,"ax",%progbits
 175              		.align	1
 176              		.global	lv_obj_set_size
 177              		.syntax unified
 178              		.thumb
 179              		.thumb_func
 181              	lv_obj_set_size:
 182              	.LVL12:
 183              	.LFB157:
 204:Middlewares/lvgl/src/core/lv_obj_pos.c ****     LV_ASSERT_OBJ(obj, MY_CLASS);
 184              		.loc 1 204 1 is_stmt 1 view -0
 185              		.cfi_startproc
 186              		@ args = 0, pretend = 0, frame = 0
 187              		@ frame_needed = 0, uses_anonymous_args = 0
 204:Middlewares/lvgl/src/core/lv_obj_pos.c ****     LV_ASSERT_OBJ(obj, MY_CLASS);
 188              		.loc 1 204 1 is_stmt 0 view .LVU37
 189 0000 38B5     		push	{r3, r4, r5, lr}
 190              	.LCFI8:
 191              		.cfi_def_cfa_offset 16
 192              		.cfi_offset 3, -16
 193              		.cfi_offset 4, -12
 194              		.cfi_offset 5, -8
 195              		.cfi_offset 14, -4
 196 0002 0446     		mov	r4, r0
 197 0004 1546     		mov	r5, r2
 205:Middlewares/lvgl/src/core/lv_obj_pos.c **** 
 198              		.loc 1 205 5 is_stmt 1 view .LVU38
 205:Middlewares/lvgl/src/core/lv_obj_pos.c **** 
 199              		.loc 1 205 5 view .LVU39
 205:Middlewares/lvgl/src/core/lv_obj_pos.c **** 
 200              		.loc 1 205 5 view .LVU40
 207:Middlewares/lvgl/src/core/lv_obj_pos.c ****     lv_obj_set_height(obj, h);
 201              		.loc 1 207 5 view .LVU41
 202 0006 FFF7FEFF 		bl	lv_obj_set_width
 203              	.LVL13:
 208:Middlewares/lvgl/src/core/lv_obj_pos.c **** }
 204              		.loc 1 208 5 view .LVU42
 205 000a 2946     		mov	r1, r5
 206 000c 2046     		mov	r0, r4
 207 000e FFF7FEFF 		bl	lv_obj_set_height
 208              	.LVL14:
 209:Middlewares/lvgl/src/core/lv_obj_pos.c **** 
 209              		.loc 1 209 1 is_stmt 0 view .LVU43
 210 0012 38BD     		pop	{r3, r4, r5, pc}
 209:Middlewares/lvgl/src/core/lv_obj_pos.c **** 
 211              		.loc 1 209 1 view .LVU44
 212              		.cfi_endproc
 213              	.LFE157:
ARM GAS  /tmp/ccmgRVpn.s 			page 9


 215              		.section	.text.lv_obj_set_content_width,"ax",%progbits
 216              		.align	1
 217              		.global	lv_obj_set_content_width
 218              		.syntax unified
 219              		.thumb
 220              		.thumb_func
 222              	lv_obj_set_content_width:
 223              	.LVL15:
 224              	.LFB160:
 236:Middlewares/lvgl/src/core/lv_obj_pos.c **** 
 237:Middlewares/lvgl/src/core/lv_obj_pos.c **** void lv_obj_set_content_width(lv_obj_t * obj, lv_coord_t w)
 238:Middlewares/lvgl/src/core/lv_obj_pos.c **** {
 225              		.loc 1 238 1 is_stmt 1 view -0
 226              		.cfi_startproc
 227              		@ args = 0, pretend = 0, frame = 0
 228              		@ frame_needed = 0, uses_anonymous_args = 0
 229              		.loc 1 238 1 is_stmt 0 view .LVU46
 230 0000 F8B5     		push	{r3, r4, r5, r6, r7, lr}
 231              	.LCFI9:
 232              		.cfi_def_cfa_offset 24
 233              		.cfi_offset 3, -24
 234              		.cfi_offset 4, -20
 235              		.cfi_offset 5, -16
 236              		.cfi_offset 6, -12
 237              		.cfi_offset 7, -8
 238              		.cfi_offset 14, -4
 239 0002 0546     		mov	r5, r0
 240 0004 0C46     		mov	r4, r1
 239:Middlewares/lvgl/src/core/lv_obj_pos.c ****     lv_coord_t pleft = lv_obj_get_style_pad_left(obj, LV_PART_MAIN);
 241              		.loc 1 239 5 is_stmt 1 view .LVU47
 242              	.LVL16:
 243              	.LBB121:
 244              	.LBI121:
 245              		.file 2 "Middlewares/lvgl/src/core/lv_obj_style_gen.h"
   1:Middlewares/lvgl/src/core/lv_obj_style_gen.h **** static inline lv_coord_t lv_obj_get_style_width(const struct _lv_obj_t * obj, uint32_t part)
   2:Middlewares/lvgl/src/core/lv_obj_style_gen.h **** {
   3:Middlewares/lvgl/src/core/lv_obj_style_gen.h ****     lv_style_value_t v = lv_obj_get_style_prop(obj, part, LV_STYLE_WIDTH);
   4:Middlewares/lvgl/src/core/lv_obj_style_gen.h ****     return (lv_coord_t)v.num;
   5:Middlewares/lvgl/src/core/lv_obj_style_gen.h **** }
   6:Middlewares/lvgl/src/core/lv_obj_style_gen.h **** 
   7:Middlewares/lvgl/src/core/lv_obj_style_gen.h **** static inline lv_coord_t lv_obj_get_style_min_width(const struct _lv_obj_t * obj, uint32_t part)
   8:Middlewares/lvgl/src/core/lv_obj_style_gen.h **** {
   9:Middlewares/lvgl/src/core/lv_obj_style_gen.h ****     lv_style_value_t v = lv_obj_get_style_prop(obj, part, LV_STYLE_MIN_WIDTH);
  10:Middlewares/lvgl/src/core/lv_obj_style_gen.h ****     return (lv_coord_t)v.num;
  11:Middlewares/lvgl/src/core/lv_obj_style_gen.h **** }
  12:Middlewares/lvgl/src/core/lv_obj_style_gen.h **** 
  13:Middlewares/lvgl/src/core/lv_obj_style_gen.h **** static inline lv_coord_t lv_obj_get_style_max_width(const struct _lv_obj_t * obj, uint32_t part)
  14:Middlewares/lvgl/src/core/lv_obj_style_gen.h **** {
  15:Middlewares/lvgl/src/core/lv_obj_style_gen.h ****     lv_style_value_t v = lv_obj_get_style_prop(obj, part, LV_STYLE_MAX_WIDTH);
  16:Middlewares/lvgl/src/core/lv_obj_style_gen.h ****     return (lv_coord_t)v.num;
  17:Middlewares/lvgl/src/core/lv_obj_style_gen.h **** }
  18:Middlewares/lvgl/src/core/lv_obj_style_gen.h **** 
  19:Middlewares/lvgl/src/core/lv_obj_style_gen.h **** static inline lv_coord_t lv_obj_get_style_height(const struct _lv_obj_t * obj, uint32_t part)
  20:Middlewares/lvgl/src/core/lv_obj_style_gen.h **** {
  21:Middlewares/lvgl/src/core/lv_obj_style_gen.h ****     lv_style_value_t v = lv_obj_get_style_prop(obj, part, LV_STYLE_HEIGHT);
  22:Middlewares/lvgl/src/core/lv_obj_style_gen.h ****     return (lv_coord_t)v.num;
  23:Middlewares/lvgl/src/core/lv_obj_style_gen.h **** }
ARM GAS  /tmp/ccmgRVpn.s 			page 10


  24:Middlewares/lvgl/src/core/lv_obj_style_gen.h **** 
  25:Middlewares/lvgl/src/core/lv_obj_style_gen.h **** static inline lv_coord_t lv_obj_get_style_min_height(const struct _lv_obj_t * obj, uint32_t part)
  26:Middlewares/lvgl/src/core/lv_obj_style_gen.h **** {
  27:Middlewares/lvgl/src/core/lv_obj_style_gen.h ****     lv_style_value_t v = lv_obj_get_style_prop(obj, part, LV_STYLE_MIN_HEIGHT);
  28:Middlewares/lvgl/src/core/lv_obj_style_gen.h ****     return (lv_coord_t)v.num;
  29:Middlewares/lvgl/src/core/lv_obj_style_gen.h **** }
  30:Middlewares/lvgl/src/core/lv_obj_style_gen.h **** 
  31:Middlewares/lvgl/src/core/lv_obj_style_gen.h **** static inline lv_coord_t lv_obj_get_style_max_height(const struct _lv_obj_t * obj, uint32_t part)
  32:Middlewares/lvgl/src/core/lv_obj_style_gen.h **** {
  33:Middlewares/lvgl/src/core/lv_obj_style_gen.h ****     lv_style_value_t v = lv_obj_get_style_prop(obj, part, LV_STYLE_MAX_HEIGHT);
  34:Middlewares/lvgl/src/core/lv_obj_style_gen.h ****     return (lv_coord_t)v.num;
  35:Middlewares/lvgl/src/core/lv_obj_style_gen.h **** }
  36:Middlewares/lvgl/src/core/lv_obj_style_gen.h **** 
  37:Middlewares/lvgl/src/core/lv_obj_style_gen.h **** static inline lv_coord_t lv_obj_get_style_x(const struct _lv_obj_t * obj, uint32_t part)
  38:Middlewares/lvgl/src/core/lv_obj_style_gen.h **** {
  39:Middlewares/lvgl/src/core/lv_obj_style_gen.h ****     lv_style_value_t v = lv_obj_get_style_prop(obj, part, LV_STYLE_X);
  40:Middlewares/lvgl/src/core/lv_obj_style_gen.h ****     return (lv_coord_t)v.num;
  41:Middlewares/lvgl/src/core/lv_obj_style_gen.h **** }
  42:Middlewares/lvgl/src/core/lv_obj_style_gen.h **** 
  43:Middlewares/lvgl/src/core/lv_obj_style_gen.h **** static inline lv_coord_t lv_obj_get_style_y(const struct _lv_obj_t * obj, uint32_t part)
  44:Middlewares/lvgl/src/core/lv_obj_style_gen.h **** {
  45:Middlewares/lvgl/src/core/lv_obj_style_gen.h ****     lv_style_value_t v = lv_obj_get_style_prop(obj, part, LV_STYLE_Y);
  46:Middlewares/lvgl/src/core/lv_obj_style_gen.h ****     return (lv_coord_t)v.num;
  47:Middlewares/lvgl/src/core/lv_obj_style_gen.h **** }
  48:Middlewares/lvgl/src/core/lv_obj_style_gen.h **** 
  49:Middlewares/lvgl/src/core/lv_obj_style_gen.h **** static inline lv_align_t lv_obj_get_style_align(const struct _lv_obj_t * obj, uint32_t part)
  50:Middlewares/lvgl/src/core/lv_obj_style_gen.h **** {
  51:Middlewares/lvgl/src/core/lv_obj_style_gen.h ****     lv_style_value_t v = lv_obj_get_style_prop(obj, part, LV_STYLE_ALIGN);
  52:Middlewares/lvgl/src/core/lv_obj_style_gen.h ****     return (lv_align_t)v.num;
  53:Middlewares/lvgl/src/core/lv_obj_style_gen.h **** }
  54:Middlewares/lvgl/src/core/lv_obj_style_gen.h **** 
  55:Middlewares/lvgl/src/core/lv_obj_style_gen.h **** static inline lv_coord_t lv_obj_get_style_transform_width(const struct _lv_obj_t * obj, uint32_t pa
  56:Middlewares/lvgl/src/core/lv_obj_style_gen.h **** {
  57:Middlewares/lvgl/src/core/lv_obj_style_gen.h ****     lv_style_value_t v = lv_obj_get_style_prop(obj, part, LV_STYLE_TRANSFORM_WIDTH);
  58:Middlewares/lvgl/src/core/lv_obj_style_gen.h ****     return (lv_coord_t)v.num;
  59:Middlewares/lvgl/src/core/lv_obj_style_gen.h **** }
  60:Middlewares/lvgl/src/core/lv_obj_style_gen.h **** 
  61:Middlewares/lvgl/src/core/lv_obj_style_gen.h **** static inline lv_coord_t lv_obj_get_style_transform_height(const struct _lv_obj_t * obj, uint32_t p
  62:Middlewares/lvgl/src/core/lv_obj_style_gen.h **** {
  63:Middlewares/lvgl/src/core/lv_obj_style_gen.h ****     lv_style_value_t v = lv_obj_get_style_prop(obj, part, LV_STYLE_TRANSFORM_HEIGHT);
  64:Middlewares/lvgl/src/core/lv_obj_style_gen.h ****     return (lv_coord_t)v.num;
  65:Middlewares/lvgl/src/core/lv_obj_style_gen.h **** }
  66:Middlewares/lvgl/src/core/lv_obj_style_gen.h **** 
  67:Middlewares/lvgl/src/core/lv_obj_style_gen.h **** static inline lv_coord_t lv_obj_get_style_translate_x(const struct _lv_obj_t * obj, uint32_t part)
  68:Middlewares/lvgl/src/core/lv_obj_style_gen.h **** {
  69:Middlewares/lvgl/src/core/lv_obj_style_gen.h ****     lv_style_value_t v = lv_obj_get_style_prop(obj, part, LV_STYLE_TRANSLATE_X);
  70:Middlewares/lvgl/src/core/lv_obj_style_gen.h ****     return (lv_coord_t)v.num;
  71:Middlewares/lvgl/src/core/lv_obj_style_gen.h **** }
  72:Middlewares/lvgl/src/core/lv_obj_style_gen.h **** 
  73:Middlewares/lvgl/src/core/lv_obj_style_gen.h **** static inline lv_coord_t lv_obj_get_style_translate_y(const struct _lv_obj_t * obj, uint32_t part)
  74:Middlewares/lvgl/src/core/lv_obj_style_gen.h **** {
  75:Middlewares/lvgl/src/core/lv_obj_style_gen.h ****     lv_style_value_t v = lv_obj_get_style_prop(obj, part, LV_STYLE_TRANSLATE_Y);
  76:Middlewares/lvgl/src/core/lv_obj_style_gen.h ****     return (lv_coord_t)v.num;
  77:Middlewares/lvgl/src/core/lv_obj_style_gen.h **** }
  78:Middlewares/lvgl/src/core/lv_obj_style_gen.h **** 
  79:Middlewares/lvgl/src/core/lv_obj_style_gen.h **** static inline lv_coord_t lv_obj_get_style_transform_zoom(const struct _lv_obj_t * obj, uint32_t par
  80:Middlewares/lvgl/src/core/lv_obj_style_gen.h **** {
ARM GAS  /tmp/ccmgRVpn.s 			page 11


  81:Middlewares/lvgl/src/core/lv_obj_style_gen.h ****     lv_style_value_t v = lv_obj_get_style_prop(obj, part, LV_STYLE_TRANSFORM_ZOOM);
  82:Middlewares/lvgl/src/core/lv_obj_style_gen.h ****     return (lv_coord_t)v.num;
  83:Middlewares/lvgl/src/core/lv_obj_style_gen.h **** }
  84:Middlewares/lvgl/src/core/lv_obj_style_gen.h **** 
  85:Middlewares/lvgl/src/core/lv_obj_style_gen.h **** static inline lv_coord_t lv_obj_get_style_transform_angle(const struct _lv_obj_t * obj, uint32_t pa
  86:Middlewares/lvgl/src/core/lv_obj_style_gen.h **** {
  87:Middlewares/lvgl/src/core/lv_obj_style_gen.h ****     lv_style_value_t v = lv_obj_get_style_prop(obj, part, LV_STYLE_TRANSFORM_ANGLE);
  88:Middlewares/lvgl/src/core/lv_obj_style_gen.h ****     return (lv_coord_t)v.num;
  89:Middlewares/lvgl/src/core/lv_obj_style_gen.h **** }
  90:Middlewares/lvgl/src/core/lv_obj_style_gen.h **** 
  91:Middlewares/lvgl/src/core/lv_obj_style_gen.h **** static inline lv_coord_t lv_obj_get_style_pad_top(const struct _lv_obj_t * obj, uint32_t part)
  92:Middlewares/lvgl/src/core/lv_obj_style_gen.h **** {
  93:Middlewares/lvgl/src/core/lv_obj_style_gen.h ****     lv_style_value_t v = lv_obj_get_style_prop(obj, part, LV_STYLE_PAD_TOP);
  94:Middlewares/lvgl/src/core/lv_obj_style_gen.h ****     return (lv_coord_t)v.num;
  95:Middlewares/lvgl/src/core/lv_obj_style_gen.h **** }
  96:Middlewares/lvgl/src/core/lv_obj_style_gen.h **** 
  97:Middlewares/lvgl/src/core/lv_obj_style_gen.h **** static inline lv_coord_t lv_obj_get_style_pad_bottom(const struct _lv_obj_t * obj, uint32_t part)
  98:Middlewares/lvgl/src/core/lv_obj_style_gen.h **** {
  99:Middlewares/lvgl/src/core/lv_obj_style_gen.h ****     lv_style_value_t v = lv_obj_get_style_prop(obj, part, LV_STYLE_PAD_BOTTOM);
 100:Middlewares/lvgl/src/core/lv_obj_style_gen.h ****     return (lv_coord_t)v.num;
 101:Middlewares/lvgl/src/core/lv_obj_style_gen.h **** }
 102:Middlewares/lvgl/src/core/lv_obj_style_gen.h **** 
 103:Middlewares/lvgl/src/core/lv_obj_style_gen.h **** static inline lv_coord_t lv_obj_get_style_pad_left(const struct _lv_obj_t * obj, uint32_t part)
 246              		.loc 2 103 26 view .LVU48
 247              	.LBB122:
 104:Middlewares/lvgl/src/core/lv_obj_style_gen.h **** {
 105:Middlewares/lvgl/src/core/lv_obj_style_gen.h ****     lv_style_value_t v = lv_obj_get_style_prop(obj, part, LV_STYLE_PAD_LEFT);
 248              		.loc 2 105 5 view .LVU49
 249              		.loc 2 105 26 is_stmt 0 view .LVU50
 250 0006 41F21202 		movw	r2, #4114
 251 000a 0021     		movs	r1, #0
 252              	.LVL17:
 253              		.loc 2 105 26 view .LVU51
 254 000c FFF7FEFF 		bl	lv_obj_get_style_prop
 255              	.LVL18:
 256              		.loc 2 105 26 view .LVU52
 257 0010 0746     		mov	r7, r0
 258              	.LVL19:
 106:Middlewares/lvgl/src/core/lv_obj_style_gen.h ****     return (lv_coord_t)v.num;
 259              		.loc 2 106 5 is_stmt 1 view .LVU53
 260              		.loc 2 106 5 is_stmt 0 view .LVU54
 261              	.LBE122:
 262              	.LBE121:
 240:Middlewares/lvgl/src/core/lv_obj_pos.c ****     lv_coord_t pright = lv_obj_get_style_pad_right(obj, LV_PART_MAIN);
 263              		.loc 1 240 5 is_stmt 1 view .LVU55
 264              	.LBB123:
 265              	.LBI123:
 107:Middlewares/lvgl/src/core/lv_obj_style_gen.h **** }
 108:Middlewares/lvgl/src/core/lv_obj_style_gen.h **** 
 109:Middlewares/lvgl/src/core/lv_obj_style_gen.h **** static inline lv_coord_t lv_obj_get_style_pad_right(const struct _lv_obj_t * obj, uint32_t part)
 266              		.loc 2 109 26 view .LVU56
 267              	.LBB124:
 110:Middlewares/lvgl/src/core/lv_obj_style_gen.h **** {
 111:Middlewares/lvgl/src/core/lv_obj_style_gen.h ****     lv_style_value_t v = lv_obj_get_style_prop(obj, part, LV_STYLE_PAD_RIGHT);
 268              		.loc 2 111 5 view .LVU57
 269              		.loc 2 111 26 is_stmt 0 view .LVU58
 270 0012 41F21302 		movw	r2, #4115
ARM GAS  /tmp/ccmgRVpn.s 			page 12


 271 0016 0021     		movs	r1, #0
 272 0018 2846     		mov	r0, r5
 273 001a FFF7FEFF 		bl	lv_obj_get_style_prop
 274              	.LVL20:
 275 001e 0646     		mov	r6, r0
 276              	.LVL21:
 112:Middlewares/lvgl/src/core/lv_obj_style_gen.h ****     return (lv_coord_t)v.num;
 277              		.loc 2 112 5 is_stmt 1 view .LVU59
 278              		.loc 2 112 5 is_stmt 0 view .LVU60
 279              	.LBE124:
 280              	.LBE123:
 241:Middlewares/lvgl/src/core/lv_obj_pos.c ****     lv_coord_t border_width = lv_obj_get_style_border_width(obj, LV_PART_MAIN);
 281              		.loc 1 241 5 is_stmt 1 view .LVU61
 282              	.LBB125:
 283              	.LBI125:
 113:Middlewares/lvgl/src/core/lv_obj_style_gen.h **** }
 114:Middlewares/lvgl/src/core/lv_obj_style_gen.h **** 
 115:Middlewares/lvgl/src/core/lv_obj_style_gen.h **** static inline lv_coord_t lv_obj_get_style_pad_row(const struct _lv_obj_t * obj, uint32_t part)
 116:Middlewares/lvgl/src/core/lv_obj_style_gen.h **** {
 117:Middlewares/lvgl/src/core/lv_obj_style_gen.h ****     lv_style_value_t v = lv_obj_get_style_prop(obj, part, LV_STYLE_PAD_ROW);
 118:Middlewares/lvgl/src/core/lv_obj_style_gen.h ****     return (lv_coord_t)v.num;
 119:Middlewares/lvgl/src/core/lv_obj_style_gen.h **** }
 120:Middlewares/lvgl/src/core/lv_obj_style_gen.h **** 
 121:Middlewares/lvgl/src/core/lv_obj_style_gen.h **** static inline lv_coord_t lv_obj_get_style_pad_column(const struct _lv_obj_t * obj, uint32_t part)
 122:Middlewares/lvgl/src/core/lv_obj_style_gen.h **** {
 123:Middlewares/lvgl/src/core/lv_obj_style_gen.h ****     lv_style_value_t v = lv_obj_get_style_prop(obj, part, LV_STYLE_PAD_COLUMN);
 124:Middlewares/lvgl/src/core/lv_obj_style_gen.h ****     return (lv_coord_t)v.num;
 125:Middlewares/lvgl/src/core/lv_obj_style_gen.h **** }
 126:Middlewares/lvgl/src/core/lv_obj_style_gen.h **** 
 127:Middlewares/lvgl/src/core/lv_obj_style_gen.h **** static inline lv_coord_t lv_obj_get_style_radius(const struct _lv_obj_t * obj, uint32_t part)
 128:Middlewares/lvgl/src/core/lv_obj_style_gen.h **** {
 129:Middlewares/lvgl/src/core/lv_obj_style_gen.h ****     lv_style_value_t v = lv_obj_get_style_prop(obj, part, LV_STYLE_RADIUS);
 130:Middlewares/lvgl/src/core/lv_obj_style_gen.h ****     return (lv_coord_t)v.num;
 131:Middlewares/lvgl/src/core/lv_obj_style_gen.h **** }
 132:Middlewares/lvgl/src/core/lv_obj_style_gen.h **** 
 133:Middlewares/lvgl/src/core/lv_obj_style_gen.h **** static inline bool lv_obj_get_style_clip_corner(const struct _lv_obj_t * obj, uint32_t part)
 134:Middlewares/lvgl/src/core/lv_obj_style_gen.h **** {
 135:Middlewares/lvgl/src/core/lv_obj_style_gen.h ****     lv_style_value_t v = lv_obj_get_style_prop(obj, part, LV_STYLE_CLIP_CORNER);
 136:Middlewares/lvgl/src/core/lv_obj_style_gen.h ****     return (bool)v.num;
 137:Middlewares/lvgl/src/core/lv_obj_style_gen.h **** }
 138:Middlewares/lvgl/src/core/lv_obj_style_gen.h **** 
 139:Middlewares/lvgl/src/core/lv_obj_style_gen.h **** static inline lv_opa_t lv_obj_get_style_opa(const struct _lv_obj_t * obj, uint32_t part)
 140:Middlewares/lvgl/src/core/lv_obj_style_gen.h **** {
 141:Middlewares/lvgl/src/core/lv_obj_style_gen.h ****     lv_style_value_t v = lv_obj_get_style_prop(obj, part, LV_STYLE_OPA);
 142:Middlewares/lvgl/src/core/lv_obj_style_gen.h ****     return (lv_opa_t)v.num;
 143:Middlewares/lvgl/src/core/lv_obj_style_gen.h **** }
 144:Middlewares/lvgl/src/core/lv_obj_style_gen.h **** 
 145:Middlewares/lvgl/src/core/lv_obj_style_gen.h **** static inline const lv_color_filter_dsc_t * lv_obj_get_style_color_filter_dsc(const struct _lv_obj_
 146:Middlewares/lvgl/src/core/lv_obj_style_gen.h **** {
 147:Middlewares/lvgl/src/core/lv_obj_style_gen.h ****     lv_style_value_t v = lv_obj_get_style_prop(obj, part, LV_STYLE_COLOR_FILTER_DSC);
 148:Middlewares/lvgl/src/core/lv_obj_style_gen.h ****     return (const lv_color_filter_dsc_t *)v.ptr;
 149:Middlewares/lvgl/src/core/lv_obj_style_gen.h **** }
 150:Middlewares/lvgl/src/core/lv_obj_style_gen.h **** 
 151:Middlewares/lvgl/src/core/lv_obj_style_gen.h **** static inline lv_opa_t lv_obj_get_style_color_filter_opa(const struct _lv_obj_t * obj, uint32_t par
 152:Middlewares/lvgl/src/core/lv_obj_style_gen.h **** {
 153:Middlewares/lvgl/src/core/lv_obj_style_gen.h ****     lv_style_value_t v = lv_obj_get_style_prop(obj, part, LV_STYLE_COLOR_FILTER_OPA);
 154:Middlewares/lvgl/src/core/lv_obj_style_gen.h ****     return (lv_opa_t)v.num;
ARM GAS  /tmp/ccmgRVpn.s 			page 13


 155:Middlewares/lvgl/src/core/lv_obj_style_gen.h **** }
 156:Middlewares/lvgl/src/core/lv_obj_style_gen.h **** 
 157:Middlewares/lvgl/src/core/lv_obj_style_gen.h **** static inline uint32_t lv_obj_get_style_anim_time(const struct _lv_obj_t * obj, uint32_t part)
 158:Middlewares/lvgl/src/core/lv_obj_style_gen.h **** {
 159:Middlewares/lvgl/src/core/lv_obj_style_gen.h ****     lv_style_value_t v = lv_obj_get_style_prop(obj, part, LV_STYLE_ANIM_TIME);
 160:Middlewares/lvgl/src/core/lv_obj_style_gen.h ****     return (uint32_t)v.num;
 161:Middlewares/lvgl/src/core/lv_obj_style_gen.h **** }
 162:Middlewares/lvgl/src/core/lv_obj_style_gen.h **** 
 163:Middlewares/lvgl/src/core/lv_obj_style_gen.h **** static inline uint32_t lv_obj_get_style_anim_speed(const struct _lv_obj_t * obj, uint32_t part)
 164:Middlewares/lvgl/src/core/lv_obj_style_gen.h **** {
 165:Middlewares/lvgl/src/core/lv_obj_style_gen.h ****     lv_style_value_t v = lv_obj_get_style_prop(obj, part, LV_STYLE_ANIM_SPEED);
 166:Middlewares/lvgl/src/core/lv_obj_style_gen.h ****     return (uint32_t)v.num;
 167:Middlewares/lvgl/src/core/lv_obj_style_gen.h **** }
 168:Middlewares/lvgl/src/core/lv_obj_style_gen.h **** 
 169:Middlewares/lvgl/src/core/lv_obj_style_gen.h **** static inline const lv_style_transition_dsc_t * lv_obj_get_style_transition(const struct _lv_obj_t 
 170:Middlewares/lvgl/src/core/lv_obj_style_gen.h **** {
 171:Middlewares/lvgl/src/core/lv_obj_style_gen.h ****     lv_style_value_t v = lv_obj_get_style_prop(obj, part, LV_STYLE_TRANSITION);
 172:Middlewares/lvgl/src/core/lv_obj_style_gen.h ****     return (const lv_style_transition_dsc_t *)v.ptr;
 173:Middlewares/lvgl/src/core/lv_obj_style_gen.h **** }
 174:Middlewares/lvgl/src/core/lv_obj_style_gen.h **** 
 175:Middlewares/lvgl/src/core/lv_obj_style_gen.h **** static inline lv_blend_mode_t lv_obj_get_style_blend_mode(const struct _lv_obj_t * obj, uint32_t pa
 176:Middlewares/lvgl/src/core/lv_obj_style_gen.h **** {
 177:Middlewares/lvgl/src/core/lv_obj_style_gen.h ****     lv_style_value_t v = lv_obj_get_style_prop(obj, part, LV_STYLE_BLEND_MODE);
 178:Middlewares/lvgl/src/core/lv_obj_style_gen.h ****     return (lv_blend_mode_t)v.num;
 179:Middlewares/lvgl/src/core/lv_obj_style_gen.h **** }
 180:Middlewares/lvgl/src/core/lv_obj_style_gen.h **** 
 181:Middlewares/lvgl/src/core/lv_obj_style_gen.h **** static inline uint16_t lv_obj_get_style_layout(const struct _lv_obj_t * obj, uint32_t part)
 182:Middlewares/lvgl/src/core/lv_obj_style_gen.h **** {
 183:Middlewares/lvgl/src/core/lv_obj_style_gen.h ****     lv_style_value_t v = lv_obj_get_style_prop(obj, part, LV_STYLE_LAYOUT);
 184:Middlewares/lvgl/src/core/lv_obj_style_gen.h ****     return (uint16_t)v.num;
 185:Middlewares/lvgl/src/core/lv_obj_style_gen.h **** }
 186:Middlewares/lvgl/src/core/lv_obj_style_gen.h **** 
 187:Middlewares/lvgl/src/core/lv_obj_style_gen.h **** static inline lv_base_dir_t lv_obj_get_style_base_dir(const struct _lv_obj_t * obj, uint32_t part)
 188:Middlewares/lvgl/src/core/lv_obj_style_gen.h **** {
 189:Middlewares/lvgl/src/core/lv_obj_style_gen.h ****     lv_style_value_t v = lv_obj_get_style_prop(obj, part, LV_STYLE_BASE_DIR);
 190:Middlewares/lvgl/src/core/lv_obj_style_gen.h ****     return (lv_base_dir_t)v.num;
 191:Middlewares/lvgl/src/core/lv_obj_style_gen.h **** }
 192:Middlewares/lvgl/src/core/lv_obj_style_gen.h **** 
 193:Middlewares/lvgl/src/core/lv_obj_style_gen.h **** static inline lv_color_t lv_obj_get_style_bg_color(const struct _lv_obj_t * obj, uint32_t part)
 194:Middlewares/lvgl/src/core/lv_obj_style_gen.h **** {
 195:Middlewares/lvgl/src/core/lv_obj_style_gen.h ****     lv_style_value_t v = lv_obj_get_style_prop(obj, part, LV_STYLE_BG_COLOR);
 196:Middlewares/lvgl/src/core/lv_obj_style_gen.h ****     return v.color;
 197:Middlewares/lvgl/src/core/lv_obj_style_gen.h **** }
 198:Middlewares/lvgl/src/core/lv_obj_style_gen.h **** 
 199:Middlewares/lvgl/src/core/lv_obj_style_gen.h **** static inline lv_color_t lv_obj_get_style_bg_color_filtered(const struct _lv_obj_t * obj, uint32_t 
 200:Middlewares/lvgl/src/core/lv_obj_style_gen.h **** {
 201:Middlewares/lvgl/src/core/lv_obj_style_gen.h ****     lv_style_value_t v = lv_obj_get_style_prop(obj, part, LV_STYLE_BG_COLOR_FILTERED);
 202:Middlewares/lvgl/src/core/lv_obj_style_gen.h ****     return v.color;
 203:Middlewares/lvgl/src/core/lv_obj_style_gen.h **** }
 204:Middlewares/lvgl/src/core/lv_obj_style_gen.h **** 
 205:Middlewares/lvgl/src/core/lv_obj_style_gen.h **** static inline lv_opa_t lv_obj_get_style_bg_opa(const struct _lv_obj_t * obj, uint32_t part)
 206:Middlewares/lvgl/src/core/lv_obj_style_gen.h **** {
 207:Middlewares/lvgl/src/core/lv_obj_style_gen.h ****     lv_style_value_t v = lv_obj_get_style_prop(obj, part, LV_STYLE_BG_OPA);
 208:Middlewares/lvgl/src/core/lv_obj_style_gen.h ****     return (lv_opa_t)v.num;
 209:Middlewares/lvgl/src/core/lv_obj_style_gen.h **** }
 210:Middlewares/lvgl/src/core/lv_obj_style_gen.h **** 
 211:Middlewares/lvgl/src/core/lv_obj_style_gen.h **** static inline lv_color_t lv_obj_get_style_bg_grad_color(const struct _lv_obj_t * obj, uint32_t part
ARM GAS  /tmp/ccmgRVpn.s 			page 14


 212:Middlewares/lvgl/src/core/lv_obj_style_gen.h **** {
 213:Middlewares/lvgl/src/core/lv_obj_style_gen.h ****     lv_style_value_t v = lv_obj_get_style_prop(obj, part, LV_STYLE_BG_GRAD_COLOR);
 214:Middlewares/lvgl/src/core/lv_obj_style_gen.h ****     return v.color;
 215:Middlewares/lvgl/src/core/lv_obj_style_gen.h **** }
 216:Middlewares/lvgl/src/core/lv_obj_style_gen.h **** 
 217:Middlewares/lvgl/src/core/lv_obj_style_gen.h **** static inline lv_color_t lv_obj_get_style_bg_grad_color_filtered(const struct _lv_obj_t * obj, uint
 218:Middlewares/lvgl/src/core/lv_obj_style_gen.h **** {
 219:Middlewares/lvgl/src/core/lv_obj_style_gen.h ****     lv_style_value_t v = lv_obj_get_style_prop(obj, part, LV_STYLE_BG_GRAD_COLOR_FILTERED);
 220:Middlewares/lvgl/src/core/lv_obj_style_gen.h ****     return v.color;
 221:Middlewares/lvgl/src/core/lv_obj_style_gen.h **** }
 222:Middlewares/lvgl/src/core/lv_obj_style_gen.h **** 
 223:Middlewares/lvgl/src/core/lv_obj_style_gen.h **** static inline lv_grad_dir_t lv_obj_get_style_bg_grad_dir(const struct _lv_obj_t * obj, uint32_t par
 224:Middlewares/lvgl/src/core/lv_obj_style_gen.h **** {
 225:Middlewares/lvgl/src/core/lv_obj_style_gen.h ****     lv_style_value_t v = lv_obj_get_style_prop(obj, part, LV_STYLE_BG_GRAD_DIR);
 226:Middlewares/lvgl/src/core/lv_obj_style_gen.h ****     return (lv_grad_dir_t)v.num;
 227:Middlewares/lvgl/src/core/lv_obj_style_gen.h **** }
 228:Middlewares/lvgl/src/core/lv_obj_style_gen.h **** 
 229:Middlewares/lvgl/src/core/lv_obj_style_gen.h **** static inline lv_coord_t lv_obj_get_style_bg_main_stop(const struct _lv_obj_t * obj, uint32_t part)
 230:Middlewares/lvgl/src/core/lv_obj_style_gen.h **** {
 231:Middlewares/lvgl/src/core/lv_obj_style_gen.h ****     lv_style_value_t v = lv_obj_get_style_prop(obj, part, LV_STYLE_BG_MAIN_STOP);
 232:Middlewares/lvgl/src/core/lv_obj_style_gen.h ****     return (lv_coord_t)v.num;
 233:Middlewares/lvgl/src/core/lv_obj_style_gen.h **** }
 234:Middlewares/lvgl/src/core/lv_obj_style_gen.h **** 
 235:Middlewares/lvgl/src/core/lv_obj_style_gen.h **** static inline lv_coord_t lv_obj_get_style_bg_grad_stop(const struct _lv_obj_t * obj, uint32_t part)
 236:Middlewares/lvgl/src/core/lv_obj_style_gen.h **** {
 237:Middlewares/lvgl/src/core/lv_obj_style_gen.h ****     lv_style_value_t v = lv_obj_get_style_prop(obj, part, LV_STYLE_BG_GRAD_STOP);
 238:Middlewares/lvgl/src/core/lv_obj_style_gen.h ****     return (lv_coord_t)v.num;
 239:Middlewares/lvgl/src/core/lv_obj_style_gen.h **** }
 240:Middlewares/lvgl/src/core/lv_obj_style_gen.h **** 
 241:Middlewares/lvgl/src/core/lv_obj_style_gen.h **** static inline const void * lv_obj_get_style_bg_img_src(const struct _lv_obj_t * obj, uint32_t part)
 242:Middlewares/lvgl/src/core/lv_obj_style_gen.h **** {
 243:Middlewares/lvgl/src/core/lv_obj_style_gen.h ****     lv_style_value_t v = lv_obj_get_style_prop(obj, part, LV_STYLE_BG_IMG_SRC);
 244:Middlewares/lvgl/src/core/lv_obj_style_gen.h ****     return (const void *)v.ptr;
 245:Middlewares/lvgl/src/core/lv_obj_style_gen.h **** }
 246:Middlewares/lvgl/src/core/lv_obj_style_gen.h **** 
 247:Middlewares/lvgl/src/core/lv_obj_style_gen.h **** static inline lv_opa_t lv_obj_get_style_bg_img_opa(const struct _lv_obj_t * obj, uint32_t part)
 248:Middlewares/lvgl/src/core/lv_obj_style_gen.h **** {
 249:Middlewares/lvgl/src/core/lv_obj_style_gen.h ****     lv_style_value_t v = lv_obj_get_style_prop(obj, part, LV_STYLE_BG_IMG_OPA);
 250:Middlewares/lvgl/src/core/lv_obj_style_gen.h ****     return (lv_opa_t)v.num;
 251:Middlewares/lvgl/src/core/lv_obj_style_gen.h **** }
 252:Middlewares/lvgl/src/core/lv_obj_style_gen.h **** 
 253:Middlewares/lvgl/src/core/lv_obj_style_gen.h **** static inline lv_color_t lv_obj_get_style_bg_img_recolor(const struct _lv_obj_t * obj, uint32_t par
 254:Middlewares/lvgl/src/core/lv_obj_style_gen.h **** {
 255:Middlewares/lvgl/src/core/lv_obj_style_gen.h ****     lv_style_value_t v = lv_obj_get_style_prop(obj, part, LV_STYLE_BG_IMG_RECOLOR);
 256:Middlewares/lvgl/src/core/lv_obj_style_gen.h ****     return v.color;
 257:Middlewares/lvgl/src/core/lv_obj_style_gen.h **** }
 258:Middlewares/lvgl/src/core/lv_obj_style_gen.h **** 
 259:Middlewares/lvgl/src/core/lv_obj_style_gen.h **** static inline lv_color_t lv_obj_get_style_bg_img_recolor_filtered(const struct _lv_obj_t * obj, uin
 260:Middlewares/lvgl/src/core/lv_obj_style_gen.h **** {
 261:Middlewares/lvgl/src/core/lv_obj_style_gen.h ****     lv_style_value_t v = lv_obj_get_style_prop(obj, part, LV_STYLE_BG_IMG_RECOLOR_FILTERED);
 262:Middlewares/lvgl/src/core/lv_obj_style_gen.h ****     return v.color;
 263:Middlewares/lvgl/src/core/lv_obj_style_gen.h **** }
 264:Middlewares/lvgl/src/core/lv_obj_style_gen.h **** 
 265:Middlewares/lvgl/src/core/lv_obj_style_gen.h **** static inline lv_opa_t lv_obj_get_style_bg_img_recolor_opa(const struct _lv_obj_t * obj, uint32_t p
 266:Middlewares/lvgl/src/core/lv_obj_style_gen.h **** {
 267:Middlewares/lvgl/src/core/lv_obj_style_gen.h ****     lv_style_value_t v = lv_obj_get_style_prop(obj, part, LV_STYLE_BG_IMG_RECOLOR_OPA);
 268:Middlewares/lvgl/src/core/lv_obj_style_gen.h ****     return (lv_opa_t)v.num;
ARM GAS  /tmp/ccmgRVpn.s 			page 15


 269:Middlewares/lvgl/src/core/lv_obj_style_gen.h **** }
 270:Middlewares/lvgl/src/core/lv_obj_style_gen.h **** 
 271:Middlewares/lvgl/src/core/lv_obj_style_gen.h **** static inline bool lv_obj_get_style_bg_img_tiled(const struct _lv_obj_t * obj, uint32_t part)
 272:Middlewares/lvgl/src/core/lv_obj_style_gen.h **** {
 273:Middlewares/lvgl/src/core/lv_obj_style_gen.h ****     lv_style_value_t v = lv_obj_get_style_prop(obj, part, LV_STYLE_BG_IMG_TILED);
 274:Middlewares/lvgl/src/core/lv_obj_style_gen.h ****     return (bool)v.num;
 275:Middlewares/lvgl/src/core/lv_obj_style_gen.h **** }
 276:Middlewares/lvgl/src/core/lv_obj_style_gen.h **** 
 277:Middlewares/lvgl/src/core/lv_obj_style_gen.h **** static inline lv_color_t lv_obj_get_style_border_color(const struct _lv_obj_t * obj, uint32_t part)
 278:Middlewares/lvgl/src/core/lv_obj_style_gen.h **** {
 279:Middlewares/lvgl/src/core/lv_obj_style_gen.h ****     lv_style_value_t v = lv_obj_get_style_prop(obj, part, LV_STYLE_BORDER_COLOR);
 280:Middlewares/lvgl/src/core/lv_obj_style_gen.h ****     return v.color;
 281:Middlewares/lvgl/src/core/lv_obj_style_gen.h **** }
 282:Middlewares/lvgl/src/core/lv_obj_style_gen.h **** 
 283:Middlewares/lvgl/src/core/lv_obj_style_gen.h **** static inline lv_color_t lv_obj_get_style_border_color_filtered(const struct _lv_obj_t * obj, uint3
 284:Middlewares/lvgl/src/core/lv_obj_style_gen.h **** {
 285:Middlewares/lvgl/src/core/lv_obj_style_gen.h ****     lv_style_value_t v = lv_obj_get_style_prop(obj, part, LV_STYLE_BORDER_COLOR_FILTERED);
 286:Middlewares/lvgl/src/core/lv_obj_style_gen.h ****     return v.color;
 287:Middlewares/lvgl/src/core/lv_obj_style_gen.h **** }
 288:Middlewares/lvgl/src/core/lv_obj_style_gen.h **** 
 289:Middlewares/lvgl/src/core/lv_obj_style_gen.h **** static inline lv_opa_t lv_obj_get_style_border_opa(const struct _lv_obj_t * obj, uint32_t part)
 290:Middlewares/lvgl/src/core/lv_obj_style_gen.h **** {
 291:Middlewares/lvgl/src/core/lv_obj_style_gen.h ****     lv_style_value_t v = lv_obj_get_style_prop(obj, part, LV_STYLE_BORDER_OPA);
 292:Middlewares/lvgl/src/core/lv_obj_style_gen.h ****     return (lv_opa_t)v.num;
 293:Middlewares/lvgl/src/core/lv_obj_style_gen.h **** }
 294:Middlewares/lvgl/src/core/lv_obj_style_gen.h **** 
 295:Middlewares/lvgl/src/core/lv_obj_style_gen.h **** static inline lv_coord_t lv_obj_get_style_border_width(const struct _lv_obj_t * obj, uint32_t part)
 284              		.loc 2 295 26 view .LVU62
 285              	.LBB126:
 296:Middlewares/lvgl/src/core/lv_obj_style_gen.h **** {
 297:Middlewares/lvgl/src/core/lv_obj_style_gen.h ****     lv_style_value_t v = lv_obj_get_style_prop(obj, part, LV_STYLE_BORDER_WIDTH);
 286              		.loc 2 297 5 view .LVU63
 287              		.loc 2 297 26 is_stmt 0 view .LVU64
 288 0020 41F23202 		movw	r2, #4146
 289 0024 0021     		movs	r1, #0
 290 0026 2846     		mov	r0, r5
 291 0028 FFF7FEFF 		bl	lv_obj_get_style_prop
 292              	.LVL22:
 298:Middlewares/lvgl/src/core/lv_obj_style_gen.h ****     return (lv_coord_t)v.num;
 293              		.loc 2 298 5 is_stmt 1 view .LVU65
 294              		.loc 2 298 5 is_stmt 0 view .LVU66
 295              	.LBE126:
 296              	.LBE125:
 242:Middlewares/lvgl/src/core/lv_obj_pos.c **** 
 243:Middlewares/lvgl/src/core/lv_obj_pos.c ****     lv_obj_set_width(obj, w + pleft + pright + 2 * border_width);
 297              		.loc 1 243 5 is_stmt 1 view .LVU67
 298              		.loc 1 243 29 is_stmt 0 view .LVU68
 299 002c E119     		adds	r1, r4, r7
 300              		.loc 1 243 37 view .LVU69
 301 002e 16FA81F1 		uxtah	r1, r6, r1
 302              		.loc 1 243 50 view .LVU70
 303 0032 4000     		lsls	r0, r0, #1
 304              	.LVL23:
 305              		.loc 1 243 50 view .LVU71
 306 0034 80B2     		uxth	r0, r0
 307              		.loc 1 243 46 view .LVU72
 308 0036 10FA81F1 		uxtah	r1, r0, r1
ARM GAS  /tmp/ccmgRVpn.s 			page 16


 309              		.loc 1 243 5 view .LVU73
 310 003a 09B2     		sxth	r1, r1
 311 003c 2846     		mov	r0, r5
 312 003e FFF7FEFF 		bl	lv_obj_set_width
 313              	.LVL24:
 244:Middlewares/lvgl/src/core/lv_obj_pos.c **** }
 314              		.loc 1 244 1 view .LVU74
 315 0042 F8BD     		pop	{r3, r4, r5, r6, r7, pc}
 316              		.loc 1 244 1 view .LVU75
 317              		.cfi_endproc
 318              	.LFE160:
 320              		.section	.text.lv_obj_set_content_height,"ax",%progbits
 321              		.align	1
 322              		.global	lv_obj_set_content_height
 323              		.syntax unified
 324              		.thumb
 325              		.thumb_func
 327              	lv_obj_set_content_height:
 328              	.LVL25:
 329              	.LFB161:
 245:Middlewares/lvgl/src/core/lv_obj_pos.c **** 
 246:Middlewares/lvgl/src/core/lv_obj_pos.c **** void lv_obj_set_content_height(lv_obj_t * obj, lv_coord_t h)
 247:Middlewares/lvgl/src/core/lv_obj_pos.c **** {
 330              		.loc 1 247 1 is_stmt 1 view -0
 331              		.cfi_startproc
 332              		@ args = 0, pretend = 0, frame = 0
 333              		@ frame_needed = 0, uses_anonymous_args = 0
 334              		.loc 1 247 1 is_stmt 0 view .LVU77
 335 0000 F8B5     		push	{r3, r4, r5, r6, r7, lr}
 336              	.LCFI10:
 337              		.cfi_def_cfa_offset 24
 338              		.cfi_offset 3, -24
 339              		.cfi_offset 4, -20
 340              		.cfi_offset 5, -16
 341              		.cfi_offset 6, -12
 342              		.cfi_offset 7, -8
 343              		.cfi_offset 14, -4
 344 0002 0546     		mov	r5, r0
 345 0004 0C46     		mov	r4, r1
 248:Middlewares/lvgl/src/core/lv_obj_pos.c ****     lv_coord_t ptop = lv_obj_get_style_pad_top(obj, LV_PART_MAIN);
 346              		.loc 1 248 5 is_stmt 1 view .LVU78
 347              	.LVL26:
 348              	.LBB127:
 349              	.LBI127:
  91:Middlewares/lvgl/src/core/lv_obj_style_gen.h **** {
 350              		.loc 2 91 26 view .LVU79
 351              	.LBB128:
  93:Middlewares/lvgl/src/core/lv_obj_style_gen.h ****     return (lv_coord_t)v.num;
 352              		.loc 2 93 5 view .LVU80
  93:Middlewares/lvgl/src/core/lv_obj_style_gen.h ****     return (lv_coord_t)v.num;
 353              		.loc 2 93 26 is_stmt 0 view .LVU81
 354 0006 41F21002 		movw	r2, #4112
 355 000a 0021     		movs	r1, #0
 356              	.LVL27:
  93:Middlewares/lvgl/src/core/lv_obj_style_gen.h ****     return (lv_coord_t)v.num;
 357              		.loc 2 93 26 view .LVU82
 358 000c FFF7FEFF 		bl	lv_obj_get_style_prop
ARM GAS  /tmp/ccmgRVpn.s 			page 17


 359              	.LVL28:
  93:Middlewares/lvgl/src/core/lv_obj_style_gen.h ****     return (lv_coord_t)v.num;
 360              		.loc 2 93 26 view .LVU83
 361 0010 0746     		mov	r7, r0
 362              	.LVL29:
  94:Middlewares/lvgl/src/core/lv_obj_style_gen.h **** }
 363              		.loc 2 94 5 is_stmt 1 view .LVU84
  94:Middlewares/lvgl/src/core/lv_obj_style_gen.h **** }
 364              		.loc 2 94 5 is_stmt 0 view .LVU85
 365              	.LBE128:
 366              	.LBE127:
 249:Middlewares/lvgl/src/core/lv_obj_pos.c ****     lv_coord_t pbottom = lv_obj_get_style_pad_bottom(obj, LV_PART_MAIN);
 367              		.loc 1 249 5 is_stmt 1 view .LVU86
 368              	.LBB129:
 369              	.LBI129:
  97:Middlewares/lvgl/src/core/lv_obj_style_gen.h **** {
 370              		.loc 2 97 26 view .LVU87
 371              	.LBB130:
  99:Middlewares/lvgl/src/core/lv_obj_style_gen.h ****     return (lv_coord_t)v.num;
 372              		.loc 2 99 5 view .LVU88
  99:Middlewares/lvgl/src/core/lv_obj_style_gen.h ****     return (lv_coord_t)v.num;
 373              		.loc 2 99 26 is_stmt 0 view .LVU89
 374 0012 41F21102 		movw	r2, #4113
 375 0016 0021     		movs	r1, #0
 376 0018 2846     		mov	r0, r5
 377 001a FFF7FEFF 		bl	lv_obj_get_style_prop
 378              	.LVL30:
 379 001e 0646     		mov	r6, r0
 380              	.LVL31:
 100:Middlewares/lvgl/src/core/lv_obj_style_gen.h **** }
 381              		.loc 2 100 5 is_stmt 1 view .LVU90
 100:Middlewares/lvgl/src/core/lv_obj_style_gen.h **** }
 382              		.loc 2 100 5 is_stmt 0 view .LVU91
 383              	.LBE130:
 384              	.LBE129:
 250:Middlewares/lvgl/src/core/lv_obj_pos.c ****     lv_coord_t border_width = lv_obj_get_style_border_width(obj, LV_PART_MAIN);
 385              		.loc 1 250 5 is_stmt 1 view .LVU92
 386              	.LBB131:
 387              	.LBI131:
 295:Middlewares/lvgl/src/core/lv_obj_style_gen.h **** {
 388              		.loc 2 295 26 view .LVU93
 389              	.LBB132:
 297:Middlewares/lvgl/src/core/lv_obj_style_gen.h ****     return (lv_coord_t)v.num;
 390              		.loc 2 297 5 view .LVU94
 297:Middlewares/lvgl/src/core/lv_obj_style_gen.h ****     return (lv_coord_t)v.num;
 391              		.loc 2 297 26 is_stmt 0 view .LVU95
 392 0020 41F23202 		movw	r2, #4146
 393 0024 0021     		movs	r1, #0
 394 0026 2846     		mov	r0, r5
 395 0028 FFF7FEFF 		bl	lv_obj_get_style_prop
 396              	.LVL32:
 397              		.loc 2 298 5 is_stmt 1 view .LVU96
 398              		.loc 2 298 5 is_stmt 0 view .LVU97
 399              	.LBE132:
 400              	.LBE131:
 251:Middlewares/lvgl/src/core/lv_obj_pos.c **** 
 252:Middlewares/lvgl/src/core/lv_obj_pos.c ****     lv_obj_set_height(obj, h + ptop + pbottom + 2 * border_width);
ARM GAS  /tmp/ccmgRVpn.s 			page 18


 401              		.loc 1 252 5 is_stmt 1 view .LVU98
 402              		.loc 1 252 30 is_stmt 0 view .LVU99
 403 002c E119     		adds	r1, r4, r7
 404              		.loc 1 252 37 view .LVU100
 405 002e 16FA81F1 		uxtah	r1, r6, r1
 406              		.loc 1 252 51 view .LVU101
 407 0032 4000     		lsls	r0, r0, #1
 408              	.LVL33:
 409              		.loc 1 252 51 view .LVU102
 410 0034 80B2     		uxth	r0, r0
 411              		.loc 1 252 47 view .LVU103
 412 0036 10FA81F1 		uxtah	r1, r0, r1
 413              		.loc 1 252 5 view .LVU104
 414 003a 09B2     		sxth	r1, r1
 415 003c 2846     		mov	r0, r5
 416 003e FFF7FEFF 		bl	lv_obj_set_height
 417              	.LVL34:
 253:Middlewares/lvgl/src/core/lv_obj_pos.c **** }
 418              		.loc 1 253 1 view .LVU105
 419 0042 F8BD     		pop	{r3, r4, r5, r6, r7, pc}
 420              		.loc 1 253 1 view .LVU106
 421              		.cfi_endproc
 422              	.LFE161:
 424              		.section	.text.lv_obj_is_layout_positioned,"ax",%progbits
 425              		.align	1
 426              		.global	lv_obj_is_layout_positioned
 427              		.syntax unified
 428              		.thumb
 429              		.thumb_func
 431              	lv_obj_is_layout_positioned:
 432              	.LVL35:
 433              	.LFB163:
 254:Middlewares/lvgl/src/core/lv_obj_pos.c **** 
 255:Middlewares/lvgl/src/core/lv_obj_pos.c **** void lv_obj_set_layout(lv_obj_t * obj, uint32_t layout)
 256:Middlewares/lvgl/src/core/lv_obj_pos.c **** {
 257:Middlewares/lvgl/src/core/lv_obj_pos.c ****     LV_ASSERT_OBJ(obj, MY_CLASS);
 258:Middlewares/lvgl/src/core/lv_obj_pos.c **** 
 259:Middlewares/lvgl/src/core/lv_obj_pos.c ****     lv_obj_set_style_layout(obj, layout, 0);
 260:Middlewares/lvgl/src/core/lv_obj_pos.c **** 
 261:Middlewares/lvgl/src/core/lv_obj_pos.c ****     lv_obj_mark_layout_as_dirty(obj);
 262:Middlewares/lvgl/src/core/lv_obj_pos.c **** }
 263:Middlewares/lvgl/src/core/lv_obj_pos.c **** 
 264:Middlewares/lvgl/src/core/lv_obj_pos.c **** bool lv_obj_is_layout_positioned(const lv_obj_t * obj)
 265:Middlewares/lvgl/src/core/lv_obj_pos.c **** {
 434              		.loc 1 265 1 is_stmt 1 view -0
 435              		.cfi_startproc
 436              		@ args = 0, pretend = 0, frame = 0
 437              		@ frame_needed = 0, uses_anonymous_args = 0
 438              		.loc 1 265 1 is_stmt 0 view .LVU108
 439 0000 38B5     		push	{r3, r4, r5, lr}
 440              	.LCFI11:
 441              		.cfi_def_cfa_offset 16
 442              		.cfi_offset 3, -16
 443              		.cfi_offset 4, -12
 444              		.cfi_offset 5, -8
 445              		.cfi_offset 14, -4
 446 0002 0446     		mov	r4, r0
ARM GAS  /tmp/ccmgRVpn.s 			page 19


 266:Middlewares/lvgl/src/core/lv_obj_pos.c ****     if(lv_obj_has_flag_any(obj, LV_OBJ_FLAG_HIDDEN | LV_OBJ_FLAG_IGNORE_LAYOUT | LV_OBJ_FLAG_FLOATI
 447              		.loc 1 266 5 is_stmt 1 view .LVU109
 448              		.loc 1 266 8 is_stmt 0 view .LVU110
 449 0004 0B49     		ldr	r1, .L24
 450 0006 FFF7FEFF 		bl	lv_obj_has_flag_any
 451              	.LVL36:
 452              		.loc 1 266 7 view .LVU111
 453 000a 10B1     		cbz	r0, .L23
 454              		.loc 1 266 112 view .LVU112
 455 000c 0025     		movs	r5, #0
 456              	.L20:
 267:Middlewares/lvgl/src/core/lv_obj_pos.c **** 
 268:Middlewares/lvgl/src/core/lv_obj_pos.c ****     lv_obj_t * parent = lv_obj_get_parent(obj);
 269:Middlewares/lvgl/src/core/lv_obj_pos.c ****     if(parent == NULL) return false;
 270:Middlewares/lvgl/src/core/lv_obj_pos.c **** 
 271:Middlewares/lvgl/src/core/lv_obj_pos.c ****     uint32_t layout = lv_obj_get_style_layout(parent, LV_PART_MAIN);
 272:Middlewares/lvgl/src/core/lv_obj_pos.c ****     if(layout) return true;
 273:Middlewares/lvgl/src/core/lv_obj_pos.c ****     else return false;
 274:Middlewares/lvgl/src/core/lv_obj_pos.c **** }
 457              		.loc 1 274 1 view .LVU113
 458 000e 2846     		mov	r0, r5
 459 0010 38BD     		pop	{r3, r4, r5, pc}
 460              	.LVL37:
 461              	.L23:
 462              		.loc 1 274 1 view .LVU114
 463 0012 0546     		mov	r5, r0
 268:Middlewares/lvgl/src/core/lv_obj_pos.c ****     if(parent == NULL) return false;
 464              		.loc 1 268 5 is_stmt 1 view .LVU115
 268:Middlewares/lvgl/src/core/lv_obj_pos.c ****     if(parent == NULL) return false;
 465              		.loc 1 268 25 is_stmt 0 view .LVU116
 466 0014 2046     		mov	r0, r4
 467 0016 FFF7FEFF 		bl	lv_obj_get_parent
 468              	.LVL38:
 269:Middlewares/lvgl/src/core/lv_obj_pos.c **** 
 469              		.loc 1 269 5 is_stmt 1 view .LVU117
 269:Middlewares/lvgl/src/core/lv_obj_pos.c **** 
 470              		.loc 1 269 7 is_stmt 0 view .LVU118
 471 001a 0028     		cmp	r0, #0
 472 001c F7D0     		beq	.L20
 271:Middlewares/lvgl/src/core/lv_obj_pos.c ****     if(layout) return true;
 473              		.loc 1 271 5 is_stmt 1 view .LVU119
 474              	.LVL39:
 475              	.LBB133:
 476              	.LBI133:
 181:Middlewares/lvgl/src/core/lv_obj_style_gen.h **** {
 477              		.loc 2 181 24 view .LVU120
 478              	.LBB134:
 183:Middlewares/lvgl/src/core/lv_obj_style_gen.h ****     return (uint16_t)v.num;
 479              		.loc 2 183 5 view .LVU121
 183:Middlewares/lvgl/src/core/lv_obj_style_gen.h ****     return (uint16_t)v.num;
 480              		.loc 2 183 26 is_stmt 0 view .LVU122
 481 001e 41F26902 		movw	r2, #4201
 482 0022 0021     		movs	r1, #0
 483 0024 FFF7FEFF 		bl	lv_obj_get_style_prop
 484              	.LVL40:
 184:Middlewares/lvgl/src/core/lv_obj_style_gen.h **** }
 485              		.loc 2 184 5 is_stmt 1 view .LVU123
ARM GAS  /tmp/ccmgRVpn.s 			page 20


 184:Middlewares/lvgl/src/core/lv_obj_style_gen.h **** }
 486              		.loc 2 184 5 is_stmt 0 view .LVU124
 487              	.LBE134:
 488              	.LBE133:
 272:Middlewares/lvgl/src/core/lv_obj_pos.c ****     else return false;
 489              		.loc 1 272 5 is_stmt 1 view .LVU125
 272:Middlewares/lvgl/src/core/lv_obj_pos.c ****     else return false;
 490              		.loc 1 272 7 is_stmt 0 view .LVU126
 491 0028 80B2     		uxth	r0, r0
 492              	.LVL41:
 272:Middlewares/lvgl/src/core/lv_obj_pos.c ****     else return false;
 493              		.loc 1 272 7 view .LVU127
 494 002a 0028     		cmp	r0, #0
 495 002c EFD0     		beq	.L20
 272:Middlewares/lvgl/src/core/lv_obj_pos.c ****     else return false;
 496              		.loc 1 272 23 view .LVU128
 497 002e 0125     		movs	r5, #1
 498 0030 EDE7     		b	.L20
 499              	.L25:
 500 0032 00BF     		.align	2
 501              	.L24:
 502 0034 01800100 		.word	98305
 503              		.cfi_endproc
 504              	.LFE163:
 506              		.section	.text.lv_obj_set_x,"ax",%progbits
 507              		.align	1
 508              		.global	lv_obj_set_x
 509              		.syntax unified
 510              		.thumb
 511              		.thumb_func
 513              	lv_obj_set_x:
 514              	.LVL42:
 515              	.LFB154:
  51:Middlewares/lvgl/src/core/lv_obj_pos.c ****     LV_ASSERT_OBJ(obj, MY_CLASS);
 516              		.loc 1 51 1 is_stmt 1 view -0
 517              		.cfi_startproc
 518              		@ args = 0, pretend = 0, frame = 8
 519              		@ frame_needed = 0, uses_anonymous_args = 0
  51:Middlewares/lvgl/src/core/lv_obj_pos.c ****     LV_ASSERT_OBJ(obj, MY_CLASS);
 520              		.loc 1 51 1 is_stmt 0 view .LVU130
 521 0000 30B5     		push	{r4, r5, lr}
 522              	.LCFI12:
 523              		.cfi_def_cfa_offset 12
 524              		.cfi_offset 4, -12
 525              		.cfi_offset 5, -8
 526              		.cfi_offset 14, -4
 527 0002 83B0     		sub	sp, sp, #12
 528              	.LCFI13:
 529              		.cfi_def_cfa_offset 24
 530 0004 0446     		mov	r4, r0
 531 0006 0D46     		mov	r5, r1
  52:Middlewares/lvgl/src/core/lv_obj_pos.c ****     if(lv_obj_is_layout_positioned(obj)) {
 532              		.loc 1 52 5 is_stmt 1 view .LVU131
  52:Middlewares/lvgl/src/core/lv_obj_pos.c ****     if(lv_obj_is_layout_positioned(obj)) {
 533              		.loc 1 52 5 view .LVU132
  52:Middlewares/lvgl/src/core/lv_obj_pos.c ****     if(lv_obj_is_layout_positioned(obj)) {
 534              		.loc 1 52 5 view .LVU133
ARM GAS  /tmp/ccmgRVpn.s 			page 21


  53:Middlewares/lvgl/src/core/lv_obj_pos.c ****         return;
 535              		.loc 1 53 5 view .LVU134
  53:Middlewares/lvgl/src/core/lv_obj_pos.c ****         return;
 536              		.loc 1 53 8 is_stmt 0 view .LVU135
 537 0008 FFF7FEFF 		bl	lv_obj_is_layout_positioned
 538              	.LVL43:
  53:Middlewares/lvgl/src/core/lv_obj_pos.c ****         return;
 539              		.loc 1 53 7 view .LVU136
 540 000c 08B1     		cbz	r0, .L33
 541              	.L26:
  65:Middlewares/lvgl/src/core/lv_obj_pos.c **** 
 542              		.loc 1 65 1 view .LVU137
 543 000e 03B0     		add	sp, sp, #12
 544              	.LCFI14:
 545              		.cfi_remember_state
 546              		.cfi_def_cfa_offset 12
 547              		@ sp needed
 548 0010 30BD     		pop	{r4, r5, pc}
 549              	.LVL44:
 550              	.L33:
 551              	.LCFI15:
 552              		.cfi_restore_state
  57:Middlewares/lvgl/src/core/lv_obj_pos.c ****     lv_style_value_t v_x;
 553              		.loc 1 57 5 is_stmt 1 view .LVU138
  58:Middlewares/lvgl/src/core/lv_obj_pos.c **** 
 554              		.loc 1 58 5 view .LVU139
  60:Middlewares/lvgl/src/core/lv_obj_pos.c **** 
 555              		.loc 1 60 5 view .LVU140
  60:Middlewares/lvgl/src/core/lv_obj_pos.c **** 
 556              		.loc 1 60 13 is_stmt 0 view .LVU141
 557 0012 0023     		movs	r3, #0
 558 0014 01AA     		add	r2, sp, #4
 559 0016 41F20701 		movw	r1, #4103
 560 001a 2046     		mov	r0, r4
 561 001c FFF7FEFF 		bl	lv_obj_get_local_style_prop
 562              	.LVL45:
  62:Middlewares/lvgl/src/core/lv_obj_pos.c ****         lv_obj_set_style_x(obj, x, 0);
 563              		.loc 1 62 5 is_stmt 1 view .LVU142
  62:Middlewares/lvgl/src/core/lv_obj_pos.c ****         lv_obj_set_style_x(obj, x, 0);
 564              		.loc 1 62 7 is_stmt 0 view .LVU143
 565 0020 0128     		cmp	r0, #1
 566 0022 07D0     		beq	.L34
 567              	.L29:
  62:Middlewares/lvgl/src/core/lv_obj_pos.c ****         lv_obj_set_style_x(obj, x, 0);
 568              		.loc 1 62 45 discriminator 3 view .LVU144
 569 0024 0028     		cmp	r0, #0
 570 0026 F2D1     		bne	.L26
 571              	.L30:
  63:Middlewares/lvgl/src/core/lv_obj_pos.c ****     }
 572              		.loc 1 63 9 is_stmt 1 view .LVU145
 573 0028 0022     		movs	r2, #0
 574 002a 2946     		mov	r1, r5
 575 002c 2046     		mov	r0, r4
 576              	.LVL46:
  63:Middlewares/lvgl/src/core/lv_obj_pos.c ****     }
 577              		.loc 1 63 9 is_stmt 0 view .LVU146
 578 002e FFF7FEFF 		bl	lv_obj_set_style_x
ARM GAS  /tmp/ccmgRVpn.s 			page 22


 579              	.LVL47:
 580 0032 ECE7     		b	.L26
 581              	.LVL48:
 582              	.L34:
  62:Middlewares/lvgl/src/core/lv_obj_pos.c ****         lv_obj_set_style_x(obj, x, 0);
 583              		.loc 1 62 34 discriminator 1 view .LVU147
 584 0034 019B     		ldr	r3, [sp, #4]
  62:Middlewares/lvgl/src/core/lv_obj_pos.c ****         lv_obj_set_style_x(obj, x, 0);
 585              		.loc 1 62 28 discriminator 1 view .LVU148
 586 0036 AB42     		cmp	r3, r5
 587 0038 F6D1     		bne	.L30
 588 003a F3E7     		b	.L29
 589              		.cfi_endproc
 590              	.LFE154:
 592              		.section	.text.lv_obj_set_y,"ax",%progbits
 593              		.align	1
 594              		.global	lv_obj_set_y
 595              		.syntax unified
 596              		.thumb
 597              		.thumb_func
 599              	lv_obj_set_y:
 600              	.LVL49:
 601              	.LFB155:
  68:Middlewares/lvgl/src/core/lv_obj_pos.c ****     if(lv_obj_is_layout_positioned(obj)) {
 602              		.loc 1 68 1 is_stmt 1 view -0
 603              		.cfi_startproc
 604              		@ args = 0, pretend = 0, frame = 8
 605              		@ frame_needed = 0, uses_anonymous_args = 0
  68:Middlewares/lvgl/src/core/lv_obj_pos.c ****     if(lv_obj_is_layout_positioned(obj)) {
 606              		.loc 1 68 1 is_stmt 0 view .LVU150
 607 0000 30B5     		push	{r4, r5, lr}
 608              	.LCFI16:
 609              		.cfi_def_cfa_offset 12
 610              		.cfi_offset 4, -12
 611              		.cfi_offset 5, -8
 612              		.cfi_offset 14, -4
 613 0002 83B0     		sub	sp, sp, #12
 614              	.LCFI17:
 615              		.cfi_def_cfa_offset 24
 616 0004 0446     		mov	r4, r0
 617 0006 0D46     		mov	r5, r1
  69:Middlewares/lvgl/src/core/lv_obj_pos.c ****         return;
 618              		.loc 1 69 5 is_stmt 1 view .LVU151
  69:Middlewares/lvgl/src/core/lv_obj_pos.c ****         return;
 619              		.loc 1 69 8 is_stmt 0 view .LVU152
 620 0008 FFF7FEFF 		bl	lv_obj_is_layout_positioned
 621              	.LVL50:
  69:Middlewares/lvgl/src/core/lv_obj_pos.c ****         return;
 622              		.loc 1 69 7 view .LVU153
 623 000c 08B1     		cbz	r0, .L42
 624              	.L35:
  82:Middlewares/lvgl/src/core/lv_obj_pos.c **** 
 625              		.loc 1 82 1 view .LVU154
 626 000e 03B0     		add	sp, sp, #12
 627              	.LCFI18:
 628              		.cfi_remember_state
 629              		.cfi_def_cfa_offset 12
ARM GAS  /tmp/ccmgRVpn.s 			page 23


 630              		@ sp needed
 631 0010 30BD     		pop	{r4, r5, pc}
 632              	.LVL51:
 633              	.L42:
 634              	.LCFI19:
 635              		.cfi_restore_state
  72:Middlewares/lvgl/src/core/lv_obj_pos.c **** 
 636              		.loc 1 72 5 is_stmt 1 view .LVU155
  72:Middlewares/lvgl/src/core/lv_obj_pos.c **** 
 637              		.loc 1 72 5 view .LVU156
  72:Middlewares/lvgl/src/core/lv_obj_pos.c **** 
 638              		.loc 1 72 5 view .LVU157
  74:Middlewares/lvgl/src/core/lv_obj_pos.c ****     lv_style_value_t v_y;
 639              		.loc 1 74 5 view .LVU158
  75:Middlewares/lvgl/src/core/lv_obj_pos.c **** 
 640              		.loc 1 75 5 view .LVU159
  77:Middlewares/lvgl/src/core/lv_obj_pos.c **** 
 641              		.loc 1 77 5 view .LVU160
  77:Middlewares/lvgl/src/core/lv_obj_pos.c **** 
 642              		.loc 1 77 13 is_stmt 0 view .LVU161
 643 0012 0023     		movs	r3, #0
 644 0014 01AA     		add	r2, sp, #4
 645 0016 41F20801 		movw	r1, #4104
 646 001a 2046     		mov	r0, r4
 647 001c FFF7FEFF 		bl	lv_obj_get_local_style_prop
 648              	.LVL52:
  79:Middlewares/lvgl/src/core/lv_obj_pos.c ****         lv_obj_set_style_y(obj, y, 0);
 649              		.loc 1 79 5 is_stmt 1 view .LVU162
  79:Middlewares/lvgl/src/core/lv_obj_pos.c ****         lv_obj_set_style_y(obj, y, 0);
 650              		.loc 1 79 7 is_stmt 0 view .LVU163
 651 0020 0128     		cmp	r0, #1
 652 0022 07D0     		beq	.L43
 653              	.L38:
  79:Middlewares/lvgl/src/core/lv_obj_pos.c ****         lv_obj_set_style_y(obj, y, 0);
 654              		.loc 1 79 45 discriminator 3 view .LVU164
 655 0024 0028     		cmp	r0, #0
 656 0026 F2D1     		bne	.L35
 657              	.L39:
  80:Middlewares/lvgl/src/core/lv_obj_pos.c ****     }
 658              		.loc 1 80 9 is_stmt 1 view .LVU165
 659 0028 0022     		movs	r2, #0
 660 002a 2946     		mov	r1, r5
 661 002c 2046     		mov	r0, r4
 662              	.LVL53:
  80:Middlewares/lvgl/src/core/lv_obj_pos.c ****     }
 663              		.loc 1 80 9 is_stmt 0 view .LVU166
 664 002e FFF7FEFF 		bl	lv_obj_set_style_y
 665              	.LVL54:
 666 0032 ECE7     		b	.L35
 667              	.LVL55:
 668              	.L43:
  79:Middlewares/lvgl/src/core/lv_obj_pos.c ****         lv_obj_set_style_y(obj, y, 0);
 669              		.loc 1 79 34 discriminator 1 view .LVU167
 670 0034 019B     		ldr	r3, [sp, #4]
  79:Middlewares/lvgl/src/core/lv_obj_pos.c ****         lv_obj_set_style_y(obj, y, 0);
 671              		.loc 1 79 28 discriminator 1 view .LVU168
 672 0036 AB42     		cmp	r3, r5
ARM GAS  /tmp/ccmgRVpn.s 			page 24


 673 0038 F6D1     		bne	.L39
 674 003a F3E7     		b	.L38
 675              		.cfi_endproc
 676              	.LFE155:
 678              		.section	.text.lv_obj_set_pos,"ax",%progbits
 679              		.align	1
 680              		.global	lv_obj_set_pos
 681              		.syntax unified
 682              		.thumb
 683              		.thumb_func
 685              	lv_obj_set_pos:
 686              	.LVL56:
 687              	.LFB153:
  43:Middlewares/lvgl/src/core/lv_obj_pos.c ****     LV_ASSERT_OBJ(obj, MY_CLASS);
 688              		.loc 1 43 1 is_stmt 1 view -0
 689              		.cfi_startproc
 690              		@ args = 0, pretend = 0, frame = 0
 691              		@ frame_needed = 0, uses_anonymous_args = 0
  43:Middlewares/lvgl/src/core/lv_obj_pos.c ****     LV_ASSERT_OBJ(obj, MY_CLASS);
 692              		.loc 1 43 1 is_stmt 0 view .LVU170
 693 0000 38B5     		push	{r3, r4, r5, lr}
 694              	.LCFI20:
 695              		.cfi_def_cfa_offset 16
 696              		.cfi_offset 3, -16
 697              		.cfi_offset 4, -12
 698              		.cfi_offset 5, -8
 699              		.cfi_offset 14, -4
 700 0002 0446     		mov	r4, r0
 701 0004 1546     		mov	r5, r2
  44:Middlewares/lvgl/src/core/lv_obj_pos.c **** 
 702              		.loc 1 44 5 is_stmt 1 view .LVU171
  44:Middlewares/lvgl/src/core/lv_obj_pos.c **** 
 703              		.loc 1 44 5 view .LVU172
  44:Middlewares/lvgl/src/core/lv_obj_pos.c **** 
 704              		.loc 1 44 5 view .LVU173
  46:Middlewares/lvgl/src/core/lv_obj_pos.c ****     lv_obj_set_y(obj, y);
 705              		.loc 1 46 5 view .LVU174
 706 0006 FFF7FEFF 		bl	lv_obj_set_x
 707              	.LVL57:
  47:Middlewares/lvgl/src/core/lv_obj_pos.c **** }
 708              		.loc 1 47 5 view .LVU175
 709 000a 2946     		mov	r1, r5
 710 000c 2046     		mov	r0, r4
 711 000e FFF7FEFF 		bl	lv_obj_set_y
 712              	.LVL58:
  48:Middlewares/lvgl/src/core/lv_obj_pos.c **** 
 713              		.loc 1 48 1 is_stmt 0 view .LVU176
 714 0012 38BD     		pop	{r3, r4, r5, pc}
  48:Middlewares/lvgl/src/core/lv_obj_pos.c **** 
 715              		.loc 1 48 1 view .LVU177
 716              		.cfi_endproc
 717              	.LFE153:
 719              		.section	.text.lv_obj_mark_layout_as_dirty,"ax",%progbits
 720              		.align	1
 721              		.global	lv_obj_mark_layout_as_dirty
 722              		.syntax unified
 723              		.thumb
ARM GAS  /tmp/ccmgRVpn.s 			page 25


 724              		.thumb_func
 726              	lv_obj_mark_layout_as_dirty:
 727              	.LVL59:
 728              	.LFB164:
 275:Middlewares/lvgl/src/core/lv_obj_pos.c **** 
 276:Middlewares/lvgl/src/core/lv_obj_pos.c **** void lv_obj_mark_layout_as_dirty(lv_obj_t * obj)
 277:Middlewares/lvgl/src/core/lv_obj_pos.c **** {
 729              		.loc 1 277 1 is_stmt 1 view -0
 730              		.cfi_startproc
 731              		@ args = 0, pretend = 0, frame = 0
 732              		@ frame_needed = 0, uses_anonymous_args = 0
 733              		.loc 1 277 1 is_stmt 0 view .LVU179
 734 0000 08B5     		push	{r3, lr}
 735              	.LCFI21:
 736              		.cfi_def_cfa_offset 8
 737              		.cfi_offset 3, -8
 738              		.cfi_offset 14, -4
 278:Middlewares/lvgl/src/core/lv_obj_pos.c ****     obj->layout_inv = 1;
 739              		.loc 1 278 5 is_stmt 1 view .LVU180
 740              		.loc 1 278 21 is_stmt 0 view .LVU181
 741 0002 90F82220 		ldrb	r2, [r0, #34]	@ zero_extendqisi2
 742 0006 42F00102 		orr	r2, r2, #1
 743 000a 80F82220 		strb	r2, [r0, #34]
 279:Middlewares/lvgl/src/core/lv_obj_pos.c **** 
 280:Middlewares/lvgl/src/core/lv_obj_pos.c ****     /*Mark the screen as dirty too to mark that there is an something to do on this screen*/
 281:Middlewares/lvgl/src/core/lv_obj_pos.c ****     lv_obj_t * scr = lv_obj_get_screen(obj);
 744              		.loc 1 281 5 is_stmt 1 view .LVU182
 745              		.loc 1 281 22 is_stmt 0 view .LVU183
 746 000e FFF7FEFF 		bl	lv_obj_get_screen
 747              	.LVL60:
 282:Middlewares/lvgl/src/core/lv_obj_pos.c ****     scr->scr_layout_inv = 1;
 748              		.loc 1 282 5 is_stmt 1 view .LVU184
 749              		.loc 1 282 25 is_stmt 0 view .LVU185
 750 0012 90F82220 		ldrb	r2, [r0, #34]	@ zero_extendqisi2
 751 0016 42F00202 		orr	r2, r2, #2
 752 001a 80F82220 		strb	r2, [r0, #34]
 283:Middlewares/lvgl/src/core/lv_obj_pos.c **** 
 284:Middlewares/lvgl/src/core/lv_obj_pos.c ****     /*Make the display refreshing*/
 285:Middlewares/lvgl/src/core/lv_obj_pos.c ****     lv_disp_t * disp = lv_obj_get_disp(scr);
 753              		.loc 1 285 5 is_stmt 1 view .LVU186
 754              		.loc 1 285 24 is_stmt 0 view .LVU187
 755 001e FFF7FEFF 		bl	lv_obj_get_disp
 756              	.LVL61:
 286:Middlewares/lvgl/src/core/lv_obj_pos.c ****     lv_timer_resume(disp->refr_timer);
 757              		.loc 1 286 5 is_stmt 1 view .LVU188
 758 0022 4068     		ldr	r0, [r0, #4]
 759              	.LVL62:
 760              		.loc 1 286 5 is_stmt 0 view .LVU189
 761 0024 FFF7FEFF 		bl	lv_timer_resume
 762              	.LVL63:
 287:Middlewares/lvgl/src/core/lv_obj_pos.c **** }
 763              		.loc 1 287 1 view .LVU190
 764 0028 08BD     		pop	{r3, pc}
 765              		.cfi_endproc
 766              	.LFE164:
 768              		.section	.text.lv_obj_set_layout,"ax",%progbits
 769              		.align	1
ARM GAS  /tmp/ccmgRVpn.s 			page 26


 770              		.global	lv_obj_set_layout
 771              		.syntax unified
 772              		.thumb
 773              		.thumb_func
 775              	lv_obj_set_layout:
 776              	.LVL64:
 777              	.LFB162:
 256:Middlewares/lvgl/src/core/lv_obj_pos.c ****     LV_ASSERT_OBJ(obj, MY_CLASS);
 778              		.loc 1 256 1 is_stmt 1 view -0
 779              		.cfi_startproc
 780              		@ args = 0, pretend = 0, frame = 0
 781              		@ frame_needed = 0, uses_anonymous_args = 0
 256:Middlewares/lvgl/src/core/lv_obj_pos.c ****     LV_ASSERT_OBJ(obj, MY_CLASS);
 782              		.loc 1 256 1 is_stmt 0 view .LVU192
 783 0000 10B5     		push	{r4, lr}
 784              	.LCFI22:
 785              		.cfi_def_cfa_offset 8
 786              		.cfi_offset 4, -8
 787              		.cfi_offset 14, -4
 788 0002 0446     		mov	r4, r0
 257:Middlewares/lvgl/src/core/lv_obj_pos.c **** 
 789              		.loc 1 257 5 is_stmt 1 view .LVU193
 257:Middlewares/lvgl/src/core/lv_obj_pos.c **** 
 790              		.loc 1 257 5 view .LVU194
 257:Middlewares/lvgl/src/core/lv_obj_pos.c **** 
 791              		.loc 1 257 5 view .LVU195
 259:Middlewares/lvgl/src/core/lv_obj_pos.c **** 
 792              		.loc 1 259 5 view .LVU196
 793 0004 0022     		movs	r2, #0
 794 0006 89B2     		uxth	r1, r1
 795              	.LVL65:
 259:Middlewares/lvgl/src/core/lv_obj_pos.c **** 
 796              		.loc 1 259 5 is_stmt 0 view .LVU197
 797 0008 FFF7FEFF 		bl	lv_obj_set_style_layout
 798              	.LVL66:
 261:Middlewares/lvgl/src/core/lv_obj_pos.c **** }
 799              		.loc 1 261 5 is_stmt 1 view .LVU198
 800 000c 2046     		mov	r0, r4
 801 000e FFF7FEFF 		bl	lv_obj_mark_layout_as_dirty
 802              	.LVL67:
 262:Middlewares/lvgl/src/core/lv_obj_pos.c **** 
 803              		.loc 1 262 1 is_stmt 0 view .LVU199
 804 0012 10BD     		pop	{r4, pc}
 262:Middlewares/lvgl/src/core/lv_obj_pos.c **** 
 805              		.loc 1 262 1 view .LVU200
 806              		.cfi_endproc
 807              	.LFE162:
 809              		.section	.text.lv_layout_register,"ax",%progbits
 810              		.align	1
 811              		.global	lv_layout_register
 812              		.syntax unified
 813              		.thumb
 814              		.thumb_func
 816              	lv_layout_register:
 817              	.LVL68:
 818              	.LFB166:
 288:Middlewares/lvgl/src/core/lv_obj_pos.c **** 
ARM GAS  /tmp/ccmgRVpn.s 			page 27


 289:Middlewares/lvgl/src/core/lv_obj_pos.c **** void lv_obj_update_layout(const lv_obj_t * obj)
 290:Middlewares/lvgl/src/core/lv_obj_pos.c **** {
 291:Middlewares/lvgl/src/core/lv_obj_pos.c ****     static bool mutex = false;
 292:Middlewares/lvgl/src/core/lv_obj_pos.c ****     if(mutex) {
 293:Middlewares/lvgl/src/core/lv_obj_pos.c ****         LV_LOG_TRACE("Already running, returning")
 294:Middlewares/lvgl/src/core/lv_obj_pos.c ****         return;
 295:Middlewares/lvgl/src/core/lv_obj_pos.c ****     }
 296:Middlewares/lvgl/src/core/lv_obj_pos.c ****     mutex = true;
 297:Middlewares/lvgl/src/core/lv_obj_pos.c **** 
 298:Middlewares/lvgl/src/core/lv_obj_pos.c ****     lv_obj_t * scr = lv_obj_get_screen(obj);
 299:Middlewares/lvgl/src/core/lv_obj_pos.c **** 
 300:Middlewares/lvgl/src/core/lv_obj_pos.c ****     /*Repeat until there where layout invalidations*/
 301:Middlewares/lvgl/src/core/lv_obj_pos.c ****     while(scr->scr_layout_inv) {
 302:Middlewares/lvgl/src/core/lv_obj_pos.c ****         LV_LOG_INFO("Layout update begin")
 303:Middlewares/lvgl/src/core/lv_obj_pos.c ****         scr->scr_layout_inv = 0;
 304:Middlewares/lvgl/src/core/lv_obj_pos.c ****         layout_update_core(scr);
 305:Middlewares/lvgl/src/core/lv_obj_pos.c ****         LV_LOG_TRACE("Layout update end")
 306:Middlewares/lvgl/src/core/lv_obj_pos.c ****     }
 307:Middlewares/lvgl/src/core/lv_obj_pos.c **** 
 308:Middlewares/lvgl/src/core/lv_obj_pos.c ****     mutex = false;
 309:Middlewares/lvgl/src/core/lv_obj_pos.c **** }
 310:Middlewares/lvgl/src/core/lv_obj_pos.c **** 
 311:Middlewares/lvgl/src/core/lv_obj_pos.c **** uint32_t lv_layout_register(lv_layout_update_cb_t cb, void * user_data)
 312:Middlewares/lvgl/src/core/lv_obj_pos.c **** {
 819              		.loc 1 312 1 is_stmt 1 view -0
 820              		.cfi_startproc
 821              		@ args = 0, pretend = 0, frame = 0
 822              		@ frame_needed = 0, uses_anonymous_args = 0
 823              		.loc 1 312 1 is_stmt 0 view .LVU202
 824 0000 70B5     		push	{r4, r5, r6, lr}
 825              	.LCFI23:
 826              		.cfi_def_cfa_offset 16
 827              		.cfi_offset 4, -16
 828              		.cfi_offset 5, -12
 829              		.cfi_offset 6, -8
 830              		.cfi_offset 14, -4
 831 0002 0546     		mov	r5, r0
 832 0004 0C46     		mov	r4, r1
 313:Middlewares/lvgl/src/core/lv_obj_pos.c ****     layout_cnt++;
 833              		.loc 1 313 5 is_stmt 1 view .LVU203
 834              		.loc 1 313 15 is_stmt 0 view .LVU204
 835 0006 0D4A     		ldr	r2, .L54
 836 0008 1368     		ldr	r3, [r2]
 837 000a 0133     		adds	r3, r3, #1
 838 000c 1360     		str	r3, [r2]
 314:Middlewares/lvgl/src/core/lv_obj_pos.c ****     LV_GC_ROOT(_lv_layout_list) = lv_mem_realloc(LV_GC_ROOT(_lv_layout_list), layout_cnt * sizeof(l
 839              		.loc 1 314 5 is_stmt 1 view .LVU205
 840              		.loc 1 314 35 is_stmt 0 view .LVU206
 841 000e 0C4E     		ldr	r6, .L54+4
 842 0010 D900     		lsls	r1, r3, #3
 843              	.LVL69:
 844              		.loc 1 314 35 view .LVU207
 845 0012 3068     		ldr	r0, [r6]
 846              	.LVL70:
 847              		.loc 1 314 35 view .LVU208
 848 0014 FFF7FEFF 		bl	lv_mem_realloc
 849              	.LVL71:
ARM GAS  /tmp/ccmgRVpn.s 			page 28


 850              		.loc 1 314 33 view .LVU209
 851 0018 3060     		str	r0, [r6]
 315:Middlewares/lvgl/src/core/lv_obj_pos.c ****     LV_ASSERT_MALLOC(LV_GC_ROOT(_lv_layout_list));
 852              		.loc 1 315 5 is_stmt 1 view .LVU210
 853              		.loc 1 315 5 view .LVU211
 854 001a 68B1     		cbz	r0, .L52
 855 001c 0346     		mov	r3, r0
 856              		.loc 1 315 5 discriminator 2 view .LVU212
 857              		.loc 1 315 50 discriminator 2 view .LVU213
 316:Middlewares/lvgl/src/core/lv_obj_pos.c **** 
 317:Middlewares/lvgl/src/core/lv_obj_pos.c ****     LV_GC_ROOT(_lv_layout_list)[layout_cnt - 1].cb = cb;
 858              		.loc 1 317 5 discriminator 2 view .LVU214
 859              		.loc 1 317 32 is_stmt 0 discriminator 2 view .LVU215
 860 001e 074A     		ldr	r2, .L54
 861 0020 1068     		ldr	r0, [r2]
 862 0022 00F10052 		add	r2, r0, #536870912
 863 0026 013A     		subs	r2, r2, #1
 864              		.loc 1 317 52 discriminator 2 view .LVU216
 865 0028 43F83250 		str	r5, [r3, r2, lsl #3]
 318:Middlewares/lvgl/src/core/lv_obj_pos.c ****     LV_GC_ROOT(_lv_layout_list)[layout_cnt - 1].user_data = user_data;
 866              		.loc 1 318 5 is_stmt 1 discriminator 2 view .LVU217
 867              		.loc 1 318 32 is_stmt 0 discriminator 2 view .LVU218
 868 002c 044B     		ldr	r3, .L54+4
 869 002e 1B68     		ldr	r3, [r3]
 870 0030 03EBC202 		add	r2, r3, r2, lsl #3
 871              		.loc 1 318 59 discriminator 2 view .LVU219
 872 0034 5460     		str	r4, [r2, #4]
 319:Middlewares/lvgl/src/core/lv_obj_pos.c ****     return layout_cnt;  /*No -1 to skip 0th index*/
 873              		.loc 1 319 5 is_stmt 1 discriminator 2 view .LVU220
 320:Middlewares/lvgl/src/core/lv_obj_pos.c **** }
 874              		.loc 1 320 1 is_stmt 0 discriminator 2 view .LVU221
 875 0036 70BD     		pop	{r4, r5, r6, pc}
 876              	.LVL72:
 877              	.L52:
 315:Middlewares/lvgl/src/core/lv_obj_pos.c **** 
 878              		.loc 1 315 5 is_stmt 1 discriminator 1 view .LVU222
 315:Middlewares/lvgl/src/core/lv_obj_pos.c **** 
 879              		.loc 1 315 5 discriminator 1 view .LVU223
 315:Middlewares/lvgl/src/core/lv_obj_pos.c **** 
 880              		.loc 1 315 5 discriminator 1 view .LVU224
 315:Middlewares/lvgl/src/core/lv_obj_pos.c **** 
 881              		.loc 1 315 5 discriminator 1 view .LVU225
 882 0038 FEE7     		b	.L52
 883              	.L55:
 884 003a 00BF     		.align	2
 885              	.L54:
 886 003c 00000000 		.word	.LANCHOR0
 887 0040 00000000 		.word	_lv_layout_list
 888              		.cfi_endproc
 889              	.LFE166:
 891              		.section	.text.lv_obj_set_align,"ax",%progbits
 892              		.align	1
 893              		.global	lv_obj_set_align
 894              		.syntax unified
 895              		.thumb
 896              		.thumb_func
 898              	lv_obj_set_align:
ARM GAS  /tmp/ccmgRVpn.s 			page 29


 899              	.LVL73:
 900              	.LFB167:
 321:Middlewares/lvgl/src/core/lv_obj_pos.c **** 
 322:Middlewares/lvgl/src/core/lv_obj_pos.c **** void lv_obj_set_align(lv_obj_t * obj, lv_align_t align)
 323:Middlewares/lvgl/src/core/lv_obj_pos.c **** {
 901              		.loc 1 323 1 view -0
 902              		.cfi_startproc
 903              		@ args = 0, pretend = 0, frame = 0
 904              		@ frame_needed = 0, uses_anonymous_args = 0
 905              		.loc 1 323 1 is_stmt 0 view .LVU227
 906 0000 08B5     		push	{r3, lr}
 907              	.LCFI24:
 908              		.cfi_def_cfa_offset 8
 909              		.cfi_offset 3, -8
 910              		.cfi_offset 14, -4
 324:Middlewares/lvgl/src/core/lv_obj_pos.c ****     lv_obj_set_style_align(obj, align, 0);
 911              		.loc 1 324 5 is_stmt 1 view .LVU228
 912 0002 0022     		movs	r2, #0
 913 0004 FFF7FEFF 		bl	lv_obj_set_style_align
 914              	.LVL74:
 325:Middlewares/lvgl/src/core/lv_obj_pos.c **** }
 915              		.loc 1 325 1 is_stmt 0 view .LVU229
 916 0008 08BD     		pop	{r3, pc}
 917              		.cfi_endproc
 918              	.LFE167:
 920              		.section	.text.lv_obj_align,"ax",%progbits
 921              		.align	1
 922              		.global	lv_obj_align
 923              		.syntax unified
 924              		.thumb
 925              		.thumb_func
 927              	lv_obj_align:
 928              	.LVL75:
 929              	.LFB168:
 326:Middlewares/lvgl/src/core/lv_obj_pos.c **** 
 327:Middlewares/lvgl/src/core/lv_obj_pos.c **** void lv_obj_align(lv_obj_t * obj, lv_align_t align, lv_coord_t x_ofs, lv_coord_t y_ofs)
 328:Middlewares/lvgl/src/core/lv_obj_pos.c **** {
 930              		.loc 1 328 1 is_stmt 1 view -0
 931              		.cfi_startproc
 932              		@ args = 0, pretend = 0, frame = 0
 933              		@ frame_needed = 0, uses_anonymous_args = 0
 934              		.loc 1 328 1 is_stmt 0 view .LVU231
 935 0000 70B5     		push	{r4, r5, r6, lr}
 936              	.LCFI25:
 937              		.cfi_def_cfa_offset 16
 938              		.cfi_offset 4, -16
 939              		.cfi_offset 5, -12
 940              		.cfi_offset 6, -8
 941              		.cfi_offset 14, -4
 942 0002 0446     		mov	r4, r0
 943 0004 1546     		mov	r5, r2
 944 0006 1E46     		mov	r6, r3
 329:Middlewares/lvgl/src/core/lv_obj_pos.c ****     lv_obj_set_style_align(obj, align, 0);
 945              		.loc 1 329 5 is_stmt 1 view .LVU232
 946 0008 0022     		movs	r2, #0
 947              	.LVL76:
 948              		.loc 1 329 5 is_stmt 0 view .LVU233
ARM GAS  /tmp/ccmgRVpn.s 			page 30


 949 000a FFF7FEFF 		bl	lv_obj_set_style_align
 950              	.LVL77:
 330:Middlewares/lvgl/src/core/lv_obj_pos.c ****     lv_obj_set_pos(obj, x_ofs, y_ofs);
 951              		.loc 1 330 5 is_stmt 1 view .LVU234
 952 000e 3246     		mov	r2, r6
 953 0010 2946     		mov	r1, r5
 954 0012 2046     		mov	r0, r4
 955 0014 FFF7FEFF 		bl	lv_obj_set_pos
 956              	.LVL78:
 331:Middlewares/lvgl/src/core/lv_obj_pos.c **** }
 957              		.loc 1 331 1 is_stmt 0 view .LVU235
 958 0018 70BD     		pop	{r4, r5, r6, pc}
 959              		.loc 1 331 1 view .LVU236
 960              		.cfi_endproc
 961              	.LFE168:
 963              		.section	.text.lv_obj_get_coords,"ax",%progbits
 964              		.align	1
 965              		.global	lv_obj_get_coords
 966              		.syntax unified
 967              		.thumb
 968              		.thumb_func
 970              	lv_obj_get_coords:
 971              	.LVL79:
 972              	.LFB170:
 332:Middlewares/lvgl/src/core/lv_obj_pos.c **** 
 333:Middlewares/lvgl/src/core/lv_obj_pos.c **** void lv_obj_align_to(lv_obj_t * obj, const lv_obj_t * base, lv_align_t align, lv_coord_t x_ofs, lv_
 334:Middlewares/lvgl/src/core/lv_obj_pos.c **** {
 335:Middlewares/lvgl/src/core/lv_obj_pos.c ****     LV_ASSERT_OBJ(obj, MY_CLASS);
 336:Middlewares/lvgl/src/core/lv_obj_pos.c **** 
 337:Middlewares/lvgl/src/core/lv_obj_pos.c ****     lv_obj_update_layout(obj);
 338:Middlewares/lvgl/src/core/lv_obj_pos.c ****     if(base == NULL) base = lv_obj_get_parent(obj);
 339:Middlewares/lvgl/src/core/lv_obj_pos.c **** 
 340:Middlewares/lvgl/src/core/lv_obj_pos.c ****     LV_ASSERT_OBJ(base, MY_CLASS);
 341:Middlewares/lvgl/src/core/lv_obj_pos.c **** 
 342:Middlewares/lvgl/src/core/lv_obj_pos.c ****     lv_coord_t x = 0;
 343:Middlewares/lvgl/src/core/lv_obj_pos.c ****     lv_coord_t y = 0;
 344:Middlewares/lvgl/src/core/lv_obj_pos.c **** 
 345:Middlewares/lvgl/src/core/lv_obj_pos.c ****     lv_obj_t * parent = lv_obj_get_parent(obj);
 346:Middlewares/lvgl/src/core/lv_obj_pos.c ****     lv_coord_t pborder = lv_obj_get_style_border_width(parent, LV_PART_MAIN);
 347:Middlewares/lvgl/src/core/lv_obj_pos.c ****     lv_coord_t pleft = lv_obj_get_style_pad_left(parent, LV_PART_MAIN) + pborder;
 348:Middlewares/lvgl/src/core/lv_obj_pos.c ****     lv_coord_t ptop = lv_obj_get_style_pad_top(parent, LV_PART_MAIN) + pborder;
 349:Middlewares/lvgl/src/core/lv_obj_pos.c **** 
 350:Middlewares/lvgl/src/core/lv_obj_pos.c ****     lv_coord_t bborder = lv_obj_get_style_border_width(base, LV_PART_MAIN);
 351:Middlewares/lvgl/src/core/lv_obj_pos.c ****     lv_coord_t bleft = lv_obj_get_style_pad_left(base, LV_PART_MAIN) + bborder;
 352:Middlewares/lvgl/src/core/lv_obj_pos.c ****     lv_coord_t btop = lv_obj_get_style_pad_top(base, LV_PART_MAIN) + bborder;
 353:Middlewares/lvgl/src/core/lv_obj_pos.c **** 
 354:Middlewares/lvgl/src/core/lv_obj_pos.c ****     if(align == LV_ALIGN_DEFAULT) {
 355:Middlewares/lvgl/src/core/lv_obj_pos.c ****         if(lv_obj_get_style_base_dir(base, LV_PART_MAIN) == LV_BASE_DIR_RTL) align = LV_ALIGN_TOP_R
 356:Middlewares/lvgl/src/core/lv_obj_pos.c ****         else align = LV_ALIGN_TOP_LEFT;
 357:Middlewares/lvgl/src/core/lv_obj_pos.c ****     }
 358:Middlewares/lvgl/src/core/lv_obj_pos.c **** 
 359:Middlewares/lvgl/src/core/lv_obj_pos.c ****     switch(align) {
 360:Middlewares/lvgl/src/core/lv_obj_pos.c ****     case LV_ALIGN_CENTER:
 361:Middlewares/lvgl/src/core/lv_obj_pos.c ****         x = lv_obj_get_content_width(base) / 2 - lv_obj_get_width(obj) / 2 + bleft;
 362:Middlewares/lvgl/src/core/lv_obj_pos.c ****         y = lv_obj_get_content_height(base) / 2 - lv_obj_get_height(obj) / 2 + btop;
 363:Middlewares/lvgl/src/core/lv_obj_pos.c ****         break;
 364:Middlewares/lvgl/src/core/lv_obj_pos.c ****     case LV_ALIGN_TOP_LEFT:
ARM GAS  /tmp/ccmgRVpn.s 			page 31


 365:Middlewares/lvgl/src/core/lv_obj_pos.c ****         x = bleft;
 366:Middlewares/lvgl/src/core/lv_obj_pos.c ****         y = btop;
 367:Middlewares/lvgl/src/core/lv_obj_pos.c ****         break;
 368:Middlewares/lvgl/src/core/lv_obj_pos.c ****     case LV_ALIGN_TOP_MID:
 369:Middlewares/lvgl/src/core/lv_obj_pos.c ****         x = lv_obj_get_content_width(base) / 2 - lv_obj_get_width(obj) / 2 + bleft;
 370:Middlewares/lvgl/src/core/lv_obj_pos.c ****         y = btop;
 371:Middlewares/lvgl/src/core/lv_obj_pos.c ****         break;
 372:Middlewares/lvgl/src/core/lv_obj_pos.c **** 
 373:Middlewares/lvgl/src/core/lv_obj_pos.c ****     case LV_ALIGN_TOP_RIGHT:
 374:Middlewares/lvgl/src/core/lv_obj_pos.c ****         x = lv_obj_get_content_width(base) - lv_obj_get_width(obj) + bleft;
 375:Middlewares/lvgl/src/core/lv_obj_pos.c ****         y = btop;
 376:Middlewares/lvgl/src/core/lv_obj_pos.c ****         break;
 377:Middlewares/lvgl/src/core/lv_obj_pos.c **** 
 378:Middlewares/lvgl/src/core/lv_obj_pos.c ****     case LV_ALIGN_BOTTOM_LEFT:
 379:Middlewares/lvgl/src/core/lv_obj_pos.c ****         x = bleft;
 380:Middlewares/lvgl/src/core/lv_obj_pos.c ****         y = lv_obj_get_content_height(base) - lv_obj_get_height(obj) + btop;
 381:Middlewares/lvgl/src/core/lv_obj_pos.c ****         break;
 382:Middlewares/lvgl/src/core/lv_obj_pos.c ****     case LV_ALIGN_BOTTOM_MID:
 383:Middlewares/lvgl/src/core/lv_obj_pos.c ****         x = lv_obj_get_content_width(base) / 2 - lv_obj_get_width(obj) / 2 + bleft;
 384:Middlewares/lvgl/src/core/lv_obj_pos.c ****         y = lv_obj_get_content_height(base) - lv_obj_get_height(obj) + btop;
 385:Middlewares/lvgl/src/core/lv_obj_pos.c ****         break;
 386:Middlewares/lvgl/src/core/lv_obj_pos.c **** 
 387:Middlewares/lvgl/src/core/lv_obj_pos.c ****     case LV_ALIGN_BOTTOM_RIGHT:
 388:Middlewares/lvgl/src/core/lv_obj_pos.c ****         x = lv_obj_get_content_width(base) - lv_obj_get_width(obj) + bleft;
 389:Middlewares/lvgl/src/core/lv_obj_pos.c ****         y = lv_obj_get_content_height(base) - lv_obj_get_height(obj) + btop;
 390:Middlewares/lvgl/src/core/lv_obj_pos.c ****         break;
 391:Middlewares/lvgl/src/core/lv_obj_pos.c **** 
 392:Middlewares/lvgl/src/core/lv_obj_pos.c ****     case LV_ALIGN_LEFT_MID:
 393:Middlewares/lvgl/src/core/lv_obj_pos.c ****         x = bleft;
 394:Middlewares/lvgl/src/core/lv_obj_pos.c ****         y = lv_obj_get_content_height(base) / 2 - lv_obj_get_height(obj) / 2 + btop;
 395:Middlewares/lvgl/src/core/lv_obj_pos.c ****         break;
 396:Middlewares/lvgl/src/core/lv_obj_pos.c **** 
 397:Middlewares/lvgl/src/core/lv_obj_pos.c ****     case LV_ALIGN_RIGHT_MID:
 398:Middlewares/lvgl/src/core/lv_obj_pos.c ****         x = lv_obj_get_content_width(base) - lv_obj_get_width(obj) + bleft;
 399:Middlewares/lvgl/src/core/lv_obj_pos.c ****         y = lv_obj_get_content_height(base) / 2 - lv_obj_get_height(obj) / 2 + btop;
 400:Middlewares/lvgl/src/core/lv_obj_pos.c ****         break;
 401:Middlewares/lvgl/src/core/lv_obj_pos.c **** 
 402:Middlewares/lvgl/src/core/lv_obj_pos.c ****     case LV_ALIGN_OUT_TOP_LEFT:
 403:Middlewares/lvgl/src/core/lv_obj_pos.c ****         x = 0;
 404:Middlewares/lvgl/src/core/lv_obj_pos.c ****         y = -lv_obj_get_height(obj);
 405:Middlewares/lvgl/src/core/lv_obj_pos.c ****         break;
 406:Middlewares/lvgl/src/core/lv_obj_pos.c **** 
 407:Middlewares/lvgl/src/core/lv_obj_pos.c ****     case LV_ALIGN_OUT_TOP_MID:
 408:Middlewares/lvgl/src/core/lv_obj_pos.c ****         x = lv_obj_get_width(base) / 2 - lv_obj_get_width(obj) / 2;
 409:Middlewares/lvgl/src/core/lv_obj_pos.c ****         y = -lv_obj_get_height(obj);
 410:Middlewares/lvgl/src/core/lv_obj_pos.c ****         break;
 411:Middlewares/lvgl/src/core/lv_obj_pos.c **** 
 412:Middlewares/lvgl/src/core/lv_obj_pos.c ****     case LV_ALIGN_OUT_TOP_RIGHT:
 413:Middlewares/lvgl/src/core/lv_obj_pos.c ****         x = lv_obj_get_width(base) - lv_obj_get_width(obj);
 414:Middlewares/lvgl/src/core/lv_obj_pos.c ****         y = -lv_obj_get_height(obj);
 415:Middlewares/lvgl/src/core/lv_obj_pos.c ****         break;
 416:Middlewares/lvgl/src/core/lv_obj_pos.c **** 
 417:Middlewares/lvgl/src/core/lv_obj_pos.c ****     case LV_ALIGN_OUT_BOTTOM_LEFT:
 418:Middlewares/lvgl/src/core/lv_obj_pos.c ****         x = 0;
 419:Middlewares/lvgl/src/core/lv_obj_pos.c ****         y = lv_obj_get_height(base);
 420:Middlewares/lvgl/src/core/lv_obj_pos.c ****         break;
 421:Middlewares/lvgl/src/core/lv_obj_pos.c **** 
ARM GAS  /tmp/ccmgRVpn.s 			page 32


 422:Middlewares/lvgl/src/core/lv_obj_pos.c ****     case LV_ALIGN_OUT_BOTTOM_MID:
 423:Middlewares/lvgl/src/core/lv_obj_pos.c ****         x = lv_obj_get_width(base) / 2 - lv_obj_get_width(obj) / 2;
 424:Middlewares/lvgl/src/core/lv_obj_pos.c ****         y = lv_obj_get_height(base);
 425:Middlewares/lvgl/src/core/lv_obj_pos.c ****         break;
 426:Middlewares/lvgl/src/core/lv_obj_pos.c **** 
 427:Middlewares/lvgl/src/core/lv_obj_pos.c ****     case LV_ALIGN_OUT_BOTTOM_RIGHT:
 428:Middlewares/lvgl/src/core/lv_obj_pos.c ****         x = lv_obj_get_width(base) - lv_obj_get_width(obj);
 429:Middlewares/lvgl/src/core/lv_obj_pos.c ****         y = lv_obj_get_height(base);
 430:Middlewares/lvgl/src/core/lv_obj_pos.c ****         break;
 431:Middlewares/lvgl/src/core/lv_obj_pos.c **** 
 432:Middlewares/lvgl/src/core/lv_obj_pos.c ****     case LV_ALIGN_OUT_LEFT_TOP:
 433:Middlewares/lvgl/src/core/lv_obj_pos.c ****         x = -lv_obj_get_width(obj);
 434:Middlewares/lvgl/src/core/lv_obj_pos.c ****         y = 0;
 435:Middlewares/lvgl/src/core/lv_obj_pos.c ****         break;
 436:Middlewares/lvgl/src/core/lv_obj_pos.c **** 
 437:Middlewares/lvgl/src/core/lv_obj_pos.c ****     case LV_ALIGN_OUT_LEFT_MID:
 438:Middlewares/lvgl/src/core/lv_obj_pos.c ****         x = -lv_obj_get_width(obj);
 439:Middlewares/lvgl/src/core/lv_obj_pos.c ****         y = lv_obj_get_height(base) / 2 - lv_obj_get_height(obj) / 2;
 440:Middlewares/lvgl/src/core/lv_obj_pos.c ****         break;
 441:Middlewares/lvgl/src/core/lv_obj_pos.c **** 
 442:Middlewares/lvgl/src/core/lv_obj_pos.c ****     case LV_ALIGN_OUT_LEFT_BOTTOM:
 443:Middlewares/lvgl/src/core/lv_obj_pos.c ****         x = -lv_obj_get_width(obj);
 444:Middlewares/lvgl/src/core/lv_obj_pos.c ****         y = lv_obj_get_height(base) - lv_obj_get_height(obj);
 445:Middlewares/lvgl/src/core/lv_obj_pos.c ****         break;
 446:Middlewares/lvgl/src/core/lv_obj_pos.c **** 
 447:Middlewares/lvgl/src/core/lv_obj_pos.c ****     case LV_ALIGN_OUT_RIGHT_TOP:
 448:Middlewares/lvgl/src/core/lv_obj_pos.c ****         x = lv_obj_get_width(base);
 449:Middlewares/lvgl/src/core/lv_obj_pos.c ****         y = 0;
 450:Middlewares/lvgl/src/core/lv_obj_pos.c ****         break;
 451:Middlewares/lvgl/src/core/lv_obj_pos.c **** 
 452:Middlewares/lvgl/src/core/lv_obj_pos.c ****     case LV_ALIGN_OUT_RIGHT_MID:
 453:Middlewares/lvgl/src/core/lv_obj_pos.c ****         x = lv_obj_get_width(base);
 454:Middlewares/lvgl/src/core/lv_obj_pos.c ****         y = lv_obj_get_height(base) / 2 - lv_obj_get_height(obj) / 2;
 455:Middlewares/lvgl/src/core/lv_obj_pos.c ****         break;
 456:Middlewares/lvgl/src/core/lv_obj_pos.c **** 
 457:Middlewares/lvgl/src/core/lv_obj_pos.c ****     case LV_ALIGN_OUT_RIGHT_BOTTOM:
 458:Middlewares/lvgl/src/core/lv_obj_pos.c ****         x = lv_obj_get_width(base);
 459:Middlewares/lvgl/src/core/lv_obj_pos.c ****         y = lv_obj_get_height(base) - lv_obj_get_height(obj);
 460:Middlewares/lvgl/src/core/lv_obj_pos.c ****         break;
 461:Middlewares/lvgl/src/core/lv_obj_pos.c ****     }
 462:Middlewares/lvgl/src/core/lv_obj_pos.c **** 
 463:Middlewares/lvgl/src/core/lv_obj_pos.c ****     x += x_ofs + base->coords.x1 - parent->coords.x1 + lv_obj_get_scroll_left(parent) - pleft;
 464:Middlewares/lvgl/src/core/lv_obj_pos.c ****     y += y_ofs + base->coords.y1 - parent->coords.y1 + lv_obj_get_scroll_top(parent) - ptop;
 465:Middlewares/lvgl/src/core/lv_obj_pos.c ****     lv_obj_set_style_align(obj, LV_ALIGN_TOP_LEFT, 0);
 466:Middlewares/lvgl/src/core/lv_obj_pos.c ****     lv_obj_set_pos(obj, x, y);
 467:Middlewares/lvgl/src/core/lv_obj_pos.c **** 
 468:Middlewares/lvgl/src/core/lv_obj_pos.c **** }
 469:Middlewares/lvgl/src/core/lv_obj_pos.c **** 
 470:Middlewares/lvgl/src/core/lv_obj_pos.c **** void lv_obj_get_coords(const lv_obj_t * obj, lv_area_t * coords)
 471:Middlewares/lvgl/src/core/lv_obj_pos.c **** {
 973              		.loc 1 471 1 is_stmt 1 view -0
 974              		.cfi_startproc
 975              		@ args = 0, pretend = 0, frame = 0
 976              		@ frame_needed = 0, uses_anonymous_args = 0
 977              		@ link register save eliminated.
 472:Middlewares/lvgl/src/core/lv_obj_pos.c ****     LV_ASSERT_OBJ(obj, MY_CLASS);
 978              		.loc 1 472 5 view .LVU238
ARM GAS  /tmp/ccmgRVpn.s 			page 33


 979              		.loc 1 472 5 view .LVU239
 980              		.loc 1 472 5 view .LVU240
 473:Middlewares/lvgl/src/core/lv_obj_pos.c **** 
 474:Middlewares/lvgl/src/core/lv_obj_pos.c ****     lv_area_copy(coords, &obj->coords);
 981              		.loc 1 474 5 view .LVU241
 982              	.LBB135:
 983              	.LBI135:
 984              		.file 3 "Middlewares/lvgl/src/core/../misc/../font/../misc/lv_area.h"
   1:Middlewares/lvgl/src/core/../misc/../font/../misc/lv_area.h **** /**
   2:Middlewares/lvgl/src/core/../misc/../font/../misc/lv_area.h ****  * @file lv_area.h
   3:Middlewares/lvgl/src/core/../misc/../font/../misc/lv_area.h ****  *
   4:Middlewares/lvgl/src/core/../misc/../font/../misc/lv_area.h ****  */
   5:Middlewares/lvgl/src/core/../misc/../font/../misc/lv_area.h **** 
   6:Middlewares/lvgl/src/core/../misc/../font/../misc/lv_area.h **** #ifndef LV_AREA_H
   7:Middlewares/lvgl/src/core/../misc/../font/../misc/lv_area.h **** #define LV_AREA_H
   8:Middlewares/lvgl/src/core/../misc/../font/../misc/lv_area.h **** 
   9:Middlewares/lvgl/src/core/../misc/../font/../misc/lv_area.h **** #ifdef __cplusplus
  10:Middlewares/lvgl/src/core/../misc/../font/../misc/lv_area.h **** extern "C" {
  11:Middlewares/lvgl/src/core/../misc/../font/../misc/lv_area.h **** #endif
  12:Middlewares/lvgl/src/core/../misc/../font/../misc/lv_area.h **** 
  13:Middlewares/lvgl/src/core/../misc/../font/../misc/lv_area.h **** /*********************
  14:Middlewares/lvgl/src/core/../misc/../font/../misc/lv_area.h ****  *      INCLUDES
  15:Middlewares/lvgl/src/core/../misc/../font/../misc/lv_area.h ****  *********************/
  16:Middlewares/lvgl/src/core/../misc/../font/../misc/lv_area.h **** #include "../lv_conf_internal.h"
  17:Middlewares/lvgl/src/core/../misc/../font/../misc/lv_area.h **** #include <string.h>
  18:Middlewares/lvgl/src/core/../misc/../font/../misc/lv_area.h **** #include <stdbool.h>
  19:Middlewares/lvgl/src/core/../misc/../font/../misc/lv_area.h **** #include <stdint.h>
  20:Middlewares/lvgl/src/core/../misc/../font/../misc/lv_area.h **** 
  21:Middlewares/lvgl/src/core/../misc/../font/../misc/lv_area.h **** /*********************
  22:Middlewares/lvgl/src/core/../misc/../font/../misc/lv_area.h ****  *      DEFINES
  23:Middlewares/lvgl/src/core/../misc/../font/../misc/lv_area.h ****  *********************/
  24:Middlewares/lvgl/src/core/../misc/../font/../misc/lv_area.h **** 
  25:Middlewares/lvgl/src/core/../misc/../font/../misc/lv_area.h **** #define _LV_COORD_MAX_REDUCE    8192
  26:Middlewares/lvgl/src/core/../misc/../font/../misc/lv_area.h **** 
  27:Middlewares/lvgl/src/core/../misc/../font/../misc/lv_area.h **** #if LV_USE_LARGE_COORD
  28:Middlewares/lvgl/src/core/../misc/../font/../misc/lv_area.h **** typedef int32_t lv_coord_t;
  29:Middlewares/lvgl/src/core/../misc/../font/../misc/lv_area.h **** #else
  30:Middlewares/lvgl/src/core/../misc/../font/../misc/lv_area.h **** typedef int16_t lv_coord_t;
  31:Middlewares/lvgl/src/core/../misc/../font/../misc/lv_area.h **** #endif
  32:Middlewares/lvgl/src/core/../misc/../font/../misc/lv_area.h **** 
  33:Middlewares/lvgl/src/core/../misc/../font/../misc/lv_area.h **** /*To allow some special values in the end reduce the max value*/
  34:Middlewares/lvgl/src/core/../misc/../font/../misc/lv_area.h **** #define LV_COORD_MAX ((lv_coord_t)((uint32_t)((uint32_t)1 << (8 * sizeof(lv_coord_t) - 1)) - _LV_CO
  35:Middlewares/lvgl/src/core/../misc/../font/../misc/lv_area.h **** #define LV_COORD_MIN (-LV_COORD_MAX)
  36:Middlewares/lvgl/src/core/../misc/../font/../misc/lv_area.h **** 
  37:Middlewares/lvgl/src/core/../misc/../font/../misc/lv_area.h **** LV_EXPORT_CONST_INT(LV_COORD_MAX);
  38:Middlewares/lvgl/src/core/../misc/../font/../misc/lv_area.h **** LV_EXPORT_CONST_INT(LV_COORD_MIN);
  39:Middlewares/lvgl/src/core/../misc/../font/../misc/lv_area.h **** 
  40:Middlewares/lvgl/src/core/../misc/../font/../misc/lv_area.h **** /**********************
  41:Middlewares/lvgl/src/core/../misc/../font/../misc/lv_area.h ****  *      TYPEDEFS
  42:Middlewares/lvgl/src/core/../misc/../font/../misc/lv_area.h ****  **********************/
  43:Middlewares/lvgl/src/core/../misc/../font/../misc/lv_area.h **** 
  44:Middlewares/lvgl/src/core/../misc/../font/../misc/lv_area.h **** /**
  45:Middlewares/lvgl/src/core/../misc/../font/../misc/lv_area.h ****  * Represents a point on the screen.
  46:Middlewares/lvgl/src/core/../misc/../font/../misc/lv_area.h ****  */
  47:Middlewares/lvgl/src/core/../misc/../font/../misc/lv_area.h **** typedef struct {
  48:Middlewares/lvgl/src/core/../misc/../font/../misc/lv_area.h ****     lv_coord_t x;
  49:Middlewares/lvgl/src/core/../misc/../font/../misc/lv_area.h ****     lv_coord_t y;
ARM GAS  /tmp/ccmgRVpn.s 			page 34


  50:Middlewares/lvgl/src/core/../misc/../font/../misc/lv_area.h **** } lv_point_t;
  51:Middlewares/lvgl/src/core/../misc/../font/../misc/lv_area.h **** 
  52:Middlewares/lvgl/src/core/../misc/../font/../misc/lv_area.h **** /** Represents an area of the screen.*/
  53:Middlewares/lvgl/src/core/../misc/../font/../misc/lv_area.h **** typedef struct {
  54:Middlewares/lvgl/src/core/../misc/../font/../misc/lv_area.h ****     lv_coord_t x1;
  55:Middlewares/lvgl/src/core/../misc/../font/../misc/lv_area.h ****     lv_coord_t y1;
  56:Middlewares/lvgl/src/core/../misc/../font/../misc/lv_area.h ****     lv_coord_t x2;
  57:Middlewares/lvgl/src/core/../misc/../font/../misc/lv_area.h ****     lv_coord_t y2;
  58:Middlewares/lvgl/src/core/../misc/../font/../misc/lv_area.h **** } lv_area_t;
  59:Middlewares/lvgl/src/core/../misc/../font/../misc/lv_area.h **** 
  60:Middlewares/lvgl/src/core/../misc/../font/../misc/lv_area.h **** /** Alignments*/
  61:Middlewares/lvgl/src/core/../misc/../font/../misc/lv_area.h **** enum {
  62:Middlewares/lvgl/src/core/../misc/../font/../misc/lv_area.h ****     LV_ALIGN_DEFAULT = 0,
  63:Middlewares/lvgl/src/core/../misc/../font/../misc/lv_area.h ****     LV_ALIGN_TOP_LEFT,
  64:Middlewares/lvgl/src/core/../misc/../font/../misc/lv_area.h ****     LV_ALIGN_TOP_MID,
  65:Middlewares/lvgl/src/core/../misc/../font/../misc/lv_area.h ****     LV_ALIGN_TOP_RIGHT,
  66:Middlewares/lvgl/src/core/../misc/../font/../misc/lv_area.h ****     LV_ALIGN_BOTTOM_LEFT,
  67:Middlewares/lvgl/src/core/../misc/../font/../misc/lv_area.h ****     LV_ALIGN_BOTTOM_MID,
  68:Middlewares/lvgl/src/core/../misc/../font/../misc/lv_area.h ****     LV_ALIGN_BOTTOM_RIGHT,
  69:Middlewares/lvgl/src/core/../misc/../font/../misc/lv_area.h ****     LV_ALIGN_LEFT_MID,
  70:Middlewares/lvgl/src/core/../misc/../font/../misc/lv_area.h ****     LV_ALIGN_RIGHT_MID,
  71:Middlewares/lvgl/src/core/../misc/../font/../misc/lv_area.h ****     LV_ALIGN_CENTER,
  72:Middlewares/lvgl/src/core/../misc/../font/../misc/lv_area.h **** 
  73:Middlewares/lvgl/src/core/../misc/../font/../misc/lv_area.h ****     LV_ALIGN_OUT_TOP_LEFT,
  74:Middlewares/lvgl/src/core/../misc/../font/../misc/lv_area.h ****     LV_ALIGN_OUT_TOP_MID,
  75:Middlewares/lvgl/src/core/../misc/../font/../misc/lv_area.h ****     LV_ALIGN_OUT_TOP_RIGHT,
  76:Middlewares/lvgl/src/core/../misc/../font/../misc/lv_area.h ****     LV_ALIGN_OUT_BOTTOM_LEFT,
  77:Middlewares/lvgl/src/core/../misc/../font/../misc/lv_area.h ****     LV_ALIGN_OUT_BOTTOM_MID,
  78:Middlewares/lvgl/src/core/../misc/../font/../misc/lv_area.h ****     LV_ALIGN_OUT_BOTTOM_RIGHT,
  79:Middlewares/lvgl/src/core/../misc/../font/../misc/lv_area.h ****     LV_ALIGN_OUT_LEFT_TOP,
  80:Middlewares/lvgl/src/core/../misc/../font/../misc/lv_area.h ****     LV_ALIGN_OUT_LEFT_MID,
  81:Middlewares/lvgl/src/core/../misc/../font/../misc/lv_area.h ****     LV_ALIGN_OUT_LEFT_BOTTOM,
  82:Middlewares/lvgl/src/core/../misc/../font/../misc/lv_area.h ****     LV_ALIGN_OUT_RIGHT_TOP,
  83:Middlewares/lvgl/src/core/../misc/../font/../misc/lv_area.h ****     LV_ALIGN_OUT_RIGHT_MID,
  84:Middlewares/lvgl/src/core/../misc/../font/../misc/lv_area.h ****     LV_ALIGN_OUT_RIGHT_BOTTOM,
  85:Middlewares/lvgl/src/core/../misc/../font/../misc/lv_area.h **** };
  86:Middlewares/lvgl/src/core/../misc/../font/../misc/lv_area.h **** typedef uint8_t lv_align_t;
  87:Middlewares/lvgl/src/core/../misc/../font/../misc/lv_area.h **** 
  88:Middlewares/lvgl/src/core/../misc/../font/../misc/lv_area.h **** enum {
  89:Middlewares/lvgl/src/core/../misc/../font/../misc/lv_area.h ****     LV_DIR_NONE     = 0x00,
  90:Middlewares/lvgl/src/core/../misc/../font/../misc/lv_area.h ****     LV_DIR_LEFT     = (1 << 0),
  91:Middlewares/lvgl/src/core/../misc/../font/../misc/lv_area.h ****     LV_DIR_RIGHT    = (1 << 1),
  92:Middlewares/lvgl/src/core/../misc/../font/../misc/lv_area.h ****     LV_DIR_TOP      = (1 << 2),
  93:Middlewares/lvgl/src/core/../misc/../font/../misc/lv_area.h ****     LV_DIR_BOTTOM   = (1 << 3),
  94:Middlewares/lvgl/src/core/../misc/../font/../misc/lv_area.h ****     LV_DIR_HOR      = LV_DIR_LEFT | LV_DIR_RIGHT,
  95:Middlewares/lvgl/src/core/../misc/../font/../misc/lv_area.h ****     LV_DIR_VER      = LV_DIR_TOP | LV_DIR_BOTTOM,
  96:Middlewares/lvgl/src/core/../misc/../font/../misc/lv_area.h ****     LV_DIR_ALL      = LV_DIR_HOR | LV_DIR_VER,
  97:Middlewares/lvgl/src/core/../misc/../font/../misc/lv_area.h **** };
  98:Middlewares/lvgl/src/core/../misc/../font/../misc/lv_area.h **** 
  99:Middlewares/lvgl/src/core/../misc/../font/../misc/lv_area.h **** typedef uint8_t lv_dir_t;
 100:Middlewares/lvgl/src/core/../misc/../font/../misc/lv_area.h **** 
 101:Middlewares/lvgl/src/core/../misc/../font/../misc/lv_area.h **** /**********************
 102:Middlewares/lvgl/src/core/../misc/../font/../misc/lv_area.h ****  * GLOBAL PROTOTYPES
 103:Middlewares/lvgl/src/core/../misc/../font/../misc/lv_area.h ****  **********************/
 104:Middlewares/lvgl/src/core/../misc/../font/../misc/lv_area.h **** 
 105:Middlewares/lvgl/src/core/../misc/../font/../misc/lv_area.h **** /**
 106:Middlewares/lvgl/src/core/../misc/../font/../misc/lv_area.h ****  * Initialize an area
ARM GAS  /tmp/ccmgRVpn.s 			page 35


 107:Middlewares/lvgl/src/core/../misc/../font/../misc/lv_area.h ****  * @param area_p pointer to an area
 108:Middlewares/lvgl/src/core/../misc/../font/../misc/lv_area.h ****  * @param x1 left coordinate of the area
 109:Middlewares/lvgl/src/core/../misc/../font/../misc/lv_area.h ****  * @param y1 top coordinate of the area
 110:Middlewares/lvgl/src/core/../misc/../font/../misc/lv_area.h ****  * @param x2 right coordinate of the area
 111:Middlewares/lvgl/src/core/../misc/../font/../misc/lv_area.h ****  * @param y2 bottom coordinate of the area
 112:Middlewares/lvgl/src/core/../misc/../font/../misc/lv_area.h ****  */
 113:Middlewares/lvgl/src/core/../misc/../font/../misc/lv_area.h **** void lv_area_set(lv_area_t * area_p, lv_coord_t x1, lv_coord_t y1, lv_coord_t x2, lv_coord_t y2);
 114:Middlewares/lvgl/src/core/../misc/../font/../misc/lv_area.h **** 
 115:Middlewares/lvgl/src/core/../misc/../font/../misc/lv_area.h **** /**
 116:Middlewares/lvgl/src/core/../misc/../font/../misc/lv_area.h ****  * Copy an area
 117:Middlewares/lvgl/src/core/../misc/../font/../misc/lv_area.h ****  * @param dest pointer to the destination area
 118:Middlewares/lvgl/src/core/../misc/../font/../misc/lv_area.h ****  * @param src pointer to the source area
 119:Middlewares/lvgl/src/core/../misc/../font/../misc/lv_area.h ****  */
 120:Middlewares/lvgl/src/core/../misc/../font/../misc/lv_area.h **** inline static void lv_area_copy(lv_area_t * dest, const lv_area_t * src)
 985              		.loc 3 120 20 view .LVU242
 986              	.LBB136:
 121:Middlewares/lvgl/src/core/../misc/../font/../misc/lv_area.h **** {
 122:Middlewares/lvgl/src/core/../misc/../font/../misc/lv_area.h ****     dest->x1 = src->x1;
 987              		.loc 3 122 5 view .LVU243
 988              		.loc 3 122 19 is_stmt 0 view .LVU244
 989 0000 B0F91430 		ldrsh	r3, [r0, #20]
 990              		.loc 3 122 14 view .LVU245
 991 0004 0B80     		strh	r3, [r1]	@ movhi
 123:Middlewares/lvgl/src/core/../misc/../font/../misc/lv_area.h ****     dest->y1 = src->y1;
 992              		.loc 3 123 5 is_stmt 1 view .LVU246
 993              		.loc 3 123 19 is_stmt 0 view .LVU247
 994 0006 B0F91630 		ldrsh	r3, [r0, #22]
 995              		.loc 3 123 14 view .LVU248
 996 000a 4B80     		strh	r3, [r1, #2]	@ movhi
 124:Middlewares/lvgl/src/core/../misc/../font/../misc/lv_area.h ****     dest->x2 = src->x2;
 997              		.loc 3 124 5 is_stmt 1 view .LVU249
 998              		.loc 3 124 19 is_stmt 0 view .LVU250
 999 000c B0F91830 		ldrsh	r3, [r0, #24]
 1000              		.loc 3 124 14 view .LVU251
 1001 0010 8B80     		strh	r3, [r1, #4]	@ movhi
 125:Middlewares/lvgl/src/core/../misc/../font/../misc/lv_area.h ****     dest->y2 = src->y2;
 1002              		.loc 3 125 5 is_stmt 1 view .LVU252
 1003              		.loc 3 125 19 is_stmt 0 view .LVU253
 1004 0012 B0F91A30 		ldrsh	r3, [r0, #26]
 1005              		.loc 3 125 14 view .LVU254
 1006 0016 CB80     		strh	r3, [r1, #6]	@ movhi
 1007              	.LVL80:
 1008              		.loc 3 125 14 view .LVU255
 1009              	.LBE136:
 1010              	.LBE135:
 475:Middlewares/lvgl/src/core/lv_obj_pos.c **** }
 1011              		.loc 1 475 1 view .LVU256
 1012 0018 7047     		bx	lr
 1013              		.cfi_endproc
 1014              	.LFE170:
 1016              		.section	.text.lv_obj_get_x,"ax",%progbits
 1017              		.align	1
 1018              		.global	lv_obj_get_x
 1019              		.syntax unified
 1020              		.thumb
 1021              		.thumb_func
 1023              	lv_obj_get_x:
ARM GAS  /tmp/ccmgRVpn.s 			page 36


 1024              	.LVL81:
 1025              	.LFB171:
 476:Middlewares/lvgl/src/core/lv_obj_pos.c **** 
 477:Middlewares/lvgl/src/core/lv_obj_pos.c **** lv_coord_t lv_obj_get_x(const lv_obj_t * obj)
 478:Middlewares/lvgl/src/core/lv_obj_pos.c **** {
 1026              		.loc 1 478 1 is_stmt 1 view -0
 1027              		.cfi_startproc
 1028              		@ args = 0, pretend = 0, frame = 0
 1029              		@ frame_needed = 0, uses_anonymous_args = 0
 1030              		.loc 1 478 1 is_stmt 0 view .LVU258
 1031 0000 38B5     		push	{r3, r4, r5, lr}
 1032              	.LCFI26:
 1033              		.cfi_def_cfa_offset 16
 1034              		.cfi_offset 3, -16
 1035              		.cfi_offset 4, -12
 1036              		.cfi_offset 5, -8
 1037              		.cfi_offset 14, -4
 1038 0002 0446     		mov	r4, r0
 479:Middlewares/lvgl/src/core/lv_obj_pos.c ****     LV_ASSERT_OBJ(obj, MY_CLASS);
 1039              		.loc 1 479 5 is_stmt 1 view .LVU259
 1040              		.loc 1 479 5 view .LVU260
 1041              		.loc 1 479 5 view .LVU261
 480:Middlewares/lvgl/src/core/lv_obj_pos.c **** 
 481:Middlewares/lvgl/src/core/lv_obj_pos.c ****     lv_coord_t rel_x;
 1042              		.loc 1 481 5 view .LVU262
 482:Middlewares/lvgl/src/core/lv_obj_pos.c ****     lv_obj_t * parent = lv_obj_get_parent(obj);
 1043              		.loc 1 482 5 view .LVU263
 1044              		.loc 1 482 25 is_stmt 0 view .LVU264
 1045 0004 FFF7FEFF 		bl	lv_obj_get_parent
 1046              	.LVL82:
 483:Middlewares/lvgl/src/core/lv_obj_pos.c ****     if(parent) {
 1047              		.loc 1 483 5 is_stmt 1 view .LVU265
 1048              		.loc 1 483 7 is_stmt 0 view .LVU266
 1049 0008 E0B1     		cbz	r0, .L62
 1050 000a 0546     		mov	r5, r0
 484:Middlewares/lvgl/src/core/lv_obj_pos.c ****         rel_x  = obj->coords.x1 - parent->coords.x1;
 1051              		.loc 1 484 9 is_stmt 1 view .LVU267
 1052              		.loc 1 484 29 is_stmt 0 view .LVU268
 1053 000c A48A     		ldrh	r4, [r4, #20]
 1054              	.LVL83:
 1055              		.loc 1 484 49 view .LVU269
 1056 000e 838A     		ldrh	r3, [r0, #20]
 1057              		.loc 1 484 33 view .LVU270
 1058 0010 E41A     		subs	r4, r4, r3
 1059 0012 A4B2     		uxth	r4, r4
 1060              	.LVL84:
 485:Middlewares/lvgl/src/core/lv_obj_pos.c ****         rel_x += lv_obj_get_scroll_x(parent);
 1061              		.loc 1 485 9 is_stmt 1 view .LVU271
 1062              		.loc 1 485 18 is_stmt 0 view .LVU272
 1063 0014 FFF7FEFF 		bl	lv_obj_get_scroll_x
 1064              	.LVL85:
 1065              		.loc 1 485 15 view .LVU273
 1066 0018 14FA80F4 		uxtah	r4, r4, r0
 1067              	.LVL86:
 1068              		.loc 1 485 15 view .LVU274
 1069 001c A4B2     		uxth	r4, r4
 1070              	.LVL87:
ARM GAS  /tmp/ccmgRVpn.s 			page 37


 486:Middlewares/lvgl/src/core/lv_obj_pos.c ****         rel_x -= lv_obj_get_style_pad_left(parent, LV_PART_MAIN);
 1071              		.loc 1 486 9 is_stmt 1 view .LVU275
 1072              	.LBB137:
 1073              	.LBI137:
 103:Middlewares/lvgl/src/core/lv_obj_style_gen.h **** {
 1074              		.loc 2 103 26 view .LVU276
 1075              	.LBB138:
 105:Middlewares/lvgl/src/core/lv_obj_style_gen.h ****     return (lv_coord_t)v.num;
 1076              		.loc 2 105 5 view .LVU277
 105:Middlewares/lvgl/src/core/lv_obj_style_gen.h ****     return (lv_coord_t)v.num;
 1077              		.loc 2 105 26 is_stmt 0 view .LVU278
 1078 001e 41F21202 		movw	r2, #4114
 1079 0022 0021     		movs	r1, #0
 1080 0024 2846     		mov	r0, r5
 1081 0026 FFF7FEFF 		bl	lv_obj_get_style_prop
 1082              	.LVL88:
 106:Middlewares/lvgl/src/core/lv_obj_style_gen.h **** }
 1083              		.loc 2 106 5 is_stmt 1 view .LVU279
 106:Middlewares/lvgl/src/core/lv_obj_style_gen.h **** }
 1084              		.loc 2 106 5 is_stmt 0 view .LVU280
 1085              	.LBE138:
 1086              	.LBE137:
 1087              		.loc 1 486 18 view .LVU281
 1088 002a 80B2     		uxth	r0, r0
 1089              		.loc 1 486 15 view .LVU282
 1090 002c 241A     		subs	r4, r4, r0
 1091              	.LVL89:
 1092              		.loc 1 486 15 view .LVU283
 1093 002e A4B2     		uxth	r4, r4
 1094              	.LVL90:
 487:Middlewares/lvgl/src/core/lv_obj_pos.c ****         rel_x -= lv_obj_get_style_border_width(parent, LV_PART_MAIN);
 1095              		.loc 1 487 9 is_stmt 1 view .LVU284
 1096              	.LBB139:
 1097              	.LBI139:
 295:Middlewares/lvgl/src/core/lv_obj_style_gen.h **** {
 1098              		.loc 2 295 26 view .LVU285
 1099              	.LBB140:
 297:Middlewares/lvgl/src/core/lv_obj_style_gen.h ****     return (lv_coord_t)v.num;
 1100              		.loc 2 297 5 view .LVU286
 297:Middlewares/lvgl/src/core/lv_obj_style_gen.h ****     return (lv_coord_t)v.num;
 1101              		.loc 2 297 26 is_stmt 0 view .LVU287
 1102 0030 41F23202 		movw	r2, #4146
 1103 0034 0021     		movs	r1, #0
 1104 0036 2846     		mov	r0, r5
 1105 0038 FFF7FEFF 		bl	lv_obj_get_style_prop
 1106              	.LVL91:
 1107              		.loc 2 298 5 is_stmt 1 view .LVU288
 1108              		.loc 2 298 5 is_stmt 0 view .LVU289
 1109              	.LBE140:
 1110              	.LBE139:
 1111              		.loc 1 487 18 view .LVU290
 1112 003c 80B2     		uxth	r0, r0
 1113              		.loc 1 487 15 view .LVU291
 1114 003e 201A     		subs	r0, r4, r0
 1115 0040 00B2     		sxth	r0, r0
 1116              	.LVL92:
 1117              	.L63:
ARM GAS  /tmp/ccmgRVpn.s 			page 38


 488:Middlewares/lvgl/src/core/lv_obj_pos.c ****     }
 489:Middlewares/lvgl/src/core/lv_obj_pos.c ****     else {
 490:Middlewares/lvgl/src/core/lv_obj_pos.c ****         rel_x = obj->coords.x1;
 491:Middlewares/lvgl/src/core/lv_obj_pos.c ****     }
 492:Middlewares/lvgl/src/core/lv_obj_pos.c ****     return rel_x;
 1118              		.loc 1 492 5 is_stmt 1 view .LVU292
 493:Middlewares/lvgl/src/core/lv_obj_pos.c **** }
 1119              		.loc 1 493 1 is_stmt 0 view .LVU293
 1120 0042 38BD     		pop	{r3, r4, r5, pc}
 1121              	.LVL93:
 1122              	.L62:
 490:Middlewares/lvgl/src/core/lv_obj_pos.c ****     }
 1123              		.loc 1 490 9 is_stmt 1 view .LVU294
 490:Middlewares/lvgl/src/core/lv_obj_pos.c ****     }
 1124              		.loc 1 490 15 is_stmt 0 view .LVU295
 1125 0044 B4F91400 		ldrsh	r0, [r4, #20]
 1126              	.LVL94:
 490:Middlewares/lvgl/src/core/lv_obj_pos.c ****     }
 1127              		.loc 1 490 15 view .LVU296
 1128 0048 FBE7     		b	.L63
 1129              		.cfi_endproc
 1130              	.LFE171:
 1132              		.section	.text.lv_obj_get_y,"ax",%progbits
 1133              		.align	1
 1134              		.global	lv_obj_get_y
 1135              		.syntax unified
 1136              		.thumb
 1137              		.thumb_func
 1139              	lv_obj_get_y:
 1140              	.LVL95:
 1141              	.LFB173:
 494:Middlewares/lvgl/src/core/lv_obj_pos.c **** 
 495:Middlewares/lvgl/src/core/lv_obj_pos.c **** lv_coord_t lv_obj_get_x2(const lv_obj_t * obj)
 496:Middlewares/lvgl/src/core/lv_obj_pos.c **** {
 497:Middlewares/lvgl/src/core/lv_obj_pos.c ****     LV_ASSERT_OBJ(obj, MY_CLASS);
 498:Middlewares/lvgl/src/core/lv_obj_pos.c **** 
 499:Middlewares/lvgl/src/core/lv_obj_pos.c ****     return lv_obj_get_x(obj) + lv_obj_get_width(obj);
 500:Middlewares/lvgl/src/core/lv_obj_pos.c **** }
 501:Middlewares/lvgl/src/core/lv_obj_pos.c **** 
 502:Middlewares/lvgl/src/core/lv_obj_pos.c **** lv_coord_t lv_obj_get_y(const lv_obj_t * obj)
 503:Middlewares/lvgl/src/core/lv_obj_pos.c **** {
 1142              		.loc 1 503 1 is_stmt 1 view -0
 1143              		.cfi_startproc
 1144              		@ args = 0, pretend = 0, frame = 0
 1145              		@ frame_needed = 0, uses_anonymous_args = 0
 1146              		.loc 1 503 1 is_stmt 0 view .LVU298
 1147 0000 38B5     		push	{r3, r4, r5, lr}
 1148              	.LCFI27:
 1149              		.cfi_def_cfa_offset 16
 1150              		.cfi_offset 3, -16
 1151              		.cfi_offset 4, -12
 1152              		.cfi_offset 5, -8
 1153              		.cfi_offset 14, -4
 1154 0002 0446     		mov	r4, r0
 504:Middlewares/lvgl/src/core/lv_obj_pos.c ****     LV_ASSERT_OBJ(obj, MY_CLASS);
 1155              		.loc 1 504 5 is_stmt 1 view .LVU299
 1156              		.loc 1 504 5 view .LVU300
ARM GAS  /tmp/ccmgRVpn.s 			page 39


 1157              		.loc 1 504 5 view .LVU301
 505:Middlewares/lvgl/src/core/lv_obj_pos.c **** 
 506:Middlewares/lvgl/src/core/lv_obj_pos.c ****     lv_coord_t rel_y;
 1158              		.loc 1 506 5 view .LVU302
 507:Middlewares/lvgl/src/core/lv_obj_pos.c ****     lv_obj_t * parent = lv_obj_get_parent(obj);
 1159              		.loc 1 507 5 view .LVU303
 1160              		.loc 1 507 25 is_stmt 0 view .LVU304
 1161 0004 FFF7FEFF 		bl	lv_obj_get_parent
 1162              	.LVL96:
 508:Middlewares/lvgl/src/core/lv_obj_pos.c ****     if(parent) {
 1163              		.loc 1 508 5 is_stmt 1 view .LVU305
 1164              		.loc 1 508 7 is_stmt 0 view .LVU306
 1165 0008 E0B1     		cbz	r0, .L66
 1166 000a 0546     		mov	r5, r0
 509:Middlewares/lvgl/src/core/lv_obj_pos.c ****         rel_y = obj->coords.y1 - parent->coords.y1;
 1167              		.loc 1 509 9 is_stmt 1 view .LVU307
 1168              		.loc 1 509 28 is_stmt 0 view .LVU308
 1169 000c E48A     		ldrh	r4, [r4, #22]
 1170              	.LVL97:
 1171              		.loc 1 509 48 view .LVU309
 1172 000e C38A     		ldrh	r3, [r0, #22]
 1173              		.loc 1 509 32 view .LVU310
 1174 0010 E41A     		subs	r4, r4, r3
 1175 0012 A4B2     		uxth	r4, r4
 1176              	.LVL98:
 510:Middlewares/lvgl/src/core/lv_obj_pos.c ****         rel_y += lv_obj_get_scroll_y(parent);
 1177              		.loc 1 510 9 is_stmt 1 view .LVU311
 1178              		.loc 1 510 18 is_stmt 0 view .LVU312
 1179 0014 FFF7FEFF 		bl	lv_obj_get_scroll_y
 1180              	.LVL99:
 1181              		.loc 1 510 15 view .LVU313
 1182 0018 14FA80F4 		uxtah	r4, r4, r0
 1183              	.LVL100:
 1184              		.loc 1 510 15 view .LVU314
 1185 001c A4B2     		uxth	r4, r4
 1186              	.LVL101:
 511:Middlewares/lvgl/src/core/lv_obj_pos.c ****         rel_y -= lv_obj_get_style_pad_top(parent, LV_PART_MAIN);
 1187              		.loc 1 511 9 is_stmt 1 view .LVU315
 1188              	.LBB141:
 1189              	.LBI141:
  91:Middlewares/lvgl/src/core/lv_obj_style_gen.h **** {
 1190              		.loc 2 91 26 view .LVU316
 1191              	.LBB142:
  93:Middlewares/lvgl/src/core/lv_obj_style_gen.h ****     return (lv_coord_t)v.num;
 1192              		.loc 2 93 5 view .LVU317
  93:Middlewares/lvgl/src/core/lv_obj_style_gen.h ****     return (lv_coord_t)v.num;
 1193              		.loc 2 93 26 is_stmt 0 view .LVU318
 1194 001e 41F21002 		movw	r2, #4112
 1195 0022 0021     		movs	r1, #0
 1196 0024 2846     		mov	r0, r5
 1197 0026 FFF7FEFF 		bl	lv_obj_get_style_prop
 1198              	.LVL102:
  94:Middlewares/lvgl/src/core/lv_obj_style_gen.h **** }
 1199              		.loc 2 94 5 is_stmt 1 view .LVU319
  94:Middlewares/lvgl/src/core/lv_obj_style_gen.h **** }
 1200              		.loc 2 94 5 is_stmt 0 view .LVU320
 1201              	.LBE142:
ARM GAS  /tmp/ccmgRVpn.s 			page 40


 1202              	.LBE141:
 1203              		.loc 1 511 18 view .LVU321
 1204 002a 80B2     		uxth	r0, r0
 1205              		.loc 1 511 15 view .LVU322
 1206 002c 241A     		subs	r4, r4, r0
 1207              	.LVL103:
 1208              		.loc 1 511 15 view .LVU323
 1209 002e A4B2     		uxth	r4, r4
 1210              	.LVL104:
 512:Middlewares/lvgl/src/core/lv_obj_pos.c ****         rel_y -= lv_obj_get_style_border_width(parent, LV_PART_MAIN);
 1211              		.loc 1 512 9 is_stmt 1 view .LVU324
 1212              	.LBB143:
 1213              	.LBI143:
 295:Middlewares/lvgl/src/core/lv_obj_style_gen.h **** {
 1214              		.loc 2 295 26 view .LVU325
 1215              	.LBB144:
 297:Middlewares/lvgl/src/core/lv_obj_style_gen.h ****     return (lv_coord_t)v.num;
 1216              		.loc 2 297 5 view .LVU326
 297:Middlewares/lvgl/src/core/lv_obj_style_gen.h ****     return (lv_coord_t)v.num;
 1217              		.loc 2 297 26 is_stmt 0 view .LVU327
 1218 0030 41F23202 		movw	r2, #4146
 1219 0034 0021     		movs	r1, #0
 1220 0036 2846     		mov	r0, r5
 1221 0038 FFF7FEFF 		bl	lv_obj_get_style_prop
 1222              	.LVL105:
 1223              		.loc 2 298 5 is_stmt 1 view .LVU328
 1224              		.loc 2 298 5 is_stmt 0 view .LVU329
 1225              	.LBE144:
 1226              	.LBE143:
 1227              		.loc 1 512 18 view .LVU330
 1228 003c 80B2     		uxth	r0, r0
 1229              		.loc 1 512 15 view .LVU331
 1230 003e 201A     		subs	r0, r4, r0
 1231 0040 00B2     		sxth	r0, r0
 1232              	.LVL106:
 1233              	.L67:
 513:Middlewares/lvgl/src/core/lv_obj_pos.c ****     }
 514:Middlewares/lvgl/src/core/lv_obj_pos.c ****     else {
 515:Middlewares/lvgl/src/core/lv_obj_pos.c ****         rel_y = obj->coords.y1;
 516:Middlewares/lvgl/src/core/lv_obj_pos.c ****     }
 517:Middlewares/lvgl/src/core/lv_obj_pos.c ****     return rel_y;
 1234              		.loc 1 517 5 is_stmt 1 view .LVU332
 518:Middlewares/lvgl/src/core/lv_obj_pos.c **** }
 1235              		.loc 1 518 1 is_stmt 0 view .LVU333
 1236 0042 38BD     		pop	{r3, r4, r5, pc}
 1237              	.LVL107:
 1238              	.L66:
 515:Middlewares/lvgl/src/core/lv_obj_pos.c ****     }
 1239              		.loc 1 515 9 is_stmt 1 view .LVU334
 515:Middlewares/lvgl/src/core/lv_obj_pos.c ****     }
 1240              		.loc 1 515 15 is_stmt 0 view .LVU335
 1241 0044 B4F91600 		ldrsh	r0, [r4, #22]
 1242              	.LVL108:
 515:Middlewares/lvgl/src/core/lv_obj_pos.c ****     }
 1243              		.loc 1 515 15 view .LVU336
 1244 0048 FBE7     		b	.L67
 1245              		.cfi_endproc
ARM GAS  /tmp/ccmgRVpn.s 			page 41


 1246              	.LFE173:
 1248              		.section	.text.lv_obj_get_width,"ax",%progbits
 1249              		.align	1
 1250              		.global	lv_obj_get_width
 1251              		.syntax unified
 1252              		.thumb
 1253              		.thumb_func
 1255              	lv_obj_get_width:
 1256              	.LVL109:
 1257              	.LFB175:
 519:Middlewares/lvgl/src/core/lv_obj_pos.c **** 
 520:Middlewares/lvgl/src/core/lv_obj_pos.c **** lv_coord_t lv_obj_get_y2(const lv_obj_t * obj)
 521:Middlewares/lvgl/src/core/lv_obj_pos.c **** {
 522:Middlewares/lvgl/src/core/lv_obj_pos.c ****     LV_ASSERT_OBJ(obj, MY_CLASS);
 523:Middlewares/lvgl/src/core/lv_obj_pos.c **** 
 524:Middlewares/lvgl/src/core/lv_obj_pos.c ****     return lv_obj_get_y(obj) + lv_obj_get_height(obj);
 525:Middlewares/lvgl/src/core/lv_obj_pos.c **** }
 526:Middlewares/lvgl/src/core/lv_obj_pos.c **** 
 527:Middlewares/lvgl/src/core/lv_obj_pos.c **** lv_coord_t lv_obj_get_width(const lv_obj_t * obj)
 528:Middlewares/lvgl/src/core/lv_obj_pos.c **** {
 1258              		.loc 1 528 1 is_stmt 1 view -0
 1259              		.cfi_startproc
 1260              		@ args = 0, pretend = 0, frame = 0
 1261              		@ frame_needed = 0, uses_anonymous_args = 0
 1262              		@ link register save eliminated.
 1263              		.loc 1 528 1 is_stmt 0 view .LVU338
 1264 0000 0346     		mov	r3, r0
 529:Middlewares/lvgl/src/core/lv_obj_pos.c ****     LV_ASSERT_OBJ(obj, MY_CLASS);
 1265              		.loc 1 529 5 is_stmt 1 view .LVU339
 1266              		.loc 1 529 5 view .LVU340
 1267              		.loc 1 529 5 view .LVU341
 530:Middlewares/lvgl/src/core/lv_obj_pos.c **** 
 531:Middlewares/lvgl/src/core/lv_obj_pos.c ****     return lv_area_get_width(&obj->coords);
 1268              		.loc 1 531 5 view .LVU342
 1269              	.LVL110:
 1270              	.LBB145:
 1271              	.LBI145:
 126:Middlewares/lvgl/src/core/../misc/../font/../misc/lv_area.h **** }
 127:Middlewares/lvgl/src/core/../misc/../font/../misc/lv_area.h **** 
 128:Middlewares/lvgl/src/core/../misc/../font/../misc/lv_area.h **** /**
 129:Middlewares/lvgl/src/core/../misc/../font/../misc/lv_area.h ****  * Get the width of an area
 130:Middlewares/lvgl/src/core/../misc/../font/../misc/lv_area.h ****  * @param area_p pointer to an area
 131:Middlewares/lvgl/src/core/../misc/../font/../misc/lv_area.h ****  * @return the width of the area (if x1 == x2 -> width = 1)
 132:Middlewares/lvgl/src/core/../misc/../font/../misc/lv_area.h ****  */
 133:Middlewares/lvgl/src/core/../misc/../font/../misc/lv_area.h **** static inline lv_coord_t lv_area_get_width(const lv_area_t * area_p)
 1272              		.loc 3 133 26 view .LVU343
 1273              	.LBB146:
 134:Middlewares/lvgl/src/core/../misc/../font/../misc/lv_area.h **** {
 135:Middlewares/lvgl/src/core/../misc/../font/../misc/lv_area.h ****     return (lv_coord_t)(area_p->x2 - area_p->x1 + 1);
 1274              		.loc 3 135 5 view .LVU344
 1275              		.loc 3 135 31 is_stmt 0 view .LVU345
 1276 0002 008B     		ldrh	r0, [r0, #24]
 1277              	.LVL111:
 1278              		.loc 3 135 44 view .LVU346
 1279 0004 9B8A     		ldrh	r3, [r3, #20]
 1280              	.LVL112:
 1281              		.loc 3 135 36 view .LVU347
ARM GAS  /tmp/ccmgRVpn.s 			page 42


 1282 0006 C01A     		subs	r0, r0, r3
 1283 0008 80B2     		uxth	r0, r0
 1284              		.loc 3 135 49 view .LVU348
 1285 000a 0130     		adds	r0, r0, #1
 1286              	.LVL113:
 1287              		.loc 3 135 49 view .LVU349
 1288              	.LBE146:
 1289              	.LBE145:
 532:Middlewares/lvgl/src/core/lv_obj_pos.c **** }
 1290              		.loc 1 532 1 view .LVU350
 1291 000c 00B2     		sxth	r0, r0
 1292 000e 7047     		bx	lr
 1293              		.cfi_endproc
 1294              	.LFE175:
 1296              		.section	.text.lv_obj_get_x2,"ax",%progbits
 1297              		.align	1
 1298              		.global	lv_obj_get_x2
 1299              		.syntax unified
 1300              		.thumb
 1301              		.thumb_func
 1303              	lv_obj_get_x2:
 1304              	.LVL114:
 1305              	.LFB172:
 496:Middlewares/lvgl/src/core/lv_obj_pos.c ****     LV_ASSERT_OBJ(obj, MY_CLASS);
 1306              		.loc 1 496 1 is_stmt 1 view -0
 1307              		.cfi_startproc
 1308              		@ args = 0, pretend = 0, frame = 0
 1309              		@ frame_needed = 0, uses_anonymous_args = 0
 496:Middlewares/lvgl/src/core/lv_obj_pos.c ****     LV_ASSERT_OBJ(obj, MY_CLASS);
 1310              		.loc 1 496 1 is_stmt 0 view .LVU352
 1311 0000 38B5     		push	{r3, r4, r5, lr}
 1312              	.LCFI28:
 1313              		.cfi_def_cfa_offset 16
 1314              		.cfi_offset 3, -16
 1315              		.cfi_offset 4, -12
 1316              		.cfi_offset 5, -8
 1317              		.cfi_offset 14, -4
 1318 0002 0546     		mov	r5, r0
 497:Middlewares/lvgl/src/core/lv_obj_pos.c **** 
 1319              		.loc 1 497 5 is_stmt 1 view .LVU353
 497:Middlewares/lvgl/src/core/lv_obj_pos.c **** 
 1320              		.loc 1 497 5 view .LVU354
 497:Middlewares/lvgl/src/core/lv_obj_pos.c **** 
 1321              		.loc 1 497 5 view .LVU355
 499:Middlewares/lvgl/src/core/lv_obj_pos.c **** }
 1322              		.loc 1 499 5 view .LVU356
 499:Middlewares/lvgl/src/core/lv_obj_pos.c **** }
 1323              		.loc 1 499 12 is_stmt 0 view .LVU357
 1324 0004 FFF7FEFF 		bl	lv_obj_get_x
 1325              	.LVL115:
 499:Middlewares/lvgl/src/core/lv_obj_pos.c **** }
 1326              		.loc 1 499 12 view .LVU358
 1327 0008 84B2     		uxth	r4, r0
 499:Middlewares/lvgl/src/core/lv_obj_pos.c **** }
 1328              		.loc 1 499 32 view .LVU359
 1329 000a 2846     		mov	r0, r5
 1330 000c FFF7FEFF 		bl	lv_obj_get_width
ARM GAS  /tmp/ccmgRVpn.s 			page 43


 1331              	.LVL116:
 499:Middlewares/lvgl/src/core/lv_obj_pos.c **** }
 1332              		.loc 1 499 30 view .LVU360
 1333 0010 14FA80F0 		uxtah	r0, r4, r0
 500:Middlewares/lvgl/src/core/lv_obj_pos.c **** 
 1334              		.loc 1 500 1 view .LVU361
 1335 0014 00B2     		sxth	r0, r0
 1336 0016 38BD     		pop	{r3, r4, r5, pc}
 500:Middlewares/lvgl/src/core/lv_obj_pos.c **** 
 1337              		.loc 1 500 1 view .LVU362
 1338              		.cfi_endproc
 1339              	.LFE172:
 1341              		.section	.text.lv_obj_get_height,"ax",%progbits
 1342              		.align	1
 1343              		.global	lv_obj_get_height
 1344              		.syntax unified
 1345              		.thumb
 1346              		.thumb_func
 1348              	lv_obj_get_height:
 1349              	.LVL117:
 1350              	.LFB176:
 533:Middlewares/lvgl/src/core/lv_obj_pos.c **** 
 534:Middlewares/lvgl/src/core/lv_obj_pos.c **** lv_coord_t lv_obj_get_height(const lv_obj_t * obj)
 535:Middlewares/lvgl/src/core/lv_obj_pos.c **** {
 1351              		.loc 1 535 1 is_stmt 1 view -0
 1352              		.cfi_startproc
 1353              		@ args = 0, pretend = 0, frame = 0
 1354              		@ frame_needed = 0, uses_anonymous_args = 0
 1355              		@ link register save eliminated.
 1356              		.loc 1 535 1 is_stmt 0 view .LVU364
 1357 0000 0346     		mov	r3, r0
 536:Middlewares/lvgl/src/core/lv_obj_pos.c ****     LV_ASSERT_OBJ(obj, MY_CLASS);
 1358              		.loc 1 536 5 is_stmt 1 view .LVU365
 1359              		.loc 1 536 5 view .LVU366
 1360              		.loc 1 536 5 view .LVU367
 537:Middlewares/lvgl/src/core/lv_obj_pos.c **** 
 538:Middlewares/lvgl/src/core/lv_obj_pos.c ****     return lv_area_get_height(&obj->coords);
 1361              		.loc 1 538 5 view .LVU368
 1362              	.LVL118:
 1363              	.LBB147:
 1364              	.LBI147:
 136:Middlewares/lvgl/src/core/../misc/../font/../misc/lv_area.h **** }
 137:Middlewares/lvgl/src/core/../misc/../font/../misc/lv_area.h **** 
 138:Middlewares/lvgl/src/core/../misc/../font/../misc/lv_area.h **** /**
 139:Middlewares/lvgl/src/core/../misc/../font/../misc/lv_area.h ****  * Get the height of an area
 140:Middlewares/lvgl/src/core/../misc/../font/../misc/lv_area.h ****  * @param area_p pointer to an area
 141:Middlewares/lvgl/src/core/../misc/../font/../misc/lv_area.h ****  * @return the height of the area (if y1 == y2 -> height = 1)
 142:Middlewares/lvgl/src/core/../misc/../font/../misc/lv_area.h ****  */
 143:Middlewares/lvgl/src/core/../misc/../font/../misc/lv_area.h **** static inline lv_coord_t lv_area_get_height(const lv_area_t * area_p)
 1365              		.loc 3 143 26 view .LVU369
 1366              	.LBB148:
 144:Middlewares/lvgl/src/core/../misc/../font/../misc/lv_area.h **** {
 145:Middlewares/lvgl/src/core/../misc/../font/../misc/lv_area.h ****     return (lv_coord_t)(area_p->y2 - area_p->y1 + 1);
 1367              		.loc 3 145 5 view .LVU370
 1368              		.loc 3 145 31 is_stmt 0 view .LVU371
 1369 0002 408B     		ldrh	r0, [r0, #26]
 1370              	.LVL119:
ARM GAS  /tmp/ccmgRVpn.s 			page 44


 1371              		.loc 3 145 44 view .LVU372
 1372 0004 DB8A     		ldrh	r3, [r3, #22]
 1373              	.LVL120:
 1374              		.loc 3 145 36 view .LVU373
 1375 0006 C01A     		subs	r0, r0, r3
 1376 0008 80B2     		uxth	r0, r0
 1377              		.loc 3 145 49 view .LVU374
 1378 000a 0130     		adds	r0, r0, #1
 1379              	.LVL121:
 1380              		.loc 3 145 49 view .LVU375
 1381              	.LBE148:
 1382              	.LBE147:
 539:Middlewares/lvgl/src/core/lv_obj_pos.c **** }
 1383              		.loc 1 539 1 view .LVU376
 1384 000c 00B2     		sxth	r0, r0
 1385 000e 7047     		bx	lr
 1386              		.cfi_endproc
 1387              	.LFE176:
 1389              		.section	.text.calc_auto_size,"ax",%progbits
 1390              		.align	1
 1391              		.syntax unified
 1392              		.thumb
 1393              		.thumb_func
 1395              	calc_auto_size:
 1396              	.LVL122:
 1397              	.LFB195:
 540:Middlewares/lvgl/src/core/lv_obj_pos.c **** 
 541:Middlewares/lvgl/src/core/lv_obj_pos.c **** lv_coord_t lv_obj_get_content_width(const lv_obj_t * obj)
 542:Middlewares/lvgl/src/core/lv_obj_pos.c **** {
 543:Middlewares/lvgl/src/core/lv_obj_pos.c ****     LV_ASSERT_OBJ(obj, MY_CLASS);
 544:Middlewares/lvgl/src/core/lv_obj_pos.c **** 
 545:Middlewares/lvgl/src/core/lv_obj_pos.c ****     lv_coord_t left = lv_obj_get_style_pad_left(obj, LV_PART_MAIN);
 546:Middlewares/lvgl/src/core/lv_obj_pos.c ****     lv_coord_t right = lv_obj_get_style_pad_right(obj, LV_PART_MAIN);
 547:Middlewares/lvgl/src/core/lv_obj_pos.c ****     lv_coord_t border_width = lv_obj_get_style_border_width(obj, LV_PART_MAIN);
 548:Middlewares/lvgl/src/core/lv_obj_pos.c **** 
 549:Middlewares/lvgl/src/core/lv_obj_pos.c ****     return lv_obj_get_width(obj) - left - right - 2 * border_width;
 550:Middlewares/lvgl/src/core/lv_obj_pos.c **** }
 551:Middlewares/lvgl/src/core/lv_obj_pos.c **** 
 552:Middlewares/lvgl/src/core/lv_obj_pos.c **** lv_coord_t lv_obj_get_content_height(const lv_obj_t * obj)
 553:Middlewares/lvgl/src/core/lv_obj_pos.c **** {
 554:Middlewares/lvgl/src/core/lv_obj_pos.c ****     LV_ASSERT_OBJ(obj, MY_CLASS);
 555:Middlewares/lvgl/src/core/lv_obj_pos.c **** 
 556:Middlewares/lvgl/src/core/lv_obj_pos.c ****     lv_coord_t top = lv_obj_get_style_pad_top(obj, LV_PART_MAIN);
 557:Middlewares/lvgl/src/core/lv_obj_pos.c ****     lv_coord_t bottom =  lv_obj_get_style_pad_bottom(obj, LV_PART_MAIN);
 558:Middlewares/lvgl/src/core/lv_obj_pos.c ****     lv_coord_t border_width = lv_obj_get_style_border_width(obj, LV_PART_MAIN);
 559:Middlewares/lvgl/src/core/lv_obj_pos.c **** 
 560:Middlewares/lvgl/src/core/lv_obj_pos.c ****     return lv_obj_get_height(obj) - top - bottom - 2 * border_width;
 561:Middlewares/lvgl/src/core/lv_obj_pos.c **** }
 562:Middlewares/lvgl/src/core/lv_obj_pos.c **** 
 563:Middlewares/lvgl/src/core/lv_obj_pos.c **** void lv_obj_get_content_coords(const lv_obj_t * obj, lv_area_t * area)
 564:Middlewares/lvgl/src/core/lv_obj_pos.c **** {
 565:Middlewares/lvgl/src/core/lv_obj_pos.c ****     LV_ASSERT_OBJ(obj, MY_CLASS);
 566:Middlewares/lvgl/src/core/lv_obj_pos.c ****     lv_coord_t border_width = lv_obj_get_style_border_width(obj, LV_PART_MAIN);
 567:Middlewares/lvgl/src/core/lv_obj_pos.c **** 
 568:Middlewares/lvgl/src/core/lv_obj_pos.c ****     lv_obj_get_coords(obj, area);
 569:Middlewares/lvgl/src/core/lv_obj_pos.c ****     lv_area_increase(area, -border_width, -border_width);
 570:Middlewares/lvgl/src/core/lv_obj_pos.c ****     area->x1 += lv_obj_get_style_pad_left(obj, LV_PART_MAIN);
ARM GAS  /tmp/ccmgRVpn.s 			page 45


 571:Middlewares/lvgl/src/core/lv_obj_pos.c ****     area->x2 -= lv_obj_get_style_pad_right(obj, LV_PART_MAIN);
 572:Middlewares/lvgl/src/core/lv_obj_pos.c ****     area->y1 += lv_obj_get_style_pad_top(obj, LV_PART_MAIN);
 573:Middlewares/lvgl/src/core/lv_obj_pos.c ****     area->y2 -= lv_obj_get_style_pad_bottom(obj, LV_PART_MAIN);
 574:Middlewares/lvgl/src/core/lv_obj_pos.c **** 
 575:Middlewares/lvgl/src/core/lv_obj_pos.c **** }
 576:Middlewares/lvgl/src/core/lv_obj_pos.c **** 
 577:Middlewares/lvgl/src/core/lv_obj_pos.c **** lv_coord_t lv_obj_get_self_width(const lv_obj_t * obj)
 578:Middlewares/lvgl/src/core/lv_obj_pos.c **** {
 579:Middlewares/lvgl/src/core/lv_obj_pos.c ****     lv_point_t p = {0, LV_COORD_MIN};
 580:Middlewares/lvgl/src/core/lv_obj_pos.c ****     lv_event_send((lv_obj_t * )obj, LV_EVENT_GET_SELF_SIZE, &p);
 581:Middlewares/lvgl/src/core/lv_obj_pos.c ****     return p.x;
 582:Middlewares/lvgl/src/core/lv_obj_pos.c **** }
 583:Middlewares/lvgl/src/core/lv_obj_pos.c **** 
 584:Middlewares/lvgl/src/core/lv_obj_pos.c **** lv_coord_t lv_obj_get_self_height(const lv_obj_t * obj)
 585:Middlewares/lvgl/src/core/lv_obj_pos.c **** {
 586:Middlewares/lvgl/src/core/lv_obj_pos.c ****     lv_point_t p = {LV_COORD_MIN, 0};
 587:Middlewares/lvgl/src/core/lv_obj_pos.c ****     lv_event_send((lv_obj_t * )obj, LV_EVENT_GET_SELF_SIZE, &p);
 588:Middlewares/lvgl/src/core/lv_obj_pos.c ****     return p.y;
 589:Middlewares/lvgl/src/core/lv_obj_pos.c **** }
 590:Middlewares/lvgl/src/core/lv_obj_pos.c **** 
 591:Middlewares/lvgl/src/core/lv_obj_pos.c **** bool lv_obj_refresh_self_size(lv_obj_t * obj)
 592:Middlewares/lvgl/src/core/lv_obj_pos.c **** {
 593:Middlewares/lvgl/src/core/lv_obj_pos.c ****     lv_coord_t w_set = lv_obj_get_style_width(obj, LV_PART_MAIN);
 594:Middlewares/lvgl/src/core/lv_obj_pos.c ****     lv_coord_t h_set = lv_obj_get_style_height(obj, LV_PART_MAIN);
 595:Middlewares/lvgl/src/core/lv_obj_pos.c ****     if(w_set != LV_SIZE_CONTENT && h_set != LV_SIZE_CONTENT) return false;
 596:Middlewares/lvgl/src/core/lv_obj_pos.c **** 
 597:Middlewares/lvgl/src/core/lv_obj_pos.c ****     lv_obj_mark_layout_as_dirty(obj);
 598:Middlewares/lvgl/src/core/lv_obj_pos.c ****     return true;
 599:Middlewares/lvgl/src/core/lv_obj_pos.c **** }
 600:Middlewares/lvgl/src/core/lv_obj_pos.c **** 
 601:Middlewares/lvgl/src/core/lv_obj_pos.c **** void lv_obj_refr_pos(lv_obj_t * obj)
 602:Middlewares/lvgl/src/core/lv_obj_pos.c **** {
 603:Middlewares/lvgl/src/core/lv_obj_pos.c ****     if(lv_obj_is_layout_positioned(obj)) return;
 604:Middlewares/lvgl/src/core/lv_obj_pos.c **** 
 605:Middlewares/lvgl/src/core/lv_obj_pos.c ****     lv_obj_t * parent = lv_obj_get_parent(obj);
 606:Middlewares/lvgl/src/core/lv_obj_pos.c ****     lv_coord_t x = lv_obj_get_style_x(obj, LV_PART_MAIN);
 607:Middlewares/lvgl/src/core/lv_obj_pos.c ****     lv_coord_t y = lv_obj_get_style_y(obj, LV_PART_MAIN);
 608:Middlewares/lvgl/src/core/lv_obj_pos.c **** 
 609:Middlewares/lvgl/src/core/lv_obj_pos.c ****     if(parent == NULL) {
 610:Middlewares/lvgl/src/core/lv_obj_pos.c ****         lv_obj_move_to(obj, x, y);
 611:Middlewares/lvgl/src/core/lv_obj_pos.c ****         return;
 612:Middlewares/lvgl/src/core/lv_obj_pos.c ****     }
 613:Middlewares/lvgl/src/core/lv_obj_pos.c **** 
 614:Middlewares/lvgl/src/core/lv_obj_pos.c ****     /*Handle percentage value*/
 615:Middlewares/lvgl/src/core/lv_obj_pos.c ****     lv_coord_t pw = lv_obj_get_content_width(parent);
 616:Middlewares/lvgl/src/core/lv_obj_pos.c ****     lv_coord_t ph = lv_obj_get_content_height(parent);
 617:Middlewares/lvgl/src/core/lv_obj_pos.c ****     if(LV_COORD_IS_PCT(x)) x = (pw * LV_COORD_GET_PCT(x)) / 100;
 618:Middlewares/lvgl/src/core/lv_obj_pos.c ****     if(LV_COORD_IS_PCT(y)) y = (ph * LV_COORD_GET_PCT(y)) / 100;
 619:Middlewares/lvgl/src/core/lv_obj_pos.c **** 
 620:Middlewares/lvgl/src/core/lv_obj_pos.c ****     /*Handle percentage value of translate*/
 621:Middlewares/lvgl/src/core/lv_obj_pos.c ****     lv_coord_t tr_x = lv_obj_get_style_translate_x(obj, LV_PART_MAIN);
 622:Middlewares/lvgl/src/core/lv_obj_pos.c ****     lv_coord_t tr_y = lv_obj_get_style_translate_y(obj, LV_PART_MAIN);
 623:Middlewares/lvgl/src/core/lv_obj_pos.c ****     lv_coord_t w = lv_obj_get_width(obj);
 624:Middlewares/lvgl/src/core/lv_obj_pos.c ****     lv_coord_t h = lv_obj_get_height(obj);
 625:Middlewares/lvgl/src/core/lv_obj_pos.c ****     if(LV_COORD_IS_PCT(tr_x)) tr_x = (w * LV_COORD_GET_PCT(tr_x)) / 100;
 626:Middlewares/lvgl/src/core/lv_obj_pos.c ****     if(LV_COORD_IS_PCT(tr_y)) tr_y = (h * LV_COORD_GET_PCT(tr_y)) / 100;
 627:Middlewares/lvgl/src/core/lv_obj_pos.c **** 
ARM GAS  /tmp/ccmgRVpn.s 			page 46


 628:Middlewares/lvgl/src/core/lv_obj_pos.c ****     /*Use the translation*/
 629:Middlewares/lvgl/src/core/lv_obj_pos.c ****     x += tr_x;
 630:Middlewares/lvgl/src/core/lv_obj_pos.c ****     y += tr_y;
 631:Middlewares/lvgl/src/core/lv_obj_pos.c **** 
 632:Middlewares/lvgl/src/core/lv_obj_pos.c ****     lv_align_t align = lv_obj_get_style_align(obj, LV_PART_MAIN);
 633:Middlewares/lvgl/src/core/lv_obj_pos.c **** 
 634:Middlewares/lvgl/src/core/lv_obj_pos.c ****     if(align == LV_ALIGN_DEFAULT) {
 635:Middlewares/lvgl/src/core/lv_obj_pos.c ****         if(lv_obj_get_style_base_dir(parent, LV_PART_MAIN) == LV_BASE_DIR_RTL) align = LV_ALIGN_TOP
 636:Middlewares/lvgl/src/core/lv_obj_pos.c ****         else align = LV_ALIGN_TOP_LEFT;
 637:Middlewares/lvgl/src/core/lv_obj_pos.c ****     }
 638:Middlewares/lvgl/src/core/lv_obj_pos.c **** 
 639:Middlewares/lvgl/src/core/lv_obj_pos.c ****     if(align == LV_ALIGN_TOP_LEFT) {
 640:Middlewares/lvgl/src/core/lv_obj_pos.c ****         lv_obj_move_to(obj, x, y);
 641:Middlewares/lvgl/src/core/lv_obj_pos.c ****     }
 642:Middlewares/lvgl/src/core/lv_obj_pos.c ****     else {
 643:Middlewares/lvgl/src/core/lv_obj_pos.c **** 
 644:Middlewares/lvgl/src/core/lv_obj_pos.c ****         switch(align) {
 645:Middlewares/lvgl/src/core/lv_obj_pos.c ****         case LV_ALIGN_TOP_MID:
 646:Middlewares/lvgl/src/core/lv_obj_pos.c ****             x += pw / 2 - w / 2;
 647:Middlewares/lvgl/src/core/lv_obj_pos.c ****             break;
 648:Middlewares/lvgl/src/core/lv_obj_pos.c ****         case LV_ALIGN_TOP_RIGHT:
 649:Middlewares/lvgl/src/core/lv_obj_pos.c ****             x += pw - w;
 650:Middlewares/lvgl/src/core/lv_obj_pos.c ****             break;
 651:Middlewares/lvgl/src/core/lv_obj_pos.c ****         case LV_ALIGN_LEFT_MID:
 652:Middlewares/lvgl/src/core/lv_obj_pos.c ****             y += ph / 2 - h / 2;
 653:Middlewares/lvgl/src/core/lv_obj_pos.c ****             break;
 654:Middlewares/lvgl/src/core/lv_obj_pos.c ****         case LV_ALIGN_BOTTOM_LEFT:
 655:Middlewares/lvgl/src/core/lv_obj_pos.c ****             y += ph - h;
 656:Middlewares/lvgl/src/core/lv_obj_pos.c ****             break;
 657:Middlewares/lvgl/src/core/lv_obj_pos.c ****         case LV_ALIGN_BOTTOM_MID:
 658:Middlewares/lvgl/src/core/lv_obj_pos.c ****             x += pw / 2 - w / 2;
 659:Middlewares/lvgl/src/core/lv_obj_pos.c ****             y += ph - h;
 660:Middlewares/lvgl/src/core/lv_obj_pos.c ****             break;
 661:Middlewares/lvgl/src/core/lv_obj_pos.c ****         case LV_ALIGN_BOTTOM_RIGHT:
 662:Middlewares/lvgl/src/core/lv_obj_pos.c ****             x += pw - w;
 663:Middlewares/lvgl/src/core/lv_obj_pos.c ****             y += ph - h;
 664:Middlewares/lvgl/src/core/lv_obj_pos.c ****             break;
 665:Middlewares/lvgl/src/core/lv_obj_pos.c ****         case LV_ALIGN_RIGHT_MID:
 666:Middlewares/lvgl/src/core/lv_obj_pos.c ****             x += pw - w;
 667:Middlewares/lvgl/src/core/lv_obj_pos.c ****             y += ph / 2 - h / 2;
 668:Middlewares/lvgl/src/core/lv_obj_pos.c ****             break;
 669:Middlewares/lvgl/src/core/lv_obj_pos.c ****         case LV_ALIGN_CENTER:
 670:Middlewares/lvgl/src/core/lv_obj_pos.c ****             x += pw / 2 - w / 2;
 671:Middlewares/lvgl/src/core/lv_obj_pos.c ****             y += ph / 2 - h / 2;
 672:Middlewares/lvgl/src/core/lv_obj_pos.c ****             break;
 673:Middlewares/lvgl/src/core/lv_obj_pos.c ****         default:
 674:Middlewares/lvgl/src/core/lv_obj_pos.c ****             break;
 675:Middlewares/lvgl/src/core/lv_obj_pos.c ****         }
 676:Middlewares/lvgl/src/core/lv_obj_pos.c ****         lv_obj_move_to(obj, x, y);
 677:Middlewares/lvgl/src/core/lv_obj_pos.c ****     }
 678:Middlewares/lvgl/src/core/lv_obj_pos.c **** }
 679:Middlewares/lvgl/src/core/lv_obj_pos.c **** 
 680:Middlewares/lvgl/src/core/lv_obj_pos.c **** void lv_obj_move_to(lv_obj_t * obj, lv_coord_t x, lv_coord_t y)
 681:Middlewares/lvgl/src/core/lv_obj_pos.c **** {
 682:Middlewares/lvgl/src/core/lv_obj_pos.c ****     /*Convert x and y to absolute coordinates*/
 683:Middlewares/lvgl/src/core/lv_obj_pos.c ****     lv_obj_t * parent = obj->parent;
 684:Middlewares/lvgl/src/core/lv_obj_pos.c **** 
ARM GAS  /tmp/ccmgRVpn.s 			page 47


 685:Middlewares/lvgl/src/core/lv_obj_pos.c ****     if(parent) {
 686:Middlewares/lvgl/src/core/lv_obj_pos.c ****         lv_coord_t pad_left = lv_obj_get_style_pad_left(parent, LV_PART_MAIN);
 687:Middlewares/lvgl/src/core/lv_obj_pos.c ****         lv_coord_t pad_top = lv_obj_get_style_pad_top(parent, LV_PART_MAIN);
 688:Middlewares/lvgl/src/core/lv_obj_pos.c **** 
 689:Middlewares/lvgl/src/core/lv_obj_pos.c ****         if(lv_obj_has_flag(obj, LV_OBJ_FLAG_FLOATING)) {
 690:Middlewares/lvgl/src/core/lv_obj_pos.c ****             x += pad_left + parent->coords.x1;
 691:Middlewares/lvgl/src/core/lv_obj_pos.c ****             y += pad_top + parent->coords.y1;
 692:Middlewares/lvgl/src/core/lv_obj_pos.c ****         } else {
 693:Middlewares/lvgl/src/core/lv_obj_pos.c ****             x += pad_left + parent->coords.x1 - lv_obj_get_scroll_x(parent);
 694:Middlewares/lvgl/src/core/lv_obj_pos.c ****             y += pad_top + parent->coords.y1 - lv_obj_get_scroll_y(parent);
 695:Middlewares/lvgl/src/core/lv_obj_pos.c ****         }
 696:Middlewares/lvgl/src/core/lv_obj_pos.c **** 
 697:Middlewares/lvgl/src/core/lv_obj_pos.c ****         lv_coord_t border_width = lv_obj_get_style_border_width(parent, LV_PART_MAIN);
 698:Middlewares/lvgl/src/core/lv_obj_pos.c ****         x += border_width;
 699:Middlewares/lvgl/src/core/lv_obj_pos.c ****         y += border_width;
 700:Middlewares/lvgl/src/core/lv_obj_pos.c ****     }
 701:Middlewares/lvgl/src/core/lv_obj_pos.c **** 
 702:Middlewares/lvgl/src/core/lv_obj_pos.c ****     /*Calculate and set the movement*/
 703:Middlewares/lvgl/src/core/lv_obj_pos.c ****     lv_point_t diff;
 704:Middlewares/lvgl/src/core/lv_obj_pos.c ****     diff.x = x - obj->coords.x1;
 705:Middlewares/lvgl/src/core/lv_obj_pos.c ****     diff.y = y - obj->coords.y1;
 706:Middlewares/lvgl/src/core/lv_obj_pos.c **** 
 707:Middlewares/lvgl/src/core/lv_obj_pos.c ****     /*Do nothing if the position is not changed*/
 708:Middlewares/lvgl/src/core/lv_obj_pos.c ****     /*It is very important else recursive positioning can
 709:Middlewares/lvgl/src/core/lv_obj_pos.c ****      *occur without position change*/
 710:Middlewares/lvgl/src/core/lv_obj_pos.c ****     if(diff.x == 0 && diff.y == 0) return;
 711:Middlewares/lvgl/src/core/lv_obj_pos.c **** 
 712:Middlewares/lvgl/src/core/lv_obj_pos.c ****     /*Invalidate the original area*/
 713:Middlewares/lvgl/src/core/lv_obj_pos.c ****     lv_obj_invalidate(obj);
 714:Middlewares/lvgl/src/core/lv_obj_pos.c **** 
 715:Middlewares/lvgl/src/core/lv_obj_pos.c ****     /*Save the original coordinates*/
 716:Middlewares/lvgl/src/core/lv_obj_pos.c ****     lv_area_t ori;
 717:Middlewares/lvgl/src/core/lv_obj_pos.c ****     lv_obj_get_coords(obj, &ori);
 718:Middlewares/lvgl/src/core/lv_obj_pos.c **** 
 719:Middlewares/lvgl/src/core/lv_obj_pos.c ****     /*Check if the object inside the parent or not*/
 720:Middlewares/lvgl/src/core/lv_obj_pos.c ****     lv_area_t parent_fit_area;
 721:Middlewares/lvgl/src/core/lv_obj_pos.c ****     bool on1 = false;
 722:Middlewares/lvgl/src/core/lv_obj_pos.c ****     if(parent) {
 723:Middlewares/lvgl/src/core/lv_obj_pos.c ****         lv_obj_get_content_coords(parent, &parent_fit_area);
 724:Middlewares/lvgl/src/core/lv_obj_pos.c **** 
 725:Middlewares/lvgl/src/core/lv_obj_pos.c ****         /*If the object is already out of the parent and its position is changes
 726:Middlewares/lvgl/src/core/lv_obj_pos.c ****          *surely the scrollbars also changes so invalidate them*/
 727:Middlewares/lvgl/src/core/lv_obj_pos.c ****         on1 = _lv_area_is_in(&ori, &parent_fit_area, 0);
 728:Middlewares/lvgl/src/core/lv_obj_pos.c ****         if(!on1) lv_obj_scrollbar_invalidate(parent);
 729:Middlewares/lvgl/src/core/lv_obj_pos.c ****     }
 730:Middlewares/lvgl/src/core/lv_obj_pos.c **** 
 731:Middlewares/lvgl/src/core/lv_obj_pos.c ****     obj->coords.x1 += diff.x;
 732:Middlewares/lvgl/src/core/lv_obj_pos.c ****     obj->coords.y1 += diff.y;
 733:Middlewares/lvgl/src/core/lv_obj_pos.c ****     obj->coords.x2 += diff.x;
 734:Middlewares/lvgl/src/core/lv_obj_pos.c ****     obj->coords.y2 += diff.y;
 735:Middlewares/lvgl/src/core/lv_obj_pos.c **** 
 736:Middlewares/lvgl/src/core/lv_obj_pos.c ****     lv_obj_move_children_by(obj, diff.x, diff.y, false);
 737:Middlewares/lvgl/src/core/lv_obj_pos.c **** 
 738:Middlewares/lvgl/src/core/lv_obj_pos.c ****     /*Call the ancestor's event handler to the parent too*/
 739:Middlewares/lvgl/src/core/lv_obj_pos.c ****     if(parent) lv_event_send(parent, LV_EVENT_CHILD_CHANGED, obj);
 740:Middlewares/lvgl/src/core/lv_obj_pos.c **** 
 741:Middlewares/lvgl/src/core/lv_obj_pos.c ****     /*Invalidate the new area*/
ARM GAS  /tmp/ccmgRVpn.s 			page 48


 742:Middlewares/lvgl/src/core/lv_obj_pos.c ****     lv_obj_invalidate(obj);
 743:Middlewares/lvgl/src/core/lv_obj_pos.c **** 
 744:Middlewares/lvgl/src/core/lv_obj_pos.c ****     /*If the object was out of the parent invalidate the new scrollbar area too.
 745:Middlewares/lvgl/src/core/lv_obj_pos.c ****      *If it wasn't out of the parent but out now, also invalidate the srollbars*/
 746:Middlewares/lvgl/src/core/lv_obj_pos.c ****     if(parent) {
 747:Middlewares/lvgl/src/core/lv_obj_pos.c ****         bool on2 = _lv_area_is_in(&obj->coords, &parent_fit_area, 0);
 748:Middlewares/lvgl/src/core/lv_obj_pos.c ****         if(on1 || (!on1 && on2)) lv_obj_scrollbar_invalidate(parent);
 749:Middlewares/lvgl/src/core/lv_obj_pos.c ****     }
 750:Middlewares/lvgl/src/core/lv_obj_pos.c **** }
 751:Middlewares/lvgl/src/core/lv_obj_pos.c **** 
 752:Middlewares/lvgl/src/core/lv_obj_pos.c **** void lv_obj_move_children_by(lv_obj_t * obj, lv_coord_t x_diff, lv_coord_t y_diff, bool ignore_floa
 753:Middlewares/lvgl/src/core/lv_obj_pos.c **** {
 754:Middlewares/lvgl/src/core/lv_obj_pos.c ****     uint32_t i;
 755:Middlewares/lvgl/src/core/lv_obj_pos.c ****     uint32_t child_cnt = lv_obj_get_child_cnt(obj);
 756:Middlewares/lvgl/src/core/lv_obj_pos.c ****     for(i = 0; i < child_cnt; i++) {
 757:Middlewares/lvgl/src/core/lv_obj_pos.c ****         lv_obj_t * child = lv_obj_get_child(obj, i);
 758:Middlewares/lvgl/src/core/lv_obj_pos.c ****         if(ignore_floating && lv_obj_has_flag(child, LV_OBJ_FLAG_FLOATING)) continue;
 759:Middlewares/lvgl/src/core/lv_obj_pos.c ****         child->coords.x1 += x_diff;
 760:Middlewares/lvgl/src/core/lv_obj_pos.c ****         child->coords.y1 += y_diff;
 761:Middlewares/lvgl/src/core/lv_obj_pos.c ****         child->coords.x2 += x_diff;
 762:Middlewares/lvgl/src/core/lv_obj_pos.c ****         child->coords.y2 += y_diff;
 763:Middlewares/lvgl/src/core/lv_obj_pos.c **** 
 764:Middlewares/lvgl/src/core/lv_obj_pos.c ****         lv_obj_move_children_by(child, x_diff, y_diff, false);
 765:Middlewares/lvgl/src/core/lv_obj_pos.c ****     }
 766:Middlewares/lvgl/src/core/lv_obj_pos.c **** }
 767:Middlewares/lvgl/src/core/lv_obj_pos.c **** 
 768:Middlewares/lvgl/src/core/lv_obj_pos.c **** 
 769:Middlewares/lvgl/src/core/lv_obj_pos.c **** void lv_obj_invalidate_area(const lv_obj_t * obj, const lv_area_t * area)
 770:Middlewares/lvgl/src/core/lv_obj_pos.c **** {
 771:Middlewares/lvgl/src/core/lv_obj_pos.c ****     LV_ASSERT_OBJ(obj, MY_CLASS);
 772:Middlewares/lvgl/src/core/lv_obj_pos.c **** 
 773:Middlewares/lvgl/src/core/lv_obj_pos.c ****     lv_area_t area_tmp;
 774:Middlewares/lvgl/src/core/lv_obj_pos.c ****     lv_area_copy(&area_tmp, area);
 775:Middlewares/lvgl/src/core/lv_obj_pos.c ****     bool visible = lv_obj_area_is_visible(obj, &area_tmp);
 776:Middlewares/lvgl/src/core/lv_obj_pos.c **** 
 777:Middlewares/lvgl/src/core/lv_obj_pos.c ****     if(visible) _lv_inv_area(lv_obj_get_disp(obj), &area_tmp);
 778:Middlewares/lvgl/src/core/lv_obj_pos.c **** }
 779:Middlewares/lvgl/src/core/lv_obj_pos.c **** 
 780:Middlewares/lvgl/src/core/lv_obj_pos.c **** void lv_obj_invalidate(const lv_obj_t * obj)
 781:Middlewares/lvgl/src/core/lv_obj_pos.c **** {
 782:Middlewares/lvgl/src/core/lv_obj_pos.c ****     LV_ASSERT_OBJ(obj, MY_CLASS);
 783:Middlewares/lvgl/src/core/lv_obj_pos.c **** 
 784:Middlewares/lvgl/src/core/lv_obj_pos.c ****     /*Truncate the area to the object*/
 785:Middlewares/lvgl/src/core/lv_obj_pos.c ****     lv_area_t obj_coords;
 786:Middlewares/lvgl/src/core/lv_obj_pos.c ****     lv_coord_t ext_size = _lv_obj_get_ext_draw_size(obj);
 787:Middlewares/lvgl/src/core/lv_obj_pos.c ****     lv_area_copy(&obj_coords, &obj->coords);
 788:Middlewares/lvgl/src/core/lv_obj_pos.c ****     obj_coords.x1 -= ext_size;
 789:Middlewares/lvgl/src/core/lv_obj_pos.c ****     obj_coords.y1 -= ext_size;
 790:Middlewares/lvgl/src/core/lv_obj_pos.c ****     obj_coords.x2 += ext_size;
 791:Middlewares/lvgl/src/core/lv_obj_pos.c ****     obj_coords.y2 += ext_size;
 792:Middlewares/lvgl/src/core/lv_obj_pos.c **** 
 793:Middlewares/lvgl/src/core/lv_obj_pos.c ****     lv_obj_invalidate_area(obj, &obj_coords);
 794:Middlewares/lvgl/src/core/lv_obj_pos.c **** 
 795:Middlewares/lvgl/src/core/lv_obj_pos.c **** }
 796:Middlewares/lvgl/src/core/lv_obj_pos.c **** 
 797:Middlewares/lvgl/src/core/lv_obj_pos.c **** bool lv_obj_area_is_visible(const lv_obj_t * obj, lv_area_t * area)
 798:Middlewares/lvgl/src/core/lv_obj_pos.c **** {
ARM GAS  /tmp/ccmgRVpn.s 			page 49


 799:Middlewares/lvgl/src/core/lv_obj_pos.c ****     if(lv_obj_has_flag(obj, LV_OBJ_FLAG_HIDDEN)) return false;
 800:Middlewares/lvgl/src/core/lv_obj_pos.c **** 
 801:Middlewares/lvgl/src/core/lv_obj_pos.c ****     /*Invalidate the object only if it belongs to the current or previous'*/
 802:Middlewares/lvgl/src/core/lv_obj_pos.c ****     lv_obj_t * obj_scr = lv_obj_get_screen(obj);
 803:Middlewares/lvgl/src/core/lv_obj_pos.c ****     lv_disp_t * disp   = lv_obj_get_disp(obj_scr);
 804:Middlewares/lvgl/src/core/lv_obj_pos.c ****     if(obj_scr != lv_disp_get_scr_act(disp) &&
 805:Middlewares/lvgl/src/core/lv_obj_pos.c ****        obj_scr != lv_disp_get_scr_prev(disp) &&
 806:Middlewares/lvgl/src/core/lv_obj_pos.c ****        obj_scr != lv_disp_get_layer_top(disp) &&
 807:Middlewares/lvgl/src/core/lv_obj_pos.c ****        obj_scr != lv_disp_get_layer_sys(disp))
 808:Middlewares/lvgl/src/core/lv_obj_pos.c ****     {
 809:Middlewares/lvgl/src/core/lv_obj_pos.c ****         return false;
 810:Middlewares/lvgl/src/core/lv_obj_pos.c ****     }
 811:Middlewares/lvgl/src/core/lv_obj_pos.c **** 
 812:Middlewares/lvgl/src/core/lv_obj_pos.c ****     /*Truncate the area to the object*/
 813:Middlewares/lvgl/src/core/lv_obj_pos.c ****     lv_area_t obj_coords;
 814:Middlewares/lvgl/src/core/lv_obj_pos.c ****     lv_coord_t ext_size = _lv_obj_get_ext_draw_size(obj);
 815:Middlewares/lvgl/src/core/lv_obj_pos.c ****     lv_area_copy(&obj_coords, &obj->coords);
 816:Middlewares/lvgl/src/core/lv_obj_pos.c ****     obj_coords.x1 -= ext_size;
 817:Middlewares/lvgl/src/core/lv_obj_pos.c ****     obj_coords.y1 -= ext_size;
 818:Middlewares/lvgl/src/core/lv_obj_pos.c ****     obj_coords.x2 += ext_size;
 819:Middlewares/lvgl/src/core/lv_obj_pos.c ****     obj_coords.y2 += ext_size;
 820:Middlewares/lvgl/src/core/lv_obj_pos.c **** 
 821:Middlewares/lvgl/src/core/lv_obj_pos.c ****     bool is_common;
 822:Middlewares/lvgl/src/core/lv_obj_pos.c **** 
 823:Middlewares/lvgl/src/core/lv_obj_pos.c ****     is_common = _lv_area_intersect(area, area, &obj_coords);
 824:Middlewares/lvgl/src/core/lv_obj_pos.c ****     if(is_common == false) return false;  /*The area is not on the object*/
 825:Middlewares/lvgl/src/core/lv_obj_pos.c **** 
 826:Middlewares/lvgl/src/core/lv_obj_pos.c ****     /*Truncate recursively to the parents*/
 827:Middlewares/lvgl/src/core/lv_obj_pos.c ****     lv_obj_t * par = lv_obj_get_parent(obj);
 828:Middlewares/lvgl/src/core/lv_obj_pos.c ****     while(par != NULL) {
 829:Middlewares/lvgl/src/core/lv_obj_pos.c ****         is_common = _lv_area_intersect(area, area, &par->coords);
 830:Middlewares/lvgl/src/core/lv_obj_pos.c ****         if(is_common == false) return false;       /*If no common parts with parent break;*/
 831:Middlewares/lvgl/src/core/lv_obj_pos.c ****         if(lv_obj_has_flag(par, LV_OBJ_FLAG_HIDDEN)) return false; /*If the parent is hidden then t
 832:Middlewares/lvgl/src/core/lv_obj_pos.c **** 
 833:Middlewares/lvgl/src/core/lv_obj_pos.c ****         par = lv_obj_get_parent(par);
 834:Middlewares/lvgl/src/core/lv_obj_pos.c ****     }
 835:Middlewares/lvgl/src/core/lv_obj_pos.c **** 
 836:Middlewares/lvgl/src/core/lv_obj_pos.c ****     return true;
 837:Middlewares/lvgl/src/core/lv_obj_pos.c **** }
 838:Middlewares/lvgl/src/core/lv_obj_pos.c **** 
 839:Middlewares/lvgl/src/core/lv_obj_pos.c **** bool lv_obj_is_visible(const lv_obj_t * obj)
 840:Middlewares/lvgl/src/core/lv_obj_pos.c **** {
 841:Middlewares/lvgl/src/core/lv_obj_pos.c ****     LV_ASSERT_OBJ(obj, MY_CLASS);
 842:Middlewares/lvgl/src/core/lv_obj_pos.c **** 
 843:Middlewares/lvgl/src/core/lv_obj_pos.c ****     lv_area_t obj_coords;
 844:Middlewares/lvgl/src/core/lv_obj_pos.c ****     lv_coord_t ext_size = _lv_obj_get_ext_draw_size(obj);
 845:Middlewares/lvgl/src/core/lv_obj_pos.c ****     lv_area_copy(&obj_coords, &obj->coords);
 846:Middlewares/lvgl/src/core/lv_obj_pos.c ****     obj_coords.x1 -= ext_size;
 847:Middlewares/lvgl/src/core/lv_obj_pos.c ****     obj_coords.y1 -= ext_size;
 848:Middlewares/lvgl/src/core/lv_obj_pos.c ****     obj_coords.x2 += ext_size;
 849:Middlewares/lvgl/src/core/lv_obj_pos.c ****     obj_coords.y2 += ext_size;
 850:Middlewares/lvgl/src/core/lv_obj_pos.c **** 
 851:Middlewares/lvgl/src/core/lv_obj_pos.c ****     return lv_obj_area_is_visible(obj, &obj_coords);
 852:Middlewares/lvgl/src/core/lv_obj_pos.c **** 
 853:Middlewares/lvgl/src/core/lv_obj_pos.c **** }
 854:Middlewares/lvgl/src/core/lv_obj_pos.c **** 
 855:Middlewares/lvgl/src/core/lv_obj_pos.c **** void lv_obj_set_ext_click_area(lv_obj_t * obj, lv_coord_t size)
ARM GAS  /tmp/ccmgRVpn.s 			page 50


 856:Middlewares/lvgl/src/core/lv_obj_pos.c **** {
 857:Middlewares/lvgl/src/core/lv_obj_pos.c ****     LV_ASSERT_OBJ(obj, MY_CLASS);
 858:Middlewares/lvgl/src/core/lv_obj_pos.c **** 
 859:Middlewares/lvgl/src/core/lv_obj_pos.c ****     lv_obj_allocate_spec_attr(obj);
 860:Middlewares/lvgl/src/core/lv_obj_pos.c ****     obj->spec_attr->ext_click_pad = size;
 861:Middlewares/lvgl/src/core/lv_obj_pos.c **** }
 862:Middlewares/lvgl/src/core/lv_obj_pos.c **** 
 863:Middlewares/lvgl/src/core/lv_obj_pos.c **** void lv_obj_get_click_area(const lv_obj_t * obj, lv_area_t * area)
 864:Middlewares/lvgl/src/core/lv_obj_pos.c **** {
 865:Middlewares/lvgl/src/core/lv_obj_pos.c ****     lv_area_copy(area, &obj->coords);
 866:Middlewares/lvgl/src/core/lv_obj_pos.c ****     if(obj->spec_attr) {
 867:Middlewares/lvgl/src/core/lv_obj_pos.c ****         area->x1 -= obj->spec_attr->ext_click_pad;
 868:Middlewares/lvgl/src/core/lv_obj_pos.c ****         area->x2 += obj->spec_attr->ext_click_pad;
 869:Middlewares/lvgl/src/core/lv_obj_pos.c ****         area->y1 -= obj->spec_attr->ext_click_pad;
 870:Middlewares/lvgl/src/core/lv_obj_pos.c ****         area->y2 += obj->spec_attr->ext_click_pad;
 871:Middlewares/lvgl/src/core/lv_obj_pos.c ****     }
 872:Middlewares/lvgl/src/core/lv_obj_pos.c **** }
 873:Middlewares/lvgl/src/core/lv_obj_pos.c **** 
 874:Middlewares/lvgl/src/core/lv_obj_pos.c **** bool lv_obj_hit_test(lv_obj_t * obj, const lv_point_t * point)
 875:Middlewares/lvgl/src/core/lv_obj_pos.c **** {
 876:Middlewares/lvgl/src/core/lv_obj_pos.c ****     lv_area_t a;
 877:Middlewares/lvgl/src/core/lv_obj_pos.c ****     lv_obj_get_click_area(obj, &a);
 878:Middlewares/lvgl/src/core/lv_obj_pos.c ****     bool res = _lv_area_is_point_on(&a, point, 0);
 879:Middlewares/lvgl/src/core/lv_obj_pos.c ****     if(res == false) return false;
 880:Middlewares/lvgl/src/core/lv_obj_pos.c **** 
 881:Middlewares/lvgl/src/core/lv_obj_pos.c ****     if(lv_obj_has_flag(obj, LV_OBJ_FLAG_ADV_HITTEST)) {
 882:Middlewares/lvgl/src/core/lv_obj_pos.c ****         lv_hit_test_info_t hit_info;
 883:Middlewares/lvgl/src/core/lv_obj_pos.c ****         hit_info.point = point;
 884:Middlewares/lvgl/src/core/lv_obj_pos.c ****         hit_info.res = true;
 885:Middlewares/lvgl/src/core/lv_obj_pos.c ****         lv_event_send(obj, LV_EVENT_HIT_TEST, &hit_info);
 886:Middlewares/lvgl/src/core/lv_obj_pos.c ****         return hit_info.res;
 887:Middlewares/lvgl/src/core/lv_obj_pos.c ****     }
 888:Middlewares/lvgl/src/core/lv_obj_pos.c **** 
 889:Middlewares/lvgl/src/core/lv_obj_pos.c ****     return res;
 890:Middlewares/lvgl/src/core/lv_obj_pos.c **** }
 891:Middlewares/lvgl/src/core/lv_obj_pos.c **** 
 892:Middlewares/lvgl/src/core/lv_obj_pos.c **** lv_coord_t lv_clamp_width(lv_coord_t width, lv_coord_t min_width, lv_coord_t max_width, lv_coord_t 
 893:Middlewares/lvgl/src/core/lv_obj_pos.c **** {
 894:Middlewares/lvgl/src/core/lv_obj_pos.c ****     if(LV_COORD_IS_PCT(min_width)) min_width = (ref_width * LV_COORD_GET_PCT(min_width)) / 100;
 895:Middlewares/lvgl/src/core/lv_obj_pos.c ****     if(LV_COORD_IS_PCT(max_width)) max_width = (ref_width * LV_COORD_GET_PCT(max_width)) / 100;
 896:Middlewares/lvgl/src/core/lv_obj_pos.c ****     return LV_CLAMP(min_width, width, max_width);
 897:Middlewares/lvgl/src/core/lv_obj_pos.c **** }
 898:Middlewares/lvgl/src/core/lv_obj_pos.c **** 
 899:Middlewares/lvgl/src/core/lv_obj_pos.c **** lv_coord_t lv_clamp_height(lv_coord_t height, lv_coord_t min_height, lv_coord_t max_height, lv_coor
 900:Middlewares/lvgl/src/core/lv_obj_pos.c **** {
 901:Middlewares/lvgl/src/core/lv_obj_pos.c ****     if(LV_COORD_IS_PCT(min_height)) min_height = (ref_height * LV_COORD_GET_PCT(min_height)) / 100;
 902:Middlewares/lvgl/src/core/lv_obj_pos.c ****     if(LV_COORD_IS_PCT(max_height)) max_height = (ref_height * LV_COORD_GET_PCT(max_height)) / 100;
 903:Middlewares/lvgl/src/core/lv_obj_pos.c ****     return LV_CLAMP(min_height, height, max_height);
 904:Middlewares/lvgl/src/core/lv_obj_pos.c **** }
 905:Middlewares/lvgl/src/core/lv_obj_pos.c **** 
 906:Middlewares/lvgl/src/core/lv_obj_pos.c **** 
 907:Middlewares/lvgl/src/core/lv_obj_pos.c **** 
 908:Middlewares/lvgl/src/core/lv_obj_pos.c **** /**********************
 909:Middlewares/lvgl/src/core/lv_obj_pos.c ****  *   STATIC FUNCTIONS
 910:Middlewares/lvgl/src/core/lv_obj_pos.c ****  **********************/
 911:Middlewares/lvgl/src/core/lv_obj_pos.c **** 
 912:Middlewares/lvgl/src/core/lv_obj_pos.c **** /**
ARM GAS  /tmp/ccmgRVpn.s 			page 51


 913:Middlewares/lvgl/src/core/lv_obj_pos.c ****  * Calculate the "auto size". It's `auto_size = max(children_size, self_size)`
 914:Middlewares/lvgl/src/core/lv_obj_pos.c ****  * @param obj pointer to an object
 915:Middlewares/lvgl/src/core/lv_obj_pos.c ****  * @param w_out store the width here. NULL to not calculate width
 916:Middlewares/lvgl/src/core/lv_obj_pos.c ****  * @param h_out store the height here. NULL to not calculate height
 917:Middlewares/lvgl/src/core/lv_obj_pos.c ****  */
 918:Middlewares/lvgl/src/core/lv_obj_pos.c **** static void calc_auto_size(lv_obj_t * obj, lv_coord_t * w_out, lv_coord_t * h_out)
 919:Middlewares/lvgl/src/core/lv_obj_pos.c **** {
 1398              		.loc 1 919 1 is_stmt 1 view -0
 1399              		.cfi_startproc
 1400              		@ args = 0, pretend = 0, frame = 0
 1401              		@ frame_needed = 0, uses_anonymous_args = 0
 1402              		.loc 1 919 1 is_stmt 0 view .LVU378
 1403 0000 2DE9F041 		push	{r4, r5, r6, r7, r8, lr}
 1404              	.LCFI29:
 1405              		.cfi_def_cfa_offset 24
 1406              		.cfi_offset 4, -24
 1407              		.cfi_offset 5, -20
 1408              		.cfi_offset 6, -16
 1409              		.cfi_offset 7, -12
 1410              		.cfi_offset 8, -8
 1411              		.cfi_offset 14, -4
 1412 0004 0446     		mov	r4, r0
 1413 0006 1546     		mov	r5, r2
 920:Middlewares/lvgl/src/core/lv_obj_pos.c ****     if(!w_out && !h_out) return;
 1414              		.loc 1 920 5 is_stmt 1 view .LVU379
 1415              		.loc 1 920 7 is_stmt 0 view .LVU380
 1416 0008 0E46     		mov	r6, r1
 1417 000a 19B3     		cbz	r1, .L78
 1418              	.L74:
 921:Middlewares/lvgl/src/core/lv_obj_pos.c ****     /*Get the bounding box of the children*/
 922:Middlewares/lvgl/src/core/lv_obj_pos.c ****     if(w_out) {
 1419              		.loc 1 922 5 is_stmt 1 view .LVU381
 1420              		.loc 1 922 7 is_stmt 0 view .LVU382
 1421 000c 7EB1     		cbz	r6, .L76
 1422              	.LBB149:
 923:Middlewares/lvgl/src/core/lv_obj_pos.c ****         lv_coord_t scroll_right = lv_obj_get_scroll_right(obj);
 1423              		.loc 1 923 9 is_stmt 1 view .LVU383
 1424              		.loc 1 923 35 is_stmt 0 view .LVU384
 1425 000e 2046     		mov	r0, r4
 1426              	.LVL123:
 1427              		.loc 1 923 35 view .LVU385
 1428 0010 FFF7FEFF 		bl	lv_obj_get_scroll_right
 1429              	.LVL124:
 1430              		.loc 1 923 35 view .LVU386
 1431 0014 8046     		mov	r8, r0
 1432              	.LVL125:
 924:Middlewares/lvgl/src/core/lv_obj_pos.c ****         lv_coord_t scroll_left = lv_obj_get_scroll_left(obj);
 1433              		.loc 1 924 9 is_stmt 1 view .LVU387
 1434              		.loc 1 924 34 is_stmt 0 view .LVU388
 1435 0016 2046     		mov	r0, r4
 1436 0018 FFF7FEFF 		bl	lv_obj_get_scroll_left
 1437              	.LVL126:
 1438 001c 0746     		mov	r7, r0
 1439              	.LVL127:
 925:Middlewares/lvgl/src/core/lv_obj_pos.c ****         *w_out = lv_obj_get_width(obj) + scroll_right + scroll_left;
 1440              		.loc 1 925 9 is_stmt 1 view .LVU389
 1441              		.loc 1 925 18 is_stmt 0 view .LVU390
ARM GAS  /tmp/ccmgRVpn.s 			page 52


 1442 001e 2046     		mov	r0, r4
 1443 0020 FFF7FEFF 		bl	lv_obj_get_width
 1444              	.LVL128:
 1445              		.loc 1 925 40 view .LVU391
 1446 0024 18FA80F3 		uxtah	r3, r8, r0
 1447              		.loc 1 925 55 view .LVU392
 1448 0028 17FA83F0 		uxtah	r0, r7, r3
 1449              		.loc 1 925 16 view .LVU393
 1450 002c 3080     		strh	r0, [r6]	@ movhi
 1451              	.LVL129:
 1452              	.L76:
 1453              		.loc 1 925 16 view .LVU394
 1454              	.LBE149:
 926:Middlewares/lvgl/src/core/lv_obj_pos.c ****     }
 927:Middlewares/lvgl/src/core/lv_obj_pos.c **** 
 928:Middlewares/lvgl/src/core/lv_obj_pos.c ****     if(h_out) {
 1455              		.loc 1 928 5 is_stmt 1 view .LVU395
 1456              		.loc 1 928 7 is_stmt 0 view .LVU396
 1457 002e 7DB1     		cbz	r5, .L73
 1458              	.LBB150:
 929:Middlewares/lvgl/src/core/lv_obj_pos.c ****         lv_coord_t scroll_bottom = lv_obj_get_scroll_bottom(obj);
 1459              		.loc 1 929 9 is_stmt 1 view .LVU397
 1460              		.loc 1 929 36 is_stmt 0 view .LVU398
 1461 0030 2046     		mov	r0, r4
 1462 0032 FFF7FEFF 		bl	lv_obj_get_scroll_bottom
 1463              	.LVL130:
 1464 0036 0746     		mov	r7, r0
 1465              	.LVL131:
 930:Middlewares/lvgl/src/core/lv_obj_pos.c ****         lv_coord_t scroll_top = lv_obj_get_scroll_top(obj);
 1466              		.loc 1 930 9 is_stmt 1 view .LVU399
 1467              		.loc 1 930 33 is_stmt 0 view .LVU400
 1468 0038 2046     		mov	r0, r4
 1469 003a FFF7FEFF 		bl	lv_obj_get_scroll_top
 1470              	.LVL132:
 1471 003e 0646     		mov	r6, r0
 1472              	.LVL133:
 931:Middlewares/lvgl/src/core/lv_obj_pos.c ****         *h_out = lv_obj_get_height(obj) + scroll_bottom + scroll_top;
 1473              		.loc 1 931 9 is_stmt 1 view .LVU401
 1474              		.loc 1 931 18 is_stmt 0 view .LVU402
 1475 0040 2046     		mov	r0, r4
 1476 0042 FFF7FEFF 		bl	lv_obj_get_height
 1477              	.LVL134:
 1478              		.loc 1 931 41 view .LVU403
 1479 0046 17FA80F3 		uxtah	r3, r7, r0
 1480              		.loc 1 931 57 view .LVU404
 1481 004a 16FA83F0 		uxtah	r0, r6, r3
 1482              		.loc 1 931 16 view .LVU405
 1483 004e 2880     		strh	r0, [r5]	@ movhi
 1484              	.LVL135:
 1485              	.L73:
 1486              		.loc 1 931 16 view .LVU406
 1487              	.LBE150:
 932:Middlewares/lvgl/src/core/lv_obj_pos.c ****     }
 933:Middlewares/lvgl/src/core/lv_obj_pos.c **** }
 1488              		.loc 1 933 1 view .LVU407
 1489 0050 BDE8F081 		pop	{r4, r5, r6, r7, r8, pc}
 1490              	.LVL136:
ARM GAS  /tmp/ccmgRVpn.s 			page 53


 1491              	.L78:
 920:Middlewares/lvgl/src/core/lv_obj_pos.c ****     /*Get the bounding box of the children*/
 1492              		.loc 1 920 15 discriminator 1 view .LVU408
 1493 0054 002A     		cmp	r2, #0
 1494 0056 D9D1     		bne	.L74
 1495 0058 FAE7     		b	.L73
 1496              		.cfi_endproc
 1497              	.LFE195:
 1499              		.section	.text.lv_obj_get_y2,"ax",%progbits
 1500              		.align	1
 1501              		.global	lv_obj_get_y2
 1502              		.syntax unified
 1503              		.thumb
 1504              		.thumb_func
 1506              	lv_obj_get_y2:
 1507              	.LVL137:
 1508              	.LFB174:
 521:Middlewares/lvgl/src/core/lv_obj_pos.c ****     LV_ASSERT_OBJ(obj, MY_CLASS);
 1509              		.loc 1 521 1 is_stmt 1 view -0
 1510              		.cfi_startproc
 1511              		@ args = 0, pretend = 0, frame = 0
 1512              		@ frame_needed = 0, uses_anonymous_args = 0
 521:Middlewares/lvgl/src/core/lv_obj_pos.c ****     LV_ASSERT_OBJ(obj, MY_CLASS);
 1513              		.loc 1 521 1 is_stmt 0 view .LVU410
 1514 0000 38B5     		push	{r3, r4, r5, lr}
 1515              	.LCFI30:
 1516              		.cfi_def_cfa_offset 16
 1517              		.cfi_offset 3, -16
 1518              		.cfi_offset 4, -12
 1519              		.cfi_offset 5, -8
 1520              		.cfi_offset 14, -4
 1521 0002 0546     		mov	r5, r0
 522:Middlewares/lvgl/src/core/lv_obj_pos.c **** 
 1522              		.loc 1 522 5 is_stmt 1 view .LVU411
 522:Middlewares/lvgl/src/core/lv_obj_pos.c **** 
 1523              		.loc 1 522 5 view .LVU412
 522:Middlewares/lvgl/src/core/lv_obj_pos.c **** 
 1524              		.loc 1 522 5 view .LVU413
 524:Middlewares/lvgl/src/core/lv_obj_pos.c **** }
 1525              		.loc 1 524 5 view .LVU414
 524:Middlewares/lvgl/src/core/lv_obj_pos.c **** }
 1526              		.loc 1 524 12 is_stmt 0 view .LVU415
 1527 0004 FFF7FEFF 		bl	lv_obj_get_y
 1528              	.LVL138:
 524:Middlewares/lvgl/src/core/lv_obj_pos.c **** }
 1529              		.loc 1 524 12 view .LVU416
 1530 0008 84B2     		uxth	r4, r0
 524:Middlewares/lvgl/src/core/lv_obj_pos.c **** }
 1531              		.loc 1 524 32 view .LVU417
 1532 000a 2846     		mov	r0, r5
 1533 000c FFF7FEFF 		bl	lv_obj_get_height
 1534              	.LVL139:
 524:Middlewares/lvgl/src/core/lv_obj_pos.c **** }
 1535              		.loc 1 524 30 view .LVU418
 1536 0010 14FA80F0 		uxtah	r0, r4, r0
 525:Middlewares/lvgl/src/core/lv_obj_pos.c **** 
 1537              		.loc 1 525 1 view .LVU419
ARM GAS  /tmp/ccmgRVpn.s 			page 54


 1538 0014 00B2     		sxth	r0, r0
 1539 0016 38BD     		pop	{r3, r4, r5, pc}
 525:Middlewares/lvgl/src/core/lv_obj_pos.c **** 
 1540              		.loc 1 525 1 view .LVU420
 1541              		.cfi_endproc
 1542              	.LFE174:
 1544              		.section	.text.lv_obj_get_content_width,"ax",%progbits
 1545              		.align	1
 1546              		.global	lv_obj_get_content_width
 1547              		.syntax unified
 1548              		.thumb
 1549              		.thumb_func
 1551              	lv_obj_get_content_width:
 1552              	.LVL140:
 1553              	.LFB177:
 542:Middlewares/lvgl/src/core/lv_obj_pos.c ****     LV_ASSERT_OBJ(obj, MY_CLASS);
 1554              		.loc 1 542 1 is_stmt 1 view -0
 1555              		.cfi_startproc
 1556              		@ args = 0, pretend = 0, frame = 0
 1557              		@ frame_needed = 0, uses_anonymous_args = 0
 542:Middlewares/lvgl/src/core/lv_obj_pos.c ****     LV_ASSERT_OBJ(obj, MY_CLASS);
 1558              		.loc 1 542 1 is_stmt 0 view .LVU422
 1559 0000 F8B5     		push	{r3, r4, r5, r6, r7, lr}
 1560              	.LCFI31:
 1561              		.cfi_def_cfa_offset 24
 1562              		.cfi_offset 3, -24
 1563              		.cfi_offset 4, -20
 1564              		.cfi_offset 5, -16
 1565              		.cfi_offset 6, -12
 1566              		.cfi_offset 7, -8
 1567              		.cfi_offset 14, -4
 1568 0002 0546     		mov	r5, r0
 543:Middlewares/lvgl/src/core/lv_obj_pos.c **** 
 1569              		.loc 1 543 5 is_stmt 1 view .LVU423
 543:Middlewares/lvgl/src/core/lv_obj_pos.c **** 
 1570              		.loc 1 543 5 view .LVU424
 543:Middlewares/lvgl/src/core/lv_obj_pos.c **** 
 1571              		.loc 1 543 5 view .LVU425
 545:Middlewares/lvgl/src/core/lv_obj_pos.c ****     lv_coord_t right = lv_obj_get_style_pad_right(obj, LV_PART_MAIN);
 1572              		.loc 1 545 5 view .LVU426
 1573              	.LVL141:
 1574              	.LBB151:
 1575              	.LBI151:
 103:Middlewares/lvgl/src/core/lv_obj_style_gen.h **** {
 1576              		.loc 2 103 26 view .LVU427
 1577              	.LBB152:
 105:Middlewares/lvgl/src/core/lv_obj_style_gen.h ****     return (lv_coord_t)v.num;
 1578              		.loc 2 105 5 view .LVU428
 105:Middlewares/lvgl/src/core/lv_obj_style_gen.h ****     return (lv_coord_t)v.num;
 1579              		.loc 2 105 26 is_stmt 0 view .LVU429
 1580 0004 41F21202 		movw	r2, #4114
 1581 0008 0021     		movs	r1, #0
 1582 000a FFF7FEFF 		bl	lv_obj_get_style_prop
 1583              	.LVL142:
 105:Middlewares/lvgl/src/core/lv_obj_style_gen.h ****     return (lv_coord_t)v.num;
 1584              		.loc 2 105 26 view .LVU430
 1585 000e 0746     		mov	r7, r0
ARM GAS  /tmp/ccmgRVpn.s 			page 55


 1586              	.LVL143:
 106:Middlewares/lvgl/src/core/lv_obj_style_gen.h **** }
 1587              		.loc 2 106 5 is_stmt 1 view .LVU431
 106:Middlewares/lvgl/src/core/lv_obj_style_gen.h **** }
 1588              		.loc 2 106 5 is_stmt 0 view .LVU432
 1589              	.LBE152:
 1590              	.LBE151:
 546:Middlewares/lvgl/src/core/lv_obj_pos.c ****     lv_coord_t border_width = lv_obj_get_style_border_width(obj, LV_PART_MAIN);
 1591              		.loc 1 546 5 is_stmt 1 view .LVU433
 1592              	.LBB153:
 1593              	.LBI153:
 109:Middlewares/lvgl/src/core/lv_obj_style_gen.h **** {
 1594              		.loc 2 109 26 view .LVU434
 1595              	.LBB154:
 111:Middlewares/lvgl/src/core/lv_obj_style_gen.h ****     return (lv_coord_t)v.num;
 1596              		.loc 2 111 5 view .LVU435
 111:Middlewares/lvgl/src/core/lv_obj_style_gen.h ****     return (lv_coord_t)v.num;
 1597              		.loc 2 111 26 is_stmt 0 view .LVU436
 1598 0010 41F21302 		movw	r2, #4115
 1599 0014 0021     		movs	r1, #0
 1600 0016 2846     		mov	r0, r5
 1601 0018 FFF7FEFF 		bl	lv_obj_get_style_prop
 1602              	.LVL144:
 1603 001c 0646     		mov	r6, r0
 1604              	.LVL145:
 112:Middlewares/lvgl/src/core/lv_obj_style_gen.h **** }
 1605              		.loc 2 112 5 is_stmt 1 view .LVU437
 112:Middlewares/lvgl/src/core/lv_obj_style_gen.h **** }
 1606              		.loc 2 112 5 is_stmt 0 view .LVU438
 1607              	.LBE154:
 1608              	.LBE153:
 547:Middlewares/lvgl/src/core/lv_obj_pos.c **** 
 1609              		.loc 1 547 5 is_stmt 1 view .LVU439
 1610              	.LBB155:
 1611              	.LBI155:
 295:Middlewares/lvgl/src/core/lv_obj_style_gen.h **** {
 1612              		.loc 2 295 26 view .LVU440
 1613              	.LBB156:
 297:Middlewares/lvgl/src/core/lv_obj_style_gen.h ****     return (lv_coord_t)v.num;
 1614              		.loc 2 297 5 view .LVU441
 297:Middlewares/lvgl/src/core/lv_obj_style_gen.h ****     return (lv_coord_t)v.num;
 1615              		.loc 2 297 26 is_stmt 0 view .LVU442
 1616 001e 41F23202 		movw	r2, #4146
 1617 0022 0021     		movs	r1, #0
 1618 0024 2846     		mov	r0, r5
 1619 0026 FFF7FEFF 		bl	lv_obj_get_style_prop
 1620              	.LVL146:
 1621 002a 0446     		mov	r4, r0
 1622              	.LVL147:
 1623              		.loc 2 298 5 is_stmt 1 view .LVU443
 1624              		.loc 2 298 5 is_stmt 0 view .LVU444
 1625              	.LBE156:
 1626              	.LBE155:
 549:Middlewares/lvgl/src/core/lv_obj_pos.c **** }
 1627              		.loc 1 549 5 is_stmt 1 view .LVU445
 549:Middlewares/lvgl/src/core/lv_obj_pos.c **** }
 1628              		.loc 1 549 12 is_stmt 0 view .LVU446
ARM GAS  /tmp/ccmgRVpn.s 			page 56


 1629 002c 2846     		mov	r0, r5
 1630 002e FFF7FEFF 		bl	lv_obj_get_width
 1631              	.LVL148:
 1632 0032 83B2     		uxth	r3, r0
 549:Middlewares/lvgl/src/core/lv_obj_pos.c **** }
 1633              		.loc 1 549 34 view .LVU447
 1634 0034 DB1B     		subs	r3, r3, r7
 1635 0036 9BB2     		uxth	r3, r3
 549:Middlewares/lvgl/src/core/lv_obj_pos.c **** }
 1636              		.loc 1 549 41 view .LVU448
 1637 0038 9B1B     		subs	r3, r3, r6
 1638 003a 9BB2     		uxth	r3, r3
 549:Middlewares/lvgl/src/core/lv_obj_pos.c **** }
 1639              		.loc 1 549 53 view .LVU449
 1640 003c 6000     		lsls	r0, r4, #1
 1641 003e 80B2     		uxth	r0, r0
 549:Middlewares/lvgl/src/core/lv_obj_pos.c **** }
 1642              		.loc 1 549 49 view .LVU450
 1643 0040 181A     		subs	r0, r3, r0
 550:Middlewares/lvgl/src/core/lv_obj_pos.c **** 
 1644              		.loc 1 550 1 view .LVU451
 1645 0042 00B2     		sxth	r0, r0
 1646 0044 F8BD     		pop	{r3, r4, r5, r6, r7, pc}
 550:Middlewares/lvgl/src/core/lv_obj_pos.c **** 
 1647              		.loc 1 550 1 view .LVU452
 1648              		.cfi_endproc
 1649              	.LFE177:
 1651              		.section	.text.lv_obj_get_content_height,"ax",%progbits
 1652              		.align	1
 1653              		.global	lv_obj_get_content_height
 1654              		.syntax unified
 1655              		.thumb
 1656              		.thumb_func
 1658              	lv_obj_get_content_height:
 1659              	.LVL149:
 1660              	.LFB178:
 553:Middlewares/lvgl/src/core/lv_obj_pos.c ****     LV_ASSERT_OBJ(obj, MY_CLASS);
 1661              		.loc 1 553 1 is_stmt 1 view -0
 1662              		.cfi_startproc
 1663              		@ args = 0, pretend = 0, frame = 0
 1664              		@ frame_needed = 0, uses_anonymous_args = 0
 553:Middlewares/lvgl/src/core/lv_obj_pos.c ****     LV_ASSERT_OBJ(obj, MY_CLASS);
 1665              		.loc 1 553 1 is_stmt 0 view .LVU454
 1666 0000 F8B5     		push	{r3, r4, r5, r6, r7, lr}
 1667              	.LCFI32:
 1668              		.cfi_def_cfa_offset 24
 1669              		.cfi_offset 3, -24
 1670              		.cfi_offset 4, -20
 1671              		.cfi_offset 5, -16
 1672              		.cfi_offset 6, -12
 1673              		.cfi_offset 7, -8
 1674              		.cfi_offset 14, -4
 1675 0002 0546     		mov	r5, r0
 554:Middlewares/lvgl/src/core/lv_obj_pos.c **** 
 1676              		.loc 1 554 5 is_stmt 1 view .LVU455
 554:Middlewares/lvgl/src/core/lv_obj_pos.c **** 
 1677              		.loc 1 554 5 view .LVU456
ARM GAS  /tmp/ccmgRVpn.s 			page 57


 554:Middlewares/lvgl/src/core/lv_obj_pos.c **** 
 1678              		.loc 1 554 5 view .LVU457
 556:Middlewares/lvgl/src/core/lv_obj_pos.c ****     lv_coord_t bottom =  lv_obj_get_style_pad_bottom(obj, LV_PART_MAIN);
 1679              		.loc 1 556 5 view .LVU458
 1680              	.LVL150:
 1681              	.LBB157:
 1682              	.LBI157:
  91:Middlewares/lvgl/src/core/lv_obj_style_gen.h **** {
 1683              		.loc 2 91 26 view .LVU459
 1684              	.LBB158:
  93:Middlewares/lvgl/src/core/lv_obj_style_gen.h ****     return (lv_coord_t)v.num;
 1685              		.loc 2 93 5 view .LVU460
  93:Middlewares/lvgl/src/core/lv_obj_style_gen.h ****     return (lv_coord_t)v.num;
 1686              		.loc 2 93 26 is_stmt 0 view .LVU461
 1687 0004 41F21002 		movw	r2, #4112
 1688 0008 0021     		movs	r1, #0
 1689 000a FFF7FEFF 		bl	lv_obj_get_style_prop
 1690              	.LVL151:
  93:Middlewares/lvgl/src/core/lv_obj_style_gen.h ****     return (lv_coord_t)v.num;
 1691              		.loc 2 93 26 view .LVU462
 1692 000e 0746     		mov	r7, r0
 1693              	.LVL152:
  94:Middlewares/lvgl/src/core/lv_obj_style_gen.h **** }
 1694              		.loc 2 94 5 is_stmt 1 view .LVU463
  94:Middlewares/lvgl/src/core/lv_obj_style_gen.h **** }
 1695              		.loc 2 94 5 is_stmt 0 view .LVU464
 1696              	.LBE158:
 1697              	.LBE157:
 557:Middlewares/lvgl/src/core/lv_obj_pos.c ****     lv_coord_t border_width = lv_obj_get_style_border_width(obj, LV_PART_MAIN);
 1698              		.loc 1 557 5 is_stmt 1 view .LVU465
 1699              	.LBB159:
 1700              	.LBI159:
  97:Middlewares/lvgl/src/core/lv_obj_style_gen.h **** {
 1701              		.loc 2 97 26 view .LVU466
 1702              	.LBB160:
  99:Middlewares/lvgl/src/core/lv_obj_style_gen.h ****     return (lv_coord_t)v.num;
 1703              		.loc 2 99 5 view .LVU467
  99:Middlewares/lvgl/src/core/lv_obj_style_gen.h ****     return (lv_coord_t)v.num;
 1704              		.loc 2 99 26 is_stmt 0 view .LVU468
 1705 0010 41F21102 		movw	r2, #4113
 1706 0014 0021     		movs	r1, #0
 1707 0016 2846     		mov	r0, r5
 1708 0018 FFF7FEFF 		bl	lv_obj_get_style_prop
 1709              	.LVL153:
 1710 001c 0646     		mov	r6, r0
 1711              	.LVL154:
 100:Middlewares/lvgl/src/core/lv_obj_style_gen.h **** }
 1712              		.loc 2 100 5 is_stmt 1 view .LVU469
 100:Middlewares/lvgl/src/core/lv_obj_style_gen.h **** }
 1713              		.loc 2 100 5 is_stmt 0 view .LVU470
 1714              	.LBE160:
 1715              	.LBE159:
 558:Middlewares/lvgl/src/core/lv_obj_pos.c **** 
 1716              		.loc 1 558 5 is_stmt 1 view .LVU471
 1717              	.LBB161:
 1718              	.LBI161:
 295:Middlewares/lvgl/src/core/lv_obj_style_gen.h **** {
ARM GAS  /tmp/ccmgRVpn.s 			page 58


 1719              		.loc 2 295 26 view .LVU472
 1720              	.LBB162:
 297:Middlewares/lvgl/src/core/lv_obj_style_gen.h ****     return (lv_coord_t)v.num;
 1721              		.loc 2 297 5 view .LVU473
 297:Middlewares/lvgl/src/core/lv_obj_style_gen.h ****     return (lv_coord_t)v.num;
 1722              		.loc 2 297 26 is_stmt 0 view .LVU474
 1723 001e 41F23202 		movw	r2, #4146
 1724 0022 0021     		movs	r1, #0
 1725 0024 2846     		mov	r0, r5
 1726 0026 FFF7FEFF 		bl	lv_obj_get_style_prop
 1727              	.LVL155:
 1728 002a 0446     		mov	r4, r0
 1729              	.LVL156:
 1730              		.loc 2 298 5 is_stmt 1 view .LVU475
 1731              		.loc 2 298 5 is_stmt 0 view .LVU476
 1732              	.LBE162:
 1733              	.LBE161:
 560:Middlewares/lvgl/src/core/lv_obj_pos.c **** }
 1734              		.loc 1 560 5 is_stmt 1 view .LVU477
 560:Middlewares/lvgl/src/core/lv_obj_pos.c **** }
 1735              		.loc 1 560 12 is_stmt 0 view .LVU478
 1736 002c 2846     		mov	r0, r5
 1737 002e FFF7FEFF 		bl	lv_obj_get_height
 1738              	.LVL157:
 1739 0032 83B2     		uxth	r3, r0
 560:Middlewares/lvgl/src/core/lv_obj_pos.c **** }
 1740              		.loc 1 560 35 view .LVU479
 1741 0034 DB1B     		subs	r3, r3, r7
 1742 0036 9BB2     		uxth	r3, r3
 560:Middlewares/lvgl/src/core/lv_obj_pos.c **** }
 1743              		.loc 1 560 41 view .LVU480
 1744 0038 9B1B     		subs	r3, r3, r6
 1745 003a 9BB2     		uxth	r3, r3
 560:Middlewares/lvgl/src/core/lv_obj_pos.c **** }
 1746              		.loc 1 560 54 view .LVU481
 1747 003c 6000     		lsls	r0, r4, #1
 1748 003e 80B2     		uxth	r0, r0
 560:Middlewares/lvgl/src/core/lv_obj_pos.c **** }
 1749              		.loc 1 560 50 view .LVU482
 1750 0040 181A     		subs	r0, r3, r0
 561:Middlewares/lvgl/src/core/lv_obj_pos.c **** 
 1751              		.loc 1 561 1 view .LVU483
 1752 0042 00B2     		sxth	r0, r0
 1753 0044 F8BD     		pop	{r3, r4, r5, r6, r7, pc}
 561:Middlewares/lvgl/src/core/lv_obj_pos.c **** 
 1754              		.loc 1 561 1 view .LVU484
 1755              		.cfi_endproc
 1756              	.LFE178:
 1758              		.section	.text.lv_obj_get_content_coords,"ax",%progbits
 1759              		.align	1
 1760              		.global	lv_obj_get_content_coords
 1761              		.syntax unified
 1762              		.thumb
 1763              		.thumb_func
 1765              	lv_obj_get_content_coords:
 1766              	.LVL158:
 1767              	.LFB179:
ARM GAS  /tmp/ccmgRVpn.s 			page 59


 564:Middlewares/lvgl/src/core/lv_obj_pos.c ****     LV_ASSERT_OBJ(obj, MY_CLASS);
 1768              		.loc 1 564 1 is_stmt 1 view -0
 1769              		.cfi_startproc
 1770              		@ args = 0, pretend = 0, frame = 0
 1771              		@ frame_needed = 0, uses_anonymous_args = 0
 564:Middlewares/lvgl/src/core/lv_obj_pos.c ****     LV_ASSERT_OBJ(obj, MY_CLASS);
 1772              		.loc 1 564 1 is_stmt 0 view .LVU486
 1773 0000 70B5     		push	{r4, r5, r6, lr}
 1774              	.LCFI33:
 1775              		.cfi_def_cfa_offset 16
 1776              		.cfi_offset 4, -16
 1777              		.cfi_offset 5, -12
 1778              		.cfi_offset 6, -8
 1779              		.cfi_offset 14, -4
 1780 0002 0646     		mov	r6, r0
 1781 0004 0C46     		mov	r4, r1
 565:Middlewares/lvgl/src/core/lv_obj_pos.c ****     lv_coord_t border_width = lv_obj_get_style_border_width(obj, LV_PART_MAIN);
 1782              		.loc 1 565 5 is_stmt 1 view .LVU487
 565:Middlewares/lvgl/src/core/lv_obj_pos.c ****     lv_coord_t border_width = lv_obj_get_style_border_width(obj, LV_PART_MAIN);
 1783              		.loc 1 565 5 view .LVU488
 565:Middlewares/lvgl/src/core/lv_obj_pos.c ****     lv_coord_t border_width = lv_obj_get_style_border_width(obj, LV_PART_MAIN);
 1784              		.loc 1 565 5 view .LVU489
 566:Middlewares/lvgl/src/core/lv_obj_pos.c **** 
 1785              		.loc 1 566 5 view .LVU490
 1786              	.LVL159:
 1787              	.LBB163:
 1788              	.LBI163:
 295:Middlewares/lvgl/src/core/lv_obj_style_gen.h **** {
 1789              		.loc 2 295 26 view .LVU491
 1790              	.LBB164:
 297:Middlewares/lvgl/src/core/lv_obj_style_gen.h ****     return (lv_coord_t)v.num;
 1791              		.loc 2 297 5 view .LVU492
 297:Middlewares/lvgl/src/core/lv_obj_style_gen.h ****     return (lv_coord_t)v.num;
 1792              		.loc 2 297 26 is_stmt 0 view .LVU493
 1793 0006 41F23202 		movw	r2, #4146
 1794 000a 0021     		movs	r1, #0
 1795              	.LVL160:
 297:Middlewares/lvgl/src/core/lv_obj_style_gen.h ****     return (lv_coord_t)v.num;
 1796              		.loc 2 297 26 view .LVU494
 1797 000c FFF7FEFF 		bl	lv_obj_get_style_prop
 1798              	.LVL161:
 297:Middlewares/lvgl/src/core/lv_obj_style_gen.h ****     return (lv_coord_t)v.num;
 1799              		.loc 2 297 26 view .LVU495
 1800 0010 0546     		mov	r5, r0
 1801              	.LVL162:
 1802              		.loc 2 298 5 is_stmt 1 view .LVU496
 1803              		.loc 2 298 5 is_stmt 0 view .LVU497
 1804              	.LBE164:
 1805              	.LBE163:
 568:Middlewares/lvgl/src/core/lv_obj_pos.c ****     lv_area_increase(area, -border_width, -border_width);
 1806              		.loc 1 568 5 is_stmt 1 view .LVU498
 1807 0012 2146     		mov	r1, r4
 1808 0014 3046     		mov	r0, r6
 1809 0016 FFF7FEFF 		bl	lv_obj_get_coords
 1810              	.LVL163:
 569:Middlewares/lvgl/src/core/lv_obj_pos.c ****     area->x1 += lv_obj_get_style_pad_left(obj, LV_PART_MAIN);
 1811              		.loc 1 569 5 view .LVU499
ARM GAS  /tmp/ccmgRVpn.s 			page 60


 1812 001a 6942     		rsbs	r1, r5, #0
 1813 001c 09B2     		sxth	r1, r1
 1814 001e 0A46     		mov	r2, r1
 1815 0020 2046     		mov	r0, r4
 1816 0022 FFF7FEFF 		bl	lv_area_increase
 1817              	.LVL164:
 570:Middlewares/lvgl/src/core/lv_obj_pos.c ****     area->x2 -= lv_obj_get_style_pad_right(obj, LV_PART_MAIN);
 1818              		.loc 1 570 5 view .LVU500
 1819              	.LBB165:
 1820              	.LBI165:
 103:Middlewares/lvgl/src/core/lv_obj_style_gen.h **** {
 1821              		.loc 2 103 26 view .LVU501
 1822              	.LBB166:
 105:Middlewares/lvgl/src/core/lv_obj_style_gen.h ****     return (lv_coord_t)v.num;
 1823              		.loc 2 105 5 view .LVU502
 105:Middlewares/lvgl/src/core/lv_obj_style_gen.h ****     return (lv_coord_t)v.num;
 1824              		.loc 2 105 26 is_stmt 0 view .LVU503
 1825 0026 41F21202 		movw	r2, #4114
 1826 002a 0021     		movs	r1, #0
 1827 002c 3046     		mov	r0, r6
 1828 002e FFF7FEFF 		bl	lv_obj_get_style_prop
 1829              	.LVL165:
 106:Middlewares/lvgl/src/core/lv_obj_style_gen.h **** }
 1830              		.loc 2 106 5 is_stmt 1 view .LVU504
 106:Middlewares/lvgl/src/core/lv_obj_style_gen.h **** }
 1831              		.loc 2 106 5 is_stmt 0 view .LVU505
 1832              	.LBE166:
 1833              	.LBE165:
 570:Middlewares/lvgl/src/core/lv_obj_pos.c ****     area->x2 -= lv_obj_get_style_pad_right(obj, LV_PART_MAIN);
 1834              		.loc 1 570 14 view .LVU506
 1835 0032 2388     		ldrh	r3, [r4]
 1836 0034 13FA80F0 		uxtah	r0, r3, r0
 1837 0038 2080     		strh	r0, [r4]	@ movhi
 571:Middlewares/lvgl/src/core/lv_obj_pos.c ****     area->y1 += lv_obj_get_style_pad_top(obj, LV_PART_MAIN);
 1838              		.loc 1 571 5 is_stmt 1 view .LVU507
 1839              	.LVL166:
 1840              	.LBB167:
 1841              	.LBI167:
 109:Middlewares/lvgl/src/core/lv_obj_style_gen.h **** {
 1842              		.loc 2 109 26 view .LVU508
 1843              	.LBB168:
 111:Middlewares/lvgl/src/core/lv_obj_style_gen.h ****     return (lv_coord_t)v.num;
 1844              		.loc 2 111 5 view .LVU509
 111:Middlewares/lvgl/src/core/lv_obj_style_gen.h ****     return (lv_coord_t)v.num;
 1845              		.loc 2 111 26 is_stmt 0 view .LVU510
 1846 003a 41F21302 		movw	r2, #4115
 1847 003e 0021     		movs	r1, #0
 1848 0040 3046     		mov	r0, r6
 1849 0042 FFF7FEFF 		bl	lv_obj_get_style_prop
 1850              	.LVL167:
 112:Middlewares/lvgl/src/core/lv_obj_style_gen.h **** }
 1851              		.loc 2 112 5 is_stmt 1 view .LVU511
 112:Middlewares/lvgl/src/core/lv_obj_style_gen.h **** }
 1852              		.loc 2 112 5 is_stmt 0 view .LVU512
 1853              	.LBE168:
 1854              	.LBE167:
 571:Middlewares/lvgl/src/core/lv_obj_pos.c ****     area->y1 += lv_obj_get_style_pad_top(obj, LV_PART_MAIN);
ARM GAS  /tmp/ccmgRVpn.s 			page 61


 1855              		.loc 1 571 17 view .LVU513
 1856 0046 83B2     		uxth	r3, r0
 571:Middlewares/lvgl/src/core/lv_obj_pos.c ****     area->y1 += lv_obj_get_style_pad_top(obj, LV_PART_MAIN);
 1857              		.loc 1 571 14 view .LVU514
 1858 0048 A088     		ldrh	r0, [r4, #4]
 1859 004a C01A     		subs	r0, r0, r3
 1860 004c A080     		strh	r0, [r4, #4]	@ movhi
 572:Middlewares/lvgl/src/core/lv_obj_pos.c ****     area->y2 -= lv_obj_get_style_pad_bottom(obj, LV_PART_MAIN);
 1861              		.loc 1 572 5 is_stmt 1 view .LVU515
 1862              	.LVL168:
 1863              	.LBB169:
 1864              	.LBI169:
  91:Middlewares/lvgl/src/core/lv_obj_style_gen.h **** {
 1865              		.loc 2 91 26 view .LVU516
 1866              	.LBB170:
  93:Middlewares/lvgl/src/core/lv_obj_style_gen.h ****     return (lv_coord_t)v.num;
 1867              		.loc 2 93 5 view .LVU517
  93:Middlewares/lvgl/src/core/lv_obj_style_gen.h ****     return (lv_coord_t)v.num;
 1868              		.loc 2 93 26 is_stmt 0 view .LVU518
 1869 004e 41F21002 		movw	r2, #4112
 1870 0052 0021     		movs	r1, #0
 1871 0054 3046     		mov	r0, r6
 1872 0056 FFF7FEFF 		bl	lv_obj_get_style_prop
 1873              	.LVL169:
  94:Middlewares/lvgl/src/core/lv_obj_style_gen.h **** }
 1874              		.loc 2 94 5 is_stmt 1 view .LVU519
  94:Middlewares/lvgl/src/core/lv_obj_style_gen.h **** }
 1875              		.loc 2 94 5 is_stmt 0 view .LVU520
 1876              	.LBE170:
 1877              	.LBE169:
 572:Middlewares/lvgl/src/core/lv_obj_pos.c ****     area->y2 -= lv_obj_get_style_pad_bottom(obj, LV_PART_MAIN);
 1878              		.loc 1 572 14 view .LVU521
 1879 005a 6388     		ldrh	r3, [r4, #2]
 1880 005c 13FA80F0 		uxtah	r0, r3, r0
 1881 0060 6080     		strh	r0, [r4, #2]	@ movhi
 573:Middlewares/lvgl/src/core/lv_obj_pos.c **** 
 1882              		.loc 1 573 5 is_stmt 1 view .LVU522
 1883              	.LVL170:
 1884              	.LBB171:
 1885              	.LBI171:
  97:Middlewares/lvgl/src/core/lv_obj_style_gen.h **** {
 1886              		.loc 2 97 26 view .LVU523
 1887              	.LBB172:
  99:Middlewares/lvgl/src/core/lv_obj_style_gen.h ****     return (lv_coord_t)v.num;
 1888              		.loc 2 99 5 view .LVU524
  99:Middlewares/lvgl/src/core/lv_obj_style_gen.h ****     return (lv_coord_t)v.num;
 1889              		.loc 2 99 26 is_stmt 0 view .LVU525
 1890 0062 41F21102 		movw	r2, #4113
 1891 0066 0021     		movs	r1, #0
 1892 0068 3046     		mov	r0, r6
 1893 006a FFF7FEFF 		bl	lv_obj_get_style_prop
 1894              	.LVL171:
 100:Middlewares/lvgl/src/core/lv_obj_style_gen.h **** }
 1895              		.loc 2 100 5 is_stmt 1 view .LVU526
 100:Middlewares/lvgl/src/core/lv_obj_style_gen.h **** }
 1896              		.loc 2 100 5 is_stmt 0 view .LVU527
 1897              	.LBE172:
ARM GAS  /tmp/ccmgRVpn.s 			page 62


 1898              	.LBE171:
 573:Middlewares/lvgl/src/core/lv_obj_pos.c **** 
 1899              		.loc 1 573 17 view .LVU528
 1900 006e 83B2     		uxth	r3, r0
 573:Middlewares/lvgl/src/core/lv_obj_pos.c **** 
 1901              		.loc 1 573 14 view .LVU529
 1902 0070 E088     		ldrh	r0, [r4, #6]
 1903 0072 C01A     		subs	r0, r0, r3
 1904 0074 E080     		strh	r0, [r4, #6]	@ movhi
 575:Middlewares/lvgl/src/core/lv_obj_pos.c **** 
 1905              		.loc 1 575 1 view .LVU530
 1906 0076 70BD     		pop	{r4, r5, r6, pc}
 575:Middlewares/lvgl/src/core/lv_obj_pos.c **** 
 1907              		.loc 1 575 1 view .LVU531
 1908              		.cfi_endproc
 1909              	.LFE179:
 1911              		.section	.text.lv_obj_get_self_width,"ax",%progbits
 1912              		.align	1
 1913              		.global	lv_obj_get_self_width
 1914              		.syntax unified
 1915              		.thumb
 1916              		.thumb_func
 1918              	lv_obj_get_self_width:
 1919              	.LVL172:
 1920              	.LFB180:
 578:Middlewares/lvgl/src/core/lv_obj_pos.c ****     lv_point_t p = {0, LV_COORD_MIN};
 1921              		.loc 1 578 1 is_stmt 1 view -0
 1922              		.cfi_startproc
 1923              		@ args = 0, pretend = 0, frame = 8
 1924              		@ frame_needed = 0, uses_anonymous_args = 0
 578:Middlewares/lvgl/src/core/lv_obj_pos.c ****     lv_point_t p = {0, LV_COORD_MIN};
 1925              		.loc 1 578 1 is_stmt 0 view .LVU533
 1926 0000 00B5     		push	{lr}
 1927              	.LCFI34:
 1928              		.cfi_def_cfa_offset 4
 1929              		.cfi_offset 14, -4
 1930 0002 83B0     		sub	sp, sp, #12
 1931              	.LCFI35:
 1932              		.cfi_def_cfa_offset 16
 579:Middlewares/lvgl/src/core/lv_obj_pos.c ****     lv_event_send((lv_obj_t * )obj, LV_EVENT_GET_SELF_SIZE, &p);
 1933              		.loc 1 579 5 is_stmt 1 view .LVU534
 579:Middlewares/lvgl/src/core/lv_obj_pos.c ****     lv_event_send((lv_obj_t * )obj, LV_EVENT_GET_SELF_SIZE, &p);
 1934              		.loc 1 579 16 is_stmt 0 view .LVU535
 1935 0004 0023     		movs	r3, #0
 1936 0006 ADF80430 		strh	r3, [sp, #4]	@ movhi
 1937 000a 4FF42043 		mov	r3, #40960
 1938 000e ADF80630 		strh	r3, [sp, #6]	@ movhi
 580:Middlewares/lvgl/src/core/lv_obj_pos.c ****     return p.x;
 1939              		.loc 1 580 5 is_stmt 1 view .LVU536
 1940 0012 01AA     		add	r2, sp, #4
 1941 0014 2621     		movs	r1, #38
 1942 0016 FFF7FEFF 		bl	lv_event_send
 1943              	.LVL173:
 581:Middlewares/lvgl/src/core/lv_obj_pos.c **** }
 1944              		.loc 1 581 5 view .LVU537
 582:Middlewares/lvgl/src/core/lv_obj_pos.c **** 
 1945              		.loc 1 582 1 is_stmt 0 view .LVU538
ARM GAS  /tmp/ccmgRVpn.s 			page 63


 1946 001a BDF90400 		ldrsh	r0, [sp, #4]
 1947 001e 03B0     		add	sp, sp, #12
 1948              	.LCFI36:
 1949              		.cfi_def_cfa_offset 4
 1950              		@ sp needed
 1951 0020 5DF804FB 		ldr	pc, [sp], #4
 1952              		.cfi_endproc
 1953              	.LFE180:
 1955              		.section	.text.lv_obj_get_self_height,"ax",%progbits
 1956              		.align	1
 1957              		.global	lv_obj_get_self_height
 1958              		.syntax unified
 1959              		.thumb
 1960              		.thumb_func
 1962              	lv_obj_get_self_height:
 1963              	.LVL174:
 1964              	.LFB181:
 585:Middlewares/lvgl/src/core/lv_obj_pos.c ****     lv_point_t p = {LV_COORD_MIN, 0};
 1965              		.loc 1 585 1 is_stmt 1 view -0
 1966              		.cfi_startproc
 1967              		@ args = 0, pretend = 0, frame = 8
 1968              		@ frame_needed = 0, uses_anonymous_args = 0
 585:Middlewares/lvgl/src/core/lv_obj_pos.c ****     lv_point_t p = {LV_COORD_MIN, 0};
 1969              		.loc 1 585 1 is_stmt 0 view .LVU540
 1970 0000 00B5     		push	{lr}
 1971              	.LCFI37:
 1972              		.cfi_def_cfa_offset 4
 1973              		.cfi_offset 14, -4
 1974 0002 83B0     		sub	sp, sp, #12
 1975              	.LCFI38:
 1976              		.cfi_def_cfa_offset 16
 586:Middlewares/lvgl/src/core/lv_obj_pos.c ****     lv_event_send((lv_obj_t * )obj, LV_EVENT_GET_SELF_SIZE, &p);
 1977              		.loc 1 586 5 is_stmt 1 view .LVU541
 586:Middlewares/lvgl/src/core/lv_obj_pos.c ****     lv_event_send((lv_obj_t * )obj, LV_EVENT_GET_SELF_SIZE, &p);
 1978              		.loc 1 586 16 is_stmt 0 view .LVU542
 1979 0004 4FF42043 		mov	r3, #40960
 1980 0008 ADF80430 		strh	r3, [sp, #4]	@ movhi
 1981 000c 0023     		movs	r3, #0
 1982 000e ADF80630 		strh	r3, [sp, #6]	@ movhi
 587:Middlewares/lvgl/src/core/lv_obj_pos.c ****     return p.y;
 1983              		.loc 1 587 5 is_stmt 1 view .LVU543
 1984 0012 01AA     		add	r2, sp, #4
 1985 0014 2621     		movs	r1, #38
 1986 0016 FFF7FEFF 		bl	lv_event_send
 1987              	.LVL175:
 588:Middlewares/lvgl/src/core/lv_obj_pos.c **** }
 1988              		.loc 1 588 5 view .LVU544
 589:Middlewares/lvgl/src/core/lv_obj_pos.c **** 
 1989              		.loc 1 589 1 is_stmt 0 view .LVU545
 1990 001a BDF90600 		ldrsh	r0, [sp, #6]
 1991 001e 03B0     		add	sp, sp, #12
 1992              	.LCFI39:
 1993              		.cfi_def_cfa_offset 4
 1994              		@ sp needed
 1995 0020 5DF804FB 		ldr	pc, [sp], #4
 1996              		.cfi_endproc
 1997              	.LFE181:
ARM GAS  /tmp/ccmgRVpn.s 			page 64


 1999              		.section	.text.lv_obj_refresh_self_size,"ax",%progbits
 2000              		.align	1
 2001              		.global	lv_obj_refresh_self_size
 2002              		.syntax unified
 2003              		.thumb
 2004              		.thumb_func
 2006              	lv_obj_refresh_self_size:
 2007              	.LVL176:
 2008              	.LFB182:
 592:Middlewares/lvgl/src/core/lv_obj_pos.c ****     lv_coord_t w_set = lv_obj_get_style_width(obj, LV_PART_MAIN);
 2009              		.loc 1 592 1 is_stmt 1 view -0
 2010              		.cfi_startproc
 2011              		@ args = 0, pretend = 0, frame = 0
 2012              		@ frame_needed = 0, uses_anonymous_args = 0
 592:Middlewares/lvgl/src/core/lv_obj_pos.c ****     lv_coord_t w_set = lv_obj_get_style_width(obj, LV_PART_MAIN);
 2013              		.loc 1 592 1 is_stmt 0 view .LVU547
 2014 0000 38B5     		push	{r3, r4, r5, lr}
 2015              	.LCFI40:
 2016              		.cfi_def_cfa_offset 16
 2017              		.cfi_offset 3, -16
 2018              		.cfi_offset 4, -12
 2019              		.cfi_offset 5, -8
 2020              		.cfi_offset 14, -4
 2021 0002 0446     		mov	r4, r0
 593:Middlewares/lvgl/src/core/lv_obj_pos.c ****     lv_coord_t h_set = lv_obj_get_style_height(obj, LV_PART_MAIN);
 2022              		.loc 1 593 5 is_stmt 1 view .LVU548
 2023              	.LVL177:
 2024              	.LBB173:
 2025              	.LBI173:
   1:Middlewares/lvgl/src/core/lv_obj_style_gen.h **** {
 2026              		.loc 2 1 26 view .LVU549
 2027              	.LBB174:
   3:Middlewares/lvgl/src/core/lv_obj_style_gen.h ****     return (lv_coord_t)v.num;
 2028              		.loc 2 3 5 view .LVU550
   3:Middlewares/lvgl/src/core/lv_obj_style_gen.h ****     return (lv_coord_t)v.num;
 2029              		.loc 2 3 26 is_stmt 0 view .LVU551
 2030 0004 41F20102 		movw	r2, #4097
 2031 0008 0021     		movs	r1, #0
 2032 000a FFF7FEFF 		bl	lv_obj_get_style_prop
 2033              	.LVL178:
   4:Middlewares/lvgl/src/core/lv_obj_style_gen.h **** }
 2034              		.loc 2 4 5 is_stmt 1 view .LVU552
   4:Middlewares/lvgl/src/core/lv_obj_style_gen.h **** }
 2035              		.loc 2 4 12 is_stmt 0 view .LVU553
 2036 000e 05B2     		sxth	r5, r0
 2037              	.LVL179:
   4:Middlewares/lvgl/src/core/lv_obj_style_gen.h **** }
 2038              		.loc 2 4 12 view .LVU554
 2039              	.LBE174:
 2040              	.LBE173:
 594:Middlewares/lvgl/src/core/lv_obj_pos.c ****     if(w_set != LV_SIZE_CONTENT && h_set != LV_SIZE_CONTENT) return false;
 2041              		.loc 1 594 5 is_stmt 1 view .LVU555
 2042              	.LBB175:
 2043              	.LBI175:
  19:Middlewares/lvgl/src/core/lv_obj_style_gen.h **** {
 2044              		.loc 2 19 26 view .LVU556
 2045              	.LBB176:
ARM GAS  /tmp/ccmgRVpn.s 			page 65


  21:Middlewares/lvgl/src/core/lv_obj_style_gen.h ****     return (lv_coord_t)v.num;
 2046              		.loc 2 21 5 view .LVU557
  21:Middlewares/lvgl/src/core/lv_obj_style_gen.h ****     return (lv_coord_t)v.num;
 2047              		.loc 2 21 26 is_stmt 0 view .LVU558
 2048 0010 41F20402 		movw	r2, #4100
 2049 0014 0021     		movs	r1, #0
 2050 0016 2046     		mov	r0, r4
 2051 0018 FFF7FEFF 		bl	lv_obj_get_style_prop
 2052              	.LVL180:
  22:Middlewares/lvgl/src/core/lv_obj_style_gen.h **** }
 2053              		.loc 2 22 5 is_stmt 1 view .LVU559
  22:Middlewares/lvgl/src/core/lv_obj_style_gen.h **** }
 2054              		.loc 2 22 5 is_stmt 0 view .LVU560
 2055              	.LBE176:
 2056              	.LBE175:
 595:Middlewares/lvgl/src/core/lv_obj_pos.c **** 
 2057              		.loc 1 595 5 is_stmt 1 view .LVU561
 595:Middlewares/lvgl/src/core/lv_obj_pos.c **** 
 2058              		.loc 1 595 7 is_stmt 0 view .LVU562
 2059 001c 42F2D173 		movw	r3, #10193
 2060 0020 9D42     		cmp	r5, r3
 2061 0022 02D0     		beq	.L92
 2062 0024 00B2     		sxth	r0, r0
 595:Middlewares/lvgl/src/core/lv_obj_pos.c **** 
 2063              		.loc 1 595 33 discriminator 1 view .LVU563
 2064 0026 9842     		cmp	r0, r3
 2065 0028 04D1     		bne	.L94
 2066              	.LVL181:
 2067              	.L92:
 597:Middlewares/lvgl/src/core/lv_obj_pos.c ****     return true;
 2068              		.loc 1 597 5 is_stmt 1 view .LVU564
 2069 002a 2046     		mov	r0, r4
 2070 002c FFF7FEFF 		bl	lv_obj_mark_layout_as_dirty
 2071              	.LVL182:
 598:Middlewares/lvgl/src/core/lv_obj_pos.c **** }
 2072              		.loc 1 598 5 view .LVU565
 598:Middlewares/lvgl/src/core/lv_obj_pos.c **** }
 2073              		.loc 1 598 12 is_stmt 0 view .LVU566
 2074 0030 0120     		movs	r0, #1
 2075              	.L93:
 599:Middlewares/lvgl/src/core/lv_obj_pos.c **** 
 2076              		.loc 1 599 1 view .LVU567
 2077 0032 38BD     		pop	{r3, r4, r5, pc}
 2078              	.LVL183:
 2079              	.L94:
 595:Middlewares/lvgl/src/core/lv_obj_pos.c **** 
 2080              		.loc 1 595 69 view .LVU568
 2081 0034 0020     		movs	r0, #0
 2082              	.LVL184:
 595:Middlewares/lvgl/src/core/lv_obj_pos.c **** 
 2083              		.loc 1 595 69 view .LVU569
 2084 0036 FCE7     		b	.L93
 2085              		.cfi_endproc
 2086              	.LFE182:
 2088              		.section	.text.lv_obj_move_children_by,"ax",%progbits
 2089              		.align	1
 2090              		.global	lv_obj_move_children_by
ARM GAS  /tmp/ccmgRVpn.s 			page 66


 2091              		.syntax unified
 2092              		.thumb
 2093              		.thumb_func
 2095              	lv_obj_move_children_by:
 2096              	.LVL185:
 2097              	.LFB185:
 753:Middlewares/lvgl/src/core/lv_obj_pos.c ****     uint32_t i;
 2098              		.loc 1 753 1 is_stmt 1 view -0
 2099              		.cfi_startproc
 2100              		@ args = 0, pretend = 0, frame = 0
 2101              		@ frame_needed = 0, uses_anonymous_args = 0
 753:Middlewares/lvgl/src/core/lv_obj_pos.c ****     uint32_t i;
 2102              		.loc 1 753 1 is_stmt 0 view .LVU571
 2103 0000 2DE9F047 		push	{r4, r5, r6, r7, r8, r9, r10, lr}
 2104              	.LCFI41:
 2105              		.cfi_def_cfa_offset 32
 2106              		.cfi_offset 4, -32
 2107              		.cfi_offset 5, -28
 2108              		.cfi_offset 6, -24
 2109              		.cfi_offset 7, -20
 2110              		.cfi_offset 8, -16
 2111              		.cfi_offset 9, -12
 2112              		.cfi_offset 10, -8
 2113              		.cfi_offset 14, -4
 2114 0004 8246     		mov	r10, r0
 2115 0006 0F46     		mov	r7, r1
 2116 0008 1646     		mov	r6, r2
 2117 000a 9946     		mov	r9, r3
 754:Middlewares/lvgl/src/core/lv_obj_pos.c ****     uint32_t child_cnt = lv_obj_get_child_cnt(obj);
 2118              		.loc 1 754 5 is_stmt 1 view .LVU572
 755:Middlewares/lvgl/src/core/lv_obj_pos.c ****     for(i = 0; i < child_cnt; i++) {
 2119              		.loc 1 755 5 view .LVU573
 755:Middlewares/lvgl/src/core/lv_obj_pos.c ****     for(i = 0; i < child_cnt; i++) {
 2120              		.loc 1 755 26 is_stmt 0 view .LVU574
 2121 000c FFF7FEFF 		bl	lv_obj_get_child_cnt
 2122              	.LVL186:
 755:Middlewares/lvgl/src/core/lv_obj_pos.c ****     for(i = 0; i < child_cnt; i++) {
 2123              		.loc 1 755 26 view .LVU575
 2124 0010 8046     		mov	r8, r0
 2125              	.LVL187:
 756:Middlewares/lvgl/src/core/lv_obj_pos.c ****         lv_obj_t * child = lv_obj_get_child(obj, i);
 2126              		.loc 1 756 5 is_stmt 1 view .LVU576
 756:Middlewares/lvgl/src/core/lv_obj_pos.c ****         lv_obj_t * child = lv_obj_get_child(obj, i);
 2127              		.loc 1 756 11 is_stmt 0 view .LVU577
 2128 0012 0025     		movs	r5, #0
 756:Middlewares/lvgl/src/core/lv_obj_pos.c ****         lv_obj_t * child = lv_obj_get_child(obj, i);
 2129              		.loc 1 756 5 view .LVU578
 2130 0014 16E0     		b	.L97
 2131              	.LVL188:
 2132              	.L98:
 2133              	.LBB177:
 759:Middlewares/lvgl/src/core/lv_obj_pos.c ****         child->coords.y1 += y_diff;
 2134              		.loc 1 759 9 is_stmt 1 view .LVU579
 759:Middlewares/lvgl/src/core/lv_obj_pos.c ****         child->coords.y1 += y_diff;
 2135              		.loc 1 759 26 is_stmt 0 view .LVU580
 2136 0016 BBB2     		uxth	r3, r7
 2137 0018 A28A     		ldrh	r2, [r4, #20]
ARM GAS  /tmp/ccmgRVpn.s 			page 67


 2138 001a 1A44     		add	r2, r2, r3
 2139 001c A282     		strh	r2, [r4, #20]	@ movhi
 760:Middlewares/lvgl/src/core/lv_obj_pos.c ****         child->coords.x2 += x_diff;
 2140              		.loc 1 760 9 is_stmt 1 view .LVU581
 760:Middlewares/lvgl/src/core/lv_obj_pos.c ****         child->coords.x2 += x_diff;
 2141              		.loc 1 760 26 is_stmt 0 view .LVU582
 2142 001e 1FFA86FC 		uxth	ip, r6
 2143 0022 E28A     		ldrh	r2, [r4, #22]
 2144 0024 6244     		add	r2, r2, ip
 2145 0026 E282     		strh	r2, [r4, #22]	@ movhi
 761:Middlewares/lvgl/src/core/lv_obj_pos.c ****         child->coords.y2 += y_diff;
 2146              		.loc 1 761 9 is_stmt 1 view .LVU583
 761:Middlewares/lvgl/src/core/lv_obj_pos.c ****         child->coords.y2 += y_diff;
 2147              		.loc 1 761 26 is_stmt 0 view .LVU584
 2148 0028 228B     		ldrh	r2, [r4, #24]
 2149 002a 1344     		add	r3, r3, r2
 2150 002c 2383     		strh	r3, [r4, #24]	@ movhi
 762:Middlewares/lvgl/src/core/lv_obj_pos.c **** 
 2151              		.loc 1 762 9 is_stmt 1 view .LVU585
 762:Middlewares/lvgl/src/core/lv_obj_pos.c **** 
 2152              		.loc 1 762 26 is_stmt 0 view .LVU586
 2153 002e 638B     		ldrh	r3, [r4, #26]
 2154 0030 9C44     		add	ip, ip, r3
 2155 0032 A4F81AC0 		strh	ip, [r4, #26]	@ movhi
 764:Middlewares/lvgl/src/core/lv_obj_pos.c ****     }
 2156              		.loc 1 764 9 is_stmt 1 view .LVU587
 2157 0036 0023     		movs	r3, #0
 2158 0038 3246     		mov	r2, r6
 2159 003a 3946     		mov	r1, r7
 2160 003c 2046     		mov	r0, r4
 2161 003e FFF7FEFF 		bl	lv_obj_move_children_by
 2162              	.LVL189:
 2163              	.L99:
 764:Middlewares/lvgl/src/core/lv_obj_pos.c ****     }
 2164              		.loc 1 764 9 is_stmt 0 view .LVU588
 2165              	.LBE177:
 756:Middlewares/lvgl/src/core/lv_obj_pos.c ****         lv_obj_t * child = lv_obj_get_child(obj, i);
 2166              		.loc 1 756 31 is_stmt 1 discriminator 2 view .LVU589
 756:Middlewares/lvgl/src/core/lv_obj_pos.c ****         lv_obj_t * child = lv_obj_get_child(obj, i);
 2167              		.loc 1 756 32 is_stmt 0 discriminator 2 view .LVU590
 2168 0042 0135     		adds	r5, r5, #1
 2169              	.LVL190:
 2170              	.L97:
 756:Middlewares/lvgl/src/core/lv_obj_pos.c ****         lv_obj_t * child = lv_obj_get_child(obj, i);
 2171              		.loc 1 756 16 is_stmt 1 discriminator 1 view .LVU591
 756:Middlewares/lvgl/src/core/lv_obj_pos.c ****         lv_obj_t * child = lv_obj_get_child(obj, i);
 2172              		.loc 1 756 5 is_stmt 0 discriminator 1 view .LVU592
 2173 0044 4545     		cmp	r5, r8
 2174 0046 0ED2     		bcs	.L102
 2175              	.LBB178:
 757:Middlewares/lvgl/src/core/lv_obj_pos.c ****         if(ignore_floating && lv_obj_has_flag(child, LV_OBJ_FLAG_FLOATING)) continue;
 2176              		.loc 1 757 9 is_stmt 1 view .LVU593
 757:Middlewares/lvgl/src/core/lv_obj_pos.c ****         if(ignore_floating && lv_obj_has_flag(child, LV_OBJ_FLAG_FLOATING)) continue;
 2177              		.loc 1 757 28 is_stmt 0 view .LVU594
 2178 0048 2946     		mov	r1, r5
 2179 004a 5046     		mov	r0, r10
 2180 004c FFF7FEFF 		bl	lv_obj_get_child
ARM GAS  /tmp/ccmgRVpn.s 			page 68


 2181              	.LVL191:
 2182 0050 0446     		mov	r4, r0
 2183              	.LVL192:
 758:Middlewares/lvgl/src/core/lv_obj_pos.c ****         child->coords.x1 += x_diff;
 2184              		.loc 1 758 9 is_stmt 1 view .LVU595
 758:Middlewares/lvgl/src/core/lv_obj_pos.c ****         child->coords.x1 += x_diff;
 2185              		.loc 1 758 11 is_stmt 0 view .LVU596
 2186 0052 B9F1000F 		cmp	r9, #0
 2187 0056 DED0     		beq	.L98
 758:Middlewares/lvgl/src/core/lv_obj_pos.c ****         child->coords.x1 += x_diff;
 2188              		.loc 1 758 31 discriminator 1 view .LVU597
 2189 0058 4FF48031 		mov	r1, #65536
 2190 005c FFF7FEFF 		bl	lv_obj_has_flag
 2191              	.LVL193:
 758:Middlewares/lvgl/src/core/lv_obj_pos.c ****         child->coords.x1 += x_diff;
 2192              		.loc 1 758 28 discriminator 1 view .LVU598
 2193 0060 0028     		cmp	r0, #0
 2194 0062 D8D0     		beq	.L98
 2195 0064 EDE7     		b	.L99
 2196              	.LVL194:
 2197              	.L102:
 758:Middlewares/lvgl/src/core/lv_obj_pos.c ****         child->coords.x1 += x_diff;
 2198              		.loc 1 758 28 discriminator 1 view .LVU599
 2199              	.LBE178:
 766:Middlewares/lvgl/src/core/lv_obj_pos.c **** 
 2200              		.loc 1 766 1 view .LVU600
 2201 0066 BDE8F087 		pop	{r4, r5, r6, r7, r8, r9, r10, pc}
 766:Middlewares/lvgl/src/core/lv_obj_pos.c **** 
 2202              		.loc 1 766 1 view .LVU601
 2203              		.cfi_endproc
 2204              	.LFE185:
 2206              		.section	.text.lv_obj_area_is_visible,"ax",%progbits
 2207              		.align	1
 2208              		.global	lv_obj_area_is_visible
 2209              		.syntax unified
 2210              		.thumb
 2211              		.thumb_func
 2213              	lv_obj_area_is_visible:
 2214              	.LVL195:
 2215              	.LFB188:
 798:Middlewares/lvgl/src/core/lv_obj_pos.c ****     if(lv_obj_has_flag(obj, LV_OBJ_FLAG_HIDDEN)) return false;
 2216              		.loc 1 798 1 is_stmt 1 view -0
 2217              		.cfi_startproc
 2218              		@ args = 0, pretend = 0, frame = 8
 2219              		@ frame_needed = 0, uses_anonymous_args = 0
 798:Middlewares/lvgl/src/core/lv_obj_pos.c ****     if(lv_obj_has_flag(obj, LV_OBJ_FLAG_HIDDEN)) return false;
 2220              		.loc 1 798 1 is_stmt 0 view .LVU603
 2221 0000 2DE9F041 		push	{r4, r5, r6, r7, r8, lr}
 2222              	.LCFI42:
 2223              		.cfi_def_cfa_offset 24
 2224              		.cfi_offset 4, -24
 2225              		.cfi_offset 5, -20
 2226              		.cfi_offset 6, -16
 2227              		.cfi_offset 7, -12
 2228              		.cfi_offset 8, -8
 2229              		.cfi_offset 14, -4
 2230 0004 82B0     		sub	sp, sp, #8
ARM GAS  /tmp/ccmgRVpn.s 			page 69


 2231              	.LCFI43:
 2232              		.cfi_def_cfa_offset 32
 2233 0006 0446     		mov	r4, r0
 2234 0008 0D46     		mov	r5, r1
 799:Middlewares/lvgl/src/core/lv_obj_pos.c **** 
 2235              		.loc 1 799 5 is_stmt 1 view .LVU604
 799:Middlewares/lvgl/src/core/lv_obj_pos.c **** 
 2236              		.loc 1 799 8 is_stmt 0 view .LVU605
 2237 000a 0121     		movs	r1, #1
 2238              	.LVL196:
 799:Middlewares/lvgl/src/core/lv_obj_pos.c **** 
 2239              		.loc 1 799 8 view .LVU606
 2240 000c FFF7FEFF 		bl	lv_obj_has_flag
 2241              	.LVL197:
 799:Middlewares/lvgl/src/core/lv_obj_pos.c **** 
 2242              		.loc 1 799 7 view .LVU607
 2243 0010 20B1     		cbz	r0, .L113
 799:Middlewares/lvgl/src/core/lv_obj_pos.c **** 
 2244              		.loc 1 799 57 view .LVU608
 2245 0012 0027     		movs	r7, #0
 2246              	.LVL198:
 2247              	.L104:
 837:Middlewares/lvgl/src/core/lv_obj_pos.c **** 
 2248              		.loc 1 837 1 view .LVU609
 2249 0014 3846     		mov	r0, r7
 2250 0016 02B0     		add	sp, sp, #8
 2251              	.LCFI44:
 2252              		.cfi_remember_state
 2253              		.cfi_def_cfa_offset 24
 2254              		@ sp needed
 2255 0018 BDE8F081 		pop	{r4, r5, r6, r7, r8, pc}
 2256              	.LVL199:
 2257              	.L113:
 2258              	.LCFI45:
 2259              		.cfi_restore_state
 837:Middlewares/lvgl/src/core/lv_obj_pos.c **** 
 2260              		.loc 1 837 1 view .LVU610
 2261 001c 0646     		mov	r6, r0
 802:Middlewares/lvgl/src/core/lv_obj_pos.c ****     lv_disp_t * disp   = lv_obj_get_disp(obj_scr);
 2262              		.loc 1 802 5 is_stmt 1 view .LVU611
 802:Middlewares/lvgl/src/core/lv_obj_pos.c ****     lv_disp_t * disp   = lv_obj_get_disp(obj_scr);
 2263              		.loc 1 802 26 is_stmt 0 view .LVU612
 2264 001e 2046     		mov	r0, r4
 2265 0020 FFF7FEFF 		bl	lv_obj_get_screen
 2266              	.LVL200:
 2267 0024 0746     		mov	r7, r0
 2268              	.LVL201:
 803:Middlewares/lvgl/src/core/lv_obj_pos.c ****     if(obj_scr != lv_disp_get_scr_act(disp) &&
 2269              		.loc 1 803 5 is_stmt 1 view .LVU613
 803:Middlewares/lvgl/src/core/lv_obj_pos.c ****     if(obj_scr != lv_disp_get_scr_act(disp) &&
 2270              		.loc 1 803 26 is_stmt 0 view .LVU614
 2271 0026 FFF7FEFF 		bl	lv_obj_get_disp
 2272              	.LVL202:
 803:Middlewares/lvgl/src/core/lv_obj_pos.c ****     if(obj_scr != lv_disp_get_scr_act(disp) &&
 2273              		.loc 1 803 26 view .LVU615
 2274 002a 8046     		mov	r8, r0
 2275              	.LVL203:
ARM GAS  /tmp/ccmgRVpn.s 			page 70


 804:Middlewares/lvgl/src/core/lv_obj_pos.c ****        obj_scr != lv_disp_get_scr_prev(disp) &&
 2276              		.loc 1 804 5 is_stmt 1 view .LVU616
 804:Middlewares/lvgl/src/core/lv_obj_pos.c ****        obj_scr != lv_disp_get_scr_prev(disp) &&
 2277              		.loc 1 804 19 is_stmt 0 view .LVU617
 2278 002c FFF7FEFF 		bl	lv_disp_get_scr_act
 2279              	.LVL204:
 804:Middlewares/lvgl/src/core/lv_obj_pos.c ****        obj_scr != lv_disp_get_scr_prev(disp) &&
 2280              		.loc 1 804 7 view .LVU618
 2281 0030 8742     		cmp	r7, r0
 2282 0032 10D0     		beq	.L105
 805:Middlewares/lvgl/src/core/lv_obj_pos.c ****        obj_scr != lv_disp_get_layer_top(disp) &&
 2283              		.loc 1 805 19 discriminator 1 view .LVU619
 2284 0034 4046     		mov	r0, r8
 2285 0036 FFF7FEFF 		bl	lv_disp_get_scr_prev
 2286              	.LVL205:
 804:Middlewares/lvgl/src/core/lv_obj_pos.c ****        obj_scr != lv_disp_get_scr_prev(disp) &&
 2287              		.loc 1 804 45 discriminator 1 view .LVU620
 2288 003a 8742     		cmp	r7, r0
 2289 003c 0BD0     		beq	.L105
 806:Middlewares/lvgl/src/core/lv_obj_pos.c ****        obj_scr != lv_disp_get_layer_sys(disp))
 2290              		.loc 1 806 19 view .LVU621
 2291 003e 4046     		mov	r0, r8
 2292 0040 FFF7FEFF 		bl	lv_disp_get_layer_top
 2293              	.LVL206:
 805:Middlewares/lvgl/src/core/lv_obj_pos.c ****        obj_scr != lv_disp_get_layer_top(disp) &&
 2294              		.loc 1 805 46 view .LVU622
 2295 0044 8742     		cmp	r7, r0
 2296 0046 06D0     		beq	.L105
 807:Middlewares/lvgl/src/core/lv_obj_pos.c ****     {
 2297              		.loc 1 807 19 view .LVU623
 2298 0048 4046     		mov	r0, r8
 2299 004a FFF7FEFF 		bl	lv_disp_get_layer_sys
 2300              	.LVL207:
 806:Middlewares/lvgl/src/core/lv_obj_pos.c ****        obj_scr != lv_disp_get_layer_sys(disp))
 2301              		.loc 1 806 47 view .LVU624
 2302 004e 8742     		cmp	r7, r0
 2303 0050 01D0     		beq	.L105
 809:Middlewares/lvgl/src/core/lv_obj_pos.c ****     }
 2304              		.loc 1 809 16 view .LVU625
 2305 0052 3746     		mov	r7, r6
 2306              	.LVL208:
 809:Middlewares/lvgl/src/core/lv_obj_pos.c ****     }
 2307              		.loc 1 809 16 view .LVU626
 2308 0054 DEE7     		b	.L104
 2309              	.LVL209:
 2310              	.L105:
 813:Middlewares/lvgl/src/core/lv_obj_pos.c ****     lv_coord_t ext_size = _lv_obj_get_ext_draw_size(obj);
 2311              		.loc 1 813 5 is_stmt 1 view .LVU627
 814:Middlewares/lvgl/src/core/lv_obj_pos.c ****     lv_area_copy(&obj_coords, &obj->coords);
 2312              		.loc 1 814 5 view .LVU628
 814:Middlewares/lvgl/src/core/lv_obj_pos.c ****     lv_area_copy(&obj_coords, &obj->coords);
 2313              		.loc 1 814 27 is_stmt 0 view .LVU629
 2314 0056 2046     		mov	r0, r4
 2315 0058 FFF7FEFF 		bl	_lv_obj_get_ext_draw_size
 2316              	.LVL210:
 815:Middlewares/lvgl/src/core/lv_obj_pos.c ****     obj_coords.x1 -= ext_size;
 2317              		.loc 1 815 5 is_stmt 1 view .LVU630
ARM GAS  /tmp/ccmgRVpn.s 			page 71


 2318              	.LBB179:
 2319              	.LBI179:
 120:Middlewares/lvgl/src/core/../misc/../font/../misc/lv_area.h **** {
 2320              		.loc 3 120 20 view .LVU631
 2321              	.LBB180:
 122:Middlewares/lvgl/src/core/../misc/../font/../misc/lv_area.h ****     dest->y1 = src->y1;
 2322              		.loc 3 122 5 view .LVU632
 122:Middlewares/lvgl/src/core/../misc/../font/../misc/lv_area.h ****     dest->y1 = src->y1;
 2323              		.loc 3 122 19 is_stmt 0 view .LVU633
 2324 005c B4F91410 		ldrsh	r1, [r4, #20]
 122:Middlewares/lvgl/src/core/../misc/../font/../misc/lv_area.h ****     dest->y1 = src->y1;
 2325              		.loc 3 122 14 view .LVU634
 2326 0060 ADF80010 		strh	r1, [sp]	@ movhi
 123:Middlewares/lvgl/src/core/../misc/../font/../misc/lv_area.h ****     dest->x2 = src->x2;
 2327              		.loc 3 123 5 is_stmt 1 view .LVU635
 123:Middlewares/lvgl/src/core/../misc/../font/../misc/lv_area.h ****     dest->x2 = src->x2;
 2328              		.loc 3 123 19 is_stmt 0 view .LVU636
 2329 0064 B4F91620 		ldrsh	r2, [r4, #22]
 123:Middlewares/lvgl/src/core/../misc/../font/../misc/lv_area.h ****     dest->x2 = src->x2;
 2330              		.loc 3 123 14 view .LVU637
 2331 0068 ADF80220 		strh	r2, [sp, #2]	@ movhi
 124:Middlewares/lvgl/src/core/../misc/../font/../misc/lv_area.h ****     dest->y2 = src->y2;
 2332              		.loc 3 124 5 is_stmt 1 view .LVU638
 124:Middlewares/lvgl/src/core/../misc/../font/../misc/lv_area.h ****     dest->y2 = src->y2;
 2333              		.loc 3 124 19 is_stmt 0 view .LVU639
 2334 006c B4F91830 		ldrsh	r3, [r4, #24]
 124:Middlewares/lvgl/src/core/../misc/../font/../misc/lv_area.h ****     dest->y2 = src->y2;
 2335              		.loc 3 124 14 view .LVU640
 2336 0070 ADF80430 		strh	r3, [sp, #4]	@ movhi
 125:Middlewares/lvgl/src/core/../misc/../font/../misc/lv_area.h **** }
 2337              		.loc 3 125 5 is_stmt 1 view .LVU641
 125:Middlewares/lvgl/src/core/../misc/../font/../misc/lv_area.h **** }
 2338              		.loc 3 125 19 is_stmt 0 view .LVU642
 2339 0074 B4F91A70 		ldrsh	r7, [r4, #26]
 2340              	.LVL211:
 125:Middlewares/lvgl/src/core/../misc/../font/../misc/lv_area.h **** }
 2341              		.loc 3 125 14 view .LVU643
 2342 0078 ADF80670 		strh	r7, [sp, #6]	@ movhi
 2343              	.LVL212:
 125:Middlewares/lvgl/src/core/../misc/../font/../misc/lv_area.h **** }
 2344              		.loc 3 125 14 view .LVU644
 2345              	.LBE180:
 2346              	.LBE179:
 816:Middlewares/lvgl/src/core/lv_obj_pos.c ****     obj_coords.y1 -= ext_size;
 2347              		.loc 1 816 5 is_stmt 1 view .LVU645
 816:Middlewares/lvgl/src/core/lv_obj_pos.c ****     obj_coords.y1 -= ext_size;
 2348              		.loc 1 816 19 is_stmt 0 view .LVU646
 2349 007c 80B2     		uxth	r0, r0
 816:Middlewares/lvgl/src/core/lv_obj_pos.c ****     obj_coords.y1 -= ext_size;
 2350              		.loc 1 816 19 view .LVU647
 2351 007e 091A     		subs	r1, r1, r0
 2352 0080 ADF80010 		strh	r1, [sp]	@ movhi
 817:Middlewares/lvgl/src/core/lv_obj_pos.c ****     obj_coords.x2 += ext_size;
 2353              		.loc 1 817 5 is_stmt 1 view .LVU648
 817:Middlewares/lvgl/src/core/lv_obj_pos.c ****     obj_coords.x2 += ext_size;
 2354              		.loc 1 817 19 is_stmt 0 view .LVU649
 2355 0084 121A     		subs	r2, r2, r0
ARM GAS  /tmp/ccmgRVpn.s 			page 72


 2356 0086 ADF80220 		strh	r2, [sp, #2]	@ movhi
 818:Middlewares/lvgl/src/core/lv_obj_pos.c ****     obj_coords.y2 += ext_size;
 2357              		.loc 1 818 5 is_stmt 1 view .LVU650
 818:Middlewares/lvgl/src/core/lv_obj_pos.c ****     obj_coords.y2 += ext_size;
 2358              		.loc 1 818 19 is_stmt 0 view .LVU651
 2359 008a 0344     		add	r3, r3, r0
 2360 008c ADF80430 		strh	r3, [sp, #4]	@ movhi
 819:Middlewares/lvgl/src/core/lv_obj_pos.c **** 
 2361              		.loc 1 819 5 is_stmt 1 view .LVU652
 819:Middlewares/lvgl/src/core/lv_obj_pos.c **** 
 2362              		.loc 1 819 19 is_stmt 0 view .LVU653
 2363 0090 3844     		add	r0, r0, r7
 2364              	.LVL213:
 819:Middlewares/lvgl/src/core/lv_obj_pos.c **** 
 2365              		.loc 1 819 19 view .LVU654
 2366 0092 ADF80600 		strh	r0, [sp, #6]	@ movhi
 821:Middlewares/lvgl/src/core/lv_obj_pos.c **** 
 2367              		.loc 1 821 5 is_stmt 1 view .LVU655
 823:Middlewares/lvgl/src/core/lv_obj_pos.c ****     if(is_common == false) return false;  /*The area is not on the object*/
 2368              		.loc 1 823 5 view .LVU656
 823:Middlewares/lvgl/src/core/lv_obj_pos.c ****     if(is_common == false) return false;  /*The area is not on the object*/
 2369              		.loc 1 823 17 is_stmt 0 view .LVU657
 2370 0096 6A46     		mov	r2, sp
 2371 0098 2946     		mov	r1, r5
 2372 009a 2846     		mov	r0, r5
 2373 009c FFF7FEFF 		bl	_lv_area_intersect
 2374              	.LVL214:
 824:Middlewares/lvgl/src/core/lv_obj_pos.c **** 
 2375              		.loc 1 824 5 is_stmt 1 view .LVU658
 824:Middlewares/lvgl/src/core/lv_obj_pos.c **** 
 2376              		.loc 1 824 7 is_stmt 0 view .LVU659
 2377 00a0 0746     		mov	r7, r0
 2378 00a2 0028     		cmp	r0, #0
 2379 00a4 B6D0     		beq	.L104
 827:Middlewares/lvgl/src/core/lv_obj_pos.c ****     while(par != NULL) {
 2380              		.loc 1 827 5 is_stmt 1 view .LVU660
 827:Middlewares/lvgl/src/core/lv_obj_pos.c ****     while(par != NULL) {
 2381              		.loc 1 827 22 is_stmt 0 view .LVU661
 2382 00a6 2046     		mov	r0, r4
 2383              	.LVL215:
 827:Middlewares/lvgl/src/core/lv_obj_pos.c ****     while(par != NULL) {
 2384              		.loc 1 827 22 view .LVU662
 2385 00a8 FFF7FEFF 		bl	lv_obj_get_parent
 2386              	.LVL216:
 2387 00ac 0446     		mov	r4, r0
 2388              	.LVL217:
 828:Middlewares/lvgl/src/core/lv_obj_pos.c ****         is_common = _lv_area_intersect(area, area, &par->coords);
 2389              		.loc 1 828 5 is_stmt 1 view .LVU663
 2390              	.L106:
 828:Middlewares/lvgl/src/core/lv_obj_pos.c ****         is_common = _lv_area_intersect(area, area, &par->coords);
 2391              		.loc 1 828 10 view .LVU664
 2392 00ae 002C     		cmp	r4, #0
 2393 00b0 B0D0     		beq	.L104
 829:Middlewares/lvgl/src/core/lv_obj_pos.c ****         if(is_common == false) return false;       /*If no common parts with parent break;*/
 2394              		.loc 1 829 9 view .LVU665
 829:Middlewares/lvgl/src/core/lv_obj_pos.c ****         if(is_common == false) return false;       /*If no common parts with parent break;*/
 2395              		.loc 1 829 21 is_stmt 0 view .LVU666
ARM GAS  /tmp/ccmgRVpn.s 			page 73


 2396 00b2 04F11402 		add	r2, r4, #20
 2397 00b6 2946     		mov	r1, r5
 2398 00b8 2846     		mov	r0, r5
 2399              	.LVL218:
 829:Middlewares/lvgl/src/core/lv_obj_pos.c ****         if(is_common == false) return false;       /*If no common parts with parent break;*/
 2400              		.loc 1 829 21 view .LVU667
 2401 00ba FFF7FEFF 		bl	_lv_area_intersect
 2402              	.LVL219:
 830:Middlewares/lvgl/src/core/lv_obj_pos.c ****         if(lv_obj_has_flag(par, LV_OBJ_FLAG_HIDDEN)) return false; /*If the parent is hidden then t
 2403              		.loc 1 830 9 is_stmt 1 view .LVU668
 830:Middlewares/lvgl/src/core/lv_obj_pos.c ****         if(lv_obj_has_flag(par, LV_OBJ_FLAG_HIDDEN)) return false; /*If the parent is hidden then t
 2404              		.loc 1 830 11 is_stmt 0 view .LVU669
 2405 00be 48B1     		cbz	r0, .L110
 831:Middlewares/lvgl/src/core/lv_obj_pos.c **** 
 2406              		.loc 1 831 9 is_stmt 1 view .LVU670
 831:Middlewares/lvgl/src/core/lv_obj_pos.c **** 
 2407              		.loc 1 831 12 is_stmt 0 view .LVU671
 2408 00c0 0121     		movs	r1, #1
 2409 00c2 2046     		mov	r0, r4
 2410              	.LVL220:
 831:Middlewares/lvgl/src/core/lv_obj_pos.c **** 
 2411              		.loc 1 831 12 view .LVU672
 2412 00c4 FFF7FEFF 		bl	lv_obj_has_flag
 2413              	.LVL221:
 831:Middlewares/lvgl/src/core/lv_obj_pos.c **** 
 2414              		.loc 1 831 11 view .LVU673
 2415 00c8 30B9     		cbnz	r0, .L111
 833:Middlewares/lvgl/src/core/lv_obj_pos.c ****     }
 2416              		.loc 1 833 9 is_stmt 1 view .LVU674
 833:Middlewares/lvgl/src/core/lv_obj_pos.c ****     }
 2417              		.loc 1 833 15 is_stmt 0 view .LVU675
 2418 00ca 2046     		mov	r0, r4
 2419 00cc FFF7FEFF 		bl	lv_obj_get_parent
 2420              	.LVL222:
 2421 00d0 0446     		mov	r4, r0
 2422              	.LVL223:
 833:Middlewares/lvgl/src/core/lv_obj_pos.c ****     }
 2423              		.loc 1 833 15 view .LVU676
 2424 00d2 ECE7     		b	.L106
 2425              	.LVL224:
 2426              	.L110:
 830:Middlewares/lvgl/src/core/lv_obj_pos.c ****         if(lv_obj_has_flag(par, LV_OBJ_FLAG_HIDDEN)) return false; /*If the parent is hidden then t
 2427              		.loc 1 830 39 view .LVU677
 2428 00d4 0746     		mov	r7, r0
 2429 00d6 9DE7     		b	.L104
 2430              	.LVL225:
 2431              	.L111:
 831:Middlewares/lvgl/src/core/lv_obj_pos.c **** 
 2432              		.loc 1 831 61 view .LVU678
 2433 00d8 3746     		mov	r7, r6
 2434 00da 9BE7     		b	.L104
 2435              		.cfi_endproc
 2436              	.LFE188:
 2438              		.section	.text.lv_obj_invalidate_area,"ax",%progbits
 2439              		.align	1
 2440              		.global	lv_obj_invalidate_area
 2441              		.syntax unified
ARM GAS  /tmp/ccmgRVpn.s 			page 74


 2442              		.thumb
 2443              		.thumb_func
 2445              	lv_obj_invalidate_area:
 2446              	.LVL226:
 2447              	.LFB186:
 770:Middlewares/lvgl/src/core/lv_obj_pos.c ****     LV_ASSERT_OBJ(obj, MY_CLASS);
 2448              		.loc 1 770 1 is_stmt 1 view -0
 2449              		.cfi_startproc
 2450              		@ args = 0, pretend = 0, frame = 8
 2451              		@ frame_needed = 0, uses_anonymous_args = 0
 770:Middlewares/lvgl/src/core/lv_obj_pos.c ****     LV_ASSERT_OBJ(obj, MY_CLASS);
 2452              		.loc 1 770 1 is_stmt 0 view .LVU680
 2453 0000 10B5     		push	{r4, lr}
 2454              	.LCFI46:
 2455              		.cfi_def_cfa_offset 8
 2456              		.cfi_offset 4, -8
 2457              		.cfi_offset 14, -4
 2458 0002 82B0     		sub	sp, sp, #8
 2459              	.LCFI47:
 2460              		.cfi_def_cfa_offset 16
 2461 0004 0446     		mov	r4, r0
 771:Middlewares/lvgl/src/core/lv_obj_pos.c **** 
 2462              		.loc 1 771 5 is_stmt 1 view .LVU681
 771:Middlewares/lvgl/src/core/lv_obj_pos.c **** 
 2463              		.loc 1 771 5 view .LVU682
 771:Middlewares/lvgl/src/core/lv_obj_pos.c **** 
 2464              		.loc 1 771 5 view .LVU683
 773:Middlewares/lvgl/src/core/lv_obj_pos.c ****     lv_area_copy(&area_tmp, area);
 2465              		.loc 1 773 5 view .LVU684
 774:Middlewares/lvgl/src/core/lv_obj_pos.c ****     bool visible = lv_obj_area_is_visible(obj, &area_tmp);
 2466              		.loc 1 774 5 view .LVU685
 2467              	.LVL227:
 2468              	.LBB181:
 2469              	.LBI181:
 120:Middlewares/lvgl/src/core/../misc/../font/../misc/lv_area.h **** {
 2470              		.loc 3 120 20 view .LVU686
 2471              	.LBB182:
 122:Middlewares/lvgl/src/core/../misc/../font/../misc/lv_area.h ****     dest->y1 = src->y1;
 2472              		.loc 3 122 5 view .LVU687
 122:Middlewares/lvgl/src/core/../misc/../font/../misc/lv_area.h ****     dest->y1 = src->y1;
 2473              		.loc 3 122 19 is_stmt 0 view .LVU688
 2474 0006 B1F90030 		ldrsh	r3, [r1]
 122:Middlewares/lvgl/src/core/../misc/../font/../misc/lv_area.h ****     dest->y1 = src->y1;
 2475              		.loc 3 122 14 view .LVU689
 2476 000a ADF80030 		strh	r3, [sp]	@ movhi
 123:Middlewares/lvgl/src/core/../misc/../font/../misc/lv_area.h ****     dest->x2 = src->x2;
 2477              		.loc 3 123 5 is_stmt 1 view .LVU690
 123:Middlewares/lvgl/src/core/../misc/../font/../misc/lv_area.h ****     dest->x2 = src->x2;
 2478              		.loc 3 123 19 is_stmt 0 view .LVU691
 2479 000e B1F90230 		ldrsh	r3, [r1, #2]
 123:Middlewares/lvgl/src/core/../misc/../font/../misc/lv_area.h ****     dest->x2 = src->x2;
 2480              		.loc 3 123 14 view .LVU692
 2481 0012 ADF80230 		strh	r3, [sp, #2]	@ movhi
 124:Middlewares/lvgl/src/core/../misc/../font/../misc/lv_area.h ****     dest->y2 = src->y2;
 2482              		.loc 3 124 5 is_stmt 1 view .LVU693
 124:Middlewares/lvgl/src/core/../misc/../font/../misc/lv_area.h ****     dest->y2 = src->y2;
 2483              		.loc 3 124 19 is_stmt 0 view .LVU694
ARM GAS  /tmp/ccmgRVpn.s 			page 75


 2484 0016 B1F90430 		ldrsh	r3, [r1, #4]
 124:Middlewares/lvgl/src/core/../misc/../font/../misc/lv_area.h ****     dest->y2 = src->y2;
 2485              		.loc 3 124 14 view .LVU695
 2486 001a ADF80430 		strh	r3, [sp, #4]	@ movhi
 125:Middlewares/lvgl/src/core/../misc/../font/../misc/lv_area.h **** }
 2487              		.loc 3 125 5 is_stmt 1 view .LVU696
 125:Middlewares/lvgl/src/core/../misc/../font/../misc/lv_area.h **** }
 2488              		.loc 3 125 19 is_stmt 0 view .LVU697
 2489 001e B1F90630 		ldrsh	r3, [r1, #6]
 125:Middlewares/lvgl/src/core/../misc/../font/../misc/lv_area.h **** }
 2490              		.loc 3 125 14 view .LVU698
 2491 0022 ADF80630 		strh	r3, [sp, #6]	@ movhi
 2492              	.LVL228:
 125:Middlewares/lvgl/src/core/../misc/../font/../misc/lv_area.h **** }
 2493              		.loc 3 125 14 view .LVU699
 2494              	.LBE182:
 2495              	.LBE181:
 775:Middlewares/lvgl/src/core/lv_obj_pos.c **** 
 2496              		.loc 1 775 5 is_stmt 1 view .LVU700
 775:Middlewares/lvgl/src/core/lv_obj_pos.c **** 
 2497              		.loc 1 775 20 is_stmt 0 view .LVU701
 2498 0026 6946     		mov	r1, sp
 2499              	.LVL229:
 775:Middlewares/lvgl/src/core/lv_obj_pos.c **** 
 2500              		.loc 1 775 20 view .LVU702
 2501 0028 FFF7FEFF 		bl	lv_obj_area_is_visible
 2502              	.LVL230:
 777:Middlewares/lvgl/src/core/lv_obj_pos.c **** }
 2503              		.loc 1 777 5 is_stmt 1 view .LVU703
 777:Middlewares/lvgl/src/core/lv_obj_pos.c **** }
 2504              		.loc 1 777 7 is_stmt 0 view .LVU704
 2505 002c 08B9     		cbnz	r0, .L117
 2506              	.LVL231:
 2507              	.L114:
 778:Middlewares/lvgl/src/core/lv_obj_pos.c **** 
 2508              		.loc 1 778 1 view .LVU705
 2509 002e 02B0     		add	sp, sp, #8
 2510              	.LCFI48:
 2511              		.cfi_remember_state
 2512              		.cfi_def_cfa_offset 8
 2513              		@ sp needed
 2514 0030 10BD     		pop	{r4, pc}
 2515              	.LVL232:
 2516              	.L117:
 2517              	.LCFI49:
 2518              		.cfi_restore_state
 777:Middlewares/lvgl/src/core/lv_obj_pos.c **** }
 2519              		.loc 1 777 17 is_stmt 1 discriminator 1 view .LVU706
 2520 0032 2046     		mov	r0, r4
 2521              	.LVL233:
 777:Middlewares/lvgl/src/core/lv_obj_pos.c **** }
 2522              		.loc 1 777 17 is_stmt 0 discriminator 1 view .LVU707
 2523 0034 FFF7FEFF 		bl	lv_obj_get_disp
 2524              	.LVL234:
 2525 0038 6946     		mov	r1, sp
 2526 003a FFF7FEFF 		bl	_lv_inv_area
 2527              	.LVL235:
ARM GAS  /tmp/ccmgRVpn.s 			page 76


 778:Middlewares/lvgl/src/core/lv_obj_pos.c **** 
 2528              		.loc 1 778 1 discriminator 1 view .LVU708
 2529 003e F6E7     		b	.L114
 2530              		.cfi_endproc
 2531              	.LFE186:
 2533              		.section	.text.lv_obj_invalidate,"ax",%progbits
 2534              		.align	1
 2535              		.global	lv_obj_invalidate
 2536              		.syntax unified
 2537              		.thumb
 2538              		.thumb_func
 2540              	lv_obj_invalidate:
 2541              	.LVL236:
 2542              	.LFB187:
 781:Middlewares/lvgl/src/core/lv_obj_pos.c ****     LV_ASSERT_OBJ(obj, MY_CLASS);
 2543              		.loc 1 781 1 is_stmt 1 view -0
 2544              		.cfi_startproc
 2545              		@ args = 0, pretend = 0, frame = 8
 2546              		@ frame_needed = 0, uses_anonymous_args = 0
 781:Middlewares/lvgl/src/core/lv_obj_pos.c ****     LV_ASSERT_OBJ(obj, MY_CLASS);
 2547              		.loc 1 781 1 is_stmt 0 view .LVU710
 2548 0000 10B5     		push	{r4, lr}
 2549              	.LCFI50:
 2550              		.cfi_def_cfa_offset 8
 2551              		.cfi_offset 4, -8
 2552              		.cfi_offset 14, -4
 2553 0002 82B0     		sub	sp, sp, #8
 2554              	.LCFI51:
 2555              		.cfi_def_cfa_offset 16
 2556 0004 0446     		mov	r4, r0
 782:Middlewares/lvgl/src/core/lv_obj_pos.c **** 
 2557              		.loc 1 782 5 is_stmt 1 view .LVU711
 782:Middlewares/lvgl/src/core/lv_obj_pos.c **** 
 2558              		.loc 1 782 5 view .LVU712
 782:Middlewares/lvgl/src/core/lv_obj_pos.c **** 
 2559              		.loc 1 782 5 view .LVU713
 785:Middlewares/lvgl/src/core/lv_obj_pos.c ****     lv_coord_t ext_size = _lv_obj_get_ext_draw_size(obj);
 2560              		.loc 1 785 5 view .LVU714
 786:Middlewares/lvgl/src/core/lv_obj_pos.c ****     lv_area_copy(&obj_coords, &obj->coords);
 2561              		.loc 1 786 5 view .LVU715
 786:Middlewares/lvgl/src/core/lv_obj_pos.c ****     lv_area_copy(&obj_coords, &obj->coords);
 2562              		.loc 1 786 27 is_stmt 0 view .LVU716
 2563 0006 FFF7FEFF 		bl	_lv_obj_get_ext_draw_size
 2564              	.LVL237:
 787:Middlewares/lvgl/src/core/lv_obj_pos.c ****     obj_coords.x1 -= ext_size;
 2565              		.loc 1 787 5 is_stmt 1 view .LVU717
 2566              	.LBB183:
 2567              	.LBI183:
 120:Middlewares/lvgl/src/core/../misc/../font/../misc/lv_area.h **** {
 2568              		.loc 3 120 20 view .LVU718
 2569              	.LBB184:
 122:Middlewares/lvgl/src/core/../misc/../font/../misc/lv_area.h ****     dest->y1 = src->y1;
 2570              		.loc 3 122 5 view .LVU719
 122:Middlewares/lvgl/src/core/../misc/../font/../misc/lv_area.h ****     dest->y1 = src->y1;
 2571              		.loc 3 122 19 is_stmt 0 view .LVU720
 2572 000a B4F914C0 		ldrsh	ip, [r4, #20]
 122:Middlewares/lvgl/src/core/../misc/../font/../misc/lv_area.h ****     dest->y1 = src->y1;
ARM GAS  /tmp/ccmgRVpn.s 			page 77


 2573              		.loc 3 122 14 view .LVU721
 2574 000e ADF800C0 		strh	ip, [sp]	@ movhi
 123:Middlewares/lvgl/src/core/../misc/../font/../misc/lv_area.h ****     dest->x2 = src->x2;
 2575              		.loc 3 123 5 is_stmt 1 view .LVU722
 123:Middlewares/lvgl/src/core/../misc/../font/../misc/lv_area.h ****     dest->x2 = src->x2;
 2576              		.loc 3 123 19 is_stmt 0 view .LVU723
 2577 0012 B4F91610 		ldrsh	r1, [r4, #22]
 123:Middlewares/lvgl/src/core/../misc/../font/../misc/lv_area.h ****     dest->x2 = src->x2;
 2578              		.loc 3 123 14 view .LVU724
 2579 0016 ADF80210 		strh	r1, [sp, #2]	@ movhi
 124:Middlewares/lvgl/src/core/../misc/../font/../misc/lv_area.h ****     dest->y2 = src->y2;
 2580              		.loc 3 124 5 is_stmt 1 view .LVU725
 124:Middlewares/lvgl/src/core/../misc/../font/../misc/lv_area.h ****     dest->y2 = src->y2;
 2581              		.loc 3 124 19 is_stmt 0 view .LVU726
 2582 001a B4F91820 		ldrsh	r2, [r4, #24]
 124:Middlewares/lvgl/src/core/../misc/../font/../misc/lv_area.h ****     dest->y2 = src->y2;
 2583              		.loc 3 124 14 view .LVU727
 2584 001e ADF80420 		strh	r2, [sp, #4]	@ movhi
 125:Middlewares/lvgl/src/core/../misc/../font/../misc/lv_area.h **** }
 2585              		.loc 3 125 5 is_stmt 1 view .LVU728
 125:Middlewares/lvgl/src/core/../misc/../font/../misc/lv_area.h **** }
 2586              		.loc 3 125 19 is_stmt 0 view .LVU729
 2587 0022 B4F91AE0 		ldrsh	lr, [r4, #26]
 125:Middlewares/lvgl/src/core/../misc/../font/../misc/lv_area.h **** }
 2588              		.loc 3 125 14 view .LVU730
 2589 0026 ADF806E0 		strh	lr, [sp, #6]	@ movhi
 2590              	.LVL238:
 125:Middlewares/lvgl/src/core/../misc/../font/../misc/lv_area.h **** }
 2591              		.loc 3 125 14 view .LVU731
 2592              	.LBE184:
 2593              	.LBE183:
 788:Middlewares/lvgl/src/core/lv_obj_pos.c ****     obj_coords.y1 -= ext_size;
 2594              		.loc 1 788 5 is_stmt 1 view .LVU732
 788:Middlewares/lvgl/src/core/lv_obj_pos.c ****     obj_coords.y1 -= ext_size;
 2595              		.loc 1 788 19 is_stmt 0 view .LVU733
 2596 002a 83B2     		uxth	r3, r0
 2597 002c ACEB030C 		sub	ip, ip, r3
 2598 0030 ADF800C0 		strh	ip, [sp]	@ movhi
 789:Middlewares/lvgl/src/core/lv_obj_pos.c ****     obj_coords.x2 += ext_size;
 2599              		.loc 1 789 5 is_stmt 1 view .LVU734
 789:Middlewares/lvgl/src/core/lv_obj_pos.c ****     obj_coords.x2 += ext_size;
 2600              		.loc 1 789 19 is_stmt 0 view .LVU735
 2601 0034 C91A     		subs	r1, r1, r3
 2602 0036 ADF80210 		strh	r1, [sp, #2]	@ movhi
 790:Middlewares/lvgl/src/core/lv_obj_pos.c ****     obj_coords.y2 += ext_size;
 2603              		.loc 1 790 5 is_stmt 1 view .LVU736
 790:Middlewares/lvgl/src/core/lv_obj_pos.c ****     obj_coords.y2 += ext_size;
 2604              		.loc 1 790 19 is_stmt 0 view .LVU737
 2605 003a 1A44     		add	r2, r2, r3
 2606 003c ADF80420 		strh	r2, [sp, #4]	@ movhi
 791:Middlewares/lvgl/src/core/lv_obj_pos.c **** 
 2607              		.loc 1 791 5 is_stmt 1 view .LVU738
 791:Middlewares/lvgl/src/core/lv_obj_pos.c **** 
 2608              		.loc 1 791 19 is_stmt 0 view .LVU739
 2609 0040 7344     		add	r3, r3, lr
 2610 0042 ADF80630 		strh	r3, [sp, #6]	@ movhi
 793:Middlewares/lvgl/src/core/lv_obj_pos.c **** 
ARM GAS  /tmp/ccmgRVpn.s 			page 78


 2611              		.loc 1 793 5 is_stmt 1 view .LVU740
 2612 0046 6946     		mov	r1, sp
 2613 0048 2046     		mov	r0, r4
 2614              	.LVL239:
 793:Middlewares/lvgl/src/core/lv_obj_pos.c **** 
 2615              		.loc 1 793 5 is_stmt 0 view .LVU741
 2616 004a FFF7FEFF 		bl	lv_obj_invalidate_area
 2617              	.LVL240:
 795:Middlewares/lvgl/src/core/lv_obj_pos.c **** 
 2618              		.loc 1 795 1 view .LVU742
 2619 004e 02B0     		add	sp, sp, #8
 2620              	.LCFI52:
 2621              		.cfi_def_cfa_offset 8
 2622              		@ sp needed
 2623 0050 10BD     		pop	{r4, pc}
 795:Middlewares/lvgl/src/core/lv_obj_pos.c **** 
 2624              		.loc 1 795 1 view .LVU743
 2625              		.cfi_endproc
 2626              	.LFE187:
 2628              		.section	.text.lv_obj_move_to,"ax",%progbits
 2629              		.align	1
 2630              		.global	lv_obj_move_to
 2631              		.syntax unified
 2632              		.thumb
 2633              		.thumb_func
 2635              	lv_obj_move_to:
 2636              	.LVL241:
 2637              	.LFB184:
 681:Middlewares/lvgl/src/core/lv_obj_pos.c ****     /*Convert x and y to absolute coordinates*/
 2638              		.loc 1 681 1 is_stmt 1 view -0
 2639              		.cfi_startproc
 2640              		@ args = 0, pretend = 0, frame = 24
 2641              		@ frame_needed = 0, uses_anonymous_args = 0
 681:Middlewares/lvgl/src/core/lv_obj_pos.c ****     /*Convert x and y to absolute coordinates*/
 2642              		.loc 1 681 1 is_stmt 0 view .LVU745
 2643 0000 2DE9F04F 		push	{r4, r5, r6, r7, r8, r9, r10, fp, lr}
 2644              	.LCFI53:
 2645              		.cfi_def_cfa_offset 36
 2646              		.cfi_offset 4, -36
 2647              		.cfi_offset 5, -32
 2648              		.cfi_offset 6, -28
 2649              		.cfi_offset 7, -24
 2650              		.cfi_offset 8, -20
 2651              		.cfi_offset 9, -16
 2652              		.cfi_offset 10, -12
 2653              		.cfi_offset 11, -8
 2654              		.cfi_offset 14, -4
 2655 0004 87B0     		sub	sp, sp, #28
 2656              	.LCFI54:
 2657              		.cfi_def_cfa_offset 64
 2658 0006 0446     		mov	r4, r0
 2659 0008 0D46     		mov	r5, r1
 2660 000a 1646     		mov	r6, r2
 683:Middlewares/lvgl/src/core/lv_obj_pos.c **** 
 2661              		.loc 1 683 5 is_stmt 1 view .LVU746
 683:Middlewares/lvgl/src/core/lv_obj_pos.c **** 
 2662              		.loc 1 683 16 is_stmt 0 view .LVU747
ARM GAS  /tmp/ccmgRVpn.s 			page 79


 2663 000c 4768     		ldr	r7, [r0, #4]
 2664              	.LVL242:
 685:Middlewares/lvgl/src/core/lv_obj_pos.c ****         lv_coord_t pad_left = lv_obj_get_style_pad_left(parent, LV_PART_MAIN);
 2665              		.loc 1 685 5 is_stmt 1 view .LVU748
 685:Middlewares/lvgl/src/core/lv_obj_pos.c ****         lv_coord_t pad_left = lv_obj_get_style_pad_left(parent, LV_PART_MAIN);
 2666              		.loc 1 685 7 is_stmt 0 view .LVU749
 2667 000e 6FB3     		cbz	r7, .L121
 2668              	.LBB185:
 686:Middlewares/lvgl/src/core/lv_obj_pos.c ****         lv_coord_t pad_top = lv_obj_get_style_pad_top(parent, LV_PART_MAIN);
 2669              		.loc 1 686 9 is_stmt 1 view .LVU750
 2670              	.LVL243:
 2671              	.LBB186:
 2672              	.LBI186:
 103:Middlewares/lvgl/src/core/lv_obj_style_gen.h **** {
 2673              		.loc 2 103 26 view .LVU751
 2674              	.LBB187:
 105:Middlewares/lvgl/src/core/lv_obj_style_gen.h ****     return (lv_coord_t)v.num;
 2675              		.loc 2 105 5 view .LVU752
 105:Middlewares/lvgl/src/core/lv_obj_style_gen.h ****     return (lv_coord_t)v.num;
 2676              		.loc 2 105 26 is_stmt 0 view .LVU753
 2677 0010 41F21202 		movw	r2, #4114
 2678              	.LVL244:
 105:Middlewares/lvgl/src/core/lv_obj_style_gen.h ****     return (lv_coord_t)v.num;
 2679              		.loc 2 105 26 view .LVU754
 2680 0014 0021     		movs	r1, #0
 2681              	.LVL245:
 105:Middlewares/lvgl/src/core/lv_obj_style_gen.h ****     return (lv_coord_t)v.num;
 2682              		.loc 2 105 26 view .LVU755
 2683 0016 3846     		mov	r0, r7
 2684              	.LVL246:
 105:Middlewares/lvgl/src/core/lv_obj_style_gen.h ****     return (lv_coord_t)v.num;
 2685              		.loc 2 105 26 view .LVU756
 2686 0018 FFF7FEFF 		bl	lv_obj_get_style_prop
 2687              	.LVL247:
 2688 001c 8246     		mov	r10, r0
 106:Middlewares/lvgl/src/core/lv_obj_style_gen.h **** }
 2689              		.loc 2 106 5 is_stmt 1 view .LVU757
 106:Middlewares/lvgl/src/core/lv_obj_style_gen.h **** }
 2690              		.loc 2 106 12 is_stmt 0 view .LVU758
 2691 001e 0FFA80FB 		sxth	fp, r0
 2692              	.LVL248:
 106:Middlewares/lvgl/src/core/lv_obj_style_gen.h **** }
 2693              		.loc 2 106 12 view .LVU759
 2694              	.LBE187:
 2695              	.LBE186:
 687:Middlewares/lvgl/src/core/lv_obj_pos.c **** 
 2696              		.loc 1 687 9 is_stmt 1 view .LVU760
 2697              	.LBB188:
 2698              	.LBI188:
  91:Middlewares/lvgl/src/core/lv_obj_style_gen.h **** {
 2699              		.loc 2 91 26 view .LVU761
 2700              	.LBB189:
  93:Middlewares/lvgl/src/core/lv_obj_style_gen.h ****     return (lv_coord_t)v.num;
 2701              		.loc 2 93 5 view .LVU762
  93:Middlewares/lvgl/src/core/lv_obj_style_gen.h ****     return (lv_coord_t)v.num;
 2702              		.loc 2 93 26 is_stmt 0 view .LVU763
 2703 0022 41F21002 		movw	r2, #4112
ARM GAS  /tmp/ccmgRVpn.s 			page 80


 2704 0026 0021     		movs	r1, #0
 2705 0028 3846     		mov	r0, r7
 2706 002a FFF7FEFF 		bl	lv_obj_get_style_prop
 2707              	.LVL249:
 2708 002e 8146     		mov	r9, r0
  94:Middlewares/lvgl/src/core/lv_obj_style_gen.h **** }
 2709              		.loc 2 94 5 is_stmt 1 view .LVU764
  94:Middlewares/lvgl/src/core/lv_obj_style_gen.h **** }
 2710              		.loc 2 94 12 is_stmt 0 view .LVU765
 2711 0030 0FFA80F8 		sxth	r8, r0
 2712              	.LVL250:
  94:Middlewares/lvgl/src/core/lv_obj_style_gen.h **** }
 2713              		.loc 2 94 12 view .LVU766
 2714              	.LBE189:
 2715              	.LBE188:
 689:Middlewares/lvgl/src/core/lv_obj_pos.c ****             x += pad_left + parent->coords.x1;
 2716              		.loc 1 689 9 is_stmt 1 view .LVU767
 689:Middlewares/lvgl/src/core/lv_obj_pos.c ****             x += pad_left + parent->coords.x1;
 2717              		.loc 1 689 12 is_stmt 0 view .LVU768
 2718 0034 4FF48031 		mov	r1, #65536
 2719 0038 2046     		mov	r0, r4
 2720 003a FFF7FEFF 		bl	lv_obj_has_flag
 2721              	.LVL251:
 689:Middlewares/lvgl/src/core/lv_obj_pos.c ****             x += pad_left + parent->coords.x1;
 2722              		.loc 1 689 11 view .LVU769
 2723 003e 0028     		cmp	r0, #0
 2724 0040 3CD0     		beq	.L122
 690:Middlewares/lvgl/src/core/lv_obj_pos.c ****             y += pad_top + parent->coords.y1;
 2725              		.loc 1 690 13 is_stmt 1 view .LVU770
 690:Middlewares/lvgl/src/core/lv_obj_pos.c ****             y += pad_top + parent->coords.y1;
 2726              		.loc 1 690 43 is_stmt 0 view .LVU771
 2727 0042 B88A     		ldrh	r0, [r7, #20]
 690:Middlewares/lvgl/src/core/lv_obj_pos.c ****             y += pad_top + parent->coords.y1;
 2728              		.loc 1 690 27 view .LVU772
 2729 0044 8244     		add	r10, r10, r0
 690:Middlewares/lvgl/src/core/lv_obj_pos.c ****             y += pad_top + parent->coords.y1;
 2730              		.loc 1 690 15 view .LVU773
 2731 0046 15FA8AF5 		uxtah	r5, r5, r10
 2732 004a 2DB2     		sxth	r5, r5
 2733              	.LVL252:
 691:Middlewares/lvgl/src/core/lv_obj_pos.c ****         } else {
 2734              		.loc 1 691 13 is_stmt 1 view .LVU774
 691:Middlewares/lvgl/src/core/lv_obj_pos.c ****         } else {
 2735              		.loc 1 691 42 is_stmt 0 view .LVU775
 2736 004c FA8A     		ldrh	r2, [r7, #22]
 691:Middlewares/lvgl/src/core/lv_obj_pos.c ****         } else {
 2737              		.loc 1 691 26 view .LVU776
 2738 004e 4A44     		add	r2, r2, r9
 691:Middlewares/lvgl/src/core/lv_obj_pos.c ****         } else {
 2739              		.loc 1 691 15 view .LVU777
 2740 0050 16FA82F6 		uxtah	r6, r6, r2
 2741 0054 36B2     		sxth	r6, r6
 2742              	.LVL253:
 2743              	.L123:
 697:Middlewares/lvgl/src/core/lv_obj_pos.c ****         x += border_width;
 2744              		.loc 1 697 9 is_stmt 1 view .LVU778
 2745              	.LBB190:
ARM GAS  /tmp/ccmgRVpn.s 			page 81


 2746              	.LBI190:
 295:Middlewares/lvgl/src/core/lv_obj_style_gen.h **** {
 2747              		.loc 2 295 26 view .LVU779
 2748              	.LBB191:
 297:Middlewares/lvgl/src/core/lv_obj_style_gen.h ****     return (lv_coord_t)v.num;
 2749              		.loc 2 297 5 view .LVU780
 297:Middlewares/lvgl/src/core/lv_obj_style_gen.h ****     return (lv_coord_t)v.num;
 2750              		.loc 2 297 26 is_stmt 0 view .LVU781
 2751 0056 41F23202 		movw	r2, #4146
 2752 005a 0021     		movs	r1, #0
 2753 005c 3846     		mov	r0, r7
 2754 005e FFF7FEFF 		bl	lv_obj_get_style_prop
 2755              	.LVL254:
 2756              		.loc 2 298 5 is_stmt 1 view .LVU782
 2757              		.loc 2 298 5 is_stmt 0 view .LVU783
 2758              	.LBE191:
 2759              	.LBE190:
 698:Middlewares/lvgl/src/core/lv_obj_pos.c ****         y += border_width;
 2760              		.loc 1 698 9 is_stmt 1 view .LVU784
 698:Middlewares/lvgl/src/core/lv_obj_pos.c ****         y += border_width;
 2761              		.loc 1 698 11 is_stmt 0 view .LVU785
 2762 0062 80B2     		uxth	r0, r0
 698:Middlewares/lvgl/src/core/lv_obj_pos.c ****         y += border_width;
 2763              		.loc 1 698 11 view .LVU786
 2764 0064 0544     		add	r5, r5, r0
 2765              	.LVL255:
 698:Middlewares/lvgl/src/core/lv_obj_pos.c ****         y += border_width;
 2766              		.loc 1 698 11 view .LVU787
 2767 0066 2DB2     		sxth	r5, r5
 2768              	.LVL256:
 699:Middlewares/lvgl/src/core/lv_obj_pos.c ****     }
 2769              		.loc 1 699 9 is_stmt 1 view .LVU788
 699:Middlewares/lvgl/src/core/lv_obj_pos.c ****     }
 2770              		.loc 1 699 11 is_stmt 0 view .LVU789
 2771 0068 0644     		add	r6, r6, r0
 2772              	.LVL257:
 699:Middlewares/lvgl/src/core/lv_obj_pos.c ****     }
 2773              		.loc 1 699 11 view .LVU790
 2774 006a 36B2     		sxth	r6, r6
 2775              	.LVL258:
 2776              	.L121:
 699:Middlewares/lvgl/src/core/lv_obj_pos.c ****     }
 2777              		.loc 1 699 11 view .LVU791
 2778              	.LBE185:
 703:Middlewares/lvgl/src/core/lv_obj_pos.c ****     diff.x = x - obj->coords.x1;
 2779              		.loc 1 703 5 is_stmt 1 view .LVU792
 704:Middlewares/lvgl/src/core/lv_obj_pos.c ****     diff.y = y - obj->coords.y1;
 2780              		.loc 1 704 5 view .LVU793
 704:Middlewares/lvgl/src/core/lv_obj_pos.c ****     diff.y = y - obj->coords.y1;
 2781              		.loc 1 704 29 is_stmt 0 view .LVU794
 2782 006c A18A     		ldrh	r1, [r4, #20]
 704:Middlewares/lvgl/src/core/lv_obj_pos.c ****     diff.y = y - obj->coords.y1;
 2783              		.loc 1 704 16 view .LVU795
 2784 006e 6D1A     		subs	r5, r5, r1
 2785              	.LVL259:
 704:Middlewares/lvgl/src/core/lv_obj_pos.c ****     diff.y = y - obj->coords.y1;
 2786              		.loc 1 704 16 view .LVU796
ARM GAS  /tmp/ccmgRVpn.s 			page 82


 2787 0070 1FFA85F8 		uxth	r8, r5
 2788 0074 2DB2     		sxth	r5, r5
 704:Middlewares/lvgl/src/core/lv_obj_pos.c ****     diff.y = y - obj->coords.y1;
 2789              		.loc 1 704 12 view .LVU797
 2790 0076 ADF81450 		strh	r5, [sp, #20]	@ movhi
 705:Middlewares/lvgl/src/core/lv_obj_pos.c **** 
 2791              		.loc 1 705 5 is_stmt 1 view .LVU798
 705:Middlewares/lvgl/src/core/lv_obj_pos.c **** 
 2792              		.loc 1 705 29 is_stmt 0 view .LVU799
 2793 007a E28A     		ldrh	r2, [r4, #22]
 705:Middlewares/lvgl/src/core/lv_obj_pos.c **** 
 2794              		.loc 1 705 16 view .LVU800
 2795 007c B21A     		subs	r2, r6, r2
 2796 007e 1FFA82F9 		uxth	r9, r2
 2797 0082 16B2     		sxth	r6, r2
 2798              	.LVL260:
 705:Middlewares/lvgl/src/core/lv_obj_pos.c **** 
 2799              		.loc 1 705 12 view .LVU801
 2800 0084 ADF81660 		strh	r6, [sp, #22]	@ movhi
 710:Middlewares/lvgl/src/core/lv_obj_pos.c **** 
 2801              		.loc 1 710 5 is_stmt 1 view .LVU802
 710:Middlewares/lvgl/src/core/lv_obj_pos.c **** 
 2802              		.loc 1 710 7 is_stmt 0 view .LVU803
 2803 0088 0DB9     		cbnz	r5, .L124
 710:Middlewares/lvgl/src/core/lv_obj_pos.c **** 
 2804              		.loc 1 710 20 discriminator 1 view .LVU804
 2805 008a 002E     		cmp	r6, #0
 2806 008c 58D0     		beq	.L120
 2807              	.L124:
 713:Middlewares/lvgl/src/core/lv_obj_pos.c **** 
 2808              		.loc 1 713 5 is_stmt 1 view .LVU805
 2809 008e 2046     		mov	r0, r4
 2810 0090 FFF7FEFF 		bl	lv_obj_invalidate
 2811              	.LVL261:
 716:Middlewares/lvgl/src/core/lv_obj_pos.c ****     lv_obj_get_coords(obj, &ori);
 2812              		.loc 1 716 5 view .LVU806
 717:Middlewares/lvgl/src/core/lv_obj_pos.c **** 
 2813              		.loc 1 717 5 view .LVU807
 2814 0094 03A9     		add	r1, sp, #12
 2815 0096 2046     		mov	r0, r4
 2816 0098 FFF7FEFF 		bl	lv_obj_get_coords
 2817              	.LVL262:
 720:Middlewares/lvgl/src/core/lv_obj_pos.c ****     bool on1 = false;
 2818              		.loc 1 720 5 view .LVU808
 721:Middlewares/lvgl/src/core/lv_obj_pos.c ****     if(parent) {
 2819              		.loc 1 721 5 view .LVU809
 722:Middlewares/lvgl/src/core/lv_obj_pos.c ****         lv_obj_get_content_coords(parent, &parent_fit_area);
 2820              		.loc 1 722 5 view .LVU810
 722:Middlewares/lvgl/src/core/lv_obj_pos.c ****         lv_obj_get_content_coords(parent, &parent_fit_area);
 2821              		.loc 1 722 7 is_stmt 0 view .LVU811
 2822 009c 1FB3     		cbz	r7, .L130
 723:Middlewares/lvgl/src/core/lv_obj_pos.c **** 
 2823              		.loc 1 723 9 is_stmt 1 view .LVU812
 2824 009e 01A9     		add	r1, sp, #4
 2825 00a0 3846     		mov	r0, r7
 2826 00a2 FFF7FEFF 		bl	lv_obj_get_content_coords
 2827              	.LVL263:
ARM GAS  /tmp/ccmgRVpn.s 			page 83


 727:Middlewares/lvgl/src/core/lv_obj_pos.c ****         if(!on1) lv_obj_scrollbar_invalidate(parent);
 2828              		.loc 1 727 9 view .LVU813
 727:Middlewares/lvgl/src/core/lv_obj_pos.c ****         if(!on1) lv_obj_scrollbar_invalidate(parent);
 2829              		.loc 1 727 15 is_stmt 0 view .LVU814
 2830 00a6 0022     		movs	r2, #0
 2831 00a8 01A9     		add	r1, sp, #4
 2832 00aa 03A8     		add	r0, sp, #12
 2833 00ac FFF7FEFF 		bl	_lv_area_is_in
 2834              	.LVL264:
 728:Middlewares/lvgl/src/core/lv_obj_pos.c ****     }
 2835              		.loc 1 728 9 is_stmt 1 view .LVU815
 728:Middlewares/lvgl/src/core/lv_obj_pos.c ****     }
 2836              		.loc 1 728 11 is_stmt 0 view .LVU816
 2837 00b0 8246     		mov	r10, r0
 2838 00b2 D0B9     		cbnz	r0, .L126
 728:Middlewares/lvgl/src/core/lv_obj_pos.c ****     }
 2839              		.loc 1 728 18 is_stmt 1 discriminator 1 view .LVU817
 2840 00b4 3846     		mov	r0, r7
 2841              	.LVL265:
 728:Middlewares/lvgl/src/core/lv_obj_pos.c ****     }
 2842              		.loc 1 728 18 is_stmt 0 discriminator 1 view .LVU818
 2843 00b6 FFF7FEFF 		bl	lv_obj_scrollbar_invalidate
 2844              	.LVL266:
 2845 00ba 16E0     		b	.L126
 2846              	.LVL267:
 2847              	.L122:
 2848              	.LBB192:
 693:Middlewares/lvgl/src/core/lv_obj_pos.c ****             y += pad_top + parent->coords.y1 - lv_obj_get_scroll_y(parent);
 2849              		.loc 1 693 13 is_stmt 1 view .LVU819
 693:Middlewares/lvgl/src/core/lv_obj_pos.c ****             y += pad_top + parent->coords.y1 - lv_obj_get_scroll_y(parent);
 2850              		.loc 1 693 43 is_stmt 0 view .LVU820
 2851 00bc B7F91430 		ldrsh	r3, [r7, #20]
 693:Middlewares/lvgl/src/core/lv_obj_pos.c ****             y += pad_top + parent->coords.y1 - lv_obj_get_scroll_y(parent);
 2852              		.loc 1 693 27 view .LVU821
 2853 00c0 9B44     		add	fp, fp, r3
 2854              	.LVL268:
 693:Middlewares/lvgl/src/core/lv_obj_pos.c ****             y += pad_top + parent->coords.y1 - lv_obj_get_scroll_y(parent);
 2855              		.loc 1 693 49 view .LVU822
 2856 00c2 3846     		mov	r0, r7
 2857 00c4 FFF7FEFF 		bl	lv_obj_get_scroll_x
 2858              	.LVL269:
 693:Middlewares/lvgl/src/core/lv_obj_pos.c ****             y += pad_top + parent->coords.y1 - lv_obj_get_scroll_y(parent);
 2859              		.loc 1 693 47 view .LVU823
 2860 00c8 ABEB000B 		sub	fp, fp, r0
 693:Middlewares/lvgl/src/core/lv_obj_pos.c ****             y += pad_top + parent->coords.y1 - lv_obj_get_scroll_y(parent);
 2861              		.loc 1 693 15 view .LVU824
 2862 00cc 5D44     		add	r5, r5, fp
 2863 00ce 2DB2     		sxth	r5, r5
 2864              	.LVL270:
 694:Middlewares/lvgl/src/core/lv_obj_pos.c ****         }
 2865              		.loc 1 694 13 is_stmt 1 view .LVU825
 694:Middlewares/lvgl/src/core/lv_obj_pos.c ****         }
 2866              		.loc 1 694 42 is_stmt 0 view .LVU826
 2867 00d0 B7F91630 		ldrsh	r3, [r7, #22]
 694:Middlewares/lvgl/src/core/lv_obj_pos.c ****         }
 2868              		.loc 1 694 26 view .LVU827
 2869 00d4 9844     		add	r8, r8, r3
ARM GAS  /tmp/ccmgRVpn.s 			page 84


 2870              	.LVL271:
 694:Middlewares/lvgl/src/core/lv_obj_pos.c ****         }
 2871              		.loc 1 694 48 view .LVU828
 2872 00d6 3846     		mov	r0, r7
 2873 00d8 FFF7FEFF 		bl	lv_obj_get_scroll_y
 2874              	.LVL272:
 694:Middlewares/lvgl/src/core/lv_obj_pos.c ****         }
 2875              		.loc 1 694 46 view .LVU829
 2876 00dc A8EB0008 		sub	r8, r8, r0
 694:Middlewares/lvgl/src/core/lv_obj_pos.c ****         }
 2877              		.loc 1 694 15 view .LVU830
 2878 00e0 4644     		add	r6, r6, r8
 2879 00e2 36B2     		sxth	r6, r6
 2880              	.LVL273:
 694:Middlewares/lvgl/src/core/lv_obj_pos.c ****         }
 2881              		.loc 1 694 15 view .LVU831
 2882 00e4 B7E7     		b	.L123
 2883              	.LVL274:
 2884              	.L130:
 694:Middlewares/lvgl/src/core/lv_obj_pos.c ****         }
 2885              		.loc 1 694 15 view .LVU832
 2886              	.LBE192:
 721:Middlewares/lvgl/src/core/lv_obj_pos.c ****     if(parent) {
 2887              		.loc 1 721 10 view .LVU833
 2888 00e6 4FF0000A 		mov	r10, #0
 2889              	.LVL275:
 2890              	.L126:
 731:Middlewares/lvgl/src/core/lv_obj_pos.c ****     obj->coords.y1 += diff.y;
 2891              		.loc 1 731 5 is_stmt 1 view .LVU834
 731:Middlewares/lvgl/src/core/lv_obj_pos.c ****     obj->coords.y1 += diff.y;
 2892              		.loc 1 731 20 is_stmt 0 view .LVU835
 2893 00ea A38A     		ldrh	r3, [r4, #20]
 2894 00ec 4344     		add	r3, r3, r8
 2895 00ee A382     		strh	r3, [r4, #20]	@ movhi
 732:Middlewares/lvgl/src/core/lv_obj_pos.c ****     obj->coords.x2 += diff.x;
 2896              		.loc 1 732 5 is_stmt 1 view .LVU836
 732:Middlewares/lvgl/src/core/lv_obj_pos.c ****     obj->coords.x2 += diff.x;
 2897              		.loc 1 732 20 is_stmt 0 view .LVU837
 2898 00f0 E38A     		ldrh	r3, [r4, #22]
 2899 00f2 4B44     		add	r3, r3, r9
 2900 00f4 E382     		strh	r3, [r4, #22]	@ movhi
 733:Middlewares/lvgl/src/core/lv_obj_pos.c ****     obj->coords.y2 += diff.y;
 2901              		.loc 1 733 5 is_stmt 1 view .LVU838
 733:Middlewares/lvgl/src/core/lv_obj_pos.c ****     obj->coords.y2 += diff.y;
 2902              		.loc 1 733 20 is_stmt 0 view .LVU839
 2903 00f6 238B     		ldrh	r3, [r4, #24]
 2904 00f8 9844     		add	r8, r8, r3
 2905 00fa A4F81880 		strh	r8, [r4, #24]	@ movhi
 734:Middlewares/lvgl/src/core/lv_obj_pos.c **** 
 2906              		.loc 1 734 5 is_stmt 1 view .LVU840
 734:Middlewares/lvgl/src/core/lv_obj_pos.c **** 
 2907              		.loc 1 734 20 is_stmt 0 view .LVU841
 2908 00fe 638B     		ldrh	r3, [r4, #26]
 2909 0100 9944     		add	r9, r9, r3
 2910 0102 A4F81A90 		strh	r9, [r4, #26]	@ movhi
 736:Middlewares/lvgl/src/core/lv_obj_pos.c **** 
 2911              		.loc 1 736 5 is_stmt 1 view .LVU842
ARM GAS  /tmp/ccmgRVpn.s 			page 85


 2912 0106 0023     		movs	r3, #0
 2913 0108 3246     		mov	r2, r6
 2914 010a 2946     		mov	r1, r5
 2915 010c 2046     		mov	r0, r4
 2916 010e FFF7FEFF 		bl	lv_obj_move_children_by
 2917              	.LVL276:
 739:Middlewares/lvgl/src/core/lv_obj_pos.c **** 
 2918              		.loc 1 739 5 view .LVU843
 739:Middlewares/lvgl/src/core/lv_obj_pos.c **** 
 2919              		.loc 1 739 7 is_stmt 0 view .LVU844
 2920 0112 27B1     		cbz	r7, .L127
 739:Middlewares/lvgl/src/core/lv_obj_pos.c **** 
 2921              		.loc 1 739 16 is_stmt 1 discriminator 1 view .LVU845
 2922 0114 2246     		mov	r2, r4
 2923 0116 2221     		movs	r1, #34
 2924 0118 3846     		mov	r0, r7
 2925 011a FFF7FEFF 		bl	lv_event_send
 2926              	.LVL277:
 2927              	.L127:
 742:Middlewares/lvgl/src/core/lv_obj_pos.c **** 
 2928              		.loc 1 742 5 view .LVU846
 2929 011e 2046     		mov	r0, r4
 2930 0120 FFF7FEFF 		bl	lv_obj_invalidate
 2931              	.LVL278:
 746:Middlewares/lvgl/src/core/lv_obj_pos.c ****         bool on2 = _lv_area_is_in(&obj->coords, &parent_fit_area, 0);
 2932              		.loc 1 746 5 view .LVU847
 746:Middlewares/lvgl/src/core/lv_obj_pos.c ****         bool on2 = _lv_area_is_in(&obj->coords, &parent_fit_area, 0);
 2933              		.loc 1 746 7 is_stmt 0 view .LVU848
 2934 0124 67B1     		cbz	r7, .L120
 2935              	.LBB193:
 747:Middlewares/lvgl/src/core/lv_obj_pos.c ****         if(on1 || (!on1 && on2)) lv_obj_scrollbar_invalidate(parent);
 2936              		.loc 1 747 9 is_stmt 1 view .LVU849
 747:Middlewares/lvgl/src/core/lv_obj_pos.c ****         if(on1 || (!on1 && on2)) lv_obj_scrollbar_invalidate(parent);
 2937              		.loc 1 747 20 is_stmt 0 view .LVU850
 2938 0126 0022     		movs	r2, #0
 2939 0128 01A9     		add	r1, sp, #4
 2940 012a 04F11400 		add	r0, r4, #20
 2941 012e FFF7FEFF 		bl	_lv_area_is_in
 2942              	.LVL279:
 748:Middlewares/lvgl/src/core/lv_obj_pos.c ****     }
 2943              		.loc 1 748 9 is_stmt 1 view .LVU851
 748:Middlewares/lvgl/src/core/lv_obj_pos.c ****     }
 2944              		.loc 1 748 11 is_stmt 0 view .LVU852
 2945 0132 BAF1000F 		cmp	r10, #0
 2946 0136 00D1     		bne	.L129
 748:Middlewares/lvgl/src/core/lv_obj_pos.c ****     }
 2947              		.loc 1 748 25 discriminator 2 view .LVU853
 2948 0138 10B1     		cbz	r0, .L120
 2949              	.L129:
 748:Middlewares/lvgl/src/core/lv_obj_pos.c ****     }
 2950              		.loc 1 748 34 is_stmt 1 discriminator 4 view .LVU854
 2951 013a 3846     		mov	r0, r7
 2952              	.LVL280:
 748:Middlewares/lvgl/src/core/lv_obj_pos.c ****     }
 2953              		.loc 1 748 34 is_stmt 0 discriminator 4 view .LVU855
 2954 013c FFF7FEFF 		bl	lv_obj_scrollbar_invalidate
 2955              	.LVL281:
ARM GAS  /tmp/ccmgRVpn.s 			page 86


 2956              	.L120:
 748:Middlewares/lvgl/src/core/lv_obj_pos.c ****     }
 2957              		.loc 1 748 34 discriminator 4 view .LVU856
 2958              	.LBE193:
 750:Middlewares/lvgl/src/core/lv_obj_pos.c **** 
 2959              		.loc 1 750 1 view .LVU857
 2960 0140 07B0     		add	sp, sp, #28
 2961              	.LCFI55:
 2962              		.cfi_def_cfa_offset 36
 2963              		@ sp needed
 2964 0142 BDE8F08F 		pop	{r4, r5, r6, r7, r8, r9, r10, fp, pc}
 750:Middlewares/lvgl/src/core/lv_obj_pos.c **** 
 2965              		.loc 1 750 1 view .LVU858
 2966              		.cfi_endproc
 2967              	.LFE184:
 2969              		.section	.text.lv_obj_refr_pos,"ax",%progbits
 2970              		.align	1
 2971              		.global	lv_obj_refr_pos
 2972              		.syntax unified
 2973              		.thumb
 2974              		.thumb_func
 2976              	lv_obj_refr_pos:
 2977              	.LVL282:
 2978              	.LFB183:
 602:Middlewares/lvgl/src/core/lv_obj_pos.c ****     if(lv_obj_is_layout_positioned(obj)) return;
 2979              		.loc 1 602 1 is_stmt 1 view -0
 2980              		.cfi_startproc
 2981              		@ args = 0, pretend = 0, frame = 16
 2982              		@ frame_needed = 0, uses_anonymous_args = 0
 602:Middlewares/lvgl/src/core/lv_obj_pos.c ****     if(lv_obj_is_layout_positioned(obj)) return;
 2983              		.loc 1 602 1 is_stmt 0 view .LVU860
 2984 0000 2DE9F04F 		push	{r4, r5, r6, r7, r8, r9, r10, fp, lr}
 2985              	.LCFI56:
 2986              		.cfi_def_cfa_offset 36
 2987              		.cfi_offset 4, -36
 2988              		.cfi_offset 5, -32
 2989              		.cfi_offset 6, -28
 2990              		.cfi_offset 7, -24
 2991              		.cfi_offset 8, -20
 2992              		.cfi_offset 9, -16
 2993              		.cfi_offset 10, -12
 2994              		.cfi_offset 11, -8
 2995              		.cfi_offset 14, -4
 2996 0004 85B0     		sub	sp, sp, #20
 2997              	.LCFI57:
 2998              		.cfi_def_cfa_offset 56
 2999 0006 0446     		mov	r4, r0
 603:Middlewares/lvgl/src/core/lv_obj_pos.c **** 
 3000              		.loc 1 603 5 is_stmt 1 view .LVU861
 603:Middlewares/lvgl/src/core/lv_obj_pos.c **** 
 3001              		.loc 1 603 8 is_stmt 0 view .LVU862
 3002 0008 FFF7FEFF 		bl	lv_obj_is_layout_positioned
 3003              	.LVL283:
 603:Middlewares/lvgl/src/core/lv_obj_pos.c **** 
 3004              		.loc 1 603 7 view .LVU863
 3005 000c 10B1     		cbz	r0, .L162
 3006              	.L132:
ARM GAS  /tmp/ccmgRVpn.s 			page 87


 678:Middlewares/lvgl/src/core/lv_obj_pos.c **** 
 3007              		.loc 1 678 1 view .LVU864
 3008 000e 05B0     		add	sp, sp, #20
 3009              	.LCFI58:
 3010              		.cfi_remember_state
 3011              		.cfi_def_cfa_offset 36
 3012              		@ sp needed
 3013 0010 BDE8F08F 		pop	{r4, r5, r6, r7, r8, r9, r10, fp, pc}
 3014              	.LVL284:
 3015              	.L162:
 3016              	.LCFI59:
 3017              		.cfi_restore_state
 605:Middlewares/lvgl/src/core/lv_obj_pos.c ****     lv_coord_t x = lv_obj_get_style_x(obj, LV_PART_MAIN);
 3018              		.loc 1 605 5 is_stmt 1 view .LVU865
 605:Middlewares/lvgl/src/core/lv_obj_pos.c ****     lv_coord_t x = lv_obj_get_style_x(obj, LV_PART_MAIN);
 3019              		.loc 1 605 25 is_stmt 0 view .LVU866
 3020 0014 2046     		mov	r0, r4
 3021 0016 FFF7FEFF 		bl	lv_obj_get_parent
 3022              	.LVL285:
 3023 001a 0746     		mov	r7, r0
 3024              	.LVL286:
 606:Middlewares/lvgl/src/core/lv_obj_pos.c ****     lv_coord_t y = lv_obj_get_style_y(obj, LV_PART_MAIN);
 3025              		.loc 1 606 5 is_stmt 1 view .LVU867
 3026              	.LBB194:
 3027              	.LBI194:
  37:Middlewares/lvgl/src/core/lv_obj_style_gen.h **** {
 3028              		.loc 2 37 26 view .LVU868
 3029              	.LBB195:
  39:Middlewares/lvgl/src/core/lv_obj_style_gen.h ****     return (lv_coord_t)v.num;
 3030              		.loc 2 39 5 view .LVU869
  39:Middlewares/lvgl/src/core/lv_obj_style_gen.h ****     return (lv_coord_t)v.num;
 3031              		.loc 2 39 26 is_stmt 0 view .LVU870
 3032 001c 41F20702 		movw	r2, #4103
 3033 0020 0021     		movs	r1, #0
 3034 0022 2046     		mov	r0, r4
 3035              	.LVL287:
  39:Middlewares/lvgl/src/core/lv_obj_style_gen.h ****     return (lv_coord_t)v.num;
 3036              		.loc 2 39 26 view .LVU871
 3037 0024 FFF7FEFF 		bl	lv_obj_get_style_prop
 3038              	.LVL288:
 3039 0028 8146     		mov	r9, r0
  40:Middlewares/lvgl/src/core/lv_obj_style_gen.h **** }
 3040              		.loc 2 40 5 is_stmt 1 view .LVU872
  40:Middlewares/lvgl/src/core/lv_obj_style_gen.h **** }
 3041              		.loc 2 40 12 is_stmt 0 view .LVU873
 3042 002a 05B2     		sxth	r5, r0
 3043              	.LVL289:
  40:Middlewares/lvgl/src/core/lv_obj_style_gen.h **** }
 3044              		.loc 2 40 12 view .LVU874
 3045              	.LBE195:
 3046              	.LBE194:
 607:Middlewares/lvgl/src/core/lv_obj_pos.c **** 
 3047              		.loc 1 607 5 is_stmt 1 view .LVU875
 3048              	.LBB196:
 3049              	.LBI196:
  43:Middlewares/lvgl/src/core/lv_obj_style_gen.h **** {
 3050              		.loc 2 43 26 view .LVU876
ARM GAS  /tmp/ccmgRVpn.s 			page 88


 3051              	.LBB197:
  45:Middlewares/lvgl/src/core/lv_obj_style_gen.h ****     return (lv_coord_t)v.num;
 3052              		.loc 2 45 5 view .LVU877
  45:Middlewares/lvgl/src/core/lv_obj_style_gen.h ****     return (lv_coord_t)v.num;
 3053              		.loc 2 45 26 is_stmt 0 view .LVU878
 3054 002c 41F20802 		movw	r2, #4104
 3055 0030 0021     		movs	r1, #0
 3056 0032 2046     		mov	r0, r4
 3057 0034 FFF7FEFF 		bl	lv_obj_get_style_prop
 3058              	.LVL290:
 3059 0038 8046     		mov	r8, r0
  46:Middlewares/lvgl/src/core/lv_obj_style_gen.h **** }
 3060              		.loc 2 46 5 is_stmt 1 view .LVU879
  46:Middlewares/lvgl/src/core/lv_obj_style_gen.h **** }
 3061              		.loc 2 46 12 is_stmt 0 view .LVU880
 3062 003a 06B2     		sxth	r6, r0
 3063              	.LVL291:
  46:Middlewares/lvgl/src/core/lv_obj_style_gen.h **** }
 3064              		.loc 2 46 12 view .LVU881
 3065              	.LBE197:
 3066              	.LBE196:
 609:Middlewares/lvgl/src/core/lv_obj_pos.c ****         lv_obj_move_to(obj, x, y);
 3067              		.loc 1 609 5 is_stmt 1 view .LVU882
 609:Middlewares/lvgl/src/core/lv_obj_pos.c ****         lv_obj_move_to(obj, x, y);
 3068              		.loc 1 609 7 is_stmt 0 view .LVU883
 3069 003c 002F     		cmp	r7, #0
 3070 003e 52D0     		beq	.L163
 615:Middlewares/lvgl/src/core/lv_obj_pos.c ****     lv_coord_t ph = lv_obj_get_content_height(parent);
 3071              		.loc 1 615 5 is_stmt 1 view .LVU884
 615:Middlewares/lvgl/src/core/lv_obj_pos.c ****     lv_coord_t ph = lv_obj_get_content_height(parent);
 3072              		.loc 1 615 21 is_stmt 0 view .LVU885
 3073 0040 3846     		mov	r0, r7
 3074 0042 FFF7FEFF 		bl	lv_obj_get_content_width
 3075              	.LVL292:
 3076 0046 0090     		str	r0, [sp]
 3077              	.LVL293:
 616:Middlewares/lvgl/src/core/lv_obj_pos.c ****     if(LV_COORD_IS_PCT(x)) x = (pw * LV_COORD_GET_PCT(x)) / 100;
 3078              		.loc 1 616 5 is_stmt 1 view .LVU886
 616:Middlewares/lvgl/src/core/lv_obj_pos.c ****     if(LV_COORD_IS_PCT(x)) x = (pw * LV_COORD_GET_PCT(x)) / 100;
 3079              		.loc 1 616 21 is_stmt 0 view .LVU887
 3080 0048 3846     		mov	r0, r7
 3081 004a FFF7FEFF 		bl	lv_obj_get_content_height
 3082              	.LVL294:
 3083 004e 0190     		str	r0, [sp, #4]
 3084              	.LVL295:
 617:Middlewares/lvgl/src/core/lv_obj_pos.c ****     if(LV_COORD_IS_PCT(y)) y = (ph * LV_COORD_GET_PCT(y)) / 100;
 3085              		.loc 1 617 5 is_stmt 1 view .LVU888
 617:Middlewares/lvgl/src/core/lv_obj_pos.c ****     if(LV_COORD_IS_PCT(y)) y = (ph * LV_COORD_GET_PCT(y)) / 100;
 3086              		.loc 1 617 8 is_stmt 0 view .LVU889
 3087 0050 09F4C049 		and	r9, r9, #24576
 617:Middlewares/lvgl/src/core/lv_obj_pos.c ****     if(LV_COORD_IS_PCT(y)) y = (ph * LV_COORD_GET_PCT(y)) / 100;
 3088              		.loc 1 617 7 view .LVU890
 3089 0054 B9F5005F 		cmp	r9, #8192
 3090 0058 4BD0     		beq	.L164
 3091              	.L135:
 618:Middlewares/lvgl/src/core/lv_obj_pos.c **** 
 3092              		.loc 1 618 5 is_stmt 1 view .LVU891
ARM GAS  /tmp/ccmgRVpn.s 			page 89


 618:Middlewares/lvgl/src/core/lv_obj_pos.c **** 
 3093              		.loc 1 618 8 is_stmt 0 view .LVU892
 3094 005a 08F4C048 		and	r8, r8, #24576
 618:Middlewares/lvgl/src/core/lv_obj_pos.c **** 
 3095              		.loc 1 618 7 view .LVU893
 3096 005e B8F5005F 		cmp	r8, #8192
 3097 0062 5BD0     		beq	.L165
 3098              	.L138:
 621:Middlewares/lvgl/src/core/lv_obj_pos.c ****     lv_coord_t tr_y = lv_obj_get_style_translate_y(obj, LV_PART_MAIN);
 3099              		.loc 1 621 5 is_stmt 1 view .LVU894
 3100              	.LVL296:
 3101              	.LBB198:
 3102              	.LBI198:
  67:Middlewares/lvgl/src/core/lv_obj_style_gen.h **** {
 3103              		.loc 2 67 26 view .LVU895
 3104              	.LBB199:
  69:Middlewares/lvgl/src/core/lv_obj_style_gen.h ****     return (lv_coord_t)v.num;
 3105              		.loc 2 69 5 view .LVU896
  69:Middlewares/lvgl/src/core/lv_obj_style_gen.h ****     return (lv_coord_t)v.num;
 3106              		.loc 2 69 26 is_stmt 0 view .LVU897
 3107 0064 43F20C02 		movw	r2, #12300
 3108 0068 0021     		movs	r1, #0
 3109 006a 2046     		mov	r0, r4
 3110 006c FFF7FEFF 		bl	lv_obj_get_style_prop
 3111              	.LVL297:
 3112 0070 8146     		mov	r9, r0
 3113              	.LVL298:
  70:Middlewares/lvgl/src/core/lv_obj_style_gen.h **** }
 3114              		.loc 2 70 5 is_stmt 1 view .LVU898
  70:Middlewares/lvgl/src/core/lv_obj_style_gen.h **** }
 3115              		.loc 2 70 12 is_stmt 0 view .LVU899
 3116 0072 0FFA80FB 		sxth	fp, r0
 3117              	.LVL299:
  70:Middlewares/lvgl/src/core/lv_obj_style_gen.h **** }
 3118              		.loc 2 70 12 view .LVU900
 3119              	.LBE199:
 3120              	.LBE198:
 622:Middlewares/lvgl/src/core/lv_obj_pos.c ****     lv_coord_t w = lv_obj_get_width(obj);
 3121              		.loc 1 622 5 is_stmt 1 view .LVU901
 3122              	.LBB200:
 3123              	.LBI200:
  73:Middlewares/lvgl/src/core/lv_obj_style_gen.h **** {
 3124              		.loc 2 73 26 view .LVU902
 3125              	.LBB201:
  75:Middlewares/lvgl/src/core/lv_obj_style_gen.h ****     return (lv_coord_t)v.num;
 3126              		.loc 2 75 5 view .LVU903
  75:Middlewares/lvgl/src/core/lv_obj_style_gen.h ****     return (lv_coord_t)v.num;
 3127              		.loc 2 75 26 is_stmt 0 view .LVU904
 3128 0076 43F20D02 		movw	r2, #12301
 3129 007a 0021     		movs	r1, #0
 3130 007c 2046     		mov	r0, r4
  75:Middlewares/lvgl/src/core/lv_obj_style_gen.h ****     return (lv_coord_t)v.num;
 3131              		.loc 2 75 26 view .LVU905
 3132 007e FFF7FEFF 		bl	lv_obj_get_style_prop
 3133              	.LVL300:
 3134 0082 8046     		mov	r8, r0
  76:Middlewares/lvgl/src/core/lv_obj_style_gen.h **** }
ARM GAS  /tmp/ccmgRVpn.s 			page 90


 3135              		.loc 2 76 5 is_stmt 1 view .LVU906
  76:Middlewares/lvgl/src/core/lv_obj_style_gen.h **** }
 3136              		.loc 2 76 12 is_stmt 0 view .LVU907
 3137 0084 0FFA80FA 		sxth	r10, r0
 3138              	.LVL301:
  76:Middlewares/lvgl/src/core/lv_obj_style_gen.h **** }
 3139              		.loc 2 76 12 view .LVU908
 3140              	.LBE201:
 3141              	.LBE200:
 623:Middlewares/lvgl/src/core/lv_obj_pos.c ****     lv_coord_t h = lv_obj_get_height(obj);
 3142              		.loc 1 623 5 is_stmt 1 view .LVU909
 623:Middlewares/lvgl/src/core/lv_obj_pos.c ****     lv_coord_t h = lv_obj_get_height(obj);
 3143              		.loc 1 623 20 is_stmt 0 view .LVU910
 3144 0088 2046     		mov	r0, r4
 3145 008a FFF7FEFF 		bl	lv_obj_get_width
 3146              	.LVL302:
 3147 008e 0290     		str	r0, [sp, #8]
 3148              	.LVL303:
 624:Middlewares/lvgl/src/core/lv_obj_pos.c ****     if(LV_COORD_IS_PCT(tr_x)) tr_x = (w * LV_COORD_GET_PCT(tr_x)) / 100;
 3149              		.loc 1 624 5 is_stmt 1 view .LVU911
 624:Middlewares/lvgl/src/core/lv_obj_pos.c ****     if(LV_COORD_IS_PCT(tr_x)) tr_x = (w * LV_COORD_GET_PCT(tr_x)) / 100;
 3150              		.loc 1 624 20 is_stmt 0 view .LVU912
 3151 0090 2046     		mov	r0, r4
 3152 0092 FFF7FEFF 		bl	lv_obj_get_height
 3153              	.LVL304:
 3154 0096 0390     		str	r0, [sp, #12]
 3155              	.LVL305:
 625:Middlewares/lvgl/src/core/lv_obj_pos.c ****     if(LV_COORD_IS_PCT(tr_y)) tr_y = (h * LV_COORD_GET_PCT(tr_y)) / 100;
 3156              		.loc 1 625 5 is_stmt 1 view .LVU913
 625:Middlewares/lvgl/src/core/lv_obj_pos.c ****     if(LV_COORD_IS_PCT(tr_y)) tr_y = (h * LV_COORD_GET_PCT(tr_y)) / 100;
 3157              		.loc 1 625 8 is_stmt 0 view .LVU914
 3158 0098 09F4C049 		and	r9, r9, #24576
 3159              	.LVL306:
 625:Middlewares/lvgl/src/core/lv_obj_pos.c ****     if(LV_COORD_IS_PCT(tr_y)) tr_y = (h * LV_COORD_GET_PCT(tr_y)) / 100;
 3160              		.loc 1 625 7 view .LVU915
 3161 009c B9F5005F 		cmp	r9, #8192
 3162 00a0 51D0     		beq	.L166
 3163              	.L141:
 626:Middlewares/lvgl/src/core/lv_obj_pos.c **** 
 3164              		.loc 1 626 5 is_stmt 1 view .LVU916
 626:Middlewares/lvgl/src/core/lv_obj_pos.c **** 
 3165              		.loc 1 626 8 is_stmt 0 view .LVU917
 3166 00a2 08F4C048 		and	r8, r8, #24576
 626:Middlewares/lvgl/src/core/lv_obj_pos.c **** 
 3167              		.loc 1 626 7 view .LVU918
 3168 00a6 B8F5005F 		cmp	r8, #8192
 3169 00aa 63D0     		beq	.L167
 3170              	.L144:
 629:Middlewares/lvgl/src/core/lv_obj_pos.c ****     y += tr_y;
 3171              		.loc 1 629 5 is_stmt 1 view .LVU919
 629:Middlewares/lvgl/src/core/lv_obj_pos.c ****     y += tr_y;
 3172              		.loc 1 629 7 is_stmt 0 view .LVU920
 3173 00ac 5D44     		add	r5, r5, fp
 3174              	.LVL307:
 629:Middlewares/lvgl/src/core/lv_obj_pos.c ****     y += tr_y;
 3175              		.loc 1 629 7 view .LVU921
 3176 00ae 1FFA85F8 		uxth	r8, r5
ARM GAS  /tmp/ccmgRVpn.s 			page 91


 3177 00b2 2DB2     		sxth	r5, r5
 3178              	.LVL308:
 630:Middlewares/lvgl/src/core/lv_obj_pos.c **** 
 3179              		.loc 1 630 5 is_stmt 1 view .LVU922
 630:Middlewares/lvgl/src/core/lv_obj_pos.c **** 
 3180              		.loc 1 630 7 is_stmt 0 view .LVU923
 3181 00b4 5644     		add	r6, r6, r10
 3182              	.LVL309:
 630:Middlewares/lvgl/src/core/lv_obj_pos.c **** 
 3183              		.loc 1 630 7 view .LVU924
 3184 00b6 1FFA86F9 		uxth	r9, r6
 3185 00ba 36B2     		sxth	r6, r6
 3186              	.LVL310:
 632:Middlewares/lvgl/src/core/lv_obj_pos.c **** 
 3187              		.loc 1 632 5 is_stmt 1 view .LVU925
 3188              	.LBB202:
 3189              	.LBI202:
  49:Middlewares/lvgl/src/core/lv_obj_style_gen.h **** {
 3190              		.loc 2 49 26 view .LVU926
 3191              	.LBB203:
  51:Middlewares/lvgl/src/core/lv_obj_style_gen.h ****     return (lv_align_t)v.num;
 3192              		.loc 2 51 5 view .LVU927
  51:Middlewares/lvgl/src/core/lv_obj_style_gen.h ****     return (lv_align_t)v.num;
 3193              		.loc 2 51 26 is_stmt 0 view .LVU928
 3194 00bc 41F20902 		movw	r2, #4105
 3195 00c0 0021     		movs	r1, #0
 3196 00c2 2046     		mov	r0, r4
 3197 00c4 FFF7FEFF 		bl	lv_obj_get_style_prop
 3198              	.LVL311:
  52:Middlewares/lvgl/src/core/lv_obj_style_gen.h **** }
 3199              		.loc 2 52 5 is_stmt 1 view .LVU929
  52:Middlewares/lvgl/src/core/lv_obj_style_gen.h **** }
 3200              		.loc 2 52 5 is_stmt 0 view .LVU930
 3201              	.LBE203:
 3202              	.LBE202:
 634:Middlewares/lvgl/src/core/lv_obj_pos.c ****         if(lv_obj_get_style_base_dir(parent, LV_PART_MAIN) == LV_BASE_DIR_RTL) align = LV_ALIGN_TOP
 3203              		.loc 1 634 5 is_stmt 1 view .LVU931
 634:Middlewares/lvgl/src/core/lv_obj_pos.c ****         if(lv_obj_get_style_base_dir(parent, LV_PART_MAIN) == LV_BASE_DIR_RTL) align = LV_ALIGN_TOP
 3204              		.loc 1 634 7 is_stmt 0 view .LVU932
 3205 00c8 10F0FF00 		ands	r0, r0, #255
 3206              	.LVL312:
 634:Middlewares/lvgl/src/core/lv_obj_pos.c ****         if(lv_obj_get_style_base_dir(parent, LV_PART_MAIN) == LV_BASE_DIR_RTL) align = LV_ALIGN_TOP
 3207              		.loc 1 634 7 view .LVU933
 3208 00cc 69D0     		beq	.L168
 3209              	.LVL313:
 639:Middlewares/lvgl/src/core/lv_obj_pos.c ****         lv_obj_move_to(obj, x, y);
 3210              		.loc 1 639 5 is_stmt 1 view .LVU934
 639:Middlewares/lvgl/src/core/lv_obj_pos.c ****         lv_obj_move_to(obj, x, y);
 3211              		.loc 1 639 7 is_stmt 0 view .LVU935
 3212 00ce 0128     		cmp	r0, #1
 3213 00d0 70D0     		beq	.L149
 3214              	.LVL314:
 3215              	.L148:
 644:Middlewares/lvgl/src/core/lv_obj_pos.c ****         case LV_ALIGN_TOP_MID:
 3216              		.loc 1 644 9 is_stmt 1 view .LVU936
 3217 00d2 0238     		subs	r0, r0, #2
 3218 00d4 0728     		cmp	r0, #7
ARM GAS  /tmp/ccmgRVpn.s 			page 92


 3219 00d6 00F28180 		bhi	.L150
 3220 00da DFE800F0 		tbb	[pc, r0]
 3221              	.L152:
 3222 00de 73       		.byte	(.L159-.L152)/2
 3223 00df 85       		.byte	(.L158-.L152)/2
 3224 00e0 99       		.byte	(.L157-.L152)/2
 3225 00e1 A0       		.byte	(.L156-.L152)/2
 3226 00e2 B3       		.byte	(.L155-.L152)/2
 3227 00e3 8C       		.byte	(.L154-.L152)/2
 3228 00e4 C0       		.byte	(.L153-.L152)/2
 3229 00e5 D3       		.byte	(.L151-.L152)/2
 3230              	.LVL315:
 3231              		.p2align 1
 3232              	.L163:
 610:Middlewares/lvgl/src/core/lv_obj_pos.c ****         return;
 3233              		.loc 1 610 9 view .LVU937
 3234 00e6 3246     		mov	r2, r6
 3235 00e8 2946     		mov	r1, r5
 3236 00ea 2046     		mov	r0, r4
 3237 00ec FFF7FEFF 		bl	lv_obj_move_to
 3238              	.LVL316:
 611:Middlewares/lvgl/src/core/lv_obj_pos.c ****     }
 3239              		.loc 1 611 9 view .LVU938
 3240 00f0 8DE7     		b	.L132
 3241              	.LVL317:
 3242              	.L164:
 617:Middlewares/lvgl/src/core/lv_obj_pos.c ****     if(LV_COORD_IS_PCT(y)) y = (ph * LV_COORD_GET_PCT(y)) / 100;
 3243              		.loc 1 617 8 is_stmt 0 discriminator 1 view .LVU939
 3244 00f2 25F4C043 		bic	r3, r5, #24576
 3245 00f6 B3F5FA6F 		cmp	r3, #2000
 3246 00fa AEDC     		bgt	.L135
 617:Middlewares/lvgl/src/core/lv_obj_pos.c ****     if(LV_COORD_IS_PCT(y)) y = (ph * LV_COORD_GET_PCT(y)) / 100;
 3247              		.loc 1 617 28 is_stmt 1 discriminator 2 view .LVU940
 617:Middlewares/lvgl/src/core/lv_obj_pos.c ****     if(LV_COORD_IS_PCT(y)) y = (ph * LV_COORD_GET_PCT(y)) / 100;
 3248              		.loc 1 617 38 is_stmt 0 discriminator 2 view .LVU941
 3249 00fc B3F57A7F 		cmp	r3, #1000
 3250 0100 01DD     		ble	.L137
 617:Middlewares/lvgl/src/core/lv_obj_pos.c ****     if(LV_COORD_IS_PCT(y)) y = (ph * LV_COORD_GET_PCT(y)) / 100;
 3251              		.loc 1 617 38 discriminator 3 view .LVU942
 3252 0102 C3F57A73 		rsb	r3, r3, #1000
 3253              	.L137:
 617:Middlewares/lvgl/src/core/lv_obj_pos.c ****     if(LV_COORD_IS_PCT(y)) y = (ph * LV_COORD_GET_PCT(y)) / 100;
 3254              		.loc 1 617 36 discriminator 6 view .LVU943
 3255 0106 009A     		ldr	r2, [sp]
 3256 0108 02FB03F3 		mul	r3, r2, r3
 617:Middlewares/lvgl/src/core/lv_obj_pos.c ****     if(LV_COORD_IS_PCT(y)) y = (ph * LV_COORD_GET_PCT(y)) / 100;
 3257              		.loc 1 617 59 discriminator 6 view .LVU944
 3258 010c 6A4A     		ldr	r2, .L170
 3259 010e 82FB0312 		smull	r1, r2, r2, r3
 3260 0112 DD17     		asrs	r5, r3, #31
 3261              	.LVL318:
 617:Middlewares/lvgl/src/core/lv_obj_pos.c ****     if(LV_COORD_IS_PCT(y)) y = (ph * LV_COORD_GET_PCT(y)) / 100;
 3262              		.loc 1 617 59 discriminator 6 view .LVU945
 3263 0114 C5EB6215 		rsb	r5, r5, r2, asr #5
 617:Middlewares/lvgl/src/core/lv_obj_pos.c ****     if(LV_COORD_IS_PCT(y)) y = (ph * LV_COORD_GET_PCT(y)) / 100;
 3264              		.loc 1 617 30 discriminator 6 view .LVU946
 3265 0118 2DB2     		sxth	r5, r5
ARM GAS  /tmp/ccmgRVpn.s 			page 93


 3266              	.LVL319:
 617:Middlewares/lvgl/src/core/lv_obj_pos.c ****     if(LV_COORD_IS_PCT(y)) y = (ph * LV_COORD_GET_PCT(y)) / 100;
 3267              		.loc 1 617 30 discriminator 6 view .LVU947
 3268 011a 9EE7     		b	.L135
 3269              	.L165:
 618:Middlewares/lvgl/src/core/lv_obj_pos.c **** 
 3270              		.loc 1 618 8 discriminator 1 view .LVU948
 3271 011c 26F4C043 		bic	r3, r6, #24576
 3272 0120 B3F5FA6F 		cmp	r3, #2000
 3273 0124 9EDC     		bgt	.L138
 618:Middlewares/lvgl/src/core/lv_obj_pos.c **** 
 3274              		.loc 1 618 28 is_stmt 1 discriminator 2 view .LVU949
 618:Middlewares/lvgl/src/core/lv_obj_pos.c **** 
 3275              		.loc 1 618 38 is_stmt 0 discriminator 2 view .LVU950
 3276 0126 B3F57A7F 		cmp	r3, #1000
 3277 012a 01DD     		ble	.L140
 618:Middlewares/lvgl/src/core/lv_obj_pos.c **** 
 3278              		.loc 1 618 38 discriminator 3 view .LVU951
 3279 012c C3F57A73 		rsb	r3, r3, #1000
 3280              	.L140:
 618:Middlewares/lvgl/src/core/lv_obj_pos.c **** 
 3281              		.loc 1 618 36 discriminator 6 view .LVU952
 3282 0130 019A     		ldr	r2, [sp, #4]
 3283 0132 02FB03F3 		mul	r3, r2, r3
 618:Middlewares/lvgl/src/core/lv_obj_pos.c **** 
 3284              		.loc 1 618 59 discriminator 6 view .LVU953
 3285 0136 604A     		ldr	r2, .L170
 3286 0138 82FB0312 		smull	r1, r2, r2, r3
 3287 013c DE17     		asrs	r6, r3, #31
 3288              	.LVL320:
 618:Middlewares/lvgl/src/core/lv_obj_pos.c **** 
 3289              		.loc 1 618 59 discriminator 6 view .LVU954
 3290 013e C6EB6216 		rsb	r6, r6, r2, asr #5
 618:Middlewares/lvgl/src/core/lv_obj_pos.c **** 
 3291              		.loc 1 618 30 discriminator 6 view .LVU955
 3292 0142 36B2     		sxth	r6, r6
 3293              	.LVL321:
 618:Middlewares/lvgl/src/core/lv_obj_pos.c **** 
 3294              		.loc 1 618 30 discriminator 6 view .LVU956
 3295 0144 8EE7     		b	.L138
 3296              	.LVL322:
 3297              	.L166:
 625:Middlewares/lvgl/src/core/lv_obj_pos.c ****     if(LV_COORD_IS_PCT(tr_y)) tr_y = (h * LV_COORD_GET_PCT(tr_y)) / 100;
 3298              		.loc 1 625 8 discriminator 1 view .LVU957
 3299 0146 2BF4C043 		bic	r3, fp, #24576
 3300 014a B3F5FA6F 		cmp	r3, #2000
 3301 014e A8DC     		bgt	.L141
 625:Middlewares/lvgl/src/core/lv_obj_pos.c ****     if(LV_COORD_IS_PCT(tr_y)) tr_y = (h * LV_COORD_GET_PCT(tr_y)) / 100;
 3302              		.loc 1 625 31 is_stmt 1 discriminator 2 view .LVU958
 625:Middlewares/lvgl/src/core/lv_obj_pos.c ****     if(LV_COORD_IS_PCT(tr_y)) tr_y = (h * LV_COORD_GET_PCT(tr_y)) / 100;
 3303              		.loc 1 625 43 is_stmt 0 discriminator 2 view .LVU959
 3304 0150 B3F57A7F 		cmp	r3, #1000
 3305 0154 01DD     		ble	.L143
 625:Middlewares/lvgl/src/core/lv_obj_pos.c ****     if(LV_COORD_IS_PCT(tr_y)) tr_y = (h * LV_COORD_GET_PCT(tr_y)) / 100;
 3306              		.loc 1 625 43 discriminator 3 view .LVU960
 3307 0156 C3F57A73 		rsb	r3, r3, #1000
 3308              	.L143:
ARM GAS  /tmp/ccmgRVpn.s 			page 94


 625:Middlewares/lvgl/src/core/lv_obj_pos.c ****     if(LV_COORD_IS_PCT(tr_y)) tr_y = (h * LV_COORD_GET_PCT(tr_y)) / 100;
 3309              		.loc 1 625 41 discriminator 6 view .LVU961
 3310 015a 029A     		ldr	r2, [sp, #8]
 3311 015c 02FB03F3 		mul	r3, r2, r3
 625:Middlewares/lvgl/src/core/lv_obj_pos.c ****     if(LV_COORD_IS_PCT(tr_y)) tr_y = (h * LV_COORD_GET_PCT(tr_y)) / 100;
 3312              		.loc 1 625 67 discriminator 6 view .LVU962
 3313 0160 554A     		ldr	r2, .L170
 3314 0162 82FB0312 		smull	r1, r2, r2, r3
 3315 0166 4FEAE37B 		asr	fp, r3, #31
 3316              	.LVL323:
 625:Middlewares/lvgl/src/core/lv_obj_pos.c ****     if(LV_COORD_IS_PCT(tr_y)) tr_y = (h * LV_COORD_GET_PCT(tr_y)) / 100;
 3317              		.loc 1 625 67 discriminator 6 view .LVU963
 3318 016a CBEB621B 		rsb	fp, fp, r2, asr #5
 625:Middlewares/lvgl/src/core/lv_obj_pos.c ****     if(LV_COORD_IS_PCT(tr_y)) tr_y = (h * LV_COORD_GET_PCT(tr_y)) / 100;
 3319              		.loc 1 625 36 discriminator 6 view .LVU964
 3320 016e 0FFA8BFB 		sxth	fp, fp
 3321              	.LVL324:
 625:Middlewares/lvgl/src/core/lv_obj_pos.c ****     if(LV_COORD_IS_PCT(tr_y)) tr_y = (h * LV_COORD_GET_PCT(tr_y)) / 100;
 3322              		.loc 1 625 36 discriminator 6 view .LVU965
 3323 0172 96E7     		b	.L141
 3324              	.L167:
 626:Middlewares/lvgl/src/core/lv_obj_pos.c **** 
 3325              		.loc 1 626 8 discriminator 1 view .LVU966
 3326 0174 2AF4C043 		bic	r3, r10, #24576
 3327 0178 B3F5FA6F 		cmp	r3, #2000
 3328 017c 96DC     		bgt	.L144
 626:Middlewares/lvgl/src/core/lv_obj_pos.c **** 
 3329              		.loc 1 626 31 is_stmt 1 discriminator 2 view .LVU967
 626:Middlewares/lvgl/src/core/lv_obj_pos.c **** 
 3330              		.loc 1 626 43 is_stmt 0 discriminator 2 view .LVU968
 3331 017e B3F57A7F 		cmp	r3, #1000
 3332 0182 01DD     		ble	.L146
 626:Middlewares/lvgl/src/core/lv_obj_pos.c **** 
 3333              		.loc 1 626 43 discriminator 3 view .LVU969
 3334 0184 C3F57A73 		rsb	r3, r3, #1000
 3335              	.L146:
 626:Middlewares/lvgl/src/core/lv_obj_pos.c **** 
 3336              		.loc 1 626 41 discriminator 6 view .LVU970
 3337 0188 039A     		ldr	r2, [sp, #12]
 3338 018a 02FB03F3 		mul	r3, r2, r3
 626:Middlewares/lvgl/src/core/lv_obj_pos.c **** 
 3339              		.loc 1 626 67 discriminator 6 view .LVU971
 3340 018e 4A4A     		ldr	r2, .L170
 3341 0190 82FB0312 		smull	r1, r2, r2, r3
 3342 0194 4FEAE37A 		asr	r10, r3, #31
 3343              	.LVL325:
 626:Middlewares/lvgl/src/core/lv_obj_pos.c **** 
 3344              		.loc 1 626 67 discriminator 6 view .LVU972
 3345 0198 CAEB621A 		rsb	r10, r10, r2, asr #5
 626:Middlewares/lvgl/src/core/lv_obj_pos.c **** 
 3346              		.loc 1 626 36 discriminator 6 view .LVU973
 3347 019c 0FFA8AFA 		sxth	r10, r10
 3348              	.LVL326:
 626:Middlewares/lvgl/src/core/lv_obj_pos.c **** 
 3349              		.loc 1 626 36 discriminator 6 view .LVU974
 3350 01a0 84E7     		b	.L144
 3351              	.L168:
ARM GAS  /tmp/ccmgRVpn.s 			page 95


 635:Middlewares/lvgl/src/core/lv_obj_pos.c ****         else align = LV_ALIGN_TOP_LEFT;
 3352              		.loc 1 635 9 is_stmt 1 view .LVU975
 3353              	.LVL327:
 3354              	.LBB204:
 3355              	.LBI204:
 187:Middlewares/lvgl/src/core/lv_obj_style_gen.h **** {
 3356              		.loc 2 187 29 view .LVU976
 3357              	.LBB205:
 189:Middlewares/lvgl/src/core/lv_obj_style_gen.h ****     return (lv_base_dir_t)v.num;
 3358              		.loc 2 189 5 view .LVU977
 189:Middlewares/lvgl/src/core/lv_obj_style_gen.h ****     return (lv_base_dir_t)v.num;
 3359              		.loc 2 189 26 is_stmt 0 view .LVU978
 3360 01a2 41F26A42 		movw	r2, #5226
 3361 01a6 0021     		movs	r1, #0
 3362 01a8 3846     		mov	r0, r7
 3363 01aa FFF7FEFF 		bl	lv_obj_get_style_prop
 3364              	.LVL328:
 190:Middlewares/lvgl/src/core/lv_obj_style_gen.h **** }
 3365              		.loc 2 190 5 is_stmt 1 view .LVU979
 190:Middlewares/lvgl/src/core/lv_obj_style_gen.h **** }
 3366              		.loc 2 190 12 is_stmt 0 view .LVU980
 3367 01ae C0B2     		uxtb	r0, r0
 3368              	.LVL329:
 190:Middlewares/lvgl/src/core/lv_obj_style_gen.h **** }
 3369              		.loc 2 190 12 view .LVU981
 3370              	.LBE205:
 3371              	.LBE204:
 635:Middlewares/lvgl/src/core/lv_obj_pos.c ****         else align = LV_ALIGN_TOP_LEFT;
 3372              		.loc 1 635 11 view .LVU982
 3373 01b0 0128     		cmp	r0, #1
 3374 01b2 05D0     		beq	.L169
 3375              	.L149:
 640:Middlewares/lvgl/src/core/lv_obj_pos.c ****     }
 3376              		.loc 1 640 9 is_stmt 1 view .LVU983
 3377 01b4 3246     		mov	r2, r6
 3378 01b6 2946     		mov	r1, r5
 3379 01b8 2046     		mov	r0, r4
 3380 01ba FFF7FEFF 		bl	lv_obj_move_to
 3381              	.LVL330:
 3382 01be 26E7     		b	.L132
 3383              	.L169:
 635:Middlewares/lvgl/src/core/lv_obj_pos.c ****         else align = LV_ALIGN_TOP_LEFT;
 3384              		.loc 1 635 86 is_stmt 0 view .LVU984
 3385 01c0 0320     		movs	r0, #3
 3386 01c2 86E7     		b	.L148
 3387              	.L159:
 646:Middlewares/lvgl/src/core/lv_obj_pos.c ****             break;
 3388              		.loc 1 646 13 is_stmt 1 view .LVU985
 646:Middlewares/lvgl/src/core/lv_obj_pos.c ****             break;
 3389              		.loc 1 646 25 is_stmt 0 view .LVU986
 3390 01c4 009B     		ldr	r3, [sp]
 3391 01c6 03EBD370 		add	r0, r3, r3, lsr #31
 3392 01ca 029B     		ldr	r3, [sp, #8]
 3393 01cc 03EBD375 		add	r5, r3, r3, lsr #31
 3394              	.LVL331:
 646:Middlewares/lvgl/src/core/lv_obj_pos.c ****             break;
 3395              		.loc 1 646 25 view .LVU987
ARM GAS  /tmp/ccmgRVpn.s 			page 96


 3396 01d0 6D10     		asrs	r5, r5, #1
 3397 01d2 C5EB6005 		rsb	r5, r5, r0, asr #1
 646:Middlewares/lvgl/src/core/lv_obj_pos.c ****             break;
 3398              		.loc 1 646 15 view .LVU988
 3399 01d6 18FA85F5 		uxtah	r5, r8, r5
 3400 01da 2DB2     		sxth	r5, r5
 3401              	.LVL332:
 647:Middlewares/lvgl/src/core/lv_obj_pos.c ****         case LV_ALIGN_TOP_RIGHT:
 3402              		.loc 1 647 13 is_stmt 1 view .LVU989
 3403              	.L150:
 676:Middlewares/lvgl/src/core/lv_obj_pos.c ****     }
 3404              		.loc 1 676 9 view .LVU990
 3405 01dc 3246     		mov	r2, r6
 3406 01de 2946     		mov	r1, r5
 3407 01e0 2046     		mov	r0, r4
 3408 01e2 FFF7FEFF 		bl	lv_obj_move_to
 3409              	.LVL333:
 3410 01e6 12E7     		b	.L132
 3411              	.L158:
 649:Middlewares/lvgl/src/core/lv_obj_pos.c ****             break;
 3412              		.loc 1 649 13 view .LVU991
 649:Middlewares/lvgl/src/core/lv_obj_pos.c ****             break;
 3413              		.loc 1 649 21 is_stmt 0 view .LVU992
 3414 01e8 009B     		ldr	r3, [sp]
 3415 01ea 029A     		ldr	r2, [sp, #8]
 3416 01ec 9D1A     		subs	r5, r3, r2
 3417              	.LVL334:
 649:Middlewares/lvgl/src/core/lv_obj_pos.c ****             break;
 3418              		.loc 1 649 15 view .LVU993
 3419 01ee 18FA85F5 		uxtah	r5, r8, r5
 3420 01f2 2DB2     		sxth	r5, r5
 3421              	.LVL335:
 650:Middlewares/lvgl/src/core/lv_obj_pos.c ****         case LV_ALIGN_LEFT_MID:
 3422              		.loc 1 650 13 is_stmt 1 view .LVU994
 3423 01f4 F2E7     		b	.L150
 3424              	.L154:
 652:Middlewares/lvgl/src/core/lv_obj_pos.c ****             break;
 3425              		.loc 1 652 13 view .LVU995
 652:Middlewares/lvgl/src/core/lv_obj_pos.c ****             break;
 3426              		.loc 1 652 25 is_stmt 0 view .LVU996
 3427 01f6 019B     		ldr	r3, [sp, #4]
 3428 01f8 03EBD370 		add	r0, r3, r3, lsr #31
 3429 01fc 039B     		ldr	r3, [sp, #12]
 3430 01fe 03EBD376 		add	r6, r3, r3, lsr #31
 3431              	.LVL336:
 652:Middlewares/lvgl/src/core/lv_obj_pos.c ****             break;
 3432              		.loc 1 652 25 view .LVU997
 3433 0202 7610     		asrs	r6, r6, #1
 3434 0204 C6EB6006 		rsb	r6, r6, r0, asr #1
 652:Middlewares/lvgl/src/core/lv_obj_pos.c ****             break;
 3435              		.loc 1 652 15 view .LVU998
 3436 0208 19FA86F6 		uxtah	r6, r9, r6
 3437 020c 36B2     		sxth	r6, r6
 3438              	.LVL337:
 653:Middlewares/lvgl/src/core/lv_obj_pos.c ****         case LV_ALIGN_BOTTOM_LEFT:
 3439              		.loc 1 653 13 is_stmt 1 view .LVU999
 3440 020e E5E7     		b	.L150
ARM GAS  /tmp/ccmgRVpn.s 			page 97


 3441              	.L157:
 655:Middlewares/lvgl/src/core/lv_obj_pos.c ****             break;
 3442              		.loc 1 655 13 view .LVU1000
 655:Middlewares/lvgl/src/core/lv_obj_pos.c ****             break;
 3443              		.loc 1 655 21 is_stmt 0 view .LVU1001
 3444 0210 019B     		ldr	r3, [sp, #4]
 3445 0212 039A     		ldr	r2, [sp, #12]
 3446 0214 9E1A     		subs	r6, r3, r2
 3447              	.LVL338:
 655:Middlewares/lvgl/src/core/lv_obj_pos.c ****             break;
 3448              		.loc 1 655 15 view .LVU1002
 3449 0216 19FA86F6 		uxtah	r6, r9, r6
 3450 021a 36B2     		sxth	r6, r6
 3451              	.LVL339:
 656:Middlewares/lvgl/src/core/lv_obj_pos.c ****         case LV_ALIGN_BOTTOM_MID:
 3452              		.loc 1 656 13 is_stmt 1 view .LVU1003
 3453 021c DEE7     		b	.L150
 3454              	.L156:
 658:Middlewares/lvgl/src/core/lv_obj_pos.c ****             y += ph - h;
 3455              		.loc 1 658 13 view .LVU1004
 658:Middlewares/lvgl/src/core/lv_obj_pos.c ****             y += ph - h;
 3456              		.loc 1 658 25 is_stmt 0 view .LVU1005
 3457 021e 009B     		ldr	r3, [sp]
 3458 0220 03EBD370 		add	r0, r3, r3, lsr #31
 3459 0224 029B     		ldr	r3, [sp, #8]
 3460 0226 03EBD375 		add	r5, r3, r3, lsr #31
 3461              	.LVL340:
 658:Middlewares/lvgl/src/core/lv_obj_pos.c ****             y += ph - h;
 3462              		.loc 1 658 25 view .LVU1006
 3463 022a 6D10     		asrs	r5, r5, #1
 3464 022c C5EB6005 		rsb	r5, r5, r0, asr #1
 658:Middlewares/lvgl/src/core/lv_obj_pos.c ****             y += ph - h;
 3465              		.loc 1 658 15 view .LVU1007
 3466 0230 18FA85F5 		uxtah	r5, r8, r5
 3467 0234 2DB2     		sxth	r5, r5
 3468              	.LVL341:
 659:Middlewares/lvgl/src/core/lv_obj_pos.c ****             break;
 3469              		.loc 1 659 13 is_stmt 1 view .LVU1008
 659:Middlewares/lvgl/src/core/lv_obj_pos.c ****             break;
 3470              		.loc 1 659 21 is_stmt 0 view .LVU1009
 3471 0236 019B     		ldr	r3, [sp, #4]
 3472 0238 039A     		ldr	r2, [sp, #12]
 3473 023a 9E1A     		subs	r6, r3, r2
 3474              	.LVL342:
 659:Middlewares/lvgl/src/core/lv_obj_pos.c ****             break;
 3475              		.loc 1 659 15 view .LVU1010
 3476 023c 19FA86F6 		uxtah	r6, r9, r6
 3477 0240 36B2     		sxth	r6, r6
 3478              	.LVL343:
 660:Middlewares/lvgl/src/core/lv_obj_pos.c ****         case LV_ALIGN_BOTTOM_RIGHT:
 3479              		.loc 1 660 13 is_stmt 1 view .LVU1011
 3480 0242 CBE7     		b	.L150
 3481              	.L155:
 662:Middlewares/lvgl/src/core/lv_obj_pos.c ****             y += ph - h;
 3482              		.loc 1 662 13 view .LVU1012
 662:Middlewares/lvgl/src/core/lv_obj_pos.c ****             y += ph - h;
 3483              		.loc 1 662 21 is_stmt 0 view .LVU1013
ARM GAS  /tmp/ccmgRVpn.s 			page 98


 3484 0244 009B     		ldr	r3, [sp]
 3485 0246 029A     		ldr	r2, [sp, #8]
 3486 0248 9D1A     		subs	r5, r3, r2
 3487              	.LVL344:
 662:Middlewares/lvgl/src/core/lv_obj_pos.c ****             y += ph - h;
 3488              		.loc 1 662 15 view .LVU1014
 3489 024a 18FA85F5 		uxtah	r5, r8, r5
 3490 024e 2DB2     		sxth	r5, r5
 3491              	.LVL345:
 663:Middlewares/lvgl/src/core/lv_obj_pos.c ****             break;
 3492              		.loc 1 663 13 is_stmt 1 view .LVU1015
 663:Middlewares/lvgl/src/core/lv_obj_pos.c ****             break;
 3493              		.loc 1 663 21 is_stmt 0 view .LVU1016
 3494 0250 019B     		ldr	r3, [sp, #4]
 3495 0252 039A     		ldr	r2, [sp, #12]
 3496 0254 9E1A     		subs	r6, r3, r2
 3497              	.LVL346:
 663:Middlewares/lvgl/src/core/lv_obj_pos.c ****             break;
 3498              		.loc 1 663 15 view .LVU1017
 3499 0256 19FA86F6 		uxtah	r6, r9, r6
 3500 025a 36B2     		sxth	r6, r6
 3501              	.LVL347:
 664:Middlewares/lvgl/src/core/lv_obj_pos.c ****         case LV_ALIGN_RIGHT_MID:
 3502              		.loc 1 664 13 is_stmt 1 view .LVU1018
 3503 025c BEE7     		b	.L150
 3504              	.L153:
 666:Middlewares/lvgl/src/core/lv_obj_pos.c ****             y += ph / 2 - h / 2;
 3505              		.loc 1 666 13 view .LVU1019
 666:Middlewares/lvgl/src/core/lv_obj_pos.c ****             y += ph / 2 - h / 2;
 3506              		.loc 1 666 21 is_stmt 0 view .LVU1020
 3507 025e 009B     		ldr	r3, [sp]
 3508 0260 029A     		ldr	r2, [sp, #8]
 3509 0262 9D1A     		subs	r5, r3, r2
 3510              	.LVL348:
 666:Middlewares/lvgl/src/core/lv_obj_pos.c ****             y += ph / 2 - h / 2;
 3511              		.loc 1 666 15 view .LVU1021
 3512 0264 18FA85F5 		uxtah	r5, r8, r5
 3513 0268 2DB2     		sxth	r5, r5
 3514              	.LVL349:
 667:Middlewares/lvgl/src/core/lv_obj_pos.c ****             break;
 3515              		.loc 1 667 13 is_stmt 1 view .LVU1022
 667:Middlewares/lvgl/src/core/lv_obj_pos.c ****             break;
 3516              		.loc 1 667 25 is_stmt 0 view .LVU1023
 3517 026a 019B     		ldr	r3, [sp, #4]
 3518 026c 03EBD370 		add	r0, r3, r3, lsr #31
 3519 0270 039B     		ldr	r3, [sp, #12]
 3520 0272 03EBD376 		add	r6, r3, r3, lsr #31
 3521              	.LVL350:
 667:Middlewares/lvgl/src/core/lv_obj_pos.c ****             break;
 3522              		.loc 1 667 25 view .LVU1024
 3523 0276 7610     		asrs	r6, r6, #1
 3524 0278 C6EB6006 		rsb	r6, r6, r0, asr #1
 667:Middlewares/lvgl/src/core/lv_obj_pos.c ****             break;
 3525              		.loc 1 667 15 view .LVU1025
 3526 027c 19FA86F6 		uxtah	r6, r9, r6
 3527 0280 36B2     		sxth	r6, r6
 3528              	.LVL351:
ARM GAS  /tmp/ccmgRVpn.s 			page 99


 668:Middlewares/lvgl/src/core/lv_obj_pos.c ****         case LV_ALIGN_CENTER:
 3529              		.loc 1 668 13 is_stmt 1 view .LVU1026
 3530 0282 ABE7     		b	.L150
 3531              	.L151:
 670:Middlewares/lvgl/src/core/lv_obj_pos.c ****             y += ph / 2 - h / 2;
 3532              		.loc 1 670 13 view .LVU1027
 670:Middlewares/lvgl/src/core/lv_obj_pos.c ****             y += ph / 2 - h / 2;
 3533              		.loc 1 670 25 is_stmt 0 view .LVU1028
 3534 0284 009B     		ldr	r3, [sp]
 3535 0286 03EBD370 		add	r0, r3, r3, lsr #31
 3536 028a 029B     		ldr	r3, [sp, #8]
 3537 028c 03EBD375 		add	r5, r3, r3, lsr #31
 3538              	.LVL352:
 670:Middlewares/lvgl/src/core/lv_obj_pos.c ****             y += ph / 2 - h / 2;
 3539              		.loc 1 670 25 view .LVU1029
 3540 0290 6D10     		asrs	r5, r5, #1
 3541 0292 C5EB6005 		rsb	r5, r5, r0, asr #1
 670:Middlewares/lvgl/src/core/lv_obj_pos.c ****             y += ph / 2 - h / 2;
 3542              		.loc 1 670 15 view .LVU1030
 3543 0296 18FA85F5 		uxtah	r5, r8, r5
 3544 029a 2DB2     		sxth	r5, r5
 3545              	.LVL353:
 671:Middlewares/lvgl/src/core/lv_obj_pos.c ****             break;
 3546              		.loc 1 671 13 is_stmt 1 view .LVU1031
 671:Middlewares/lvgl/src/core/lv_obj_pos.c ****             break;
 3547              		.loc 1 671 25 is_stmt 0 view .LVU1032
 3548 029c 019B     		ldr	r3, [sp, #4]
 3549 029e 03EBD370 		add	r0, r3, r3, lsr #31
 3550 02a2 039B     		ldr	r3, [sp, #12]
 3551 02a4 03EBD376 		add	r6, r3, r3, lsr #31
 3552              	.LVL354:
 671:Middlewares/lvgl/src/core/lv_obj_pos.c ****             break;
 3553              		.loc 1 671 25 view .LVU1033
 3554 02a8 7610     		asrs	r6, r6, #1
 3555 02aa C6EB6006 		rsb	r6, r6, r0, asr #1
 671:Middlewares/lvgl/src/core/lv_obj_pos.c ****             break;
 3556              		.loc 1 671 15 view .LVU1034
 3557 02ae 19FA86F6 		uxtah	r6, r9, r6
 3558 02b2 36B2     		sxth	r6, r6
 3559              	.LVL355:
 672:Middlewares/lvgl/src/core/lv_obj_pos.c ****         default:
 3560              		.loc 1 672 13 is_stmt 1 view .LVU1035
 3561 02b4 92E7     		b	.L150
 3562              	.L171:
 3563 02b6 00BF     		.align	2
 3564              	.L170:
 3565 02b8 1F85EB51 		.word	1374389535
 3566              		.cfi_endproc
 3567              	.LFE183:
 3569              		.section	.text.lv_obj_is_visible,"ax",%progbits
 3570              		.align	1
 3571              		.global	lv_obj_is_visible
 3572              		.syntax unified
 3573              		.thumb
 3574              		.thumb_func
 3576              	lv_obj_is_visible:
 3577              	.LVL356:
ARM GAS  /tmp/ccmgRVpn.s 			page 100


 3578              	.LFB189:
 840:Middlewares/lvgl/src/core/lv_obj_pos.c ****     LV_ASSERT_OBJ(obj, MY_CLASS);
 3579              		.loc 1 840 1 view -0
 3580              		.cfi_startproc
 3581              		@ args = 0, pretend = 0, frame = 8
 3582              		@ frame_needed = 0, uses_anonymous_args = 0
 840:Middlewares/lvgl/src/core/lv_obj_pos.c ****     LV_ASSERT_OBJ(obj, MY_CLASS);
 3583              		.loc 1 840 1 is_stmt 0 view .LVU1037
 3584 0000 10B5     		push	{r4, lr}
 3585              	.LCFI60:
 3586              		.cfi_def_cfa_offset 8
 3587              		.cfi_offset 4, -8
 3588              		.cfi_offset 14, -4
 3589 0002 82B0     		sub	sp, sp, #8
 3590              	.LCFI61:
 3591              		.cfi_def_cfa_offset 16
 3592 0004 0446     		mov	r4, r0
 841:Middlewares/lvgl/src/core/lv_obj_pos.c **** 
 3593              		.loc 1 841 5 is_stmt 1 view .LVU1038
 841:Middlewares/lvgl/src/core/lv_obj_pos.c **** 
 3594              		.loc 1 841 5 view .LVU1039
 841:Middlewares/lvgl/src/core/lv_obj_pos.c **** 
 3595              		.loc 1 841 5 view .LVU1040
 843:Middlewares/lvgl/src/core/lv_obj_pos.c ****     lv_coord_t ext_size = _lv_obj_get_ext_draw_size(obj);
 3596              		.loc 1 843 5 view .LVU1041
 844:Middlewares/lvgl/src/core/lv_obj_pos.c ****     lv_area_copy(&obj_coords, &obj->coords);
 3597              		.loc 1 844 5 view .LVU1042
 844:Middlewares/lvgl/src/core/lv_obj_pos.c ****     lv_area_copy(&obj_coords, &obj->coords);
 3598              		.loc 1 844 27 is_stmt 0 view .LVU1043
 3599 0006 FFF7FEFF 		bl	_lv_obj_get_ext_draw_size
 3600              	.LVL357:
 845:Middlewares/lvgl/src/core/lv_obj_pos.c ****     obj_coords.x1 -= ext_size;
 3601              		.loc 1 845 5 is_stmt 1 view .LVU1044
 3602              	.LBB206:
 3603              	.LBI206:
 120:Middlewares/lvgl/src/core/../misc/../font/../misc/lv_area.h **** {
 3604              		.loc 3 120 20 view .LVU1045
 3605              	.LBB207:
 122:Middlewares/lvgl/src/core/../misc/../font/../misc/lv_area.h ****     dest->y1 = src->y1;
 3606              		.loc 3 122 5 view .LVU1046
 122:Middlewares/lvgl/src/core/../misc/../font/../misc/lv_area.h ****     dest->y1 = src->y1;
 3607              		.loc 3 122 19 is_stmt 0 view .LVU1047
 3608 000a B4F914C0 		ldrsh	ip, [r4, #20]
 122:Middlewares/lvgl/src/core/../misc/../font/../misc/lv_area.h ****     dest->y1 = src->y1;
 3609              		.loc 3 122 14 view .LVU1048
 3610 000e ADF800C0 		strh	ip, [sp]	@ movhi
 123:Middlewares/lvgl/src/core/../misc/../font/../misc/lv_area.h ****     dest->x2 = src->x2;
 3611              		.loc 3 123 5 is_stmt 1 view .LVU1049
 123:Middlewares/lvgl/src/core/../misc/../font/../misc/lv_area.h ****     dest->x2 = src->x2;
 3612              		.loc 3 123 19 is_stmt 0 view .LVU1050
 3613 0012 B4F91610 		ldrsh	r1, [r4, #22]
 123:Middlewares/lvgl/src/core/../misc/../font/../misc/lv_area.h ****     dest->x2 = src->x2;
 3614              		.loc 3 123 14 view .LVU1051
 3615 0016 ADF80210 		strh	r1, [sp, #2]	@ movhi
 124:Middlewares/lvgl/src/core/../misc/../font/../misc/lv_area.h ****     dest->y2 = src->y2;
 3616              		.loc 3 124 5 is_stmt 1 view .LVU1052
 124:Middlewares/lvgl/src/core/../misc/../font/../misc/lv_area.h ****     dest->y2 = src->y2;
ARM GAS  /tmp/ccmgRVpn.s 			page 101


 3617              		.loc 3 124 19 is_stmt 0 view .LVU1053
 3618 001a B4F91820 		ldrsh	r2, [r4, #24]
 124:Middlewares/lvgl/src/core/../misc/../font/../misc/lv_area.h ****     dest->y2 = src->y2;
 3619              		.loc 3 124 14 view .LVU1054
 3620 001e ADF80420 		strh	r2, [sp, #4]	@ movhi
 125:Middlewares/lvgl/src/core/../misc/../font/../misc/lv_area.h **** }
 3621              		.loc 3 125 5 is_stmt 1 view .LVU1055
 125:Middlewares/lvgl/src/core/../misc/../font/../misc/lv_area.h **** }
 3622              		.loc 3 125 19 is_stmt 0 view .LVU1056
 3623 0022 B4F91AE0 		ldrsh	lr, [r4, #26]
 125:Middlewares/lvgl/src/core/../misc/../font/../misc/lv_area.h **** }
 3624              		.loc 3 125 14 view .LVU1057
 3625 0026 ADF806E0 		strh	lr, [sp, #6]	@ movhi
 3626              	.LVL358:
 125:Middlewares/lvgl/src/core/../misc/../font/../misc/lv_area.h **** }
 3627              		.loc 3 125 14 view .LVU1058
 3628              	.LBE207:
 3629              	.LBE206:
 846:Middlewares/lvgl/src/core/lv_obj_pos.c ****     obj_coords.y1 -= ext_size;
 3630              		.loc 1 846 5 is_stmt 1 view .LVU1059
 846:Middlewares/lvgl/src/core/lv_obj_pos.c ****     obj_coords.y1 -= ext_size;
 3631              		.loc 1 846 19 is_stmt 0 view .LVU1060
 3632 002a 83B2     		uxth	r3, r0
 3633 002c ACEB030C 		sub	ip, ip, r3
 3634 0030 ADF800C0 		strh	ip, [sp]	@ movhi
 847:Middlewares/lvgl/src/core/lv_obj_pos.c ****     obj_coords.x2 += ext_size;
 3635              		.loc 1 847 5 is_stmt 1 view .LVU1061
 847:Middlewares/lvgl/src/core/lv_obj_pos.c ****     obj_coords.x2 += ext_size;
 3636              		.loc 1 847 19 is_stmt 0 view .LVU1062
 3637 0034 C91A     		subs	r1, r1, r3
 3638 0036 ADF80210 		strh	r1, [sp, #2]	@ movhi
 848:Middlewares/lvgl/src/core/lv_obj_pos.c ****     obj_coords.y2 += ext_size;
 3639              		.loc 1 848 5 is_stmt 1 view .LVU1063
 848:Middlewares/lvgl/src/core/lv_obj_pos.c ****     obj_coords.y2 += ext_size;
 3640              		.loc 1 848 19 is_stmt 0 view .LVU1064
 3641 003a 1A44     		add	r2, r2, r3
 3642 003c ADF80420 		strh	r2, [sp, #4]	@ movhi
 849:Middlewares/lvgl/src/core/lv_obj_pos.c **** 
 3643              		.loc 1 849 5 is_stmt 1 view .LVU1065
 849:Middlewares/lvgl/src/core/lv_obj_pos.c **** 
 3644              		.loc 1 849 19 is_stmt 0 view .LVU1066
 3645 0040 7344     		add	r3, r3, lr
 3646 0042 ADF80630 		strh	r3, [sp, #6]	@ movhi
 851:Middlewares/lvgl/src/core/lv_obj_pos.c **** 
 3647              		.loc 1 851 5 is_stmt 1 view .LVU1067
 851:Middlewares/lvgl/src/core/lv_obj_pos.c **** 
 3648              		.loc 1 851 12 is_stmt 0 view .LVU1068
 3649 0046 6946     		mov	r1, sp
 3650 0048 2046     		mov	r0, r4
 3651              	.LVL359:
 851:Middlewares/lvgl/src/core/lv_obj_pos.c **** 
 3652              		.loc 1 851 12 view .LVU1069
 3653 004a FFF7FEFF 		bl	lv_obj_area_is_visible
 3654              	.LVL360:
 853:Middlewares/lvgl/src/core/lv_obj_pos.c **** 
 3655              		.loc 1 853 1 view .LVU1070
 3656 004e 02B0     		add	sp, sp, #8
ARM GAS  /tmp/ccmgRVpn.s 			page 102


 3657              	.LCFI62:
 3658              		.cfi_def_cfa_offset 8
 3659              		@ sp needed
 3660 0050 10BD     		pop	{r4, pc}
 853:Middlewares/lvgl/src/core/lv_obj_pos.c **** 
 3661              		.loc 1 853 1 view .LVU1071
 3662              		.cfi_endproc
 3663              	.LFE189:
 3665              		.section	.text.lv_obj_set_ext_click_area,"ax",%progbits
 3666              		.align	1
 3667              		.global	lv_obj_set_ext_click_area
 3668              		.syntax unified
 3669              		.thumb
 3670              		.thumb_func
 3672              	lv_obj_set_ext_click_area:
 3673              	.LVL361:
 3674              	.LFB190:
 856:Middlewares/lvgl/src/core/lv_obj_pos.c ****     LV_ASSERT_OBJ(obj, MY_CLASS);
 3675              		.loc 1 856 1 is_stmt 1 view -0
 3676              		.cfi_startproc
 3677              		@ args = 0, pretend = 0, frame = 0
 3678              		@ frame_needed = 0, uses_anonymous_args = 0
 856:Middlewares/lvgl/src/core/lv_obj_pos.c ****     LV_ASSERT_OBJ(obj, MY_CLASS);
 3679              		.loc 1 856 1 is_stmt 0 view .LVU1073
 3680 0000 38B5     		push	{r3, r4, r5, lr}
 3681              	.LCFI63:
 3682              		.cfi_def_cfa_offset 16
 3683              		.cfi_offset 3, -16
 3684              		.cfi_offset 4, -12
 3685              		.cfi_offset 5, -8
 3686              		.cfi_offset 14, -4
 3687 0002 0546     		mov	r5, r0
 3688 0004 0C46     		mov	r4, r1
 857:Middlewares/lvgl/src/core/lv_obj_pos.c **** 
 3689              		.loc 1 857 5 is_stmt 1 view .LVU1074
 857:Middlewares/lvgl/src/core/lv_obj_pos.c **** 
 3690              		.loc 1 857 5 view .LVU1075
 857:Middlewares/lvgl/src/core/lv_obj_pos.c **** 
 3691              		.loc 1 857 5 view .LVU1076
 859:Middlewares/lvgl/src/core/lv_obj_pos.c ****     obj->spec_attr->ext_click_pad = size;
 3692              		.loc 1 859 5 view .LVU1077
 3693 0006 FFF7FEFF 		bl	lv_obj_allocate_spec_attr
 3694              	.LVL362:
 860:Middlewares/lvgl/src/core/lv_obj_pos.c **** }
 3695              		.loc 1 860 5 view .LVU1078
 860:Middlewares/lvgl/src/core/lv_obj_pos.c **** }
 3696              		.loc 1 860 8 is_stmt 0 view .LVU1079
 3697 000a AB68     		ldr	r3, [r5, #8]
 860:Middlewares/lvgl/src/core/lv_obj_pos.c **** }
 3698              		.loc 1 860 35 view .LVU1080
 3699 000c 9C82     		strh	r4, [r3, #20]	@ movhi
 861:Middlewares/lvgl/src/core/lv_obj_pos.c **** 
 3700              		.loc 1 861 1 view .LVU1081
 3701 000e 38BD     		pop	{r3, r4, r5, pc}
 861:Middlewares/lvgl/src/core/lv_obj_pos.c **** 
 3702              		.loc 1 861 1 view .LVU1082
 3703              		.cfi_endproc
ARM GAS  /tmp/ccmgRVpn.s 			page 103


 3704              	.LFE190:
 3706              		.section	.text.lv_obj_get_click_area,"ax",%progbits
 3707              		.align	1
 3708              		.global	lv_obj_get_click_area
 3709              		.syntax unified
 3710              		.thumb
 3711              		.thumb_func
 3713              	lv_obj_get_click_area:
 3714              	.LVL363:
 3715              	.LFB191:
 864:Middlewares/lvgl/src/core/lv_obj_pos.c ****     lv_area_copy(area, &obj->coords);
 3716              		.loc 1 864 1 is_stmt 1 view -0
 3717              		.cfi_startproc
 3718              		@ args = 0, pretend = 0, frame = 0
 3719              		@ frame_needed = 0, uses_anonymous_args = 0
 864:Middlewares/lvgl/src/core/lv_obj_pos.c ****     lv_area_copy(area, &obj->coords);
 3720              		.loc 1 864 1 is_stmt 0 view .LVU1084
 3721 0000 10B5     		push	{r4, lr}
 3722              	.LCFI64:
 3723              		.cfi_def_cfa_offset 8
 3724              		.cfi_offset 4, -8
 3725              		.cfi_offset 14, -4
 865:Middlewares/lvgl/src/core/lv_obj_pos.c ****     if(obj->spec_attr) {
 3726              		.loc 1 865 5 is_stmt 1 view .LVU1085
 3727              	.LVL364:
 3728              	.LBB208:
 3729              	.LBI208:
 120:Middlewares/lvgl/src/core/../misc/../font/../misc/lv_area.h **** {
 3730              		.loc 3 120 20 view .LVU1086
 3731              	.LBB209:
 122:Middlewares/lvgl/src/core/../misc/../font/../misc/lv_area.h ****     dest->y1 = src->y1;
 3732              		.loc 3 122 5 view .LVU1087
 122:Middlewares/lvgl/src/core/../misc/../font/../misc/lv_area.h ****     dest->y1 = src->y1;
 3733              		.loc 3 122 19 is_stmt 0 view .LVU1088
 3734 0002 B0F91420 		ldrsh	r2, [r0, #20]
 122:Middlewares/lvgl/src/core/../misc/../font/../misc/lv_area.h ****     dest->y1 = src->y1;
 3735              		.loc 3 122 14 view .LVU1089
 3736 0006 0A80     		strh	r2, [r1]	@ movhi
 123:Middlewares/lvgl/src/core/../misc/../font/../misc/lv_area.h ****     dest->x2 = src->x2;
 3737              		.loc 3 123 5 is_stmt 1 view .LVU1090
 123:Middlewares/lvgl/src/core/../misc/../font/../misc/lv_area.h ****     dest->x2 = src->x2;
 3738              		.loc 3 123 19 is_stmt 0 view .LVU1091
 3739 0008 B0F91630 		ldrsh	r3, [r0, #22]
 123:Middlewares/lvgl/src/core/../misc/../font/../misc/lv_area.h ****     dest->x2 = src->x2;
 3740              		.loc 3 123 14 view .LVU1092
 3741 000c 4B80     		strh	r3, [r1, #2]	@ movhi
 124:Middlewares/lvgl/src/core/../misc/../font/../misc/lv_area.h ****     dest->y2 = src->y2;
 3742              		.loc 3 124 5 is_stmt 1 view .LVU1093
 124:Middlewares/lvgl/src/core/../misc/../font/../misc/lv_area.h ****     dest->y2 = src->y2;
 3743              		.loc 3 124 19 is_stmt 0 view .LVU1094
 3744 000e B0F918E0 		ldrsh	lr, [r0, #24]
 124:Middlewares/lvgl/src/core/../misc/../font/../misc/lv_area.h ****     dest->y2 = src->y2;
 3745              		.loc 3 124 14 view .LVU1095
 3746 0012 A1F804E0 		strh	lr, [r1, #4]	@ movhi
 125:Middlewares/lvgl/src/core/../misc/../font/../misc/lv_area.h **** }
 3747              		.loc 3 125 5 is_stmt 1 view .LVU1096
 125:Middlewares/lvgl/src/core/../misc/../font/../misc/lv_area.h **** }
ARM GAS  /tmp/ccmgRVpn.s 			page 104


 3748              		.loc 3 125 19 is_stmt 0 view .LVU1097
 3749 0016 B0F91AC0 		ldrsh	ip, [r0, #26]
 125:Middlewares/lvgl/src/core/../misc/../font/../misc/lv_area.h **** }
 3750              		.loc 3 125 14 view .LVU1098
 3751 001a A1F806C0 		strh	ip, [r1, #6]	@ movhi
 3752              	.LVL365:
 125:Middlewares/lvgl/src/core/../misc/../font/../misc/lv_area.h **** }
 3753              		.loc 3 125 14 view .LVU1099
 3754              	.LBE209:
 3755              	.LBE208:
 866:Middlewares/lvgl/src/core/lv_obj_pos.c ****         area->x1 -= obj->spec_attr->ext_click_pad;
 3756              		.loc 1 866 5 is_stmt 1 view .LVU1100
 866:Middlewares/lvgl/src/core/lv_obj_pos.c ****         area->x1 -= obj->spec_attr->ext_click_pad;
 3757              		.loc 1 866 11 is_stmt 0 view .LVU1101
 3758 001e 8468     		ldr	r4, [r0, #8]
 866:Middlewares/lvgl/src/core/lv_obj_pos.c ****         area->x1 -= obj->spec_attr->ext_click_pad;
 3759              		.loc 1 866 7 view .LVU1102
 3760 0020 74B1     		cbz	r4, .L176
 867:Middlewares/lvgl/src/core/lv_obj_pos.c ****         area->x2 += obj->spec_attr->ext_click_pad;
 3761              		.loc 1 867 9 is_stmt 1 view .LVU1103
 867:Middlewares/lvgl/src/core/lv_obj_pos.c ****         area->x2 += obj->spec_attr->ext_click_pad;
 3762              		.loc 1 867 35 is_stmt 0 view .LVU1104
 3763 0022 A48A     		ldrh	r4, [r4, #20]
 867:Middlewares/lvgl/src/core/lv_obj_pos.c ****         area->x2 += obj->spec_attr->ext_click_pad;
 3764              		.loc 1 867 18 view .LVU1105
 3765 0024 121B     		subs	r2, r2, r4
 3766 0026 0A80     		strh	r2, [r1]	@ movhi
 868:Middlewares/lvgl/src/core/lv_obj_pos.c ****         area->y1 -= obj->spec_attr->ext_click_pad;
 3767              		.loc 1 868 9 is_stmt 1 view .LVU1106
 868:Middlewares/lvgl/src/core/lv_obj_pos.c ****         area->y1 -= obj->spec_attr->ext_click_pad;
 3768              		.loc 1 868 24 is_stmt 0 view .LVU1107
 3769 0028 8268     		ldr	r2, [r0, #8]
 868:Middlewares/lvgl/src/core/lv_obj_pos.c ****         area->y1 -= obj->spec_attr->ext_click_pad;
 3770              		.loc 1 868 35 view .LVU1108
 3771 002a 928A     		ldrh	r2, [r2, #20]
 868:Middlewares/lvgl/src/core/lv_obj_pos.c ****         area->y1 -= obj->spec_attr->ext_click_pad;
 3772              		.loc 1 868 18 view .LVU1109
 3773 002c 7244     		add	r2, r2, lr
 3774 002e 8A80     		strh	r2, [r1, #4]	@ movhi
 869:Middlewares/lvgl/src/core/lv_obj_pos.c ****         area->y2 += obj->spec_attr->ext_click_pad;
 3775              		.loc 1 869 9 is_stmt 1 view .LVU1110
 869:Middlewares/lvgl/src/core/lv_obj_pos.c ****         area->y2 += obj->spec_attr->ext_click_pad;
 3776              		.loc 1 869 24 is_stmt 0 view .LVU1111
 3777 0030 8268     		ldr	r2, [r0, #8]
 869:Middlewares/lvgl/src/core/lv_obj_pos.c ****         area->y2 += obj->spec_attr->ext_click_pad;
 3778              		.loc 1 869 35 view .LVU1112
 3779 0032 928A     		ldrh	r2, [r2, #20]
 869:Middlewares/lvgl/src/core/lv_obj_pos.c ****         area->y2 += obj->spec_attr->ext_click_pad;
 3780              		.loc 1 869 18 view .LVU1113
 3781 0034 9B1A     		subs	r3, r3, r2
 3782 0036 4B80     		strh	r3, [r1, #2]	@ movhi
 870:Middlewares/lvgl/src/core/lv_obj_pos.c ****     }
 3783              		.loc 1 870 9 is_stmt 1 view .LVU1114
 870:Middlewares/lvgl/src/core/lv_obj_pos.c ****     }
 3784              		.loc 1 870 24 is_stmt 0 view .LVU1115
 3785 0038 8368     		ldr	r3, [r0, #8]
 870:Middlewares/lvgl/src/core/lv_obj_pos.c ****     }
ARM GAS  /tmp/ccmgRVpn.s 			page 105


 3786              		.loc 1 870 35 view .LVU1116
 3787 003a 9B8A     		ldrh	r3, [r3, #20]
 870:Middlewares/lvgl/src/core/lv_obj_pos.c ****     }
 3788              		.loc 1 870 18 view .LVU1117
 3789 003c 6344     		add	r3, r3, ip
 3790 003e CB80     		strh	r3, [r1, #6]	@ movhi
 3791              	.L176:
 872:Middlewares/lvgl/src/core/lv_obj_pos.c **** 
 3792              		.loc 1 872 1 view .LVU1118
 3793 0040 10BD     		pop	{r4, pc}
 3794              		.cfi_endproc
 3795              	.LFE191:
 3797              		.section	.text.lv_obj_hit_test,"ax",%progbits
 3798              		.align	1
 3799              		.global	lv_obj_hit_test
 3800              		.syntax unified
 3801              		.thumb
 3802              		.thumb_func
 3804              	lv_obj_hit_test:
 3805              	.LVL366:
 3806              	.LFB192:
 875:Middlewares/lvgl/src/core/lv_obj_pos.c ****     lv_area_t a;
 3807              		.loc 1 875 1 is_stmt 1 view -0
 3808              		.cfi_startproc
 3809              		@ args = 0, pretend = 0, frame = 16
 3810              		@ frame_needed = 0, uses_anonymous_args = 0
 875:Middlewares/lvgl/src/core/lv_obj_pos.c ****     lv_area_t a;
 3811              		.loc 1 875 1 is_stmt 0 view .LVU1120
 3812 0000 70B5     		push	{r4, r5, r6, lr}
 3813              	.LCFI65:
 3814              		.cfi_def_cfa_offset 16
 3815              		.cfi_offset 4, -16
 3816              		.cfi_offset 5, -12
 3817              		.cfi_offset 6, -8
 3818              		.cfi_offset 14, -4
 3819 0002 84B0     		sub	sp, sp, #16
 3820              	.LCFI66:
 3821              		.cfi_def_cfa_offset 32
 3822 0004 0546     		mov	r5, r0
 3823 0006 0C46     		mov	r4, r1
 876:Middlewares/lvgl/src/core/lv_obj_pos.c ****     lv_obj_get_click_area(obj, &a);
 3824              		.loc 1 876 5 is_stmt 1 view .LVU1121
 877:Middlewares/lvgl/src/core/lv_obj_pos.c ****     bool res = _lv_area_is_point_on(&a, point, 0);
 3825              		.loc 1 877 5 view .LVU1122
 3826 0008 02A9     		add	r1, sp, #8
 3827              	.LVL367:
 877:Middlewares/lvgl/src/core/lv_obj_pos.c ****     bool res = _lv_area_is_point_on(&a, point, 0);
 3828              		.loc 1 877 5 is_stmt 0 view .LVU1123
 3829 000a FFF7FEFF 		bl	lv_obj_get_click_area
 3830              	.LVL368:
 878:Middlewares/lvgl/src/core/lv_obj_pos.c ****     if(res == false) return false;
 3831              		.loc 1 878 5 is_stmt 1 view .LVU1124
 878:Middlewares/lvgl/src/core/lv_obj_pos.c ****     if(res == false) return false;
 3832              		.loc 1 878 16 is_stmt 0 view .LVU1125
 3833 000e 0022     		movs	r2, #0
 3834 0010 2146     		mov	r1, r4
 3835 0012 02A8     		add	r0, sp, #8
ARM GAS  /tmp/ccmgRVpn.s 			page 106


 3836 0014 FFF7FEFF 		bl	_lv_area_is_point_on
 3837              	.LVL369:
 879:Middlewares/lvgl/src/core/lv_obj_pos.c **** 
 3838              		.loc 1 879 5 is_stmt 1 view .LVU1126
 879:Middlewares/lvgl/src/core/lv_obj_pos.c **** 
 3839              		.loc 1 879 7 is_stmt 0 view .LVU1127
 3840 0018 0646     		mov	r6, r0
 3841 001a 10B9     		cbnz	r0, .L182
 3842              	.LVL370:
 3843              	.L180:
 890:Middlewares/lvgl/src/core/lv_obj_pos.c **** 
 3844              		.loc 1 890 1 discriminator 1 view .LVU1128
 3845 001c 3046     		mov	r0, r6
 3846 001e 04B0     		add	sp, sp, #16
 3847              	.LCFI67:
 3848              		.cfi_remember_state
 3849              		.cfi_def_cfa_offset 16
 3850              		@ sp needed
 3851 0020 70BD     		pop	{r4, r5, r6, pc}
 3852              	.LVL371:
 3853              	.L182:
 3854              	.LCFI68:
 3855              		.cfi_restore_state
 881:Middlewares/lvgl/src/core/lv_obj_pos.c ****         lv_hit_test_info_t hit_info;
 3856              		.loc 1 881 5 is_stmt 1 view .LVU1129
 881:Middlewares/lvgl/src/core/lv_obj_pos.c ****         lv_hit_test_info_t hit_info;
 3857              		.loc 1 881 8 is_stmt 0 view .LVU1130
 3858 0022 4FF48041 		mov	r1, #16384
 3859 0026 2846     		mov	r0, r5
 3860              	.LVL372:
 881:Middlewares/lvgl/src/core/lv_obj_pos.c ****         lv_hit_test_info_t hit_info;
 3861              		.loc 1 881 8 view .LVU1131
 3862 0028 FFF7FEFF 		bl	lv_obj_has_flag
 3863              	.LVL373:
 881:Middlewares/lvgl/src/core/lv_obj_pos.c ****         lv_hit_test_info_t hit_info;
 3864              		.loc 1 881 7 view .LVU1132
 3865 002c 0028     		cmp	r0, #0
 3866 002e F5D0     		beq	.L180
 3867              	.LBB210:
 882:Middlewares/lvgl/src/core/lv_obj_pos.c ****         hit_info.point = point;
 3868              		.loc 1 882 9 is_stmt 1 view .LVU1133
 883:Middlewares/lvgl/src/core/lv_obj_pos.c ****         hit_info.res = true;
 3869              		.loc 1 883 9 view .LVU1134
 883:Middlewares/lvgl/src/core/lv_obj_pos.c ****         hit_info.res = true;
 3870              		.loc 1 883 24 is_stmt 0 view .LVU1135
 3871 0030 0094     		str	r4, [sp]
 884:Middlewares/lvgl/src/core/lv_obj_pos.c ****         lv_event_send(obj, LV_EVENT_HIT_TEST, &hit_info);
 3872              		.loc 1 884 9 is_stmt 1 view .LVU1136
 884:Middlewares/lvgl/src/core/lv_obj_pos.c ****         lv_event_send(obj, LV_EVENT_HIT_TEST, &hit_info);
 3873              		.loc 1 884 22 is_stmt 0 view .LVU1137
 3874 0032 0123     		movs	r3, #1
 3875 0034 8DF80430 		strb	r3, [sp, #4]
 885:Middlewares/lvgl/src/core/lv_obj_pos.c ****         return hit_info.res;
 3876              		.loc 1 885 9 is_stmt 1 view .LVU1138
 3877 0038 6A46     		mov	r2, sp
 3878 003a 1121     		movs	r1, #17
 3879 003c 2846     		mov	r0, r5
ARM GAS  /tmp/ccmgRVpn.s 			page 107


 3880 003e FFF7FEFF 		bl	lv_event_send
 3881              	.LVL374:
 886:Middlewares/lvgl/src/core/lv_obj_pos.c ****     }
 3882              		.loc 1 886 9 view .LVU1139
 886:Middlewares/lvgl/src/core/lv_obj_pos.c ****     }
 3883              		.loc 1 886 24 is_stmt 0 view .LVU1140
 3884 0042 9DF80460 		ldrb	r6, [sp, #4]	@ zero_extendqisi2
 3885 0046 E9E7     		b	.L180
 3886              	.LBE210:
 3887              		.cfi_endproc
 3888              	.LFE192:
 3890              		.section	.text.lv_clamp_width,"ax",%progbits
 3891              		.align	1
 3892              		.global	lv_clamp_width
 3893              		.syntax unified
 3894              		.thumb
 3895              		.thumb_func
 3897              	lv_clamp_width:
 3898              	.LVL375:
 3899              	.LFB193:
 893:Middlewares/lvgl/src/core/lv_obj_pos.c ****     if(LV_COORD_IS_PCT(min_width)) min_width = (ref_width * LV_COORD_GET_PCT(min_width)) / 100;
 3900              		.loc 1 893 1 is_stmt 1 view -0
 3901              		.cfi_startproc
 3902              		@ args = 0, pretend = 0, frame = 0
 3903              		@ frame_needed = 0, uses_anonymous_args = 0
 893:Middlewares/lvgl/src/core/lv_obj_pos.c ****     if(LV_COORD_IS_PCT(min_width)) min_width = (ref_width * LV_COORD_GET_PCT(min_width)) / 100;
 3904              		.loc 1 893 1 is_stmt 0 view .LVU1142
 3905 0000 00B5     		push	{lr}
 3906              	.LCFI69:
 3907              		.cfi_def_cfa_offset 4
 3908              		.cfi_offset 14, -4
 894:Middlewares/lvgl/src/core/lv_obj_pos.c ****     if(LV_COORD_IS_PCT(max_width)) max_width = (ref_width * LV_COORD_GET_PCT(max_width)) / 100;
 3909              		.loc 1 894 5 is_stmt 1 view .LVU1143
 894:Middlewares/lvgl/src/core/lv_obj_pos.c ****     if(LV_COORD_IS_PCT(max_width)) max_width = (ref_width * LV_COORD_GET_PCT(max_width)) / 100;
 3910              		.loc 1 894 7 is_stmt 0 view .LVU1144
 3911 0002 01F4C04C 		and	ip, r1, #24576
 3912 0006 BCF5005F 		cmp	ip, #8192
 3913 000a 0CD0     		beq	.L191
 3914              	.L184:
 895:Middlewares/lvgl/src/core/lv_obj_pos.c ****     return LV_CLAMP(min_width, width, max_width);
 3915              		.loc 1 895 5 is_stmt 1 view .LVU1145
 895:Middlewares/lvgl/src/core/lv_obj_pos.c ****     return LV_CLAMP(min_width, width, max_width);
 3916              		.loc 1 895 7 is_stmt 0 view .LVU1146
 3917 000c 02F4C04C 		and	ip, r2, #24576
 3918 0010 BCF5005F 		cmp	ip, #8192
 3919 0014 1CD0     		beq	.L192
 3920              	.LVL376:
 3921              	.L187:
 896:Middlewares/lvgl/src/core/lv_obj_pos.c **** }
 3922              		.loc 1 896 5 is_stmt 1 view .LVU1147
 896:Middlewares/lvgl/src/core/lv_obj_pos.c **** }
 3923              		.loc 1 896 12 is_stmt 0 view .LVU1148
 3924 0016 9042     		cmp	r0, r2
 3925 0018 A8BF     		it	ge
 3926 001a 1046     		movge	r0, r2
 3927              	.LVL377:
 897:Middlewares/lvgl/src/core/lv_obj_pos.c **** 
ARM GAS  /tmp/ccmgRVpn.s 			page 108


 3928              		.loc 1 897 1 view .LVU1149
 3929 001c 8842     		cmp	r0, r1
 3930 001e B8BF     		it	lt
 3931 0020 0846     		movlt	r0, r1
 3932 0022 5DF804FB 		ldr	pc, [sp], #4
 3933              	.LVL378:
 3934              	.L191:
 894:Middlewares/lvgl/src/core/lv_obj_pos.c ****     if(LV_COORD_IS_PCT(max_width)) max_width = (ref_width * LV_COORD_GET_PCT(max_width)) / 100;
 3935              		.loc 1 894 8 discriminator 1 view .LVU1150
 3936 0026 21F4C04C 		bic	ip, r1, #24576
 3937 002a BCF5FA6F 		cmp	ip, #2000
 3938 002e EDDC     		bgt	.L184
 894:Middlewares/lvgl/src/core/lv_obj_pos.c ****     if(LV_COORD_IS_PCT(max_width)) max_width = (ref_width * LV_COORD_GET_PCT(max_width)) / 100;
 3939              		.loc 1 894 36 is_stmt 1 discriminator 2 view .LVU1151
 894:Middlewares/lvgl/src/core/lv_obj_pos.c ****     if(LV_COORD_IS_PCT(max_width)) max_width = (ref_width * LV_COORD_GET_PCT(max_width)) / 100;
 3940              		.loc 1 894 61 is_stmt 0 discriminator 2 view .LVU1152
 3941 0030 BCF57A7F 		cmp	ip, #1000
 3942 0034 01DD     		ble	.L186
 894:Middlewares/lvgl/src/core/lv_obj_pos.c ****     if(LV_COORD_IS_PCT(max_width)) max_width = (ref_width * LV_COORD_GET_PCT(max_width)) / 100;
 3943              		.loc 1 894 61 discriminator 3 view .LVU1153
 3944 0036 CCF57A7C 		rsb	ip, ip, #1000
 3945              	.L186:
 894:Middlewares/lvgl/src/core/lv_obj_pos.c ****     if(LV_COORD_IS_PCT(max_width)) max_width = (ref_width * LV_COORD_GET_PCT(max_width)) / 100;
 3946              		.loc 1 894 59 discriminator 6 view .LVU1154
 3947 003a 0CFB03FC 		mul	ip, ip, r3
 894:Middlewares/lvgl/src/core/lv_obj_pos.c ****     if(LV_COORD_IS_PCT(max_width)) max_width = (ref_width * LV_COORD_GET_PCT(max_width)) / 100;
 3948              		.loc 1 894 90 discriminator 6 view .LVU1155
 3949 003e 0E49     		ldr	r1, .L193
 3950              	.LVL379:
 894:Middlewares/lvgl/src/core/lv_obj_pos.c ****     if(LV_COORD_IS_PCT(max_width)) max_width = (ref_width * LV_COORD_GET_PCT(max_width)) / 100;
 3951              		.loc 1 894 90 discriminator 6 view .LVU1156
 3952 0040 81FB0C1E 		smull	r1, lr, r1, ip
 3953 0044 4FEAEC71 		asr	r1, ip, #31
 3954 0048 C1EB6E11 		rsb	r1, r1, lr, asr #5
 894:Middlewares/lvgl/src/core/lv_obj_pos.c ****     if(LV_COORD_IS_PCT(max_width)) max_width = (ref_width * LV_COORD_GET_PCT(max_width)) / 100;
 3955              		.loc 1 894 46 discriminator 6 view .LVU1157
 3956 004c 09B2     		sxth	r1, r1
 3957              	.LVL380:
 894:Middlewares/lvgl/src/core/lv_obj_pos.c ****     if(LV_COORD_IS_PCT(max_width)) max_width = (ref_width * LV_COORD_GET_PCT(max_width)) / 100;
 3958              		.loc 1 894 46 discriminator 6 view .LVU1158
 3959 004e DDE7     		b	.L184
 3960              	.L192:
 895:Middlewares/lvgl/src/core/lv_obj_pos.c ****     return LV_CLAMP(min_width, width, max_width);
 3961              		.loc 1 895 8 discriminator 1 view .LVU1159
 3962 0050 22F4C04C 		bic	ip, r2, #24576
 3963 0054 BCF5FA6F 		cmp	ip, #2000
 3964 0058 DDDC     		bgt	.L187
 895:Middlewares/lvgl/src/core/lv_obj_pos.c ****     return LV_CLAMP(min_width, width, max_width);
 3965              		.loc 1 895 36 is_stmt 1 discriminator 2 view .LVU1160
 895:Middlewares/lvgl/src/core/lv_obj_pos.c ****     return LV_CLAMP(min_width, width, max_width);
 3966              		.loc 1 895 61 is_stmt 0 discriminator 2 view .LVU1161
 3967 005a BCF57A7F 		cmp	ip, #1000
 3968 005e 01DD     		ble	.L189
 895:Middlewares/lvgl/src/core/lv_obj_pos.c ****     return LV_CLAMP(min_width, width, max_width);
 3969              		.loc 1 895 61 discriminator 3 view .LVU1162
 3970 0060 CCF57A7C 		rsb	ip, ip, #1000
 3971              	.L189:
ARM GAS  /tmp/ccmgRVpn.s 			page 109


 895:Middlewares/lvgl/src/core/lv_obj_pos.c ****     return LV_CLAMP(min_width, width, max_width);
 3972              		.loc 1 895 59 discriminator 6 view .LVU1163
 3973 0064 0CFB03F3 		mul	r3, ip, r3
 3974              	.LVL381:
 895:Middlewares/lvgl/src/core/lv_obj_pos.c ****     return LV_CLAMP(min_width, width, max_width);
 3975              		.loc 1 895 90 discriminator 6 view .LVU1164
 3976 0068 034A     		ldr	r2, .L193
 3977              	.LVL382:
 895:Middlewares/lvgl/src/core/lv_obj_pos.c ****     return LV_CLAMP(min_width, width, max_width);
 3978              		.loc 1 895 90 discriminator 6 view .LVU1165
 3979 006a 82FB03C2 		smull	ip, r2, r2, r3
 3980 006e DB17     		asrs	r3, r3, #31
 3981 0070 C3EB6213 		rsb	r3, r3, r2, asr #5
 895:Middlewares/lvgl/src/core/lv_obj_pos.c ****     return LV_CLAMP(min_width, width, max_width);
 3982              		.loc 1 895 46 discriminator 6 view .LVU1166
 3983 0074 1AB2     		sxth	r2, r3
 3984              	.LVL383:
 895:Middlewares/lvgl/src/core/lv_obj_pos.c ****     return LV_CLAMP(min_width, width, max_width);
 3985              		.loc 1 895 46 discriminator 6 view .LVU1167
 3986 0076 CEE7     		b	.L187
 3987              	.L194:
 3988              		.align	2
 3989              	.L193:
 3990 0078 1F85EB51 		.word	1374389535
 3991              		.cfi_endproc
 3992              	.LFE193:
 3994              		.section	.text.lv_clamp_height,"ax",%progbits
 3995              		.align	1
 3996              		.global	lv_clamp_height
 3997              		.syntax unified
 3998              		.thumb
 3999              		.thumb_func
 4001              	lv_clamp_height:
 4002              	.LVL384:
 4003              	.LFB194:
 900:Middlewares/lvgl/src/core/lv_obj_pos.c ****     if(LV_COORD_IS_PCT(min_height)) min_height = (ref_height * LV_COORD_GET_PCT(min_height)) / 100;
 4004              		.loc 1 900 1 is_stmt 1 view -0
 4005              		.cfi_startproc
 4006              		@ args = 0, pretend = 0, frame = 0
 4007              		@ frame_needed = 0, uses_anonymous_args = 0
 900:Middlewares/lvgl/src/core/lv_obj_pos.c ****     if(LV_COORD_IS_PCT(min_height)) min_height = (ref_height * LV_COORD_GET_PCT(min_height)) / 100;
 4008              		.loc 1 900 1 is_stmt 0 view .LVU1169
 4009 0000 00B5     		push	{lr}
 4010              	.LCFI70:
 4011              		.cfi_def_cfa_offset 4
 4012              		.cfi_offset 14, -4
 901:Middlewares/lvgl/src/core/lv_obj_pos.c ****     if(LV_COORD_IS_PCT(max_height)) max_height = (ref_height * LV_COORD_GET_PCT(max_height)) / 100;
 4013              		.loc 1 901 5 is_stmt 1 view .LVU1170
 901:Middlewares/lvgl/src/core/lv_obj_pos.c ****     if(LV_COORD_IS_PCT(max_height)) max_height = (ref_height * LV_COORD_GET_PCT(max_height)) / 100;
 4014              		.loc 1 901 7 is_stmt 0 view .LVU1171
 4015 0002 01F4C04C 		and	ip, r1, #24576
 4016 0006 BCF5005F 		cmp	ip, #8192
 4017 000a 0CD0     		beq	.L203
 4018              	.L196:
 902:Middlewares/lvgl/src/core/lv_obj_pos.c ****     return LV_CLAMP(min_height, height, max_height);
 4019              		.loc 1 902 5 is_stmt 1 view .LVU1172
 902:Middlewares/lvgl/src/core/lv_obj_pos.c ****     return LV_CLAMP(min_height, height, max_height);
ARM GAS  /tmp/ccmgRVpn.s 			page 110


 4020              		.loc 1 902 7 is_stmt 0 view .LVU1173
 4021 000c 02F4C04C 		and	ip, r2, #24576
 4022 0010 BCF5005F 		cmp	ip, #8192
 4023 0014 1CD0     		beq	.L204
 4024              	.LVL385:
 4025              	.L199:
 903:Middlewares/lvgl/src/core/lv_obj_pos.c **** }
 4026              		.loc 1 903 5 is_stmt 1 view .LVU1174
 903:Middlewares/lvgl/src/core/lv_obj_pos.c **** }
 4027              		.loc 1 903 12 is_stmt 0 view .LVU1175
 4028 0016 9042     		cmp	r0, r2
 4029 0018 A8BF     		it	ge
 4030 001a 1046     		movge	r0, r2
 4031              	.LVL386:
 904:Middlewares/lvgl/src/core/lv_obj_pos.c **** 
 4032              		.loc 1 904 1 view .LVU1176
 4033 001c 8842     		cmp	r0, r1
 4034 001e B8BF     		it	lt
 4035 0020 0846     		movlt	r0, r1
 4036 0022 5DF804FB 		ldr	pc, [sp], #4
 4037              	.LVL387:
 4038              	.L203:
 901:Middlewares/lvgl/src/core/lv_obj_pos.c ****     if(LV_COORD_IS_PCT(max_height)) max_height = (ref_height * LV_COORD_GET_PCT(max_height)) / 100;
 4039              		.loc 1 901 8 discriminator 1 view .LVU1177
 4040 0026 21F4C04C 		bic	ip, r1, #24576
 4041 002a BCF5FA6F 		cmp	ip, #2000
 4042 002e EDDC     		bgt	.L196
 901:Middlewares/lvgl/src/core/lv_obj_pos.c ****     if(LV_COORD_IS_PCT(max_height)) max_height = (ref_height * LV_COORD_GET_PCT(max_height)) / 100;
 4043              		.loc 1 901 37 is_stmt 1 discriminator 2 view .LVU1178
 901:Middlewares/lvgl/src/core/lv_obj_pos.c ****     if(LV_COORD_IS_PCT(max_height)) max_height = (ref_height * LV_COORD_GET_PCT(max_height)) / 100;
 4044              		.loc 1 901 64 is_stmt 0 discriminator 2 view .LVU1179
 4045 0030 BCF57A7F 		cmp	ip, #1000
 4046 0034 01DD     		ble	.L198
 901:Middlewares/lvgl/src/core/lv_obj_pos.c ****     if(LV_COORD_IS_PCT(max_height)) max_height = (ref_height * LV_COORD_GET_PCT(max_height)) / 100;
 4047              		.loc 1 901 64 discriminator 3 view .LVU1180
 4048 0036 CCF57A7C 		rsb	ip, ip, #1000
 4049              	.L198:
 901:Middlewares/lvgl/src/core/lv_obj_pos.c ****     if(LV_COORD_IS_PCT(max_height)) max_height = (ref_height * LV_COORD_GET_PCT(max_height)) / 100;
 4050              		.loc 1 901 62 discriminator 6 view .LVU1181
 4051 003a 0CFB03FC 		mul	ip, ip, r3
 901:Middlewares/lvgl/src/core/lv_obj_pos.c ****     if(LV_COORD_IS_PCT(max_height)) max_height = (ref_height * LV_COORD_GET_PCT(max_height)) / 100;
 4052              		.loc 1 901 94 discriminator 6 view .LVU1182
 4053 003e 0E49     		ldr	r1, .L205
 4054              	.LVL388:
 901:Middlewares/lvgl/src/core/lv_obj_pos.c ****     if(LV_COORD_IS_PCT(max_height)) max_height = (ref_height * LV_COORD_GET_PCT(max_height)) / 100;
 4055              		.loc 1 901 94 discriminator 6 view .LVU1183
 4056 0040 81FB0C1E 		smull	r1, lr, r1, ip
 4057 0044 4FEAEC71 		asr	r1, ip, #31
 4058 0048 C1EB6E11 		rsb	r1, r1, lr, asr #5
 901:Middlewares/lvgl/src/core/lv_obj_pos.c ****     if(LV_COORD_IS_PCT(max_height)) max_height = (ref_height * LV_COORD_GET_PCT(max_height)) / 100;
 4059              		.loc 1 901 48 discriminator 6 view .LVU1184
 4060 004c 09B2     		sxth	r1, r1
 4061              	.LVL389:
 901:Middlewares/lvgl/src/core/lv_obj_pos.c ****     if(LV_COORD_IS_PCT(max_height)) max_height = (ref_height * LV_COORD_GET_PCT(max_height)) / 100;
 4062              		.loc 1 901 48 discriminator 6 view .LVU1185
 4063 004e DDE7     		b	.L196
 4064              	.L204:
ARM GAS  /tmp/ccmgRVpn.s 			page 111


 902:Middlewares/lvgl/src/core/lv_obj_pos.c ****     return LV_CLAMP(min_height, height, max_height);
 4065              		.loc 1 902 8 discriminator 1 view .LVU1186
 4066 0050 22F4C04C 		bic	ip, r2, #24576
 4067 0054 BCF5FA6F 		cmp	ip, #2000
 4068 0058 DDDC     		bgt	.L199
 902:Middlewares/lvgl/src/core/lv_obj_pos.c ****     return LV_CLAMP(min_height, height, max_height);
 4069              		.loc 1 902 37 is_stmt 1 discriminator 2 view .LVU1187
 902:Middlewares/lvgl/src/core/lv_obj_pos.c ****     return LV_CLAMP(min_height, height, max_height);
 4070              		.loc 1 902 64 is_stmt 0 discriminator 2 view .LVU1188
 4071 005a BCF57A7F 		cmp	ip, #1000
 4072 005e 01DD     		ble	.L201
 902:Middlewares/lvgl/src/core/lv_obj_pos.c ****     return LV_CLAMP(min_height, height, max_height);
 4073              		.loc 1 902 64 discriminator 3 view .LVU1189
 4074 0060 CCF57A7C 		rsb	ip, ip, #1000
 4075              	.L201:
 902:Middlewares/lvgl/src/core/lv_obj_pos.c ****     return LV_CLAMP(min_height, height, max_height);
 4076              		.loc 1 902 62 discriminator 6 view .LVU1190
 4077 0064 0CFB03F3 		mul	r3, ip, r3
 4078              	.LVL390:
 902:Middlewares/lvgl/src/core/lv_obj_pos.c ****     return LV_CLAMP(min_height, height, max_height);
 4079              		.loc 1 902 94 discriminator 6 view .LVU1191
 4080 0068 034A     		ldr	r2, .L205
 4081              	.LVL391:
 902:Middlewares/lvgl/src/core/lv_obj_pos.c ****     return LV_CLAMP(min_height, height, max_height);
 4082              		.loc 1 902 94 discriminator 6 view .LVU1192
 4083 006a 82FB03C2 		smull	ip, r2, r2, r3
 4084 006e DB17     		asrs	r3, r3, #31
 4085 0070 C3EB6213 		rsb	r3, r3, r2, asr #5
 902:Middlewares/lvgl/src/core/lv_obj_pos.c ****     return LV_CLAMP(min_height, height, max_height);
 4086              		.loc 1 902 48 discriminator 6 view .LVU1193
 4087 0074 1AB2     		sxth	r2, r3
 4088              	.LVL392:
 902:Middlewares/lvgl/src/core/lv_obj_pos.c ****     return LV_CLAMP(min_height, height, max_height);
 4089              		.loc 1 902 48 discriminator 6 view .LVU1194
 4090 0076 CEE7     		b	.L199
 4091              	.L206:
 4092              		.align	2
 4093              	.L205:
 4094 0078 1F85EB51 		.word	1374389535
 4095              		.cfi_endproc
 4096              	.LFE194:
 4098              		.section	.text.lv_obj_refr_size,"ax",%progbits
 4099              		.align	1
 4100              		.global	lv_obj_refr_size
 4101              		.syntax unified
 4102              		.thumb
 4103              		.thumb_func
 4105              	lv_obj_refr_size:
 4106              	.LVL393:
 4107              	.LFB156:
  85:Middlewares/lvgl/src/core/lv_obj_pos.c ****     LV_ASSERT_OBJ(obj, MY_CLASS);
 4108              		.loc 1 85 1 is_stmt 1 view -0
 4109              		.cfi_startproc
 4110              		@ args = 0, pretend = 0, frame = 24
 4111              		@ frame_needed = 0, uses_anonymous_args = 0
  86:Middlewares/lvgl/src/core/lv_obj_pos.c **** 
 4112              		.loc 1 86 5 view .LVU1196
ARM GAS  /tmp/ccmgRVpn.s 			page 112


  86:Middlewares/lvgl/src/core/lv_obj_pos.c **** 
 4113              		.loc 1 86 5 view .LVU1197
  86:Middlewares/lvgl/src/core/lv_obj_pos.c **** 
 4114              		.loc 1 86 5 view .LVU1198
  89:Middlewares/lvgl/src/core/lv_obj_pos.c **** 
 4115              		.loc 1 89 5 view .LVU1199
  89:Middlewares/lvgl/src/core/lv_obj_pos.c **** 
 4116              		.loc 1 89 22 is_stmt 0 view .LVU1200
 4117 0000 90F82330 		ldrb	r3, [r0, #35]	@ zero_extendqisi2
 4118 0004 03F00603 		and	r3, r3, #6
  89:Middlewares/lvgl/src/core/lv_obj_pos.c **** 
 4119              		.loc 1 89 7 view .LVU1201
 4120 0008 062B     		cmp	r3, #6
 4121 000a 00F06A81 		beq	.L230
  85:Middlewares/lvgl/src/core/lv_obj_pos.c ****     LV_ASSERT_OBJ(obj, MY_CLASS);
 4122              		.loc 1 85 1 view .LVU1202
 4123 000e 2DE9F04F 		push	{r4, r5, r6, r7, r8, r9, r10, fp, lr}
 4124              	.LCFI71:
 4125              		.cfi_def_cfa_offset 36
 4126              		.cfi_offset 4, -36
 4127              		.cfi_offset 5, -32
 4128              		.cfi_offset 6, -28
 4129              		.cfi_offset 7, -24
 4130              		.cfi_offset 8, -20
 4131              		.cfi_offset 9, -16
 4132              		.cfi_offset 10, -12
 4133              		.cfi_offset 11, -8
 4134              		.cfi_offset 14, -4
 4135 0012 87B0     		sub	sp, sp, #28
 4136              	.LCFI72:
 4137              		.cfi_def_cfa_offset 64
 4138 0014 0446     		mov	r4, r0
  91:Middlewares/lvgl/src/core/lv_obj_pos.c ****     if(parent == NULL) return false;
 4139              		.loc 1 91 5 is_stmt 1 view .LVU1203
  91:Middlewares/lvgl/src/core/lv_obj_pos.c ****     if(parent == NULL) return false;
 4140              		.loc 1 91 25 is_stmt 0 view .LVU1204
 4141 0016 FFF7FEFF 		bl	lv_obj_get_parent
 4142              	.LVL394:
  92:Middlewares/lvgl/src/core/lv_obj_pos.c **** 
 4143              		.loc 1 92 5 is_stmt 1 view .LVU1205
  92:Middlewares/lvgl/src/core/lv_obj_pos.c **** 
 4144              		.loc 1 92 7 is_stmt 0 view .LVU1206
 4145 001a 0546     		mov	r5, r0
 4146 001c 0028     		cmp	r0, #0
 4147 001e 00F06281 		beq	.L231
  94:Middlewares/lvgl/src/core/lv_obj_pos.c ****     lv_coord_t sl_ori = lv_obj_get_scroll_left(obj);
 4148              		.loc 1 94 5 is_stmt 1 view .LVU1207
  95:Middlewares/lvgl/src/core/lv_obj_pos.c ****     bool w_content = false;
 4149              		.loc 1 95 5 view .LVU1208
  95:Middlewares/lvgl/src/core/lv_obj_pos.c ****     bool w_content = false;
 4150              		.loc 1 95 25 is_stmt 0 view .LVU1209
 4151 0022 2046     		mov	r0, r4
 4152              	.LVL395:
  95:Middlewares/lvgl/src/core/lv_obj_pos.c ****     bool w_content = false;
 4153              		.loc 1 95 25 view .LVU1210
 4154 0024 FFF7FEFF 		bl	lv_obj_get_scroll_left
 4155              	.LVL396:
ARM GAS  /tmp/ccmgRVpn.s 			page 113


 4156 0028 0646     		mov	r6, r0
 4157              	.LVL397:
  96:Middlewares/lvgl/src/core/lv_obj_pos.c ****     if(obj->w_layout) {
 4158              		.loc 1 96 5 is_stmt 1 view .LVU1211
  97:Middlewares/lvgl/src/core/lv_obj_pos.c ****         w = lv_obj_get_width(obj);
 4159              		.loc 1 97 5 view .LVU1212
  97:Middlewares/lvgl/src/core/lv_obj_pos.c ****         w = lv_obj_get_width(obj);
 4160              		.loc 1 97 8 is_stmt 0 view .LVU1213
 4161 002a 94F82330 		ldrb	r3, [r4, #35]	@ zero_extendqisi2
  97:Middlewares/lvgl/src/core/lv_obj_pos.c ****         w = lv_obj_get_width(obj);
 4162              		.loc 1 97 7 view .LVU1214
 4163 002e 13F0040F 		tst	r3, #4
 4164 0032 00F08180 		beq	.L209
  98:Middlewares/lvgl/src/core/lv_obj_pos.c ****     } else {
 4165              		.loc 1 98 9 is_stmt 1 view .LVU1215
  98:Middlewares/lvgl/src/core/lv_obj_pos.c ****     } else {
 4166              		.loc 1 98 13 is_stmt 0 view .LVU1216
 4167 0036 2046     		mov	r0, r4
 4168 0038 FFF7FEFF 		bl	lv_obj_get_width
 4169              	.LVL398:
  98:Middlewares/lvgl/src/core/lv_obj_pos.c ****     } else {
 4170              		.loc 1 98 11 view .LVU1217
 4171 003c ADF81600 		strh	r0, [sp, #22]	@ movhi
  96:Middlewares/lvgl/src/core/lv_obj_pos.c ****     if(obj->w_layout) {
 4172              		.loc 1 96 10 view .LVU1218
 4173 0040 4FF00008 		mov	r8, #0
 4174              	.LVL399:
 4175              	.L210:
 120:Middlewares/lvgl/src/core/lv_obj_pos.c ****     lv_coord_t st_ori = lv_obj_get_scroll_top(obj);
 4176              		.loc 1 120 5 is_stmt 1 view .LVU1219
 121:Middlewares/lvgl/src/core/lv_obj_pos.c ****     bool h_content = false;
 4177              		.loc 1 121 5 view .LVU1220
 121:Middlewares/lvgl/src/core/lv_obj_pos.c ****     bool h_content = false;
 4178              		.loc 1 121 25 is_stmt 0 view .LVU1221
 4179 0044 2046     		mov	r0, r4
 4180 0046 FFF7FEFF 		bl	lv_obj_get_scroll_top
 4181              	.LVL400:
 4182 004a 0746     		mov	r7, r0
 4183              	.LVL401:
 122:Middlewares/lvgl/src/core/lv_obj_pos.c ****     if(obj->h_layout) {
 4184              		.loc 1 122 5 is_stmt 1 view .LVU1222
 123:Middlewares/lvgl/src/core/lv_obj_pos.c ****         h = lv_obj_get_height(obj);
 4185              		.loc 1 123 5 view .LVU1223
 123:Middlewares/lvgl/src/core/lv_obj_pos.c ****         h = lv_obj_get_height(obj);
 4186              		.loc 1 123 8 is_stmt 0 view .LVU1224
 4187 004c 94F82330 		ldrb	r3, [r4, #35]	@ zero_extendqisi2
 123:Middlewares/lvgl/src/core/lv_obj_pos.c ****         h = lv_obj_get_height(obj);
 4188              		.loc 1 123 7 view .LVU1225
 4189 0050 13F0020F 		tst	r3, #2
 4190 0054 00F0D580 		beq	.L216
 124:Middlewares/lvgl/src/core/lv_obj_pos.c ****     } else {
 4191              		.loc 1 124 9 is_stmt 1 view .LVU1226
 124:Middlewares/lvgl/src/core/lv_obj_pos.c ****     } else {
 4192              		.loc 1 124 13 is_stmt 0 view .LVU1227
 4193 0058 2046     		mov	r0, r4
 4194 005a FFF7FEFF 		bl	lv_obj_get_height
 4195              	.LVL402:
ARM GAS  /tmp/ccmgRVpn.s 			page 114


 124:Middlewares/lvgl/src/core/lv_obj_pos.c ****     } else {
 4196              		.loc 1 124 11 view .LVU1228
 4197 005e ADF81400 		strh	r0, [sp, #20]	@ movhi
 122:Middlewares/lvgl/src/core/lv_obj_pos.c ****     if(obj->h_layout) {
 4198              		.loc 1 122 10 view .LVU1229
 4199 0062 4FF00009 		mov	r9, #0
 4200              	.LVL403:
 4201              	.L217:
 146:Middlewares/lvgl/src/core/lv_obj_pos.c ****         lv_obj_scroll_to(obj, sl_ori, st_ori, LV_ANIM_OFF);
 4202              		.loc 1 146 5 is_stmt 1 view .LVU1230
 146:Middlewares/lvgl/src/core/lv_obj_pos.c ****         lv_obj_scroll_to(obj, sl_ori, st_ori, LV_ANIM_OFF);
 4203              		.loc 1 146 7 is_stmt 0 view .LVU1231
 4204 0066 B8F1000F 		cmp	r8, #0
 4205 006a 02D1     		bne	.L223
 146:Middlewares/lvgl/src/core/lv_obj_pos.c ****         lv_obj_scroll_to(obj, sl_ori, st_ori, LV_ANIM_OFF);
 4206              		.loc 1 146 18 discriminator 1 view .LVU1232
 4207 006c B9F1000F 		cmp	r9, #0
 4208 0070 05D0     		beq	.L224
 4209              	.L223:
 147:Middlewares/lvgl/src/core/lv_obj_pos.c ****     }
 4210              		.loc 1 147 9 is_stmt 1 view .LVU1233
 4211 0072 0023     		movs	r3, #0
 4212 0074 3A46     		mov	r2, r7
 4213 0076 3146     		mov	r1, r6
 4214 0078 2046     		mov	r0, r4
 4215 007a FFF7FEFF 		bl	lv_obj_scroll_to
 4216              	.LVL404:
 4217              	.L224:
 152:Middlewares/lvgl/src/core/lv_obj_pos.c **** 
 4218              		.loc 1 152 5 view .LVU1234
 152:Middlewares/lvgl/src/core/lv_obj_pos.c **** 
 4219              		.loc 1 152 8 is_stmt 0 view .LVU1235
 4220 007e 2046     		mov	r0, r4
 4221 0080 FFF7FEFF 		bl	lv_obj_get_width
 4222              	.LVL405:
 152:Middlewares/lvgl/src/core/lv_obj_pos.c **** 
 4223              		.loc 1 152 30 view .LVU1236
 4224 0084 BDF91630 		ldrsh	r3, [sp, #22]
 152:Middlewares/lvgl/src/core/lv_obj_pos.c **** 
 4225              		.loc 1 152 7 view .LVU1237
 4226 0088 9842     		cmp	r0, r3
 4227 008a 07D1     		bne	.L225
 152:Middlewares/lvgl/src/core/lv_obj_pos.c **** 
 4228              		.loc 1 152 38 discriminator 1 view .LVU1238
 4229 008c 2046     		mov	r0, r4
 4230 008e FFF7FEFF 		bl	lv_obj_get_height
 4231              	.LVL406:
 152:Middlewares/lvgl/src/core/lv_obj_pos.c **** 
 4232              		.loc 1 152 61 discriminator 1 view .LVU1239
 4233 0092 BDF91430 		ldrsh	r3, [sp, #20]
 152:Middlewares/lvgl/src/core/lv_obj_pos.c **** 
 4234              		.loc 1 152 35 discriminator 1 view .LVU1240
 4235 0096 9842     		cmp	r0, r3
 4236 0098 00F02781 		beq	.L236
 4237              	.L225:
 155:Middlewares/lvgl/src/core/lv_obj_pos.c **** 
 4238              		.loc 1 155 5 is_stmt 1 view .LVU1241
ARM GAS  /tmp/ccmgRVpn.s 			page 115


 4239 009c 2046     		mov	r0, r4
 4240 009e FFF7FEFF 		bl	lv_obj_invalidate
 4241              	.LVL407:
 158:Middlewares/lvgl/src/core/lv_obj_pos.c ****     lv_obj_get_coords(obj, &ori);
 4242              		.loc 1 158 5 view .LVU1242
 159:Middlewares/lvgl/src/core/lv_obj_pos.c **** 
 4243              		.loc 1 159 5 view .LVU1243
 4244 00a2 03A9     		add	r1, sp, #12
 4245 00a4 2046     		mov	r0, r4
 4246 00a6 FFF7FEFF 		bl	lv_obj_get_coords
 4247              	.LVL408:
 162:Middlewares/lvgl/src/core/lv_obj_pos.c ****     lv_obj_get_content_coords(parent, &parent_fit_area);
 4248              		.loc 1 162 5 view .LVU1244
 163:Middlewares/lvgl/src/core/lv_obj_pos.c **** 
 4249              		.loc 1 163 5 view .LVU1245
 4250 00aa 01A9     		add	r1, sp, #4
 4251 00ac 2846     		mov	r0, r5
 4252 00ae FFF7FEFF 		bl	lv_obj_get_content_coords
 4253              	.LVL409:
 167:Middlewares/lvgl/src/core/lv_obj_pos.c ****     if(!on1) lv_obj_scrollbar_invalidate(parent);
 4254              		.loc 1 167 5 view .LVU1246
 167:Middlewares/lvgl/src/core/lv_obj_pos.c ****     if(!on1) lv_obj_scrollbar_invalidate(parent);
 4255              		.loc 1 167 16 is_stmt 0 view .LVU1247
 4256 00b2 0022     		movs	r2, #0
 4257 00b4 01A9     		add	r1, sp, #4
 4258 00b6 03A8     		add	r0, sp, #12
 4259 00b8 FFF7FEFF 		bl	_lv_area_is_in
 4260              	.LVL410:
 168:Middlewares/lvgl/src/core/lv_obj_pos.c **** 
 4261              		.loc 1 168 5 is_stmt 1 view .LVU1248
 168:Middlewares/lvgl/src/core/lv_obj_pos.c **** 
 4262              		.loc 1 168 7 is_stmt 0 view .LVU1249
 4263 00bc 0646     		mov	r6, r0
 4264              	.LVL411:
 168:Middlewares/lvgl/src/core/lv_obj_pos.c **** 
 4265              		.loc 1 168 7 view .LVU1250
 4266 00be 0028     		cmp	r0, #0
 4267 00c0 00F00381 		beq	.L242
 4268              	.LVL412:
 4269              	.L226:
 172:Middlewares/lvgl/src/core/lv_obj_pos.c ****     if(lv_obj_get_style_base_dir(obj, LV_PART_MAIN) == LV_BASE_DIR_RTL) {
 4270              		.loc 1 172 5 is_stmt 1 view .LVU1251
 172:Middlewares/lvgl/src/core/lv_obj_pos.c ****     if(lv_obj_get_style_base_dir(obj, LV_PART_MAIN) == LV_BASE_DIR_RTL) {
 4271              		.loc 1 172 33 is_stmt 0 view .LVU1252
 4272 00c4 E38A     		ldrh	r3, [r4, #22]
 172:Middlewares/lvgl/src/core/lv_obj_pos.c ****     if(lv_obj_get_style_base_dir(obj, LV_PART_MAIN) == LV_BASE_DIR_RTL) {
 4273              		.loc 1 172 37 view .LVU1253
 4274 00c6 BDF81420 		ldrh	r2, [sp, #20]
 4275 00ca 1344     		add	r3, r3, r2
 4276 00cc 9BB2     		uxth	r3, r3
 172:Middlewares/lvgl/src/core/lv_obj_pos.c ****     if(lv_obj_get_style_base_dir(obj, LV_PART_MAIN) == LV_BASE_DIR_RTL) {
 4277              		.loc 1 172 41 view .LVU1254
 4278 00ce 013B     		subs	r3, r3, #1
 172:Middlewares/lvgl/src/core/lv_obj_pos.c ****     if(lv_obj_get_style_base_dir(obj, LV_PART_MAIN) == LV_BASE_DIR_RTL) {
 4279              		.loc 1 172 20 view .LVU1255
 4280 00d0 6383     		strh	r3, [r4, #26]	@ movhi
 173:Middlewares/lvgl/src/core/lv_obj_pos.c ****         obj->coords.x1 = obj->coords.x2 - w + 1;
ARM GAS  /tmp/ccmgRVpn.s 			page 116


 4281              		.loc 1 173 5 is_stmt 1 view .LVU1256
 4282              	.LVL413:
 4283              	.LBB211:
 4284              	.LBI211:
 187:Middlewares/lvgl/src/core/lv_obj_style_gen.h **** {
 4285              		.loc 2 187 29 view .LVU1257
 4286              	.LBB212:
 189:Middlewares/lvgl/src/core/lv_obj_style_gen.h ****     return (lv_base_dir_t)v.num;
 4287              		.loc 2 189 5 view .LVU1258
 189:Middlewares/lvgl/src/core/lv_obj_style_gen.h ****     return (lv_base_dir_t)v.num;
 4288              		.loc 2 189 26 is_stmt 0 view .LVU1259
 4289 00d2 41F26A42 		movw	r2, #5226
 4290 00d6 0021     		movs	r1, #0
 4291 00d8 2046     		mov	r0, r4
 4292 00da FFF7FEFF 		bl	lv_obj_get_style_prop
 4293              	.LVL414:
 190:Middlewares/lvgl/src/core/lv_obj_style_gen.h **** }
 4294              		.loc 2 190 5 is_stmt 1 view .LVU1260
 190:Middlewares/lvgl/src/core/lv_obj_style_gen.h **** }
 4295              		.loc 2 190 12 is_stmt 0 view .LVU1261
 4296 00de C0B2     		uxtb	r0, r0
 4297              	.LVL415:
 190:Middlewares/lvgl/src/core/lv_obj_style_gen.h **** }
 4298              		.loc 2 190 12 view .LVU1262
 4299              	.LBE212:
 4300              	.LBE211:
 173:Middlewares/lvgl/src/core/lv_obj_pos.c ****         obj->coords.x1 = obj->coords.x2 - w + 1;
 4301              		.loc 1 173 7 view .LVU1263
 4302 00e0 0128     		cmp	r0, #1
 4303 00e2 00F0F680 		beq	.L243
 177:Middlewares/lvgl/src/core/lv_obj_pos.c ****     }
 4304              		.loc 1 177 9 is_stmt 1 view .LVU1264
 177:Middlewares/lvgl/src/core/lv_obj_pos.c ****     }
 4305              		.loc 1 177 37 is_stmt 0 view .LVU1265
 4306 00e6 A38A     		ldrh	r3, [r4, #20]
 177:Middlewares/lvgl/src/core/lv_obj_pos.c ****     }
 4307              		.loc 1 177 41 view .LVU1266
 4308 00e8 BDF81620 		ldrh	r2, [sp, #22]
 4309 00ec 1344     		add	r3, r3, r2
 4310 00ee 9BB2     		uxth	r3, r3
 177:Middlewares/lvgl/src/core/lv_obj_pos.c ****     }
 4311              		.loc 1 177 45 view .LVU1267
 4312 00f0 013B     		subs	r3, r3, #1
 177:Middlewares/lvgl/src/core/lv_obj_pos.c ****     }
 4313              		.loc 1 177 24 view .LVU1268
 4314 00f2 2383     		strh	r3, [r4, #24]	@ movhi
 4315              	.L228:
 181:Middlewares/lvgl/src/core/lv_obj_pos.c **** 
 4316              		.loc 1 181 5 is_stmt 1 view .LVU1269
 4317 00f4 03AA     		add	r2, sp, #12
 4318 00f6 2321     		movs	r1, #35
 4319 00f8 2046     		mov	r0, r4
 4320 00fa FFF7FEFF 		bl	lv_event_send
 4321              	.LVL416:
 184:Middlewares/lvgl/src/core/lv_obj_pos.c **** 
 4322              		.loc 1 184 5 view .LVU1270
 4323 00fe 2246     		mov	r2, r4
ARM GAS  /tmp/ccmgRVpn.s 			page 117


 4324 0100 2221     		movs	r1, #34
 4325 0102 2846     		mov	r0, r5
 4326 0104 FFF7FEFF 		bl	lv_event_send
 4327              	.LVL417:
 187:Middlewares/lvgl/src/core/lv_obj_pos.c **** 
 4328              		.loc 1 187 5 view .LVU1271
 4329 0108 2046     		mov	r0, r4
 4330 010a FFF7FEFF 		bl	lv_obj_invalidate
 4331              	.LVL418:
 189:Middlewares/lvgl/src/core/lv_obj_pos.c **** 
 4332              		.loc 1 189 5 view .LVU1272
 4333 010e 0021     		movs	r1, #0
 4334 0110 2046     		mov	r0, r4
 4335 0112 FFF7FEFF 		bl	lv_obj_readjust_scroll
 4336              	.LVL419:
 193:Middlewares/lvgl/src/core/lv_obj_pos.c ****     if(on1 || (!on1 && on2)) lv_obj_scrollbar_invalidate(parent);
 4337              		.loc 1 193 5 view .LVU1273
 193:Middlewares/lvgl/src/core/lv_obj_pos.c ****     if(on1 || (!on1 && on2)) lv_obj_scrollbar_invalidate(parent);
 4338              		.loc 1 193 16 is_stmt 0 view .LVU1274
 4339 0116 0022     		movs	r2, #0
 4340 0118 01A9     		add	r1, sp, #4
 4341 011a 04F11400 		add	r0, r4, #20
 4342 011e FFF7FEFF 		bl	_lv_area_is_in
 4343              	.LVL420:
 194:Middlewares/lvgl/src/core/lv_obj_pos.c **** 
 4344              		.loc 1 194 5 is_stmt 1 view .LVU1275
 194:Middlewares/lvgl/src/core/lv_obj_pos.c **** 
 4345              		.loc 1 194 7 is_stmt 0 view .LVU1276
 4346 0122 16B9     		cbnz	r6, .L229
 194:Middlewares/lvgl/src/core/lv_obj_pos.c **** 
 4347              		.loc 1 194 21 discriminator 3 view .LVU1277
 4348 0124 0028     		cmp	r0, #0
 4349 0126 00F0E280 		beq	.L237
 4350              	.L229:
 194:Middlewares/lvgl/src/core/lv_obj_pos.c **** 
 4351              		.loc 1 194 30 is_stmt 1 discriminator 4 view .LVU1278
 4352 012a 2846     		mov	r0, r5
 4353              	.LVL421:
 194:Middlewares/lvgl/src/core/lv_obj_pos.c **** 
 4354              		.loc 1 194 30 is_stmt 0 discriminator 4 view .LVU1279
 4355 012c FFF7FEFF 		bl	lv_obj_scrollbar_invalidate
 4356              	.LVL422:
 200:Middlewares/lvgl/src/core/lv_obj_pos.c **** }
 4357              		.loc 1 200 12 discriminator 4 view .LVU1280
 4358 0130 0120     		movs	r0, #1
 4359              	.LVL423:
 4360              	.L208:
 201:Middlewares/lvgl/src/core/lv_obj_pos.c **** 
 4361              		.loc 1 201 1 view .LVU1281
 4362 0132 07B0     		add	sp, sp, #28
 4363              	.LCFI73:
 4364              		.cfi_remember_state
 4365              		.cfi_def_cfa_offset 36
 4366              		@ sp needed
 4367 0134 BDE8F08F 		pop	{r4, r5, r6, r7, r8, r9, r10, fp, pc}
 4368              	.LVL424:
 4369              	.L209:
ARM GAS  /tmp/ccmgRVpn.s 			page 118


 4370              	.LCFI74:
 4371              		.cfi_restore_state
 4372              	.LBB213:
 100:Middlewares/lvgl/src/core/lv_obj_pos.c ****         w_content = w == LV_SIZE_CONTENT ? true : false;
 4373              		.loc 1 100 9 is_stmt 1 view .LVU1282
 4374              	.LBB214:
 4375              	.LBI214:
   1:Middlewares/lvgl/src/core/lv_obj_style_gen.h **** {
 4376              		.loc 2 1 26 view .LVU1283
 4377              	.LBB215:
   3:Middlewares/lvgl/src/core/lv_obj_style_gen.h ****     return (lv_coord_t)v.num;
 4378              		.loc 2 3 5 view .LVU1284
   3:Middlewares/lvgl/src/core/lv_obj_style_gen.h ****     return (lv_coord_t)v.num;
 4379              		.loc 2 3 26 is_stmt 0 view .LVU1285
 4380 0138 41F20102 		movw	r2, #4097
 4381 013c 0021     		movs	r1, #0
 4382 013e 2046     		mov	r0, r4
 4383 0140 FFF7FEFF 		bl	lv_obj_get_style_prop
 4384              	.LVL425:
   4:Middlewares/lvgl/src/core/lv_obj_style_gen.h **** }
 4385              		.loc 2 4 5 is_stmt 1 view .LVU1286
   4:Middlewares/lvgl/src/core/lv_obj_style_gen.h **** }
 4386              		.loc 2 4 12 is_stmt 0 view .LVU1287
 4387 0144 00B2     		sxth	r0, r0
 4388              	.LVL426:
   4:Middlewares/lvgl/src/core/lv_obj_style_gen.h **** }
 4389              		.loc 2 4 12 view .LVU1288
 4390              	.LBE215:
 4391              	.LBE214:
 100:Middlewares/lvgl/src/core/lv_obj_pos.c ****         w_content = w == LV_SIZE_CONTENT ? true : false;
 4392              		.loc 1 100 11 view .LVU1289
 4393 0146 ADF81600 		strh	r0, [sp, #22]	@ movhi
 101:Middlewares/lvgl/src/core/lv_obj_pos.c **** 
 4394              		.loc 1 101 9 is_stmt 1 view .LVU1290
 101:Middlewares/lvgl/src/core/lv_obj_pos.c **** 
 4395              		.loc 1 101 19 is_stmt 0 view .LVU1291
 4396 014a 42F2D173 		movw	r3, #10193
 4397 014e 9842     		cmp	r0, r3
 4398 0150 0CBF     		ite	eq
 4399 0152 4FF00108 		moveq	r8, #1
 4400 0156 4FF00008 		movne	r8, #0
 4401              	.LVL427:
 104:Middlewares/lvgl/src/core/lv_obj_pos.c ****             lv_obj_scroll_to_x(obj, 0, LV_ANIM_OFF);
 4402              		.loc 1 104 9 is_stmt 1 view .LVU1292
 104:Middlewares/lvgl/src/core/lv_obj_pos.c ****             lv_obj_scroll_to_x(obj, 0, LV_ANIM_OFF);
 4403              		.loc 1 104 11 is_stmt 0 view .LVU1293
 4404 015a 3BD0     		beq	.L244
 4405              	.L211:
 110:Middlewares/lvgl/src/core/lv_obj_pos.c **** 
 4406              		.loc 1 110 9 is_stmt 1 view .LVU1294
 110:Middlewares/lvgl/src/core/lv_obj_pos.c **** 
 4407              		.loc 1 110 22 is_stmt 0 view .LVU1295
 4408 015c BDF91630 		ldrsh	r3, [sp, #22]
 110:Middlewares/lvgl/src/core/lv_obj_pos.c **** 
 4409              		.loc 1 110 48 view .LVU1296
 4410 0160 03F4C042 		and	r2, r3, #24576
 4411 0164 B2F5005F 		cmp	r2, #8192
ARM GAS  /tmp/ccmgRVpn.s 			page 119


 4412 0168 40D0     		beq	.L245
 4413 016a 4FF00009 		mov	r9, #0
 4414              	.L212:
 4415              	.LVL428:
 112:Middlewares/lvgl/src/core/lv_obj_pos.c ****         if(pct_w) w = (LV_COORD_GET_PCT(w) * parent_w) / 100;
 4416              		.loc 1 112 9 is_stmt 1 discriminator 6 view .LVU1297
 112:Middlewares/lvgl/src/core/lv_obj_pos.c ****         if(pct_w) w = (LV_COORD_GET_PCT(w) * parent_w) / 100;
 4417              		.loc 1 112 31 is_stmt 0 discriminator 6 view .LVU1298
 4418 016e 2846     		mov	r0, r5
 4419 0170 FFF7FEFF 		bl	lv_obj_get_content_width
 4420              	.LVL429:
 4421 0174 0746     		mov	r7, r0
 4422              	.LVL430:
 113:Middlewares/lvgl/src/core/lv_obj_pos.c **** 
 4423              		.loc 1 113 9 is_stmt 1 discriminator 6 view .LVU1299
 113:Middlewares/lvgl/src/core/lv_obj_pos.c **** 
 4424              		.loc 1 113 11 is_stmt 0 discriminator 6 view .LVU1300
 4425 0176 B9F1000F 		cmp	r9, #0
 4426 017a 13D0     		beq	.L213
 113:Middlewares/lvgl/src/core/lv_obj_pos.c **** 
 4427              		.loc 1 113 19 is_stmt 1 discriminator 1 view .LVU1301
 113:Middlewares/lvgl/src/core/lv_obj_pos.c **** 
 4428              		.loc 1 113 24 is_stmt 0 discriminator 1 view .LVU1302
 4429 017c BDF81620 		ldrh	r2, [sp, #22]
 4430 0180 22F4C042 		bic	r2, r2, #24576
 4431 0184 12B2     		sxth	r2, r2
 4432 0186 B2F57A7F 		cmp	r2, #1000
 4433 018a 01DD     		ble	.L215
 113:Middlewares/lvgl/src/core/lv_obj_pos.c **** 
 4434              		.loc 1 113 24 discriminator 2 view .LVU1303
 4435 018c C2F57A72 		rsb	r2, r2, #1000
 4436              	.L215:
 113:Middlewares/lvgl/src/core/lv_obj_pos.c **** 
 4437              		.loc 1 113 44 discriminator 5 view .LVU1304
 4438 0190 07FB02F2 		mul	r2, r7, r2
 113:Middlewares/lvgl/src/core/lv_obj_pos.c **** 
 4439              		.loc 1 113 56 discriminator 5 view .LVU1305
 4440 0194 574B     		ldr	r3, .L248
 4441 0196 83FB0213 		smull	r1, r3, r3, r2
 4442 019a D217     		asrs	r2, r2, #31
 4443 019c C2EB6312 		rsb	r2, r2, r3, asr #5
 113:Middlewares/lvgl/src/core/lv_obj_pos.c **** 
 4444              		.loc 1 113 21 discriminator 5 view .LVU1306
 4445 01a0 ADF81620 		strh	r2, [sp, #22]	@ movhi
 4446              	.L213:
 115:Middlewares/lvgl/src/core/lv_obj_pos.c ****         lv_coord_t maxw = lv_obj_get_style_max_width(obj, LV_PART_MAIN);
 4447              		.loc 1 115 9 is_stmt 1 view .LVU1307
 4448              	.LVL431:
 4449              	.LBB216:
 4450              	.LBI216:
   7:Middlewares/lvgl/src/core/lv_obj_style_gen.h **** {
 4451              		.loc 2 7 26 view .LVU1308
 4452              	.LBB217:
   9:Middlewares/lvgl/src/core/lv_obj_style_gen.h ****     return (lv_coord_t)v.num;
 4453              		.loc 2 9 5 view .LVU1309
   9:Middlewares/lvgl/src/core/lv_obj_style_gen.h ****     return (lv_coord_t)v.num;
 4454              		.loc 2 9 26 is_stmt 0 view .LVU1310
ARM GAS  /tmp/ccmgRVpn.s 			page 120


 4455 01a4 41F20202 		movw	r2, #4098
 4456 01a8 0021     		movs	r1, #0
 4457 01aa 2046     		mov	r0, r4
 4458 01ac FFF7FEFF 		bl	lv_obj_get_style_prop
 4459              	.LVL432:
  10:Middlewares/lvgl/src/core/lv_obj_style_gen.h **** }
 4460              		.loc 2 10 5 is_stmt 1 view .LVU1311
  10:Middlewares/lvgl/src/core/lv_obj_style_gen.h **** }
 4461              		.loc 2 10 12 is_stmt 0 view .LVU1312
 4462 01b0 0FFA80F9 		sxth	r9, r0
 4463              	.LVL433:
  10:Middlewares/lvgl/src/core/lv_obj_style_gen.h **** }
 4464              		.loc 2 10 12 view .LVU1313
 4465              	.LBE217:
 4466              	.LBE216:
 116:Middlewares/lvgl/src/core/lv_obj_pos.c ****         w = lv_clamp_width(w, minw, maxw, parent_w);
 4467              		.loc 1 116 9 is_stmt 1 view .LVU1314
 4468              	.LBB218:
 4469              	.LBI218:
  13:Middlewares/lvgl/src/core/lv_obj_style_gen.h **** {
 4470              		.loc 2 13 26 view .LVU1315
 4471              	.LBB219:
  15:Middlewares/lvgl/src/core/lv_obj_style_gen.h ****     return (lv_coord_t)v.num;
 4472              		.loc 2 15 5 view .LVU1316
  15:Middlewares/lvgl/src/core/lv_obj_style_gen.h ****     return (lv_coord_t)v.num;
 4473              		.loc 2 15 26 is_stmt 0 view .LVU1317
 4474 01b4 41F20302 		movw	r2, #4099
 4475 01b8 0021     		movs	r1, #0
 4476 01ba 2046     		mov	r0, r4
 4477 01bc FFF7FEFF 		bl	lv_obj_get_style_prop
 4478              	.LVL434:
  16:Middlewares/lvgl/src/core/lv_obj_style_gen.h **** }
 4479              		.loc 2 16 5 is_stmt 1 view .LVU1318
  16:Middlewares/lvgl/src/core/lv_obj_style_gen.h **** }
 4480              		.loc 2 16 5 is_stmt 0 view .LVU1319
 4481              	.LBE219:
 4482              	.LBE218:
 117:Middlewares/lvgl/src/core/lv_obj_pos.c ****     }
 4483              		.loc 1 117 9 is_stmt 1 view .LVU1320
 117:Middlewares/lvgl/src/core/lv_obj_pos.c ****     }
 4484              		.loc 1 117 13 is_stmt 0 view .LVU1321
 4485 01c0 3B46     		mov	r3, r7
 4486 01c2 02B2     		sxth	r2, r0
 4487 01c4 4946     		mov	r1, r9
 4488 01c6 BDF91600 		ldrsh	r0, [sp, #22]
 4489              	.LVL435:
 117:Middlewares/lvgl/src/core/lv_obj_pos.c ****     }
 4490              		.loc 1 117 13 view .LVU1322
 4491 01ca FFF7FEFF 		bl	lv_clamp_width
 4492              	.LVL436:
 117:Middlewares/lvgl/src/core/lv_obj_pos.c ****     }
 4493              		.loc 1 117 11 view .LVU1323
 4494 01ce ADF81600 		strh	r0, [sp, #22]	@ movhi
 4495 01d2 37E7     		b	.L210
 4496              	.LVL437:
 4497              	.L244:
 105:Middlewares/lvgl/src/core/lv_obj_pos.c ****             calc_auto_size(obj, &w, NULL);
ARM GAS  /tmp/ccmgRVpn.s 			page 121


 4498              		.loc 1 105 13 is_stmt 1 view .LVU1324
 4499 01d4 0022     		movs	r2, #0
 4500 01d6 1146     		mov	r1, r2
 4501 01d8 2046     		mov	r0, r4
 4502 01da FFF7FEFF 		bl	lv_obj_scroll_to_x
 4503              	.LVL438:
 106:Middlewares/lvgl/src/core/lv_obj_pos.c ****         }
 4504              		.loc 1 106 13 view .LVU1325
 4505 01de 0022     		movs	r2, #0
 4506 01e0 0DF11601 		add	r1, sp, #22
 4507 01e4 2046     		mov	r0, r4
 4508 01e6 FFF7FEFF 		bl	calc_auto_size
 4509              	.LVL439:
 4510 01ea B7E7     		b	.L211
 4511              	.L245:
 110:Middlewares/lvgl/src/core/lv_obj_pos.c **** 
 4512              		.loc 1 110 22 is_stmt 0 discriminator 1 view .LVU1326
 4513 01ec 23F4C043 		bic	r3, r3, #24576
 110:Middlewares/lvgl/src/core/lv_obj_pos.c **** 
 4514              		.loc 1 110 48 discriminator 1 view .LVU1327
 4515 01f0 B3F5FA6F 		cmp	r3, #2000
 4516 01f4 02DD     		ble	.L233
 110:Middlewares/lvgl/src/core/lv_obj_pos.c **** 
 4517              		.loc 1 110 48 view .LVU1328
 4518 01f6 4FF00009 		mov	r9, #0
 4519 01fa B8E7     		b	.L212
 4520              	.L233:
 4521 01fc 4FF00109 		mov	r9, #1
 4522 0200 B5E7     		b	.L212
 4523              	.LVL440:
 4524              	.L216:
 110:Middlewares/lvgl/src/core/lv_obj_pos.c **** 
 4525              		.loc 1 110 48 view .LVU1329
 4526              	.LBE213:
 4527              	.LBB220:
 126:Middlewares/lvgl/src/core/lv_obj_pos.c ****         h_content = h == LV_SIZE_CONTENT ? true : false;
 4528              		.loc 1 126 9 is_stmt 1 view .LVU1330
 4529              	.LBB221:
 4530              	.LBI221:
  19:Middlewares/lvgl/src/core/lv_obj_style_gen.h **** {
 4531              		.loc 2 19 26 view .LVU1331
 4532              	.LBB222:
  21:Middlewares/lvgl/src/core/lv_obj_style_gen.h ****     return (lv_coord_t)v.num;
 4533              		.loc 2 21 5 view .LVU1332
  21:Middlewares/lvgl/src/core/lv_obj_style_gen.h ****     return (lv_coord_t)v.num;
 4534              		.loc 2 21 26 is_stmt 0 view .LVU1333
 4535 0202 41F20402 		movw	r2, #4100
 4536 0206 0021     		movs	r1, #0
 4537 0208 2046     		mov	r0, r4
 4538 020a FFF7FEFF 		bl	lv_obj_get_style_prop
 4539              	.LVL441:
  22:Middlewares/lvgl/src/core/lv_obj_style_gen.h **** }
 4540              		.loc 2 22 5 is_stmt 1 view .LVU1334
  22:Middlewares/lvgl/src/core/lv_obj_style_gen.h **** }
 4541              		.loc 2 22 12 is_stmt 0 view .LVU1335
 4542 020e 00B2     		sxth	r0, r0
 4543              	.LVL442:
ARM GAS  /tmp/ccmgRVpn.s 			page 122


  22:Middlewares/lvgl/src/core/lv_obj_style_gen.h **** }
 4544              		.loc 2 22 12 view .LVU1336
 4545              	.LBE222:
 4546              	.LBE221:
 126:Middlewares/lvgl/src/core/lv_obj_pos.c ****         h_content = h == LV_SIZE_CONTENT ? true : false;
 4547              		.loc 1 126 11 view .LVU1337
 4548 0210 ADF81400 		strh	r0, [sp, #20]	@ movhi
 127:Middlewares/lvgl/src/core/lv_obj_pos.c **** 
 4549              		.loc 1 127 9 is_stmt 1 view .LVU1338
 127:Middlewares/lvgl/src/core/lv_obj_pos.c **** 
 4550              		.loc 1 127 19 is_stmt 0 view .LVU1339
 4551 0214 42F2D173 		movw	r3, #10193
 4552 0218 9842     		cmp	r0, r3
 4553 021a 0CBF     		ite	eq
 4554 021c 4FF00109 		moveq	r9, #1
 4555 0220 4FF00009 		movne	r9, #0
 4556              	.LVL443:
 130:Middlewares/lvgl/src/core/lv_obj_pos.c ****             lv_obj_scroll_to_y(obj, 0, LV_ANIM_OFF);
 4557              		.loc 1 130 9 is_stmt 1 view .LVU1340
 130:Middlewares/lvgl/src/core/lv_obj_pos.c ****             lv_obj_scroll_to_y(obj, 0, LV_ANIM_OFF);
 4558              		.loc 1 130 11 is_stmt 0 view .LVU1341
 4559 0224 3BD0     		beq	.L246
 4560              	.L218:
 136:Middlewares/lvgl/src/core/lv_obj_pos.c ****         lv_coord_t parent_h = lv_obj_get_content_height(parent);
 4561              		.loc 1 136 9 is_stmt 1 view .LVU1342
 136:Middlewares/lvgl/src/core/lv_obj_pos.c ****         lv_coord_t parent_h = lv_obj_get_content_height(parent);
 4562              		.loc 1 136 22 is_stmt 0 view .LVU1343
 4563 0226 BDF91430 		ldrsh	r3, [sp, #20]
 136:Middlewares/lvgl/src/core/lv_obj_pos.c ****         lv_coord_t parent_h = lv_obj_get_content_height(parent);
 4564              		.loc 1 136 48 view .LVU1344
 4565 022a 03F4C042 		and	r2, r3, #24576
 4566 022e B2F5005F 		cmp	r2, #8192
 4567 0232 3FD0     		beq	.L247
 4568 0234 4FF0000B 		mov	fp, #0
 4569              	.L219:
 4570              	.LVL444:
 137:Middlewares/lvgl/src/core/lv_obj_pos.c ****         if(pct_h) h = (LV_COORD_GET_PCT(h) * parent_h) / 100;
 4571              		.loc 1 137 9 is_stmt 1 discriminator 6 view .LVU1345
 137:Middlewares/lvgl/src/core/lv_obj_pos.c ****         if(pct_h) h = (LV_COORD_GET_PCT(h) * parent_h) / 100;
 4572              		.loc 1 137 31 is_stmt 0 discriminator 6 view .LVU1346
 4573 0238 2846     		mov	r0, r5
 4574 023a FFF7FEFF 		bl	lv_obj_get_content_height
 4575              	.LVL445:
 4576 023e 8246     		mov	r10, r0
 4577              	.LVL446:
 138:Middlewares/lvgl/src/core/lv_obj_pos.c **** 
 4578              		.loc 1 138 9 is_stmt 1 discriminator 6 view .LVU1347
 138:Middlewares/lvgl/src/core/lv_obj_pos.c **** 
 4579              		.loc 1 138 11 is_stmt 0 discriminator 6 view .LVU1348
 4580 0240 BBF1000F 		cmp	fp, #0
 4581 0244 13D0     		beq	.L220
 138:Middlewares/lvgl/src/core/lv_obj_pos.c **** 
 4582              		.loc 1 138 19 is_stmt 1 discriminator 1 view .LVU1349
 138:Middlewares/lvgl/src/core/lv_obj_pos.c **** 
 4583              		.loc 1 138 24 is_stmt 0 discriminator 1 view .LVU1350
 4584 0246 BDF81420 		ldrh	r2, [sp, #20]
 4585 024a 22F4C042 		bic	r2, r2, #24576
ARM GAS  /tmp/ccmgRVpn.s 			page 123


 4586 024e 12B2     		sxth	r2, r2
 4587 0250 B2F57A7F 		cmp	r2, #1000
 4588 0254 01DD     		ble	.L222
 138:Middlewares/lvgl/src/core/lv_obj_pos.c **** 
 4589              		.loc 1 138 24 discriminator 2 view .LVU1351
 4590 0256 C2F57A72 		rsb	r2, r2, #1000
 4591              	.L222:
 138:Middlewares/lvgl/src/core/lv_obj_pos.c **** 
 4592              		.loc 1 138 44 discriminator 5 view .LVU1352
 4593 025a 02FB0AF2 		mul	r2, r2, r10
 138:Middlewares/lvgl/src/core/lv_obj_pos.c **** 
 4594              		.loc 1 138 56 discriminator 5 view .LVU1353
 4595 025e 254B     		ldr	r3, .L248
 4596 0260 83FB0213 		smull	r1, r3, r3, r2
 4597 0264 D217     		asrs	r2, r2, #31
 4598 0266 C2EB6312 		rsb	r2, r2, r3, asr #5
 138:Middlewares/lvgl/src/core/lv_obj_pos.c **** 
 4599              		.loc 1 138 21 discriminator 5 view .LVU1354
 4600 026a ADF81420 		strh	r2, [sp, #20]	@ movhi
 4601              	.L220:
 140:Middlewares/lvgl/src/core/lv_obj_pos.c ****         lv_coord_t maxh = lv_obj_get_style_max_height(obj, LV_PART_MAIN);
 4602              		.loc 1 140 9 is_stmt 1 view .LVU1355
 4603              	.LVL447:
 4604              	.LBB223:
 4605              	.LBI223:
  25:Middlewares/lvgl/src/core/lv_obj_style_gen.h **** {
 4606              		.loc 2 25 26 view .LVU1356
 4607              	.LBB224:
  27:Middlewares/lvgl/src/core/lv_obj_style_gen.h ****     return (lv_coord_t)v.num;
 4608              		.loc 2 27 5 view .LVU1357
  27:Middlewares/lvgl/src/core/lv_obj_style_gen.h ****     return (lv_coord_t)v.num;
 4609              		.loc 2 27 26 is_stmt 0 view .LVU1358
 4610 026e 41F20502 		movw	r2, #4101
 4611 0272 0021     		movs	r1, #0
 4612 0274 2046     		mov	r0, r4
 4613 0276 FFF7FEFF 		bl	lv_obj_get_style_prop
 4614              	.LVL448:
  28:Middlewares/lvgl/src/core/lv_obj_style_gen.h **** }
 4615              		.loc 2 28 5 is_stmt 1 view .LVU1359
  28:Middlewares/lvgl/src/core/lv_obj_style_gen.h **** }
 4616              		.loc 2 28 12 is_stmt 0 view .LVU1360
 4617 027a 0FFA80FB 		sxth	fp, r0
 4618              	.LVL449:
  28:Middlewares/lvgl/src/core/lv_obj_style_gen.h **** }
 4619              		.loc 2 28 12 view .LVU1361
 4620              	.LBE224:
 4621              	.LBE223:
 141:Middlewares/lvgl/src/core/lv_obj_pos.c ****         h = lv_clamp_height(h, minh, maxh, parent_h);
 4622              		.loc 1 141 9 is_stmt 1 view .LVU1362
 4623              	.LBB225:
 4624              	.LBI225:
  31:Middlewares/lvgl/src/core/lv_obj_style_gen.h **** {
 4625              		.loc 2 31 26 view .LVU1363
 4626              	.LBB226:
  33:Middlewares/lvgl/src/core/lv_obj_style_gen.h ****     return (lv_coord_t)v.num;
 4627              		.loc 2 33 5 view .LVU1364
  33:Middlewares/lvgl/src/core/lv_obj_style_gen.h ****     return (lv_coord_t)v.num;
ARM GAS  /tmp/ccmgRVpn.s 			page 124


 4628              		.loc 2 33 26 is_stmt 0 view .LVU1365
 4629 027e 41F20602 		movw	r2, #4102
 4630 0282 0021     		movs	r1, #0
 4631 0284 2046     		mov	r0, r4
 4632 0286 FFF7FEFF 		bl	lv_obj_get_style_prop
 4633              	.LVL450:
  34:Middlewares/lvgl/src/core/lv_obj_style_gen.h **** }
 4634              		.loc 2 34 5 is_stmt 1 view .LVU1366
  34:Middlewares/lvgl/src/core/lv_obj_style_gen.h **** }
 4635              		.loc 2 34 5 is_stmt 0 view .LVU1367
 4636              	.LBE226:
 4637              	.LBE225:
 142:Middlewares/lvgl/src/core/lv_obj_pos.c ****     }
 4638              		.loc 1 142 9 is_stmt 1 view .LVU1368
 142:Middlewares/lvgl/src/core/lv_obj_pos.c ****     }
 4639              		.loc 1 142 13 is_stmt 0 view .LVU1369
 4640 028a 5346     		mov	r3, r10
 4641 028c 02B2     		sxth	r2, r0
 4642 028e 5946     		mov	r1, fp
 4643 0290 BDF91400 		ldrsh	r0, [sp, #20]
 4644              	.LVL451:
 142:Middlewares/lvgl/src/core/lv_obj_pos.c ****     }
 4645              		.loc 1 142 13 view .LVU1370
 4646 0294 FFF7FEFF 		bl	lv_clamp_height
 4647              	.LVL452:
 142:Middlewares/lvgl/src/core/lv_obj_pos.c ****     }
 4648              		.loc 1 142 11 view .LVU1371
 4649 0298 ADF81400 		strh	r0, [sp, #20]	@ movhi
 4650 029c E3E6     		b	.L217
 4651              	.LVL453:
 4652              	.L246:
 131:Middlewares/lvgl/src/core/lv_obj_pos.c ****             calc_auto_size(obj, NULL, &h);
 4653              		.loc 1 131 13 is_stmt 1 view .LVU1372
 4654 029e 0022     		movs	r2, #0
 4655 02a0 1146     		mov	r1, r2
 4656 02a2 2046     		mov	r0, r4
 4657 02a4 FFF7FEFF 		bl	lv_obj_scroll_to_y
 4658              	.LVL454:
 132:Middlewares/lvgl/src/core/lv_obj_pos.c ****         }
 4659              		.loc 1 132 13 view .LVU1373
 4660 02a8 05AA     		add	r2, sp, #20
 4661 02aa 0021     		movs	r1, #0
 4662 02ac 2046     		mov	r0, r4
 4663 02ae FFF7FEFF 		bl	calc_auto_size
 4664              	.LVL455:
 4665 02b2 B8E7     		b	.L218
 4666              	.L247:
 136:Middlewares/lvgl/src/core/lv_obj_pos.c ****         lv_coord_t parent_h = lv_obj_get_content_height(parent);
 4667              		.loc 1 136 22 is_stmt 0 discriminator 1 view .LVU1374
 4668 02b4 23F4C043 		bic	r3, r3, #24576
 136:Middlewares/lvgl/src/core/lv_obj_pos.c ****         lv_coord_t parent_h = lv_obj_get_content_height(parent);
 4669              		.loc 1 136 48 discriminator 1 view .LVU1375
 4670 02b8 B3F5FA6F 		cmp	r3, #2000
 4671 02bc 02DD     		ble	.L235
 136:Middlewares/lvgl/src/core/lv_obj_pos.c ****         lv_coord_t parent_h = lv_obj_get_content_height(parent);
 4672              		.loc 1 136 48 view .LVU1376
 4673 02be 4FF0000B 		mov	fp, #0
ARM GAS  /tmp/ccmgRVpn.s 			page 125


 4674 02c2 B9E7     		b	.L219
 4675              	.L235:
 4676 02c4 4FF0010B 		mov	fp, #1
 4677 02c8 B6E7     		b	.L219
 4678              	.LVL456:
 4679              	.L242:
 136:Middlewares/lvgl/src/core/lv_obj_pos.c ****         lv_coord_t parent_h = lv_obj_get_content_height(parent);
 4680              		.loc 1 136 48 view .LVU1377
 4681              	.LBE220:
 168:Middlewares/lvgl/src/core/lv_obj_pos.c **** 
 4682              		.loc 1 168 14 is_stmt 1 discriminator 1 view .LVU1378
 4683 02ca 2846     		mov	r0, r5
 4684              	.LVL457:
 168:Middlewares/lvgl/src/core/lv_obj_pos.c **** 
 4685              		.loc 1 168 14 is_stmt 0 discriminator 1 view .LVU1379
 4686 02cc FFF7FEFF 		bl	lv_obj_scrollbar_invalidate
 4687              	.LVL458:
 4688 02d0 F8E6     		b	.L226
 4689              	.L243:
 174:Middlewares/lvgl/src/core/lv_obj_pos.c ****     }
 4690              		.loc 1 174 9 is_stmt 1 view .LVU1380
 174:Middlewares/lvgl/src/core/lv_obj_pos.c ****     }
 4691              		.loc 1 174 37 is_stmt 0 view .LVU1381
 4692 02d2 238B     		ldrh	r3, [r4, #24]
 174:Middlewares/lvgl/src/core/lv_obj_pos.c ****     }
 4693              		.loc 1 174 41 view .LVU1382
 4694 02d4 BDF81620 		ldrh	r2, [sp, #22]
 4695 02d8 9B1A     		subs	r3, r3, r2
 4696 02da 9BB2     		uxth	r3, r3
 174:Middlewares/lvgl/src/core/lv_obj_pos.c ****     }
 4697              		.loc 1 174 45 view .LVU1383
 4698 02dc 0133     		adds	r3, r3, #1
 174:Middlewares/lvgl/src/core/lv_obj_pos.c ****     }
 4699              		.loc 1 174 24 view .LVU1384
 4700 02de A382     		strh	r3, [r4, #20]	@ movhi
 4701 02e0 08E7     		b	.L228
 4702              	.LVL459:
 4703              	.L230:
 4704              	.LCFI75:
 4705              		.cfi_def_cfa_offset 0
 4706              		.cfi_restore 4
 4707              		.cfi_restore 5
 4708              		.cfi_restore 6
 4709              		.cfi_restore 7
 4710              		.cfi_restore 8
 4711              		.cfi_restore 9
 4712              		.cfi_restore 10
 4713              		.cfi_restore 11
 4714              		.cfi_restore 14
  89:Middlewares/lvgl/src/core/lv_obj_pos.c **** 
 4715              		.loc 1 89 47 view .LVU1385
 4716 02e2 0020     		movs	r0, #0
 4717              	.LVL460:
 201:Middlewares/lvgl/src/core/lv_obj_pos.c **** 
 4718              		.loc 1 201 1 view .LVU1386
 4719 02e4 7047     		bx	lr
 4720              	.LVL461:
ARM GAS  /tmp/ccmgRVpn.s 			page 126


 4721              	.L231:
 4722              	.LCFI76:
 4723              		.cfi_def_cfa_offset 64
 4724              		.cfi_offset 4, -36
 4725              		.cfi_offset 5, -32
 4726              		.cfi_offset 6, -28
 4727              		.cfi_offset 7, -24
 4728              		.cfi_offset 8, -20
 4729              		.cfi_offset 9, -16
 4730              		.cfi_offset 10, -12
 4731              		.cfi_offset 11, -8
 4732              		.cfi_offset 14, -4
  92:Middlewares/lvgl/src/core/lv_obj_pos.c **** 
 4733              		.loc 1 92 31 view .LVU1387
 4734 02e6 0020     		movs	r0, #0
 4735              	.LVL462:
  92:Middlewares/lvgl/src/core/lv_obj_pos.c **** 
 4736              		.loc 1 92 31 view .LVU1388
 4737 02e8 23E7     		b	.L208
 4738              	.LVL463:
 4739              	.L236:
 152:Middlewares/lvgl/src/core/lv_obj_pos.c **** 
 4740              		.loc 1 152 74 view .LVU1389
 4741 02ea 0020     		movs	r0, #0
 4742 02ec 21E7     		b	.L208
 4743              	.LVL464:
 4744              	.L237:
 200:Middlewares/lvgl/src/core/lv_obj_pos.c **** }
 4745              		.loc 1 200 12 view .LVU1390
 4746 02ee 0120     		movs	r0, #1
 4747              	.LVL465:
 200:Middlewares/lvgl/src/core/lv_obj_pos.c **** }
 4748              		.loc 1 200 12 view .LVU1391
 4749 02f0 1FE7     		b	.L208
 4750              	.L249:
 4751 02f2 00BF     		.align	2
 4752              	.L248:
 4753 02f4 1F85EB51 		.word	1374389535
 4754              		.cfi_endproc
 4755              	.LFE156:
 4757              		.section	.text.layout_update_core,"ax",%progbits
 4758              		.align	1
 4759              		.syntax unified
 4760              		.thumb
 4761              		.thumb_func
 4763              	layout_update_core:
 4764              	.LVL466:
 4765              	.LFB196:
 934:Middlewares/lvgl/src/core/lv_obj_pos.c **** 
 935:Middlewares/lvgl/src/core/lv_obj_pos.c **** static void layout_update_core(lv_obj_t * obj)
 936:Middlewares/lvgl/src/core/lv_obj_pos.c **** {
 4766              		.loc 1 936 1 is_stmt 1 view -0
 4767              		.cfi_startproc
 4768              		@ args = 0, pretend = 0, frame = 0
 4769              		@ frame_needed = 0, uses_anonymous_args = 0
 4770              		.loc 1 936 1 is_stmt 0 view .LVU1393
 4771 0000 70B5     		push	{r4, r5, r6, lr}
ARM GAS  /tmp/ccmgRVpn.s 			page 127


 4772              	.LCFI77:
 4773              		.cfi_def_cfa_offset 16
 4774              		.cfi_offset 4, -16
 4775              		.cfi_offset 5, -12
 4776              		.cfi_offset 6, -8
 4777              		.cfi_offset 14, -4
 4778 0002 0546     		mov	r5, r0
 937:Middlewares/lvgl/src/core/lv_obj_pos.c ****     uint32_t i;
 4779              		.loc 1 937 5 is_stmt 1 view .LVU1394
 938:Middlewares/lvgl/src/core/lv_obj_pos.c ****     uint32_t child_cnt = lv_obj_get_child_cnt(obj);
 4780              		.loc 1 938 5 view .LVU1395
 4781              		.loc 1 938 26 is_stmt 0 view .LVU1396
 4782 0004 FFF7FEFF 		bl	lv_obj_get_child_cnt
 4783              	.LVL467:
 4784              		.loc 1 938 26 view .LVU1397
 4785 0008 0646     		mov	r6, r0
 4786              	.LVL468:
 939:Middlewares/lvgl/src/core/lv_obj_pos.c ****     for(i = 0; i < child_cnt; i++) {
 4787              		.loc 1 939 5 is_stmt 1 view .LVU1398
 4788              		.loc 1 939 11 is_stmt 0 view .LVU1399
 4789 000a 0024     		movs	r4, #0
 4790              		.loc 1 939 5 view .LVU1400
 4791 000c 06E0     		b	.L251
 4792              	.LVL469:
 4793              	.L252:
 4794              	.LBB227:
 940:Middlewares/lvgl/src/core/lv_obj_pos.c ****         lv_obj_t * child = lv_obj_get_child(obj, i);
 4795              		.loc 1 940 9 is_stmt 1 discriminator 3 view .LVU1401
 4796              		.loc 1 940 28 is_stmt 0 discriminator 3 view .LVU1402
 4797 000e 2146     		mov	r1, r4
 4798 0010 2846     		mov	r0, r5
 4799 0012 FFF7FEFF 		bl	lv_obj_get_child
 4800              	.LVL470:
 941:Middlewares/lvgl/src/core/lv_obj_pos.c ****         layout_update_core(child);
 4801              		.loc 1 941 9 is_stmt 1 discriminator 3 view .LVU1403
 4802 0016 FFF7F3FF 		bl	layout_update_core
 4803              	.LVL471:
 4804              		.loc 1 941 9 is_stmt 0 discriminator 3 view .LVU1404
 4805              	.LBE227:
 939:Middlewares/lvgl/src/core/lv_obj_pos.c ****     for(i = 0; i < child_cnt; i++) {
 4806              		.loc 1 939 31 is_stmt 1 discriminator 3 view .LVU1405
 939:Middlewares/lvgl/src/core/lv_obj_pos.c ****     for(i = 0; i < child_cnt; i++) {
 4807              		.loc 1 939 32 is_stmt 0 discriminator 3 view .LVU1406
 4808 001a 0134     		adds	r4, r4, #1
 4809              	.LVL472:
 4810              	.L251:
 939:Middlewares/lvgl/src/core/lv_obj_pos.c ****     for(i = 0; i < child_cnt; i++) {
 4811              		.loc 1 939 16 is_stmt 1 discriminator 1 view .LVU1407
 939:Middlewares/lvgl/src/core/lv_obj_pos.c ****     for(i = 0; i < child_cnt; i++) {
 4812              		.loc 1 939 5 is_stmt 0 discriminator 1 view .LVU1408
 4813 001c B442     		cmp	r4, r6
 4814 001e F6D3     		bcc	.L252
 942:Middlewares/lvgl/src/core/lv_obj_pos.c ****     }
 943:Middlewares/lvgl/src/core/lv_obj_pos.c **** 
 944:Middlewares/lvgl/src/core/lv_obj_pos.c ****     if(obj->layout_inv == 0) return;
 4815              		.loc 1 944 5 is_stmt 1 view .LVU1409
 4816              		.loc 1 944 24 is_stmt 0 view .LVU1410
ARM GAS  /tmp/ccmgRVpn.s 			page 128


 4817 0020 95F82230 		ldrb	r3, [r5, #34]	@ zero_extendqisi2
 4818              		.loc 1 944 7 view .LVU1411
 4819 0024 13F0010F 		tst	r3, #1
 4820 0028 00D1     		bne	.L255
 4821              	.L250:
 945:Middlewares/lvgl/src/core/lv_obj_pos.c **** 
 946:Middlewares/lvgl/src/core/lv_obj_pos.c ****     obj->layout_inv = 0;
 947:Middlewares/lvgl/src/core/lv_obj_pos.c **** 
 948:Middlewares/lvgl/src/core/lv_obj_pos.c ****     lv_obj_refr_size(obj);
 949:Middlewares/lvgl/src/core/lv_obj_pos.c ****     lv_obj_refr_pos(obj);
 950:Middlewares/lvgl/src/core/lv_obj_pos.c **** 
 951:Middlewares/lvgl/src/core/lv_obj_pos.c ****     if(lv_obj_get_child_cnt(obj) > 0) {
 952:Middlewares/lvgl/src/core/lv_obj_pos.c ****         uint32_t layout_id = lv_obj_get_style_layout(obj, LV_PART_MAIN);
 953:Middlewares/lvgl/src/core/lv_obj_pos.c ****         if(layout_id > 0 && layout_id <= layout_cnt) {
 954:Middlewares/lvgl/src/core/lv_obj_pos.c ****             void  * user_data = LV_GC_ROOT(_lv_layout_list)[layout_id -1].user_data;
 955:Middlewares/lvgl/src/core/lv_obj_pos.c ****             LV_GC_ROOT(_lv_layout_list)[layout_id -1].cb(obj, user_data);
 956:Middlewares/lvgl/src/core/lv_obj_pos.c ****         }
 957:Middlewares/lvgl/src/core/lv_obj_pos.c ****     }
 958:Middlewares/lvgl/src/core/lv_obj_pos.c **** }
 4822              		.loc 1 958 1 view .LVU1412
 4823 002a 70BD     		pop	{r4, r5, r6, pc}
 4824              	.LVL473:
 4825              	.L255:
 946:Middlewares/lvgl/src/core/lv_obj_pos.c **** 
 4826              		.loc 1 946 5 is_stmt 1 view .LVU1413
 946:Middlewares/lvgl/src/core/lv_obj_pos.c **** 
 4827              		.loc 1 946 21 is_stmt 0 view .LVU1414
 4828 002c 95F82230 		ldrb	r3, [r5, #34]	@ zero_extendqisi2
 4829 0030 6FF30003 		bfc	r3, #0, #1
 4830 0034 85F82230 		strb	r3, [r5, #34]
 948:Middlewares/lvgl/src/core/lv_obj_pos.c ****     lv_obj_refr_pos(obj);
 4831              		.loc 1 948 5 is_stmt 1 view .LVU1415
 4832 0038 2846     		mov	r0, r5
 4833 003a FFF7FEFF 		bl	lv_obj_refr_size
 4834              	.LVL474:
 949:Middlewares/lvgl/src/core/lv_obj_pos.c **** 
 4835              		.loc 1 949 5 view .LVU1416
 4836 003e 2846     		mov	r0, r5
 4837 0040 FFF7FEFF 		bl	lv_obj_refr_pos
 4838              	.LVL475:
 951:Middlewares/lvgl/src/core/lv_obj_pos.c ****         uint32_t layout_id = lv_obj_get_style_layout(obj, LV_PART_MAIN);
 4839              		.loc 1 951 5 view .LVU1417
 951:Middlewares/lvgl/src/core/lv_obj_pos.c ****         uint32_t layout_id = lv_obj_get_style_layout(obj, LV_PART_MAIN);
 4840              		.loc 1 951 8 is_stmt 0 view .LVU1418
 4841 0044 2846     		mov	r0, r5
 4842 0046 FFF7FEFF 		bl	lv_obj_get_child_cnt
 4843              	.LVL476:
 951:Middlewares/lvgl/src/core/lv_obj_pos.c ****         uint32_t layout_id = lv_obj_get_style_layout(obj, LV_PART_MAIN);
 4844              		.loc 1 951 7 view .LVU1419
 4845 004a 0028     		cmp	r0, #0
 4846 004c EDD0     		beq	.L250
 4847              	.LBB228:
 952:Middlewares/lvgl/src/core/lv_obj_pos.c ****         if(layout_id > 0 && layout_id <= layout_cnt) {
 4848              		.loc 1 952 9 is_stmt 1 view .LVU1420
 4849              	.LVL477:
 4850              	.LBB229:
 4851              	.LBI229:
ARM GAS  /tmp/ccmgRVpn.s 			page 129


 181:Middlewares/lvgl/src/core/lv_obj_style_gen.h **** {
 4852              		.loc 2 181 24 view .LVU1421
 4853              	.LBB230:
 183:Middlewares/lvgl/src/core/lv_obj_style_gen.h ****     return (uint16_t)v.num;
 4854              		.loc 2 183 5 view .LVU1422
 183:Middlewares/lvgl/src/core/lv_obj_style_gen.h ****     return (uint16_t)v.num;
 4855              		.loc 2 183 26 is_stmt 0 view .LVU1423
 4856 004e 41F26902 		movw	r2, #4201
 4857 0052 0021     		movs	r1, #0
 4858 0054 2846     		mov	r0, r5
 4859 0056 FFF7FEFF 		bl	lv_obj_get_style_prop
 4860              	.LVL478:
 184:Middlewares/lvgl/src/core/lv_obj_style_gen.h **** }
 4861              		.loc 2 184 5 is_stmt 1 view .LVU1424
 184:Middlewares/lvgl/src/core/lv_obj_style_gen.h **** }
 4862              		.loc 2 184 5 is_stmt 0 view .LVU1425
 4863              	.LBE230:
 4864              	.LBE229:
 952:Middlewares/lvgl/src/core/lv_obj_pos.c ****         if(layout_id > 0 && layout_id <= layout_cnt) {
 4865              		.loc 1 952 18 view .LVU1426
 4866 005a 80B2     		uxth	r0, r0
 4867              	.LVL479:
 953:Middlewares/lvgl/src/core/lv_obj_pos.c ****             void  * user_data = LV_GC_ROOT(_lv_layout_list)[layout_id -1].user_data;
 4868              		.loc 1 953 9 is_stmt 1 view .LVU1427
 953:Middlewares/lvgl/src/core/lv_obj_pos.c ****             void  * user_data = LV_GC_ROOT(_lv_layout_list)[layout_id -1].user_data;
 4869              		.loc 1 953 11 is_stmt 0 view .LVU1428
 4870 005c 0028     		cmp	r0, #0
 4871 005e E4D0     		beq	.L250
 953:Middlewares/lvgl/src/core/lv_obj_pos.c ****             void  * user_data = LV_GC_ROOT(_lv_layout_list)[layout_id -1].user_data;
 4872              		.loc 1 953 39 discriminator 1 view .LVU1429
 4873 0060 084B     		ldr	r3, .L256
 4874 0062 1B68     		ldr	r3, [r3]
 953:Middlewares/lvgl/src/core/lv_obj_pos.c ****             void  * user_data = LV_GC_ROOT(_lv_layout_list)[layout_id -1].user_data;
 4875              		.loc 1 953 26 discriminator 1 view .LVU1430
 4876 0064 8342     		cmp	r3, r0
 4877 0066 E0D3     		bcc	.L250
 4878              	.LBB231:
 954:Middlewares/lvgl/src/core/lv_obj_pos.c ****             LV_GC_ROOT(_lv_layout_list)[layout_id -1].cb(obj, user_data);
 4879              		.loc 1 954 13 is_stmt 1 view .LVU1431
 954:Middlewares/lvgl/src/core/lv_obj_pos.c ****             LV_GC_ROOT(_lv_layout_list)[layout_id -1].cb(obj, user_data);
 4880              		.loc 1 954 60 is_stmt 0 view .LVU1432
 4881 0068 00F10050 		add	r0, r0, #536870912
 4882              	.LVL480:
 954:Middlewares/lvgl/src/core/lv_obj_pos.c ****             LV_GC_ROOT(_lv_layout_list)[layout_id -1].cb(obj, user_data);
 4883              		.loc 1 954 60 view .LVU1433
 4884 006c 0138     		subs	r0, r0, #1
 4885              	.LVL481:
 954:Middlewares/lvgl/src/core/lv_obj_pos.c ****             LV_GC_ROOT(_lv_layout_list)[layout_id -1].cb(obj, user_data);
 4886              		.loc 1 954 60 view .LVU1434
 4887 006e 064B     		ldr	r3, .L256+4
 4888 0070 1B68     		ldr	r3, [r3]
 4889 0072 03EBC002 		add	r2, r3, r0, lsl #3
 4890              	.LVL482:
 955:Middlewares/lvgl/src/core/lv_obj_pos.c ****         }
 4891              		.loc 1 955 13 is_stmt 1 view .LVU1435
 955:Middlewares/lvgl/src/core/lv_obj_pos.c ****         }
 4892              		.loc 1 955 54 is_stmt 0 view .LVU1436
ARM GAS  /tmp/ccmgRVpn.s 			page 130


 4893 0076 53F83030 		ldr	r3, [r3, r0, lsl #3]
 955:Middlewares/lvgl/src/core/lv_obj_pos.c ****         }
 4894              		.loc 1 955 13 view .LVU1437
 4895 007a 5168     		ldr	r1, [r2, #4]
 4896 007c 2846     		mov	r0, r5
 4897              	.LVL483:
 955:Middlewares/lvgl/src/core/lv_obj_pos.c ****         }
 4898              		.loc 1 955 13 view .LVU1438
 4899 007e 9847     		blx	r3
 4900              	.LVL484:
 955:Middlewares/lvgl/src/core/lv_obj_pos.c ****         }
 4901              		.loc 1 955 13 view .LVU1439
 4902 0080 D3E7     		b	.L250
 4903              	.L257:
 4904 0082 00BF     		.align	2
 4905              	.L256:
 4906 0084 00000000 		.word	.LANCHOR0
 4907 0088 00000000 		.word	_lv_layout_list
 4908              	.LBE231:
 4909              	.LBE228:
 4910              		.cfi_endproc
 4911              	.LFE196:
 4913              		.section	.text.lv_obj_update_layout,"ax",%progbits
 4914              		.align	1
 4915              		.global	lv_obj_update_layout
 4916              		.syntax unified
 4917              		.thumb
 4918              		.thumb_func
 4920              	lv_obj_update_layout:
 4921              	.LVL485:
 4922              	.LFB165:
 290:Middlewares/lvgl/src/core/lv_obj_pos.c ****     static bool mutex = false;
 4923              		.loc 1 290 1 is_stmt 1 view -0
 4924              		.cfi_startproc
 4925              		@ args = 0, pretend = 0, frame = 0
 4926              		@ frame_needed = 0, uses_anonymous_args = 0
 291:Middlewares/lvgl/src/core/lv_obj_pos.c ****     if(mutex) {
 4927              		.loc 1 291 5 view .LVU1441
 292:Middlewares/lvgl/src/core/lv_obj_pos.c ****         LV_LOG_TRACE("Already running, returning")
 4928              		.loc 1 292 5 view .LVU1442
 292:Middlewares/lvgl/src/core/lv_obj_pos.c ****         LV_LOG_TRACE("Already running, returning")
 4929              		.loc 1 292 8 is_stmt 0 view .LVU1443
 4930 0000 0E4B     		ldr	r3, .L267
 4931 0002 1B78     		ldrb	r3, [r3]	@ zero_extendqisi2
 292:Middlewares/lvgl/src/core/lv_obj_pos.c ****         LV_LOG_TRACE("Already running, returning")
 4932              		.loc 1 292 7 view .LVU1444
 4933 0004 03B1     		cbz	r3, .L266
 4934 0006 7047     		bx	lr
 4935              	.L266:
 290:Middlewares/lvgl/src/core/lv_obj_pos.c ****     static bool mutex = false;
 4936              		.loc 1 290 1 view .LVU1445
 4937 0008 10B5     		push	{r4, lr}
 4938              	.LCFI78:
 4939              		.cfi_def_cfa_offset 8
 4940              		.cfi_offset 4, -8
 4941              		.cfi_offset 14, -4
 296:Middlewares/lvgl/src/core/lv_obj_pos.c **** 
ARM GAS  /tmp/ccmgRVpn.s 			page 131


 4942              		.loc 1 296 5 is_stmt 1 view .LVU1446
 296:Middlewares/lvgl/src/core/lv_obj_pos.c **** 
 4943              		.loc 1 296 11 is_stmt 0 view .LVU1447
 4944 000a 0C4B     		ldr	r3, .L267
 4945 000c 0122     		movs	r2, #1
 4946 000e 1A70     		strb	r2, [r3]
 298:Middlewares/lvgl/src/core/lv_obj_pos.c **** 
 4947              		.loc 1 298 5 is_stmt 1 view .LVU1448
 298:Middlewares/lvgl/src/core/lv_obj_pos.c **** 
 4948              		.loc 1 298 22 is_stmt 0 view .LVU1449
 4949 0010 FFF7FEFF 		bl	lv_obj_get_screen
 4950              	.LVL486:
 298:Middlewares/lvgl/src/core/lv_obj_pos.c **** 
 4951              		.loc 1 298 22 view .LVU1450
 4952 0014 0446     		mov	r4, r0
 4953              	.LVL487:
 301:Middlewares/lvgl/src/core/lv_obj_pos.c ****         LV_LOG_INFO("Layout update begin")
 4954              		.loc 1 301 5 is_stmt 1 view .LVU1451
 301:Middlewares/lvgl/src/core/lv_obj_pos.c ****         LV_LOG_INFO("Layout update begin")
 4955              		.loc 1 301 10 is_stmt 0 view .LVU1452
 4956 0016 08E0     		b	.L260
 4957              	.LVL488:
 4958              	.L261:
 303:Middlewares/lvgl/src/core/lv_obj_pos.c ****         layout_update_core(scr);
 4959              		.loc 1 303 9 is_stmt 1 view .LVU1453
 303:Middlewares/lvgl/src/core/lv_obj_pos.c ****         layout_update_core(scr);
 4960              		.loc 1 303 29 is_stmt 0 view .LVU1454
 4961 0018 94F82230 		ldrb	r3, [r4, #34]	@ zero_extendqisi2
 4962 001c 6FF34103 		bfc	r3, #1, #1
 4963 0020 84F82230 		strb	r3, [r4, #34]
 304:Middlewares/lvgl/src/core/lv_obj_pos.c ****         LV_LOG_TRACE("Layout update end")
 4964              		.loc 1 304 9 is_stmt 1 view .LVU1455
 4965 0024 2046     		mov	r0, r4
 4966 0026 FFF7FEFF 		bl	layout_update_core
 4967              	.LVL489:
 4968              	.L260:
 301:Middlewares/lvgl/src/core/lv_obj_pos.c ****         LV_LOG_INFO("Layout update begin")
 4969              		.loc 1 301 10 view .LVU1456
 301:Middlewares/lvgl/src/core/lv_obj_pos.c ****         LV_LOG_INFO("Layout update begin")
 4970              		.loc 1 301 11 is_stmt 0 view .LVU1457
 4971 002a 94F82230 		ldrb	r3, [r4, #34]	@ zero_extendqisi2
 301:Middlewares/lvgl/src/core/lv_obj_pos.c ****         LV_LOG_INFO("Layout update begin")
 4972              		.loc 1 301 10 view .LVU1458
 4973 002e 13F0020F 		tst	r3, #2
 4974 0032 F1D1     		bne	.L261
 308:Middlewares/lvgl/src/core/lv_obj_pos.c **** }
 4975              		.loc 1 308 5 is_stmt 1 view .LVU1459
 308:Middlewares/lvgl/src/core/lv_obj_pos.c **** }
 4976              		.loc 1 308 11 is_stmt 0 view .LVU1460
 4977 0034 014B     		ldr	r3, .L267
 4978 0036 0022     		movs	r2, #0
 4979 0038 1A70     		strb	r2, [r3]
 309:Middlewares/lvgl/src/core/lv_obj_pos.c **** 
 4980              		.loc 1 309 1 view .LVU1461
 4981 003a 10BD     		pop	{r4, pc}
 4982              	.LVL490:
 4983              	.L268:
ARM GAS  /tmp/ccmgRVpn.s 			page 132


 309:Middlewares/lvgl/src/core/lv_obj_pos.c **** 
 4984              		.loc 1 309 1 view .LVU1462
 4985              		.align	2
 4986              	.L267:
 4987 003c 00000000 		.word	.LANCHOR1
 4988              		.cfi_endproc
 4989              	.LFE165:
 4991              		.section	.text.lv_obj_align_to,"ax",%progbits
 4992              		.align	1
 4993              		.global	lv_obj_align_to
 4994              		.syntax unified
 4995              		.thumb
 4996              		.thumb_func
 4998              	lv_obj_align_to:
 4999              	.LVL491:
 5000              	.LFB169:
 334:Middlewares/lvgl/src/core/lv_obj_pos.c ****     LV_ASSERT_OBJ(obj, MY_CLASS);
 5001              		.loc 1 334 1 is_stmt 1 view -0
 5002              		.cfi_startproc
 5003              		@ args = 4, pretend = 0, frame = 16
 5004              		@ frame_needed = 0, uses_anonymous_args = 0
 334:Middlewares/lvgl/src/core/lv_obj_pos.c ****     LV_ASSERT_OBJ(obj, MY_CLASS);
 5005              		.loc 1 334 1 is_stmt 0 view .LVU1464
 5006 0000 2DE9F04F 		push	{r4, r5, r6, r7, r8, r9, r10, fp, lr}
 5007              	.LCFI79:
 5008              		.cfi_def_cfa_offset 36
 5009              		.cfi_offset 4, -36
 5010              		.cfi_offset 5, -32
 5011              		.cfi_offset 6, -28
 5012              		.cfi_offset 7, -24
 5013              		.cfi_offset 8, -20
 5014              		.cfi_offset 9, -16
 5015              		.cfi_offset 10, -12
 5016              		.cfi_offset 11, -8
 5017              		.cfi_offset 14, -4
 5018 0004 85B0     		sub	sp, sp, #20
 5019              	.LCFI80:
 5020              		.cfi_def_cfa_offset 56
 5021 0006 8046     		mov	r8, r0
 5022 0008 0D46     		mov	r5, r1
 5023 000a 9346     		mov	fp, r2
 5024 000c 0193     		str	r3, [sp, #4]
 335:Middlewares/lvgl/src/core/lv_obj_pos.c **** 
 5025              		.loc 1 335 5 is_stmt 1 view .LVU1465
 335:Middlewares/lvgl/src/core/lv_obj_pos.c **** 
 5026              		.loc 1 335 5 view .LVU1466
 335:Middlewares/lvgl/src/core/lv_obj_pos.c **** 
 5027              		.loc 1 335 5 view .LVU1467
 337:Middlewares/lvgl/src/core/lv_obj_pos.c ****     if(base == NULL) base = lv_obj_get_parent(obj);
 5028              		.loc 1 337 5 view .LVU1468
 5029 000e FFF7FEFF 		bl	lv_obj_update_layout
 5030              	.LVL492:
 338:Middlewares/lvgl/src/core/lv_obj_pos.c **** 
 5031              		.loc 1 338 5 view .LVU1469
 338:Middlewares/lvgl/src/core/lv_obj_pos.c **** 
 5032              		.loc 1 338 7 is_stmt 0 view .LVU1470
 5033 0012 002D     		cmp	r5, #0
ARM GAS  /tmp/ccmgRVpn.s 			page 133


 5034 0014 5AD0     		beq	.L296
 5035              	.L270:
 340:Middlewares/lvgl/src/core/lv_obj_pos.c **** 
 5036              		.loc 1 340 5 is_stmt 1 view .LVU1471
 340:Middlewares/lvgl/src/core/lv_obj_pos.c **** 
 5037              		.loc 1 340 5 view .LVU1472
 340:Middlewares/lvgl/src/core/lv_obj_pos.c **** 
 5038              		.loc 1 340 5 view .LVU1473
 342:Middlewares/lvgl/src/core/lv_obj_pos.c ****     lv_coord_t y = 0;
 5039              		.loc 1 342 5 view .LVU1474
 5040              	.LVL493:
 343:Middlewares/lvgl/src/core/lv_obj_pos.c **** 
 5041              		.loc 1 343 5 view .LVU1475
 345:Middlewares/lvgl/src/core/lv_obj_pos.c ****     lv_coord_t pborder = lv_obj_get_style_border_width(parent, LV_PART_MAIN);
 5042              		.loc 1 345 5 view .LVU1476
 345:Middlewares/lvgl/src/core/lv_obj_pos.c ****     lv_coord_t pborder = lv_obj_get_style_border_width(parent, LV_PART_MAIN);
 5043              		.loc 1 345 25 is_stmt 0 view .LVU1477
 5044 0016 4046     		mov	r0, r8
 5045 0018 FFF7FEFF 		bl	lv_obj_get_parent
 5046              	.LVL494:
 5047 001c 0746     		mov	r7, r0
 5048              	.LVL495:
 346:Middlewares/lvgl/src/core/lv_obj_pos.c ****     lv_coord_t pleft = lv_obj_get_style_pad_left(parent, LV_PART_MAIN) + pborder;
 5049              		.loc 1 346 5 is_stmt 1 view .LVU1478
 5050              	.LBB232:
 5051              	.LBI232:
 295:Middlewares/lvgl/src/core/lv_obj_style_gen.h **** {
 5052              		.loc 2 295 26 view .LVU1479
 5053              	.LBB233:
 297:Middlewares/lvgl/src/core/lv_obj_style_gen.h ****     return (lv_coord_t)v.num;
 5054              		.loc 2 297 5 view .LVU1480
 297:Middlewares/lvgl/src/core/lv_obj_style_gen.h ****     return (lv_coord_t)v.num;
 5055              		.loc 2 297 26 is_stmt 0 view .LVU1481
 5056 001e 41F23202 		movw	r2, #4146
 5057 0022 0021     		movs	r1, #0
 5058 0024 FFF7FEFF 		bl	lv_obj_get_style_prop
 5059              	.LVL496:
 297:Middlewares/lvgl/src/core/lv_obj_style_gen.h ****     return (lv_coord_t)v.num;
 5060              		.loc 2 297 26 view .LVU1482
 5061 0028 0446     		mov	r4, r0
 5062              	.LVL497:
 5063              		.loc 2 298 5 is_stmt 1 view .LVU1483
 5064              		.loc 2 298 5 is_stmt 0 view .LVU1484
 5065              	.LBE233:
 5066              	.LBE232:
 347:Middlewares/lvgl/src/core/lv_obj_pos.c ****     lv_coord_t ptop = lv_obj_get_style_pad_top(parent, LV_PART_MAIN) + pborder;
 5067              		.loc 1 347 5 is_stmt 1 view .LVU1485
 5068              	.LBB234:
 5069              	.LBI234:
 103:Middlewares/lvgl/src/core/lv_obj_style_gen.h **** {
 5070              		.loc 2 103 26 view .LVU1486
 5071              	.LBB235:
 105:Middlewares/lvgl/src/core/lv_obj_style_gen.h ****     return (lv_coord_t)v.num;
 5072              		.loc 2 105 5 view .LVU1487
 105:Middlewares/lvgl/src/core/lv_obj_style_gen.h ****     return (lv_coord_t)v.num;
 5073              		.loc 2 105 26 is_stmt 0 view .LVU1488
 5074 002a 41F21202 		movw	r2, #4114
ARM GAS  /tmp/ccmgRVpn.s 			page 134


 5075 002e 0021     		movs	r1, #0
 5076 0030 3846     		mov	r0, r7
 5077 0032 FFF7FEFF 		bl	lv_obj_get_style_prop
 5078              	.LVL498:
 106:Middlewares/lvgl/src/core/lv_obj_style_gen.h **** }
 5079              		.loc 2 106 5 is_stmt 1 view .LVU1489
 106:Middlewares/lvgl/src/core/lv_obj_style_gen.h **** }
 5080              		.loc 2 106 5 is_stmt 0 view .LVU1490
 5081              	.LBE235:
 5082              	.LBE234:
 347:Middlewares/lvgl/src/core/lv_obj_pos.c ****     lv_coord_t ptop = lv_obj_get_style_pad_top(parent, LV_PART_MAIN) + pborder;
 5083              		.loc 1 347 72 view .LVU1491
 5084 0036 A4B2     		uxth	r4, r4
 347:Middlewares/lvgl/src/core/lv_obj_pos.c ****     lv_coord_t ptop = lv_obj_get_style_pad_top(parent, LV_PART_MAIN) + pborder;
 5085              		.loc 1 347 72 view .LVU1492
 5086 0038 14FA80FA 		uxtah	r10, r4, r0
 347:Middlewares/lvgl/src/core/lv_obj_pos.c ****     lv_coord_t ptop = lv_obj_get_style_pad_top(parent, LV_PART_MAIN) + pborder;
 5087              		.loc 1 347 16 view .LVU1493
 5088 003c 0FFA8AFA 		sxth	r10, r10
 5089              	.LVL499:
 348:Middlewares/lvgl/src/core/lv_obj_pos.c **** 
 5090              		.loc 1 348 5 is_stmt 1 view .LVU1494
 5091              	.LBB236:
 5092              	.LBI236:
  91:Middlewares/lvgl/src/core/lv_obj_style_gen.h **** {
 5093              		.loc 2 91 26 view .LVU1495
 5094              	.LBB237:
  93:Middlewares/lvgl/src/core/lv_obj_style_gen.h ****     return (lv_coord_t)v.num;
 5095              		.loc 2 93 5 view .LVU1496
  93:Middlewares/lvgl/src/core/lv_obj_style_gen.h ****     return (lv_coord_t)v.num;
 5096              		.loc 2 93 26 is_stmt 0 view .LVU1497
 5097 0040 41F21002 		movw	r2, #4112
 5098 0044 0021     		movs	r1, #0
 5099 0046 3846     		mov	r0, r7
 5100 0048 FFF7FEFF 		bl	lv_obj_get_style_prop
 5101              	.LVL500:
  94:Middlewares/lvgl/src/core/lv_obj_style_gen.h **** }
 5102              		.loc 2 94 5 is_stmt 1 view .LVU1498
  94:Middlewares/lvgl/src/core/lv_obj_style_gen.h **** }
 5103              		.loc 2 94 5 is_stmt 0 view .LVU1499
 5104              	.LBE237:
 5105              	.LBE236:
 348:Middlewares/lvgl/src/core/lv_obj_pos.c **** 
 5106              		.loc 1 348 70 view .LVU1500
 5107 004c 14FA80F9 		uxtah	r9, r4, r0
 348:Middlewares/lvgl/src/core/lv_obj_pos.c **** 
 5108              		.loc 1 348 16 view .LVU1501
 5109 0050 0FFA89F9 		sxth	r9, r9
 5110              	.LVL501:
 350:Middlewares/lvgl/src/core/lv_obj_pos.c ****     lv_coord_t bleft = lv_obj_get_style_pad_left(base, LV_PART_MAIN) + bborder;
 5111              		.loc 1 350 5 is_stmt 1 view .LVU1502
 5112              	.LBB238:
 5113              	.LBI238:
 295:Middlewares/lvgl/src/core/lv_obj_style_gen.h **** {
 5114              		.loc 2 295 26 view .LVU1503
 5115              	.LBB239:
 297:Middlewares/lvgl/src/core/lv_obj_style_gen.h ****     return (lv_coord_t)v.num;
ARM GAS  /tmp/ccmgRVpn.s 			page 135


 5116              		.loc 2 297 5 view .LVU1504
 297:Middlewares/lvgl/src/core/lv_obj_style_gen.h ****     return (lv_coord_t)v.num;
 5117              		.loc 2 297 26 is_stmt 0 view .LVU1505
 5118 0054 41F23202 		movw	r2, #4146
 5119 0058 0021     		movs	r1, #0
 5120 005a 2846     		mov	r0, r5
 5121 005c FFF7FEFF 		bl	lv_obj_get_style_prop
 5122              	.LVL502:
 5123 0060 0646     		mov	r6, r0
 5124              	.LVL503:
 5125              		.loc 2 298 5 is_stmt 1 view .LVU1506
 5126              		.loc 2 298 5 is_stmt 0 view .LVU1507
 5127              	.LBE239:
 5128              	.LBE238:
 351:Middlewares/lvgl/src/core/lv_obj_pos.c ****     lv_coord_t btop = lv_obj_get_style_pad_top(base, LV_PART_MAIN) + bborder;
 5129              		.loc 1 351 5 is_stmt 1 view .LVU1508
 5130              	.LBB240:
 5131              	.LBI240:
 103:Middlewares/lvgl/src/core/lv_obj_style_gen.h **** {
 5132              		.loc 2 103 26 view .LVU1509
 5133              	.LBB241:
 105:Middlewares/lvgl/src/core/lv_obj_style_gen.h ****     return (lv_coord_t)v.num;
 5134              		.loc 2 105 5 view .LVU1510
 105:Middlewares/lvgl/src/core/lv_obj_style_gen.h ****     return (lv_coord_t)v.num;
 5135              		.loc 2 105 26 is_stmt 0 view .LVU1511
 5136 0062 41F21202 		movw	r2, #4114
 5137 0066 0021     		movs	r1, #0
 5138 0068 2846     		mov	r0, r5
 5139 006a FFF7FEFF 		bl	lv_obj_get_style_prop
 5140              	.LVL504:
 106:Middlewares/lvgl/src/core/lv_obj_style_gen.h **** }
 5141              		.loc 2 106 5 is_stmt 1 view .LVU1512
 106:Middlewares/lvgl/src/core/lv_obj_style_gen.h **** }
 5142              		.loc 2 106 5 is_stmt 0 view .LVU1513
 5143              	.LBE241:
 5144              	.LBE240:
 351:Middlewares/lvgl/src/core/lv_obj_pos.c ****     lv_coord_t btop = lv_obj_get_style_pad_top(base, LV_PART_MAIN) + bborder;
 5145              		.loc 1 351 70 view .LVU1514
 5146 006e B6B2     		uxth	r6, r6
 351:Middlewares/lvgl/src/core/lv_obj_pos.c ****     lv_coord_t btop = lv_obj_get_style_pad_top(base, LV_PART_MAIN) + bborder;
 5147              		.loc 1 351 70 view .LVU1515
 5148 0070 16FA80F0 		uxtah	r0, r6, r0
 5149 0074 83B2     		uxth	r3, r0
 5150 0076 0293     		str	r3, [sp, #8]
 351:Middlewares/lvgl/src/core/lv_obj_pos.c ****     lv_coord_t btop = lv_obj_get_style_pad_top(base, LV_PART_MAIN) + bborder;
 5151              		.loc 1 351 16 view .LVU1516
 5152 0078 04B2     		sxth	r4, r0
 5153              	.LVL505:
 352:Middlewares/lvgl/src/core/lv_obj_pos.c **** 
 5154              		.loc 1 352 5 is_stmt 1 view .LVU1517
 5155              	.LBB242:
 5156              	.LBI242:
  91:Middlewares/lvgl/src/core/lv_obj_style_gen.h **** {
 5157              		.loc 2 91 26 view .LVU1518
 5158              	.LBB243:
  93:Middlewares/lvgl/src/core/lv_obj_style_gen.h ****     return (lv_coord_t)v.num;
 5159              		.loc 2 93 5 view .LVU1519
ARM GAS  /tmp/ccmgRVpn.s 			page 136


  93:Middlewares/lvgl/src/core/lv_obj_style_gen.h ****     return (lv_coord_t)v.num;
 5160              		.loc 2 93 26 is_stmt 0 view .LVU1520
 5161 007a 41F21002 		movw	r2, #4112
 5162 007e 0021     		movs	r1, #0
 5163 0080 2846     		mov	r0, r5
 5164 0082 FFF7FEFF 		bl	lv_obj_get_style_prop
 5165              	.LVL506:
  94:Middlewares/lvgl/src/core/lv_obj_style_gen.h **** }
 5166              		.loc 2 94 5 is_stmt 1 view .LVU1521
  94:Middlewares/lvgl/src/core/lv_obj_style_gen.h **** }
 5167              		.loc 2 94 5 is_stmt 0 view .LVU1522
 5168              	.LBE243:
 5169              	.LBE242:
 352:Middlewares/lvgl/src/core/lv_obj_pos.c **** 
 5170              		.loc 1 352 68 view .LVU1523
 5171 0086 16FA80F6 		uxtah	r6, r6, r0
 5172              	.LVL507:
 352:Middlewares/lvgl/src/core/lv_obj_pos.c **** 
 5173              		.loc 1 352 68 view .LVU1524
 5174 008a B3B2     		uxth	r3, r6
 5175 008c 0393     		str	r3, [sp, #12]
 352:Middlewares/lvgl/src/core/lv_obj_pos.c **** 
 5176              		.loc 1 352 16 view .LVU1525
 5177 008e 36B2     		sxth	r6, r6
 5178              	.LVL508:
 354:Middlewares/lvgl/src/core/lv_obj_pos.c ****         if(lv_obj_get_style_base_dir(base, LV_PART_MAIN) == LV_BASE_DIR_RTL) align = LV_ALIGN_TOP_R
 5179              		.loc 1 354 5 is_stmt 1 view .LVU1526
 354:Middlewares/lvgl/src/core/lv_obj_pos.c ****         if(lv_obj_get_style_base_dir(base, LV_PART_MAIN) == LV_BASE_DIR_RTL) align = LV_ALIGN_TOP_R
 5180              		.loc 1 354 7 is_stmt 0 view .LVU1527
 5181 0090 BBF1000F 		cmp	fp, #0
 5182 0094 1FD0     		beq	.L297
 5183              	.LVL509:
 359:Middlewares/lvgl/src/core/lv_obj_pos.c ****     case LV_ALIGN_CENTER:
 5184              		.loc 1 359 5 is_stmt 1 view .LVU1528
 5185 0096 0BF1FF32 		add	r2, fp, #-1
 5186 009a 142A     		cmp	r2, #20
 5187 009c 52D8     		bhi	.L274
 5188 009e DFE812F0 		tbh	[pc, r2, lsl #1]
 5189              	.L276:
 5190 00a2 2300     		.2byte	(.L273-.L276)/2
 5191 00a4 7900     		.2byte	(.L294-.L276)/2
 5192 00a6 8C00     		.2byte	(.L272-.L276)/2
 5193 00a8 9A00     		.2byte	(.L293-.L276)/2
 5194 00aa A800     		.2byte	(.L292-.L276)/2
 5195 00ac C800     		.2byte	(.L291-.L276)/2
 5196 00ae E300     		.2byte	(.L290-.L276)/2
 5197 00b0 F600     		.2byte	(.L289-.L276)/2
 5198 00b2 5400     		.2byte	(.L288-.L276)/2
 5199 00b4 1601     		.2byte	(.L287-.L276)/2
 5200 00b6 1E01     		.2byte	(.L286-.L276)/2
 5201 00b8 3401     		.2byte	(.L285-.L276)/2
 5202 00ba 4501     		.2byte	(.L284-.L276)/2
 5203 00bc 4B01     		.2byte	(.L283-.L276)/2
 5204 00be 5F01     		.2byte	(.L282-.L276)/2
 5205 00c0 6E01     		.2byte	(.L281-.L276)/2
 5206 00c2 7601     		.2byte	(.L280-.L276)/2
 5207 00c4 8C01     		.2byte	(.L279-.L276)/2
ARM GAS  /tmp/ccmgRVpn.s 			page 137


 5208 00c6 9D01     		.2byte	(.L278-.L276)/2
 5209 00c8 A301     		.2byte	(.L277-.L276)/2
 5210 00ca B701     		.2byte	(.L275-.L276)/2
 5211              	.LVL510:
 5212              		.p2align 1
 5213              	.L296:
 338:Middlewares/lvgl/src/core/lv_obj_pos.c **** 
 5214              		.loc 1 338 22 discriminator 1 view .LVU1529
 338:Middlewares/lvgl/src/core/lv_obj_pos.c **** 
 5215              		.loc 1 338 29 is_stmt 0 discriminator 1 view .LVU1530
 5216 00cc 4046     		mov	r0, r8
 5217 00ce FFF7FEFF 		bl	lv_obj_get_parent
 5218              	.LVL511:
 5219 00d2 0546     		mov	r5, r0
 5220              	.LVL512:
 338:Middlewares/lvgl/src/core/lv_obj_pos.c **** 
 5221              		.loc 1 338 29 discriminator 1 view .LVU1531
 5222 00d4 9FE7     		b	.L270
 5223              	.LVL513:
 5224              	.L297:
 355:Middlewares/lvgl/src/core/lv_obj_pos.c ****         else align = LV_ALIGN_TOP_LEFT;
 5225              		.loc 1 355 9 is_stmt 1 view .LVU1532
 5226              	.LBB244:
 5227              	.LBI244:
 187:Middlewares/lvgl/src/core/lv_obj_style_gen.h **** {
 5228              		.loc 2 187 29 view .LVU1533
 5229              	.LBB245:
 189:Middlewares/lvgl/src/core/lv_obj_style_gen.h ****     return (lv_base_dir_t)v.num;
 5230              		.loc 2 189 5 view .LVU1534
 189:Middlewares/lvgl/src/core/lv_obj_style_gen.h ****     return (lv_base_dir_t)v.num;
 5231              		.loc 2 189 26 is_stmt 0 view .LVU1535
 5232 00d6 41F26A42 		movw	r2, #5226
 5233 00da 0021     		movs	r1, #0
 5234 00dc 2846     		mov	r0, r5
 5235 00de FFF7FEFF 		bl	lv_obj_get_style_prop
 5236              	.LVL514:
 190:Middlewares/lvgl/src/core/lv_obj_style_gen.h **** }
 5237              		.loc 2 190 5 is_stmt 1 view .LVU1536
 190:Middlewares/lvgl/src/core/lv_obj_style_gen.h **** }
 5238              		.loc 2 190 12 is_stmt 0 view .LVU1537
 5239 00e2 C0B2     		uxtb	r0, r0
 5240              	.LVL515:
 190:Middlewares/lvgl/src/core/lv_obj_style_gen.h **** }
 5241              		.loc 2 190 12 view .LVU1538
 5242              	.LBE245:
 5243              	.LBE244:
 355:Middlewares/lvgl/src/core/lv_obj_pos.c ****         else align = LV_ALIGN_TOP_LEFT;
 5244              		.loc 1 355 11 view .LVU1539
 5245 00e4 0128     		cmp	r0, #1
 5246 00e6 68D0     		beq	.L272
 5247              	.LVL516:
 5248              	.L273:
 463:Middlewares/lvgl/src/core/lv_obj_pos.c ****     y += y_ofs + base->coords.y1 - parent->coords.y1 + lv_obj_get_scroll_top(parent) - ptop;
 5249              		.loc 1 463 5 is_stmt 1 view .LVU1540
 463:Middlewares/lvgl/src/core/lv_obj_pos.c ****     y += y_ofs + base->coords.y1 - parent->coords.y1 + lv_obj_get_scroll_top(parent) - ptop;
 5250              		.loc 1 463 30 is_stmt 0 view .LVU1541
 5251 00e8 B5F914B0 		ldrsh	fp, [r5, #20]
ARM GAS  /tmp/ccmgRVpn.s 			page 138


 463:Middlewares/lvgl/src/core/lv_obj_pos.c ****     y += y_ofs + base->coords.y1 - parent->coords.y1 + lv_obj_get_scroll_top(parent) - ptop;
 5252              		.loc 1 463 16 view .LVU1542
 5253 00ec 019B     		ldr	r3, [sp, #4]
 5254 00ee 5B44     		add	r3, r3, fp
 5255 00f0 9B46     		mov	fp, r3
 463:Middlewares/lvgl/src/core/lv_obj_pos.c ****     y += y_ofs + base->coords.y1 - parent->coords.y1 + lv_obj_get_scroll_top(parent) - ptop;
 5256              		.loc 1 463 50 view .LVU1543
 5257 00f2 B7F91430 		ldrsh	r3, [r7, #20]
 463:Middlewares/lvgl/src/core/lv_obj_pos.c ****     y += y_ofs + base->coords.y1 - parent->coords.y1 + lv_obj_get_scroll_top(parent) - ptop;
 5258              		.loc 1 463 34 view .LVU1544
 5259 00f6 ABEB030B 		sub	fp, fp, r3
 463:Middlewares/lvgl/src/core/lv_obj_pos.c ****     y += y_ofs + base->coords.y1 - parent->coords.y1 + lv_obj_get_scroll_top(parent) - ptop;
 5260              		.loc 1 463 56 view .LVU1545
 5261 00fa 3846     		mov	r0, r7
 5262 00fc FFF7FEFF 		bl	lv_obj_get_scroll_left
 5263              	.LVL517:
 463:Middlewares/lvgl/src/core/lv_obj_pos.c ****     y += y_ofs + base->coords.y1 - parent->coords.y1 + lv_obj_get_scroll_top(parent) - ptop;
 5264              		.loc 1 463 54 view .LVU1546
 5265 0100 8344     		add	fp, fp, r0
 463:Middlewares/lvgl/src/core/lv_obj_pos.c ****     y += y_ofs + base->coords.y1 - parent->coords.y1 + lv_obj_get_scroll_top(parent) - ptop;
 5266              		.loc 1 463 87 view .LVU1547
 5267 0102 ABEB0A0A 		sub	r10, fp, r10
 5268              	.LVL518:
 463:Middlewares/lvgl/src/core/lv_obj_pos.c ****     y += y_ofs + base->coords.y1 - parent->coords.y1 + lv_obj_get_scroll_top(parent) - ptop;
 5269              		.loc 1 463 7 view .LVU1548
 5270 0106 5444     		add	r4, r4, r10
 5271              	.LVL519:
 463:Middlewares/lvgl/src/core/lv_obj_pos.c ****     y += y_ofs + base->coords.y1 - parent->coords.y1 + lv_obj_get_scroll_top(parent) - ptop;
 5272              		.loc 1 463 7 view .LVU1549
 5273 0108 24B2     		sxth	r4, r4
 5274              	.LVL520:
 464:Middlewares/lvgl/src/core/lv_obj_pos.c ****     lv_obj_set_style_align(obj, LV_ALIGN_TOP_LEFT, 0);
 5275              		.loc 1 464 5 is_stmt 1 view .LVU1550
 464:Middlewares/lvgl/src/core/lv_obj_pos.c ****     lv_obj_set_style_align(obj, LV_ALIGN_TOP_LEFT, 0);
 5276              		.loc 1 464 30 is_stmt 0 view .LVU1551
 5277 010a B5F91630 		ldrsh	r3, [r5, #22]
 464:Middlewares/lvgl/src/core/lv_obj_pos.c ****     lv_obj_set_style_align(obj, LV_ALIGN_TOP_LEFT, 0);
 5278              		.loc 1 464 16 view .LVU1552
 5279 010e BDF93850 		ldrsh	r5, [sp, #56]
 5280              	.LVL521:
 464:Middlewares/lvgl/src/core/lv_obj_pos.c ****     lv_obj_set_style_align(obj, LV_ALIGN_TOP_LEFT, 0);
 5281              		.loc 1 464 16 view .LVU1553
 5282 0112 1D44     		add	r5, r5, r3
 464:Middlewares/lvgl/src/core/lv_obj_pos.c ****     lv_obj_set_style_align(obj, LV_ALIGN_TOP_LEFT, 0);
 5283              		.loc 1 464 50 view .LVU1554
 5284 0114 B7F91630 		ldrsh	r3, [r7, #22]
 464:Middlewares/lvgl/src/core/lv_obj_pos.c ****     lv_obj_set_style_align(obj, LV_ALIGN_TOP_LEFT, 0);
 5285              		.loc 1 464 34 view .LVU1555
 5286 0118 ED1A     		subs	r5, r5, r3
 464:Middlewares/lvgl/src/core/lv_obj_pos.c ****     lv_obj_set_style_align(obj, LV_ALIGN_TOP_LEFT, 0);
 5287              		.loc 1 464 56 view .LVU1556
 5288 011a 3846     		mov	r0, r7
 5289 011c FFF7FEFF 		bl	lv_obj_get_scroll_top
 5290              	.LVL522:
 464:Middlewares/lvgl/src/core/lv_obj_pos.c ****     lv_obj_set_style_align(obj, LV_ALIGN_TOP_LEFT, 0);
 5291              		.loc 1 464 54 view .LVU1557
 5292 0120 0544     		add	r5, r5, r0
ARM GAS  /tmp/ccmgRVpn.s 			page 139


 464:Middlewares/lvgl/src/core/lv_obj_pos.c ****     lv_obj_set_style_align(obj, LV_ALIGN_TOP_LEFT, 0);
 5293              		.loc 1 464 86 view .LVU1558
 5294 0122 A5EB0909 		sub	r9, r5, r9
 5295              	.LVL523:
 464:Middlewares/lvgl/src/core/lv_obj_pos.c ****     lv_obj_set_style_align(obj, LV_ALIGN_TOP_LEFT, 0);
 5296              		.loc 1 464 7 view .LVU1559
 5297 0126 4E44     		add	r6, r6, r9
 5298              	.LVL524:
 464:Middlewares/lvgl/src/core/lv_obj_pos.c ****     lv_obj_set_style_align(obj, LV_ALIGN_TOP_LEFT, 0);
 5299              		.loc 1 464 7 view .LVU1560
 5300 0128 36B2     		sxth	r6, r6
 5301              	.LVL525:
 465:Middlewares/lvgl/src/core/lv_obj_pos.c ****     lv_obj_set_pos(obj, x, y);
 5302              		.loc 1 465 5 is_stmt 1 view .LVU1561
 5303 012a 0022     		movs	r2, #0
 5304 012c 0121     		movs	r1, #1
 5305 012e 4046     		mov	r0, r8
 5306 0130 FFF7FEFF 		bl	lv_obj_set_style_align
 5307              	.LVL526:
 466:Middlewares/lvgl/src/core/lv_obj_pos.c **** 
 5308              		.loc 1 466 5 view .LVU1562
 5309 0134 3246     		mov	r2, r6
 5310 0136 2146     		mov	r1, r4
 5311 0138 4046     		mov	r0, r8
 5312 013a FFF7FEFF 		bl	lv_obj_set_pos
 5313              	.LVL527:
 468:Middlewares/lvgl/src/core/lv_obj_pos.c **** 
 5314              		.loc 1 468 1 is_stmt 0 view .LVU1563
 5315 013e 05B0     		add	sp, sp, #20
 5316              	.LCFI81:
 5317              		.cfi_remember_state
 5318              		.cfi_def_cfa_offset 36
 5319              		@ sp needed
 5320 0140 BDE8F08F 		pop	{r4, r5, r6, r7, r8, r9, r10, fp, pc}
 5321              	.LVL528:
 5322              	.L274:
 5323              	.LCFI82:
 5324              		.cfi_restore_state
 359:Middlewares/lvgl/src/core/lv_obj_pos.c ****     case LV_ALIGN_CENTER:
 5325              		.loc 1 359 5 view .LVU1564
 5326 0144 0026     		movs	r6, #0
 5327              	.LVL529:
 359:Middlewares/lvgl/src/core/lv_obj_pos.c ****     case LV_ALIGN_CENTER:
 5328              		.loc 1 359 5 view .LVU1565
 5329 0146 3446     		mov	r4, r6
 5330              	.LVL530:
 359:Middlewares/lvgl/src/core/lv_obj_pos.c ****     case LV_ALIGN_CENTER:
 5331              		.loc 1 359 5 view .LVU1566
 5332 0148 CEE7     		b	.L273
 5333              	.LVL531:
 5334              	.L288:
 361:Middlewares/lvgl/src/core/lv_obj_pos.c ****         y = lv_obj_get_content_height(base) / 2 - lv_obj_get_height(obj) / 2 + btop;
 5335              		.loc 1 361 9 is_stmt 1 view .LVU1567
 361:Middlewares/lvgl/src/core/lv_obj_pos.c ****         y = lv_obj_get_content_height(base) / 2 - lv_obj_get_height(obj) / 2 + btop;
 5336              		.loc 1 361 13 is_stmt 0 view .LVU1568
 5337 014a 2846     		mov	r0, r5
 5338 014c FFF7FEFF 		bl	lv_obj_get_content_width
ARM GAS  /tmp/ccmgRVpn.s 			page 140


 5339              	.LVL532:
 5340 0150 0446     		mov	r4, r0
 5341              	.LVL533:
 361:Middlewares/lvgl/src/core/lv_obj_pos.c ****         y = lv_obj_get_content_height(base) / 2 - lv_obj_get_height(obj) / 2 + btop;
 5342              		.loc 1 361 50 view .LVU1569
 5343 0152 4046     		mov	r0, r8
 5344 0154 FFF7FEFF 		bl	lv_obj_get_width
 5345              	.LVL534:
 361:Middlewares/lvgl/src/core/lv_obj_pos.c ****         y = lv_obj_get_content_height(base) / 2 - lv_obj_get_height(obj) / 2 + btop;
 5346              		.loc 1 361 48 view .LVU1570
 5347 0158 04EBD473 		add	r3, r4, r4, lsr #31
 5348 015c 00EBD070 		add	r0, r0, r0, lsr #31
 5349 0160 4410     		asrs	r4, r0, #1
 5350 0162 C4EB6304 		rsb	r4, r4, r3, asr #1
 361:Middlewares/lvgl/src/core/lv_obj_pos.c ****         y = lv_obj_get_content_height(base) / 2 - lv_obj_get_height(obj) / 2 + btop;
 5351              		.loc 1 361 76 view .LVU1571
 5352 0166 029B     		ldr	r3, [sp, #8]
 5353 0168 13FA84F4 		uxtah	r4, r3, r4
 361:Middlewares/lvgl/src/core/lv_obj_pos.c ****         y = lv_obj_get_content_height(base) / 2 - lv_obj_get_height(obj) / 2 + btop;
 5354              		.loc 1 361 11 view .LVU1572
 5355 016c 24B2     		sxth	r4, r4
 5356              	.LVL535:
 362:Middlewares/lvgl/src/core/lv_obj_pos.c ****         break;
 5357              		.loc 1 362 9 is_stmt 1 view .LVU1573
 362:Middlewares/lvgl/src/core/lv_obj_pos.c ****         break;
 5358              		.loc 1 362 13 is_stmt 0 view .LVU1574
 5359 016e 2846     		mov	r0, r5
 5360 0170 FFF7FEFF 		bl	lv_obj_get_content_height
 5361              	.LVL536:
 5362 0174 0646     		mov	r6, r0
 5363              	.LVL537:
 362:Middlewares/lvgl/src/core/lv_obj_pos.c ****         break;
 5364              		.loc 1 362 51 view .LVU1575
 5365 0176 4046     		mov	r0, r8
 5366 0178 FFF7FEFF 		bl	lv_obj_get_height
 5367              	.LVL538:
 362:Middlewares/lvgl/src/core/lv_obj_pos.c ****         break;
 5368              		.loc 1 362 49 view .LVU1576
 5369 017c 06EBD673 		add	r3, r6, r6, lsr #31
 5370 0180 00EBD070 		add	r0, r0, r0, lsr #31
 5371 0184 4610     		asrs	r6, r0, #1
 5372 0186 C6EB6306 		rsb	r6, r6, r3, asr #1
 362:Middlewares/lvgl/src/core/lv_obj_pos.c ****         break;
 5373              		.loc 1 362 78 view .LVU1577
 5374 018a 039B     		ldr	r3, [sp, #12]
 5375 018c 13FA86F6 		uxtah	r6, r3, r6
 362:Middlewares/lvgl/src/core/lv_obj_pos.c ****         break;
 5376              		.loc 1 362 11 view .LVU1578
 5377 0190 36B2     		sxth	r6, r6
 5378              	.LVL539:
 363:Middlewares/lvgl/src/core/lv_obj_pos.c ****     case LV_ALIGN_TOP_LEFT:
 5379              		.loc 1 363 9 is_stmt 1 view .LVU1579
 5380 0192 A9E7     		b	.L273
 5381              	.LVL540:
 5382              	.L294:
 369:Middlewares/lvgl/src/core/lv_obj_pos.c ****         y = btop;
 5383              		.loc 1 369 9 view .LVU1580
ARM GAS  /tmp/ccmgRVpn.s 			page 141


 369:Middlewares/lvgl/src/core/lv_obj_pos.c ****         y = btop;
 5384              		.loc 1 369 13 is_stmt 0 view .LVU1581
 5385 0194 2846     		mov	r0, r5
 5386 0196 FFF7FEFF 		bl	lv_obj_get_content_width
 5387              	.LVL541:
 5388 019a 0446     		mov	r4, r0
 5389              	.LVL542:
 369:Middlewares/lvgl/src/core/lv_obj_pos.c ****         y = btop;
 5390              		.loc 1 369 50 view .LVU1582
 5391 019c 4046     		mov	r0, r8
 5392 019e FFF7FEFF 		bl	lv_obj_get_width
 5393              	.LVL543:
 369:Middlewares/lvgl/src/core/lv_obj_pos.c ****         y = btop;
 5394              		.loc 1 369 48 view .LVU1583
 5395 01a2 04EBD473 		add	r3, r4, r4, lsr #31
 5396 01a6 00EBD070 		add	r0, r0, r0, lsr #31
 5397 01aa 4410     		asrs	r4, r0, #1
 5398 01ac C4EB6304 		rsb	r4, r4, r3, asr #1
 369:Middlewares/lvgl/src/core/lv_obj_pos.c ****         y = btop;
 5399              		.loc 1 369 76 view .LVU1584
 5400 01b0 029B     		ldr	r3, [sp, #8]
 5401 01b2 13FA84F4 		uxtah	r4, r3, r4
 369:Middlewares/lvgl/src/core/lv_obj_pos.c ****         y = btop;
 5402              		.loc 1 369 11 view .LVU1585
 5403 01b6 24B2     		sxth	r4, r4
 5404              	.LVL544:
 370:Middlewares/lvgl/src/core/lv_obj_pos.c ****         break;
 5405              		.loc 1 370 9 is_stmt 1 view .LVU1586
 371:Middlewares/lvgl/src/core/lv_obj_pos.c **** 
 5406              		.loc 1 371 9 view .LVU1587
 5407 01b8 96E7     		b	.L273
 5408              	.LVL545:
 5409              	.L272:
 374:Middlewares/lvgl/src/core/lv_obj_pos.c ****         y = btop;
 5410              		.loc 1 374 9 view .LVU1588
 374:Middlewares/lvgl/src/core/lv_obj_pos.c ****         y = btop;
 5411              		.loc 1 374 13 is_stmt 0 view .LVU1589
 5412 01ba 2846     		mov	r0, r5
 5413 01bc FFF7FEFF 		bl	lv_obj_get_content_width
 5414              	.LVL546:
 5415 01c0 84B2     		uxth	r4, r0
 5416              	.LVL547:
 374:Middlewares/lvgl/src/core/lv_obj_pos.c ****         y = btop;
 5417              		.loc 1 374 46 view .LVU1590
 5418 01c2 4046     		mov	r0, r8
 5419 01c4 FFF7FEFF 		bl	lv_obj_get_width
 5420              	.LVL548:
 5421 01c8 80B2     		uxth	r0, r0
 374:Middlewares/lvgl/src/core/lv_obj_pos.c ****         y = btop;
 5422              		.loc 1 374 44 view .LVU1591
 5423 01ca 241A     		subs	r4, r4, r0
 374:Middlewares/lvgl/src/core/lv_obj_pos.c ****         y = btop;
 5424              		.loc 1 374 68 view .LVU1592
 5425 01cc 029B     		ldr	r3, [sp, #8]
 5426 01ce 13FA84F4 		uxtah	r4, r3, r4
 374:Middlewares/lvgl/src/core/lv_obj_pos.c ****         y = btop;
 5427              		.loc 1 374 11 view .LVU1593
ARM GAS  /tmp/ccmgRVpn.s 			page 142


 5428 01d2 24B2     		sxth	r4, r4
 5429              	.LVL549:
 375:Middlewares/lvgl/src/core/lv_obj_pos.c ****         break;
 5430              		.loc 1 375 9 is_stmt 1 view .LVU1594
 376:Middlewares/lvgl/src/core/lv_obj_pos.c **** 
 5431              		.loc 1 376 9 view .LVU1595
 5432 01d4 88E7     		b	.L273
 5433              	.LVL550:
 5434              	.L293:
 379:Middlewares/lvgl/src/core/lv_obj_pos.c ****         y = lv_obj_get_content_height(base) - lv_obj_get_height(obj) + btop;
 5435              		.loc 1 379 9 view .LVU1596
 380:Middlewares/lvgl/src/core/lv_obj_pos.c ****         break;
 5436              		.loc 1 380 9 view .LVU1597
 380:Middlewares/lvgl/src/core/lv_obj_pos.c ****         break;
 5437              		.loc 1 380 13 is_stmt 0 view .LVU1598
 5438 01d6 2846     		mov	r0, r5
 5439 01d8 FFF7FEFF 		bl	lv_obj_get_content_height
 5440              	.LVL551:
 5441 01dc 86B2     		uxth	r6, r0
 5442              	.LVL552:
 380:Middlewares/lvgl/src/core/lv_obj_pos.c ****         break;
 5443              		.loc 1 380 47 view .LVU1599
 5444 01de 4046     		mov	r0, r8
 5445 01e0 FFF7FEFF 		bl	lv_obj_get_height
 5446              	.LVL553:
 5447 01e4 80B2     		uxth	r0, r0
 380:Middlewares/lvgl/src/core/lv_obj_pos.c ****         break;
 5448              		.loc 1 380 45 view .LVU1600
 5449 01e6 361A     		subs	r6, r6, r0
 380:Middlewares/lvgl/src/core/lv_obj_pos.c ****         break;
 5450              		.loc 1 380 70 view .LVU1601
 5451 01e8 039B     		ldr	r3, [sp, #12]
 5452 01ea 13FA86F6 		uxtah	r6, r3, r6
 380:Middlewares/lvgl/src/core/lv_obj_pos.c ****         break;
 5453              		.loc 1 380 11 view .LVU1602
 5454 01ee 36B2     		sxth	r6, r6
 5455              	.LVL554:
 381:Middlewares/lvgl/src/core/lv_obj_pos.c ****     case LV_ALIGN_BOTTOM_MID:
 5456              		.loc 1 381 9 is_stmt 1 view .LVU1603
 5457 01f0 7AE7     		b	.L273
 5458              	.LVL555:
 5459              	.L292:
 383:Middlewares/lvgl/src/core/lv_obj_pos.c ****         y = lv_obj_get_content_height(base) - lv_obj_get_height(obj) + btop;
 5460              		.loc 1 383 9 view .LVU1604
 383:Middlewares/lvgl/src/core/lv_obj_pos.c ****         y = lv_obj_get_content_height(base) - lv_obj_get_height(obj) + btop;
 5461              		.loc 1 383 13 is_stmt 0 view .LVU1605
 5462 01f2 2846     		mov	r0, r5
 5463 01f4 FFF7FEFF 		bl	lv_obj_get_content_width
 5464              	.LVL556:
 5465 01f8 0446     		mov	r4, r0
 5466              	.LVL557:
 383:Middlewares/lvgl/src/core/lv_obj_pos.c ****         y = lv_obj_get_content_height(base) - lv_obj_get_height(obj) + btop;
 5467              		.loc 1 383 50 view .LVU1606
 5468 01fa 4046     		mov	r0, r8
 5469 01fc FFF7FEFF 		bl	lv_obj_get_width
 5470              	.LVL558:
 383:Middlewares/lvgl/src/core/lv_obj_pos.c ****         y = lv_obj_get_content_height(base) - lv_obj_get_height(obj) + btop;
ARM GAS  /tmp/ccmgRVpn.s 			page 143


 5471              		.loc 1 383 48 view .LVU1607
 5472 0200 04EBD473 		add	r3, r4, r4, lsr #31
 5473 0204 00EBD070 		add	r0, r0, r0, lsr #31
 5474 0208 4410     		asrs	r4, r0, #1
 5475 020a C4EB6304 		rsb	r4, r4, r3, asr #1
 383:Middlewares/lvgl/src/core/lv_obj_pos.c ****         y = lv_obj_get_content_height(base) - lv_obj_get_height(obj) + btop;
 5476              		.loc 1 383 76 view .LVU1608
 5477 020e 029B     		ldr	r3, [sp, #8]
 5478 0210 13FA84F4 		uxtah	r4, r3, r4
 383:Middlewares/lvgl/src/core/lv_obj_pos.c ****         y = lv_obj_get_content_height(base) - lv_obj_get_height(obj) + btop;
 5479              		.loc 1 383 11 view .LVU1609
 5480 0214 24B2     		sxth	r4, r4
 5481              	.LVL559:
 384:Middlewares/lvgl/src/core/lv_obj_pos.c ****         break;
 5482              		.loc 1 384 9 is_stmt 1 view .LVU1610
 384:Middlewares/lvgl/src/core/lv_obj_pos.c ****         break;
 5483              		.loc 1 384 13 is_stmt 0 view .LVU1611
 5484 0216 2846     		mov	r0, r5
 5485 0218 FFF7FEFF 		bl	lv_obj_get_content_height
 5486              	.LVL560:
 5487 021c 86B2     		uxth	r6, r0
 5488              	.LVL561:
 384:Middlewares/lvgl/src/core/lv_obj_pos.c ****         break;
 5489              		.loc 1 384 47 view .LVU1612
 5490 021e 4046     		mov	r0, r8
 5491 0220 FFF7FEFF 		bl	lv_obj_get_height
 5492              	.LVL562:
 5493 0224 80B2     		uxth	r0, r0
 384:Middlewares/lvgl/src/core/lv_obj_pos.c ****         break;
 5494              		.loc 1 384 45 view .LVU1613
 5495 0226 361A     		subs	r6, r6, r0
 384:Middlewares/lvgl/src/core/lv_obj_pos.c ****         break;
 5496              		.loc 1 384 70 view .LVU1614
 5497 0228 039B     		ldr	r3, [sp, #12]
 5498 022a 13FA86F6 		uxtah	r6, r3, r6
 384:Middlewares/lvgl/src/core/lv_obj_pos.c ****         break;
 5499              		.loc 1 384 11 view .LVU1615
 5500 022e 36B2     		sxth	r6, r6
 5501              	.LVL563:
 385:Middlewares/lvgl/src/core/lv_obj_pos.c **** 
 5502              		.loc 1 385 9 is_stmt 1 view .LVU1616
 5503 0230 5AE7     		b	.L273
 5504              	.LVL564:
 5505              	.L291:
 388:Middlewares/lvgl/src/core/lv_obj_pos.c ****         y = lv_obj_get_content_height(base) - lv_obj_get_height(obj) + btop;
 5506              		.loc 1 388 9 view .LVU1617
 388:Middlewares/lvgl/src/core/lv_obj_pos.c ****         y = lv_obj_get_content_height(base) - lv_obj_get_height(obj) + btop;
 5507              		.loc 1 388 13 is_stmt 0 view .LVU1618
 5508 0232 2846     		mov	r0, r5
 5509 0234 FFF7FEFF 		bl	lv_obj_get_content_width
 5510              	.LVL565:
 5511 0238 84B2     		uxth	r4, r0
 5512              	.LVL566:
 388:Middlewares/lvgl/src/core/lv_obj_pos.c ****         y = lv_obj_get_content_height(base) - lv_obj_get_height(obj) + btop;
 5513              		.loc 1 388 46 view .LVU1619
 5514 023a 4046     		mov	r0, r8
 5515 023c FFF7FEFF 		bl	lv_obj_get_width
ARM GAS  /tmp/ccmgRVpn.s 			page 144


 5516              	.LVL567:
 5517 0240 80B2     		uxth	r0, r0
 388:Middlewares/lvgl/src/core/lv_obj_pos.c ****         y = lv_obj_get_content_height(base) - lv_obj_get_height(obj) + btop;
 5518              		.loc 1 388 44 view .LVU1620
 5519 0242 241A     		subs	r4, r4, r0
 388:Middlewares/lvgl/src/core/lv_obj_pos.c ****         y = lv_obj_get_content_height(base) - lv_obj_get_height(obj) + btop;
 5520              		.loc 1 388 68 view .LVU1621
 5521 0244 029B     		ldr	r3, [sp, #8]
 5522 0246 13FA84F4 		uxtah	r4, r3, r4
 388:Middlewares/lvgl/src/core/lv_obj_pos.c ****         y = lv_obj_get_content_height(base) - lv_obj_get_height(obj) + btop;
 5523              		.loc 1 388 11 view .LVU1622
 5524 024a 24B2     		sxth	r4, r4
 5525              	.LVL568:
 389:Middlewares/lvgl/src/core/lv_obj_pos.c ****         break;
 5526              		.loc 1 389 9 is_stmt 1 view .LVU1623
 389:Middlewares/lvgl/src/core/lv_obj_pos.c ****         break;
 5527              		.loc 1 389 13 is_stmt 0 view .LVU1624
 5528 024c 2846     		mov	r0, r5
 5529 024e FFF7FEFF 		bl	lv_obj_get_content_height
 5530              	.LVL569:
 5531 0252 86B2     		uxth	r6, r0
 5532              	.LVL570:
 389:Middlewares/lvgl/src/core/lv_obj_pos.c ****         break;
 5533              		.loc 1 389 47 view .LVU1625
 5534 0254 4046     		mov	r0, r8
 5535 0256 FFF7FEFF 		bl	lv_obj_get_height
 5536              	.LVL571:
 5537 025a 80B2     		uxth	r0, r0
 389:Middlewares/lvgl/src/core/lv_obj_pos.c ****         break;
 5538              		.loc 1 389 45 view .LVU1626
 5539 025c 361A     		subs	r6, r6, r0
 389:Middlewares/lvgl/src/core/lv_obj_pos.c ****         break;
 5540              		.loc 1 389 70 view .LVU1627
 5541 025e 039B     		ldr	r3, [sp, #12]
 5542 0260 13FA86F6 		uxtah	r6, r3, r6
 389:Middlewares/lvgl/src/core/lv_obj_pos.c ****         break;
 5543              		.loc 1 389 11 view .LVU1628
 5544 0264 36B2     		sxth	r6, r6
 5545              	.LVL572:
 390:Middlewares/lvgl/src/core/lv_obj_pos.c **** 
 5546              		.loc 1 390 9 is_stmt 1 view .LVU1629
 5547 0266 3FE7     		b	.L273
 5548              	.LVL573:
 5549              	.L290:
 393:Middlewares/lvgl/src/core/lv_obj_pos.c ****         y = lv_obj_get_content_height(base) / 2 - lv_obj_get_height(obj) / 2 + btop;
 5550              		.loc 1 393 9 view .LVU1630
 394:Middlewares/lvgl/src/core/lv_obj_pos.c ****         break;
 5551              		.loc 1 394 9 view .LVU1631
 394:Middlewares/lvgl/src/core/lv_obj_pos.c ****         break;
 5552              		.loc 1 394 13 is_stmt 0 view .LVU1632
 5553 0268 2846     		mov	r0, r5
 5554 026a FFF7FEFF 		bl	lv_obj_get_content_height
 5555              	.LVL574:
 5556 026e 0646     		mov	r6, r0
 5557              	.LVL575:
 394:Middlewares/lvgl/src/core/lv_obj_pos.c ****         break;
 5558              		.loc 1 394 51 view .LVU1633
ARM GAS  /tmp/ccmgRVpn.s 			page 145


 5559 0270 4046     		mov	r0, r8
 5560 0272 FFF7FEFF 		bl	lv_obj_get_height
 5561              	.LVL576:
 394:Middlewares/lvgl/src/core/lv_obj_pos.c ****         break;
 5562              		.loc 1 394 49 view .LVU1634
 5563 0276 06EBD673 		add	r3, r6, r6, lsr #31
 5564 027a 00EBD070 		add	r0, r0, r0, lsr #31
 5565 027e 4610     		asrs	r6, r0, #1
 5566 0280 C6EB6306 		rsb	r6, r6, r3, asr #1
 394:Middlewares/lvgl/src/core/lv_obj_pos.c ****         break;
 5567              		.loc 1 394 78 view .LVU1635
 5568 0284 039B     		ldr	r3, [sp, #12]
 5569 0286 13FA86F6 		uxtah	r6, r3, r6
 394:Middlewares/lvgl/src/core/lv_obj_pos.c ****         break;
 5570              		.loc 1 394 11 view .LVU1636
 5571 028a 36B2     		sxth	r6, r6
 5572              	.LVL577:
 395:Middlewares/lvgl/src/core/lv_obj_pos.c **** 
 5573              		.loc 1 395 9 is_stmt 1 view .LVU1637
 5574 028c 2CE7     		b	.L273
 5575              	.LVL578:
 5576              	.L289:
 398:Middlewares/lvgl/src/core/lv_obj_pos.c ****         y = lv_obj_get_content_height(base) / 2 - lv_obj_get_height(obj) / 2 + btop;
 5577              		.loc 1 398 9 view .LVU1638
 398:Middlewares/lvgl/src/core/lv_obj_pos.c ****         y = lv_obj_get_content_height(base) / 2 - lv_obj_get_height(obj) / 2 + btop;
 5578              		.loc 1 398 13 is_stmt 0 view .LVU1639
 5579 028e 2846     		mov	r0, r5
 5580 0290 FFF7FEFF 		bl	lv_obj_get_content_width
 5581              	.LVL579:
 5582 0294 84B2     		uxth	r4, r0
 5583              	.LVL580:
 398:Middlewares/lvgl/src/core/lv_obj_pos.c ****         y = lv_obj_get_content_height(base) / 2 - lv_obj_get_height(obj) / 2 + btop;
 5584              		.loc 1 398 46 view .LVU1640
 5585 0296 4046     		mov	r0, r8
 5586 0298 FFF7FEFF 		bl	lv_obj_get_width
 5587              	.LVL581:
 5588 029c 80B2     		uxth	r0, r0
 398:Middlewares/lvgl/src/core/lv_obj_pos.c ****         y = lv_obj_get_content_height(base) / 2 - lv_obj_get_height(obj) / 2 + btop;
 5589              		.loc 1 398 44 view .LVU1641
 5590 029e 241A     		subs	r4, r4, r0
 398:Middlewares/lvgl/src/core/lv_obj_pos.c ****         y = lv_obj_get_content_height(base) / 2 - lv_obj_get_height(obj) / 2 + btop;
 5591              		.loc 1 398 68 view .LVU1642
 5592 02a0 029B     		ldr	r3, [sp, #8]
 5593 02a2 13FA84F4 		uxtah	r4, r3, r4
 398:Middlewares/lvgl/src/core/lv_obj_pos.c ****         y = lv_obj_get_content_height(base) / 2 - lv_obj_get_height(obj) / 2 + btop;
 5594              		.loc 1 398 11 view .LVU1643
 5595 02a6 24B2     		sxth	r4, r4
 5596              	.LVL582:
 399:Middlewares/lvgl/src/core/lv_obj_pos.c ****         break;
 5597              		.loc 1 399 9 is_stmt 1 view .LVU1644
 399:Middlewares/lvgl/src/core/lv_obj_pos.c ****         break;
 5598              		.loc 1 399 13 is_stmt 0 view .LVU1645
 5599 02a8 2846     		mov	r0, r5
 5600 02aa FFF7FEFF 		bl	lv_obj_get_content_height
 5601              	.LVL583:
 5602 02ae 0646     		mov	r6, r0
 5603              	.LVL584:
ARM GAS  /tmp/ccmgRVpn.s 			page 146


 399:Middlewares/lvgl/src/core/lv_obj_pos.c ****         break;
 5604              		.loc 1 399 51 view .LVU1646
 5605 02b0 4046     		mov	r0, r8
 5606 02b2 FFF7FEFF 		bl	lv_obj_get_height
 5607              	.LVL585:
 399:Middlewares/lvgl/src/core/lv_obj_pos.c ****         break;
 5608              		.loc 1 399 49 view .LVU1647
 5609 02b6 06EBD673 		add	r3, r6, r6, lsr #31
 5610 02ba 00EBD070 		add	r0, r0, r0, lsr #31
 5611 02be 4610     		asrs	r6, r0, #1
 5612 02c0 C6EB6306 		rsb	r6, r6, r3, asr #1
 399:Middlewares/lvgl/src/core/lv_obj_pos.c ****         break;
 5613              		.loc 1 399 78 view .LVU1648
 5614 02c4 039B     		ldr	r3, [sp, #12]
 5615 02c6 13FA86F6 		uxtah	r6, r3, r6
 399:Middlewares/lvgl/src/core/lv_obj_pos.c ****         break;
 5616              		.loc 1 399 11 view .LVU1649
 5617 02ca 36B2     		sxth	r6, r6
 5618              	.LVL586:
 400:Middlewares/lvgl/src/core/lv_obj_pos.c **** 
 5619              		.loc 1 400 9 is_stmt 1 view .LVU1650
 5620 02cc 0CE7     		b	.L273
 5621              	.LVL587:
 5622              	.L287:
 403:Middlewares/lvgl/src/core/lv_obj_pos.c ****         y = -lv_obj_get_height(obj);
 5623              		.loc 1 403 9 view .LVU1651
 404:Middlewares/lvgl/src/core/lv_obj_pos.c ****         break;
 5624              		.loc 1 404 9 view .LVU1652
 404:Middlewares/lvgl/src/core/lv_obj_pos.c ****         break;
 5625              		.loc 1 404 14 is_stmt 0 view .LVU1653
 5626 02ce 4046     		mov	r0, r8
 5627 02d0 FFF7FEFF 		bl	lv_obj_get_height
 5628              	.LVL588:
 5629 02d4 86B2     		uxth	r6, r0
 5630              	.LVL589:
 404:Middlewares/lvgl/src/core/lv_obj_pos.c ****         break;
 5631              		.loc 1 404 11 view .LVU1654
 5632 02d6 7642     		rsbs	r6, r6, #0
 5633 02d8 36B2     		sxth	r6, r6
 5634              	.LVL590:
 405:Middlewares/lvgl/src/core/lv_obj_pos.c **** 
 5635              		.loc 1 405 9 is_stmt 1 view .LVU1655
 403:Middlewares/lvgl/src/core/lv_obj_pos.c ****         y = -lv_obj_get_height(obj);
 5636              		.loc 1 403 11 is_stmt 0 view .LVU1656
 5637 02da 0024     		movs	r4, #0
 5638              	.LVL591:
 405:Middlewares/lvgl/src/core/lv_obj_pos.c **** 
 5639              		.loc 1 405 9 view .LVU1657
 5640 02dc 04E7     		b	.L273
 5641              	.LVL592:
 5642              	.L286:
 408:Middlewares/lvgl/src/core/lv_obj_pos.c ****         y = -lv_obj_get_height(obj);
 5643              		.loc 1 408 9 is_stmt 1 view .LVU1658
 408:Middlewares/lvgl/src/core/lv_obj_pos.c ****         y = -lv_obj_get_height(obj);
 5644              		.loc 1 408 13 is_stmt 0 view .LVU1659
 5645 02de 2846     		mov	r0, r5
 5646 02e0 FFF7FEFF 		bl	lv_obj_get_width
ARM GAS  /tmp/ccmgRVpn.s 			page 147


 5647              	.LVL593:
 5648 02e4 0446     		mov	r4, r0
 5649              	.LVL594:
 408:Middlewares/lvgl/src/core/lv_obj_pos.c ****         y = -lv_obj_get_height(obj);
 5650              		.loc 1 408 42 view .LVU1660
 5651 02e6 4046     		mov	r0, r8
 5652 02e8 FFF7FEFF 		bl	lv_obj_get_width
 5653              	.LVL595:
 408:Middlewares/lvgl/src/core/lv_obj_pos.c ****         y = -lv_obj_get_height(obj);
 5654              		.loc 1 408 40 view .LVU1661
 5655 02ec 04EBD473 		add	r3, r4, r4, lsr #31
 5656 02f0 00EBD070 		add	r0, r0, r0, lsr #31
 5657 02f4 4410     		asrs	r4, r0, #1
 5658 02f6 C4EB6304 		rsb	r4, r4, r3, asr #1
 408:Middlewares/lvgl/src/core/lv_obj_pos.c ****         y = -lv_obj_get_height(obj);
 5659              		.loc 1 408 11 view .LVU1662
 5660 02fa 24B2     		sxth	r4, r4
 5661              	.LVL596:
 409:Middlewares/lvgl/src/core/lv_obj_pos.c ****         break;
 5662              		.loc 1 409 9 is_stmt 1 view .LVU1663
 409:Middlewares/lvgl/src/core/lv_obj_pos.c ****         break;
 5663              		.loc 1 409 14 is_stmt 0 view .LVU1664
 5664 02fc 4046     		mov	r0, r8
 5665 02fe FFF7FEFF 		bl	lv_obj_get_height
 5666              	.LVL597:
 5667 0302 86B2     		uxth	r6, r0
 5668              	.LVL598:
 409:Middlewares/lvgl/src/core/lv_obj_pos.c ****         break;
 5669              		.loc 1 409 11 view .LVU1665
 5670 0304 7642     		rsbs	r6, r6, #0
 5671 0306 36B2     		sxth	r6, r6
 5672              	.LVL599:
 410:Middlewares/lvgl/src/core/lv_obj_pos.c **** 
 5673              		.loc 1 410 9 is_stmt 1 view .LVU1666
 5674 0308 EEE6     		b	.L273
 5675              	.LVL600:
 5676              	.L285:
 413:Middlewares/lvgl/src/core/lv_obj_pos.c ****         y = -lv_obj_get_height(obj);
 5677              		.loc 1 413 9 view .LVU1667
 413:Middlewares/lvgl/src/core/lv_obj_pos.c ****         y = -lv_obj_get_height(obj);
 5678              		.loc 1 413 13 is_stmt 0 view .LVU1668
 5679 030a 2846     		mov	r0, r5
 5680 030c FFF7FEFF 		bl	lv_obj_get_width
 5681              	.LVL601:
 5682 0310 84B2     		uxth	r4, r0
 5683              	.LVL602:
 413:Middlewares/lvgl/src/core/lv_obj_pos.c ****         y = -lv_obj_get_height(obj);
 5684              		.loc 1 413 38 view .LVU1669
 5685 0312 4046     		mov	r0, r8
 5686 0314 FFF7FEFF 		bl	lv_obj_get_width
 5687              	.LVL603:
 5688 0318 80B2     		uxth	r0, r0
 413:Middlewares/lvgl/src/core/lv_obj_pos.c ****         y = -lv_obj_get_height(obj);
 5689              		.loc 1 413 36 view .LVU1670
 5690 031a 241A     		subs	r4, r4, r0
 413:Middlewares/lvgl/src/core/lv_obj_pos.c ****         y = -lv_obj_get_height(obj);
 5691              		.loc 1 413 11 view .LVU1671
ARM GAS  /tmp/ccmgRVpn.s 			page 148


 5692 031c 24B2     		sxth	r4, r4
 5693              	.LVL604:
 414:Middlewares/lvgl/src/core/lv_obj_pos.c ****         break;
 5694              		.loc 1 414 9 is_stmt 1 view .LVU1672
 414:Middlewares/lvgl/src/core/lv_obj_pos.c ****         break;
 5695              		.loc 1 414 14 is_stmt 0 view .LVU1673
 5696 031e 4046     		mov	r0, r8
 5697 0320 FFF7FEFF 		bl	lv_obj_get_height
 5698              	.LVL605:
 5699 0324 86B2     		uxth	r6, r0
 5700              	.LVL606:
 414:Middlewares/lvgl/src/core/lv_obj_pos.c ****         break;
 5701              		.loc 1 414 11 view .LVU1674
 5702 0326 7642     		rsbs	r6, r6, #0
 5703 0328 36B2     		sxth	r6, r6
 5704              	.LVL607:
 415:Middlewares/lvgl/src/core/lv_obj_pos.c **** 
 5705              		.loc 1 415 9 is_stmt 1 view .LVU1675
 5706 032a DDE6     		b	.L273
 5707              	.LVL608:
 5708              	.L284:
 418:Middlewares/lvgl/src/core/lv_obj_pos.c ****         y = lv_obj_get_height(base);
 5709              		.loc 1 418 9 view .LVU1676
 419:Middlewares/lvgl/src/core/lv_obj_pos.c ****         break;
 5710              		.loc 1 419 9 view .LVU1677
 419:Middlewares/lvgl/src/core/lv_obj_pos.c ****         break;
 5711              		.loc 1 419 13 is_stmt 0 view .LVU1678
 5712 032c 2846     		mov	r0, r5
 5713 032e FFF7FEFF 		bl	lv_obj_get_height
 5714              	.LVL609:
 5715 0332 0646     		mov	r6, r0
 5716              	.LVL610:
 420:Middlewares/lvgl/src/core/lv_obj_pos.c **** 
 5717              		.loc 1 420 9 is_stmt 1 view .LVU1679
 418:Middlewares/lvgl/src/core/lv_obj_pos.c ****         y = lv_obj_get_height(base);
 5718              		.loc 1 418 11 is_stmt 0 view .LVU1680
 5719 0334 0024     		movs	r4, #0
 5720              	.LVL611:
 420:Middlewares/lvgl/src/core/lv_obj_pos.c **** 
 5721              		.loc 1 420 9 view .LVU1681
 5722 0336 D7E6     		b	.L273
 5723              	.LVL612:
 5724              	.L283:
 423:Middlewares/lvgl/src/core/lv_obj_pos.c ****         y = lv_obj_get_height(base);
 5725              		.loc 1 423 9 is_stmt 1 view .LVU1682
 423:Middlewares/lvgl/src/core/lv_obj_pos.c ****         y = lv_obj_get_height(base);
 5726              		.loc 1 423 13 is_stmt 0 view .LVU1683
 5727 0338 2846     		mov	r0, r5
 5728 033a FFF7FEFF 		bl	lv_obj_get_width
 5729              	.LVL613:
 5730 033e 0446     		mov	r4, r0
 5731              	.LVL614:
 423:Middlewares/lvgl/src/core/lv_obj_pos.c ****         y = lv_obj_get_height(base);
 5732              		.loc 1 423 42 view .LVU1684
 5733 0340 4046     		mov	r0, r8
 5734 0342 FFF7FEFF 		bl	lv_obj_get_width
 5735              	.LVL615:
ARM GAS  /tmp/ccmgRVpn.s 			page 149


 423:Middlewares/lvgl/src/core/lv_obj_pos.c ****         y = lv_obj_get_height(base);
 5736              		.loc 1 423 40 view .LVU1685
 5737 0346 04EBD473 		add	r3, r4, r4, lsr #31
 5738 034a 00EBD070 		add	r0, r0, r0, lsr #31
 5739 034e 4410     		asrs	r4, r0, #1
 5740 0350 C4EB6304 		rsb	r4, r4, r3, asr #1
 423:Middlewares/lvgl/src/core/lv_obj_pos.c ****         y = lv_obj_get_height(base);
 5741              		.loc 1 423 11 view .LVU1686
 5742 0354 24B2     		sxth	r4, r4
 5743              	.LVL616:
 424:Middlewares/lvgl/src/core/lv_obj_pos.c ****         break;
 5744              		.loc 1 424 9 is_stmt 1 view .LVU1687
 424:Middlewares/lvgl/src/core/lv_obj_pos.c ****         break;
 5745              		.loc 1 424 13 is_stmt 0 view .LVU1688
 5746 0356 2846     		mov	r0, r5
 5747 0358 FFF7FEFF 		bl	lv_obj_get_height
 5748              	.LVL617:
 5749 035c 0646     		mov	r6, r0
 5750              	.LVL618:
 425:Middlewares/lvgl/src/core/lv_obj_pos.c **** 
 5751              		.loc 1 425 9 is_stmt 1 view .LVU1689
 5752 035e C3E6     		b	.L273
 5753              	.LVL619:
 5754              	.L282:
 428:Middlewares/lvgl/src/core/lv_obj_pos.c ****         y = lv_obj_get_height(base);
 5755              		.loc 1 428 9 view .LVU1690
 428:Middlewares/lvgl/src/core/lv_obj_pos.c ****         y = lv_obj_get_height(base);
 5756              		.loc 1 428 13 is_stmt 0 view .LVU1691
 5757 0360 2846     		mov	r0, r5
 5758 0362 FFF7FEFF 		bl	lv_obj_get_width
 5759              	.LVL620:
 5760 0366 84B2     		uxth	r4, r0
 5761              	.LVL621:
 428:Middlewares/lvgl/src/core/lv_obj_pos.c ****         y = lv_obj_get_height(base);
 5762              		.loc 1 428 38 view .LVU1692
 5763 0368 4046     		mov	r0, r8
 5764 036a FFF7FEFF 		bl	lv_obj_get_width
 5765              	.LVL622:
 5766 036e 80B2     		uxth	r0, r0
 428:Middlewares/lvgl/src/core/lv_obj_pos.c ****         y = lv_obj_get_height(base);
 5767              		.loc 1 428 36 view .LVU1693
 5768 0370 241A     		subs	r4, r4, r0
 428:Middlewares/lvgl/src/core/lv_obj_pos.c ****         y = lv_obj_get_height(base);
 5769              		.loc 1 428 11 view .LVU1694
 5770 0372 24B2     		sxth	r4, r4
 5771              	.LVL623:
 429:Middlewares/lvgl/src/core/lv_obj_pos.c ****         break;
 5772              		.loc 1 429 9 is_stmt 1 view .LVU1695
 429:Middlewares/lvgl/src/core/lv_obj_pos.c ****         break;
 5773              		.loc 1 429 13 is_stmt 0 view .LVU1696
 5774 0374 2846     		mov	r0, r5
 5775 0376 FFF7FEFF 		bl	lv_obj_get_height
 5776              	.LVL624:
 5777 037a 0646     		mov	r6, r0
 5778              	.LVL625:
 430:Middlewares/lvgl/src/core/lv_obj_pos.c **** 
 5779              		.loc 1 430 9 is_stmt 1 view .LVU1697
ARM GAS  /tmp/ccmgRVpn.s 			page 150


 5780 037c B4E6     		b	.L273
 5781              	.LVL626:
 5782              	.L281:
 433:Middlewares/lvgl/src/core/lv_obj_pos.c ****         y = 0;
 5783              		.loc 1 433 9 view .LVU1698
 433:Middlewares/lvgl/src/core/lv_obj_pos.c ****         y = 0;
 5784              		.loc 1 433 14 is_stmt 0 view .LVU1699
 5785 037e 4046     		mov	r0, r8
 5786 0380 FFF7FEFF 		bl	lv_obj_get_width
 5787              	.LVL627:
 5788 0384 84B2     		uxth	r4, r0
 5789              	.LVL628:
 433:Middlewares/lvgl/src/core/lv_obj_pos.c ****         y = 0;
 5790              		.loc 1 433 11 view .LVU1700
 5791 0386 6442     		rsbs	r4, r4, #0
 5792 0388 24B2     		sxth	r4, r4
 5793              	.LVL629:
 434:Middlewares/lvgl/src/core/lv_obj_pos.c ****         break;
 5794              		.loc 1 434 9 is_stmt 1 view .LVU1701
 435:Middlewares/lvgl/src/core/lv_obj_pos.c **** 
 5795              		.loc 1 435 9 view .LVU1702
 434:Middlewares/lvgl/src/core/lv_obj_pos.c ****         break;
 5796              		.loc 1 434 11 is_stmt 0 view .LVU1703
 5797 038a 0026     		movs	r6, #0
 5798              	.LVL630:
 435:Middlewares/lvgl/src/core/lv_obj_pos.c **** 
 5799              		.loc 1 435 9 view .LVU1704
 5800 038c ACE6     		b	.L273
 5801              	.LVL631:
 5802              	.L280:
 438:Middlewares/lvgl/src/core/lv_obj_pos.c ****         y = lv_obj_get_height(base) / 2 - lv_obj_get_height(obj) / 2;
 5803              		.loc 1 438 9 is_stmt 1 view .LVU1705
 438:Middlewares/lvgl/src/core/lv_obj_pos.c ****         y = lv_obj_get_height(base) / 2 - lv_obj_get_height(obj) / 2;
 5804              		.loc 1 438 14 is_stmt 0 view .LVU1706
 5805 038e 4046     		mov	r0, r8
 5806 0390 FFF7FEFF 		bl	lv_obj_get_width
 5807              	.LVL632:
 5808 0394 84B2     		uxth	r4, r0
 5809              	.LVL633:
 438:Middlewares/lvgl/src/core/lv_obj_pos.c ****         y = lv_obj_get_height(base) / 2 - lv_obj_get_height(obj) / 2;
 5810              		.loc 1 438 11 view .LVU1707
 5811 0396 6442     		rsbs	r4, r4, #0
 5812 0398 24B2     		sxth	r4, r4
 5813              	.LVL634:
 439:Middlewares/lvgl/src/core/lv_obj_pos.c ****         break;
 5814              		.loc 1 439 9 is_stmt 1 view .LVU1708
 439:Middlewares/lvgl/src/core/lv_obj_pos.c ****         break;
 5815              		.loc 1 439 13 is_stmt 0 view .LVU1709
 5816 039a 2846     		mov	r0, r5
 5817 039c FFF7FEFF 		bl	lv_obj_get_height
 5818              	.LVL635:
 5819 03a0 0646     		mov	r6, r0
 5820              	.LVL636:
 439:Middlewares/lvgl/src/core/lv_obj_pos.c ****         break;
 5821              		.loc 1 439 43 view .LVU1710
 5822 03a2 4046     		mov	r0, r8
 5823 03a4 FFF7FEFF 		bl	lv_obj_get_height
ARM GAS  /tmp/ccmgRVpn.s 			page 151


 5824              	.LVL637:
 439:Middlewares/lvgl/src/core/lv_obj_pos.c ****         break;
 5825              		.loc 1 439 41 view .LVU1711
 5826 03a8 06EBD676 		add	r6, r6, r6, lsr #31
 5827 03ac 00EBD070 		add	r0, r0, r0, lsr #31
 5828 03b0 4310     		asrs	r3, r0, #1
 5829 03b2 C3EB6606 		rsb	r6, r3, r6, asr #1
 439:Middlewares/lvgl/src/core/lv_obj_pos.c ****         break;
 5830              		.loc 1 439 11 view .LVU1712
 5831 03b6 36B2     		sxth	r6, r6
 5832              	.LVL638:
 440:Middlewares/lvgl/src/core/lv_obj_pos.c **** 
 5833              		.loc 1 440 9 is_stmt 1 view .LVU1713
 5834 03b8 96E6     		b	.L273
 5835              	.LVL639:
 5836              	.L279:
 443:Middlewares/lvgl/src/core/lv_obj_pos.c ****         y = lv_obj_get_height(base) - lv_obj_get_height(obj);
 5837              		.loc 1 443 9 view .LVU1714
 443:Middlewares/lvgl/src/core/lv_obj_pos.c ****         y = lv_obj_get_height(base) - lv_obj_get_height(obj);
 5838              		.loc 1 443 14 is_stmt 0 view .LVU1715
 5839 03ba 4046     		mov	r0, r8
 5840 03bc FFF7FEFF 		bl	lv_obj_get_width
 5841              	.LVL640:
 5842 03c0 84B2     		uxth	r4, r0
 5843              	.LVL641:
 443:Middlewares/lvgl/src/core/lv_obj_pos.c ****         y = lv_obj_get_height(base) - lv_obj_get_height(obj);
 5844              		.loc 1 443 11 view .LVU1716
 5845 03c2 6442     		rsbs	r4, r4, #0
 5846 03c4 24B2     		sxth	r4, r4
 5847              	.LVL642:
 444:Middlewares/lvgl/src/core/lv_obj_pos.c ****         break;
 5848              		.loc 1 444 9 is_stmt 1 view .LVU1717
 444:Middlewares/lvgl/src/core/lv_obj_pos.c ****         break;
 5849              		.loc 1 444 13 is_stmt 0 view .LVU1718
 5850 03c6 2846     		mov	r0, r5
 5851 03c8 FFF7FEFF 		bl	lv_obj_get_height
 5852              	.LVL643:
 5853 03cc 86B2     		uxth	r6, r0
 5854              	.LVL644:
 444:Middlewares/lvgl/src/core/lv_obj_pos.c ****         break;
 5855              		.loc 1 444 39 view .LVU1719
 5856 03ce 4046     		mov	r0, r8
 5857 03d0 FFF7FEFF 		bl	lv_obj_get_height
 5858              	.LVL645:
 5859 03d4 80B2     		uxth	r0, r0
 444:Middlewares/lvgl/src/core/lv_obj_pos.c ****         break;
 5860              		.loc 1 444 37 view .LVU1720
 5861 03d6 361A     		subs	r6, r6, r0
 444:Middlewares/lvgl/src/core/lv_obj_pos.c ****         break;
 5862              		.loc 1 444 11 view .LVU1721
 5863 03d8 36B2     		sxth	r6, r6
 5864              	.LVL646:
 445:Middlewares/lvgl/src/core/lv_obj_pos.c **** 
 5865              		.loc 1 445 9 is_stmt 1 view .LVU1722
 5866 03da 85E6     		b	.L273
 5867              	.LVL647:
 5868              	.L278:
ARM GAS  /tmp/ccmgRVpn.s 			page 152


 448:Middlewares/lvgl/src/core/lv_obj_pos.c ****         y = 0;
 5869              		.loc 1 448 9 view .LVU1723
 448:Middlewares/lvgl/src/core/lv_obj_pos.c ****         y = 0;
 5870              		.loc 1 448 13 is_stmt 0 view .LVU1724
 5871 03dc 2846     		mov	r0, r5
 5872 03de FFF7FEFF 		bl	lv_obj_get_width
 5873              	.LVL648:
 5874 03e2 0446     		mov	r4, r0
 5875              	.LVL649:
 449:Middlewares/lvgl/src/core/lv_obj_pos.c ****         break;
 5876              		.loc 1 449 9 is_stmt 1 view .LVU1725
 450:Middlewares/lvgl/src/core/lv_obj_pos.c **** 
 5877              		.loc 1 450 9 view .LVU1726
 449:Middlewares/lvgl/src/core/lv_obj_pos.c ****         break;
 5878              		.loc 1 449 11 is_stmt 0 view .LVU1727
 5879 03e4 0026     		movs	r6, #0
 5880              	.LVL650:
 450:Middlewares/lvgl/src/core/lv_obj_pos.c **** 
 5881              		.loc 1 450 9 view .LVU1728
 5882 03e6 7FE6     		b	.L273
 5883              	.LVL651:
 5884              	.L277:
 453:Middlewares/lvgl/src/core/lv_obj_pos.c ****         y = lv_obj_get_height(base) / 2 - lv_obj_get_height(obj) / 2;
 5885              		.loc 1 453 9 is_stmt 1 view .LVU1729
 453:Middlewares/lvgl/src/core/lv_obj_pos.c ****         y = lv_obj_get_height(base) / 2 - lv_obj_get_height(obj) / 2;
 5886              		.loc 1 453 13 is_stmt 0 view .LVU1730
 5887 03e8 2846     		mov	r0, r5
 5888 03ea FFF7FEFF 		bl	lv_obj_get_width
 5889              	.LVL652:
 5890 03ee 0446     		mov	r4, r0
 5891              	.LVL653:
 454:Middlewares/lvgl/src/core/lv_obj_pos.c ****         break;
 5892              		.loc 1 454 9 is_stmt 1 view .LVU1731
 454:Middlewares/lvgl/src/core/lv_obj_pos.c ****         break;
 5893              		.loc 1 454 13 is_stmt 0 view .LVU1732
 5894 03f0 2846     		mov	r0, r5
 5895 03f2 FFF7FEFF 		bl	lv_obj_get_height
 5896              	.LVL654:
 5897 03f6 0646     		mov	r6, r0
 5898              	.LVL655:
 454:Middlewares/lvgl/src/core/lv_obj_pos.c ****         break;
 5899              		.loc 1 454 43 view .LVU1733
 5900 03f8 4046     		mov	r0, r8
 5901 03fa FFF7FEFF 		bl	lv_obj_get_height
 5902              	.LVL656:
 454:Middlewares/lvgl/src/core/lv_obj_pos.c ****         break;
 5903              		.loc 1 454 41 view .LVU1734
 5904 03fe 06EBD676 		add	r6, r6, r6, lsr #31
 5905 0402 00EBD070 		add	r0, r0, r0, lsr #31
 5906 0406 4310     		asrs	r3, r0, #1
 5907 0408 C3EB6606 		rsb	r6, r3, r6, asr #1
 454:Middlewares/lvgl/src/core/lv_obj_pos.c ****         break;
 5908              		.loc 1 454 11 view .LVU1735
 5909 040c 36B2     		sxth	r6, r6
 5910              	.LVL657:
 455:Middlewares/lvgl/src/core/lv_obj_pos.c **** 
 5911              		.loc 1 455 9 is_stmt 1 view .LVU1736
ARM GAS  /tmp/ccmgRVpn.s 			page 153


 5912 040e 6BE6     		b	.L273
 5913              	.LVL658:
 5914              	.L275:
 458:Middlewares/lvgl/src/core/lv_obj_pos.c ****         y = lv_obj_get_height(base) - lv_obj_get_height(obj);
 5915              		.loc 1 458 9 view .LVU1737
 458:Middlewares/lvgl/src/core/lv_obj_pos.c ****         y = lv_obj_get_height(base) - lv_obj_get_height(obj);
 5916              		.loc 1 458 13 is_stmt 0 view .LVU1738
 5917 0410 2846     		mov	r0, r5
 5918 0412 FFF7FEFF 		bl	lv_obj_get_width
 5919              	.LVL659:
 5920 0416 0446     		mov	r4, r0
 5921              	.LVL660:
 459:Middlewares/lvgl/src/core/lv_obj_pos.c ****         break;
 5922              		.loc 1 459 9 is_stmt 1 view .LVU1739
 459:Middlewares/lvgl/src/core/lv_obj_pos.c ****         break;
 5923              		.loc 1 459 13 is_stmt 0 view .LVU1740
 5924 0418 2846     		mov	r0, r5
 5925 041a FFF7FEFF 		bl	lv_obj_get_height
 5926              	.LVL661:
 5927 041e 86B2     		uxth	r6, r0
 5928              	.LVL662:
 459:Middlewares/lvgl/src/core/lv_obj_pos.c ****         break;
 5929              		.loc 1 459 39 view .LVU1741
 5930 0420 4046     		mov	r0, r8
 5931 0422 FFF7FEFF 		bl	lv_obj_get_height
 5932              	.LVL663:
 5933 0426 80B2     		uxth	r0, r0
 459:Middlewares/lvgl/src/core/lv_obj_pos.c ****         break;
 5934              		.loc 1 459 37 view .LVU1742
 5935 0428 361A     		subs	r6, r6, r0
 459:Middlewares/lvgl/src/core/lv_obj_pos.c ****         break;
 5936              		.loc 1 459 11 view .LVU1743
 5937 042a 36B2     		sxth	r6, r6
 5938              	.LVL664:
 460:Middlewares/lvgl/src/core/lv_obj_pos.c ****     }
 5939              		.loc 1 460 9 is_stmt 1 view .LVU1744
 5940 042c 5CE6     		b	.L273
 5941              		.cfi_endproc
 5942              	.LFE169:
 5944              		.section	.bss.layout_cnt,"aw",%nobits
 5945              		.align	2
 5946              		.set	.LANCHOR0,. + 0
 5949              	layout_cnt:
 5950 0000 00000000 		.space	4
 5951              		.section	.bss.mutex.0,"aw",%nobits
 5952              		.set	.LANCHOR1,. + 0
 5955              	mutex.0:
 5956 0000 00       		.space	1
 5957              		.text
 5958              	.Letext0:
 5959              		.file 4 "/home/akinya/gcc-arm-none-eabi/arm-none-eabi/include/machine/_default_types.h"
 5960              		.file 5 "/home/akinya/gcc-arm-none-eabi/arm-none-eabi/include/sys/_stdint.h"
 5961              		.file 6 "Middlewares/lvgl/src/core/../misc/../font/lv_font.h"
 5962              		.file 7 "Middlewares/lvgl/src/core/../misc/lv_types.h"
 5963              		.file 8 "Middlewares/lvgl/src/core/../misc/lv_color.h"
 5964              		.file 9 "Middlewares/lvgl/src/core/../misc/lv_anim.h"
 5965              		.file 10 "Middlewares/lvgl/src/core/../misc/lv_bidi.h"
ARM GAS  /tmp/ccmgRVpn.s 			page 154


 5966              		.file 11 "Middlewares/lvgl/src/core/../misc/lv_style.h"
 5967              		.file 12 "Middlewares/lvgl/src/core/../hal/../misc/lv_ll.h"
 5968              		.file 13 "Middlewares/lvgl/src/core/../hal/../misc/lv_timer.h"
 5969              		.file 14 "Middlewares/lvgl/src/core/../hal/lv_hal_disp.h"
 5970              		.file 15 "Middlewares/lvgl/src/core/lv_theme.h"
 5971              		.file 16 "Middlewares/lvgl/src/core/lv_obj.h"
 5972              		.file 17 "Middlewares/lvgl/src/core/lv_group.h"
 5973              		.file 18 "Middlewares/lvgl/src/core/lv_obj_pos.h"
 5974              		.file 19 "Middlewares/lvgl/src/core/lv_obj_scroll.h"
 5975              		.file 20 "Middlewares/lvgl/src/core/lv_obj_style.h"
 5976              		.file 21 "Middlewares/lvgl/src/core/lv_obj_class.h"
 5977              		.file 22 "Middlewares/lvgl/src/core/lv_event.h"
 5978              		.file 23 "Middlewares/lvgl/src/core/../misc/lv_gc.h"
 5979              		.file 24 "Middlewares/lvgl/src/core/lv_obj_tree.h"
 5980              		.file 25 "Middlewares/lvgl/src/core/lv_obj_draw.h"
 5981              		.file 26 "Middlewares/lvgl/src/core/lv_disp.h"
 5982              		.file 27 "Middlewares/lvgl/src/core/lv_refr.h"
 5983              		.file 28 "Middlewares/lvgl/src/core/../hal/../misc/lv_mem.h"
ARM GAS  /tmp/ccmgRVpn.s 			page 155


DEFINED SYMBOLS
                            *ABS*:0000000000000000 lv_obj_pos.c
     /tmp/ccmgRVpn.s:20     .text.lv_obj_set_width:0000000000000000 $t
     /tmp/ccmgRVpn.s:26     .text.lv_obj_set_width:0000000000000000 lv_obj_set_width
     /tmp/ccmgRVpn.s:98     .text.lv_obj_set_height:0000000000000000 $t
     /tmp/ccmgRVpn.s:104    .text.lv_obj_set_height:0000000000000000 lv_obj_set_height
     /tmp/ccmgRVpn.s:175    .text.lv_obj_set_size:0000000000000000 $t
     /tmp/ccmgRVpn.s:181    .text.lv_obj_set_size:0000000000000000 lv_obj_set_size
     /tmp/ccmgRVpn.s:216    .text.lv_obj_set_content_width:0000000000000000 $t
     /tmp/ccmgRVpn.s:222    .text.lv_obj_set_content_width:0000000000000000 lv_obj_set_content_width
     /tmp/ccmgRVpn.s:321    .text.lv_obj_set_content_height:0000000000000000 $t
     /tmp/ccmgRVpn.s:327    .text.lv_obj_set_content_height:0000000000000000 lv_obj_set_content_height
     /tmp/ccmgRVpn.s:425    .text.lv_obj_is_layout_positioned:0000000000000000 $t
     /tmp/ccmgRVpn.s:431    .text.lv_obj_is_layout_positioned:0000000000000000 lv_obj_is_layout_positioned
     /tmp/ccmgRVpn.s:502    .text.lv_obj_is_layout_positioned:0000000000000034 $d
     /tmp/ccmgRVpn.s:507    .text.lv_obj_set_x:0000000000000000 $t
     /tmp/ccmgRVpn.s:513    .text.lv_obj_set_x:0000000000000000 lv_obj_set_x
     /tmp/ccmgRVpn.s:593    .text.lv_obj_set_y:0000000000000000 $t
     /tmp/ccmgRVpn.s:599    .text.lv_obj_set_y:0000000000000000 lv_obj_set_y
     /tmp/ccmgRVpn.s:679    .text.lv_obj_set_pos:0000000000000000 $t
     /tmp/ccmgRVpn.s:685    .text.lv_obj_set_pos:0000000000000000 lv_obj_set_pos
     /tmp/ccmgRVpn.s:720    .text.lv_obj_mark_layout_as_dirty:0000000000000000 $t
     /tmp/ccmgRVpn.s:726    .text.lv_obj_mark_layout_as_dirty:0000000000000000 lv_obj_mark_layout_as_dirty
     /tmp/ccmgRVpn.s:769    .text.lv_obj_set_layout:0000000000000000 $t
     /tmp/ccmgRVpn.s:775    .text.lv_obj_set_layout:0000000000000000 lv_obj_set_layout
     /tmp/ccmgRVpn.s:810    .text.lv_layout_register:0000000000000000 $t
     /tmp/ccmgRVpn.s:816    .text.lv_layout_register:0000000000000000 lv_layout_register
     /tmp/ccmgRVpn.s:886    .text.lv_layout_register:000000000000003c $d
     /tmp/ccmgRVpn.s:892    .text.lv_obj_set_align:0000000000000000 $t
     /tmp/ccmgRVpn.s:898    .text.lv_obj_set_align:0000000000000000 lv_obj_set_align
     /tmp/ccmgRVpn.s:921    .text.lv_obj_align:0000000000000000 $t
     /tmp/ccmgRVpn.s:927    .text.lv_obj_align:0000000000000000 lv_obj_align
     /tmp/ccmgRVpn.s:964    .text.lv_obj_get_coords:0000000000000000 $t
     /tmp/ccmgRVpn.s:970    .text.lv_obj_get_coords:0000000000000000 lv_obj_get_coords
     /tmp/ccmgRVpn.s:1017   .text.lv_obj_get_x:0000000000000000 $t
     /tmp/ccmgRVpn.s:1023   .text.lv_obj_get_x:0000000000000000 lv_obj_get_x
     /tmp/ccmgRVpn.s:1133   .text.lv_obj_get_y:0000000000000000 $t
     /tmp/ccmgRVpn.s:1139   .text.lv_obj_get_y:0000000000000000 lv_obj_get_y
     /tmp/ccmgRVpn.s:1249   .text.lv_obj_get_width:0000000000000000 $t
     /tmp/ccmgRVpn.s:1255   .text.lv_obj_get_width:0000000000000000 lv_obj_get_width
     /tmp/ccmgRVpn.s:1297   .text.lv_obj_get_x2:0000000000000000 $t
     /tmp/ccmgRVpn.s:1303   .text.lv_obj_get_x2:0000000000000000 lv_obj_get_x2
     /tmp/ccmgRVpn.s:1342   .text.lv_obj_get_height:0000000000000000 $t
     /tmp/ccmgRVpn.s:1348   .text.lv_obj_get_height:0000000000000000 lv_obj_get_height
     /tmp/ccmgRVpn.s:1390   .text.calc_auto_size:0000000000000000 $t
     /tmp/ccmgRVpn.s:1395   .text.calc_auto_size:0000000000000000 calc_auto_size
     /tmp/ccmgRVpn.s:1500   .text.lv_obj_get_y2:0000000000000000 $t
     /tmp/ccmgRVpn.s:1506   .text.lv_obj_get_y2:0000000000000000 lv_obj_get_y2
     /tmp/ccmgRVpn.s:1545   .text.lv_obj_get_content_width:0000000000000000 $t
     /tmp/ccmgRVpn.s:1551   .text.lv_obj_get_content_width:0000000000000000 lv_obj_get_content_width
     /tmp/ccmgRVpn.s:1652   .text.lv_obj_get_content_height:0000000000000000 $t
     /tmp/ccmgRVpn.s:1658   .text.lv_obj_get_content_height:0000000000000000 lv_obj_get_content_height
     /tmp/ccmgRVpn.s:1759   .text.lv_obj_get_content_coords:0000000000000000 $t
     /tmp/ccmgRVpn.s:1765   .text.lv_obj_get_content_coords:0000000000000000 lv_obj_get_content_coords
     /tmp/ccmgRVpn.s:1912   .text.lv_obj_get_self_width:0000000000000000 $t
     /tmp/ccmgRVpn.s:1918   .text.lv_obj_get_self_width:0000000000000000 lv_obj_get_self_width
     /tmp/ccmgRVpn.s:1956   .text.lv_obj_get_self_height:0000000000000000 $t
ARM GAS  /tmp/ccmgRVpn.s 			page 156


     /tmp/ccmgRVpn.s:1962   .text.lv_obj_get_self_height:0000000000000000 lv_obj_get_self_height
     /tmp/ccmgRVpn.s:2000   .text.lv_obj_refresh_self_size:0000000000000000 $t
     /tmp/ccmgRVpn.s:2006   .text.lv_obj_refresh_self_size:0000000000000000 lv_obj_refresh_self_size
     /tmp/ccmgRVpn.s:2089   .text.lv_obj_move_children_by:0000000000000000 $t
     /tmp/ccmgRVpn.s:2095   .text.lv_obj_move_children_by:0000000000000000 lv_obj_move_children_by
     /tmp/ccmgRVpn.s:2207   .text.lv_obj_area_is_visible:0000000000000000 $t
     /tmp/ccmgRVpn.s:2213   .text.lv_obj_area_is_visible:0000000000000000 lv_obj_area_is_visible
     /tmp/ccmgRVpn.s:2439   .text.lv_obj_invalidate_area:0000000000000000 $t
     /tmp/ccmgRVpn.s:2445   .text.lv_obj_invalidate_area:0000000000000000 lv_obj_invalidate_area
     /tmp/ccmgRVpn.s:2534   .text.lv_obj_invalidate:0000000000000000 $t
     /tmp/ccmgRVpn.s:2540   .text.lv_obj_invalidate:0000000000000000 lv_obj_invalidate
     /tmp/ccmgRVpn.s:2629   .text.lv_obj_move_to:0000000000000000 $t
     /tmp/ccmgRVpn.s:2635   .text.lv_obj_move_to:0000000000000000 lv_obj_move_to
     /tmp/ccmgRVpn.s:2970   .text.lv_obj_refr_pos:0000000000000000 $t
     /tmp/ccmgRVpn.s:2976   .text.lv_obj_refr_pos:0000000000000000 lv_obj_refr_pos
     /tmp/ccmgRVpn.s:3222   .text.lv_obj_refr_pos:00000000000000de $d
     /tmp/ccmgRVpn.s:3231   .text.lv_obj_refr_pos:00000000000000e6 $t
     /tmp/ccmgRVpn.s:3565   .text.lv_obj_refr_pos:00000000000002b8 $d
     /tmp/ccmgRVpn.s:3570   .text.lv_obj_is_visible:0000000000000000 $t
     /tmp/ccmgRVpn.s:3576   .text.lv_obj_is_visible:0000000000000000 lv_obj_is_visible
     /tmp/ccmgRVpn.s:3666   .text.lv_obj_set_ext_click_area:0000000000000000 $t
     /tmp/ccmgRVpn.s:3672   .text.lv_obj_set_ext_click_area:0000000000000000 lv_obj_set_ext_click_area
     /tmp/ccmgRVpn.s:3707   .text.lv_obj_get_click_area:0000000000000000 $t
     /tmp/ccmgRVpn.s:3713   .text.lv_obj_get_click_area:0000000000000000 lv_obj_get_click_area
     /tmp/ccmgRVpn.s:3798   .text.lv_obj_hit_test:0000000000000000 $t
     /tmp/ccmgRVpn.s:3804   .text.lv_obj_hit_test:0000000000000000 lv_obj_hit_test
     /tmp/ccmgRVpn.s:3891   .text.lv_clamp_width:0000000000000000 $t
     /tmp/ccmgRVpn.s:3897   .text.lv_clamp_width:0000000000000000 lv_clamp_width
     /tmp/ccmgRVpn.s:3990   .text.lv_clamp_width:0000000000000078 $d
     /tmp/ccmgRVpn.s:3995   .text.lv_clamp_height:0000000000000000 $t
     /tmp/ccmgRVpn.s:4001   .text.lv_clamp_height:0000000000000000 lv_clamp_height
     /tmp/ccmgRVpn.s:4094   .text.lv_clamp_height:0000000000000078 $d
     /tmp/ccmgRVpn.s:4099   .text.lv_obj_refr_size:0000000000000000 $t
     /tmp/ccmgRVpn.s:4105   .text.lv_obj_refr_size:0000000000000000 lv_obj_refr_size
     /tmp/ccmgRVpn.s:4753   .text.lv_obj_refr_size:00000000000002f4 $d
     /tmp/ccmgRVpn.s:4758   .text.layout_update_core:0000000000000000 $t
     /tmp/ccmgRVpn.s:4763   .text.layout_update_core:0000000000000000 layout_update_core
     /tmp/ccmgRVpn.s:4906   .text.layout_update_core:0000000000000084 $d
     /tmp/ccmgRVpn.s:4914   .text.lv_obj_update_layout:0000000000000000 $t
     /tmp/ccmgRVpn.s:4920   .text.lv_obj_update_layout:0000000000000000 lv_obj_update_layout
     /tmp/ccmgRVpn.s:4987   .text.lv_obj_update_layout:000000000000003c $d
     /tmp/ccmgRVpn.s:4992   .text.lv_obj_align_to:0000000000000000 $t
     /tmp/ccmgRVpn.s:4998   .text.lv_obj_align_to:0000000000000000 lv_obj_align_to
     /tmp/ccmgRVpn.s:5190   .text.lv_obj_align_to:00000000000000a2 $d
     /tmp/ccmgRVpn.s:5212   .text.lv_obj_align_to:00000000000000cc $t
     /tmp/ccmgRVpn.s:5945   .bss.layout_cnt:0000000000000000 $d
     /tmp/ccmgRVpn.s:5949   .bss.layout_cnt:0000000000000000 layout_cnt
     /tmp/ccmgRVpn.s:5955   .bss.mutex.0:0000000000000000 mutex.0
     /tmp/ccmgRVpn.s:5956   .bss.mutex.0:0000000000000000 $d

UNDEFINED SYMBOLS
lv_obj_get_local_style_prop
lv_obj_set_style_width
lv_obj_set_style_height
lv_obj_get_style_prop
lv_obj_has_flag_any
lv_obj_get_parent
ARM GAS  /tmp/ccmgRVpn.s 			page 157


lv_obj_set_style_x
lv_obj_set_style_y
lv_obj_get_screen
lv_obj_get_disp
lv_timer_resume
lv_obj_set_style_layout
lv_mem_realloc
_lv_layout_list
lv_obj_set_style_align
lv_obj_get_scroll_x
lv_obj_get_scroll_y
lv_obj_get_scroll_right
lv_obj_get_scroll_left
lv_obj_get_scroll_bottom
lv_obj_get_scroll_top
lv_area_increase
lv_event_send
lv_obj_get_child_cnt
lv_obj_get_child
lv_obj_has_flag
lv_disp_get_scr_act
lv_disp_get_scr_prev
lv_disp_get_layer_top
lv_disp_get_layer_sys
_lv_obj_get_ext_draw_size
_lv_area_intersect
_lv_inv_area
_lv_area_is_in
lv_obj_scrollbar_invalidate
lv_obj_allocate_spec_attr
_lv_area_is_point_on
lv_obj_scroll_to
lv_obj_readjust_scroll
lv_obj_scroll_to_x
lv_obj_scroll_to_y
