ARM GAS  /tmp/ccWVSSdf.s 			page 1


   1              		.cpu cortex-m4
   2              		.arch armv7e-m
   3              		.fpu fpv4-sp-d16
   4              		.eabi_attribute 27, 1
   5              		.eabi_attribute 28, 1
   6              		.eabi_attribute 20, 1
   7              		.eabi_attribute 21, 1
   8              		.eabi_attribute 23, 3
   9              		.eabi_attribute 24, 1
  10              		.eabi_attribute 25, 1
  11              		.eabi_attribute 26, 1
  12              		.eabi_attribute 30, 1
  13              		.eabi_attribute 34, 1
  14              		.eabi_attribute 18, 4
  15              		.file	"lv_txt.c"
  16              		.text
  17              	.Ltext0:
  18              		.cfi_sections	.debug_frame
  19              		.section	.text.lv_txt_utf8_size,"ax",%progbits
  20              		.align	1
  21              		.syntax unified
  22              		.thumb
  23              		.thumb_func
  25              	lv_txt_utf8_size:
  26              	.LVL0:
  27              	.LFB57:
  28              		.file 1 "Middlewares/lvgl/src/misc/lv_txt.c"
   1:Middlewares/lvgl/src/misc/lv_txt.c **** /**
   2:Middlewares/lvgl/src/misc/lv_txt.c ****  * @file lv_text.c
   3:Middlewares/lvgl/src/misc/lv_txt.c ****  *
   4:Middlewares/lvgl/src/misc/lv_txt.c ****  */
   5:Middlewares/lvgl/src/misc/lv_txt.c **** 
   6:Middlewares/lvgl/src/misc/lv_txt.c **** /*********************
   7:Middlewares/lvgl/src/misc/lv_txt.c ****  *      INCLUDES
   8:Middlewares/lvgl/src/misc/lv_txt.c ****  *********************/
   9:Middlewares/lvgl/src/misc/lv_txt.c **** #include <stdarg.h>
  10:Middlewares/lvgl/src/misc/lv_txt.c **** #include "lv_txt.h"
  11:Middlewares/lvgl/src/misc/lv_txt.c **** #include "lv_txt_ap.h"
  12:Middlewares/lvgl/src/misc/lv_txt.c **** #include "lv_math.h"
  13:Middlewares/lvgl/src/misc/lv_txt.c **** #include "lv_log.h"
  14:Middlewares/lvgl/src/misc/lv_txt.c **** #include "lv_mem.h"
  15:Middlewares/lvgl/src/misc/lv_txt.c **** #include "lv_assert.h"
  16:Middlewares/lvgl/src/misc/lv_txt.c **** 
  17:Middlewares/lvgl/src/misc/lv_txt.c **** /*********************
  18:Middlewares/lvgl/src/misc/lv_txt.c ****  *      DEFINES
  19:Middlewares/lvgl/src/misc/lv_txt.c ****  *********************/
  20:Middlewares/lvgl/src/misc/lv_txt.c **** #define NO_BREAK_FOUND UINT32_MAX
  21:Middlewares/lvgl/src/misc/lv_txt.c **** 
  22:Middlewares/lvgl/src/misc/lv_txt.c **** /**********************
  23:Middlewares/lvgl/src/misc/lv_txt.c ****  *      TYPEDEFS
  24:Middlewares/lvgl/src/misc/lv_txt.c ****  **********************/
  25:Middlewares/lvgl/src/misc/lv_txt.c **** 
  26:Middlewares/lvgl/src/misc/lv_txt.c **** /**********************
  27:Middlewares/lvgl/src/misc/lv_txt.c ****  *  STATIC PROTOTYPES
  28:Middlewares/lvgl/src/misc/lv_txt.c ****  **********************/
  29:Middlewares/lvgl/src/misc/lv_txt.c **** 
  30:Middlewares/lvgl/src/misc/lv_txt.c **** #if LV_TXT_ENC == LV_TXT_ENC_UTF8
ARM GAS  /tmp/ccWVSSdf.s 			page 2


  31:Middlewares/lvgl/src/misc/lv_txt.c ****     static uint8_t lv_txt_utf8_size(const char * str);
  32:Middlewares/lvgl/src/misc/lv_txt.c ****     static uint32_t lv_txt_unicode_to_utf8(uint32_t letter_uni);
  33:Middlewares/lvgl/src/misc/lv_txt.c ****     static uint32_t lv_txt_utf8_conv_wc(uint32_t c);
  34:Middlewares/lvgl/src/misc/lv_txt.c ****     static uint32_t lv_txt_utf8_next(const char * txt, uint32_t * i);
  35:Middlewares/lvgl/src/misc/lv_txt.c ****     static uint32_t lv_txt_utf8_prev(const char * txt, uint32_t * i_start);
  36:Middlewares/lvgl/src/misc/lv_txt.c ****     static uint32_t lv_txt_utf8_get_byte_id(const char * txt, uint32_t utf8_id);
  37:Middlewares/lvgl/src/misc/lv_txt.c ****     static uint32_t lv_txt_utf8_get_char_id(const char * txt, uint32_t byte_id);
  38:Middlewares/lvgl/src/misc/lv_txt.c ****     static uint32_t lv_txt_utf8_get_length(const char * txt);
  39:Middlewares/lvgl/src/misc/lv_txt.c **** #elif LV_TXT_ENC == LV_TXT_ENC_ASCII
  40:Middlewares/lvgl/src/misc/lv_txt.c ****     static uint8_t lv_txt_iso8859_1_size(const char * str);
  41:Middlewares/lvgl/src/misc/lv_txt.c ****     static uint32_t lv_txt_unicode_to_iso8859_1(uint32_t letter_uni);
  42:Middlewares/lvgl/src/misc/lv_txt.c ****     static uint32_t lv_txt_iso8859_1_conv_wc(uint32_t c);
  43:Middlewares/lvgl/src/misc/lv_txt.c ****     static uint32_t lv_txt_iso8859_1_next(const char * txt, uint32_t * i);
  44:Middlewares/lvgl/src/misc/lv_txt.c ****     static uint32_t lv_txt_iso8859_1_prev(const char * txt, uint32_t * i_start);
  45:Middlewares/lvgl/src/misc/lv_txt.c ****     static uint32_t lv_txt_iso8859_1_get_byte_id(const char * txt, uint32_t utf8_id);
  46:Middlewares/lvgl/src/misc/lv_txt.c ****     static uint32_t lv_txt_iso8859_1_get_char_id(const char * txt, uint32_t byte_id);
  47:Middlewares/lvgl/src/misc/lv_txt.c ****     static uint32_t lv_txt_iso8859_1_get_length(const char * txt);
  48:Middlewares/lvgl/src/misc/lv_txt.c **** #endif
  49:Middlewares/lvgl/src/misc/lv_txt.c **** /**********************
  50:Middlewares/lvgl/src/misc/lv_txt.c ****  *  STATIC VARIABLES
  51:Middlewares/lvgl/src/misc/lv_txt.c ****  **********************/
  52:Middlewares/lvgl/src/misc/lv_txt.c **** 
  53:Middlewares/lvgl/src/misc/lv_txt.c **** /**********************
  54:Middlewares/lvgl/src/misc/lv_txt.c ****  *  GLOBAL VARIABLES
  55:Middlewares/lvgl/src/misc/lv_txt.c ****  **********************/
  56:Middlewares/lvgl/src/misc/lv_txt.c **** #if LV_TXT_ENC == LV_TXT_ENC_UTF8
  57:Middlewares/lvgl/src/misc/lv_txt.c ****     uint8_t (*_lv_txt_encoded_size)(const char *)                   = lv_txt_utf8_size;
  58:Middlewares/lvgl/src/misc/lv_txt.c ****     uint32_t (*_lv_txt_unicode_to_encoded)(uint32_t)                = lv_txt_unicode_to_utf8;
  59:Middlewares/lvgl/src/misc/lv_txt.c ****     uint32_t (*_lv_txt_encoded_conv_wc)(uint32_t)                   = lv_txt_utf8_conv_wc;
  60:Middlewares/lvgl/src/misc/lv_txt.c ****     uint32_t (*_lv_txt_encoded_next)(const char *, uint32_t *)      = lv_txt_utf8_next;
  61:Middlewares/lvgl/src/misc/lv_txt.c ****     uint32_t (*_lv_txt_encoded_prev)(const char *, uint32_t *)      = lv_txt_utf8_prev;
  62:Middlewares/lvgl/src/misc/lv_txt.c ****     uint32_t (*_lv_txt_encoded_get_byte_id)(const char *, uint32_t) = lv_txt_utf8_get_byte_id;
  63:Middlewares/lvgl/src/misc/lv_txt.c ****     uint32_t (*_lv_txt_encoded_get_char_id)(const char *, uint32_t) = lv_txt_utf8_get_char_id;
  64:Middlewares/lvgl/src/misc/lv_txt.c ****     uint32_t (*_lv_txt_get_encoded_length)(const char *)            = lv_txt_utf8_get_length;
  65:Middlewares/lvgl/src/misc/lv_txt.c **** #elif LV_TXT_ENC == LV_TXT_ENC_ASCII
  66:Middlewares/lvgl/src/misc/lv_txt.c ****     uint8_t (*_lv_txt_encoded_size)(const char *)                   = lv_txt_iso8859_1_size;
  67:Middlewares/lvgl/src/misc/lv_txt.c ****     uint32_t (*_lv_txt_unicode_to_encoded)(uint32_t)                = lv_txt_unicode_to_iso8859_1;
  68:Middlewares/lvgl/src/misc/lv_txt.c ****     uint32_t (*_lv_txt_encoded_conv_wc)(uint32_t)                   = lv_txt_iso8859_1_conv_wc;
  69:Middlewares/lvgl/src/misc/lv_txt.c ****     uint32_t (*_lv_txt_encoded_next)(const char *, uint32_t *)      = lv_txt_iso8859_1_next;
  70:Middlewares/lvgl/src/misc/lv_txt.c ****     uint32_t (*_lv_txt_encoded_prev)(const char *, uint32_t *)      = lv_txt_iso8859_1_prev;
  71:Middlewares/lvgl/src/misc/lv_txt.c ****     uint32_t (*_lv_txt_encoded_get_byte_id)(const char *, uint32_t) = lv_txt_iso8859_1_get_byte_id;
  72:Middlewares/lvgl/src/misc/lv_txt.c ****     uint32_t (*_lv_txt_encoded_get_char_id)(const char *, uint32_t)     = lv_txt_iso8859_1_get_char
  73:Middlewares/lvgl/src/misc/lv_txt.c ****     uint32_t (*_lv_txt_get_encoded_length)(const char *)            = lv_txt_iso8859_1_get_length;
  74:Middlewares/lvgl/src/misc/lv_txt.c **** 
  75:Middlewares/lvgl/src/misc/lv_txt.c **** #endif
  76:Middlewares/lvgl/src/misc/lv_txt.c **** 
  77:Middlewares/lvgl/src/misc/lv_txt.c **** /**********************
  78:Middlewares/lvgl/src/misc/lv_txt.c ****  *      MACROS
  79:Middlewares/lvgl/src/misc/lv_txt.c ****  **********************/
  80:Middlewares/lvgl/src/misc/lv_txt.c **** 
  81:Middlewares/lvgl/src/misc/lv_txt.c **** /**********************
  82:Middlewares/lvgl/src/misc/lv_txt.c ****  *   GLOBAL FUNCTIONS
  83:Middlewares/lvgl/src/misc/lv_txt.c ****  **********************/
  84:Middlewares/lvgl/src/misc/lv_txt.c **** 
  85:Middlewares/lvgl/src/misc/lv_txt.c **** /**
  86:Middlewares/lvgl/src/misc/lv_txt.c ****  * Get size of a text
  87:Middlewares/lvgl/src/misc/lv_txt.c ****  * @param size_res pointer to a 'point_t' variable to store the result
ARM GAS  /tmp/ccWVSSdf.s 			page 3


  88:Middlewares/lvgl/src/misc/lv_txt.c ****  * @param text pointer to a text
  89:Middlewares/lvgl/src/misc/lv_txt.c ****  * @param font pointer to font of the text
  90:Middlewares/lvgl/src/misc/lv_txt.c ****  * @param letter_space letter space of the text
  91:Middlewares/lvgl/src/misc/lv_txt.c ****  * @param txt.line_space line space of the text
  92:Middlewares/lvgl/src/misc/lv_txt.c ****  * @param flags settings for the text from ::lv_text_flag_t
  93:Middlewares/lvgl/src/misc/lv_txt.c ****  * @param max_width max with of the text (break the lines to fit this size) Set CORD_MAX to avoid
  94:Middlewares/lvgl/src/misc/lv_txt.c ****  * line breaks
  95:Middlewares/lvgl/src/misc/lv_txt.c ****  */
  96:Middlewares/lvgl/src/misc/lv_txt.c **** void lv_txt_get_size(lv_point_t * size_res, const char * text, const lv_font_t * font, lv_coord_t l
  97:Middlewares/lvgl/src/misc/lv_txt.c ****                       lv_coord_t line_space, lv_coord_t max_width, lv_text_flag_t flag)
  98:Middlewares/lvgl/src/misc/lv_txt.c **** {
  99:Middlewares/lvgl/src/misc/lv_txt.c ****     size_res->x = 0;
 100:Middlewares/lvgl/src/misc/lv_txt.c ****     size_res->y = 0;
 101:Middlewares/lvgl/src/misc/lv_txt.c **** 
 102:Middlewares/lvgl/src/misc/lv_txt.c ****     if(text == NULL) return;
 103:Middlewares/lvgl/src/misc/lv_txt.c ****     if(font == NULL) return;
 104:Middlewares/lvgl/src/misc/lv_txt.c **** 
 105:Middlewares/lvgl/src/misc/lv_txt.c ****     if(flag & LV_TEXT_FLAG_EXPAND) max_width = LV_COORD_MAX;
 106:Middlewares/lvgl/src/misc/lv_txt.c **** 
 107:Middlewares/lvgl/src/misc/lv_txt.c ****     uint32_t line_start     = 0;
 108:Middlewares/lvgl/src/misc/lv_txt.c ****     uint32_t new_line_start = 0;
 109:Middlewares/lvgl/src/misc/lv_txt.c ****     uint16_t letter_height = lv_font_get_line_height(font);
 110:Middlewares/lvgl/src/misc/lv_txt.c **** 
 111:Middlewares/lvgl/src/misc/lv_txt.c ****     /*Calc. the height and longest line*/
 112:Middlewares/lvgl/src/misc/lv_txt.c ****     while(text[line_start] != '\0') {
 113:Middlewares/lvgl/src/misc/lv_txt.c ****         new_line_start += _lv_txt_get_next_line(&text[line_start], font, letter_space, max_width, f
 114:Middlewares/lvgl/src/misc/lv_txt.c **** 
 115:Middlewares/lvgl/src/misc/lv_txt.c ****         if((unsigned long)size_res->y + (unsigned long)letter_height + (unsigned long)line_space > 
 116:Middlewares/lvgl/src/misc/lv_txt.c ****             LV_LOG_WARN("lv_txt_get_size: integer overflow while calculating text height");
 117:Middlewares/lvgl/src/misc/lv_txt.c ****             return;
 118:Middlewares/lvgl/src/misc/lv_txt.c ****         }
 119:Middlewares/lvgl/src/misc/lv_txt.c ****         else {
 120:Middlewares/lvgl/src/misc/lv_txt.c ****             size_res->y += letter_height;
 121:Middlewares/lvgl/src/misc/lv_txt.c ****             size_res->y += line_space;
 122:Middlewares/lvgl/src/misc/lv_txt.c ****         }
 123:Middlewares/lvgl/src/misc/lv_txt.c **** 
 124:Middlewares/lvgl/src/misc/lv_txt.c ****         /*Calculate the longest line*/
 125:Middlewares/lvgl/src/misc/lv_txt.c ****         lv_coord_t act_line_length = lv_txt_get_width(&text[line_start], new_line_start - line_star
 126:Middlewares/lvgl/src/misc/lv_txt.c ****                                                        flag);
 127:Middlewares/lvgl/src/misc/lv_txt.c **** 
 128:Middlewares/lvgl/src/misc/lv_txt.c ****         size_res->x = LV_MAX(act_line_length, size_res->x);
 129:Middlewares/lvgl/src/misc/lv_txt.c ****         line_start  = new_line_start;
 130:Middlewares/lvgl/src/misc/lv_txt.c ****     }
 131:Middlewares/lvgl/src/misc/lv_txt.c **** 
 132:Middlewares/lvgl/src/misc/lv_txt.c ****     /*Make the text one line taller if the last character is '\n' or '\r'*/
 133:Middlewares/lvgl/src/misc/lv_txt.c ****     if((line_start != 0) && (text[line_start - 1] == '\n' || text[line_start - 1] == '\r')) {
 134:Middlewares/lvgl/src/misc/lv_txt.c ****         size_res->y += letter_height + line_space;
 135:Middlewares/lvgl/src/misc/lv_txt.c ****     }
 136:Middlewares/lvgl/src/misc/lv_txt.c **** 
 137:Middlewares/lvgl/src/misc/lv_txt.c ****     /*Correction with the last line space or set the height manually if the text is empty*/
 138:Middlewares/lvgl/src/misc/lv_txt.c ****     if(size_res->y == 0)
 139:Middlewares/lvgl/src/misc/lv_txt.c ****         size_res->y = letter_height;
 140:Middlewares/lvgl/src/misc/lv_txt.c ****     else
 141:Middlewares/lvgl/src/misc/lv_txt.c ****         size_res->y -= line_space;
 142:Middlewares/lvgl/src/misc/lv_txt.c **** }
 143:Middlewares/lvgl/src/misc/lv_txt.c **** 
 144:Middlewares/lvgl/src/misc/lv_txt.c **** /**
ARM GAS  /tmp/ccWVSSdf.s 			page 4


 145:Middlewares/lvgl/src/misc/lv_txt.c ****  * Get the next word of text. A word is delimited by break characters.
 146:Middlewares/lvgl/src/misc/lv_txt.c ****  *
 147:Middlewares/lvgl/src/misc/lv_txt.c ****  * If the word cannot fit in the max_width space, obey LV_TXT_LINE_BREAK_LONG_* rules.
 148:Middlewares/lvgl/src/misc/lv_txt.c ****  *
 149:Middlewares/lvgl/src/misc/lv_txt.c ****  * If the next word cannot fit anything, return 0.
 150:Middlewares/lvgl/src/misc/lv_txt.c ****  *
 151:Middlewares/lvgl/src/misc/lv_txt.c ****  * If the first character is a break character, returns the next index.
 152:Middlewares/lvgl/src/misc/lv_txt.c ****  *
 153:Middlewares/lvgl/src/misc/lv_txt.c ****  * Example calls from lv_txt_get_next_line() assuming sufficient max_width and
 154:Middlewares/lvgl/src/misc/lv_txt.c ****  * txt = "Test text\n"
 155:Middlewares/lvgl/src/misc/lv_txt.c ****  *        0123456789
 156:Middlewares/lvgl/src/misc/lv_txt.c ****  *
 157:Middlewares/lvgl/src/misc/lv_txt.c ****  * Calls would be as follows:
 158:Middlewares/lvgl/src/misc/lv_txt.c ****  *     1. Return i=4, pointing at breakchar ' ', for the string "Test"
 159:Middlewares/lvgl/src/misc/lv_txt.c ****  *     2. Return i=5, since i=4 was a breakchar.
 160:Middlewares/lvgl/src/misc/lv_txt.c ****  *     3. Return i=9, pointing at breakchar '\n'
 161:Middlewares/lvgl/src/misc/lv_txt.c ****  *     4. Parenting lv_txt_get_next_line() would detect subsequent '\0'
 162:Middlewares/lvgl/src/misc/lv_txt.c ****  *
 163:Middlewares/lvgl/src/misc/lv_txt.c ****  * TODO: Returned word_w_ptr may overestimate the returned word's width when
 164:Middlewares/lvgl/src/misc/lv_txt.c ****  * max_width is reached. In current usage, this has no impact.
 165:Middlewares/lvgl/src/misc/lv_txt.c ****  *
 166:Middlewares/lvgl/src/misc/lv_txt.c ****  * @param txt a '\0' terminated string
 167:Middlewares/lvgl/src/misc/lv_txt.c ****  * @param font pointer to a font
 168:Middlewares/lvgl/src/misc/lv_txt.c ****  * @param letter_space letter space
 169:Middlewares/lvgl/src/misc/lv_txt.c ****  * @param max_width max with of the text (break the lines to fit this size) Set CORD_MAX to avoid l
 170:Middlewares/lvgl/src/misc/lv_txt.c ****  * @param flags settings for the text from 'txt_flag_type' enum
 171:Middlewares/lvgl/src/misc/lv_txt.c ****  * @param[out] word_w_ptr width (in pixels) of the parsed word. May be NULL.
 172:Middlewares/lvgl/src/misc/lv_txt.c ****  * @param force Force return the fraction of the word that can fit in the provided space.
 173:Middlewares/lvgl/src/misc/lv_txt.c ****  * @return the index of the first char of the next word (in byte index not letter index. With UTF-8
 174:Middlewares/lvgl/src/misc/lv_txt.c ****  */
 175:Middlewares/lvgl/src/misc/lv_txt.c **** static uint32_t lv_txt_get_next_word(const char * txt, const lv_font_t * font,
 176:Middlewares/lvgl/src/misc/lv_txt.c ****                                      lv_coord_t letter_space, lv_coord_t max_width,
 177:Middlewares/lvgl/src/misc/lv_txt.c ****                                      lv_text_flag_t flag, uint32_t * word_w_ptr, lv_text_cmd_state_
 178:Middlewares/lvgl/src/misc/lv_txt.c **** {
 179:Middlewares/lvgl/src/misc/lv_txt.c ****     if(txt == NULL || txt[0] == '\0') return 0;
 180:Middlewares/lvgl/src/misc/lv_txt.c ****     if(font == NULL) return 0;
 181:Middlewares/lvgl/src/misc/lv_txt.c **** 
 182:Middlewares/lvgl/src/misc/lv_txt.c ****     if(flag & LV_TEXT_FLAG_EXPAND) max_width = LV_COORD_MAX;
 183:Middlewares/lvgl/src/misc/lv_txt.c **** 
 184:Middlewares/lvgl/src/misc/lv_txt.c ****     uint32_t i = 0, i_next = 0, i_next_next = 0;  /*Iterating index into txt*/
 185:Middlewares/lvgl/src/misc/lv_txt.c ****     uint32_t letter = 0;      /*Letter at i*/
 186:Middlewares/lvgl/src/misc/lv_txt.c ****     uint32_t letter_next = 0; /*Letter at i_next*/
 187:Middlewares/lvgl/src/misc/lv_txt.c ****     lv_coord_t letter_w;
 188:Middlewares/lvgl/src/misc/lv_txt.c ****     lv_coord_t cur_w = 0;  /*Pixel Width of transversed string*/
 189:Middlewares/lvgl/src/misc/lv_txt.c ****     uint32_t word_len = 0;   /*Number of characters in the transversed word*/
 190:Middlewares/lvgl/src/misc/lv_txt.c ****     uint32_t break_index = NO_BREAK_FOUND; /*only used for "long" words*/
 191:Middlewares/lvgl/src/misc/lv_txt.c ****     uint32_t break_letter_count = 0; /*Number of characters up to the long word break point*/
 192:Middlewares/lvgl/src/misc/lv_txt.c **** 
 193:Middlewares/lvgl/src/misc/lv_txt.c ****     letter = _lv_txt_encoded_next(txt, &i_next);
 194:Middlewares/lvgl/src/misc/lv_txt.c ****     i_next_next = i_next;
 195:Middlewares/lvgl/src/misc/lv_txt.c **** 
 196:Middlewares/lvgl/src/misc/lv_txt.c ****     /*Obtain the full word, regardless if it fits or not in max_width*/
 197:Middlewares/lvgl/src/misc/lv_txt.c ****     while(txt[i] != '\0') {
 198:Middlewares/lvgl/src/misc/lv_txt.c ****         letter_next = _lv_txt_encoded_next(txt, &i_next_next);
 199:Middlewares/lvgl/src/misc/lv_txt.c ****         word_len++;
 200:Middlewares/lvgl/src/misc/lv_txt.c **** 
 201:Middlewares/lvgl/src/misc/lv_txt.c ****         /*Handle the recolor command*/
ARM GAS  /tmp/ccWVSSdf.s 			page 5


 202:Middlewares/lvgl/src/misc/lv_txt.c ****         if((flag & LV_TEXT_FLAG_RECOLOR) != 0) {
 203:Middlewares/lvgl/src/misc/lv_txt.c ****             if(_lv_txt_is_cmd(cmd_state, letter) != false) {
 204:Middlewares/lvgl/src/misc/lv_txt.c ****                 i = i_next;
 205:Middlewares/lvgl/src/misc/lv_txt.c ****                 i_next = i_next_next;
 206:Middlewares/lvgl/src/misc/lv_txt.c ****                 letter = letter_next;
 207:Middlewares/lvgl/src/misc/lv_txt.c ****                 continue;   /*Skip the letter is it is part of a command*/
 208:Middlewares/lvgl/src/misc/lv_txt.c ****             }
 209:Middlewares/lvgl/src/misc/lv_txt.c ****         }
 210:Middlewares/lvgl/src/misc/lv_txt.c **** 
 211:Middlewares/lvgl/src/misc/lv_txt.c ****         letter_w = lv_font_get_glyph_width(font, letter, letter_next);
 212:Middlewares/lvgl/src/misc/lv_txt.c ****         cur_w += letter_w;
 213:Middlewares/lvgl/src/misc/lv_txt.c **** 
 214:Middlewares/lvgl/src/misc/lv_txt.c ****         if(letter_w > 0) {
 215:Middlewares/lvgl/src/misc/lv_txt.c ****             cur_w += letter_space;
 216:Middlewares/lvgl/src/misc/lv_txt.c ****         }
 217:Middlewares/lvgl/src/misc/lv_txt.c **** 
 218:Middlewares/lvgl/src/misc/lv_txt.c ****         /*Test if this character fits within max_width*/
 219:Middlewares/lvgl/src/misc/lv_txt.c ****         if(break_index == NO_BREAK_FOUND && (cur_w - letter_space) > max_width) {
 220:Middlewares/lvgl/src/misc/lv_txt.c ****             break_index = i;
 221:Middlewares/lvgl/src/misc/lv_txt.c ****             break_letter_count = word_len - 1;
 222:Middlewares/lvgl/src/misc/lv_txt.c ****             /*break_index is now pointing at the character that doesn't fit*/
 223:Middlewares/lvgl/src/misc/lv_txt.c ****         }
 224:Middlewares/lvgl/src/misc/lv_txt.c **** 
 225:Middlewares/lvgl/src/misc/lv_txt.c ****         /*Check for new line chars and breakchars*/
 226:Middlewares/lvgl/src/misc/lv_txt.c ****         if(letter == '\n' || letter == '\r' || _lv_txt_is_break_char(letter)) {
 227:Middlewares/lvgl/src/misc/lv_txt.c ****             /*Update the output width on the first character if it fits.
 228:Middlewares/lvgl/src/misc/lv_txt.c ****              *Must do this here in case first letter is a break character.*/
 229:Middlewares/lvgl/src/misc/lv_txt.c ****             if(i == 0 && break_index == NO_BREAK_FOUND && word_w_ptr != NULL) *word_w_ptr = cur_w;
 230:Middlewares/lvgl/src/misc/lv_txt.c ****             word_len--;
 231:Middlewares/lvgl/src/misc/lv_txt.c ****             break;
 232:Middlewares/lvgl/src/misc/lv_txt.c ****         }
 233:Middlewares/lvgl/src/misc/lv_txt.c **** 
 234:Middlewares/lvgl/src/misc/lv_txt.c ****         /*Update the output width*/
 235:Middlewares/lvgl/src/misc/lv_txt.c ****         if(word_w_ptr != NULL && break_index == NO_BREAK_FOUND) *word_w_ptr = cur_w;
 236:Middlewares/lvgl/src/misc/lv_txt.c **** 
 237:Middlewares/lvgl/src/misc/lv_txt.c ****         i = i_next;
 238:Middlewares/lvgl/src/misc/lv_txt.c ****         i_next = i_next_next;
 239:Middlewares/lvgl/src/misc/lv_txt.c ****         letter = letter_next;
 240:Middlewares/lvgl/src/misc/lv_txt.c ****     }
 241:Middlewares/lvgl/src/misc/lv_txt.c **** 
 242:Middlewares/lvgl/src/misc/lv_txt.c ****     /*Entire Word fits in the provided space*/
 243:Middlewares/lvgl/src/misc/lv_txt.c ****     if(break_index == NO_BREAK_FOUND) {
 244:Middlewares/lvgl/src/misc/lv_txt.c ****         if(word_len == 0 || (letter == '\r' && letter_next == '\n')) i = i_next;
 245:Middlewares/lvgl/src/misc/lv_txt.c ****         return i;
 246:Middlewares/lvgl/src/misc/lv_txt.c ****     }
 247:Middlewares/lvgl/src/misc/lv_txt.c **** 
 248:Middlewares/lvgl/src/misc/lv_txt.c **** #if LV_TXT_LINE_BREAK_LONG_LEN > 0
 249:Middlewares/lvgl/src/misc/lv_txt.c ****     /*Word doesn't fit in provided space, but isn't "long"*/
 250:Middlewares/lvgl/src/misc/lv_txt.c ****     if(word_len < LV_TXT_LINE_BREAK_LONG_LEN) {
 251:Middlewares/lvgl/src/misc/lv_txt.c ****         if(force) return break_index;
 252:Middlewares/lvgl/src/misc/lv_txt.c ****         if(word_w_ptr != NULL) *word_w_ptr = 0; /*Return no word*/
 253:Middlewares/lvgl/src/misc/lv_txt.c ****         return 0;
 254:Middlewares/lvgl/src/misc/lv_txt.c ****     }
 255:Middlewares/lvgl/src/misc/lv_txt.c **** 
 256:Middlewares/lvgl/src/misc/lv_txt.c ****     /*Word is "long," but insufficient amounts can fit in provided space*/
 257:Middlewares/lvgl/src/misc/lv_txt.c ****     if(break_letter_count < LV_TXT_LINE_BREAK_LONG_PRE_MIN_LEN) {
 258:Middlewares/lvgl/src/misc/lv_txt.c ****         if(force) return break_index;
ARM GAS  /tmp/ccWVSSdf.s 			page 6


 259:Middlewares/lvgl/src/misc/lv_txt.c ****         if(word_w_ptr != NULL) *word_w_ptr = 0;
 260:Middlewares/lvgl/src/misc/lv_txt.c ****         return 0;
 261:Middlewares/lvgl/src/misc/lv_txt.c ****     }
 262:Middlewares/lvgl/src/misc/lv_txt.c **** 
 263:Middlewares/lvgl/src/misc/lv_txt.c ****     /*Word is a "long", but letters may need to be better distributed*/
 264:Middlewares/lvgl/src/misc/lv_txt.c ****     {
 265:Middlewares/lvgl/src/misc/lv_txt.c ****         i = break_index;
 266:Middlewares/lvgl/src/misc/lv_txt.c ****         int32_t n_move = LV_TXT_LINE_BREAK_LONG_POST_MIN_LEN - (word_len - break_letter_count);
 267:Middlewares/lvgl/src/misc/lv_txt.c ****         /*Move pointer "i" backwards*/
 268:Middlewares/lvgl/src/misc/lv_txt.c ****         for(; n_move > 0; n_move--) {
 269:Middlewares/lvgl/src/misc/lv_txt.c ****             _lv_txt_encoded_prev(txt, &i);
 270:Middlewares/lvgl/src/misc/lv_txt.c ****             // TODO: it would be appropriate to update the returned word width here
 271:Middlewares/lvgl/src/misc/lv_txt.c ****             // However, in current usage, this doesn't impact anything.
 272:Middlewares/lvgl/src/misc/lv_txt.c ****         }
 273:Middlewares/lvgl/src/misc/lv_txt.c ****     }
 274:Middlewares/lvgl/src/misc/lv_txt.c ****     return i;
 275:Middlewares/lvgl/src/misc/lv_txt.c **** #else
 276:Middlewares/lvgl/src/misc/lv_txt.c ****     if(force) return break_index;
 277:Middlewares/lvgl/src/misc/lv_txt.c ****     if(word_w_ptr != NULL) *word_w_ptr = 0; /*Return no word*/
 278:Middlewares/lvgl/src/misc/lv_txt.c ****     (void) break_letter_count;
 279:Middlewares/lvgl/src/misc/lv_txt.c ****     return 0;
 280:Middlewares/lvgl/src/misc/lv_txt.c **** #endif
 281:Middlewares/lvgl/src/misc/lv_txt.c **** }
 282:Middlewares/lvgl/src/misc/lv_txt.c **** 
 283:Middlewares/lvgl/src/misc/lv_txt.c **** /**
 284:Middlewares/lvgl/src/misc/lv_txt.c ****  * Get the next line of text. Check line length and break chars too.
 285:Middlewares/lvgl/src/misc/lv_txt.c ****  *
 286:Middlewares/lvgl/src/misc/lv_txt.c ****  * A line of txt includes the \n character.
 287:Middlewares/lvgl/src/misc/lv_txt.c ****  *
 288:Middlewares/lvgl/src/misc/lv_txt.c ****  * @param txt a '\0' terminated string
 289:Middlewares/lvgl/src/misc/lv_txt.c ****  * @param font pointer to a font
 290:Middlewares/lvgl/src/misc/lv_txt.c ****  * @param letter_space letter space
 291:Middlewares/lvgl/src/misc/lv_txt.c ****  * @param max_width max with of the text (break the lines to fit this size) Set CORD_MAX to avoid l
 292:Middlewares/lvgl/src/misc/lv_txt.c ****  * @param flags settings for the text from 'txt_flag_type' enum
 293:Middlewares/lvgl/src/misc/lv_txt.c ****  * @return the index of the first char of the new line (in byte index not letter index. With UTF-8 
 294:Middlewares/lvgl/src/misc/lv_txt.c ****  */
 295:Middlewares/lvgl/src/misc/lv_txt.c **** uint32_t _lv_txt_get_next_line(const char * txt, const lv_font_t * font,
 296:Middlewares/lvgl/src/misc/lv_txt.c ****                                lv_coord_t letter_space, lv_coord_t max_width, lv_text_flag_t flag)
 297:Middlewares/lvgl/src/misc/lv_txt.c **** {
 298:Middlewares/lvgl/src/misc/lv_txt.c ****     if(txt == NULL) return 0;
 299:Middlewares/lvgl/src/misc/lv_txt.c ****     if(font == NULL) return 0;
 300:Middlewares/lvgl/src/misc/lv_txt.c **** 
 301:Middlewares/lvgl/src/misc/lv_txt.c ****     /*If max_width doesn't mater simply find the new line character
 302:Middlewares/lvgl/src/misc/lv_txt.c ****      *without thinking about word wrapping*/
 303:Middlewares/lvgl/src/misc/lv_txt.c ****     if((flag & LV_TEXT_FLAG_EXPAND) || (flag & LV_TEXT_FLAG_FIT)) {
 304:Middlewares/lvgl/src/misc/lv_txt.c ****         uint32_t i;
 305:Middlewares/lvgl/src/misc/lv_txt.c ****         for(i = 0; txt[i] != '\n' && txt[i] != '\r' && txt[i] != '\0'; i++) {
 306:Middlewares/lvgl/src/misc/lv_txt.c ****             /*Just find the new line chars or string ends by incrementing `i`*/
 307:Middlewares/lvgl/src/misc/lv_txt.c ****         }
 308:Middlewares/lvgl/src/misc/lv_txt.c ****         if(txt[i] != '\0') i++;    /*To go beyond `\n`*/
 309:Middlewares/lvgl/src/misc/lv_txt.c ****         return i;
 310:Middlewares/lvgl/src/misc/lv_txt.c ****     }
 311:Middlewares/lvgl/src/misc/lv_txt.c **** 
 312:Middlewares/lvgl/src/misc/lv_txt.c ****     if(flag & LV_TEXT_FLAG_EXPAND) max_width = LV_COORD_MAX;
 313:Middlewares/lvgl/src/misc/lv_txt.c ****     lv_text_cmd_state_t cmd_state = LV_TEXT_CMD_STATE_WAIT;
 314:Middlewares/lvgl/src/misc/lv_txt.c ****     uint32_t i = 0;                                        /*Iterating index into txt*/
 315:Middlewares/lvgl/src/misc/lv_txt.c **** 
ARM GAS  /tmp/ccWVSSdf.s 			page 7


 316:Middlewares/lvgl/src/misc/lv_txt.c ****     while(txt[i] != '\0' && max_width > 0) {
 317:Middlewares/lvgl/src/misc/lv_txt.c ****         uint32_t word_w = 0;
 318:Middlewares/lvgl/src/misc/lv_txt.c ****         uint32_t advance = lv_txt_get_next_word(&txt[i], font, letter_space, max_width, flag, &word
 319:Middlewares/lvgl/src/misc/lv_txt.c ****         max_width -= word_w;
 320:Middlewares/lvgl/src/misc/lv_txt.c **** 
 321:Middlewares/lvgl/src/misc/lv_txt.c ****         if(advance == 0) {
 322:Middlewares/lvgl/src/misc/lv_txt.c ****             if(i == 0) _lv_txt_encoded_next(txt, &i); // prevent inf loops
 323:Middlewares/lvgl/src/misc/lv_txt.c ****             break;
 324:Middlewares/lvgl/src/misc/lv_txt.c ****         }
 325:Middlewares/lvgl/src/misc/lv_txt.c **** 
 326:Middlewares/lvgl/src/misc/lv_txt.c ****         i += advance;
 327:Middlewares/lvgl/src/misc/lv_txt.c **** 
 328:Middlewares/lvgl/src/misc/lv_txt.c ****         if(txt[0] == '\n' || txt[0] == '\r') break;
 329:Middlewares/lvgl/src/misc/lv_txt.c **** 
 330:Middlewares/lvgl/src/misc/lv_txt.c ****         if(txt[i] == '\n' || txt[i] == '\r') {
 331:Middlewares/lvgl/src/misc/lv_txt.c ****             i++;  /*Include the following newline in the current line*/
 332:Middlewares/lvgl/src/misc/lv_txt.c ****             break;
 333:Middlewares/lvgl/src/misc/lv_txt.c ****         }
 334:Middlewares/lvgl/src/misc/lv_txt.c **** 
 335:Middlewares/lvgl/src/misc/lv_txt.c ****     }
 336:Middlewares/lvgl/src/misc/lv_txt.c **** 
 337:Middlewares/lvgl/src/misc/lv_txt.c ****     /*Always step at least one to avoid infinite loops*/
 338:Middlewares/lvgl/src/misc/lv_txt.c ****     if(i == 0) {
 339:Middlewares/lvgl/src/misc/lv_txt.c ****         _lv_txt_encoded_next(txt, &i);
 340:Middlewares/lvgl/src/misc/lv_txt.c ****     }
 341:Middlewares/lvgl/src/misc/lv_txt.c **** 
 342:Middlewares/lvgl/src/misc/lv_txt.c ****     return i;
 343:Middlewares/lvgl/src/misc/lv_txt.c **** }
 344:Middlewares/lvgl/src/misc/lv_txt.c **** 
 345:Middlewares/lvgl/src/misc/lv_txt.c **** /**
 346:Middlewares/lvgl/src/misc/lv_txt.c ****  * Give the length of a text with a given font
 347:Middlewares/lvgl/src/misc/lv_txt.c ****  * @param txt a '\0' terminate string
 348:Middlewares/lvgl/src/misc/lv_txt.c ****  * @param length length of 'txt' in byte count and not characters (Á is 1 character but 2 bytes in
 349:Middlewares/lvgl/src/misc/lv_txt.c ****  * UTF-8)
 350:Middlewares/lvgl/src/misc/lv_txt.c ****  * @param font pointer to a font
 351:Middlewares/lvgl/src/misc/lv_txt.c ****  * @param letter_space letter space
 352:Middlewares/lvgl/src/misc/lv_txt.c ****  * @param flags settings for the text from 'txt_flag_t' enum
 353:Middlewares/lvgl/src/misc/lv_txt.c ****  * @return length of a char_num long text
 354:Middlewares/lvgl/src/misc/lv_txt.c ****  */
 355:Middlewares/lvgl/src/misc/lv_txt.c **** lv_coord_t lv_txt_get_width(const char * txt, uint32_t length, const lv_font_t * font, lv_coord_t l
 356:Middlewares/lvgl/src/misc/lv_txt.c ****                              lv_text_flag_t flag)
 357:Middlewares/lvgl/src/misc/lv_txt.c **** {
 358:Middlewares/lvgl/src/misc/lv_txt.c ****     if(txt == NULL) return 0;
 359:Middlewares/lvgl/src/misc/lv_txt.c ****     if(font == NULL) return 0;
 360:Middlewares/lvgl/src/misc/lv_txt.c ****     if(txt[0] == '\0') return 0;
 361:Middlewares/lvgl/src/misc/lv_txt.c **** 
 362:Middlewares/lvgl/src/misc/lv_txt.c ****     uint32_t i                   = 0;
 363:Middlewares/lvgl/src/misc/lv_txt.c ****     lv_coord_t width             = 0;
 364:Middlewares/lvgl/src/misc/lv_txt.c ****     lv_text_cmd_state_t cmd_state = LV_TEXT_CMD_STATE_WAIT;
 365:Middlewares/lvgl/src/misc/lv_txt.c **** 
 366:Middlewares/lvgl/src/misc/lv_txt.c ****     if(length != 0) {
 367:Middlewares/lvgl/src/misc/lv_txt.c ****         while(i < length) {
 368:Middlewares/lvgl/src/misc/lv_txt.c ****             uint32_t letter;
 369:Middlewares/lvgl/src/misc/lv_txt.c ****             uint32_t letter_next;
 370:Middlewares/lvgl/src/misc/lv_txt.c ****             _lv_txt_encoded_letter_next_2(txt, &letter, &letter_next, &i);
 371:Middlewares/lvgl/src/misc/lv_txt.c **** 
 372:Middlewares/lvgl/src/misc/lv_txt.c ****             if((flag & LV_TEXT_FLAG_RECOLOR) != 0) {
ARM GAS  /tmp/ccWVSSdf.s 			page 8


 373:Middlewares/lvgl/src/misc/lv_txt.c ****                 if(_lv_txt_is_cmd(&cmd_state, letter) != false) {
 374:Middlewares/lvgl/src/misc/lv_txt.c ****                     continue;
 375:Middlewares/lvgl/src/misc/lv_txt.c ****                 }
 376:Middlewares/lvgl/src/misc/lv_txt.c ****             }
 377:Middlewares/lvgl/src/misc/lv_txt.c **** 
 378:Middlewares/lvgl/src/misc/lv_txt.c ****             lv_coord_t char_width = lv_font_get_glyph_width(font, letter, letter_next);
 379:Middlewares/lvgl/src/misc/lv_txt.c ****             if(char_width > 0) {
 380:Middlewares/lvgl/src/misc/lv_txt.c ****                 width += char_width;
 381:Middlewares/lvgl/src/misc/lv_txt.c ****                 width += letter_space;
 382:Middlewares/lvgl/src/misc/lv_txt.c ****             }
 383:Middlewares/lvgl/src/misc/lv_txt.c ****         }
 384:Middlewares/lvgl/src/misc/lv_txt.c **** 
 385:Middlewares/lvgl/src/misc/lv_txt.c ****         if(width > 0) {
 386:Middlewares/lvgl/src/misc/lv_txt.c ****             width -= letter_space; /*Trim the last letter space. Important if the text is center
 387:Middlewares/lvgl/src/misc/lv_txt.c ****                                       aligned*/
 388:Middlewares/lvgl/src/misc/lv_txt.c ****         }
 389:Middlewares/lvgl/src/misc/lv_txt.c ****     }
 390:Middlewares/lvgl/src/misc/lv_txt.c **** 
 391:Middlewares/lvgl/src/misc/lv_txt.c ****     return width;
 392:Middlewares/lvgl/src/misc/lv_txt.c **** }
 393:Middlewares/lvgl/src/misc/lv_txt.c **** 
 394:Middlewares/lvgl/src/misc/lv_txt.c **** /**
 395:Middlewares/lvgl/src/misc/lv_txt.c ****  * Check next character in a string and decide if the character is part of the command or not
 396:Middlewares/lvgl/src/misc/lv_txt.c ****  * @param state pointer to a txt_cmd_state_t variable which stores the current state of command
 397:Middlewares/lvgl/src/misc/lv_txt.c ****  * processing (Inited to TXT_CMD_STATE_WAIT )
 398:Middlewares/lvgl/src/misc/lv_txt.c ****  * @param c the current character
 399:Middlewares/lvgl/src/misc/lv_txt.c ****  * @return true: the character is part of a command and should not be written,
 400:Middlewares/lvgl/src/misc/lv_txt.c ****  *         false: the character should be written
 401:Middlewares/lvgl/src/misc/lv_txt.c ****  */
 402:Middlewares/lvgl/src/misc/lv_txt.c **** bool _lv_txt_is_cmd(lv_text_cmd_state_t * state, uint32_t c)
 403:Middlewares/lvgl/src/misc/lv_txt.c **** {
 404:Middlewares/lvgl/src/misc/lv_txt.c ****     bool ret = false;
 405:Middlewares/lvgl/src/misc/lv_txt.c **** 
 406:Middlewares/lvgl/src/misc/lv_txt.c ****     if(c == (uint32_t)LV_TXT_COLOR_CMD[0]) {
 407:Middlewares/lvgl/src/misc/lv_txt.c ****         if(*state == LV_TEXT_CMD_STATE_WAIT) { /*Start char*/
 408:Middlewares/lvgl/src/misc/lv_txt.c ****             *state = LV_TEXT_CMD_STATE_PAR;
 409:Middlewares/lvgl/src/misc/lv_txt.c ****             ret    = true;
 410:Middlewares/lvgl/src/misc/lv_txt.c ****         }
 411:Middlewares/lvgl/src/misc/lv_txt.c ****         /*Other start char in parameter is escaped cmd. char*/
 412:Middlewares/lvgl/src/misc/lv_txt.c ****         else if(*state == LV_TEXT_CMD_STATE_PAR) {
 413:Middlewares/lvgl/src/misc/lv_txt.c ****             *state = LV_TEXT_CMD_STATE_WAIT;
 414:Middlewares/lvgl/src/misc/lv_txt.c ****         }
 415:Middlewares/lvgl/src/misc/lv_txt.c ****         /*Command end*/
 416:Middlewares/lvgl/src/misc/lv_txt.c ****         else if(*state == LV_TEXT_CMD_STATE_IN) {
 417:Middlewares/lvgl/src/misc/lv_txt.c ****             *state = LV_TEXT_CMD_STATE_WAIT;
 418:Middlewares/lvgl/src/misc/lv_txt.c ****             ret    = true;
 419:Middlewares/lvgl/src/misc/lv_txt.c ****         }
 420:Middlewares/lvgl/src/misc/lv_txt.c ****     }
 421:Middlewares/lvgl/src/misc/lv_txt.c **** 
 422:Middlewares/lvgl/src/misc/lv_txt.c ****     /*Skip the color parameter and wait the space after it*/
 423:Middlewares/lvgl/src/misc/lv_txt.c ****     if(*state == LV_TEXT_CMD_STATE_PAR) {
 424:Middlewares/lvgl/src/misc/lv_txt.c ****         if(c == ' ') {
 425:Middlewares/lvgl/src/misc/lv_txt.c ****             *state = LV_TEXT_CMD_STATE_IN; /*After the parameter the text is in the command*/
 426:Middlewares/lvgl/src/misc/lv_txt.c ****         }
 427:Middlewares/lvgl/src/misc/lv_txt.c ****         ret = true;
 428:Middlewares/lvgl/src/misc/lv_txt.c ****     }
 429:Middlewares/lvgl/src/misc/lv_txt.c **** 
ARM GAS  /tmp/ccWVSSdf.s 			page 9


 430:Middlewares/lvgl/src/misc/lv_txt.c ****     return ret;
 431:Middlewares/lvgl/src/misc/lv_txt.c **** }
 432:Middlewares/lvgl/src/misc/lv_txt.c **** 
 433:Middlewares/lvgl/src/misc/lv_txt.c **** /**
 434:Middlewares/lvgl/src/misc/lv_txt.c ****  * Insert a string into an other
 435:Middlewares/lvgl/src/misc/lv_txt.c ****  * @param txt_buf the original text (must be big enough for the result text)
 436:Middlewares/lvgl/src/misc/lv_txt.c ****  * @param pos position to insert. Expressed in character index and not byte index (Different in
 437:Middlewares/lvgl/src/misc/lv_txt.c ****  * UTF-8) 0: before the original text, 1: after the first char etc.
 438:Middlewares/lvgl/src/misc/lv_txt.c ****  * @param ins_txt text to insert
 439:Middlewares/lvgl/src/misc/lv_txt.c ****  */
 440:Middlewares/lvgl/src/misc/lv_txt.c **** void _lv_txt_ins(char * txt_buf, uint32_t pos, const char * ins_txt)
 441:Middlewares/lvgl/src/misc/lv_txt.c **** {
 442:Middlewares/lvgl/src/misc/lv_txt.c ****     size_t old_len = strlen(txt_buf);
 443:Middlewares/lvgl/src/misc/lv_txt.c ****     size_t ins_len = strlen(ins_txt);
 444:Middlewares/lvgl/src/misc/lv_txt.c ****     if(ins_len == 0) return;
 445:Middlewares/lvgl/src/misc/lv_txt.c **** 
 446:Middlewares/lvgl/src/misc/lv_txt.c ****     size_t new_len = ins_len + old_len;
 447:Middlewares/lvgl/src/misc/lv_txt.c ****     pos              = _lv_txt_encoded_get_byte_id(txt_buf, pos); /*Convert to byte index instead o
 448:Middlewares/lvgl/src/misc/lv_txt.c **** 
 449:Middlewares/lvgl/src/misc/lv_txt.c ****     /*Copy the second part into the end to make place to text to insert*/
 450:Middlewares/lvgl/src/misc/lv_txt.c ****     size_t i;
 451:Middlewares/lvgl/src/misc/lv_txt.c ****     for(i = new_len; i >= pos + ins_len; i--) {
 452:Middlewares/lvgl/src/misc/lv_txt.c ****         txt_buf[i] = txt_buf[i - ins_len];
 453:Middlewares/lvgl/src/misc/lv_txt.c ****     }
 454:Middlewares/lvgl/src/misc/lv_txt.c **** 
 455:Middlewares/lvgl/src/misc/lv_txt.c ****     /*Copy the text into the new space*/
 456:Middlewares/lvgl/src/misc/lv_txt.c ****     lv_memcpy_small(txt_buf + pos, ins_txt, ins_len);
 457:Middlewares/lvgl/src/misc/lv_txt.c **** }
 458:Middlewares/lvgl/src/misc/lv_txt.c **** 
 459:Middlewares/lvgl/src/misc/lv_txt.c **** /**
 460:Middlewares/lvgl/src/misc/lv_txt.c ****  * Delete a part of a string
 461:Middlewares/lvgl/src/misc/lv_txt.c ****  * @param txt string to modify
 462:Middlewares/lvgl/src/misc/lv_txt.c ****  * @param pos position where to start the deleting (0: before the first char, 1: after the first
 463:Middlewares/lvgl/src/misc/lv_txt.c ****  * char etc.)
 464:Middlewares/lvgl/src/misc/lv_txt.c ****  * @param len number of characters to delete
 465:Middlewares/lvgl/src/misc/lv_txt.c ****  */
 466:Middlewares/lvgl/src/misc/lv_txt.c **** void _lv_txt_cut(char * txt, uint32_t pos, uint32_t len)
 467:Middlewares/lvgl/src/misc/lv_txt.c **** {
 468:Middlewares/lvgl/src/misc/lv_txt.c **** 
 469:Middlewares/lvgl/src/misc/lv_txt.c ****     size_t old_len = strlen(txt);
 470:Middlewares/lvgl/src/misc/lv_txt.c **** 
 471:Middlewares/lvgl/src/misc/lv_txt.c ****     pos = _lv_txt_encoded_get_byte_id(txt, pos); /*Convert to byte index instead of letter index*/
 472:Middlewares/lvgl/src/misc/lv_txt.c ****     len = _lv_txt_encoded_get_byte_id(&txt[pos], len);
 473:Middlewares/lvgl/src/misc/lv_txt.c **** 
 474:Middlewares/lvgl/src/misc/lv_txt.c ****     /*Copy the second part into the end to make place to text to insert*/
 475:Middlewares/lvgl/src/misc/lv_txt.c ****     uint32_t i;
 476:Middlewares/lvgl/src/misc/lv_txt.c ****     for(i = pos; i <= old_len - len; i++) {
 477:Middlewares/lvgl/src/misc/lv_txt.c ****         txt[i] = txt[i + len];
 478:Middlewares/lvgl/src/misc/lv_txt.c ****     }
 479:Middlewares/lvgl/src/misc/lv_txt.c **** }
 480:Middlewares/lvgl/src/misc/lv_txt.c **** 
 481:Middlewares/lvgl/src/misc/lv_txt.c **** /**
 482:Middlewares/lvgl/src/misc/lv_txt.c ****  * return a new formatted text. Memory will be allocated to store the text.
 483:Middlewares/lvgl/src/misc/lv_txt.c ****  * @param fmt `printf`-like format
 484:Middlewares/lvgl/src/misc/lv_txt.c ****  * @return pointer to the allocated text string.
 485:Middlewares/lvgl/src/misc/lv_txt.c ****  */
 486:Middlewares/lvgl/src/misc/lv_txt.c **** char * _lv_txt_set_text_vfmt(const char * fmt, va_list ap)
ARM GAS  /tmp/ccWVSSdf.s 			page 10


 487:Middlewares/lvgl/src/misc/lv_txt.c **** {
 488:Middlewares/lvgl/src/misc/lv_txt.c ****     /*Allocate space for the new text by using trick from C99 standard section 7.19.6.12*/
 489:Middlewares/lvgl/src/misc/lv_txt.c ****     va_list ap_copy;
 490:Middlewares/lvgl/src/misc/lv_txt.c ****     va_copy(ap_copy, ap);
 491:Middlewares/lvgl/src/misc/lv_txt.c ****     uint32_t len = lv_vsnprintf(NULL, 0, fmt, ap_copy);
 492:Middlewares/lvgl/src/misc/lv_txt.c ****     va_end(ap_copy);
 493:Middlewares/lvgl/src/misc/lv_txt.c **** 
 494:Middlewares/lvgl/src/misc/lv_txt.c ****     char * text = 0;
 495:Middlewares/lvgl/src/misc/lv_txt.c **** #if LV_USE_ARABIC_PERSIAN_CHARS
 496:Middlewares/lvgl/src/misc/lv_txt.c ****     /*Put together the text according to the format string*/
 497:Middlewares/lvgl/src/misc/lv_txt.c ****     char * raw_txt = lv_mem_buf_get(len + 1);
 498:Middlewares/lvgl/src/misc/lv_txt.c ****     LV_ASSERT_MALLOC(raw_txt);
 499:Middlewares/lvgl/src/misc/lv_txt.c ****     if(raw_txt == NULL) {
 500:Middlewares/lvgl/src/misc/lv_txt.c ****         return NULL;
 501:Middlewares/lvgl/src/misc/lv_txt.c ****     }
 502:Middlewares/lvgl/src/misc/lv_txt.c **** 
 503:Middlewares/lvgl/src/misc/lv_txt.c ****     lv_vsnprintf(raw_txt, len + 1, fmt, ap);
 504:Middlewares/lvgl/src/misc/lv_txt.c **** 
 505:Middlewares/lvgl/src/misc/lv_txt.c ****     /*Get the size of the Arabic text and process it*/
 506:Middlewares/lvgl/src/misc/lv_txt.c ****     size_t len_ap = _lv_txt_ap_calc_bytes_cnt(raw_txt);
 507:Middlewares/lvgl/src/misc/lv_txt.c ****     text = lv_mem_alloc(len_ap + 1);
 508:Middlewares/lvgl/src/misc/lv_txt.c ****     LV_ASSERT_MALLOC(text);
 509:Middlewares/lvgl/src/misc/lv_txt.c ****     if(text == NULL) {
 510:Middlewares/lvgl/src/misc/lv_txt.c ****         return NULL;
 511:Middlewares/lvgl/src/misc/lv_txt.c ****     }
 512:Middlewares/lvgl/src/misc/lv_txt.c ****     _lv_txt_ap_proc(raw_txt, text);
 513:Middlewares/lvgl/src/misc/lv_txt.c **** 
 514:Middlewares/lvgl/src/misc/lv_txt.c ****     lv_mem_buf_release(raw_txt);
 515:Middlewares/lvgl/src/misc/lv_txt.c **** #else
 516:Middlewares/lvgl/src/misc/lv_txt.c ****     text = lv_mem_alloc(len + 1);
 517:Middlewares/lvgl/src/misc/lv_txt.c ****     LV_ASSERT_MALLOC(text);
 518:Middlewares/lvgl/src/misc/lv_txt.c ****     if(text == NULL) {
 519:Middlewares/lvgl/src/misc/lv_txt.c ****         return NULL;
 520:Middlewares/lvgl/src/misc/lv_txt.c ****     }
 521:Middlewares/lvgl/src/misc/lv_txt.c ****     text[len] = 0; /*Ensure NULL termination*/
 522:Middlewares/lvgl/src/misc/lv_txt.c **** 
 523:Middlewares/lvgl/src/misc/lv_txt.c ****     lv_vsnprintf(text, len + 1, fmt, ap);
 524:Middlewares/lvgl/src/misc/lv_txt.c **** #endif
 525:Middlewares/lvgl/src/misc/lv_txt.c **** 
 526:Middlewares/lvgl/src/misc/lv_txt.c ****     return text;
 527:Middlewares/lvgl/src/misc/lv_txt.c **** }
 528:Middlewares/lvgl/src/misc/lv_txt.c **** 
 529:Middlewares/lvgl/src/misc/lv_txt.c **** void _lv_txt_encoded_letter_next_2(const char * txt, uint32_t * letter, uint32_t * letter_next, uin
 530:Middlewares/lvgl/src/misc/lv_txt.c **** {
 531:Middlewares/lvgl/src/misc/lv_txt.c ****     *letter = _lv_txt_encoded_next(txt, ofs);
 532:Middlewares/lvgl/src/misc/lv_txt.c ****     *letter_next = *letter != '\0' ? _lv_txt_encoded_next(&txt[*ofs], NULL) : 0;
 533:Middlewares/lvgl/src/misc/lv_txt.c **** }
 534:Middlewares/lvgl/src/misc/lv_txt.c **** 
 535:Middlewares/lvgl/src/misc/lv_txt.c **** #if LV_TXT_ENC == LV_TXT_ENC_UTF8
 536:Middlewares/lvgl/src/misc/lv_txt.c **** /*******************************
 537:Middlewares/lvgl/src/misc/lv_txt.c ****  *   UTF-8 ENCODER/DECODER
 538:Middlewares/lvgl/src/misc/lv_txt.c ****  ******************************/
 539:Middlewares/lvgl/src/misc/lv_txt.c **** 
 540:Middlewares/lvgl/src/misc/lv_txt.c **** /**
 541:Middlewares/lvgl/src/misc/lv_txt.c ****  * Give the size of an UTF-8 coded character
 542:Middlewares/lvgl/src/misc/lv_txt.c ****  * @param str pointer to a character in a string
 543:Middlewares/lvgl/src/misc/lv_txt.c ****  * @return length of the UTF-8 character (1,2,3 or 4). O on invalid code
ARM GAS  /tmp/ccWVSSdf.s 			page 11


 544:Middlewares/lvgl/src/misc/lv_txt.c ****  */
 545:Middlewares/lvgl/src/misc/lv_txt.c **** static uint8_t lv_txt_utf8_size(const char * str)
 546:Middlewares/lvgl/src/misc/lv_txt.c **** {
  29              		.loc 1 546 1 view -0
  30              		.cfi_startproc
  31              		@ args = 0, pretend = 0, frame = 0
  32              		@ frame_needed = 0, uses_anonymous_args = 0
  33              		@ link register save eliminated.
 547:Middlewares/lvgl/src/misc/lv_txt.c ****     if((str[0] & 0x80) == 0)
  34              		.loc 1 547 5 view .LVU1
  35              		.loc 1 547 12 is_stmt 0 view .LVU2
  36 0000 0378     		ldrb	r3, [r0]	@ zero_extendqisi2
  37              		.loc 1 547 24 view .LVU3
  38 0002 90F90020 		ldrsb	r2, [r0]
  39              		.loc 1 547 7 view .LVU4
  40 0006 002A     		cmp	r2, #0
  41 0008 0DDA     		bge	.L3
 548:Middlewares/lvgl/src/misc/lv_txt.c ****         return 1;
 549:Middlewares/lvgl/src/misc/lv_txt.c ****     else if((str[0] & 0xE0) == 0xC0)
  42              		.loc 1 549 10 is_stmt 1 view .LVU5
  43              		.loc 1 549 12 is_stmt 0 view .LVU6
  44 000a 03F0E002 		and	r2, r3, #224
  45 000e C02A     		cmp	r2, #192
  46 0010 0BD0     		beq	.L4
 550:Middlewares/lvgl/src/misc/lv_txt.c ****         return 2;
 551:Middlewares/lvgl/src/misc/lv_txt.c ****     else if((str[0] & 0xF0) == 0xE0)
  47              		.loc 1 551 10 is_stmt 1 view .LVU7
  48              		.loc 1 551 12 is_stmt 0 view .LVU8
  49 0012 03F0F002 		and	r2, r3, #240
  50 0016 E02A     		cmp	r2, #224
  51 0018 09D0     		beq	.L5
 552:Middlewares/lvgl/src/misc/lv_txt.c ****         return 3;
 553:Middlewares/lvgl/src/misc/lv_txt.c ****     else if((str[0] & 0xF8) == 0xF0)
  52              		.loc 1 553 10 is_stmt 1 view .LVU9
  53              		.loc 1 553 12 is_stmt 0 view .LVU10
  54 001a 03F0F803 		and	r3, r3, #248
  55 001e F02B     		cmp	r3, #240
  56 0020 07D0     		beq	.L6
 554:Middlewares/lvgl/src/misc/lv_txt.c ****         return 4;
 555:Middlewares/lvgl/src/misc/lv_txt.c ****     return 0; /*If the char was invalid tell it's 1 byte long*/
  57              		.loc 1 555 12 view .LVU11
  58 0022 0020     		movs	r0, #0
  59              	.LVL1:
  60              		.loc 1 555 12 view .LVU12
  61 0024 7047     		bx	lr
  62              	.LVL2:
  63              	.L3:
 548:Middlewares/lvgl/src/misc/lv_txt.c ****     else if((str[0] & 0xE0) == 0xC0)
  64              		.loc 1 548 16 view .LVU13
  65 0026 0120     		movs	r0, #1
  66              	.LVL3:
 548:Middlewares/lvgl/src/misc/lv_txt.c ****     else if((str[0] & 0xE0) == 0xC0)
  67              		.loc 1 548 16 view .LVU14
  68 0028 7047     		bx	lr
  69              	.LVL4:
  70              	.L4:
 550:Middlewares/lvgl/src/misc/lv_txt.c ****     else if((str[0] & 0xF0) == 0xE0)
ARM GAS  /tmp/ccWVSSdf.s 			page 12


  71              		.loc 1 550 16 view .LVU15
  72 002a 0220     		movs	r0, #2
  73              	.LVL5:
 550:Middlewares/lvgl/src/misc/lv_txt.c ****     else if((str[0] & 0xF0) == 0xE0)
  74              		.loc 1 550 16 view .LVU16
  75 002c 7047     		bx	lr
  76              	.LVL6:
  77              	.L5:
 552:Middlewares/lvgl/src/misc/lv_txt.c ****     else if((str[0] & 0xF8) == 0xF0)
  78              		.loc 1 552 16 view .LVU17
  79 002e 0320     		movs	r0, #3
  80              	.LVL7:
 552:Middlewares/lvgl/src/misc/lv_txt.c ****     else if((str[0] & 0xF8) == 0xF0)
  81              		.loc 1 552 16 view .LVU18
  82 0030 7047     		bx	lr
  83              	.LVL8:
  84              	.L6:
 554:Middlewares/lvgl/src/misc/lv_txt.c ****     return 0; /*If the char was invalid tell it's 1 byte long*/
  85              		.loc 1 554 16 view .LVU19
  86 0032 0420     		movs	r0, #4
  87              	.LVL9:
 556:Middlewares/lvgl/src/misc/lv_txt.c **** }
  88              		.loc 1 556 1 view .LVU20
  89 0034 7047     		bx	lr
  90              		.cfi_endproc
  91              	.LFE57:
  93              		.section	.text.lv_txt_unicode_to_utf8,"ax",%progbits
  94              		.align	1
  95              		.syntax unified
  96              		.thumb
  97              		.thumb_func
  99              	lv_txt_unicode_to_utf8:
 100              	.LVL10:
 101              	.LFB58:
 557:Middlewares/lvgl/src/misc/lv_txt.c **** 
 558:Middlewares/lvgl/src/misc/lv_txt.c **** /**
 559:Middlewares/lvgl/src/misc/lv_txt.c ****  * Convert an Unicode letter to UTF-8.
 560:Middlewares/lvgl/src/misc/lv_txt.c ****  * @param letter_uni an Unicode letter
 561:Middlewares/lvgl/src/misc/lv_txt.c ****  * @return UTF-8 coded character in Little Endian to be compatible with C chars (e.g. 'Á', 'Ű')
 562:Middlewares/lvgl/src/misc/lv_txt.c ****  */
 563:Middlewares/lvgl/src/misc/lv_txt.c **** static uint32_t lv_txt_unicode_to_utf8(uint32_t letter_uni)
 564:Middlewares/lvgl/src/misc/lv_txt.c **** {
 102              		.loc 1 564 1 is_stmt 1 view -0
 103              		.cfi_startproc
 104              		@ args = 0, pretend = 0, frame = 8
 105              		@ frame_needed = 0, uses_anonymous_args = 0
 106              		@ link register save eliminated.
 565:Middlewares/lvgl/src/misc/lv_txt.c ****     if(letter_uni < 128) return letter_uni;
 107              		.loc 1 565 5 view .LVU22
 108              		.loc 1 565 7 is_stmt 0 view .LVU23
 109 0000 7F28     		cmp	r0, #127
 110 0002 4CD9     		bls	.L14
 564:Middlewares/lvgl/src/misc/lv_txt.c ****     if(letter_uni < 128) return letter_uni;
 111              		.loc 1 564 1 view .LVU24
 112 0004 82B0     		sub	sp, sp, #8
 113              	.LCFI0:
 114              		.cfi_def_cfa_offset 8
ARM GAS  /tmp/ccWVSSdf.s 			page 13


 566:Middlewares/lvgl/src/misc/lv_txt.c ****     uint8_t bytes[4];
 115              		.loc 1 566 5 is_stmt 1 view .LVU25
 567:Middlewares/lvgl/src/misc/lv_txt.c **** 
 568:Middlewares/lvgl/src/misc/lv_txt.c ****     if(letter_uni < 0x0800) {
 116              		.loc 1 568 5 view .LVU26
 117              		.loc 1 568 7 is_stmt 0 view .LVU27
 118 0006 B0F5006F 		cmp	r0, #2048
 119 000a 13D2     		bcs	.L9
 569:Middlewares/lvgl/src/misc/lv_txt.c ****         bytes[0] = ((letter_uni >> 6) & 0x1F) | 0xC0;
 120              		.loc 1 569 9 is_stmt 1 view .LVU28
 121              		.loc 1 569 39 is_stmt 0 view .LVU29
 122 000c C0F38413 		ubfx	r3, r0, #6, #5
 123              		.loc 1 569 47 view .LVU30
 124 0010 43F0C003 		orr	r3, r3, #192
 125              		.loc 1 569 18 view .LVU31
 126 0014 8DF80430 		strb	r3, [sp, #4]
 570:Middlewares/lvgl/src/misc/lv_txt.c ****         bytes[1] = ((letter_uni >> 0) & 0x3F) | 0x80;
 127              		.loc 1 570 9 is_stmt 1 view .LVU32
 128              		.loc 1 570 39 is_stmt 0 view .LVU33
 129 0018 00F03F00 		and	r0, r0, #63
 130              	.LVL11:
 131              		.loc 1 570 47 view .LVU34
 132 001c 40F08000 		orr	r0, r0, #128
 133              		.loc 1 570 18 view .LVU35
 134 0020 8DF80500 		strb	r0, [sp, #5]
 571:Middlewares/lvgl/src/misc/lv_txt.c ****         bytes[2] = 0;
 135              		.loc 1 571 9 is_stmt 1 view .LVU36
 136              		.loc 1 571 18 is_stmt 0 view .LVU37
 137 0024 0023     		movs	r3, #0
 138 0026 8DF80630 		strb	r3, [sp, #6]
 572:Middlewares/lvgl/src/misc/lv_txt.c ****         bytes[3] = 0;
 139              		.loc 1 572 9 is_stmt 1 view .LVU38
 140              		.loc 1 572 18 is_stmt 0 view .LVU39
 141 002a 8DF80730 		strb	r3, [sp, #7]
 142              	.L10:
 573:Middlewares/lvgl/src/misc/lv_txt.c ****     }
 574:Middlewares/lvgl/src/misc/lv_txt.c ****     else if(letter_uni < 0x010000) {
 575:Middlewares/lvgl/src/misc/lv_txt.c ****         bytes[0] = ((letter_uni >> 12) & 0x0F) | 0xE0;
 576:Middlewares/lvgl/src/misc/lv_txt.c ****         bytes[1] = ((letter_uni >> 6) & 0x3F) | 0x80;
 577:Middlewares/lvgl/src/misc/lv_txt.c ****         bytes[2] = ((letter_uni >> 0) & 0x3F) | 0x80;
 578:Middlewares/lvgl/src/misc/lv_txt.c ****         bytes[3] = 0;
 579:Middlewares/lvgl/src/misc/lv_txt.c ****     }
 580:Middlewares/lvgl/src/misc/lv_txt.c ****     else if(letter_uni < 0x110000) {
 581:Middlewares/lvgl/src/misc/lv_txt.c ****         bytes[0] = ((letter_uni >> 18) & 0x07) | 0xF0;
 582:Middlewares/lvgl/src/misc/lv_txt.c ****         bytes[1] = ((letter_uni >> 12) & 0x3F) | 0x80;
 583:Middlewares/lvgl/src/misc/lv_txt.c ****         bytes[2] = ((letter_uni >> 6) & 0x3F) | 0x80;
 584:Middlewares/lvgl/src/misc/lv_txt.c ****         bytes[3] = ((letter_uni >> 0) & 0x3F) | 0x80;
 585:Middlewares/lvgl/src/misc/lv_txt.c ****     }
 586:Middlewares/lvgl/src/misc/lv_txt.c **** 
 587:Middlewares/lvgl/src/misc/lv_txt.c ****     uint32_t * res_p = (uint32_t *)bytes;
 143              		.loc 1 587 5 is_stmt 1 view .LVU40
 144              	.LVL12:
 588:Middlewares/lvgl/src/misc/lv_txt.c ****     return *res_p;
 145              		.loc 1 588 5 view .LVU41
 146              		.loc 1 588 12 is_stmt 0 view .LVU42
 147 002e 0198     		ldr	r0, [sp, #4]
 589:Middlewares/lvgl/src/misc/lv_txt.c **** }
ARM GAS  /tmp/ccWVSSdf.s 			page 14


 148              		.loc 1 589 1 view .LVU43
 149 0030 02B0     		add	sp, sp, #8
 150              	.LCFI1:
 151              		.cfi_remember_state
 152              		.cfi_def_cfa_offset 0
 153              	.LVL13:
 154              		.loc 1 589 1 view .LVU44
 155              		@ sp needed
 156 0032 7047     		bx	lr
 157              	.LVL14:
 158              	.L9:
 159              	.LCFI2:
 160              		.cfi_restore_state
 574:Middlewares/lvgl/src/misc/lv_txt.c ****         bytes[0] = ((letter_uni >> 12) & 0x0F) | 0xE0;
 161              		.loc 1 574 10 is_stmt 1 view .LVU45
 574:Middlewares/lvgl/src/misc/lv_txt.c ****         bytes[0] = ((letter_uni >> 12) & 0x0F) | 0xE0;
 162              		.loc 1 574 12 is_stmt 0 view .LVU46
 163 0034 B0F5803F 		cmp	r0, #65536
 164 0038 15D2     		bcs	.L11
 575:Middlewares/lvgl/src/misc/lv_txt.c ****         bytes[1] = ((letter_uni >> 6) & 0x3F) | 0x80;
 165              		.loc 1 575 9 is_stmt 1 view .LVU47
 575:Middlewares/lvgl/src/misc/lv_txt.c ****         bytes[1] = ((letter_uni >> 6) & 0x3F) | 0x80;
 166              		.loc 1 575 40 is_stmt 0 view .LVU48
 167 003a C0F30333 		ubfx	r3, r0, #12, #4
 575:Middlewares/lvgl/src/misc/lv_txt.c ****         bytes[1] = ((letter_uni >> 6) & 0x3F) | 0x80;
 168              		.loc 1 575 48 view .LVU49
 169 003e 43F0E003 		orr	r3, r3, #224
 575:Middlewares/lvgl/src/misc/lv_txt.c ****         bytes[1] = ((letter_uni >> 6) & 0x3F) | 0x80;
 170              		.loc 1 575 18 view .LVU50
 171 0042 8DF80430 		strb	r3, [sp, #4]
 576:Middlewares/lvgl/src/misc/lv_txt.c ****         bytes[2] = ((letter_uni >> 0) & 0x3F) | 0x80;
 172              		.loc 1 576 9 is_stmt 1 view .LVU51
 576:Middlewares/lvgl/src/misc/lv_txt.c ****         bytes[2] = ((letter_uni >> 0) & 0x3F) | 0x80;
 173              		.loc 1 576 39 is_stmt 0 view .LVU52
 174 0046 C0F38513 		ubfx	r3, r0, #6, #6
 576:Middlewares/lvgl/src/misc/lv_txt.c ****         bytes[2] = ((letter_uni >> 0) & 0x3F) | 0x80;
 175              		.loc 1 576 47 view .LVU53
 176 004a 43F08003 		orr	r3, r3, #128
 576:Middlewares/lvgl/src/misc/lv_txt.c ****         bytes[2] = ((letter_uni >> 0) & 0x3F) | 0x80;
 177              		.loc 1 576 18 view .LVU54
 178 004e 8DF80530 		strb	r3, [sp, #5]
 577:Middlewares/lvgl/src/misc/lv_txt.c ****         bytes[3] = 0;
 179              		.loc 1 577 9 is_stmt 1 view .LVU55
 577:Middlewares/lvgl/src/misc/lv_txt.c ****         bytes[3] = 0;
 180              		.loc 1 577 39 is_stmt 0 view .LVU56
 181 0052 00F03F00 		and	r0, r0, #63
 182              	.LVL15:
 577:Middlewares/lvgl/src/misc/lv_txt.c ****         bytes[3] = 0;
 183              		.loc 1 577 47 view .LVU57
 184 0056 40F08000 		orr	r0, r0, #128
 577:Middlewares/lvgl/src/misc/lv_txt.c ****         bytes[3] = 0;
 185              		.loc 1 577 18 view .LVU58
 186 005a 8DF80600 		strb	r0, [sp, #6]
 578:Middlewares/lvgl/src/misc/lv_txt.c ****     }
 187              		.loc 1 578 9 is_stmt 1 view .LVU59
 578:Middlewares/lvgl/src/misc/lv_txt.c ****     }
 188              		.loc 1 578 18 is_stmt 0 view .LVU60
ARM GAS  /tmp/ccWVSSdf.s 			page 15


 189 005e 0023     		movs	r3, #0
 190 0060 8DF80730 		strb	r3, [sp, #7]
 191 0064 E3E7     		b	.L10
 192              	.LVL16:
 193              	.L11:
 580:Middlewares/lvgl/src/misc/lv_txt.c ****         bytes[0] = ((letter_uni >> 18) & 0x07) | 0xF0;
 194              		.loc 1 580 10 is_stmt 1 view .LVU61
 580:Middlewares/lvgl/src/misc/lv_txt.c ****         bytes[0] = ((letter_uni >> 18) & 0x07) | 0xF0;
 195              		.loc 1 580 12 is_stmt 0 view .LVU62
 196 0066 B0F5881F 		cmp	r0, #1114112
 197 006a E0D2     		bcs	.L10
 581:Middlewares/lvgl/src/misc/lv_txt.c ****         bytes[1] = ((letter_uni >> 12) & 0x3F) | 0x80;
 198              		.loc 1 581 9 is_stmt 1 view .LVU63
 581:Middlewares/lvgl/src/misc/lv_txt.c ****         bytes[1] = ((letter_uni >> 12) & 0x3F) | 0x80;
 199              		.loc 1 581 40 is_stmt 0 view .LVU64
 200 006c C0F38243 		ubfx	r3, r0, #18, #3
 581:Middlewares/lvgl/src/misc/lv_txt.c ****         bytes[1] = ((letter_uni >> 12) & 0x3F) | 0x80;
 201              		.loc 1 581 48 view .LVU65
 202 0070 43F0F003 		orr	r3, r3, #240
 581:Middlewares/lvgl/src/misc/lv_txt.c ****         bytes[1] = ((letter_uni >> 12) & 0x3F) | 0x80;
 203              		.loc 1 581 18 view .LVU66
 204 0074 8DF80430 		strb	r3, [sp, #4]
 582:Middlewares/lvgl/src/misc/lv_txt.c ****         bytes[2] = ((letter_uni >> 6) & 0x3F) | 0x80;
 205              		.loc 1 582 9 is_stmt 1 view .LVU67
 582:Middlewares/lvgl/src/misc/lv_txt.c ****         bytes[2] = ((letter_uni >> 6) & 0x3F) | 0x80;
 206              		.loc 1 582 40 is_stmt 0 view .LVU68
 207 0078 C0F30533 		ubfx	r3, r0, #12, #6
 582:Middlewares/lvgl/src/misc/lv_txt.c ****         bytes[2] = ((letter_uni >> 6) & 0x3F) | 0x80;
 208              		.loc 1 582 48 view .LVU69
 209 007c 43F08003 		orr	r3, r3, #128
 582:Middlewares/lvgl/src/misc/lv_txt.c ****         bytes[2] = ((letter_uni >> 6) & 0x3F) | 0x80;
 210              		.loc 1 582 18 view .LVU70
 211 0080 8DF80530 		strb	r3, [sp, #5]
 583:Middlewares/lvgl/src/misc/lv_txt.c ****         bytes[3] = ((letter_uni >> 0) & 0x3F) | 0x80;
 212              		.loc 1 583 9 is_stmt 1 view .LVU71
 583:Middlewares/lvgl/src/misc/lv_txt.c ****         bytes[3] = ((letter_uni >> 0) & 0x3F) | 0x80;
 213              		.loc 1 583 39 is_stmt 0 view .LVU72
 214 0084 C0F38513 		ubfx	r3, r0, #6, #6
 583:Middlewares/lvgl/src/misc/lv_txt.c ****         bytes[3] = ((letter_uni >> 0) & 0x3F) | 0x80;
 215              		.loc 1 583 47 view .LVU73
 216 0088 43F08003 		orr	r3, r3, #128
 583:Middlewares/lvgl/src/misc/lv_txt.c ****         bytes[3] = ((letter_uni >> 0) & 0x3F) | 0x80;
 217              		.loc 1 583 18 view .LVU74
 218 008c 8DF80630 		strb	r3, [sp, #6]
 584:Middlewares/lvgl/src/misc/lv_txt.c ****     }
 219              		.loc 1 584 9 is_stmt 1 view .LVU75
 584:Middlewares/lvgl/src/misc/lv_txt.c ****     }
 220              		.loc 1 584 39 is_stmt 0 view .LVU76
 221 0090 00F03F00 		and	r0, r0, #63
 222              	.LVL17:
 584:Middlewares/lvgl/src/misc/lv_txt.c ****     }
 223              		.loc 1 584 47 view .LVU77
 224 0094 40F08000 		orr	r0, r0, #128
 584:Middlewares/lvgl/src/misc/lv_txt.c ****     }
 225              		.loc 1 584 18 view .LVU78
 226 0098 8DF80700 		strb	r0, [sp, #7]
 227 009c C7E7     		b	.L10
ARM GAS  /tmp/ccWVSSdf.s 			page 16


 228              	.LVL18:
 229              	.L14:
 230              	.LCFI3:
 231              		.cfi_def_cfa_offset 0
 232              		.loc 1 589 1 view .LVU79
 233 009e 7047     		bx	lr
 234              		.cfi_endproc
 235              	.LFE58:
 237              		.section	.text.lv_txt_utf8_conv_wc,"ax",%progbits
 238              		.align	1
 239              		.syntax unified
 240              		.thumb
 241              		.thumb_func
 243              	lv_txt_utf8_conv_wc:
 244              	.LVL19:
 245              	.LFB59:
 590:Middlewares/lvgl/src/misc/lv_txt.c **** 
 591:Middlewares/lvgl/src/misc/lv_txt.c **** /**
 592:Middlewares/lvgl/src/misc/lv_txt.c ****  * Convert a wide character, e.g. 'Á' little endian to be UTF-8 compatible
 593:Middlewares/lvgl/src/misc/lv_txt.c ****  * @param c a wide character or a  Little endian number
 594:Middlewares/lvgl/src/misc/lv_txt.c ****  * @return `c` in big endian
 595:Middlewares/lvgl/src/misc/lv_txt.c ****  */
 596:Middlewares/lvgl/src/misc/lv_txt.c **** static uint32_t lv_txt_utf8_conv_wc(uint32_t c)
 597:Middlewares/lvgl/src/misc/lv_txt.c **** {
 246              		.loc 1 597 1 is_stmt 1 view -0
 247              		.cfi_startproc
 248              		@ args = 0, pretend = 0, frame = 16
 249              		@ frame_needed = 0, uses_anonymous_args = 0
 250              		@ link register save eliminated.
 251              		.loc 1 597 1 is_stmt 0 view .LVU81
 252 0000 84B0     		sub	sp, sp, #16
 253              	.LCFI4:
 254              		.cfi_def_cfa_offset 16
 255 0002 0190     		str	r0, [sp, #4]
 598:Middlewares/lvgl/src/misc/lv_txt.c **** #if LV_BIG_ENDIAN_SYSTEM == 0
 599:Middlewares/lvgl/src/misc/lv_txt.c ****     /*Swap the bytes (UTF-8 is big endian, but the MCUs are little endian)*/
 600:Middlewares/lvgl/src/misc/lv_txt.c ****     if((c & 0x80) != 0) {
 256              		.loc 1 600 5 is_stmt 1 view .LVU82
 257              		.loc 1 600 7 is_stmt 0 view .LVU83
 258 0004 10F0800F 		tst	r0, #128
 259 0008 19D1     		bne	.L24
 260              	.LVL20:
 261              	.L19:
 601:Middlewares/lvgl/src/misc/lv_txt.c ****         uint32_t swapped;
 602:Middlewares/lvgl/src/misc/lv_txt.c ****         uint8_t c8[4];
 603:Middlewares/lvgl/src/misc/lv_txt.c ****         lv_memcpy_small(c8, &c, 4);
 604:Middlewares/lvgl/src/misc/lv_txt.c ****         swapped = (c8[0] << 24) + (c8[1] << 16) + (c8[2] << 8) + (c8[3]);
 605:Middlewares/lvgl/src/misc/lv_txt.c ****         uint8_t i;
 606:Middlewares/lvgl/src/misc/lv_txt.c ****         for(i = 0; i < 4; i++) {
 607:Middlewares/lvgl/src/misc/lv_txt.c ****             if((swapped & 0xFF) == 0)
 608:Middlewares/lvgl/src/misc/lv_txt.c ****                 swapped = (swapped >> 8); /*Ignore leading zeros (they were in the end originally)*
 609:Middlewares/lvgl/src/misc/lv_txt.c ****         }
 610:Middlewares/lvgl/src/misc/lv_txt.c ****         c = swapped;
 611:Middlewares/lvgl/src/misc/lv_txt.c ****     }
 612:Middlewares/lvgl/src/misc/lv_txt.c **** #endif
 613:Middlewares/lvgl/src/misc/lv_txt.c ****     return c;
 262              		.loc 1 613 5 is_stmt 1 view .LVU84
ARM GAS  /tmp/ccWVSSdf.s 			page 17


 614:Middlewares/lvgl/src/misc/lv_txt.c **** }
 263              		.loc 1 614 1 is_stmt 0 view .LVU85
 264 000a 0198     		ldr	r0, [sp, #4]
 265 000c 04B0     		add	sp, sp, #16
 266              	.LCFI5:
 267              		.cfi_remember_state
 268              		.cfi_def_cfa_offset 0
 269              		@ sp needed
 270 000e 7047     		bx	lr
 271              	.LVL21:
 272              	.L20:
 273              	.LCFI6:
 274              		.cfi_restore_state
 275              	.LBB12:
 276              	.LBB13:
 277              	.LBB14:
 278              		.file 2 "Middlewares/lvgl/src/misc/lv_mem.h"
   1:Middlewares/lvgl/src/misc/lv_mem.h **** /**
   2:Middlewares/lvgl/src/misc/lv_mem.h ****  * @file lv_mem.h
   3:Middlewares/lvgl/src/misc/lv_mem.h ****  *
   4:Middlewares/lvgl/src/misc/lv_mem.h ****  */
   5:Middlewares/lvgl/src/misc/lv_mem.h **** 
   6:Middlewares/lvgl/src/misc/lv_mem.h **** #ifndef LV_MEM_H
   7:Middlewares/lvgl/src/misc/lv_mem.h **** #define LV_MEM_H
   8:Middlewares/lvgl/src/misc/lv_mem.h **** 
   9:Middlewares/lvgl/src/misc/lv_mem.h **** #ifdef __cplusplus
  10:Middlewares/lvgl/src/misc/lv_mem.h **** extern "C" {
  11:Middlewares/lvgl/src/misc/lv_mem.h **** #endif
  12:Middlewares/lvgl/src/misc/lv_mem.h **** 
  13:Middlewares/lvgl/src/misc/lv_mem.h **** /*********************
  14:Middlewares/lvgl/src/misc/lv_mem.h ****  *      INCLUDES
  15:Middlewares/lvgl/src/misc/lv_mem.h ****  *********************/
  16:Middlewares/lvgl/src/misc/lv_mem.h **** #include "../lv_conf_internal.h"
  17:Middlewares/lvgl/src/misc/lv_mem.h **** 
  18:Middlewares/lvgl/src/misc/lv_mem.h **** #include <stdint.h>
  19:Middlewares/lvgl/src/misc/lv_mem.h **** #include <stddef.h>
  20:Middlewares/lvgl/src/misc/lv_mem.h **** #include "lv_log.h"
  21:Middlewares/lvgl/src/misc/lv_mem.h **** #include "lv_types.h"
  22:Middlewares/lvgl/src/misc/lv_mem.h **** 
  23:Middlewares/lvgl/src/misc/lv_mem.h **** #if LV_MEMCPY_MEMSET_STD
  24:Middlewares/lvgl/src/misc/lv_mem.h **** #include <string.h>
  25:Middlewares/lvgl/src/misc/lv_mem.h **** #endif
  26:Middlewares/lvgl/src/misc/lv_mem.h **** 
  27:Middlewares/lvgl/src/misc/lv_mem.h **** /*********************
  28:Middlewares/lvgl/src/misc/lv_mem.h ****  *      DEFINES
  29:Middlewares/lvgl/src/misc/lv_mem.h ****  *********************/
  30:Middlewares/lvgl/src/misc/lv_mem.h **** 
  31:Middlewares/lvgl/src/misc/lv_mem.h **** #ifndef LV_MEM_BUF_MAX_NUM
  32:Middlewares/lvgl/src/misc/lv_mem.h **** #define LV_MEM_BUF_MAX_NUM    16
  33:Middlewares/lvgl/src/misc/lv_mem.h **** #endif
  34:Middlewares/lvgl/src/misc/lv_mem.h **** 
  35:Middlewares/lvgl/src/misc/lv_mem.h **** /**********************
  36:Middlewares/lvgl/src/misc/lv_mem.h ****  *      TYPEDEFS
  37:Middlewares/lvgl/src/misc/lv_mem.h ****  **********************/
  38:Middlewares/lvgl/src/misc/lv_mem.h **** 
  39:Middlewares/lvgl/src/misc/lv_mem.h **** /**
  40:Middlewares/lvgl/src/misc/lv_mem.h ****  * Heap information structure.
ARM GAS  /tmp/ccWVSSdf.s 			page 18


  41:Middlewares/lvgl/src/misc/lv_mem.h ****  */
  42:Middlewares/lvgl/src/misc/lv_mem.h **** typedef struct {
  43:Middlewares/lvgl/src/misc/lv_mem.h ****     uint32_t total_size; /**< Total heap size*/
  44:Middlewares/lvgl/src/misc/lv_mem.h ****     uint32_t free_cnt;
  45:Middlewares/lvgl/src/misc/lv_mem.h ****     uint32_t free_size; /**< Size of available memory*/
  46:Middlewares/lvgl/src/misc/lv_mem.h ****     uint32_t free_biggest_size;
  47:Middlewares/lvgl/src/misc/lv_mem.h ****     uint32_t used_cnt;
  48:Middlewares/lvgl/src/misc/lv_mem.h ****     uint32_t max_used; /**< Max size of Heap memory used*/
  49:Middlewares/lvgl/src/misc/lv_mem.h ****     uint8_t used_pct; /**< Percentage used*/
  50:Middlewares/lvgl/src/misc/lv_mem.h ****     uint8_t frag_pct; /**< Amount of fragmentation*/
  51:Middlewares/lvgl/src/misc/lv_mem.h **** } lv_mem_monitor_t;
  52:Middlewares/lvgl/src/misc/lv_mem.h **** 
  53:Middlewares/lvgl/src/misc/lv_mem.h **** typedef struct {
  54:Middlewares/lvgl/src/misc/lv_mem.h ****     void * p;
  55:Middlewares/lvgl/src/misc/lv_mem.h ****     uint16_t size;
  56:Middlewares/lvgl/src/misc/lv_mem.h ****     uint8_t used : 1;
  57:Middlewares/lvgl/src/misc/lv_mem.h **** } lv_mem_buf_t;
  58:Middlewares/lvgl/src/misc/lv_mem.h **** 
  59:Middlewares/lvgl/src/misc/lv_mem.h **** typedef lv_mem_buf_t lv_mem_buf_arr_t[LV_MEM_BUF_MAX_NUM];
  60:Middlewares/lvgl/src/misc/lv_mem.h **** 
  61:Middlewares/lvgl/src/misc/lv_mem.h **** /**********************
  62:Middlewares/lvgl/src/misc/lv_mem.h ****  * GLOBAL PROTOTYPES
  63:Middlewares/lvgl/src/misc/lv_mem.h ****  **********************/
  64:Middlewares/lvgl/src/misc/lv_mem.h **** 
  65:Middlewares/lvgl/src/misc/lv_mem.h **** /**
  66:Middlewares/lvgl/src/misc/lv_mem.h ****  * Initialize the dyn_mem module (work memory and other variables)
  67:Middlewares/lvgl/src/misc/lv_mem.h ****  */
  68:Middlewares/lvgl/src/misc/lv_mem.h **** void lv_mem_init(void);
  69:Middlewares/lvgl/src/misc/lv_mem.h **** 
  70:Middlewares/lvgl/src/misc/lv_mem.h **** /**
  71:Middlewares/lvgl/src/misc/lv_mem.h ****  * Clean up the memory buffer which frees all the allocated memories.
  72:Middlewares/lvgl/src/misc/lv_mem.h ****  * @note It work only if `LV_MEM_CUSTOM == 0`
  73:Middlewares/lvgl/src/misc/lv_mem.h ****  */
  74:Middlewares/lvgl/src/misc/lv_mem.h **** void lv_mem_deinit(void);
  75:Middlewares/lvgl/src/misc/lv_mem.h **** 
  76:Middlewares/lvgl/src/misc/lv_mem.h **** /**
  77:Middlewares/lvgl/src/misc/lv_mem.h ****  * Allocate a memory dynamically
  78:Middlewares/lvgl/src/misc/lv_mem.h ****  * @param size size of the memory to allocate in bytes
  79:Middlewares/lvgl/src/misc/lv_mem.h ****  * @return pointer to the allocated memory
  80:Middlewares/lvgl/src/misc/lv_mem.h ****  */
  81:Middlewares/lvgl/src/misc/lv_mem.h **** void * lv_mem_alloc(size_t size);
  82:Middlewares/lvgl/src/misc/lv_mem.h **** 
  83:Middlewares/lvgl/src/misc/lv_mem.h **** /**
  84:Middlewares/lvgl/src/misc/lv_mem.h ****  * Free an allocated data
  85:Middlewares/lvgl/src/misc/lv_mem.h ****  * @param data pointer to an allocated memory
  86:Middlewares/lvgl/src/misc/lv_mem.h ****  */
  87:Middlewares/lvgl/src/misc/lv_mem.h **** void lv_mem_free(void * data);
  88:Middlewares/lvgl/src/misc/lv_mem.h **** 
  89:Middlewares/lvgl/src/misc/lv_mem.h **** /**
  90:Middlewares/lvgl/src/misc/lv_mem.h ****  * Reallocate a memory with a new size. The old content will be kept.
  91:Middlewares/lvgl/src/misc/lv_mem.h ****  * @param data pointer to an allocated memory.
  92:Middlewares/lvgl/src/misc/lv_mem.h ****  * Its content will be copied to the new memory block and freed
  93:Middlewares/lvgl/src/misc/lv_mem.h ****  * @param new_size the desired new size in byte
  94:Middlewares/lvgl/src/misc/lv_mem.h ****  * @return pointer to the new memory
  95:Middlewares/lvgl/src/misc/lv_mem.h ****  */
  96:Middlewares/lvgl/src/misc/lv_mem.h **** void * lv_mem_realloc(void * data_p, size_t new_size);
  97:Middlewares/lvgl/src/misc/lv_mem.h **** 
ARM GAS  /tmp/ccWVSSdf.s 			page 19


  98:Middlewares/lvgl/src/misc/lv_mem.h **** /**
  99:Middlewares/lvgl/src/misc/lv_mem.h ****  *
 100:Middlewares/lvgl/src/misc/lv_mem.h ****  * @return
 101:Middlewares/lvgl/src/misc/lv_mem.h ****  */
 102:Middlewares/lvgl/src/misc/lv_mem.h **** lv_res_t lv_mem_test(void);
 103:Middlewares/lvgl/src/misc/lv_mem.h **** 
 104:Middlewares/lvgl/src/misc/lv_mem.h **** /**
 105:Middlewares/lvgl/src/misc/lv_mem.h ****  * Give information about the work memory of dynamic allocation
 106:Middlewares/lvgl/src/misc/lv_mem.h ****  * @param mon_p pointer to a dm_mon_p variable,
 107:Middlewares/lvgl/src/misc/lv_mem.h ****  *              the result of the analysis will be stored here
 108:Middlewares/lvgl/src/misc/lv_mem.h ****  */
 109:Middlewares/lvgl/src/misc/lv_mem.h **** void lv_mem_monitor(lv_mem_monitor_t * mon_p);
 110:Middlewares/lvgl/src/misc/lv_mem.h **** 
 111:Middlewares/lvgl/src/misc/lv_mem.h **** 
 112:Middlewares/lvgl/src/misc/lv_mem.h **** /**
 113:Middlewares/lvgl/src/misc/lv_mem.h ****  * Get a temporal buffer with the given size.
 114:Middlewares/lvgl/src/misc/lv_mem.h ****  * @param size the required size
 115:Middlewares/lvgl/src/misc/lv_mem.h ****  */
 116:Middlewares/lvgl/src/misc/lv_mem.h **** void * lv_mem_buf_get(uint32_t size);
 117:Middlewares/lvgl/src/misc/lv_mem.h **** 
 118:Middlewares/lvgl/src/misc/lv_mem.h **** /**
 119:Middlewares/lvgl/src/misc/lv_mem.h ****  * Release a memory buffer
 120:Middlewares/lvgl/src/misc/lv_mem.h ****  * @param p buffer to release
 121:Middlewares/lvgl/src/misc/lv_mem.h ****  */
 122:Middlewares/lvgl/src/misc/lv_mem.h **** void lv_mem_buf_release(void * p);
 123:Middlewares/lvgl/src/misc/lv_mem.h **** 
 124:Middlewares/lvgl/src/misc/lv_mem.h **** /**
 125:Middlewares/lvgl/src/misc/lv_mem.h ****  * Free all memory buffers
 126:Middlewares/lvgl/src/misc/lv_mem.h ****  */
 127:Middlewares/lvgl/src/misc/lv_mem.h **** void lv_mem_buf_free_all(void);
 128:Middlewares/lvgl/src/misc/lv_mem.h **** 
 129:Middlewares/lvgl/src/misc/lv_mem.h **** //! @cond Doxygen_Suppress
 130:Middlewares/lvgl/src/misc/lv_mem.h **** 
 131:Middlewares/lvgl/src/misc/lv_mem.h **** #if LV_MEMCPY_MEMSET_STD
 132:Middlewares/lvgl/src/misc/lv_mem.h **** 
 133:Middlewares/lvgl/src/misc/lv_mem.h **** /**
 134:Middlewares/lvgl/src/misc/lv_mem.h ****  * Wrapper for the standard memcpy
 135:Middlewares/lvgl/src/misc/lv_mem.h ****  * @param dst pointer to the destination buffer
 136:Middlewares/lvgl/src/misc/lv_mem.h ****  * @param src pointer to the source buffer
 137:Middlewares/lvgl/src/misc/lv_mem.h ****  * @param len number of byte to copy
 138:Middlewares/lvgl/src/misc/lv_mem.h ****  */
 139:Middlewares/lvgl/src/misc/lv_mem.h **** static inline void * lv_memcpy(void * dst, const void * src, size_t len)
 140:Middlewares/lvgl/src/misc/lv_mem.h **** {
 141:Middlewares/lvgl/src/misc/lv_mem.h ****     return memcpy(dst, src, len);
 142:Middlewares/lvgl/src/misc/lv_mem.h **** }
 143:Middlewares/lvgl/src/misc/lv_mem.h **** 
 144:Middlewares/lvgl/src/misc/lv_mem.h **** /**
 145:Middlewares/lvgl/src/misc/lv_mem.h ****  * Wrapper for the standard memcpy
 146:Middlewares/lvgl/src/misc/lv_mem.h ****  * @param dst pointer to the destination buffer
 147:Middlewares/lvgl/src/misc/lv_mem.h ****  * @param src pointer to the source buffer
 148:Middlewares/lvgl/src/misc/lv_mem.h ****  * @param len number of byte to copy
 149:Middlewares/lvgl/src/misc/lv_mem.h ****  */
 150:Middlewares/lvgl/src/misc/lv_mem.h **** static inline void * lv_memcpy_small(void * dst, const void * src, size_t len)
 151:Middlewares/lvgl/src/misc/lv_mem.h **** {
 152:Middlewares/lvgl/src/misc/lv_mem.h ****     return memcpy(dst, src, len);
 153:Middlewares/lvgl/src/misc/lv_mem.h **** }
 154:Middlewares/lvgl/src/misc/lv_mem.h **** 
ARM GAS  /tmp/ccWVSSdf.s 			page 20


 155:Middlewares/lvgl/src/misc/lv_mem.h **** /**
 156:Middlewares/lvgl/src/misc/lv_mem.h ****  * Wrapper for the standard memset
 157:Middlewares/lvgl/src/misc/lv_mem.h ****  * @param dst pointer to the destination buffer
 158:Middlewares/lvgl/src/misc/lv_mem.h ****  * @param v value to set [0..255]
 159:Middlewares/lvgl/src/misc/lv_mem.h ****  * @param len number of byte to set
 160:Middlewares/lvgl/src/misc/lv_mem.h ****  */
 161:Middlewares/lvgl/src/misc/lv_mem.h **** static inline void lv_memset(void * dst, uint8_t v, size_t len)
 162:Middlewares/lvgl/src/misc/lv_mem.h **** {
 163:Middlewares/lvgl/src/misc/lv_mem.h ****     memset(dst, v, len);
 164:Middlewares/lvgl/src/misc/lv_mem.h **** }
 165:Middlewares/lvgl/src/misc/lv_mem.h **** 
 166:Middlewares/lvgl/src/misc/lv_mem.h **** /**
 167:Middlewares/lvgl/src/misc/lv_mem.h ****  * Wrapper for the standard memset with fixed 0x00 value
 168:Middlewares/lvgl/src/misc/lv_mem.h ****  * @param dst pointer to the destination buffer
 169:Middlewares/lvgl/src/misc/lv_mem.h ****  * @param len number of byte to set
 170:Middlewares/lvgl/src/misc/lv_mem.h ****  */
 171:Middlewares/lvgl/src/misc/lv_mem.h **** static inline void lv_memset_00(void * dst, size_t len)
 172:Middlewares/lvgl/src/misc/lv_mem.h **** {
 173:Middlewares/lvgl/src/misc/lv_mem.h ****     memset(dst, 0x00, len);
 174:Middlewares/lvgl/src/misc/lv_mem.h **** }
 175:Middlewares/lvgl/src/misc/lv_mem.h **** 
 176:Middlewares/lvgl/src/misc/lv_mem.h **** /**
 177:Middlewares/lvgl/src/misc/lv_mem.h ****  * Wrapper for the standard memset with fixed 0xFF value
 178:Middlewares/lvgl/src/misc/lv_mem.h ****  * @param dst pointer to the destination buffer
 179:Middlewares/lvgl/src/misc/lv_mem.h ****  * @param len number of byte to set
 180:Middlewares/lvgl/src/misc/lv_mem.h ****  */
 181:Middlewares/lvgl/src/misc/lv_mem.h **** static inline void lv_memset_ff(void * dst, size_t len)
 182:Middlewares/lvgl/src/misc/lv_mem.h **** {
 183:Middlewares/lvgl/src/misc/lv_mem.h ****     memset(dst, 0xFF, len);
 184:Middlewares/lvgl/src/misc/lv_mem.h **** }
 185:Middlewares/lvgl/src/misc/lv_mem.h **** 
 186:Middlewares/lvgl/src/misc/lv_mem.h **** #else
 187:Middlewares/lvgl/src/misc/lv_mem.h **** /**
 188:Middlewares/lvgl/src/misc/lv_mem.h ****  * Same as `memcpy` but optimized for 4 byte operation.
 189:Middlewares/lvgl/src/misc/lv_mem.h ****  * @param dst pointer to the destination buffer
 190:Middlewares/lvgl/src/misc/lv_mem.h ****  * @param src pointer to the source buffer
 191:Middlewares/lvgl/src/misc/lv_mem.h ****  * @param len number of byte to copy
 192:Middlewares/lvgl/src/misc/lv_mem.h ****  */
 193:Middlewares/lvgl/src/misc/lv_mem.h **** LV_ATTRIBUTE_FAST_MEM void * lv_memcpy(void * dst, const void * src, size_t len);
 194:Middlewares/lvgl/src/misc/lv_mem.h **** 
 195:Middlewares/lvgl/src/misc/lv_mem.h **** /**
 196:Middlewares/lvgl/src/misc/lv_mem.h ****  * Same as `memcpy` but optimized to copy only a few bytes.
 197:Middlewares/lvgl/src/misc/lv_mem.h ****  * @param dst pointer to the destination buffer
 198:Middlewares/lvgl/src/misc/lv_mem.h ****  * @param src pointer to the source buffer
 199:Middlewares/lvgl/src/misc/lv_mem.h ****  * @param len number of byte to copy
 200:Middlewares/lvgl/src/misc/lv_mem.h ****  */
 201:Middlewares/lvgl/src/misc/lv_mem.h **** LV_ATTRIBUTE_FAST_MEM static inline void * lv_memcpy_small(void * dst, const void * src, size_t len
 202:Middlewares/lvgl/src/misc/lv_mem.h **** {
 203:Middlewares/lvgl/src/misc/lv_mem.h ****     uint8_t * d8 = (uint8_t *)dst;
 204:Middlewares/lvgl/src/misc/lv_mem.h ****     const uint8_t * s8 = (const uint8_t *)src;
 205:Middlewares/lvgl/src/misc/lv_mem.h **** 
 206:Middlewares/lvgl/src/misc/lv_mem.h ****     while(len) {
 207:Middlewares/lvgl/src/misc/lv_mem.h ****         *d8 = *s8;
 279              		.loc 2 207 9 is_stmt 1 view .LVU86
 280              		.loc 2 207 15 is_stmt 0 view .LVU87
 281 0010 11F8010B 		ldrb	r0, [r1], #1	@ zero_extendqisi2
 282              	.LVL22:
ARM GAS  /tmp/ccWVSSdf.s 			page 21


 283              		.loc 2 207 13 view .LVU88
 284 0014 02F8010B 		strb	r0, [r2], #1
 285              	.LVL23:
 208:Middlewares/lvgl/src/misc/lv_mem.h ****         d8++;
 286              		.loc 2 208 9 is_stmt 1 view .LVU89
 209:Middlewares/lvgl/src/misc/lv_mem.h ****         s8++;
 287              		.loc 2 209 9 view .LVU90
 210:Middlewares/lvgl/src/misc/lv_mem.h ****         len--;
 288              		.loc 2 210 9 view .LVU91
 289              		.loc 2 210 12 is_stmt 0 view .LVU92
 290 0018 013B     		subs	r3, r3, #1
 291              	.LVL24:
 292              	.L18:
 206:Middlewares/lvgl/src/misc/lv_mem.h ****         *d8 = *s8;
 293              		.loc 2 206 10 is_stmt 1 view .LVU93
 294 001a 002B     		cmp	r3, #0
 295 001c F8D1     		bne	.L20
 211:Middlewares/lvgl/src/misc/lv_mem.h ****     }
 212:Middlewares/lvgl/src/misc/lv_mem.h **** 
 213:Middlewares/lvgl/src/misc/lv_mem.h ****     return dst;
 296              		.loc 2 213 5 view .LVU94
 297              	.LVL25:
 298              		.loc 2 213 5 is_stmt 0 view .LVU95
 299              	.LBE14:
 300              	.LBE13:
 604:Middlewares/lvgl/src/misc/lv_txt.c ****         uint8_t i;
 301              		.loc 1 604 9 is_stmt 1 view .LVU96
 604:Middlewares/lvgl/src/misc/lv_txt.c ****         uint8_t i;
 302              		.loc 1 604 22 is_stmt 0 view .LVU97
 303 001e 9DF80C30 		ldrb	r3, [sp, #12]	@ zero_extendqisi2
 604:Middlewares/lvgl/src/misc/lv_txt.c ****         uint8_t i;
 304              		.loc 1 604 38 view .LVU98
 305 0022 9DF80D20 		ldrb	r2, [sp, #13]	@ zero_extendqisi2
 604:Middlewares/lvgl/src/misc/lv_txt.c ****         uint8_t i;
 306              		.loc 1 604 42 view .LVU99
 307 0026 1204     		lsls	r2, r2, #16
 604:Middlewares/lvgl/src/misc/lv_txt.c ****         uint8_t i;
 308              		.loc 1 604 33 view .LVU100
 309 0028 02EB0362 		add	r2, r2, r3, lsl #24
 604:Middlewares/lvgl/src/misc/lv_txt.c ****         uint8_t i;
 310              		.loc 1 604 54 view .LVU101
 311 002c 9DF80E30 		ldrb	r3, [sp, #14]	@ zero_extendqisi2
 604:Middlewares/lvgl/src/misc/lv_txt.c ****         uint8_t i;
 312              		.loc 1 604 49 view .LVU102
 313 0030 02EB0322 		add	r2, r2, r3, lsl #8
 604:Middlewares/lvgl/src/misc/lv_txt.c ****         uint8_t i;
 314              		.loc 1 604 69 view .LVU103
 315 0034 9DF80F30 		ldrb	r3, [sp, #15]	@ zero_extendqisi2
 604:Middlewares/lvgl/src/misc/lv_txt.c ****         uint8_t i;
 316              		.loc 1 604 64 view .LVU104
 317 0038 1A44     		add	r2, r2, r3
 318              	.LVL26:
 605:Middlewares/lvgl/src/misc/lv_txt.c ****         for(i = 0; i < 4; i++) {
 319              		.loc 1 605 9 is_stmt 1 view .LVU105
 606:Middlewares/lvgl/src/misc/lv_txt.c ****             if((swapped & 0xFF) == 0)
 320              		.loc 1 606 9 view .LVU106
 606:Middlewares/lvgl/src/misc/lv_txt.c ****             if((swapped & 0xFF) == 0)
ARM GAS  /tmp/ccWVSSdf.s 			page 22


 321              		.loc 1 606 15 is_stmt 0 view .LVU107
 322 003a 0023     		movs	r3, #0
 606:Middlewares/lvgl/src/misc/lv_txt.c ****             if((swapped & 0xFF) == 0)
 323              		.loc 1 606 9 view .LVU108
 324 003c 05E0     		b	.L21
 325              	.LVL27:
 326              	.L24:
 327              	.LBB16:
 328              	.LBB15:
 204:Middlewares/lvgl/src/misc/lv_mem.h **** 
 329              		.loc 2 204 21 view .LVU109
 330 003e 01A9     		add	r1, sp, #4
 203:Middlewares/lvgl/src/misc/lv_mem.h ****     const uint8_t * s8 = (const uint8_t *)src;
 331              		.loc 2 203 15 view .LVU110
 332 0040 03AA     		add	r2, sp, #12
 333              	.LBE15:
 334              	.LBE16:
 335              	.LBE12:
 336 0042 0423     		movs	r3, #4
 337 0044 E9E7     		b	.L18
 338              	.LVL28:
 339              	.L22:
 340              	.LBB17:
 606:Middlewares/lvgl/src/misc/lv_txt.c ****             if((swapped & 0xFF) == 0)
 341              		.loc 1 606 27 is_stmt 1 discriminator 2 view .LVU111
 606:Middlewares/lvgl/src/misc/lv_txt.c ****             if((swapped & 0xFF) == 0)
 342              		.loc 1 606 28 is_stmt 0 discriminator 2 view .LVU112
 343 0046 0133     		adds	r3, r3, #1
 344              	.LVL29:
 606:Middlewares/lvgl/src/misc/lv_txt.c ****             if((swapped & 0xFF) == 0)
 345              		.loc 1 606 28 discriminator 2 view .LVU113
 346 0048 DBB2     		uxtb	r3, r3
 347              	.LVL30:
 348              	.L21:
 606:Middlewares/lvgl/src/misc/lv_txt.c ****             if((swapped & 0xFF) == 0)
 349              		.loc 1 606 20 is_stmt 1 discriminator 1 view .LVU114
 606:Middlewares/lvgl/src/misc/lv_txt.c ****             if((swapped & 0xFF) == 0)
 350              		.loc 1 606 9 is_stmt 0 discriminator 1 view .LVU115
 351 004a 032B     		cmp	r3, #3
 352 004c 04D8     		bhi	.L26
 607:Middlewares/lvgl/src/misc/lv_txt.c ****                 swapped = (swapped >> 8); /*Ignore leading zeros (they were in the end originally)*
 353              		.loc 1 607 13 is_stmt 1 view .LVU116
 607:Middlewares/lvgl/src/misc/lv_txt.c ****                 swapped = (swapped >> 8); /*Ignore leading zeros (they were in the end originally)*
 354              		.loc 1 607 15 is_stmt 0 view .LVU117
 355 004e 12F0FF0F 		tst	r2, #255
 356 0052 F8D1     		bne	.L22
 608:Middlewares/lvgl/src/misc/lv_txt.c ****         }
 357              		.loc 1 608 17 is_stmt 1 view .LVU118
 608:Middlewares/lvgl/src/misc/lv_txt.c ****         }
 358              		.loc 1 608 25 is_stmt 0 view .LVU119
 359 0054 120A     		lsrs	r2, r2, #8
 360              	.LVL31:
 608:Middlewares/lvgl/src/misc/lv_txt.c ****         }
 361              		.loc 1 608 25 view .LVU120
 362 0056 F6E7     		b	.L22
 363              	.L26:
 610:Middlewares/lvgl/src/misc/lv_txt.c ****     }
ARM GAS  /tmp/ccWVSSdf.s 			page 23


 364              		.loc 1 610 9 is_stmt 1 view .LVU121
 610:Middlewares/lvgl/src/misc/lv_txt.c ****     }
 365              		.loc 1 610 11 is_stmt 0 view .LVU122
 366 0058 0192     		str	r2, [sp, #4]
 367 005a D6E7     		b	.L19
 368              	.LBE17:
 369              		.cfi_endproc
 370              	.LFE59:
 372              		.section	.text.lv_txt_utf8_next,"ax",%progbits
 373              		.align	1
 374              		.syntax unified
 375              		.thumb
 376              		.thumb_func
 378              	lv_txt_utf8_next:
 379              	.LVL32:
 380              	.LFB60:
 615:Middlewares/lvgl/src/misc/lv_txt.c **** 
 616:Middlewares/lvgl/src/misc/lv_txt.c **** /**
 617:Middlewares/lvgl/src/misc/lv_txt.c ****  * Decode an UTF-8 character from a string.
 618:Middlewares/lvgl/src/misc/lv_txt.c ****  * @param txt pointer to '\0' terminated string
 619:Middlewares/lvgl/src/misc/lv_txt.c ****  * @param i start byte index in 'txt' where to start.
 620:Middlewares/lvgl/src/misc/lv_txt.c ****  *          After call it will point to the next UTF-8 char in 'txt'.
 621:Middlewares/lvgl/src/misc/lv_txt.c ****  *          NULL to use txt[0] as index
 622:Middlewares/lvgl/src/misc/lv_txt.c ****  * @return the decoded Unicode character or 0 on invalid UTF-8 code
 623:Middlewares/lvgl/src/misc/lv_txt.c ****  */
 624:Middlewares/lvgl/src/misc/lv_txt.c **** static uint32_t lv_txt_utf8_next(const char * txt, uint32_t * i)
 625:Middlewares/lvgl/src/misc/lv_txt.c **** {
 381              		.loc 1 625 1 is_stmt 1 view -0
 382              		.cfi_startproc
 383              		@ args = 0, pretend = 0, frame = 8
 384              		@ frame_needed = 0, uses_anonymous_args = 0
 385              		.loc 1 625 1 is_stmt 0 view .LVU124
 386 0000 00B5     		push	{lr}
 387              	.LCFI7:
 388              		.cfi_def_cfa_offset 4
 389              		.cfi_offset 14, -4
 390 0002 83B0     		sub	sp, sp, #12
 391              	.LCFI8:
 392              		.cfi_def_cfa_offset 16
 393 0004 8646     		mov	lr, r0
 626:Middlewares/lvgl/src/misc/lv_txt.c ****     /**
 627:Middlewares/lvgl/src/misc/lv_txt.c ****      * Unicode to UTF-8
 628:Middlewares/lvgl/src/misc/lv_txt.c ****      * 00000000 00000000 00000000 0xxxxxxx -> 0xxxxxxx
 629:Middlewares/lvgl/src/misc/lv_txt.c ****      * 00000000 00000000 00000yyy yyxxxxxx -> 110yyyyy 10xxxxxx
 630:Middlewares/lvgl/src/misc/lv_txt.c ****      * 00000000 00000000 zzzzyyyy yyxxxxxx -> 1110zzzz 10yyyyyy 10xxxxxx
 631:Middlewares/lvgl/src/misc/lv_txt.c ****      * 00000000 000wwwzz zzzzyyyy yyxxxxxx -> 11110www 10zzzzzz 10yyyyyy 10xxxxxx
 632:Middlewares/lvgl/src/misc/lv_txt.c ****      */
 633:Middlewares/lvgl/src/misc/lv_txt.c **** 
 634:Middlewares/lvgl/src/misc/lv_txt.c ****     uint32_t result = 0;
 394              		.loc 1 634 5 is_stmt 1 view .LVU125
 395              	.LVL33:
 635:Middlewares/lvgl/src/misc/lv_txt.c **** 
 636:Middlewares/lvgl/src/misc/lv_txt.c ****     /*Dummy 'i' pointer is required*/
 637:Middlewares/lvgl/src/misc/lv_txt.c ****     uint32_t i_tmp = 0;
 396              		.loc 1 637 5 view .LVU126
 397              		.loc 1 637 14 is_stmt 0 view .LVU127
 398 0006 0023     		movs	r3, #0
ARM GAS  /tmp/ccWVSSdf.s 			page 24


 399 0008 0193     		str	r3, [sp, #4]
 638:Middlewares/lvgl/src/misc/lv_txt.c ****     if(i == NULL) i = &i_tmp;
 400              		.loc 1 638 5 is_stmt 1 view .LVU128
 401              		.loc 1 638 7 is_stmt 0 view .LVU129
 402 000a 8C46     		mov	ip, r1
 403 000c 69B1     		cbz	r1, .L42
 404              	.L28:
 405              	.LVL34:
 639:Middlewares/lvgl/src/misc/lv_txt.c **** 
 640:Middlewares/lvgl/src/misc/lv_txt.c ****     /*Normal ASCII*/
 641:Middlewares/lvgl/src/misc/lv_txt.c ****     if((txt[*i] & 0x80) == 0) {
 406              		.loc 1 641 5 is_stmt 1 view .LVU130
 407              		.loc 1 641 13 is_stmt 0 view .LVU131
 408 000e DCF80030 		ldr	r3, [ip]
 409              		.loc 1 641 12 view .LVU132
 410 0012 1EF80300 		ldrb	r0, [lr, r3]	@ zero_extendqisi2
 411              	.LVL35:
 412              		.loc 1 641 25 view .LVU133
 413 0016 1EF90320 		ldrsb	r2, [lr, r3]
 414              		.loc 1 641 7 view .LVU134
 415 001a 002A     		cmp	r2, #0
 416 001c 08DB     		blt	.L29
 642:Middlewares/lvgl/src/misc/lv_txt.c ****         result = txt[*i];
 417              		.loc 1 642 9 is_stmt 1 view .LVU135
 418              	.LVL36:
 643:Middlewares/lvgl/src/misc/lv_txt.c ****         (*i)++;
 419              		.loc 1 643 9 view .LVU136
 420              		.loc 1 643 13 is_stmt 0 view .LVU137
 421 001e 0133     		adds	r3, r3, #1
 422 0020 CCF80030 		str	r3, [ip]
 423              	.LVL37:
 424              	.L27:
 644:Middlewares/lvgl/src/misc/lv_txt.c ****     }
 645:Middlewares/lvgl/src/misc/lv_txt.c ****     /*Real UTF-8 decode*/
 646:Middlewares/lvgl/src/misc/lv_txt.c ****     else {
 647:Middlewares/lvgl/src/misc/lv_txt.c ****         /*2 bytes UTF-8 code*/
 648:Middlewares/lvgl/src/misc/lv_txt.c ****         if((txt[*i] & 0xE0) == 0xC0) {
 649:Middlewares/lvgl/src/misc/lv_txt.c ****             result = (uint32_t)(txt[*i] & 0x1F) << 6;
 650:Middlewares/lvgl/src/misc/lv_txt.c ****             (*i)++;
 651:Middlewares/lvgl/src/misc/lv_txt.c ****             if((txt[*i] & 0xC0) != 0x80) return 0; /*Invalid UTF-8 code*/
 652:Middlewares/lvgl/src/misc/lv_txt.c ****             result += (txt[*i] & 0x3F);
 653:Middlewares/lvgl/src/misc/lv_txt.c ****             (*i)++;
 654:Middlewares/lvgl/src/misc/lv_txt.c ****         }
 655:Middlewares/lvgl/src/misc/lv_txt.c ****         /*3 bytes UTF-8 code*/
 656:Middlewares/lvgl/src/misc/lv_txt.c ****         else if((txt[*i] & 0xF0) == 0xE0) {
 657:Middlewares/lvgl/src/misc/lv_txt.c ****             result = (uint32_t)(txt[*i] & 0x0F) << 12;
 658:Middlewares/lvgl/src/misc/lv_txt.c ****             (*i)++;
 659:Middlewares/lvgl/src/misc/lv_txt.c **** 
 660:Middlewares/lvgl/src/misc/lv_txt.c ****             if((txt[*i] & 0xC0) != 0x80) return 0; /*Invalid UTF-8 code*/
 661:Middlewares/lvgl/src/misc/lv_txt.c ****             result += (uint32_t)(txt[*i] & 0x3F) << 6;
 662:Middlewares/lvgl/src/misc/lv_txt.c ****             (*i)++;
 663:Middlewares/lvgl/src/misc/lv_txt.c **** 
 664:Middlewares/lvgl/src/misc/lv_txt.c ****             if((txt[*i] & 0xC0) != 0x80) return 0; /*Invalid UTF-8 code*/
 665:Middlewares/lvgl/src/misc/lv_txt.c ****             result += (txt[*i] & 0x3F);
 666:Middlewares/lvgl/src/misc/lv_txt.c ****             (*i)++;
 667:Middlewares/lvgl/src/misc/lv_txt.c ****         }
 668:Middlewares/lvgl/src/misc/lv_txt.c ****         /*4 bytes UTF-8 code*/
ARM GAS  /tmp/ccWVSSdf.s 			page 25


 669:Middlewares/lvgl/src/misc/lv_txt.c ****         else if((txt[*i] & 0xF8) == 0xF0) {
 670:Middlewares/lvgl/src/misc/lv_txt.c ****             result = (uint32_t)(txt[*i] & 0x07) << 18;
 671:Middlewares/lvgl/src/misc/lv_txt.c ****             (*i)++;
 672:Middlewares/lvgl/src/misc/lv_txt.c **** 
 673:Middlewares/lvgl/src/misc/lv_txt.c ****             if((txt[*i] & 0xC0) != 0x80) return 0; /*Invalid UTF-8 code*/
 674:Middlewares/lvgl/src/misc/lv_txt.c ****             result += (uint32_t)(txt[*i] & 0x3F) << 12;
 675:Middlewares/lvgl/src/misc/lv_txt.c ****             (*i)++;
 676:Middlewares/lvgl/src/misc/lv_txt.c **** 
 677:Middlewares/lvgl/src/misc/lv_txt.c ****             if((txt[*i] & 0xC0) != 0x80) return 0; /*Invalid UTF-8 code*/
 678:Middlewares/lvgl/src/misc/lv_txt.c ****             result += (uint32_t)(txt[*i] & 0x3F) << 6;
 679:Middlewares/lvgl/src/misc/lv_txt.c ****             (*i)++;
 680:Middlewares/lvgl/src/misc/lv_txt.c **** 
 681:Middlewares/lvgl/src/misc/lv_txt.c ****             if((txt[*i] & 0xC0) != 0x80) return 0; /*Invalid UTF-8 code*/
 682:Middlewares/lvgl/src/misc/lv_txt.c ****             result += txt[*i] & 0x3F;
 683:Middlewares/lvgl/src/misc/lv_txt.c ****             (*i)++;
 684:Middlewares/lvgl/src/misc/lv_txt.c ****         }
 685:Middlewares/lvgl/src/misc/lv_txt.c ****         else {
 686:Middlewares/lvgl/src/misc/lv_txt.c ****             (*i)++; /*Not UTF-8 char. Go the next.*/
 687:Middlewares/lvgl/src/misc/lv_txt.c ****         }
 688:Middlewares/lvgl/src/misc/lv_txt.c ****     }
 689:Middlewares/lvgl/src/misc/lv_txt.c ****     return result;
 690:Middlewares/lvgl/src/misc/lv_txt.c **** }
 425              		.loc 1 690 1 view .LVU138
 426 0024 03B0     		add	sp, sp, #12
 427              	.LCFI9:
 428              		.cfi_remember_state
 429              		.cfi_def_cfa_offset 4
 430              		@ sp needed
 431 0026 5DF804FB 		ldr	pc, [sp], #4
 432              	.LVL38:
 433              	.L42:
 434              	.LCFI10:
 435              		.cfi_restore_state
 638:Middlewares/lvgl/src/misc/lv_txt.c **** 
 436              		.loc 1 638 21 view .LVU139
 437 002a 0DF1040C 		add	ip, sp, #4
 438 002e EEE7     		b	.L28
 439              	.LVL39:
 440              	.L29:
 648:Middlewares/lvgl/src/misc/lv_txt.c ****             result = (uint32_t)(txt[*i] & 0x1F) << 6;
 441              		.loc 1 648 9 is_stmt 1 view .LVU140
 648:Middlewares/lvgl/src/misc/lv_txt.c ****             result = (uint32_t)(txt[*i] & 0x1F) << 6;
 442              		.loc 1 648 11 is_stmt 0 view .LVU141
 443 0030 00F0E002 		and	r2, r0, #224
 444 0034 C02A     		cmp	r2, #192
 445 0036 0CD0     		beq	.L43
 656:Middlewares/lvgl/src/misc/lv_txt.c ****             result = (uint32_t)(txt[*i] & 0x0F) << 12;
 446              		.loc 1 656 14 is_stmt 1 view .LVU142
 656:Middlewares/lvgl/src/misc/lv_txt.c ****             result = (uint32_t)(txt[*i] & 0x0F) << 12;
 447              		.loc 1 656 16 is_stmt 0 view .LVU143
 448 0038 00F0F002 		and	r2, r0, #240
 449 003c E02A     		cmp	r2, #224
 450 003e 1BD0     		beq	.L44
 669:Middlewares/lvgl/src/misc/lv_txt.c ****             result = (uint32_t)(txt[*i] & 0x07) << 18;
 451              		.loc 1 669 14 is_stmt 1 view .LVU144
 669:Middlewares/lvgl/src/misc/lv_txt.c ****             result = (uint32_t)(txt[*i] & 0x07) << 18;
 452              		.loc 1 669 16 is_stmt 0 view .LVU145
ARM GAS  /tmp/ccWVSSdf.s 			page 26


 453 0040 00F0F802 		and	r2, r0, #248
 454 0044 F02A     		cmp	r2, #240
 455 0046 36D0     		beq	.L45
 686:Middlewares/lvgl/src/misc/lv_txt.c ****         }
 456              		.loc 1 686 13 is_stmt 1 view .LVU146
 686:Middlewares/lvgl/src/misc/lv_txt.c ****         }
 457              		.loc 1 686 17 is_stmt 0 view .LVU147
 458 0048 0133     		adds	r3, r3, #1
 459 004a CCF80030 		str	r3, [ip]
 634:Middlewares/lvgl/src/misc/lv_txt.c **** 
 460              		.loc 1 634 14 view .LVU148
 461 004e 0020     		movs	r0, #0
 462 0050 E8E7     		b	.L27
 463              	.L43:
 649:Middlewares/lvgl/src/misc/lv_txt.c ****             (*i)++;
 464              		.loc 1 649 13 is_stmt 1 view .LVU149
 649:Middlewares/lvgl/src/misc/lv_txt.c ****             (*i)++;
 465              		.loc 1 649 49 is_stmt 0 view .LVU150
 466 0052 8201     		lsls	r2, r0, #6
 649:Middlewares/lvgl/src/misc/lv_txt.c ****             (*i)++;
 467              		.loc 1 649 20 view .LVU151
 468 0054 02F4F862 		and	r2, r2, #1984
 469              	.LVL40:
 650:Middlewares/lvgl/src/misc/lv_txt.c ****             if((txt[*i] & 0xC0) != 0x80) return 0; /*Invalid UTF-8 code*/
 470              		.loc 1 650 13 is_stmt 1 view .LVU152
 650:Middlewares/lvgl/src/misc/lv_txt.c ****             if((txt[*i] & 0xC0) != 0x80) return 0; /*Invalid UTF-8 code*/
 471              		.loc 1 650 17 is_stmt 0 view .LVU153
 472 0058 0133     		adds	r3, r3, #1
 473 005a CCF80030 		str	r3, [ip]
 651:Middlewares/lvgl/src/misc/lv_txt.c ****             result += (txt[*i] & 0x3F);
 474              		.loc 1 651 13 is_stmt 1 view .LVU154
 651:Middlewares/lvgl/src/misc/lv_txt.c ****             result += (txt[*i] & 0x3F);
 475              		.loc 1 651 20 is_stmt 0 view .LVU155
 476 005e 1EF80300 		ldrb	r0, [lr, r3]	@ zero_extendqisi2
 651:Middlewares/lvgl/src/misc/lv_txt.c ****             result += (txt[*i] & 0x3F);
 477              		.loc 1 651 15 view .LVU156
 478 0062 00F0C001 		and	r1, r0, #192
 479 0066 8029     		cmp	r1, #128
 480 0068 52D1     		bne	.L35
 652:Middlewares/lvgl/src/misc/lv_txt.c ****             (*i)++;
 481              		.loc 1 652 13 is_stmt 1 view .LVU157
 652:Middlewares/lvgl/src/misc/lv_txt.c ****             (*i)++;
 482              		.loc 1 652 32 is_stmt 0 view .LVU158
 483 006a 00F03F00 		and	r0, r0, #63
 652:Middlewares/lvgl/src/misc/lv_txt.c ****             (*i)++;
 484              		.loc 1 652 20 view .LVU159
 485 006e 1044     		add	r0, r0, r2
 486              	.LVL41:
 653:Middlewares/lvgl/src/misc/lv_txt.c ****         }
 487              		.loc 1 653 13 is_stmt 1 view .LVU160
 653:Middlewares/lvgl/src/misc/lv_txt.c ****         }
 488              		.loc 1 653 17 is_stmt 0 view .LVU161
 489 0070 0133     		adds	r3, r3, #1
 490 0072 CCF80030 		str	r3, [ip]
 491 0076 D5E7     		b	.L27
 492              	.LVL42:
 493              	.L44:
ARM GAS  /tmp/ccWVSSdf.s 			page 27


 657:Middlewares/lvgl/src/misc/lv_txt.c ****             (*i)++;
 494              		.loc 1 657 13 is_stmt 1 view .LVU162
 657:Middlewares/lvgl/src/misc/lv_txt.c ****             (*i)++;
 495              		.loc 1 657 49 is_stmt 0 view .LVU163
 496 0078 0203     		lsls	r2, r0, #12
 657:Middlewares/lvgl/src/misc/lv_txt.c ****             (*i)++;
 497              		.loc 1 657 20 view .LVU164
 498 007a 92B2     		uxth	r2, r2
 499              	.LVL43:
 658:Middlewares/lvgl/src/misc/lv_txt.c **** 
 500              		.loc 1 658 13 is_stmt 1 view .LVU165
 658:Middlewares/lvgl/src/misc/lv_txt.c **** 
 501              		.loc 1 658 17 is_stmt 0 view .LVU166
 502 007c 0133     		adds	r3, r3, #1
 503 007e CCF80030 		str	r3, [ip]
 660:Middlewares/lvgl/src/misc/lv_txt.c ****             result += (uint32_t)(txt[*i] & 0x3F) << 6;
 504              		.loc 1 660 13 is_stmt 1 view .LVU167
 660:Middlewares/lvgl/src/misc/lv_txt.c ****             result += (uint32_t)(txt[*i] & 0x3F) << 6;
 505              		.loc 1 660 20 is_stmt 0 view .LVU168
 506 0082 1EF80310 		ldrb	r1, [lr, r3]	@ zero_extendqisi2
 660:Middlewares/lvgl/src/misc/lv_txt.c ****             result += (uint32_t)(txt[*i] & 0x3F) << 6;
 507              		.loc 1 660 15 view .LVU169
 508 0086 01F0C000 		and	r0, r1, #192
 509 008a 8028     		cmp	r0, #128
 510 008c 42D1     		bne	.L36
 661:Middlewares/lvgl/src/misc/lv_txt.c ****             (*i)++;
 511              		.loc 1 661 13 is_stmt 1 view .LVU170
 661:Middlewares/lvgl/src/misc/lv_txt.c ****             (*i)++;
 512              		.loc 1 661 50 is_stmt 0 view .LVU171
 513 008e 8901     		lsls	r1, r1, #6
 514 0090 01F47C60 		and	r0, r1, #4032
 661:Middlewares/lvgl/src/misc/lv_txt.c ****             (*i)++;
 515              		.loc 1 661 20 view .LVU172
 516 0094 0244     		add	r2, r2, r0
 517              	.LVL44:
 662:Middlewares/lvgl/src/misc/lv_txt.c **** 
 518              		.loc 1 662 13 is_stmt 1 view .LVU173
 662:Middlewares/lvgl/src/misc/lv_txt.c **** 
 519              		.loc 1 662 17 is_stmt 0 view .LVU174
 520 0096 0133     		adds	r3, r3, #1
 521 0098 CCF80030 		str	r3, [ip]
 664:Middlewares/lvgl/src/misc/lv_txt.c ****             result += (txt[*i] & 0x3F);
 522              		.loc 1 664 13 is_stmt 1 view .LVU175
 664:Middlewares/lvgl/src/misc/lv_txt.c ****             result += (txt[*i] & 0x3F);
 523              		.loc 1 664 20 is_stmt 0 view .LVU176
 524 009c 1EF80310 		ldrb	r1, [lr, r3]	@ zero_extendqisi2
 664:Middlewares/lvgl/src/misc/lv_txt.c ****             result += (txt[*i] & 0x3F);
 525              		.loc 1 664 15 view .LVU177
 526 00a0 01F0C000 		and	r0, r1, #192
 527 00a4 8028     		cmp	r0, #128
 528 00a6 37D1     		bne	.L37
 665:Middlewares/lvgl/src/misc/lv_txt.c ****             (*i)++;
 529              		.loc 1 665 13 is_stmt 1 view .LVU178
 665:Middlewares/lvgl/src/misc/lv_txt.c ****             (*i)++;
 530              		.loc 1 665 32 is_stmt 0 view .LVU179
 531 00a8 01F03F00 		and	r0, r1, #63
 665:Middlewares/lvgl/src/misc/lv_txt.c ****             (*i)++;
ARM GAS  /tmp/ccWVSSdf.s 			page 28


 532              		.loc 1 665 20 view .LVU180
 533 00ac 1044     		add	r0, r0, r2
 534              	.LVL45:
 666:Middlewares/lvgl/src/misc/lv_txt.c ****         }
 535              		.loc 1 666 13 is_stmt 1 view .LVU181
 666:Middlewares/lvgl/src/misc/lv_txt.c ****         }
 536              		.loc 1 666 17 is_stmt 0 view .LVU182
 537 00ae 0133     		adds	r3, r3, #1
 538 00b0 CCF80030 		str	r3, [ip]
 539 00b4 B6E7     		b	.L27
 540              	.LVL46:
 541              	.L45:
 670:Middlewares/lvgl/src/misc/lv_txt.c ****             (*i)++;
 542              		.loc 1 670 13 is_stmt 1 view .LVU183
 670:Middlewares/lvgl/src/misc/lv_txt.c ****             (*i)++;
 543              		.loc 1 670 49 is_stmt 0 view .LVU184
 544 00b6 8204     		lsls	r2, r0, #18
 670:Middlewares/lvgl/src/misc/lv_txt.c ****             (*i)++;
 545              		.loc 1 670 20 view .LVU185
 546 00b8 02F4E012 		and	r2, r2, #1835008
 547              	.LVL47:
 671:Middlewares/lvgl/src/misc/lv_txt.c **** 
 548              		.loc 1 671 13 is_stmt 1 view .LVU186
 671:Middlewares/lvgl/src/misc/lv_txt.c **** 
 549              		.loc 1 671 17 is_stmt 0 view .LVU187
 550 00bc 0133     		adds	r3, r3, #1
 551 00be CCF80030 		str	r3, [ip]
 673:Middlewares/lvgl/src/misc/lv_txt.c ****             result += (uint32_t)(txt[*i] & 0x3F) << 12;
 552              		.loc 1 673 13 is_stmt 1 view .LVU188
 673:Middlewares/lvgl/src/misc/lv_txt.c ****             result += (uint32_t)(txt[*i] & 0x3F) << 12;
 553              		.loc 1 673 20 is_stmt 0 view .LVU189
 554 00c2 1EF80310 		ldrb	r1, [lr, r3]	@ zero_extendqisi2
 673:Middlewares/lvgl/src/misc/lv_txt.c ****             result += (uint32_t)(txt[*i] & 0x3F) << 12;
 555              		.loc 1 673 15 view .LVU190
 556 00c6 01F0C000 		and	r0, r1, #192
 557 00ca 8028     		cmp	r0, #128
 558 00cc 26D1     		bne	.L38
 674:Middlewares/lvgl/src/misc/lv_txt.c ****             (*i)++;
 559              		.loc 1 674 13 is_stmt 1 view .LVU191
 674:Middlewares/lvgl/src/misc/lv_txt.c ****             (*i)++;
 560              		.loc 1 674 50 is_stmt 0 view .LVU192
 561 00ce 0903     		lsls	r1, r1, #12
 562 00d0 01F47C31 		and	r1, r1, #258048
 674:Middlewares/lvgl/src/misc/lv_txt.c ****             (*i)++;
 563              		.loc 1 674 20 view .LVU193
 564 00d4 0A43     		orrs	r2, r2, r1
 565              	.LVL48:
 675:Middlewares/lvgl/src/misc/lv_txt.c **** 
 566              		.loc 1 675 13 is_stmt 1 view .LVU194
 675:Middlewares/lvgl/src/misc/lv_txt.c **** 
 567              		.loc 1 675 17 is_stmt 0 view .LVU195
 568 00d6 0133     		adds	r3, r3, #1
 569 00d8 CCF80030 		str	r3, [ip]
 677:Middlewares/lvgl/src/misc/lv_txt.c ****             result += (uint32_t)(txt[*i] & 0x3F) << 6;
 570              		.loc 1 677 13 is_stmt 1 view .LVU196
 677:Middlewares/lvgl/src/misc/lv_txt.c ****             result += (uint32_t)(txt[*i] & 0x3F) << 6;
 571              		.loc 1 677 20 is_stmt 0 view .LVU197
ARM GAS  /tmp/ccWVSSdf.s 			page 29


 572 00dc 1EF80310 		ldrb	r1, [lr, r3]	@ zero_extendqisi2
 677:Middlewares/lvgl/src/misc/lv_txt.c ****             result += (uint32_t)(txt[*i] & 0x3F) << 6;
 573              		.loc 1 677 15 view .LVU198
 574 00e0 01F0C000 		and	r0, r1, #192
 575 00e4 8028     		cmp	r0, #128
 576 00e6 1BD1     		bne	.L39
 678:Middlewares/lvgl/src/misc/lv_txt.c ****             (*i)++;
 577              		.loc 1 678 13 is_stmt 1 view .LVU199
 678:Middlewares/lvgl/src/misc/lv_txt.c ****             (*i)++;
 578              		.loc 1 678 50 is_stmt 0 view .LVU200
 579 00e8 8901     		lsls	r1, r1, #6
 580 00ea 01F47C61 		and	r1, r1, #4032
 678:Middlewares/lvgl/src/misc/lv_txt.c ****             (*i)++;
 581              		.loc 1 678 20 view .LVU201
 582 00ee 1144     		add	r1, r1, r2
 583              	.LVL49:
 679:Middlewares/lvgl/src/misc/lv_txt.c **** 
 584              		.loc 1 679 13 is_stmt 1 view .LVU202
 679:Middlewares/lvgl/src/misc/lv_txt.c **** 
 585              		.loc 1 679 17 is_stmt 0 view .LVU203
 586 00f0 5A1C     		adds	r2, r3, #1
 587 00f2 CCF80020 		str	r2, [ip]
 681:Middlewares/lvgl/src/misc/lv_txt.c ****             result += txt[*i] & 0x3F;
 588              		.loc 1 681 13 is_stmt 1 view .LVU204
 681:Middlewares/lvgl/src/misc/lv_txt.c ****             result += txt[*i] & 0x3F;
 589              		.loc 1 681 20 is_stmt 0 view .LVU205
 590 00f6 1EF80230 		ldrb	r3, [lr, r2]	@ zero_extendqisi2
 681:Middlewares/lvgl/src/misc/lv_txt.c ****             result += txt[*i] & 0x3F;
 591              		.loc 1 681 15 view .LVU206
 592 00fa 03F0C000 		and	r0, r3, #192
 593 00fe 8028     		cmp	r0, #128
 594 0100 10D1     		bne	.L40
 682:Middlewares/lvgl/src/misc/lv_txt.c ****             (*i)++;
 595              		.loc 1 682 13 is_stmt 1 view .LVU207
 682:Middlewares/lvgl/src/misc/lv_txt.c ****             (*i)++;
 596              		.loc 1 682 31 is_stmt 0 view .LVU208
 597 0102 03F03F00 		and	r0, r3, #63
 682:Middlewares/lvgl/src/misc/lv_txt.c ****             (*i)++;
 598              		.loc 1 682 20 view .LVU209
 599 0106 0844     		add	r0, r0, r1
 600              	.LVL50:
 683:Middlewares/lvgl/src/misc/lv_txt.c ****         }
 601              		.loc 1 683 13 is_stmt 1 view .LVU210
 683:Middlewares/lvgl/src/misc/lv_txt.c ****         }
 602              		.loc 1 683 17 is_stmt 0 view .LVU211
 603 0108 0132     		adds	r2, r2, #1
 604 010a CCF80020 		str	r2, [ip]
 605 010e 89E7     		b	.L27
 606              	.LVL51:
 607              	.L35:
 651:Middlewares/lvgl/src/misc/lv_txt.c ****             result += (txt[*i] & 0x3F);
 608              		.loc 1 651 49 view .LVU212
 609 0110 0020     		movs	r0, #0
 610 0112 87E7     		b	.L27
 611              	.L36:
 660:Middlewares/lvgl/src/misc/lv_txt.c ****             result += (uint32_t)(txt[*i] & 0x3F) << 6;
 612              		.loc 1 660 49 view .LVU213
ARM GAS  /tmp/ccWVSSdf.s 			page 30


 613 0114 0020     		movs	r0, #0
 614 0116 85E7     		b	.L27
 615              	.L37:
 664:Middlewares/lvgl/src/misc/lv_txt.c ****             result += (txt[*i] & 0x3F);
 616              		.loc 1 664 49 view .LVU214
 617 0118 0020     		movs	r0, #0
 618 011a 83E7     		b	.L27
 619              	.L38:
 673:Middlewares/lvgl/src/misc/lv_txt.c ****             result += (uint32_t)(txt[*i] & 0x3F) << 12;
 620              		.loc 1 673 49 view .LVU215
 621 011c 0020     		movs	r0, #0
 622 011e 81E7     		b	.L27
 623              	.L39:
 677:Middlewares/lvgl/src/misc/lv_txt.c ****             result += (uint32_t)(txt[*i] & 0x3F) << 6;
 624              		.loc 1 677 49 view .LVU216
 625 0120 0020     		movs	r0, #0
 626 0122 7FE7     		b	.L27
 627              	.LVL52:
 628              	.L40:
 681:Middlewares/lvgl/src/misc/lv_txt.c ****             result += txt[*i] & 0x3F;
 629              		.loc 1 681 49 view .LVU217
 630 0124 0020     		movs	r0, #0
 631              	.LVL53:
 681:Middlewares/lvgl/src/misc/lv_txt.c ****             result += txt[*i] & 0x3F;
 632              		.loc 1 681 49 view .LVU218
 633 0126 7DE7     		b	.L27
 634              		.cfi_endproc
 635              	.LFE60:
 637              		.section	.text.lv_txt_utf8_prev,"ax",%progbits
 638              		.align	1
 639              		.syntax unified
 640              		.thumb
 641              		.thumb_func
 643              	lv_txt_utf8_prev:
 644              	.LVL54:
 645              	.LFB61:
 691:Middlewares/lvgl/src/misc/lv_txt.c **** 
 692:Middlewares/lvgl/src/misc/lv_txt.c **** /**
 693:Middlewares/lvgl/src/misc/lv_txt.c ****  * Get previous UTF-8 character form a string.
 694:Middlewares/lvgl/src/misc/lv_txt.c ****  * @param txt pointer to '\0' terminated string
 695:Middlewares/lvgl/src/misc/lv_txt.c ****  * @param i start byte index in 'txt' where to start. After the call it will point to the previous
 696:Middlewares/lvgl/src/misc/lv_txt.c ****  * UTF-8 char in 'txt'.
 697:Middlewares/lvgl/src/misc/lv_txt.c ****  * @return the decoded Unicode character or 0 on invalid UTF-8 code
 698:Middlewares/lvgl/src/misc/lv_txt.c ****  */
 699:Middlewares/lvgl/src/misc/lv_txt.c **** static uint32_t lv_txt_utf8_prev(const char * txt, uint32_t * i)
 700:Middlewares/lvgl/src/misc/lv_txt.c **** {
 646              		.loc 1 700 1 is_stmt 1 view -0
 647              		.cfi_startproc
 648              		@ args = 0, pretend = 0, frame = 8
 649              		@ frame_needed = 0, uses_anonymous_args = 0
 650              		.loc 1 700 1 is_stmt 0 view .LVU220
 651 0000 70B5     		push	{r4, r5, r6, lr}
 652              	.LCFI11:
 653              		.cfi_def_cfa_offset 16
 654              		.cfi_offset 4, -16
 655              		.cfi_offset 5, -12
 656              		.cfi_offset 6, -8
ARM GAS  /tmp/ccWVSSdf.s 			page 31


 657              		.cfi_offset 14, -4
 658 0002 82B0     		sub	sp, sp, #8
 659              	.LCFI12:
 660              		.cfi_def_cfa_offset 24
 661 0004 0646     		mov	r6, r0
 662 0006 0D46     		mov	r5, r1
 701:Middlewares/lvgl/src/misc/lv_txt.c ****     uint8_t c_size;
 663              		.loc 1 701 5 is_stmt 1 view .LVU221
 702:Middlewares/lvgl/src/misc/lv_txt.c ****     uint8_t cnt = 0;
 664              		.loc 1 702 5 view .LVU222
 665              	.LVL55:
 703:Middlewares/lvgl/src/misc/lv_txt.c **** 
 704:Middlewares/lvgl/src/misc/lv_txt.c ****     /*Try to find a !0 long UTF-8 char by stepping one character back*/
 705:Middlewares/lvgl/src/misc/lv_txt.c ****     (*i)--;
 666              		.loc 1 705 5 view .LVU223
 667              		.loc 1 705 6 is_stmt 0 view .LVU224
 668 0008 0B68     		ldr	r3, [r1]
 669              		.loc 1 705 9 view .LVU225
 670 000a 013B     		subs	r3, r3, #1
 671 000c 0B60     		str	r3, [r1]
 702:Middlewares/lvgl/src/misc/lv_txt.c ****     uint8_t cnt = 0;
 672              		.loc 1 702 13 view .LVU226
 673 000e 0024     		movs	r4, #0
 674 0010 04E0     		b	.L49
 675              	.LVL56:
 676              	.L53:
 706:Middlewares/lvgl/src/misc/lv_txt.c ****     do {
 707:Middlewares/lvgl/src/misc/lv_txt.c ****         if(cnt >= 4) return 0; /*No UTF-8 char found before the initial*/
 708:Middlewares/lvgl/src/misc/lv_txt.c **** 
 709:Middlewares/lvgl/src/misc/lv_txt.c ****         c_size = _lv_txt_encoded_size(&txt[*i]);
 710:Middlewares/lvgl/src/misc/lv_txt.c ****         if(c_size == 0) {
 711:Middlewares/lvgl/src/misc/lv_txt.c ****             if(*i != 0)
 712:Middlewares/lvgl/src/misc/lv_txt.c ****                 (*i)--;
 677              		.loc 1 712 17 is_stmt 1 view .LVU227
 678              		.loc 1 712 21 is_stmt 0 view .LVU228
 679 0012 0138     		subs	r0, r0, #1
 680 0014 2860     		str	r0, [r5]
 681              	.L48:
 713:Middlewares/lvgl/src/misc/lv_txt.c ****             else
 714:Middlewares/lvgl/src/misc/lv_txt.c ****                 return 0;
 715:Middlewares/lvgl/src/misc/lv_txt.c ****         }
 716:Middlewares/lvgl/src/misc/lv_txt.c ****         cnt++;
 682              		.loc 1 716 9 is_stmt 1 view .LVU229
 683              		.loc 1 716 12 is_stmt 0 view .LVU230
 684 0016 0134     		adds	r4, r4, #1
 685              	.LVL57:
 686              		.loc 1 716 12 view .LVU231
 687 0018 E4B2     		uxtb	r4, r4
 688              	.LVL58:
 717:Middlewares/lvgl/src/misc/lv_txt.c ****     } while(c_size == 0);
 689              		.loc 1 717 12 is_stmt 1 view .LVU232
 690              		.loc 1 717 5 is_stmt 0 view .LVU233
 691 001a 6BB9     		cbnz	r3, .L52
 692              	.LVL59:
 693              	.L49:
 706:Middlewares/lvgl/src/misc/lv_txt.c ****     do {
 694              		.loc 1 706 5 is_stmt 1 view .LVU234
ARM GAS  /tmp/ccWVSSdf.s 			page 32


 707:Middlewares/lvgl/src/misc/lv_txt.c **** 
 695              		.loc 1 707 9 view .LVU235
 707:Middlewares/lvgl/src/misc/lv_txt.c **** 
 696              		.loc 1 707 11 is_stmt 0 view .LVU236
 697 001c 032C     		cmp	r4, #3
 698 001e 13D8     		bhi	.L50
 709:Middlewares/lvgl/src/misc/lv_txt.c ****         if(c_size == 0) {
 699              		.loc 1 709 9 is_stmt 1 view .LVU237
 709:Middlewares/lvgl/src/misc/lv_txt.c ****         if(c_size == 0) {
 700              		.loc 1 709 44 is_stmt 0 view .LVU238
 701 0020 2868     		ldr	r0, [r5]
 709:Middlewares/lvgl/src/misc/lv_txt.c ****         if(c_size == 0) {
 702              		.loc 1 709 18 view .LVU239
 703 0022 0B4B     		ldr	r3, .L54
 704 0024 1B68     		ldr	r3, [r3]
 705 0026 3044     		add	r0, r0, r6
 706 0028 9847     		blx	r3
 707              	.LVL60:
 710:Middlewares/lvgl/src/misc/lv_txt.c ****             if(*i != 0)
 708              		.loc 1 710 9 is_stmt 1 view .LVU240
 710:Middlewares/lvgl/src/misc/lv_txt.c ****             if(*i != 0)
 709              		.loc 1 710 11 is_stmt 0 view .LVU241
 710 002a 0346     		mov	r3, r0
 711 002c 0028     		cmp	r0, #0
 712 002e F2D1     		bne	.L48
 711:Middlewares/lvgl/src/misc/lv_txt.c ****                 (*i)--;
 713              		.loc 1 711 13 is_stmt 1 view .LVU242
 711:Middlewares/lvgl/src/misc/lv_txt.c ****                 (*i)--;
 714              		.loc 1 711 16 is_stmt 0 view .LVU243
 715 0030 2868     		ldr	r0, [r5]
 716              	.LVL61:
 711:Middlewares/lvgl/src/misc/lv_txt.c ****                 (*i)--;
 717              		.loc 1 711 15 view .LVU244
 718 0032 0028     		cmp	r0, #0
 719 0034 EDD1     		bne	.L53
 720 0036 08E0     		b	.L46
 721              	.L52:
 718:Middlewares/lvgl/src/misc/lv_txt.c **** 
 719:Middlewares/lvgl/src/misc/lv_txt.c ****     uint32_t i_tmp  = *i;
 722              		.loc 1 719 5 is_stmt 1 view .LVU245
 723              		.loc 1 719 23 is_stmt 0 view .LVU246
 724 0038 2B68     		ldr	r3, [r5]
 725              		.loc 1 719 14 view .LVU247
 726 003a 0193     		str	r3, [sp, #4]
 720:Middlewares/lvgl/src/misc/lv_txt.c ****     uint32_t letter = _lv_txt_encoded_next(txt, &i_tmp); /*Character found, get it*/
 727              		.loc 1 720 5 is_stmt 1 view .LVU248
 728              		.loc 1 720 23 is_stmt 0 view .LVU249
 729 003c 054B     		ldr	r3, .L54+4
 730 003e 1B68     		ldr	r3, [r3]
 731 0040 01A9     		add	r1, sp, #4
 732 0042 3046     		mov	r0, r6
 733 0044 9847     		blx	r3
 734              	.LVL62:
 721:Middlewares/lvgl/src/misc/lv_txt.c **** 
 722:Middlewares/lvgl/src/misc/lv_txt.c ****     return letter;
 735              		.loc 1 722 5 is_stmt 1 view .LVU250
 736              		.loc 1 722 12 is_stmt 0 view .LVU251
ARM GAS  /tmp/ccWVSSdf.s 			page 33


 737 0046 00E0     		b	.L46
 738              	.LVL63:
 739              	.L50:
 707:Middlewares/lvgl/src/misc/lv_txt.c **** 
 740              		.loc 1 707 29 view .LVU252
 741 0048 0020     		movs	r0, #0
 742              	.L46:
 723:Middlewares/lvgl/src/misc/lv_txt.c **** }
 743              		.loc 1 723 1 view .LVU253
 744 004a 02B0     		add	sp, sp, #8
 745              	.LCFI13:
 746              		.cfi_def_cfa_offset 16
 747              		@ sp needed
 748 004c 70BD     		pop	{r4, r5, r6, pc}
 749              	.LVL64:
 750              	.L55:
 751              		.loc 1 723 1 view .LVU254
 752 004e 00BF     		.align	2
 753              	.L54:
 754 0050 00000000 		.word	.LANCHOR0
 755 0054 00000000 		.word	.LANCHOR1
 756              		.cfi_endproc
 757              	.LFE61:
 759              		.section	.text.lv_txt_utf8_get_byte_id,"ax",%progbits
 760              		.align	1
 761              		.syntax unified
 762              		.thumb
 763              		.thumb_func
 765              	lv_txt_utf8_get_byte_id:
 766              	.LVL65:
 767              	.LFB62:
 724:Middlewares/lvgl/src/misc/lv_txt.c **** 
 725:Middlewares/lvgl/src/misc/lv_txt.c **** /**
 726:Middlewares/lvgl/src/misc/lv_txt.c ****  * Convert a character index (in an UTF-8 text) to byte index.
 727:Middlewares/lvgl/src/misc/lv_txt.c ****  * E.g. in "AÁRT" index of 'R' is 2th char but start at byte 3 because 'Á' is 2 bytes long
 728:Middlewares/lvgl/src/misc/lv_txt.c ****  * @param txt a '\0' terminated UTF-8 string
 729:Middlewares/lvgl/src/misc/lv_txt.c ****  * @param utf8_id character index
 730:Middlewares/lvgl/src/misc/lv_txt.c ****  * @return byte index of the 'utf8_id'th letter
 731:Middlewares/lvgl/src/misc/lv_txt.c ****  */
 732:Middlewares/lvgl/src/misc/lv_txt.c **** static uint32_t lv_txt_utf8_get_byte_id(const char * txt, uint32_t utf8_id)
 733:Middlewares/lvgl/src/misc/lv_txt.c **** {
 768              		.loc 1 733 1 is_stmt 1 view -0
 769              		.cfi_startproc
 770              		@ args = 0, pretend = 0, frame = 0
 771              		@ frame_needed = 0, uses_anonymous_args = 0
 772              		.loc 1 733 1 is_stmt 0 view .LVU256
 773 0000 F8B5     		push	{r3, r4, r5, r6, r7, lr}
 774              	.LCFI14:
 775              		.cfi_def_cfa_offset 24
 776              		.cfi_offset 3, -24
 777              		.cfi_offset 4, -20
 778              		.cfi_offset 5, -16
 779              		.cfi_offset 6, -12
 780              		.cfi_offset 7, -8
 781              		.cfi_offset 14, -4
 782 0002 0646     		mov	r6, r0
 783 0004 0F46     		mov	r7, r1
ARM GAS  /tmp/ccWVSSdf.s 			page 34


 734:Middlewares/lvgl/src/misc/lv_txt.c ****     uint32_t i;
 784              		.loc 1 734 5 is_stmt 1 view .LVU257
 735:Middlewares/lvgl/src/misc/lv_txt.c ****     uint32_t byte_cnt = 0;
 785              		.loc 1 735 5 view .LVU258
 786              	.LVL66:
 736:Middlewares/lvgl/src/misc/lv_txt.c ****     for(i = 0; i < utf8_id && txt[byte_cnt] != '\0'; i++) {
 787              		.loc 1 736 5 view .LVU259
 735:Middlewares/lvgl/src/misc/lv_txt.c ****     uint32_t byte_cnt = 0;
 788              		.loc 1 735 14 is_stmt 0 view .LVU260
 789 0006 0024     		movs	r4, #0
 790              		.loc 1 736 11 view .LVU261
 791 0008 2546     		mov	r5, r4
 792              		.loc 1 736 5 view .LVU262
 793 000a 01E0     		b	.L57
 794              	.LVL67:
 795              	.L58:
 796              	.LBB18:
 737:Middlewares/lvgl/src/misc/lv_txt.c ****         uint8_t c_size = _lv_txt_encoded_size(&txt[byte_cnt]);
 738:Middlewares/lvgl/src/misc/lv_txt.c ****         byte_cnt += c_size > 0 ? c_size : 1;
 797              		.loc 1 738 18 discriminator 4 view .LVU263
 798 000c 1C44     		add	r4, r4, r3
 799              	.LVL68:
 800              		.loc 1 738 18 discriminator 4 view .LVU264
 801              	.LBE18:
 736:Middlewares/lvgl/src/misc/lv_txt.c ****     for(i = 0; i < utf8_id && txt[byte_cnt] != '\0'; i++) {
 802              		.loc 1 736 54 is_stmt 1 discriminator 4 view .LVU265
 736:Middlewares/lvgl/src/misc/lv_txt.c ****     for(i = 0; i < utf8_id && txt[byte_cnt] != '\0'; i++) {
 803              		.loc 1 736 55 is_stmt 0 discriminator 4 view .LVU266
 804 000e 0135     		adds	r5, r5, #1
 805              	.LVL69:
 806              	.L57:
 736:Middlewares/lvgl/src/misc/lv_txt.c ****     for(i = 0; i < utf8_id && txt[byte_cnt] != '\0'; i++) {
 807              		.loc 1 736 16 is_stmt 1 discriminator 2 view .LVU267
 736:Middlewares/lvgl/src/misc/lv_txt.c ****     for(i = 0; i < utf8_id && txt[byte_cnt] != '\0'; i++) {
 808              		.loc 1 736 5 is_stmt 0 discriminator 2 view .LVU268
 809 0010 BD42     		cmp	r5, r7
 810 0012 0AD2     		bcs	.L56
 736:Middlewares/lvgl/src/misc/lv_txt.c ****     for(i = 0; i < utf8_id && txt[byte_cnt] != '\0'; i++) {
 811              		.loc 1 736 34 discriminator 3 view .LVU269
 812 0014 3019     		adds	r0, r6, r4
 813 0016 335D     		ldrb	r3, [r6, r4]	@ zero_extendqisi2
 736:Middlewares/lvgl/src/misc/lv_txt.c ****     for(i = 0; i < utf8_id && txt[byte_cnt] != '\0'; i++) {
 814              		.loc 1 736 28 discriminator 3 view .LVU270
 815 0018 3BB1     		cbz	r3, .L56
 816              	.LBB19:
 737:Middlewares/lvgl/src/misc/lv_txt.c ****         uint8_t c_size = _lv_txt_encoded_size(&txt[byte_cnt]);
 817              		.loc 1 737 9 is_stmt 1 view .LVU271
 737:Middlewares/lvgl/src/misc/lv_txt.c ****         uint8_t c_size = _lv_txt_encoded_size(&txt[byte_cnt]);
 818              		.loc 1 737 26 is_stmt 0 view .LVU272
 819 001a 054B     		ldr	r3, .L63
 820 001c 1B68     		ldr	r3, [r3]
 821 001e 9847     		blx	r3
 822              	.LVL70:
 823              		.loc 1 738 9 is_stmt 1 view .LVU273
 824              		.loc 1 738 41 is_stmt 0 view .LVU274
 825 0020 0346     		mov	r3, r0
 826 0022 0028     		cmp	r0, #0
ARM GAS  /tmp/ccWVSSdf.s 			page 35


 827 0024 F2D1     		bne	.L58
 828 0026 0123     		movs	r3, #1
 829 0028 F0E7     		b	.L58
 830              	.LVL71:
 831              	.L56:
 832              		.loc 1 738 41 view .LVU275
 833              	.LBE19:
 739:Middlewares/lvgl/src/misc/lv_txt.c ****     }
 740:Middlewares/lvgl/src/misc/lv_txt.c **** 
 741:Middlewares/lvgl/src/misc/lv_txt.c ****     return byte_cnt;
 742:Middlewares/lvgl/src/misc/lv_txt.c **** }
 834              		.loc 1 742 1 view .LVU276
 835 002a 2046     		mov	r0, r4
 836 002c F8BD     		pop	{r3, r4, r5, r6, r7, pc}
 837              	.LVL72:
 838              	.L64:
 839              		.loc 1 742 1 view .LVU277
 840 002e 00BF     		.align	2
 841              	.L63:
 842 0030 00000000 		.word	.LANCHOR0
 843              		.cfi_endproc
 844              	.LFE62:
 846              		.section	.text.lv_txt_utf8_get_char_id,"ax",%progbits
 847              		.align	1
 848              		.syntax unified
 849              		.thumb
 850              		.thumb_func
 852              	lv_txt_utf8_get_char_id:
 853              	.LVL73:
 854              	.LFB63:
 743:Middlewares/lvgl/src/misc/lv_txt.c **** 
 744:Middlewares/lvgl/src/misc/lv_txt.c **** /**
 745:Middlewares/lvgl/src/misc/lv_txt.c ****  * Convert a byte index (in an UTF-8 text) to character index.
 746:Middlewares/lvgl/src/misc/lv_txt.c ****  * E.g. in "AÁRT" index of 'R' is 2th char but start at byte 3 because 'Á' is 2 bytes long
 747:Middlewares/lvgl/src/misc/lv_txt.c ****  * @param txt a '\0' terminated UTF-8 string
 748:Middlewares/lvgl/src/misc/lv_txt.c ****  * @param byte_id byte index
 749:Middlewares/lvgl/src/misc/lv_txt.c ****  * @return character index of the letter at 'byte_id'th position
 750:Middlewares/lvgl/src/misc/lv_txt.c ****  */
 751:Middlewares/lvgl/src/misc/lv_txt.c **** static uint32_t lv_txt_utf8_get_char_id(const char * txt, uint32_t byte_id)
 752:Middlewares/lvgl/src/misc/lv_txt.c **** {
 855              		.loc 1 752 1 is_stmt 1 view -0
 856              		.cfi_startproc
 857              		@ args = 0, pretend = 0, frame = 8
 858              		@ frame_needed = 0, uses_anonymous_args = 0
 859              		.loc 1 752 1 is_stmt 0 view .LVU279
 860 0000 70B5     		push	{r4, r5, r6, lr}
 861              	.LCFI15:
 862              		.cfi_def_cfa_offset 16
 863              		.cfi_offset 4, -16
 864              		.cfi_offset 5, -12
 865              		.cfi_offset 6, -8
 866              		.cfi_offset 14, -4
 867 0002 82B0     		sub	sp, sp, #8
 868              	.LCFI16:
 869              		.cfi_def_cfa_offset 24
 870 0004 0646     		mov	r6, r0
 871 0006 0D46     		mov	r5, r1
ARM GAS  /tmp/ccWVSSdf.s 			page 36


 753:Middlewares/lvgl/src/misc/lv_txt.c ****     uint32_t i        = 0;
 872              		.loc 1 753 5 is_stmt 1 view .LVU280
 873              		.loc 1 753 14 is_stmt 0 view .LVU281
 874 0008 0024     		movs	r4, #0
 875 000a 0194     		str	r4, [sp, #4]
 754:Middlewares/lvgl/src/misc/lv_txt.c ****     uint32_t char_cnt = 0;
 876              		.loc 1 754 5 is_stmt 1 view .LVU282
 877              	.LVL74:
 755:Middlewares/lvgl/src/misc/lv_txt.c **** 
 756:Middlewares/lvgl/src/misc/lv_txt.c ****     while(i < byte_id) {
 878              		.loc 1 756 5 view .LVU283
 879              		.loc 1 756 10 is_stmt 0 view .LVU284
 880 000c 05E0     		b	.L66
 881              	.LVL75:
 882              	.L67:
 757:Middlewares/lvgl/src/misc/lv_txt.c ****         _lv_txt_encoded_next(txt, &i); /*'i' points to the next letter so use the prev. value*/
 883              		.loc 1 757 9 is_stmt 1 view .LVU285
 884 000e 064B     		ldr	r3, .L69
 885 0010 1B68     		ldr	r3, [r3]
 886 0012 01A9     		add	r1, sp, #4
 887 0014 3046     		mov	r0, r6
 888 0016 9847     		blx	r3
 889              	.LVL76:
 758:Middlewares/lvgl/src/misc/lv_txt.c ****         char_cnt++;
 890              		.loc 1 758 9 view .LVU286
 891              		.loc 1 758 17 is_stmt 0 view .LVU287
 892 0018 0134     		adds	r4, r4, #1
 893              	.LVL77:
 894              	.L66:
 756:Middlewares/lvgl/src/misc/lv_txt.c ****         _lv_txt_encoded_next(txt, &i); /*'i' points to the next letter so use the prev. value*/
 895              		.loc 1 756 10 is_stmt 1 view .LVU288
 756:Middlewares/lvgl/src/misc/lv_txt.c ****         _lv_txt_encoded_next(txt, &i); /*'i' points to the next letter so use the prev. value*/
 896              		.loc 1 756 13 is_stmt 0 view .LVU289
 897 001a 019B     		ldr	r3, [sp, #4]
 756:Middlewares/lvgl/src/misc/lv_txt.c ****         _lv_txt_encoded_next(txt, &i); /*'i' points to the next letter so use the prev. value*/
 898              		.loc 1 756 10 view .LVU290
 899 001c AB42     		cmp	r3, r5
 900 001e F6D3     		bcc	.L67
 759:Middlewares/lvgl/src/misc/lv_txt.c ****     }
 760:Middlewares/lvgl/src/misc/lv_txt.c **** 
 761:Middlewares/lvgl/src/misc/lv_txt.c ****     return char_cnt;
 901              		.loc 1 761 5 is_stmt 1 view .LVU291
 762:Middlewares/lvgl/src/misc/lv_txt.c **** }
 902              		.loc 1 762 1 is_stmt 0 view .LVU292
 903 0020 2046     		mov	r0, r4
 904 0022 02B0     		add	sp, sp, #8
 905              	.LCFI17:
 906              		.cfi_def_cfa_offset 16
 907              		@ sp needed
 908 0024 70BD     		pop	{r4, r5, r6, pc}
 909              	.LVL78:
 910              	.L70:
 911              		.loc 1 762 1 view .LVU293
 912 0026 00BF     		.align	2
 913              	.L69:
 914 0028 00000000 		.word	.LANCHOR1
 915              		.cfi_endproc
ARM GAS  /tmp/ccWVSSdf.s 			page 37


 916              	.LFE63:
 918              		.section	.text.lv_txt_utf8_get_length,"ax",%progbits
 919              		.align	1
 920              		.syntax unified
 921              		.thumb
 922              		.thumb_func
 924              	lv_txt_utf8_get_length:
 925              	.LVL79:
 926              	.LFB64:
 763:Middlewares/lvgl/src/misc/lv_txt.c **** 
 764:Middlewares/lvgl/src/misc/lv_txt.c **** /**
 765:Middlewares/lvgl/src/misc/lv_txt.c ****  * Get the number of characters (and NOT bytes) in a string. Decode it with UTF-8 if enabled.
 766:Middlewares/lvgl/src/misc/lv_txt.c ****  * E.g.: "ÁBC" is 3 characters (but 4 bytes)
 767:Middlewares/lvgl/src/misc/lv_txt.c ****  * @param txt a '\0' terminated char string
 768:Middlewares/lvgl/src/misc/lv_txt.c ****  * @return number of characters
 769:Middlewares/lvgl/src/misc/lv_txt.c ****  */
 770:Middlewares/lvgl/src/misc/lv_txt.c **** static uint32_t lv_txt_utf8_get_length(const char * txt)
 771:Middlewares/lvgl/src/misc/lv_txt.c **** {
 927              		.loc 1 771 1 is_stmt 1 view -0
 928              		.cfi_startproc
 929              		@ args = 0, pretend = 0, frame = 8
 930              		@ frame_needed = 0, uses_anonymous_args = 0
 931              		.loc 1 771 1 is_stmt 0 view .LVU295
 932 0000 30B5     		push	{r4, r5, lr}
 933              	.LCFI18:
 934              		.cfi_def_cfa_offset 12
 935              		.cfi_offset 4, -12
 936              		.cfi_offset 5, -8
 937              		.cfi_offset 14, -4
 938 0002 83B0     		sub	sp, sp, #12
 939              	.LCFI19:
 940              		.cfi_def_cfa_offset 24
 941 0004 0546     		mov	r5, r0
 772:Middlewares/lvgl/src/misc/lv_txt.c ****     uint32_t len = 0;
 942              		.loc 1 772 5 is_stmt 1 view .LVU296
 943              	.LVL80:
 773:Middlewares/lvgl/src/misc/lv_txt.c ****     uint32_t i   = 0;
 944              		.loc 1 773 5 view .LVU297
 945              		.loc 1 773 14 is_stmt 0 view .LVU298
 946 0006 0024     		movs	r4, #0
 947 0008 0194     		str	r4, [sp, #4]
 774:Middlewares/lvgl/src/misc/lv_txt.c **** 
 775:Middlewares/lvgl/src/misc/lv_txt.c ****     while(txt[i] != '\0') {
 948              		.loc 1 775 5 is_stmt 1 view .LVU299
 949              		.loc 1 775 10 is_stmt 0 view .LVU300
 950 000a 05E0     		b	.L72
 951              	.LVL81:
 952              	.L73:
 776:Middlewares/lvgl/src/misc/lv_txt.c ****         _lv_txt_encoded_next(txt, &i);
 953              		.loc 1 776 9 is_stmt 1 view .LVU301
 954 000c 064B     		ldr	r3, .L75
 955 000e 1B68     		ldr	r3, [r3]
 956 0010 01A9     		add	r1, sp, #4
 957 0012 2846     		mov	r0, r5
 958 0014 9847     		blx	r3
 959              	.LVL82:
 777:Middlewares/lvgl/src/misc/lv_txt.c ****         len++;
ARM GAS  /tmp/ccWVSSdf.s 			page 38


 960              		.loc 1 777 9 view .LVU302
 961              		.loc 1 777 12 is_stmt 0 view .LVU303
 962 0016 0134     		adds	r4, r4, #1
 963              	.LVL83:
 964              	.L72:
 775:Middlewares/lvgl/src/misc/lv_txt.c ****         _lv_txt_encoded_next(txt, &i);
 965              		.loc 1 775 10 is_stmt 1 view .LVU304
 775:Middlewares/lvgl/src/misc/lv_txt.c ****         _lv_txt_encoded_next(txt, &i);
 966              		.loc 1 775 14 is_stmt 0 view .LVU305
 967 0018 019B     		ldr	r3, [sp, #4]
 968 001a EB5C     		ldrb	r3, [r5, r3]	@ zero_extendqisi2
 775:Middlewares/lvgl/src/misc/lv_txt.c ****         _lv_txt_encoded_next(txt, &i);
 969              		.loc 1 775 10 view .LVU306
 970 001c 002B     		cmp	r3, #0
 971 001e F5D1     		bne	.L73
 778:Middlewares/lvgl/src/misc/lv_txt.c ****     }
 779:Middlewares/lvgl/src/misc/lv_txt.c **** 
 780:Middlewares/lvgl/src/misc/lv_txt.c ****     return len;
 972              		.loc 1 780 5 is_stmt 1 view .LVU307
 781:Middlewares/lvgl/src/misc/lv_txt.c **** }
 973              		.loc 1 781 1 is_stmt 0 view .LVU308
 974 0020 2046     		mov	r0, r4
 975 0022 03B0     		add	sp, sp, #12
 976              	.LCFI20:
 977              		.cfi_def_cfa_offset 12
 978              		@ sp needed
 979 0024 30BD     		pop	{r4, r5, pc}
 980              	.LVL84:
 981              	.L76:
 982              		.loc 1 781 1 view .LVU309
 983 0026 00BF     		.align	2
 984              	.L75:
 985 0028 00000000 		.word	.LANCHOR1
 986              		.cfi_endproc
 987              	.LFE64:
 989              		.section	.text._lv_txt_is_cmd,"ax",%progbits
 990              		.align	1
 991              		.global	_lv_txt_is_cmd
 992              		.syntax unified
 993              		.thumb
 994              		.thumb_func
 996              	_lv_txt_is_cmd:
 997              	.LVL85:
 998              	.LFB52:
 403:Middlewares/lvgl/src/misc/lv_txt.c ****     bool ret = false;
 999              		.loc 1 403 1 is_stmt 1 view -0
 1000              		.cfi_startproc
 1001              		@ args = 0, pretend = 0, frame = 0
 1002              		@ frame_needed = 0, uses_anonymous_args = 0
 1003              		@ link register save eliminated.
 403:Middlewares/lvgl/src/misc/lv_txt.c ****     bool ret = false;
 1004              		.loc 1 403 1 is_stmt 0 view .LVU311
 1005 0000 0346     		mov	r3, r0
 404:Middlewares/lvgl/src/misc/lv_txt.c **** 
 1006              		.loc 1 404 5 is_stmt 1 view .LVU312
 1007              	.LVL86:
 406:Middlewares/lvgl/src/misc/lv_txt.c ****         if(*state == LV_TEXT_CMD_STATE_WAIT) { /*Start char*/
ARM GAS  /tmp/ccWVSSdf.s 			page 39


 1008              		.loc 1 406 5 view .LVU313
 406:Middlewares/lvgl/src/misc/lv_txt.c ****         if(*state == LV_TEXT_CMD_STATE_WAIT) { /*Start char*/
 1009              		.loc 1 406 7 is_stmt 0 view .LVU314
 1010 0002 2329     		cmp	r1, #35
 1011 0004 04D0     		beq	.L85
 404:Middlewares/lvgl/src/misc/lv_txt.c **** 
 1012              		.loc 1 404 10 view .LVU315
 1013 0006 0020     		movs	r0, #0
 1014              	.LVL87:
 1015              	.L78:
 423:Middlewares/lvgl/src/misc/lv_txt.c ****         if(c == ' ') {
 1016              		.loc 1 423 5 is_stmt 1 view .LVU316
 423:Middlewares/lvgl/src/misc/lv_txt.c ****         if(c == ' ') {
 1017              		.loc 1 423 8 is_stmt 0 view .LVU317
 1018 0008 1A78     		ldrb	r2, [r3]	@ zero_extendqisi2
 423:Middlewares/lvgl/src/misc/lv_txt.c ****         if(c == ' ') {
 1019              		.loc 1 423 7 view .LVU318
 1020 000a 012A     		cmp	r2, #1
 1021 000c 12D0     		beq	.L86
 1022              	.LVL88:
 1023              	.L81:
 430:Middlewares/lvgl/src/misc/lv_txt.c **** }
 1024              		.loc 1 430 5 is_stmt 1 view .LVU319
 431:Middlewares/lvgl/src/misc/lv_txt.c **** 
 1025              		.loc 1 431 1 is_stmt 0 view .LVU320
 1026 000e 7047     		bx	lr
 1027              	.LVL89:
 1028              	.L85:
 407:Middlewares/lvgl/src/misc/lv_txt.c ****             *state = LV_TEXT_CMD_STATE_PAR;
 1029              		.loc 1 407 9 is_stmt 1 view .LVU321
 407:Middlewares/lvgl/src/misc/lv_txt.c ****             *state = LV_TEXT_CMD_STATE_PAR;
 1030              		.loc 1 407 12 is_stmt 0 view .LVU322
 1031 0010 0278     		ldrb	r2, [r0]	@ zero_extendqisi2
 407:Middlewares/lvgl/src/misc/lv_txt.c ****             *state = LV_TEXT_CMD_STATE_PAR;
 1032              		.loc 1 407 11 view .LVU323
 1033 0012 12B9     		cbnz	r2, .L79
 408:Middlewares/lvgl/src/misc/lv_txt.c ****             ret    = true;
 1034              		.loc 1 408 13 is_stmt 1 view .LVU324
 408:Middlewares/lvgl/src/misc/lv_txt.c ****             ret    = true;
 1035              		.loc 1 408 20 is_stmt 0 view .LVU325
 1036 0014 0120     		movs	r0, #1
 1037              	.LVL90:
 408:Middlewares/lvgl/src/misc/lv_txt.c ****             ret    = true;
 1038              		.loc 1 408 20 view .LVU326
 1039 0016 1870     		strb	r0, [r3]
 409:Middlewares/lvgl/src/misc/lv_txt.c ****         }
 1040              		.loc 1 409 13 is_stmt 1 view .LVU327
 1041              	.LVL91:
 409:Middlewares/lvgl/src/misc/lv_txt.c ****         }
 1042              		.loc 1 409 13 is_stmt 0 view .LVU328
 1043 0018 F6E7     		b	.L78
 1044              	.LVL92:
 1045              	.L79:
 412:Middlewares/lvgl/src/misc/lv_txt.c ****             *state = LV_TEXT_CMD_STATE_WAIT;
 1046              		.loc 1 412 14 is_stmt 1 view .LVU329
 412:Middlewares/lvgl/src/misc/lv_txt.c ****             *state = LV_TEXT_CMD_STATE_WAIT;
 1047              		.loc 1 412 16 is_stmt 0 view .LVU330
ARM GAS  /tmp/ccWVSSdf.s 			page 40


 1048 001a 012A     		cmp	r2, #1
 1049 001c 03D0     		beq	.L87
 416:Middlewares/lvgl/src/misc/lv_txt.c ****             *state = LV_TEXT_CMD_STATE_WAIT;
 1050              		.loc 1 416 14 is_stmt 1 view .LVU331
 416:Middlewares/lvgl/src/misc/lv_txt.c ****             *state = LV_TEXT_CMD_STATE_WAIT;
 1051              		.loc 1 416 16 is_stmt 0 view .LVU332
 1052 001e 022A     		cmp	r2, #2
 1053 0020 04D0     		beq	.L88
 404:Middlewares/lvgl/src/misc/lv_txt.c **** 
 1054              		.loc 1 404 10 view .LVU333
 1055 0022 0020     		movs	r0, #0
 1056              	.LVL93:
 404:Middlewares/lvgl/src/misc/lv_txt.c **** 
 1057              		.loc 1 404 10 view .LVU334
 1058 0024 F0E7     		b	.L78
 1059              	.LVL94:
 1060              	.L87:
 413:Middlewares/lvgl/src/misc/lv_txt.c ****         }
 1061              		.loc 1 413 13 is_stmt 1 view .LVU335
 413:Middlewares/lvgl/src/misc/lv_txt.c ****         }
 1062              		.loc 1 413 20 is_stmt 0 view .LVU336
 1063 0026 0020     		movs	r0, #0
 1064              	.LVL95:
 413:Middlewares/lvgl/src/misc/lv_txt.c ****         }
 1065              		.loc 1 413 20 view .LVU337
 1066 0028 1870     		strb	r0, [r3]
 1067 002a EDE7     		b	.L78
 1068              	.LVL96:
 1069              	.L88:
 417:Middlewares/lvgl/src/misc/lv_txt.c ****             ret    = true;
 1070              		.loc 1 417 13 is_stmt 1 view .LVU338
 417:Middlewares/lvgl/src/misc/lv_txt.c ****             ret    = true;
 1071              		.loc 1 417 20 is_stmt 0 view .LVU339
 1072 002c 0022     		movs	r2, #0
 1073 002e 0270     		strb	r2, [r0]
 418:Middlewares/lvgl/src/misc/lv_txt.c ****         }
 1074              		.loc 1 418 13 is_stmt 1 view .LVU340
 1075              	.LVL97:
 418:Middlewares/lvgl/src/misc/lv_txt.c ****         }
 1076              		.loc 1 418 20 is_stmt 0 view .LVU341
 1077 0030 0120     		movs	r0, #1
 1078              	.LVL98:
 418:Middlewares/lvgl/src/misc/lv_txt.c ****         }
 1079              		.loc 1 418 20 view .LVU342
 1080 0032 E9E7     		b	.L78
 1081              	.LVL99:
 1082              	.L86:
 424:Middlewares/lvgl/src/misc/lv_txt.c ****             *state = LV_TEXT_CMD_STATE_IN; /*After the parameter the text is in the command*/
 1083              		.loc 1 424 9 is_stmt 1 view .LVU343
 424:Middlewares/lvgl/src/misc/lv_txt.c ****             *state = LV_TEXT_CMD_STATE_IN; /*After the parameter the text is in the command*/
 1084              		.loc 1 424 11 is_stmt 0 view .LVU344
 1085 0034 2029     		cmp	r1, #32
 1086 0036 01D0     		beq	.L89
 427:Middlewares/lvgl/src/misc/lv_txt.c ****     }
 1087              		.loc 1 427 13 view .LVU345
 1088 0038 0120     		movs	r0, #1
 1089              	.LVL100:
ARM GAS  /tmp/ccWVSSdf.s 			page 41


 427:Middlewares/lvgl/src/misc/lv_txt.c ****     }
 1090              		.loc 1 427 13 view .LVU346
 1091 003a E8E7     		b	.L81
 1092              	.LVL101:
 1093              	.L89:
 425:Middlewares/lvgl/src/misc/lv_txt.c ****         }
 1094              		.loc 1 425 13 is_stmt 1 view .LVU347
 425:Middlewares/lvgl/src/misc/lv_txt.c ****         }
 1095              		.loc 1 425 20 is_stmt 0 view .LVU348
 1096 003c 0222     		movs	r2, #2
 1097 003e 1A70     		strb	r2, [r3]
 427:Middlewares/lvgl/src/misc/lv_txt.c ****     }
 1098              		.loc 1 427 13 view .LVU349
 1099 0040 0120     		movs	r0, #1
 1100              	.LVL102:
 427:Middlewares/lvgl/src/misc/lv_txt.c ****     }
 1101              		.loc 1 427 13 view .LVU350
 1102 0042 7047     		bx	lr
 1103              		.cfi_endproc
 1104              	.LFE52:
 1106              		.section	.rodata.lv_txt_get_next_word.str1.4,"aMS",%progbits,1
 1107              		.align	2
 1108              	.LC0:
 1109 0000 202C2E3B 		.ascii	" ,.;:-_\000"
 1109      3A2D5F00 
 1110              		.section	.text.lv_txt_get_next_word,"ax",%progbits
 1111              		.align	1
 1112              		.syntax unified
 1113              		.thumb
 1114              		.thumb_func
 1116              	lv_txt_get_next_word:
 1117              	.LVL103:
 1118              	.LFB49:
 178:Middlewares/lvgl/src/misc/lv_txt.c ****     if(txt == NULL || txt[0] == '\0') return 0;
 1119              		.loc 1 178 1 is_stmt 1 view -0
 1120              		.cfi_startproc
 1121              		@ args = 16, pretend = 0, frame = 32
 1122              		@ frame_needed = 0, uses_anonymous_args = 0
 178:Middlewares/lvgl/src/misc/lv_txt.c ****     if(txt == NULL || txt[0] == '\0') return 0;
 1123              		.loc 1 178 1 is_stmt 0 view .LVU352
 1124 0000 2DE9F04F 		push	{r4, r5, r6, r7, r8, r9, r10, fp, lr}
 1125              	.LCFI21:
 1126              		.cfi_def_cfa_offset 36
 1127              		.cfi_offset 4, -36
 1128              		.cfi_offset 5, -32
 1129              		.cfi_offset 6, -28
 1130              		.cfi_offset 7, -24
 1131              		.cfi_offset 8, -20
 1132              		.cfi_offset 9, -16
 1133              		.cfi_offset 10, -12
 1134              		.cfi_offset 11, -8
 1135              		.cfi_offset 14, -4
 1136 0004 89B0     		sub	sp, sp, #36
 1137              	.LCFI22:
 1138              		.cfi_def_cfa_offset 72
 1139 0006 0291     		str	r1, [sp, #8]
 1140 0008 0392     		str	r2, [sp, #12]
ARM GAS  /tmp/ccWVSSdf.s 			page 42


 1141 000a 0493     		str	r3, [sp, #16]
 1142 000c 9DF848A0 		ldrb	r10, [sp, #72]	@ zero_extendqisi2
 1143 0010 9DF85430 		ldrb	r3, [sp, #84]	@ zero_extendqisi2
 1144              	.LVL104:
 178:Middlewares/lvgl/src/misc/lv_txt.c ****     if(txt == NULL || txt[0] == '\0') return 0;
 1145              		.loc 1 178 1 view .LVU353
 1146 0014 0593     		str	r3, [sp, #20]
 179:Middlewares/lvgl/src/misc/lv_txt.c ****     if(font == NULL) return 0;
 1147              		.loc 1 179 5 is_stmt 1 view .LVU354
 179:Middlewares/lvgl/src/misc/lv_txt.c ****     if(font == NULL) return 0;
 1148              		.loc 1 179 7 is_stmt 0 view .LVU355
 1149 0016 0028     		cmp	r0, #0
 1150 0018 00F09580 		beq	.L109
 1151 001c 0746     		mov	r7, r0
 179:Middlewares/lvgl/src/misc/lv_txt.c ****     if(font == NULL) return 0;
 1152              		.loc 1 179 26 discriminator 2 view .LVU356
 1153 001e 0378     		ldrb	r3, [r0]	@ zero_extendqisi2
 179:Middlewares/lvgl/src/misc/lv_txt.c ****     if(font == NULL) return 0;
 1154              		.loc 1 179 20 discriminator 2 view .LVU357
 1155 0020 002B     		cmp	r3, #0
 1156 0022 00F09380 		beq	.L110
 180:Middlewares/lvgl/src/misc/lv_txt.c **** 
 1157              		.loc 1 180 5 is_stmt 1 view .LVU358
 180:Middlewares/lvgl/src/misc/lv_txt.c **** 
 1158              		.loc 1 180 7 is_stmt 0 view .LVU359
 1159 0026 0029     		cmp	r1, #0
 1160 0028 00F09680 		beq	.L111
 182:Middlewares/lvgl/src/misc/lv_txt.c **** 
 1161              		.loc 1 182 5 is_stmt 1 view .LVU360
 182:Middlewares/lvgl/src/misc/lv_txt.c **** 
 1162              		.loc 1 182 7 is_stmt 0 view .LVU361
 1163 002c 1AF0020F 		tst	r10, #2
 1164 0030 02D0     		beq	.L92
 182:Middlewares/lvgl/src/misc/lv_txt.c **** 
 1165              		.loc 1 182 46 view .LVU362
 1166 0032 4FF4C043 		mov	r3, #24576
 1167 0036 0493     		str	r3, [sp, #16]
 1168              	.L92:
 1169              	.LVL105:
 184:Middlewares/lvgl/src/misc/lv_txt.c ****     uint32_t letter = 0;      /*Letter at i*/
 1170              		.loc 1 184 5 is_stmt 1 view .LVU363
 184:Middlewares/lvgl/src/misc/lv_txt.c ****     uint32_t letter = 0;      /*Letter at i*/
 1171              		.loc 1 184 21 is_stmt 0 view .LVU364
 1172 0038 0026     		movs	r6, #0
 1173 003a 0796     		str	r6, [sp, #28]
 184:Middlewares/lvgl/src/misc/lv_txt.c ****     uint32_t letter = 0;      /*Letter at i*/
 1174              		.loc 1 184 33 view .LVU365
 1175 003c 0696     		str	r6, [sp, #24]
 185:Middlewares/lvgl/src/misc/lv_txt.c ****     uint32_t letter_next = 0; /*Letter at i_next*/
 1176              		.loc 1 185 5 is_stmt 1 view .LVU366
 1177              	.LVL106:
 186:Middlewares/lvgl/src/misc/lv_txt.c ****     lv_coord_t letter_w;
 1178              		.loc 1 186 5 view .LVU367
 187:Middlewares/lvgl/src/misc/lv_txt.c ****     lv_coord_t cur_w = 0;  /*Pixel Width of transversed string*/
 1179              		.loc 1 187 5 view .LVU368
 188:Middlewares/lvgl/src/misc/lv_txt.c ****     uint32_t word_len = 0;   /*Number of characters in the transversed word*/
 1180              		.loc 1 188 5 view .LVU369
ARM GAS  /tmp/ccWVSSdf.s 			page 43


 189:Middlewares/lvgl/src/misc/lv_txt.c ****     uint32_t break_index = NO_BREAK_FOUND; /*only used for "long" words*/
 1181              		.loc 1 189 5 view .LVU370
 190:Middlewares/lvgl/src/misc/lv_txt.c ****     uint32_t break_letter_count = 0; /*Number of characters up to the long word break point*/
 1182              		.loc 1 190 5 view .LVU371
 191:Middlewares/lvgl/src/misc/lv_txt.c **** 
 1183              		.loc 1 191 5 view .LVU372
 193:Middlewares/lvgl/src/misc/lv_txt.c ****     i_next_next = i_next;
 1184              		.loc 1 193 5 view .LVU373
 193:Middlewares/lvgl/src/misc/lv_txt.c ****     i_next_next = i_next;
 1185              		.loc 1 193 14 is_stmt 0 view .LVU374
 1186 003e 494B     		ldr	r3, .L125
 1187 0040 1B68     		ldr	r3, [r3]
 1188 0042 07A9     		add	r1, sp, #28
 1189              	.LVL107:
 193:Middlewares/lvgl/src/misc/lv_txt.c ****     i_next_next = i_next;
 1190              		.loc 1 193 14 view .LVU375
 1191 0044 3846     		mov	r0, r7
 1192              	.LVL108:
 193:Middlewares/lvgl/src/misc/lv_txt.c ****     i_next_next = i_next;
 1193              		.loc 1 193 14 view .LVU376
 1194 0046 9847     		blx	r3
 1195              	.LVL109:
 193:Middlewares/lvgl/src/misc/lv_txt.c ****     i_next_next = i_next;
 1196              		.loc 1 193 14 view .LVU377
 1197 0048 0446     		mov	r4, r0
 1198              	.LVL110:
 194:Middlewares/lvgl/src/misc/lv_txt.c **** 
 1199              		.loc 1 194 5 is_stmt 1 view .LVU378
 194:Middlewares/lvgl/src/misc/lv_txt.c **** 
 1200              		.loc 1 194 17 is_stmt 0 view .LVU379
 1201 004a 079B     		ldr	r3, [sp, #28]
 1202 004c 0693     		str	r3, [sp, #24]
 197:Middlewares/lvgl/src/misc/lv_txt.c ****         letter_next = _lv_txt_encoded_next(txt, &i_next_next);
 1203              		.loc 1 197 5 is_stmt 1 view .LVU380
 190:Middlewares/lvgl/src/misc/lv_txt.c ****     uint32_t break_letter_count = 0; /*Number of characters up to the long word break point*/
 1204              		.loc 1 190 14 is_stmt 0 view .LVU381
 1205 004e 4FF0FF38 		mov	r8, #-1
 189:Middlewares/lvgl/src/misc/lv_txt.c ****     uint32_t break_index = NO_BREAK_FOUND; /*only used for "long" words*/
 1206              		.loc 1 189 14 view .LVU382
 1207 0052 B146     		mov	r9, r6
 188:Middlewares/lvgl/src/misc/lv_txt.c ****     uint32_t word_len = 0;   /*Number of characters in the transversed word*/
 1208              		.loc 1 188 16 view .LVU383
 1209 0054 3546     		mov	r5, r6
 186:Middlewares/lvgl/src/misc/lv_txt.c ****     lv_coord_t letter_w;
 1210              		.loc 1 186 14 view .LVU384
 1211 0056 0196     		str	r6, [sp, #4]
 197:Middlewares/lvgl/src/misc/lv_txt.c ****         letter_next = _lv_txt_encoded_next(txt, &i_next_next);
 1212              		.loc 1 197 10 view .LVU385
 1213 0058 36E0     		b	.L93
 1214              	.LVL111:
 1215              	.L94:
 211:Middlewares/lvgl/src/misc/lv_txt.c ****         cur_w += letter_w;
 1216              		.loc 1 211 9 is_stmt 1 view .LVU386
 211:Middlewares/lvgl/src/misc/lv_txt.c ****         cur_w += letter_w;
 1217              		.loc 1 211 20 is_stmt 0 view .LVU387
 1218 005a 019A     		ldr	r2, [sp, #4]
 1219 005c 2146     		mov	r1, r4
ARM GAS  /tmp/ccWVSSdf.s 			page 44


 1220 005e 0298     		ldr	r0, [sp, #8]
 1221 0060 FFF7FEFF 		bl	lv_font_get_glyph_width
 1222              	.LVL112:
 211:Middlewares/lvgl/src/misc/lv_txt.c ****         cur_w += letter_w;
 1223              		.loc 1 211 18 view .LVU388
 1224 0064 02B2     		sxth	r2, r0
 1225              	.LVL113:
 212:Middlewares/lvgl/src/misc/lv_txt.c **** 
 1226              		.loc 1 212 9 is_stmt 1 view .LVU389
 212:Middlewares/lvgl/src/misc/lv_txt.c **** 
 1227              		.loc 1 212 15 is_stmt 0 view .LVU390
 1228 0066 0544     		add	r5, r5, r0
 1229              	.LVL114:
 212:Middlewares/lvgl/src/misc/lv_txt.c **** 
 1230              		.loc 1 212 15 view .LVU391
 1231 0068 ABB2     		uxth	r3, r5
 1232 006a 2DB2     		sxth	r5, r5
 1233              	.LVL115:
 214:Middlewares/lvgl/src/misc/lv_txt.c ****             cur_w += letter_space;
 1234              		.loc 1 214 9 is_stmt 1 view .LVU392
 214:Middlewares/lvgl/src/misc/lv_txt.c ****             cur_w += letter_space;
 1235              		.loc 1 214 11 is_stmt 0 view .LVU393
 1236 006c 002A     		cmp	r2, #0
 1237 006e 02DD     		ble	.L96
 215:Middlewares/lvgl/src/misc/lv_txt.c ****         }
 1238              		.loc 1 215 13 is_stmt 1 view .LVU394
 215:Middlewares/lvgl/src/misc/lv_txt.c ****         }
 1239              		.loc 1 215 19 is_stmt 0 view .LVU395
 1240 0070 039A     		ldr	r2, [sp, #12]
 1241              	.LVL116:
 215:Middlewares/lvgl/src/misc/lv_txt.c ****         }
 1242              		.loc 1 215 19 view .LVU396
 1243 0072 1344     		add	r3, r3, r2
 1244 0074 1DB2     		sxth	r5, r3
 1245              	.LVL117:
 1246              	.L96:
 219:Middlewares/lvgl/src/misc/lv_txt.c ****             break_index = i;
 1247              		.loc 1 219 9 is_stmt 1 view .LVU397
 219:Middlewares/lvgl/src/misc/lv_txt.c ****             break_index = i;
 1248              		.loc 1 219 11 is_stmt 0 view .LVU398
 1249 0076 B8F1FF3F 		cmp	r8, #-1
 1250 007a 12D0     		beq	.L119
 1251              	.LVL118:
 1252              	.L97:
 226:Middlewares/lvgl/src/misc/lv_txt.c ****             /*Update the output width on the first character if it fits.
 1253              		.loc 1 226 9 is_stmt 1 view .LVU399
 226:Middlewares/lvgl/src/misc/lv_txt.c ****             /*Update the output width on the first character if it fits.
 1254              		.loc 1 226 11 is_stmt 0 view .LVU400
 1255 007c 0A2C     		cmp	r4, #10
 1256 007e 3CD0     		beq	.L98
 226:Middlewares/lvgl/src/misc/lv_txt.c ****             /*Update the output width on the first character if it fits.
 1257              		.loc 1 226 27 discriminator 1 view .LVU401
 1258 0080 0D2C     		cmp	r4, #13
 1259 0082 3AD0     		beq	.L98
 1260              	.LVL119:
 1261              	.LBB20:
 1262              	.LBI20:
ARM GAS  /tmp/ccWVSSdf.s 			page 45


 1263              		.file 3 "Middlewares/lvgl/src/misc/lv_txt.h"
   1:Middlewares/lvgl/src/misc/lv_txt.h **** /**
   2:Middlewares/lvgl/src/misc/lv_txt.h ****  * @file lv_text.h
   3:Middlewares/lvgl/src/misc/lv_txt.h ****  *
   4:Middlewares/lvgl/src/misc/lv_txt.h ****  */
   5:Middlewares/lvgl/src/misc/lv_txt.h **** 
   6:Middlewares/lvgl/src/misc/lv_txt.h **** #ifndef LV_TXT_H
   7:Middlewares/lvgl/src/misc/lv_txt.h **** #define LV_TXT_H
   8:Middlewares/lvgl/src/misc/lv_txt.h **** 
   9:Middlewares/lvgl/src/misc/lv_txt.h **** #ifdef __cplusplus
  10:Middlewares/lvgl/src/misc/lv_txt.h **** extern "C" {
  11:Middlewares/lvgl/src/misc/lv_txt.h **** #endif
  12:Middlewares/lvgl/src/misc/lv_txt.h **** 
  13:Middlewares/lvgl/src/misc/lv_txt.h **** /*********************
  14:Middlewares/lvgl/src/misc/lv_txt.h ****  *      INCLUDES
  15:Middlewares/lvgl/src/misc/lv_txt.h ****  *********************/
  16:Middlewares/lvgl/src/misc/lv_txt.h **** #include "../lv_conf_internal.h"
  17:Middlewares/lvgl/src/misc/lv_txt.h **** 
  18:Middlewares/lvgl/src/misc/lv_txt.h **** #include <stdbool.h>
  19:Middlewares/lvgl/src/misc/lv_txt.h **** #include <stdarg.h>
  20:Middlewares/lvgl/src/misc/lv_txt.h **** #include "lv_area.h"
  21:Middlewares/lvgl/src/misc/lv_txt.h **** #include "../font/lv_font.h"
  22:Middlewares/lvgl/src/misc/lv_txt.h **** #include "lv_printf.h"
  23:Middlewares/lvgl/src/misc/lv_txt.h **** 
  24:Middlewares/lvgl/src/misc/lv_txt.h **** /*********************
  25:Middlewares/lvgl/src/misc/lv_txt.h ****  *      DEFINES
  26:Middlewares/lvgl/src/misc/lv_txt.h ****  *********************/
  27:Middlewares/lvgl/src/misc/lv_txt.h **** #ifndef LV_TXT_COLOR_CMD
  28:Middlewares/lvgl/src/misc/lv_txt.h **** #define LV_TXT_COLOR_CMD "#"
  29:Middlewares/lvgl/src/misc/lv_txt.h **** #endif
  30:Middlewares/lvgl/src/misc/lv_txt.h **** 
  31:Middlewares/lvgl/src/misc/lv_txt.h **** #define LV_TXT_ENC_UTF8 1
  32:Middlewares/lvgl/src/misc/lv_txt.h **** #define LV_TXT_ENC_ASCII 2
  33:Middlewares/lvgl/src/misc/lv_txt.h **** 
  34:Middlewares/lvgl/src/misc/lv_txt.h **** /**********************
  35:Middlewares/lvgl/src/misc/lv_txt.h ****  *      TYPEDEFS
  36:Middlewares/lvgl/src/misc/lv_txt.h ****  **********************/
  37:Middlewares/lvgl/src/misc/lv_txt.h **** 
  38:Middlewares/lvgl/src/misc/lv_txt.h **** /**
  39:Middlewares/lvgl/src/misc/lv_txt.h ****  * Options for text rendering.
  40:Middlewares/lvgl/src/misc/lv_txt.h ****  */
  41:Middlewares/lvgl/src/misc/lv_txt.h **** enum {
  42:Middlewares/lvgl/src/misc/lv_txt.h ****     LV_TEXT_FLAG_NONE    = 0x00,
  43:Middlewares/lvgl/src/misc/lv_txt.h ****     LV_TEXT_FLAG_RECOLOR = 0x01, /**< Enable parsing of recolor command*/
  44:Middlewares/lvgl/src/misc/lv_txt.h ****     LV_TEXT_FLAG_EXPAND  = 0x02, /**< Ignore max-width to avoid automatic word wrapping*/
  45:Middlewares/lvgl/src/misc/lv_txt.h ****     LV_TEXT_FLAG_FIT     = 0x04, /**< Max-width is already equal to the longest line. (Used to skip
  46:Middlewares/lvgl/src/misc/lv_txt.h **** };
  47:Middlewares/lvgl/src/misc/lv_txt.h **** typedef uint8_t lv_text_flag_t;
  48:Middlewares/lvgl/src/misc/lv_txt.h **** 
  49:Middlewares/lvgl/src/misc/lv_txt.h **** /**
  50:Middlewares/lvgl/src/misc/lv_txt.h ****  * State machine for text renderer.*/
  51:Middlewares/lvgl/src/misc/lv_txt.h **** enum {
  52:Middlewares/lvgl/src/misc/lv_txt.h ****     LV_TEXT_CMD_STATE_WAIT, /**< Waiting for command*/
  53:Middlewares/lvgl/src/misc/lv_txt.h ****     LV_TEXT_CMD_STATE_PAR,  /**< Processing the parameter*/
  54:Middlewares/lvgl/src/misc/lv_txt.h ****     LV_TEXT_CMD_STATE_IN,   /**< Processing the command*/
  55:Middlewares/lvgl/src/misc/lv_txt.h **** };
  56:Middlewares/lvgl/src/misc/lv_txt.h **** typedef uint8_t lv_text_cmd_state_t;
ARM GAS  /tmp/ccWVSSdf.s 			page 46


  57:Middlewares/lvgl/src/misc/lv_txt.h **** 
  58:Middlewares/lvgl/src/misc/lv_txt.h **** /** Label align policy*/
  59:Middlewares/lvgl/src/misc/lv_txt.h **** enum {
  60:Middlewares/lvgl/src/misc/lv_txt.h ****     LV_TEXT_ALIGN_AUTO, /**< Align text auto*/
  61:Middlewares/lvgl/src/misc/lv_txt.h ****     LV_TEXT_ALIGN_LEFT, /**< Align text to left*/
  62:Middlewares/lvgl/src/misc/lv_txt.h ****     LV_TEXT_ALIGN_CENTER, /**< Align text to center*/
  63:Middlewares/lvgl/src/misc/lv_txt.h ****     LV_TEXT_ALIGN_RIGHT, /**< Align text to right*/
  64:Middlewares/lvgl/src/misc/lv_txt.h **** };
  65:Middlewares/lvgl/src/misc/lv_txt.h **** typedef uint8_t lv_text_align_t;
  66:Middlewares/lvgl/src/misc/lv_txt.h **** 
  67:Middlewares/lvgl/src/misc/lv_txt.h **** /**********************
  68:Middlewares/lvgl/src/misc/lv_txt.h ****  * GLOBAL PROTOTYPES
  69:Middlewares/lvgl/src/misc/lv_txt.h ****  **********************/
  70:Middlewares/lvgl/src/misc/lv_txt.h **** 
  71:Middlewares/lvgl/src/misc/lv_txt.h **** /**
  72:Middlewares/lvgl/src/misc/lv_txt.h ****  * Get size of a text
  73:Middlewares/lvgl/src/misc/lv_txt.h ****  * @param size_res pointer to a 'point_t' variable to store the result
  74:Middlewares/lvgl/src/misc/lv_txt.h ****  * @param text pointer to a text
  75:Middlewares/lvgl/src/misc/lv_txt.h ****  * @param font pointer to font of the text
  76:Middlewares/lvgl/src/misc/lv_txt.h ****  * @param letter_space letter space of the text
  77:Middlewares/lvgl/src/misc/lv_txt.h ****  * @param line_space line space of the text
  78:Middlewares/lvgl/src/misc/lv_txt.h ****  * @param flags settings for the text from ::lv_text_flag_t
  79:Middlewares/lvgl/src/misc/lv_txt.h ****  * @param max_width max with of the text (break the lines to fit this size) Set CORD_MAX to avoid
  80:Middlewares/lvgl/src/misc/lv_txt.h ****  * line breaks
  81:Middlewares/lvgl/src/misc/lv_txt.h ****  */
  82:Middlewares/lvgl/src/misc/lv_txt.h **** void lv_txt_get_size(lv_point_t * size_res, const char * text, const lv_font_t * font, lv_coord_t l
  83:Middlewares/lvgl/src/misc/lv_txt.h ****                       lv_coord_t line_space, lv_coord_t max_width, lv_text_flag_t flag);
  84:Middlewares/lvgl/src/misc/lv_txt.h **** 
  85:Middlewares/lvgl/src/misc/lv_txt.h **** /**
  86:Middlewares/lvgl/src/misc/lv_txt.h ****  * Get the next line of text. Check line length and break chars too.
  87:Middlewares/lvgl/src/misc/lv_txt.h ****  * @param txt a '\0' terminated string
  88:Middlewares/lvgl/src/misc/lv_txt.h ****  * @param font pointer to a font
  89:Middlewares/lvgl/src/misc/lv_txt.h ****  * @param letter_space letter space
  90:Middlewares/lvgl/src/misc/lv_txt.h ****  * @param max_width max with of the text (break the lines to fit this size) Set CORD_MAX to avoid
  91:Middlewares/lvgl/src/misc/lv_txt.h ****  * line breaks
  92:Middlewares/lvgl/src/misc/lv_txt.h ****  * @param flags settings for the text from 'txt_flag_type' enum
  93:Middlewares/lvgl/src/misc/lv_txt.h ****  * @return the index of the first char of the new line (in byte index not letter index. With UTF-8
  94:Middlewares/lvgl/src/misc/lv_txt.h ****  * they are different)
  95:Middlewares/lvgl/src/misc/lv_txt.h ****  */
  96:Middlewares/lvgl/src/misc/lv_txt.h **** uint32_t _lv_txt_get_next_line(const char * txt, const lv_font_t * font, lv_coord_t letter_space, l
  97:Middlewares/lvgl/src/misc/lv_txt.h ****                                lv_text_flag_t flag);
  98:Middlewares/lvgl/src/misc/lv_txt.h **** 
  99:Middlewares/lvgl/src/misc/lv_txt.h **** /**
 100:Middlewares/lvgl/src/misc/lv_txt.h ****  * Give the length of a text with a given font
 101:Middlewares/lvgl/src/misc/lv_txt.h ****  * @param txt a '\0' terminate string
 102:Middlewares/lvgl/src/misc/lv_txt.h ****  * @param length length of 'txt' in byte count and not characters (Á is 1 character but 2 bytes in
 103:Middlewares/lvgl/src/misc/lv_txt.h ****  * UTF-8)
 104:Middlewares/lvgl/src/misc/lv_txt.h ****  * @param font pointer to a font
 105:Middlewares/lvgl/src/misc/lv_txt.h ****  * @param letter_space letter space
 106:Middlewares/lvgl/src/misc/lv_txt.h ****  * @param flags settings for the text from 'txt_flag_t' enum
 107:Middlewares/lvgl/src/misc/lv_txt.h ****  * @return length of a char_num long text
 108:Middlewares/lvgl/src/misc/lv_txt.h ****  */
 109:Middlewares/lvgl/src/misc/lv_txt.h **** lv_coord_t lv_txt_get_width(const char * txt, uint32_t length, const lv_font_t * font, lv_coord_t l
 110:Middlewares/lvgl/src/misc/lv_txt.h ****                              lv_text_flag_t flag);
 111:Middlewares/lvgl/src/misc/lv_txt.h **** 
 112:Middlewares/lvgl/src/misc/lv_txt.h **** /**
 113:Middlewares/lvgl/src/misc/lv_txt.h ****  * Check next character in a string and decide if the character is part of the command or not
ARM GAS  /tmp/ccWVSSdf.s 			page 47


 114:Middlewares/lvgl/src/misc/lv_txt.h ****  * @param state pointer to a txt_cmd_state_t variable which stores the current state of command
 115:Middlewares/lvgl/src/misc/lv_txt.h ****  * processing
 116:Middlewares/lvgl/src/misc/lv_txt.h ****  * @param c the current character
 117:Middlewares/lvgl/src/misc/lv_txt.h ****  * @return true: the character is part of a command and should not be written,
 118:Middlewares/lvgl/src/misc/lv_txt.h ****  *         false: the character should be written
 119:Middlewares/lvgl/src/misc/lv_txt.h ****  */
 120:Middlewares/lvgl/src/misc/lv_txt.h **** bool _lv_txt_is_cmd(lv_text_cmd_state_t * state, uint32_t c);
 121:Middlewares/lvgl/src/misc/lv_txt.h **** 
 122:Middlewares/lvgl/src/misc/lv_txt.h **** /**
 123:Middlewares/lvgl/src/misc/lv_txt.h ****  * Insert a string into an other
 124:Middlewares/lvgl/src/misc/lv_txt.h ****  * @param txt_buf the original text (must be big enough for the result text)
 125:Middlewares/lvgl/src/misc/lv_txt.h ****  * @param pos position to insert (0: before the original text, 1: after the first char etc.)
 126:Middlewares/lvgl/src/misc/lv_txt.h ****  * @param ins_txt text to insert
 127:Middlewares/lvgl/src/misc/lv_txt.h ****  */
 128:Middlewares/lvgl/src/misc/lv_txt.h **** void _lv_txt_ins(char * txt_buf, uint32_t pos, const char * ins_txt);
 129:Middlewares/lvgl/src/misc/lv_txt.h **** 
 130:Middlewares/lvgl/src/misc/lv_txt.h **** /**
 131:Middlewares/lvgl/src/misc/lv_txt.h ****  * Delete a part of a string
 132:Middlewares/lvgl/src/misc/lv_txt.h ****  * @param txt string to modify
 133:Middlewares/lvgl/src/misc/lv_txt.h ****  * @param pos position where to start the deleting (0: before the first char, 1: after the first
 134:Middlewares/lvgl/src/misc/lv_txt.h ****  * char etc.)
 135:Middlewares/lvgl/src/misc/lv_txt.h ****  * @param len number of characters to delete
 136:Middlewares/lvgl/src/misc/lv_txt.h ****  */
 137:Middlewares/lvgl/src/misc/lv_txt.h **** void _lv_txt_cut(char * txt, uint32_t pos, uint32_t len);
 138:Middlewares/lvgl/src/misc/lv_txt.h **** 
 139:Middlewares/lvgl/src/misc/lv_txt.h **** /**
 140:Middlewares/lvgl/src/misc/lv_txt.h ****  * return a new formatted text. Memory will be allocated to store the text.
 141:Middlewares/lvgl/src/misc/lv_txt.h ****  * @param fmt `printf`-like format
 142:Middlewares/lvgl/src/misc/lv_txt.h ****  * @return pointer to the allocated text string.
 143:Middlewares/lvgl/src/misc/lv_txt.h ****  */
 144:Middlewares/lvgl/src/misc/lv_txt.h **** char * _lv_txt_set_text_vfmt(const char * fmt, va_list ap);
 145:Middlewares/lvgl/src/misc/lv_txt.h **** 
 146:Middlewares/lvgl/src/misc/lv_txt.h **** /**
 147:Middlewares/lvgl/src/misc/lv_txt.h ****  * Decode two encoded character from a string.
 148:Middlewares/lvgl/src/misc/lv_txt.h ****  * @param txt pointer to '\0' terminated string
 149:Middlewares/lvgl/src/misc/lv_txt.h ****  * @param letter the first decoded Unicode character or 0 on invalid data code
 150:Middlewares/lvgl/src/misc/lv_txt.h ****  * @param letter_next the second decoded Unicode character or 0 on invalid data code
 151:Middlewares/lvgl/src/misc/lv_txt.h ****  * @param ofs start index in 'txt' where to start.
 152:Middlewares/lvgl/src/misc/lv_txt.h ****  *                After the call it will point to the next encoded char in 'txt'.
 153:Middlewares/lvgl/src/misc/lv_txt.h ****  *                NULL to use txt[0] as index
 154:Middlewares/lvgl/src/misc/lv_txt.h ****  */
 155:Middlewares/lvgl/src/misc/lv_txt.h **** void _lv_txt_encoded_letter_next_2(const char * txt, uint32_t * letter, uint32_t * letter_next, uin
 156:Middlewares/lvgl/src/misc/lv_txt.h **** 
 157:Middlewares/lvgl/src/misc/lv_txt.h **** /**
 158:Middlewares/lvgl/src/misc/lv_txt.h ****  * Test if char is break char or not (a text can broken here or not)
 159:Middlewares/lvgl/src/misc/lv_txt.h ****  * @param letter a letter
 160:Middlewares/lvgl/src/misc/lv_txt.h ****  * @return false: 'letter' is not break char
 161:Middlewares/lvgl/src/misc/lv_txt.h ****  */
 162:Middlewares/lvgl/src/misc/lv_txt.h **** static inline bool _lv_txt_is_break_char(uint32_t letter)
 1264              		.loc 3 162 20 is_stmt 1 view .LVU402
 1265              	.LBB21:
 163:Middlewares/lvgl/src/misc/lv_txt.h **** {
 164:Middlewares/lvgl/src/misc/lv_txt.h ****     uint8_t i;
 1266              		.loc 3 164 5 view .LVU403
 165:Middlewares/lvgl/src/misc/lv_txt.h ****     bool ret = false;
 1267              		.loc 3 165 5 view .LVU404
 166:Middlewares/lvgl/src/misc/lv_txt.h **** 
ARM GAS  /tmp/ccWVSSdf.s 			page 48


 167:Middlewares/lvgl/src/misc/lv_txt.h ****     /* each chinese character can be break */
 168:Middlewares/lvgl/src/misc/lv_txt.h ****     if (letter >= 0x4E00 && letter <= 0x9FA5) {
 1268              		.loc 3 168 5 view .LVU405
 1269              		.loc 3 168 26 is_stmt 0 view .LVU406
 1270 0084 A4F59C42 		sub	r2, r4, #19968
 1271              		.loc 3 168 8 view .LVU407
 1272 0088 45F2A513 		movw	r3, #20901
 1273 008c 9A42     		cmp	r2, r3
 1274 008e 34D9     		bls	.L98
 169:Middlewares/lvgl/src/misc/lv_txt.h ****         return true;
 170:Middlewares/lvgl/src/misc/lv_txt.h ****     }
 171:Middlewares/lvgl/src/misc/lv_txt.h **** 
 172:Middlewares/lvgl/src/misc/lv_txt.h ****     /*Compare the letter to TXT_BREAK_CHARS*/
 173:Middlewares/lvgl/src/misc/lv_txt.h ****     for(i = 0; LV_TXT_BREAK_CHARS[i] != '\0'; i++) {
 1275              		.loc 3 173 11 view .LVU408
 1276 0090 0023     		movs	r3, #0
 1277              	.L99:
 1278              	.LVL120:
 1279              		.loc 3 173 16 is_stmt 1 view .LVU409
 1280              		.loc 3 173 34 is_stmt 0 view .LVU410
 1281 0092 354A     		ldr	r2, .L125+4
 1282 0094 D25C     		ldrb	r2, [r2, r3]	@ zero_extendqisi2
 1283              		.loc 3 173 5 view .LVU411
 1284 0096 5AB1     		cbz	r2, .L120
 174:Middlewares/lvgl/src/misc/lv_txt.h ****         if(letter == (uint32_t)LV_TXT_BREAK_CHARS[i]) {
 1285              		.loc 3 174 9 is_stmt 1 view .LVU412
 1286              		.loc 3 174 11 is_stmt 0 view .LVU413
 1287 0098 9442     		cmp	r4, r2
 1288 009a 2CD0     		beq	.L114
 173:Middlewares/lvgl/src/misc/lv_txt.h ****         if(letter == (uint32_t)LV_TXT_BREAK_CHARS[i]) {
 1289              		.loc 3 173 47 is_stmt 1 view .LVU414
 173:Middlewares/lvgl/src/misc/lv_txt.h ****         if(letter == (uint32_t)LV_TXT_BREAK_CHARS[i]) {
 1290              		.loc 3 173 48 is_stmt 0 view .LVU415
 1291 009c 0133     		adds	r3, r3, #1
 1292              	.LVL121:
 173:Middlewares/lvgl/src/misc/lv_txt.h ****         if(letter == (uint32_t)LV_TXT_BREAK_CHARS[i]) {
 1293              		.loc 3 173 48 view .LVU416
 1294 009e DBB2     		uxtb	r3, r3
 1295              	.LVL122:
 173:Middlewares/lvgl/src/misc/lv_txt.h ****         if(letter == (uint32_t)LV_TXT_BREAK_CHARS[i]) {
 1296              		.loc 3 173 48 view .LVU417
 1297 00a0 F7E7     		b	.L99
 1298              	.LVL123:
 1299              	.L119:
 173:Middlewares/lvgl/src/misc/lv_txt.h ****         if(letter == (uint32_t)LV_TXT_BREAK_CHARS[i]) {
 1300              		.loc 3 173 48 view .LVU418
 1301              	.LBE21:
 1302              	.LBE20:
 219:Middlewares/lvgl/src/misc/lv_txt.c ****             break_index = i;
 1303              		.loc 1 219 52 discriminator 1 view .LVU419
 1304 00a2 039B     		ldr	r3, [sp, #12]
 1305 00a4 EB1A     		subs	r3, r5, r3
 219:Middlewares/lvgl/src/misc/lv_txt.c ****             break_index = i;
 1306              		.loc 1 219 42 discriminator 1 view .LVU420
 1307 00a6 049A     		ldr	r2, [sp, #16]
 1308 00a8 9342     		cmp	r3, r2
 1309 00aa E7DD     		ble	.L97
ARM GAS  /tmp/ccWVSSdf.s 			page 49


 220:Middlewares/lvgl/src/misc/lv_txt.c ****             break_letter_count = word_len - 1;
 1310              		.loc 1 220 25 view .LVU421
 1311 00ac B046     		mov	r8, r6
 1312              	.LVL124:
 220:Middlewares/lvgl/src/misc/lv_txt.c ****             break_letter_count = word_len - 1;
 1313              		.loc 1 220 25 view .LVU422
 1314 00ae E5E7     		b	.L97
 1315              	.LVL125:
 1316              	.L120:
 1317              	.LBB25:
 1318              	.LBB22:
 165:Middlewares/lvgl/src/misc/lv_txt.h **** 
 1319              		.loc 3 165 10 view .LVU423
 1320 00b0 0023     		movs	r3, #0
 1321              	.LVL126:
 1322              	.L100:
 165:Middlewares/lvgl/src/misc/lv_txt.h **** 
 1323              		.loc 3 165 10 view .LVU424
 1324              	.LBE22:
 1325              	.LBE25:
 226:Middlewares/lvgl/src/misc/lv_txt.c ****             /*Update the output width on the first character if it fits.
 1326              		.loc 1 226 45 view .LVU425
 1327 00b2 13BB     		cbnz	r3, .L98
 235:Middlewares/lvgl/src/misc/lv_txt.c **** 
 1328              		.loc 1 235 9 is_stmt 1 view .LVU426
 235:Middlewares/lvgl/src/misc/lv_txt.c **** 
 1329              		.loc 1 235 11 is_stmt 0 view .LVU427
 1330 00b4 139B     		ldr	r3, [sp, #76]
 1331 00b6 13B1     		cbz	r3, .L104
 235:Middlewares/lvgl/src/misc/lv_txt.c **** 
 1332              		.loc 1 235 31 discriminator 1 view .LVU428
 1333 00b8 B8F1FF3F 		cmp	r8, #-1
 1334 00bc 32D0     		beq	.L121
 1335              	.L104:
 237:Middlewares/lvgl/src/misc/lv_txt.c ****         i_next = i_next_next;
 1336              		.loc 1 237 9 is_stmt 1 view .LVU429
 237:Middlewares/lvgl/src/misc/lv_txt.c ****         i_next = i_next_next;
 1337              		.loc 1 237 11 is_stmt 0 view .LVU430
 1338 00be 079E     		ldr	r6, [sp, #28]
 1339              	.LVL127:
 238:Middlewares/lvgl/src/misc/lv_txt.c ****         letter = letter_next;
 1340              		.loc 1 238 9 is_stmt 1 view .LVU431
 238:Middlewares/lvgl/src/misc/lv_txt.c ****         letter = letter_next;
 1341              		.loc 1 238 16 is_stmt 0 view .LVU432
 1342 00c0 069B     		ldr	r3, [sp, #24]
 1343 00c2 0793     		str	r3, [sp, #28]
 239:Middlewares/lvgl/src/misc/lv_txt.c ****     }
 1344              		.loc 1 239 9 is_stmt 1 view .LVU433
 1345              	.LVL128:
 1346              	.L95:
 1347              	.LBB26:
 1348              	.LBB23:
 165:Middlewares/lvgl/src/misc/lv_txt.h **** 
 1349              		.loc 3 165 10 is_stmt 0 view .LVU434
 1350 00c4 D946     		mov	r9, fp
 1351 00c6 019C     		ldr	r4, [sp, #4]
 1352              	.LVL129:
ARM GAS  /tmp/ccWVSSdf.s 			page 50


 1353              	.L93:
 165:Middlewares/lvgl/src/misc/lv_txt.h **** 
 1354              		.loc 3 165 10 view .LVU435
 1355              	.LBE23:
 1356              	.LBE26:
 197:Middlewares/lvgl/src/misc/lv_txt.c ****         letter_next = _lv_txt_encoded_next(txt, &i_next_next);
 1357              		.loc 1 197 10 is_stmt 1 view .LVU436
 197:Middlewares/lvgl/src/misc/lv_txt.c ****         letter_next = _lv_txt_encoded_next(txt, &i_next_next);
 1358              		.loc 1 197 14 is_stmt 0 view .LVU437
 1359 00c8 BB5D     		ldrb	r3, [r7, r6]	@ zero_extendqisi2
 197:Middlewares/lvgl/src/misc/lv_txt.c ****         letter_next = _lv_txt_encoded_next(txt, &i_next_next);
 1360              		.loc 1 197 10 view .LVU438
 1361 00ca D3B1     		cbz	r3, .L103
 198:Middlewares/lvgl/src/misc/lv_txt.c ****         word_len++;
 1362              		.loc 1 198 9 is_stmt 1 view .LVU439
 198:Middlewares/lvgl/src/misc/lv_txt.c ****         word_len++;
 1363              		.loc 1 198 23 is_stmt 0 view .LVU440
 1364 00cc 254B     		ldr	r3, .L125
 1365 00ce 1B68     		ldr	r3, [r3]
 1366 00d0 06A9     		add	r1, sp, #24
 1367 00d2 3846     		mov	r0, r7
 1368 00d4 9847     		blx	r3
 1369              	.LVL130:
 1370 00d6 0190     		str	r0, [sp, #4]
 1371              	.LVL131:
 199:Middlewares/lvgl/src/misc/lv_txt.c **** 
 1372              		.loc 1 199 9 is_stmt 1 view .LVU441
 199:Middlewares/lvgl/src/misc/lv_txt.c **** 
 1373              		.loc 1 199 17 is_stmt 0 view .LVU442
 1374 00d8 09F1010B 		add	fp, r9, #1
 1375              	.LVL132:
 202:Middlewares/lvgl/src/misc/lv_txt.c ****             if(_lv_txt_is_cmd(cmd_state, letter) != false) {
 1376              		.loc 1 202 9 is_stmt 1 view .LVU443
 202:Middlewares/lvgl/src/misc/lv_txt.c ****             if(_lv_txt_is_cmd(cmd_state, letter) != false) {
 1377              		.loc 1 202 11 is_stmt 0 view .LVU444
 1378 00dc 1AF0010F 		tst	r10, #1
 1379 00e0 BBD0     		beq	.L94
 203:Middlewares/lvgl/src/misc/lv_txt.c ****                 i = i_next;
 1380              		.loc 1 203 13 is_stmt 1 view .LVU445
 203:Middlewares/lvgl/src/misc/lv_txt.c ****                 i = i_next;
 1381              		.loc 1 203 16 is_stmt 0 view .LVU446
 1382 00e2 2146     		mov	r1, r4
 1383 00e4 1498     		ldr	r0, [sp, #80]
 1384              	.LVL133:
 203:Middlewares/lvgl/src/misc/lv_txt.c ****                 i = i_next;
 1385              		.loc 1 203 16 view .LVU447
 1386 00e6 FFF7FEFF 		bl	_lv_txt_is_cmd
 1387              	.LVL134:
 203:Middlewares/lvgl/src/misc/lv_txt.c ****                 i = i_next;
 1388              		.loc 1 203 15 view .LVU448
 1389 00ea 0028     		cmp	r0, #0
 1390 00ec B5D0     		beq	.L94
 204:Middlewares/lvgl/src/misc/lv_txt.c ****                 i_next = i_next_next;
 1391              		.loc 1 204 17 is_stmt 1 view .LVU449
 204:Middlewares/lvgl/src/misc/lv_txt.c ****                 i_next = i_next_next;
 1392              		.loc 1 204 19 is_stmt 0 view .LVU450
 1393 00ee 079E     		ldr	r6, [sp, #28]
ARM GAS  /tmp/ccWVSSdf.s 			page 51


 1394              	.LVL135:
 205:Middlewares/lvgl/src/misc/lv_txt.c ****                 letter = letter_next;
 1395              		.loc 1 205 17 is_stmt 1 view .LVU451
 205:Middlewares/lvgl/src/misc/lv_txt.c ****                 letter = letter_next;
 1396              		.loc 1 205 24 is_stmt 0 view .LVU452
 1397 00f0 069B     		ldr	r3, [sp, #24]
 1398 00f2 0793     		str	r3, [sp, #28]
 206:Middlewares/lvgl/src/misc/lv_txt.c ****                 continue;   /*Skip the letter is it is part of a command*/
 1399              		.loc 1 206 17 is_stmt 1 view .LVU453
 1400              	.LVL136:
 207:Middlewares/lvgl/src/misc/lv_txt.c ****             }
 1401              		.loc 1 207 17 view .LVU454
 1402 00f4 E6E7     		b	.L95
 1403              	.LVL137:
 1404              	.L114:
 1405              	.LBB27:
 1406              	.LBB24:
 175:Middlewares/lvgl/src/misc/lv_txt.h ****             ret = true; /*If match then it is break char*/
 1407              		.loc 3 175 17 is_stmt 0 view .LVU455
 1408 00f6 0123     		movs	r3, #1
 1409              	.LVL138:
 1410              		.loc 3 175 17 view .LVU456
 1411 00f8 DBE7     		b	.L100
 1412              	.LVL139:
 1413              	.L98:
 1414              		.loc 3 175 17 view .LVU457
 1415              	.LBE24:
 1416              	.LBE27:
 229:Middlewares/lvgl/src/misc/lv_txt.c ****             word_len--;
 1417              		.loc 1 229 13 is_stmt 1 view .LVU458
 229:Middlewares/lvgl/src/misc/lv_txt.c ****             word_len--;
 1418              		.loc 1 229 15 is_stmt 0 view .LVU459
 1419 00fa 16B9     		cbnz	r6, .L103
 229:Middlewares/lvgl/src/misc/lv_txt.c ****             word_len--;
 1420              		.loc 1 229 23 discriminator 1 view .LVU460
 1421 00fc B8F1FF3F 		cmp	r8, #-1
 1422 0100 0BD0     		beq	.L122
 1423              	.LVL140:
 1424              	.L103:
 243:Middlewares/lvgl/src/misc/lv_txt.c ****         if(word_len == 0 || (letter == '\r' && letter_next == '\n')) i = i_next;
 1425              		.loc 1 243 5 is_stmt 1 view .LVU461
 243:Middlewares/lvgl/src/misc/lv_txt.c ****         if(word_len == 0 || (letter == '\r' && letter_next == '\n')) i = i_next;
 1426              		.loc 1 243 7 is_stmt 0 view .LVU462
 1427 0102 B8F1FF3F 		cmp	r8, #-1
 1428 0106 0FD0     		beq	.L123
 276:Middlewares/lvgl/src/misc/lv_txt.c ****     if(word_w_ptr != NULL) *word_w_ptr = 0; /*Return no word*/
 1429              		.loc 1 276 5 is_stmt 1 view .LVU463
 276:Middlewares/lvgl/src/misc/lv_txt.c ****     if(word_w_ptr != NULL) *word_w_ptr = 0; /*Return no word*/
 1430              		.loc 1 276 7 is_stmt 0 view .LVU464
 1431 0108 059B     		ldr	r3, [sp, #20]
 1432 010a 0BBB     		cbnz	r3, .L90
 277:Middlewares/lvgl/src/misc/lv_txt.c ****     (void) break_letter_count;
 1433              		.loc 1 277 5 is_stmt 1 view .LVU465
 277:Middlewares/lvgl/src/misc/lv_txt.c ****     (void) break_letter_count;
 1434              		.loc 1 277 7 is_stmt 0 view .LVU466
 1435 010c 139B     		ldr	r3, [sp, #76]
 1436 010e 33B3     		cbz	r3, .L117
ARM GAS  /tmp/ccWVSSdf.s 			page 52


 277:Middlewares/lvgl/src/misc/lv_txt.c ****     (void) break_letter_count;
 1437              		.loc 1 277 28 is_stmt 1 discriminator 1 view .LVU467
 277:Middlewares/lvgl/src/misc/lv_txt.c ****     (void) break_letter_count;
 1438              		.loc 1 277 40 is_stmt 0 discriminator 1 view .LVU468
 1439 0110 0023     		movs	r3, #0
 1440 0112 139A     		ldr	r2, [sp, #76]
 1441 0114 1360     		str	r3, [r2]
 279:Middlewares/lvgl/src/misc/lv_txt.c **** #endif
 1442              		.loc 1 279 12 discriminator 1 view .LVU469
 1443 0116 9846     		mov	r8, r3
 1444              	.LVL141:
 279:Middlewares/lvgl/src/misc/lv_txt.c **** #endif
 1445              		.loc 1 279 12 discriminator 1 view .LVU470
 1446 0118 1AE0     		b	.L90
 1447              	.LVL142:
 1448              	.L122:
 229:Middlewares/lvgl/src/misc/lv_txt.c ****             word_len--;
 1449              		.loc 1 229 56 discriminator 2 view .LVU471
 1450 011a 139B     		ldr	r3, [sp, #76]
 1451 011c 002B     		cmp	r3, #0
 1452 011e F0D0     		beq	.L103
 229:Middlewares/lvgl/src/misc/lv_txt.c ****             word_len--;
 1453              		.loc 1 229 79 is_stmt 1 discriminator 3 view .LVU472
 229:Middlewares/lvgl/src/misc/lv_txt.c ****             word_len--;
 1454              		.loc 1 229 91 is_stmt 0 discriminator 3 view .LVU473
 1455 0120 1D60     		str	r5, [r3]
 1456 0122 EEE7     		b	.L103
 1457              	.L121:
 235:Middlewares/lvgl/src/misc/lv_txt.c **** 
 1458              		.loc 1 235 65 is_stmt 1 discriminator 2 view .LVU474
 235:Middlewares/lvgl/src/misc/lv_txt.c **** 
 1459              		.loc 1 235 77 is_stmt 0 discriminator 2 view .LVU475
 1460 0124 1D60     		str	r5, [r3]
 1461 0126 CAE7     		b	.L104
 1462              	.LVL143:
 1463              	.L123:
 244:Middlewares/lvgl/src/misc/lv_txt.c ****         return i;
 1464              		.loc 1 244 9 is_stmt 1 view .LVU476
 244:Middlewares/lvgl/src/misc/lv_txt.c ****         return i;
 1465              		.loc 1 244 11 is_stmt 0 view .LVU477
 1466 0128 B9F1000F 		cmp	r9, #0
 1467 012c 08D0     		beq	.L107
 244:Middlewares/lvgl/src/misc/lv_txt.c ****         return i;
 1468              		.loc 1 244 26 discriminator 2 view .LVU478
 1469 012e 0D2C     		cmp	r4, #13
 1470 0130 01D0     		beq	.L124
 1471 0132 B046     		mov	r8, r6
 1472              	.LVL144:
 244:Middlewares/lvgl/src/misc/lv_txt.c ****         return i;
 1473              		.loc 1 244 26 discriminator 2 view .LVU479
 1474 0134 0CE0     		b	.L90
 1475              	.LVL145:
 1476              	.L124:
 244:Middlewares/lvgl/src/misc/lv_txt.c ****         return i;
 1477              		.loc 1 244 45 discriminator 3 view .LVU480
 1478 0136 019B     		ldr	r3, [sp, #4]
 1479 0138 0A2B     		cmp	r3, #10
ARM GAS  /tmp/ccWVSSdf.s 			page 53


 1480 013a 01D0     		beq	.L107
 1481 013c B046     		mov	r8, r6
 1482              	.LVL146:
 245:Middlewares/lvgl/src/misc/lv_txt.c ****     }
 1483              		.loc 1 245 9 is_stmt 1 view .LVU481
 245:Middlewares/lvgl/src/misc/lv_txt.c ****     }
 1484              		.loc 1 245 16 is_stmt 0 view .LVU482
 1485 013e 07E0     		b	.L90
 1486              	.LVL147:
 1487              	.L107:
 244:Middlewares/lvgl/src/misc/lv_txt.c ****         return i;
 1488              		.loc 1 244 70 is_stmt 1 discriminator 4 view .LVU483
 244:Middlewares/lvgl/src/misc/lv_txt.c ****         return i;
 1489              		.loc 1 244 72 is_stmt 0 discriminator 4 view .LVU484
 1490 0140 DDF81C80 		ldr	r8, [sp, #28]
 1491              	.LVL148:
 244:Middlewares/lvgl/src/misc/lv_txt.c ****         return i;
 1492              		.loc 1 244 72 discriminator 4 view .LVU485
 1493 0144 04E0     		b	.L90
 1494              	.LVL149:
 1495              	.L109:
 179:Middlewares/lvgl/src/misc/lv_txt.c ****     if(font == NULL) return 0;
 1496              		.loc 1 179 46 view .LVU486
 1497 0146 4FF00008 		mov	r8, #0
 1498 014a 01E0     		b	.L90
 1499              	.L110:
 179:Middlewares/lvgl/src/misc/lv_txt.c ****     if(font == NULL) return 0;
 1500              		.loc 1 179 46 view .LVU487
 1501 014c 4FF00008 		mov	r8, #0
 1502              	.LVL150:
 1503              	.L90:
 281:Middlewares/lvgl/src/misc/lv_txt.c **** 
 1504              		.loc 1 281 1 view .LVU488
 1505 0150 4046     		mov	r0, r8
 1506 0152 09B0     		add	sp, sp, #36
 1507              	.LCFI23:
 1508              		.cfi_remember_state
 1509              		.cfi_def_cfa_offset 36
 1510              		@ sp needed
 1511 0154 BDE8F08F 		pop	{r4, r5, r6, r7, r8, r9, r10, fp, pc}
 1512              	.LVL151:
 1513              	.L111:
 1514              	.LCFI24:
 1515              		.cfi_restore_state
 180:Middlewares/lvgl/src/misc/lv_txt.c **** 
 1516              		.loc 1 180 29 view .LVU489
 1517 0158 4FF00008 		mov	r8, #0
 1518 015c F8E7     		b	.L90
 1519              	.LVL152:
 1520              	.L117:
 279:Middlewares/lvgl/src/misc/lv_txt.c **** #endif
 1521              		.loc 1 279 12 view .LVU490
 1522 015e 4FF00008 		mov	r8, #0
 1523              	.LVL153:
 279:Middlewares/lvgl/src/misc/lv_txt.c **** #endif
 1524              		.loc 1 279 12 view .LVU491
 1525 0162 F5E7     		b	.L90
ARM GAS  /tmp/ccWVSSdf.s 			page 54


 1526              	.L126:
 1527              		.align	2
 1528              	.L125:
 1529 0164 00000000 		.word	.LANCHOR1
 1530 0168 00000000 		.word	.LC0
 1531              		.cfi_endproc
 1532              	.LFE49:
 1534              		.section	.text._lv_txt_get_next_line,"ax",%progbits
 1535              		.align	1
 1536              		.global	_lv_txt_get_next_line
 1537              		.syntax unified
 1538              		.thumb
 1539              		.thumb_func
 1541              	_lv_txt_get_next_line:
 1542              	.LVL154:
 1543              	.LFB50:
 297:Middlewares/lvgl/src/misc/lv_txt.c ****     if(txt == NULL) return 0;
 1544              		.loc 1 297 1 is_stmt 1 view -0
 1545              		.cfi_startproc
 1546              		@ args = 4, pretend = 0, frame = 16
 1547              		@ frame_needed = 0, uses_anonymous_args = 0
 297:Middlewares/lvgl/src/misc/lv_txt.c ****     if(txt == NULL) return 0;
 1548              		.loc 1 297 1 is_stmt 0 view .LVU493
 1549 0000 2DE9F043 		push	{r4, r5, r6, r7, r8, r9, lr}
 1550              	.LCFI25:
 1551              		.cfi_def_cfa_offset 28
 1552              		.cfi_offset 4, -28
 1553              		.cfi_offset 5, -24
 1554              		.cfi_offset 6, -20
 1555              		.cfi_offset 7, -16
 1556              		.cfi_offset 8, -12
 1557              		.cfi_offset 9, -8
 1558              		.cfi_offset 14, -4
 1559 0004 89B0     		sub	sp, sp, #36
 1560              	.LCFI26:
 1561              		.cfi_def_cfa_offset 64
 1562 0006 9DF84090 		ldrb	r9, [sp, #64]	@ zero_extendqisi2
 298:Middlewares/lvgl/src/misc/lv_txt.c ****     if(font == NULL) return 0;
 1563              		.loc 1 298 5 is_stmt 1 view .LVU494
 298:Middlewares/lvgl/src/misc/lv_txt.c ****     if(font == NULL) return 0;
 1564              		.loc 1 298 7 is_stmt 0 view .LVU495
 1565 000a 0028     		cmp	r0, #0
 1566 000c 5FD0     		beq	.L143
 1567 000e 0F46     		mov	r7, r1
 1568 0010 9046     		mov	r8, r2
 1569 0012 1E46     		mov	r6, r3
 1570 0014 0546     		mov	r5, r0
 299:Middlewares/lvgl/src/misc/lv_txt.c **** 
 1571              		.loc 1 299 5 is_stmt 1 view .LVU496
 299:Middlewares/lvgl/src/misc/lv_txt.c **** 
 1572              		.loc 1 299 7 is_stmt 0 view .LVU497
 1573 0016 0029     		cmp	r1, #0
 1574 0018 5BD0     		beq	.L144
 303:Middlewares/lvgl/src/misc/lv_txt.c ****         uint32_t i;
 1575              		.loc 1 303 5 is_stmt 1 view .LVU498
 303:Middlewares/lvgl/src/misc/lv_txt.c ****         uint32_t i;
 1576              		.loc 1 303 7 is_stmt 0 view .LVU499
ARM GAS  /tmp/ccWVSSdf.s 			page 55


 1577 001a 19F0060F 		tst	r9, #6
 1578 001e 4BD1     		bne	.L149
 312:Middlewares/lvgl/src/misc/lv_txt.c ****     lv_text_cmd_state_t cmd_state = LV_TEXT_CMD_STATE_WAIT;
 1579              		.loc 1 312 5 is_stmt 1 view .LVU500
 312:Middlewares/lvgl/src/misc/lv_txt.c ****     lv_text_cmd_state_t cmd_state = LV_TEXT_CMD_STATE_WAIT;
 1580              		.loc 1 312 7 is_stmt 0 view .LVU501
 1581 0020 19F0020F 		tst	r9, #2
 1582 0024 01D0     		beq	.L134
 312:Middlewares/lvgl/src/misc/lv_txt.c ****     lv_text_cmd_state_t cmd_state = LV_TEXT_CMD_STATE_WAIT;
 1583              		.loc 1 312 46 view .LVU502
 1584 0026 4FF4C046 		mov	r6, #24576
 1585              	.L134:
 1586              	.LVL155:
 313:Middlewares/lvgl/src/misc/lv_txt.c ****     uint32_t i = 0;                                        /*Iterating index into txt*/
 1587              		.loc 1 313 5 is_stmt 1 view .LVU503
 313:Middlewares/lvgl/src/misc/lv_txt.c ****     uint32_t i = 0;                                        /*Iterating index into txt*/
 1588              		.loc 1 313 25 is_stmt 0 view .LVU504
 1589 002a 0023     		movs	r3, #0
 1590 002c 8DF81F30 		strb	r3, [sp, #31]
 314:Middlewares/lvgl/src/misc/lv_txt.c **** 
 1591              		.loc 1 314 5 is_stmt 1 view .LVU505
 314:Middlewares/lvgl/src/misc/lv_txt.c **** 
 1592              		.loc 1 314 14 is_stmt 0 view .LVU506
 1593 0030 0693     		str	r3, [sp, #24]
 316:Middlewares/lvgl/src/misc/lv_txt.c ****         uint32_t word_w = 0;
 1594              		.loc 1 316 5 is_stmt 1 view .LVU507
 1595              	.LVL156:
 1596              	.L135:
 316:Middlewares/lvgl/src/misc/lv_txt.c ****         uint32_t word_w = 0;
 1597              		.loc 1 316 10 view .LVU508
 316:Middlewares/lvgl/src/misc/lv_txt.c ****         uint32_t word_w = 0;
 1598              		.loc 1 316 14 is_stmt 0 view .LVU509
 1599 0032 069C     		ldr	r4, [sp, #24]
 1600 0034 2819     		adds	r0, r5, r4
 1601 0036 2B5D     		ldrb	r3, [r5, r4]	@ zero_extendqisi2
 316:Middlewares/lvgl/src/misc/lv_txt.c ****         uint32_t word_w = 0;
 1602              		.loc 1 316 10 view .LVU510
 1603 0038 3BB3     		cbz	r3, .L140
 316:Middlewares/lvgl/src/misc/lv_txt.c ****         uint32_t word_w = 0;
 1604              		.loc 1 316 26 discriminator 1 view .LVU511
 1605 003a 002E     		cmp	r6, #0
 1606 003c 25DD     		ble	.L140
 1607              	.LBB28:
 317:Middlewares/lvgl/src/misc/lv_txt.c ****         uint32_t advance = lv_txt_get_next_word(&txt[i], font, letter_space, max_width, flag, &word
 1608              		.loc 1 317 9 is_stmt 1 view .LVU512
 317:Middlewares/lvgl/src/misc/lv_txt.c ****         uint32_t advance = lv_txt_get_next_word(&txt[i], font, letter_space, max_width, flag, &word
 1609              		.loc 1 317 18 is_stmt 0 view .LVU513
 1610 003e 0023     		movs	r3, #0
 1611 0040 0593     		str	r3, [sp, #20]
 318:Middlewares/lvgl/src/misc/lv_txt.c ****         max_width -= word_w;
 1612              		.loc 1 318 9 is_stmt 1 view .LVU514
 318:Middlewares/lvgl/src/misc/lv_txt.c ****         max_width -= word_w;
 1613              		.loc 1 318 28 is_stmt 0 view .LVU515
 1614 0042 B4FA84F4 		clz	r4, r4
 1615 0046 6409     		lsrs	r4, r4, #5
 1616 0048 0394     		str	r4, [sp, #12]
 1617 004a 0DF11F03 		add	r3, sp, #31
ARM GAS  /tmp/ccWVSSdf.s 			page 56


 1618 004e 0293     		str	r3, [sp, #8]
 1619 0050 05AB     		add	r3, sp, #20
 1620 0052 0193     		str	r3, [sp, #4]
 1621 0054 CDF80090 		str	r9, [sp]
 1622 0058 3346     		mov	r3, r6
 1623 005a 4246     		mov	r2, r8
 1624 005c 3946     		mov	r1, r7
 1625 005e FFF7FEFF 		bl	lv_txt_get_next_word
 1626              	.LVL157:
 319:Middlewares/lvgl/src/misc/lv_txt.c **** 
 1627              		.loc 1 319 9 is_stmt 1 view .LVU516
 319:Middlewares/lvgl/src/misc/lv_txt.c **** 
 1628              		.loc 1 319 19 is_stmt 0 view .LVU517
 1629 0062 059B     		ldr	r3, [sp, #20]
 1630 0064 F61A     		subs	r6, r6, r3
 1631              	.LVL158:
 319:Middlewares/lvgl/src/misc/lv_txt.c **** 
 1632              		.loc 1 319 19 view .LVU518
 1633 0066 36B2     		sxth	r6, r6
 1634              	.LVL159:
 321:Middlewares/lvgl/src/misc/lv_txt.c ****             if(i == 0) _lv_txt_encoded_next(txt, &i); // prevent inf loops
 1635              		.loc 1 321 9 is_stmt 1 view .LVU519
 321:Middlewares/lvgl/src/misc/lv_txt.c ****             if(i == 0) _lv_txt_encoded_next(txt, &i); // prevent inf loops
 1636              		.loc 1 321 11 is_stmt 0 view .LVU520
 1637 0068 0346     		mov	r3, r0
 1638 006a 38B3     		cbz	r0, .L150
 326:Middlewares/lvgl/src/misc/lv_txt.c **** 
 1639              		.loc 1 326 9 is_stmt 1 view .LVU521
 326:Middlewares/lvgl/src/misc/lv_txt.c **** 
 1640              		.loc 1 326 11 is_stmt 0 view .LVU522
 1641 006c 069A     		ldr	r2, [sp, #24]
 1642 006e 1344     		add	r3, r3, r2
 1643 0070 0693     		str	r3, [sp, #24]
 328:Middlewares/lvgl/src/misc/lv_txt.c **** 
 1644              		.loc 1 328 9 is_stmt 1 view .LVU523
 328:Middlewares/lvgl/src/misc/lv_txt.c **** 
 1645              		.loc 1 328 15 is_stmt 0 view .LVU524
 1646 0072 2A78     		ldrb	r2, [r5]	@ zero_extendqisi2
 328:Middlewares/lvgl/src/misc/lv_txt.c **** 
 1647              		.loc 1 328 11 view .LVU525
 1648 0074 0A2A     		cmp	r2, #10
 1649 0076 08D0     		beq	.L140
 328:Middlewares/lvgl/src/misc/lv_txt.c **** 
 1650              		.loc 1 328 27 discriminator 1 view .LVU526
 1651 0078 0D2A     		cmp	r2, #13
 1652 007a 06D0     		beq	.L140
 330:Middlewares/lvgl/src/misc/lv_txt.c ****             i++;  /*Include the following newline in the current line*/
 1653              		.loc 1 330 9 is_stmt 1 view .LVU527
 330:Middlewares/lvgl/src/misc/lv_txt.c ****             i++;  /*Include the following newline in the current line*/
 1654              		.loc 1 330 15 is_stmt 0 view .LVU528
 1655 007c EA5C     		ldrb	r2, [r5, r3]	@ zero_extendqisi2
 330:Middlewares/lvgl/src/misc/lv_txt.c ****             i++;  /*Include the following newline in the current line*/
 1656              		.loc 1 330 11 view .LVU529
 1657 007e 0A2A     		cmp	r2, #10
 1658 0080 01D0     		beq	.L138
 330:Middlewares/lvgl/src/misc/lv_txt.c ****             i++;  /*Include the following newline in the current line*/
 1659              		.loc 1 330 27 discriminator 1 view .LVU530
ARM GAS  /tmp/ccWVSSdf.s 			page 57


 1660 0082 0D2A     		cmp	r2, #13
 1661 0084 D5D1     		bne	.L135
 1662              	.L138:
 331:Middlewares/lvgl/src/misc/lv_txt.c ****             break;
 1663              		.loc 1 331 13 is_stmt 1 view .LVU531
 331:Middlewares/lvgl/src/misc/lv_txt.c ****             break;
 1664              		.loc 1 331 14 is_stmt 0 view .LVU532
 1665 0086 0133     		adds	r3, r3, #1
 1666 0088 0693     		str	r3, [sp, #24]
 332:Middlewares/lvgl/src/misc/lv_txt.c ****         }
 1667              		.loc 1 332 13 is_stmt 1 view .LVU533
 1668              	.LVL160:
 1669              	.L140:
 332:Middlewares/lvgl/src/misc/lv_txt.c ****         }
 1670              		.loc 1 332 13 is_stmt 0 view .LVU534
 1671              	.LBE28:
 338:Middlewares/lvgl/src/misc/lv_txt.c ****         _lv_txt_encoded_next(txt, &i);
 1672              		.loc 1 338 5 is_stmt 1 view .LVU535
 338:Middlewares/lvgl/src/misc/lv_txt.c ****         _lv_txt_encoded_next(txt, &i);
 1673              		.loc 1 338 10 is_stmt 0 view .LVU536
 1674 008a 069B     		ldr	r3, [sp, #24]
 338:Middlewares/lvgl/src/misc/lv_txt.c ****         _lv_txt_encoded_next(txt, &i);
 1675              		.loc 1 338 7 view .LVU537
 1676 008c 23B9     		cbnz	r3, .L142
 339:Middlewares/lvgl/src/misc/lv_txt.c ****     }
 1677              		.loc 1 339 9 is_stmt 1 view .LVU538
 1678 008e 124B     		ldr	r3, .L151
 1679 0090 1B68     		ldr	r3, [r3]
 1680 0092 06A9     		add	r1, sp, #24
 1681 0094 2846     		mov	r0, r5
 1682 0096 9847     		blx	r3
 1683              	.LVL161:
 1684              	.L142:
 342:Middlewares/lvgl/src/misc/lv_txt.c **** }
 1685              		.loc 1 342 5 view .LVU539
 342:Middlewares/lvgl/src/misc/lv_txt.c **** }
 1686              		.loc 1 342 12 is_stmt 0 view .LVU540
 1687 0098 0698     		ldr	r0, [sp, #24]
 1688              	.LVL162:
 1689              	.L127:
 343:Middlewares/lvgl/src/misc/lv_txt.c **** 
 1690              		.loc 1 343 1 view .LVU541
 1691 009a 09B0     		add	sp, sp, #36
 1692              	.LCFI27:
 1693              		.cfi_remember_state
 1694              		.cfi_def_cfa_offset 28
 1695              		@ sp needed
 1696 009c BDE8F083 		pop	{r4, r5, r6, r7, r8, r9, pc}
 1697              	.LVL163:
 1698              	.L132:
 1699              	.LCFI28:
 1700              		.cfi_restore_state
 1701              	.LBB29:
 307:Middlewares/lvgl/src/misc/lv_txt.c ****         if(txt[i] != '\0') i++;    /*To go beyond `\n`*/
 1702              		.loc 1 307 9 is_stmt 1 discriminator 5 view .LVU542
 305:Middlewares/lvgl/src/misc/lv_txt.c ****             /*Just find the new line chars or string ends by incrementing `i`*/
 1703              		.loc 1 305 72 discriminator 5 view .LVU543
ARM GAS  /tmp/ccWVSSdf.s 			page 58


 305:Middlewares/lvgl/src/misc/lv_txt.c ****             /*Just find the new line chars or string ends by incrementing `i`*/
 1704              		.loc 1 305 73 is_stmt 0 discriminator 5 view .LVU544
 1705 00a0 0130     		adds	r0, r0, #1
 1706              	.LVL164:
 1707              	.L129:
 305:Middlewares/lvgl/src/misc/lv_txt.c ****             /*Just find the new line chars or string ends by incrementing `i`*/
 1708              		.loc 1 305 20 is_stmt 1 discriminator 1 view .LVU545
 305:Middlewares/lvgl/src/misc/lv_txt.c ****             /*Just find the new line chars or string ends by incrementing `i`*/
 1709              		.loc 1 305 23 is_stmt 0 discriminator 1 view .LVU546
 1710 00a2 2B5C     		ldrb	r3, [r5, r0]	@ zero_extendqisi2
 305:Middlewares/lvgl/src/misc/lv_txt.c ****             /*Just find the new line chars or string ends by incrementing `i`*/
 1711              		.loc 1 305 9 discriminator 1 view .LVU547
 1712 00a4 0A2B     		cmp	r3, #10
 1713 00a6 03D0     		beq	.L131
 305:Middlewares/lvgl/src/misc/lv_txt.c ****             /*Just find the new line chars or string ends by incrementing `i`*/
 1714              		.loc 1 305 35 discriminator 3 view .LVU548
 1715 00a8 0D2B     		cmp	r3, #13
 1716 00aa 01D0     		beq	.L131
 305:Middlewares/lvgl/src/misc/lv_txt.c ****             /*Just find the new line chars or string ends by incrementing `i`*/
 1717              		.loc 1 305 53 discriminator 4 view .LVU549
 1718 00ac 002B     		cmp	r3, #0
 1719 00ae F7D1     		bne	.L132
 1720              	.L131:
 308:Middlewares/lvgl/src/misc/lv_txt.c ****         return i;
 1721              		.loc 1 308 9 is_stmt 1 view .LVU550
 308:Middlewares/lvgl/src/misc/lv_txt.c ****         return i;
 1722              		.loc 1 308 11 is_stmt 0 view .LVU551
 1723 00b0 002B     		cmp	r3, #0
 1724 00b2 F2D0     		beq	.L127
 308:Middlewares/lvgl/src/misc/lv_txt.c ****         return i;
 1725              		.loc 1 308 28 is_stmt 1 discriminator 1 view .LVU552
 308:Middlewares/lvgl/src/misc/lv_txt.c ****         return i;
 1726              		.loc 1 308 29 is_stmt 0 discriminator 1 view .LVU553
 1727 00b4 0130     		adds	r0, r0, #1
 1728              	.LVL165:
 309:Middlewares/lvgl/src/misc/lv_txt.c ****     }
 1729              		.loc 1 309 9 is_stmt 1 discriminator 1 view .LVU554
 309:Middlewares/lvgl/src/misc/lv_txt.c ****     }
 1730              		.loc 1 309 16 is_stmt 0 discriminator 1 view .LVU555
 1731 00b6 F0E7     		b	.L127
 1732              	.LVL166:
 1733              	.L149:
 305:Middlewares/lvgl/src/misc/lv_txt.c ****             /*Just find the new line chars or string ends by incrementing `i`*/
 1734              		.loc 1 305 15 view .LVU556
 1735 00b8 0020     		movs	r0, #0
 1736              	.LVL167:
 305:Middlewares/lvgl/src/misc/lv_txt.c ****             /*Just find the new line chars or string ends by incrementing `i`*/
 1737              		.loc 1 305 15 view .LVU557
 1738 00ba F2E7     		b	.L129
 1739              	.LVL168:
 1740              	.L150:
 305:Middlewares/lvgl/src/misc/lv_txt.c ****             /*Just find the new line chars or string ends by incrementing `i`*/
 1741              		.loc 1 305 15 view .LVU558
 1742              	.LBE29:
 1743              	.LBB30:
 322:Middlewares/lvgl/src/misc/lv_txt.c ****             break;
 1744              		.loc 1 322 13 is_stmt 1 view .LVU559
ARM GAS  /tmp/ccWVSSdf.s 			page 59


 322:Middlewares/lvgl/src/misc/lv_txt.c ****             break;
 1745              		.loc 1 322 18 is_stmt 0 view .LVU560
 1746 00bc 069B     		ldr	r3, [sp, #24]
 322:Middlewares/lvgl/src/misc/lv_txt.c ****             break;
 1747              		.loc 1 322 15 view .LVU561
 1748 00be 002B     		cmp	r3, #0
 1749 00c0 E3D1     		bne	.L140
 322:Middlewares/lvgl/src/misc/lv_txt.c ****             break;
 1750              		.loc 1 322 24 is_stmt 1 discriminator 1 view .LVU562
 1751 00c2 054B     		ldr	r3, .L151
 1752 00c4 1B68     		ldr	r3, [r3]
 1753 00c6 06A9     		add	r1, sp, #24
 1754 00c8 2846     		mov	r0, r5
 1755              	.LVL169:
 322:Middlewares/lvgl/src/misc/lv_txt.c ****             break;
 1756              		.loc 1 322 24 is_stmt 0 discriminator 1 view .LVU563
 1757 00ca 9847     		blx	r3
 1758              	.LVL170:
 1759 00cc DDE7     		b	.L140
 1760              	.LVL171:
 1761              	.L143:
 322:Middlewares/lvgl/src/misc/lv_txt.c ****             break;
 1762              		.loc 1 322 24 discriminator 1 view .LVU564
 1763              	.LBE30:
 298:Middlewares/lvgl/src/misc/lv_txt.c ****     if(font == NULL) return 0;
 1764              		.loc 1 298 28 view .LVU565
 1765 00ce 0020     		movs	r0, #0
 1766              	.LVL172:
 298:Middlewares/lvgl/src/misc/lv_txt.c ****     if(font == NULL) return 0;
 1767              		.loc 1 298 28 view .LVU566
 1768 00d0 E3E7     		b	.L127
 1769              	.LVL173:
 1770              	.L144:
 299:Middlewares/lvgl/src/misc/lv_txt.c **** 
 1771              		.loc 1 299 29 view .LVU567
 1772 00d2 0020     		movs	r0, #0
 1773              	.LVL174:
 299:Middlewares/lvgl/src/misc/lv_txt.c **** 
 1774              		.loc 1 299 29 view .LVU568
 1775 00d4 E1E7     		b	.L127
 1776              	.L152:
 1777 00d6 00BF     		.align	2
 1778              	.L151:
 1779 00d8 00000000 		.word	.LANCHOR1
 1780              		.cfi_endproc
 1781              	.LFE50:
 1783              		.section	.text._lv_txt_ins,"ax",%progbits
 1784              		.align	1
 1785              		.global	_lv_txt_ins
 1786              		.syntax unified
 1787              		.thumb
 1788              		.thumb_func
 1790              	_lv_txt_ins:
 1791              	.LVL175:
 1792              	.LFB53:
 441:Middlewares/lvgl/src/misc/lv_txt.c ****     size_t old_len = strlen(txt_buf);
 1793              		.loc 1 441 1 is_stmt 1 view -0
ARM GAS  /tmp/ccWVSSdf.s 			page 60


 1794              		.cfi_startproc
 1795              		@ args = 0, pretend = 0, frame = 0
 1796              		@ frame_needed = 0, uses_anonymous_args = 0
 441:Middlewares/lvgl/src/misc/lv_txt.c ****     size_t old_len = strlen(txt_buf);
 1797              		.loc 1 441 1 is_stmt 0 view .LVU570
 1798 0000 2DE9F041 		push	{r4, r5, r6, r7, r8, lr}
 1799              	.LCFI29:
 1800              		.cfi_def_cfa_offset 24
 1801              		.cfi_offset 4, -24
 1802              		.cfi_offset 5, -20
 1803              		.cfi_offset 6, -16
 1804              		.cfi_offset 7, -12
 1805              		.cfi_offset 8, -8
 1806              		.cfi_offset 14, -4
 1807 0004 0646     		mov	r6, r0
 1808 0006 8846     		mov	r8, r1
 1809 0008 1746     		mov	r7, r2
 442:Middlewares/lvgl/src/misc/lv_txt.c ****     size_t ins_len = strlen(ins_txt);
 1810              		.loc 1 442 5 is_stmt 1 view .LVU571
 442:Middlewares/lvgl/src/misc/lv_txt.c ****     size_t ins_len = strlen(ins_txt);
 1811              		.loc 1 442 22 is_stmt 0 view .LVU572
 1812 000a FFF7FEFF 		bl	strlen
 1813              	.LVL176:
 442:Middlewares/lvgl/src/misc/lv_txt.c ****     size_t ins_len = strlen(ins_txt);
 1814              		.loc 1 442 22 view .LVU573
 1815 000e 0446     		mov	r4, r0
 1816              	.LVL177:
 443:Middlewares/lvgl/src/misc/lv_txt.c ****     if(ins_len == 0) return;
 1817              		.loc 1 443 5 is_stmt 1 view .LVU574
 443:Middlewares/lvgl/src/misc/lv_txt.c ****     if(ins_len == 0) return;
 1818              		.loc 1 443 22 is_stmt 0 view .LVU575
 1819 0010 3846     		mov	r0, r7
 1820              	.LVL178:
 443:Middlewares/lvgl/src/misc/lv_txt.c ****     if(ins_len == 0) return;
 1821              		.loc 1 443 22 view .LVU576
 1822 0012 FFF7FEFF 		bl	strlen
 1823              	.LVL179:
 444:Middlewares/lvgl/src/misc/lv_txt.c **** 
 1824              		.loc 1 444 5 is_stmt 1 view .LVU577
 444:Middlewares/lvgl/src/misc/lv_txt.c **** 
 1825              		.loc 1 444 7 is_stmt 0 view .LVU578
 1826 0016 B8B1     		cbz	r0, .L153
 1827 0018 0546     		mov	r5, r0
 446:Middlewares/lvgl/src/misc/lv_txt.c ****     pos              = _lv_txt_encoded_get_byte_id(txt_buf, pos); /*Convert to byte index instead o
 1828              		.loc 1 446 5 is_stmt 1 view .LVU579
 446:Middlewares/lvgl/src/misc/lv_txt.c ****     pos              = _lv_txt_encoded_get_byte_id(txt_buf, pos); /*Convert to byte index instead o
 1829              		.loc 1 446 12 is_stmt 0 view .LVU580
 1830 001a 0444     		add	r4, r4, r0
 1831              	.LVL180:
 447:Middlewares/lvgl/src/misc/lv_txt.c **** 
 1832              		.loc 1 447 5 is_stmt 1 view .LVU581
 447:Middlewares/lvgl/src/misc/lv_txt.c **** 
 1833              		.loc 1 447 24 is_stmt 0 view .LVU582
 1834 001c 0B4B     		ldr	r3, .L160
 1835 001e 1B68     		ldr	r3, [r3]
 1836 0020 4146     		mov	r1, r8
 1837 0022 3046     		mov	r0, r6
ARM GAS  /tmp/ccWVSSdf.s 			page 61


 1838              	.LVL181:
 447:Middlewares/lvgl/src/misc/lv_txt.c **** 
 1839              		.loc 1 447 24 view .LVU583
 1840 0024 9847     		blx	r3
 1841              	.LVL182:
 450:Middlewares/lvgl/src/misc/lv_txt.c ****     for(i = new_len; i >= pos + ins_len; i--) {
 1842              		.loc 1 450 5 is_stmt 1 view .LVU584
 451:Middlewares/lvgl/src/misc/lv_txt.c ****         txt_buf[i] = txt_buf[i - ins_len];
 1843              		.loc 1 451 5 view .LVU585
 451:Middlewares/lvgl/src/misc/lv_txt.c ****         txt_buf[i] = txt_buf[i - ins_len];
 1844              		.loc 1 451 5 is_stmt 0 view .LVU586
 1845 0026 03E0     		b	.L155
 1846              	.LVL183:
 1847              	.L156:
 452:Middlewares/lvgl/src/misc/lv_txt.c ****     }
 1848              		.loc 1 452 9 is_stmt 1 discriminator 3 view .LVU587
 452:Middlewares/lvgl/src/misc/lv_txt.c ****     }
 1849              		.loc 1 452 32 is_stmt 0 discriminator 3 view .LVU588
 1850 0028 631B     		subs	r3, r4, r5
 452:Middlewares/lvgl/src/misc/lv_txt.c ****     }
 1851              		.loc 1 452 29 discriminator 3 view .LVU589
 1852 002a F35C     		ldrb	r3, [r6, r3]	@ zero_extendqisi2
 452:Middlewares/lvgl/src/misc/lv_txt.c ****     }
 1853              		.loc 1 452 20 discriminator 3 view .LVU590
 1854 002c 3355     		strb	r3, [r6, r4]
 451:Middlewares/lvgl/src/misc/lv_txt.c ****         txt_buf[i] = txt_buf[i - ins_len];
 1855              		.loc 1 451 42 is_stmt 1 discriminator 3 view .LVU591
 451:Middlewares/lvgl/src/misc/lv_txt.c ****         txt_buf[i] = txt_buf[i - ins_len];
 1856              		.loc 1 451 43 is_stmt 0 discriminator 3 view .LVU592
 1857 002e 013C     		subs	r4, r4, #1
 1858              	.LVL184:
 1859              	.L155:
 451:Middlewares/lvgl/src/misc/lv_txt.c ****         txt_buf[i] = txt_buf[i - ins_len];
 1860              		.loc 1 451 22 is_stmt 1 discriminator 1 view .LVU593
 451:Middlewares/lvgl/src/misc/lv_txt.c ****         txt_buf[i] = txt_buf[i - ins_len];
 1861              		.loc 1 451 31 is_stmt 0 discriminator 1 view .LVU594
 1862 0030 2B18     		adds	r3, r5, r0
 451:Middlewares/lvgl/src/misc/lv_txt.c ****         txt_buf[i] = txt_buf[i - ins_len];
 1863              		.loc 1 451 5 discriminator 1 view .LVU595
 1864 0032 A342     		cmp	r3, r4
 1865 0034 F8D9     		bls	.L156
 456:Middlewares/lvgl/src/misc/lv_txt.c **** }
 1866              		.loc 1 456 5 is_stmt 1 view .LVU596
 456:Middlewares/lvgl/src/misc/lv_txt.c **** }
 1867              		.loc 1 456 29 is_stmt 0 view .LVU597
 1868 0036 0644     		add	r6, r6, r0
 1869              	.LVL185:
 1870              	.LBB31:
 1871              	.LBI31:
 201:Middlewares/lvgl/src/misc/lv_mem.h **** {
 1872              		.loc 2 201 44 is_stmt 1 view .LVU598
 1873              	.LBB32:
 203:Middlewares/lvgl/src/misc/lv_mem.h ****     const uint8_t * s8 = (const uint8_t *)src;
 1874              		.loc 2 203 5 view .LVU599
 204:Middlewares/lvgl/src/misc/lv_mem.h **** 
 1875              		.loc 2 204 5 view .LVU600
 206:Middlewares/lvgl/src/misc/lv_mem.h ****         *d8 = *s8;
ARM GAS  /tmp/ccWVSSdf.s 			page 62


 1876              		.loc 2 206 5 view .LVU601
 206:Middlewares/lvgl/src/misc/lv_mem.h ****         *d8 = *s8;
 1877              		.loc 2 206 10 is_stmt 0 view .LVU602
 1878 0038 04E0     		b	.L157
 1879              	.LVL186:
 1880              	.L158:
 207:Middlewares/lvgl/src/misc/lv_mem.h ****         d8++;
 1881              		.loc 2 207 9 is_stmt 1 view .LVU603
 207:Middlewares/lvgl/src/misc/lv_mem.h ****         d8++;
 1882              		.loc 2 207 15 is_stmt 0 view .LVU604
 1883 003a 17F8013B 		ldrb	r3, [r7], #1	@ zero_extendqisi2
 1884              	.LVL187:
 207:Middlewares/lvgl/src/misc/lv_mem.h ****         d8++;
 1885              		.loc 2 207 13 view .LVU605
 1886 003e 06F8013B 		strb	r3, [r6], #1
 1887              	.LVL188:
 208:Middlewares/lvgl/src/misc/lv_mem.h ****         s8++;
 1888              		.loc 2 208 9 is_stmt 1 view .LVU606
 209:Middlewares/lvgl/src/misc/lv_mem.h ****         len--;
 1889              		.loc 2 209 9 view .LVU607
 210:Middlewares/lvgl/src/misc/lv_mem.h ****     }
 1890              		.loc 2 210 9 view .LVU608
 210:Middlewares/lvgl/src/misc/lv_mem.h ****     }
 1891              		.loc 2 210 12 is_stmt 0 view .LVU609
 1892 0042 013D     		subs	r5, r5, #1
 1893              	.LVL189:
 1894              	.L157:
 206:Middlewares/lvgl/src/misc/lv_mem.h ****         *d8 = *s8;
 1895              		.loc 2 206 10 is_stmt 1 view .LVU610
 1896 0044 002D     		cmp	r5, #0
 1897 0046 F8D1     		bne	.L158
 1898              	.LVL190:
 1899              	.L153:
 206:Middlewares/lvgl/src/misc/lv_mem.h ****         *d8 = *s8;
 1900              		.loc 2 206 10 is_stmt 0 view .LVU611
 1901              	.LBE32:
 1902              	.LBE31:
 457:Middlewares/lvgl/src/misc/lv_txt.c **** 
 1903              		.loc 1 457 1 view .LVU612
 1904 0048 BDE8F081 		pop	{r4, r5, r6, r7, r8, pc}
 1905              	.L161:
 1906              		.align	2
 1907              	.L160:
 1908 004c 00000000 		.word	.LANCHOR2
 1909              		.cfi_endproc
 1910              	.LFE53:
 1912              		.section	.text._lv_txt_cut,"ax",%progbits
 1913              		.align	1
 1914              		.global	_lv_txt_cut
 1915              		.syntax unified
 1916              		.thumb
 1917              		.thumb_func
 1919              	_lv_txt_cut:
 1920              	.LVL191:
 1921              	.LFB54:
 467:Middlewares/lvgl/src/misc/lv_txt.c **** 
 1922              		.loc 1 467 1 is_stmt 1 view -0
ARM GAS  /tmp/ccWVSSdf.s 			page 63


 1923              		.cfi_startproc
 1924              		@ args = 0, pretend = 0, frame = 0
 1925              		@ frame_needed = 0, uses_anonymous_args = 0
 467:Middlewares/lvgl/src/misc/lv_txt.c **** 
 1926              		.loc 1 467 1 is_stmt 0 view .LVU614
 1927 0000 2DE9F041 		push	{r4, r5, r6, r7, r8, lr}
 1928              	.LCFI30:
 1929              		.cfi_def_cfa_offset 24
 1930              		.cfi_offset 4, -24
 1931              		.cfi_offset 5, -20
 1932              		.cfi_offset 6, -16
 1933              		.cfi_offset 7, -12
 1934              		.cfi_offset 8, -8
 1935              		.cfi_offset 14, -4
 1936 0004 0546     		mov	r5, r0
 1937 0006 0C46     		mov	r4, r1
 1938 0008 1746     		mov	r7, r2
 469:Middlewares/lvgl/src/misc/lv_txt.c **** 
 1939              		.loc 1 469 5 is_stmt 1 view .LVU615
 469:Middlewares/lvgl/src/misc/lv_txt.c **** 
 1940              		.loc 1 469 22 is_stmt 0 view .LVU616
 1941 000a FFF7FEFF 		bl	strlen
 1942              	.LVL192:
 469:Middlewares/lvgl/src/misc/lv_txt.c **** 
 1943              		.loc 1 469 22 view .LVU617
 1944 000e 0646     		mov	r6, r0
 1945              	.LVL193:
 471:Middlewares/lvgl/src/misc/lv_txt.c ****     len = _lv_txt_encoded_get_byte_id(&txt[pos], len);
 1946              		.loc 1 471 5 is_stmt 1 view .LVU618
 471:Middlewares/lvgl/src/misc/lv_txt.c ****     len = _lv_txt_encoded_get_byte_id(&txt[pos], len);
 1947              		.loc 1 471 11 is_stmt 0 view .LVU619
 1948 0010 DFF82C80 		ldr	r8, .L166
 1949 0014 D8F80030 		ldr	r3, [r8]
 1950 0018 2146     		mov	r1, r4
 1951 001a 2846     		mov	r0, r5
 1952              	.LVL194:
 471:Middlewares/lvgl/src/misc/lv_txt.c ****     len = _lv_txt_encoded_get_byte_id(&txt[pos], len);
 1953              		.loc 1 471 11 view .LVU620
 1954 001c 9847     		blx	r3
 1955              	.LVL195:
 1956 001e 0446     		mov	r4, r0
 1957              	.LVL196:
 472:Middlewares/lvgl/src/misc/lv_txt.c **** 
 1958              		.loc 1 472 5 is_stmt 1 view .LVU621
 472:Middlewares/lvgl/src/misc/lv_txt.c **** 
 1959              		.loc 1 472 11 is_stmt 0 view .LVU622
 1960 0020 D8F80030 		ldr	r3, [r8]
 1961 0024 3946     		mov	r1, r7
 1962 0026 2818     		adds	r0, r5, r0
 1963              	.LVL197:
 472:Middlewares/lvgl/src/misc/lv_txt.c **** 
 1964              		.loc 1 472 11 view .LVU623
 1965 0028 9847     		blx	r3
 1966              	.LVL198:
 475:Middlewares/lvgl/src/misc/lv_txt.c ****     for(i = pos; i <= old_len - len; i++) {
 1967              		.loc 1 475 5 is_stmt 1 view .LVU624
 476:Middlewares/lvgl/src/misc/lv_txt.c ****         txt[i] = txt[i + len];
ARM GAS  /tmp/ccWVSSdf.s 			page 64


 1968              		.loc 1 476 5 view .LVU625
 476:Middlewares/lvgl/src/misc/lv_txt.c ****         txt[i] = txt[i + len];
 1969              		.loc 1 476 5 is_stmt 0 view .LVU626
 1970 002a 03E0     		b	.L163
 1971              	.LVL199:
 1972              	.L164:
 477:Middlewares/lvgl/src/misc/lv_txt.c ****     }
 1973              		.loc 1 477 9 is_stmt 1 discriminator 3 view .LVU627
 477:Middlewares/lvgl/src/misc/lv_txt.c ****     }
 1974              		.loc 1 477 24 is_stmt 0 discriminator 3 view .LVU628
 1975 002c 2318     		adds	r3, r4, r0
 477:Middlewares/lvgl/src/misc/lv_txt.c ****     }
 1976              		.loc 1 477 21 discriminator 3 view .LVU629
 1977 002e EB5C     		ldrb	r3, [r5, r3]	@ zero_extendqisi2
 477:Middlewares/lvgl/src/misc/lv_txt.c ****     }
 1978              		.loc 1 477 16 discriminator 3 view .LVU630
 1979 0030 2B55     		strb	r3, [r5, r4]
 476:Middlewares/lvgl/src/misc/lv_txt.c ****         txt[i] = txt[i + len];
 1980              		.loc 1 476 38 is_stmt 1 discriminator 3 view .LVU631
 476:Middlewares/lvgl/src/misc/lv_txt.c ****         txt[i] = txt[i + len];
 1981              		.loc 1 476 39 is_stmt 0 discriminator 3 view .LVU632
 1982 0032 0134     		adds	r4, r4, #1
 1983              	.LVL200:
 1984              	.L163:
 476:Middlewares/lvgl/src/misc/lv_txt.c ****         txt[i] = txt[i + len];
 1985              		.loc 1 476 18 is_stmt 1 discriminator 1 view .LVU633
 476:Middlewares/lvgl/src/misc/lv_txt.c ****         txt[i] = txt[i + len];
 1986              		.loc 1 476 31 is_stmt 0 discriminator 1 view .LVU634
 1987 0034 331A     		subs	r3, r6, r0
 476:Middlewares/lvgl/src/misc/lv_txt.c ****         txt[i] = txt[i + len];
 1988              		.loc 1 476 5 discriminator 1 view .LVU635
 1989 0036 A342     		cmp	r3, r4
 1990 0038 F8D2     		bcs	.L164
 479:Middlewares/lvgl/src/misc/lv_txt.c **** 
 1991              		.loc 1 479 1 view .LVU636
 1992 003a BDE8F081 		pop	{r4, r5, r6, r7, r8, pc}
 1993              	.LVL201:
 1994              	.L167:
 479:Middlewares/lvgl/src/misc/lv_txt.c **** 
 1995              		.loc 1 479 1 view .LVU637
 1996 003e 00BF     		.align	2
 1997              	.L166:
 1998 0040 00000000 		.word	.LANCHOR2
 1999              		.cfi_endproc
 2000              	.LFE54:
 2002              		.section	.text._lv_txt_set_text_vfmt,"ax",%progbits
 2003              		.align	1
 2004              		.global	_lv_txt_set_text_vfmt
 2005              		.syntax unified
 2006              		.thumb
 2007              		.thumb_func
 2009              	_lv_txt_set_text_vfmt:
 2010              	.LVL202:
 2011              	.LFB55:
 487:Middlewares/lvgl/src/misc/lv_txt.c ****     /*Allocate space for the new text by using trick from C99 standard section 7.19.6.12*/
 2012              		.loc 1 487 1 is_stmt 1 view -0
 2013              		.cfi_startproc
ARM GAS  /tmp/ccWVSSdf.s 			page 65


 2014              		@ args = 0, pretend = 0, frame = 8
 2015              		@ frame_needed = 0, uses_anonymous_args = 0
 487:Middlewares/lvgl/src/misc/lv_txt.c ****     /*Allocate space for the new text by using trick from C99 standard section 7.19.6.12*/
 2016              		.loc 1 487 1 is_stmt 0 view .LVU639
 2017 0000 2DE9F041 		push	{r4, r5, r6, r7, r8, lr}
 2018              	.LCFI31:
 2019              		.cfi_def_cfa_offset 24
 2020              		.cfi_offset 4, -24
 2021              		.cfi_offset 5, -20
 2022              		.cfi_offset 6, -16
 2023              		.cfi_offset 7, -12
 2024              		.cfi_offset 8, -8
 2025              		.cfi_offset 14, -4
 2026 0004 82B0     		sub	sp, sp, #8
 2027              	.LCFI32:
 2028              		.cfi_def_cfa_offset 32
 2029 0006 0546     		mov	r5, r0
 2030 0008 0C46     		mov	r4, r1
 2031              	.LVL203:
 489:Middlewares/lvgl/src/misc/lv_txt.c ****     va_copy(ap_copy, ap);
 2032              		.loc 1 489 5 is_stmt 1 view .LVU640
 490:Middlewares/lvgl/src/misc/lv_txt.c ****     uint32_t len = lv_vsnprintf(NULL, 0, fmt, ap_copy);
 2033              		.loc 1 490 5 view .LVU641
 490:Middlewares/lvgl/src/misc/lv_txt.c ****     uint32_t len = lv_vsnprintf(NULL, 0, fmt, ap_copy);
 2034              		.loc 1 490 5 is_stmt 0 view .LVU642
 2035 000a 0191     		str	r1, [sp, #4]
 491:Middlewares/lvgl/src/misc/lv_txt.c ****     va_end(ap_copy);
 2036              		.loc 1 491 5 is_stmt 1 view .LVU643
 491:Middlewares/lvgl/src/misc/lv_txt.c ****     va_end(ap_copy);
 2037              		.loc 1 491 20 is_stmt 0 view .LVU644
 2038 000c 0B46     		mov	r3, r1
 2039 000e 0246     		mov	r2, r0
 2040 0010 0021     		movs	r1, #0
 2041              	.LVL204:
 491:Middlewares/lvgl/src/misc/lv_txt.c ****     va_end(ap_copy);
 2042              		.loc 1 491 20 view .LVU645
 2043 0012 0846     		mov	r0, r1
 2044              	.LVL205:
 491:Middlewares/lvgl/src/misc/lv_txt.c ****     va_end(ap_copy);
 2045              		.loc 1 491 20 view .LVU646
 2046 0014 FFF7FEFF 		bl	lv_vsnprintf
 2047              	.LVL206:
 491:Middlewares/lvgl/src/misc/lv_txt.c ****     va_end(ap_copy);
 2048              		.loc 1 491 20 view .LVU647
 2049 0018 0646     		mov	r6, r0
 2050              	.LVL207:
 492:Middlewares/lvgl/src/misc/lv_txt.c **** 
 2051              		.loc 1 492 5 is_stmt 1 view .LVU648
 494:Middlewares/lvgl/src/misc/lv_txt.c **** #if LV_USE_ARABIC_PERSIAN_CHARS
 2052              		.loc 1 494 5 view .LVU649
 516:Middlewares/lvgl/src/misc/lv_txt.c ****     LV_ASSERT_MALLOC(text);
 2053              		.loc 1 516 5 view .LVU650
 516:Middlewares/lvgl/src/misc/lv_txt.c ****     LV_ASSERT_MALLOC(text);
 2054              		.loc 1 516 29 is_stmt 0 view .LVU651
 2055 001a 00F10108 		add	r8, r0, #1
 516:Middlewares/lvgl/src/misc/lv_txt.c ****     LV_ASSERT_MALLOC(text);
 2056              		.loc 1 516 12 view .LVU652
ARM GAS  /tmp/ccWVSSdf.s 			page 66


 2057 001e 4046     		mov	r0, r8
 2058              	.LVL208:
 516:Middlewares/lvgl/src/misc/lv_txt.c ****     LV_ASSERT_MALLOC(text);
 2059              		.loc 1 516 12 view .LVU653
 2060 0020 FFF7FEFF 		bl	lv_mem_alloc
 2061              	.LVL209:
 517:Middlewares/lvgl/src/misc/lv_txt.c ****     if(text == NULL) {
 2062              		.loc 1 517 5 is_stmt 1 view .LVU654
 517:Middlewares/lvgl/src/misc/lv_txt.c ****     if(text == NULL) {
 2063              		.loc 1 517 5 view .LVU655
 2064 0024 58B1     		cbz	r0, .L170
 2065 0026 0746     		mov	r7, r0
 517:Middlewares/lvgl/src/misc/lv_txt.c ****     if(text == NULL) {
 2066              		.loc 1 517 5 view .LVU656
 517:Middlewares/lvgl/src/misc/lv_txt.c ****     if(text == NULL) {
 2067              		.loc 1 517 27 view .LVU657
 518:Middlewares/lvgl/src/misc/lv_txt.c ****         return NULL;
 2068              		.loc 1 518 5 view .LVU658
 521:Middlewares/lvgl/src/misc/lv_txt.c **** 
 2069              		.loc 1 521 5 view .LVU659
 521:Middlewares/lvgl/src/misc/lv_txt.c **** 
 2070              		.loc 1 521 15 is_stmt 0 view .LVU660
 2071 0028 0023     		movs	r3, #0
 2072 002a 8355     		strb	r3, [r0, r6]
 523:Middlewares/lvgl/src/misc/lv_txt.c **** #endif
 2073              		.loc 1 523 5 is_stmt 1 view .LVU661
 2074              	.LVL210:
 523:Middlewares/lvgl/src/misc/lv_txt.c **** #endif
 2075              		.loc 1 523 5 is_stmt 0 view .LVU662
 2076 002c 2346     		mov	r3, r4
 2077 002e 2A46     		mov	r2, r5
 2078 0030 4146     		mov	r1, r8
 2079 0032 FFF7FEFF 		bl	lv_vsnprintf
 2080              	.LVL211:
 526:Middlewares/lvgl/src/misc/lv_txt.c **** }
 2081              		.loc 1 526 5 is_stmt 1 view .LVU663
 527:Middlewares/lvgl/src/misc/lv_txt.c **** 
 2082              		.loc 1 527 1 is_stmt 0 view .LVU664
 2083 0036 3846     		mov	r0, r7
 2084 0038 02B0     		add	sp, sp, #8
 2085              	.LCFI33:
 2086              		.cfi_remember_state
 2087              		.cfi_def_cfa_offset 24
 2088              		@ sp needed
 2089 003a BDE8F081 		pop	{r4, r5, r6, r7, r8, pc}
 2090              	.LVL212:
 2091              	.L170:
 2092              	.LCFI34:
 2093              		.cfi_restore_state
 517:Middlewares/lvgl/src/misc/lv_txt.c ****     if(text == NULL) {
 2094              		.loc 1 517 5 is_stmt 1 discriminator 1 view .LVU665
 517:Middlewares/lvgl/src/misc/lv_txt.c ****     if(text == NULL) {
 2095              		.loc 1 517 5 discriminator 1 view .LVU666
 517:Middlewares/lvgl/src/misc/lv_txt.c ****     if(text == NULL) {
 2096              		.loc 1 517 5 discriminator 1 view .LVU667
 517:Middlewares/lvgl/src/misc/lv_txt.c ****     if(text == NULL) {
 2097              		.loc 1 517 5 discriminator 1 view .LVU668
ARM GAS  /tmp/ccWVSSdf.s 			page 67


 2098 003e FEE7     		b	.L170
 2099              		.cfi_endproc
 2100              	.LFE55:
 2102              		.section	.text._lv_txt_encoded_letter_next_2,"ax",%progbits
 2103              		.align	1
 2104              		.global	_lv_txt_encoded_letter_next_2
 2105              		.syntax unified
 2106              		.thumb
 2107              		.thumb_func
 2109              	_lv_txt_encoded_letter_next_2:
 2110              	.LVL213:
 2111              	.LFB56:
 530:Middlewares/lvgl/src/misc/lv_txt.c ****     *letter = _lv_txt_encoded_next(txt, ofs);
 2112              		.loc 1 530 1 view -0
 2113              		.cfi_startproc
 2114              		@ args = 0, pretend = 0, frame = 0
 2115              		@ frame_needed = 0, uses_anonymous_args = 0
 530:Middlewares/lvgl/src/misc/lv_txt.c ****     *letter = _lv_txt_encoded_next(txt, ofs);
 2116              		.loc 1 530 1 is_stmt 0 view .LVU670
 2117 0000 F8B5     		push	{r3, r4, r5, r6, r7, lr}
 2118              	.LCFI35:
 2119              		.cfi_def_cfa_offset 24
 2120              		.cfi_offset 3, -24
 2121              		.cfi_offset 4, -20
 2122              		.cfi_offset 5, -16
 2123              		.cfi_offset 6, -12
 2124              		.cfi_offset 7, -8
 2125              		.cfi_offset 14, -4
 2126 0002 0746     		mov	r7, r0
 2127 0004 0E46     		mov	r6, r1
 2128 0006 1546     		mov	r5, r2
 2129 0008 1C46     		mov	r4, r3
 531:Middlewares/lvgl/src/misc/lv_txt.c ****     *letter_next = *letter != '\0' ? _lv_txt_encoded_next(&txt[*ofs], NULL) : 0;
 2130              		.loc 1 531 5 is_stmt 1 view .LVU671
 531:Middlewares/lvgl/src/misc/lv_txt.c ****     *letter_next = *letter != '\0' ? _lv_txt_encoded_next(&txt[*ofs], NULL) : 0;
 2131              		.loc 1 531 15 is_stmt 0 view .LVU672
 2132 000a 074B     		ldr	r3, .L175
 2133              	.LVL214:
 531:Middlewares/lvgl/src/misc/lv_txt.c ****     *letter_next = *letter != '\0' ? _lv_txt_encoded_next(&txt[*ofs], NULL) : 0;
 2134              		.loc 1 531 15 view .LVU673
 2135 000c 1B68     		ldr	r3, [r3]
 2136 000e 2146     		mov	r1, r4
 2137              	.LVL215:
 531:Middlewares/lvgl/src/misc/lv_txt.c ****     *letter_next = *letter != '\0' ? _lv_txt_encoded_next(&txt[*ofs], NULL) : 0;
 2138              		.loc 1 531 15 view .LVU674
 2139 0010 9847     		blx	r3
 2140              	.LVL216:
 531:Middlewares/lvgl/src/misc/lv_txt.c ****     *letter_next = *letter != '\0' ? _lv_txt_encoded_next(&txt[*ofs], NULL) : 0;
 2141              		.loc 1 531 13 view .LVU675
 2142 0012 3060     		str	r0, [r6]
 532:Middlewares/lvgl/src/misc/lv_txt.c **** }
 2143              		.loc 1 532 5 is_stmt 1 view .LVU676
 532:Middlewares/lvgl/src/misc/lv_txt.c **** }
 2144              		.loc 1 532 77 is_stmt 0 view .LVU677
 2145 0014 28B1     		cbz	r0, .L173
 532:Middlewares/lvgl/src/misc/lv_txt.c **** }
 2146              		.loc 1 532 64 discriminator 1 view .LVU678
ARM GAS  /tmp/ccWVSSdf.s 			page 68


 2147 0016 2068     		ldr	r0, [r4]
 532:Middlewares/lvgl/src/misc/lv_txt.c **** }
 2148              		.loc 1 532 38 discriminator 1 view .LVU679
 2149 0018 034B     		ldr	r3, .L175
 2150 001a 1B68     		ldr	r3, [r3]
 2151 001c 0021     		movs	r1, #0
 2152 001e 3844     		add	r0, r0, r7
 2153 0020 9847     		blx	r3
 2154              	.LVL217:
 2155              	.L173:
 532:Middlewares/lvgl/src/misc/lv_txt.c **** }
 2156              		.loc 1 532 18 discriminator 4 view .LVU680
 2157 0022 2860     		str	r0, [r5]
 533:Middlewares/lvgl/src/misc/lv_txt.c **** 
 2158              		.loc 1 533 1 discriminator 4 view .LVU681
 2159 0024 F8BD     		pop	{r3, r4, r5, r6, r7, pc}
 2160              	.LVL218:
 2161              	.L176:
 533:Middlewares/lvgl/src/misc/lv_txt.c **** 
 2162              		.loc 1 533 1 discriminator 4 view .LVU682
 2163 0026 00BF     		.align	2
 2164              	.L175:
 2165 0028 00000000 		.word	.LANCHOR1
 2166              		.cfi_endproc
 2167              	.LFE56:
 2169              		.section	.text.lv_txt_get_width,"ax",%progbits
 2170              		.align	1
 2171              		.global	lv_txt_get_width
 2172              		.syntax unified
 2173              		.thumb
 2174              		.thumb_func
 2176              	lv_txt_get_width:
 2177              	.LVL219:
 2178              	.LFB51:
 357:Middlewares/lvgl/src/misc/lv_txt.c ****     if(txt == NULL) return 0;
 2179              		.loc 1 357 1 is_stmt 1 view -0
 2180              		.cfi_startproc
 2181              		@ args = 4, pretend = 0, frame = 16
 2182              		@ frame_needed = 0, uses_anonymous_args = 0
 357:Middlewares/lvgl/src/misc/lv_txt.c ****     if(txt == NULL) return 0;
 2183              		.loc 1 357 1 is_stmt 0 view .LVU684
 2184 0000 2DE9F043 		push	{r4, r5, r6, r7, r8, r9, lr}
 2185              	.LCFI36:
 2186              		.cfi_def_cfa_offset 28
 2187              		.cfi_offset 4, -28
 2188              		.cfi_offset 5, -24
 2189              		.cfi_offset 6, -20
 2190              		.cfi_offset 7, -16
 2191              		.cfi_offset 8, -12
 2192              		.cfi_offset 9, -8
 2193              		.cfi_offset 14, -4
 2194 0004 85B0     		sub	sp, sp, #20
 2195              	.LCFI37:
 2196              		.cfi_def_cfa_offset 48
 2197 0006 9DF83080 		ldrb	r8, [sp, #48]	@ zero_extendqisi2
 358:Middlewares/lvgl/src/misc/lv_txt.c ****     if(font == NULL) return 0;
 2198              		.loc 1 358 5 is_stmt 1 view .LVU685
ARM GAS  /tmp/ccWVSSdf.s 			page 69


 358:Middlewares/lvgl/src/misc/lv_txt.c ****     if(font == NULL) return 0;
 2199              		.loc 1 358 7 is_stmt 0 view .LVU686
 2200 000a 0028     		cmp	r0, #0
 2201 000c 3BD0     		beq	.L184
 2202 000e 0C46     		mov	r4, r1
 2203 0010 1546     		mov	r5, r2
 2204 0012 1E46     		mov	r6, r3
 2205 0014 0746     		mov	r7, r0
 359:Middlewares/lvgl/src/misc/lv_txt.c ****     if(txt[0] == '\0') return 0;
 2206              		.loc 1 359 5 is_stmt 1 view .LVU687
 359:Middlewares/lvgl/src/misc/lv_txt.c ****     if(txt[0] == '\0') return 0;
 2207              		.loc 1 359 7 is_stmt 0 view .LVU688
 2208 0016 002A     		cmp	r2, #0
 2209 0018 38D0     		beq	.L185
 360:Middlewares/lvgl/src/misc/lv_txt.c **** 
 2210              		.loc 1 360 5 is_stmt 1 view .LVU689
 360:Middlewares/lvgl/src/misc/lv_txt.c **** 
 2211              		.loc 1 360 11 is_stmt 0 view .LVU690
 2212 001a 0378     		ldrb	r3, [r0]	@ zero_extendqisi2
 2213              	.LVL220:
 360:Middlewares/lvgl/src/misc/lv_txt.c **** 
 2214              		.loc 1 360 7 view .LVU691
 2215 001c 002B     		cmp	r3, #0
 2216 001e 38D0     		beq	.L186
 362:Middlewares/lvgl/src/misc/lv_txt.c ****     lv_coord_t width             = 0;
 2217              		.loc 1 362 5 is_stmt 1 view .LVU692
 362:Middlewares/lvgl/src/misc/lv_txt.c ****     lv_coord_t width             = 0;
 2218              		.loc 1 362 14 is_stmt 0 view .LVU693
 2219 0020 0023     		movs	r3, #0
 2220 0022 0393     		str	r3, [sp, #12]
 363:Middlewares/lvgl/src/misc/lv_txt.c ****     lv_text_cmd_state_t cmd_state = LV_TEXT_CMD_STATE_WAIT;
 2221              		.loc 1 363 5 is_stmt 1 view .LVU694
 2222              	.LVL221:
 364:Middlewares/lvgl/src/misc/lv_txt.c **** 
 2223              		.loc 1 364 5 view .LVU695
 364:Middlewares/lvgl/src/misc/lv_txt.c **** 
 2224              		.loc 1 364 25 is_stmt 0 view .LVU696
 2225 0024 8DF80B30 		strb	r3, [sp, #11]
 366:Middlewares/lvgl/src/misc/lv_txt.c ****         while(i < length) {
 2226              		.loc 1 366 5 is_stmt 1 view .LVU697
 366:Middlewares/lvgl/src/misc/lv_txt.c ****         while(i < length) {
 2227              		.loc 1 366 7 is_stmt 0 view .LVU698
 2228 0028 11BB     		cbnz	r1, .L187
 363:Middlewares/lvgl/src/misc/lv_txt.c ****     lv_text_cmd_state_t cmd_state = LV_TEXT_CMD_STATE_WAIT;
 2229              		.loc 1 363 16 view .LVU699
 2230 002a 9946     		mov	r9, r3
 2231 002c 33E0     		b	.L178
 2232              	.LVL222:
 2233              	.L180:
 2234              	.LBB33:
 378:Middlewares/lvgl/src/misc/lv_txt.c ****             if(char_width > 0) {
 2235              		.loc 1 378 13 is_stmt 1 view .LVU700
 378:Middlewares/lvgl/src/misc/lv_txt.c ****             if(char_width > 0) {
 2236              		.loc 1 378 37 is_stmt 0 view .LVU701
 2237 002e 019A     		ldr	r2, [sp, #4]
 2238 0030 0099     		ldr	r1, [sp]
 2239 0032 2846     		mov	r0, r5
ARM GAS  /tmp/ccWVSSdf.s 			page 70


 2240 0034 FFF7FEFF 		bl	lv_font_get_glyph_width
 2241              	.LVL223:
 378:Middlewares/lvgl/src/misc/lv_txt.c ****             if(char_width > 0) {
 2242              		.loc 1 378 24 view .LVU702
 2243 0038 03B2     		sxth	r3, r0
 2244              	.LVL224:
 379:Middlewares/lvgl/src/misc/lv_txt.c ****                 width += char_width;
 2245              		.loc 1 379 13 is_stmt 1 view .LVU703
 379:Middlewares/lvgl/src/misc/lv_txt.c ****                 width += char_width;
 2246              		.loc 1 379 15 is_stmt 0 view .LVU704
 2247 003a 002B     		cmp	r3, #0
 2248 003c 04DD     		ble	.L179
 380:Middlewares/lvgl/src/misc/lv_txt.c ****                 width += letter_space;
 2249              		.loc 1 380 17 is_stmt 1 view .LVU705
 380:Middlewares/lvgl/src/misc/lv_txt.c ****                 width += letter_space;
 2250              		.loc 1 380 23 is_stmt 0 view .LVU706
 2251 003e 4844     		add	r0, r0, r9
 2252              	.LVL225:
 381:Middlewares/lvgl/src/misc/lv_txt.c ****             }
 2253              		.loc 1 381 17 is_stmt 1 view .LVU707
 381:Middlewares/lvgl/src/misc/lv_txt.c ****             }
 2254              		.loc 1 381 23 is_stmt 0 view .LVU708
 2255 0040 16FA80F0 		uxtah	r0, r6, r0
 2256              	.LVL226:
 381:Middlewares/lvgl/src/misc/lv_txt.c ****             }
 2257              		.loc 1 381 23 view .LVU709
 2258 0044 0FFA80F9 		sxth	r9, r0
 2259              	.LVL227:
 2260              	.L179:
 381:Middlewares/lvgl/src/misc/lv_txt.c ****             }
 2261              		.loc 1 381 23 view .LVU710
 2262              	.LBE33:
 367:Middlewares/lvgl/src/misc/lv_txt.c ****             uint32_t letter;
 2263              		.loc 1 367 14 is_stmt 1 view .LVU711
 367:Middlewares/lvgl/src/misc/lv_txt.c ****             uint32_t letter;
 2264              		.loc 1 367 17 is_stmt 0 view .LVU712
 2265 0048 039B     		ldr	r3, [sp, #12]
 367:Middlewares/lvgl/src/misc/lv_txt.c ****             uint32_t letter;
 2266              		.loc 1 367 14 view .LVU713
 2267 004a A342     		cmp	r3, r4
 2268 004c 13D2     		bcs	.L189
 2269              	.LBB34:
 368:Middlewares/lvgl/src/misc/lv_txt.c ****             uint32_t letter_next;
 2270              		.loc 1 368 13 is_stmt 1 view .LVU714
 369:Middlewares/lvgl/src/misc/lv_txt.c ****             _lv_txt_encoded_letter_next_2(txt, &letter, &letter_next, &i);
 2271              		.loc 1 369 13 view .LVU715
 370:Middlewares/lvgl/src/misc/lv_txt.c **** 
 2272              		.loc 1 370 13 view .LVU716
 2273 004e 03AB     		add	r3, sp, #12
 2274 0050 01AA     		add	r2, sp, #4
 2275 0052 6946     		mov	r1, sp
 2276 0054 3846     		mov	r0, r7
 2277 0056 FFF7FEFF 		bl	_lv_txt_encoded_letter_next_2
 2278              	.LVL228:
 372:Middlewares/lvgl/src/misc/lv_txt.c ****                 if(_lv_txt_is_cmd(&cmd_state, letter) != false) {
 2279              		.loc 1 372 13 view .LVU717
 372:Middlewares/lvgl/src/misc/lv_txt.c ****                 if(_lv_txt_is_cmd(&cmd_state, letter) != false) {
ARM GAS  /tmp/ccWVSSdf.s 			page 71


 2280              		.loc 1 372 15 is_stmt 0 view .LVU718
 2281 005a 18F0010F 		tst	r8, #1
 2282 005e E6D0     		beq	.L180
 373:Middlewares/lvgl/src/misc/lv_txt.c ****                     continue;
 2283              		.loc 1 373 17 is_stmt 1 view .LVU719
 373:Middlewares/lvgl/src/misc/lv_txt.c ****                     continue;
 2284              		.loc 1 373 20 is_stmt 0 view .LVU720
 2285 0060 0099     		ldr	r1, [sp]
 2286 0062 0DF10B00 		add	r0, sp, #11
 2287 0066 FFF7FEFF 		bl	_lv_txt_is_cmd
 2288              	.LVL229:
 373:Middlewares/lvgl/src/misc/lv_txt.c ****                     continue;
 2289              		.loc 1 373 19 view .LVU721
 2290 006a 0028     		cmp	r0, #0
 2291 006c DFD0     		beq	.L180
 2292 006e EBE7     		b	.L179
 2293              	.LVL230:
 2294              	.L187:
 373:Middlewares/lvgl/src/misc/lv_txt.c ****                     continue;
 2295              		.loc 1 373 19 view .LVU722
 2296              	.LBE34:
 363:Middlewares/lvgl/src/misc/lv_txt.c ****     lv_text_cmd_state_t cmd_state = LV_TEXT_CMD_STATE_WAIT;
 2297              		.loc 1 363 16 view .LVU723
 2298 0070 4FF00009 		mov	r9, #0
 2299 0074 E8E7     		b	.L179
 2300              	.LVL231:
 2301              	.L189:
 385:Middlewares/lvgl/src/misc/lv_txt.c ****             width -= letter_space; /*Trim the last letter space. Important if the text is center
 2302              		.loc 1 385 9 is_stmt 1 view .LVU724
 385:Middlewares/lvgl/src/misc/lv_txt.c ****             width -= letter_space; /*Trim the last letter space. Important if the text is center
 2303              		.loc 1 385 11 is_stmt 0 view .LVU725
 2304 0076 B9F1000F 		cmp	r9, #0
 2305 007a 0CDD     		ble	.L178
 386:Middlewares/lvgl/src/misc/lv_txt.c ****                                       aligned*/
 2306              		.loc 1 386 13 is_stmt 1 view .LVU726
 386:Middlewares/lvgl/src/misc/lv_txt.c ****                                       aligned*/
 2307              		.loc 1 386 19 is_stmt 0 view .LVU727
 2308 007c A9EB0600 		sub	r0, r9, r6
 2309 0080 0FFA80F9 		sxth	r9, r0
 2310              	.LVL232:
 386:Middlewares/lvgl/src/misc/lv_txt.c ****                                       aligned*/
 2311              		.loc 1 386 19 view .LVU728
 2312 0084 07E0     		b	.L178
 2313              	.LVL233:
 2314              	.L184:
 358:Middlewares/lvgl/src/misc/lv_txt.c ****     if(font == NULL) return 0;
 2315              		.loc 1 358 28 view .LVU729
 2316 0086 4FF00009 		mov	r9, #0
 2317 008a 04E0     		b	.L178
 2318              	.L185:
 359:Middlewares/lvgl/src/misc/lv_txt.c ****     if(txt[0] == '\0') return 0;
 2319              		.loc 1 359 29 view .LVU730
 2320 008c 4FF00009 		mov	r9, #0
 2321 0090 01E0     		b	.L178
 2322              	.LVL234:
 2323              	.L186:
 360:Middlewares/lvgl/src/misc/lv_txt.c **** 
ARM GAS  /tmp/ccWVSSdf.s 			page 72


 2324              		.loc 1 360 31 view .LVU731
 2325 0092 4FF00009 		mov	r9, #0
 2326              	.LVL235:
 2327              	.L178:
 392:Middlewares/lvgl/src/misc/lv_txt.c **** 
 2328              		.loc 1 392 1 view .LVU732
 2329 0096 4846     		mov	r0, r9
 2330 0098 05B0     		add	sp, sp, #20
 2331              	.LCFI38:
 2332              		.cfi_def_cfa_offset 28
 2333              		@ sp needed
 2334 009a BDE8F083 		pop	{r4, r5, r6, r7, r8, r9, pc}
 392:Middlewares/lvgl/src/misc/lv_txt.c **** 
 2335              		.loc 1 392 1 view .LVU733
 2336              		.cfi_endproc
 2337              	.LFE51:
 2339              		.section	.text.lv_txt_get_size,"ax",%progbits
 2340              		.align	1
 2341              		.global	lv_txt_get_size
 2342              		.syntax unified
 2343              		.thumb
 2344              		.thumb_func
 2346              	lv_txt_get_size:
 2347              	.LVL236:
 2348              	.LFB48:
  98:Middlewares/lvgl/src/misc/lv_txt.c ****     size_res->x = 0;
 2349              		.loc 1 98 1 is_stmt 1 view -0
 2350              		.cfi_startproc
 2351              		@ args = 12, pretend = 0, frame = 16
 2352              		@ frame_needed = 0, uses_anonymous_args = 0
  98:Middlewares/lvgl/src/misc/lv_txt.c ****     size_res->x = 0;
 2353              		.loc 1 98 1 is_stmt 0 view .LVU735
 2354 0000 2DE9F04F 		push	{r4, r5, r6, r7, r8, r9, r10, fp, lr}
 2355              	.LCFI39:
 2356              		.cfi_def_cfa_offset 36
 2357              		.cfi_offset 4, -36
 2358              		.cfi_offset 5, -32
 2359              		.cfi_offset 6, -28
 2360              		.cfi_offset 7, -24
 2361              		.cfi_offset 8, -20
 2362              		.cfi_offset 9, -16
 2363              		.cfi_offset 10, -12
 2364              		.cfi_offset 11, -8
 2365              		.cfi_offset 14, -4
 2366 0004 87B0     		sub	sp, sp, #28
 2367              	.LCFI40:
 2368              		.cfi_def_cfa_offset 64
 2369 0006 0393     		str	r3, [sp, #12]
 2370 0008 BDF940A0 		ldrsh	r10, [sp, #64]
 2371 000c BDF94430 		ldrsh	r3, [sp, #68]
 2372              	.LVL237:
  98:Middlewares/lvgl/src/misc/lv_txt.c ****     size_res->x = 0;
 2373              		.loc 1 98 1 view .LVU736
 2374 0010 0493     		str	r3, [sp, #16]
 2375 0012 9DF84890 		ldrb	r9, [sp, #72]	@ zero_extendqisi2
  99:Middlewares/lvgl/src/misc/lv_txt.c ****     size_res->y = 0;
 2376              		.loc 1 99 5 is_stmt 1 view .LVU737
ARM GAS  /tmp/ccWVSSdf.s 			page 73


  99:Middlewares/lvgl/src/misc/lv_txt.c ****     size_res->y = 0;
 2377              		.loc 1 99 17 is_stmt 0 view .LVU738
 2378 0016 0023     		movs	r3, #0
 2379 0018 0380     		strh	r3, [r0]	@ movhi
 100:Middlewares/lvgl/src/misc/lv_txt.c **** 
 2380              		.loc 1 100 5 is_stmt 1 view .LVU739
 100:Middlewares/lvgl/src/misc/lv_txt.c **** 
 2381              		.loc 1 100 17 is_stmt 0 view .LVU740
 2382 001a 4380     		strh	r3, [r0, #2]	@ movhi
 102:Middlewares/lvgl/src/misc/lv_txt.c ****     if(font == NULL) return;
 2383              		.loc 1 102 5 is_stmt 1 view .LVU741
 102:Middlewares/lvgl/src/misc/lv_txt.c ****     if(font == NULL) return;
 2384              		.loc 1 102 7 is_stmt 0 view .LVU742
 2385 001c 0029     		cmp	r1, #0
 2386 001e 4CD0     		beq	.L190
 2387 0020 0446     		mov	r4, r0
 2388 0022 1746     		mov	r7, r2
 2389 0024 8846     		mov	r8, r1
 103:Middlewares/lvgl/src/misc/lv_txt.c **** 
 2390              		.loc 1 103 5 is_stmt 1 view .LVU743
 103:Middlewares/lvgl/src/misc/lv_txt.c **** 
 2391              		.loc 1 103 7 is_stmt 0 view .LVU744
 2392 0026 002A     		cmp	r2, #0
 2393 0028 47D0     		beq	.L190
 105:Middlewares/lvgl/src/misc/lv_txt.c **** 
 2394              		.loc 1 105 5 is_stmt 1 view .LVU745
 105:Middlewares/lvgl/src/misc/lv_txt.c **** 
 2395              		.loc 1 105 7 is_stmt 0 view .LVU746
 2396 002a 19F0020F 		tst	r9, #2
 2397 002e 02D0     		beq	.L192
 105:Middlewares/lvgl/src/misc/lv_txt.c **** 
 2398              		.loc 1 105 46 view .LVU747
 2399 0030 4FF4C043 		mov	r3, #24576
 2400 0034 0493     		str	r3, [sp, #16]
 2401              	.L192:
 2402              	.LVL238:
 107:Middlewares/lvgl/src/misc/lv_txt.c ****     uint32_t new_line_start = 0;
 2403              		.loc 1 107 5 is_stmt 1 view .LVU748
 108:Middlewares/lvgl/src/misc/lv_txt.c ****     uint16_t letter_height = lv_font_get_line_height(font);
 2404              		.loc 1 108 5 view .LVU749
 109:Middlewares/lvgl/src/misc/lv_txt.c **** 
 2405              		.loc 1 109 5 view .LVU750
 2406              	.LBB35:
 2407              	.LBI35:
 2408              		.file 4 "Middlewares/lvgl/src/misc/../font/lv_font.h"
   1:Middlewares/lvgl/src/misc/../font/lv_font.h **** /**
   2:Middlewares/lvgl/src/misc/../font/lv_font.h ****  * @file lv_font.h
   3:Middlewares/lvgl/src/misc/../font/lv_font.h ****  *
   4:Middlewares/lvgl/src/misc/../font/lv_font.h ****  */
   5:Middlewares/lvgl/src/misc/../font/lv_font.h **** 
   6:Middlewares/lvgl/src/misc/../font/lv_font.h **** #ifndef LV_FONT_H
   7:Middlewares/lvgl/src/misc/../font/lv_font.h **** #define LV_FONT_H
   8:Middlewares/lvgl/src/misc/../font/lv_font.h **** 
   9:Middlewares/lvgl/src/misc/../font/lv_font.h **** #ifdef __cplusplus
  10:Middlewares/lvgl/src/misc/../font/lv_font.h **** extern "C" {
  11:Middlewares/lvgl/src/misc/../font/lv_font.h **** #endif
  12:Middlewares/lvgl/src/misc/../font/lv_font.h **** 
ARM GAS  /tmp/ccWVSSdf.s 			page 74


  13:Middlewares/lvgl/src/misc/../font/lv_font.h **** /*********************
  14:Middlewares/lvgl/src/misc/../font/lv_font.h ****  *      INCLUDES
  15:Middlewares/lvgl/src/misc/../font/lv_font.h ****  *********************/
  16:Middlewares/lvgl/src/misc/../font/lv_font.h **** #include "../lv_conf_internal.h"
  17:Middlewares/lvgl/src/misc/../font/lv_font.h **** #include <stdint.h>
  18:Middlewares/lvgl/src/misc/../font/lv_font.h **** #include <stddef.h>
  19:Middlewares/lvgl/src/misc/../font/lv_font.h **** #include <stdbool.h>
  20:Middlewares/lvgl/src/misc/../font/lv_font.h **** 
  21:Middlewares/lvgl/src/misc/../font/lv_font.h **** #include "lv_symbol_def.h"
  22:Middlewares/lvgl/src/misc/../font/lv_font.h **** #include "../misc/lv_area.h"
  23:Middlewares/lvgl/src/misc/../font/lv_font.h **** 
  24:Middlewares/lvgl/src/misc/../font/lv_font.h **** /*********************
  25:Middlewares/lvgl/src/misc/../font/lv_font.h ****  *      DEFINES
  26:Middlewares/lvgl/src/misc/../font/lv_font.h ****  *********************/
  27:Middlewares/lvgl/src/misc/../font/lv_font.h **** 
  28:Middlewares/lvgl/src/misc/../font/lv_font.h **** /**********************
  29:Middlewares/lvgl/src/misc/../font/lv_font.h ****  *      TYPEDEFS
  30:Middlewares/lvgl/src/misc/../font/lv_font.h ****  **********************/
  31:Middlewares/lvgl/src/misc/../font/lv_font.h **** 
  32:Middlewares/lvgl/src/misc/../font/lv_font.h **** /*------------------
  33:Middlewares/lvgl/src/misc/../font/lv_font.h ****  * General types
  34:Middlewares/lvgl/src/misc/../font/lv_font.h ****  *-----------------*/
  35:Middlewares/lvgl/src/misc/../font/lv_font.h **** 
  36:Middlewares/lvgl/src/misc/../font/lv_font.h **** /** Describes the properties of a glyph.*/
  37:Middlewares/lvgl/src/misc/../font/lv_font.h **** typedef struct {
  38:Middlewares/lvgl/src/misc/../font/lv_font.h ****     uint16_t adv_w; /**< The glyph needs this space. Draw the next glyph after this width.*/
  39:Middlewares/lvgl/src/misc/../font/lv_font.h ****     uint16_t box_w;  /**< Width of the glyph's bounding box*/
  40:Middlewares/lvgl/src/misc/../font/lv_font.h ****     uint16_t box_h;  /**< Height of the glyph's bounding box*/
  41:Middlewares/lvgl/src/misc/../font/lv_font.h ****     int16_t ofs_x;   /**< x offset of the bounding box*/
  42:Middlewares/lvgl/src/misc/../font/lv_font.h ****     int16_t ofs_y;  /**< y offset of the bounding box*/
  43:Middlewares/lvgl/src/misc/../font/lv_font.h ****     uint8_t bpp;   /**< Bit-per-pixel: 1, 2, 4, 8*/
  44:Middlewares/lvgl/src/misc/../font/lv_font.h **** } lv_font_glyph_dsc_t;
  45:Middlewares/lvgl/src/misc/../font/lv_font.h **** 
  46:Middlewares/lvgl/src/misc/../font/lv_font.h **** /** The bitmaps might be upscaled by 3 to achieve subpixel rendering.*/
  47:Middlewares/lvgl/src/misc/../font/lv_font.h **** enum {
  48:Middlewares/lvgl/src/misc/../font/lv_font.h ****     LV_FONT_SUBPX_NONE,
  49:Middlewares/lvgl/src/misc/../font/lv_font.h ****     LV_FONT_SUBPX_HOR,
  50:Middlewares/lvgl/src/misc/../font/lv_font.h ****     LV_FONT_SUBPX_VER,
  51:Middlewares/lvgl/src/misc/../font/lv_font.h ****     LV_FONT_SUBPX_BOTH,
  52:Middlewares/lvgl/src/misc/../font/lv_font.h **** };
  53:Middlewares/lvgl/src/misc/../font/lv_font.h **** 
  54:Middlewares/lvgl/src/misc/../font/lv_font.h **** typedef uint8_t lv_font_subpx_t;
  55:Middlewares/lvgl/src/misc/../font/lv_font.h **** 
  56:Middlewares/lvgl/src/misc/../font/lv_font.h **** struct _lv_font_t;
  57:Middlewares/lvgl/src/misc/../font/lv_font.h **** 
  58:Middlewares/lvgl/src/misc/../font/lv_font.h **** /** Describe the properties of a font*/
  59:Middlewares/lvgl/src/misc/../font/lv_font.h **** typedef struct _lv_font_t {
  60:Middlewares/lvgl/src/misc/../font/lv_font.h ****     /** Get a glyph's descriptor from a font*/
  61:Middlewares/lvgl/src/misc/../font/lv_font.h ****     bool (*get_glyph_dsc)(const struct _lv_font_t *, lv_font_glyph_dsc_t *, uint32_t letter, uint32
  62:Middlewares/lvgl/src/misc/../font/lv_font.h **** 
  63:Middlewares/lvgl/src/misc/../font/lv_font.h ****     /** Get a glyph's bitmap from a font*/
  64:Middlewares/lvgl/src/misc/../font/lv_font.h ****     const uint8_t * (*get_glyph_bitmap)(const struct _lv_font_t *, uint32_t);
  65:Middlewares/lvgl/src/misc/../font/lv_font.h **** 
  66:Middlewares/lvgl/src/misc/../font/lv_font.h ****     /*Pointer to the font in a font pack (must have the same line height)*/
  67:Middlewares/lvgl/src/misc/../font/lv_font.h ****     lv_coord_t line_height;         /**< The real line height where any text fits*/
  68:Middlewares/lvgl/src/misc/../font/lv_font.h ****     lv_coord_t base_line;           /**< Base line measured from the top of the line_height*/
  69:Middlewares/lvgl/src/misc/../font/lv_font.h ****     uint8_t subpx  : 2;             /**< An element of `lv_font_subpx_t`*/
ARM GAS  /tmp/ccWVSSdf.s 			page 75


  70:Middlewares/lvgl/src/misc/../font/lv_font.h **** 
  71:Middlewares/lvgl/src/misc/../font/lv_font.h ****     int8_t underline_position;      /**< Distance between the top of the underline and base line (<
  72:Middlewares/lvgl/src/misc/../font/lv_font.h ****     int8_t underline_thickness;     /**< Thickness of the underline*/
  73:Middlewares/lvgl/src/misc/../font/lv_font.h **** 
  74:Middlewares/lvgl/src/misc/../font/lv_font.h ****     const void * dsc;                     /**< Store implementation specific or run_time data or ca
  75:Middlewares/lvgl/src/misc/../font/lv_font.h **** #if LV_USE_USER_DATA
  76:Middlewares/lvgl/src/misc/../font/lv_font.h ****     void * user_data;               /**< Custom user data for font.*/
  77:Middlewares/lvgl/src/misc/../font/lv_font.h **** #endif
  78:Middlewares/lvgl/src/misc/../font/lv_font.h **** 
  79:Middlewares/lvgl/src/misc/../font/lv_font.h **** } lv_font_t;
  80:Middlewares/lvgl/src/misc/../font/lv_font.h **** 
  81:Middlewares/lvgl/src/misc/../font/lv_font.h **** /**********************
  82:Middlewares/lvgl/src/misc/../font/lv_font.h ****  * GLOBAL PROTOTYPES
  83:Middlewares/lvgl/src/misc/../font/lv_font.h ****  **********************/
  84:Middlewares/lvgl/src/misc/../font/lv_font.h **** 
  85:Middlewares/lvgl/src/misc/../font/lv_font.h **** /**
  86:Middlewares/lvgl/src/misc/../font/lv_font.h ****  * Return with the bitmap of a font.
  87:Middlewares/lvgl/src/misc/../font/lv_font.h ****  * @param font_p pointer to a font
  88:Middlewares/lvgl/src/misc/../font/lv_font.h ****  * @param letter an UNICODE character code
  89:Middlewares/lvgl/src/misc/../font/lv_font.h ****  * @return pointer to the bitmap of the letter
  90:Middlewares/lvgl/src/misc/../font/lv_font.h ****  */
  91:Middlewares/lvgl/src/misc/../font/lv_font.h **** const uint8_t * lv_font_get_glyph_bitmap(const lv_font_t * font_p, uint32_t letter);
  92:Middlewares/lvgl/src/misc/../font/lv_font.h **** 
  93:Middlewares/lvgl/src/misc/../font/lv_font.h **** /**
  94:Middlewares/lvgl/src/misc/../font/lv_font.h ****  * Get the descriptor of a glyph
  95:Middlewares/lvgl/src/misc/../font/lv_font.h ****  * @param font_p pointer to font
  96:Middlewares/lvgl/src/misc/../font/lv_font.h ****  * @param dsc_out store the result descriptor here
  97:Middlewares/lvgl/src/misc/../font/lv_font.h ****  * @param letter an UNICODE letter code
  98:Middlewares/lvgl/src/misc/../font/lv_font.h ****  * @return true: descriptor is successfully loaded into `dsc_out`.
  99:Middlewares/lvgl/src/misc/../font/lv_font.h ****  *         false: the letter was not found, no data is loaded to `dsc_out`
 100:Middlewares/lvgl/src/misc/../font/lv_font.h ****  */
 101:Middlewares/lvgl/src/misc/../font/lv_font.h **** bool lv_font_get_glyph_dsc(const lv_font_t * font_p, lv_font_glyph_dsc_t * dsc_out, uint32_t letter
 102:Middlewares/lvgl/src/misc/../font/lv_font.h ****                            uint32_t letter_next);
 103:Middlewares/lvgl/src/misc/../font/lv_font.h **** 
 104:Middlewares/lvgl/src/misc/../font/lv_font.h **** /**
 105:Middlewares/lvgl/src/misc/../font/lv_font.h ****  * Get the width of a glyph with kerning
 106:Middlewares/lvgl/src/misc/../font/lv_font.h ****  * @param font pointer to a font
 107:Middlewares/lvgl/src/misc/../font/lv_font.h ****  * @param letter an UNICODE letter
 108:Middlewares/lvgl/src/misc/../font/lv_font.h ****  * @param letter_next the next letter after `letter`. Used for kerning
 109:Middlewares/lvgl/src/misc/../font/lv_font.h ****  * @return the width of the glyph
 110:Middlewares/lvgl/src/misc/../font/lv_font.h ****  */
 111:Middlewares/lvgl/src/misc/../font/lv_font.h **** uint16_t lv_font_get_glyph_width(const lv_font_t * font, uint32_t letter, uint32_t letter_next);
 112:Middlewares/lvgl/src/misc/../font/lv_font.h **** 
 113:Middlewares/lvgl/src/misc/../font/lv_font.h **** /**
 114:Middlewares/lvgl/src/misc/../font/lv_font.h ****  * Get the line height of a font. All characters fit into this height
 115:Middlewares/lvgl/src/misc/../font/lv_font.h ****  * @param font_p pointer to a font
 116:Middlewares/lvgl/src/misc/../font/lv_font.h ****  * @return the height of a font
 117:Middlewares/lvgl/src/misc/../font/lv_font.h ****  */
 118:Middlewares/lvgl/src/misc/../font/lv_font.h **** static inline lv_coord_t lv_font_get_line_height(const lv_font_t * font_p)
 2409              		.loc 4 118 26 view .LVU751
 2410              	.LBB36:
 119:Middlewares/lvgl/src/misc/../font/lv_font.h **** {
 120:Middlewares/lvgl/src/misc/../font/lv_font.h ****     return font_p->line_height;
 2411              		.loc 4 120 5 view .LVU752
 2412              		.loc 4 120 18 is_stmt 0 view .LVU753
 2413 0036 B7F90830 		ldrsh	r3, [r7, #8]
 2414 003a 0593     		str	r3, [sp, #20]
ARM GAS  /tmp/ccWVSSdf.s 			page 76


 2415              	.LVL239:
 2416              		.loc 4 120 18 view .LVU754
 2417              	.LBE36:
 2418              	.LBE35:
 109:Middlewares/lvgl/src/misc/lv_txt.c **** 
 2419              		.loc 1 109 14 view .LVU755
 2420 003c 1FFA83FB 		uxth	fp, r3
 2421              	.LVL240:
 112:Middlewares/lvgl/src/misc/lv_txt.c ****         new_line_start += _lv_txt_get_next_line(&text[line_start], font, letter_space, max_width, f
 2422              		.loc 1 112 5 is_stmt 1 view .LVU756
 107:Middlewares/lvgl/src/misc/lv_txt.c ****     uint32_t new_line_start = 0;
 2423              		.loc 1 107 14 is_stmt 0 view .LVU757
 2424 0040 0025     		movs	r5, #0
 2425              	.LVL241:
 2426              	.L193:
 112:Middlewares/lvgl/src/misc/lv_txt.c ****         new_line_start += _lv_txt_get_next_line(&text[line_start], font, letter_space, max_width, f
 2427              		.loc 1 112 10 is_stmt 1 view .LVU758
 112:Middlewares/lvgl/src/misc/lv_txt.c ****         new_line_start += _lv_txt_get_next_line(&text[line_start], font, letter_space, max_width, f
 2428              		.loc 1 112 15 is_stmt 0 view .LVU759
 2429 0042 08EB0506 		add	r6, r8, r5
 2430 0046 18F80530 		ldrb	r3, [r8, r5]	@ zero_extendqisi2
 112:Middlewares/lvgl/src/misc/lv_txt.c ****         new_line_start += _lv_txt_get_next_line(&text[line_start], font, letter_space, max_width, f
 2431              		.loc 1 112 10 view .LVU760
 2432 004a 23B3     		cbz	r3, .L200
 2433              	.LBB37:
 113:Middlewares/lvgl/src/misc/lv_txt.c **** 
 2434              		.loc 1 113 9 is_stmt 1 view .LVU761
 113:Middlewares/lvgl/src/misc/lv_txt.c **** 
 2435              		.loc 1 113 27 is_stmt 0 view .LVU762
 2436 004c CDF80090 		str	r9, [sp]
 2437 0050 049B     		ldr	r3, [sp, #16]
 2438 0052 039A     		ldr	r2, [sp, #12]
 2439 0054 3946     		mov	r1, r7
 2440 0056 3046     		mov	r0, r6
 2441 0058 FFF7FEFF 		bl	_lv_txt_get_next_line
 2442              	.LVL242:
 2443 005c 0146     		mov	r1, r0
 113:Middlewares/lvgl/src/misc/lv_txt.c **** 
 2444              		.loc 1 113 24 view .LVU763
 2445 005e 0544     		add	r5, r5, r0
 2446              	.LVL243:
 115:Middlewares/lvgl/src/misc/lv_txt.c ****             LV_LOG_WARN("lv_txt_get_size: integer overflow while calculating text height");
 2447              		.loc 1 115 9 is_stmt 1 view .LVU764
 115:Middlewares/lvgl/src/misc/lv_txt.c ****             LV_LOG_WARN("lv_txt_get_size: integer overflow while calculating text height");
 2448              		.loc 1 115 35 is_stmt 0 view .LVU765
 2449 0060 B4F90230 		ldrsh	r3, [r4, #2]
 115:Middlewares/lvgl/src/misc/lv_txt.c ****             LV_LOG_WARN("lv_txt_get_size: integer overflow while calculating text height");
 2450              		.loc 1 115 39 view .LVU766
 2451 0064 03EB0B02 		add	r2, r3, fp
 115:Middlewares/lvgl/src/misc/lv_txt.c ****             LV_LOG_WARN("lv_txt_get_size: integer overflow while calculating text height");
 2452              		.loc 1 115 70 view .LVU767
 2453 0068 5244     		add	r2, r2, r10
 115:Middlewares/lvgl/src/misc/lv_txt.c ****             LV_LOG_WARN("lv_txt_get_size: integer overflow while calculating text height");
 2454              		.loc 1 115 11 view .LVU768
 2455 006a B2F5004F 		cmp	r2, #32768
 2456 006e 24D2     		bcs	.L190
 120:Middlewares/lvgl/src/misc/lv_txt.c ****             size_res->y += line_space;
ARM GAS  /tmp/ccWVSSdf.s 			page 77


 2457              		.loc 1 120 13 is_stmt 1 view .LVU769
 120:Middlewares/lvgl/src/misc/lv_txt.c ****             size_res->y += line_space;
 2458              		.loc 1 120 25 is_stmt 0 view .LVU770
 2459 0070 5B44     		add	r3, r3, fp
 2460 0072 9BB2     		uxth	r3, r3
 2461 0074 6380     		strh	r3, [r4, #2]	@ movhi
 121:Middlewares/lvgl/src/misc/lv_txt.c ****         }
 2462              		.loc 1 121 13 is_stmt 1 view .LVU771
 121:Middlewares/lvgl/src/misc/lv_txt.c ****         }
 2463              		.loc 1 121 25 is_stmt 0 view .LVU772
