ARM GAS  /tmp/ccj7iy9k.s 			page 1


   1              		.cpu cortex-m4
   2              		.arch armv7e-m
   3              		.fpu fpv4-sp-d16
   4              		.eabi_attribute 27, 1
   5              		.eabi_attribute 28, 1
   6              		.eabi_attribute 20, 1
   7              		.eabi_attribute 21, 1
   8              		.eabi_attribute 23, 3
   9              		.eabi_attribute 24, 1
  10              		.eabi_attribute 25, 1
  11              		.eabi_attribute 26, 1
  12              		.eabi_attribute 30, 1
  13              		.eabi_attribute 34, 1
  14              		.eabi_attribute 18, 4
  15              		.file	"stm32f4xx_ll_fsmc.c"
  16              		.text
  17              	.Ltext0:
  18              		.cfi_sections	.debug_frame
  19              		.section	.text.FSMC_NORSRAM_Init,"ax",%progbits
  20              		.align	1
  21              		.global	FSMC_NORSRAM_Init
  22              		.syntax unified
  23              		.thumb
  24              		.thumb_func
  26              	FSMC_NORSRAM_Init:
  27              	.LVL0:
  28              	.LFB130:
  29              		.file 1 "Drivers/STM32F4xx_HAL_Driver/Src/stm32f4xx_ll_fsmc.c"
   1:Drivers/STM32F4xx_HAL_Driver/Src/stm32f4xx_ll_fsmc.c **** /**
   2:Drivers/STM32F4xx_HAL_Driver/Src/stm32f4xx_ll_fsmc.c ****   ******************************************************************************
   3:Drivers/STM32F4xx_HAL_Driver/Src/stm32f4xx_ll_fsmc.c ****   * @file    stm32f4xx_ll_fsmc.c
   4:Drivers/STM32F4xx_HAL_Driver/Src/stm32f4xx_ll_fsmc.c ****   * @author  MCD Application Team
   5:Drivers/STM32F4xx_HAL_Driver/Src/stm32f4xx_ll_fsmc.c ****   * @brief   FSMC Low Layer HAL module driver.
   6:Drivers/STM32F4xx_HAL_Driver/Src/stm32f4xx_ll_fsmc.c ****   *    
   7:Drivers/STM32F4xx_HAL_Driver/Src/stm32f4xx_ll_fsmc.c ****   *          This file provides firmware functions to manage the following 
   8:Drivers/STM32F4xx_HAL_Driver/Src/stm32f4xx_ll_fsmc.c ****   *          functionalities of the Flexible Static Memory Controller (FSMC) peripheral memories:
   9:Drivers/STM32F4xx_HAL_Driver/Src/stm32f4xx_ll_fsmc.c ****   *           + Initialization/de-initialization functions
  10:Drivers/STM32F4xx_HAL_Driver/Src/stm32f4xx_ll_fsmc.c ****   *           + Peripheral Control functions 
  11:Drivers/STM32F4xx_HAL_Driver/Src/stm32f4xx_ll_fsmc.c ****   *           + Peripheral State functions
  12:Drivers/STM32F4xx_HAL_Driver/Src/stm32f4xx_ll_fsmc.c ****   *         
  13:Drivers/STM32F4xx_HAL_Driver/Src/stm32f4xx_ll_fsmc.c ****   @verbatim
  14:Drivers/STM32F4xx_HAL_Driver/Src/stm32f4xx_ll_fsmc.c ****   ==============================================================================
  15:Drivers/STM32F4xx_HAL_Driver/Src/stm32f4xx_ll_fsmc.c ****                         ##### FSMC peripheral features #####
  16:Drivers/STM32F4xx_HAL_Driver/Src/stm32f4xx_ll_fsmc.c ****   ==============================================================================                  
  17:Drivers/STM32F4xx_HAL_Driver/Src/stm32f4xx_ll_fsmc.c ****     [..] The Flexible static memory controller (FSMC) includes two memory controllers:
  18:Drivers/STM32F4xx_HAL_Driver/Src/stm32f4xx_ll_fsmc.c ****          (+) The NOR/PSRAM memory controller
  19:Drivers/STM32F4xx_HAL_Driver/Src/stm32f4xx_ll_fsmc.c ****          (+) The NAND/PC Card memory controller
  20:Drivers/STM32F4xx_HAL_Driver/Src/stm32f4xx_ll_fsmc.c ****        
  21:Drivers/STM32F4xx_HAL_Driver/Src/stm32f4xx_ll_fsmc.c ****     [..] The FSMC functional block makes the interface with synchronous and asynchronous static
  22:Drivers/STM32F4xx_HAL_Driver/Src/stm32f4xx_ll_fsmc.c ****          memories, SDRAM memories, and 16-bit PC memory cards. Its main purposes are:
  23:Drivers/STM32F4xx_HAL_Driver/Src/stm32f4xx_ll_fsmc.c ****          (+) to translate AHB transactions into the appropriate external device protocol.
  24:Drivers/STM32F4xx_HAL_Driver/Src/stm32f4xx_ll_fsmc.c ****          (+) to meet the access time requirements of the external memory devices.
  25:Drivers/STM32F4xx_HAL_Driver/Src/stm32f4xx_ll_fsmc.c ****    
  26:Drivers/STM32F4xx_HAL_Driver/Src/stm32f4xx_ll_fsmc.c ****     [..] All external memories share the addresses, data and control signals with the controller.
  27:Drivers/STM32F4xx_HAL_Driver/Src/stm32f4xx_ll_fsmc.c ****          Each external device is accessed by means of a unique Chip Select. The FSMC performs
  28:Drivers/STM32F4xx_HAL_Driver/Src/stm32f4xx_ll_fsmc.c ****          only one access at a time to an external device.
  29:Drivers/STM32F4xx_HAL_Driver/Src/stm32f4xx_ll_fsmc.c ****          The main features of the FSMC controller are the following:
ARM GAS  /tmp/ccj7iy9k.s 			page 2


  30:Drivers/STM32F4xx_HAL_Driver/Src/stm32f4xx_ll_fsmc.c ****           (+) Interface with static-memory mapped devices including:
  31:Drivers/STM32F4xx_HAL_Driver/Src/stm32f4xx_ll_fsmc.c ****              (++) Static random access memory (SRAM).
  32:Drivers/STM32F4xx_HAL_Driver/Src/stm32f4xx_ll_fsmc.c ****              (++) Read-only memory (ROM).
  33:Drivers/STM32F4xx_HAL_Driver/Src/stm32f4xx_ll_fsmc.c ****              (++) NOR Flash memory/OneNAND Flash memory.
  34:Drivers/STM32F4xx_HAL_Driver/Src/stm32f4xx_ll_fsmc.c ****              (++) PSRAM (4 memory banks).
  35:Drivers/STM32F4xx_HAL_Driver/Src/stm32f4xx_ll_fsmc.c ****              (++) 16-bit PC Card compatible devices.
  36:Drivers/STM32F4xx_HAL_Driver/Src/stm32f4xx_ll_fsmc.c ****              (++) Two banks of NAND Flash memory with ECC hardware to check up to 8 Kbytes of
  37:Drivers/STM32F4xx_HAL_Driver/Src/stm32f4xx_ll_fsmc.c ****                   data.
  38:Drivers/STM32F4xx_HAL_Driver/Src/stm32f4xx_ll_fsmc.c ****           (+) Independent Chip Select control for each memory bank.
  39:Drivers/STM32F4xx_HAL_Driver/Src/stm32f4xx_ll_fsmc.c ****           (+) Independent configuration for each memory bank.          
  40:Drivers/STM32F4xx_HAL_Driver/Src/stm32f4xx_ll_fsmc.c ****         
  41:Drivers/STM32F4xx_HAL_Driver/Src/stm32f4xx_ll_fsmc.c ****   @endverbatim
  42:Drivers/STM32F4xx_HAL_Driver/Src/stm32f4xx_ll_fsmc.c ****   ******************************************************************************
  43:Drivers/STM32F4xx_HAL_Driver/Src/stm32f4xx_ll_fsmc.c ****   * @attention
  44:Drivers/STM32F4xx_HAL_Driver/Src/stm32f4xx_ll_fsmc.c ****   *
  45:Drivers/STM32F4xx_HAL_Driver/Src/stm32f4xx_ll_fsmc.c ****   * <h2><center>&copy; Copyright (c) 2017 STMicroelectronics.
  46:Drivers/STM32F4xx_HAL_Driver/Src/stm32f4xx_ll_fsmc.c ****   * All rights reserved.</center></h2>
  47:Drivers/STM32F4xx_HAL_Driver/Src/stm32f4xx_ll_fsmc.c ****   *
  48:Drivers/STM32F4xx_HAL_Driver/Src/stm32f4xx_ll_fsmc.c ****   * This software component is licensed by ST under BSD 3-Clause license,
  49:Drivers/STM32F4xx_HAL_Driver/Src/stm32f4xx_ll_fsmc.c ****   * the "License"; You may not use this file except in compliance with the
  50:Drivers/STM32F4xx_HAL_Driver/Src/stm32f4xx_ll_fsmc.c ****   * License. You may obtain a copy of the License at:
  51:Drivers/STM32F4xx_HAL_Driver/Src/stm32f4xx_ll_fsmc.c ****   *                        opensource.org/licenses/BSD-3-Clause
  52:Drivers/STM32F4xx_HAL_Driver/Src/stm32f4xx_ll_fsmc.c ****   *
  53:Drivers/STM32F4xx_HAL_Driver/Src/stm32f4xx_ll_fsmc.c ****   ******************************************************************************
  54:Drivers/STM32F4xx_HAL_Driver/Src/stm32f4xx_ll_fsmc.c ****   */ 
  55:Drivers/STM32F4xx_HAL_Driver/Src/stm32f4xx_ll_fsmc.c **** 
  56:Drivers/STM32F4xx_HAL_Driver/Src/stm32f4xx_ll_fsmc.c **** /* Includes ------------------------------------------------------------------*/
  57:Drivers/STM32F4xx_HAL_Driver/Src/stm32f4xx_ll_fsmc.c **** #include "stm32f4xx_hal.h"
  58:Drivers/STM32F4xx_HAL_Driver/Src/stm32f4xx_ll_fsmc.c **** 
  59:Drivers/STM32F4xx_HAL_Driver/Src/stm32f4xx_ll_fsmc.c **** /** @addtogroup STM32F4xx_HAL_Driver
  60:Drivers/STM32F4xx_HAL_Driver/Src/stm32f4xx_ll_fsmc.c ****   * @{
  61:Drivers/STM32F4xx_HAL_Driver/Src/stm32f4xx_ll_fsmc.c ****   */
  62:Drivers/STM32F4xx_HAL_Driver/Src/stm32f4xx_ll_fsmc.c **** 
  63:Drivers/STM32F4xx_HAL_Driver/Src/stm32f4xx_ll_fsmc.c **** /** @defgroup FSMC_LL  FSMC Low Layer
  64:Drivers/STM32F4xx_HAL_Driver/Src/stm32f4xx_ll_fsmc.c ****   * @brief FSMC driver modules
  65:Drivers/STM32F4xx_HAL_Driver/Src/stm32f4xx_ll_fsmc.c ****   * @{
  66:Drivers/STM32F4xx_HAL_Driver/Src/stm32f4xx_ll_fsmc.c ****   */
  67:Drivers/STM32F4xx_HAL_Driver/Src/stm32f4xx_ll_fsmc.c **** 
  68:Drivers/STM32F4xx_HAL_Driver/Src/stm32f4xx_ll_fsmc.c **** #if defined (HAL_SRAM_MODULE_ENABLED) || defined(HAL_NOR_MODULE_ENABLED) || defined(HAL_NAND_MODULE
  69:Drivers/STM32F4xx_HAL_Driver/Src/stm32f4xx_ll_fsmc.c **** #if defined(STM32F405xx) || defined(STM32F415xx) || defined(STM32F407xx) || defined(STM32F417xx) ||
  70:Drivers/STM32F4xx_HAL_Driver/Src/stm32f4xx_ll_fsmc.c ****     defined(STM32F412Vx) || defined(STM32F412Rx) || defined(STM32F413xx) || defined(STM32F423xx)
  71:Drivers/STM32F4xx_HAL_Driver/Src/stm32f4xx_ll_fsmc.c **** /* Private typedef -----------------------------------------------------------*/
  72:Drivers/STM32F4xx_HAL_Driver/Src/stm32f4xx_ll_fsmc.c **** /* Private define ------------------------------------------------------------*/
  73:Drivers/STM32F4xx_HAL_Driver/Src/stm32f4xx_ll_fsmc.c **** /* Private macro -------------------------------------------------------------*/
  74:Drivers/STM32F4xx_HAL_Driver/Src/stm32f4xx_ll_fsmc.c **** /* Private variables ---------------------------------------------------------*/
  75:Drivers/STM32F4xx_HAL_Driver/Src/stm32f4xx_ll_fsmc.c **** /* Private function prototypes -----------------------------------------------*/
  76:Drivers/STM32F4xx_HAL_Driver/Src/stm32f4xx_ll_fsmc.c **** /* Private functions ---------------------------------------------------------*/
  77:Drivers/STM32F4xx_HAL_Driver/Src/stm32f4xx_ll_fsmc.c **** /** @addtogroup FSMC_LL_Private_Functions
  78:Drivers/STM32F4xx_HAL_Driver/Src/stm32f4xx_ll_fsmc.c ****   * @{
  79:Drivers/STM32F4xx_HAL_Driver/Src/stm32f4xx_ll_fsmc.c ****   */
  80:Drivers/STM32F4xx_HAL_Driver/Src/stm32f4xx_ll_fsmc.c **** 
  81:Drivers/STM32F4xx_HAL_Driver/Src/stm32f4xx_ll_fsmc.c **** /** @addtogroup FSMC_LL_NORSRAM
  82:Drivers/STM32F4xx_HAL_Driver/Src/stm32f4xx_ll_fsmc.c ****   * @brief    NORSRAM Controller functions 
  83:Drivers/STM32F4xx_HAL_Driver/Src/stm32f4xx_ll_fsmc.c ****   *
  84:Drivers/STM32F4xx_HAL_Driver/Src/stm32f4xx_ll_fsmc.c ****   @verbatim 
  85:Drivers/STM32F4xx_HAL_Driver/Src/stm32f4xx_ll_fsmc.c ****   ==============================================================================
  86:Drivers/STM32F4xx_HAL_Driver/Src/stm32f4xx_ll_fsmc.c ****                    ##### How to use NORSRAM device driver #####
ARM GAS  /tmp/ccj7iy9k.s 			page 3


  87:Drivers/STM32F4xx_HAL_Driver/Src/stm32f4xx_ll_fsmc.c ****   ==============================================================================
  88:Drivers/STM32F4xx_HAL_Driver/Src/stm32f4xx_ll_fsmc.c ****  
  89:Drivers/STM32F4xx_HAL_Driver/Src/stm32f4xx_ll_fsmc.c ****   [..] 
  90:Drivers/STM32F4xx_HAL_Driver/Src/stm32f4xx_ll_fsmc.c ****     This driver contains a set of APIs to interface with the FSMC NORSRAM banks in order
  91:Drivers/STM32F4xx_HAL_Driver/Src/stm32f4xx_ll_fsmc.c ****     to run the NORSRAM external devices.
  92:Drivers/STM32F4xx_HAL_Driver/Src/stm32f4xx_ll_fsmc.c ****       
  93:Drivers/STM32F4xx_HAL_Driver/Src/stm32f4xx_ll_fsmc.c ****     (+) FSMC NORSRAM bank reset using the function FSMC_NORSRAM_DeInit() 
  94:Drivers/STM32F4xx_HAL_Driver/Src/stm32f4xx_ll_fsmc.c ****     (+) FSMC NORSRAM bank control configuration using the function FSMC_NORSRAM_Init()
  95:Drivers/STM32F4xx_HAL_Driver/Src/stm32f4xx_ll_fsmc.c ****     (+) FSMC NORSRAM bank timing configuration using the function FSMC_NORSRAM_Timing_Init()
  96:Drivers/STM32F4xx_HAL_Driver/Src/stm32f4xx_ll_fsmc.c ****     (+) FSMC NORSRAM bank extended timing configuration using the function 
  97:Drivers/STM32F4xx_HAL_Driver/Src/stm32f4xx_ll_fsmc.c ****         FSMC_NORSRAM_Extended_Timing_Init()
  98:Drivers/STM32F4xx_HAL_Driver/Src/stm32f4xx_ll_fsmc.c ****     (+) FSMC NORSRAM bank enable/disable write operation using the functions
  99:Drivers/STM32F4xx_HAL_Driver/Src/stm32f4xx_ll_fsmc.c ****         FSMC_NORSRAM_WriteOperation_Enable()/FSMC_NORSRAM_WriteOperation_Disable()
 100:Drivers/STM32F4xx_HAL_Driver/Src/stm32f4xx_ll_fsmc.c **** 
 101:Drivers/STM32F4xx_HAL_Driver/Src/stm32f4xx_ll_fsmc.c **** @endverbatim
 102:Drivers/STM32F4xx_HAL_Driver/Src/stm32f4xx_ll_fsmc.c ****   * @{
 103:Drivers/STM32F4xx_HAL_Driver/Src/stm32f4xx_ll_fsmc.c ****   */
 104:Drivers/STM32F4xx_HAL_Driver/Src/stm32f4xx_ll_fsmc.c ****        
 105:Drivers/STM32F4xx_HAL_Driver/Src/stm32f4xx_ll_fsmc.c **** /** @addtogroup FSMC_LL_NORSRAM_Private_Functions_Group1
 106:Drivers/STM32F4xx_HAL_Driver/Src/stm32f4xx_ll_fsmc.c ****   * @brief    Initialization and Configuration functions 
 107:Drivers/STM32F4xx_HAL_Driver/Src/stm32f4xx_ll_fsmc.c ****   *
 108:Drivers/STM32F4xx_HAL_Driver/Src/stm32f4xx_ll_fsmc.c ****   @verbatim    
 109:Drivers/STM32F4xx_HAL_Driver/Src/stm32f4xx_ll_fsmc.c ****   ==============================================================================
 110:Drivers/STM32F4xx_HAL_Driver/Src/stm32f4xx_ll_fsmc.c ****               ##### Initialization and de_initialization functions #####
 111:Drivers/STM32F4xx_HAL_Driver/Src/stm32f4xx_ll_fsmc.c ****   ==============================================================================
 112:Drivers/STM32F4xx_HAL_Driver/Src/stm32f4xx_ll_fsmc.c ****   [..]  
 113:Drivers/STM32F4xx_HAL_Driver/Src/stm32f4xx_ll_fsmc.c ****     This section provides functions allowing to:
 114:Drivers/STM32F4xx_HAL_Driver/Src/stm32f4xx_ll_fsmc.c ****     (+) Initialize and configure the FSMC NORSRAM interface
 115:Drivers/STM32F4xx_HAL_Driver/Src/stm32f4xx_ll_fsmc.c ****     (+) De-initialize the FSMC NORSRAM interface 
 116:Drivers/STM32F4xx_HAL_Driver/Src/stm32f4xx_ll_fsmc.c ****     (+) Configure the FSMC clock and associated GPIOs    
 117:Drivers/STM32F4xx_HAL_Driver/Src/stm32f4xx_ll_fsmc.c ****  
 118:Drivers/STM32F4xx_HAL_Driver/Src/stm32f4xx_ll_fsmc.c **** @endverbatim
 119:Drivers/STM32F4xx_HAL_Driver/Src/stm32f4xx_ll_fsmc.c ****   * @{
 120:Drivers/STM32F4xx_HAL_Driver/Src/stm32f4xx_ll_fsmc.c ****   */
 121:Drivers/STM32F4xx_HAL_Driver/Src/stm32f4xx_ll_fsmc.c ****   
 122:Drivers/STM32F4xx_HAL_Driver/Src/stm32f4xx_ll_fsmc.c **** /**
 123:Drivers/STM32F4xx_HAL_Driver/Src/stm32f4xx_ll_fsmc.c ****   * @brief  Initialize the FSMC_NORSRAM device according to the specified
 124:Drivers/STM32F4xx_HAL_Driver/Src/stm32f4xx_ll_fsmc.c ****   *         control parameters in the FSMC_NORSRAM_InitTypeDef
 125:Drivers/STM32F4xx_HAL_Driver/Src/stm32f4xx_ll_fsmc.c ****   * @param  Device Pointer to NORSRAM device instance
 126:Drivers/STM32F4xx_HAL_Driver/Src/stm32f4xx_ll_fsmc.c ****   * @param  Init Pointer to NORSRAM Initialization structure   
 127:Drivers/STM32F4xx_HAL_Driver/Src/stm32f4xx_ll_fsmc.c ****   * @retval HAL status
 128:Drivers/STM32F4xx_HAL_Driver/Src/stm32f4xx_ll_fsmc.c ****   */
 129:Drivers/STM32F4xx_HAL_Driver/Src/stm32f4xx_ll_fsmc.c **** HAL_StatusTypeDef  FSMC_NORSRAM_Init(FSMC_NORSRAM_TypeDef *Device, FSMC_NORSRAM_InitTypeDef* Init)
 130:Drivers/STM32F4xx_HAL_Driver/Src/stm32f4xx_ll_fsmc.c **** { 
  30              		.loc 1 130 1 view -0
  31              		.cfi_startproc
  32              		@ args = 0, pretend = 0, frame = 0
  33              		@ frame_needed = 0, uses_anonymous_args = 0
  34              		@ link register save eliminated.
  35              		.loc 1 130 1 is_stmt 0 view .LVU1
  36 0000 70B4     		push	{r4, r5, r6}
  37              	.LCFI0:
  38              		.cfi_def_cfa_offset 12
  39              		.cfi_offset 4, -12
  40              		.cfi_offset 5, -8
  41              		.cfi_offset 6, -4
 131:Drivers/STM32F4xx_HAL_Driver/Src/stm32f4xx_ll_fsmc.c ****   uint32_t tmpr = 0U;
ARM GAS  /tmp/ccj7iy9k.s 			page 4


  42              		.loc 1 131 3 is_stmt 1 view .LVU2
  43              	.LVL1:
 132:Drivers/STM32F4xx_HAL_Driver/Src/stm32f4xx_ll_fsmc.c ****     
 133:Drivers/STM32F4xx_HAL_Driver/Src/stm32f4xx_ll_fsmc.c ****   /* Check the parameters */
 134:Drivers/STM32F4xx_HAL_Driver/Src/stm32f4xx_ll_fsmc.c ****   assert_param(IS_FSMC_NORSRAM_DEVICE(Device));
  44              		.loc 1 134 3 view .LVU3
 135:Drivers/STM32F4xx_HAL_Driver/Src/stm32f4xx_ll_fsmc.c ****   assert_param(IS_FSMC_NORSRAM_BANK(Init->NSBank));
  45              		.loc 1 135 3 view .LVU4
 136:Drivers/STM32F4xx_HAL_Driver/Src/stm32f4xx_ll_fsmc.c ****   assert_param(IS_FSMC_MUX(Init->DataAddressMux));
  46              		.loc 1 136 3 view .LVU5
 137:Drivers/STM32F4xx_HAL_Driver/Src/stm32f4xx_ll_fsmc.c ****   assert_param(IS_FSMC_MEMORY(Init->MemoryType));
  47              		.loc 1 137 3 view .LVU6
 138:Drivers/STM32F4xx_HAL_Driver/Src/stm32f4xx_ll_fsmc.c ****   assert_param(IS_FSMC_NORSRAM_MEMORY_WIDTH(Init->MemoryDataWidth));
  48              		.loc 1 138 3 view .LVU7
 139:Drivers/STM32F4xx_HAL_Driver/Src/stm32f4xx_ll_fsmc.c ****   assert_param(IS_FSMC_BURSTMODE(Init->BurstAccessMode));
  49              		.loc 1 139 3 view .LVU8
 140:Drivers/STM32F4xx_HAL_Driver/Src/stm32f4xx_ll_fsmc.c ****   assert_param(IS_FSMC_WAIT_POLARITY(Init->WaitSignalPolarity));
  50              		.loc 1 140 3 view .LVU9
 141:Drivers/STM32F4xx_HAL_Driver/Src/stm32f4xx_ll_fsmc.c **** #if defined(STM32F405xx) || defined(STM32F415xx) || defined(STM32F407xx) || defined(STM32F417xx)
 142:Drivers/STM32F4xx_HAL_Driver/Src/stm32f4xx_ll_fsmc.c ****   assert_param(IS_FSMC_WRAP_MODE(Init->WrapMode));
  51              		.loc 1 142 3 view .LVU10
 143:Drivers/STM32F4xx_HAL_Driver/Src/stm32f4xx_ll_fsmc.c **** #endif /* STM32F405xx || STM32F415xx || STM32F407xx || STM32F417xx */
 144:Drivers/STM32F4xx_HAL_Driver/Src/stm32f4xx_ll_fsmc.c ****   assert_param(IS_FSMC_WAIT_SIGNAL_ACTIVE(Init->WaitSignalActive));
  52              		.loc 1 144 3 view .LVU11
 145:Drivers/STM32F4xx_HAL_Driver/Src/stm32f4xx_ll_fsmc.c ****   assert_param(IS_FSMC_WRITE_OPERATION(Init->WriteOperation));
  53              		.loc 1 145 3 view .LVU12
 146:Drivers/STM32F4xx_HAL_Driver/Src/stm32f4xx_ll_fsmc.c ****   assert_param(IS_FSMC_WAITE_SIGNAL(Init->WaitSignal));
  54              		.loc 1 146 3 view .LVU13
 147:Drivers/STM32F4xx_HAL_Driver/Src/stm32f4xx_ll_fsmc.c ****   assert_param(IS_FSMC_EXTENDED_MODE(Init->ExtendedMode));
  55              		.loc 1 147 3 view .LVU14
 148:Drivers/STM32F4xx_HAL_Driver/Src/stm32f4xx_ll_fsmc.c ****   assert_param(IS_FSMC_ASYNWAIT(Init->AsynchronousWait));
  56              		.loc 1 148 3 view .LVU15
 149:Drivers/STM32F4xx_HAL_Driver/Src/stm32f4xx_ll_fsmc.c ****   assert_param(IS_FSMC_WRITE_BURST(Init->WriteBurst));
  57              		.loc 1 149 3 view .LVU16
 150:Drivers/STM32F4xx_HAL_Driver/Src/stm32f4xx_ll_fsmc.c ****   assert_param(IS_FSMC_PAGESIZE(Init->PageSize));
  58              		.loc 1 150 3 view .LVU17
 151:Drivers/STM32F4xx_HAL_Driver/Src/stm32f4xx_ll_fsmc.c **** #if defined(STM32F412Zx) || defined(STM32F412Vx) || defined(STM32F412Rx) || defined(STM32F413xx) ||
 152:Drivers/STM32F4xx_HAL_Driver/Src/stm32f4xx_ll_fsmc.c ****   assert_param(IS_FSMC_WRITE_FIFO(Init->WriteFifo));
 153:Drivers/STM32F4xx_HAL_Driver/Src/stm32f4xx_ll_fsmc.c ****   assert_param(IS_FSMC_CONTINOUS_CLOCK(Init->ContinuousClock));
 154:Drivers/STM32F4xx_HAL_Driver/Src/stm32f4xx_ll_fsmc.c **** #endif /* STM32F412Zx || STM32F412Vx || STM32F413xx || STM32F423xx */
 155:Drivers/STM32F4xx_HAL_Driver/Src/stm32f4xx_ll_fsmc.c ****   
 156:Drivers/STM32F4xx_HAL_Driver/Src/stm32f4xx_ll_fsmc.c ****   /* Get the BTCR register value */
 157:Drivers/STM32F4xx_HAL_Driver/Src/stm32f4xx_ll_fsmc.c ****   tmpr = Device->BTCR[Init->NSBank];
  59              		.loc 1 157 3 view .LVU18
  60              		.loc 1 157 27 is_stmt 0 view .LVU19
  61 0002 0C68     		ldr	r4, [r1]
  62              		.loc 1 157 8 view .LVU20
  63 0004 50F82430 		ldr	r3, [r0, r4, lsl #2]
  64              	.LVL2:
 158:Drivers/STM32F4xx_HAL_Driver/Src/stm32f4xx_ll_fsmc.c **** 
 159:Drivers/STM32F4xx_HAL_Driver/Src/stm32f4xx_ll_fsmc.c **** #if defined(STM32F405xx) || defined(STM32F415xx) || defined(STM32F407xx) || defined(STM32F417xx)
 160:Drivers/STM32F4xx_HAL_Driver/Src/stm32f4xx_ll_fsmc.c ****   /* Clear MBKEN, MUXEN, MTYP, MWID, FACCEN, BURSTEN, WAITPOL, WRAPMOD, WAITCFG, WREN,
 161:Drivers/STM32F4xx_HAL_Driver/Src/stm32f4xx_ll_fsmc.c ****            WAITEN, EXTMOD, ASYNCWAIT, CPSIZE and CBURSTRW bits */
 162:Drivers/STM32F4xx_HAL_Driver/Src/stm32f4xx_ll_fsmc.c ****   tmpr &= ((uint32_t)~(FSMC_BCR1_MBKEN     | FSMC_BCR1_MUXEN    | FSMC_BCR1_MTYP     | \
  65              		.loc 1 162 3 is_stmt 1 view .LVU21
  66              		.loc 1 162 8 is_stmt 0 view .LVU22
  67 0008 134E     		ldr	r6, .L5
ARM GAS  /tmp/ccj7iy9k.s 			page 5


  68 000a 1E40     		ands	r6, r6, r3
  69              	.LVL3:
 163:Drivers/STM32F4xx_HAL_Driver/Src/stm32f4xx_ll_fsmc.c ****                        FSMC_BCR1_MWID      | FSMC_BCR1_FACCEN   | FSMC_BCR1_BURSTEN  | \
 164:Drivers/STM32F4xx_HAL_Driver/Src/stm32f4xx_ll_fsmc.c ****                        FSMC_BCR1_WAITPOL   | FSMC_BCR1_WRAPMOD  | FSMC_BCR1_WAITCFG  | \
 165:Drivers/STM32F4xx_HAL_Driver/Src/stm32f4xx_ll_fsmc.c ****                        FSMC_BCR1_WREN      | FSMC_BCR1_WAITEN   | FSMC_BCR1_EXTMOD   | \
 166:Drivers/STM32F4xx_HAL_Driver/Src/stm32f4xx_ll_fsmc.c ****                        FSMC_BCR1_ASYNCWAIT | FSMC_BCR1_CPSIZE   | FSMC_BCR1_CBURSTRW));
 167:Drivers/STM32F4xx_HAL_Driver/Src/stm32f4xx_ll_fsmc.c ****   /* Set NORSRAM device control parameters */
 168:Drivers/STM32F4xx_HAL_Driver/Src/stm32f4xx_ll_fsmc.c ****   tmpr |= (uint32_t)(Init->DataAddressMux       |\
  70              		.loc 1 168 3 is_stmt 1 view .LVU23
  71              		.loc 1 168 26 is_stmt 0 view .LVU24
  72 000c 4A68     		ldr	r2, [r1, #4]
 169:Drivers/STM32F4xx_HAL_Driver/Src/stm32f4xx_ll_fsmc.c ****                      Init->MemoryType           |\
  73              		.loc 1 169 26 view .LVU25
  74 000e 8D68     		ldr	r5, [r1, #8]
 168:Drivers/STM32F4xx_HAL_Driver/Src/stm32f4xx_ll_fsmc.c ****                      Init->MemoryType           |\
  75              		.loc 1 168 49 view .LVU26
  76 0010 42EA0503 		orr	r3, r2, r5
 170:Drivers/STM32F4xx_HAL_Driver/Src/stm32f4xx_ll_fsmc.c ****                      Init->MemoryDataWidth      |\
  77              		.loc 1 170 26 view .LVU27
  78 0014 CA68     		ldr	r2, [r1, #12]
 169:Drivers/STM32F4xx_HAL_Driver/Src/stm32f4xx_ll_fsmc.c ****                      Init->MemoryType           |\
  79              		.loc 1 169 49 view .LVU28
  80 0016 1343     		orrs	r3, r3, r2
 171:Drivers/STM32F4xx_HAL_Driver/Src/stm32f4xx_ll_fsmc.c ****                      Init->BurstAccessMode      |\
  81              		.loc 1 171 26 view .LVU29
  82 0018 0A69     		ldr	r2, [r1, #16]
 170:Drivers/STM32F4xx_HAL_Driver/Src/stm32f4xx_ll_fsmc.c ****                      Init->MemoryDataWidth      |\
  83              		.loc 1 170 49 view .LVU30
  84 001a 1343     		orrs	r3, r3, r2
 172:Drivers/STM32F4xx_HAL_Driver/Src/stm32f4xx_ll_fsmc.c ****                      Init->WaitSignalPolarity   |\
  85              		.loc 1 172 26 view .LVU31
  86 001c 4A69     		ldr	r2, [r1, #20]
 171:Drivers/STM32F4xx_HAL_Driver/Src/stm32f4xx_ll_fsmc.c ****                      Init->BurstAccessMode      |\
  87              		.loc 1 171 49 view .LVU32
  88 001e 1343     		orrs	r3, r3, r2
 173:Drivers/STM32F4xx_HAL_Driver/Src/stm32f4xx_ll_fsmc.c ****                      Init->WrapMode             |\
  89              		.loc 1 173 26 view .LVU33
  90 0020 8A69     		ldr	r2, [r1, #24]
 172:Drivers/STM32F4xx_HAL_Driver/Src/stm32f4xx_ll_fsmc.c ****                      Init->WaitSignalPolarity   |\
  91              		.loc 1 172 49 view .LVU34
  92 0022 1343     		orrs	r3, r3, r2
 174:Drivers/STM32F4xx_HAL_Driver/Src/stm32f4xx_ll_fsmc.c ****                      Init->WaitSignalActive     |\
  93              		.loc 1 174 26 view .LVU35
  94 0024 CA69     		ldr	r2, [r1, #28]
 173:Drivers/STM32F4xx_HAL_Driver/Src/stm32f4xx_ll_fsmc.c ****                      Init->WrapMode             |\
  95              		.loc 1 173 49 view .LVU36
  96 0026 1343     		orrs	r3, r3, r2
 175:Drivers/STM32F4xx_HAL_Driver/Src/stm32f4xx_ll_fsmc.c ****                      Init->WriteOperation       |\
  97              		.loc 1 175 26 view .LVU37
  98 0028 0A6A     		ldr	r2, [r1, #32]
 174:Drivers/STM32F4xx_HAL_Driver/Src/stm32f4xx_ll_fsmc.c ****                      Init->WaitSignalActive     |\
  99              		.loc 1 174 49 view .LVU38
 100 002a 1343     		orrs	r3, r3, r2
 176:Drivers/STM32F4xx_HAL_Driver/Src/stm32f4xx_ll_fsmc.c ****                      Init->WaitSignal           |\
 101              		.loc 1 176 26 view .LVU39
 102 002c 4A6A     		ldr	r2, [r1, #36]
 175:Drivers/STM32F4xx_HAL_Driver/Src/stm32f4xx_ll_fsmc.c ****                      Init->WriteOperation       |\
ARM GAS  /tmp/ccj7iy9k.s 			page 6


 103              		.loc 1 175 49 view .LVU40
 104 002e 1343     		orrs	r3, r3, r2
 177:Drivers/STM32F4xx_HAL_Driver/Src/stm32f4xx_ll_fsmc.c ****                      Init->ExtendedMode         |\
 105              		.loc 1 177 26 view .LVU41
 106 0030 8A6A     		ldr	r2, [r1, #40]
 176:Drivers/STM32F4xx_HAL_Driver/Src/stm32f4xx_ll_fsmc.c ****                      Init->WaitSignal           |\
 107              		.loc 1 176 49 view .LVU42
 108 0032 1343     		orrs	r3, r3, r2
 178:Drivers/STM32F4xx_HAL_Driver/Src/stm32f4xx_ll_fsmc.c ****                      Init->AsynchronousWait     |\
 109              		.loc 1 178 26 view .LVU43
 110 0034 CA6A     		ldr	r2, [r1, #44]
 177:Drivers/STM32F4xx_HAL_Driver/Src/stm32f4xx_ll_fsmc.c ****                      Init->ExtendedMode         |\
 111              		.loc 1 177 49 view .LVU44
 112 0036 1343     		orrs	r3, r3, r2
 179:Drivers/STM32F4xx_HAL_Driver/Src/stm32f4xx_ll_fsmc.c ****                      Init->PageSize             |\
 113              		.loc 1 179 26 view .LVU45
 114 0038 CA6B     		ldr	r2, [r1, #60]
 178:Drivers/STM32F4xx_HAL_Driver/Src/stm32f4xx_ll_fsmc.c ****                      Init->AsynchronousWait     |\
 115              		.loc 1 178 49 view .LVU46
 116 003a 1343     		orrs	r3, r3, r2
 180:Drivers/STM32F4xx_HAL_Driver/Src/stm32f4xx_ll_fsmc.c ****                      Init->WriteBurst
 117              		.loc 1 180 26 view .LVU47
 118 003c 0A6B     		ldr	r2, [r1, #48]
 179:Drivers/STM32F4xx_HAL_Driver/Src/stm32f4xx_ll_fsmc.c ****                      Init->PageSize             |\
 119              		.loc 1 179 49 view .LVU48
 120 003e 1343     		orrs	r3, r3, r2
 168:Drivers/STM32F4xx_HAL_Driver/Src/stm32f4xx_ll_fsmc.c ****                      Init->MemoryType           |\
 121              		.loc 1 168 8 view .LVU49
 122 0040 3343     		orrs	r3, r3, r6
 123              	.LVL4:
 181:Drivers/STM32F4xx_HAL_Driver/Src/stm32f4xx_ll_fsmc.c ****                      );
 182:Drivers/STM32F4xx_HAL_Driver/Src/stm32f4xx_ll_fsmc.c **** #else /* STM32F412Zx || STM32F412Vx || STM32F412Rx || STM32F413xx || STM32F423xx */
 183:Drivers/STM32F4xx_HAL_Driver/Src/stm32f4xx_ll_fsmc.c ****   /* Clear MBKEN, MUXEN, MTYP, MWID, FACCEN, BURSTEN, WAITPOL, WAITCFG, WREN,
 184:Drivers/STM32F4xx_HAL_Driver/Src/stm32f4xx_ll_fsmc.c ****            WAITEN, EXTMOD, ASYNCWAIT,CPSIZE,  CBURSTRW, CCLKEN and WFDIS bits */
 185:Drivers/STM32F4xx_HAL_Driver/Src/stm32f4xx_ll_fsmc.c ****   tmpr &= ((uint32_t)~(FSMC_BCR1_MBKEN     | FSMC_BCR1_MUXEN    | FSMC_BCR1_MTYP      | \
 186:Drivers/STM32F4xx_HAL_Driver/Src/stm32f4xx_ll_fsmc.c ****                        FSMC_BCR1_MWID      | FSMC_BCR1_FACCEN   | FSMC_BCR1_BURSTEN   | \
 187:Drivers/STM32F4xx_HAL_Driver/Src/stm32f4xx_ll_fsmc.c ****                        FSMC_BCR1_WAITPOL   | FSMC_BCR1_WAITCFG  | FSMC_BCR1_WREN      | \
 188:Drivers/STM32F4xx_HAL_Driver/Src/stm32f4xx_ll_fsmc.c ****                        FSMC_BCR1_WAITEN    | FSMC_BCR1_EXTMOD   | FSMC_BCR1_ASYNCWAIT | \
 189:Drivers/STM32F4xx_HAL_Driver/Src/stm32f4xx_ll_fsmc.c ****                        FSMC_BCR1_CPSIZE    | FSMC_BCR1_CBURSTRW | FSMC_BCR1_CCLKEN    | \
 190:Drivers/STM32F4xx_HAL_Driver/Src/stm32f4xx_ll_fsmc.c ****                        FSMC_BCR1_WFDIS));
 191:Drivers/STM32F4xx_HAL_Driver/Src/stm32f4xx_ll_fsmc.c ****   /* Set NORSRAM device control parameters */
 192:Drivers/STM32F4xx_HAL_Driver/Src/stm32f4xx_ll_fsmc.c ****   tmpr |= (uint32_t)(Init->DataAddressMux       |\
 193:Drivers/STM32F4xx_HAL_Driver/Src/stm32f4xx_ll_fsmc.c ****                      Init->MemoryType           |\
 194:Drivers/STM32F4xx_HAL_Driver/Src/stm32f4xx_ll_fsmc.c ****                      Init->MemoryDataWidth      |\
 195:Drivers/STM32F4xx_HAL_Driver/Src/stm32f4xx_ll_fsmc.c ****                      Init->BurstAccessMode      |\
 196:Drivers/STM32F4xx_HAL_Driver/Src/stm32f4xx_ll_fsmc.c ****                      Init->WaitSignalPolarity   |\
 197:Drivers/STM32F4xx_HAL_Driver/Src/stm32f4xx_ll_fsmc.c ****                      Init->WaitSignalActive     |\
 198:Drivers/STM32F4xx_HAL_Driver/Src/stm32f4xx_ll_fsmc.c ****                      Init->WriteOperation       |\
 199:Drivers/STM32F4xx_HAL_Driver/Src/stm32f4xx_ll_fsmc.c ****                      Init->WaitSignal           |\
 200:Drivers/STM32F4xx_HAL_Driver/Src/stm32f4xx_ll_fsmc.c ****                      Init->ExtendedMode         |\
 201:Drivers/STM32F4xx_HAL_Driver/Src/stm32f4xx_ll_fsmc.c ****                      Init->AsynchronousWait     |\
 202:Drivers/STM32F4xx_HAL_Driver/Src/stm32f4xx_ll_fsmc.c ****                      Init->WriteBurst           |\
 203:Drivers/STM32F4xx_HAL_Driver/Src/stm32f4xx_ll_fsmc.c ****                      Init->ContinuousClock      |\
 204:Drivers/STM32F4xx_HAL_Driver/Src/stm32f4xx_ll_fsmc.c ****                      Init->PageSize             |\
 205:Drivers/STM32F4xx_HAL_Driver/Src/stm32f4xx_ll_fsmc.c ****                      Init->WriteFifo);
 206:Drivers/STM32F4xx_HAL_Driver/Src/stm32f4xx_ll_fsmc.c **** #endif /* STM32F405xx || STM32F415xx || STM32F407xx || STM32F417xx */ 
 207:Drivers/STM32F4xx_HAL_Driver/Src/stm32f4xx_ll_fsmc.c ****             
ARM GAS  /tmp/ccj7iy9k.s 			page 7


 208:Drivers/STM32F4xx_HAL_Driver/Src/stm32f4xx_ll_fsmc.c ****   if(Init->MemoryType == FSMC_MEMORY_TYPE_NOR)
 124              		.loc 1 208 3 is_stmt 1 view .LVU50
 125              		.loc 1 208 5 is_stmt 0 view .LVU51
 126 0042 082D     		cmp	r5, #8
 127 0044 04D0     		beq	.L4
 128              	.L2:
 209:Drivers/STM32F4xx_HAL_Driver/Src/stm32f4xx_ll_fsmc.c ****   {
 210:Drivers/STM32F4xx_HAL_Driver/Src/stm32f4xx_ll_fsmc.c ****     tmpr |= (uint32_t)FSMC_NORSRAM_FLASH_ACCESS_ENABLE;
 211:Drivers/STM32F4xx_HAL_Driver/Src/stm32f4xx_ll_fsmc.c ****   }
 212:Drivers/STM32F4xx_HAL_Driver/Src/stm32f4xx_ll_fsmc.c **** 
 213:Drivers/STM32F4xx_HAL_Driver/Src/stm32f4xx_ll_fsmc.c ****   Device->BTCR[Init->NSBank] = tmpr;
 129              		.loc 1 213 3 is_stmt 1 view .LVU52
 130              		.loc 1 213 30 is_stmt 0 view .LVU53
 131 0046 40F82430 		str	r3, [r0, r4, lsl #2]
 214:Drivers/STM32F4xx_HAL_Driver/Src/stm32f4xx_ll_fsmc.c **** 
 215:Drivers/STM32F4xx_HAL_Driver/Src/stm32f4xx_ll_fsmc.c **** #if defined(STM32F412Zx) || defined(STM32F412Vx) || defined(STM32F412Rx) || defined(STM32F413xx) ||
 216:Drivers/STM32F4xx_HAL_Driver/Src/stm32f4xx_ll_fsmc.c ****   /* Configure synchronous mode when Continuous clock is enabled for bank2..4 */
 217:Drivers/STM32F4xx_HAL_Driver/Src/stm32f4xx_ll_fsmc.c ****   if((Init->ContinuousClock == FSMC_CONTINUOUS_CLOCK_SYNC_ASYNC) && (Init->NSBank != FSMC_NORSRAM_B
 218:Drivers/STM32F4xx_HAL_Driver/Src/stm32f4xx_ll_fsmc.c ****   {
 219:Drivers/STM32F4xx_HAL_Driver/Src/stm32f4xx_ll_fsmc.c ****     Device->BTCR[FSMC_NORSRAM_BANK1] |= (uint32_t)(Init->ContinuousClock);
 220:Drivers/STM32F4xx_HAL_Driver/Src/stm32f4xx_ll_fsmc.c ****   }
 221:Drivers/STM32F4xx_HAL_Driver/Src/stm32f4xx_ll_fsmc.c **** 
 222:Drivers/STM32F4xx_HAL_Driver/Src/stm32f4xx_ll_fsmc.c ****   if(Init->NSBank != FSMC_NORSRAM_BANK1)
 223:Drivers/STM32F4xx_HAL_Driver/Src/stm32f4xx_ll_fsmc.c ****   {
 224:Drivers/STM32F4xx_HAL_Driver/Src/stm32f4xx_ll_fsmc.c ****     Device->BTCR[FSMC_NORSRAM_BANK1] |= (uint32_t)(Init->WriteFifo);
 225:Drivers/STM32F4xx_HAL_Driver/Src/stm32f4xx_ll_fsmc.c ****   }
 226:Drivers/STM32F4xx_HAL_Driver/Src/stm32f4xx_ll_fsmc.c **** #endif /* STM32F412Zx || STM32F412Vx || STM32F412Rx || STM32F413xx || STM32F423xx */
 227:Drivers/STM32F4xx_HAL_Driver/Src/stm32f4xx_ll_fsmc.c **** 
 228:Drivers/STM32F4xx_HAL_Driver/Src/stm32f4xx_ll_fsmc.c ****   return HAL_OK;
 132              		.loc 1 228 3 is_stmt 1 view .LVU54
 229:Drivers/STM32F4xx_HAL_Driver/Src/stm32f4xx_ll_fsmc.c **** }
 133              		.loc 1 229 1 is_stmt 0 view .LVU55
 134 004a 0020     		movs	r0, #0
 135              	.LVL5:
 136              		.loc 1 229 1 view .LVU56
 137 004c 70BC     		pop	{r4, r5, r6}
 138              	.LCFI1:
 139              		.cfi_remember_state
 140              		.cfi_restore 6
 141              		.cfi_restore 5
 142              		.cfi_restore 4
 143              		.cfi_def_cfa_offset 0
 144 004e 7047     		bx	lr
 145              	.LVL6:
 146              	.L4:
 147              	.LCFI2:
 148              		.cfi_restore_state
 210:Drivers/STM32F4xx_HAL_Driver/Src/stm32f4xx_ll_fsmc.c ****   }
 149              		.loc 1 210 5 is_stmt 1 view .LVU57
 210:Drivers/STM32F4xx_HAL_Driver/Src/stm32f4xx_ll_fsmc.c ****   }
 150              		.loc 1 210 10 is_stmt 0 view .LVU58
 151 0050 43F04003 		orr	r3, r3, #64
 152              	.LVL7:
 210:Drivers/STM32F4xx_HAL_Driver/Src/stm32f4xx_ll_fsmc.c ****   }
 153              		.loc 1 210 10 view .LVU59
 154 0054 F7E7     		b	.L2
 155              	.L6:
ARM GAS  /tmp/ccj7iy9k.s 			page 8


 156 0056 00BF     		.align	2
 157              	.L5:
 158 0058 8000F0FF 		.word	-1048448
 159              		.cfi_endproc
 160              	.LFE130:
 162              		.section	.text.FSMC_NORSRAM_DeInit,"ax",%progbits
 163              		.align	1
 164              		.global	FSMC_NORSRAM_DeInit
 165              		.syntax unified
 166              		.thumb
 167              		.thumb_func
 169              	FSMC_NORSRAM_DeInit:
 170              	.LVL8:
 171              	.LFB131:
 230:Drivers/STM32F4xx_HAL_Driver/Src/stm32f4xx_ll_fsmc.c **** 
 231:Drivers/STM32F4xx_HAL_Driver/Src/stm32f4xx_ll_fsmc.c **** /**
 232:Drivers/STM32F4xx_HAL_Driver/Src/stm32f4xx_ll_fsmc.c ****   * @brief  DeInitialize the FSMC_NORSRAM peripheral 
 233:Drivers/STM32F4xx_HAL_Driver/Src/stm32f4xx_ll_fsmc.c ****   * @param  Device Pointer to NORSRAM device instance
 234:Drivers/STM32F4xx_HAL_Driver/Src/stm32f4xx_ll_fsmc.c ****   * @param  ExDevice Pointer to NORSRAM extended mode device instance  
 235:Drivers/STM32F4xx_HAL_Driver/Src/stm32f4xx_ll_fsmc.c ****   * @param  Bank NORSRAM bank number  
 236:Drivers/STM32F4xx_HAL_Driver/Src/stm32f4xx_ll_fsmc.c ****   * @retval HAL status
 237:Drivers/STM32F4xx_HAL_Driver/Src/stm32f4xx_ll_fsmc.c ****   */
 238:Drivers/STM32F4xx_HAL_Driver/Src/stm32f4xx_ll_fsmc.c **** HAL_StatusTypeDef FSMC_NORSRAM_DeInit(FSMC_NORSRAM_TypeDef *Device, FSMC_NORSRAM_EXTENDED_TypeDef *
 239:Drivers/STM32F4xx_HAL_Driver/Src/stm32f4xx_ll_fsmc.c **** {
 172              		.loc 1 239 1 is_stmt 1 view -0
 173              		.cfi_startproc
 174              		@ args = 0, pretend = 0, frame = 0
 175              		@ frame_needed = 0, uses_anonymous_args = 0
 176              		@ link register save eliminated.
 240:Drivers/STM32F4xx_HAL_Driver/Src/stm32f4xx_ll_fsmc.c ****   /* Check the parameters */
 241:Drivers/STM32F4xx_HAL_Driver/Src/stm32f4xx_ll_fsmc.c ****   assert_param(IS_FSMC_NORSRAM_DEVICE(Device));
 177              		.loc 1 241 3 view .LVU61
 242:Drivers/STM32F4xx_HAL_Driver/Src/stm32f4xx_ll_fsmc.c ****   assert_param(IS_FSMC_NORSRAM_EXTENDED_DEVICE(ExDevice));
 178              		.loc 1 242 3 view .LVU62
 243:Drivers/STM32F4xx_HAL_Driver/Src/stm32f4xx_ll_fsmc.c ****   assert_param(IS_FSMC_NORSRAM_BANK(Bank));
 179              		.loc 1 243 3 view .LVU63
 244:Drivers/STM32F4xx_HAL_Driver/Src/stm32f4xx_ll_fsmc.c **** 
 245:Drivers/STM32F4xx_HAL_Driver/Src/stm32f4xx_ll_fsmc.c ****   /* Disable the FSMC_NORSRAM device */
 246:Drivers/STM32F4xx_HAL_Driver/Src/stm32f4xx_ll_fsmc.c ****   __FSMC_NORSRAM_DISABLE(Device, Bank);
 180              		.loc 1 246 3 view .LVU64
 181 0000 50F82230 		ldr	r3, [r0, r2, lsl #2]
 182 0004 23F00103 		bic	r3, r3, #1
 183 0008 40F82230 		str	r3, [r0, r2, lsl #2]
 247:Drivers/STM32F4xx_HAL_Driver/Src/stm32f4xx_ll_fsmc.c ****   
 248:Drivers/STM32F4xx_HAL_Driver/Src/stm32f4xx_ll_fsmc.c ****   /* De-initialize the FSMC_NORSRAM device */
 249:Drivers/STM32F4xx_HAL_Driver/Src/stm32f4xx_ll_fsmc.c ****   /* FSMC_NORSRAM_BANK1 */
 250:Drivers/STM32F4xx_HAL_Driver/Src/stm32f4xx_ll_fsmc.c ****   if(Bank == FSMC_NORSRAM_BANK1)
 184              		.loc 1 250 3 view .LVU65
 185              		.loc 1 250 5 is_stmt 0 view .LVU66
 186 000c 6AB9     		cbnz	r2, .L8
 251:Drivers/STM32F4xx_HAL_Driver/Src/stm32f4xx_ll_fsmc.c ****   {
 252:Drivers/STM32F4xx_HAL_Driver/Src/stm32f4xx_ll_fsmc.c ****     Device->BTCR[Bank] = 0x000030DBU;    
 187              		.loc 1 252 5 is_stmt 1 view .LVU67
 188              		.loc 1 252 24 is_stmt 0 view .LVU68
 189 000e 43F2DB03 		movw	r3, #12507
 190 0012 40F82230 		str	r3, [r0, r2, lsl #2]
 191              	.L9:
ARM GAS  /tmp/ccj7iy9k.s 			page 9


 253:Drivers/STM32F4xx_HAL_Driver/Src/stm32f4xx_ll_fsmc.c ****   }
 254:Drivers/STM32F4xx_HAL_Driver/Src/stm32f4xx_ll_fsmc.c ****   /* FSMC_NORSRAM_BANK2, FSMC_NORSRAM_BANK3 or FSMC_NORSRAM_BANK4 */
 255:Drivers/STM32F4xx_HAL_Driver/Src/stm32f4xx_ll_fsmc.c ****   else
 256:Drivers/STM32F4xx_HAL_Driver/Src/stm32f4xx_ll_fsmc.c ****   {   
 257:Drivers/STM32F4xx_HAL_Driver/Src/stm32f4xx_ll_fsmc.c ****     Device->BTCR[Bank] = 0x000030D2U; 
 258:Drivers/STM32F4xx_HAL_Driver/Src/stm32f4xx_ll_fsmc.c ****   }
 259:Drivers/STM32F4xx_HAL_Driver/Src/stm32f4xx_ll_fsmc.c ****   
 260:Drivers/STM32F4xx_HAL_Driver/Src/stm32f4xx_ll_fsmc.c ****   Device->BTCR[Bank + 1U] = 0x0FFFFFFFU;
 192              		.loc 1 260 3 is_stmt 1 view .LVU69
 193              		.loc 1 260 21 is_stmt 0 view .LVU70
 194 0016 02F1010C 		add	ip, r2, #1
 195              		.loc 1 260 27 view .LVU71
 196 001a 6FF07043 		mvn	r3, #-268435456
 197 001e 40F82C30 		str	r3, [r0, ip, lsl #2]
 261:Drivers/STM32F4xx_HAL_Driver/Src/stm32f4xx_ll_fsmc.c ****   ExDevice->BWTR[Bank]    = 0x0FFFFFFFU;
 198              		.loc 1 261 3 is_stmt 1 view .LVU72
 199              		.loc 1 261 27 is_stmt 0 view .LVU73
 200 0022 41F82230 		str	r3, [r1, r2, lsl #2]
 262:Drivers/STM32F4xx_HAL_Driver/Src/stm32f4xx_ll_fsmc.c ****    
 263:Drivers/STM32F4xx_HAL_Driver/Src/stm32f4xx_ll_fsmc.c ****   return HAL_OK;
 201              		.loc 1 263 3 is_stmt 1 view .LVU74
 264:Drivers/STM32F4xx_HAL_Driver/Src/stm32f4xx_ll_fsmc.c **** }
 202              		.loc 1 264 1 is_stmt 0 view .LVU75
 203 0026 0020     		movs	r0, #0
 204              	.LVL9:
 205              		.loc 1 264 1 view .LVU76
 206 0028 7047     		bx	lr
 207              	.LVL10:
 208              	.L8:
 257:Drivers/STM32F4xx_HAL_Driver/Src/stm32f4xx_ll_fsmc.c ****   }
 209              		.loc 1 257 5 is_stmt 1 view .LVU77
 257:Drivers/STM32F4xx_HAL_Driver/Src/stm32f4xx_ll_fsmc.c ****   }
 210              		.loc 1 257 24 is_stmt 0 view .LVU78
 211 002a 43F2D203 		movw	r3, #12498
 212 002e 40F82230 		str	r3, [r0, r2, lsl #2]
 213 0032 F0E7     		b	.L9
 214              		.cfi_endproc
 215              	.LFE131:
 217              		.section	.text.FSMC_NORSRAM_Timing_Init,"ax",%progbits
 218              		.align	1
 219              		.global	FSMC_NORSRAM_Timing_Init
 220              		.syntax unified
 221              		.thumb
 222              		.thumb_func
 224              	FSMC_NORSRAM_Timing_Init:
 225              	.LVL11:
 226              	.LFB132:
 265:Drivers/STM32F4xx_HAL_Driver/Src/stm32f4xx_ll_fsmc.c **** 
 266:Drivers/STM32F4xx_HAL_Driver/Src/stm32f4xx_ll_fsmc.c **** 
 267:Drivers/STM32F4xx_HAL_Driver/Src/stm32f4xx_ll_fsmc.c **** /**
 268:Drivers/STM32F4xx_HAL_Driver/Src/stm32f4xx_ll_fsmc.c ****   * @brief  Initialize the FSMC_NORSRAM Timing according to the specified
 269:Drivers/STM32F4xx_HAL_Driver/Src/stm32f4xx_ll_fsmc.c ****   *         parameters in the FSMC_NORSRAM_TimingTypeDef
 270:Drivers/STM32F4xx_HAL_Driver/Src/stm32f4xx_ll_fsmc.c ****   * @param  Device Pointer to NORSRAM device instance
 271:Drivers/STM32F4xx_HAL_Driver/Src/stm32f4xx_ll_fsmc.c ****   * @param  Timing Pointer to NORSRAM Timing structure
 272:Drivers/STM32F4xx_HAL_Driver/Src/stm32f4xx_ll_fsmc.c ****   * @param  Bank NORSRAM bank number  
 273:Drivers/STM32F4xx_HAL_Driver/Src/stm32f4xx_ll_fsmc.c ****   * @retval HAL status
 274:Drivers/STM32F4xx_HAL_Driver/Src/stm32f4xx_ll_fsmc.c ****   */
ARM GAS  /tmp/ccj7iy9k.s 			page 10


 275:Drivers/STM32F4xx_HAL_Driver/Src/stm32f4xx_ll_fsmc.c **** HAL_StatusTypeDef FSMC_NORSRAM_Timing_Init(FSMC_NORSRAM_TypeDef *Device, FSMC_NORSRAM_TimingTypeDef
 276:Drivers/STM32F4xx_HAL_Driver/Src/stm32f4xx_ll_fsmc.c **** {
 227              		.loc 1 276 1 is_stmt 1 view -0
 228              		.cfi_startproc
 229              		@ args = 0, pretend = 0, frame = 0
 230              		@ frame_needed = 0, uses_anonymous_args = 0
 231              		.loc 1 276 1 is_stmt 0 view .LVU80
 232 0000 10B5     		push	{r4, lr}
 233              	.LCFI3:
 234              		.cfi_def_cfa_offset 8
 235              		.cfi_offset 4, -8
 236              		.cfi_offset 14, -4
 277:Drivers/STM32F4xx_HAL_Driver/Src/stm32f4xx_ll_fsmc.c ****   uint32_t tmpr = 0U;
 237              		.loc 1 277 3 is_stmt 1 view .LVU81
 238              	.LVL12:
 278:Drivers/STM32F4xx_HAL_Driver/Src/stm32f4xx_ll_fsmc.c ****   
 279:Drivers/STM32F4xx_HAL_Driver/Src/stm32f4xx_ll_fsmc.c ****   /* Check the parameters */
 280:Drivers/STM32F4xx_HAL_Driver/Src/stm32f4xx_ll_fsmc.c ****   assert_param(IS_FSMC_NORSRAM_DEVICE(Device));
 239              		.loc 1 280 3 view .LVU82
 281:Drivers/STM32F4xx_HAL_Driver/Src/stm32f4xx_ll_fsmc.c ****   assert_param(IS_FSMC_ADDRESS_SETUP_TIME(Timing->AddressSetupTime));
 240              		.loc 1 281 3 view .LVU83
 282:Drivers/STM32F4xx_HAL_Driver/Src/stm32f4xx_ll_fsmc.c ****   assert_param(IS_FSMC_ADDRESS_HOLD_TIME(Timing->AddressHoldTime));
 241              		.loc 1 282 3 view .LVU84
 283:Drivers/STM32F4xx_HAL_Driver/Src/stm32f4xx_ll_fsmc.c ****   assert_param(IS_FSMC_DATASETUP_TIME(Timing->DataSetupTime));
 242              		.loc 1 283 3 view .LVU85
 284:Drivers/STM32F4xx_HAL_Driver/Src/stm32f4xx_ll_fsmc.c ****   assert_param(IS_FSMC_TURNAROUND_TIME(Timing->BusTurnAroundDuration));
 243              		.loc 1 284 3 view .LVU86
 285:Drivers/STM32F4xx_HAL_Driver/Src/stm32f4xx_ll_fsmc.c ****   assert_param(IS_FSMC_CLK_DIV(Timing->CLKDivision));
 244              		.loc 1 285 3 view .LVU87
 286:Drivers/STM32F4xx_HAL_Driver/Src/stm32f4xx_ll_fsmc.c ****   assert_param(IS_FSMC_DATA_LATENCY(Timing->DataLatency));
 245              		.loc 1 286 3 view .LVU88
 287:Drivers/STM32F4xx_HAL_Driver/Src/stm32f4xx_ll_fsmc.c ****   assert_param(IS_FSMC_ACCESS_MODE(Timing->AccessMode));
 246              		.loc 1 287 3 view .LVU89
 288:Drivers/STM32F4xx_HAL_Driver/Src/stm32f4xx_ll_fsmc.c ****   assert_param(IS_FSMC_NORSRAM_BANK(Bank));
 247              		.loc 1 288 3 view .LVU90
 289:Drivers/STM32F4xx_HAL_Driver/Src/stm32f4xx_ll_fsmc.c ****   
 290:Drivers/STM32F4xx_HAL_Driver/Src/stm32f4xx_ll_fsmc.c ****   /* Get the BTCR register value */
 291:Drivers/STM32F4xx_HAL_Driver/Src/stm32f4xx_ll_fsmc.c ****   tmpr = Device->BTCR[Bank + 1U];
 248              		.loc 1 291 3 view .LVU91
 249              		.loc 1 291 28 is_stmt 0 view .LVU92
 250 0002 0132     		adds	r2, r2, #1
 251              	.LVL13:
 252              		.loc 1 291 8 view .LVU93
 253 0004 50F82230 		ldr	r3, [r0, r2, lsl #2]
 254              	.LVL14:
 292:Drivers/STM32F4xx_HAL_Driver/Src/stm32f4xx_ll_fsmc.c **** 
 293:Drivers/STM32F4xx_HAL_Driver/Src/stm32f4xx_ll_fsmc.c ****   /* Clear ADDSET, ADDHLD, DATAST, BUSTURN, CLKDIV, DATLAT and ACCMOD bits */
 294:Drivers/STM32F4xx_HAL_Driver/Src/stm32f4xx_ll_fsmc.c ****   tmpr &= ((uint32_t)~(FSMC_BTR1_ADDSET  | FSMC_BTR1_ADDHLD | FSMC_BTR1_DATAST | \
 255              		.loc 1 294 3 is_stmt 1 view .LVU94
 256              		.loc 1 294 8 is_stmt 0 view .LVU95
 257 0008 03F0404C 		and	ip, r3, #-1073741824
 258              	.LVL15:
 295:Drivers/STM32F4xx_HAL_Driver/Src/stm32f4xx_ll_fsmc.c ****                        FSMC_BTR1_BUSTURN | FSMC_BTR1_CLKDIV | FSMC_BTR1_DATLAT | \
 296:Drivers/STM32F4xx_HAL_Driver/Src/stm32f4xx_ll_fsmc.c ****                        FSMC_BTR1_ACCMOD));
 297:Drivers/STM32F4xx_HAL_Driver/Src/stm32f4xx_ll_fsmc.c ****   
 298:Drivers/STM32F4xx_HAL_Driver/Src/stm32f4xx_ll_fsmc.c ****   /* Set FSMC_NORSRAM device timing parameters */  
 299:Drivers/STM32F4xx_HAL_Driver/Src/stm32f4xx_ll_fsmc.c ****   tmpr |= (uint32_t)(Timing->AddressSetupTime                  |\
ARM GAS  /tmp/ccj7iy9k.s 			page 11


 259              		.loc 1 299 3 is_stmt 1 view .LVU96
 260              		.loc 1 299 28 is_stmt 0 view .LVU97
 261 000c 0B68     		ldr	r3, [r1]
 262              		.loc 1 299 64 view .LVU98
 263 000e 4C68     		ldr	r4, [r1, #4]
 264 0010 43EA0413 		orr	r3, r3, r4, lsl #4
 300:Drivers/STM32F4xx_HAL_Driver/Src/stm32f4xx_ll_fsmc.c ****                     ((Timing->AddressHoldTime) << 4U)          |\
 265              		.loc 1 300 64 view .LVU99
 266 0014 8C68     		ldr	r4, [r1, #8]
 267 0016 43EA0423 		orr	r3, r3, r4, lsl #8
 301:Drivers/STM32F4xx_HAL_Driver/Src/stm32f4xx_ll_fsmc.c ****                     ((Timing->DataSetupTime) << 8U)            |\
 268              		.loc 1 301 64 view .LVU100
 269 001a CC68     		ldr	r4, [r1, #12]
 270 001c 43EA0443 		orr	r3, r3, r4, lsl #16
 302:Drivers/STM32F4xx_HAL_Driver/Src/stm32f4xx_ll_fsmc.c ****                     ((Timing->BusTurnAroundDuration) << 16U)   |\
 303:Drivers/STM32F4xx_HAL_Driver/Src/stm32f4xx_ll_fsmc.c ****                     (((Timing->CLKDivision)-1U) << 20U)        |\
 271              		.loc 1 303 44 view .LVU101
 272 0020 0C69     		ldr	r4, [r1, #16]
 273 0022 04F1FF3E 		add	lr, r4, #-1
 302:Drivers/STM32F4xx_HAL_Driver/Src/stm32f4xx_ll_fsmc.c ****                     ((Timing->BusTurnAroundDuration) << 16U)   |\
 274              		.loc 1 302 64 view .LVU102
 275 0026 43EA0E53 		orr	r3, r3, lr, lsl #20
 304:Drivers/STM32F4xx_HAL_Driver/Src/stm32f4xx_ll_fsmc.c ****                     (((Timing->DataLatency)-2U) << 24U)        |\
 276              		.loc 1 304 44 view .LVU103
 277 002a 4C69     		ldr	r4, [r1, #20]
 278 002c A4F1020E 		sub	lr, r4, #2
 303:Drivers/STM32F4xx_HAL_Driver/Src/stm32f4xx_ll_fsmc.c ****                     (((Timing->DataLatency)-2U) << 24U)        |\
 279              		.loc 1 303 64 view .LVU104
 280 0030 43EA0E63 		orr	r3, r3, lr, lsl #24
 305:Drivers/STM32F4xx_HAL_Driver/Src/stm32f4xx_ll_fsmc.c ****                     (Timing->AccessMode));
 281              		.loc 1 305 28 view .LVU105
 282 0034 8969     		ldr	r1, [r1, #24]
 283              	.LVL16:
 299:Drivers/STM32F4xx_HAL_Driver/Src/stm32f4xx_ll_fsmc.c ****                     ((Timing->AddressHoldTime) << 4U)          |\
 284              		.loc 1 299 11 view .LVU106
 285 0036 0B43     		orrs	r3, r3, r1
 299:Drivers/STM32F4xx_HAL_Driver/Src/stm32f4xx_ll_fsmc.c ****                     ((Timing->AddressHoldTime) << 4U)          |\
 286              		.loc 1 299 8 view .LVU107
 287 0038 43EA0C03 		orr	r3, r3, ip
 288              	.LVL17:
 306:Drivers/STM32F4xx_HAL_Driver/Src/stm32f4xx_ll_fsmc.c ****   
 307:Drivers/STM32F4xx_HAL_Driver/Src/stm32f4xx_ll_fsmc.c ****   Device->BTCR[Bank + 1] = tmpr; 
 289              		.loc 1 307 3 is_stmt 1 view .LVU108
 290              		.loc 1 307 26 is_stmt 0 view .LVU109
 291 003c 40F82230 		str	r3, [r0, r2, lsl #2]
 308:Drivers/STM32F4xx_HAL_Driver/Src/stm32f4xx_ll_fsmc.c **** 
 309:Drivers/STM32F4xx_HAL_Driver/Src/stm32f4xx_ll_fsmc.c **** #if defined(STM32F412Zx) || defined(STM32F412Vx) || defined(STM32F412Rx) || defined(STM32F413xx) ||
 310:Drivers/STM32F4xx_HAL_Driver/Src/stm32f4xx_ll_fsmc.c ****   /* Configure Clock division value (in NORSRAM bank 1) when continuous clock is enabled */
 311:Drivers/STM32F4xx_HAL_Driver/Src/stm32f4xx_ll_fsmc.c ****   if(HAL_IS_BIT_SET(Device->BTCR[FSMC_NORSRAM_BANK1], FSMC_BCR1_CCLKEN))
 312:Drivers/STM32F4xx_HAL_Driver/Src/stm32f4xx_ll_fsmc.c ****   {
 313:Drivers/STM32F4xx_HAL_Driver/Src/stm32f4xx_ll_fsmc.c ****     tmpr = (uint32_t)(Device->BTCR[FSMC_NORSRAM_BANK1 + 1U] & ~(0x0FU << 20U)); 
 314:Drivers/STM32F4xx_HAL_Driver/Src/stm32f4xx_ll_fsmc.c ****     tmpr |= (uint32_t)(((Timing->CLKDivision)-1U) << 20U);
 315:Drivers/STM32F4xx_HAL_Driver/Src/stm32f4xx_ll_fsmc.c ****     Device->BTCR[FSMC_NORSRAM_BANK1 + 1U] = tmpr;
 316:Drivers/STM32F4xx_HAL_Driver/Src/stm32f4xx_ll_fsmc.c ****   }
 317:Drivers/STM32F4xx_HAL_Driver/Src/stm32f4xx_ll_fsmc.c **** #endif /* STM32F412Zx || STM32F412Vx || STM32F412Rx || STM32F413xx || STM32F423xx */
 318:Drivers/STM32F4xx_HAL_Driver/Src/stm32f4xx_ll_fsmc.c **** 
 319:Drivers/STM32F4xx_HAL_Driver/Src/stm32f4xx_ll_fsmc.c ****   return HAL_OK;
ARM GAS  /tmp/ccj7iy9k.s 			page 12


 292              		.loc 1 319 3 is_stmt 1 view .LVU110
 320:Drivers/STM32F4xx_HAL_Driver/Src/stm32f4xx_ll_fsmc.c **** }
 293              		.loc 1 320 1 is_stmt 0 view .LVU111
 294 0040 0020     		movs	r0, #0
 295              	.LVL18:
 296              		.loc 1 320 1 view .LVU112
 297 0042 10BD     		pop	{r4, pc}
 298              		.cfi_endproc
 299              	.LFE132:
 301              		.section	.text.FSMC_NORSRAM_Extended_Timing_Init,"ax",%progbits
 302              		.align	1
 303              		.global	FSMC_NORSRAM_Extended_Timing_Init
 304              		.syntax unified
 305              		.thumb
 306              		.thumb_func
 308              	FSMC_NORSRAM_Extended_Timing_Init:
 309              	.LVL19:
 310              	.LFB133:
 321:Drivers/STM32F4xx_HAL_Driver/Src/stm32f4xx_ll_fsmc.c **** 
 322:Drivers/STM32F4xx_HAL_Driver/Src/stm32f4xx_ll_fsmc.c **** /**
 323:Drivers/STM32F4xx_HAL_Driver/Src/stm32f4xx_ll_fsmc.c ****   * @brief  Initialize the FSMC_NORSRAM Extended mode Timing according to the specified
 324:Drivers/STM32F4xx_HAL_Driver/Src/stm32f4xx_ll_fsmc.c ****   *         parameters in the FSMC_NORSRAM_TimingTypeDef
 325:Drivers/STM32F4xx_HAL_Driver/Src/stm32f4xx_ll_fsmc.c ****   * @param  Device Pointer to NORSRAM device instance
 326:Drivers/STM32F4xx_HAL_Driver/Src/stm32f4xx_ll_fsmc.c ****   * @param  Timing Pointer to NORSRAM Timing structure
 327:Drivers/STM32F4xx_HAL_Driver/Src/stm32f4xx_ll_fsmc.c ****   * @param  Bank NORSRAM bank number  
 328:Drivers/STM32F4xx_HAL_Driver/Src/stm32f4xx_ll_fsmc.c ****   * @retval HAL status
 329:Drivers/STM32F4xx_HAL_Driver/Src/stm32f4xx_ll_fsmc.c ****   */
 330:Drivers/STM32F4xx_HAL_Driver/Src/stm32f4xx_ll_fsmc.c **** HAL_StatusTypeDef  FSMC_NORSRAM_Extended_Timing_Init(FSMC_NORSRAM_EXTENDED_TypeDef *Device, FSMC_NO
 331:Drivers/STM32F4xx_HAL_Driver/Src/stm32f4xx_ll_fsmc.c **** {
 311              		.loc 1 331 1 is_stmt 1 view -0
 312              		.cfi_startproc
 313              		@ args = 0, pretend = 0, frame = 0
 314              		@ frame_needed = 0, uses_anonymous_args = 0
 315              		@ link register save eliminated.
 332:Drivers/STM32F4xx_HAL_Driver/Src/stm32f4xx_ll_fsmc.c ****   uint32_t tmpr = 0U;
 316              		.loc 1 332 3 view .LVU114
 333:Drivers/STM32F4xx_HAL_Driver/Src/stm32f4xx_ll_fsmc.c ****   
 334:Drivers/STM32F4xx_HAL_Driver/Src/stm32f4xx_ll_fsmc.c ****   /* Check the parameters */
 335:Drivers/STM32F4xx_HAL_Driver/Src/stm32f4xx_ll_fsmc.c ****   assert_param(IS_FSMC_EXTENDED_MODE(ExtendedMode));
 317              		.loc 1 335 3 view .LVU115
 336:Drivers/STM32F4xx_HAL_Driver/Src/stm32f4xx_ll_fsmc.c **** 
 337:Drivers/STM32F4xx_HAL_Driver/Src/stm32f4xx_ll_fsmc.c ****   /* Set NORSRAM device timing register for write configuration, if extended mode is used */
 338:Drivers/STM32F4xx_HAL_Driver/Src/stm32f4xx_ll_fsmc.c ****   if(ExtendedMode == FSMC_EXTENDED_MODE_ENABLE)
 318              		.loc 1 338 3 view .LVU116
 319              		.loc 1 338 5 is_stmt 0 view .LVU117
 320 0000 B3F5804F 		cmp	r3, #16384
 321 0004 05D0     		beq	.L19
 339:Drivers/STM32F4xx_HAL_Driver/Src/stm32f4xx_ll_fsmc.c ****   {
 340:Drivers/STM32F4xx_HAL_Driver/Src/stm32f4xx_ll_fsmc.c ****     /* Check the parameters */
 341:Drivers/STM32F4xx_HAL_Driver/Src/stm32f4xx_ll_fsmc.c ****     assert_param(IS_FSMC_NORSRAM_EXTENDED_DEVICE(Device));
 342:Drivers/STM32F4xx_HAL_Driver/Src/stm32f4xx_ll_fsmc.c ****     assert_param(IS_FSMC_ADDRESS_SETUP_TIME(Timing->AddressSetupTime));
 343:Drivers/STM32F4xx_HAL_Driver/Src/stm32f4xx_ll_fsmc.c ****     assert_param(IS_FSMC_ADDRESS_HOLD_TIME(Timing->AddressHoldTime));
 344:Drivers/STM32F4xx_HAL_Driver/Src/stm32f4xx_ll_fsmc.c ****     assert_param(IS_FSMC_DATASETUP_TIME(Timing->DataSetupTime));
 345:Drivers/STM32F4xx_HAL_Driver/Src/stm32f4xx_ll_fsmc.c ****     assert_param(IS_FSMC_TURNAROUND_TIME(Timing->BusTurnAroundDuration));
 346:Drivers/STM32F4xx_HAL_Driver/Src/stm32f4xx_ll_fsmc.c ****     assert_param(IS_FSMC_ACCESS_MODE(Timing->AccessMode));
 347:Drivers/STM32F4xx_HAL_Driver/Src/stm32f4xx_ll_fsmc.c ****     assert_param(IS_FSMC_NORSRAM_BANK(Bank));
 348:Drivers/STM32F4xx_HAL_Driver/Src/stm32f4xx_ll_fsmc.c ****   
ARM GAS  /tmp/ccj7iy9k.s 			page 13


 349:Drivers/STM32F4xx_HAL_Driver/Src/stm32f4xx_ll_fsmc.c ****     /* Get the BWTR register value */
 350:Drivers/STM32F4xx_HAL_Driver/Src/stm32f4xx_ll_fsmc.c ****     tmpr = Device->BWTR[Bank];
 351:Drivers/STM32F4xx_HAL_Driver/Src/stm32f4xx_ll_fsmc.c ****     
 352:Drivers/STM32F4xx_HAL_Driver/Src/stm32f4xx_ll_fsmc.c ****     /* Clear ADDSET, ADDHLD, DATAST, BUSTURN and ACCMOD bits */
 353:Drivers/STM32F4xx_HAL_Driver/Src/stm32f4xx_ll_fsmc.c ****     tmpr &= ((uint32_t)~(FSMC_BWTR1_ADDSET  | FSMC_BWTR1_ADDHLD | FSMC_BWTR1_DATAST | \
 354:Drivers/STM32F4xx_HAL_Driver/Src/stm32f4xx_ll_fsmc.c ****                          FSMC_BWTR1_BUSTURN | FSMC_BWTR1_ACCMOD));
 355:Drivers/STM32F4xx_HAL_Driver/Src/stm32f4xx_ll_fsmc.c **** 
 356:Drivers/STM32F4xx_HAL_Driver/Src/stm32f4xx_ll_fsmc.c ****     tmpr |= (uint32_t)(Timing->AddressSetupTime                  |\
 357:Drivers/STM32F4xx_HAL_Driver/Src/stm32f4xx_ll_fsmc.c ****                       ((Timing->AddressHoldTime) << 4U)          |\
 358:Drivers/STM32F4xx_HAL_Driver/Src/stm32f4xx_ll_fsmc.c ****                       ((Timing->DataSetupTime) << 8U)            |\
 359:Drivers/STM32F4xx_HAL_Driver/Src/stm32f4xx_ll_fsmc.c ****                       ((Timing->BusTurnAroundDuration) << 16U)   |\
 360:Drivers/STM32F4xx_HAL_Driver/Src/stm32f4xx_ll_fsmc.c ****                       (Timing->AccessMode));
 361:Drivers/STM32F4xx_HAL_Driver/Src/stm32f4xx_ll_fsmc.c ****     
 362:Drivers/STM32F4xx_HAL_Driver/Src/stm32f4xx_ll_fsmc.c ****     Device->BWTR[Bank] = tmpr;
 363:Drivers/STM32F4xx_HAL_Driver/Src/stm32f4xx_ll_fsmc.c ****   }
 364:Drivers/STM32F4xx_HAL_Driver/Src/stm32f4xx_ll_fsmc.c ****   else                                        
 365:Drivers/STM32F4xx_HAL_Driver/Src/stm32f4xx_ll_fsmc.c ****   {
 366:Drivers/STM32F4xx_HAL_Driver/Src/stm32f4xx_ll_fsmc.c ****     Device->BWTR[Bank] = 0x0FFFFFFFU;
 322              		.loc 1 366 5 is_stmt 1 view .LVU118
 323              		.loc 1 366 24 is_stmt 0 view .LVU119
 324 0006 6FF07043 		mvn	r3, #-268435456
 325              	.LVL20:
 326              		.loc 1 366 24 view .LVU120
 327 000a 40F82230 		str	r3, [r0, r2, lsl #2]
 367:Drivers/STM32F4xx_HAL_Driver/Src/stm32f4xx_ll_fsmc.c ****   }   
 368:Drivers/STM32F4xx_HAL_Driver/Src/stm32f4xx_ll_fsmc.c ****   
 369:Drivers/STM32F4xx_HAL_Driver/Src/stm32f4xx_ll_fsmc.c ****   return HAL_OK;  
 328              		.loc 1 369 3 is_stmt 1 view .LVU121
 370:Drivers/STM32F4xx_HAL_Driver/Src/stm32f4xx_ll_fsmc.c **** }
 329              		.loc 1 370 1 is_stmt 0 view .LVU122
 330 000e 0020     		movs	r0, #0
 331              	.LVL21:
 332              		.loc 1 370 1 view .LVU123
 333 0010 7047     		bx	lr
 334              	.LVL22:
 335              	.L19:
 331:Drivers/STM32F4xx_HAL_Driver/Src/stm32f4xx_ll_fsmc.c ****   uint32_t tmpr = 0U;
 336              		.loc 1 331 1 view .LVU124
 337 0012 30B4     		push	{r4, r5}
 338              	.LCFI4:
 339              		.cfi_def_cfa_offset 8
 340              		.cfi_offset 4, -8
 341              		.cfi_offset 5, -4
 341:Drivers/STM32F4xx_HAL_Driver/Src/stm32f4xx_ll_fsmc.c ****     assert_param(IS_FSMC_ADDRESS_SETUP_TIME(Timing->AddressSetupTime));
 342              		.loc 1 341 5 is_stmt 1 view .LVU125
 342:Drivers/STM32F4xx_HAL_Driver/Src/stm32f4xx_ll_fsmc.c ****     assert_param(IS_FSMC_ADDRESS_HOLD_TIME(Timing->AddressHoldTime));
 343              		.loc 1 342 5 view .LVU126
 343:Drivers/STM32F4xx_HAL_Driver/Src/stm32f4xx_ll_fsmc.c ****     assert_param(IS_FSMC_DATASETUP_TIME(Timing->DataSetupTime));
 344              		.loc 1 343 5 view .LVU127
 344:Drivers/STM32F4xx_HAL_Driver/Src/stm32f4xx_ll_fsmc.c ****     assert_param(IS_FSMC_TURNAROUND_TIME(Timing->BusTurnAroundDuration));
 345              		.loc 1 344 5 view .LVU128
 345:Drivers/STM32F4xx_HAL_Driver/Src/stm32f4xx_ll_fsmc.c ****     assert_param(IS_FSMC_ACCESS_MODE(Timing->AccessMode));
 346              		.loc 1 345 5 view .LVU129
 346:Drivers/STM32F4xx_HAL_Driver/Src/stm32f4xx_ll_fsmc.c ****     assert_param(IS_FSMC_NORSRAM_BANK(Bank));
 347              		.loc 1 346 5 view .LVU130
 347:Drivers/STM32F4xx_HAL_Driver/Src/stm32f4xx_ll_fsmc.c ****   
 348              		.loc 1 347 5 view .LVU131
ARM GAS  /tmp/ccj7iy9k.s 			page 14


 350:Drivers/STM32F4xx_HAL_Driver/Src/stm32f4xx_ll_fsmc.c ****     
 349              		.loc 1 350 5 view .LVU132
 350:Drivers/STM32F4xx_HAL_Driver/Src/stm32f4xx_ll_fsmc.c ****     
 350              		.loc 1 350 10 is_stmt 0 view .LVU133
 351 0014 50F82230 		ldr	r3, [r0, r2, lsl #2]
 352              	.LVL23:
 353:Drivers/STM32F4xx_HAL_Driver/Src/stm32f4xx_ll_fsmc.c ****                          FSMC_BWTR1_BUSTURN | FSMC_BWTR1_ACCMOD));
 353              		.loc 1 353 5 is_stmt 1 view .LVU134
 353:Drivers/STM32F4xx_HAL_Driver/Src/stm32f4xx_ll_fsmc.c ****                          FSMC_BWTR1_BUSTURN | FSMC_BWTR1_ACCMOD));
 354              		.loc 1 353 10 is_stmt 0 view .LVU135
 355 0018 094C     		ldr	r4, .L20
 356 001a 1C40     		ands	r4, r4, r3
 357              	.LVL24:
 356:Drivers/STM32F4xx_HAL_Driver/Src/stm32f4xx_ll_fsmc.c ****                       ((Timing->AddressHoldTime) << 4U)          |\
 358              		.loc 1 356 5 is_stmt 1 view .LVU136
 356:Drivers/STM32F4xx_HAL_Driver/Src/stm32f4xx_ll_fsmc.c ****                       ((Timing->AddressHoldTime) << 4U)          |\
 359              		.loc 1 356 30 is_stmt 0 view .LVU137
 360 001c 0B68     		ldr	r3, [r1]
 356:Drivers/STM32F4xx_HAL_Driver/Src/stm32f4xx_ll_fsmc.c ****                       ((Timing->AddressHoldTime) << 4U)          |\
 361              		.loc 1 356 66 view .LVU138
 362 001e 4D68     		ldr	r5, [r1, #4]
 363 0020 43EA0513 		orr	r3, r3, r5, lsl #4
 357:Drivers/STM32F4xx_HAL_Driver/Src/stm32f4xx_ll_fsmc.c ****                       ((Timing->DataSetupTime) << 8U)            |\
 364              		.loc 1 357 66 view .LVU139
 365 0024 8D68     		ldr	r5, [r1, #8]
 366 0026 43EA0523 		orr	r3, r3, r5, lsl #8
 358:Drivers/STM32F4xx_HAL_Driver/Src/stm32f4xx_ll_fsmc.c ****                       ((Timing->BusTurnAroundDuration) << 16U)   |\
 367              		.loc 1 358 66 view .LVU140
 368 002a CD68     		ldr	r5, [r1, #12]
 369 002c 43EA0543 		orr	r3, r3, r5, lsl #16
 360:Drivers/STM32F4xx_HAL_Driver/Src/stm32f4xx_ll_fsmc.c ****     
 370              		.loc 1 360 30 view .LVU141
 371 0030 8969     		ldr	r1, [r1, #24]
 372              	.LVL25:
 359:Drivers/STM32F4xx_HAL_Driver/Src/stm32f4xx_ll_fsmc.c ****                       (Timing->AccessMode));
 373              		.loc 1 359 66 view .LVU142
 374 0032 0B43     		orrs	r3, r3, r1
 356:Drivers/STM32F4xx_HAL_Driver/Src/stm32f4xx_ll_fsmc.c ****                       ((Timing->AddressHoldTime) << 4U)          |\
 375              		.loc 1 356 10 view .LVU143
 376 0034 2343     		orrs	r3, r3, r4
 377              	.LVL26:
 362:Drivers/STM32F4xx_HAL_Driver/Src/stm32f4xx_ll_fsmc.c ****   }
 378              		.loc 1 362 5 is_stmt 1 view .LVU144
 362:Drivers/STM32F4xx_HAL_Driver/Src/stm32f4xx_ll_fsmc.c ****   }
 379              		.loc 1 362 24 is_stmt 0 view .LVU145
 380 0036 40F82230 		str	r3, [r0, r2, lsl #2]
 369:Drivers/STM32F4xx_HAL_Driver/Src/stm32f4xx_ll_fsmc.c **** }
 381              		.loc 1 369 3 is_stmt 1 view .LVU146
 382              		.loc 1 370 1 is_stmt 0 view .LVU147
 383 003a 0020     		movs	r0, #0
 384              	.LVL27:
 385              		.loc 1 370 1 view .LVU148
 386 003c 30BC     		pop	{r4, r5}
 387              	.LCFI5:
 388              		.cfi_restore 5
 389              		.cfi_restore 4
 390              		.cfi_def_cfa_offset 0
ARM GAS  /tmp/ccj7iy9k.s 			page 15


 391 003e 7047     		bx	lr
 392              	.L21:
 393              		.align	2
 394              	.L20:
 395 0040 0000F0CF 		.word	-806354944
 396              		.cfi_endproc
 397              	.LFE133:
 399              		.section	.text.FSMC_NORSRAM_WriteOperation_Enable,"ax",%progbits
 400              		.align	1
 401              		.global	FSMC_NORSRAM_WriteOperation_Enable
 402              		.syntax unified
 403              		.thumb
 404              		.thumb_func
 406              	FSMC_NORSRAM_WriteOperation_Enable:
 407              	.LVL28:
 408              	.LFB134:
 371:Drivers/STM32F4xx_HAL_Driver/Src/stm32f4xx_ll_fsmc.c **** /**
 372:Drivers/STM32F4xx_HAL_Driver/Src/stm32f4xx_ll_fsmc.c ****   * @}
 373:Drivers/STM32F4xx_HAL_Driver/Src/stm32f4xx_ll_fsmc.c ****   */
 374:Drivers/STM32F4xx_HAL_Driver/Src/stm32f4xx_ll_fsmc.c ****   
 375:Drivers/STM32F4xx_HAL_Driver/Src/stm32f4xx_ll_fsmc.c **** /** @addtogroup FSMC_LL_NORSRAM_Private_Functions_Group2
 376:Drivers/STM32F4xx_HAL_Driver/Src/stm32f4xx_ll_fsmc.c ****   *  @brief   management functions 
 377:Drivers/STM32F4xx_HAL_Driver/Src/stm32f4xx_ll_fsmc.c ****   *
 378:Drivers/STM32F4xx_HAL_Driver/Src/stm32f4xx_ll_fsmc.c **** @verbatim   
 379:Drivers/STM32F4xx_HAL_Driver/Src/stm32f4xx_ll_fsmc.c ****   ==============================================================================
 380:Drivers/STM32F4xx_HAL_Driver/Src/stm32f4xx_ll_fsmc.c ****                       ##### FSMC_NORSRAM Control functions #####
 381:Drivers/STM32F4xx_HAL_Driver/Src/stm32f4xx_ll_fsmc.c ****   ==============================================================================
 382:Drivers/STM32F4xx_HAL_Driver/Src/stm32f4xx_ll_fsmc.c ****   [..]
 383:Drivers/STM32F4xx_HAL_Driver/Src/stm32f4xx_ll_fsmc.c ****     This subsection provides a set of functions allowing to control dynamically
 384:Drivers/STM32F4xx_HAL_Driver/Src/stm32f4xx_ll_fsmc.c ****     the FSMC NORSRAM interface.
 385:Drivers/STM32F4xx_HAL_Driver/Src/stm32f4xx_ll_fsmc.c **** 
 386:Drivers/STM32F4xx_HAL_Driver/Src/stm32f4xx_ll_fsmc.c **** @endverbatim
 387:Drivers/STM32F4xx_HAL_Driver/Src/stm32f4xx_ll_fsmc.c ****   * @{
 388:Drivers/STM32F4xx_HAL_Driver/Src/stm32f4xx_ll_fsmc.c ****   */
 389:Drivers/STM32F4xx_HAL_Driver/Src/stm32f4xx_ll_fsmc.c ****     
 390:Drivers/STM32F4xx_HAL_Driver/Src/stm32f4xx_ll_fsmc.c **** /**
 391:Drivers/STM32F4xx_HAL_Driver/Src/stm32f4xx_ll_fsmc.c ****   * @brief  Enables dynamically FSMC_NORSRAM write operation.
 392:Drivers/STM32F4xx_HAL_Driver/Src/stm32f4xx_ll_fsmc.c ****   * @param  Device Pointer to NORSRAM device instance
 393:Drivers/STM32F4xx_HAL_Driver/Src/stm32f4xx_ll_fsmc.c ****   * @param  Bank NORSRAM bank number   
 394:Drivers/STM32F4xx_HAL_Driver/Src/stm32f4xx_ll_fsmc.c ****   * @retval HAL status
 395:Drivers/STM32F4xx_HAL_Driver/Src/stm32f4xx_ll_fsmc.c ****   */
 396:Drivers/STM32F4xx_HAL_Driver/Src/stm32f4xx_ll_fsmc.c **** HAL_StatusTypeDef FSMC_NORSRAM_WriteOperation_Enable(FSMC_NORSRAM_TypeDef *Device, uint32_t Bank)
 397:Drivers/STM32F4xx_HAL_Driver/Src/stm32f4xx_ll_fsmc.c **** {
 409              		.loc 1 397 1 is_stmt 1 view -0
 410              		.cfi_startproc
 411              		@ args = 0, pretend = 0, frame = 0
 412              		@ frame_needed = 0, uses_anonymous_args = 0
 413              		@ link register save eliminated.
 398:Drivers/STM32F4xx_HAL_Driver/Src/stm32f4xx_ll_fsmc.c ****   /* Check the parameters */
 399:Drivers/STM32F4xx_HAL_Driver/Src/stm32f4xx_ll_fsmc.c ****   assert_param(IS_FSMC_NORSRAM_DEVICE(Device));
 414              		.loc 1 399 3 view .LVU150
 400:Drivers/STM32F4xx_HAL_Driver/Src/stm32f4xx_ll_fsmc.c ****   assert_param(IS_FSMC_NORSRAM_BANK(Bank));
 415              		.loc 1 400 3 view .LVU151
 401:Drivers/STM32F4xx_HAL_Driver/Src/stm32f4xx_ll_fsmc.c **** 
 402:Drivers/STM32F4xx_HAL_Driver/Src/stm32f4xx_ll_fsmc.c ****   /* Enable write operation */
 403:Drivers/STM32F4xx_HAL_Driver/Src/stm32f4xx_ll_fsmc.c ****   Device->BTCR[Bank] |= FSMC_WRITE_OPERATION_ENABLE; 
 416              		.loc 1 403 3 view .LVU152
ARM GAS  /tmp/ccj7iy9k.s 			page 16


 417              		.loc 1 403 22 is_stmt 0 view .LVU153
 418 0000 50F82130 		ldr	r3, [r0, r1, lsl #2]
 419 0004 43F48053 		orr	r3, r3, #4096
 420 0008 40F82130 		str	r3, [r0, r1, lsl #2]
 404:Drivers/STM32F4xx_HAL_Driver/Src/stm32f4xx_ll_fsmc.c **** 
 405:Drivers/STM32F4xx_HAL_Driver/Src/stm32f4xx_ll_fsmc.c ****   return HAL_OK;  
 421              		.loc 1 405 3 is_stmt 1 view .LVU154
 406:Drivers/STM32F4xx_HAL_Driver/Src/stm32f4xx_ll_fsmc.c **** }
 422              		.loc 1 406 1 is_stmt 0 view .LVU155
 423 000c 0020     		movs	r0, #0
 424              	.LVL29:
 425              		.loc 1 406 1 view .LVU156
 426 000e 7047     		bx	lr
 427              		.cfi_endproc
 428              	.LFE134:
 430              		.section	.text.FSMC_NORSRAM_WriteOperation_Disable,"ax",%progbits
 431              		.align	1
 432              		.global	FSMC_NORSRAM_WriteOperation_Disable
 433              		.syntax unified
 434              		.thumb
 435              		.thumb_func
 437              	FSMC_NORSRAM_WriteOperation_Disable:
 438              	.LVL30:
 439              	.LFB135:
 407:Drivers/STM32F4xx_HAL_Driver/Src/stm32f4xx_ll_fsmc.c **** 
 408:Drivers/STM32F4xx_HAL_Driver/Src/stm32f4xx_ll_fsmc.c **** /**
 409:Drivers/STM32F4xx_HAL_Driver/Src/stm32f4xx_ll_fsmc.c ****   * @brief  Disables dynamically FSMC_NORSRAM write operation.
 410:Drivers/STM32F4xx_HAL_Driver/Src/stm32f4xx_ll_fsmc.c ****   * @param  Device Pointer to NORSRAM device instance
 411:Drivers/STM32F4xx_HAL_Driver/Src/stm32f4xx_ll_fsmc.c ****   * @param  Bank NORSRAM bank number   
 412:Drivers/STM32F4xx_HAL_Driver/Src/stm32f4xx_ll_fsmc.c ****   * @retval HAL status
 413:Drivers/STM32F4xx_HAL_Driver/Src/stm32f4xx_ll_fsmc.c ****   */
 414:Drivers/STM32F4xx_HAL_Driver/Src/stm32f4xx_ll_fsmc.c **** HAL_StatusTypeDef FSMC_NORSRAM_WriteOperation_Disable(FSMC_NORSRAM_TypeDef *Device, uint32_t Bank)
 415:Drivers/STM32F4xx_HAL_Driver/Src/stm32f4xx_ll_fsmc.c **** {
 440              		.loc 1 415 1 is_stmt 1 view -0
 441              		.cfi_startproc
 442              		@ args = 0, pretend = 0, frame = 0
 443              		@ frame_needed = 0, uses_anonymous_args = 0
 444              		@ link register save eliminated.
 416:Drivers/STM32F4xx_HAL_Driver/Src/stm32f4xx_ll_fsmc.c ****   /* Check the parameters */
 417:Drivers/STM32F4xx_HAL_Driver/Src/stm32f4xx_ll_fsmc.c ****   assert_param(IS_FSMC_NORSRAM_DEVICE(Device));
 445              		.loc 1 417 3 view .LVU158
 418:Drivers/STM32F4xx_HAL_Driver/Src/stm32f4xx_ll_fsmc.c ****   assert_param(IS_FSMC_NORSRAM_BANK(Bank));
 446              		.loc 1 418 3 view .LVU159
 419:Drivers/STM32F4xx_HAL_Driver/Src/stm32f4xx_ll_fsmc.c ****   
 420:Drivers/STM32F4xx_HAL_Driver/Src/stm32f4xx_ll_fsmc.c ****   /* Disable write operation */
 421:Drivers/STM32F4xx_HAL_Driver/Src/stm32f4xx_ll_fsmc.c ****   Device->BTCR[Bank] &= ~FSMC_WRITE_OPERATION_ENABLE; 
 447              		.loc 1 421 3 view .LVU160
 448              		.loc 1 421 22 is_stmt 0 view .LVU161
 449 0000 50F82130 		ldr	r3, [r0, r1, lsl #2]
 450 0004 23F48053 		bic	r3, r3, #4096
 451 0008 40F82130 		str	r3, [r0, r1, lsl #2]
 422:Drivers/STM32F4xx_HAL_Driver/Src/stm32f4xx_ll_fsmc.c **** 
 423:Drivers/STM32F4xx_HAL_Driver/Src/stm32f4xx_ll_fsmc.c ****   return HAL_OK;  
 452              		.loc 1 423 3 is_stmt 1 view .LVU162
 424:Drivers/STM32F4xx_HAL_Driver/Src/stm32f4xx_ll_fsmc.c **** }
 453              		.loc 1 424 1 is_stmt 0 view .LVU163
 454 000c 0020     		movs	r0, #0
ARM GAS  /tmp/ccj7iy9k.s 			page 17


 455              	.LVL31:
 456              		.loc 1 424 1 view .LVU164
 457 000e 7047     		bx	lr
 458              		.cfi_endproc
 459              	.LFE135:
 461              		.section	.text.FSMC_NAND_Init,"ax",%progbits
 462              		.align	1
 463              		.global	FSMC_NAND_Init
 464              		.syntax unified
 465              		.thumb
 466              		.thumb_func
 468              	FSMC_NAND_Init:
 469              	.LVL32:
 470              	.LFB136:
 425:Drivers/STM32F4xx_HAL_Driver/Src/stm32f4xx_ll_fsmc.c **** /**
 426:Drivers/STM32F4xx_HAL_Driver/Src/stm32f4xx_ll_fsmc.c ****   * @}
 427:Drivers/STM32F4xx_HAL_Driver/Src/stm32f4xx_ll_fsmc.c ****   */
 428:Drivers/STM32F4xx_HAL_Driver/Src/stm32f4xx_ll_fsmc.c **** 
 429:Drivers/STM32F4xx_HAL_Driver/Src/stm32f4xx_ll_fsmc.c **** /**
 430:Drivers/STM32F4xx_HAL_Driver/Src/stm32f4xx_ll_fsmc.c ****   * @}
 431:Drivers/STM32F4xx_HAL_Driver/Src/stm32f4xx_ll_fsmc.c ****   */
 432:Drivers/STM32F4xx_HAL_Driver/Src/stm32f4xx_ll_fsmc.c **** 
 433:Drivers/STM32F4xx_HAL_Driver/Src/stm32f4xx_ll_fsmc.c **** #if defined(STM32F405xx) || defined(STM32F415xx) || defined(STM32F407xx) || defined(STM32F417xx)
 434:Drivers/STM32F4xx_HAL_Driver/Src/stm32f4xx_ll_fsmc.c **** /** @addtogroup FSMC_LL_NAND
 435:Drivers/STM32F4xx_HAL_Driver/Src/stm32f4xx_ll_fsmc.c ****   * @brief    NAND Controller functions 
 436:Drivers/STM32F4xx_HAL_Driver/Src/stm32f4xx_ll_fsmc.c ****   *
 437:Drivers/STM32F4xx_HAL_Driver/Src/stm32f4xx_ll_fsmc.c ****   @verbatim 
 438:Drivers/STM32F4xx_HAL_Driver/Src/stm32f4xx_ll_fsmc.c ****   ==============================================================================   
 439:Drivers/STM32F4xx_HAL_Driver/Src/stm32f4xx_ll_fsmc.c ****                     ##### How to use NAND device driver #####
 440:Drivers/STM32F4xx_HAL_Driver/Src/stm32f4xx_ll_fsmc.c ****   ==============================================================================
 441:Drivers/STM32F4xx_HAL_Driver/Src/stm32f4xx_ll_fsmc.c ****   [..]
 442:Drivers/STM32F4xx_HAL_Driver/Src/stm32f4xx_ll_fsmc.c ****     This driver contains a set of APIs to interface with the FSMC NAND banks in order
 443:Drivers/STM32F4xx_HAL_Driver/Src/stm32f4xx_ll_fsmc.c ****     to run the NAND external devices.
 444:Drivers/STM32F4xx_HAL_Driver/Src/stm32f4xx_ll_fsmc.c ****   
 445:Drivers/STM32F4xx_HAL_Driver/Src/stm32f4xx_ll_fsmc.c ****     (+) FSMC NAND bank reset using the function FSMC_NAND_DeInit() 
 446:Drivers/STM32F4xx_HAL_Driver/Src/stm32f4xx_ll_fsmc.c ****     (+) FSMC NAND bank control configuration using the function FSMC_NAND_Init()
 447:Drivers/STM32F4xx_HAL_Driver/Src/stm32f4xx_ll_fsmc.c ****     (+) FSMC NAND bank common space timing configuration using the function 
 448:Drivers/STM32F4xx_HAL_Driver/Src/stm32f4xx_ll_fsmc.c ****         FSMC_NAND_CommonSpace_Timing_Init()
 449:Drivers/STM32F4xx_HAL_Driver/Src/stm32f4xx_ll_fsmc.c ****     (+) FSMC NAND bank attribute space timing configuration using the function 
 450:Drivers/STM32F4xx_HAL_Driver/Src/stm32f4xx_ll_fsmc.c ****         FSMC_NAND_AttributeSpace_Timing_Init()
 451:Drivers/STM32F4xx_HAL_Driver/Src/stm32f4xx_ll_fsmc.c ****     (+) FSMC NAND bank enable/disable ECC correction feature using the functions
 452:Drivers/STM32F4xx_HAL_Driver/Src/stm32f4xx_ll_fsmc.c ****         FSMC_NAND_ECC_Enable()/FSMC_NAND_ECC_Disable()
 453:Drivers/STM32F4xx_HAL_Driver/Src/stm32f4xx_ll_fsmc.c ****     (+) FSMC NAND bank get ECC correction code using the function FSMC_NAND_GetECC()  
 454:Drivers/STM32F4xx_HAL_Driver/Src/stm32f4xx_ll_fsmc.c **** 
 455:Drivers/STM32F4xx_HAL_Driver/Src/stm32f4xx_ll_fsmc.c **** @endverbatim
 456:Drivers/STM32F4xx_HAL_Driver/Src/stm32f4xx_ll_fsmc.c ****   * @{
 457:Drivers/STM32F4xx_HAL_Driver/Src/stm32f4xx_ll_fsmc.c ****   */
 458:Drivers/STM32F4xx_HAL_Driver/Src/stm32f4xx_ll_fsmc.c ****     
 459:Drivers/STM32F4xx_HAL_Driver/Src/stm32f4xx_ll_fsmc.c **** /** @addtogroup FSMC_LL_NAND_Private_Functions_Group1
 460:Drivers/STM32F4xx_HAL_Driver/Src/stm32f4xx_ll_fsmc.c ****   *  @brief    Initialization and Configuration functions 
 461:Drivers/STM32F4xx_HAL_Driver/Src/stm32f4xx_ll_fsmc.c ****   *
 462:Drivers/STM32F4xx_HAL_Driver/Src/stm32f4xx_ll_fsmc.c **** @verbatim    
 463:Drivers/STM32F4xx_HAL_Driver/Src/stm32f4xx_ll_fsmc.c ****   ==============================================================================
 464:Drivers/STM32F4xx_HAL_Driver/Src/stm32f4xx_ll_fsmc.c ****               ##### Initialization and de_initialization functions #####
 465:Drivers/STM32F4xx_HAL_Driver/Src/stm32f4xx_ll_fsmc.c ****   ==============================================================================
 466:Drivers/STM32F4xx_HAL_Driver/Src/stm32f4xx_ll_fsmc.c ****   [..]  
 467:Drivers/STM32F4xx_HAL_Driver/Src/stm32f4xx_ll_fsmc.c ****     This section provides functions allowing to:
ARM GAS  /tmp/ccj7iy9k.s 			page 18


 468:Drivers/STM32F4xx_HAL_Driver/Src/stm32f4xx_ll_fsmc.c ****     (+) Initialize and configure the FSMC NAND interface
 469:Drivers/STM32F4xx_HAL_Driver/Src/stm32f4xx_ll_fsmc.c ****     (+) De-initialize the FSMC NAND interface 
 470:Drivers/STM32F4xx_HAL_Driver/Src/stm32f4xx_ll_fsmc.c ****     (+) Configure the FSMC clock and associated GPIOs
 471:Drivers/STM32F4xx_HAL_Driver/Src/stm32f4xx_ll_fsmc.c ****         
 472:Drivers/STM32F4xx_HAL_Driver/Src/stm32f4xx_ll_fsmc.c **** @endverbatim
 473:Drivers/STM32F4xx_HAL_Driver/Src/stm32f4xx_ll_fsmc.c ****   * @{
 474:Drivers/STM32F4xx_HAL_Driver/Src/stm32f4xx_ll_fsmc.c ****   */
 475:Drivers/STM32F4xx_HAL_Driver/Src/stm32f4xx_ll_fsmc.c ****   
 476:Drivers/STM32F4xx_HAL_Driver/Src/stm32f4xx_ll_fsmc.c **** /**
 477:Drivers/STM32F4xx_HAL_Driver/Src/stm32f4xx_ll_fsmc.c ****   * @brief  Initializes the FSMC_NAND device according to the specified
 478:Drivers/STM32F4xx_HAL_Driver/Src/stm32f4xx_ll_fsmc.c ****   *         control parameters in the FSMC_NAND_HandleTypeDef
 479:Drivers/STM32F4xx_HAL_Driver/Src/stm32f4xx_ll_fsmc.c ****   * @param  Device Pointer to NAND device instance
 480:Drivers/STM32F4xx_HAL_Driver/Src/stm32f4xx_ll_fsmc.c ****   * @param  Init Pointer to NAND Initialization structure
 481:Drivers/STM32F4xx_HAL_Driver/Src/stm32f4xx_ll_fsmc.c ****   * @retval HAL status
 482:Drivers/STM32F4xx_HAL_Driver/Src/stm32f4xx_ll_fsmc.c ****   */
 483:Drivers/STM32F4xx_HAL_Driver/Src/stm32f4xx_ll_fsmc.c **** HAL_StatusTypeDef FSMC_NAND_Init(FSMC_NAND_TypeDef *Device, FSMC_NAND_InitTypeDef *Init)
 484:Drivers/STM32F4xx_HAL_Driver/Src/stm32f4xx_ll_fsmc.c **** {
 471              		.loc 1 484 1 is_stmt 1 view -0
 472              		.cfi_startproc
 473              		@ args = 0, pretend = 0, frame = 0
 474              		@ frame_needed = 0, uses_anonymous_args = 0
 475              		@ link register save eliminated.
 476              		.loc 1 484 1 is_stmt 0 view .LVU166
 477 0000 30B4     		push	{r4, r5}
 478              	.LCFI6:
 479              		.cfi_def_cfa_offset 8
 480              		.cfi_offset 4, -8
 481              		.cfi_offset 5, -4
 485:Drivers/STM32F4xx_HAL_Driver/Src/stm32f4xx_ll_fsmc.c ****   uint32_t tmpr  = 0U; 
 482              		.loc 1 485 3 is_stmt 1 view .LVU167
 483              	.LVL33:
 486:Drivers/STM32F4xx_HAL_Driver/Src/stm32f4xx_ll_fsmc.c ****     
 487:Drivers/STM32F4xx_HAL_Driver/Src/stm32f4xx_ll_fsmc.c ****   /* Check the parameters */
 488:Drivers/STM32F4xx_HAL_Driver/Src/stm32f4xx_ll_fsmc.c ****   assert_param(IS_FSMC_NAND_BANK(Init->NandBank));
 484              		.loc 1 488 3 view .LVU168
 489:Drivers/STM32F4xx_HAL_Driver/Src/stm32f4xx_ll_fsmc.c ****   assert_param(IS_FSMC_WAIT_FEATURE(Init->Waitfeature));
 485              		.loc 1 489 3 view .LVU169
 490:Drivers/STM32F4xx_HAL_Driver/Src/stm32f4xx_ll_fsmc.c ****   assert_param(IS_FSMC_NAND_MEMORY_WIDTH(Init->MemoryDataWidth));
 486              		.loc 1 490 3 view .LVU170
 491:Drivers/STM32F4xx_HAL_Driver/Src/stm32f4xx_ll_fsmc.c ****   assert_param(IS_FSMC_ECC_STATE(Init->EccComputation));
 487              		.loc 1 491 3 view .LVU171
 492:Drivers/STM32F4xx_HAL_Driver/Src/stm32f4xx_ll_fsmc.c ****   assert_param(IS_FSMC_ECCPAGE_SIZE(Init->ECCPageSize));
 488              		.loc 1 492 3 view .LVU172
 493:Drivers/STM32F4xx_HAL_Driver/Src/stm32f4xx_ll_fsmc.c ****   assert_param(IS_FSMC_TCLR_TIME(Init->TCLRSetupTime));
 489              		.loc 1 493 3 view .LVU173
 494:Drivers/STM32F4xx_HAL_Driver/Src/stm32f4xx_ll_fsmc.c ****   assert_param(IS_FSMC_TAR_TIME(Init->TARSetupTime));   
 490              		.loc 1 494 3 view .LVU174
 495:Drivers/STM32F4xx_HAL_Driver/Src/stm32f4xx_ll_fsmc.c **** 
 496:Drivers/STM32F4xx_HAL_Driver/Src/stm32f4xx_ll_fsmc.c ****     if(Init->NandBank == FSMC_NAND_BANK2)
 491              		.loc 1 496 5 view .LVU175
 492              		.loc 1 496 12 is_stmt 0 view .LVU176
 493 0002 0C68     		ldr	r4, [r1]
 494              		.loc 1 496 7 view .LVU177
 495 0004 102C     		cmp	r4, #16
 496 0006 18D0     		beq	.L30
 497:Drivers/STM32F4xx_HAL_Driver/Src/stm32f4xx_ll_fsmc.c ****   {
 498:Drivers/STM32F4xx_HAL_Driver/Src/stm32f4xx_ll_fsmc.c ****     /* Get the NAND bank 2 register value */
ARM GAS  /tmp/ccj7iy9k.s 			page 19


 499:Drivers/STM32F4xx_HAL_Driver/Src/stm32f4xx_ll_fsmc.c ****     tmpr = Device->PCR2;
 500:Drivers/STM32F4xx_HAL_Driver/Src/stm32f4xx_ll_fsmc.c ****   }
 501:Drivers/STM32F4xx_HAL_Driver/Src/stm32f4xx_ll_fsmc.c ****   else
 502:Drivers/STM32F4xx_HAL_Driver/Src/stm32f4xx_ll_fsmc.c ****   {
 503:Drivers/STM32F4xx_HAL_Driver/Src/stm32f4xx_ll_fsmc.c ****     /* Get the NAND bank 3 register value */
 504:Drivers/STM32F4xx_HAL_Driver/Src/stm32f4xx_ll_fsmc.c ****     tmpr = Device->PCR3;
 497              		.loc 1 504 5 is_stmt 1 view .LVU178
 498              		.loc 1 504 10 is_stmt 0 view .LVU179
 499 0008 036A     		ldr	r3, [r0, #32]
 500              	.LVL34:
 501              	.L26:
 505:Drivers/STM32F4xx_HAL_Driver/Src/stm32f4xx_ll_fsmc.c ****   }
 506:Drivers/STM32F4xx_HAL_Driver/Src/stm32f4xx_ll_fsmc.c ****   
 507:Drivers/STM32F4xx_HAL_Driver/Src/stm32f4xx_ll_fsmc.c ****   /* Clear PWAITEN, PBKEN, PTYP, PWID, ECCEN, TCLR, TAR and ECCPS bits */
 508:Drivers/STM32F4xx_HAL_Driver/Src/stm32f4xx_ll_fsmc.c ****   tmpr &= ((uint32_t)~(FSMC_PCR2_PWAITEN  | FSMC_PCR2_PBKEN | FSMC_PCR2_PTYP | \
 502              		.loc 1 508 3 is_stmt 1 view .LVU180
 503              		.loc 1 508 8 is_stmt 0 view .LVU181
 504 000a 0E4A     		ldr	r2, .L32
 505 000c 1A40     		ands	r2, r2, r3
 506              	.LVL35:
 509:Drivers/STM32F4xx_HAL_Driver/Src/stm32f4xx_ll_fsmc.c ****                        FSMC_PCR2_PWID | FSMC_PCR2_ECCEN | FSMC_PCR2_TCLR | \
 510:Drivers/STM32F4xx_HAL_Driver/Src/stm32f4xx_ll_fsmc.c ****                        FSMC_PCR2_TAR | FSMC_PCR2_ECCPS));  
 511:Drivers/STM32F4xx_HAL_Driver/Src/stm32f4xx_ll_fsmc.c ****   
 512:Drivers/STM32F4xx_HAL_Driver/Src/stm32f4xx_ll_fsmc.c ****   /* Set NAND device control parameters */
 513:Drivers/STM32F4xx_HAL_Driver/Src/stm32f4xx_ll_fsmc.c ****   tmpr |= (uint32_t)(Init->Waitfeature                |\
 507              		.loc 1 513 3 is_stmt 1 view .LVU182
 508              		.loc 1 513 26 is_stmt 0 view .LVU183
 509 000e 4B68     		ldr	r3, [r1, #4]
 514:Drivers/STM32F4xx_HAL_Driver/Src/stm32f4xx_ll_fsmc.c ****                      FSMC_PCR_MEMORY_TYPE_NAND        |\
 510              		.loc 1 514 55 view .LVU184
 511 0010 8D68     		ldr	r5, [r1, #8]
 512 0012 2B43     		orrs	r3, r3, r5
 515:Drivers/STM32F4xx_HAL_Driver/Src/stm32f4xx_ll_fsmc.c ****                      Init->MemoryDataWidth            |\
 513              		.loc 1 515 55 view .LVU185
 514 0014 CD68     		ldr	r5, [r1, #12]
 515 0016 2B43     		orrs	r3, r3, r5
 516:Drivers/STM32F4xx_HAL_Driver/Src/stm32f4xx_ll_fsmc.c ****                      Init->EccComputation             |\
 516              		.loc 1 516 55 view .LVU186
 517 0018 0D69     		ldr	r5, [r1, #16]
 518 001a 2B43     		orrs	r3, r3, r5
 517:Drivers/STM32F4xx_HAL_Driver/Src/stm32f4xx_ll_fsmc.c ****                      Init->ECCPageSize                |\
 519              		.loc 1 517 55 view .LVU187
 520 001c 4D69     		ldr	r5, [r1, #20]
 521 001e 43EA4523 		orr	r3, r3, r5, lsl #9
 518:Drivers/STM32F4xx_HAL_Driver/Src/stm32f4xx_ll_fsmc.c ****                      ((Init->TCLRSetupTime) << 9U)    |\
 519:Drivers/STM32F4xx_HAL_Driver/Src/stm32f4xx_ll_fsmc.c ****                      ((Init->TARSetupTime) << 13U));   
 522              		.loc 1 519 28 view .LVU188
 523 0022 8969     		ldr	r1, [r1, #24]
 524              	.LVL36:
 513:Drivers/STM32F4xx_HAL_Driver/Src/stm32f4xx_ll_fsmc.c ****                      FSMC_PCR_MEMORY_TYPE_NAND        |\
 525              		.loc 1 513 11 view .LVU189
 526 0024 43EA4133 		orr	r3, r3, r1, lsl #13
 513:Drivers/STM32F4xx_HAL_Driver/Src/stm32f4xx_ll_fsmc.c ****                      FSMC_PCR_MEMORY_TYPE_NAND        |\
 527              		.loc 1 513 8 view .LVU190
 528 0028 1343     		orrs	r3, r3, r2
 529 002a 43F00803 		orr	r3, r3, #8
 530              	.LVL37:
ARM GAS  /tmp/ccj7iy9k.s 			page 20


 520:Drivers/STM32F4xx_HAL_Driver/Src/stm32f4xx_ll_fsmc.c ****   
 521:Drivers/STM32F4xx_HAL_Driver/Src/stm32f4xx_ll_fsmc.c ****   if(Init->NandBank == FSMC_NAND_BANK2)
 531              		.loc 1 521 3 is_stmt 1 view .LVU191
 532              		.loc 1 521 5 is_stmt 0 view .LVU192
 533 002e 102C     		cmp	r4, #16
 534 0030 05D0     		beq	.L31
 522:Drivers/STM32F4xx_HAL_Driver/Src/stm32f4xx_ll_fsmc.c ****   {
 523:Drivers/STM32F4xx_HAL_Driver/Src/stm32f4xx_ll_fsmc.c ****     /* NAND bank 2 registers configuration */
 524:Drivers/STM32F4xx_HAL_Driver/Src/stm32f4xx_ll_fsmc.c ****     Device->PCR2  = tmpr;
 525:Drivers/STM32F4xx_HAL_Driver/Src/stm32f4xx_ll_fsmc.c ****   }
 526:Drivers/STM32F4xx_HAL_Driver/Src/stm32f4xx_ll_fsmc.c ****   else
 527:Drivers/STM32F4xx_HAL_Driver/Src/stm32f4xx_ll_fsmc.c ****   {
 528:Drivers/STM32F4xx_HAL_Driver/Src/stm32f4xx_ll_fsmc.c ****     /* NAND bank 3 registers configuration */
 529:Drivers/STM32F4xx_HAL_Driver/Src/stm32f4xx_ll_fsmc.c ****     Device->PCR3  = tmpr;
 535              		.loc 1 529 5 is_stmt 1 view .LVU193
 536              		.loc 1 529 19 is_stmt 0 view .LVU194
 537 0032 0362     		str	r3, [r0, #32]
 538              	.L28:
 530:Drivers/STM32F4xx_HAL_Driver/Src/stm32f4xx_ll_fsmc.c ****   }
 531:Drivers/STM32F4xx_HAL_Driver/Src/stm32f4xx_ll_fsmc.c ****   
 532:Drivers/STM32F4xx_HAL_Driver/Src/stm32f4xx_ll_fsmc.c ****   return HAL_OK;
 539              		.loc 1 532 3 is_stmt 1 view .LVU195
 533:Drivers/STM32F4xx_HAL_Driver/Src/stm32f4xx_ll_fsmc.c **** }
 540              		.loc 1 533 1 is_stmt 0 view .LVU196
 541 0034 0020     		movs	r0, #0
 542              	.LVL38:
 543              		.loc 1 533 1 view .LVU197
 544 0036 30BC     		pop	{r4, r5}
 545              	.LCFI7:
 546              		.cfi_remember_state
 547              		.cfi_restore 5
 548              		.cfi_restore 4
 549              		.cfi_def_cfa_offset 0
 550 0038 7047     		bx	lr
 551              	.LVL39:
 552              	.L30:
 553              	.LCFI8:
 554              		.cfi_restore_state
 499:Drivers/STM32F4xx_HAL_Driver/Src/stm32f4xx_ll_fsmc.c ****   }
 555              		.loc 1 499 5 is_stmt 1 view .LVU198
 499:Drivers/STM32F4xx_HAL_Driver/Src/stm32f4xx_ll_fsmc.c ****   }
 556              		.loc 1 499 10 is_stmt 0 view .LVU199
 557 003a 0368     		ldr	r3, [r0]
 558              	.LVL40:
 499:Drivers/STM32F4xx_HAL_Driver/Src/stm32f4xx_ll_fsmc.c ****   }
 559              		.loc 1 499 10 view .LVU200
 560 003c E5E7     		b	.L26
 561              	.LVL41:
 562              	.L31:
 524:Drivers/STM32F4xx_HAL_Driver/Src/stm32f4xx_ll_fsmc.c ****   }
 563              		.loc 1 524 5 is_stmt 1 view .LVU201
 524:Drivers/STM32F4xx_HAL_Driver/Src/stm32f4xx_ll_fsmc.c ****   }
 564              		.loc 1 524 19 is_stmt 0 view .LVU202
 565 003e 0360     		str	r3, [r0]
 566 0040 F8E7     		b	.L28
 567              	.L33:
 568 0042 00BF     		.align	2
ARM GAS  /tmp/ccj7iy9k.s 			page 21


 569              	.L32:
 570 0044 8101F0FF 		.word	-1048191
 571              		.cfi_endproc
 572              	.LFE136:
 574              		.section	.text.FSMC_NAND_CommonSpace_Timing_Init,"ax",%progbits
 575              		.align	1
 576              		.global	FSMC_NAND_CommonSpace_Timing_Init
 577              		.syntax unified
 578              		.thumb
 579              		.thumb_func
 581              	FSMC_NAND_CommonSpace_Timing_Init:
 582              	.LVL42:
 583              	.LFB137:
 534:Drivers/STM32F4xx_HAL_Driver/Src/stm32f4xx_ll_fsmc.c **** 
 535:Drivers/STM32F4xx_HAL_Driver/Src/stm32f4xx_ll_fsmc.c **** /**
 536:Drivers/STM32F4xx_HAL_Driver/Src/stm32f4xx_ll_fsmc.c ****   * @brief  Initializes the FSMC_NAND Common space Timing according to the specified
 537:Drivers/STM32F4xx_HAL_Driver/Src/stm32f4xx_ll_fsmc.c ****   *         parameters in the FSMC_NAND_PCC_TimingTypeDef
 538:Drivers/STM32F4xx_HAL_Driver/Src/stm32f4xx_ll_fsmc.c ****   * @param  Device Pointer to NAND device instance
 539:Drivers/STM32F4xx_HAL_Driver/Src/stm32f4xx_ll_fsmc.c ****   * @param  Timing Pointer to NAND timing structure
 540:Drivers/STM32F4xx_HAL_Driver/Src/stm32f4xx_ll_fsmc.c ****   * @param  Bank NAND bank number   
 541:Drivers/STM32F4xx_HAL_Driver/Src/stm32f4xx_ll_fsmc.c ****   * @retval HAL status
 542:Drivers/STM32F4xx_HAL_Driver/Src/stm32f4xx_ll_fsmc.c ****   */
 543:Drivers/STM32F4xx_HAL_Driver/Src/stm32f4xx_ll_fsmc.c **** HAL_StatusTypeDef FSMC_NAND_CommonSpace_Timing_Init(FSMC_NAND_TypeDef *Device, FSMC_NAND_PCC_Timing
 544:Drivers/STM32F4xx_HAL_Driver/Src/stm32f4xx_ll_fsmc.c **** {
 584              		.loc 1 544 1 is_stmt 1 view -0
 585              		.cfi_startproc
 586              		@ args = 0, pretend = 0, frame = 0
 587              		@ frame_needed = 0, uses_anonymous_args = 0
 588              		@ link register save eliminated.
 589              		.loc 1 544 1 is_stmt 0 view .LVU204
 590 0000 10B4     		push	{r4}
 591              	.LCFI9:
 592              		.cfi_def_cfa_offset 4
 593              		.cfi_offset 4, -4
 545:Drivers/STM32F4xx_HAL_Driver/Src/stm32f4xx_ll_fsmc.c ****   uint32_t tmpr = 0U;  
 594              		.loc 1 545 3 is_stmt 1 view .LVU205
 595              	.LVL43:
 546:Drivers/STM32F4xx_HAL_Driver/Src/stm32f4xx_ll_fsmc.c ****   
 547:Drivers/STM32F4xx_HAL_Driver/Src/stm32f4xx_ll_fsmc.c ****   /* Check the parameters */
 548:Drivers/STM32F4xx_HAL_Driver/Src/stm32f4xx_ll_fsmc.c ****   assert_param(IS_FSMC_SETUP_TIME(Timing->SetupTime));
 596              		.loc 1 548 3 view .LVU206
 549:Drivers/STM32F4xx_HAL_Driver/Src/stm32f4xx_ll_fsmc.c ****   assert_param(IS_FSMC_WAIT_TIME(Timing->WaitSetupTime));
 597              		.loc 1 549 3 view .LVU207
 550:Drivers/STM32F4xx_HAL_Driver/Src/stm32f4xx_ll_fsmc.c ****   assert_param(IS_FSMC_HOLD_TIME(Timing->HoldSetupTime));
 598              		.loc 1 550 3 view .LVU208
 551:Drivers/STM32F4xx_HAL_Driver/Src/stm32f4xx_ll_fsmc.c ****   assert_param(IS_FSMC_HIZ_TIME(Timing->HiZSetupTime));
 599              		.loc 1 551 3 view .LVU209
 552:Drivers/STM32F4xx_HAL_Driver/Src/stm32f4xx_ll_fsmc.c ****   
 553:Drivers/STM32F4xx_HAL_Driver/Src/stm32f4xx_ll_fsmc.c ****   if(Bank == FSMC_NAND_BANK2)
 600              		.loc 1 553 3 view .LVU210
 601              		.loc 1 553 5 is_stmt 0 view .LVU211
 602 0002 102A     		cmp	r2, #16
 603 0004 11D0     		beq	.L40
 554:Drivers/STM32F4xx_HAL_Driver/Src/stm32f4xx_ll_fsmc.c ****   {
 555:Drivers/STM32F4xx_HAL_Driver/Src/stm32f4xx_ll_fsmc.c ****     /* Get the NAND bank 2 register value */
 556:Drivers/STM32F4xx_HAL_Driver/Src/stm32f4xx_ll_fsmc.c ****     tmpr = Device->PMEM2;
 557:Drivers/STM32F4xx_HAL_Driver/Src/stm32f4xx_ll_fsmc.c ****   }
ARM GAS  /tmp/ccj7iy9k.s 			page 22


 558:Drivers/STM32F4xx_HAL_Driver/Src/stm32f4xx_ll_fsmc.c ****   else
 559:Drivers/STM32F4xx_HAL_Driver/Src/stm32f4xx_ll_fsmc.c ****   {
 560:Drivers/STM32F4xx_HAL_Driver/Src/stm32f4xx_ll_fsmc.c ****     /* Get the NAND bank 3 register value */
 561:Drivers/STM32F4xx_HAL_Driver/Src/stm32f4xx_ll_fsmc.c ****     tmpr = Device->PMEM3;
 604              		.loc 1 561 5 is_stmt 1 view .LVU212
 605              		.loc 1 561 10 is_stmt 0 view .LVU213
 606 0006 836A     		ldr	r3, [r0, #40]
 607              	.LVL44:
 608              	.L36:
 562:Drivers/STM32F4xx_HAL_Driver/Src/stm32f4xx_ll_fsmc.c ****   } 
 563:Drivers/STM32F4xx_HAL_Driver/Src/stm32f4xx_ll_fsmc.c ****   
 564:Drivers/STM32F4xx_HAL_Driver/Src/stm32f4xx_ll_fsmc.c ****   /* Clear MEMSETx, MEMWAITx, MEMHOLDx and MEMHIZx bits */
 565:Drivers/STM32F4xx_HAL_Driver/Src/stm32f4xx_ll_fsmc.c ****   tmpr &= ((uint32_t)~(FSMC_PMEM2_MEMSET2  | FSMC_PMEM2_MEMWAIT2 | FSMC_PMEM2_MEMHOLD2 | \
 609              		.loc 1 565 3 is_stmt 1 view .LVU214
 566:Drivers/STM32F4xx_HAL_Driver/Src/stm32f4xx_ll_fsmc.c ****                        FSMC_PMEM2_MEMHIZ2));
 567:Drivers/STM32F4xx_HAL_Driver/Src/stm32f4xx_ll_fsmc.c ****   
 568:Drivers/STM32F4xx_HAL_Driver/Src/stm32f4xx_ll_fsmc.c ****   /* Set FSMC_NAND device timing parameters */
 569:Drivers/STM32F4xx_HAL_Driver/Src/stm32f4xx_ll_fsmc.c ****   tmpr |= (uint32_t)(Timing->SetupTime                     |\
 610              		.loc 1 569 3 view .LVU215
 611              		.loc 1 569 28 is_stmt 0 view .LVU216
 612 0008 0B68     		ldr	r3, [r1]
 613              		.loc 1 569 60 view .LVU217
 614 000a 4C68     		ldr	r4, [r1, #4]
 615 000c 43EA0423 		orr	r3, r3, r4, lsl #8
 570:Drivers/STM32F4xx_HAL_Driver/Src/stm32f4xx_ll_fsmc.c ****                        ((Timing->WaitSetupTime) << 8U)     |\
 616              		.loc 1 570 60 view .LVU218
 617 0010 8C68     		ldr	r4, [r1, #8]
 618 0012 43EA0443 		orr	r3, r3, r4, lsl #16
 571:Drivers/STM32F4xx_HAL_Driver/Src/stm32f4xx_ll_fsmc.c ****                        ((Timing->HoldSetupTime) << 16U)    |\
 572:Drivers/STM32F4xx_HAL_Driver/Src/stm32f4xx_ll_fsmc.c ****                        ((Timing->HiZSetupTime) << 24U)
 619              		.loc 1 572 32 view .LVU219
 620 0016 C968     		ldr	r1, [r1, #12]
 621              	.LVL45:
 571:Drivers/STM32F4xx_HAL_Driver/Src/stm32f4xx_ll_fsmc.c ****                        ((Timing->HoldSetupTime) << 16U)    |\
 622              		.loc 1 571 60 view .LVU220
 623 0018 43EA0163 		orr	r3, r3, r1, lsl #24
 624              	.LVL46:
 573:Drivers/STM32F4xx_HAL_Driver/Src/stm32f4xx_ll_fsmc.c ****                        );
 574:Drivers/STM32F4xx_HAL_Driver/Src/stm32f4xx_ll_fsmc.c ****                             
 575:Drivers/STM32F4xx_HAL_Driver/Src/stm32f4xx_ll_fsmc.c ****   if(Bank == FSMC_NAND_BANK2)
 625              		.loc 1 575 3 is_stmt 1 view .LVU221
 626              		.loc 1 575 5 is_stmt 0 view .LVU222
 627 001c 102A     		cmp	r2, #16
 628 001e 06D0     		beq	.L41
 576:Drivers/STM32F4xx_HAL_Driver/Src/stm32f4xx_ll_fsmc.c ****   {
 577:Drivers/STM32F4xx_HAL_Driver/Src/stm32f4xx_ll_fsmc.c ****     /* NAND bank 2 registers configuration */
 578:Drivers/STM32F4xx_HAL_Driver/Src/stm32f4xx_ll_fsmc.c ****     Device->PMEM2 = tmpr;
 579:Drivers/STM32F4xx_HAL_Driver/Src/stm32f4xx_ll_fsmc.c ****   }
 580:Drivers/STM32F4xx_HAL_Driver/Src/stm32f4xx_ll_fsmc.c ****   else
 581:Drivers/STM32F4xx_HAL_Driver/Src/stm32f4xx_ll_fsmc.c ****   {
 582:Drivers/STM32F4xx_HAL_Driver/Src/stm32f4xx_ll_fsmc.c ****     /* NAND bank 3 registers configuration */
 583:Drivers/STM32F4xx_HAL_Driver/Src/stm32f4xx_ll_fsmc.c ****     Device->PMEM3 = tmpr;
 629              		.loc 1 583 5 is_stmt 1 view .LVU223
 630              		.loc 1 583 19 is_stmt 0 view .LVU224
 631 0020 8362     		str	r3, [r0, #40]
 632              	.L38:
 584:Drivers/STM32F4xx_HAL_Driver/Src/stm32f4xx_ll_fsmc.c ****   }  
ARM GAS  /tmp/ccj7iy9k.s 			page 23


 585:Drivers/STM32F4xx_HAL_Driver/Src/stm32f4xx_ll_fsmc.c ****   
 586:Drivers/STM32F4xx_HAL_Driver/Src/stm32f4xx_ll_fsmc.c ****   return HAL_OK;  
 633              		.loc 1 586 3 is_stmt 1 view .LVU225
 587:Drivers/STM32F4xx_HAL_Driver/Src/stm32f4xx_ll_fsmc.c **** }
 634              		.loc 1 587 1 is_stmt 0 view .LVU226
 635 0022 0020     		movs	r0, #0
 636              	.LVL47:
 637              		.loc 1 587 1 view .LVU227
 638 0024 5DF8044B 		ldr	r4, [sp], #4
 639              	.LCFI10:
 640              		.cfi_remember_state
 641              		.cfi_restore 4
 642              		.cfi_def_cfa_offset 0
 643 0028 7047     		bx	lr
 644              	.LVL48:
 645              	.L40:
 646              	.LCFI11:
 647              		.cfi_restore_state
 556:Drivers/STM32F4xx_HAL_Driver/Src/stm32f4xx_ll_fsmc.c ****   }
 648              		.loc 1 556 5 is_stmt 1 view .LVU228
 556:Drivers/STM32F4xx_HAL_Driver/Src/stm32f4xx_ll_fsmc.c ****   }
 649              		.loc 1 556 10 is_stmt 0 view .LVU229
 650 002a 8368     		ldr	r3, [r0, #8]
 651              	.LVL49:
 556:Drivers/STM32F4xx_HAL_Driver/Src/stm32f4xx_ll_fsmc.c ****   }
 652              		.loc 1 556 10 view .LVU230
 653 002c ECE7     		b	.L36
 654              	.LVL50:
 655              	.L41:
 578:Drivers/STM32F4xx_HAL_Driver/Src/stm32f4xx_ll_fsmc.c ****   }
 656              		.loc 1 578 5 is_stmt 1 view .LVU231
 578:Drivers/STM32F4xx_HAL_Driver/Src/stm32f4xx_ll_fsmc.c ****   }
 657              		.loc 1 578 19 is_stmt 0 view .LVU232
 658 002e 8360     		str	r3, [r0, #8]
 659 0030 F7E7     		b	.L38
 660              		.cfi_endproc
 661              	.LFE137:
 663              		.section	.text.FSMC_NAND_AttributeSpace_Timing_Init,"ax",%progbits
 664              		.align	1
 665              		.global	FSMC_NAND_AttributeSpace_Timing_Init
 666              		.syntax unified
 667              		.thumb
 668              		.thumb_func
 670              	FSMC_NAND_AttributeSpace_Timing_Init:
 671              	.LVL51:
 672              	.LFB138:
 588:Drivers/STM32F4xx_HAL_Driver/Src/stm32f4xx_ll_fsmc.c **** 
 589:Drivers/STM32F4xx_HAL_Driver/Src/stm32f4xx_ll_fsmc.c **** /**
 590:Drivers/STM32F4xx_HAL_Driver/Src/stm32f4xx_ll_fsmc.c ****   * @brief  Initializes the FSMC_NAND Attribute space Timing according to the specified
 591:Drivers/STM32F4xx_HAL_Driver/Src/stm32f4xx_ll_fsmc.c ****   *         parameters in the FSMC_NAND_PCC_TimingTypeDef
 592:Drivers/STM32F4xx_HAL_Driver/Src/stm32f4xx_ll_fsmc.c ****   * @param  Device Pointer to NAND device instance
 593:Drivers/STM32F4xx_HAL_Driver/Src/stm32f4xx_ll_fsmc.c ****   * @param  Timing Pointer to NAND timing structure
 594:Drivers/STM32F4xx_HAL_Driver/Src/stm32f4xx_ll_fsmc.c ****   * @param  Bank NAND bank number 
 595:Drivers/STM32F4xx_HAL_Driver/Src/stm32f4xx_ll_fsmc.c ****   * @retval HAL status
 596:Drivers/STM32F4xx_HAL_Driver/Src/stm32f4xx_ll_fsmc.c ****   */
 597:Drivers/STM32F4xx_HAL_Driver/Src/stm32f4xx_ll_fsmc.c **** HAL_StatusTypeDef FSMC_NAND_AttributeSpace_Timing_Init(FSMC_NAND_TypeDef *Device, FSMC_NAND_PCC_Tim
 598:Drivers/STM32F4xx_HAL_Driver/Src/stm32f4xx_ll_fsmc.c **** {
ARM GAS  /tmp/ccj7iy9k.s 			page 24


 673              		.loc 1 598 1 is_stmt 1 view -0
 674              		.cfi_startproc
 675              		@ args = 0, pretend = 0, frame = 0
 676              		@ frame_needed = 0, uses_anonymous_args = 0
 677              		@ link register save eliminated.
 678              		.loc 1 598 1 is_stmt 0 view .LVU234
 679 0000 10B4     		push	{r4}
 680              	.LCFI12:
 681              		.cfi_def_cfa_offset 4
 682              		.cfi_offset 4, -4
 599:Drivers/STM32F4xx_HAL_Driver/Src/stm32f4xx_ll_fsmc.c ****   uint32_t tmpr = 0U;  
 683              		.loc 1 599 3 is_stmt 1 view .LVU235
 684              	.LVL52:
 600:Drivers/STM32F4xx_HAL_Driver/Src/stm32f4xx_ll_fsmc.c ****   
 601:Drivers/STM32F4xx_HAL_Driver/Src/stm32f4xx_ll_fsmc.c ****   /* Check the parameters */  
 602:Drivers/STM32F4xx_HAL_Driver/Src/stm32f4xx_ll_fsmc.c ****   assert_param(IS_FSMC_SETUP_TIME(Timing->SetupTime));
 685              		.loc 1 602 3 view .LVU236
 603:Drivers/STM32F4xx_HAL_Driver/Src/stm32f4xx_ll_fsmc.c ****   assert_param(IS_FSMC_WAIT_TIME(Timing->WaitSetupTime));
 686              		.loc 1 603 3 view .LVU237
 604:Drivers/STM32F4xx_HAL_Driver/Src/stm32f4xx_ll_fsmc.c ****   assert_param(IS_FSMC_HOLD_TIME(Timing->HoldSetupTime));
 687              		.loc 1 604 3 view .LVU238
 605:Drivers/STM32F4xx_HAL_Driver/Src/stm32f4xx_ll_fsmc.c ****   assert_param(IS_FSMC_HIZ_TIME(Timing->HiZSetupTime));
 688              		.loc 1 605 3 view .LVU239
 606:Drivers/STM32F4xx_HAL_Driver/Src/stm32f4xx_ll_fsmc.c ****   
 607:Drivers/STM32F4xx_HAL_Driver/Src/stm32f4xx_ll_fsmc.c ****   if(Bank == FSMC_NAND_BANK2)
 689              		.loc 1 607 3 view .LVU240
 690              		.loc 1 607 5 is_stmt 0 view .LVU241
 691 0002 102A     		cmp	r2, #16
 692 0004 11D0     		beq	.L48
 608:Drivers/STM32F4xx_HAL_Driver/Src/stm32f4xx_ll_fsmc.c ****   {
 609:Drivers/STM32F4xx_HAL_Driver/Src/stm32f4xx_ll_fsmc.c ****     /* Get the NAND bank 2 register value */
 610:Drivers/STM32F4xx_HAL_Driver/Src/stm32f4xx_ll_fsmc.c ****     tmpr = Device->PATT2;
 611:Drivers/STM32F4xx_HAL_Driver/Src/stm32f4xx_ll_fsmc.c ****   }
 612:Drivers/STM32F4xx_HAL_Driver/Src/stm32f4xx_ll_fsmc.c ****   else
 613:Drivers/STM32F4xx_HAL_Driver/Src/stm32f4xx_ll_fsmc.c ****   {
 614:Drivers/STM32F4xx_HAL_Driver/Src/stm32f4xx_ll_fsmc.c ****     /* Get the NAND bank 3 register value */
 615:Drivers/STM32F4xx_HAL_Driver/Src/stm32f4xx_ll_fsmc.c ****     tmpr = Device->PATT3;
 693              		.loc 1 615 5 is_stmt 1 view .LVU242
 694              		.loc 1 615 10 is_stmt 0 view .LVU243
 695 0006 C36A     		ldr	r3, [r0, #44]
 696              	.LVL53:
 697              	.L44:
 616:Drivers/STM32F4xx_HAL_Driver/Src/stm32f4xx_ll_fsmc.c ****   } 
 617:Drivers/STM32F4xx_HAL_Driver/Src/stm32f4xx_ll_fsmc.c ****   
 618:Drivers/STM32F4xx_HAL_Driver/Src/stm32f4xx_ll_fsmc.c ****   /* Clear ATTSETx, ATTWAITx, ATTHOLDx and ATTHIZx bits */
 619:Drivers/STM32F4xx_HAL_Driver/Src/stm32f4xx_ll_fsmc.c ****   tmpr &= ((uint32_t)~(FSMC_PATT2_ATTSET2  | FSMC_PATT2_ATTWAIT2 | FSMC_PATT2_ATTHOLD2 | \
 698              		.loc 1 619 3 is_stmt 1 view .LVU244
 620:Drivers/STM32F4xx_HAL_Driver/Src/stm32f4xx_ll_fsmc.c ****                        FSMC_PATT2_ATTHIZ2));
 621:Drivers/STM32F4xx_HAL_Driver/Src/stm32f4xx_ll_fsmc.c ****   
 622:Drivers/STM32F4xx_HAL_Driver/Src/stm32f4xx_ll_fsmc.c ****   /* Set FSMC_NAND device timing parameters */
 623:Drivers/STM32F4xx_HAL_Driver/Src/stm32f4xx_ll_fsmc.c ****   tmpr |= (uint32_t)(Timing->SetupTime                     |\
 699              		.loc 1 623 3 view .LVU245
 700              		.loc 1 623 28 is_stmt 0 view .LVU246
 701 0008 0B68     		ldr	r3, [r1]
 702              		.loc 1 623 60 view .LVU247
 703 000a 4C68     		ldr	r4, [r1, #4]
 704 000c 43EA0423 		orr	r3, r3, r4, lsl #8
ARM GAS  /tmp/ccj7iy9k.s 			page 25


 624:Drivers/STM32F4xx_HAL_Driver/Src/stm32f4xx_ll_fsmc.c ****                        ((Timing->WaitSetupTime) << 8U)     |\
 705              		.loc 1 624 60 view .LVU248
 706 0010 8C68     		ldr	r4, [r1, #8]
 707 0012 43EA0443 		orr	r3, r3, r4, lsl #16
 625:Drivers/STM32F4xx_HAL_Driver/Src/stm32f4xx_ll_fsmc.c ****                        ((Timing->HoldSetupTime) << 16U)    |\
 626:Drivers/STM32F4xx_HAL_Driver/Src/stm32f4xx_ll_fsmc.c ****                        ((Timing->HiZSetupTime) << 24U)
 708              		.loc 1 626 32 view .LVU249
 709 0016 C968     		ldr	r1, [r1, #12]
 710              	.LVL54:
 625:Drivers/STM32F4xx_HAL_Driver/Src/stm32f4xx_ll_fsmc.c ****                        ((Timing->HoldSetupTime) << 16U)    |\
 711              		.loc 1 625 60 view .LVU250
 712 0018 43EA0163 		orr	r3, r3, r1, lsl #24
 713              	.LVL55:
 627:Drivers/STM32F4xx_HAL_Driver/Src/stm32f4xx_ll_fsmc.c ****                        );
 628:Drivers/STM32F4xx_HAL_Driver/Src/stm32f4xx_ll_fsmc.c ****                        
 629:Drivers/STM32F4xx_HAL_Driver/Src/stm32f4xx_ll_fsmc.c ****   if(Bank == FSMC_NAND_BANK2)
 714              		.loc 1 629 3 is_stmt 1 view .LVU251
 715              		.loc 1 629 5 is_stmt 0 view .LVU252
 716 001c 102A     		cmp	r2, #16
 717 001e 06D0     		beq	.L49
 630:Drivers/STM32F4xx_HAL_Driver/Src/stm32f4xx_ll_fsmc.c ****   {
 631:Drivers/STM32F4xx_HAL_Driver/Src/stm32f4xx_ll_fsmc.c ****     /* NAND bank 2 registers configuration */
 632:Drivers/STM32F4xx_HAL_Driver/Src/stm32f4xx_ll_fsmc.c ****     Device->PATT2 = tmpr;
 633:Drivers/STM32F4xx_HAL_Driver/Src/stm32f4xx_ll_fsmc.c ****   }
 634:Drivers/STM32F4xx_HAL_Driver/Src/stm32f4xx_ll_fsmc.c ****   else
 635:Drivers/STM32F4xx_HAL_Driver/Src/stm32f4xx_ll_fsmc.c ****   {
 636:Drivers/STM32F4xx_HAL_Driver/Src/stm32f4xx_ll_fsmc.c ****     /* NAND bank 3 registers configuration */
 637:Drivers/STM32F4xx_HAL_Driver/Src/stm32f4xx_ll_fsmc.c ****     Device->PATT3 = tmpr;
 718              		.loc 1 637 5 is_stmt 1 view .LVU253
 719              		.loc 1 637 19 is_stmt 0 view .LVU254
 720 0020 C362     		str	r3, [r0, #44]
 721              	.L46:
 638:Drivers/STM32F4xx_HAL_Driver/Src/stm32f4xx_ll_fsmc.c ****   }   
 639:Drivers/STM32F4xx_HAL_Driver/Src/stm32f4xx_ll_fsmc.c ****   
 640:Drivers/STM32F4xx_HAL_Driver/Src/stm32f4xx_ll_fsmc.c ****   return HAL_OK;
 722              		.loc 1 640 3 is_stmt 1 view .LVU255
 641:Drivers/STM32F4xx_HAL_Driver/Src/stm32f4xx_ll_fsmc.c **** }
 723              		.loc 1 641 1 is_stmt 0 view .LVU256
 724 0022 0020     		movs	r0, #0
 725              	.LVL56:
 726              		.loc 1 641 1 view .LVU257
 727 0024 5DF8044B 		ldr	r4, [sp], #4
 728              	.LCFI13:
 729              		.cfi_remember_state
 730              		.cfi_restore 4
 731              		.cfi_def_cfa_offset 0
 732 0028 7047     		bx	lr
 733              	.LVL57:
 734              	.L48:
 735              	.LCFI14:
 736              		.cfi_restore_state
 610:Drivers/STM32F4xx_HAL_Driver/Src/stm32f4xx_ll_fsmc.c ****   }
 737              		.loc 1 610 5 is_stmt 1 view .LVU258
 610:Drivers/STM32F4xx_HAL_Driver/Src/stm32f4xx_ll_fsmc.c ****   }
 738              		.loc 1 610 10 is_stmt 0 view .LVU259
 739 002a C368     		ldr	r3, [r0, #12]
 740              	.LVL58:
ARM GAS  /tmp/ccj7iy9k.s 			page 26


 610:Drivers/STM32F4xx_HAL_Driver/Src/stm32f4xx_ll_fsmc.c ****   }
 741              		.loc 1 610 10 view .LVU260
 742 002c ECE7     		b	.L44
 743              	.LVL59:
 744              	.L49:
 632:Drivers/STM32F4xx_HAL_Driver/Src/stm32f4xx_ll_fsmc.c ****   }
 745              		.loc 1 632 5 is_stmt 1 view .LVU261
 632:Drivers/STM32F4xx_HAL_Driver/Src/stm32f4xx_ll_fsmc.c ****   }
 746              		.loc 1 632 19 is_stmt 0 view .LVU262
 747 002e C360     		str	r3, [r0, #12]
 748 0030 F7E7     		b	.L46
 749              		.cfi_endproc
 750              	.LFE138:
 752              		.section	.text.FSMC_NAND_DeInit,"ax",%progbits
 753              		.align	1
 754              		.global	FSMC_NAND_DeInit
 755              		.syntax unified
 756              		.thumb
 757              		.thumb_func
 759              	FSMC_NAND_DeInit:
 760              	.LVL60:
 761              	.LFB139:
 642:Drivers/STM32F4xx_HAL_Driver/Src/stm32f4xx_ll_fsmc.c **** 
 643:Drivers/STM32F4xx_HAL_Driver/Src/stm32f4xx_ll_fsmc.c **** /**
 644:Drivers/STM32F4xx_HAL_Driver/Src/stm32f4xx_ll_fsmc.c ****   * @brief  DeInitializes the FSMC_NAND device 
 645:Drivers/STM32F4xx_HAL_Driver/Src/stm32f4xx_ll_fsmc.c ****   * @param  Device Pointer to NAND device instance
 646:Drivers/STM32F4xx_HAL_Driver/Src/stm32f4xx_ll_fsmc.c ****   * @param  Bank NAND bank number
 647:Drivers/STM32F4xx_HAL_Driver/Src/stm32f4xx_ll_fsmc.c ****   * @retval HAL status
 648:Drivers/STM32F4xx_HAL_Driver/Src/stm32f4xx_ll_fsmc.c ****   */
 649:Drivers/STM32F4xx_HAL_Driver/Src/stm32f4xx_ll_fsmc.c **** HAL_StatusTypeDef FSMC_NAND_DeInit(FSMC_NAND_TypeDef *Device, uint32_t Bank)
 650:Drivers/STM32F4xx_HAL_Driver/Src/stm32f4xx_ll_fsmc.c **** {
 762              		.loc 1 650 1 is_stmt 1 view -0
 763              		.cfi_startproc
 764              		@ args = 0, pretend = 0, frame = 0
 765              		@ frame_needed = 0, uses_anonymous_args = 0
 766              		@ link register save eliminated.
 651:Drivers/STM32F4xx_HAL_Driver/Src/stm32f4xx_ll_fsmc.c ****   /* Disable the NAND Bank */
 652:Drivers/STM32F4xx_HAL_Driver/Src/stm32f4xx_ll_fsmc.c ****   __FSMC_NAND_DISABLE(Device, Bank);
 767              		.loc 1 652 3 view .LVU264
 768 0000 1029     		cmp	r1, #16
 769 0002 0FD0     		beq	.L55
 770              		.loc 1 652 3 is_stmt 0 discriminator 2 view .LVU265
 771 0004 036A     		ldr	r3, [r0, #32]
 772 0006 23F00403 		bic	r3, r3, #4
 773 000a 0362     		str	r3, [r0, #32]
 774              	.L52:
 653:Drivers/STM32F4xx_HAL_Driver/Src/stm32f4xx_ll_fsmc.c ****  
 654:Drivers/STM32F4xx_HAL_Driver/Src/stm32f4xx_ll_fsmc.c ****   /* De-initialize the NAND Bank */
 655:Drivers/STM32F4xx_HAL_Driver/Src/stm32f4xx_ll_fsmc.c ****   if(Bank == FSMC_NAND_BANK2)
 775              		.loc 1 655 3 is_stmt 1 view .LVU266
 776              		.loc 1 655 5 is_stmt 0 view .LVU267
 777 000c 1029     		cmp	r1, #16
 778 000e 0ED0     		beq	.L56
 656:Drivers/STM32F4xx_HAL_Driver/Src/stm32f4xx_ll_fsmc.c ****   {
 657:Drivers/STM32F4xx_HAL_Driver/Src/stm32f4xx_ll_fsmc.c ****     /* Set the FSMC_NAND_BANK2 registers to their reset values */
 658:Drivers/STM32F4xx_HAL_Driver/Src/stm32f4xx_ll_fsmc.c ****     Device->PCR2  = 0x00000018U;
 659:Drivers/STM32F4xx_HAL_Driver/Src/stm32f4xx_ll_fsmc.c ****     Device->SR2   = 0x00000040U;
ARM GAS  /tmp/ccj7iy9k.s 			page 27


 660:Drivers/STM32F4xx_HAL_Driver/Src/stm32f4xx_ll_fsmc.c ****     Device->PMEM2 = 0xFCFCFCFCU;
 661:Drivers/STM32F4xx_HAL_Driver/Src/stm32f4xx_ll_fsmc.c ****     Device->PATT2 = 0xFCFCFCFCU;  
 662:Drivers/STM32F4xx_HAL_Driver/Src/stm32f4xx_ll_fsmc.c ****   }
 663:Drivers/STM32F4xx_HAL_Driver/Src/stm32f4xx_ll_fsmc.c ****   /* FSMC_Bank3_NAND */  
 664:Drivers/STM32F4xx_HAL_Driver/Src/stm32f4xx_ll_fsmc.c ****   else
 665:Drivers/STM32F4xx_HAL_Driver/Src/stm32f4xx_ll_fsmc.c ****   {
 666:Drivers/STM32F4xx_HAL_Driver/Src/stm32f4xx_ll_fsmc.c ****     /* Set the FSMC_NAND_BANK3 registers to their reset values */
 667:Drivers/STM32F4xx_HAL_Driver/Src/stm32f4xx_ll_fsmc.c ****     Device->PCR3  = 0x00000018U;
 779              		.loc 1 667 5 is_stmt 1 view .LVU268
 780              		.loc 1 667 19 is_stmt 0 view .LVU269
 781 0010 1823     		movs	r3, #24
 782 0012 0362     		str	r3, [r0, #32]
 668:Drivers/STM32F4xx_HAL_Driver/Src/stm32f4xx_ll_fsmc.c ****     Device->SR3   = 0x00000040U;
 783              		.loc 1 668 5 is_stmt 1 view .LVU270
 784              		.loc 1 668 19 is_stmt 0 view .LVU271
 785 0014 4023     		movs	r3, #64
 786 0016 4362     		str	r3, [r0, #36]
 669:Drivers/STM32F4xx_HAL_Driver/Src/stm32f4xx_ll_fsmc.c ****     Device->PMEM3 = 0xFCFCFCFCU;
 787              		.loc 1 669 5 is_stmt 1 view .LVU272
 788              		.loc 1 669 19 is_stmt 0 view .LVU273
 789 0018 4FF0FC33 		mov	r3, #-50529028
 790 001c 8362     		str	r3, [r0, #40]
 670:Drivers/STM32F4xx_HAL_Driver/Src/stm32f4xx_ll_fsmc.c ****     Device->PATT3 = 0xFCFCFCFCU; 
 791              		.loc 1 670 5 is_stmt 1 view .LVU274
 792              		.loc 1 670 19 is_stmt 0 view .LVU275
 793 001e C362     		str	r3, [r0, #44]
 794              	.L54:
 671:Drivers/STM32F4xx_HAL_Driver/Src/stm32f4xx_ll_fsmc.c ****   }
 672:Drivers/STM32F4xx_HAL_Driver/Src/stm32f4xx_ll_fsmc.c ****   
 673:Drivers/STM32F4xx_HAL_Driver/Src/stm32f4xx_ll_fsmc.c ****   return HAL_OK;
 795              		.loc 1 673 3 is_stmt 1 view .LVU276
 674:Drivers/STM32F4xx_HAL_Driver/Src/stm32f4xx_ll_fsmc.c **** }
 796              		.loc 1 674 1 is_stmt 0 view .LVU277
 797 0020 0020     		movs	r0, #0
 798              	.LVL61:
 799              		.loc 1 674 1 view .LVU278
 800 0022 7047     		bx	lr
 801              	.LVL62:
 802              	.L55:
 652:Drivers/STM32F4xx_HAL_Driver/Src/stm32f4xx_ll_fsmc.c ****  
 803              		.loc 1 652 3 discriminator 1 view .LVU279
 804 0024 0368     		ldr	r3, [r0]
 805 0026 23F00403 		bic	r3, r3, #4
 806 002a 0360     		str	r3, [r0]
 807 002c EEE7     		b	.L52
 808              	.L56:
 658:Drivers/STM32F4xx_HAL_Driver/Src/stm32f4xx_ll_fsmc.c ****     Device->SR2   = 0x00000040U;
 809              		.loc 1 658 5 is_stmt 1 view .LVU280
 658:Drivers/STM32F4xx_HAL_Driver/Src/stm32f4xx_ll_fsmc.c ****     Device->SR2   = 0x00000040U;
 810              		.loc 1 658 19 is_stmt 0 view .LVU281
 811 002e 1823     		movs	r3, #24
 812 0030 0360     		str	r3, [r0]
 659:Drivers/STM32F4xx_HAL_Driver/Src/stm32f4xx_ll_fsmc.c ****     Device->PMEM2 = 0xFCFCFCFCU;
 813              		.loc 1 659 5 is_stmt 1 view .LVU282
 659:Drivers/STM32F4xx_HAL_Driver/Src/stm32f4xx_ll_fsmc.c ****     Device->PMEM2 = 0xFCFCFCFCU;
 814              		.loc 1 659 19 is_stmt 0 view .LVU283
 815 0032 4023     		movs	r3, #64
ARM GAS  /tmp/ccj7iy9k.s 			page 28


 816 0034 4360     		str	r3, [r0, #4]
 660:Drivers/STM32F4xx_HAL_Driver/Src/stm32f4xx_ll_fsmc.c ****     Device->PATT2 = 0xFCFCFCFCU;  
 817              		.loc 1 660 5 is_stmt 1 view .LVU284
 660:Drivers/STM32F4xx_HAL_Driver/Src/stm32f4xx_ll_fsmc.c ****     Device->PATT2 = 0xFCFCFCFCU;  
 818              		.loc 1 660 19 is_stmt 0 view .LVU285
 819 0036 4FF0FC33 		mov	r3, #-50529028
 820 003a 8360     		str	r3, [r0, #8]
 661:Drivers/STM32F4xx_HAL_Driver/Src/stm32f4xx_ll_fsmc.c ****   }
 821              		.loc 1 661 5 is_stmt 1 view .LVU286
 661:Drivers/STM32F4xx_HAL_Driver/Src/stm32f4xx_ll_fsmc.c ****   }
 822              		.loc 1 661 19 is_stmt 0 view .LVU287
 823 003c C360     		str	r3, [r0, #12]
 824 003e EFE7     		b	.L54
 825              		.cfi_endproc
 826              	.LFE139:
 828              		.section	.text.FSMC_NAND_ECC_Enable,"ax",%progbits
 829              		.align	1
 830              		.global	FSMC_NAND_ECC_Enable
 831              		.syntax unified
 832              		.thumb
 833              		.thumb_func
 835              	FSMC_NAND_ECC_Enable:
 836              	.LVL63:
 837              	.LFB140:
 675:Drivers/STM32F4xx_HAL_Driver/Src/stm32f4xx_ll_fsmc.c **** /**
 676:Drivers/STM32F4xx_HAL_Driver/Src/stm32f4xx_ll_fsmc.c ****   * @}
 677:Drivers/STM32F4xx_HAL_Driver/Src/stm32f4xx_ll_fsmc.c ****   */
 678:Drivers/STM32F4xx_HAL_Driver/Src/stm32f4xx_ll_fsmc.c ****   
 679:Drivers/STM32F4xx_HAL_Driver/Src/stm32f4xx_ll_fsmc.c **** /** @addtogroup FSMC_LL_NAND_Private_Functions_Group2
 680:Drivers/STM32F4xx_HAL_Driver/Src/stm32f4xx_ll_fsmc.c ****   *  @brief   management functions 
 681:Drivers/STM32F4xx_HAL_Driver/Src/stm32f4xx_ll_fsmc.c ****   *
 682:Drivers/STM32F4xx_HAL_Driver/Src/stm32f4xx_ll_fsmc.c **** @verbatim   
 683:Drivers/STM32F4xx_HAL_Driver/Src/stm32f4xx_ll_fsmc.c ****   ==============================================================================
 684:Drivers/STM32F4xx_HAL_Driver/Src/stm32f4xx_ll_fsmc.c ****                        ##### FSMC_NAND Control functions #####
 685:Drivers/STM32F4xx_HAL_Driver/Src/stm32f4xx_ll_fsmc.c ****   ==============================================================================
 686:Drivers/STM32F4xx_HAL_Driver/Src/stm32f4xx_ll_fsmc.c ****   [..]
 687:Drivers/STM32F4xx_HAL_Driver/Src/stm32f4xx_ll_fsmc.c ****     This subsection provides a set of functions allowing to control dynamically
 688:Drivers/STM32F4xx_HAL_Driver/Src/stm32f4xx_ll_fsmc.c ****     the FSMC NAND interface.
 689:Drivers/STM32F4xx_HAL_Driver/Src/stm32f4xx_ll_fsmc.c **** 
 690:Drivers/STM32F4xx_HAL_Driver/Src/stm32f4xx_ll_fsmc.c **** @endverbatim
 691:Drivers/STM32F4xx_HAL_Driver/Src/stm32f4xx_ll_fsmc.c ****   * @{
 692:Drivers/STM32F4xx_HAL_Driver/Src/stm32f4xx_ll_fsmc.c ****   */ 
 693:Drivers/STM32F4xx_HAL_Driver/Src/stm32f4xx_ll_fsmc.c ****     
 694:Drivers/STM32F4xx_HAL_Driver/Src/stm32f4xx_ll_fsmc.c **** /**
 695:Drivers/STM32F4xx_HAL_Driver/Src/stm32f4xx_ll_fsmc.c ****   * @brief  Enables dynamically FSMC_NAND ECC feature.
 696:Drivers/STM32F4xx_HAL_Driver/Src/stm32f4xx_ll_fsmc.c ****   * @param  Device Pointer to NAND device instance
 697:Drivers/STM32F4xx_HAL_Driver/Src/stm32f4xx_ll_fsmc.c ****   * @param  Bank NAND bank number
 698:Drivers/STM32F4xx_HAL_Driver/Src/stm32f4xx_ll_fsmc.c ****   * @retval HAL status
 699:Drivers/STM32F4xx_HAL_Driver/Src/stm32f4xx_ll_fsmc.c ****   */    
 700:Drivers/STM32F4xx_HAL_Driver/Src/stm32f4xx_ll_fsmc.c **** HAL_StatusTypeDef  FSMC_NAND_ECC_Enable(FSMC_NAND_TypeDef *Device, uint32_t Bank)
 701:Drivers/STM32F4xx_HAL_Driver/Src/stm32f4xx_ll_fsmc.c **** {
 838              		.loc 1 701 1 is_stmt 1 view -0
 839              		.cfi_startproc
 840              		@ args = 0, pretend = 0, frame = 0
 841              		@ frame_needed = 0, uses_anonymous_args = 0
 842              		@ link register save eliminated.
 702:Drivers/STM32F4xx_HAL_Driver/Src/stm32f4xx_ll_fsmc.c ****   /* Enable ECC feature */
ARM GAS  /tmp/ccj7iy9k.s 			page 29


 703:Drivers/STM32F4xx_HAL_Driver/Src/stm32f4xx_ll_fsmc.c ****   if(Bank == FSMC_NAND_BANK2)
 843              		.loc 1 703 3 view .LVU289
 844              		.loc 1 703 5 is_stmt 0 view .LVU290
 845 0000 1029     		cmp	r1, #16
 846 0002 05D0     		beq	.L60
 704:Drivers/STM32F4xx_HAL_Driver/Src/stm32f4xx_ll_fsmc.c ****   {
 705:Drivers/STM32F4xx_HAL_Driver/Src/stm32f4xx_ll_fsmc.c ****     Device->PCR2 |= FSMC_PCR2_ECCEN;
 706:Drivers/STM32F4xx_HAL_Driver/Src/stm32f4xx_ll_fsmc.c ****   }
 707:Drivers/STM32F4xx_HAL_Driver/Src/stm32f4xx_ll_fsmc.c ****   else
 708:Drivers/STM32F4xx_HAL_Driver/Src/stm32f4xx_ll_fsmc.c ****   {
 709:Drivers/STM32F4xx_HAL_Driver/Src/stm32f4xx_ll_fsmc.c ****     Device->PCR3 |= FSMC_PCR3_ECCEN;
 847              		.loc 1 709 5 is_stmt 1 view .LVU291
 848              		.loc 1 709 18 is_stmt 0 view .LVU292
 849 0004 036A     		ldr	r3, [r0, #32]
 850 0006 43F04003 		orr	r3, r3, #64
 851 000a 0362     		str	r3, [r0, #32]
 852              	.L59:
 710:Drivers/STM32F4xx_HAL_Driver/Src/stm32f4xx_ll_fsmc.c ****   } 
 711:Drivers/STM32F4xx_HAL_Driver/Src/stm32f4xx_ll_fsmc.c ****   
 712:Drivers/STM32F4xx_HAL_Driver/Src/stm32f4xx_ll_fsmc.c ****   return HAL_OK;  
 853              		.loc 1 712 3 is_stmt 1 view .LVU293
 713:Drivers/STM32F4xx_HAL_Driver/Src/stm32f4xx_ll_fsmc.c **** }
 854              		.loc 1 713 1 is_stmt 0 view .LVU294
 855 000c 0020     		movs	r0, #0
 856              	.LVL64:
 857              		.loc 1 713 1 view .LVU295
 858 000e 7047     		bx	lr
 859              	.LVL65:
 860              	.L60:
 705:Drivers/STM32F4xx_HAL_Driver/Src/stm32f4xx_ll_fsmc.c ****   }
 861              		.loc 1 705 5 is_stmt 1 view .LVU296
 705:Drivers/STM32F4xx_HAL_Driver/Src/stm32f4xx_ll_fsmc.c ****   }
 862              		.loc 1 705 18 is_stmt 0 view .LVU297
 863 0010 0368     		ldr	r3, [r0]
 864 0012 43F04003 		orr	r3, r3, #64
 865 0016 0360     		str	r3, [r0]
 866 0018 F8E7     		b	.L59
 867              		.cfi_endproc
 868              	.LFE140:
 870              		.section	.text.FSMC_NAND_ECC_Disable,"ax",%progbits
 871              		.align	1
 872              		.global	FSMC_NAND_ECC_Disable
 873              		.syntax unified
 874              		.thumb
 875              		.thumb_func
 877              	FSMC_NAND_ECC_Disable:
 878              	.LVL66:
 879              	.LFB141:
 714:Drivers/STM32F4xx_HAL_Driver/Src/stm32f4xx_ll_fsmc.c **** 
 715:Drivers/STM32F4xx_HAL_Driver/Src/stm32f4xx_ll_fsmc.c **** /**
 716:Drivers/STM32F4xx_HAL_Driver/Src/stm32f4xx_ll_fsmc.c ****   * @brief  Disables dynamically FSMC_NAND ECC feature.
 717:Drivers/STM32F4xx_HAL_Driver/Src/stm32f4xx_ll_fsmc.c ****   * @param  Device Pointer to NAND device instance
 718:Drivers/STM32F4xx_HAL_Driver/Src/stm32f4xx_ll_fsmc.c ****   * @param  Bank NAND bank number
 719:Drivers/STM32F4xx_HAL_Driver/Src/stm32f4xx_ll_fsmc.c ****   * @retval HAL status
 720:Drivers/STM32F4xx_HAL_Driver/Src/stm32f4xx_ll_fsmc.c ****   */  
 721:Drivers/STM32F4xx_HAL_Driver/Src/stm32f4xx_ll_fsmc.c **** HAL_StatusTypeDef FSMC_NAND_ECC_Disable(FSMC_NAND_TypeDef *Device, uint32_t Bank)  
 722:Drivers/STM32F4xx_HAL_Driver/Src/stm32f4xx_ll_fsmc.c **** {  
ARM GAS  /tmp/ccj7iy9k.s 			page 30


 880              		.loc 1 722 1 is_stmt 1 view -0
 881              		.cfi_startproc
 882              		@ args = 0, pretend = 0, frame = 0
 883              		@ frame_needed = 0, uses_anonymous_args = 0
 884              		@ link register save eliminated.
 723:Drivers/STM32F4xx_HAL_Driver/Src/stm32f4xx_ll_fsmc.c ****   /* Disable ECC feature */
 724:Drivers/STM32F4xx_HAL_Driver/Src/stm32f4xx_ll_fsmc.c ****   if(Bank == FSMC_NAND_BANK2)
 885              		.loc 1 724 3 view .LVU299
 886              		.loc 1 724 5 is_stmt 0 view .LVU300
 887 0000 1029     		cmp	r1, #16
 888 0002 05D0     		beq	.L64
 725:Drivers/STM32F4xx_HAL_Driver/Src/stm32f4xx_ll_fsmc.c ****   {
 726:Drivers/STM32F4xx_HAL_Driver/Src/stm32f4xx_ll_fsmc.c ****     Device->PCR2 &= ~FSMC_PCR2_ECCEN;
 727:Drivers/STM32F4xx_HAL_Driver/Src/stm32f4xx_ll_fsmc.c ****   }
 728:Drivers/STM32F4xx_HAL_Driver/Src/stm32f4xx_ll_fsmc.c ****   else
 729:Drivers/STM32F4xx_HAL_Driver/Src/stm32f4xx_ll_fsmc.c ****   {
 730:Drivers/STM32F4xx_HAL_Driver/Src/stm32f4xx_ll_fsmc.c ****     Device->PCR3 &= ~FSMC_PCR3_ECCEN;
 889              		.loc 1 730 5 is_stmt 1 view .LVU301
 890              		.loc 1 730 18 is_stmt 0 view .LVU302
 891 0004 036A     		ldr	r3, [r0, #32]
 892 0006 23F04003 		bic	r3, r3, #64
 893 000a 0362     		str	r3, [r0, #32]
 894              	.L63:
 731:Drivers/STM32F4xx_HAL_Driver/Src/stm32f4xx_ll_fsmc.c ****   } 
 732:Drivers/STM32F4xx_HAL_Driver/Src/stm32f4xx_ll_fsmc.c **** 
 733:Drivers/STM32F4xx_HAL_Driver/Src/stm32f4xx_ll_fsmc.c ****   return HAL_OK;  
 895              		.loc 1 733 3 is_stmt 1 view .LVU303
 734:Drivers/STM32F4xx_HAL_Driver/Src/stm32f4xx_ll_fsmc.c **** }
 896              		.loc 1 734 1 is_stmt 0 view .LVU304
 897 000c 0020     		movs	r0, #0
 898              	.LVL67:
 899              		.loc 1 734 1 view .LVU305
 900 000e 7047     		bx	lr
 901              	.LVL68:
 902              	.L64:
 726:Drivers/STM32F4xx_HAL_Driver/Src/stm32f4xx_ll_fsmc.c ****   }
 903              		.loc 1 726 5 is_stmt 1 view .LVU306
 726:Drivers/STM32F4xx_HAL_Driver/Src/stm32f4xx_ll_fsmc.c ****   }
 904              		.loc 1 726 18 is_stmt 0 view .LVU307
 905 0010 0368     		ldr	r3, [r0]
 906 0012 23F04003 		bic	r3, r3, #64
 907 0016 0360     		str	r3, [r0]
 908 0018 F8E7     		b	.L63
 909              		.cfi_endproc
 910              	.LFE141:
 912              		.section	.text.FSMC_NAND_GetECC,"ax",%progbits
 913              		.align	1
 914              		.global	FSMC_NAND_GetECC
 915              		.syntax unified
 916              		.thumb
 917              		.thumb_func
 919              	FSMC_NAND_GetECC:
 920              	.LVL69:
 921              	.LFB142:
 735:Drivers/STM32F4xx_HAL_Driver/Src/stm32f4xx_ll_fsmc.c **** 
 736:Drivers/STM32F4xx_HAL_Driver/Src/stm32f4xx_ll_fsmc.c **** /**
 737:Drivers/STM32F4xx_HAL_Driver/Src/stm32f4xx_ll_fsmc.c ****   * @brief  Disables dynamically FSMC_NAND ECC feature.
ARM GAS  /tmp/ccj7iy9k.s 			page 31


 738:Drivers/STM32F4xx_HAL_Driver/Src/stm32f4xx_ll_fsmc.c ****   * @param  Device Pointer to NAND device instance
 739:Drivers/STM32F4xx_HAL_Driver/Src/stm32f4xx_ll_fsmc.c ****   * @param  ECCval Pointer to ECC value
 740:Drivers/STM32F4xx_HAL_Driver/Src/stm32f4xx_ll_fsmc.c ****   * @param  Bank NAND bank number
 741:Drivers/STM32F4xx_HAL_Driver/Src/stm32f4xx_ll_fsmc.c ****   * @param  Timeout Timeout wait value  
 742:Drivers/STM32F4xx_HAL_Driver/Src/stm32f4xx_ll_fsmc.c ****   * @retval HAL status
 743:Drivers/STM32F4xx_HAL_Driver/Src/stm32f4xx_ll_fsmc.c ****   */
 744:Drivers/STM32F4xx_HAL_Driver/Src/stm32f4xx_ll_fsmc.c **** HAL_StatusTypeDef FSMC_NAND_GetECC(FSMC_NAND_TypeDef *Device, uint32_t *ECCval, uint32_t Bank, uint
 745:Drivers/STM32F4xx_HAL_Driver/Src/stm32f4xx_ll_fsmc.c **** {
 922              		.loc 1 745 1 is_stmt 1 view -0
 923              		.cfi_startproc
 924              		@ args = 0, pretend = 0, frame = 0
 925              		@ frame_needed = 0, uses_anonymous_args = 0
 926              		.loc 1 745 1 is_stmt 0 view .LVU309
 927 0000 2DE9F843 		push	{r3, r4, r5, r6, r7, r8, r9, lr}
 928              	.LCFI15:
 929              		.cfi_def_cfa_offset 32
 930              		.cfi_offset 3, -32
 931              		.cfi_offset 4, -28
 932              		.cfi_offset 5, -24
 933              		.cfi_offset 6, -20
 934              		.cfi_offset 7, -16
 935              		.cfi_offset 8, -12
 936              		.cfi_offset 9, -8
 937              		.cfi_offset 14, -4
 938 0004 0646     		mov	r6, r0
 939 0006 8846     		mov	r8, r1
 940 0008 1546     		mov	r5, r2
 941 000a 1F46     		mov	r7, r3
 746:Drivers/STM32F4xx_HAL_Driver/Src/stm32f4xx_ll_fsmc.c ****   uint32_t tickstart = 0U;
 942              		.loc 1 746 3 is_stmt 1 view .LVU310
 943              	.LVL70:
 747:Drivers/STM32F4xx_HAL_Driver/Src/stm32f4xx_ll_fsmc.c ****   
 748:Drivers/STM32F4xx_HAL_Driver/Src/stm32f4xx_ll_fsmc.c ****   /* Check the parameters */ 
 749:Drivers/STM32F4xx_HAL_Driver/Src/stm32f4xx_ll_fsmc.c ****   assert_param(IS_FSMC_NAND_DEVICE(Device)); 
 944              		.loc 1 749 3 view .LVU311
 750:Drivers/STM32F4xx_HAL_Driver/Src/stm32f4xx_ll_fsmc.c ****   assert_param(IS_FSMC_NAND_BANK(Bank));
 945              		.loc 1 750 3 view .LVU312
 751:Drivers/STM32F4xx_HAL_Driver/Src/stm32f4xx_ll_fsmc.c **** 
 752:Drivers/STM32F4xx_HAL_Driver/Src/stm32f4xx_ll_fsmc.c ****   /* Get tick */ 
 753:Drivers/STM32F4xx_HAL_Driver/Src/stm32f4xx_ll_fsmc.c ****   tickstart = HAL_GetTick();
 946              		.loc 1 753 3 view .LVU313
 947              		.loc 1 753 15 is_stmt 0 view .LVU314
 948 000c FFF7FEFF 		bl	HAL_GetTick
 949              	.LVL71:
 950              		.loc 1 753 15 view .LVU315
 951 0010 8146     		mov	r9, r0
 952              	.LVL72:
 754:Drivers/STM32F4xx_HAL_Driver/Src/stm32f4xx_ll_fsmc.c **** 
 755:Drivers/STM32F4xx_HAL_Driver/Src/stm32f4xx_ll_fsmc.c ****   /* Wait until FIFO is empty */
 756:Drivers/STM32F4xx_HAL_Driver/Src/stm32f4xx_ll_fsmc.c ****   while(__FSMC_NAND_GET_FLAG(Device, Bank, FSMC_FLAG_FEMPT) == RESET)
 953              		.loc 1 756 3 is_stmt 1 view .LVU316
 954              		.loc 1 756 8 is_stmt 0 view .LVU317
 955 0012 12E0     		b	.L67
 956              	.LVL73:
 957              	.L76:
 757:Drivers/STM32F4xx_HAL_Driver/Src/stm32f4xx_ll_fsmc.c ****   {
 758:Drivers/STM32F4xx_HAL_Driver/Src/stm32f4xx_ll_fsmc.c ****     /* Check for the Timeout */
ARM GAS  /tmp/ccj7iy9k.s 			page 32


 759:Drivers/STM32F4xx_HAL_Driver/Src/stm32f4xx_ll_fsmc.c ****     if(Timeout != HAL_MAX_DELAY)
 760:Drivers/STM32F4xx_HAL_Driver/Src/stm32f4xx_ll_fsmc.c ****     {
 761:Drivers/STM32F4xx_HAL_Driver/Src/stm32f4xx_ll_fsmc.c ****       if((Timeout == 0U)||((HAL_GetTick() - tickstart ) > Timeout))
 958              		.loc 1 761 7 is_stmt 1 view .LVU318
 959              		.loc 1 761 9 is_stmt 0 view .LVU319
 960 0014 2FB1     		cbz	r7, .L68
 961              		.loc 1 761 29 discriminator 1 view .LVU320
 962 0016 FFF7FEFF 		bl	HAL_GetTick
 963              	.LVL74:
 964              		.loc 1 761 43 discriminator 1 view .LVU321
 965 001a A0EB0900 		sub	r0, r0, r9
 966              		.loc 1 761 25 discriminator 1 view .LVU322
 967 001e B842     		cmp	r0, r7
 968 0020 0BD9     		bls	.L67
 969              	.L68:
 762:Drivers/STM32F4xx_HAL_Driver/Src/stm32f4xx_ll_fsmc.c ****       {
 763:Drivers/STM32F4xx_HAL_Driver/Src/stm32f4xx_ll_fsmc.c ****         return HAL_TIMEOUT;
 970              		.loc 1 763 9 is_stmt 1 view .LVU323
 971              		.loc 1 763 16 is_stmt 0 view .LVU324
 972 0022 0320     		movs	r0, #3
 973 0024 18E0     		b	.L69
 974              	.L70:
 756:Drivers/STM32F4xx_HAL_Driver/Src/stm32f4xx_ll_fsmc.c ****   {
 975              		.loc 1 756 9 discriminator 2 view .LVU325
 976 0026 746A     		ldr	r4, [r6, #36]
 756:Drivers/STM32F4xx_HAL_Driver/Src/stm32f4xx_ll_fsmc.c ****   {
 977              		.loc 1 756 61 discriminator 2 view .LVU326
 978 0028 14F0400F 		tst	r4, #64
 979 002c 0CBF     		ite	eq
 980 002e 0124     		moveq	r4, #1
 981 0030 0024     		movne	r4, #0
 982              	.L71:
 756:Drivers/STM32F4xx_HAL_Driver/Src/stm32f4xx_ll_fsmc.c ****   {
 983              		.loc 1 756 8 discriminator 4 view .LVU327
 984 0032 5CB1     		cbz	r4, .L75
 759:Drivers/STM32F4xx_HAL_Driver/Src/stm32f4xx_ll_fsmc.c ****     {
 985              		.loc 1 759 5 is_stmt 1 view .LVU328
 759:Drivers/STM32F4xx_HAL_Driver/Src/stm32f4xx_ll_fsmc.c ****     {
 986              		.loc 1 759 7 is_stmt 0 view .LVU329
 987 0034 B7F1FF3F 		cmp	r7, #-1
 988 0038 ECD1     		bne	.L76
 989              	.L67:
 756:Drivers/STM32F4xx_HAL_Driver/Src/stm32f4xx_ll_fsmc.c ****   {
 990              		.loc 1 756 8 is_stmt 1 view .LVU330
 756:Drivers/STM32F4xx_HAL_Driver/Src/stm32f4xx_ll_fsmc.c ****   {
 991              		.loc 1 756 61 is_stmt 0 view .LVU331
 992 003a 102D     		cmp	r5, #16
 993 003c F3D1     		bne	.L70
 756:Drivers/STM32F4xx_HAL_Driver/Src/stm32f4xx_ll_fsmc.c ****   {
 994              		.loc 1 756 9 discriminator 1 view .LVU332
 995 003e 7368     		ldr	r3, [r6, #4]
 756:Drivers/STM32F4xx_HAL_Driver/Src/stm32f4xx_ll_fsmc.c ****   {
 996              		.loc 1 756 61 discriminator 1 view .LVU333
 997 0040 13F0400F 		tst	r3, #64
 998 0044 0CBF     		ite	eq
 999 0046 0124     		moveq	r4, #1
 1000 0048 0024     		movne	r4, #0
ARM GAS  /tmp/ccj7iy9k.s 			page 33


 1001 004a F2E7     		b	.L71
 1002              	.L75:
 764:Drivers/STM32F4xx_HAL_Driver/Src/stm32f4xx_ll_fsmc.c ****       }
 765:Drivers/STM32F4xx_HAL_Driver/Src/stm32f4xx_ll_fsmc.c ****     }   
 766:Drivers/STM32F4xx_HAL_Driver/Src/stm32f4xx_ll_fsmc.c ****   }
 767:Drivers/STM32F4xx_HAL_Driver/Src/stm32f4xx_ll_fsmc.c ****      
 768:Drivers/STM32F4xx_HAL_Driver/Src/stm32f4xx_ll_fsmc.c ****   if(Bank == FSMC_NAND_BANK2)
 1003              		.loc 1 768 3 is_stmt 1 view .LVU334
 1004              		.loc 1 768 5 is_stmt 0 view .LVU335
 1005 004c 102D     		cmp	r5, #16
 1006 004e 05D0     		beq	.L77
 769:Drivers/STM32F4xx_HAL_Driver/Src/stm32f4xx_ll_fsmc.c ****   {    
 770:Drivers/STM32F4xx_HAL_Driver/Src/stm32f4xx_ll_fsmc.c ****     /* Get the ECCR2 register value */
 771:Drivers/STM32F4xx_HAL_Driver/Src/stm32f4xx_ll_fsmc.c ****     *ECCval = (uint32_t)Device->ECCR2;
 772:Drivers/STM32F4xx_HAL_Driver/Src/stm32f4xx_ll_fsmc.c ****   }
 773:Drivers/STM32F4xx_HAL_Driver/Src/stm32f4xx_ll_fsmc.c ****   else
 774:Drivers/STM32F4xx_HAL_Driver/Src/stm32f4xx_ll_fsmc.c ****   {    
 775:Drivers/STM32F4xx_HAL_Driver/Src/stm32f4xx_ll_fsmc.c ****     /* Get the ECCR3 register value */
 776:Drivers/STM32F4xx_HAL_Driver/Src/stm32f4xx_ll_fsmc.c ****     *ECCval = (uint32_t)Device->ECCR3;
 1007              		.loc 1 776 5 is_stmt 1 view .LVU336
 1008              		.loc 1 776 31 is_stmt 0 view .LVU337
 1009 0050 736B     		ldr	r3, [r6, #52]
 1010              		.loc 1 776 13 view .LVU338
 1011 0052 C8F80030 		str	r3, [r8]
 777:Drivers/STM32F4xx_HAL_Driver/Src/stm32f4xx_ll_fsmc.c ****   }
 778:Drivers/STM32F4xx_HAL_Driver/Src/stm32f4xx_ll_fsmc.c **** 
 779:Drivers/STM32F4xx_HAL_Driver/Src/stm32f4xx_ll_fsmc.c ****   return HAL_OK;  
 1012              		.loc 1 779 10 view .LVU339
 1013 0056 0020     		movs	r0, #0
 1014              	.L69:
 780:Drivers/STM32F4xx_HAL_Driver/Src/stm32f4xx_ll_fsmc.c **** }
 1015              		.loc 1 780 1 view .LVU340
 1016 0058 BDE8F883 		pop	{r3, r4, r5, r6, r7, r8, r9, pc}
 1017              	.LVL75:
 1018              	.L77:
 771:Drivers/STM32F4xx_HAL_Driver/Src/stm32f4xx_ll_fsmc.c ****   }
 1019              		.loc 1 771 5 is_stmt 1 view .LVU341
 771:Drivers/STM32F4xx_HAL_Driver/Src/stm32f4xx_ll_fsmc.c ****   }
 1020              		.loc 1 771 31 is_stmt 0 view .LVU342
 1021 005c 7369     		ldr	r3, [r6, #20]
 771:Drivers/STM32F4xx_HAL_Driver/Src/stm32f4xx_ll_fsmc.c ****   }
 1022              		.loc 1 771 13 view .LVU343
 1023 005e C8F80030 		str	r3, [r8]
 779:Drivers/STM32F4xx_HAL_Driver/Src/stm32f4xx_ll_fsmc.c **** }
 1024              		.loc 1 779 10 view .LVU344
 1025 0062 0020     		movs	r0, #0
 1026 0064 F8E7     		b	.L69
 1027              		.cfi_endproc
 1028              	.LFE142:
 1030              		.section	.text.FSMC_PCCARD_Init,"ax",%progbits
 1031              		.align	1
 1032              		.global	FSMC_PCCARD_Init
 1033              		.syntax unified
 1034              		.thumb
 1035              		.thumb_func
 1037              	FSMC_PCCARD_Init:
 1038              	.LVL76:
ARM GAS  /tmp/ccj7iy9k.s 			page 34


 1039              	.LFB143:
 781:Drivers/STM32F4xx_HAL_Driver/Src/stm32f4xx_ll_fsmc.c **** 
 782:Drivers/STM32F4xx_HAL_Driver/Src/stm32f4xx_ll_fsmc.c **** /**
 783:Drivers/STM32F4xx_HAL_Driver/Src/stm32f4xx_ll_fsmc.c ****   * @}
 784:Drivers/STM32F4xx_HAL_Driver/Src/stm32f4xx_ll_fsmc.c ****   */
 785:Drivers/STM32F4xx_HAL_Driver/Src/stm32f4xx_ll_fsmc.c ****   
 786:Drivers/STM32F4xx_HAL_Driver/Src/stm32f4xx_ll_fsmc.c **** /**
 787:Drivers/STM32F4xx_HAL_Driver/Src/stm32f4xx_ll_fsmc.c ****   * @}
 788:Drivers/STM32F4xx_HAL_Driver/Src/stm32f4xx_ll_fsmc.c ****   */
 789:Drivers/STM32F4xx_HAL_Driver/Src/stm32f4xx_ll_fsmc.c ****     
 790:Drivers/STM32F4xx_HAL_Driver/Src/stm32f4xx_ll_fsmc.c **** /** @addtogroup FSMC_LL_PCCARD
 791:Drivers/STM32F4xx_HAL_Driver/Src/stm32f4xx_ll_fsmc.c ****   * @brief    PCCARD Controller functions 
 792:Drivers/STM32F4xx_HAL_Driver/Src/stm32f4xx_ll_fsmc.c ****   *
 793:Drivers/STM32F4xx_HAL_Driver/Src/stm32f4xx_ll_fsmc.c ****   @verbatim 
 794:Drivers/STM32F4xx_HAL_Driver/Src/stm32f4xx_ll_fsmc.c ****   ==============================================================================
 795:Drivers/STM32F4xx_HAL_Driver/Src/stm32f4xx_ll_fsmc.c ****                     ##### How to use PCCARD device driver #####
 796:Drivers/STM32F4xx_HAL_Driver/Src/stm32f4xx_ll_fsmc.c ****   ==============================================================================
 797:Drivers/STM32F4xx_HAL_Driver/Src/stm32f4xx_ll_fsmc.c ****   [..]
 798:Drivers/STM32F4xx_HAL_Driver/Src/stm32f4xx_ll_fsmc.c ****     This driver contains a set of APIs to interface with the FSMC PCCARD bank in order
 799:Drivers/STM32F4xx_HAL_Driver/Src/stm32f4xx_ll_fsmc.c ****     to run the PCCARD/compact flash external devices.
 800:Drivers/STM32F4xx_HAL_Driver/Src/stm32f4xx_ll_fsmc.c ****   
 801:Drivers/STM32F4xx_HAL_Driver/Src/stm32f4xx_ll_fsmc.c ****     (+) FSMC PCCARD bank reset using the function FSMC_PCCARD_DeInit() 
 802:Drivers/STM32F4xx_HAL_Driver/Src/stm32f4xx_ll_fsmc.c ****     (+) FSMC PCCARD bank control configuration using the function FSMC_PCCARD_Init()
 803:Drivers/STM32F4xx_HAL_Driver/Src/stm32f4xx_ll_fsmc.c ****     (+) FSMC PCCARD bank common space timing configuration using the function 
 804:Drivers/STM32F4xx_HAL_Driver/Src/stm32f4xx_ll_fsmc.c ****         FSMC_PCCARD_CommonSpace_Timing_Init()
 805:Drivers/STM32F4xx_HAL_Driver/Src/stm32f4xx_ll_fsmc.c ****     (+) FSMC PCCARD bank attribute space timing configuration using the function 
 806:Drivers/STM32F4xx_HAL_Driver/Src/stm32f4xx_ll_fsmc.c ****         FSMC_PCCARD_AttributeSpace_Timing_Init()
 807:Drivers/STM32F4xx_HAL_Driver/Src/stm32f4xx_ll_fsmc.c ****     (+) FSMC PCCARD bank IO space timing configuration using the function 
 808:Drivers/STM32F4xx_HAL_Driver/Src/stm32f4xx_ll_fsmc.c ****         FSMC_PCCARD_IOSpace_Timing_Init()
 809:Drivers/STM32F4xx_HAL_Driver/Src/stm32f4xx_ll_fsmc.c ****        
 810:Drivers/STM32F4xx_HAL_Driver/Src/stm32f4xx_ll_fsmc.c **** @endverbatim
 811:Drivers/STM32F4xx_HAL_Driver/Src/stm32f4xx_ll_fsmc.c ****   * @{
 812:Drivers/STM32F4xx_HAL_Driver/Src/stm32f4xx_ll_fsmc.c ****   */
 813:Drivers/STM32F4xx_HAL_Driver/Src/stm32f4xx_ll_fsmc.c ****   
 814:Drivers/STM32F4xx_HAL_Driver/Src/stm32f4xx_ll_fsmc.c **** /** @addtogroup FSMC_LL_PCCARD_Private_Functions_Group1
 815:Drivers/STM32F4xx_HAL_Driver/Src/stm32f4xx_ll_fsmc.c ****   *  @brief   Initialization and Configuration functions 
 816:Drivers/STM32F4xx_HAL_Driver/Src/stm32f4xx_ll_fsmc.c ****   *
 817:Drivers/STM32F4xx_HAL_Driver/Src/stm32f4xx_ll_fsmc.c **** @verbatim    
 818:Drivers/STM32F4xx_HAL_Driver/Src/stm32f4xx_ll_fsmc.c ****   ==============================================================================
 819:Drivers/STM32F4xx_HAL_Driver/Src/stm32f4xx_ll_fsmc.c ****               ##### Initialization and de_initialization functions #####
 820:Drivers/STM32F4xx_HAL_Driver/Src/stm32f4xx_ll_fsmc.c ****   ==============================================================================
 821:Drivers/STM32F4xx_HAL_Driver/Src/stm32f4xx_ll_fsmc.c ****   [..]  
 822:Drivers/STM32F4xx_HAL_Driver/Src/stm32f4xx_ll_fsmc.c ****     This section provides functions allowing to:
 823:Drivers/STM32F4xx_HAL_Driver/Src/stm32f4xx_ll_fsmc.c ****     (+) Initialize and configure the FSMC PCCARD interface
 824:Drivers/STM32F4xx_HAL_Driver/Src/stm32f4xx_ll_fsmc.c ****     (+) De-initialize the FSMC PCCARD interface 
 825:Drivers/STM32F4xx_HAL_Driver/Src/stm32f4xx_ll_fsmc.c ****     (+) Configure the FSMC clock and associated GPIOs
 826:Drivers/STM32F4xx_HAL_Driver/Src/stm32f4xx_ll_fsmc.c ****         
 827:Drivers/STM32F4xx_HAL_Driver/Src/stm32f4xx_ll_fsmc.c **** @endverbatim
 828:Drivers/STM32F4xx_HAL_Driver/Src/stm32f4xx_ll_fsmc.c ****   * @{
 829:Drivers/STM32F4xx_HAL_Driver/Src/stm32f4xx_ll_fsmc.c ****   */
 830:Drivers/STM32F4xx_HAL_Driver/Src/stm32f4xx_ll_fsmc.c ****   
 831:Drivers/STM32F4xx_HAL_Driver/Src/stm32f4xx_ll_fsmc.c **** /**
 832:Drivers/STM32F4xx_HAL_Driver/Src/stm32f4xx_ll_fsmc.c ****   * @brief  Initializes the FSMC_PCCARD device according to the specified
 833:Drivers/STM32F4xx_HAL_Driver/Src/stm32f4xx_ll_fsmc.c ****   *         control parameters in the FSMC_PCCARD_HandleTypeDef
 834:Drivers/STM32F4xx_HAL_Driver/Src/stm32f4xx_ll_fsmc.c ****   * @param  Device Pointer to PCCARD device instance
 835:Drivers/STM32F4xx_HAL_Driver/Src/stm32f4xx_ll_fsmc.c ****   * @param  Init Pointer to PCCARD Initialization structure   
 836:Drivers/STM32F4xx_HAL_Driver/Src/stm32f4xx_ll_fsmc.c ****   * @retval HAL status
ARM GAS  /tmp/ccj7iy9k.s 			page 35


 837:Drivers/STM32F4xx_HAL_Driver/Src/stm32f4xx_ll_fsmc.c ****   */
 838:Drivers/STM32F4xx_HAL_Driver/Src/stm32f4xx_ll_fsmc.c **** HAL_StatusTypeDef FSMC_PCCARD_Init(FSMC_PCCARD_TypeDef *Device, FSMC_PCCARD_InitTypeDef *Init)
 839:Drivers/STM32F4xx_HAL_Driver/Src/stm32f4xx_ll_fsmc.c **** {
 1040              		.loc 1 839 1 is_stmt 1 view -0
 1041              		.cfi_startproc
 1042              		@ args = 0, pretend = 0, frame = 0
 1043              		@ frame_needed = 0, uses_anonymous_args = 0
 1044              		@ link register save eliminated.
 1045              		.loc 1 839 1 is_stmt 0 view .LVU346
 1046 0000 10B4     		push	{r4}
 1047              	.LCFI16:
 1048              		.cfi_def_cfa_offset 4
 1049              		.cfi_offset 4, -4
 840:Drivers/STM32F4xx_HAL_Driver/Src/stm32f4xx_ll_fsmc.c ****   uint32_t tmpr = 0U;
 1050              		.loc 1 840 3 is_stmt 1 view .LVU347
 1051              	.LVL77:
 841:Drivers/STM32F4xx_HAL_Driver/Src/stm32f4xx_ll_fsmc.c ****   
 842:Drivers/STM32F4xx_HAL_Driver/Src/stm32f4xx_ll_fsmc.c ****   /* Check the parameters */ 
 843:Drivers/STM32F4xx_HAL_Driver/Src/stm32f4xx_ll_fsmc.c ****   assert_param(IS_FSMC_WAIT_FEATURE(Init->Waitfeature));
 1052              		.loc 1 843 3 view .LVU348
 844:Drivers/STM32F4xx_HAL_Driver/Src/stm32f4xx_ll_fsmc.c ****   assert_param(IS_FSMC_TCLR_TIME(Init->TCLRSetupTime));
 1053              		.loc 1 844 3 view .LVU349
 845:Drivers/STM32F4xx_HAL_Driver/Src/stm32f4xx_ll_fsmc.c ****   assert_param(IS_FSMC_TAR_TIME(Init->TARSetupTime));     
 1054              		.loc 1 845 3 view .LVU350
 846:Drivers/STM32F4xx_HAL_Driver/Src/stm32f4xx_ll_fsmc.c ****   
 847:Drivers/STM32F4xx_HAL_Driver/Src/stm32f4xx_ll_fsmc.c ****   /* Get PCCARD control register value */
 848:Drivers/STM32F4xx_HAL_Driver/Src/stm32f4xx_ll_fsmc.c ****   tmpr = Device->PCR4;
 1055              		.loc 1 848 3 view .LVU351
 1056              		.loc 1 848 8 is_stmt 0 view .LVU352
 1057 0002 0268     		ldr	r2, [r0]
 1058              	.LVL78:
 849:Drivers/STM32F4xx_HAL_Driver/Src/stm32f4xx_ll_fsmc.c ****   
 850:Drivers/STM32F4xx_HAL_Driver/Src/stm32f4xx_ll_fsmc.c ****   /* Clear TAR, TCLR, PWAITEN and PWID bits */
 851:Drivers/STM32F4xx_HAL_Driver/Src/stm32f4xx_ll_fsmc.c ****   tmpr &= ((uint32_t)~(FSMC_PCR4_TAR  | FSMC_PCR4_TCLR | FSMC_PCR4_PWAITEN | \
 1059              		.loc 1 851 3 is_stmt 1 view .LVU353
 1060              		.loc 1 851 8 is_stmt 0 view .LVU354
 1061 0004 22F4FF32 		bic	r2, r2, #130560
 1062              	.LVL79:
 1063              		.loc 1 851 8 view .LVU355
 1064 0008 22F03A02 		bic	r2, r2, #58
 1065              	.LVL80:
 852:Drivers/STM32F4xx_HAL_Driver/Src/stm32f4xx_ll_fsmc.c ****                        FSMC_PCR4_PWID | FSMC_PCR4_PTYP));
 853:Drivers/STM32F4xx_HAL_Driver/Src/stm32f4xx_ll_fsmc.c ****   
 854:Drivers/STM32F4xx_HAL_Driver/Src/stm32f4xx_ll_fsmc.c ****   /* Set FSMC_PCCARD device control parameters */
 855:Drivers/STM32F4xx_HAL_Driver/Src/stm32f4xx_ll_fsmc.c ****   tmpr |= (uint32_t)(Init->Waitfeature               |\
 1066              		.loc 1 855 3 is_stmt 1 view .LVU356
 1067              		.loc 1 855 26 is_stmt 0 view .LVU357
 1068 000c 0B68     		ldr	r3, [r1]
 856:Drivers/STM32F4xx_HAL_Driver/Src/stm32f4xx_ll_fsmc.c ****                      FSMC_NAND_PCC_MEM_BUS_WIDTH_16  |\
 1069              		.loc 1 856 54 view .LVU358
 1070 000e 4C68     		ldr	r4, [r1, #4]
 1071 0010 43EA4423 		orr	r3, r3, r4, lsl #9
 857:Drivers/STM32F4xx_HAL_Driver/Src/stm32f4xx_ll_fsmc.c ****                      (Init->TCLRSetupTime << 9U)     |\
 858:Drivers/STM32F4xx_HAL_Driver/Src/stm32f4xx_ll_fsmc.c ****                      (Init->TARSetupTime << 13U));
 1072              		.loc 1 858 27 view .LVU359
 1073 0014 8968     		ldr	r1, [r1, #8]
 1074              	.LVL81:
ARM GAS  /tmp/ccj7iy9k.s 			page 36


 855:Drivers/STM32F4xx_HAL_Driver/Src/stm32f4xx_ll_fsmc.c ****                      FSMC_NAND_PCC_MEM_BUS_WIDTH_16  |\
 1075              		.loc 1 855 11 view .LVU360
 1076 0016 43EA4133 		orr	r3, r3, r1, lsl #13
 855:Drivers/STM32F4xx_HAL_Driver/Src/stm32f4xx_ll_fsmc.c ****                      FSMC_NAND_PCC_MEM_BUS_WIDTH_16  |\
 1077              		.loc 1 855 8 view .LVU361
 1078 001a 1343     		orrs	r3, r3, r2
 1079 001c 43F01003 		orr	r3, r3, #16
 1080              	.LVL82:
 859:Drivers/STM32F4xx_HAL_Driver/Src/stm32f4xx_ll_fsmc.c ****   
 860:Drivers/STM32F4xx_HAL_Driver/Src/stm32f4xx_ll_fsmc.c ****   Device->PCR4 = tmpr;
 1081              		.loc 1 860 3 is_stmt 1 view .LVU362
 1082              		.loc 1 860 16 is_stmt 0 view .LVU363
 1083 0020 0360     		str	r3, [r0]
 861:Drivers/STM32F4xx_HAL_Driver/Src/stm32f4xx_ll_fsmc.c ****   
 862:Drivers/STM32F4xx_HAL_Driver/Src/stm32f4xx_ll_fsmc.c ****   return HAL_OK;
 1084              		.loc 1 862 3 is_stmt 1 view .LVU364
 863:Drivers/STM32F4xx_HAL_Driver/Src/stm32f4xx_ll_fsmc.c **** }
 1085              		.loc 1 863 1 is_stmt 0 view .LVU365
 1086 0022 0020     		movs	r0, #0
 1087              	.LVL83:
 1088              		.loc 1 863 1 view .LVU366
 1089 0024 5DF8044B 		ldr	r4, [sp], #4
 1090              	.LCFI17:
 1091              		.cfi_restore 4
 1092              		.cfi_def_cfa_offset 0
 1093 0028 7047     		bx	lr
 1094              		.cfi_endproc
 1095              	.LFE143:
 1097              		.section	.text.FSMC_PCCARD_CommonSpace_Timing_Init,"ax",%progbits
 1098              		.align	1
 1099              		.global	FSMC_PCCARD_CommonSpace_Timing_Init
 1100              		.syntax unified
 1101              		.thumb
 1102              		.thumb_func
 1104              	FSMC_PCCARD_CommonSpace_Timing_Init:
 1105              	.LVL84:
 1106              	.LFB144:
 864:Drivers/STM32F4xx_HAL_Driver/Src/stm32f4xx_ll_fsmc.c **** 
 865:Drivers/STM32F4xx_HAL_Driver/Src/stm32f4xx_ll_fsmc.c **** /**
 866:Drivers/STM32F4xx_HAL_Driver/Src/stm32f4xx_ll_fsmc.c ****   * @brief  Initializes the FSMC_PCCARD Common space Timing according to the specified
 867:Drivers/STM32F4xx_HAL_Driver/Src/stm32f4xx_ll_fsmc.c ****   *         parameters in the FSMC_NAND_PCC_TimingTypeDef
 868:Drivers/STM32F4xx_HAL_Driver/Src/stm32f4xx_ll_fsmc.c ****   * @param  Device Pointer to PCCARD device instance
 869:Drivers/STM32F4xx_HAL_Driver/Src/stm32f4xx_ll_fsmc.c ****   * @param  Timing Pointer to PCCARD timing structure 
 870:Drivers/STM32F4xx_HAL_Driver/Src/stm32f4xx_ll_fsmc.c ****   * @retval HAL status
 871:Drivers/STM32F4xx_HAL_Driver/Src/stm32f4xx_ll_fsmc.c ****   */
 872:Drivers/STM32F4xx_HAL_Driver/Src/stm32f4xx_ll_fsmc.c **** HAL_StatusTypeDef FSMC_PCCARD_CommonSpace_Timing_Init(FSMC_PCCARD_TypeDef *Device, FSMC_NAND_PCC_Ti
 873:Drivers/STM32F4xx_HAL_Driver/Src/stm32f4xx_ll_fsmc.c **** {
 1107              		.loc 1 873 1 is_stmt 1 view -0
 1108              		.cfi_startproc
 1109              		@ args = 0, pretend = 0, frame = 0
 1110              		@ frame_needed = 0, uses_anonymous_args = 0
 1111              		@ link register save eliminated.
 874:Drivers/STM32F4xx_HAL_Driver/Src/stm32f4xx_ll_fsmc.c ****   uint32_t tmpr = 0U;
 1112              		.loc 1 874 3 view .LVU368
 875:Drivers/STM32F4xx_HAL_Driver/Src/stm32f4xx_ll_fsmc.c ****   
 876:Drivers/STM32F4xx_HAL_Driver/Src/stm32f4xx_ll_fsmc.c ****   /* Check the parameters */
 877:Drivers/STM32F4xx_HAL_Driver/Src/stm32f4xx_ll_fsmc.c ****   assert_param(IS_FSMC_SETUP_TIME(Timing->SetupTime));
ARM GAS  /tmp/ccj7iy9k.s 			page 37


 1113              		.loc 1 877 3 view .LVU369
 878:Drivers/STM32F4xx_HAL_Driver/Src/stm32f4xx_ll_fsmc.c ****   assert_param(IS_FSMC_WAIT_TIME(Timing->WaitSetupTime));
 1114              		.loc 1 878 3 view .LVU370
 879:Drivers/STM32F4xx_HAL_Driver/Src/stm32f4xx_ll_fsmc.c ****   assert_param(IS_FSMC_HOLD_TIME(Timing->HoldSetupTime));
 1115              		.loc 1 879 3 view .LVU371
 880:Drivers/STM32F4xx_HAL_Driver/Src/stm32f4xx_ll_fsmc.c ****   assert_param(IS_FSMC_HIZ_TIME(Timing->HiZSetupTime));
 1116              		.loc 1 880 3 view .LVU372
 881:Drivers/STM32F4xx_HAL_Driver/Src/stm32f4xx_ll_fsmc.c **** 
 882:Drivers/STM32F4xx_HAL_Driver/Src/stm32f4xx_ll_fsmc.c ****   /* Get PCCARD common space timing register value */
 883:Drivers/STM32F4xx_HAL_Driver/Src/stm32f4xx_ll_fsmc.c ****   tmpr = Device->PMEM4;
 1117              		.loc 1 883 3 view .LVU373
 1118              		.loc 1 883 8 is_stmt 0 view .LVU374
 1119 0000 8368     		ldr	r3, [r0, #8]
 1120              	.LVL85:
 884:Drivers/STM32F4xx_HAL_Driver/Src/stm32f4xx_ll_fsmc.c ****   
 885:Drivers/STM32F4xx_HAL_Driver/Src/stm32f4xx_ll_fsmc.c ****   /* Clear MEMSETx, MEMWAITx, MEMHOLDx and MEMHIZx bits */
 886:Drivers/STM32F4xx_HAL_Driver/Src/stm32f4xx_ll_fsmc.c ****   tmpr &= ((uint32_t)~(FSMC_PMEM4_MEMSET4  | FSMC_PMEM4_MEMWAIT4 | FSMC_PMEM4_MEMHOLD4 | \
 1121              		.loc 1 886 3 is_stmt 1 view .LVU375
 887:Drivers/STM32F4xx_HAL_Driver/Src/stm32f4xx_ll_fsmc.c ****                        FSMC_PMEM4_MEMHIZ4));
 888:Drivers/STM32F4xx_HAL_Driver/Src/stm32f4xx_ll_fsmc.c ****   /* Set PCCARD timing parameters */
 889:Drivers/STM32F4xx_HAL_Driver/Src/stm32f4xx_ll_fsmc.c ****   tmpr |= (uint32_t)((Timing->SetupTime                 |\
 1122              		.loc 1 889 3 view .LVU376
 1123              		.loc 1 889 29 is_stmt 0 view .LVU377
 1124 0002 0B68     		ldr	r3, [r1]
 890:Drivers/STM32F4xx_HAL_Driver/Src/stm32f4xx_ll_fsmc.c ****                     ((Timing->WaitSetupTime) << 8U)     |\
 1125              		.loc 1 890 29 view .LVU378
 1126 0004 4A68     		ldr	r2, [r1, #4]
 889:Drivers/STM32F4xx_HAL_Driver/Src/stm32f4xx_ll_fsmc.c ****                     ((Timing->WaitSetupTime) << 8U)     |\
 1127              		.loc 1 889 57 view .LVU379
 1128 0006 43EA0223 		orr	r3, r3, r2, lsl #8
 891:Drivers/STM32F4xx_HAL_Driver/Src/stm32f4xx_ll_fsmc.c ****                     (Timing->HoldSetupTime) << 16U)     |\
 1129              		.loc 1 891 28 view .LVU380
 1130 000a 8A68     		ldr	r2, [r1, #8]
 890:Drivers/STM32F4xx_HAL_Driver/Src/stm32f4xx_ll_fsmc.c ****                     ((Timing->WaitSetupTime) << 8U)     |\
 1131              		.loc 1 890 57 view .LVU381
 1132 000c 43EA0243 		orr	r3, r3, r2, lsl #16
 892:Drivers/STM32F4xx_HAL_Driver/Src/stm32f4xx_ll_fsmc.c ****                     ((Timing->HiZSetupTime) << 24U));
 1133              		.loc 1 892 29 view .LVU382
 1134 0010 CA68     		ldr	r2, [r1, #12]
 891:Drivers/STM32F4xx_HAL_Driver/Src/stm32f4xx_ll_fsmc.c ****                     (Timing->HoldSetupTime) << 16U)     |\
 1135              		.loc 1 891 57 view .LVU383
 1136 0012 43EA0263 		orr	r3, r3, r2, lsl #24
 1137              	.LVL86:
 893:Drivers/STM32F4xx_HAL_Driver/Src/stm32f4xx_ll_fsmc.c ****   
 894:Drivers/STM32F4xx_HAL_Driver/Src/stm32f4xx_ll_fsmc.c ****   Device->PMEM4 = tmpr;
 1138              		.loc 1 894 3 is_stmt 1 view .LVU384
 1139              		.loc 1 894 17 is_stmt 0 view .LVU385
 1140 0016 8360     		str	r3, [r0, #8]
 895:Drivers/STM32F4xx_HAL_Driver/Src/stm32f4xx_ll_fsmc.c ****   
 896:Drivers/STM32F4xx_HAL_Driver/Src/stm32f4xx_ll_fsmc.c ****   return HAL_OK;  
 1141              		.loc 1 896 3 is_stmt 1 view .LVU386
 897:Drivers/STM32F4xx_HAL_Driver/Src/stm32f4xx_ll_fsmc.c **** }
 1142              		.loc 1 897 1 is_stmt 0 view .LVU387
 1143 0018 0020     		movs	r0, #0
 1144              	.LVL87:
 1145              		.loc 1 897 1 view .LVU388
 1146 001a 7047     		bx	lr
ARM GAS  /tmp/ccj7iy9k.s 			page 38


 1147              		.cfi_endproc
 1148              	.LFE144:
 1150              		.section	.text.FSMC_PCCARD_AttributeSpace_Timing_Init,"ax",%progbits
 1151              		.align	1
 1152              		.global	FSMC_PCCARD_AttributeSpace_Timing_Init
 1153              		.syntax unified
 1154              		.thumb
 1155              		.thumb_func
 1157              	FSMC_PCCARD_AttributeSpace_Timing_Init:
 1158              	.LVL88:
 1159              	.LFB145:
 898:Drivers/STM32F4xx_HAL_Driver/Src/stm32f4xx_ll_fsmc.c **** 
 899:Drivers/STM32F4xx_HAL_Driver/Src/stm32f4xx_ll_fsmc.c **** /**
 900:Drivers/STM32F4xx_HAL_Driver/Src/stm32f4xx_ll_fsmc.c ****   * @brief  Initializes the FSMC_PCCARD Attribute space Timing according to the specified
 901:Drivers/STM32F4xx_HAL_Driver/Src/stm32f4xx_ll_fsmc.c ****   *         parameters in the FSMC_NAND_PCC_TimingTypeDef
 902:Drivers/STM32F4xx_HAL_Driver/Src/stm32f4xx_ll_fsmc.c ****   * @param  Device Pointer to PCCARD device instance
 903:Drivers/STM32F4xx_HAL_Driver/Src/stm32f4xx_ll_fsmc.c ****   * @param  Timing Pointer to PCCARD timing structure  
 904:Drivers/STM32F4xx_HAL_Driver/Src/stm32f4xx_ll_fsmc.c ****   * @retval HAL status
 905:Drivers/STM32F4xx_HAL_Driver/Src/stm32f4xx_ll_fsmc.c ****   */
 906:Drivers/STM32F4xx_HAL_Driver/Src/stm32f4xx_ll_fsmc.c **** HAL_StatusTypeDef FSMC_PCCARD_AttributeSpace_Timing_Init(FSMC_PCCARD_TypeDef *Device, FSMC_NAND_PCC
 907:Drivers/STM32F4xx_HAL_Driver/Src/stm32f4xx_ll_fsmc.c **** {
 1160              		.loc 1 907 1 is_stmt 1 view -0
 1161              		.cfi_startproc
 1162              		@ args = 0, pretend = 0, frame = 0
 1163              		@ frame_needed = 0, uses_anonymous_args = 0
 1164              		@ link register save eliminated.
 908:Drivers/STM32F4xx_HAL_Driver/Src/stm32f4xx_ll_fsmc.c ****   uint32_t tmpr = 0U;
 1165              		.loc 1 908 3 view .LVU390
 909:Drivers/STM32F4xx_HAL_Driver/Src/stm32f4xx_ll_fsmc.c **** 
 910:Drivers/STM32F4xx_HAL_Driver/Src/stm32f4xx_ll_fsmc.c ****   /* Check the parameters */  
 911:Drivers/STM32F4xx_HAL_Driver/Src/stm32f4xx_ll_fsmc.c ****   assert_param(IS_FSMC_SETUP_TIME(Timing->SetupTime));
 1166              		.loc 1 911 3 view .LVU391
 912:Drivers/STM32F4xx_HAL_Driver/Src/stm32f4xx_ll_fsmc.c ****   assert_param(IS_FSMC_WAIT_TIME(Timing->WaitSetupTime));
 1167              		.loc 1 912 3 view .LVU392
 913:Drivers/STM32F4xx_HAL_Driver/Src/stm32f4xx_ll_fsmc.c ****   assert_param(IS_FSMC_HOLD_TIME(Timing->HoldSetupTime));
 1168              		.loc 1 913 3 view .LVU393
 914:Drivers/STM32F4xx_HAL_Driver/Src/stm32f4xx_ll_fsmc.c ****   assert_param(IS_FSMC_HIZ_TIME(Timing->HiZSetupTime));
 1169              		.loc 1 914 3 view .LVU394
 915:Drivers/STM32F4xx_HAL_Driver/Src/stm32f4xx_ll_fsmc.c **** 
 916:Drivers/STM32F4xx_HAL_Driver/Src/stm32f4xx_ll_fsmc.c ****   /* Get PCCARD timing parameters */
 917:Drivers/STM32F4xx_HAL_Driver/Src/stm32f4xx_ll_fsmc.c ****   tmpr = Device->PATT4;
 1170              		.loc 1 917 3 view .LVU395
 1171              		.loc 1 917 8 is_stmt 0 view .LVU396
 1172 0000 C368     		ldr	r3, [r0, #12]
 1173              	.LVL89:
 918:Drivers/STM32F4xx_HAL_Driver/Src/stm32f4xx_ll_fsmc.c **** 
 919:Drivers/STM32F4xx_HAL_Driver/Src/stm32f4xx_ll_fsmc.c ****   /* Clear ATTSETx, ATTWAITx, ATTHOLDx and ATTHIZx bits */
 920:Drivers/STM32F4xx_HAL_Driver/Src/stm32f4xx_ll_fsmc.c ****   tmpr &= ((uint32_t)~(FSMC_PATT4_ATTSET4  | FSMC_PATT4_ATTWAIT4 | FSMC_PATT4_ATTHOLD4 | \
 1174              		.loc 1 920 3 is_stmt 1 view .LVU397
 921:Drivers/STM32F4xx_HAL_Driver/Src/stm32f4xx_ll_fsmc.c ****                        FSMC_PATT4_ATTHIZ4));
 922:Drivers/STM32F4xx_HAL_Driver/Src/stm32f4xx_ll_fsmc.c ****   
 923:Drivers/STM32F4xx_HAL_Driver/Src/stm32f4xx_ll_fsmc.c ****   /* Set PCCARD timing parameters */
 924:Drivers/STM32F4xx_HAL_Driver/Src/stm32f4xx_ll_fsmc.c ****   tmpr |= (uint32_t)(Timing->SetupTime                 |\
 1175              		.loc 1 924 3 view .LVU398
 1176              		.loc 1 924 28 is_stmt 0 view .LVU399
 1177 0002 0B68     		ldr	r3, [r1]
 925:Drivers/STM32F4xx_HAL_Driver/Src/stm32f4xx_ll_fsmc.c ****                    ((Timing->WaitSetupTime) << 8U)     |\
ARM GAS  /tmp/ccj7iy9k.s 			page 39


 1178              		.loc 1 925 28 view .LVU400
 1179 0004 4A68     		ldr	r2, [r1, #4]
 924:Drivers/STM32F4xx_HAL_Driver/Src/stm32f4xx_ll_fsmc.c ****                    ((Timing->WaitSetupTime) << 8U)     |\
 1180              		.loc 1 924 56 view .LVU401
 1181 0006 43EA0223 		orr	r3, r3, r2, lsl #8
 926:Drivers/STM32F4xx_HAL_Driver/Src/stm32f4xx_ll_fsmc.c ****                    ((Timing->HoldSetupTime) << 16U)    |\
 1182              		.loc 1 926 28 view .LVU402
 1183 000a 8A68     		ldr	r2, [r1, #8]
 925:Drivers/STM32F4xx_HAL_Driver/Src/stm32f4xx_ll_fsmc.c ****                    ((Timing->WaitSetupTime) << 8U)     |\
 1184              		.loc 1 925 56 view .LVU403
 1185 000c 43EA0243 		orr	r3, r3, r2, lsl #16
 927:Drivers/STM32F4xx_HAL_Driver/Src/stm32f4xx_ll_fsmc.c ****                    ((Timing->HiZSetupTime) << 24U));
 1186              		.loc 1 927 28 view .LVU404
 1187 0010 CA68     		ldr	r2, [r1, #12]
 926:Drivers/STM32F4xx_HAL_Driver/Src/stm32f4xx_ll_fsmc.c ****                    ((Timing->HoldSetupTime) << 16U)    |\
 1188              		.loc 1 926 56 view .LVU405
 1189 0012 43EA0263 		orr	r3, r3, r2, lsl #24
 1190              	.LVL90:
 928:Drivers/STM32F4xx_HAL_Driver/Src/stm32f4xx_ll_fsmc.c ****   Device->PATT4 = tmpr; 
 1191              		.loc 1 928 3 is_stmt 1 view .LVU406
 1192              		.loc 1 928 17 is_stmt 0 view .LVU407
 1193 0016 C360     		str	r3, [r0, #12]
 929:Drivers/STM32F4xx_HAL_Driver/Src/stm32f4xx_ll_fsmc.c ****                                         
 930:Drivers/STM32F4xx_HAL_Driver/Src/stm32f4xx_ll_fsmc.c ****   return HAL_OK;
 1194              		.loc 1 930 3 is_stmt 1 view .LVU408
 931:Drivers/STM32F4xx_HAL_Driver/Src/stm32f4xx_ll_fsmc.c **** }
 1195              		.loc 1 931 1 is_stmt 0 view .LVU409
 1196 0018 0020     		movs	r0, #0
 1197              	.LVL91:
 1198              		.loc 1 931 1 view .LVU410
 1199 001a 7047     		bx	lr
 1200              		.cfi_endproc
 1201              	.LFE145:
 1203              		.section	.text.FSMC_PCCARD_IOSpace_Timing_Init,"ax",%progbits
 1204              		.align	1
 1205              		.global	FSMC_PCCARD_IOSpace_Timing_Init
 1206              		.syntax unified
 1207              		.thumb
 1208              		.thumb_func
 1210              	FSMC_PCCARD_IOSpace_Timing_Init:
 1211              	.LVL92:
 1212              	.LFB146:
 932:Drivers/STM32F4xx_HAL_Driver/Src/stm32f4xx_ll_fsmc.c **** 
 933:Drivers/STM32F4xx_HAL_Driver/Src/stm32f4xx_ll_fsmc.c **** /**
 934:Drivers/STM32F4xx_HAL_Driver/Src/stm32f4xx_ll_fsmc.c ****   * @brief  Initializes the FSMC_PCCARD IO space Timing according to the specified
 935:Drivers/STM32F4xx_HAL_Driver/Src/stm32f4xx_ll_fsmc.c ****   *         parameters in the FSMC_NAND_PCC_TimingTypeDef
 936:Drivers/STM32F4xx_HAL_Driver/Src/stm32f4xx_ll_fsmc.c ****   * @param  Device Pointer to PCCARD device instance
 937:Drivers/STM32F4xx_HAL_Driver/Src/stm32f4xx_ll_fsmc.c ****   * @param  Timing Pointer to PCCARD timing structure  
 938:Drivers/STM32F4xx_HAL_Driver/Src/stm32f4xx_ll_fsmc.c ****   * @retval HAL status
 939:Drivers/STM32F4xx_HAL_Driver/Src/stm32f4xx_ll_fsmc.c ****   */
 940:Drivers/STM32F4xx_HAL_Driver/Src/stm32f4xx_ll_fsmc.c **** HAL_StatusTypeDef FSMC_PCCARD_IOSpace_Timing_Init(FSMC_PCCARD_TypeDef *Device, FSMC_NAND_PCC_Timing
 941:Drivers/STM32F4xx_HAL_Driver/Src/stm32f4xx_ll_fsmc.c **** {
 1213              		.loc 1 941 1 is_stmt 1 view -0
 1214              		.cfi_startproc
 1215              		@ args = 0, pretend = 0, frame = 0
 1216              		@ frame_needed = 0, uses_anonymous_args = 0
 1217              		@ link register save eliminated.
ARM GAS  /tmp/ccj7iy9k.s 			page 40


 942:Drivers/STM32F4xx_HAL_Driver/Src/stm32f4xx_ll_fsmc.c ****   uint32_t tmpr = 0U;
 1218              		.loc 1 942 3 view .LVU412
 943:Drivers/STM32F4xx_HAL_Driver/Src/stm32f4xx_ll_fsmc.c ****   
 944:Drivers/STM32F4xx_HAL_Driver/Src/stm32f4xx_ll_fsmc.c ****   /* Check the parameters */  
 945:Drivers/STM32F4xx_HAL_Driver/Src/stm32f4xx_ll_fsmc.c ****   assert_param(IS_FSMC_SETUP_TIME(Timing->SetupTime));
 1219              		.loc 1 945 3 view .LVU413
 946:Drivers/STM32F4xx_HAL_Driver/Src/stm32f4xx_ll_fsmc.c ****   assert_param(IS_FSMC_WAIT_TIME(Timing->WaitSetupTime));
 1220              		.loc 1 946 3 view .LVU414
 947:Drivers/STM32F4xx_HAL_Driver/Src/stm32f4xx_ll_fsmc.c ****   assert_param(IS_FSMC_HOLD_TIME(Timing->HoldSetupTime));
 1221              		.loc 1 947 3 view .LVU415
 948:Drivers/STM32F4xx_HAL_Driver/Src/stm32f4xx_ll_fsmc.c ****   assert_param(IS_FSMC_HIZ_TIME(Timing->HiZSetupTime));
 1222              		.loc 1 948 3 view .LVU416
 949:Drivers/STM32F4xx_HAL_Driver/Src/stm32f4xx_ll_fsmc.c **** 
 950:Drivers/STM32F4xx_HAL_Driver/Src/stm32f4xx_ll_fsmc.c ****   /* Get FSMC_PCCARD device timing parameters */
 951:Drivers/STM32F4xx_HAL_Driver/Src/stm32f4xx_ll_fsmc.c ****   tmpr = Device->PIO4;
 1223              		.loc 1 951 3 view .LVU417
 1224              		.loc 1 951 8 is_stmt 0 view .LVU418
 1225 0000 0369     		ldr	r3, [r0, #16]
 1226              	.LVL93:
 952:Drivers/STM32F4xx_HAL_Driver/Src/stm32f4xx_ll_fsmc.c **** 
 953:Drivers/STM32F4xx_HAL_Driver/Src/stm32f4xx_ll_fsmc.c ****   /* Clear IOSET4, IOWAIT4, IOHOLD4 and IOHIZ4 bits */
 954:Drivers/STM32F4xx_HAL_Driver/Src/stm32f4xx_ll_fsmc.c ****   tmpr &= ((uint32_t)~(FSMC_PIO4_IOSET4  | FSMC_PIO4_IOWAIT4 | FSMC_PIO4_IOHOLD4 | \
 1227              		.loc 1 954 3 is_stmt 1 view .LVU419
 955:Drivers/STM32F4xx_HAL_Driver/Src/stm32f4xx_ll_fsmc.c ****                        FSMC_PIO4_IOHIZ4));
 956:Drivers/STM32F4xx_HAL_Driver/Src/stm32f4xx_ll_fsmc.c ****   
 957:Drivers/STM32F4xx_HAL_Driver/Src/stm32f4xx_ll_fsmc.c ****   /* Set FSMC_PCCARD device timing parameters */
 958:Drivers/STM32F4xx_HAL_Driver/Src/stm32f4xx_ll_fsmc.c ****   tmpr |= (uint32_t)(Timing->SetupTime                   |\
 1228              		.loc 1 958 3 view .LVU420
 1229              		.loc 1 958 28 is_stmt 0 view .LVU421
 1230 0002 0B68     		ldr	r3, [r1]
 959:Drivers/STM32F4xx_HAL_Driver/Src/stm32f4xx_ll_fsmc.c ****                      ((Timing->WaitSetupTime) << 8U)     |\
 1231              		.loc 1 959 30 view .LVU422
 1232 0004 4A68     		ldr	r2, [r1, #4]
 958:Drivers/STM32F4xx_HAL_Driver/Src/stm32f4xx_ll_fsmc.c ****                      ((Timing->WaitSetupTime) << 8U)     |\
 1233              		.loc 1 958 58 view .LVU423
 1234 0006 43EA0223 		orr	r3, r3, r2, lsl #8
 960:Drivers/STM32F4xx_HAL_Driver/Src/stm32f4xx_ll_fsmc.c ****                      ((Timing->HoldSetupTime) << 16U)    |\
 1235              		.loc 1 960 30 view .LVU424
 1236 000a 8A68     		ldr	r2, [r1, #8]
 959:Drivers/STM32F4xx_HAL_Driver/Src/stm32f4xx_ll_fsmc.c ****                      ((Timing->WaitSetupTime) << 8U)     |\
 1237              		.loc 1 959 58 view .LVU425
 1238 000c 43EA0243 		orr	r3, r3, r2, lsl #16
 961:Drivers/STM32F4xx_HAL_Driver/Src/stm32f4xx_ll_fsmc.c ****                      ((Timing->HiZSetupTime) << 24U));   
 1239              		.loc 1 961 30 view .LVU426
 1240 0010 CA68     		ldr	r2, [r1, #12]
 960:Drivers/STM32F4xx_HAL_Driver/Src/stm32f4xx_ll_fsmc.c ****                      ((Timing->HoldSetupTime) << 16U)    |\
 1241              		.loc 1 960 58 view .LVU427
 1242 0012 43EA0263 		orr	r3, r3, r2, lsl #24
 1243              	.LVL94:
 962:Drivers/STM32F4xx_HAL_Driver/Src/stm32f4xx_ll_fsmc.c ****   
 963:Drivers/STM32F4xx_HAL_Driver/Src/stm32f4xx_ll_fsmc.c ****   Device->PIO4 = tmpr;
 1244              		.loc 1 963 3 is_stmt 1 view .LVU428
 1245              		.loc 1 963 16 is_stmt 0 view .LVU429
 1246 0016 0361     		str	r3, [r0, #16]
 964:Drivers/STM32F4xx_HAL_Driver/Src/stm32f4xx_ll_fsmc.c ****   
 965:Drivers/STM32F4xx_HAL_Driver/Src/stm32f4xx_ll_fsmc.c ****   return HAL_OK;
 1247              		.loc 1 965 3 is_stmt 1 view .LVU430
ARM GAS  /tmp/ccj7iy9k.s 			page 41


 966:Drivers/STM32F4xx_HAL_Driver/Src/stm32f4xx_ll_fsmc.c **** }
 1248              		.loc 1 966 1 is_stmt 0 view .LVU431
 1249 0018 0020     		movs	r0, #0
 1250              	.LVL95:
 1251              		.loc 1 966 1 view .LVU432
 1252 001a 7047     		bx	lr
 1253              		.cfi_endproc
 1254              	.LFE146:
 1256              		.section	.text.FSMC_PCCARD_DeInit,"ax",%progbits
 1257              		.align	1
 1258              		.global	FSMC_PCCARD_DeInit
 1259              		.syntax unified
 1260              		.thumb
 1261              		.thumb_func
 1263              	FSMC_PCCARD_DeInit:
 1264              	.LVL96:
 1265              	.LFB147:
 967:Drivers/STM32F4xx_HAL_Driver/Src/stm32f4xx_ll_fsmc.c ****                                            
 968:Drivers/STM32F4xx_HAL_Driver/Src/stm32f4xx_ll_fsmc.c **** /**
 969:Drivers/STM32F4xx_HAL_Driver/Src/stm32f4xx_ll_fsmc.c ****   * @brief  DeInitializes the FSMC_PCCARD device 
 970:Drivers/STM32F4xx_HAL_Driver/Src/stm32f4xx_ll_fsmc.c ****   * @param  Device Pointer to PCCARD device instance
 971:Drivers/STM32F4xx_HAL_Driver/Src/stm32f4xx_ll_fsmc.c ****   * @retval HAL status
 972:Drivers/STM32F4xx_HAL_Driver/Src/stm32f4xx_ll_fsmc.c ****   */
 973:Drivers/STM32F4xx_HAL_Driver/Src/stm32f4xx_ll_fsmc.c **** HAL_StatusTypeDef FSMC_PCCARD_DeInit(FSMC_PCCARD_TypeDef *Device)
 974:Drivers/STM32F4xx_HAL_Driver/Src/stm32f4xx_ll_fsmc.c **** {
 1266              		.loc 1 974 1 is_stmt 1 view -0
 1267              		.cfi_startproc
 1268              		@ args = 0, pretend = 0, frame = 0
 1269              		@ frame_needed = 0, uses_anonymous_args = 0
 1270              		@ link register save eliminated.
 1271              		.loc 1 974 1 is_stmt 0 view .LVU434
 1272 0000 0346     		mov	r3, r0
 975:Drivers/STM32F4xx_HAL_Driver/Src/stm32f4xx_ll_fsmc.c ****   /* Disable the FSMC_PCCARD device */
 976:Drivers/STM32F4xx_HAL_Driver/Src/stm32f4xx_ll_fsmc.c ****   __FSMC_PCCARD_DISABLE(Device);
 1273              		.loc 1 976 3 is_stmt 1 view .LVU435
 1274 0002 0268     		ldr	r2, [r0]
 1275 0004 22F00402 		bic	r2, r2, #4
 1276 0008 0260     		str	r2, [r0]
 977:Drivers/STM32F4xx_HAL_Driver/Src/stm32f4xx_ll_fsmc.c ****   
 978:Drivers/STM32F4xx_HAL_Driver/Src/stm32f4xx_ll_fsmc.c ****   /* De-initialize the FSMC_PCCARD device */
 979:Drivers/STM32F4xx_HAL_Driver/Src/stm32f4xx_ll_fsmc.c ****   Device->PCR4    = 0x00000018U; 
 1277              		.loc 1 979 3 view .LVU436
 1278              		.loc 1 979 19 is_stmt 0 view .LVU437
 1279 000a 1822     		movs	r2, #24
 1280 000c 0260     		str	r2, [r0]
 980:Drivers/STM32F4xx_HAL_Driver/Src/stm32f4xx_ll_fsmc.c ****   Device->SR4     = 0x00000000U;	
 1281              		.loc 1 980 3 is_stmt 1 view .LVU438
 1282              		.loc 1 980 19 is_stmt 0 view .LVU439
 1283 000e 0020     		movs	r0, #0
 1284              	.LVL97:
 1285              		.loc 1 980 19 view .LVU440
 1286 0010 5860     		str	r0, [r3, #4]
 981:Drivers/STM32F4xx_HAL_Driver/Src/stm32f4xx_ll_fsmc.c ****   Device->PMEM4   = 0xFCFCFCFCU;
 1287              		.loc 1 981 3 is_stmt 1 view .LVU441
 1288              		.loc 1 981 19 is_stmt 0 view .LVU442
 1289 0012 4FF0FC32 		mov	r2, #-50529028
 1290 0016 9A60     		str	r2, [r3, #8]
ARM GAS  /tmp/ccj7iy9k.s 			page 42


 982:Drivers/STM32F4xx_HAL_Driver/Src/stm32f4xx_ll_fsmc.c ****   Device->PATT4   = 0xFCFCFCFCU;
 1291              		.loc 1 982 3 is_stmt 1 view .LVU443
 1292              		.loc 1 982 19 is_stmt 0 view .LVU444
 1293 0018 DA60     		str	r2, [r3, #12]
 983:Drivers/STM32F4xx_HAL_Driver/Src/stm32f4xx_ll_fsmc.c ****   Device->PIO4    = 0xFCFCFCFCU;
 1294              		.loc 1 983 3 is_stmt 1 view .LVU445
 1295              		.loc 1 983 19 is_stmt 0 view .LVU446
 1296 001a 1A61     		str	r2, [r3, #16]
 984:Drivers/STM32F4xx_HAL_Driver/Src/stm32f4xx_ll_fsmc.c ****   
 985:Drivers/STM32F4xx_HAL_Driver/Src/stm32f4xx_ll_fsmc.c ****   return HAL_OK;
 1297              		.loc 1 985 3 is_stmt 1 view .LVU447
 986:Drivers/STM32F4xx_HAL_Driver/Src/stm32f4xx_ll_fsmc.c **** }
 1298              		.loc 1 986 1 is_stmt 0 view .LVU448
 1299 001c 7047     		bx	lr
 1300              		.cfi_endproc
 1301              	.LFE147:
 1303              		.text
 1304              	.Letext0:
 1305              		.file 2 "/home/akinya/gcc-arm-none-eabi/arm-none-eabi/include/machine/_default_types.h"
 1306              		.file 3 "/home/akinya/gcc-arm-none-eabi/arm-none-eabi/include/sys/_stdint.h"
 1307              		.file 4 "Drivers/CMSIS/Device/ST/STM32F4xx/Include/stm32f407xx.h"
 1308              		.file 5 "Drivers/CMSIS/Device/ST/STM32F4xx/Include/stm32f4xx.h"
 1309              		.file 6 "Drivers/STM32F4xx_HAL_Driver/Inc/stm32f4xx_hal_def.h"
 1310              		.file 7 "Drivers/STM32F4xx_HAL_Driver/Inc/stm32f4xx_ll_fsmc.h"
 1311              		.file 8 "Drivers/STM32F4xx_HAL_Driver/Inc/stm32f4xx_hal.h"
ARM GAS  /tmp/ccj7iy9k.s 			page 43

