ARM GAS  /tmp/ccE1vrH2.s 			page 1


   1              		.cpu cortex-m4
   2              		.arch armv7e-m
   3              		.fpu fpv4-sp-d16
   4              		.eabi_attribute 27, 1
   5              		.eabi_attribute 28, 1
   6              		.eabi_attribute 20, 1
   7              		.eabi_attribute 21, 1
   8              		.eabi_attribute 23, 3
   9              		.eabi_attribute 24, 1
  10              		.eabi_attribute 25, 1
  11              		.eabi_attribute 26, 1
  12              		.eabi_attribute 30, 1
  13              		.eabi_attribute 34, 1
  14              		.eabi_attribute 18, 4
  15              		.file	"fsmc.c"
  16              		.text
  17              	.Ltext0:
  18              		.cfi_sections	.debug_frame
  19              		.section	.text.HAL_FSMC_MspInit,"ax",%progbits
  20              		.align	1
  21              		.syntax unified
  22              		.thumb
  23              		.thumb_func
  25              	HAL_FSMC_MspInit:
  26              	.LFB161:
  27              		.file 1 "Core/Src/fsmc.c"
   1:Core/Src/fsmc.c **** /**
   2:Core/Src/fsmc.c ****   ******************************************************************************
   3:Core/Src/fsmc.c ****   * File Name          : FSMC.c
   4:Core/Src/fsmc.c ****   * Description        : This file provides code for the configuration
   5:Core/Src/fsmc.c ****   *                      of the FSMC peripheral.
   6:Core/Src/fsmc.c ****   ******************************************************************************
   7:Core/Src/fsmc.c ****   * @attention
   8:Core/Src/fsmc.c ****   *
   9:Core/Src/fsmc.c ****   * <h2><center>&copy; Copyright (c) 2021 STMicroelectronics.
  10:Core/Src/fsmc.c ****   * All rights reserved.</center></h2>
  11:Core/Src/fsmc.c ****   *
  12:Core/Src/fsmc.c ****   * This software component is licensed by ST under Ultimate Liberty license
  13:Core/Src/fsmc.c ****   * SLA0044, the "License"; You may not use this file except in compliance with
  14:Core/Src/fsmc.c ****   * the License. You may obtain a copy of the License at:
  15:Core/Src/fsmc.c ****   *                             www.st.com/SLA0044
  16:Core/Src/fsmc.c ****   *
  17:Core/Src/fsmc.c ****   ******************************************************************************
  18:Core/Src/fsmc.c ****   */
  19:Core/Src/fsmc.c **** 
  20:Core/Src/fsmc.c **** /* Includes ------------------------------------------------------------------*/
  21:Core/Src/fsmc.c **** #include "fsmc.h"
  22:Core/Src/fsmc.c **** 
  23:Core/Src/fsmc.c **** /* USER CODE BEGIN 0 */
  24:Core/Src/fsmc.c **** 
  25:Core/Src/fsmc.c **** #include <stdio.h>
  26:Core/Src/fsmc.c **** SRAM_HandleTypeDef TFTSRAM_Handler;    //SRAMå¥æŸ„(ç”¨äºæ§åˆ¶LCD)
  27:Core/Src/fsmc.c **** 
  28:Core/Src/fsmc.c **** //LCDçš„ç”»ç¬”é¢œè‰²å’ŒèƒŒæ™¯è‰²
  29:Core/Src/fsmc.c **** uint32_t POINT_COLOR=0xFF000000;		//ç”»ç¬”é¢œè‰²
  30:Core/Src/fsmc.c **** uint32_t BACK_COLOR =0xFFFFFFFF;  	//èƒŒæ™¯è‰²
  31:Core/Src/fsmc.c **** _lcd_dev lcddev;
ARM GAS  /tmp/ccE1vrH2.s 			page 2


  32:Core/Src/fsmc.c **** //regval:å¯„å­˜å™¨å€¼
  33:Core/Src/fsmc.c **** void LCD_WR_REG(__IO uint16_t regval)
  34:Core/Src/fsmc.c **** {
  35:Core/Src/fsmc.c ****   regval=regval;		//ä½¿ç”¨-O2ä¼˜åŒ–çš„æ—¶å€™,å¿…é¡»æ’å…¥çš„å»¶æ—¶
  36:Core/Src/fsmc.c ****   LCD->LCD_REG=regval;//å†™å…¥è¦å†™çš„å¯„å­˜å™¨åºå·
  37:Core/Src/fsmc.c **** }
  38:Core/Src/fsmc.c **** //å†™LCDæ•°æ®
  39:Core/Src/fsmc.c **** //data:è¦å†™å…¥çš„å€¼
  40:Core/Src/fsmc.c **** void LCD_WR_DATA(__IO uint16_t data)
  41:Core/Src/fsmc.c **** {
  42:Core/Src/fsmc.c ****   data=data;			//ä½¿ç”¨-O2ä¼˜åŒ–çš„æ—¶å€™,å¿…é¡»æ’å…¥çš„å»¶æ—¶
  43:Core/Src/fsmc.c ****   LCD->LCD_RAM=data;
  44:Core/Src/fsmc.c **** }
  45:Core/Src/fsmc.c **** //è¯»LCDæ•°æ®
  46:Core/Src/fsmc.c **** //è¿”å›å€¼:è¯»åˆ°çš„å€¼
  47:Core/Src/fsmc.c **** uint16_t LCD_RD_DATA(void)
  48:Core/Src/fsmc.c **** {
  49:Core/Src/fsmc.c ****   __IO uint16_t ram;			//é˜²æ­¢è¢«ä¼˜åŒ–
  50:Core/Src/fsmc.c ****   ram=LCD->LCD_RAM;
  51:Core/Src/fsmc.c ****   return ram;
  52:Core/Src/fsmc.c **** }
  53:Core/Src/fsmc.c **** //å†™å¯„å­˜å™¨
  54:Core/Src/fsmc.c **** //LCD_Reg:å¯„å­˜å™¨åœ°å€
  55:Core/Src/fsmc.c **** //LCD_RegValue:è¦å†™å…¥çš„æ•°æ®
  56:Core/Src/fsmc.c **** void LCD_WriteReg(uint16_t LCD_Reg,uint16_t LCD_RegValue)
  57:Core/Src/fsmc.c **** {
  58:Core/Src/fsmc.c ****   LCD->LCD_REG = LCD_Reg;		//å†™å…¥è¦å†™çš„å¯„å­˜å™¨åºå·
  59:Core/Src/fsmc.c ****   LCD->LCD_RAM = LCD_RegValue;//å†™å…¥æ•°æ®
  60:Core/Src/fsmc.c **** }
  61:Core/Src/fsmc.c **** //è¯»å¯„å­˜å™¨
  62:Core/Src/fsmc.c **** //LCD_Reg:å¯„å­˜å™¨åœ°å€
  63:Core/Src/fsmc.c **** //è¿”å›å€¼:è¯»åˆ°çš„æ•°æ®
  64:Core/Src/fsmc.c **** uint16_t LCD_ReadReg(uint16_t LCD_Reg)
  65:Core/Src/fsmc.c **** {
  66:Core/Src/fsmc.c ****   LCD_WR_REG(LCD_Reg);		//å†™å…¥è¦è¯»çš„å¯„å­˜å™¨åºå·
  67:Core/Src/fsmc.c ****   //HAL_Delay(0.005);
  68:Core/Src/fsmc.c ****   return LCD_RD_DATA();		//è¿”å›è¯»åˆ°çš„å€¼
  69:Core/Src/fsmc.c **** }
  70:Core/Src/fsmc.c **** //å¼€å§‹å†™GRAM
  71:Core/Src/fsmc.c **** void LCD_WriteRAM_Prepare(void)
  72:Core/Src/fsmc.c **** {
  73:Core/Src/fsmc.c ****   LCD->LCD_REG=lcddev.wramcmd;
  74:Core/Src/fsmc.c **** }
  75:Core/Src/fsmc.c **** //LCDå†™GRAM
  76:Core/Src/fsmc.c **** //RGB_Code:é¢œè‰²å€¼
  77:Core/Src/fsmc.c **** void LCD_WriteRAM(uint16_t RGB_Code)
  78:Core/Src/fsmc.c **** {
  79:Core/Src/fsmc.c ****   LCD->LCD_RAM = RGB_Code;//å†™åå…­ä½GRAM
  80:Core/Src/fsmc.c **** }
  81:Core/Src/fsmc.c **** //ä»ILI93xxè¯»å‡ºçš„æ•°æ®ä¸ºGBRæ ¼å¼ï¼Œè€Œæˆ‘ä»¬å†™å…¥çš„æ—¶å€™ä¸ºRGBæ ¼å¼ã€‚
  82:Core/Src/fsmc.c **** //é€šè¿‡è¯¥å‡½æ•°è½¬æ¢
  83:Core/Src/fsmc.c **** //c:GBRæ ¼å¼çš„é¢œè‰²å€¼
  84:Core/Src/fsmc.c **** //è¿”å›å€¼ï¼šRGBæ ¼å¼çš„é¢œè‰²å€¼
  85:Core/Src/fsmc.c **** uint16_t LCD_BGR2RGB(uint16_t c)
  86:Core/Src/fsmc.c **** {
  87:Core/Src/fsmc.c ****   uint16_t  r,g,b,rgb;
  88:Core/Src/fsmc.c ****   b=(c>>0)&0x1f;
ARM GAS  /tmp/ccE1vrH2.s 			page 3


  89:Core/Src/fsmc.c ****   g=(c>>5)&0x3f;
  90:Core/Src/fsmc.c ****   r=(c>>11)&0x1f;
  91:Core/Src/fsmc.c ****   rgb=(b<<11)+(g<<5)+(r<<0);
  92:Core/Src/fsmc.c ****   return(rgb);
  93:Core/Src/fsmc.c **** }
  94:Core/Src/fsmc.c **** //å½“mdk -O1æ—¶é—´ä¼˜åŒ–æ—¶éœ€è¦è®¾ç½®
  95:Core/Src/fsmc.c **** //å»¶æ—¶i
  96:Core/Src/fsmc.c **** void opt_delay(uint8_t i)
  97:Core/Src/fsmc.c **** {
  98:Core/Src/fsmc.c ****   while(i--);
  99:Core/Src/fsmc.c **** }
 100:Core/Src/fsmc.c **** //è¯»å–ä¸ªæŸç‚¹çš„é¢œè‰²å€¼
 101:Core/Src/fsmc.c **** //x,y:åæ ‡
 102:Core/Src/fsmc.c **** //è¿”å›å€¼:æ­¤ç‚¹çš„é¢œè‰²
 103:Core/Src/fsmc.c **** uint32_t LCD_ReadPoint(uint16_t x,uint16_t y)
 104:Core/Src/fsmc.c **** {
 105:Core/Src/fsmc.c ****   uint16_t r=0,g=0,b=0;
 106:Core/Src/fsmc.c ****   if(x>=lcddev.width||y>=lcddev.height)return 0;	//è¶…è¿‡äº†èŒƒå›´,ç›´æ¥è¿”å›
 107:Core/Src/fsmc.c ****   LCD_SetCursor(x,y);
 108:Core/Src/fsmc.c ****   if(lcddev.id==0X9341||lcddev.id==0X5310||lcddev.id==0X1963)LCD_WR_REG(0X2E);//9341/3510/1963 å‘é
 109:Core/Src/fsmc.c ****   else if(lcddev.id==0X5510)LCD_WR_REG(0X2E00);	//5510 å‘é€è¯»GRAMæŒ‡ä»¤
 110:Core/Src/fsmc.c ****   r=LCD_RD_DATA();								//dummy Read
 111:Core/Src/fsmc.c ****   if(lcddev.id==0X1963)return r;					//1963ç›´æ¥è¯»å°±å¯ä»¥
 112:Core/Src/fsmc.c ****   opt_delay(2);
 113:Core/Src/fsmc.c ****   r=LCD_RD_DATA();  		  						//å®é™…åæ ‡é¢œè‰²
 114:Core/Src/fsmc.c ****   //9341/NT35310/NT35510è¦åˆ†2æ¬¡è¯»å‡º
 115:Core/Src/fsmc.c ****   opt_delay(2);
 116:Core/Src/fsmc.c ****   b=LCD_RD_DATA();
 117:Core/Src/fsmc.c ****   g=r&0XFF;		//å¯¹äº9341/5310/5510,ç¬¬ä¸€æ¬¡è¯»å–çš„æ˜¯RGçš„å€¼,Råœ¨å‰,Gåœ¨å,å„å 8ä½
 118:Core/Src/fsmc.c ****   g<<=8;
 119:Core/Src/fsmc.c ****   return (((r>>11)<<11)|((g>>10)<<5)|(b>>11));	//ILI9341/NT35310/NT35510éœ€è¦å…¬å¼è½¬æ¢ä¸€ä¸‹
 120:Core/Src/fsmc.c **** }
 121:Core/Src/fsmc.c **** //LCDå¼€å¯æ˜¾ç¤º
 122:Core/Src/fsmc.c **** void LCD_DisplayOn(void)
 123:Core/Src/fsmc.c **** {
 124:Core/Src/fsmc.c ****   if(lcddev.id==0X9341||lcddev.id==0X5310||lcddev.id==0X1963)LCD_WR_REG(0X29);	//å¼€å¯æ˜¾ç¤º
 125:Core/Src/fsmc.c ****   else if(lcddev.id==0X5510)LCD_WR_REG(0X2900);	//å¼€å¯æ˜¾ç¤º
 126:Core/Src/fsmc.c **** }
 127:Core/Src/fsmc.c **** //LCDå…³é—­æ˜¾ç¤º
 128:Core/Src/fsmc.c **** void LCD_DisplayOff(void)
 129:Core/Src/fsmc.c **** {
 130:Core/Src/fsmc.c ****   if(lcddev.id==0X9341||lcddev.id==0X5310||lcddev.id==0X1963)LCD_WR_REG(0X28);	//å…³é—­æ˜¾ç¤º
 131:Core/Src/fsmc.c ****   else if(lcddev.id==0X5510)LCD_WR_REG(0X2800);	//å…³é—­æ˜¾ç¤º
 132:Core/Src/fsmc.c **** }
 133:Core/Src/fsmc.c **** //è®¾ç½®å…‰æ ‡ä½ç½®(å¯¹RGBå±æ— æ•ˆ)
 134:Core/Src/fsmc.c **** //Xpos:æ¨ªåæ ‡
 135:Core/Src/fsmc.c **** //Ypos:çºµåæ ‡
 136:Core/Src/fsmc.c **** void LCD_SetCursor(uint16_t Xpos, uint16_t Ypos)
 137:Core/Src/fsmc.c **** {
 138:Core/Src/fsmc.c ****   if(lcddev.id==0X9341||lcddev.id==0X5310)
 139:Core/Src/fsmc.c ****   {
 140:Core/Src/fsmc.c ****     LCD_WR_REG(lcddev.setxcmd);
 141:Core/Src/fsmc.c ****     LCD_WR_DATA(Xpos>>8);LCD_WR_DATA(Xpos&0XFF);
 142:Core/Src/fsmc.c ****     LCD_WR_REG(lcddev.setycmd);
 143:Core/Src/fsmc.c ****     LCD_WR_DATA(Ypos>>8);LCD_WR_DATA(Ypos&0XFF);
 144:Core/Src/fsmc.c ****   }else if(lcddev.id==0X1963)
 145:Core/Src/fsmc.c ****   {
ARM GAS  /tmp/ccE1vrH2.s 			page 4


 146:Core/Src/fsmc.c ****     if(lcddev.dir==0)//xåæ ‡éœ€è¦å˜æ¢
 147:Core/Src/fsmc.c ****     {
 148:Core/Src/fsmc.c ****       Xpos=lcddev.width-1-Xpos;
 149:Core/Src/fsmc.c ****       LCD_WR_REG(lcddev.setxcmd);
 150:Core/Src/fsmc.c ****       LCD_WR_DATA(0);LCD_WR_DATA(0);
 151:Core/Src/fsmc.c ****       LCD_WR_DATA(Xpos>>8);LCD_WR_DATA(Xpos&0XFF);
 152:Core/Src/fsmc.c ****     }else
 153:Core/Src/fsmc.c ****     {
 154:Core/Src/fsmc.c ****       LCD_WR_REG(lcddev.setxcmd);
 155:Core/Src/fsmc.c ****       LCD_WR_DATA(Xpos>>8);LCD_WR_DATA(Xpos&0XFF);
 156:Core/Src/fsmc.c ****       LCD_WR_DATA((lcddev.width-1)>>8);LCD_WR_DATA((lcddev.width-1)&0XFF);
 157:Core/Src/fsmc.c ****     }
 158:Core/Src/fsmc.c ****     LCD_WR_REG(lcddev.setycmd);
 159:Core/Src/fsmc.c ****     LCD_WR_DATA(Ypos>>8);LCD_WR_DATA(Ypos&0XFF);
 160:Core/Src/fsmc.c ****     LCD_WR_DATA((lcddev.height-1)>>8);LCD_WR_DATA((lcddev.height-1)&0XFF);
 161:Core/Src/fsmc.c **** 
 162:Core/Src/fsmc.c ****   }else if(lcddev.id==0X5510)
 163:Core/Src/fsmc.c ****   {
 164:Core/Src/fsmc.c ****     LCD_WR_REG(lcddev.setxcmd);LCD_WR_DATA(Xpos>>8);
 165:Core/Src/fsmc.c ****     LCD_WR_REG(lcddev.setxcmd+1);LCD_WR_DATA(Xpos&0XFF);
 166:Core/Src/fsmc.c ****     LCD_WR_REG(lcddev.setycmd);LCD_WR_DATA(Ypos>>8);
 167:Core/Src/fsmc.c ****     LCD_WR_REG(lcddev.setycmd+1);LCD_WR_DATA(Ypos&0XFF);
 168:Core/Src/fsmc.c ****   }
 169:Core/Src/fsmc.c **** }
 170:Core/Src/fsmc.c **** //è®¾ç½®LCDçš„è‡ªåŠ¨æ‰«ææ–¹å‘(å¯¹RGBå±æ— æ•ˆ)
 171:Core/Src/fsmc.c **** //æ³¨æ„:å…¶ä»–å‡½æ•°å¯èƒ½ä¼šå—åˆ°æ­¤å‡½æ•°è®¾ç½®çš„å½±å“(å°¤å…¶æ˜¯9341),
 172:Core/Src/fsmc.c **** //æ‰€ä»¥,ä¸€èˆ¬è®¾ç½®ä¸ºL2R_U2Då³å¯,å¦‚æœè®¾ç½®ä¸ºå…¶ä»–æ‰«ææ–¹å¼,å¯èƒ½å¯¼è‡´æ˜¾ç¤ºä¸æ­£å¸¸
 173:Core/Src/fsmc.c **** //dir:0~7,ä»£è¡¨8ä¸ªæ–¹å‘(å…·ä½“å®šä¹‰è§lcd.h)
 174:Core/Src/fsmc.c **** //9341/5310/5510/1963ç­‰ICå·²ç»å®é™…æµ‹è¯•
 175:Core/Src/fsmc.c **** void LCD_Scan_Dir(uint8_t dir)
 176:Core/Src/fsmc.c **** {
 177:Core/Src/fsmc.c ****   uint16_t regval=0;
 178:Core/Src/fsmc.c ****   uint16_t dirreg=0;
 179:Core/Src/fsmc.c ****   uint16_t temp;
 180:Core/Src/fsmc.c ****   if((lcddev.dir==1&&lcddev.id!=0X1963)||(lcddev.dir==0&&lcddev.id==0X1963))//æ¨ªå±æ—¶ï¼Œ??1963ä¸
 181:Core/Src/fsmc.c ****   {
 182:Core/Src/fsmc.c ****     switch(dir)//æ–¹å‘è½¬æ¢
 183:Core/Src/fsmc.c ****     {
 184:Core/Src/fsmc.c ****       case 0:dir=6;break;
 185:Core/Src/fsmc.c ****       case 1:dir=7;break;
 186:Core/Src/fsmc.c ****       case 2:dir=4;break;
 187:Core/Src/fsmc.c ****       case 3:dir=5;break;
 188:Core/Src/fsmc.c ****       case 4:dir=1;break;
 189:Core/Src/fsmc.c ****       case 5:dir=0;break;
 190:Core/Src/fsmc.c ****       case 6:dir=3;break;
 191:Core/Src/fsmc.c ****       case 7:dir=2;break;
 192:Core/Src/fsmc.c ****     }
 193:Core/Src/fsmc.c ****   }
 194:Core/Src/fsmc.c ****   if(lcddev.id==0x9341||lcddev.id==0X5310||lcddev.id==0X5510||lcddev.id==0X1963)//9341/5310/5510/19
 195:Core/Src/fsmc.c ****   {
 196:Core/Src/fsmc.c ****     switch(dir)
 197:Core/Src/fsmc.c ****     {
 198:Core/Src/fsmc.c ****       case L2R_U2D://ä»å·¦åˆ°å³,ä»ä¸Šåˆ°ä¸‹
 199:Core/Src/fsmc.c ****         regval|=(0<<7)|(0<<6)|(0<<5);
 200:Core/Src/fsmc.c ****         break;
 201:Core/Src/fsmc.c ****       case L2R_D2U://ä»å·¦åˆ°å³,ä»ä¸‹åˆ°ä¸Š
 202:Core/Src/fsmc.c ****         regval|=(1<<7)|(0<<6)|(0<<5);
ARM GAS  /tmp/ccE1vrH2.s 			page 5


 203:Core/Src/fsmc.c ****         break;
 204:Core/Src/fsmc.c ****       case R2L_U2D://ä»å³åˆ°å·¦,ä»ä¸Šåˆ°ä¸‹
 205:Core/Src/fsmc.c ****         regval|=(0<<7)|(1<<6)|(0<<5);
 206:Core/Src/fsmc.c ****         break;
 207:Core/Src/fsmc.c ****       case R2L_D2U://ä»å³åˆ°å·¦,ä»ä¸‹åˆ°ä¸Š
 208:Core/Src/fsmc.c ****         regval|=(1<<7)|(1<<6)|(0<<5);
 209:Core/Src/fsmc.c ****         break;
 210:Core/Src/fsmc.c ****       case U2D_L2R://ä»ä¸Šåˆ°ä¸‹,ä»å·¦åˆ°å³
 211:Core/Src/fsmc.c ****         regval|=(0<<7)|(0<<6)|(1<<5);
 212:Core/Src/fsmc.c ****         break;
 213:Core/Src/fsmc.c ****       case U2D_R2L://ä»ä¸Šåˆ°ä¸‹,ä»å³åˆ°å·¦
 214:Core/Src/fsmc.c ****         regval|=(0<<7)|(1<<6)|(1<<5);
 215:Core/Src/fsmc.c ****         break;
 216:Core/Src/fsmc.c ****       case D2U_L2R://ä»ä¸‹åˆ°ä¸Š,ä»å·¦åˆ°å³
 217:Core/Src/fsmc.c ****         regval|=(1<<7)|(0<<6)|(1<<5);
 218:Core/Src/fsmc.c ****         break;
 219:Core/Src/fsmc.c ****       case D2U_R2L://ä»ä¸‹åˆ°ä¸Š,ä»å³åˆ°å·¦
 220:Core/Src/fsmc.c ****         regval|=(1<<7)|(1<<6)|(1<<5);
 221:Core/Src/fsmc.c ****         break;
 222:Core/Src/fsmc.c ****     }
 223:Core/Src/fsmc.c ****     if(lcddev.id==0X5510)dirreg=0X3600;
 224:Core/Src/fsmc.c ****     else dirreg=0X36;
 225:Core/Src/fsmc.c ****     if((lcddev.id!=0X5310)&&(lcddev.id!=0X5510)&&(lcddev.id!=0X1963))regval|=0X08;//5310/5510/1963ä
 226:Core/Src/fsmc.c ****     LCD_WriteReg(dirreg,regval);
 227:Core/Src/fsmc.c ****     if(lcddev.id!=0X1963)//1963ä¸åšåæ ‡å¤„ç†
 228:Core/Src/fsmc.c ****     {
 229:Core/Src/fsmc.c ****       if(regval&0X20)
 230:Core/Src/fsmc.c ****       {
 231:Core/Src/fsmc.c ****         if(lcddev.width<lcddev.height)//äº¤æ¢X,Y
 232:Core/Src/fsmc.c ****         {
 233:Core/Src/fsmc.c ****           temp=lcddev.width;
 234:Core/Src/fsmc.c ****           lcddev.width=lcddev.height;
 235:Core/Src/fsmc.c ****           lcddev.height=temp;
 236:Core/Src/fsmc.c ****         }
 237:Core/Src/fsmc.c ****       }else
 238:Core/Src/fsmc.c ****       {
 239:Core/Src/fsmc.c ****         if(lcddev.width>lcddev.height)//äº¤æ¢X,Y
 240:Core/Src/fsmc.c ****         {
 241:Core/Src/fsmc.c ****           temp=lcddev.width;
 242:Core/Src/fsmc.c ****           lcddev.width=lcddev.height;
 243:Core/Src/fsmc.c ****           lcddev.height=temp;
 244:Core/Src/fsmc.c ****         }
 245:Core/Src/fsmc.c ****       }
 246:Core/Src/fsmc.c ****     }
 247:Core/Src/fsmc.c ****     if(lcddev.id==0X5510)
 248:Core/Src/fsmc.c ****     {
 249:Core/Src/fsmc.c ****       LCD_WR_REG(lcddev.setxcmd);LCD_WR_DATA(0);
 250:Core/Src/fsmc.c ****       LCD_WR_REG(lcddev.setxcmd+1);LCD_WR_DATA(0);
 251:Core/Src/fsmc.c ****       LCD_WR_REG(lcddev.setxcmd+2);LCD_WR_DATA((lcddev.width-1)>>8);
 252:Core/Src/fsmc.c ****       LCD_WR_REG(lcddev.setxcmd+3);LCD_WR_DATA((lcddev.width-1)&0XFF);
 253:Core/Src/fsmc.c ****       LCD_WR_REG(lcddev.setycmd);LCD_WR_DATA(0);
 254:Core/Src/fsmc.c ****       LCD_WR_REG(lcddev.setycmd+1);LCD_WR_DATA(0);
 255:Core/Src/fsmc.c ****       LCD_WR_REG(lcddev.setycmd+2);LCD_WR_DATA((lcddev.height-1)>>8);
 256:Core/Src/fsmc.c ****       LCD_WR_REG(lcddev.setycmd+3);LCD_WR_DATA((lcddev.height-1)&0XFF);
 257:Core/Src/fsmc.c ****     }else
 258:Core/Src/fsmc.c ****     {
 259:Core/Src/fsmc.c ****       LCD_WR_REG(lcddev.setxcmd);
ARM GAS  /tmp/ccE1vrH2.s 			page 6


 260:Core/Src/fsmc.c ****       LCD_WR_DATA(0);LCD_WR_DATA(0);
 261:Core/Src/fsmc.c ****       LCD_WR_DATA((lcddev.width-1)>>8);LCD_WR_DATA((lcddev.width-1)&0XFF);
 262:Core/Src/fsmc.c ****       LCD_WR_REG(lcddev.setycmd);
 263:Core/Src/fsmc.c ****       LCD_WR_DATA(0);LCD_WR_DATA(0);
 264:Core/Src/fsmc.c ****       LCD_WR_DATA((lcddev.height-1)>>8);LCD_WR_DATA((lcddev.height-1)&0XFF);
 265:Core/Src/fsmc.c ****     }
 266:Core/Src/fsmc.c ****   }
 267:Core/Src/fsmc.c **** }
 268:Core/Src/fsmc.c **** //ç”»ç‚¹
 269:Core/Src/fsmc.c **** //x,y:åæ ‡
 270:Core/Src/fsmc.c **** //POINT_COLOR:æ­¤ç‚¹çš„é¢œ??
 271:Core/Src/fsmc.c **** void LCD_DrawPoint(uint16_t x,uint16_t y)
 272:Core/Src/fsmc.c **** {
 273:Core/Src/fsmc.c ****   LCD_SetCursor(x,y);		//è®¾ç½®å…‰æ ‡ä½ç½®
 274:Core/Src/fsmc.c ****   LCD_WriteRAM_Prepare();	//??å§‹å†™å…¥GRAM
 275:Core/Src/fsmc.c ****   LCD->LCD_RAM=POINT_COLOR;
 276:Core/Src/fsmc.c **** }
 277:Core/Src/fsmc.c **** //å¿«???ç”»??
 278:Core/Src/fsmc.c **** //x,y:åæ ‡
 279:Core/Src/fsmc.c **** //color:é¢œè‰²
 280:Core/Src/fsmc.c **** void LCD_Fast_DrawPoint(uint16_t x,uint16_t y,uint32_t color)
 281:Core/Src/fsmc.c **** {
 282:Core/Src/fsmc.c ****   if(lcddev.id==0X9341||lcddev.id==0X5310)
 283:Core/Src/fsmc.c ****   {
 284:Core/Src/fsmc.c ****     LCD_WR_REG(lcddev.setxcmd);
 285:Core/Src/fsmc.c ****     LCD_WR_DATA(x>>8);LCD_WR_DATA(x&0XFF);
 286:Core/Src/fsmc.c ****     LCD_WR_REG(lcddev.setycmd);
 287:Core/Src/fsmc.c ****     LCD_WR_DATA(y>>8);LCD_WR_DATA(y&0XFF);
 288:Core/Src/fsmc.c ****   }else if(lcddev.id==0X5510)
 289:Core/Src/fsmc.c ****   {
 290:Core/Src/fsmc.c ****     LCD_WR_REG(lcddev.setxcmd);LCD_WR_DATA(x>>8);
 291:Core/Src/fsmc.c ****     LCD_WR_REG(lcddev.setxcmd+1);LCD_WR_DATA(x&0XFF);
 292:Core/Src/fsmc.c ****     LCD_WR_REG(lcddev.setycmd);LCD_WR_DATA(y>>8);
 293:Core/Src/fsmc.c ****     LCD_WR_REG(lcddev.setycmd+1);LCD_WR_DATA(y&0XFF);
 294:Core/Src/fsmc.c ****   }else if(lcddev.id==0X1963)
 295:Core/Src/fsmc.c ****   {
 296:Core/Src/fsmc.c ****     if(lcddev.dir==0)x=lcddev.width-1-x;
 297:Core/Src/fsmc.c ****     LCD_WR_REG(lcddev.setxcmd);
 298:Core/Src/fsmc.c ****     LCD_WR_DATA(x>>8);LCD_WR_DATA(x&0XFF);
 299:Core/Src/fsmc.c ****     LCD_WR_DATA(x>>8);LCD_WR_DATA(x&0XFF);
 300:Core/Src/fsmc.c ****     LCD_WR_REG(lcddev.setycmd);
 301:Core/Src/fsmc.c ****     LCD_WR_DATA(y>>8);LCD_WR_DATA(y&0XFF);
 302:Core/Src/fsmc.c ****     LCD_WR_DATA(y>>8);LCD_WR_DATA(y&0XFF);
 303:Core/Src/fsmc.c ****   }
 304:Core/Src/fsmc.c ****   LCD->LCD_REG=lcddev.wramcmd;
 305:Core/Src/fsmc.c ****   LCD->LCD_RAM=color;
 306:Core/Src/fsmc.c **** }
 307:Core/Src/fsmc.c **** //SSD1963 èƒŒå…‰è®¾ç½®
 308:Core/Src/fsmc.c **** //pwm:èƒŒå…‰ç­‰çº§,0~100.è¶Šå¤§è¶Šäº®.
 309:Core/Src/fsmc.c **** void LCD_SSD_BackLightSet(uint8_t pwm)
 310:Core/Src/fsmc.c **** {
 311:Core/Src/fsmc.c ****   LCD_WR_REG(0xBE);	//é…ç½®PWMè¾“å‡º
 312:Core/Src/fsmc.c ****   LCD_WR_DATA(0x05);	//1è®¾ç½®PWMé¢‘ç‡
 313:Core/Src/fsmc.c ****   LCD_WR_DATA(pwm*2.55);//2è®¾ç½®PWMå ç©º??
 314:Core/Src/fsmc.c ****   LCD_WR_DATA(0x01);	//3è®¾ç½®C
 315:Core/Src/fsmc.c ****   LCD_WR_DATA(0xFF);	//4è®¾ç½®D
 316:Core/Src/fsmc.c ****   LCD_WR_DATA(0x00);	//5è®¾ç½®E
ARM GAS  /tmp/ccE1vrH2.s 			page 7


 317:Core/Src/fsmc.c ****   LCD_WR_DATA(0x00);	//6è®¾ç½®F
 318:Core/Src/fsmc.c **** }
 319:Core/Src/fsmc.c **** 
 320:Core/Src/fsmc.c **** //è®¾ç½®LCDæ˜¾ç¤ºæ–¹å‘
 321:Core/Src/fsmc.c **** //dir:0,ç«–å±??1,æ¨ªå±
 322:Core/Src/fsmc.c **** void LCD_Display_Dir(uint8_t dir)
 323:Core/Src/fsmc.c **** {
 324:Core/Src/fsmc.c ****   lcddev.dir=dir;		//ç«–å±/æ¨ªå±
 325:Core/Src/fsmc.c ****   if(dir==0)			//ç«–å±
 326:Core/Src/fsmc.c ****   {
 327:Core/Src/fsmc.c ****     lcddev.width=240;
 328:Core/Src/fsmc.c ****     lcddev.height=320;
 329:Core/Src/fsmc.c ****     if(lcddev.id==0X9341||lcddev.id==0X5310)
 330:Core/Src/fsmc.c ****     {
 331:Core/Src/fsmc.c ****       lcddev.wramcmd=0X2C;
 332:Core/Src/fsmc.c ****       lcddev.setxcmd=0X2A;
 333:Core/Src/fsmc.c ****       lcddev.setycmd=0X2B;
 334:Core/Src/fsmc.c ****       if(lcddev.id==0X5310)
 335:Core/Src/fsmc.c ****       {
 336:Core/Src/fsmc.c ****         lcddev.width=320;
 337:Core/Src/fsmc.c ****         lcddev.height=480;
 338:Core/Src/fsmc.c ****       }
 339:Core/Src/fsmc.c ****     }else if(lcddev.id==0x5510)
 340:Core/Src/fsmc.c ****     {
 341:Core/Src/fsmc.c ****       lcddev.wramcmd=0X2C00;
 342:Core/Src/fsmc.c ****       lcddev.setxcmd=0X2A00;
 343:Core/Src/fsmc.c ****       lcddev.setycmd=0X2B00;
 344:Core/Src/fsmc.c ****       lcddev.width=480;
 345:Core/Src/fsmc.c ****       lcddev.height=800;
 346:Core/Src/fsmc.c ****     }else if(lcddev.id==0X1963)
 347:Core/Src/fsmc.c ****     {
 348:Core/Src/fsmc.c ****       lcddev.wramcmd=0X2C;	//è®¾ç½®å†™å…¥GRAMçš„æŒ‡??
 349:Core/Src/fsmc.c ****       lcddev.setxcmd=0X2B;	//è®¾ç½®å†™Xåæ ‡æŒ‡ä»¤
 350:Core/Src/fsmc.c ****       lcddev.setycmd=0X2A;	//è®¾ç½®å†™Yåæ ‡æŒ‡ä»¤
 351:Core/Src/fsmc.c ****       lcddev.width=480;		//è®¾ç½®å®½åº¦480
 352:Core/Src/fsmc.c ****       lcddev.height=800;		//è®¾ç½®é«˜åº¦800
 353:Core/Src/fsmc.c ****     }
 354:Core/Src/fsmc.c ****   }else 				//æ¨ªå±
 355:Core/Src/fsmc.c ****   {
 356:Core/Src/fsmc.c ****     lcddev.width=320;
 357:Core/Src/fsmc.c ****     lcddev.height=240;
 358:Core/Src/fsmc.c ****     if(lcddev.id==0X9341||lcddev.id==0X5310)
 359:Core/Src/fsmc.c ****     {
 360:Core/Src/fsmc.c ****       lcddev.wramcmd=0X2C;
 361:Core/Src/fsmc.c ****       lcddev.setxcmd=0X2A;
 362:Core/Src/fsmc.c ****       lcddev.setycmd=0X2B;
 363:Core/Src/fsmc.c ****     }else if(lcddev.id==0x5510)
 364:Core/Src/fsmc.c ****     {
 365:Core/Src/fsmc.c ****       lcddev.wramcmd=0X2C00;
 366:Core/Src/fsmc.c ****       lcddev.setxcmd=0X2A00;
 367:Core/Src/fsmc.c ****       lcddev.setycmd=0X2B00;
 368:Core/Src/fsmc.c ****       lcddev.width=800;
 369:Core/Src/fsmc.c ****       lcddev.height=480;
 370:Core/Src/fsmc.c ****     }else if(lcddev.id==0X1963)
 371:Core/Src/fsmc.c ****     {
 372:Core/Src/fsmc.c ****       lcddev.wramcmd=0X2C;	//è®¾ç½®å†™å…¥GRAMçš„æŒ‡??
 373:Core/Src/fsmc.c ****       lcddev.setxcmd=0X2A;	//è®¾ç½®å†™Xåæ ‡æŒ‡ä»¤
ARM GAS  /tmp/ccE1vrH2.s 			page 8


 374:Core/Src/fsmc.c ****       lcddev.setycmd=0X2B;	//è®¾ç½®å†™Yåæ ‡æŒ‡ä»¤
 375:Core/Src/fsmc.c ****       lcddev.width=800;		//è®¾ç½®å®½åº¦800
 376:Core/Src/fsmc.c ****       lcddev.height=480;		//è®¾ç½®é«˜åº¦480
 377:Core/Src/fsmc.c ****     }
 378:Core/Src/fsmc.c ****     if(lcddev.id==0X5310)
 379:Core/Src/fsmc.c ****     {
 380:Core/Src/fsmc.c ****       lcddev.width=480;
 381:Core/Src/fsmc.c ****       lcddev.height=320;
 382:Core/Src/fsmc.c ****     }
 383:Core/Src/fsmc.c ****   }
 384:Core/Src/fsmc.c ****   LCD_Scan_Dir(DFT_SCAN_DIR);	//é»˜è®¤æ‰«ææ–¹å‘
 385:Core/Src/fsmc.c **** }
 386:Core/Src/fsmc.c **** //è®¾ç½®çª—å£(å¯¹RGBå±æ— ??),å¹¶è‡ªåŠ¨è®¾ç½®ç”»ç‚¹åæ ‡åˆ°çª—å£å·¦ä¸Š??(sx,sy).
 387:Core/Src/fsmc.c **** //sx,sy:çª—å£èµ·å§‹åæ ‡(å·¦ä¸Š??)
 388:Core/Src/fsmc.c **** //width,height:çª—å£å®½åº¦å’Œé«˜??,å¿…é¡»å¤§äº0!!
 389:Core/Src/fsmc.c **** //çª—ä½“å¤§å°:width*height.
 390:Core/Src/fsmc.c **** void LCD_Set_Window(uint16_t sx,uint16_t sy,uint16_t width,uint16_t height)
 391:Core/Src/fsmc.c **** {
 392:Core/Src/fsmc.c ****   uint16_t twidth,theight;
 393:Core/Src/fsmc.c ****   twidth=sx+width-1;
 394:Core/Src/fsmc.c ****   theight=sy+height-1;
 395:Core/Src/fsmc.c ****   if(lcddev.id==0X9341||lcddev.id==0X5310||(lcddev.dir==1&&lcddev.id==0X1963))
 396:Core/Src/fsmc.c ****   {
 397:Core/Src/fsmc.c ****     LCD_WR_REG(lcddev.setxcmd);
 398:Core/Src/fsmc.c ****     LCD_WR_DATA(sx>>8);
 399:Core/Src/fsmc.c ****     LCD_WR_DATA(sx&0XFF);
 400:Core/Src/fsmc.c ****     LCD_WR_DATA(twidth>>8);
 401:Core/Src/fsmc.c ****     LCD_WR_DATA(twidth&0XFF);
 402:Core/Src/fsmc.c ****     LCD_WR_REG(lcddev.setycmd);
 403:Core/Src/fsmc.c ****     LCD_WR_DATA(sy>>8);
 404:Core/Src/fsmc.c ****     LCD_WR_DATA(sy&0XFF);
 405:Core/Src/fsmc.c ****     LCD_WR_DATA(theight>>8);
 406:Core/Src/fsmc.c ****     LCD_WR_DATA(theight&0XFF);
 407:Core/Src/fsmc.c ****   }else if(lcddev.id==0X1963)//1963ç«–å±ç‰¹æ®Šå¤„ç†
 408:Core/Src/fsmc.c ****   {
 409:Core/Src/fsmc.c ****     sx=lcddev.width-width-sx;
 410:Core/Src/fsmc.c ****     height=sy+height-1;
 411:Core/Src/fsmc.c ****     LCD_WR_REG(lcddev.setxcmd);
 412:Core/Src/fsmc.c ****     LCD_WR_DATA(sx>>8);
 413:Core/Src/fsmc.c ****     LCD_WR_DATA(sx&0XFF);
 414:Core/Src/fsmc.c ****     LCD_WR_DATA((sx+width-1)>>8);
 415:Core/Src/fsmc.c ****     LCD_WR_DATA((sx+width-1)&0XFF);
 416:Core/Src/fsmc.c ****     LCD_WR_REG(lcddev.setycmd);
 417:Core/Src/fsmc.c ****     LCD_WR_DATA(sy>>8);
 418:Core/Src/fsmc.c ****     LCD_WR_DATA(sy&0XFF);
 419:Core/Src/fsmc.c ****     LCD_WR_DATA(height>>8);
 420:Core/Src/fsmc.c ****     LCD_WR_DATA(height&0XFF);
 421:Core/Src/fsmc.c ****   }else if(lcddev.id==0X5510)
 422:Core/Src/fsmc.c ****   {
 423:Core/Src/fsmc.c ****     LCD_WR_REG(lcddev.setxcmd);LCD_WR_DATA(sx>>8);
 424:Core/Src/fsmc.c ****     LCD_WR_REG(lcddev.setxcmd+1);LCD_WR_DATA(sx&0XFF);
 425:Core/Src/fsmc.c ****     LCD_WR_REG(lcddev.setxcmd+2);LCD_WR_DATA(twidth>>8);
 426:Core/Src/fsmc.c ****     LCD_WR_REG(lcddev.setxcmd+3);LCD_WR_DATA(twidth&0XFF);
 427:Core/Src/fsmc.c ****     LCD_WR_REG(lcddev.setycmd);LCD_WR_DATA(sy>>8);
 428:Core/Src/fsmc.c ****     LCD_WR_REG(lcddev.setycmd+1);LCD_WR_DATA(sy&0XFF);
 429:Core/Src/fsmc.c ****     LCD_WR_REG(lcddev.setycmd+2);LCD_WR_DATA(theight>>8);
 430:Core/Src/fsmc.c ****     LCD_WR_REG(lcddev.setycmd+3);LCD_WR_DATA(theight&0XFF);
ARM GAS  /tmp/ccE1vrH2.s 			page 9


 431:Core/Src/fsmc.c ****   }
 432:Core/Src/fsmc.c **** }
 433:Core/Src/fsmc.c **** //SRAMåº•å±‚é©±åŠ¨ï¼Œæ—¶é’Ÿä½¿èƒ½ï¼Œå¼•è„šåˆ†é…
 434:Core/Src/fsmc.c **** //æ­¤å‡½æ•°ä¼šè¢«HAL_SRAM_Init()è°ƒç”¨
 435:Core/Src/fsmc.c **** //hsram:SRAMå¥æŸ„
 436:Core/Src/fsmc.c **** 
 437:Core/Src/fsmc.c **** //åˆå§‹åŒ–lcd
 438:Core/Src/fsmc.c **** //è¯¥åˆå§‹åŒ–å‡½æ•°å¯ä»¥åˆå§‹åŒ–å„ç§å‹å·çš„LCD(è¯¦è§??.cæ–‡ä»¶??å‰é¢çš„æ??)
 439:Core/Src/fsmc.c **** void LCD_Init(void)
 440:Core/Src/fsmc.c **** {
 441:Core/Src/fsmc.c ****   HAL_Delay(50); // delay 50 ms
 442:Core/Src/fsmc.c **** 
 443:Core/Src/fsmc.c ****   //å°è¯•9341 IDçš„è¯»å–
 444:Core/Src/fsmc.c ****   LCD_WR_REG(0XD3);
 445:Core/Src/fsmc.c ****   lcddev.id=LCD_RD_DATA();	//dummy read
 446:Core/Src/fsmc.c ****   lcddev.id=LCD_RD_DATA();	//è¯»åˆ°0X00
 447:Core/Src/fsmc.c ****   lcddev.id=LCD_RD_DATA();   	//è¯»å–93
 448:Core/Src/fsmc.c ****   lcddev.id<<=8;
 449:Core/Src/fsmc.c ****   lcddev.id|=LCD_RD_DATA();  	//è¯»å–41
 450:Core/Src/fsmc.c ****   if(lcddev.id!=0X9341)		//??9341,å°è¯•çœ‹çœ‹æ˜¯ä¸æ˜¯NT35310
 451:Core/Src/fsmc.c ****   {
 452:Core/Src/fsmc.c ****     LCD_WR_REG(0XD4);
 453:Core/Src/fsmc.c ****     lcddev.id=LCD_RD_DATA();//dummy read
 454:Core/Src/fsmc.c ****     lcddev.id=LCD_RD_DATA();//è¯»å›0X01
 455:Core/Src/fsmc.c ****     lcddev.id=LCD_RD_DATA();//è¯»å›0X53
 456:Core/Src/fsmc.c ****     lcddev.id<<=8;
 457:Core/Src/fsmc.c ****     lcddev.id|=LCD_RD_DATA();	//è¿™é‡Œè¯»å›0X10
 458:Core/Src/fsmc.c ****     if(lcddev.id!=0X5310)		//ä¹Ÿä¸æ˜¯NT35310,å°è¯•çœ‹çœ‹æ˜¯ä¸æ˜¯NT35510
 459:Core/Src/fsmc.c ****     {
 460:Core/Src/fsmc.c ****       LCD_WR_REG(0XDA00);
 461:Core/Src/fsmc.c ****       lcddev.id=LCD_RD_DATA();		//è¯»å›0X00
 462:Core/Src/fsmc.c ****       LCD_WR_REG(0XDB00);
 463:Core/Src/fsmc.c ****       lcddev.id=LCD_RD_DATA();		//è¯»å›0X80
 464:Core/Src/fsmc.c ****       lcddev.id<<=8;
 465:Core/Src/fsmc.c ****       LCD_WR_REG(0XDC00);
 466:Core/Src/fsmc.c ****       lcddev.id|=LCD_RD_DATA();		//è¯»å›0X00
 467:Core/Src/fsmc.c ****       if(lcddev.id==0x8000)lcddev.id=0x5510;//NT35510è¯»å›çš„ID??8000H,ä¸ºæ–¹ä¾¿åŒº??,æˆ‘ä»¬å¼ºåˆ¶
 468:Core/Src/fsmc.c ****       if(lcddev.id!=0X5510)			//ä¹Ÿä¸æ˜¯NT5510,å°è¯•çœ‹çœ‹æ˜¯ä¸æ˜¯SSD1963
 469:Core/Src/fsmc.c ****       {
 470:Core/Src/fsmc.c ****         LCD_WR_REG(0XA1);
 471:Core/Src/fsmc.c ****         lcddev.id=LCD_RD_DATA();
 472:Core/Src/fsmc.c ****         lcddev.id=LCD_RD_DATA();	//è¯»å›0X57
 473:Core/Src/fsmc.c ****         lcddev.id<<=8;
 474:Core/Src/fsmc.c ****         lcddev.id|=LCD_RD_DATA();	//è¯»å›0X61
 475:Core/Src/fsmc.c ****         if(lcddev.id==0X5761)lcddev.id=0X1963;//SSD1963è¯»å›çš„ID??5761H,ä¸ºæ–¹ä¾¿åŒº??,æˆ‘ä»¬å¼ºå
 476:Core/Src/fsmc.c ****       }
 477:Core/Src/fsmc.c ****     }
 478:Core/Src/fsmc.c ****   }
 479:Core/Src/fsmc.c ****   
 480:Core/Src/fsmc.c ****   if(lcddev.id==0X9341)	//9341åˆå§‹åŒ–
 481:Core/Src/fsmc.c ****   {
 482:Core/Src/fsmc.c ****     LCD_WR_REG(0xCF);
 483:Core/Src/fsmc.c ****     LCD_WR_DATA(0x00);
 484:Core/Src/fsmc.c ****     LCD_WR_DATA(0xC1);
 485:Core/Src/fsmc.c ****     LCD_WR_DATA(0X30);
 486:Core/Src/fsmc.c ****     LCD_WR_REG(0xED);
 487:Core/Src/fsmc.c ****     LCD_WR_DATA(0x64);
ARM GAS  /tmp/ccE1vrH2.s 			page 10


 488:Core/Src/fsmc.c ****     LCD_WR_DATA(0x03);
 489:Core/Src/fsmc.c ****     LCD_WR_DATA(0X12);
 490:Core/Src/fsmc.c ****     LCD_WR_DATA(0X81);
 491:Core/Src/fsmc.c ****     LCD_WR_REG(0xE8);
 492:Core/Src/fsmc.c ****     LCD_WR_DATA(0x85);
 493:Core/Src/fsmc.c ****     LCD_WR_DATA(0x10);
 494:Core/Src/fsmc.c ****     LCD_WR_DATA(0x7A);
 495:Core/Src/fsmc.c ****     LCD_WR_REG(0xCB);
 496:Core/Src/fsmc.c ****     LCD_WR_DATA(0x39);
 497:Core/Src/fsmc.c ****     LCD_WR_DATA(0x2C);
 498:Core/Src/fsmc.c ****     LCD_WR_DATA(0x00);
 499:Core/Src/fsmc.c ****     LCD_WR_DATA(0x34);
 500:Core/Src/fsmc.c ****     LCD_WR_DATA(0x02);
 501:Core/Src/fsmc.c ****     LCD_WR_REG(0xF7);
 502:Core/Src/fsmc.c ****     LCD_WR_DATA(0x20);
 503:Core/Src/fsmc.c ****     LCD_WR_REG(0xEA);
 504:Core/Src/fsmc.c ****     LCD_WR_DATA(0x00);
 505:Core/Src/fsmc.c ****     LCD_WR_DATA(0x00);
 506:Core/Src/fsmc.c ****     LCD_WR_REG(0xC0);    //Power control
 507:Core/Src/fsmc.c ****     LCD_WR_DATA(0x1B);   //VRH[5:0]
 508:Core/Src/fsmc.c ****     LCD_WR_REG(0xC1);    //Power control
 509:Core/Src/fsmc.c ****     LCD_WR_DATA(0x01);   //SAP[2:0];BT[3:0]
 510:Core/Src/fsmc.c ****     LCD_WR_REG(0xC5);    //VCM control
 511:Core/Src/fsmc.c ****     LCD_WR_DATA(0x30); 	 //3F
 512:Core/Src/fsmc.c ****     LCD_WR_DATA(0x30); 	 //3C
 513:Core/Src/fsmc.c ****     LCD_WR_REG(0xC7);    //VCM control2
 514:Core/Src/fsmc.c ****     LCD_WR_DATA(0XB7);
 515:Core/Src/fsmc.c ****     LCD_WR_REG(0x36);    // Memory Access Control
 516:Core/Src/fsmc.c ****     LCD_WR_DATA(0x48);
 517:Core/Src/fsmc.c ****     LCD_WR_REG(0x3A);
 518:Core/Src/fsmc.c ****     LCD_WR_DATA(0x55);
 519:Core/Src/fsmc.c ****     LCD_WR_REG(0xB1);
 520:Core/Src/fsmc.c ****     LCD_WR_DATA(0x00);
 521:Core/Src/fsmc.c ****     LCD_WR_DATA(0x1A);
 522:Core/Src/fsmc.c ****     LCD_WR_REG(0xB6);    // Display Function Control
 523:Core/Src/fsmc.c ****     LCD_WR_DATA(0x0A);
 524:Core/Src/fsmc.c ****     LCD_WR_DATA(0xA2);
 525:Core/Src/fsmc.c ****     LCD_WR_REG(0xF2);    // 3Gamma Function Disable
 526:Core/Src/fsmc.c ****     LCD_WR_DATA(0x00);
 527:Core/Src/fsmc.c ****     LCD_WR_REG(0x26);    //Gamma curve selected
 528:Core/Src/fsmc.c ****     LCD_WR_DATA(0x01);
 529:Core/Src/fsmc.c ****     LCD_WR_REG(0xE0);    //Set Gamma
 530:Core/Src/fsmc.c ****     LCD_WR_DATA(0x0F);
 531:Core/Src/fsmc.c ****     LCD_WR_DATA(0x2A);
 532:Core/Src/fsmc.c ****     LCD_WR_DATA(0x28);
 533:Core/Src/fsmc.c ****     LCD_WR_DATA(0x08);
 534:Core/Src/fsmc.c ****     LCD_WR_DATA(0x0E);
 535:Core/Src/fsmc.c ****     LCD_WR_DATA(0x08);
 536:Core/Src/fsmc.c ****     LCD_WR_DATA(0x54);
 537:Core/Src/fsmc.c ****     LCD_WR_DATA(0XA9);
 538:Core/Src/fsmc.c ****     LCD_WR_DATA(0x43);
 539:Core/Src/fsmc.c ****     LCD_WR_DATA(0x0A);
 540:Core/Src/fsmc.c ****     LCD_WR_DATA(0x0F);
 541:Core/Src/fsmc.c ****     LCD_WR_DATA(0x00);
 542:Core/Src/fsmc.c ****     LCD_WR_DATA(0x00);
 543:Core/Src/fsmc.c ****     LCD_WR_DATA(0x00);
 544:Core/Src/fsmc.c ****     LCD_WR_DATA(0x00);
ARM GAS  /tmp/ccE1vrH2.s 			page 11


 545:Core/Src/fsmc.c ****     LCD_WR_REG(0XE1);    //Set Gamma
 546:Core/Src/fsmc.c ****     LCD_WR_DATA(0x00);
 547:Core/Src/fsmc.c ****     LCD_WR_DATA(0x15);
 548:Core/Src/fsmc.c ****     LCD_WR_DATA(0x17);
 549:Core/Src/fsmc.c ****     LCD_WR_DATA(0x07);
 550:Core/Src/fsmc.c ****     LCD_WR_DATA(0x11);
 551:Core/Src/fsmc.c ****     LCD_WR_DATA(0x06);
 552:Core/Src/fsmc.c ****     LCD_WR_DATA(0x2B);
 553:Core/Src/fsmc.c ****     LCD_WR_DATA(0x56);
 554:Core/Src/fsmc.c ****     LCD_WR_DATA(0x3C);
 555:Core/Src/fsmc.c ****     LCD_WR_DATA(0x05);
 556:Core/Src/fsmc.c ****     LCD_WR_DATA(0x10);
 557:Core/Src/fsmc.c ****     LCD_WR_DATA(0x0F);
 558:Core/Src/fsmc.c ****     LCD_WR_DATA(0x3F);
 559:Core/Src/fsmc.c ****     LCD_WR_DATA(0x3F);
 560:Core/Src/fsmc.c ****     LCD_WR_DATA(0x0F);
 561:Core/Src/fsmc.c ****     LCD_WR_REG(0x2B);
 562:Core/Src/fsmc.c ****     LCD_WR_DATA(0x00);
 563:Core/Src/fsmc.c ****     LCD_WR_DATA(0x00);
 564:Core/Src/fsmc.c ****     LCD_WR_DATA(0x01);
 565:Core/Src/fsmc.c ****     LCD_WR_DATA(0x3f);
 566:Core/Src/fsmc.c ****     LCD_WR_REG(0x2A);
 567:Core/Src/fsmc.c ****     LCD_WR_DATA(0x00);
 568:Core/Src/fsmc.c ****     LCD_WR_DATA(0x00);
 569:Core/Src/fsmc.c ****     LCD_WR_DATA(0x00);
 570:Core/Src/fsmc.c ****     LCD_WR_DATA(0xef);
 571:Core/Src/fsmc.c ****     LCD_WR_REG(0x11); //Exit Sleep
 572:Core/Src/fsmc.c ****     HAL_Delay(120);
 573:Core/Src/fsmc.c ****     LCD_WR_REG(0x29); //display on
 574:Core/Src/fsmc.c ****   }else if(lcddev.id==0x5310)
 575:Core/Src/fsmc.c ****   {
 576:Core/Src/fsmc.c ****     LCD_WR_REG(0xED);
 577:Core/Src/fsmc.c ****     LCD_WR_DATA(0x01);
 578:Core/Src/fsmc.c ****     LCD_WR_DATA(0xFE);
 579:Core/Src/fsmc.c **** 
 580:Core/Src/fsmc.c ****     LCD_WR_REG(0xEE);
 581:Core/Src/fsmc.c ****     LCD_WR_DATA(0xDE);
 582:Core/Src/fsmc.c ****     LCD_WR_DATA(0x21);
 583:Core/Src/fsmc.c **** 
 584:Core/Src/fsmc.c ****     LCD_WR_REG(0xF1);
 585:Core/Src/fsmc.c ****     LCD_WR_DATA(0x01);
 586:Core/Src/fsmc.c ****     LCD_WR_REG(0xDF);
 587:Core/Src/fsmc.c ****     LCD_WR_DATA(0x10);
 588:Core/Src/fsmc.c **** 
 589:Core/Src/fsmc.c ****     //VCOMvoltage//
 590:Core/Src/fsmc.c ****     LCD_WR_REG(0xC4);
 591:Core/Src/fsmc.c ****     LCD_WR_DATA(0x8F);	  //5f
 592:Core/Src/fsmc.c **** 
 593:Core/Src/fsmc.c ****     LCD_WR_REG(0xC6);
 594:Core/Src/fsmc.c ****     LCD_WR_DATA(0x00);
 595:Core/Src/fsmc.c ****     LCD_WR_DATA(0xE2);
 596:Core/Src/fsmc.c ****     LCD_WR_DATA(0xE2);
 597:Core/Src/fsmc.c ****     LCD_WR_DATA(0xE2);
 598:Core/Src/fsmc.c ****     LCD_WR_REG(0xBF);
 599:Core/Src/fsmc.c ****     LCD_WR_DATA(0xAA);
 600:Core/Src/fsmc.c **** 
 601:Core/Src/fsmc.c ****     LCD_WR_REG(0xB0);
ARM GAS  /tmp/ccE1vrH2.s 			page 12


 602:Core/Src/fsmc.c ****     LCD_WR_DATA(0x0D);
 603:Core/Src/fsmc.c ****     LCD_WR_DATA(0x00);
 604:Core/Src/fsmc.c ****     LCD_WR_DATA(0x0D);
 605:Core/Src/fsmc.c ****     LCD_WR_DATA(0x00);
 606:Core/Src/fsmc.c ****     LCD_WR_DATA(0x11);
 607:Core/Src/fsmc.c ****     LCD_WR_DATA(0x00);
 608:Core/Src/fsmc.c ****     LCD_WR_DATA(0x19);
 609:Core/Src/fsmc.c ****     LCD_WR_DATA(0x00);
 610:Core/Src/fsmc.c ****     LCD_WR_DATA(0x21);
 611:Core/Src/fsmc.c ****     LCD_WR_DATA(0x00);
 612:Core/Src/fsmc.c ****     LCD_WR_DATA(0x2D);
 613:Core/Src/fsmc.c ****     LCD_WR_DATA(0x00);
 614:Core/Src/fsmc.c ****     LCD_WR_DATA(0x3D);
 615:Core/Src/fsmc.c ****     LCD_WR_DATA(0x00);
 616:Core/Src/fsmc.c ****     LCD_WR_DATA(0x5D);
 617:Core/Src/fsmc.c ****     LCD_WR_DATA(0x00);
 618:Core/Src/fsmc.c ****     LCD_WR_DATA(0x5D);
 619:Core/Src/fsmc.c ****     LCD_WR_DATA(0x00);
 620:Core/Src/fsmc.c **** 
 621:Core/Src/fsmc.c ****     LCD_WR_REG(0xB1);
 622:Core/Src/fsmc.c ****     LCD_WR_DATA(0x80);
 623:Core/Src/fsmc.c ****     LCD_WR_DATA(0x00);
 624:Core/Src/fsmc.c ****     LCD_WR_DATA(0x8B);
 625:Core/Src/fsmc.c ****     LCD_WR_DATA(0x00);
 626:Core/Src/fsmc.c ****     LCD_WR_DATA(0x96);
 627:Core/Src/fsmc.c ****     LCD_WR_DATA(0x00);
 628:Core/Src/fsmc.c **** 
 629:Core/Src/fsmc.c ****     LCD_WR_REG(0xB2);
 630:Core/Src/fsmc.c ****     LCD_WR_DATA(0x00);
 631:Core/Src/fsmc.c ****     LCD_WR_DATA(0x00);
 632:Core/Src/fsmc.c ****     LCD_WR_DATA(0x02);
 633:Core/Src/fsmc.c ****     LCD_WR_DATA(0x00);
 634:Core/Src/fsmc.c ****     LCD_WR_DATA(0x03);
 635:Core/Src/fsmc.c ****     LCD_WR_DATA(0x00);
 636:Core/Src/fsmc.c **** 
 637:Core/Src/fsmc.c ****     LCD_WR_REG(0xB3);
 638:Core/Src/fsmc.c ****     LCD_WR_DATA(0x00);
 639:Core/Src/fsmc.c ****     LCD_WR_DATA(0x00);
 640:Core/Src/fsmc.c ****     LCD_WR_DATA(0x00);
 641:Core/Src/fsmc.c ****     LCD_WR_DATA(0x00);
 642:Core/Src/fsmc.c ****     LCD_WR_DATA(0x00);
 643:Core/Src/fsmc.c ****     LCD_WR_DATA(0x00);
 644:Core/Src/fsmc.c ****     LCD_WR_DATA(0x00);
 645:Core/Src/fsmc.c ****     LCD_WR_DATA(0x00);
 646:Core/Src/fsmc.c ****     LCD_WR_DATA(0x00);
 647:Core/Src/fsmc.c ****     LCD_WR_DATA(0x00);
 648:Core/Src/fsmc.c ****     LCD_WR_DATA(0x00);
 649:Core/Src/fsmc.c ****     LCD_WR_DATA(0x00);
 650:Core/Src/fsmc.c ****     LCD_WR_DATA(0x00);
 651:Core/Src/fsmc.c ****     LCD_WR_DATA(0x00);
 652:Core/Src/fsmc.c ****     LCD_WR_DATA(0x00);
 653:Core/Src/fsmc.c ****     LCD_WR_DATA(0x00);
 654:Core/Src/fsmc.c ****     LCD_WR_DATA(0x00);
 655:Core/Src/fsmc.c ****     LCD_WR_DATA(0x00);
 656:Core/Src/fsmc.c ****     LCD_WR_DATA(0x00);
 657:Core/Src/fsmc.c ****     LCD_WR_DATA(0x00);
 658:Core/Src/fsmc.c ****     LCD_WR_DATA(0x00);
ARM GAS  /tmp/ccE1vrH2.s 			page 13


 659:Core/Src/fsmc.c ****     LCD_WR_DATA(0x00);
 660:Core/Src/fsmc.c ****     LCD_WR_DATA(0x00);
 661:Core/Src/fsmc.c ****     LCD_WR_DATA(0x00);
 662:Core/Src/fsmc.c **** 
 663:Core/Src/fsmc.c ****     LCD_WR_REG(0xB4);
 664:Core/Src/fsmc.c ****     LCD_WR_DATA(0x8B);
 665:Core/Src/fsmc.c ****     LCD_WR_DATA(0x00);
 666:Core/Src/fsmc.c ****     LCD_WR_DATA(0x96);
 667:Core/Src/fsmc.c ****     LCD_WR_DATA(0x00);
 668:Core/Src/fsmc.c ****     LCD_WR_DATA(0xA1);
 669:Core/Src/fsmc.c ****     LCD_WR_DATA(0x00);
 670:Core/Src/fsmc.c **** 
 671:Core/Src/fsmc.c ****     LCD_WR_REG(0xB5);
 672:Core/Src/fsmc.c ****     LCD_WR_DATA(0x02);
 673:Core/Src/fsmc.c ****     LCD_WR_DATA(0x00);
 674:Core/Src/fsmc.c ****     LCD_WR_DATA(0x03);
 675:Core/Src/fsmc.c ****     LCD_WR_DATA(0x00);
 676:Core/Src/fsmc.c ****     LCD_WR_DATA(0x04);
 677:Core/Src/fsmc.c ****     LCD_WR_DATA(0x00);
 678:Core/Src/fsmc.c **** 
 679:Core/Src/fsmc.c ****     LCD_WR_REG(0xB6);
 680:Core/Src/fsmc.c ****     LCD_WR_DATA(0x00);
 681:Core/Src/fsmc.c ****     LCD_WR_DATA(0x00);
 682:Core/Src/fsmc.c **** 
 683:Core/Src/fsmc.c ****     LCD_WR_REG(0xB7);
 684:Core/Src/fsmc.c ****     LCD_WR_DATA(0x00);
 685:Core/Src/fsmc.c ****     LCD_WR_DATA(0x00);
 686:Core/Src/fsmc.c ****     LCD_WR_DATA(0x3F);
 687:Core/Src/fsmc.c ****     LCD_WR_DATA(0x00);
 688:Core/Src/fsmc.c ****     LCD_WR_DATA(0x5E);
 689:Core/Src/fsmc.c ****     LCD_WR_DATA(0x00);
 690:Core/Src/fsmc.c ****     LCD_WR_DATA(0x64);
 691:Core/Src/fsmc.c ****     LCD_WR_DATA(0x00);
 692:Core/Src/fsmc.c ****     LCD_WR_DATA(0x8C);
 693:Core/Src/fsmc.c ****     LCD_WR_DATA(0x00);
 694:Core/Src/fsmc.c ****     LCD_WR_DATA(0xAC);
 695:Core/Src/fsmc.c ****     LCD_WR_DATA(0x00);
 696:Core/Src/fsmc.c ****     LCD_WR_DATA(0xDC);
 697:Core/Src/fsmc.c ****     LCD_WR_DATA(0x00);
 698:Core/Src/fsmc.c ****     LCD_WR_DATA(0x70);
 699:Core/Src/fsmc.c ****     LCD_WR_DATA(0x00);
 700:Core/Src/fsmc.c ****     LCD_WR_DATA(0x90);
 701:Core/Src/fsmc.c ****     LCD_WR_DATA(0x00);
 702:Core/Src/fsmc.c ****     LCD_WR_DATA(0xEB);
 703:Core/Src/fsmc.c ****     LCD_WR_DATA(0x00);
 704:Core/Src/fsmc.c ****     LCD_WR_DATA(0xDC);
 705:Core/Src/fsmc.c ****     LCD_WR_DATA(0x00);
 706:Core/Src/fsmc.c **** 
 707:Core/Src/fsmc.c ****     LCD_WR_REG(0xB8);
 708:Core/Src/fsmc.c ****     LCD_WR_DATA(0x00);
 709:Core/Src/fsmc.c ****     LCD_WR_DATA(0x00);
 710:Core/Src/fsmc.c ****     LCD_WR_DATA(0x00);
 711:Core/Src/fsmc.c ****     LCD_WR_DATA(0x00);
 712:Core/Src/fsmc.c ****     LCD_WR_DATA(0x00);
 713:Core/Src/fsmc.c ****     LCD_WR_DATA(0x00);
 714:Core/Src/fsmc.c ****     LCD_WR_DATA(0x00);
 715:Core/Src/fsmc.c ****     LCD_WR_DATA(0x00);
ARM GAS  /tmp/ccE1vrH2.s 			page 14


 716:Core/Src/fsmc.c **** 
 717:Core/Src/fsmc.c ****     LCD_WR_REG(0xBA);
 718:Core/Src/fsmc.c ****     LCD_WR_DATA(0x24);
 719:Core/Src/fsmc.c ****     LCD_WR_DATA(0x00);
 720:Core/Src/fsmc.c ****     LCD_WR_DATA(0x00);
 721:Core/Src/fsmc.c ****     LCD_WR_DATA(0x00);
 722:Core/Src/fsmc.c **** 
 723:Core/Src/fsmc.c ****     LCD_WR_REG(0xC1);
 724:Core/Src/fsmc.c ****     LCD_WR_DATA(0x20);
 725:Core/Src/fsmc.c ****     LCD_WR_DATA(0x00);
 726:Core/Src/fsmc.c ****     LCD_WR_DATA(0x54);
 727:Core/Src/fsmc.c ****     LCD_WR_DATA(0x00);
 728:Core/Src/fsmc.c ****     LCD_WR_DATA(0xFF);
 729:Core/Src/fsmc.c ****     LCD_WR_DATA(0x00);
 730:Core/Src/fsmc.c **** 
 731:Core/Src/fsmc.c ****     LCD_WR_REG(0xC2);
 732:Core/Src/fsmc.c ****     LCD_WR_DATA(0x0A);
 733:Core/Src/fsmc.c ****     LCD_WR_DATA(0x00);
 734:Core/Src/fsmc.c ****     LCD_WR_DATA(0x04);
 735:Core/Src/fsmc.c ****     LCD_WR_DATA(0x00);
 736:Core/Src/fsmc.c **** 
 737:Core/Src/fsmc.c ****     LCD_WR_REG(0xC3);
 738:Core/Src/fsmc.c ****     LCD_WR_DATA(0x3C);
 739:Core/Src/fsmc.c ****     LCD_WR_DATA(0x00);
 740:Core/Src/fsmc.c ****     LCD_WR_DATA(0x3A);
 741:Core/Src/fsmc.c ****     LCD_WR_DATA(0x00);
 742:Core/Src/fsmc.c ****     LCD_WR_DATA(0x39);
 743:Core/Src/fsmc.c ****     LCD_WR_DATA(0x00);
 744:Core/Src/fsmc.c ****     LCD_WR_DATA(0x37);
 745:Core/Src/fsmc.c ****     LCD_WR_DATA(0x00);
 746:Core/Src/fsmc.c ****     LCD_WR_DATA(0x3C);
 747:Core/Src/fsmc.c ****     LCD_WR_DATA(0x00);
 748:Core/Src/fsmc.c ****     LCD_WR_DATA(0x36);
 749:Core/Src/fsmc.c ****     LCD_WR_DATA(0x00);
 750:Core/Src/fsmc.c ****     LCD_WR_DATA(0x32);
 751:Core/Src/fsmc.c ****     LCD_WR_DATA(0x00);
 752:Core/Src/fsmc.c ****     LCD_WR_DATA(0x2F);
 753:Core/Src/fsmc.c ****     LCD_WR_DATA(0x00);
 754:Core/Src/fsmc.c ****     LCD_WR_DATA(0x2C);
 755:Core/Src/fsmc.c ****     LCD_WR_DATA(0x00);
 756:Core/Src/fsmc.c ****     LCD_WR_DATA(0x29);
 757:Core/Src/fsmc.c ****     LCD_WR_DATA(0x00);
 758:Core/Src/fsmc.c ****     LCD_WR_DATA(0x26);
 759:Core/Src/fsmc.c ****     LCD_WR_DATA(0x00);
 760:Core/Src/fsmc.c ****     LCD_WR_DATA(0x24);
 761:Core/Src/fsmc.c ****     LCD_WR_DATA(0x00);
 762:Core/Src/fsmc.c ****     LCD_WR_DATA(0x24);
 763:Core/Src/fsmc.c ****     LCD_WR_DATA(0x00);
 764:Core/Src/fsmc.c ****     LCD_WR_DATA(0x23);
 765:Core/Src/fsmc.c ****     LCD_WR_DATA(0x00);
 766:Core/Src/fsmc.c ****     LCD_WR_DATA(0x3C);
 767:Core/Src/fsmc.c ****     LCD_WR_DATA(0x00);
 768:Core/Src/fsmc.c ****     LCD_WR_DATA(0x36);
 769:Core/Src/fsmc.c ****     LCD_WR_DATA(0x00);
 770:Core/Src/fsmc.c ****     LCD_WR_DATA(0x32);
 771:Core/Src/fsmc.c ****     LCD_WR_DATA(0x00);
 772:Core/Src/fsmc.c ****     LCD_WR_DATA(0x2F);
ARM GAS  /tmp/ccE1vrH2.s 			page 15


 773:Core/Src/fsmc.c ****     LCD_WR_DATA(0x00);
 774:Core/Src/fsmc.c ****     LCD_WR_DATA(0x2C);
 775:Core/Src/fsmc.c ****     LCD_WR_DATA(0x00);
 776:Core/Src/fsmc.c ****     LCD_WR_DATA(0x29);
 777:Core/Src/fsmc.c ****     LCD_WR_DATA(0x00);
 778:Core/Src/fsmc.c ****     LCD_WR_DATA(0x26);
 779:Core/Src/fsmc.c ****     LCD_WR_DATA(0x00);
 780:Core/Src/fsmc.c ****     LCD_WR_DATA(0x24);
 781:Core/Src/fsmc.c ****     LCD_WR_DATA(0x00);
 782:Core/Src/fsmc.c ****     LCD_WR_DATA(0x24);
 783:Core/Src/fsmc.c ****     LCD_WR_DATA(0x00);
 784:Core/Src/fsmc.c ****     LCD_WR_DATA(0x23);
 785:Core/Src/fsmc.c ****     LCD_WR_DATA(0x00);
 786:Core/Src/fsmc.c **** 
 787:Core/Src/fsmc.c ****     LCD_WR_REG(0xC4);
 788:Core/Src/fsmc.c ****     LCD_WR_DATA(0x62);
 789:Core/Src/fsmc.c ****     LCD_WR_DATA(0x00);
 790:Core/Src/fsmc.c ****     LCD_WR_DATA(0x05);
 791:Core/Src/fsmc.c ****     LCD_WR_DATA(0x00);
 792:Core/Src/fsmc.c ****     LCD_WR_DATA(0x84);
 793:Core/Src/fsmc.c ****     LCD_WR_DATA(0x00);
 794:Core/Src/fsmc.c ****     LCD_WR_DATA(0xF0);
 795:Core/Src/fsmc.c ****     LCD_WR_DATA(0x00);
 796:Core/Src/fsmc.c ****     LCD_WR_DATA(0x18);
 797:Core/Src/fsmc.c ****     LCD_WR_DATA(0x00);
 798:Core/Src/fsmc.c ****     LCD_WR_DATA(0xA4);
 799:Core/Src/fsmc.c ****     LCD_WR_DATA(0x00);
 800:Core/Src/fsmc.c ****     LCD_WR_DATA(0x18);
 801:Core/Src/fsmc.c ****     LCD_WR_DATA(0x00);
 802:Core/Src/fsmc.c ****     LCD_WR_DATA(0x50);
 803:Core/Src/fsmc.c ****     LCD_WR_DATA(0x00);
 804:Core/Src/fsmc.c ****     LCD_WR_DATA(0x0C);
 805:Core/Src/fsmc.c ****     LCD_WR_DATA(0x00);
 806:Core/Src/fsmc.c ****     LCD_WR_DATA(0x17);
 807:Core/Src/fsmc.c ****     LCD_WR_DATA(0x00);
 808:Core/Src/fsmc.c ****     LCD_WR_DATA(0x95);
 809:Core/Src/fsmc.c ****     LCD_WR_DATA(0x00);
 810:Core/Src/fsmc.c ****     LCD_WR_DATA(0xF3);
 811:Core/Src/fsmc.c ****     LCD_WR_DATA(0x00);
 812:Core/Src/fsmc.c ****     LCD_WR_DATA(0xE6);
 813:Core/Src/fsmc.c ****     LCD_WR_DATA(0x00);
 814:Core/Src/fsmc.c **** 
 815:Core/Src/fsmc.c ****     LCD_WR_REG(0xC5);
 816:Core/Src/fsmc.c ****     LCD_WR_DATA(0x32);
 817:Core/Src/fsmc.c ****     LCD_WR_DATA(0x00);
 818:Core/Src/fsmc.c ****     LCD_WR_DATA(0x44);
 819:Core/Src/fsmc.c ****     LCD_WR_DATA(0x00);
 820:Core/Src/fsmc.c ****     LCD_WR_DATA(0x65);
 821:Core/Src/fsmc.c ****     LCD_WR_DATA(0x00);
 822:Core/Src/fsmc.c ****     LCD_WR_DATA(0x76);
 823:Core/Src/fsmc.c ****     LCD_WR_DATA(0x00);
 824:Core/Src/fsmc.c ****     LCD_WR_DATA(0x88);
 825:Core/Src/fsmc.c ****     LCD_WR_DATA(0x00);
 826:Core/Src/fsmc.c **** 
 827:Core/Src/fsmc.c ****     LCD_WR_REG(0xC6);
 828:Core/Src/fsmc.c ****     LCD_WR_DATA(0x20);
 829:Core/Src/fsmc.c ****     LCD_WR_DATA(0x00);
ARM GAS  /tmp/ccE1vrH2.s 			page 16


 830:Core/Src/fsmc.c ****     LCD_WR_DATA(0x17);
 831:Core/Src/fsmc.c ****     LCD_WR_DATA(0x00);
 832:Core/Src/fsmc.c ****     LCD_WR_DATA(0x01);
 833:Core/Src/fsmc.c ****     LCD_WR_DATA(0x00);
 834:Core/Src/fsmc.c **** 
 835:Core/Src/fsmc.c ****     LCD_WR_REG(0xC7);
 836:Core/Src/fsmc.c ****     LCD_WR_DATA(0x00);
 837:Core/Src/fsmc.c ****     LCD_WR_DATA(0x00);
 838:Core/Src/fsmc.c ****     LCD_WR_DATA(0x00);
 839:Core/Src/fsmc.c ****     LCD_WR_DATA(0x00);
 840:Core/Src/fsmc.c **** 
 841:Core/Src/fsmc.c ****     LCD_WR_REG(0xC8);
 842:Core/Src/fsmc.c ****     LCD_WR_DATA(0x00);
 843:Core/Src/fsmc.c ****     LCD_WR_DATA(0x00);
 844:Core/Src/fsmc.c ****     LCD_WR_DATA(0x00);
 845:Core/Src/fsmc.c ****     LCD_WR_DATA(0x00);
 846:Core/Src/fsmc.c **** 
 847:Core/Src/fsmc.c ****     LCD_WR_REG(0xC9);
 848:Core/Src/fsmc.c ****     LCD_WR_DATA(0x00);
 849:Core/Src/fsmc.c ****     LCD_WR_DATA(0x00);
 850:Core/Src/fsmc.c ****     LCD_WR_DATA(0x00);
 851:Core/Src/fsmc.c ****     LCD_WR_DATA(0x00);
 852:Core/Src/fsmc.c ****     LCD_WR_DATA(0x00);
 853:Core/Src/fsmc.c ****     LCD_WR_DATA(0x00);
 854:Core/Src/fsmc.c ****     LCD_WR_DATA(0x00);
 855:Core/Src/fsmc.c ****     LCD_WR_DATA(0x00);
 856:Core/Src/fsmc.c ****     LCD_WR_DATA(0x00);
 857:Core/Src/fsmc.c ****     LCD_WR_DATA(0x00);
 858:Core/Src/fsmc.c ****     LCD_WR_DATA(0x00);
 859:Core/Src/fsmc.c ****     LCD_WR_DATA(0x00);
 860:Core/Src/fsmc.c ****     LCD_WR_DATA(0x00);
 861:Core/Src/fsmc.c ****     LCD_WR_DATA(0x00);
 862:Core/Src/fsmc.c ****     LCD_WR_DATA(0x00);
 863:Core/Src/fsmc.c ****     LCD_WR_DATA(0x00);
 864:Core/Src/fsmc.c **** 
 865:Core/Src/fsmc.c ****     LCD_WR_REG(0xE0);
 866:Core/Src/fsmc.c ****     LCD_WR_DATA(0x16);
 867:Core/Src/fsmc.c ****     LCD_WR_DATA(0x00);
 868:Core/Src/fsmc.c ****     LCD_WR_DATA(0x1C);
 869:Core/Src/fsmc.c ****     LCD_WR_DATA(0x00);
 870:Core/Src/fsmc.c ****     LCD_WR_DATA(0x21);
 871:Core/Src/fsmc.c ****     LCD_WR_DATA(0x00);
 872:Core/Src/fsmc.c ****     LCD_WR_DATA(0x36);
 873:Core/Src/fsmc.c ****     LCD_WR_DATA(0x00);
 874:Core/Src/fsmc.c ****     LCD_WR_DATA(0x46);
 875:Core/Src/fsmc.c ****     LCD_WR_DATA(0x00);
 876:Core/Src/fsmc.c ****     LCD_WR_DATA(0x52);
 877:Core/Src/fsmc.c ****     LCD_WR_DATA(0x00);
 878:Core/Src/fsmc.c ****     LCD_WR_DATA(0x64);
 879:Core/Src/fsmc.c ****     LCD_WR_DATA(0x00);
 880:Core/Src/fsmc.c ****     LCD_WR_DATA(0x7A);
 881:Core/Src/fsmc.c ****     LCD_WR_DATA(0x00);
 882:Core/Src/fsmc.c ****     LCD_WR_DATA(0x8B);
 883:Core/Src/fsmc.c ****     LCD_WR_DATA(0x00);
 884:Core/Src/fsmc.c ****     LCD_WR_DATA(0x99);
 885:Core/Src/fsmc.c ****     LCD_WR_DATA(0x00);
 886:Core/Src/fsmc.c ****     LCD_WR_DATA(0xA8);
ARM GAS  /tmp/ccE1vrH2.s 			page 17


 887:Core/Src/fsmc.c ****     LCD_WR_DATA(0x00);
 888:Core/Src/fsmc.c ****     LCD_WR_DATA(0xB9);
 889:Core/Src/fsmc.c ****     LCD_WR_DATA(0x00);
 890:Core/Src/fsmc.c ****     LCD_WR_DATA(0xC4);
 891:Core/Src/fsmc.c ****     LCD_WR_DATA(0x00);
 892:Core/Src/fsmc.c ****     LCD_WR_DATA(0xCA);
 893:Core/Src/fsmc.c ****     LCD_WR_DATA(0x00);
 894:Core/Src/fsmc.c ****     LCD_WR_DATA(0xD2);
 895:Core/Src/fsmc.c ****     LCD_WR_DATA(0x00);
 896:Core/Src/fsmc.c ****     LCD_WR_DATA(0xD9);
 897:Core/Src/fsmc.c ****     LCD_WR_DATA(0x00);
 898:Core/Src/fsmc.c ****     LCD_WR_DATA(0xE0);
 899:Core/Src/fsmc.c ****     LCD_WR_DATA(0x00);
 900:Core/Src/fsmc.c ****     LCD_WR_DATA(0xF3);
 901:Core/Src/fsmc.c ****     LCD_WR_DATA(0x00);
 902:Core/Src/fsmc.c **** 
 903:Core/Src/fsmc.c ****     LCD_WR_REG(0xE1);
 904:Core/Src/fsmc.c ****     LCD_WR_DATA(0x16);
 905:Core/Src/fsmc.c ****     LCD_WR_DATA(0x00);
 906:Core/Src/fsmc.c ****     LCD_WR_DATA(0x1C);
 907:Core/Src/fsmc.c ****     LCD_WR_DATA(0x00);
 908:Core/Src/fsmc.c ****     LCD_WR_DATA(0x22);
 909:Core/Src/fsmc.c ****     LCD_WR_DATA(0x00);
 910:Core/Src/fsmc.c ****     LCD_WR_DATA(0x36);
 911:Core/Src/fsmc.c ****     LCD_WR_DATA(0x00);
 912:Core/Src/fsmc.c ****     LCD_WR_DATA(0x45);
 913:Core/Src/fsmc.c ****     LCD_WR_DATA(0x00);
 914:Core/Src/fsmc.c ****     LCD_WR_DATA(0x52);
 915:Core/Src/fsmc.c ****     LCD_WR_DATA(0x00);
 916:Core/Src/fsmc.c ****     LCD_WR_DATA(0x64);
 917:Core/Src/fsmc.c ****     LCD_WR_DATA(0x00);
 918:Core/Src/fsmc.c ****     LCD_WR_DATA(0x7A);
 919:Core/Src/fsmc.c ****     LCD_WR_DATA(0x00);
 920:Core/Src/fsmc.c ****     LCD_WR_DATA(0x8B);
 921:Core/Src/fsmc.c ****     LCD_WR_DATA(0x00);
 922:Core/Src/fsmc.c ****     LCD_WR_DATA(0x99);
 923:Core/Src/fsmc.c ****     LCD_WR_DATA(0x00);
 924:Core/Src/fsmc.c ****     LCD_WR_DATA(0xA8);
 925:Core/Src/fsmc.c ****     LCD_WR_DATA(0x00);
 926:Core/Src/fsmc.c ****     LCD_WR_DATA(0xB9);
 927:Core/Src/fsmc.c ****     LCD_WR_DATA(0x00);
 928:Core/Src/fsmc.c ****     LCD_WR_DATA(0xC4);
 929:Core/Src/fsmc.c ****     LCD_WR_DATA(0x00);
 930:Core/Src/fsmc.c ****     LCD_WR_DATA(0xCA);
 931:Core/Src/fsmc.c ****     LCD_WR_DATA(0x00);
 932:Core/Src/fsmc.c ****     LCD_WR_DATA(0xD2);
 933:Core/Src/fsmc.c ****     LCD_WR_DATA(0x00);
 934:Core/Src/fsmc.c ****     LCD_WR_DATA(0xD8);
 935:Core/Src/fsmc.c ****     LCD_WR_DATA(0x00);
 936:Core/Src/fsmc.c ****     LCD_WR_DATA(0xE0);
 937:Core/Src/fsmc.c ****     LCD_WR_DATA(0x00);
 938:Core/Src/fsmc.c ****     LCD_WR_DATA(0xF3);
 939:Core/Src/fsmc.c ****     LCD_WR_DATA(0x00);
 940:Core/Src/fsmc.c **** 
 941:Core/Src/fsmc.c ****     LCD_WR_REG(0xE2);
 942:Core/Src/fsmc.c ****     LCD_WR_DATA(0x05);
 943:Core/Src/fsmc.c ****     LCD_WR_DATA(0x00);
ARM GAS  /tmp/ccE1vrH2.s 			page 18


 944:Core/Src/fsmc.c ****     LCD_WR_DATA(0x0B);
 945:Core/Src/fsmc.c ****     LCD_WR_DATA(0x00);
 946:Core/Src/fsmc.c ****     LCD_WR_DATA(0x1B);
 947:Core/Src/fsmc.c ****     LCD_WR_DATA(0x00);
 948:Core/Src/fsmc.c ****     LCD_WR_DATA(0x34);
 949:Core/Src/fsmc.c ****     LCD_WR_DATA(0x00);
 950:Core/Src/fsmc.c ****     LCD_WR_DATA(0x44);
 951:Core/Src/fsmc.c ****     LCD_WR_DATA(0x00);
 952:Core/Src/fsmc.c ****     LCD_WR_DATA(0x4F);
 953:Core/Src/fsmc.c ****     LCD_WR_DATA(0x00);
 954:Core/Src/fsmc.c ****     LCD_WR_DATA(0x61);
 955:Core/Src/fsmc.c ****     LCD_WR_DATA(0x00);
 956:Core/Src/fsmc.c ****     LCD_WR_DATA(0x79);
 957:Core/Src/fsmc.c ****     LCD_WR_DATA(0x00);
 958:Core/Src/fsmc.c ****     LCD_WR_DATA(0x88);
 959:Core/Src/fsmc.c ****     LCD_WR_DATA(0x00);
 960:Core/Src/fsmc.c ****     LCD_WR_DATA(0x97);
 961:Core/Src/fsmc.c ****     LCD_WR_DATA(0x00);
 962:Core/Src/fsmc.c ****     LCD_WR_DATA(0xA6);
 963:Core/Src/fsmc.c ****     LCD_WR_DATA(0x00);
 964:Core/Src/fsmc.c ****     LCD_WR_DATA(0xB7);
 965:Core/Src/fsmc.c ****     LCD_WR_DATA(0x00);
 966:Core/Src/fsmc.c ****     LCD_WR_DATA(0xC2);
 967:Core/Src/fsmc.c ****     LCD_WR_DATA(0x00);
 968:Core/Src/fsmc.c ****     LCD_WR_DATA(0xC7);
 969:Core/Src/fsmc.c ****     LCD_WR_DATA(0x00);
 970:Core/Src/fsmc.c ****     LCD_WR_DATA(0xD1);
 971:Core/Src/fsmc.c ****     LCD_WR_DATA(0x00);
 972:Core/Src/fsmc.c ****     LCD_WR_DATA(0xD6);
 973:Core/Src/fsmc.c ****     LCD_WR_DATA(0x00);
 974:Core/Src/fsmc.c ****     LCD_WR_DATA(0xDD);
 975:Core/Src/fsmc.c ****     LCD_WR_DATA(0x00);
 976:Core/Src/fsmc.c ****     LCD_WR_DATA(0xF3);
 977:Core/Src/fsmc.c ****     LCD_WR_DATA(0x00);
 978:Core/Src/fsmc.c ****     LCD_WR_REG(0xE3);
 979:Core/Src/fsmc.c ****     LCD_WR_DATA(0x05);
 980:Core/Src/fsmc.c ****     LCD_WR_DATA(0x00);
 981:Core/Src/fsmc.c ****     LCD_WR_DATA(0xA);
 982:Core/Src/fsmc.c ****     LCD_WR_DATA(0x00);
 983:Core/Src/fsmc.c ****     LCD_WR_DATA(0x1C);
 984:Core/Src/fsmc.c ****     LCD_WR_DATA(0x00);
 985:Core/Src/fsmc.c ****     LCD_WR_DATA(0x33);
 986:Core/Src/fsmc.c ****     LCD_WR_DATA(0x00);
 987:Core/Src/fsmc.c ****     LCD_WR_DATA(0x44);
 988:Core/Src/fsmc.c ****     LCD_WR_DATA(0x00);
 989:Core/Src/fsmc.c ****     LCD_WR_DATA(0x50);
 990:Core/Src/fsmc.c ****     LCD_WR_DATA(0x00);
 991:Core/Src/fsmc.c ****     LCD_WR_DATA(0x62);
 992:Core/Src/fsmc.c ****     LCD_WR_DATA(0x00);
 993:Core/Src/fsmc.c ****     LCD_WR_DATA(0x78);
 994:Core/Src/fsmc.c ****     LCD_WR_DATA(0x00);
 995:Core/Src/fsmc.c ****     LCD_WR_DATA(0x88);
 996:Core/Src/fsmc.c ****     LCD_WR_DATA(0x00);
 997:Core/Src/fsmc.c ****     LCD_WR_DATA(0x97);
 998:Core/Src/fsmc.c ****     LCD_WR_DATA(0x00);
 999:Core/Src/fsmc.c ****     LCD_WR_DATA(0xA6);
1000:Core/Src/fsmc.c ****     LCD_WR_DATA(0x00);
ARM GAS  /tmp/ccE1vrH2.s 			page 19


1001:Core/Src/fsmc.c ****     LCD_WR_DATA(0xB7);
1002:Core/Src/fsmc.c ****     LCD_WR_DATA(0x00);
1003:Core/Src/fsmc.c ****     LCD_WR_DATA(0xC2);
1004:Core/Src/fsmc.c ****     LCD_WR_DATA(0x00);
1005:Core/Src/fsmc.c ****     LCD_WR_DATA(0xC7);
1006:Core/Src/fsmc.c ****     LCD_WR_DATA(0x00);
1007:Core/Src/fsmc.c ****     LCD_WR_DATA(0xD1);
1008:Core/Src/fsmc.c ****     LCD_WR_DATA(0x00);
1009:Core/Src/fsmc.c ****     LCD_WR_DATA(0xD5);
1010:Core/Src/fsmc.c ****     LCD_WR_DATA(0x00);
1011:Core/Src/fsmc.c ****     LCD_WR_DATA(0xDD);
1012:Core/Src/fsmc.c ****     LCD_WR_DATA(0x00);
1013:Core/Src/fsmc.c ****     LCD_WR_DATA(0xF3);
1014:Core/Src/fsmc.c ****     LCD_WR_DATA(0x00);
1015:Core/Src/fsmc.c **** 
1016:Core/Src/fsmc.c ****     LCD_WR_REG(0xE4);
1017:Core/Src/fsmc.c ****     LCD_WR_DATA(0x01);
1018:Core/Src/fsmc.c ****     LCD_WR_DATA(0x00);
1019:Core/Src/fsmc.c ****     LCD_WR_DATA(0x01);
1020:Core/Src/fsmc.c ****     LCD_WR_DATA(0x00);
1021:Core/Src/fsmc.c ****     LCD_WR_DATA(0x02);
1022:Core/Src/fsmc.c ****     LCD_WR_DATA(0x00);
1023:Core/Src/fsmc.c ****     LCD_WR_DATA(0x2A);
1024:Core/Src/fsmc.c ****     LCD_WR_DATA(0x00);
1025:Core/Src/fsmc.c ****     LCD_WR_DATA(0x3C);
1026:Core/Src/fsmc.c ****     LCD_WR_DATA(0x00);
1027:Core/Src/fsmc.c ****     LCD_WR_DATA(0x4B);
1028:Core/Src/fsmc.c ****     LCD_WR_DATA(0x00);
1029:Core/Src/fsmc.c ****     LCD_WR_DATA(0x5D);
1030:Core/Src/fsmc.c ****     LCD_WR_DATA(0x00);
1031:Core/Src/fsmc.c ****     LCD_WR_DATA(0x74);
1032:Core/Src/fsmc.c ****     LCD_WR_DATA(0x00);
1033:Core/Src/fsmc.c ****     LCD_WR_DATA(0x84);
1034:Core/Src/fsmc.c ****     LCD_WR_DATA(0x00);
1035:Core/Src/fsmc.c ****     LCD_WR_DATA(0x93);
1036:Core/Src/fsmc.c ****     LCD_WR_DATA(0x00);
1037:Core/Src/fsmc.c ****     LCD_WR_DATA(0xA2);
1038:Core/Src/fsmc.c ****     LCD_WR_DATA(0x00);
1039:Core/Src/fsmc.c ****     LCD_WR_DATA(0xB3);
1040:Core/Src/fsmc.c ****     LCD_WR_DATA(0x00);
1041:Core/Src/fsmc.c ****     LCD_WR_DATA(0xBE);
1042:Core/Src/fsmc.c ****     LCD_WR_DATA(0x00);
1043:Core/Src/fsmc.c ****     LCD_WR_DATA(0xC4);
1044:Core/Src/fsmc.c ****     LCD_WR_DATA(0x00);
1045:Core/Src/fsmc.c ****     LCD_WR_DATA(0xCD);
1046:Core/Src/fsmc.c ****     LCD_WR_DATA(0x00);
1047:Core/Src/fsmc.c ****     LCD_WR_DATA(0xD3);
1048:Core/Src/fsmc.c ****     LCD_WR_DATA(0x00);
1049:Core/Src/fsmc.c ****     LCD_WR_DATA(0xDD);
1050:Core/Src/fsmc.c ****     LCD_WR_DATA(0x00);
1051:Core/Src/fsmc.c ****     LCD_WR_DATA(0xF3);
1052:Core/Src/fsmc.c ****     LCD_WR_DATA(0x00);
1053:Core/Src/fsmc.c ****     LCD_WR_REG(0xE5);
1054:Core/Src/fsmc.c ****     LCD_WR_DATA(0x00);
1055:Core/Src/fsmc.c ****     LCD_WR_DATA(0x00);
1056:Core/Src/fsmc.c ****     LCD_WR_DATA(0x00);
1057:Core/Src/fsmc.c ****     LCD_WR_DATA(0x00);
ARM GAS  /tmp/ccE1vrH2.s 			page 20


1058:Core/Src/fsmc.c ****     LCD_WR_DATA(0x02);
1059:Core/Src/fsmc.c ****     LCD_WR_DATA(0x00);
1060:Core/Src/fsmc.c ****     LCD_WR_DATA(0x29);
1061:Core/Src/fsmc.c ****     LCD_WR_DATA(0x00);
1062:Core/Src/fsmc.c ****     LCD_WR_DATA(0x3C);
1063:Core/Src/fsmc.c ****     LCD_WR_DATA(0x00);
1064:Core/Src/fsmc.c ****     LCD_WR_DATA(0x4B);
1065:Core/Src/fsmc.c ****     LCD_WR_DATA(0x00);
1066:Core/Src/fsmc.c ****     LCD_WR_DATA(0x5D);
1067:Core/Src/fsmc.c ****     LCD_WR_DATA(0x00);
1068:Core/Src/fsmc.c ****     LCD_WR_DATA(0x74);
1069:Core/Src/fsmc.c ****     LCD_WR_DATA(0x00);
1070:Core/Src/fsmc.c ****     LCD_WR_DATA(0x84);
1071:Core/Src/fsmc.c ****     LCD_WR_DATA(0x00);
1072:Core/Src/fsmc.c ****     LCD_WR_DATA(0x93);
1073:Core/Src/fsmc.c ****     LCD_WR_DATA(0x00);
1074:Core/Src/fsmc.c ****     LCD_WR_DATA(0xA2);
1075:Core/Src/fsmc.c ****     LCD_WR_DATA(0x00);
1076:Core/Src/fsmc.c ****     LCD_WR_DATA(0xB3);
1077:Core/Src/fsmc.c ****     LCD_WR_DATA(0x00);
1078:Core/Src/fsmc.c ****     LCD_WR_DATA(0xBE);
1079:Core/Src/fsmc.c ****     LCD_WR_DATA(0x00);
1080:Core/Src/fsmc.c ****     LCD_WR_DATA(0xC4);
1081:Core/Src/fsmc.c ****     LCD_WR_DATA(0x00);
1082:Core/Src/fsmc.c ****     LCD_WR_DATA(0xCD);
1083:Core/Src/fsmc.c ****     LCD_WR_DATA(0x00);
1084:Core/Src/fsmc.c ****     LCD_WR_DATA(0xD3);
1085:Core/Src/fsmc.c ****     LCD_WR_DATA(0x00);
1086:Core/Src/fsmc.c ****     LCD_WR_DATA(0xDC);
1087:Core/Src/fsmc.c ****     LCD_WR_DATA(0x00);
1088:Core/Src/fsmc.c ****     LCD_WR_DATA(0xF3);
1089:Core/Src/fsmc.c ****     LCD_WR_DATA(0x00);
1090:Core/Src/fsmc.c **** 
1091:Core/Src/fsmc.c ****     LCD_WR_REG(0xE6);
1092:Core/Src/fsmc.c ****     LCD_WR_DATA(0x11);
1093:Core/Src/fsmc.c ****     LCD_WR_DATA(0x00);
1094:Core/Src/fsmc.c ****     LCD_WR_DATA(0x34);
1095:Core/Src/fsmc.c ****     LCD_WR_DATA(0x00);
1096:Core/Src/fsmc.c ****     LCD_WR_DATA(0x56);
1097:Core/Src/fsmc.c ****     LCD_WR_DATA(0x00);
1098:Core/Src/fsmc.c ****     LCD_WR_DATA(0x76);
1099:Core/Src/fsmc.c ****     LCD_WR_DATA(0x00);
1100:Core/Src/fsmc.c ****     LCD_WR_DATA(0x77);
1101:Core/Src/fsmc.c ****     LCD_WR_DATA(0x00);
1102:Core/Src/fsmc.c ****     LCD_WR_DATA(0x66);
1103:Core/Src/fsmc.c ****     LCD_WR_DATA(0x00);
1104:Core/Src/fsmc.c ****     LCD_WR_DATA(0x88);
1105:Core/Src/fsmc.c ****     LCD_WR_DATA(0x00);
1106:Core/Src/fsmc.c ****     LCD_WR_DATA(0x99);
1107:Core/Src/fsmc.c ****     LCD_WR_DATA(0x00);
1108:Core/Src/fsmc.c ****     LCD_WR_DATA(0xBB);
1109:Core/Src/fsmc.c ****     LCD_WR_DATA(0x00);
1110:Core/Src/fsmc.c ****     LCD_WR_DATA(0x99);
1111:Core/Src/fsmc.c ****     LCD_WR_DATA(0x00);
1112:Core/Src/fsmc.c ****     LCD_WR_DATA(0x66);
1113:Core/Src/fsmc.c ****     LCD_WR_DATA(0x00);
1114:Core/Src/fsmc.c ****     LCD_WR_DATA(0x55);
ARM GAS  /tmp/ccE1vrH2.s 			page 21


1115:Core/Src/fsmc.c ****     LCD_WR_DATA(0x00);
1116:Core/Src/fsmc.c ****     LCD_WR_DATA(0x55);
1117:Core/Src/fsmc.c ****     LCD_WR_DATA(0x00);
1118:Core/Src/fsmc.c ****     LCD_WR_DATA(0x45);
1119:Core/Src/fsmc.c ****     LCD_WR_DATA(0x00);
1120:Core/Src/fsmc.c ****     LCD_WR_DATA(0x43);
1121:Core/Src/fsmc.c ****     LCD_WR_DATA(0x00);
1122:Core/Src/fsmc.c ****     LCD_WR_DATA(0x44);
1123:Core/Src/fsmc.c ****     LCD_WR_DATA(0x00);
1124:Core/Src/fsmc.c **** 
1125:Core/Src/fsmc.c ****     LCD_WR_REG(0xE7);
1126:Core/Src/fsmc.c ****     LCD_WR_DATA(0x32);
1127:Core/Src/fsmc.c ****     LCD_WR_DATA(0x00);
1128:Core/Src/fsmc.c ****     LCD_WR_DATA(0x55);
1129:Core/Src/fsmc.c ****     LCD_WR_DATA(0x00);
1130:Core/Src/fsmc.c ****     LCD_WR_DATA(0x76);
1131:Core/Src/fsmc.c ****     LCD_WR_DATA(0x00);
1132:Core/Src/fsmc.c ****     LCD_WR_DATA(0x66);
1133:Core/Src/fsmc.c ****     LCD_WR_DATA(0x00);
1134:Core/Src/fsmc.c ****     LCD_WR_DATA(0x67);
1135:Core/Src/fsmc.c ****     LCD_WR_DATA(0x00);
1136:Core/Src/fsmc.c ****     LCD_WR_DATA(0x67);
1137:Core/Src/fsmc.c ****     LCD_WR_DATA(0x00);
1138:Core/Src/fsmc.c ****     LCD_WR_DATA(0x87);
1139:Core/Src/fsmc.c ****     LCD_WR_DATA(0x00);
1140:Core/Src/fsmc.c ****     LCD_WR_DATA(0x99);
1141:Core/Src/fsmc.c ****     LCD_WR_DATA(0x00);
1142:Core/Src/fsmc.c ****     LCD_WR_DATA(0xBB);
1143:Core/Src/fsmc.c ****     LCD_WR_DATA(0x00);
1144:Core/Src/fsmc.c ****     LCD_WR_DATA(0x99);
1145:Core/Src/fsmc.c ****     LCD_WR_DATA(0x00);
1146:Core/Src/fsmc.c ****     LCD_WR_DATA(0x77);
1147:Core/Src/fsmc.c ****     LCD_WR_DATA(0x00);
1148:Core/Src/fsmc.c ****     LCD_WR_DATA(0x44);
1149:Core/Src/fsmc.c ****     LCD_WR_DATA(0x00);
1150:Core/Src/fsmc.c ****     LCD_WR_DATA(0x56);
1151:Core/Src/fsmc.c ****     LCD_WR_DATA(0x00);
1152:Core/Src/fsmc.c ****     LCD_WR_DATA(0x23);
1153:Core/Src/fsmc.c ****     LCD_WR_DATA(0x00);
1154:Core/Src/fsmc.c ****     LCD_WR_DATA(0x33);
1155:Core/Src/fsmc.c ****     LCD_WR_DATA(0x00);
1156:Core/Src/fsmc.c ****     LCD_WR_DATA(0x45);
1157:Core/Src/fsmc.c ****     LCD_WR_DATA(0x00);
1158:Core/Src/fsmc.c **** 
1159:Core/Src/fsmc.c ****     LCD_WR_REG(0xE8);
1160:Core/Src/fsmc.c ****     LCD_WR_DATA(0x00);
1161:Core/Src/fsmc.c ****     LCD_WR_DATA(0x00);
1162:Core/Src/fsmc.c ****     LCD_WR_DATA(0x99);
1163:Core/Src/fsmc.c ****     LCD_WR_DATA(0x00);
1164:Core/Src/fsmc.c ****     LCD_WR_DATA(0x87);
1165:Core/Src/fsmc.c ****     LCD_WR_DATA(0x00);
1166:Core/Src/fsmc.c ****     LCD_WR_DATA(0x88);
1167:Core/Src/fsmc.c ****     LCD_WR_DATA(0x00);
1168:Core/Src/fsmc.c ****     LCD_WR_DATA(0x77);
1169:Core/Src/fsmc.c ****     LCD_WR_DATA(0x00);
1170:Core/Src/fsmc.c ****     LCD_WR_DATA(0x66);
1171:Core/Src/fsmc.c ****     LCD_WR_DATA(0x00);
ARM GAS  /tmp/ccE1vrH2.s 			page 22


1172:Core/Src/fsmc.c ****     LCD_WR_DATA(0x88);
1173:Core/Src/fsmc.c ****     LCD_WR_DATA(0x00);
1174:Core/Src/fsmc.c ****     LCD_WR_DATA(0xAA);
1175:Core/Src/fsmc.c ****     LCD_WR_DATA(0x00);
1176:Core/Src/fsmc.c ****     LCD_WR_DATA(0xBB);
1177:Core/Src/fsmc.c ****     LCD_WR_DATA(0x00);
1178:Core/Src/fsmc.c ****     LCD_WR_DATA(0x99);
1179:Core/Src/fsmc.c ****     LCD_WR_DATA(0x00);
1180:Core/Src/fsmc.c ****     LCD_WR_DATA(0x66);
1181:Core/Src/fsmc.c ****     LCD_WR_DATA(0x00);
1182:Core/Src/fsmc.c ****     LCD_WR_DATA(0x55);
1183:Core/Src/fsmc.c ****     LCD_WR_DATA(0x00);
1184:Core/Src/fsmc.c ****     LCD_WR_DATA(0x55);
1185:Core/Src/fsmc.c ****     LCD_WR_DATA(0x00);
1186:Core/Src/fsmc.c ****     LCD_WR_DATA(0x44);
1187:Core/Src/fsmc.c ****     LCD_WR_DATA(0x00);
1188:Core/Src/fsmc.c ****     LCD_WR_DATA(0x44);
1189:Core/Src/fsmc.c ****     LCD_WR_DATA(0x00);
1190:Core/Src/fsmc.c ****     LCD_WR_DATA(0x55);
1191:Core/Src/fsmc.c ****     LCD_WR_DATA(0x00);
1192:Core/Src/fsmc.c **** 
1193:Core/Src/fsmc.c ****     LCD_WR_REG(0xE9);
1194:Core/Src/fsmc.c ****     LCD_WR_DATA(0xAA);
1195:Core/Src/fsmc.c ****     LCD_WR_DATA(0x00);
1196:Core/Src/fsmc.c ****     LCD_WR_DATA(0x00);
1197:Core/Src/fsmc.c ****     LCD_WR_DATA(0x00);
1198:Core/Src/fsmc.c **** 
1199:Core/Src/fsmc.c ****     LCD_WR_REG(0x00);
1200:Core/Src/fsmc.c ****     LCD_WR_DATA(0xAA);
1201:Core/Src/fsmc.c **** 
1202:Core/Src/fsmc.c ****     LCD_WR_REG(0xCF);
1203:Core/Src/fsmc.c ****     LCD_WR_DATA(0x00);
1204:Core/Src/fsmc.c ****     LCD_WR_DATA(0x00);
1205:Core/Src/fsmc.c ****     LCD_WR_DATA(0x00);
1206:Core/Src/fsmc.c ****     LCD_WR_DATA(0x00);
1207:Core/Src/fsmc.c ****     LCD_WR_DATA(0x00);
1208:Core/Src/fsmc.c ****     LCD_WR_DATA(0x00);
1209:Core/Src/fsmc.c ****     LCD_WR_DATA(0x00);
1210:Core/Src/fsmc.c ****     LCD_WR_DATA(0x00);
1211:Core/Src/fsmc.c ****     LCD_WR_DATA(0x00);
1212:Core/Src/fsmc.c ****     LCD_WR_DATA(0x00);
1213:Core/Src/fsmc.c ****     LCD_WR_DATA(0x00);
1214:Core/Src/fsmc.c ****     LCD_WR_DATA(0x00);
1215:Core/Src/fsmc.c ****     LCD_WR_DATA(0x00);
1216:Core/Src/fsmc.c ****     LCD_WR_DATA(0x00);
1217:Core/Src/fsmc.c ****     LCD_WR_DATA(0x00);
1218:Core/Src/fsmc.c ****     LCD_WR_DATA(0x00);
1219:Core/Src/fsmc.c ****     LCD_WR_DATA(0x00);
1220:Core/Src/fsmc.c **** 
1221:Core/Src/fsmc.c ****     LCD_WR_REG(0xF0);
1222:Core/Src/fsmc.c ****     LCD_WR_DATA(0x00);
1223:Core/Src/fsmc.c ****     LCD_WR_DATA(0x50);
1224:Core/Src/fsmc.c ****     LCD_WR_DATA(0x00);
1225:Core/Src/fsmc.c ****     LCD_WR_DATA(0x00);
1226:Core/Src/fsmc.c ****     LCD_WR_DATA(0x00);
1227:Core/Src/fsmc.c **** 
1228:Core/Src/fsmc.c ****     LCD_WR_REG(0xF3);
ARM GAS  /tmp/ccE1vrH2.s 			page 23


1229:Core/Src/fsmc.c ****     LCD_WR_DATA(0x00);
1230:Core/Src/fsmc.c **** 
1231:Core/Src/fsmc.c ****     LCD_WR_REG(0xF9);
1232:Core/Src/fsmc.c ****     LCD_WR_DATA(0x06);
1233:Core/Src/fsmc.c ****     LCD_WR_DATA(0x10);
1234:Core/Src/fsmc.c ****     LCD_WR_DATA(0x29);
1235:Core/Src/fsmc.c ****     LCD_WR_DATA(0x00);
1236:Core/Src/fsmc.c **** 
1237:Core/Src/fsmc.c ****     LCD_WR_REG(0x3A);
1238:Core/Src/fsmc.c ****     LCD_WR_DATA(0x55);	//66
1239:Core/Src/fsmc.c **** 
1240:Core/Src/fsmc.c ****     LCD_WR_REG(0x11);
1241:Core/Src/fsmc.c ****     HAL_Delay(100);
1242:Core/Src/fsmc.c ****     LCD_WR_REG(0x29);
1243:Core/Src/fsmc.c ****     LCD_WR_REG(0x35);
1244:Core/Src/fsmc.c ****     LCD_WR_DATA(0x00);
1245:Core/Src/fsmc.c **** 
1246:Core/Src/fsmc.c ****     LCD_WR_REG(0x51);
1247:Core/Src/fsmc.c ****     LCD_WR_DATA(0xFF);
1248:Core/Src/fsmc.c ****     LCD_WR_REG(0x53);
1249:Core/Src/fsmc.c ****     LCD_WR_DATA(0x2C);
1250:Core/Src/fsmc.c ****     LCD_WR_REG(0x55);
1251:Core/Src/fsmc.c ****     LCD_WR_DATA(0x82);
1252:Core/Src/fsmc.c ****     LCD_WR_REG(0x2c);
1253:Core/Src/fsmc.c ****   }else if(lcddev.id==0x5510)
1254:Core/Src/fsmc.c ****   {
1255:Core/Src/fsmc.c ****     LCD_WriteReg(0xF000,0x55);
1256:Core/Src/fsmc.c ****     LCD_WriteReg(0xF001,0xAA);
1257:Core/Src/fsmc.c ****     LCD_WriteReg(0xF002,0x52);
1258:Core/Src/fsmc.c ****     LCD_WriteReg(0xF003,0x08);
1259:Core/Src/fsmc.c ****     LCD_WriteReg(0xF004,0x01);
1260:Core/Src/fsmc.c ****     //AVDD Set AVDD 5.2V
1261:Core/Src/fsmc.c ****     LCD_WriteReg(0xB000,0x0D);
1262:Core/Src/fsmc.c ****     LCD_WriteReg(0xB001,0x0D);
1263:Core/Src/fsmc.c ****     LCD_WriteReg(0xB002,0x0D);
1264:Core/Src/fsmc.c ****     //AVDD ratio
1265:Core/Src/fsmc.c ****     LCD_WriteReg(0xB600,0x34);
1266:Core/Src/fsmc.c ****     LCD_WriteReg(0xB601,0x34);
1267:Core/Src/fsmc.c ****     LCD_WriteReg(0xB602,0x34);
1268:Core/Src/fsmc.c ****     //AVEE -5.2V
1269:Core/Src/fsmc.c ****     LCD_WriteReg(0xB100,0x0D);
1270:Core/Src/fsmc.c ****     LCD_WriteReg(0xB101,0x0D);
1271:Core/Src/fsmc.c ****     LCD_WriteReg(0xB102,0x0D);
1272:Core/Src/fsmc.c ****     //AVEE ratio
1273:Core/Src/fsmc.c ****     LCD_WriteReg(0xB700,0x34);
1274:Core/Src/fsmc.c ****     LCD_WriteReg(0xB701,0x34);
1275:Core/Src/fsmc.c ****     LCD_WriteReg(0xB702,0x34);
1276:Core/Src/fsmc.c ****     //VCL -2.5V
1277:Core/Src/fsmc.c ****     LCD_WriteReg(0xB200,0x00);
1278:Core/Src/fsmc.c ****     LCD_WriteReg(0xB201,0x00);
1279:Core/Src/fsmc.c ****     LCD_WriteReg(0xB202,0x00);
1280:Core/Src/fsmc.c ****     //VCL ratio
1281:Core/Src/fsmc.c ****     LCD_WriteReg(0xB800,0x24);
1282:Core/Src/fsmc.c ****     LCD_WriteReg(0xB801,0x24);
1283:Core/Src/fsmc.c ****     LCD_WriteReg(0xB802,0x24);
1284:Core/Src/fsmc.c ****     //VGH 15V (Free pump)
1285:Core/Src/fsmc.c ****     LCD_WriteReg(0xBF00,0x01);
ARM GAS  /tmp/ccE1vrH2.s 			page 24


1286:Core/Src/fsmc.c ****     LCD_WriteReg(0xB300,0x0F);
1287:Core/Src/fsmc.c ****     LCD_WriteReg(0xB301,0x0F);
1288:Core/Src/fsmc.c ****     LCD_WriteReg(0xB302,0x0F);
1289:Core/Src/fsmc.c ****     //VGH ratio
1290:Core/Src/fsmc.c ****     LCD_WriteReg(0xB900,0x34);
1291:Core/Src/fsmc.c ****     LCD_WriteReg(0xB901,0x34);
1292:Core/Src/fsmc.c ****     LCD_WriteReg(0xB902,0x34);
1293:Core/Src/fsmc.c ****     //VGL_REG -10V
1294:Core/Src/fsmc.c ****     LCD_WriteReg(0xB500,0x08);
1295:Core/Src/fsmc.c ****     LCD_WriteReg(0xB501,0x08);
1296:Core/Src/fsmc.c ****     LCD_WriteReg(0xB502,0x08);
1297:Core/Src/fsmc.c ****     LCD_WriteReg(0xC200,0x03);
1298:Core/Src/fsmc.c ****     //VGLX ratio
1299:Core/Src/fsmc.c ****     LCD_WriteReg(0xBA00,0x24);
1300:Core/Src/fsmc.c ****     LCD_WriteReg(0xBA01,0x24);
1301:Core/Src/fsmc.c ****     LCD_WriteReg(0xBA02,0x24);
1302:Core/Src/fsmc.c ****     //VGMP/VGSP 4.5V/0V
1303:Core/Src/fsmc.c ****     LCD_WriteReg(0xBC00,0x00);
1304:Core/Src/fsmc.c ****     LCD_WriteReg(0xBC01,0x78);
1305:Core/Src/fsmc.c ****     LCD_WriteReg(0xBC02,0x00);
1306:Core/Src/fsmc.c ****     //VGMN/VGSN -4.5V/0V
1307:Core/Src/fsmc.c ****     LCD_WriteReg(0xBD00,0x00);
1308:Core/Src/fsmc.c ****     LCD_WriteReg(0xBD01,0x78);
1309:Core/Src/fsmc.c ****     LCD_WriteReg(0xBD02,0x00);
1310:Core/Src/fsmc.c ****     //VCOM
1311:Core/Src/fsmc.c ****     LCD_WriteReg(0xBE00,0x00);
1312:Core/Src/fsmc.c ****     LCD_WriteReg(0xBE01,0x64);
1313:Core/Src/fsmc.c ****     //Gamma Setting
1314:Core/Src/fsmc.c ****     LCD_WriteReg(0xD100,0x00);
1315:Core/Src/fsmc.c ****     LCD_WriteReg(0xD101,0x33);
1316:Core/Src/fsmc.c ****     LCD_WriteReg(0xD102,0x00);
1317:Core/Src/fsmc.c ****     LCD_WriteReg(0xD103,0x34);
1318:Core/Src/fsmc.c ****     LCD_WriteReg(0xD104,0x00);
1319:Core/Src/fsmc.c ****     LCD_WriteReg(0xD105,0x3A);
1320:Core/Src/fsmc.c ****     LCD_WriteReg(0xD106,0x00);
1321:Core/Src/fsmc.c ****     LCD_WriteReg(0xD107,0x4A);
1322:Core/Src/fsmc.c ****     LCD_WriteReg(0xD108,0x00);
1323:Core/Src/fsmc.c ****     LCD_WriteReg(0xD109,0x5C);
1324:Core/Src/fsmc.c ****     LCD_WriteReg(0xD10A,0x00);
1325:Core/Src/fsmc.c ****     LCD_WriteReg(0xD10B,0x81);
1326:Core/Src/fsmc.c ****     LCD_WriteReg(0xD10C,0x00);
1327:Core/Src/fsmc.c ****     LCD_WriteReg(0xD10D,0xA6);
1328:Core/Src/fsmc.c ****     LCD_WriteReg(0xD10E,0x00);
1329:Core/Src/fsmc.c ****     LCD_WriteReg(0xD10F,0xE5);
1330:Core/Src/fsmc.c ****     LCD_WriteReg(0xD110,0x01);
1331:Core/Src/fsmc.c ****     LCD_WriteReg(0xD111,0x13);
1332:Core/Src/fsmc.c ****     LCD_WriteReg(0xD112,0x01);
1333:Core/Src/fsmc.c ****     LCD_WriteReg(0xD113,0x54);
1334:Core/Src/fsmc.c ****     LCD_WriteReg(0xD114,0x01);
1335:Core/Src/fsmc.c ****     LCD_WriteReg(0xD115,0x82);
1336:Core/Src/fsmc.c ****     LCD_WriteReg(0xD116,0x01);
1337:Core/Src/fsmc.c ****     LCD_WriteReg(0xD117,0xCA);
1338:Core/Src/fsmc.c ****     LCD_WriteReg(0xD118,0x02);
1339:Core/Src/fsmc.c ****     LCD_WriteReg(0xD119,0x00);
1340:Core/Src/fsmc.c ****     LCD_WriteReg(0xD11A,0x02);
1341:Core/Src/fsmc.c ****     LCD_WriteReg(0xD11B,0x01);
1342:Core/Src/fsmc.c ****     LCD_WriteReg(0xD11C,0x02);
ARM GAS  /tmp/ccE1vrH2.s 			page 25


1343:Core/Src/fsmc.c ****     LCD_WriteReg(0xD11D,0x34);
1344:Core/Src/fsmc.c ****     LCD_WriteReg(0xD11E,0x02);
1345:Core/Src/fsmc.c ****     LCD_WriteReg(0xD11F,0x67);
1346:Core/Src/fsmc.c ****     LCD_WriteReg(0xD120,0x02);
1347:Core/Src/fsmc.c ****     LCD_WriteReg(0xD121,0x84);
1348:Core/Src/fsmc.c ****     LCD_WriteReg(0xD122,0x02);
1349:Core/Src/fsmc.c ****     LCD_WriteReg(0xD123,0xA4);
1350:Core/Src/fsmc.c ****     LCD_WriteReg(0xD124,0x02);
1351:Core/Src/fsmc.c ****     LCD_WriteReg(0xD125,0xB7);
1352:Core/Src/fsmc.c ****     LCD_WriteReg(0xD126,0x02);
1353:Core/Src/fsmc.c ****     LCD_WriteReg(0xD127,0xCF);
1354:Core/Src/fsmc.c ****     LCD_WriteReg(0xD128,0x02);
1355:Core/Src/fsmc.c ****     LCD_WriteReg(0xD129,0xDE);
1356:Core/Src/fsmc.c ****     LCD_WriteReg(0xD12A,0x02);
1357:Core/Src/fsmc.c ****     LCD_WriteReg(0xD12B,0xF2);
1358:Core/Src/fsmc.c ****     LCD_WriteReg(0xD12C,0x02);
1359:Core/Src/fsmc.c ****     LCD_WriteReg(0xD12D,0xFE);
1360:Core/Src/fsmc.c ****     LCD_WriteReg(0xD12E,0x03);
1361:Core/Src/fsmc.c ****     LCD_WriteReg(0xD12F,0x10);
1362:Core/Src/fsmc.c ****     LCD_WriteReg(0xD130,0x03);
1363:Core/Src/fsmc.c ****     LCD_WriteReg(0xD131,0x33);
1364:Core/Src/fsmc.c ****     LCD_WriteReg(0xD132,0x03);
1365:Core/Src/fsmc.c ****     LCD_WriteReg(0xD133,0x6D);
1366:Core/Src/fsmc.c ****     LCD_WriteReg(0xD200,0x00);
1367:Core/Src/fsmc.c ****     LCD_WriteReg(0xD201,0x33);
1368:Core/Src/fsmc.c ****     LCD_WriteReg(0xD202,0x00);
1369:Core/Src/fsmc.c ****     LCD_WriteReg(0xD203,0x34);
1370:Core/Src/fsmc.c ****     LCD_WriteReg(0xD204,0x00);
1371:Core/Src/fsmc.c ****     LCD_WriteReg(0xD205,0x3A);
1372:Core/Src/fsmc.c ****     LCD_WriteReg(0xD206,0x00);
1373:Core/Src/fsmc.c ****     LCD_WriteReg(0xD207,0x4A);
1374:Core/Src/fsmc.c ****     LCD_WriteReg(0xD208,0x00);
1375:Core/Src/fsmc.c ****     LCD_WriteReg(0xD209,0x5C);
1376:Core/Src/fsmc.c ****     LCD_WriteReg(0xD20A,0x00);
1377:Core/Src/fsmc.c **** 
1378:Core/Src/fsmc.c ****     LCD_WriteReg(0xD20B,0x81);
1379:Core/Src/fsmc.c ****     LCD_WriteReg(0xD20C,0x00);
1380:Core/Src/fsmc.c ****     LCD_WriteReg(0xD20D,0xA6);
1381:Core/Src/fsmc.c ****     LCD_WriteReg(0xD20E,0x00);
1382:Core/Src/fsmc.c ****     LCD_WriteReg(0xD20F,0xE5);
1383:Core/Src/fsmc.c ****     LCD_WriteReg(0xD210,0x01);
1384:Core/Src/fsmc.c ****     LCD_WriteReg(0xD211,0x13);
1385:Core/Src/fsmc.c ****     LCD_WriteReg(0xD212,0x01);
1386:Core/Src/fsmc.c ****     LCD_WriteReg(0xD213,0x54);
1387:Core/Src/fsmc.c ****     LCD_WriteReg(0xD214,0x01);
1388:Core/Src/fsmc.c ****     LCD_WriteReg(0xD215,0x82);
1389:Core/Src/fsmc.c ****     LCD_WriteReg(0xD216,0x01);
1390:Core/Src/fsmc.c ****     LCD_WriteReg(0xD217,0xCA);
1391:Core/Src/fsmc.c ****     LCD_WriteReg(0xD218,0x02);
1392:Core/Src/fsmc.c ****     LCD_WriteReg(0xD219,0x00);
1393:Core/Src/fsmc.c ****     LCD_WriteReg(0xD21A,0x02);
1394:Core/Src/fsmc.c ****     LCD_WriteReg(0xD21B,0x01);
1395:Core/Src/fsmc.c ****     LCD_WriteReg(0xD21C,0x02);
1396:Core/Src/fsmc.c ****     LCD_WriteReg(0xD21D,0x34);
1397:Core/Src/fsmc.c ****     LCD_WriteReg(0xD21E,0x02);
1398:Core/Src/fsmc.c ****     LCD_WriteReg(0xD21F,0x67);
1399:Core/Src/fsmc.c ****     LCD_WriteReg(0xD220,0x02);
ARM GAS  /tmp/ccE1vrH2.s 			page 26


1400:Core/Src/fsmc.c ****     LCD_WriteReg(0xD221,0x84);
1401:Core/Src/fsmc.c ****     LCD_WriteReg(0xD222,0x02);
1402:Core/Src/fsmc.c ****     LCD_WriteReg(0xD223,0xA4);
1403:Core/Src/fsmc.c ****     LCD_WriteReg(0xD224,0x02);
1404:Core/Src/fsmc.c ****     LCD_WriteReg(0xD225,0xB7);
1405:Core/Src/fsmc.c ****     LCD_WriteReg(0xD226,0x02);
1406:Core/Src/fsmc.c ****     LCD_WriteReg(0xD227,0xCF);
1407:Core/Src/fsmc.c ****     LCD_WriteReg(0xD228,0x02);
1408:Core/Src/fsmc.c ****     LCD_WriteReg(0xD229,0xDE);
1409:Core/Src/fsmc.c ****     LCD_WriteReg(0xD22A,0x02);
1410:Core/Src/fsmc.c ****     LCD_WriteReg(0xD22B,0xF2);
1411:Core/Src/fsmc.c ****     LCD_WriteReg(0xD22C,0x02);
1412:Core/Src/fsmc.c ****     LCD_WriteReg(0xD22D,0xFE);
1413:Core/Src/fsmc.c ****     LCD_WriteReg(0xD22E,0x03);
1414:Core/Src/fsmc.c ****     LCD_WriteReg(0xD22F,0x10);
1415:Core/Src/fsmc.c ****     LCD_WriteReg(0xD230,0x03);
1416:Core/Src/fsmc.c ****     LCD_WriteReg(0xD231,0x33);
1417:Core/Src/fsmc.c ****     LCD_WriteReg(0xD232,0x03);
1418:Core/Src/fsmc.c ****     LCD_WriteReg(0xD233,0x6D);
1419:Core/Src/fsmc.c ****     LCD_WriteReg(0xD300,0x00);
1420:Core/Src/fsmc.c ****     LCD_WriteReg(0xD301,0x33);
1421:Core/Src/fsmc.c ****     LCD_WriteReg(0xD302,0x00);
1422:Core/Src/fsmc.c ****     LCD_WriteReg(0xD303,0x34);
1423:Core/Src/fsmc.c ****     LCD_WriteReg(0xD304,0x00);
1424:Core/Src/fsmc.c ****     LCD_WriteReg(0xD305,0x3A);
1425:Core/Src/fsmc.c ****     LCD_WriteReg(0xD306,0x00);
1426:Core/Src/fsmc.c ****     LCD_WriteReg(0xD307,0x4A);
1427:Core/Src/fsmc.c ****     LCD_WriteReg(0xD308,0x00);
1428:Core/Src/fsmc.c ****     LCD_WriteReg(0xD309,0x5C);
1429:Core/Src/fsmc.c ****     LCD_WriteReg(0xD30A,0x00);
1430:Core/Src/fsmc.c **** 
1431:Core/Src/fsmc.c ****     LCD_WriteReg(0xD30B,0x81);
1432:Core/Src/fsmc.c ****     LCD_WriteReg(0xD30C,0x00);
1433:Core/Src/fsmc.c ****     LCD_WriteReg(0xD30D,0xA6);
1434:Core/Src/fsmc.c ****     LCD_WriteReg(0xD30E,0x00);
1435:Core/Src/fsmc.c ****     LCD_WriteReg(0xD30F,0xE5);
1436:Core/Src/fsmc.c ****     LCD_WriteReg(0xD310,0x01);
1437:Core/Src/fsmc.c ****     LCD_WriteReg(0xD311,0x13);
1438:Core/Src/fsmc.c ****     LCD_WriteReg(0xD312,0x01);
1439:Core/Src/fsmc.c ****     LCD_WriteReg(0xD313,0x54);
1440:Core/Src/fsmc.c ****     LCD_WriteReg(0xD314,0x01);
1441:Core/Src/fsmc.c ****     LCD_WriteReg(0xD315,0x82);
1442:Core/Src/fsmc.c ****     LCD_WriteReg(0xD316,0x01);
1443:Core/Src/fsmc.c ****     LCD_WriteReg(0xD317,0xCA);
1444:Core/Src/fsmc.c ****     LCD_WriteReg(0xD318,0x02);
1445:Core/Src/fsmc.c ****     LCD_WriteReg(0xD319,0x00);
1446:Core/Src/fsmc.c ****     LCD_WriteReg(0xD31A,0x02);
1447:Core/Src/fsmc.c ****     LCD_WriteReg(0xD31B,0x01);
1448:Core/Src/fsmc.c ****     LCD_WriteReg(0xD31C,0x02);
1449:Core/Src/fsmc.c ****     LCD_WriteReg(0xD31D,0x34);
1450:Core/Src/fsmc.c ****     LCD_WriteReg(0xD31E,0x02);
1451:Core/Src/fsmc.c ****     LCD_WriteReg(0xD31F,0x67);
1452:Core/Src/fsmc.c ****     LCD_WriteReg(0xD320,0x02);
1453:Core/Src/fsmc.c ****     LCD_WriteReg(0xD321,0x84);
1454:Core/Src/fsmc.c ****     LCD_WriteReg(0xD322,0x02);
1455:Core/Src/fsmc.c ****     LCD_WriteReg(0xD323,0xA4);
1456:Core/Src/fsmc.c ****     LCD_WriteReg(0xD324,0x02);
ARM GAS  /tmp/ccE1vrH2.s 			page 27


1457:Core/Src/fsmc.c ****     LCD_WriteReg(0xD325,0xB7);
1458:Core/Src/fsmc.c ****     LCD_WriteReg(0xD326,0x02);
1459:Core/Src/fsmc.c ****     LCD_WriteReg(0xD327,0xCF);
1460:Core/Src/fsmc.c ****     LCD_WriteReg(0xD328,0x02);
1461:Core/Src/fsmc.c ****     LCD_WriteReg(0xD329,0xDE);
1462:Core/Src/fsmc.c ****     LCD_WriteReg(0xD32A,0x02);
1463:Core/Src/fsmc.c ****     LCD_WriteReg(0xD32B,0xF2);
1464:Core/Src/fsmc.c ****     LCD_WriteReg(0xD32C,0x02);
1465:Core/Src/fsmc.c ****     LCD_WriteReg(0xD32D,0xFE);
1466:Core/Src/fsmc.c ****     LCD_WriteReg(0xD32E,0x03);
1467:Core/Src/fsmc.c ****     LCD_WriteReg(0xD32F,0x10);
1468:Core/Src/fsmc.c ****     LCD_WriteReg(0xD330,0x03);
1469:Core/Src/fsmc.c ****     LCD_WriteReg(0xD331,0x33);
1470:Core/Src/fsmc.c ****     LCD_WriteReg(0xD332,0x03);
1471:Core/Src/fsmc.c ****     LCD_WriteReg(0xD333,0x6D);
1472:Core/Src/fsmc.c ****     LCD_WriteReg(0xD400,0x00);
1473:Core/Src/fsmc.c ****     LCD_WriteReg(0xD401,0x33);
1474:Core/Src/fsmc.c ****     LCD_WriteReg(0xD402,0x00);
1475:Core/Src/fsmc.c ****     LCD_WriteReg(0xD403,0x34);
1476:Core/Src/fsmc.c ****     LCD_WriteReg(0xD404,0x00);
1477:Core/Src/fsmc.c ****     LCD_WriteReg(0xD405,0x3A);
1478:Core/Src/fsmc.c ****     LCD_WriteReg(0xD406,0x00);
1479:Core/Src/fsmc.c ****     LCD_WriteReg(0xD407,0x4A);
1480:Core/Src/fsmc.c ****     LCD_WriteReg(0xD408,0x00);
1481:Core/Src/fsmc.c ****     LCD_WriteReg(0xD409,0x5C);
1482:Core/Src/fsmc.c ****     LCD_WriteReg(0xD40A,0x00);
1483:Core/Src/fsmc.c ****     LCD_WriteReg(0xD40B,0x81);
1484:Core/Src/fsmc.c **** 
1485:Core/Src/fsmc.c ****     LCD_WriteReg(0xD40C,0x00);
1486:Core/Src/fsmc.c ****     LCD_WriteReg(0xD40D,0xA6);
1487:Core/Src/fsmc.c ****     LCD_WriteReg(0xD40E,0x00);
1488:Core/Src/fsmc.c ****     LCD_WriteReg(0xD40F,0xE5);
1489:Core/Src/fsmc.c ****     LCD_WriteReg(0xD410,0x01);
1490:Core/Src/fsmc.c ****     LCD_WriteReg(0xD411,0x13);
1491:Core/Src/fsmc.c ****     LCD_WriteReg(0xD412,0x01);
1492:Core/Src/fsmc.c ****     LCD_WriteReg(0xD413,0x54);
1493:Core/Src/fsmc.c ****     LCD_WriteReg(0xD414,0x01);
1494:Core/Src/fsmc.c ****     LCD_WriteReg(0xD415,0x82);
1495:Core/Src/fsmc.c ****     LCD_WriteReg(0xD416,0x01);
1496:Core/Src/fsmc.c ****     LCD_WriteReg(0xD417,0xCA);
1497:Core/Src/fsmc.c ****     LCD_WriteReg(0xD418,0x02);
1498:Core/Src/fsmc.c ****     LCD_WriteReg(0xD419,0x00);
1499:Core/Src/fsmc.c ****     LCD_WriteReg(0xD41A,0x02);
1500:Core/Src/fsmc.c ****     LCD_WriteReg(0xD41B,0x01);
1501:Core/Src/fsmc.c ****     LCD_WriteReg(0xD41C,0x02);
1502:Core/Src/fsmc.c ****     LCD_WriteReg(0xD41D,0x34);
1503:Core/Src/fsmc.c ****     LCD_WriteReg(0xD41E,0x02);
1504:Core/Src/fsmc.c ****     LCD_WriteReg(0xD41F,0x67);
1505:Core/Src/fsmc.c ****     LCD_WriteReg(0xD420,0x02);
1506:Core/Src/fsmc.c ****     LCD_WriteReg(0xD421,0x84);
1507:Core/Src/fsmc.c ****     LCD_WriteReg(0xD422,0x02);
1508:Core/Src/fsmc.c ****     LCD_WriteReg(0xD423,0xA4);
1509:Core/Src/fsmc.c ****     LCD_WriteReg(0xD424,0x02);
1510:Core/Src/fsmc.c ****     LCD_WriteReg(0xD425,0xB7);
1511:Core/Src/fsmc.c ****     LCD_WriteReg(0xD426,0x02);
1512:Core/Src/fsmc.c ****     LCD_WriteReg(0xD427,0xCF);
1513:Core/Src/fsmc.c ****     LCD_WriteReg(0xD428,0x02);
ARM GAS  /tmp/ccE1vrH2.s 			page 28


1514:Core/Src/fsmc.c ****     LCD_WriteReg(0xD429,0xDE);
1515:Core/Src/fsmc.c ****     LCD_WriteReg(0xD42A,0x02);
1516:Core/Src/fsmc.c ****     LCD_WriteReg(0xD42B,0xF2);
1517:Core/Src/fsmc.c ****     LCD_WriteReg(0xD42C,0x02);
1518:Core/Src/fsmc.c ****     LCD_WriteReg(0xD42D,0xFE);
1519:Core/Src/fsmc.c ****     LCD_WriteReg(0xD42E,0x03);
1520:Core/Src/fsmc.c ****     LCD_WriteReg(0xD42F,0x10);
1521:Core/Src/fsmc.c ****     LCD_WriteReg(0xD430,0x03);
1522:Core/Src/fsmc.c ****     LCD_WriteReg(0xD431,0x33);
1523:Core/Src/fsmc.c ****     LCD_WriteReg(0xD432,0x03);
1524:Core/Src/fsmc.c ****     LCD_WriteReg(0xD433,0x6D);
1525:Core/Src/fsmc.c ****     LCD_WriteReg(0xD500,0x00);
1526:Core/Src/fsmc.c ****     LCD_WriteReg(0xD501,0x33);
1527:Core/Src/fsmc.c ****     LCD_WriteReg(0xD502,0x00);
1528:Core/Src/fsmc.c ****     LCD_WriteReg(0xD503,0x34);
1529:Core/Src/fsmc.c ****     LCD_WriteReg(0xD504,0x00);
1530:Core/Src/fsmc.c ****     LCD_WriteReg(0xD505,0x3A);
1531:Core/Src/fsmc.c ****     LCD_WriteReg(0xD506,0x00);
1532:Core/Src/fsmc.c ****     LCD_WriteReg(0xD507,0x4A);
1533:Core/Src/fsmc.c ****     LCD_WriteReg(0xD508,0x00);
1534:Core/Src/fsmc.c ****     LCD_WriteReg(0xD509,0x5C);
1535:Core/Src/fsmc.c ****     LCD_WriteReg(0xD50A,0x00);
1536:Core/Src/fsmc.c ****     LCD_WriteReg(0xD50B,0x81);
1537:Core/Src/fsmc.c **** 
1538:Core/Src/fsmc.c ****     LCD_WriteReg(0xD50C,0x00);
1539:Core/Src/fsmc.c ****     LCD_WriteReg(0xD50D,0xA6);
1540:Core/Src/fsmc.c ****     LCD_WriteReg(0xD50E,0x00);
1541:Core/Src/fsmc.c ****     LCD_WriteReg(0xD50F,0xE5);
1542:Core/Src/fsmc.c ****     LCD_WriteReg(0xD510,0x01);
1543:Core/Src/fsmc.c ****     LCD_WriteReg(0xD511,0x13);
1544:Core/Src/fsmc.c ****     LCD_WriteReg(0xD512,0x01);
1545:Core/Src/fsmc.c ****     LCD_WriteReg(0xD513,0x54);
1546:Core/Src/fsmc.c ****     LCD_WriteReg(0xD514,0x01);
1547:Core/Src/fsmc.c ****     LCD_WriteReg(0xD515,0x82);
1548:Core/Src/fsmc.c ****     LCD_WriteReg(0xD516,0x01);
1549:Core/Src/fsmc.c ****     LCD_WriteReg(0xD517,0xCA);
1550:Core/Src/fsmc.c ****     LCD_WriteReg(0xD518,0x02);
1551:Core/Src/fsmc.c ****     LCD_WriteReg(0xD519,0x00);
1552:Core/Src/fsmc.c ****     LCD_WriteReg(0xD51A,0x02);
1553:Core/Src/fsmc.c ****     LCD_WriteReg(0xD51B,0x01);
1554:Core/Src/fsmc.c ****     LCD_WriteReg(0xD51C,0x02);
1555:Core/Src/fsmc.c ****     LCD_WriteReg(0xD51D,0x34);
1556:Core/Src/fsmc.c ****     LCD_WriteReg(0xD51E,0x02);
1557:Core/Src/fsmc.c ****     LCD_WriteReg(0xD51F,0x67);
1558:Core/Src/fsmc.c ****     LCD_WriteReg(0xD520,0x02);
1559:Core/Src/fsmc.c ****     LCD_WriteReg(0xD521,0x84);
1560:Core/Src/fsmc.c ****     LCD_WriteReg(0xD522,0x02);
1561:Core/Src/fsmc.c ****     LCD_WriteReg(0xD523,0xA4);
1562:Core/Src/fsmc.c ****     LCD_WriteReg(0xD524,0x02);
1563:Core/Src/fsmc.c ****     LCD_WriteReg(0xD525,0xB7);
1564:Core/Src/fsmc.c ****     LCD_WriteReg(0xD526,0x02);
1565:Core/Src/fsmc.c ****     LCD_WriteReg(0xD527,0xCF);
1566:Core/Src/fsmc.c ****     LCD_WriteReg(0xD528,0x02);
1567:Core/Src/fsmc.c ****     LCD_WriteReg(0xD529,0xDE);
1568:Core/Src/fsmc.c ****     LCD_WriteReg(0xD52A,0x02);
1569:Core/Src/fsmc.c ****     LCD_WriteReg(0xD52B,0xF2);
1570:Core/Src/fsmc.c ****     LCD_WriteReg(0xD52C,0x02);
ARM GAS  /tmp/ccE1vrH2.s 			page 29


1571:Core/Src/fsmc.c ****     LCD_WriteReg(0xD52D,0xFE);
1572:Core/Src/fsmc.c ****     LCD_WriteReg(0xD52E,0x03);
1573:Core/Src/fsmc.c ****     LCD_WriteReg(0xD52F,0x10);
1574:Core/Src/fsmc.c ****     LCD_WriteReg(0xD530,0x03);
1575:Core/Src/fsmc.c ****     LCD_WriteReg(0xD531,0x33);
1576:Core/Src/fsmc.c ****     LCD_WriteReg(0xD532,0x03);
1577:Core/Src/fsmc.c ****     LCD_WriteReg(0xD533,0x6D);
1578:Core/Src/fsmc.c ****     LCD_WriteReg(0xD600,0x00);
1579:Core/Src/fsmc.c ****     LCD_WriteReg(0xD601,0x33);
1580:Core/Src/fsmc.c ****     LCD_WriteReg(0xD602,0x00);
1581:Core/Src/fsmc.c ****     LCD_WriteReg(0xD603,0x34);
1582:Core/Src/fsmc.c ****     LCD_WriteReg(0xD604,0x00);
1583:Core/Src/fsmc.c ****     LCD_WriteReg(0xD605,0x3A);
1584:Core/Src/fsmc.c ****     LCD_WriteReg(0xD606,0x00);
1585:Core/Src/fsmc.c ****     LCD_WriteReg(0xD607,0x4A);
1586:Core/Src/fsmc.c ****     LCD_WriteReg(0xD608,0x00);
1587:Core/Src/fsmc.c ****     LCD_WriteReg(0xD609,0x5C);
1588:Core/Src/fsmc.c ****     LCD_WriteReg(0xD60A,0x00);
1589:Core/Src/fsmc.c ****     LCD_WriteReg(0xD60B,0x81);
1590:Core/Src/fsmc.c **** 
1591:Core/Src/fsmc.c ****     LCD_WriteReg(0xD60C,0x00);
1592:Core/Src/fsmc.c ****     LCD_WriteReg(0xD60D,0xA6);
1593:Core/Src/fsmc.c ****     LCD_WriteReg(0xD60E,0x00);
1594:Core/Src/fsmc.c ****     LCD_WriteReg(0xD60F,0xE5);
1595:Core/Src/fsmc.c ****     LCD_WriteReg(0xD610,0x01);
1596:Core/Src/fsmc.c ****     LCD_WriteReg(0xD611,0x13);
1597:Core/Src/fsmc.c ****     LCD_WriteReg(0xD612,0x01);
1598:Core/Src/fsmc.c ****     LCD_WriteReg(0xD613,0x54);
1599:Core/Src/fsmc.c ****     LCD_WriteReg(0xD614,0x01);
1600:Core/Src/fsmc.c ****     LCD_WriteReg(0xD615,0x82);
1601:Core/Src/fsmc.c ****     LCD_WriteReg(0xD616,0x01);
1602:Core/Src/fsmc.c ****     LCD_WriteReg(0xD617,0xCA);
1603:Core/Src/fsmc.c ****     LCD_WriteReg(0xD618,0x02);
1604:Core/Src/fsmc.c ****     LCD_WriteReg(0xD619,0x00);
1605:Core/Src/fsmc.c ****     LCD_WriteReg(0xD61A,0x02);
1606:Core/Src/fsmc.c ****     LCD_WriteReg(0xD61B,0x01);
1607:Core/Src/fsmc.c ****     LCD_WriteReg(0xD61C,0x02);
1608:Core/Src/fsmc.c ****     LCD_WriteReg(0xD61D,0x34);
1609:Core/Src/fsmc.c ****     LCD_WriteReg(0xD61E,0x02);
1610:Core/Src/fsmc.c ****     LCD_WriteReg(0xD61F,0x67);
1611:Core/Src/fsmc.c ****     LCD_WriteReg(0xD620,0x02);
1612:Core/Src/fsmc.c ****     LCD_WriteReg(0xD621,0x84);
1613:Core/Src/fsmc.c ****     LCD_WriteReg(0xD622,0x02);
1614:Core/Src/fsmc.c ****     LCD_WriteReg(0xD623,0xA4);
1615:Core/Src/fsmc.c ****     LCD_WriteReg(0xD624,0x02);
1616:Core/Src/fsmc.c ****     LCD_WriteReg(0xD625,0xB7);
1617:Core/Src/fsmc.c ****     LCD_WriteReg(0xD626,0x02);
1618:Core/Src/fsmc.c ****     LCD_WriteReg(0xD627,0xCF);
1619:Core/Src/fsmc.c ****     LCD_WriteReg(0xD628,0x02);
1620:Core/Src/fsmc.c ****     LCD_WriteReg(0xD629,0xDE);
1621:Core/Src/fsmc.c ****     LCD_WriteReg(0xD62A,0x02);
1622:Core/Src/fsmc.c ****     LCD_WriteReg(0xD62B,0xF2);
1623:Core/Src/fsmc.c ****     LCD_WriteReg(0xD62C,0x02);
1624:Core/Src/fsmc.c ****     LCD_WriteReg(0xD62D,0xFE);
1625:Core/Src/fsmc.c ****     LCD_WriteReg(0xD62E,0x03);
1626:Core/Src/fsmc.c ****     LCD_WriteReg(0xD62F,0x10);
1627:Core/Src/fsmc.c ****     LCD_WriteReg(0xD630,0x03);
ARM GAS  /tmp/ccE1vrH2.s 			page 30


1628:Core/Src/fsmc.c ****     LCD_WriteReg(0xD631,0x33);
1629:Core/Src/fsmc.c ****     LCD_WriteReg(0xD632,0x03);
1630:Core/Src/fsmc.c ****     LCD_WriteReg(0xD633,0x6D);
1631:Core/Src/fsmc.c ****     //LV2 Page 0 enable
1632:Core/Src/fsmc.c ****     LCD_WriteReg(0xF000,0x55);
1633:Core/Src/fsmc.c ****     LCD_WriteReg(0xF001,0xAA);
1634:Core/Src/fsmc.c ****     LCD_WriteReg(0xF002,0x52);
1635:Core/Src/fsmc.c ****     LCD_WriteReg(0xF003,0x08);
1636:Core/Src/fsmc.c ****     LCD_WriteReg(0xF004,0x00);
1637:Core/Src/fsmc.c ****     //Display control
1638:Core/Src/fsmc.c ****     LCD_WriteReg(0xB100, 0xCC);
1639:Core/Src/fsmc.c ****     LCD_WriteReg(0xB101, 0x00);
1640:Core/Src/fsmc.c ****     //Source hold time
1641:Core/Src/fsmc.c ****     LCD_WriteReg(0xB600,0x05);
1642:Core/Src/fsmc.c ****     //Gate EQ control
1643:Core/Src/fsmc.c ****     LCD_WriteReg(0xB700,0x70);
1644:Core/Src/fsmc.c ****     LCD_WriteReg(0xB701,0x70);
1645:Core/Src/fsmc.c ****     //Source EQ control (Mode 2)
1646:Core/Src/fsmc.c ****     LCD_WriteReg(0xB800,0x01);
1647:Core/Src/fsmc.c ****     LCD_WriteReg(0xB801,0x03);
1648:Core/Src/fsmc.c ****     LCD_WriteReg(0xB802,0x03);
1649:Core/Src/fsmc.c ****     LCD_WriteReg(0xB803,0x03);
1650:Core/Src/fsmc.c ****     //Inversion mode (2-dot)
1651:Core/Src/fsmc.c ****     LCD_WriteReg(0xBC00,0x02);
1652:Core/Src/fsmc.c ****     LCD_WriteReg(0xBC01,0x00);
1653:Core/Src/fsmc.c ****     LCD_WriteReg(0xBC02,0x00);
1654:Core/Src/fsmc.c ****     //Timing control 4H w/ 4-delay
1655:Core/Src/fsmc.c ****     LCD_WriteReg(0xC900,0xD0);
1656:Core/Src/fsmc.c ****     LCD_WriteReg(0xC901,0x02);
1657:Core/Src/fsmc.c ****     LCD_WriteReg(0xC902,0x50);
1658:Core/Src/fsmc.c ****     LCD_WriteReg(0xC903,0x50);
1659:Core/Src/fsmc.c ****     LCD_WriteReg(0xC904,0x50);
1660:Core/Src/fsmc.c ****     LCD_WriteReg(0x3500,0x00);
1661:Core/Src/fsmc.c ****     LCD_WriteReg(0x3A00,0x55);  //16-bit/pixel
1662:Core/Src/fsmc.c ****     LCD_WR_REG(0x1100);
1663:Core/Src/fsmc.c ****     //RCC//delay_us(120);
1664:Core/Src/fsmc.c ****     LCD_WR_REG(0x2900);
1665:Core/Src/fsmc.c ****   }else if(lcddev.id==0X1963)
1666:Core/Src/fsmc.c ****   {
1667:Core/Src/fsmc.c ****     LCD_WR_REG(0xE2);		//Set PLL with OSC = 10MHz (hardware),	Multiplier N = 35, 250MHz < VCO < 800
1668:Core/Src/fsmc.c ****     LCD_WR_DATA(0x1D);		//å‚æ•°1
1669:Core/Src/fsmc.c ****     LCD_WR_DATA(0x02);		//å‚æ•°2 Divider M = 2, PLL = 300/(M+1) = 100MHz
1670:Core/Src/fsmc.c ****     LCD_WR_DATA(0x04);		//å‚æ•°3 Validate M and N values
1671:Core/Src/fsmc.c ****     //RCC//delay_us(100);
1672:Core/Src/fsmc.c ****     LCD_WR_REG(0xE0);		// Start PLL command
1673:Core/Src/fsmc.c ****     LCD_WR_DATA(0x01);		// enable PLL
1674:Core/Src/fsmc.c ****     HAL_Delay(10);
1675:Core/Src/fsmc.c ****     LCD_WR_REG(0xE0);		// Start PLL command again
1676:Core/Src/fsmc.c ****     LCD_WR_DATA(0x03);		// now, use PLL output as system clock
1677:Core/Src/fsmc.c ****     HAL_Delay(12);
1678:Core/Src/fsmc.c ****     LCD_WR_REG(0x01);		//è½¯å¤??
1679:Core/Src/fsmc.c ****     HAL_Delay(10);
1680:Core/Src/fsmc.c **** 
1681:Core/Src/fsmc.c ****     LCD_WR_REG(0xE6);		//è®¾ç½®åƒç´ é¢‘ç‡,33Mhz
1682:Core/Src/fsmc.c ****     LCD_WR_DATA(0x2F);
1683:Core/Src/fsmc.c ****     LCD_WR_DATA(0xFF);
1684:Core/Src/fsmc.c ****     LCD_WR_DATA(0xFF);
ARM GAS  /tmp/ccE1vrH2.s 			page 31


1685:Core/Src/fsmc.c **** 
1686:Core/Src/fsmc.c ****     LCD_WR_REG(0xB0);		//è®¾ç½®LCDæ¨¡å¼
1687:Core/Src/fsmc.c ****     LCD_WR_DATA(0x20);		//24ä½æ¨¡??
1688:Core/Src/fsmc.c ****     LCD_WR_DATA(0x00);		//TFT æ¨¡å¼
1689:Core/Src/fsmc.c **** 
1690:Core/Src/fsmc.c ****     LCD_WR_DATA((SSD_HOR_RESOLUTION-1)>>8);//è®¾ç½®LCDæ°´å¹³åƒç´ 
1691:Core/Src/fsmc.c ****     LCD_WR_DATA(SSD_HOR_RESOLUTION-1);
1692:Core/Src/fsmc.c ****     LCD_WR_DATA((SSD_VER_RESOLUTION-1)>>8);//è®¾ç½®LCDå‚ç›´åƒç´ 
1693:Core/Src/fsmc.c ****     LCD_WR_DATA(SSD_VER_RESOLUTION-1);
1694:Core/Src/fsmc.c ****     LCD_WR_DATA(0x00);		//RGBåºåˆ—
1695:Core/Src/fsmc.c **** 
1696:Core/Src/fsmc.c ****     LCD_WR_REG(0xB4);		//Set horizontal period
1697:Core/Src/fsmc.c ****     LCD_WR_DATA((SSD_HT-1)>>8);
1698:Core/Src/fsmc.c ****     LCD_WR_DATA(SSD_HT-1);
1699:Core/Src/fsmc.c ****     LCD_WR_DATA(SSD_HPS>>8);
1700:Core/Src/fsmc.c ****     LCD_WR_DATA(SSD_HPS);
1701:Core/Src/fsmc.c ****     LCD_WR_DATA(SSD_HOR_PULSE_WIDTH-1);
1702:Core/Src/fsmc.c ****     LCD_WR_DATA(0x00);
1703:Core/Src/fsmc.c ****     LCD_WR_DATA(0x00);
1704:Core/Src/fsmc.c ****     LCD_WR_DATA(0x00);
1705:Core/Src/fsmc.c ****     LCD_WR_REG(0xB6);		//Set vertical period
1706:Core/Src/fsmc.c ****     LCD_WR_DATA((SSD_VT-1)>>8);
1707:Core/Src/fsmc.c ****     LCD_WR_DATA(SSD_VT-1);
1708:Core/Src/fsmc.c ****     LCD_WR_DATA(SSD_VPS>>8);
1709:Core/Src/fsmc.c ****     LCD_WR_DATA(SSD_VPS);
1710:Core/Src/fsmc.c ****     LCD_WR_DATA(SSD_VER_FRONT_PORCH-1);
1711:Core/Src/fsmc.c ****     LCD_WR_DATA(0x00);
1712:Core/Src/fsmc.c ****     LCD_WR_DATA(0x00);
1713:Core/Src/fsmc.c **** 
1714:Core/Src/fsmc.c ****     LCD_WR_REG(0xF0);	//è®¾ç½®SSD1963ä¸CPUæ¥å£ä¸º16bit
1715:Core/Src/fsmc.c ****     LCD_WR_DATA(0x03);	//16-bit(565 format) data for 16bpp
1716:Core/Src/fsmc.c **** 
1717:Core/Src/fsmc.c ****     LCD_WR_REG(0x29);	
1718:Core/Src/fsmc.c **** 
1719:Core/Src/fsmc.c ****     LCD_WR_REG(0xD0);	//è®¾ç½®è‡ªåŠ¨ç™½å¹³è¡¡DBC
1720:Core/Src/fsmc.c ****     LCD_WR_DATA(0x00);	//disable
1721:Core/Src/fsmc.c **** 
1722:Core/Src/fsmc.c ****     LCD_WR_REG(0xBE);	//é…ç½®PWMè¾“å‡º
1723:Core/Src/fsmc.c ****     LCD_WR_DATA(0x05);	//1è®¾ç½®PWMé¢‘ç‡
1724:Core/Src/fsmc.c ****     LCD_WR_DATA(0xFE);	//2è®¾ç½®PWMå ç©ºæ¯”
1725:Core/Src/fsmc.c ****     LCD_WR_DATA(0x01);	//3è®¾ç½®C
1726:Core/Src/fsmc.c ****     LCD_WR_DATA(0x00);	//4è®¾ç½®D
1727:Core/Src/fsmc.c ****     LCD_WR_DATA(0x00);	//5è®¾ç½®E
1728:Core/Src/fsmc.c ****     LCD_WR_DATA(0x00);	//6è®¾ç½®F
1729:Core/Src/fsmc.c **** 
1730:Core/Src/fsmc.c ****     LCD_WR_REG(0xB8);	//è®¾ç½®GPIOé…ç½®
1731:Core/Src/fsmc.c ****     LCD_WR_DATA(0x03);	//2ä¸ªIOå£è®¾ç½®æˆè¾“å‡º
1732:Core/Src/fsmc.c ****     LCD_WR_DATA(0x01);	//GPIOä½¿ç”¨æ­£å¸¸çš„IOåŠŸèƒ½
1733:Core/Src/fsmc.c ****     LCD_WR_REG(0xBA);
1734:Core/Src/fsmc.c ****     LCD_WR_DATA(0X01);	//GPIO[1:0]=01,æ§åˆ¶LCDæ–¹å‘
1735:Core/Src/fsmc.c **** 
1736:Core/Src/fsmc.c ****     LCD_SSD_BackLightSet(100);//èƒŒå…‰è®¾ç½®ä¸ºæœ€äº®
1737:Core/Src/fsmc.c ****   }
1738:Core/Src/fsmc.c ****   //åˆå§‹åŒ–å®Œæˆä»¥??,æ???
1739:Core/Src/fsmc.c ****   if(lcddev.id==0X9341||lcddev.id==0X5310||lcddev.id==0X5510||lcddev.id==0X1963)//å¦‚æœæ˜¯è¿™å‡ ä¸
1740:Core/Src/fsmc.c ****   {
1741:Core/Src/fsmc.c ****     //é‡æ–°é…ç½®å†™æ—¶åºæ§åˆ¶å¯„å­˜å™¨çš„æ—¶??
ARM GAS  /tmp/ccE1vrH2.s 			page 32


1742:Core/Src/fsmc.c ****     FSMC_Bank1E->BWTR[6]&=~(0XF<<0);//åœ°å€å»ºç«‹æ—¶é—´(ADDSET)æ¸…é›¶
1743:Core/Src/fsmc.c ****     FSMC_Bank1E->BWTR[6]&=~(0XF<<8);//æ•°æ®ä¿å­˜æ—¶é—´æ¸…é›¶
1744:Core/Src/fsmc.c ****     FSMC_Bank1E->BWTR[6]|=3<<0;		//åœ°å€å»ºç«‹æ—¶é—´(ADDSET)??3ä¸ªHCLK =18ns
1745:Core/Src/fsmc.c ****     FSMC_Bank1E->BWTR[6]|=2<<8; 	//æ•°æ®ä¿å­˜æ—¶é—´(DATAST)??6ns*3ä¸ªHCLK=18ns
1746:Core/Src/fsmc.c ****   }
1747:Core/Src/fsmc.c ****   LCD_Display_Dir(0);		//é»˜è®¤ä¸ºç«–??
1748:Core/Src/fsmc.c ****   HAL_GPIO_WritePin(GPIOB,GPIO_PIN_15,GPIO_PIN_SET);				//ç‚¹äº®èƒŒå…‰
1749:Core/Src/fsmc.c ****   LCD_Clear(WHITE);
1750:Core/Src/fsmc.c **** }
1751:Core/Src/fsmc.c **** //æ¸…å±å‡½æ•°
1752:Core/Src/fsmc.c **** //color:è¦æ¸…å±çš„å¡«å……??
1753:Core/Src/fsmc.c **** void LCD_Clear(uint32_t color)
1754:Core/Src/fsmc.c **** {
1755:Core/Src/fsmc.c ****   uint32_t index=0;
1756:Core/Src/fsmc.c ****   uint32_t totalpoint=lcddev.width;
1757:Core/Src/fsmc.c ****   totalpoint*=lcddev.height; 			//å¾—åˆ°æ€»ç‚¹??
1758:Core/Src/fsmc.c ****   LCD_SetCursor(0x00,0x0000);			//è®¾ç½®å…‰æ ‡ä½ç½®
1759:Core/Src/fsmc.c ****   LCD_WriteRAM_Prepare();     		//??å§‹å†™å…¥GRAM
1760:Core/Src/fsmc.c ****   for(index=0;index<totalpoint;index++)
1761:Core/Src/fsmc.c ****   {
1762:Core/Src/fsmc.c ****     LCD->LCD_RAM=color;
1763:Core/Src/fsmc.c ****   }
1764:Core/Src/fsmc.c **** }
1765:Core/Src/fsmc.c **** //åœ¨æŒ‡å®šåŒºåŸŸå†…å¡«å……å•ä¸ªé¢œè‰²
1766:Core/Src/fsmc.c **** //(sx,sy),(ex,ey):å¡«å……çŸ©å½¢å¯¹è§’åæ ‡,åŒºåŸŸå¤§å°??:(ex-sx+1)*(ey-sy+1)
1767:Core/Src/fsmc.c **** //color:è¦å¡«å……çš„é¢œè‰²
1768:Core/Src/fsmc.c **** void LCD_Fill(uint16_t sx,uint16_t sy,uint16_t ex,uint16_t ey,uint32_t color)
1769:Core/Src/fsmc.c **** {
1770:Core/Src/fsmc.c ****   uint16_t i,j;
1771:Core/Src/fsmc.c ****   uint16_t xlen=0;
1772:Core/Src/fsmc.c ****   xlen=ex-sx+1;
1773:Core/Src/fsmc.c ****   for(i=sy;i<=ey;i++)
1774:Core/Src/fsmc.c ****   {
1775:Core/Src/fsmc.c ****     LCD_SetCursor(sx,i);      				//è®¾ç½®å…‰æ ‡ä½ç½®
1776:Core/Src/fsmc.c ****     LCD_WriteRAM_Prepare();     			//??å§‹å†™å…¥GRAM
1777:Core/Src/fsmc.c ****     for(j=0;j<xlen;j++)LCD->LCD_RAM=color;	//æ˜¾ç¤ºé¢œè‰²
1778:Core/Src/fsmc.c ****   }
1779:Core/Src/fsmc.c **** }
1780:Core/Src/fsmc.c **** //åœ¨æŒ‡å®šåŒºåŸŸå†…å¡«å……æŒ‡å®šé¢œè‰²??
1781:Core/Src/fsmc.c **** //(sx,sy),(ex,ey):å¡«å……çŸ©å½¢å¯¹è§’åæ ‡,åŒºåŸŸå¤§å°??:(ex-sx+1)*(ey-sy+1)
1782:Core/Src/fsmc.c **** //color:è¦å¡«å……çš„é¢œè‰²
1783:Core/Src/fsmc.c **** void LCD_Color_Fill1(uint16_t sx,uint16_t sy,uint16_t ex,uint16_t ey,uint16_t color)
1784:Core/Src/fsmc.c **** {
1785:Core/Src/fsmc.c ****   uint16_t height,width;
1786:Core/Src/fsmc.c ****   uint16_t i,j;
1787:Core/Src/fsmc.c ****   width=ex-sx+1; 			//å¾—åˆ°å¡«å……çš„å®½??
1788:Core/Src/fsmc.c ****   height=ey-sy+1;			//é«˜åº¦
1789:Core/Src/fsmc.c ****   for(i=0;i<height;i++)
1790:Core/Src/fsmc.c ****   {
1791:Core/Src/fsmc.c ****     LCD_SetCursor(sx,sy+i);   	//è®¾ç½®å…‰æ ‡ä½ç½®
1792:Core/Src/fsmc.c ****     LCD_WriteRAM_Prepare();     //??å§‹å†™å…¥GRAM
1793:Core/Src/fsmc.c ****     for(j=0;j<width;j++)LCD->LCD_RAM=color;//å†™å…¥æ•°æ®
1794:Core/Src/fsmc.c ****   }
1795:Core/Src/fsmc.c **** }
1796:Core/Src/fsmc.c **** void LCD_Color_Fill(uint16_t sx,uint16_t sy,uint16_t ex,uint16_t ey,uint16_t* color)
1797:Core/Src/fsmc.c **** {
1798:Core/Src/fsmc.c ****   uint16_t height,width;
ARM GAS  /tmp/ccE1vrH2.s 			page 33


1799:Core/Src/fsmc.c ****   uint16_t i,j;
1800:Core/Src/fsmc.c ****   width=ex-sx+1; 			//å¾—åˆ°å¡«å……çš„å®½??
1801:Core/Src/fsmc.c ****   height=ey-sy+1;			//é«˜åº¦
1802:Core/Src/fsmc.c ****   for(i=0;i<height;i++)
1803:Core/Src/fsmc.c ****   {
1804:Core/Src/fsmc.c ****     LCD_SetCursor(sx,sy+i);   	//è®¾ç½®å…‰æ ‡ä½ç½®
1805:Core/Src/fsmc.c ****     LCD_WriteRAM_Prepare();     //??å§‹å†™å…¥GRAM
1806:Core/Src/fsmc.c ****     for(j=0;j<width;j++)LCD->LCD_RAM=color[i*width+j];//å†™å…¥æ•°æ®
1807:Core/Src/fsmc.c ****   }
1808:Core/Src/fsmc.c **** }
1809:Core/Src/fsmc.c **** //ç”»çº¿
1810:Core/Src/fsmc.c **** //x1,y1:èµ·ç‚¹åæ ‡
1811:Core/Src/fsmc.c **** //x2,y2:ç»ˆç‚¹åæ ‡
1812:Core/Src/fsmc.c **** void LCD_DrawLine(uint16_t x1, uint16_t y1, uint16_t x2, uint16_t y2)
1813:Core/Src/fsmc.c **** {
1814:Core/Src/fsmc.c ****   uint16_t t;
1815:Core/Src/fsmc.c ****   int xerr=0,yerr=0,delta_x,delta_y,distance;
1816:Core/Src/fsmc.c ****   int incx,incy,uRow,uCol;
1817:Core/Src/fsmc.c ****   delta_x=x2-x1; //è®¡ç®—åæ ‡å¢é‡
1818:Core/Src/fsmc.c ****   delta_y=y2-y1;
1819:Core/Src/fsmc.c ****   uRow=x1;
1820:Core/Src/fsmc.c ****   uCol=y1;
1821:Core/Src/fsmc.c ****   if(delta_x>0)incx=1; //è®¾ç½®å•æ­¥æ–¹å‘
1822:Core/Src/fsmc.c ****   else if(delta_x==0)incx=0;//å‚ç›´??
1823:Core/Src/fsmc.c ****   else {incx=-1;delta_x=-delta_x;}
1824:Core/Src/fsmc.c ****   if(delta_y>0)incy=1;
1825:Core/Src/fsmc.c ****   else if(delta_y==0)incy=0;//æ°´å¹³??
1826:Core/Src/fsmc.c ****   else{incy=-1;delta_y=-delta_y;}
1827:Core/Src/fsmc.c ****   if( delta_x>delta_y)distance=delta_x; //é€‰å–åŸºæœ¬å¢é‡åæ ‡??
1828:Core/Src/fsmc.c ****   else distance=delta_y;
1829:Core/Src/fsmc.c ****   for(t=0;t<=distance+1;t++ )//ç”»çº¿è¾“å‡º
1830:Core/Src/fsmc.c ****   {
1831:Core/Src/fsmc.c ****     LCD_DrawPoint(uRow,uCol);//ç”»ç‚¹
1832:Core/Src/fsmc.c ****     xerr+=delta_x ;
1833:Core/Src/fsmc.c ****     yerr+=delta_y ;
1834:Core/Src/fsmc.c ****     if(xerr>distance)
1835:Core/Src/fsmc.c ****     {
1836:Core/Src/fsmc.c ****       xerr-=distance;
1837:Core/Src/fsmc.c ****       uRow+=incx;
1838:Core/Src/fsmc.c ****     }
1839:Core/Src/fsmc.c ****     if(yerr>distance)
1840:Core/Src/fsmc.c ****     {
1841:Core/Src/fsmc.c ****       yerr-=distance;
1842:Core/Src/fsmc.c ****       uCol+=incy;
1843:Core/Src/fsmc.c ****     }
1844:Core/Src/fsmc.c ****   }
1845:Core/Src/fsmc.c **** }
1846:Core/Src/fsmc.c **** //ç”»çŸ©??
1847:Core/Src/fsmc.c **** //(x1,y1),(x2,y2):çŸ©å½¢çš„å¯¹è§’å??
1848:Core/Src/fsmc.c **** void LCD_DrawRectangle(uint16_t x1, uint16_t y1, uint16_t x2, uint16_t y2)
1849:Core/Src/fsmc.c **** {
1850:Core/Src/fsmc.c ****   LCD_DrawLine(x1,y1,x2,y1);
1851:Core/Src/fsmc.c ****   LCD_DrawLine(x1,y1,x1,y2);
1852:Core/Src/fsmc.c ****   LCD_DrawLine(x1,y2,x2,y2);
1853:Core/Src/fsmc.c ****   LCD_DrawLine(x2,y1,x2,y2);
1854:Core/Src/fsmc.c **** }
1855:Core/Src/fsmc.c **** //åœ¨æŒ‡å®šä½ç½®ç”»??ä¸ªæŒ‡å®šå¤§å°çš„??
ARM GAS  /tmp/ccE1vrH2.s 			page 34


1856:Core/Src/fsmc.c **** //(x,y):ä¸­å¿ƒ??
1857:Core/Src/fsmc.c **** //r    :åŠå¾„
1858:Core/Src/fsmc.c **** void LCD_Draw_Circle(uint16_t x0,uint16_t y0,uint8_t r)
1859:Core/Src/fsmc.c **** {
1860:Core/Src/fsmc.c ****   int a,b;
1861:Core/Src/fsmc.c ****   int di;
1862:Core/Src/fsmc.c ****   a=0;b=r;
1863:Core/Src/fsmc.c ****   di=3-(r<<1);             //åˆ¤æ–­ä¸‹ä¸ªç‚¹ä½ç½®çš„æ ‡å¿—
1864:Core/Src/fsmc.c ****   while(a<=b)
1865:Core/Src/fsmc.c ****   {
1866:Core/Src/fsmc.c ****     LCD_DrawPoint(x0+a,y0-b);             //5
1867:Core/Src/fsmc.c ****     LCD_DrawPoint(x0+b,y0-a);             //0
1868:Core/Src/fsmc.c ****     LCD_DrawPoint(x0+b,y0+a);             //4
1869:Core/Src/fsmc.c ****     LCD_DrawPoint(x0+a,y0+b);             //6
1870:Core/Src/fsmc.c ****     LCD_DrawPoint(x0-a,y0+b);             //1
1871:Core/Src/fsmc.c ****     LCD_DrawPoint(x0-b,y0+a);
1872:Core/Src/fsmc.c ****     LCD_DrawPoint(x0-a,y0-b);             //2
1873:Core/Src/fsmc.c ****     LCD_DrawPoint(x0-b,y0-a);             //7
1874:Core/Src/fsmc.c ****     a++;
1875:Core/Src/fsmc.c ****     //ä½¿ç”¨Bresenhamç®—æ³•ç”»åœ†
1876:Core/Src/fsmc.c ****     if(di<0)di +=4*a+6;
1877:Core/Src/fsmc.c ****     else
1878:Core/Src/fsmc.c ****     {
1879:Core/Src/fsmc.c ****       di+=10+4*(a-b);
1880:Core/Src/fsmc.c ****       b--;
1881:Core/Src/fsmc.c ****     }
1882:Core/Src/fsmc.c ****   }
1883:Core/Src/fsmc.c **** }
1884:Core/Src/fsmc.c **** 
1885:Core/Src/fsmc.c **** /* USER CODE END 0 */
1886:Core/Src/fsmc.c **** 
1887:Core/Src/fsmc.c **** SRAM_HandleTypeDef hsram1;
1888:Core/Src/fsmc.c **** 
1889:Core/Src/fsmc.c **** /* FSMC initialization function */
1890:Core/Src/fsmc.c **** void MX_FSMC_Init(void)
1891:Core/Src/fsmc.c **** {
1892:Core/Src/fsmc.c ****   /* USER CODE BEGIN FSMC_Init 0 */
1893:Core/Src/fsmc.c **** 
1894:Core/Src/fsmc.c ****   /* USER CODE END FSMC_Init 0 */
1895:Core/Src/fsmc.c **** 
1896:Core/Src/fsmc.c ****   FSMC_NORSRAM_TimingTypeDef Timing = {0};
1897:Core/Src/fsmc.c ****   FSMC_NORSRAM_TimingTypeDef ExtTiming = {0};
1898:Core/Src/fsmc.c **** 
1899:Core/Src/fsmc.c ****   /* USER CODE BEGIN FSMC_Init 1 */
1900:Core/Src/fsmc.c **** 
1901:Core/Src/fsmc.c ****   /* USER CODE END FSMC_Init 1 */
1902:Core/Src/fsmc.c **** 
1903:Core/Src/fsmc.c ****   /** Perform the SRAM1 memory initialization sequence
1904:Core/Src/fsmc.c ****   */
1905:Core/Src/fsmc.c ****   hsram1.Instance = FSMC_NORSRAM_DEVICE;
1906:Core/Src/fsmc.c ****   hsram1.Extended = FSMC_NORSRAM_EXTENDED_DEVICE;
1907:Core/Src/fsmc.c ****   /* hsram1.Init */
1908:Core/Src/fsmc.c ****   hsram1.Init.NSBank = FSMC_NORSRAM_BANK4;
1909:Core/Src/fsmc.c ****   hsram1.Init.DataAddressMux = FSMC_DATA_ADDRESS_MUX_DISABLE;
1910:Core/Src/fsmc.c ****   hsram1.Init.MemoryType = FSMC_MEMORY_TYPE_SRAM;
1911:Core/Src/fsmc.c ****   hsram1.Init.MemoryDataWidth = FSMC_NORSRAM_MEM_BUS_WIDTH_16;
1912:Core/Src/fsmc.c ****   hsram1.Init.BurstAccessMode = FSMC_BURST_ACCESS_MODE_DISABLE;
ARM GAS  /tmp/ccE1vrH2.s 			page 35


1913:Core/Src/fsmc.c ****   hsram1.Init.WaitSignalPolarity = FSMC_WAIT_SIGNAL_POLARITY_LOW;
1914:Core/Src/fsmc.c ****   hsram1.Init.WrapMode = FSMC_WRAP_MODE_DISABLE;
1915:Core/Src/fsmc.c ****   hsram1.Init.WaitSignalActive = FSMC_WAIT_TIMING_BEFORE_WS;
1916:Core/Src/fsmc.c ****   hsram1.Init.WriteOperation = FSMC_WRITE_OPERATION_ENABLE;
1917:Core/Src/fsmc.c ****   hsram1.Init.WaitSignal = FSMC_WAIT_SIGNAL_DISABLE;
1918:Core/Src/fsmc.c ****   hsram1.Init.ExtendedMode = FSMC_EXTENDED_MODE_ENABLE;
1919:Core/Src/fsmc.c ****   hsram1.Init.AsynchronousWait = FSMC_ASYNCHRONOUS_WAIT_DISABLE;
1920:Core/Src/fsmc.c ****   hsram1.Init.WriteBurst = FSMC_WRITE_BURST_DISABLE;
1921:Core/Src/fsmc.c ****   hsram1.Init.PageSize = FSMC_PAGE_SIZE_NONE;
1922:Core/Src/fsmc.c ****   /* Timing */
1923:Core/Src/fsmc.c ****   Timing.AddressSetupTime = 15;
1924:Core/Src/fsmc.c ****   Timing.AddressHoldTime = 15;
1925:Core/Src/fsmc.c ****   Timing.DataSetupTime = 60;
1926:Core/Src/fsmc.c ****   Timing.BusTurnAroundDuration = 10;
1927:Core/Src/fsmc.c ****   Timing.CLKDivision = 16;
1928:Core/Src/fsmc.c ****   Timing.DataLatency = 17;
1929:Core/Src/fsmc.c ****   Timing.AccessMode = FSMC_ACCESS_MODE_A;
1930:Core/Src/fsmc.c ****   /* ExtTiming */
1931:Core/Src/fsmc.c ****   ExtTiming.AddressSetupTime = 9;
1932:Core/Src/fsmc.c ****   ExtTiming.AddressHoldTime = 15;
1933:Core/Src/fsmc.c ****   ExtTiming.DataSetupTime = 8;
1934:Core/Src/fsmc.c ****   ExtTiming.BusTurnAroundDuration = 0;
1935:Core/Src/fsmc.c ****   ExtTiming.CLKDivision = 16;
1936:Core/Src/fsmc.c ****   ExtTiming.DataLatency = 17;
1937:Core/Src/fsmc.c ****   ExtTiming.AccessMode = FSMC_ACCESS_MODE_A;
1938:Core/Src/fsmc.c **** 
1939:Core/Src/fsmc.c ****   if (HAL_SRAM_Init(&hsram1, &Timing, &ExtTiming) != HAL_OK)
1940:Core/Src/fsmc.c ****   {
1941:Core/Src/fsmc.c ****     Error_Handler( );
1942:Core/Src/fsmc.c ****   }
1943:Core/Src/fsmc.c **** 
1944:Core/Src/fsmc.c ****   /* USER CODE BEGIN FSMC_Init 2 */
1945:Core/Src/fsmc.c **** 
1946:Core/Src/fsmc.c ****   /* USER CODE END FSMC_Init 2 */
1947:Core/Src/fsmc.c **** }
1948:Core/Src/fsmc.c **** 
1949:Core/Src/fsmc.c **** static uint32_t FSMC_Initialized = 0;
1950:Core/Src/fsmc.c **** 
1951:Core/Src/fsmc.c **** static void HAL_FSMC_MspInit(void){
  28              		.loc 1 1951 35 view -0
  29              		.cfi_startproc
  30              		@ args = 0, pretend = 0, frame = 24
  31              		@ frame_needed = 0, uses_anonymous_args = 0
  32 0000 2DE9F041 		push	{r4, r5, r6, r7, r8, lr}
  33              	.LCFI0:
  34              		.cfi_def_cfa_offset 24
  35              		.cfi_offset 4, -24
  36              		.cfi_offset 5, -20
  37              		.cfi_offset 6, -16
  38              		.cfi_offset 7, -12
  39              		.cfi_offset 8, -8
  40              		.cfi_offset 14, -4
  41 0004 86B0     		sub	sp, sp, #24
  42              	.LCFI1:
  43              		.cfi_def_cfa_offset 48
1952:Core/Src/fsmc.c ****   /* USER CODE BEGIN FSMC_MspInit 0 */
1953:Core/Src/fsmc.c **** 
ARM GAS  /tmp/ccE1vrH2.s 			page 36


1954:Core/Src/fsmc.c ****   /* USER CODE END FSMC_MspInit 0 */
1955:Core/Src/fsmc.c ****   GPIO_InitTypeDef GPIO_InitStruct = {0};
  44              		.loc 1 1955 3 view .LVU1
  45              		.loc 1 1955 20 is_stmt 0 view .LVU2
  46 0006 0023     		movs	r3, #0
  47 0008 0193     		str	r3, [sp, #4]
  48 000a 0293     		str	r3, [sp, #8]
  49 000c 0393     		str	r3, [sp, #12]
  50 000e 0493     		str	r3, [sp, #16]
  51 0010 0593     		str	r3, [sp, #20]
1956:Core/Src/fsmc.c ****   if (FSMC_Initialized) {
  52              		.loc 1 1956 3 is_stmt 1 view .LVU3
  53              		.loc 1 1956 7 is_stmt 0 view .LVU4
  54 0012 224B     		ldr	r3, .L6
  55 0014 1B68     		ldr	r3, [r3]
  56              		.loc 1 1956 6 view .LVU5
  57 0016 13B1     		cbz	r3, .L5
  58              	.L1:
1957:Core/Src/fsmc.c ****     return;
1958:Core/Src/fsmc.c ****   }
1959:Core/Src/fsmc.c ****   FSMC_Initialized = 1;
1960:Core/Src/fsmc.c **** 
1961:Core/Src/fsmc.c ****   /* Peripheral clock enable */
1962:Core/Src/fsmc.c ****   __HAL_RCC_FSMC_CLK_ENABLE();
1963:Core/Src/fsmc.c **** 
1964:Core/Src/fsmc.c ****   /** FSMC GPIO Configuration
1965:Core/Src/fsmc.c ****   PF12   ------> FSMC_A6
1966:Core/Src/fsmc.c ****   PE7   ------> FSMC_D4
1967:Core/Src/fsmc.c ****   PE8   ------> FSMC_D5
1968:Core/Src/fsmc.c ****   PE9   ------> FSMC_D6
1969:Core/Src/fsmc.c ****   PE10   ------> FSMC_D7
1970:Core/Src/fsmc.c ****   PE11   ------> FSMC_D8
1971:Core/Src/fsmc.c ****   PE12   ------> FSMC_D9
1972:Core/Src/fsmc.c ****   PE13   ------> FSMC_D10
1973:Core/Src/fsmc.c ****   PE14   ------> FSMC_D11
1974:Core/Src/fsmc.c ****   PE15   ------> FSMC_D12
1975:Core/Src/fsmc.c ****   PD8   ------> FSMC_D13
1976:Core/Src/fsmc.c ****   PD9   ------> FSMC_D14
1977:Core/Src/fsmc.c ****   PD10   ------> FSMC_D15
1978:Core/Src/fsmc.c ****   PD14   ------> FSMC_D0
1979:Core/Src/fsmc.c ****   PD15   ------> FSMC_D1
1980:Core/Src/fsmc.c ****   PD0   ------> FSMC_D2
1981:Core/Src/fsmc.c ****   PD1   ------> FSMC_D3
1982:Core/Src/fsmc.c ****   PD4   ------> FSMC_NOE
1983:Core/Src/fsmc.c ****   PD5   ------> FSMC_NWE
1984:Core/Src/fsmc.c ****   PG12   ------> FSMC_NE4
1985:Core/Src/fsmc.c ****   */
1986:Core/Src/fsmc.c ****   /* GPIO_InitStruct */
1987:Core/Src/fsmc.c ****   GPIO_InitStruct.Pin = GPIO_PIN_12;
1988:Core/Src/fsmc.c ****   GPIO_InitStruct.Mode = GPIO_MODE_AF_PP;
1989:Core/Src/fsmc.c ****   GPIO_InitStruct.Pull = GPIO_NOPULL;
1990:Core/Src/fsmc.c ****   GPIO_InitStruct.Speed = GPIO_SPEED_FREQ_VERY_HIGH;
1991:Core/Src/fsmc.c ****   GPIO_InitStruct.Alternate = GPIO_AF12_FSMC;
1992:Core/Src/fsmc.c **** 
1993:Core/Src/fsmc.c ****   HAL_GPIO_Init(GPIOF, &GPIO_InitStruct);
1994:Core/Src/fsmc.c **** 
1995:Core/Src/fsmc.c ****   /* GPIO_InitStruct */
ARM GAS  /tmp/ccE1vrH2.s 			page 37


1996:Core/Src/fsmc.c ****   GPIO_InitStruct.Pin = GPIO_PIN_7|GPIO_PIN_8|GPIO_PIN_9|GPIO_PIN_10
1997:Core/Src/fsmc.c ****                           |GPIO_PIN_11|GPIO_PIN_12|GPIO_PIN_13|GPIO_PIN_14
1998:Core/Src/fsmc.c ****                           |GPIO_PIN_15;
1999:Core/Src/fsmc.c ****   GPIO_InitStruct.Mode = GPIO_MODE_AF_PP;
2000:Core/Src/fsmc.c ****   GPIO_InitStruct.Pull = GPIO_NOPULL;
2001:Core/Src/fsmc.c ****   GPIO_InitStruct.Speed = GPIO_SPEED_FREQ_VERY_HIGH;
2002:Core/Src/fsmc.c ****   GPIO_InitStruct.Alternate = GPIO_AF12_FSMC;
2003:Core/Src/fsmc.c **** 
2004:Core/Src/fsmc.c ****   HAL_GPIO_Init(GPIOE, &GPIO_InitStruct);
2005:Core/Src/fsmc.c **** 
2006:Core/Src/fsmc.c ****   /* GPIO_InitStruct */
2007:Core/Src/fsmc.c ****   GPIO_InitStruct.Pin = GPIO_PIN_8|GPIO_PIN_9|GPIO_PIN_10|GPIO_PIN_14
2008:Core/Src/fsmc.c ****                           |GPIO_PIN_15|GPIO_PIN_0|GPIO_PIN_1|GPIO_PIN_4
2009:Core/Src/fsmc.c ****                           |GPIO_PIN_5;
2010:Core/Src/fsmc.c ****   GPIO_InitStruct.Mode = GPIO_MODE_AF_PP;
2011:Core/Src/fsmc.c ****   GPIO_InitStruct.Pull = GPIO_NOPULL;
2012:Core/Src/fsmc.c ****   GPIO_InitStruct.Speed = GPIO_SPEED_FREQ_VERY_HIGH;
2013:Core/Src/fsmc.c ****   GPIO_InitStruct.Alternate = GPIO_AF12_FSMC;
2014:Core/Src/fsmc.c **** 
2015:Core/Src/fsmc.c ****   HAL_GPIO_Init(GPIOD, &GPIO_InitStruct);
2016:Core/Src/fsmc.c **** 
2017:Core/Src/fsmc.c ****   /* GPIO_InitStruct */
2018:Core/Src/fsmc.c ****   GPIO_InitStruct.Pin = GPIO_PIN_12;
2019:Core/Src/fsmc.c ****   GPIO_InitStruct.Mode = GPIO_MODE_AF_PP;
2020:Core/Src/fsmc.c ****   GPIO_InitStruct.Pull = GPIO_NOPULL;
2021:Core/Src/fsmc.c ****   GPIO_InitStruct.Speed = GPIO_SPEED_FREQ_VERY_HIGH;
2022:Core/Src/fsmc.c ****   GPIO_InitStruct.Alternate = GPIO_AF12_FSMC;
2023:Core/Src/fsmc.c **** 
2024:Core/Src/fsmc.c ****   HAL_GPIO_Init(GPIOG, &GPIO_InitStruct);
2025:Core/Src/fsmc.c **** 
2026:Core/Src/fsmc.c ****   /* USER CODE BEGIN FSMC_MspInit 1 */
2027:Core/Src/fsmc.c **** 
2028:Core/Src/fsmc.c ****   /* USER CODE END FSMC_MspInit 1 */
2029:Core/Src/fsmc.c **** }
  59              		.loc 1 2029 1 view .LVU6
  60 0018 06B0     		add	sp, sp, #24
  61              	.LCFI2:
  62              		.cfi_remember_state
  63              		.cfi_def_cfa_offset 24
  64              		@ sp needed
  65 001a BDE8F081 		pop	{r4, r5, r6, r7, r8, pc}
  66              	.L5:
  67              	.LCFI3:
  68              		.cfi_restore_state
1959:Core/Src/fsmc.c **** 
  69              		.loc 1 1959 3 is_stmt 1 view .LVU7
1959:Core/Src/fsmc.c **** 
  70              		.loc 1 1959 20 is_stmt 0 view .LVU8
  71 001e 1F4B     		ldr	r3, .L6
  72 0020 0122     		movs	r2, #1
  73 0022 1A60     		str	r2, [r3]
1962:Core/Src/fsmc.c **** 
  74              		.loc 1 1962 3 is_stmt 1 view .LVU9
  75              	.LBB2:
1962:Core/Src/fsmc.c **** 
  76              		.loc 1 1962 3 view .LVU10
  77 0024 0026     		movs	r6, #0
ARM GAS  /tmp/ccE1vrH2.s 			page 38


  78 0026 0096     		str	r6, [sp]
1962:Core/Src/fsmc.c **** 
  79              		.loc 1 1962 3 view .LVU11
  80 0028 1D4B     		ldr	r3, .L6+4
  81 002a 9A6B     		ldr	r2, [r3, #56]
  82 002c 42F00102 		orr	r2, r2, #1
  83 0030 9A63     		str	r2, [r3, #56]
1962:Core/Src/fsmc.c **** 
  84              		.loc 1 1962 3 view .LVU12
  85 0032 9B6B     		ldr	r3, [r3, #56]
  86 0034 03F00103 		and	r3, r3, #1
  87 0038 0093     		str	r3, [sp]
1962:Core/Src/fsmc.c **** 
  88              		.loc 1 1962 3 view .LVU13
  89 003a 009B     		ldr	r3, [sp]
  90              	.LBE2:
1962:Core/Src/fsmc.c **** 
  91              		.loc 1 1962 3 view .LVU14
1987:Core/Src/fsmc.c ****   GPIO_InitStruct.Mode = GPIO_MODE_AF_PP;
  92              		.loc 1 1987 3 view .LVU15
1987:Core/Src/fsmc.c ****   GPIO_InitStruct.Mode = GPIO_MODE_AF_PP;
  93              		.loc 1 1987 23 is_stmt 0 view .LVU16
  94 003c 4FF48058 		mov	r8, #4096
  95 0040 CDF80480 		str	r8, [sp, #4]
1988:Core/Src/fsmc.c ****   GPIO_InitStruct.Pull = GPIO_NOPULL;
  96              		.loc 1 1988 3 is_stmt 1 view .LVU17
1988:Core/Src/fsmc.c ****   GPIO_InitStruct.Pull = GPIO_NOPULL;
  97              		.loc 1 1988 24 is_stmt 0 view .LVU18
  98 0044 0227     		movs	r7, #2
  99 0046 0297     		str	r7, [sp, #8]
1989:Core/Src/fsmc.c ****   GPIO_InitStruct.Speed = GPIO_SPEED_FREQ_VERY_HIGH;
 100              		.loc 1 1989 3 is_stmt 1 view .LVU19
1990:Core/Src/fsmc.c ****   GPIO_InitStruct.Alternate = GPIO_AF12_FSMC;
 101              		.loc 1 1990 3 view .LVU20
1990:Core/Src/fsmc.c ****   GPIO_InitStruct.Alternate = GPIO_AF12_FSMC;
 102              		.loc 1 1990 25 is_stmt 0 view .LVU21
 103 0048 0325     		movs	r5, #3
 104 004a 0495     		str	r5, [sp, #16]
1991:Core/Src/fsmc.c **** 
 105              		.loc 1 1991 3 is_stmt 1 view .LVU22
1991:Core/Src/fsmc.c **** 
 106              		.loc 1 1991 29 is_stmt 0 view .LVU23
 107 004c 0C24     		movs	r4, #12
 108 004e 0594     		str	r4, [sp, #20]
1993:Core/Src/fsmc.c **** 
 109              		.loc 1 1993 3 is_stmt 1 view .LVU24
 110 0050 01A9     		add	r1, sp, #4
 111 0052 1448     		ldr	r0, .L6+8
 112 0054 FFF7FEFF 		bl	HAL_GPIO_Init
 113              	.LVL0:
1996:Core/Src/fsmc.c ****                           |GPIO_PIN_11|GPIO_PIN_12|GPIO_PIN_13|GPIO_PIN_14
 114              		.loc 1 1996 3 view .LVU25
1996:Core/Src/fsmc.c ****                           |GPIO_PIN_11|GPIO_PIN_12|GPIO_PIN_13|GPIO_PIN_14
 115              		.loc 1 1996 23 is_stmt 0 view .LVU26
 116 0058 4FF68073 		movw	r3, #65408
 117 005c 0193     		str	r3, [sp, #4]
1999:Core/Src/fsmc.c ****   GPIO_InitStruct.Pull = GPIO_NOPULL;
ARM GAS  /tmp/ccE1vrH2.s 			page 39


 118              		.loc 1 1999 3 is_stmt 1 view .LVU27
1999:Core/Src/fsmc.c ****   GPIO_InitStruct.Pull = GPIO_NOPULL;
 119              		.loc 1 1999 24 is_stmt 0 view .LVU28
 120 005e 0297     		str	r7, [sp, #8]
2000:Core/Src/fsmc.c ****   GPIO_InitStruct.Speed = GPIO_SPEED_FREQ_VERY_HIGH;
 121              		.loc 1 2000 3 is_stmt 1 view .LVU29
2000:Core/Src/fsmc.c ****   GPIO_InitStruct.Speed = GPIO_SPEED_FREQ_VERY_HIGH;
 122              		.loc 1 2000 24 is_stmt 0 view .LVU30
 123 0060 0396     		str	r6, [sp, #12]
2001:Core/Src/fsmc.c ****   GPIO_InitStruct.Alternate = GPIO_AF12_FSMC;
 124              		.loc 1 2001 3 is_stmt 1 view .LVU31
2001:Core/Src/fsmc.c ****   GPIO_InitStruct.Alternate = GPIO_AF12_FSMC;
 125              		.loc 1 2001 25 is_stmt 0 view .LVU32
 126 0062 0495     		str	r5, [sp, #16]
2002:Core/Src/fsmc.c **** 
 127              		.loc 1 2002 3 is_stmt 1 view .LVU33
2002:Core/Src/fsmc.c **** 
 128              		.loc 1 2002 29 is_stmt 0 view .LVU34
 129 0064 0594     		str	r4, [sp, #20]
2004:Core/Src/fsmc.c **** 
 130              		.loc 1 2004 3 is_stmt 1 view .LVU35
 131 0066 01A9     		add	r1, sp, #4
 132 0068 0F48     		ldr	r0, .L6+12
 133 006a FFF7FEFF 		bl	HAL_GPIO_Init
 134              	.LVL1:
2007:Core/Src/fsmc.c ****                           |GPIO_PIN_15|GPIO_PIN_0|GPIO_PIN_1|GPIO_PIN_4
 135              		.loc 1 2007 3 view .LVU36
2007:Core/Src/fsmc.c ****                           |GPIO_PIN_15|GPIO_PIN_0|GPIO_PIN_1|GPIO_PIN_4
 136              		.loc 1 2007 23 is_stmt 0 view .LVU37
 137 006e 4CF23373 		movw	r3, #50995
 138 0072 0193     		str	r3, [sp, #4]
2010:Core/Src/fsmc.c ****   GPIO_InitStruct.Pull = GPIO_NOPULL;
 139              		.loc 1 2010 3 is_stmt 1 view .LVU38
2010:Core/Src/fsmc.c ****   GPIO_InitStruct.Pull = GPIO_NOPULL;
 140              		.loc 1 2010 24 is_stmt 0 view .LVU39
 141 0074 0297     		str	r7, [sp, #8]
2011:Core/Src/fsmc.c ****   GPIO_InitStruct.Speed = GPIO_SPEED_FREQ_VERY_HIGH;
 142              		.loc 1 2011 3 is_stmt 1 view .LVU40
2011:Core/Src/fsmc.c ****   GPIO_InitStruct.Speed = GPIO_SPEED_FREQ_VERY_HIGH;
 143              		.loc 1 2011 24 is_stmt 0 view .LVU41
 144 0076 0396     		str	r6, [sp, #12]
2012:Core/Src/fsmc.c ****   GPIO_InitStruct.Alternate = GPIO_AF12_FSMC;
 145              		.loc 1 2012 3 is_stmt 1 view .LVU42
2012:Core/Src/fsmc.c ****   GPIO_InitStruct.Alternate = GPIO_AF12_FSMC;
 146              		.loc 1 2012 25 is_stmt 0 view .LVU43
 147 0078 0495     		str	r5, [sp, #16]
2013:Core/Src/fsmc.c **** 
 148              		.loc 1 2013 3 is_stmt 1 view .LVU44
2013:Core/Src/fsmc.c **** 
 149              		.loc 1 2013 29 is_stmt 0 view .LVU45
 150 007a 0594     		str	r4, [sp, #20]
2015:Core/Src/fsmc.c **** 
 151              		.loc 1 2015 3 is_stmt 1 view .LVU46
 152 007c 01A9     		add	r1, sp, #4
 153 007e 0B48     		ldr	r0, .L6+16
 154 0080 FFF7FEFF 		bl	HAL_GPIO_Init
 155              	.LVL2:
ARM GAS  /tmp/ccE1vrH2.s 			page 40


2018:Core/Src/fsmc.c ****   GPIO_InitStruct.Mode = GPIO_MODE_AF_PP;
 156              		.loc 1 2018 3 view .LVU47
2018:Core/Src/fsmc.c ****   GPIO_InitStruct.Mode = GPIO_MODE_AF_PP;
 157              		.loc 1 2018 23 is_stmt 0 view .LVU48
 158 0084 CDF80480 		str	r8, [sp, #4]
2019:Core/Src/fsmc.c ****   GPIO_InitStruct.Pull = GPIO_NOPULL;
 159              		.loc 1 2019 3 is_stmt 1 view .LVU49
2019:Core/Src/fsmc.c ****   GPIO_InitStruct.Pull = GPIO_NOPULL;
 160              		.loc 1 2019 24 is_stmt 0 view .LVU50
 161 0088 0297     		str	r7, [sp, #8]
2020:Core/Src/fsmc.c ****   GPIO_InitStruct.Speed = GPIO_SPEED_FREQ_VERY_HIGH;
 162              		.loc 1 2020 3 is_stmt 1 view .LVU51
2020:Core/Src/fsmc.c ****   GPIO_InitStruct.Speed = GPIO_SPEED_FREQ_VERY_HIGH;
 163              		.loc 1 2020 24 is_stmt 0 view .LVU52
 164 008a 0396     		str	r6, [sp, #12]
2021:Core/Src/fsmc.c ****   GPIO_InitStruct.Alternate = GPIO_AF12_FSMC;
 165              		.loc 1 2021 3 is_stmt 1 view .LVU53
2021:Core/Src/fsmc.c ****   GPIO_InitStruct.Alternate = GPIO_AF12_FSMC;
 166              		.loc 1 2021 25 is_stmt 0 view .LVU54
 167 008c 0495     		str	r5, [sp, #16]
2022:Core/Src/fsmc.c **** 
 168              		.loc 1 2022 3 is_stmt 1 view .LVU55
2022:Core/Src/fsmc.c **** 
 169              		.loc 1 2022 29 is_stmt 0 view .LVU56
 170 008e 0594     		str	r4, [sp, #20]
2024:Core/Src/fsmc.c **** 
 171              		.loc 1 2024 3 is_stmt 1 view .LVU57
 172 0090 01A9     		add	r1, sp, #4
 173 0092 0748     		ldr	r0, .L6+20
 174 0094 FFF7FEFF 		bl	HAL_GPIO_Init
 175              	.LVL3:
 176 0098 BEE7     		b	.L1
 177              	.L7:
 178 009a 00BF     		.align	2
 179              	.L6:
 180 009c 00000000 		.word	.LANCHOR0
 181 00a0 00380240 		.word	1073887232
 182 00a4 00140240 		.word	1073878016
 183 00a8 00100240 		.word	1073876992
 184 00ac 000C0240 		.word	1073875968
 185 00b0 00180240 		.word	1073879040
 186              		.cfi_endproc
 187              	.LFE161:
 189              		.section	.text.HAL_FSMC_MspDeInit,"ax",%progbits
 190              		.align	1
 191              		.syntax unified
 192              		.thumb
 193              		.thumb_func
 195              	HAL_FSMC_MspDeInit:
 196              	.LFB163:
2030:Core/Src/fsmc.c **** 
2031:Core/Src/fsmc.c **** void HAL_SRAM_MspInit(SRAM_HandleTypeDef* sramHandle){
2032:Core/Src/fsmc.c ****   /* USER CODE BEGIN SRAM_MspInit 0 */
2033:Core/Src/fsmc.c **** 
2034:Core/Src/fsmc.c ****   /* USER CODE END SRAM_MspInit 0 */
2035:Core/Src/fsmc.c ****   HAL_FSMC_MspInit();
2036:Core/Src/fsmc.c ****   /* USER CODE BEGIN SRAM_MspInit 1 */
ARM GAS  /tmp/ccE1vrH2.s 			page 41


2037:Core/Src/fsmc.c **** 
2038:Core/Src/fsmc.c ****   /* USER CODE END SRAM_MspInit 1 */
2039:Core/Src/fsmc.c **** }
2040:Core/Src/fsmc.c **** 
2041:Core/Src/fsmc.c **** static uint32_t FSMC_DeInitialized = 0;
2042:Core/Src/fsmc.c **** 
2043:Core/Src/fsmc.c **** static void HAL_FSMC_MspDeInit(void){
 197              		.loc 1 2043 37 view -0
 198              		.cfi_startproc
 199              		@ args = 0, pretend = 0, frame = 0
 200              		@ frame_needed = 0, uses_anonymous_args = 0
 201 0000 08B5     		push	{r3, lr}
 202              	.LCFI4:
 203              		.cfi_def_cfa_offset 8
 204              		.cfi_offset 3, -8
 205              		.cfi_offset 14, -4
2044:Core/Src/fsmc.c ****   /* USER CODE BEGIN FSMC_MspDeInit 0 */
2045:Core/Src/fsmc.c **** 
2046:Core/Src/fsmc.c ****   /* USER CODE END FSMC_MspDeInit 0 */
2047:Core/Src/fsmc.c ****   if (FSMC_DeInitialized) {
 206              		.loc 1 2047 3 view .LVU59
 207              		.loc 1 2047 7 is_stmt 0 view .LVU60
 208 0002 104B     		ldr	r3, .L12
 209 0004 1B68     		ldr	r3, [r3]
 210              		.loc 1 2047 6 view .LVU61
 211 0006 03B1     		cbz	r3, .L11
 212              	.L8:
2048:Core/Src/fsmc.c ****     return;
2049:Core/Src/fsmc.c ****   }
2050:Core/Src/fsmc.c ****   FSMC_DeInitialized = 1;
2051:Core/Src/fsmc.c ****   /* Peripheral clock enable */
2052:Core/Src/fsmc.c ****   __HAL_RCC_FSMC_CLK_DISABLE();
2053:Core/Src/fsmc.c **** 
2054:Core/Src/fsmc.c ****   /** FSMC GPIO Configuration
2055:Core/Src/fsmc.c ****   PF12   ------> FSMC_A6
2056:Core/Src/fsmc.c ****   PE7   ------> FSMC_D4
2057:Core/Src/fsmc.c ****   PE8   ------> FSMC_D5
2058:Core/Src/fsmc.c ****   PE9   ------> FSMC_D6
2059:Core/Src/fsmc.c ****   PE10   ------> FSMC_D7
2060:Core/Src/fsmc.c ****   PE11   ------> FSMC_D8
2061:Core/Src/fsmc.c ****   PE12   ------> FSMC_D9
2062:Core/Src/fsmc.c ****   PE13   ------> FSMC_D10
2063:Core/Src/fsmc.c ****   PE14   ------> FSMC_D11
2064:Core/Src/fsmc.c ****   PE15   ------> FSMC_D12
2065:Core/Src/fsmc.c ****   PD8   ------> FSMC_D13
2066:Core/Src/fsmc.c ****   PD9   ------> FSMC_D14
2067:Core/Src/fsmc.c ****   PD10   ------> FSMC_D15
2068:Core/Src/fsmc.c ****   PD14   ------> FSMC_D0
2069:Core/Src/fsmc.c ****   PD15   ------> FSMC_D1
2070:Core/Src/fsmc.c ****   PD0   ------> FSMC_D2
2071:Core/Src/fsmc.c ****   PD1   ------> FSMC_D3
2072:Core/Src/fsmc.c ****   PD4   ------> FSMC_NOE
2073:Core/Src/fsmc.c ****   PD5   ------> FSMC_NWE
2074:Core/Src/fsmc.c ****   PG12   ------> FSMC_NE4
2075:Core/Src/fsmc.c ****   */
2076:Core/Src/fsmc.c **** 
2077:Core/Src/fsmc.c ****   HAL_GPIO_DeInit(GPIOF, GPIO_PIN_12);
ARM GAS  /tmp/ccE1vrH2.s 			page 42


2078:Core/Src/fsmc.c **** 
2079:Core/Src/fsmc.c ****   HAL_GPIO_DeInit(GPIOE, GPIO_PIN_7|GPIO_PIN_8|GPIO_PIN_9|GPIO_PIN_10
2080:Core/Src/fsmc.c ****                           |GPIO_PIN_11|GPIO_PIN_12|GPIO_PIN_13|GPIO_PIN_14
2081:Core/Src/fsmc.c ****                           |GPIO_PIN_15);
2082:Core/Src/fsmc.c **** 
2083:Core/Src/fsmc.c ****   HAL_GPIO_DeInit(GPIOD, GPIO_PIN_8|GPIO_PIN_9|GPIO_PIN_10|GPIO_PIN_14
2084:Core/Src/fsmc.c ****                           |GPIO_PIN_15|GPIO_PIN_0|GPIO_PIN_1|GPIO_PIN_4
2085:Core/Src/fsmc.c ****                           |GPIO_PIN_5);
2086:Core/Src/fsmc.c **** 
2087:Core/Src/fsmc.c ****   HAL_GPIO_DeInit(GPIOG, GPIO_PIN_12);
2088:Core/Src/fsmc.c **** 
2089:Core/Src/fsmc.c ****   /* USER CODE BEGIN FSMC_MspDeInit 1 */
2090:Core/Src/fsmc.c **** 
2091:Core/Src/fsmc.c ****   /* USER CODE END FSMC_MspDeInit 1 */
2092:Core/Src/fsmc.c **** }
 213              		.loc 1 2092 1 view .LVU62
 214 0008 08BD     		pop	{r3, pc}
 215              	.L11:
2050:Core/Src/fsmc.c ****   /* Peripheral clock enable */
 216              		.loc 1 2050 3 is_stmt 1 view .LVU63
2050:Core/Src/fsmc.c ****   /* Peripheral clock enable */
 217              		.loc 1 2050 22 is_stmt 0 view .LVU64
 218 000a 0E4B     		ldr	r3, .L12
 219 000c 0122     		movs	r2, #1
 220 000e 1A60     		str	r2, [r3]
2052:Core/Src/fsmc.c **** 
 221              		.loc 1 2052 3 is_stmt 1 view .LVU65
 222 0010 0D4A     		ldr	r2, .L12+4
 223 0012 936B     		ldr	r3, [r2, #56]
 224 0014 23F00103 		bic	r3, r3, #1
 225 0018 9363     		str	r3, [r2, #56]
2077:Core/Src/fsmc.c **** 
 226              		.loc 1 2077 3 view .LVU66
 227 001a 4FF48051 		mov	r1, #4096
 228 001e 0B48     		ldr	r0, .L12+8
 229 0020 FFF7FEFF 		bl	HAL_GPIO_DeInit
 230              	.LVL4:
2079:Core/Src/fsmc.c ****                           |GPIO_PIN_11|GPIO_PIN_12|GPIO_PIN_13|GPIO_PIN_14
 231              		.loc 1 2079 3 view .LVU67
 232 0024 4FF68071 		movw	r1, #65408
 233 0028 0948     		ldr	r0, .L12+12
 234 002a FFF7FEFF 		bl	HAL_GPIO_DeInit
 235              	.LVL5:
2083:Core/Src/fsmc.c ****                           |GPIO_PIN_15|GPIO_PIN_0|GPIO_PIN_1|GPIO_PIN_4
 236              		.loc 1 2083 3 view .LVU68
 237 002e 4CF23371 		movw	r1, #50995
 238 0032 0848     		ldr	r0, .L12+16
 239 0034 FFF7FEFF 		bl	HAL_GPIO_DeInit
 240              	.LVL6:
2087:Core/Src/fsmc.c **** 
 241              		.loc 1 2087 3 view .LVU69
 242 0038 4FF48051 		mov	r1, #4096
 243 003c 0648     		ldr	r0, .L12+20
 244 003e FFF7FEFF 		bl	HAL_GPIO_DeInit
 245              	.LVL7:
 246 0042 E1E7     		b	.L8
 247              	.L13:
ARM GAS  /tmp/ccE1vrH2.s 			page 43


 248              		.align	2
 249              	.L12:
 250 0044 00000000 		.word	.LANCHOR1
 251 0048 00380240 		.word	1073887232
 252 004c 00140240 		.word	1073878016
 253 0050 00100240 		.word	1073876992
 254 0054 000C0240 		.word	1073875968
 255 0058 00180240 		.word	1073879040
 256              		.cfi_endproc
 257              	.LFE163:
 259              		.section	.text.LCD_WR_REG,"ax",%progbits
 260              		.align	1
 261              		.global	LCD_WR_REG
 262              		.syntax unified
 263              		.thumb
 264              		.thumb_func
 266              	LCD_WR_REG:
 267              	.LVL8:
 268              	.LFB133:
  34:Core/Src/fsmc.c ****   regval=regval;		//ä½¿ç”¨-O2ä¼˜åŒ–çš„æ—¶å€™,å¿…é¡»æ’å…¥çš„å»¶æ—¶
 269              		.loc 1 34 1 view -0
 270              		.cfi_startproc
 271              		@ args = 0, pretend = 0, frame = 8
 272              		@ frame_needed = 0, uses_anonymous_args = 0
 273              		@ link register save eliminated.
  34:Core/Src/fsmc.c ****   regval=regval;		//ä½¿ç”¨-O2ä¼˜åŒ–çš„æ—¶å€™,å¿…é¡»æ’å…¥çš„å»¶æ—¶
 274              		.loc 1 34 1 is_stmt 0 view .LVU71
 275 0000 82B0     		sub	sp, sp, #8
 276              	.LCFI5:
 277              		.cfi_def_cfa_offset 8
 278 0002 ADF80600 		strh	r0, [sp, #6]	@ movhi
  35:Core/Src/fsmc.c ****   LCD->LCD_REG=regval;//å†™å…¥è¦å†™çš„å¯„å­˜å™¨åºå·
 279              		.loc 1 35 3 is_stmt 1 view .LVU72
  35:Core/Src/fsmc.c ****   LCD->LCD_REG=regval;//å†™å…¥è¦å†™çš„å¯„å­˜å™¨åºå·
 280              		.loc 1 35 9 is_stmt 0 view .LVU73
 281 0006 BDF80630 		ldrh	r3, [sp, #6]
 282 000a 9BB2     		uxth	r3, r3
 283 000c ADF80630 		strh	r3, [sp, #6]	@ movhi
  36:Core/Src/fsmc.c **** }
 284              		.loc 1 36 3 is_stmt 1 view .LVU74
  36:Core/Src/fsmc.c **** }
 285              		.loc 1 36 15 is_stmt 0 view .LVU75
 286 0010 BDF80630 		ldrh	r3, [sp, #6]
 287 0014 9BB2     		uxth	r3, r3
 288 0016 4FF0D842 		mov	r2, #1811939328
 289 001a A2F87E30 		strh	r3, [r2, #126]	@ movhi
  37:Core/Src/fsmc.c **** //å†™LCDæ•°æ®
 290              		.loc 1 37 1 view .LVU76
 291 001e 02B0     		add	sp, sp, #8
 292              	.LCFI6:
 293              		.cfi_def_cfa_offset 0
 294              		@ sp needed
 295 0020 7047     		bx	lr
 296              		.cfi_endproc
 297              	.LFE133:
 299              		.section	.text.LCD_WR_DATA,"ax",%progbits
 300              		.align	1
ARM GAS  /tmp/ccE1vrH2.s 			page 44


 301              		.global	LCD_WR_DATA
 302              		.syntax unified
 303              		.thumb
 304              		.thumb_func
 306              	LCD_WR_DATA:
 307              	.LVL9:
 308              	.LFB134:
  41:Core/Src/fsmc.c ****   data=data;			//ä½¿ç”¨-O2ä¼˜åŒ–çš„æ—¶å€™,å¿…é¡»æ’å…¥çš„å»¶æ—¶
 309              		.loc 1 41 1 is_stmt 1 view -0
 310              		.cfi_startproc
 311              		@ args = 0, pretend = 0, frame = 8
 312              		@ frame_needed = 0, uses_anonymous_args = 0
 313              		@ link register save eliminated.
  41:Core/Src/fsmc.c ****   data=data;			//ä½¿ç”¨-O2ä¼˜åŒ–çš„æ—¶å€™,å¿…é¡»æ’å…¥çš„å»¶æ—¶
 314              		.loc 1 41 1 is_stmt 0 view .LVU78
 315 0000 82B0     		sub	sp, sp, #8
 316              	.LCFI7:
 317              		.cfi_def_cfa_offset 8
 318 0002 ADF80600 		strh	r0, [sp, #6]	@ movhi
  42:Core/Src/fsmc.c ****   LCD->LCD_RAM=data;
 319              		.loc 1 42 3 is_stmt 1 view .LVU79
  42:Core/Src/fsmc.c ****   LCD->LCD_RAM=data;
 320              		.loc 1 42 7 is_stmt 0 view .LVU80
 321 0006 BDF80630 		ldrh	r3, [sp, #6]
 322 000a 9BB2     		uxth	r3, r3
 323 000c ADF80630 		strh	r3, [sp, #6]	@ movhi
  43:Core/Src/fsmc.c **** }
 324              		.loc 1 43 3 is_stmt 1 view .LVU81
  43:Core/Src/fsmc.c **** }
 325              		.loc 1 43 15 is_stmt 0 view .LVU82
 326 0010 BDF80630 		ldrh	r3, [sp, #6]
 327 0014 9BB2     		uxth	r3, r3
 328 0016 4FF0D842 		mov	r2, #1811939328
 329 001a A2F88030 		strh	r3, [r2, #128]	@ movhi
  44:Core/Src/fsmc.c **** //è¯»LCDæ•°æ®
 330              		.loc 1 44 1 view .LVU83
 331 001e 02B0     		add	sp, sp, #8
 332              	.LCFI8:
 333              		.cfi_def_cfa_offset 0
 334              		@ sp needed
 335 0020 7047     		bx	lr
 336              		.cfi_endproc
 337              	.LFE134:
 339              		.section	.text.LCD_RD_DATA,"ax",%progbits
 340              		.align	1
 341              		.global	LCD_RD_DATA
 342              		.syntax unified
 343              		.thumb
 344              		.thumb_func
 346              	LCD_RD_DATA:
 347              	.LFB135:
  48:Core/Src/fsmc.c ****   __IO uint16_t ram;			//é˜²æ­¢è¢«ä¼˜åŒ–
 348              		.loc 1 48 1 is_stmt 1 view -0
 349              		.cfi_startproc
 350              		@ args = 0, pretend = 0, frame = 8
 351              		@ frame_needed = 0, uses_anonymous_args = 0
 352              		@ link register save eliminated.
ARM GAS  /tmp/ccE1vrH2.s 			page 45


 353 0000 82B0     		sub	sp, sp, #8
 354              	.LCFI9:
 355              		.cfi_def_cfa_offset 8
  49:Core/Src/fsmc.c ****   ram=LCD->LCD_RAM;
 356              		.loc 1 49 3 view .LVU85
  50:Core/Src/fsmc.c ****   return ram;
 357              		.loc 1 50 3 view .LVU86
  50:Core/Src/fsmc.c ****   return ram;
 358              		.loc 1 50 10 is_stmt 0 view .LVU87
 359 0002 4FF0D843 		mov	r3, #1811939328
 360 0006 B3F88030 		ldrh	r3, [r3, #128]
 361 000a 9BB2     		uxth	r3, r3
  50:Core/Src/fsmc.c ****   return ram;
 362              		.loc 1 50 6 view .LVU88
 363 000c ADF80630 		strh	r3, [sp, #6]	@ movhi
  51:Core/Src/fsmc.c **** }
 364              		.loc 1 51 3 is_stmt 1 view .LVU89
  51:Core/Src/fsmc.c **** }
 365              		.loc 1 51 10 is_stmt 0 view .LVU90
 366 0010 BDF80600 		ldrh	r0, [sp, #6]
  52:Core/Src/fsmc.c **** //å†™å¯„å­˜å™¨
 367              		.loc 1 52 1 view .LVU91
 368 0014 80B2     		uxth	r0, r0
 369 0016 02B0     		add	sp, sp, #8
 370              	.LCFI10:
 371              		.cfi_def_cfa_offset 0
 372              		@ sp needed
 373 0018 7047     		bx	lr
 374              		.cfi_endproc
 375              	.LFE135:
 377              		.section	.text.LCD_WriteReg,"ax",%progbits
 378              		.align	1
 379              		.global	LCD_WriteReg
 380              		.syntax unified
 381              		.thumb
 382              		.thumb_func
 384              	LCD_WriteReg:
 385              	.LVL10:
 386              	.LFB136:
  57:Core/Src/fsmc.c ****   LCD->LCD_REG = LCD_Reg;		//å†™å…¥è¦å†™çš„å¯„å­˜å™¨åºå·
 387              		.loc 1 57 1 is_stmt 1 view -0
 388              		.cfi_startproc
 389              		@ args = 0, pretend = 0, frame = 0
 390              		@ frame_needed = 0, uses_anonymous_args = 0
 391              		@ link register save eliminated.
  58:Core/Src/fsmc.c ****   LCD->LCD_RAM = LCD_RegValue;//å†™å…¥æ•°æ®
 392              		.loc 1 58 3 view .LVU93
  58:Core/Src/fsmc.c ****   LCD->LCD_RAM = LCD_RegValue;//å†™å…¥æ•°æ®
 393              		.loc 1 58 16 is_stmt 0 view .LVU94
 394 0000 4FF0D843 		mov	r3, #1811939328
 395 0004 A3F87E00 		strh	r0, [r3, #126]	@ movhi
  59:Core/Src/fsmc.c **** }
 396              		.loc 1 59 3 is_stmt 1 view .LVU95
  59:Core/Src/fsmc.c **** }
 397              		.loc 1 59 16 is_stmt 0 view .LVU96
 398 0008 A3F88010 		strh	r1, [r3, #128]	@ movhi
  60:Core/Src/fsmc.c **** //è¯»å¯„å­˜å™¨
ARM GAS  /tmp/ccE1vrH2.s 			page 46


 399              		.loc 1 60 1 view .LVU97
 400 000c 7047     		bx	lr
 401              		.cfi_endproc
 402              	.LFE136:
 404              		.section	.text.LCD_ReadReg,"ax",%progbits
 405              		.align	1
 406              		.global	LCD_ReadReg
 407              		.syntax unified
 408              		.thumb
 409              		.thumb_func
 411              	LCD_ReadReg:
 412              	.LVL11:
 413              	.LFB137:
  65:Core/Src/fsmc.c ****   LCD_WR_REG(LCD_Reg);		//å†™å…¥è¦è¯»çš„å¯„å­˜å™¨åºå·
 414              		.loc 1 65 1 is_stmt 1 view -0
 415              		.cfi_startproc
 416              		@ args = 0, pretend = 0, frame = 0
 417              		@ frame_needed = 0, uses_anonymous_args = 0
  65:Core/Src/fsmc.c ****   LCD_WR_REG(LCD_Reg);		//å†™å…¥è¦è¯»çš„å¯„å­˜å™¨åºå·
 418              		.loc 1 65 1 is_stmt 0 view .LVU99
 419 0000 08B5     		push	{r3, lr}
 420              	.LCFI11:
 421              		.cfi_def_cfa_offset 8
 422              		.cfi_offset 3, -8
 423              		.cfi_offset 14, -4
  66:Core/Src/fsmc.c ****   //HAL_Delay(0.005);
 424              		.loc 1 66 3 is_stmt 1 view .LVU100
 425 0002 FFF7FEFF 		bl	LCD_WR_REG
 426              	.LVL12:
  68:Core/Src/fsmc.c **** }
 427              		.loc 1 68 3 view .LVU101
  68:Core/Src/fsmc.c **** }
 428              		.loc 1 68 10 is_stmt 0 view .LVU102
 429 0006 FFF7FEFF 		bl	LCD_RD_DATA
 430              	.LVL13:
  69:Core/Src/fsmc.c **** //å¼€å§‹å†™GRAM
 431              		.loc 1 69 1 view .LVU103
 432 000a 08BD     		pop	{r3, pc}
 433              		.cfi_endproc
 434              	.LFE137:
 436              		.section	.text.LCD_WriteRAM_Prepare,"ax",%progbits
 437              		.align	1
 438              		.global	LCD_WriteRAM_Prepare
 439              		.syntax unified
 440              		.thumb
 441              		.thumb_func
 443              	LCD_WriteRAM_Prepare:
 444              	.LFB138:
  72:Core/Src/fsmc.c ****   LCD->LCD_REG=lcddev.wramcmd;
 445              		.loc 1 72 1 is_stmt 1 view -0
 446              		.cfi_startproc
 447              		@ args = 0, pretend = 0, frame = 0
 448              		@ frame_needed = 0, uses_anonymous_args = 0
 449              		@ link register save eliminated.
  73:Core/Src/fsmc.c **** }
 450              		.loc 1 73 3 view .LVU105
  73:Core/Src/fsmc.c **** }
ARM GAS  /tmp/ccE1vrH2.s 			page 47


 451              		.loc 1 73 22 is_stmt 0 view .LVU106
 452 0000 034B     		ldr	r3, .L24
 453 0002 1A89     		ldrh	r2, [r3, #8]
  73:Core/Src/fsmc.c **** }
 454              		.loc 1 73 15 view .LVU107
 455 0004 4FF0D843 		mov	r3, #1811939328
 456 0008 A3F87E20 		strh	r2, [r3, #126]	@ movhi
  74:Core/Src/fsmc.c **** //LCDå†™GRAM
 457              		.loc 1 74 1 view .LVU108
 458 000c 7047     		bx	lr
 459              	.L25:
 460 000e 00BF     		.align	2
 461              	.L24:
 462 0010 00000000 		.word	.LANCHOR2
 463              		.cfi_endproc
 464              	.LFE138:
 466              		.section	.text.LCD_WriteRAM,"ax",%progbits
 467              		.align	1
 468              		.global	LCD_WriteRAM
 469              		.syntax unified
 470              		.thumb
 471              		.thumb_func
 473              	LCD_WriteRAM:
 474              	.LVL14:
 475              	.LFB139:
  78:Core/Src/fsmc.c ****   LCD->LCD_RAM = RGB_Code;//å†™åå…­ä½GRAM
 476              		.loc 1 78 1 is_stmt 1 view -0
 477              		.cfi_startproc
 478              		@ args = 0, pretend = 0, frame = 0
 479              		@ frame_needed = 0, uses_anonymous_args = 0
 480              		@ link register save eliminated.
  79:Core/Src/fsmc.c **** }
 481              		.loc 1 79 3 view .LVU110
  79:Core/Src/fsmc.c **** }
 482              		.loc 1 79 16 is_stmt 0 view .LVU111
 483 0000 4FF0D843 		mov	r3, #1811939328
 484 0004 A3F88000 		strh	r0, [r3, #128]	@ movhi
  80:Core/Src/fsmc.c **** //ä»ILI93xxè¯»å‡ºçš„æ•°æ®ä¸ºGBRæ ¼å¼ï¼Œè€Œæˆ‘ä»¬å†™å…¥çš„æ—¶å€™ä¸ºRGBæ ¼å¼ã€‚
 485              		.loc 1 80 1 view .LVU112
 486 0008 7047     		bx	lr
 487              		.cfi_endproc
 488              	.LFE139:
 490              		.section	.text.LCD_BGR2RGB,"ax",%progbits
 491              		.align	1
 492              		.global	LCD_BGR2RGB
 493              		.syntax unified
 494              		.thumb
 495              		.thumb_func
 497              	LCD_BGR2RGB:
 498              	.LVL15:
 499              	.LFB140:
  86:Core/Src/fsmc.c ****   uint16_t  r,g,b,rgb;
 500              		.loc 1 86 1 is_stmt 1 view -0
 501              		.cfi_startproc
 502              		@ args = 0, pretend = 0, frame = 0
 503              		@ frame_needed = 0, uses_anonymous_args = 0
 504              		@ link register save eliminated.
ARM GAS  /tmp/ccE1vrH2.s 			page 48


  87:Core/Src/fsmc.c ****   b=(c>>0)&0x1f;
 505              		.loc 1 87 3 view .LVU114
  88:Core/Src/fsmc.c ****   g=(c>>5)&0x3f;
 506              		.loc 1 88 3 view .LVU115
  89:Core/Src/fsmc.c ****   r=(c>>11)&0x1f;
 507              		.loc 1 89 3 view .LVU116
  89:Core/Src/fsmc.c ****   r=(c>>11)&0x1f;
 508              		.loc 1 89 11 is_stmt 0 view .LVU117
 509 0000 4309     		lsrs	r3, r0, #5
 510              	.LVL16:
  90:Core/Src/fsmc.c ****   rgb=(b<<11)+(g<<5)+(r<<0);
 511              		.loc 1 90 3 is_stmt 1 view .LVU118
  91:Core/Src/fsmc.c ****   return(rgb);
 512              		.loc 1 91 3 view .LVU119
  91:Core/Src/fsmc.c ****   return(rgb);
 513              		.loc 1 91 17 is_stmt 0 view .LVU120
 514 0002 5B01     		lsls	r3, r3, #5
 515              	.LVL17:
  91:Core/Src/fsmc.c ****   return(rgb);
 516              		.loc 1 91 17 view .LVU121
 517 0004 03F4FC63 		and	r3, r3, #2016
  91:Core/Src/fsmc.c ****   return(rgb);
 518              		.loc 1 91 14 view .LVU122
 519 0008 03EBC023 		add	r3, r3, r0, lsl #11
 520 000c 9BB2     		uxth	r3, r3
  91:Core/Src/fsmc.c ****   return(rgb);
 521              		.loc 1 91 6 view .LVU123
 522 000e 03EBD020 		add	r0, r3, r0, lsr #11
 523              	.LVL18:
  92:Core/Src/fsmc.c **** }
 524              		.loc 1 92 3 is_stmt 1 view .LVU124
  93:Core/Src/fsmc.c **** //å½“mdk -O1æ—¶é—´ä¼˜åŒ–æ—¶éœ€è¦è®¾ç½®
 525              		.loc 1 93 1 is_stmt 0 view .LVU125
 526 0012 80B2     		uxth	r0, r0
  93:Core/Src/fsmc.c **** //å½“mdk -O1æ—¶é—´ä¼˜åŒ–æ—¶éœ€è¦è®¾ç½®
 527              		.loc 1 93 1 view .LVU126
 528 0014 7047     		bx	lr
 529              		.cfi_endproc
 530              	.LFE140:
 532              		.section	.text.opt_delay,"ax",%progbits
 533              		.align	1
 534              		.global	opt_delay
 535              		.syntax unified
 536              		.thumb
 537              		.thumb_func
 539              	opt_delay:
 540              	.LFB141:
  97:Core/Src/fsmc.c ****   while(i--);
 541              		.loc 1 97 1 is_stmt 1 view -0
 542              		.cfi_startproc
 543              		@ args = 0, pretend = 0, frame = 0
 544              		@ frame_needed = 0, uses_anonymous_args = 0
 545              		@ link register save eliminated.
 546              	.LVL19:
 547              	.L29:
  98:Core/Src/fsmc.c **** }
 548              		.loc 1 98 13 discriminator 1 view .LVU128
ARM GAS  /tmp/ccE1vrH2.s 			page 49


  98:Core/Src/fsmc.c **** }
 549              		.loc 1 98 8 discriminator 1 view .LVU129
 550 0000 0346     		mov	r3, r0
  98:Core/Src/fsmc.c **** }
 551              		.loc 1 98 10 is_stmt 0 discriminator 1 view .LVU130
 552 0002 0138     		subs	r0, r0, #1
 553 0004 C0B2     		uxtb	r0, r0
 554              	.LVL20:
  98:Core/Src/fsmc.c **** }
 555              		.loc 1 98 8 discriminator 1 view .LVU131
 556 0006 002B     		cmp	r3, #0
 557 0008 FAD1     		bne	.L29
  99:Core/Src/fsmc.c **** //è¯»å–ä¸ªæŸç‚¹çš„é¢œè‰²å€¼
 558              		.loc 1 99 1 view .LVU132
 559 000a 7047     		bx	lr
 560              		.cfi_endproc
 561              	.LFE141:
 563              		.section	.text.LCD_DisplayOn,"ax",%progbits
 564              		.align	1
 565              		.global	LCD_DisplayOn
 566              		.syntax unified
 567              		.thumb
 568              		.thumb_func
 570              	LCD_DisplayOn:
 571              	.LFB143:
 123:Core/Src/fsmc.c ****   if(lcddev.id==0X9341||lcddev.id==0X5310||lcddev.id==0X1963)LCD_WR_REG(0X29);	//å¼€å¯æ˜¾ç¤º
 572              		.loc 1 123 1 is_stmt 1 view -0
 573              		.cfi_startproc
 574              		@ args = 0, pretend = 0, frame = 0
 575              		@ frame_needed = 0, uses_anonymous_args = 0
 576 0000 08B5     		push	{r3, lr}
 577              	.LCFI12:
 578              		.cfi_def_cfa_offset 8
 579              		.cfi_offset 3, -8
 580              		.cfi_offset 14, -4
 124:Core/Src/fsmc.c ****   else if(lcddev.id==0X5510)LCD_WR_REG(0X2900);	//å¼€å¯æ˜¾ç¤º
 581              		.loc 1 124 3 view .LVU134
 124:Core/Src/fsmc.c ****   else if(lcddev.id==0X5510)LCD_WR_REG(0X2900);	//å¼€å¯æ˜¾ç¤º
 582              		.loc 1 124 12 is_stmt 0 view .LVU135
 583 0002 0D4B     		ldr	r3, .L35
 584 0004 9B88     		ldrh	r3, [r3, #4]
 124:Core/Src/fsmc.c ****   else if(lcddev.id==0X5510)LCD_WR_REG(0X2900);	//å¼€å¯æ˜¾ç¤º
 585              		.loc 1 124 5 view .LVU136
 586 0006 49F24132 		movw	r2, #37697
 587 000a 9342     		cmp	r3, r2
 588 000c 10D0     		beq	.L31
 124:Core/Src/fsmc.c ****   else if(lcddev.id==0X5510)LCD_WR_REG(0X2900);	//å¼€å¯æ˜¾ç¤º
 589              		.loc 1 124 23 discriminator 2 view .LVU137
 590 000e 45F21032 		movw	r2, #21264
 591 0012 9342     		cmp	r3, r2
 592 0014 0CD0     		beq	.L31
 124:Core/Src/fsmc.c ****   else if(lcddev.id==0X5510)LCD_WR_REG(0X2900);	//å¼€å¯æ˜¾ç¤º
 593              		.loc 1 124 42 discriminator 4 view .LVU138
 594 0016 41F66312 		movw	r2, #6499
 595 001a 9342     		cmp	r3, r2
 596 001c 08D0     		beq	.L31
 125:Core/Src/fsmc.c **** }
ARM GAS  /tmp/ccE1vrH2.s 			page 50


 597              		.loc 1 125 8 is_stmt 1 view .LVU139
 125:Core/Src/fsmc.c **** }
 598              		.loc 1 125 10 is_stmt 0 view .LVU140
 599 001e 45F21052 		movw	r2, #21776
 600 0022 9342     		cmp	r3, r2
 601 0024 07D1     		bne	.L30
 125:Core/Src/fsmc.c **** }
 602              		.loc 1 125 29 is_stmt 1 discriminator 1 view .LVU141
 603 0026 4FF42450 		mov	r0, #10496
 604 002a FFF7FEFF 		bl	LCD_WR_REG
 605              	.LVL21:
 126:Core/Src/fsmc.c **** //LCDå…³é—­æ˜¾ç¤º
 606              		.loc 1 126 1 is_stmt 0 discriminator 1 view .LVU142
 607 002e 02E0     		b	.L30
 608              	.L31:
 124:Core/Src/fsmc.c ****   else if(lcddev.id==0X5510)LCD_WR_REG(0X2900);	//å¼€å¯æ˜¾ç¤º
 609              		.loc 1 124 62 is_stmt 1 discriminator 5 view .LVU143
 610 0030 2920     		movs	r0, #41
 611 0032 FFF7FEFF 		bl	LCD_WR_REG
 612              	.LVL22:
 613              	.L30:
 126:Core/Src/fsmc.c **** //LCDå…³é—­æ˜¾ç¤º
 614              		.loc 1 126 1 is_stmt 0 view .LVU144
 615 0036 08BD     		pop	{r3, pc}
 616              	.L36:
 617              		.align	2
 618              	.L35:
 619 0038 00000000 		.word	.LANCHOR2
 620              		.cfi_endproc
 621              	.LFE143:
 623              		.section	.text.LCD_DisplayOff,"ax",%progbits
 624              		.align	1
 625              		.global	LCD_DisplayOff
 626              		.syntax unified
 627              		.thumb
 628              		.thumb_func
 630              	LCD_DisplayOff:
 631              	.LFB144:
 129:Core/Src/fsmc.c ****   if(lcddev.id==0X9341||lcddev.id==0X5310||lcddev.id==0X1963)LCD_WR_REG(0X28);	//å…³é—­æ˜¾ç¤º
 632              		.loc 1 129 1 is_stmt 1 view -0
 633              		.cfi_startproc
 634              		@ args = 0, pretend = 0, frame = 0
 635              		@ frame_needed = 0, uses_anonymous_args = 0
 636 0000 08B5     		push	{r3, lr}
 637              	.LCFI13:
 638              		.cfi_def_cfa_offset 8
 639              		.cfi_offset 3, -8
 640              		.cfi_offset 14, -4
 130:Core/Src/fsmc.c ****   else if(lcddev.id==0X5510)LCD_WR_REG(0X2800);	//å…³é—­æ˜¾ç¤º
 641              		.loc 1 130 3 view .LVU146
 130:Core/Src/fsmc.c ****   else if(lcddev.id==0X5510)LCD_WR_REG(0X2800);	//å…³é—­æ˜¾ç¤º
 642              		.loc 1 130 12 is_stmt 0 view .LVU147
 643 0002 0D4B     		ldr	r3, .L42
 644 0004 9B88     		ldrh	r3, [r3, #4]
 130:Core/Src/fsmc.c ****   else if(lcddev.id==0X5510)LCD_WR_REG(0X2800);	//å…³é—­æ˜¾ç¤º
 645              		.loc 1 130 5 view .LVU148
 646 0006 49F24132 		movw	r2, #37697
ARM GAS  /tmp/ccE1vrH2.s 			page 51


 647 000a 9342     		cmp	r3, r2
 648 000c 10D0     		beq	.L38
 130:Core/Src/fsmc.c ****   else if(lcddev.id==0X5510)LCD_WR_REG(0X2800);	//å…³é—­æ˜¾ç¤º
 649              		.loc 1 130 23 discriminator 2 view .LVU149
 650 000e 45F21032 		movw	r2, #21264
 651 0012 9342     		cmp	r3, r2
 652 0014 0CD0     		beq	.L38
 130:Core/Src/fsmc.c ****   else if(lcddev.id==0X5510)LCD_WR_REG(0X2800);	//å…³é—­æ˜¾ç¤º
 653              		.loc 1 130 42 discriminator 4 view .LVU150
 654 0016 41F66312 		movw	r2, #6499
 655 001a 9342     		cmp	r3, r2
 656 001c 08D0     		beq	.L38
 131:Core/Src/fsmc.c **** }
 657              		.loc 1 131 8 is_stmt 1 view .LVU151
 131:Core/Src/fsmc.c **** }
 658              		.loc 1 131 10 is_stmt 0 view .LVU152
 659 001e 45F21052 		movw	r2, #21776
 660 0022 9342     		cmp	r3, r2
 661 0024 07D1     		bne	.L37
 131:Core/Src/fsmc.c **** }
 662              		.loc 1 131 29 is_stmt 1 discriminator 1 view .LVU153
 663 0026 4FF42050 		mov	r0, #10240
 664 002a FFF7FEFF 		bl	LCD_WR_REG
 665              	.LVL23:
 132:Core/Src/fsmc.c **** //è®¾ç½®å…‰æ ‡ä½ç½®(å¯¹RGBå±æ— æ•ˆ)
 666              		.loc 1 132 1 is_stmt 0 discriminator 1 view .LVU154
 667 002e 02E0     		b	.L37
 668              	.L38:
 130:Core/Src/fsmc.c ****   else if(lcddev.id==0X5510)LCD_WR_REG(0X2800);	//å…³é—­æ˜¾ç¤º
 669              		.loc 1 130 62 is_stmt 1 discriminator 5 view .LVU155
 670 0030 2820     		movs	r0, #40
 671 0032 FFF7FEFF 		bl	LCD_WR_REG
 672              	.LVL24:
 673              	.L37:
 132:Core/Src/fsmc.c **** //è®¾ç½®å…‰æ ‡ä½ç½®(å¯¹RGBå±æ— æ•ˆ)
 674              		.loc 1 132 1 is_stmt 0 view .LVU156
 675 0036 08BD     		pop	{r3, pc}
 676              	.L43:
 677              		.align	2
 678              	.L42:
 679 0038 00000000 		.word	.LANCHOR2
 680              		.cfi_endproc
 681              	.LFE144:
 683              		.section	.text.LCD_SetCursor,"ax",%progbits
 684              		.align	1
 685              		.global	LCD_SetCursor
 686              		.syntax unified
 687              		.thumb
 688              		.thumb_func
 690              	LCD_SetCursor:
 691              	.LVL25:
 692              	.LFB145:
 137:Core/Src/fsmc.c ****   if(lcddev.id==0X9341||lcddev.id==0X5310)
 693              		.loc 1 137 1 is_stmt 1 view -0
 694              		.cfi_startproc
 695              		@ args = 0, pretend = 0, frame = 0
 696              		@ frame_needed = 0, uses_anonymous_args = 0
ARM GAS  /tmp/ccE1vrH2.s 			page 52


 137:Core/Src/fsmc.c ****   if(lcddev.id==0X9341||lcddev.id==0X5310)
 697              		.loc 1 137 1 is_stmt 0 view .LVU158
 698 0000 70B5     		push	{r4, r5, r6, lr}
 699              	.LCFI14:
 700              		.cfi_def_cfa_offset 16
 701              		.cfi_offset 4, -16
 702              		.cfi_offset 5, -12
 703              		.cfi_offset 6, -8
 704              		.cfi_offset 14, -4
 705 0002 0546     		mov	r5, r0
 706 0004 0C46     		mov	r4, r1
 138:Core/Src/fsmc.c ****   {
 707              		.loc 1 138 3 is_stmt 1 view .LVU159
 138:Core/Src/fsmc.c ****   {
 708              		.loc 1 138 12 is_stmt 0 view .LVU160
 709 0006 444B     		ldr	r3, .L53
 710 0008 9B88     		ldrh	r3, [r3, #4]
 138:Core/Src/fsmc.c ****   {
 711              		.loc 1 138 5 view .LVU161
 712 000a 49F24132 		movw	r2, #37697
 713 000e 9342     		cmp	r3, r2
 714 0010 29D0     		beq	.L45
 138:Core/Src/fsmc.c ****   {
 715              		.loc 1 138 23 discriminator 1 view .LVU162
 716 0012 45F21032 		movw	r2, #21264
 717 0016 9342     		cmp	r3, r2
 718 0018 25D0     		beq	.L45
 144:Core/Src/fsmc.c ****   {
 719              		.loc 1 144 9 is_stmt 1 view .LVU163
 144:Core/Src/fsmc.c ****   {
 720              		.loc 1 144 11 is_stmt 0 view .LVU164
 721 001a 41F66312 		movw	r2, #6499
 722 001e 9342     		cmp	r3, r2
 723 0020 35D0     		beq	.L52
 162:Core/Src/fsmc.c ****   {
 724              		.loc 1 162 9 is_stmt 1 view .LVU165
 162:Core/Src/fsmc.c ****   {
 725              		.loc 1 162 11 is_stmt 0 view .LVU166
 726 0022 45F21052 		movw	r2, #21776
 727 0026 9342     		cmp	r3, r2
 728 0028 30D1     		bne	.L44
 164:Core/Src/fsmc.c ****     LCD_WR_REG(lcddev.setxcmd+1);LCD_WR_DATA(Xpos&0XFF);
 729              		.loc 1 164 5 is_stmt 1 view .LVU167
 730 002a 3B4E     		ldr	r6, .L53
 731 002c 7089     		ldrh	r0, [r6, #10]
 732              	.LVL26:
 164:Core/Src/fsmc.c ****     LCD_WR_REG(lcddev.setxcmd+1);LCD_WR_DATA(Xpos&0XFF);
 733              		.loc 1 164 5 is_stmt 0 view .LVU168
 734 002e FFF7FEFF 		bl	LCD_WR_REG
 735              	.LVL27:
 164:Core/Src/fsmc.c ****     LCD_WR_REG(lcddev.setxcmd+1);LCD_WR_DATA(Xpos&0XFF);
 736              		.loc 1 164 32 is_stmt 1 view .LVU169
 737 0032 280A     		lsrs	r0, r5, #8
 738 0034 FFF7FEFF 		bl	LCD_WR_DATA
 739              	.LVL28:
 165:Core/Src/fsmc.c ****     LCD_WR_REG(lcddev.setycmd);LCD_WR_DATA(Ypos>>8);
 740              		.loc 1 165 5 view .LVU170
ARM GAS  /tmp/ccE1vrH2.s 			page 53


 165:Core/Src/fsmc.c ****     LCD_WR_REG(lcddev.setycmd);LCD_WR_DATA(Ypos>>8);
 741              		.loc 1 165 22 is_stmt 0 view .LVU171
 742 0038 7089     		ldrh	r0, [r6, #10]
 165:Core/Src/fsmc.c ****     LCD_WR_REG(lcddev.setycmd);LCD_WR_DATA(Ypos>>8);
 743              		.loc 1 165 5 view .LVU172
 744 003a 0130     		adds	r0, r0, #1
 745 003c 80B2     		uxth	r0, r0
 746 003e FFF7FEFF 		bl	LCD_WR_REG
 747              	.LVL29:
 165:Core/Src/fsmc.c ****     LCD_WR_REG(lcddev.setycmd);LCD_WR_DATA(Ypos>>8);
 748              		.loc 1 165 34 is_stmt 1 view .LVU173
 749 0042 E8B2     		uxtb	r0, r5
 750 0044 FFF7FEFF 		bl	LCD_WR_DATA
 751              	.LVL30:
 166:Core/Src/fsmc.c ****     LCD_WR_REG(lcddev.setycmd+1);LCD_WR_DATA(Ypos&0XFF);
 752              		.loc 1 166 5 view .LVU174
 753 0048 B089     		ldrh	r0, [r6, #12]
 754 004a FFF7FEFF 		bl	LCD_WR_REG
 755              	.LVL31:
 166:Core/Src/fsmc.c ****     LCD_WR_REG(lcddev.setycmd+1);LCD_WR_DATA(Ypos&0XFF);
 756              		.loc 1 166 32 view .LVU175
 757 004e 200A     		lsrs	r0, r4, #8
 758 0050 FFF7FEFF 		bl	LCD_WR_DATA
 759              	.LVL32:
 167:Core/Src/fsmc.c ****   }
 760              		.loc 1 167 5 view .LVU176
 167:Core/Src/fsmc.c ****   }
 761              		.loc 1 167 22 is_stmt 0 view .LVU177
 762 0054 B089     		ldrh	r0, [r6, #12]
 167:Core/Src/fsmc.c ****   }
 763              		.loc 1 167 5 view .LVU178
 764 0056 0130     		adds	r0, r0, #1
 765 0058 80B2     		uxth	r0, r0
 766 005a FFF7FEFF 		bl	LCD_WR_REG
 767              	.LVL33:
 167:Core/Src/fsmc.c ****   }
 768              		.loc 1 167 34 is_stmt 1 view .LVU179
 769 005e E0B2     		uxtb	r0, r4
 770 0060 FFF7FEFF 		bl	LCD_WR_DATA
 771              	.LVL34:
 169:Core/Src/fsmc.c **** //è®¾ç½®LCDçš„è‡ªåŠ¨æ‰«ææ–¹å‘(å¯¹RGBå±æ— æ•ˆ)
 772              		.loc 1 169 1 is_stmt 0 view .LVU180
 773 0064 12E0     		b	.L44
 774              	.LVL35:
 775              	.L45:
 140:Core/Src/fsmc.c ****     LCD_WR_DATA(Xpos>>8);LCD_WR_DATA(Xpos&0XFF);
 776              		.loc 1 140 5 is_stmt 1 view .LVU181
 777 0066 2C4E     		ldr	r6, .L53
 778 0068 7089     		ldrh	r0, [r6, #10]
 779              	.LVL36:
 140:Core/Src/fsmc.c ****     LCD_WR_DATA(Xpos>>8);LCD_WR_DATA(Xpos&0XFF);
 780              		.loc 1 140 5 is_stmt 0 view .LVU182
 781 006a FFF7FEFF 		bl	LCD_WR_REG
 782              	.LVL37:
 141:Core/Src/fsmc.c ****     LCD_WR_REG(lcddev.setycmd);
 783              		.loc 1 141 5 is_stmt 1 view .LVU183
 784 006e 280A     		lsrs	r0, r5, #8
ARM GAS  /tmp/ccE1vrH2.s 			page 54


 785 0070 FFF7FEFF 		bl	LCD_WR_DATA
 786              	.LVL38:
 141:Core/Src/fsmc.c ****     LCD_WR_REG(lcddev.setycmd);
 787              		.loc 1 141 26 view .LVU184
 788 0074 E8B2     		uxtb	r0, r5
 789 0076 FFF7FEFF 		bl	LCD_WR_DATA
 790              	.LVL39:
 142:Core/Src/fsmc.c ****     LCD_WR_DATA(Ypos>>8);LCD_WR_DATA(Ypos&0XFF);
 791              		.loc 1 142 5 view .LVU185
 792 007a B089     		ldrh	r0, [r6, #12]
 793 007c FFF7FEFF 		bl	LCD_WR_REG
 794              	.LVL40:
 143:Core/Src/fsmc.c ****   }else if(lcddev.id==0X1963)
 795              		.loc 1 143 5 view .LVU186
 796 0080 200A     		lsrs	r0, r4, #8
 797 0082 FFF7FEFF 		bl	LCD_WR_DATA
 798              	.LVL41:
 143:Core/Src/fsmc.c ****   }else if(lcddev.id==0X1963)
 799              		.loc 1 143 26 view .LVU187
 800 0086 E0B2     		uxtb	r0, r4
 801 0088 FFF7FEFF 		bl	LCD_WR_DATA
 802              	.LVL42:
 803              	.L44:
 169:Core/Src/fsmc.c **** //è®¾ç½®LCDçš„è‡ªåŠ¨æ‰«ææ–¹å‘(å¯¹RGBå±æ— æ•ˆ)
 804              		.loc 1 169 1 is_stmt 0 view .LVU188
 805 008c 70BD     		pop	{r4, r5, r6, pc}
 806              	.LVL43:
 807              	.L52:
 146:Core/Src/fsmc.c ****     {
 808              		.loc 1 146 5 is_stmt 1 view .LVU189
 146:Core/Src/fsmc.c ****     {
 809              		.loc 1 146 14 is_stmt 0 view .LVU190
 810 008e 224B     		ldr	r3, .L53
 811 0090 9B79     		ldrb	r3, [r3, #6]	@ zero_extendqisi2
 146:Core/Src/fsmc.c ****     {
 812              		.loc 1 146 7 view .LVU191
 813 0092 53BB     		cbnz	r3, .L49
 148:Core/Src/fsmc.c ****       LCD_WR_REG(lcddev.setxcmd);
 814              		.loc 1 148 7 is_stmt 1 view .LVU192
 148:Core/Src/fsmc.c ****       LCD_WR_REG(lcddev.setxcmd);
 815              		.loc 1 148 18 is_stmt 0 view .LVU193
 816 0094 204B     		ldr	r3, .L53
 817 0096 1888     		ldrh	r0, [r3]
 818              	.LVL44:
 148:Core/Src/fsmc.c ****       LCD_WR_REG(lcddev.setxcmd);
 819              		.loc 1 148 26 view .LVU194
 820 0098 451B     		subs	r5, r0, r5
 821 009a ADB2     		uxth	r5, r5
 148:Core/Src/fsmc.c ****       LCD_WR_REG(lcddev.setxcmd);
 822              		.loc 1 148 11 view .LVU195
 823 009c 013D     		subs	r5, r5, #1
 824 009e ADB2     		uxth	r5, r5
 825              	.LVL45:
 149:Core/Src/fsmc.c ****       LCD_WR_DATA(0);LCD_WR_DATA(0);
 826              		.loc 1 149 7 is_stmt 1 view .LVU196
 827 00a0 5889     		ldrh	r0, [r3, #10]
 828 00a2 FFF7FEFF 		bl	LCD_WR_REG
ARM GAS  /tmp/ccE1vrH2.s 			page 55


 829              	.LVL46:
 150:Core/Src/fsmc.c ****       LCD_WR_DATA(Xpos>>8);LCD_WR_DATA(Xpos&0XFF);
 830              		.loc 1 150 7 view .LVU197
 831 00a6 0020     		movs	r0, #0
 832 00a8 FFF7FEFF 		bl	LCD_WR_DATA
 833              	.LVL47:
 150:Core/Src/fsmc.c ****       LCD_WR_DATA(Xpos>>8);LCD_WR_DATA(Xpos&0XFF);
 834              		.loc 1 150 22 view .LVU198
 835 00ac 0020     		movs	r0, #0
 836 00ae FFF7FEFF 		bl	LCD_WR_DATA
 837              	.LVL48:
 151:Core/Src/fsmc.c ****     }else
 838              		.loc 1 151 7 view .LVU199
 839 00b2 280A     		lsrs	r0, r5, #8
 840 00b4 FFF7FEFF 		bl	LCD_WR_DATA
 841              	.LVL49:
 151:Core/Src/fsmc.c ****     }else
 842              		.loc 1 151 28 view .LVU200
 843 00b8 E8B2     		uxtb	r0, r5
 844 00ba FFF7FEFF 		bl	LCD_WR_DATA
 845              	.LVL50:
 846              	.L50:
 158:Core/Src/fsmc.c ****     LCD_WR_DATA(Ypos>>8);LCD_WR_DATA(Ypos&0XFF);
 847              		.loc 1 158 5 view .LVU201
 848 00be 164D     		ldr	r5, .L53
 849 00c0 A889     		ldrh	r0, [r5, #12]
 850 00c2 FFF7FEFF 		bl	LCD_WR_REG
 851              	.LVL51:
 159:Core/Src/fsmc.c ****     LCD_WR_DATA((lcddev.height-1)>>8);LCD_WR_DATA((lcddev.height-1)&0XFF);
 852              		.loc 1 159 5 view .LVU202
 853 00c6 200A     		lsrs	r0, r4, #8
 854 00c8 FFF7FEFF 		bl	LCD_WR_DATA
 855              	.LVL52:
 159:Core/Src/fsmc.c ****     LCD_WR_DATA((lcddev.height-1)>>8);LCD_WR_DATA((lcddev.height-1)&0XFF);
 856              		.loc 1 159 26 view .LVU203
 857 00cc E0B2     		uxtb	r0, r4
 858 00ce FFF7FEFF 		bl	LCD_WR_DATA
 859              	.LVL53:
 160:Core/Src/fsmc.c **** 
 860              		.loc 1 160 5 view .LVU204
 160:Core/Src/fsmc.c **** 
 861              		.loc 1 160 24 is_stmt 0 view .LVU205
 862 00d2 6888     		ldrh	r0, [r5, #2]
 160:Core/Src/fsmc.c **** 
 863              		.loc 1 160 31 view .LVU206
 864 00d4 0138     		subs	r0, r0, #1
 160:Core/Src/fsmc.c **** 
 865              		.loc 1 160 5 view .LVU207
 866 00d6 C0F30F20 		ubfx	r0, r0, #8, #16
 867 00da FFF7FEFF 		bl	LCD_WR_DATA
 868              	.LVL54:
 160:Core/Src/fsmc.c **** 
 869              		.loc 1 160 39 is_stmt 1 view .LVU208
 160:Core/Src/fsmc.c **** 
 870              		.loc 1 160 58 is_stmt 0 view .LVU209
 871 00de 6888     		ldrh	r0, [r5, #2]
 160:Core/Src/fsmc.c **** 
ARM GAS  /tmp/ccE1vrH2.s 			page 56


 872              		.loc 1 160 65 view .LVU210
 873 00e0 0138     		subs	r0, r0, #1
 160:Core/Src/fsmc.c **** 
 874              		.loc 1 160 39 view .LVU211
 875 00e2 C0B2     		uxtb	r0, r0
 876 00e4 FFF7FEFF 		bl	LCD_WR_DATA
 877              	.LVL55:
 878 00e8 D0E7     		b	.L44
 879              	.LVL56:
 880              	.L49:
 154:Core/Src/fsmc.c ****       LCD_WR_DATA(Xpos>>8);LCD_WR_DATA(Xpos&0XFF);
 881              		.loc 1 154 7 is_stmt 1 view .LVU212
 882 00ea 0B4E     		ldr	r6, .L53
 883 00ec 7089     		ldrh	r0, [r6, #10]
 884              	.LVL57:
 154:Core/Src/fsmc.c ****       LCD_WR_DATA(Xpos>>8);LCD_WR_DATA(Xpos&0XFF);
 885              		.loc 1 154 7 is_stmt 0 view .LVU213
 886 00ee FFF7FEFF 		bl	LCD_WR_REG
 887              	.LVL58:
 155:Core/Src/fsmc.c ****       LCD_WR_DATA((lcddev.width-1)>>8);LCD_WR_DATA((lcddev.width-1)&0XFF);
 888              		.loc 1 155 7 is_stmt 1 view .LVU214
 889 00f2 280A     		lsrs	r0, r5, #8
 890 00f4 FFF7FEFF 		bl	LCD_WR_DATA
 891              	.LVL59:
 155:Core/Src/fsmc.c ****       LCD_WR_DATA((lcddev.width-1)>>8);LCD_WR_DATA((lcddev.width-1)&0XFF);
 892              		.loc 1 155 28 view .LVU215
 893 00f8 E8B2     		uxtb	r0, r5
 894 00fa FFF7FEFF 		bl	LCD_WR_DATA
 895              	.LVL60:
 156:Core/Src/fsmc.c ****     }
 896              		.loc 1 156 7 view .LVU216
 156:Core/Src/fsmc.c ****     }
 897              		.loc 1 156 26 is_stmt 0 view .LVU217
 898 00fe 3088     		ldrh	r0, [r6]
 156:Core/Src/fsmc.c ****     }
 899              		.loc 1 156 32 view .LVU218
 900 0100 0138     		subs	r0, r0, #1
 156:Core/Src/fsmc.c ****     }
 901              		.loc 1 156 7 view .LVU219
 902 0102 C0F30F20 		ubfx	r0, r0, #8, #16
 903 0106 FFF7FEFF 		bl	LCD_WR_DATA
 904              	.LVL61:
 156:Core/Src/fsmc.c ****     }
 905              		.loc 1 156 40 is_stmt 1 view .LVU220
 156:Core/Src/fsmc.c ****     }
 906              		.loc 1 156 59 is_stmt 0 view .LVU221
 907 010a 3088     		ldrh	r0, [r6]
 156:Core/Src/fsmc.c ****     }
 908              		.loc 1 156 65 view .LVU222
 909 010c 0138     		subs	r0, r0, #1
 156:Core/Src/fsmc.c ****     }
 910              		.loc 1 156 40 view .LVU223
 911 010e C0B2     		uxtb	r0, r0
 912 0110 FFF7FEFF 		bl	LCD_WR_DATA
 913              	.LVL62:
 914 0114 D3E7     		b	.L50
 915              	.L54:
ARM GAS  /tmp/ccE1vrH2.s 			page 57


 916 0116 00BF     		.align	2
 917              	.L53:
 918 0118 00000000 		.word	.LANCHOR2
 919              		.cfi_endproc
 920              	.LFE145:
 922              		.section	.text.LCD_ReadPoint,"ax",%progbits
 923              		.align	1
 924              		.global	LCD_ReadPoint
 925              		.syntax unified
 926              		.thumb
 927              		.thumb_func
 929              	LCD_ReadPoint:
 930              	.LVL63:
 931              	.LFB142:
 104:Core/Src/fsmc.c ****   uint16_t r=0,g=0,b=0;
 932              		.loc 1 104 1 is_stmt 1 view -0
 933              		.cfi_startproc
 934              		@ args = 0, pretend = 0, frame = 0
 935              		@ frame_needed = 0, uses_anonymous_args = 0
 105:Core/Src/fsmc.c ****   if(x>=lcddev.width||y>=lcddev.height)return 0;	//è¶…è¿‡äº†èŒƒå›´,ç›´æ¥è¿”å›
 936              		.loc 1 105 3 view .LVU225
 106:Core/Src/fsmc.c ****   LCD_SetCursor(x,y);
 937              		.loc 1 106 3 view .LVU226
 106:Core/Src/fsmc.c ****   LCD_SetCursor(x,y);
 938              		.loc 1 106 15 is_stmt 0 view .LVU227
 939 0000 204B     		ldr	r3, .L68
 940 0002 1B88     		ldrh	r3, [r3]
 106:Core/Src/fsmc.c ****   LCD_SetCursor(x,y);
 941              		.loc 1 106 5 view .LVU228
 942 0004 8342     		cmp	r3, r0
 943 0006 3AD9     		bls	.L61
 106:Core/Src/fsmc.c ****   LCD_SetCursor(x,y);
 944              		.loc 1 106 32 discriminator 2 view .LVU229
 945 0008 1E4B     		ldr	r3, .L68
 946 000a 5B88     		ldrh	r3, [r3, #2]
 106:Core/Src/fsmc.c ****   LCD_SetCursor(x,y);
 947              		.loc 1 106 21 discriminator 2 view .LVU230
 948 000c 8B42     		cmp	r3, r1
 949 000e 01D8     		bhi	.L67
 106:Core/Src/fsmc.c ****   LCD_SetCursor(x,y);
 950              		.loc 1 106 47 view .LVU231
 951 0010 0020     		movs	r0, #0
 952              	.LVL64:
 120:Core/Src/fsmc.c **** //LCDå¼€å¯æ˜¾ç¤º
 953              		.loc 1 120 1 view .LVU232
 954 0012 7047     		bx	lr
 955              	.LVL65:
 956              	.L67:
 104:Core/Src/fsmc.c ****   uint16_t r=0,g=0,b=0;
 957              		.loc 1 104 1 view .LVU233
 958 0014 10B5     		push	{r4, lr}
 959              	.LCFI15:
 960              		.cfi_def_cfa_offset 8
 961              		.cfi_offset 4, -8
 962              		.cfi_offset 14, -4
 107:Core/Src/fsmc.c ****   if(lcddev.id==0X9341||lcddev.id==0X5310||lcddev.id==0X1963)LCD_WR_REG(0X2E);//9341/3510/1963 å‘é
 963              		.loc 1 107 3 is_stmt 1 view .LVU234
ARM GAS  /tmp/ccE1vrH2.s 			page 58


 964 0016 FFF7FEFF 		bl	LCD_SetCursor
 965              	.LVL66:
 108:Core/Src/fsmc.c ****   else if(lcddev.id==0X5510)LCD_WR_REG(0X2E00);	//5510 å‘é€è¯»GRAMæŒ‡ä»¤
 966              		.loc 1 108 3 view .LVU235
 108:Core/Src/fsmc.c ****   else if(lcddev.id==0X5510)LCD_WR_REG(0X2E00);	//5510 å‘é€è¯»GRAMæŒ‡ä»¤
 967              		.loc 1 108 12 is_stmt 0 view .LVU236
 968 001a 1A4B     		ldr	r3, .L68
 969 001c 9B88     		ldrh	r3, [r3, #4]
 108:Core/Src/fsmc.c ****   else if(lcddev.id==0X5510)LCD_WR_REG(0X2E00);	//5510 å‘é€è¯»GRAMæŒ‡ä»¤
 970              		.loc 1 108 5 view .LVU237
 971 001e 49F24132 		movw	r2, #37697
 972 0022 9342     		cmp	r3, r2
 973 0024 10D0     		beq	.L57
 108:Core/Src/fsmc.c ****   else if(lcddev.id==0X5510)LCD_WR_REG(0X2E00);	//5510 å‘é€è¯»GRAMæŒ‡ä»¤
 974              		.loc 1 108 23 discriminator 2 view .LVU238
 975 0026 45F21032 		movw	r2, #21264
 976 002a 9342     		cmp	r3, r2
 977 002c 0CD0     		beq	.L57
 108:Core/Src/fsmc.c ****   else if(lcddev.id==0X5510)LCD_WR_REG(0X2E00);	//5510 å‘é€è¯»GRAMæŒ‡ä»¤
 978              		.loc 1 108 42 discriminator 4 view .LVU239
 979 002e 41F66312 		movw	r2, #6499
 980 0032 9342     		cmp	r3, r2
 981 0034 08D0     		beq	.L57
 109:Core/Src/fsmc.c ****   r=LCD_RD_DATA();								//dummy Read
 982              		.loc 1 109 8 is_stmt 1 view .LVU240
 109:Core/Src/fsmc.c ****   r=LCD_RD_DATA();								//dummy Read
 983              		.loc 1 109 10 is_stmt 0 view .LVU241
 984 0036 45F21052 		movw	r2, #21776
 985 003a 9342     		cmp	r3, r2
 986 003c 07D1     		bne	.L59
 109:Core/Src/fsmc.c ****   r=LCD_RD_DATA();								//dummy Read
 987              		.loc 1 109 29 is_stmt 1 discriminator 1 view .LVU242
 988 003e 4FF43850 		mov	r0, #11776
 989 0042 FFF7FEFF 		bl	LCD_WR_REG
 990              	.LVL67:
 991 0046 02E0     		b	.L59
 992              	.L57:
 108:Core/Src/fsmc.c ****   else if(lcddev.id==0X5510)LCD_WR_REG(0X2E00);	//5510 å‘é€è¯»GRAMæŒ‡ä»¤
 993              		.loc 1 108 62 discriminator 5 view .LVU243
 994 0048 2E20     		movs	r0, #46
 995 004a FFF7FEFF 		bl	LCD_WR_REG
 996              	.LVL68:
 997              	.L59:
 110:Core/Src/fsmc.c ****   if(lcddev.id==0X1963)return r;					//1963ç›´æ¥è¯»å°±å¯ä»¥
 998              		.loc 1 110 3 view .LVU244
 110:Core/Src/fsmc.c ****   if(lcddev.id==0X1963)return r;					//1963ç›´æ¥è¯»å°±å¯ä»¥
 999              		.loc 1 110 5 is_stmt 0 view .LVU245
 1000 004e FFF7FEFF 		bl	LCD_RD_DATA
 1001              	.LVL69:
 111:Core/Src/fsmc.c ****   opt_delay(2);
 1002              		.loc 1 111 3 is_stmt 1 view .LVU246
 111:Core/Src/fsmc.c ****   opt_delay(2);
 1003              		.loc 1 111 12 is_stmt 0 view .LVU247
 1004 0052 0C4B     		ldr	r3, .L68
 1005 0054 9A88     		ldrh	r2, [r3, #4]
 111:Core/Src/fsmc.c ****   opt_delay(2);
 1006              		.loc 1 111 5 view .LVU248
ARM GAS  /tmp/ccE1vrH2.s 			page 59


 1007 0056 41F66313 		movw	r3, #6499
 1008 005a 9A42     		cmp	r2, r3
 1009 005c 0ED0     		beq	.L55
 112:Core/Src/fsmc.c ****   r=LCD_RD_DATA();  		  						//å®é™…åæ ‡é¢œè‰²
 1010              		.loc 1 112 3 is_stmt 1 view .LVU249
 113:Core/Src/fsmc.c ****   //9341/NT35310/NT35510è¦åˆ†2æ¬¡è¯»å‡º
 1011              		.loc 1 113 3 view .LVU250
 113:Core/Src/fsmc.c ****   //9341/NT35310/NT35510è¦åˆ†2æ¬¡è¯»å‡º
 1012              		.loc 1 113 5 is_stmt 0 view .LVU251
 1013 005e FFF7FEFF 		bl	LCD_RD_DATA
 1014              	.LVL70:
 113:Core/Src/fsmc.c ****   //9341/NT35310/NT35510è¦åˆ†2æ¬¡è¯»å‡º
 1015              		.loc 1 113 5 view .LVU252
 1016 0062 0446     		mov	r4, r0
 1017              	.LVL71:
 115:Core/Src/fsmc.c ****   b=LCD_RD_DATA();
 1018              		.loc 1 115 3 is_stmt 1 view .LVU253
 116:Core/Src/fsmc.c ****   g=r&0XFF;		//å¯¹äº9341/5310/5510,ç¬¬ä¸€æ¬¡è¯»å–çš„æ˜¯RGçš„å€¼,Råœ¨å‰,Gåœ¨å,å„å 8ä½
 1019              		.loc 1 116 3 view .LVU254
 116:Core/Src/fsmc.c ****   g=r&0XFF;		//å¯¹äº9341/5310/5510,ç¬¬ä¸€æ¬¡è¯»å–çš„æ˜¯RGçš„å€¼,Råœ¨å‰,Gåœ¨å,å„å 8ä½
 1020              		.loc 1 116 5 is_stmt 0 view .LVU255
 1021 0064 FFF7FEFF 		bl	LCD_RD_DATA
 1022              	.LVL72:
 117:Core/Src/fsmc.c ****   g<<=8;
 1023              		.loc 1 117 3 is_stmt 1 view .LVU256
 118:Core/Src/fsmc.c ****   return (((r>>11)<<11)|((g>>10)<<5)|(b>>11));	//ILI9341/NT35310/NT35510éœ€è¦å…¬å¼è½¬æ¢ä¸€ä¸‹
 1024              		.loc 1 118 3 view .LVU257
 119:Core/Src/fsmc.c **** }
 1025              		.loc 1 119 3 view .LVU258
 119:Core/Src/fsmc.c **** }
 1026              		.loc 1 119 14 is_stmt 0 view .LVU259
 1027 0068 C4F3CF23 		ubfx	r3, r4, #11, #16
 119:Core/Src/fsmc.c **** }
 1028              		.loc 1 119 28 view .LVU260
 1029 006c C4F38504 		ubfx	r4, r4, #2, #6
 1030              	.LVL73:
 119:Core/Src/fsmc.c **** }
 1031              		.loc 1 119 33 view .LVU261
 1032 0070 6401     		lsls	r4, r4, #5
 119:Core/Src/fsmc.c **** }
 1033              		.loc 1 119 24 view .LVU262
 1034 0072 44EAC324 		orr	r4, r4, r3, lsl #11
 119:Core/Src/fsmc.c **** }
 1035              		.loc 1 119 40 view .LVU263
 1036 0076 C0F3CF20 		ubfx	r0, r0, #11, #16
 1037              	.LVL74:
 119:Core/Src/fsmc.c **** }
 1038              		.loc 1 119 37 view .LVU264
 1039 007a 2043     		orrs	r0, r0, r4
 1040              	.L55:
 120:Core/Src/fsmc.c **** //LCDå¼€å¯æ˜¾ç¤º
 1041              		.loc 1 120 1 view .LVU265
 1042 007c 10BD     		pop	{r4, pc}
 1043              	.LVL75:
 1044              	.L61:
 1045              	.LCFI16:
 1046              		.cfi_def_cfa_offset 0
ARM GAS  /tmp/ccE1vrH2.s 			page 60


 1047              		.cfi_restore 4
 1048              		.cfi_restore 14
 106:Core/Src/fsmc.c ****   LCD_SetCursor(x,y);
 1049              		.loc 1 106 47 view .LVU266
 1050 007e 0020     		movs	r0, #0
 1051              	.LVL76:
 106:Core/Src/fsmc.c ****   LCD_SetCursor(x,y);
 1052              		.loc 1 106 47 view .LVU267
 1053 0080 7047     		bx	lr
 1054              	.L69:
 1055 0082 00BF     		.align	2
 1056              	.L68:
 1057 0084 00000000 		.word	.LANCHOR2
 1058              		.cfi_endproc
 1059              	.LFE142:
 1061              		.section	.text.LCD_Scan_Dir,"ax",%progbits
 1062              		.align	1
 1063              		.global	LCD_Scan_Dir
 1064              		.syntax unified
 1065              		.thumb
 1066              		.thumb_func
 1068              	LCD_Scan_Dir:
 1069              	.LVL77:
 1070              	.LFB146:
 176:Core/Src/fsmc.c ****   uint16_t regval=0;
 1071              		.loc 1 176 1 is_stmt 1 view -0
 1072              		.cfi_startproc
 1073              		@ args = 0, pretend = 0, frame = 0
 1074              		@ frame_needed = 0, uses_anonymous_args = 0
 177:Core/Src/fsmc.c ****   uint16_t dirreg=0;
 1075              		.loc 1 177 3 view .LVU269
 178:Core/Src/fsmc.c ****   uint16_t temp;
 1076              		.loc 1 178 3 view .LVU270
 179:Core/Src/fsmc.c ****   if((lcddev.dir==1&&lcddev.id!=0X1963)||(lcddev.dir==0&&lcddev.id==0X1963))//æ¨ªå±æ—¶ï¼Œ??1963ä¸
 1077              		.loc 1 179 3 view .LVU271
 180:Core/Src/fsmc.c ****   {
 1078              		.loc 1 180 3 view .LVU272
 180:Core/Src/fsmc.c ****   {
 1079              		.loc 1 180 13 is_stmt 0 view .LVU273
 1080 0000 7E4B     		ldr	r3, .L108
 1081 0002 9B79     		ldrb	r3, [r3, #6]	@ zero_extendqisi2
 180:Core/Src/fsmc.c ****   {
 1082              		.loc 1 180 5 view .LVU274
 1083 0004 012B     		cmp	r3, #1
 1084 0006 19D0     		beq	.L105
 1085              	.L71:
 180:Core/Src/fsmc.c ****   {
 1086              		.loc 1 180 40 discriminator 3 view .LVU275
 1087 0008 2BB9     		cbnz	r3, .L73
 180:Core/Src/fsmc.c ****   {
 1088              		.loc 1 180 64 discriminator 4 view .LVU276
 1089 000a 7C4B     		ldr	r3, .L108
 1090 000c 9A88     		ldrh	r2, [r3, #4]
 180:Core/Src/fsmc.c ****   {
 1091              		.loc 1 180 56 discriminator 4 view .LVU277
 1092 000e 41F66313 		movw	r3, #6499
 1093 0012 9A42     		cmp	r2, r3
ARM GAS  /tmp/ccE1vrH2.s 			page 61


 1094 0014 18D0     		beq	.L72
 1095              	.LVL78:
 1096              	.L73:
 194:Core/Src/fsmc.c ****   {
 1097              		.loc 1 194 3 is_stmt 1 view .LVU278
 194:Core/Src/fsmc.c ****   {
 1098              		.loc 1 194 12 is_stmt 0 view .LVU279
 1099 0016 794B     		ldr	r3, .L108
 1100 0018 9B88     		ldrh	r3, [r3, #4]
 194:Core/Src/fsmc.c ****   {
 1101              		.loc 1 194 5 view .LVU280
 1102 001a 49F24132 		movw	r2, #37697
 1103 001e 9342     		cmp	r3, r2
 1104 0020 2AD0     		beq	.L83
 194:Core/Src/fsmc.c ****   {
 1105              		.loc 1 194 23 discriminator 1 view .LVU281
 1106 0022 45F21032 		movw	r2, #21264
 1107 0026 9342     		cmp	r3, r2
 1108 0028 26D0     		beq	.L83
 194:Core/Src/fsmc.c ****   {
 1109              		.loc 1 194 42 discriminator 2 view .LVU282
 1110 002a 45F21052 		movw	r2, #21776
 1111 002e 9342     		cmp	r3, r2
 1112 0030 22D0     		beq	.L83
 194:Core/Src/fsmc.c ****   {
 1113              		.loc 1 194 61 discriminator 3 view .LVU283
 1114 0032 41F66312 		movw	r2, #6499
 1115 0036 9342     		cmp	r3, r2
 1116 0038 1ED0     		beq	.L83
 1117 003a 7047     		bx	lr
 1118              	.L105:
 180:Core/Src/fsmc.c ****   {
 1119              		.loc 1 180 28 discriminator 1 view .LVU284
 1120 003c 6F4A     		ldr	r2, .L108
 1121 003e 9188     		ldrh	r1, [r2, #4]
 180:Core/Src/fsmc.c ****   {
 1122              		.loc 1 180 20 discriminator 1 view .LVU285
 1123 0040 41F66312 		movw	r2, #6499
 1124 0044 9142     		cmp	r1, r2
 1125 0046 DFD0     		beq	.L71
 1126              	.L72:
 182:Core/Src/fsmc.c ****     {
 1127              		.loc 1 182 5 is_stmt 1 view .LVU286
 1128 0048 0728     		cmp	r0, #7
 1129 004a E4D8     		bhi	.L73
 1130 004c DFE800F0 		tbb	[pc, r0]
 1131              	.L76:
 1132 0050 12       		.byte	(.L99-.L76)/2
 1133 0051 04       		.byte	(.L82-.L76)/2
 1134 0052 06       		.byte	(.L81-.L76)/2
 1135 0053 08       		.byte	(.L80-.L76)/2
 1136 0054 0A       		.byte	(.L79-.L76)/2
 1137 0055 0C       		.byte	(.L78-.L76)/2
 1138 0056 0E       		.byte	(.L77-.L76)/2
 1139 0057 10       		.byte	(.L75-.L76)/2
 1140              		.p2align 1
 1141              	.L82:
ARM GAS  /tmp/ccE1vrH2.s 			page 62


 185:Core/Src/fsmc.c ****       case 2:dir=4;break;
 1142              		.loc 1 185 14 view .LVU287
 1143              	.LVL79:
 185:Core/Src/fsmc.c ****       case 2:dir=4;break;
 1144              		.loc 1 185 20 view .LVU288
 185:Core/Src/fsmc.c ****       case 2:dir=4;break;
 1145              		.loc 1 185 17 is_stmt 0 view .LVU289
 1146 0058 0720     		movs	r0, #7
 185:Core/Src/fsmc.c ****       case 2:dir=4;break;
 1147              		.loc 1 185 7 view .LVU290
 1148 005a DCE7     		b	.L73
 1149              	.LVL80:
 1150              	.L81:
 186:Core/Src/fsmc.c ****       case 3:dir=5;break;
 1151              		.loc 1 186 14 is_stmt 1 view .LVU291
 186:Core/Src/fsmc.c ****       case 3:dir=5;break;
 1152              		.loc 1 186 20 view .LVU292
 186:Core/Src/fsmc.c ****       case 3:dir=5;break;
 1153              		.loc 1 186 17 is_stmt 0 view .LVU293
 1154 005c 0420     		movs	r0, #4
 186:Core/Src/fsmc.c ****       case 3:dir=5;break;
 1155              		.loc 1 186 7 view .LVU294
 1156 005e DAE7     		b	.L73
 1157              	.LVL81:
 1158              	.L80:
 187:Core/Src/fsmc.c ****       case 4:dir=1;break;
 1159              		.loc 1 187 14 is_stmt 1 view .LVU295
 187:Core/Src/fsmc.c ****       case 4:dir=1;break;
 1160              		.loc 1 187 20 view .LVU296
 187:Core/Src/fsmc.c ****       case 4:dir=1;break;
 1161              		.loc 1 187 17 is_stmt 0 view .LVU297
 1162 0060 0520     		movs	r0, #5
 187:Core/Src/fsmc.c ****       case 4:dir=1;break;
 1163              		.loc 1 187 7 view .LVU298
 1164 0062 D8E7     		b	.L73
 1165              	.LVL82:
 1166              	.L79:
 188:Core/Src/fsmc.c ****       case 5:dir=0;break;
 1167              		.loc 1 188 14 is_stmt 1 view .LVU299
 188:Core/Src/fsmc.c ****       case 5:dir=0;break;
 1168              		.loc 1 188 20 view .LVU300
 188:Core/Src/fsmc.c ****       case 5:dir=0;break;
 1169              		.loc 1 188 17 is_stmt 0 view .LVU301
 1170 0064 0120     		movs	r0, #1
 188:Core/Src/fsmc.c ****       case 5:dir=0;break;
 1171              		.loc 1 188 7 view .LVU302
 1172 0066 D6E7     		b	.L73
 1173              	.LVL83:
 1174              	.L78:
 189:Core/Src/fsmc.c ****       case 6:dir=3;break;
 1175              		.loc 1 189 14 is_stmt 1 view .LVU303
 189:Core/Src/fsmc.c ****       case 6:dir=3;break;
 1176              		.loc 1 189 20 view .LVU304
 189:Core/Src/fsmc.c ****       case 6:dir=3;break;
 1177              		.loc 1 189 17 is_stmt 0 view .LVU305
 1178 0068 0020     		movs	r0, #0
 189:Core/Src/fsmc.c ****       case 6:dir=3;break;
ARM GAS  /tmp/ccE1vrH2.s 			page 63


 1179              		.loc 1 189 7 view .LVU306
 1180 006a D4E7     		b	.L73
 1181              	.LVL84:
 1182              	.L77:
 190:Core/Src/fsmc.c ****       case 7:dir=2;break;
 1183              		.loc 1 190 14 is_stmt 1 view .LVU307
 190:Core/Src/fsmc.c ****       case 7:dir=2;break;
 1184              		.loc 1 190 20 view .LVU308
 190:Core/Src/fsmc.c ****       case 7:dir=2;break;
 1185              		.loc 1 190 17 is_stmt 0 view .LVU309
 1186 006c 0320     		movs	r0, #3
 190:Core/Src/fsmc.c ****       case 7:dir=2;break;
 1187              		.loc 1 190 7 view .LVU310
 1188 006e D2E7     		b	.L73
 1189              	.LVL85:
 1190              	.L75:
 191:Core/Src/fsmc.c ****     }
 1191              		.loc 1 191 14 is_stmt 1 view .LVU311
 191:Core/Src/fsmc.c ****     }
 1192              		.loc 1 191 20 view .LVU312
 191:Core/Src/fsmc.c ****     }
 1193              		.loc 1 191 17 is_stmt 0 view .LVU313
 1194 0070 0220     		movs	r0, #2
 191:Core/Src/fsmc.c ****     }
 1195              		.loc 1 191 7 view .LVU314
 1196 0072 D0E7     		b	.L73
 1197              	.LVL86:
 1198              	.L99:
 184:Core/Src/fsmc.c ****       case 1:dir=7;break;
 1199              		.loc 1 184 17 view .LVU315
 1200 0074 0620     		movs	r0, #6
 1201              	.LVL87:
 184:Core/Src/fsmc.c ****       case 1:dir=7;break;
 1202              		.loc 1 184 17 view .LVU316
 1203 0076 CEE7     		b	.L73
 1204              	.LVL88:
 1205              	.L83:
 176:Core/Src/fsmc.c ****   uint16_t regval=0;
 1206              		.loc 1 176 1 view .LVU317
 1207 0078 10B5     		push	{r4, lr}
 1208              	.LCFI17:
 1209              		.cfi_def_cfa_offset 8
 1210              		.cfi_offset 4, -8
 1211              		.cfi_offset 14, -4
 196:Core/Src/fsmc.c ****     {
 1212              		.loc 1 196 5 is_stmt 1 view .LVU318
 1213 007a 0138     		subs	r0, r0, #1
 1214              	.LVL89:
 196:Core/Src/fsmc.c ****     {
 1215              		.loc 1 196 5 is_stmt 0 view .LVU319
 1216 007c 0628     		cmp	r0, #6
 1217 007e 05D8     		bhi	.L85
 1218 0080 DFE800F0 		tbb	[pc, r0]
 1219              	.L87:
 1220 0084 12       		.byte	(.L100-.L87)/2
 1221 0085 06       		.byte	(.L92-.L87)/2
 1222 0086 08       		.byte	(.L91-.L87)/2
ARM GAS  /tmp/ccE1vrH2.s 			page 64


 1223 0087 0A       		.byte	(.L90-.L87)/2
 1224 0088 0C       		.byte	(.L89-.L87)/2
 1225 0089 0E       		.byte	(.L88-.L87)/2
 1226 008a 10       		.byte	(.L86-.L87)/2
 1227 008b 00       		.p2align 1
 1228              	.L85:
 1229 008c 0024     		movs	r4, #0
 1230 008e 0CE0     		b	.L93
 1231              	.L92:
 205:Core/Src/fsmc.c ****         break;
 1232              		.loc 1 205 9 is_stmt 1 view .LVU320
 1233              	.LVL90:
 206:Core/Src/fsmc.c ****       case R2L_D2U://ä»å³åˆ°å·¦,ä»ä¸‹åˆ°ä¸Š
 1234              		.loc 1 206 9 view .LVU321
 205:Core/Src/fsmc.c ****         break;
 1235              		.loc 1 205 15 is_stmt 0 view .LVU322
 1236 0090 4024     		movs	r4, #64
 206:Core/Src/fsmc.c ****       case R2L_D2U://ä»å³åˆ°å·¦,ä»ä¸‹åˆ°ä¸Š
 1237              		.loc 1 206 9 view .LVU323
 1238 0092 0AE0     		b	.L93
 1239              	.LVL91:
 1240              	.L91:
 208:Core/Src/fsmc.c ****         break;
 1241              		.loc 1 208 9 is_stmt 1 view .LVU324
 209:Core/Src/fsmc.c ****       case U2D_L2R://ä»ä¸Šåˆ°ä¸‹,ä»å·¦åˆ°å³
 1242              		.loc 1 209 9 view .LVU325
 208:Core/Src/fsmc.c ****         break;
 1243              		.loc 1 208 15 is_stmt 0 view .LVU326
 1244 0094 C024     		movs	r4, #192
 209:Core/Src/fsmc.c ****       case U2D_L2R://ä»ä¸Šåˆ°ä¸‹,ä»å·¦åˆ°å³
 1245              		.loc 1 209 9 view .LVU327
 1246 0096 08E0     		b	.L93
 1247              	.LVL92:
 1248              	.L90:
 211:Core/Src/fsmc.c ****         break;
 1249              		.loc 1 211 9 is_stmt 1 view .LVU328
 212:Core/Src/fsmc.c ****       case U2D_R2L://ä»ä¸Šåˆ°ä¸‹,ä»å³åˆ°å·¦
 1250              		.loc 1 212 9 view .LVU329
 211:Core/Src/fsmc.c ****         break;
 1251              		.loc 1 211 15 is_stmt 0 view .LVU330
 1252 0098 2024     		movs	r4, #32
 212:Core/Src/fsmc.c ****       case U2D_R2L://ä»ä¸Šåˆ°ä¸‹,ä»å³åˆ°å·¦
 1253              		.loc 1 212 9 view .LVU331
 1254 009a 06E0     		b	.L93
 1255              	.LVL93:
 1256              	.L89:
 214:Core/Src/fsmc.c ****         break;
 1257              		.loc 1 214 9 is_stmt 1 view .LVU332
 215:Core/Src/fsmc.c ****       case D2U_L2R://ä»ä¸‹åˆ°ä¸Š,ä»å·¦åˆ°å³
 1258              		.loc 1 215 9 view .LVU333
 214:Core/Src/fsmc.c ****         break;
 1259              		.loc 1 214 15 is_stmt 0 view .LVU334
 1260 009c 6024     		movs	r4, #96
 215:Core/Src/fsmc.c ****       case D2U_L2R://ä»ä¸‹åˆ°ä¸Š,ä»å·¦åˆ°å³
 1261              		.loc 1 215 9 view .LVU335
 1262 009e 04E0     		b	.L93
 1263              	.LVL94:
ARM GAS  /tmp/ccE1vrH2.s 			page 65


 1264              	.L88:
 217:Core/Src/fsmc.c ****         break;
 1265              		.loc 1 217 9 is_stmt 1 view .LVU336
 218:Core/Src/fsmc.c ****       case D2U_R2L://ä»ä¸‹åˆ°ä¸Š,ä»å³åˆ°å·¦
 1266              		.loc 1 218 9 view .LVU337
 217:Core/Src/fsmc.c ****         break;
 1267              		.loc 1 217 15 is_stmt 0 view .LVU338
 1268 00a0 A024     		movs	r4, #160
 218:Core/Src/fsmc.c ****       case D2U_R2L://ä»ä¸‹åˆ°ä¸Š,ä»å³åˆ°å·¦
 1269              		.loc 1 218 9 view .LVU339
 1270 00a2 02E0     		b	.L93
 1271              	.LVL95:
 1272              	.L86:
 220:Core/Src/fsmc.c ****         break;
 1273              		.loc 1 220 9 is_stmt 1 view .LVU340
 221:Core/Src/fsmc.c ****     }
 1274              		.loc 1 221 9 view .LVU341
 220:Core/Src/fsmc.c ****         break;
 1275              		.loc 1 220 15 is_stmt 0 view .LVU342
 1276 00a4 E024     		movs	r4, #224
 221:Core/Src/fsmc.c ****     }
 1277              		.loc 1 221 9 view .LVU343
 1278 00a6 00E0     		b	.L93
 1279              	.LVL96:
 1280              	.L100:
 202:Core/Src/fsmc.c ****         break;
 1281              		.loc 1 202 15 view .LVU344
 1282 00a8 8024     		movs	r4, #128
 1283              	.LVL97:
 1284              	.L93:
 223:Core/Src/fsmc.c ****     else dirreg=0X36;
 1285              		.loc 1 223 5 is_stmt 1 view .LVU345
 223:Core/Src/fsmc.c ****     else dirreg=0X36;
 1286              		.loc 1 223 7 is_stmt 0 view .LVU346
 1287 00aa 45F21052 		movw	r2, #21776
 1288 00ae 9342     		cmp	r3, r2
 1289 00b0 50D0     		beq	.L106
 224:Core/Src/fsmc.c ****     if((lcddev.id!=0X5310)&&(lcddev.id!=0X5510)&&(lcddev.id!=0X1963))regval|=0X08;//5310/5510/1963ä
 1290              		.loc 1 224 16 view .LVU347
 1291 00b2 3620     		movs	r0, #54
 1292              	.L94:
 1293              	.LVL98:
 225:Core/Src/fsmc.c ****     LCD_WriteReg(dirreg,regval);
 1294              		.loc 1 225 5 is_stmt 1 view .LVU348
 225:Core/Src/fsmc.c ****     LCD_WriteReg(dirreg,regval);
 1295              		.loc 1 225 7 is_stmt 0 view .LVU349
 1296 00b4 45F21032 		movw	r2, #21264
 1297 00b8 9342     		cmp	r3, r2
 1298 00ba 09D0     		beq	.L95
 225:Core/Src/fsmc.c ****     LCD_WriteReg(dirreg,regval);
 1299              		.loc 1 225 27 discriminator 1 view .LVU350
 1300 00bc 45F21052 		movw	r2, #21776
 1301 00c0 9342     		cmp	r3, r2
 1302 00c2 05D0     		beq	.L95
 225:Core/Src/fsmc.c ****     LCD_WriteReg(dirreg,regval);
 1303              		.loc 1 225 48 discriminator 2 view .LVU351
 1304 00c4 41F66312 		movw	r2, #6499
ARM GAS  /tmp/ccE1vrH2.s 			page 66


 1305 00c8 9342     		cmp	r3, r2
 1306 00ca 01D0     		beq	.L95
 225:Core/Src/fsmc.c ****     LCD_WriteReg(dirreg,regval);
 1307              		.loc 1 225 70 is_stmt 1 discriminator 3 view .LVU352
 225:Core/Src/fsmc.c ****     LCD_WriteReg(dirreg,regval);
 1308              		.loc 1 225 76 is_stmt 0 discriminator 3 view .LVU353
 1309 00cc 44F00804 		orr	r4, r4, #8
 1310              	.LVL99:
 1311              	.L95:
 226:Core/Src/fsmc.c ****     if(lcddev.id!=0X1963)//1963ä¸åšåæ ‡å¤„ç†
 1312              		.loc 1 226 5 is_stmt 1 view .LVU354
 1313 00d0 2146     		mov	r1, r4
 1314 00d2 FFF7FEFF 		bl	LCD_WriteReg
 1315              	.LVL100:
 227:Core/Src/fsmc.c ****     {
 1316              		.loc 1 227 5 view .LVU355
 227:Core/Src/fsmc.c ****     {
 1317              		.loc 1 227 14 is_stmt 0 view .LVU356
 1318 00d6 494B     		ldr	r3, .L108
 1319 00d8 9B88     		ldrh	r3, [r3, #4]
 227:Core/Src/fsmc.c ****     {
 1320              		.loc 1 227 7 view .LVU357
 1321 00da 41F66312 		movw	r2, #6499
 1322 00de 9342     		cmp	r3, r2
 1323 00e0 0AD0     		beq	.L96
 229:Core/Src/fsmc.c ****       {
 1324              		.loc 1 229 7 is_stmt 1 view .LVU358
 229:Core/Src/fsmc.c ****       {
 1325              		.loc 1 229 9 is_stmt 0 view .LVU359
 1326 00e2 14F0200F 		tst	r4, #32
 1327 00e6 38D0     		beq	.L97
 231:Core/Src/fsmc.c ****         {
 1328              		.loc 1 231 9 is_stmt 1 view .LVU360
 231:Core/Src/fsmc.c ****         {
 1329              		.loc 1 231 18 is_stmt 0 view .LVU361
 1330 00e8 444A     		ldr	r2, .L108
 1331 00ea 1188     		ldrh	r1, [r2]
 231:Core/Src/fsmc.c ****         {
 1332              		.loc 1 231 31 view .LVU362
 1333 00ec 5288     		ldrh	r2, [r2, #2]
 231:Core/Src/fsmc.c ****         {
 1334              		.loc 1 231 11 view .LVU363
 1335 00ee 9142     		cmp	r1, r2
 1336 00f0 02D2     		bcs	.L96
 233:Core/Src/fsmc.c ****           lcddev.width=lcddev.height;
 1337              		.loc 1 233 11 is_stmt 1 view .LVU364
 1338              	.LVL101:
 234:Core/Src/fsmc.c ****           lcddev.height=temp;
 1339              		.loc 1 234 11 view .LVU365
 234:Core/Src/fsmc.c ****           lcddev.height=temp;
 1340              		.loc 1 234 23 is_stmt 0 view .LVU366
 1341 00f2 4248     		ldr	r0, .L108
 1342 00f4 0280     		strh	r2, [r0]	@ movhi
 235:Core/Src/fsmc.c ****         }
 1343              		.loc 1 235 11 is_stmt 1 view .LVU367
 235:Core/Src/fsmc.c ****         }
 1344              		.loc 1 235 24 is_stmt 0 view .LVU368
ARM GAS  /tmp/ccE1vrH2.s 			page 67


 1345 00f6 4180     		strh	r1, [r0, #2]	@ movhi
 1346              	.LVL102:
 1347              	.L96:
 247:Core/Src/fsmc.c ****     {
 1348              		.loc 1 247 5 is_stmt 1 view .LVU369
 247:Core/Src/fsmc.c ****     {
 1349              		.loc 1 247 7 is_stmt 0 view .LVU370
 1350 00f8 45F21052 		movw	r2, #21776
 1351 00fc 9342     		cmp	r3, r2
 1352 00fe 35D0     		beq	.L107
 259:Core/Src/fsmc.c ****       LCD_WR_DATA(0);LCD_WR_DATA(0);
 1353              		.loc 1 259 7 is_stmt 1 view .LVU371
 1354 0100 3E4C     		ldr	r4, .L108
 1355              	.LVL103:
 259:Core/Src/fsmc.c ****       LCD_WR_DATA(0);LCD_WR_DATA(0);
 1356              		.loc 1 259 7 is_stmt 0 view .LVU372
 1357 0102 6089     		ldrh	r0, [r4, #10]
 1358 0104 FFF7FEFF 		bl	LCD_WR_REG
 1359              	.LVL104:
 260:Core/Src/fsmc.c ****       LCD_WR_DATA((lcddev.width-1)>>8);LCD_WR_DATA((lcddev.width-1)&0XFF);
 1360              		.loc 1 260 7 is_stmt 1 view .LVU373
 1361 0108 0020     		movs	r0, #0
 1362 010a FFF7FEFF 		bl	LCD_WR_DATA
 1363              	.LVL105:
 260:Core/Src/fsmc.c ****       LCD_WR_DATA((lcddev.width-1)>>8);LCD_WR_DATA((lcddev.width-1)&0XFF);
 1364              		.loc 1 260 22 view .LVU374
 1365 010e 0020     		movs	r0, #0
 1366 0110 FFF7FEFF 		bl	LCD_WR_DATA
 1367              	.LVL106:
 261:Core/Src/fsmc.c ****       LCD_WR_REG(lcddev.setycmd);
 1368              		.loc 1 261 7 view .LVU375
 261:Core/Src/fsmc.c ****       LCD_WR_REG(lcddev.setycmd);
 1369              		.loc 1 261 26 is_stmt 0 view .LVU376
 1370 0114 2088     		ldrh	r0, [r4]
 261:Core/Src/fsmc.c ****       LCD_WR_REG(lcddev.setycmd);
 1371              		.loc 1 261 32 view .LVU377
 1372 0116 0138     		subs	r0, r0, #1
 261:Core/Src/fsmc.c ****       LCD_WR_REG(lcddev.setycmd);
 1373              		.loc 1 261 7 view .LVU378
 1374 0118 C0F30F20 		ubfx	r0, r0, #8, #16
 1375 011c FFF7FEFF 		bl	LCD_WR_DATA
 1376              	.LVL107:
 261:Core/Src/fsmc.c ****       LCD_WR_REG(lcddev.setycmd);
 1377              		.loc 1 261 40 is_stmt 1 view .LVU379
 261:Core/Src/fsmc.c ****       LCD_WR_REG(lcddev.setycmd);
 1378              		.loc 1 261 59 is_stmt 0 view .LVU380
 1379 0120 2088     		ldrh	r0, [r4]
 261:Core/Src/fsmc.c ****       LCD_WR_REG(lcddev.setycmd);
 1380              		.loc 1 261 65 view .LVU381
 1381 0122 0138     		subs	r0, r0, #1
 261:Core/Src/fsmc.c ****       LCD_WR_REG(lcddev.setycmd);
 1382              		.loc 1 261 40 view .LVU382
 1383 0124 C0B2     		uxtb	r0, r0
 1384 0126 FFF7FEFF 		bl	LCD_WR_DATA
 1385              	.LVL108:
 262:Core/Src/fsmc.c ****       LCD_WR_DATA(0);LCD_WR_DATA(0);
 1386              		.loc 1 262 7 is_stmt 1 view .LVU383
ARM GAS  /tmp/ccE1vrH2.s 			page 68


 1387 012a A089     		ldrh	r0, [r4, #12]
 1388 012c FFF7FEFF 		bl	LCD_WR_REG
 1389              	.LVL109:
 263:Core/Src/fsmc.c ****       LCD_WR_DATA((lcddev.height-1)>>8);LCD_WR_DATA((lcddev.height-1)&0XFF);
 1390              		.loc 1 263 7 view .LVU384
 1391 0130 0020     		movs	r0, #0
 1392 0132 FFF7FEFF 		bl	LCD_WR_DATA
 1393              	.LVL110:
 263:Core/Src/fsmc.c ****       LCD_WR_DATA((lcddev.height-1)>>8);LCD_WR_DATA((lcddev.height-1)&0XFF);
 1394              		.loc 1 263 22 view .LVU385
 1395 0136 0020     		movs	r0, #0
 1396 0138 FFF7FEFF 		bl	LCD_WR_DATA
 1397              	.LVL111:
 264:Core/Src/fsmc.c ****     }
 1398              		.loc 1 264 7 view .LVU386
 264:Core/Src/fsmc.c ****     }
 1399              		.loc 1 264 26 is_stmt 0 view .LVU387
 1400 013c 6088     		ldrh	r0, [r4, #2]
 264:Core/Src/fsmc.c ****     }
 1401              		.loc 1 264 33 view .LVU388
 1402 013e 0138     		subs	r0, r0, #1
 264:Core/Src/fsmc.c ****     }
 1403              		.loc 1 264 7 view .LVU389
 1404 0140 C0F30F20 		ubfx	r0, r0, #8, #16
 1405 0144 FFF7FEFF 		bl	LCD_WR_DATA
 1406              	.LVL112:
 264:Core/Src/fsmc.c ****     }
 1407              		.loc 1 264 41 is_stmt 1 view .LVU390
 264:Core/Src/fsmc.c ****     }
 1408              		.loc 1 264 60 is_stmt 0 view .LVU391
 1409 0148 6088     		ldrh	r0, [r4, #2]
 264:Core/Src/fsmc.c ****     }
 1410              		.loc 1 264 67 view .LVU392
 1411 014a 0138     		subs	r0, r0, #1
 264:Core/Src/fsmc.c ****     }
 1412              		.loc 1 264 41 view .LVU393
 1413 014c C0B2     		uxtb	r0, r0
 1414 014e FFF7FEFF 		bl	LCD_WR_DATA
 1415              	.LVL113:
 1416              	.L70:
 267:Core/Src/fsmc.c **** //ç”»ç‚¹
 1417              		.loc 1 267 1 view .LVU394
 1418 0152 10BD     		pop	{r4, pc}
 1419              	.LVL114:
 1420              	.L106:
 223:Core/Src/fsmc.c ****     else dirreg=0X36;
 1421              		.loc 1 223 32 view .LVU395
 1422 0154 4FF45850 		mov	r0, #13824
 1423 0158 ACE7     		b	.L94
 1424              	.LVL115:
 1425              	.L97:
 239:Core/Src/fsmc.c ****         {
 1426              		.loc 1 239 9 is_stmt 1 view .LVU396
 239:Core/Src/fsmc.c ****         {
 1427              		.loc 1 239 18 is_stmt 0 view .LVU397
 1428 015a 284A     		ldr	r2, .L108
 1429 015c 1188     		ldrh	r1, [r2]
ARM GAS  /tmp/ccE1vrH2.s 			page 69


 239:Core/Src/fsmc.c ****         {
 1430              		.loc 1 239 31 view .LVU398
 1431 015e 5288     		ldrh	r2, [r2, #2]
 239:Core/Src/fsmc.c ****         {
 1432              		.loc 1 239 11 view .LVU399
 1433 0160 9142     		cmp	r1, r2
 1434 0162 C9D9     		bls	.L96
 241:Core/Src/fsmc.c ****           lcddev.width=lcddev.height;
 1435              		.loc 1 241 11 is_stmt 1 view .LVU400
 1436              	.LVL116:
 242:Core/Src/fsmc.c ****           lcddev.height=temp;
 1437              		.loc 1 242 11 view .LVU401
 242:Core/Src/fsmc.c ****           lcddev.height=temp;
 1438              		.loc 1 242 23 is_stmt 0 view .LVU402
 1439 0164 2548     		ldr	r0, .L108
 1440 0166 0280     		strh	r2, [r0]	@ movhi
 243:Core/Src/fsmc.c ****         }
 1441              		.loc 1 243 11 is_stmt 1 view .LVU403
 243:Core/Src/fsmc.c ****         }
 1442              		.loc 1 243 24 is_stmt 0 view .LVU404
 1443 0168 4180     		strh	r1, [r0, #2]	@ movhi
 1444 016a C5E7     		b	.L96
 1445              	.LVL117:
 1446              	.L107:
 249:Core/Src/fsmc.c ****       LCD_WR_REG(lcddev.setxcmd+1);LCD_WR_DATA(0);
 1447              		.loc 1 249 7 is_stmt 1 view .LVU405
 1448 016c 234C     		ldr	r4, .L108
 1449              	.LVL118:
 249:Core/Src/fsmc.c ****       LCD_WR_REG(lcddev.setxcmd+1);LCD_WR_DATA(0);
 1450              		.loc 1 249 7 is_stmt 0 view .LVU406
 1451 016e 6089     		ldrh	r0, [r4, #10]
 1452 0170 FFF7FEFF 		bl	LCD_WR_REG
 1453              	.LVL119:
 249:Core/Src/fsmc.c ****       LCD_WR_REG(lcddev.setxcmd+1);LCD_WR_DATA(0);
 1454              		.loc 1 249 34 is_stmt 1 view .LVU407
 1455 0174 0020     		movs	r0, #0
 1456 0176 FFF7FEFF 		bl	LCD_WR_DATA
 1457              	.LVL120:
 250:Core/Src/fsmc.c ****       LCD_WR_REG(lcddev.setxcmd+2);LCD_WR_DATA((lcddev.width-1)>>8);
 1458              		.loc 1 250 7 view .LVU408
 250:Core/Src/fsmc.c ****       LCD_WR_REG(lcddev.setxcmd+2);LCD_WR_DATA((lcddev.width-1)>>8);
 1459              		.loc 1 250 24 is_stmt 0 view .LVU409
 1460 017a 6089     		ldrh	r0, [r4, #10]
 250:Core/Src/fsmc.c ****       LCD_WR_REG(lcddev.setxcmd+2);LCD_WR_DATA((lcddev.width-1)>>8);
 1461              		.loc 1 250 7 view .LVU410
 1462 017c 0130     		adds	r0, r0, #1
 1463 017e 80B2     		uxth	r0, r0
 1464 0180 FFF7FEFF 		bl	LCD_WR_REG
 1465              	.LVL121:
 250:Core/Src/fsmc.c ****       LCD_WR_REG(lcddev.setxcmd+2);LCD_WR_DATA((lcddev.width-1)>>8);
 1466              		.loc 1 250 36 is_stmt 1 view .LVU411
 1467 0184 0020     		movs	r0, #0
 1468 0186 FFF7FEFF 		bl	LCD_WR_DATA
 1469              	.LVL122:
 251:Core/Src/fsmc.c ****       LCD_WR_REG(lcddev.setxcmd+3);LCD_WR_DATA((lcddev.width-1)&0XFF);
 1470              		.loc 1 251 7 view .LVU412
 251:Core/Src/fsmc.c ****       LCD_WR_REG(lcddev.setxcmd+3);LCD_WR_DATA((lcddev.width-1)&0XFF);
ARM GAS  /tmp/ccE1vrH2.s 			page 70


 1471              		.loc 1 251 24 is_stmt 0 view .LVU413
 1472 018a 6089     		ldrh	r0, [r4, #10]
 251:Core/Src/fsmc.c ****       LCD_WR_REG(lcddev.setxcmd+3);LCD_WR_DATA((lcddev.width-1)&0XFF);
 1473              		.loc 1 251 7 view .LVU414
 1474 018c 0230     		adds	r0, r0, #2
 1475 018e 80B2     		uxth	r0, r0
 1476 0190 FFF7FEFF 		bl	LCD_WR_REG
 1477              	.LVL123:
 251:Core/Src/fsmc.c ****       LCD_WR_REG(lcddev.setxcmd+3);LCD_WR_DATA((lcddev.width-1)&0XFF);
 1478              		.loc 1 251 36 is_stmt 1 view .LVU415
 251:Core/Src/fsmc.c ****       LCD_WR_REG(lcddev.setxcmd+3);LCD_WR_DATA((lcddev.width-1)&0XFF);
 1479              		.loc 1 251 55 is_stmt 0 view .LVU416
 1480 0194 2088     		ldrh	r0, [r4]
 251:Core/Src/fsmc.c ****       LCD_WR_REG(lcddev.setxcmd+3);LCD_WR_DATA((lcddev.width-1)&0XFF);
 1481              		.loc 1 251 61 view .LVU417
 1482 0196 0138     		subs	r0, r0, #1
 251:Core/Src/fsmc.c ****       LCD_WR_REG(lcddev.setxcmd+3);LCD_WR_DATA((lcddev.width-1)&0XFF);
 1483              		.loc 1 251 36 view .LVU418
 1484 0198 C0F30F20 		ubfx	r0, r0, #8, #16
 1485 019c FFF7FEFF 		bl	LCD_WR_DATA
 1486              	.LVL124:
 252:Core/Src/fsmc.c ****       LCD_WR_REG(lcddev.setycmd);LCD_WR_DATA(0);
 1487              		.loc 1 252 7 is_stmt 1 view .LVU419
 252:Core/Src/fsmc.c ****       LCD_WR_REG(lcddev.setycmd);LCD_WR_DATA(0);
 1488              		.loc 1 252 24 is_stmt 0 view .LVU420
 1489 01a0 6089     		ldrh	r0, [r4, #10]
 252:Core/Src/fsmc.c ****       LCD_WR_REG(lcddev.setycmd);LCD_WR_DATA(0);
 1490              		.loc 1 252 7 view .LVU421
 1491 01a2 0330     		adds	r0, r0, #3
 1492 01a4 80B2     		uxth	r0, r0
 1493 01a6 FFF7FEFF 		bl	LCD_WR_REG
 1494              	.LVL125:
 252:Core/Src/fsmc.c ****       LCD_WR_REG(lcddev.setycmd);LCD_WR_DATA(0);
 1495              		.loc 1 252 36 is_stmt 1 view .LVU422
 252:Core/Src/fsmc.c ****       LCD_WR_REG(lcddev.setycmd);LCD_WR_DATA(0);
 1496              		.loc 1 252 55 is_stmt 0 view .LVU423
 1497 01aa 2088     		ldrh	r0, [r4]
 252:Core/Src/fsmc.c ****       LCD_WR_REG(lcddev.setycmd);LCD_WR_DATA(0);
 1498              		.loc 1 252 61 view .LVU424
 1499 01ac 0138     		subs	r0, r0, #1
 252:Core/Src/fsmc.c ****       LCD_WR_REG(lcddev.setycmd);LCD_WR_DATA(0);
 1500              		.loc 1 252 36 view .LVU425
 1501 01ae C0B2     		uxtb	r0, r0
 1502 01b0 FFF7FEFF 		bl	LCD_WR_DATA
 1503              	.LVL126:
 253:Core/Src/fsmc.c ****       LCD_WR_REG(lcddev.setycmd+1);LCD_WR_DATA(0);
 1504              		.loc 1 253 7 is_stmt 1 view .LVU426
 1505 01b4 A089     		ldrh	r0, [r4, #12]
 1506 01b6 FFF7FEFF 		bl	LCD_WR_REG
 1507              	.LVL127:
 253:Core/Src/fsmc.c ****       LCD_WR_REG(lcddev.setycmd+1);LCD_WR_DATA(0);
 1508              		.loc 1 253 34 view .LVU427
 1509 01ba 0020     		movs	r0, #0
 1510 01bc FFF7FEFF 		bl	LCD_WR_DATA
 1511              	.LVL128:
 254:Core/Src/fsmc.c ****       LCD_WR_REG(lcddev.setycmd+2);LCD_WR_DATA((lcddev.height-1)>>8);
 1512              		.loc 1 254 7 view .LVU428
ARM GAS  /tmp/ccE1vrH2.s 			page 71


 254:Core/Src/fsmc.c ****       LCD_WR_REG(lcddev.setycmd+2);LCD_WR_DATA((lcddev.height-1)>>8);
 1513              		.loc 1 254 24 is_stmt 0 view .LVU429
 1514 01c0 A089     		ldrh	r0, [r4, #12]
 254:Core/Src/fsmc.c ****       LCD_WR_REG(lcddev.setycmd+2);LCD_WR_DATA((lcddev.height-1)>>8);
 1515              		.loc 1 254 7 view .LVU430
 1516 01c2 0130     		adds	r0, r0, #1
 1517 01c4 80B2     		uxth	r0, r0
 1518 01c6 FFF7FEFF 		bl	LCD_WR_REG
 1519              	.LVL129:
 254:Core/Src/fsmc.c ****       LCD_WR_REG(lcddev.setycmd+2);LCD_WR_DATA((lcddev.height-1)>>8);
 1520              		.loc 1 254 36 is_stmt 1 view .LVU431
 1521 01ca 0020     		movs	r0, #0
 1522 01cc FFF7FEFF 		bl	LCD_WR_DATA
 1523              	.LVL130:
 255:Core/Src/fsmc.c ****       LCD_WR_REG(lcddev.setycmd+3);LCD_WR_DATA((lcddev.height-1)&0XFF);
 1524              		.loc 1 255 7 view .LVU432
 255:Core/Src/fsmc.c ****       LCD_WR_REG(lcddev.setycmd+3);LCD_WR_DATA((lcddev.height-1)&0XFF);
 1525              		.loc 1 255 24 is_stmt 0 view .LVU433
 1526 01d0 A089     		ldrh	r0, [r4, #12]
 255:Core/Src/fsmc.c ****       LCD_WR_REG(lcddev.setycmd+3);LCD_WR_DATA((lcddev.height-1)&0XFF);
 1527              		.loc 1 255 7 view .LVU434
 1528 01d2 0230     		adds	r0, r0, #2
 1529 01d4 80B2     		uxth	r0, r0
 1530 01d6 FFF7FEFF 		bl	LCD_WR_REG
 1531              	.LVL131:
 255:Core/Src/fsmc.c ****       LCD_WR_REG(lcddev.setycmd+3);LCD_WR_DATA((lcddev.height-1)&0XFF);
 1532              		.loc 1 255 36 is_stmt 1 view .LVU435
 255:Core/Src/fsmc.c ****       LCD_WR_REG(lcddev.setycmd+3);LCD_WR_DATA((lcddev.height-1)&0XFF);
 1533              		.loc 1 255 55 is_stmt 0 view .LVU436
 1534 01da 6088     		ldrh	r0, [r4, #2]
 255:Core/Src/fsmc.c ****       LCD_WR_REG(lcddev.setycmd+3);LCD_WR_DATA((lcddev.height-1)&0XFF);
 1535              		.loc 1 255 62 view .LVU437
 1536 01dc 0138     		subs	r0, r0, #1
 255:Core/Src/fsmc.c ****       LCD_WR_REG(lcddev.setycmd+3);LCD_WR_DATA((lcddev.height-1)&0XFF);
 1537              		.loc 1 255 36 view .LVU438
 1538 01de C0F30F20 		ubfx	r0, r0, #8, #16
 1539 01e2 FFF7FEFF 		bl	LCD_WR_DATA
 1540              	.LVL132:
 256:Core/Src/fsmc.c ****     }else
 1541              		.loc 1 256 7 is_stmt 1 view .LVU439
 256:Core/Src/fsmc.c ****     }else
 1542              		.loc 1 256 24 is_stmt 0 view .LVU440
 1543 01e6 A089     		ldrh	r0, [r4, #12]
 256:Core/Src/fsmc.c ****     }else
 1544              		.loc 1 256 7 view .LVU441
 1545 01e8 0330     		adds	r0, r0, #3
 1546 01ea 80B2     		uxth	r0, r0
 1547 01ec FFF7FEFF 		bl	LCD_WR_REG
 1548              	.LVL133:
 256:Core/Src/fsmc.c ****     }else
 1549              		.loc 1 256 36 is_stmt 1 view .LVU442
 256:Core/Src/fsmc.c ****     }else
 1550              		.loc 1 256 55 is_stmt 0 view .LVU443
 1551 01f0 6088     		ldrh	r0, [r4, #2]
 256:Core/Src/fsmc.c ****     }else
 1552              		.loc 1 256 62 view .LVU444
 1553 01f2 0138     		subs	r0, r0, #1
ARM GAS  /tmp/ccE1vrH2.s 			page 72


 256:Core/Src/fsmc.c ****     }else
 1554              		.loc 1 256 36 view .LVU445
 1555 01f4 C0B2     		uxtb	r0, r0
 1556 01f6 FFF7FEFF 		bl	LCD_WR_DATA
 1557              	.LVL134:
 1558 01fa AAE7     		b	.L70
 1559              	.L109:
 1560              		.align	2
 1561              	.L108:
 1562 01fc 00000000 		.word	.LANCHOR2
 1563              		.cfi_endproc
 1564              	.LFE146:
 1566              		.section	.text.LCD_DrawPoint,"ax",%progbits
 1567              		.align	1
 1568              		.global	LCD_DrawPoint
 1569              		.syntax unified
 1570              		.thumb
 1571              		.thumb_func
 1573              	LCD_DrawPoint:
 1574              	.LVL135:
 1575              	.LFB147:
 272:Core/Src/fsmc.c ****   LCD_SetCursor(x,y);		//è®¾ç½®å…‰æ ‡ä½ç½®
 1576              		.loc 1 272 1 is_stmt 1 view -0
 1577              		.cfi_startproc
 1578              		@ args = 0, pretend = 0, frame = 0
 1579              		@ frame_needed = 0, uses_anonymous_args = 0
 272:Core/Src/fsmc.c ****   LCD_SetCursor(x,y);		//è®¾ç½®å…‰æ ‡ä½ç½®
 1580              		.loc 1 272 1 is_stmt 0 view .LVU447
 1581 0000 08B5     		push	{r3, lr}
 1582              	.LCFI18:
 1583              		.cfi_def_cfa_offset 8
 1584              		.cfi_offset 3, -8
 1585              		.cfi_offset 14, -4
 273:Core/Src/fsmc.c ****   LCD_WriteRAM_Prepare();	//??å§‹å†™å…¥GRAM
 1586              		.loc 1 273 3 is_stmt 1 view .LVU448
 1587 0002 FFF7FEFF 		bl	LCD_SetCursor
 1588              	.LVL136:
 274:Core/Src/fsmc.c ****   LCD->LCD_RAM=POINT_COLOR;
 1589              		.loc 1 274 3 view .LVU449
 1590 0006 FFF7FEFF 		bl	LCD_WriteRAM_Prepare
 1591              	.LVL137:
 275:Core/Src/fsmc.c **** }
 1592              		.loc 1 275 3 view .LVU450
 275:Core/Src/fsmc.c **** }
 1593              		.loc 1 275 15 is_stmt 0 view .LVU451
 1594 000a 034B     		ldr	r3, .L112
 1595 000c 1A88     		ldrh	r2, [r3]
 1596 000e 4FF0D843 		mov	r3, #1811939328
 1597 0012 A3F88020 		strh	r2, [r3, #128]	@ movhi
 276:Core/Src/fsmc.c **** //å¿«???ç”»??
 1598              		.loc 1 276 1 view .LVU452
 1599 0016 08BD     		pop	{r3, pc}
 1600              	.L113:
 1601              		.align	2
 1602              	.L112:
 1603 0018 00000000 		.word	.LANCHOR3
 1604              		.cfi_endproc
ARM GAS  /tmp/ccE1vrH2.s 			page 73


 1605              	.LFE147:
 1607              		.section	.text.LCD_Fast_DrawPoint,"ax",%progbits
 1608              		.align	1
 1609              		.global	LCD_Fast_DrawPoint
 1610              		.syntax unified
 1611              		.thumb
 1612              		.thumb_func
 1614              	LCD_Fast_DrawPoint:
 1615              	.LVL138:
 1616              	.LFB148:
 281:Core/Src/fsmc.c ****   if(lcddev.id==0X9341||lcddev.id==0X5310)
 1617              		.loc 1 281 1 is_stmt 1 view -0
 1618              		.cfi_startproc
 1619              		@ args = 0, pretend = 0, frame = 0
 1620              		@ frame_needed = 0, uses_anonymous_args = 0
 281:Core/Src/fsmc.c ****   if(lcddev.id==0X9341||lcddev.id==0X5310)
 1621              		.loc 1 281 1 is_stmt 0 view .LVU454
 1622 0000 2DE9F041 		push	{r4, r5, r6, r7, r8, lr}
 1623              	.LCFI19:
 1624              		.cfi_def_cfa_offset 24
 1625              		.cfi_offset 4, -24
 1626              		.cfi_offset 5, -20
 1627              		.cfi_offset 6, -16
 1628              		.cfi_offset 7, -12
 1629              		.cfi_offset 8, -8
 1630              		.cfi_offset 14, -4
 1631 0004 0546     		mov	r5, r0
 1632 0006 0E46     		mov	r6, r1
 1633 0008 1446     		mov	r4, r2
 282:Core/Src/fsmc.c ****   {
 1634              		.loc 1 282 3 is_stmt 1 view .LVU455
 282:Core/Src/fsmc.c ****   {
 1635              		.loc 1 282 12 is_stmt 0 view .LVU456
 1636 000a 3E4B     		ldr	r3, .L122
 1637 000c 9B88     		ldrh	r3, [r3, #4]
 282:Core/Src/fsmc.c ****   {
 1638              		.loc 1 282 5 view .LVU457
 1639 000e 49F24132 		movw	r2, #37697
 1640              	.LVL139:
 282:Core/Src/fsmc.c ****   {
 1641              		.loc 1 282 5 view .LVU458
 1642 0012 9342     		cmp	r3, r2
 1643 0014 39D0     		beq	.L115
 282:Core/Src/fsmc.c ****   {
 1644              		.loc 1 282 23 discriminator 1 view .LVU459
 1645 0016 45F21032 		movw	r2, #21264
 1646 001a 9342     		cmp	r3, r2
 1647 001c 35D0     		beq	.L115
 288:Core/Src/fsmc.c ****   {
 1648              		.loc 1 288 9 is_stmt 1 view .LVU460
 288:Core/Src/fsmc.c ****   {
 1649              		.loc 1 288 11 is_stmt 0 view .LVU461
 1650 001e 45F21052 		movw	r2, #21776
 1651 0022 9342     		cmp	r3, r2
 1652 0024 4FD0     		beq	.L121
 294:Core/Src/fsmc.c ****   {
 1653              		.loc 1 294 9 is_stmt 1 view .LVU462
ARM GAS  /tmp/ccE1vrH2.s 			page 74


 294:Core/Src/fsmc.c ****   {
 1654              		.loc 1 294 11 is_stmt 0 view .LVU463
 1655 0026 41F66312 		movw	r2, #6499
 1656 002a 9342     		cmp	r3, r2
 1657 002c 40D1     		bne	.L117
 296:Core/Src/fsmc.c ****     LCD_WR_REG(lcddev.setxcmd);
 1658              		.loc 1 296 5 is_stmt 1 view .LVU464
 296:Core/Src/fsmc.c ****     LCD_WR_REG(lcddev.setxcmd);
 1659              		.loc 1 296 14 is_stmt 0 view .LVU465
 1660 002e 354B     		ldr	r3, .L122
 1661 0030 9B79     		ldrb	r3, [r3, #6]	@ zero_extendqisi2
 296:Core/Src/fsmc.c ****     LCD_WR_REG(lcddev.setxcmd);
 1662              		.loc 1 296 7 view .LVU466
 1663 0032 2BB9     		cbnz	r3, .L119
 296:Core/Src/fsmc.c ****     LCD_WR_REG(lcddev.setxcmd);
 1664              		.loc 1 296 22 is_stmt 1 discriminator 1 view .LVU467
 296:Core/Src/fsmc.c ****     LCD_WR_REG(lcddev.setxcmd);
 1665              		.loc 1 296 30 is_stmt 0 discriminator 1 view .LVU468
 1666 0034 334B     		ldr	r3, .L122
 1667 0036 1888     		ldrh	r0, [r3]
 1668              	.LVL140:
 296:Core/Src/fsmc.c ****     LCD_WR_REG(lcddev.setxcmd);
 1669              		.loc 1 296 38 discriminator 1 view .LVU469
 1670 0038 451B     		subs	r5, r0, r5
 1671 003a ADB2     		uxth	r5, r5
 296:Core/Src/fsmc.c ****     LCD_WR_REG(lcddev.setxcmd);
 1672              		.loc 1 296 23 discriminator 1 view .LVU470
 1673 003c 013D     		subs	r5, r5, #1
 1674 003e ADB2     		uxth	r5, r5
 1675              	.LVL141:
 1676              	.L119:
 297:Core/Src/fsmc.c ****     LCD_WR_DATA(x>>8);LCD_WR_DATA(x&0XFF);
 1677              		.loc 1 297 5 is_stmt 1 view .LVU471
 1678 0040 304F     		ldr	r7, .L122
 1679 0042 7889     		ldrh	r0, [r7, #10]
 1680 0044 FFF7FEFF 		bl	LCD_WR_REG
 1681              	.LVL142:
 298:Core/Src/fsmc.c ****     LCD_WR_DATA(x>>8);LCD_WR_DATA(x&0XFF);
 1682              		.loc 1 298 5 view .LVU472
 1683 0048 4FEA1528 		lsr	r8, r5, #8
 1684 004c 4046     		mov	r0, r8
 1685 004e FFF7FEFF 		bl	LCD_WR_DATA
 1686              	.LVL143:
 298:Core/Src/fsmc.c ****     LCD_WR_DATA(x>>8);LCD_WR_DATA(x&0XFF);
 1687              		.loc 1 298 23 view .LVU473
 1688 0052 EDB2     		uxtb	r5, r5
 1689              	.LVL144:
 298:Core/Src/fsmc.c ****     LCD_WR_DATA(x>>8);LCD_WR_DATA(x&0XFF);
 1690              		.loc 1 298 23 is_stmt 0 view .LVU474
 1691 0054 2846     		mov	r0, r5
 1692 0056 FFF7FEFF 		bl	LCD_WR_DATA
 1693              	.LVL145:
 299:Core/Src/fsmc.c ****     LCD_WR_REG(lcddev.setycmd);
 1694              		.loc 1 299 5 is_stmt 1 view .LVU475
 1695 005a 4046     		mov	r0, r8
 1696 005c FFF7FEFF 		bl	LCD_WR_DATA
 1697              	.LVL146:
ARM GAS  /tmp/ccE1vrH2.s 			page 75


 299:Core/Src/fsmc.c ****     LCD_WR_REG(lcddev.setycmd);
 1698              		.loc 1 299 23 view .LVU476
 1699 0060 2846     		mov	r0, r5
 1700 0062 FFF7FEFF 		bl	LCD_WR_DATA
 1701              	.LVL147:
 300:Core/Src/fsmc.c ****     LCD_WR_DATA(y>>8);LCD_WR_DATA(y&0XFF);
 1702              		.loc 1 300 5 view .LVU477
 1703 0066 B889     		ldrh	r0, [r7, #12]
 1704 0068 FFF7FEFF 		bl	LCD_WR_REG
 1705              	.LVL148:
 301:Core/Src/fsmc.c ****     LCD_WR_DATA(y>>8);LCD_WR_DATA(y&0XFF);
 1706              		.loc 1 301 5 view .LVU478
 1707 006c 350A     		lsrs	r5, r6, #8
 1708 006e 2846     		mov	r0, r5
 1709 0070 FFF7FEFF 		bl	LCD_WR_DATA
 1710              	.LVL149:
 301:Core/Src/fsmc.c ****     LCD_WR_DATA(y>>8);LCD_WR_DATA(y&0XFF);
 1711              		.loc 1 301 23 view .LVU479
 1712 0074 F6B2     		uxtb	r6, r6
 1713 0076 3046     		mov	r0, r6
 1714 0078 FFF7FEFF 		bl	LCD_WR_DATA
 1715              	.LVL150:
 302:Core/Src/fsmc.c ****   }
 1716              		.loc 1 302 5 view .LVU480
 1717 007c 2846     		mov	r0, r5
 1718 007e FFF7FEFF 		bl	LCD_WR_DATA
 1719              	.LVL151:
 302:Core/Src/fsmc.c ****   }
 1720              		.loc 1 302 23 view .LVU481
 1721 0082 3046     		mov	r0, r6
 1722 0084 FFF7FEFF 		bl	LCD_WR_DATA
 1723              	.LVL152:
 1724 0088 12E0     		b	.L117
 1725              	.LVL153:
 1726              	.L115:
 284:Core/Src/fsmc.c ****     LCD_WR_DATA(x>>8);LCD_WR_DATA(x&0XFF);
 1727              		.loc 1 284 5 view .LVU482
 1728 008a 1E4F     		ldr	r7, .L122
 1729 008c 7889     		ldrh	r0, [r7, #10]
 1730              	.LVL154:
 284:Core/Src/fsmc.c ****     LCD_WR_DATA(x>>8);LCD_WR_DATA(x&0XFF);
 1731              		.loc 1 284 5 is_stmt 0 view .LVU483
 1732 008e FFF7FEFF 		bl	LCD_WR_REG
 1733              	.LVL155:
 285:Core/Src/fsmc.c ****     LCD_WR_REG(lcddev.setycmd);
 1734              		.loc 1 285 5 is_stmt 1 view .LVU484
 1735 0092 280A     		lsrs	r0, r5, #8
 1736 0094 FFF7FEFF 		bl	LCD_WR_DATA
 1737              	.LVL156:
 285:Core/Src/fsmc.c ****     LCD_WR_REG(lcddev.setycmd);
 1738              		.loc 1 285 23 view .LVU485
 1739 0098 E8B2     		uxtb	r0, r5
 1740 009a FFF7FEFF 		bl	LCD_WR_DATA
 1741              	.LVL157:
 286:Core/Src/fsmc.c ****     LCD_WR_DATA(y>>8);LCD_WR_DATA(y&0XFF);
 1742              		.loc 1 286 5 view .LVU486
 1743 009e B889     		ldrh	r0, [r7, #12]
ARM GAS  /tmp/ccE1vrH2.s 			page 76


 1744 00a0 FFF7FEFF 		bl	LCD_WR_REG
 1745              	.LVL158:
 287:Core/Src/fsmc.c ****   }else if(lcddev.id==0X5510)
 1746              		.loc 1 287 5 view .LVU487
 1747 00a4 300A     		lsrs	r0, r6, #8
 1748 00a6 FFF7FEFF 		bl	LCD_WR_DATA
 1749              	.LVL159:
 287:Core/Src/fsmc.c ****   }else if(lcddev.id==0X5510)
 1750              		.loc 1 287 23 view .LVU488
 1751 00aa F0B2     		uxtb	r0, r6
 1752 00ac FFF7FEFF 		bl	LCD_WR_DATA
 1753              	.LVL160:
 1754              	.L117:
 304:Core/Src/fsmc.c ****   LCD->LCD_RAM=color;
 1755              		.loc 1 304 3 view .LVU489
 304:Core/Src/fsmc.c ****   LCD->LCD_RAM=color;
 1756              		.loc 1 304 22 is_stmt 0 view .LVU490
 1757 00b0 144B     		ldr	r3, .L122
 1758 00b2 1A89     		ldrh	r2, [r3, #8]
 304:Core/Src/fsmc.c ****   LCD->LCD_RAM=color;
 1759              		.loc 1 304 15 view .LVU491
 1760 00b4 4FF0D843 		mov	r3, #1811939328
 1761 00b8 A3F87E20 		strh	r2, [r3, #126]	@ movhi
 305:Core/Src/fsmc.c **** }
 1762              		.loc 1 305 3 is_stmt 1 view .LVU492
 305:Core/Src/fsmc.c **** }
 1763              		.loc 1 305 15 is_stmt 0 view .LVU493
 1764 00bc A4B2     		uxth	r4, r4
 1765              	.LVL161:
 305:Core/Src/fsmc.c **** }
 1766              		.loc 1 305 15 view .LVU494
 1767 00be A3F88040 		strh	r4, [r3, #128]	@ movhi
 306:Core/Src/fsmc.c **** //SSD1963 èƒŒå…‰è®¾ç½®
 1768              		.loc 1 306 1 view .LVU495
 1769 00c2 BDE8F081 		pop	{r4, r5, r6, r7, r8, pc}
 1770              	.LVL162:
 1771              	.L121:
 290:Core/Src/fsmc.c ****     LCD_WR_REG(lcddev.setxcmd+1);LCD_WR_DATA(x&0XFF);
 1772              		.loc 1 290 5 is_stmt 1 view .LVU496
 1773 00c6 0F4F     		ldr	r7, .L122
 1774 00c8 7889     		ldrh	r0, [r7, #10]
 1775              	.LVL163:
 290:Core/Src/fsmc.c ****     LCD_WR_REG(lcddev.setxcmd+1);LCD_WR_DATA(x&0XFF);
 1776              		.loc 1 290 5 is_stmt 0 view .LVU497
 1777 00ca FFF7FEFF 		bl	LCD_WR_REG
 1778              	.LVL164:
 290:Core/Src/fsmc.c ****     LCD_WR_REG(lcddev.setxcmd+1);LCD_WR_DATA(x&0XFF);
 1779              		.loc 1 290 32 is_stmt 1 view .LVU498
 1780 00ce 280A     		lsrs	r0, r5, #8
 1781 00d0 FFF7FEFF 		bl	LCD_WR_DATA
 1782              	.LVL165:
 291:Core/Src/fsmc.c ****     LCD_WR_REG(lcddev.setycmd);LCD_WR_DATA(y>>8);
 1783              		.loc 1 291 5 view .LVU499
 291:Core/Src/fsmc.c ****     LCD_WR_REG(lcddev.setycmd);LCD_WR_DATA(y>>8);
 1784              		.loc 1 291 22 is_stmt 0 view .LVU500
 1785 00d4 7889     		ldrh	r0, [r7, #10]
 291:Core/Src/fsmc.c ****     LCD_WR_REG(lcddev.setycmd);LCD_WR_DATA(y>>8);
ARM GAS  /tmp/ccE1vrH2.s 			page 77


 1786              		.loc 1 291 5 view .LVU501
 1787 00d6 0130     		adds	r0, r0, #1
 1788 00d8 80B2     		uxth	r0, r0
 1789 00da FFF7FEFF 		bl	LCD_WR_REG
 1790              	.LVL166:
 291:Core/Src/fsmc.c ****     LCD_WR_REG(lcddev.setycmd);LCD_WR_DATA(y>>8);
 1791              		.loc 1 291 34 is_stmt 1 view .LVU502
 1792 00de E8B2     		uxtb	r0, r5
 1793 00e0 FFF7FEFF 		bl	LCD_WR_DATA
 1794              	.LVL167:
 292:Core/Src/fsmc.c ****     LCD_WR_REG(lcddev.setycmd+1);LCD_WR_DATA(y&0XFF);
 1795              		.loc 1 292 5 view .LVU503
 1796 00e4 B889     		ldrh	r0, [r7, #12]
 1797 00e6 FFF7FEFF 		bl	LCD_WR_REG
 1798              	.LVL168:
 292:Core/Src/fsmc.c ****     LCD_WR_REG(lcddev.setycmd+1);LCD_WR_DATA(y&0XFF);
 1799              		.loc 1 292 32 view .LVU504
 1800 00ea 300A     		lsrs	r0, r6, #8
 1801 00ec FFF7FEFF 		bl	LCD_WR_DATA
 1802              	.LVL169:
 293:Core/Src/fsmc.c ****   }else if(lcddev.id==0X1963)
 1803              		.loc 1 293 5 view .LVU505
 293:Core/Src/fsmc.c ****   }else if(lcddev.id==0X1963)
 1804              		.loc 1 293 22 is_stmt 0 view .LVU506
 1805 00f0 B889     		ldrh	r0, [r7, #12]
 293:Core/Src/fsmc.c ****   }else if(lcddev.id==0X1963)
 1806              		.loc 1 293 5 view .LVU507
 1807 00f2 0130     		adds	r0, r0, #1
 1808 00f4 80B2     		uxth	r0, r0
 1809 00f6 FFF7FEFF 		bl	LCD_WR_REG
 1810              	.LVL170:
 293:Core/Src/fsmc.c ****   }else if(lcddev.id==0X1963)
 1811              		.loc 1 293 34 is_stmt 1 view .LVU508
 1812 00fa F0B2     		uxtb	r0, r6
 1813 00fc FFF7FEFF 		bl	LCD_WR_DATA
 1814              	.LVL171:
 1815 0100 D6E7     		b	.L117
 1816              	.L123:
 1817 0102 00BF     		.align	2
 1818              	.L122:
 1819 0104 00000000 		.word	.LANCHOR2
 1820              		.cfi_endproc
 1821              	.LFE148:
 1823              		.global	__aeabi_i2d
 1824              		.global	__aeabi_dmul
 1825              		.global	__aeabi_d2uiz
 1826              		.section	.text.LCD_SSD_BackLightSet,"ax",%progbits
 1827              		.align	1
 1828              		.global	LCD_SSD_BackLightSet
 1829              		.syntax unified
 1830              		.thumb
 1831              		.thumb_func
 1833              	LCD_SSD_BackLightSet:
 1834              	.LVL172:
 1835              	.LFB149:
 310:Core/Src/fsmc.c ****   LCD_WR_REG(0xBE);	//é…ç½®PWMè¾“å‡º
 1836              		.loc 1 310 1 view -0
ARM GAS  /tmp/ccE1vrH2.s 			page 78


 1837              		.cfi_startproc
 1838              		@ args = 0, pretend = 0, frame = 0
 1839              		@ frame_needed = 0, uses_anonymous_args = 0
 310:Core/Src/fsmc.c ****   LCD_WR_REG(0xBE);	//é…ç½®PWMè¾“å‡º
 1840              		.loc 1 310 1 is_stmt 0 view .LVU510
 1841 0000 10B5     		push	{r4, lr}
 1842              	.LCFI20:
 1843              		.cfi_def_cfa_offset 8
 1844              		.cfi_offset 4, -8
 1845              		.cfi_offset 14, -4
 1846 0002 0446     		mov	r4, r0
 311:Core/Src/fsmc.c ****   LCD_WR_DATA(0x05);	//1è®¾ç½®PWMé¢‘ç‡
 1847              		.loc 1 311 3 is_stmt 1 view .LVU511
 1848 0004 BE20     		movs	r0, #190
 1849              	.LVL173:
 311:Core/Src/fsmc.c ****   LCD_WR_DATA(0x05);	//1è®¾ç½®PWMé¢‘ç‡
 1850              		.loc 1 311 3 is_stmt 0 view .LVU512
 1851 0006 FFF7FEFF 		bl	LCD_WR_REG
 1852              	.LVL174:
 312:Core/Src/fsmc.c ****   LCD_WR_DATA(pwm*2.55);//2è®¾ç½®PWMå ç©º??
 1853              		.loc 1 312 3 is_stmt 1 view .LVU513
 1854 000a 0520     		movs	r0, #5
 1855 000c FFF7FEFF 		bl	LCD_WR_DATA
 1856              	.LVL175:
 313:Core/Src/fsmc.c ****   LCD_WR_DATA(0x01);	//3è®¾ç½®C
 1857              		.loc 1 313 3 view .LVU514
 313:Core/Src/fsmc.c ****   LCD_WR_DATA(0x01);	//3è®¾ç½®C
 1858              		.loc 1 313 18 is_stmt 0 view .LVU515
 1859 0010 2046     		mov	r0, r4
 1860 0012 FFF7FEFF 		bl	__aeabi_i2d
 1861              	.LVL176:
 1862 0016 0CA3     		adr	r3, .L126
 1863 0018 D3E90023 		ldrd	r2, [r3]
 1864 001c FFF7FEFF 		bl	__aeabi_dmul
 1865              	.LVL177:
 313:Core/Src/fsmc.c ****   LCD_WR_DATA(0x01);	//3è®¾ç½®C
 1866              		.loc 1 313 3 view .LVU516
 1867 0020 FFF7FEFF 		bl	__aeabi_d2uiz
 1868              	.LVL178:
 1869 0024 80B2     		uxth	r0, r0
 1870 0026 FFF7FEFF 		bl	LCD_WR_DATA
 1871              	.LVL179:
 314:Core/Src/fsmc.c ****   LCD_WR_DATA(0xFF);	//4è®¾ç½®D
 1872              		.loc 1 314 3 is_stmt 1 view .LVU517
 1873 002a 0120     		movs	r0, #1
 1874 002c FFF7FEFF 		bl	LCD_WR_DATA
 1875              	.LVL180:
 315:Core/Src/fsmc.c ****   LCD_WR_DATA(0x00);	//5è®¾ç½®E
 1876              		.loc 1 315 3 view .LVU518
 1877 0030 FF20     		movs	r0, #255
 1878 0032 FFF7FEFF 		bl	LCD_WR_DATA
 1879              	.LVL181:
 316:Core/Src/fsmc.c ****   LCD_WR_DATA(0x00);	//6è®¾ç½®F
 1880              		.loc 1 316 3 view .LVU519
 1881 0036 0020     		movs	r0, #0
 1882 0038 FFF7FEFF 		bl	LCD_WR_DATA
 1883              	.LVL182:
ARM GAS  /tmp/ccE1vrH2.s 			page 79


 317:Core/Src/fsmc.c **** }
 1884              		.loc 1 317 3 view .LVU520
 1885 003c 0020     		movs	r0, #0
 1886 003e FFF7FEFF 		bl	LCD_WR_DATA
 1887              	.LVL183:
 318:Core/Src/fsmc.c **** 
 1888              		.loc 1 318 1 is_stmt 0 view .LVU521
 1889 0042 10BD     		pop	{r4, pc}
 1890              	.L127:
 1891 0044 AFF30080 		.align	3
 1892              	.L126:
 1893 0048 66666666 		.word	1717986918
 1894 004c 66660440 		.word	1074030182
 1895              		.cfi_endproc
 1896              	.LFE149:
 1898              		.section	.text.LCD_Display_Dir,"ax",%progbits
 1899              		.align	1
 1900              		.global	LCD_Display_Dir
 1901              		.syntax unified
 1902              		.thumb
 1903              		.thumb_func
 1905              	LCD_Display_Dir:
 1906              	.LVL184:
 1907              	.LFB150:
 323:Core/Src/fsmc.c ****   lcddev.dir=dir;		//ç«–å±/æ¨ªå±
 1908              		.loc 1 323 1 is_stmt 1 view -0
 1909              		.cfi_startproc
 1910              		@ args = 0, pretend = 0, frame = 0
 1911              		@ frame_needed = 0, uses_anonymous_args = 0
 323:Core/Src/fsmc.c ****   lcddev.dir=dir;		//ç«–å±/æ¨ªå±
 1912              		.loc 1 323 1 is_stmt 0 view .LVU523
 1913 0000 08B5     		push	{r3, lr}
 1914              	.LCFI21:
 1915              		.cfi_def_cfa_offset 8
 1916              		.cfi_offset 3, -8
 1917              		.cfi_offset 14, -4
 324:Core/Src/fsmc.c ****   if(dir==0)			//ç«–å±
 1918              		.loc 1 324 3 is_stmt 1 view .LVU524
 324:Core/Src/fsmc.c ****   if(dir==0)			//ç«–å±
 1919              		.loc 1 324 13 is_stmt 0 view .LVU525
 1920 0002 4C4B     		ldr	r3, .L142
 1921 0004 9871     		strb	r0, [r3, #6]
 325:Core/Src/fsmc.c ****   {
 1922              		.loc 1 325 3 is_stmt 1 view .LVU526
 325:Core/Src/fsmc.c ****   {
 1923              		.loc 1 325 5 is_stmt 0 view .LVU527
 1924 0006 0028     		cmp	r0, #0
 1925 0008 47D1     		bne	.L129
 327:Core/Src/fsmc.c ****     lcddev.height=320;
 1926              		.loc 1 327 5 is_stmt 1 view .LVU528
 327:Core/Src/fsmc.c ****     lcddev.height=320;
 1927              		.loc 1 327 17 is_stmt 0 view .LVU529
 1928 000a F022     		movs	r2, #240
 1929 000c 1A80     		strh	r2, [r3]	@ movhi
 328:Core/Src/fsmc.c ****     if(lcddev.id==0X9341||lcddev.id==0X5310)
 1930              		.loc 1 328 5 is_stmt 1 view .LVU530
 328:Core/Src/fsmc.c ****     if(lcddev.id==0X9341||lcddev.id==0X5310)
ARM GAS  /tmp/ccE1vrH2.s 			page 80


 1931              		.loc 1 328 18 is_stmt 0 view .LVU531
 1932 000e 4FF4A072 		mov	r2, #320
 1933 0012 5A80     		strh	r2, [r3, #2]	@ movhi
 329:Core/Src/fsmc.c ****     {
 1934              		.loc 1 329 5 is_stmt 1 view .LVU532
 329:Core/Src/fsmc.c ****     {
 1935              		.loc 1 329 14 is_stmt 0 view .LVU533
 1936 0014 9B88     		ldrh	r3, [r3, #4]
 329:Core/Src/fsmc.c ****     {
 1937              		.loc 1 329 7 view .LVU534
 1938 0016 49F24132 		movw	r2, #37697
 1939 001a 9342     		cmp	r3, r2
 1940 001c 19D0     		beq	.L130
 329:Core/Src/fsmc.c ****     {
 1941              		.loc 1 329 25 discriminator 1 view .LVU535
 1942 001e 45F21032 		movw	r2, #21264
 1943 0022 9342     		cmp	r3, r2
 1944 0024 15D0     		beq	.L130
 339:Core/Src/fsmc.c ****     {
 1945              		.loc 1 339 11 is_stmt 1 view .LVU536
 339:Core/Src/fsmc.c ****     {
 1946              		.loc 1 339 13 is_stmt 0 view .LVU537
 1947 0026 45F21052 		movw	r2, #21776
 1948 002a 9342     		cmp	r3, r2
 1949 002c 24D0     		beq	.L139
 346:Core/Src/fsmc.c ****     {
 1950              		.loc 1 346 11 is_stmt 1 view .LVU538
 346:Core/Src/fsmc.c ****     {
 1951              		.loc 1 346 13 is_stmt 0 view .LVU539
 1952 002e 41F66312 		movw	r2, #6499
 1953 0032 9342     		cmp	r3, r2
 1954 0034 61D1     		bne	.L132
 348:Core/Src/fsmc.c ****       lcddev.setxcmd=0X2B;	//è®¾ç½®å†™Xåæ ‡æŒ‡ä»¤
 1955              		.loc 1 348 7 is_stmt 1 view .LVU540
 348:Core/Src/fsmc.c ****       lcddev.setxcmd=0X2B;	//è®¾ç½®å†™Xåæ ‡æŒ‡ä»¤
 1956              		.loc 1 348 21 is_stmt 0 view .LVU541
 1957 0036 3F4B     		ldr	r3, .L142
 1958 0038 2C22     		movs	r2, #44
 1959 003a 1A81     		strh	r2, [r3, #8]	@ movhi
 349:Core/Src/fsmc.c ****       lcddev.setycmd=0X2A;	//è®¾ç½®å†™Yåæ ‡æŒ‡ä»¤
 1960              		.loc 1 349 7 is_stmt 1 view .LVU542
 349:Core/Src/fsmc.c ****       lcddev.setycmd=0X2A;	//è®¾ç½®å†™Yåæ ‡æŒ‡ä»¤
 1961              		.loc 1 349 21 is_stmt 0 view .LVU543
 1962 003c 2B22     		movs	r2, #43
 1963 003e 5A81     		strh	r2, [r3, #10]	@ movhi
 350:Core/Src/fsmc.c ****       lcddev.width=480;		//è®¾ç½®å®½åº¦480
 1964              		.loc 1 350 7 is_stmt 1 view .LVU544
 350:Core/Src/fsmc.c ****       lcddev.width=480;		//è®¾ç½®å®½åº¦480
 1965              		.loc 1 350 21 is_stmt 0 view .LVU545
 1966 0040 2A22     		movs	r2, #42
 1967 0042 9A81     		strh	r2, [r3, #12]	@ movhi
 351:Core/Src/fsmc.c ****       lcddev.height=800;		//è®¾ç½®é«˜åº¦800
 1968              		.loc 1 351 7 is_stmt 1 view .LVU546
 351:Core/Src/fsmc.c ****       lcddev.height=800;		//è®¾ç½®é«˜åº¦800
 1969              		.loc 1 351 19 is_stmt 0 view .LVU547
 1970 0044 4FF4F072 		mov	r2, #480
 1971 0048 1A80     		strh	r2, [r3]	@ movhi
ARM GAS  /tmp/ccE1vrH2.s 			page 81


 352:Core/Src/fsmc.c ****     }
 1972              		.loc 1 352 7 is_stmt 1 view .LVU548
 352:Core/Src/fsmc.c ****     }
 1973              		.loc 1 352 20 is_stmt 0 view .LVU549
 1974 004a 4FF44872 		mov	r2, #800
 1975 004e 5A80     		strh	r2, [r3, #2]	@ movhi
 1976 0050 53E0     		b	.L132
 1977              	.L130:
 331:Core/Src/fsmc.c ****       lcddev.setxcmd=0X2A;
 1978              		.loc 1 331 7 is_stmt 1 view .LVU550
 331:Core/Src/fsmc.c ****       lcddev.setxcmd=0X2A;
 1979              		.loc 1 331 21 is_stmt 0 view .LVU551
 1980 0052 384A     		ldr	r2, .L142
 1981 0054 2C21     		movs	r1, #44
 1982 0056 1181     		strh	r1, [r2, #8]	@ movhi
 332:Core/Src/fsmc.c ****       lcddev.setycmd=0X2B;
 1983              		.loc 1 332 7 is_stmt 1 view .LVU552
 332:Core/Src/fsmc.c ****       lcddev.setycmd=0X2B;
 1984              		.loc 1 332 21 is_stmt 0 view .LVU553
 1985 0058 2A21     		movs	r1, #42
 1986 005a 5181     		strh	r1, [r2, #10]	@ movhi
 333:Core/Src/fsmc.c ****       if(lcddev.id==0X5310)
 1987              		.loc 1 333 7 is_stmt 1 view .LVU554
 333:Core/Src/fsmc.c ****       if(lcddev.id==0X5310)
 1988              		.loc 1 333 21 is_stmt 0 view .LVU555
 1989 005c 2B21     		movs	r1, #43
 1990 005e 9181     		strh	r1, [r2, #12]	@ movhi
 334:Core/Src/fsmc.c ****       {
 1991              		.loc 1 334 7 is_stmt 1 view .LVU556
 334:Core/Src/fsmc.c ****       {
 1992              		.loc 1 334 9 is_stmt 0 view .LVU557
 1993 0060 45F21032 		movw	r2, #21264
 1994 0064 9342     		cmp	r3, r2
 1995 0066 48D1     		bne	.L132
 336:Core/Src/fsmc.c ****         lcddev.height=480;
 1996              		.loc 1 336 9 is_stmt 1 view .LVU558
 336:Core/Src/fsmc.c ****         lcddev.height=480;
 1997              		.loc 1 336 21 is_stmt 0 view .LVU559
 1998 0068 324B     		ldr	r3, .L142
 1999 006a 4FF4A072 		mov	r2, #320
 2000 006e 1A80     		strh	r2, [r3]	@ movhi
 337:Core/Src/fsmc.c ****       }
 2001              		.loc 1 337 9 is_stmt 1 view .LVU560
 337:Core/Src/fsmc.c ****       }
 2002              		.loc 1 337 22 is_stmt 0 view .LVU561
 2003 0070 4FF4F072 		mov	r2, #480
 2004 0074 5A80     		strh	r2, [r3, #2]	@ movhi
 2005 0076 40E0     		b	.L132
 2006              	.L139:
 341:Core/Src/fsmc.c ****       lcddev.setxcmd=0X2A00;
 2007              		.loc 1 341 7 is_stmt 1 view .LVU562
 341:Core/Src/fsmc.c ****       lcddev.setxcmd=0X2A00;
 2008              		.loc 1 341 21 is_stmt 0 view .LVU563
 2009 0078 2E4B     		ldr	r3, .L142
 2010 007a 4FF43052 		mov	r2, #11264
 2011 007e 1A81     		strh	r2, [r3, #8]	@ movhi
 342:Core/Src/fsmc.c ****       lcddev.setycmd=0X2B00;
ARM GAS  /tmp/ccE1vrH2.s 			page 82


 2012              		.loc 1 342 7 is_stmt 1 view .LVU564
 342:Core/Src/fsmc.c ****       lcddev.setycmd=0X2B00;
 2013              		.loc 1 342 21 is_stmt 0 view .LVU565
 2014 0080 4FF42852 		mov	r2, #10752
 2015 0084 5A81     		strh	r2, [r3, #10]	@ movhi
 343:Core/Src/fsmc.c ****       lcddev.width=480;
 2016              		.loc 1 343 7 is_stmt 1 view .LVU566
 343:Core/Src/fsmc.c ****       lcddev.width=480;
 2017              		.loc 1 343 21 is_stmt 0 view .LVU567
 2018 0086 4FF42C52 		mov	r2, #11008
 2019 008a 9A81     		strh	r2, [r3, #12]	@ movhi
 344:Core/Src/fsmc.c ****       lcddev.height=800;
 2020              		.loc 1 344 7 is_stmt 1 view .LVU568
 344:Core/Src/fsmc.c ****       lcddev.height=800;
 2021              		.loc 1 344 19 is_stmt 0 view .LVU569
 2022 008c 4FF4F072 		mov	r2, #480
 2023 0090 1A80     		strh	r2, [r3]	@ movhi
 345:Core/Src/fsmc.c ****     }else if(lcddev.id==0X1963)
 2024              		.loc 1 345 7 is_stmt 1 view .LVU570
 345:Core/Src/fsmc.c ****     }else if(lcddev.id==0X1963)
 2025              		.loc 1 345 20 is_stmt 0 view .LVU571
 2026 0092 4FF44872 		mov	r2, #800
 2027 0096 5A80     		strh	r2, [r3, #2]	@ movhi
 2028 0098 2FE0     		b	.L132
 2029              	.L129:
 356:Core/Src/fsmc.c ****     lcddev.height=240;
 2030              		.loc 1 356 5 is_stmt 1 view .LVU572
 356:Core/Src/fsmc.c ****     lcddev.height=240;
 2031              		.loc 1 356 17 is_stmt 0 view .LVU573
 2032 009a 264B     		ldr	r3, .L142
 2033 009c 4FF4A072 		mov	r2, #320
 2034 00a0 1A80     		strh	r2, [r3]	@ movhi
 357:Core/Src/fsmc.c ****     if(lcddev.id==0X9341||lcddev.id==0X5310)
 2035              		.loc 1 357 5 is_stmt 1 view .LVU574
 357:Core/Src/fsmc.c ****     if(lcddev.id==0X9341||lcddev.id==0X5310)
 2036              		.loc 1 357 18 is_stmt 0 view .LVU575
 2037 00a2 F022     		movs	r2, #240
 2038 00a4 5A80     		strh	r2, [r3, #2]	@ movhi
 358:Core/Src/fsmc.c ****     {
 2039              		.loc 1 358 5 is_stmt 1 view .LVU576
 358:Core/Src/fsmc.c ****     {
 2040              		.loc 1 358 14 is_stmt 0 view .LVU577
 2041 00a6 9B88     		ldrh	r3, [r3, #4]
 358:Core/Src/fsmc.c ****     {
 2042              		.loc 1 358 7 view .LVU578
 2043 00a8 49F24132 		movw	r2, #37697
 2044 00ac 9342     		cmp	r3, r2
 2045 00ae 19D0     		beq	.L134
 358:Core/Src/fsmc.c ****     {
 2046              		.loc 1 358 25 discriminator 1 view .LVU579
 2047 00b0 45F21032 		movw	r2, #21264
 2048 00b4 9342     		cmp	r3, r2
 2049 00b6 15D0     		beq	.L134
 363:Core/Src/fsmc.c ****     {
 2050              		.loc 1 363 11 is_stmt 1 view .LVU580
 363:Core/Src/fsmc.c ****     {
 2051              		.loc 1 363 13 is_stmt 0 view .LVU581
ARM GAS  /tmp/ccE1vrH2.s 			page 83


 2052 00b8 45F21052 		movw	r2, #21776
 2053 00bc 9342     		cmp	r3, r2
 2054 00be 20D0     		beq	.L140
 370:Core/Src/fsmc.c ****     {
 2055              		.loc 1 370 11 is_stmt 1 view .LVU582
 370:Core/Src/fsmc.c ****     {
 2056              		.loc 1 370 13 is_stmt 0 view .LVU583
 2057 00c0 41F66312 		movw	r2, #6499
 2058 00c4 9342     		cmp	r3, r2
 2059 00c6 14D1     		bne	.L136
 372:Core/Src/fsmc.c ****       lcddev.setxcmd=0X2A;	//è®¾ç½®å†™Xåæ ‡æŒ‡ä»¤
 2060              		.loc 1 372 7 is_stmt 1 view .LVU584
 372:Core/Src/fsmc.c ****       lcddev.setxcmd=0X2A;	//è®¾ç½®å†™Xåæ ‡æŒ‡ä»¤
 2061              		.loc 1 372 21 is_stmt 0 view .LVU585
 2062 00c8 1A4A     		ldr	r2, .L142
 2063 00ca 2C21     		movs	r1, #44
 2064 00cc 1181     		strh	r1, [r2, #8]	@ movhi
 373:Core/Src/fsmc.c ****       lcddev.setycmd=0X2B;	//è®¾ç½®å†™Yåæ ‡æŒ‡ä»¤
 2065              		.loc 1 373 7 is_stmt 1 view .LVU586
 373:Core/Src/fsmc.c ****       lcddev.setycmd=0X2B;	//è®¾ç½®å†™Yåæ ‡æŒ‡ä»¤
 2066              		.loc 1 373 21 is_stmt 0 view .LVU587
 2067 00ce 2A21     		movs	r1, #42
 2068 00d0 5181     		strh	r1, [r2, #10]	@ movhi
 374:Core/Src/fsmc.c ****       lcddev.width=800;		//è®¾ç½®å®½åº¦800
 2069              		.loc 1 374 7 is_stmt 1 view .LVU588
 374:Core/Src/fsmc.c ****       lcddev.width=800;		//è®¾ç½®å®½åº¦800
 2070              		.loc 1 374 21 is_stmt 0 view .LVU589
 2071 00d2 2B21     		movs	r1, #43
 2072 00d4 9181     		strh	r1, [r2, #12]	@ movhi
 375:Core/Src/fsmc.c ****       lcddev.height=480;		//è®¾ç½®é«˜åº¦480
 2073              		.loc 1 375 7 is_stmt 1 view .LVU590
 375:Core/Src/fsmc.c ****       lcddev.height=480;		//è®¾ç½®é«˜åº¦480
 2074              		.loc 1 375 19 is_stmt 0 view .LVU591
 2075 00d6 4FF44871 		mov	r1, #800
 2076 00da 1180     		strh	r1, [r2]	@ movhi
 376:Core/Src/fsmc.c ****     }
 2077              		.loc 1 376 7 is_stmt 1 view .LVU592
 376:Core/Src/fsmc.c ****     }
 2078              		.loc 1 376 20 is_stmt 0 view .LVU593
 2079 00dc 4FF4F071 		mov	r1, #480
 2080 00e0 5180     		strh	r1, [r2, #2]	@ movhi
 2081 00e2 06E0     		b	.L136
 2082              	.L134:
 360:Core/Src/fsmc.c ****       lcddev.setxcmd=0X2A;
 2083              		.loc 1 360 7 is_stmt 1 view .LVU594
 360:Core/Src/fsmc.c ****       lcddev.setxcmd=0X2A;
 2084              		.loc 1 360 21 is_stmt 0 view .LVU595
 2085 00e4 134A     		ldr	r2, .L142
 2086 00e6 2C21     		movs	r1, #44
 2087 00e8 1181     		strh	r1, [r2, #8]	@ movhi
 361:Core/Src/fsmc.c ****       lcddev.setycmd=0X2B;
 2088              		.loc 1 361 7 is_stmt 1 view .LVU596
 361:Core/Src/fsmc.c ****       lcddev.setycmd=0X2B;
 2089              		.loc 1 361 21 is_stmt 0 view .LVU597
 2090 00ea 2A21     		movs	r1, #42
 2091 00ec 5181     		strh	r1, [r2, #10]	@ movhi
 362:Core/Src/fsmc.c ****     }else if(lcddev.id==0x5510)
ARM GAS  /tmp/ccE1vrH2.s 			page 84


 2092              		.loc 1 362 7 is_stmt 1 view .LVU598
 362:Core/Src/fsmc.c ****     }else if(lcddev.id==0x5510)
 2093              		.loc 1 362 21 is_stmt 0 view .LVU599
 2094 00ee 2B21     		movs	r1, #43
 2095 00f0 9181     		strh	r1, [r2, #12]	@ movhi
 2096              	.L136:
 378:Core/Src/fsmc.c ****     {
 2097              		.loc 1 378 5 is_stmt 1 view .LVU600
 378:Core/Src/fsmc.c ****     {
 2098              		.loc 1 378 7 is_stmt 0 view .LVU601
 2099 00f2 45F21032 		movw	r2, #21264
 2100 00f6 9342     		cmp	r3, r2
 2101 00f8 14D0     		beq	.L141
 2102              	.L132:
 384:Core/Src/fsmc.c **** }
 2103              		.loc 1 384 3 is_stmt 1 view .LVU602
 2104 00fa 0020     		movs	r0, #0
 2105              	.LVL185:
 384:Core/Src/fsmc.c **** }
 2106              		.loc 1 384 3 is_stmt 0 view .LVU603
 2107 00fc FFF7FEFF 		bl	LCD_Scan_Dir
 2108              	.LVL186:
 385:Core/Src/fsmc.c **** //è®¾ç½®çª—å£(å¯¹RGBå±æ— ??),å¹¶è‡ªåŠ¨è®¾ç½®ç”»ç‚¹åæ ‡åˆ°çª—å£å·¦ä¸Š??(sx,sy).
 2109              		.loc 1 385 1 view .LVU604
 2110 0100 08BD     		pop	{r3, pc}
 2111              	.LVL187:
 2112              	.L140:
 365:Core/Src/fsmc.c ****       lcddev.setxcmd=0X2A00;
 2113              		.loc 1 365 7 is_stmt 1 view .LVU605
 365:Core/Src/fsmc.c ****       lcddev.setxcmd=0X2A00;
 2114              		.loc 1 365 21 is_stmt 0 view .LVU606
 2115 0102 0C4A     		ldr	r2, .L142
 2116 0104 4FF43051 		mov	r1, #11264
 2117 0108 1181     		strh	r1, [r2, #8]	@ movhi
 366:Core/Src/fsmc.c ****       lcddev.setycmd=0X2B00;
 2118              		.loc 1 366 7 is_stmt 1 view .LVU607
 366:Core/Src/fsmc.c ****       lcddev.setycmd=0X2B00;
 2119              		.loc 1 366 21 is_stmt 0 view .LVU608
 2120 010a 4FF42851 		mov	r1, #10752
 2121 010e 5181     		strh	r1, [r2, #10]	@ movhi
 367:Core/Src/fsmc.c ****       lcddev.width=800;
 2122              		.loc 1 367 7 is_stmt 1 view .LVU609
 367:Core/Src/fsmc.c ****       lcddev.width=800;
 2123              		.loc 1 367 21 is_stmt 0 view .LVU610
 2124 0110 4FF42C51 		mov	r1, #11008
 2125 0114 9181     		strh	r1, [r2, #12]	@ movhi
 368:Core/Src/fsmc.c ****       lcddev.height=480;
 2126              		.loc 1 368 7 is_stmt 1 view .LVU611
 368:Core/Src/fsmc.c ****       lcddev.height=480;
 2127              		.loc 1 368 19 is_stmt 0 view .LVU612
 2128 0116 4FF44871 		mov	r1, #800
 2129 011a 1180     		strh	r1, [r2]	@ movhi
 369:Core/Src/fsmc.c ****     }else if(lcddev.id==0X1963)
 2130              		.loc 1 369 7 is_stmt 1 view .LVU613
 369:Core/Src/fsmc.c ****     }else if(lcddev.id==0X1963)
 2131              		.loc 1 369 20 is_stmt 0 view .LVU614
 2132 011c 4FF4F071 		mov	r1, #480
ARM GAS  /tmp/ccE1vrH2.s 			page 85


 2133 0120 5180     		strh	r1, [r2, #2]	@ movhi
 2134 0122 E6E7     		b	.L136
 2135              	.L141:
 380:Core/Src/fsmc.c ****       lcddev.height=320;
 2136              		.loc 1 380 7 is_stmt 1 view .LVU615
 380:Core/Src/fsmc.c ****       lcddev.height=320;
 2137              		.loc 1 380 19 is_stmt 0 view .LVU616
 2138 0124 034B     		ldr	r3, .L142
 2139 0126 4FF4F072 		mov	r2, #480
 2140 012a 1A80     		strh	r2, [r3]	@ movhi
 381:Core/Src/fsmc.c ****     }
 2141              		.loc 1 381 7 is_stmt 1 view .LVU617
 381:Core/Src/fsmc.c ****     }
 2142              		.loc 1 381 20 is_stmt 0 view .LVU618
 2143 012c 4FF4A072 		mov	r2, #320
 2144 0130 5A80     		strh	r2, [r3, #2]	@ movhi
 2145 0132 E2E7     		b	.L132
 2146              	.L143:
 2147              		.align	2
 2148              	.L142:
 2149 0134 00000000 		.word	.LANCHOR2
 2150              		.cfi_endproc
 2151              	.LFE150:
 2153              		.section	.text.LCD_Set_Window,"ax",%progbits
 2154              		.align	1
 2155              		.global	LCD_Set_Window
 2156              		.syntax unified
 2157              		.thumb
 2158              		.thumb_func
 2160              	LCD_Set_Window:
 2161              	.LVL188:
 2162              	.LFB151:
 391:Core/Src/fsmc.c ****   uint16_t twidth,theight;
 2163              		.loc 1 391 1 is_stmt 1 view -0
 2164              		.cfi_startproc
 2165              		@ args = 0, pretend = 0, frame = 0
 2166              		@ frame_needed = 0, uses_anonymous_args = 0
 391:Core/Src/fsmc.c ****   uint16_t twidth,theight;
 2167              		.loc 1 391 1 is_stmt 0 view .LVU620
 2168 0000 2DE9F041 		push	{r4, r5, r6, r7, r8, lr}
 2169              	.LCFI22:
 2170              		.cfi_def_cfa_offset 24
 2171              		.cfi_offset 4, -24
 2172              		.cfi_offset 5, -20
 2173              		.cfi_offset 6, -16
 2174              		.cfi_offset 7, -12
 2175              		.cfi_offset 8, -8
 2176              		.cfi_offset 14, -4
 2177 0004 0746     		mov	r7, r0
 2178 0006 0E46     		mov	r6, r1
 2179 0008 9046     		mov	r8, r2
 392:Core/Src/fsmc.c ****   twidth=sx+width-1;
 2180              		.loc 1 392 3 is_stmt 1 view .LVU621
 393:Core/Src/fsmc.c ****   theight=sy+height-1;
 2181              		.loc 1 393 3 view .LVU622
 393:Core/Src/fsmc.c ****   theight=sy+height-1;
 2182              		.loc 1 393 12 is_stmt 0 view .LVU623
ARM GAS  /tmp/ccE1vrH2.s 			page 86


 2183 000a 8518     		adds	r5, r0, r2
 2184 000c ADB2     		uxth	r5, r5
 393:Core/Src/fsmc.c ****   theight=sy+height-1;
 2185              		.loc 1 393 9 view .LVU624
 2186 000e 013D     		subs	r5, r5, #1
 2187 0010 ADB2     		uxth	r5, r5
 2188              	.LVL189:
 394:Core/Src/fsmc.c ****   if(lcddev.id==0X9341||lcddev.id==0X5310||(lcddev.dir==1&&lcddev.id==0X1963))
 2189              		.loc 1 394 3 is_stmt 1 view .LVU625
 394:Core/Src/fsmc.c ****   if(lcddev.id==0X9341||lcddev.id==0X5310||(lcddev.dir==1&&lcddev.id==0X1963))
 2190              		.loc 1 394 13 is_stmt 0 view .LVU626
 2191 0012 CC18     		adds	r4, r1, r3
 2192 0014 A4B2     		uxth	r4, r4
 394:Core/Src/fsmc.c ****   if(lcddev.id==0X9341||lcddev.id==0X5310||(lcddev.dir==1&&lcddev.id==0X1963))
 2193              		.loc 1 394 10 view .LVU627
 2194 0016 013C     		subs	r4, r4, #1
 2195 0018 A4B2     		uxth	r4, r4
 2196              	.LVL190:
 395:Core/Src/fsmc.c ****   {
 2197              		.loc 1 395 3 is_stmt 1 view .LVU628
 395:Core/Src/fsmc.c ****   {
 2198              		.loc 1 395 12 is_stmt 0 view .LVU629
 2199 001a 584B     		ldr	r3, .L152
 2200              	.LVL191:
 395:Core/Src/fsmc.c ****   {
 2201              		.loc 1 395 12 view .LVU630
 2202 001c 9B88     		ldrh	r3, [r3, #4]
 395:Core/Src/fsmc.c ****   {
 2203              		.loc 1 395 5 view .LVU631
 2204 001e 49F24132 		movw	r2, #37697
 2205              	.LVL192:
 395:Core/Src/fsmc.c ****   {
 2206              		.loc 1 395 5 view .LVU632
 2207 0022 9342     		cmp	r3, r2
 2208 0024 5AD0     		beq	.L145
 395:Core/Src/fsmc.c ****   {
 2209              		.loc 1 395 23 discriminator 1 view .LVU633
 2210 0026 45F21032 		movw	r2, #21264
 2211 002a 9342     		cmp	r3, r2
 2212 002c 56D0     		beq	.L145
 395:Core/Src/fsmc.c ****   {
 2213              		.loc 1 395 51 discriminator 2 view .LVU634
 2214 002e 534A     		ldr	r2, .L152
 2215 0030 9279     		ldrb	r2, [r2, #6]	@ zero_extendqisi2
 395:Core/Src/fsmc.c ****   {
 2216              		.loc 1 395 42 discriminator 2 view .LVU635
 2217 0032 012A     		cmp	r2, #1
 2218 0034 4ED0     		beq	.L150
 2219              	.L146:
 407:Core/Src/fsmc.c ****   {
 2220              		.loc 1 407 9 is_stmt 1 view .LVU636
 407:Core/Src/fsmc.c ****   {
 2221              		.loc 1 407 11 is_stmt 0 view .LVU637
 2222 0036 41F66312 		movw	r2, #6499
 2223 003a 9342     		cmp	r3, r2
 2224 003c 72D0     		beq	.L151
 421:Core/Src/fsmc.c ****   {
ARM GAS  /tmp/ccE1vrH2.s 			page 87


 2225              		.loc 1 421 9 is_stmt 1 view .LVU638
 421:Core/Src/fsmc.c ****   {
 2226              		.loc 1 421 11 is_stmt 0 view .LVU639
 2227 003e 45F21052 		movw	r2, #21776
 2228 0042 9342     		cmp	r3, r2
 2229 0044 6CD1     		bne	.L144
 423:Core/Src/fsmc.c ****     LCD_WR_REG(lcddev.setxcmd+1);LCD_WR_DATA(sx&0XFF);
 2230              		.loc 1 423 5 is_stmt 1 view .LVU640
 2231 0046 DFF83481 		ldr	r8, .L152
 2232 004a B8F80A00 		ldrh	r0, [r8, #10]
 2233              	.LVL193:
 423:Core/Src/fsmc.c ****     LCD_WR_REG(lcddev.setxcmd+1);LCD_WR_DATA(sx&0XFF);
 2234              		.loc 1 423 5 is_stmt 0 view .LVU641
 2235 004e FFF7FEFF 		bl	LCD_WR_REG
 2236              	.LVL194:
 423:Core/Src/fsmc.c ****     LCD_WR_REG(lcddev.setxcmd+1);LCD_WR_DATA(sx&0XFF);
 2237              		.loc 1 423 32 is_stmt 1 view .LVU642
 2238 0052 380A     		lsrs	r0, r7, #8
 2239 0054 FFF7FEFF 		bl	LCD_WR_DATA
 2240              	.LVL195:
 424:Core/Src/fsmc.c ****     LCD_WR_REG(lcddev.setxcmd+2);LCD_WR_DATA(twidth>>8);
 2241              		.loc 1 424 5 view .LVU643
 424:Core/Src/fsmc.c ****     LCD_WR_REG(lcddev.setxcmd+2);LCD_WR_DATA(twidth>>8);
 2242              		.loc 1 424 22 is_stmt 0 view .LVU644
 2243 0058 B8F80A00 		ldrh	r0, [r8, #10]
 424:Core/Src/fsmc.c ****     LCD_WR_REG(lcddev.setxcmd+2);LCD_WR_DATA(twidth>>8);
 2244              		.loc 1 424 5 view .LVU645
 2245 005c 0130     		adds	r0, r0, #1
 2246 005e 80B2     		uxth	r0, r0
 2247 0060 FFF7FEFF 		bl	LCD_WR_REG
 2248              	.LVL196:
 424:Core/Src/fsmc.c ****     LCD_WR_REG(lcddev.setxcmd+2);LCD_WR_DATA(twidth>>8);
 2249              		.loc 1 424 34 is_stmt 1 view .LVU646
 2250 0064 F8B2     		uxtb	r0, r7
 2251 0066 FFF7FEFF 		bl	LCD_WR_DATA
 2252              	.LVL197:
 425:Core/Src/fsmc.c ****     LCD_WR_REG(lcddev.setxcmd+3);LCD_WR_DATA(twidth&0XFF);
 2253              		.loc 1 425 5 view .LVU647
 425:Core/Src/fsmc.c ****     LCD_WR_REG(lcddev.setxcmd+3);LCD_WR_DATA(twidth&0XFF);
 2254              		.loc 1 425 22 is_stmt 0 view .LVU648
 2255 006a B8F80A00 		ldrh	r0, [r8, #10]
 425:Core/Src/fsmc.c ****     LCD_WR_REG(lcddev.setxcmd+3);LCD_WR_DATA(twidth&0XFF);
 2256              		.loc 1 425 5 view .LVU649
 2257 006e 0230     		adds	r0, r0, #2
 2258 0070 80B2     		uxth	r0, r0
 2259 0072 FFF7FEFF 		bl	LCD_WR_REG
 2260              	.LVL198:
 425:Core/Src/fsmc.c ****     LCD_WR_REG(lcddev.setxcmd+3);LCD_WR_DATA(twidth&0XFF);
 2261              		.loc 1 425 34 is_stmt 1 view .LVU650
 2262 0076 280A     		lsrs	r0, r5, #8
 2263 0078 FFF7FEFF 		bl	LCD_WR_DATA
 2264              	.LVL199:
 426:Core/Src/fsmc.c ****     LCD_WR_REG(lcddev.setycmd);LCD_WR_DATA(sy>>8);
 2265              		.loc 1 426 5 view .LVU651
 426:Core/Src/fsmc.c ****     LCD_WR_REG(lcddev.setycmd);LCD_WR_DATA(sy>>8);
 2266              		.loc 1 426 22 is_stmt 0 view .LVU652
 2267 007c B8F80A00 		ldrh	r0, [r8, #10]
ARM GAS  /tmp/ccE1vrH2.s 			page 88


 426:Core/Src/fsmc.c ****     LCD_WR_REG(lcddev.setycmd);LCD_WR_DATA(sy>>8);
 2268              		.loc 1 426 5 view .LVU653
 2269 0080 0330     		adds	r0, r0, #3
 2270 0082 80B2     		uxth	r0, r0
 2271 0084 FFF7FEFF 		bl	LCD_WR_REG
 2272              	.LVL200:
 426:Core/Src/fsmc.c ****     LCD_WR_REG(lcddev.setycmd);LCD_WR_DATA(sy>>8);
 2273              		.loc 1 426 34 is_stmt 1 view .LVU654
 2274 0088 E8B2     		uxtb	r0, r5
 2275 008a FFF7FEFF 		bl	LCD_WR_DATA
 2276              	.LVL201:
 427:Core/Src/fsmc.c ****     LCD_WR_REG(lcddev.setycmd+1);LCD_WR_DATA(sy&0XFF);
 2277              		.loc 1 427 5 view .LVU655
 2278 008e B8F80C00 		ldrh	r0, [r8, #12]
 2279 0092 FFF7FEFF 		bl	LCD_WR_REG
 2280              	.LVL202:
 427:Core/Src/fsmc.c ****     LCD_WR_REG(lcddev.setycmd+1);LCD_WR_DATA(sy&0XFF);
 2281              		.loc 1 427 32 view .LVU656
 2282 0096 300A     		lsrs	r0, r6, #8
 2283 0098 FFF7FEFF 		bl	LCD_WR_DATA
 2284              	.LVL203:
 428:Core/Src/fsmc.c ****     LCD_WR_REG(lcddev.setycmd+2);LCD_WR_DATA(theight>>8);
 2285              		.loc 1 428 5 view .LVU657
 428:Core/Src/fsmc.c ****     LCD_WR_REG(lcddev.setycmd+2);LCD_WR_DATA(theight>>8);
 2286              		.loc 1 428 22 is_stmt 0 view .LVU658
 2287 009c B8F80C00 		ldrh	r0, [r8, #12]
 428:Core/Src/fsmc.c ****     LCD_WR_REG(lcddev.setycmd+2);LCD_WR_DATA(theight>>8);
 2288              		.loc 1 428 5 view .LVU659
 2289 00a0 0130     		adds	r0, r0, #1
 2290 00a2 80B2     		uxth	r0, r0
 2291 00a4 FFF7FEFF 		bl	LCD_WR_REG
 2292              	.LVL204:
 428:Core/Src/fsmc.c ****     LCD_WR_REG(lcddev.setycmd+2);LCD_WR_DATA(theight>>8);
 2293              		.loc 1 428 34 is_stmt 1 view .LVU660
 2294 00a8 F0B2     		uxtb	r0, r6
 2295 00aa FFF7FEFF 		bl	LCD_WR_DATA
 2296              	.LVL205:
 429:Core/Src/fsmc.c ****     LCD_WR_REG(lcddev.setycmd+3);LCD_WR_DATA(theight&0XFF);
 2297              		.loc 1 429 5 view .LVU661
 429:Core/Src/fsmc.c ****     LCD_WR_REG(lcddev.setycmd+3);LCD_WR_DATA(theight&0XFF);
 2298              		.loc 1 429 22 is_stmt 0 view .LVU662
 2299 00ae B8F80C00 		ldrh	r0, [r8, #12]
 429:Core/Src/fsmc.c ****     LCD_WR_REG(lcddev.setycmd+3);LCD_WR_DATA(theight&0XFF);
 2300              		.loc 1 429 5 view .LVU663
 2301 00b2 0230     		adds	r0, r0, #2
 2302 00b4 80B2     		uxth	r0, r0
 2303 00b6 FFF7FEFF 		bl	LCD_WR_REG
 2304              	.LVL206:
 429:Core/Src/fsmc.c ****     LCD_WR_REG(lcddev.setycmd+3);LCD_WR_DATA(theight&0XFF);
 2305              		.loc 1 429 34 is_stmt 1 view .LVU664
 2306 00ba 200A     		lsrs	r0, r4, #8
 2307 00bc FFF7FEFF 		bl	LCD_WR_DATA
 2308              	.LVL207:
 430:Core/Src/fsmc.c ****   }
 2309              		.loc 1 430 5 view .LVU665
 430:Core/Src/fsmc.c ****   }
 2310              		.loc 1 430 22 is_stmt 0 view .LVU666
ARM GAS  /tmp/ccE1vrH2.s 			page 89


 2311 00c0 B8F80C00 		ldrh	r0, [r8, #12]
 430:Core/Src/fsmc.c ****   }
 2312              		.loc 1 430 5 view .LVU667
 2313 00c4 0330     		adds	r0, r0, #3
 2314 00c6 80B2     		uxth	r0, r0
 2315 00c8 FFF7FEFF 		bl	LCD_WR_REG
 2316              	.LVL208:
 430:Core/Src/fsmc.c ****   }
 2317              		.loc 1 430 34 is_stmt 1 view .LVU668
 2318 00cc E0B2     		uxtb	r0, r4
 2319 00ce FFF7FEFF 		bl	LCD_WR_DATA
 2320              	.LVL209:
 432:Core/Src/fsmc.c **** //SRAMåº•å±‚é©±åŠ¨ï¼Œæ—¶é’Ÿä½¿èƒ½ï¼Œå¼•è„šåˆ†é…
 2321              		.loc 1 432 1 is_stmt 0 view .LVU669
 2322 00d2 25E0     		b	.L144
 2323              	.LVL210:
 2324              	.L150:
 395:Core/Src/fsmc.c ****   {
 2325              		.loc 1 395 58 discriminator 3 view .LVU670
 2326 00d4 41F66312 		movw	r2, #6499
 2327 00d8 9342     		cmp	r3, r2
 2328 00da ACD1     		bne	.L146
 2329              	.L145:
 397:Core/Src/fsmc.c ****     LCD_WR_DATA(sx>>8);
 2330              		.loc 1 397 5 is_stmt 1 view .LVU671
 2331 00dc DFF89C80 		ldr	r8, .L152
 2332 00e0 B8F80A00 		ldrh	r0, [r8, #10]
 2333              	.LVL211:
 397:Core/Src/fsmc.c ****     LCD_WR_DATA(sx>>8);
 2334              		.loc 1 397 5 is_stmt 0 view .LVU672
 2335 00e4 FFF7FEFF 		bl	LCD_WR_REG
 2336              	.LVL212:
 398:Core/Src/fsmc.c ****     LCD_WR_DATA(sx&0XFF);
 2337              		.loc 1 398 5 is_stmt 1 view .LVU673
 2338 00e8 380A     		lsrs	r0, r7, #8
 2339 00ea FFF7FEFF 		bl	LCD_WR_DATA
 2340              	.LVL213:
 399:Core/Src/fsmc.c ****     LCD_WR_DATA(twidth>>8);
 2341              		.loc 1 399 5 view .LVU674
 2342 00ee F8B2     		uxtb	r0, r7
 2343 00f0 FFF7FEFF 		bl	LCD_WR_DATA
 2344              	.LVL214:
 400:Core/Src/fsmc.c ****     LCD_WR_DATA(twidth&0XFF);
 2345              		.loc 1 400 5 view .LVU675
 2346 00f4 280A     		lsrs	r0, r5, #8
 2347 00f6 FFF7FEFF 		bl	LCD_WR_DATA
 2348              	.LVL215:
 401:Core/Src/fsmc.c ****     LCD_WR_REG(lcddev.setycmd);
 2349              		.loc 1 401 5 view .LVU676
 2350 00fa E8B2     		uxtb	r0, r5
 2351 00fc FFF7FEFF 		bl	LCD_WR_DATA
 2352              	.LVL216:
 402:Core/Src/fsmc.c ****     LCD_WR_DATA(sy>>8);
 2353              		.loc 1 402 5 view .LVU677
 2354 0100 B8F80C00 		ldrh	r0, [r8, #12]
 2355 0104 FFF7FEFF 		bl	LCD_WR_REG
 2356              	.LVL217:
ARM GAS  /tmp/ccE1vrH2.s 			page 90


 403:Core/Src/fsmc.c ****     LCD_WR_DATA(sy&0XFF);
 2357              		.loc 1 403 5 view .LVU678
 2358 0108 300A     		lsrs	r0, r6, #8
 2359 010a FFF7FEFF 		bl	LCD_WR_DATA
 2360              	.LVL218:
 404:Core/Src/fsmc.c ****     LCD_WR_DATA(theight>>8);
 2361              		.loc 1 404 5 view .LVU679
 2362 010e F0B2     		uxtb	r0, r6
 2363 0110 FFF7FEFF 		bl	LCD_WR_DATA
 2364              	.LVL219:
 405:Core/Src/fsmc.c ****     LCD_WR_DATA(theight&0XFF);
 2365              		.loc 1 405 5 view .LVU680
 2366 0114 200A     		lsrs	r0, r4, #8
 2367 0116 FFF7FEFF 		bl	LCD_WR_DATA
 2368              	.LVL220:
 406:Core/Src/fsmc.c ****   }else if(lcddev.id==0X1963)//1963ç«–å±ç‰¹æ®Šå¤„ç†
 2369              		.loc 1 406 5 view .LVU681
 2370 011a E0B2     		uxtb	r0, r4
 2371 011c FFF7FEFF 		bl	LCD_WR_DATA
 2372              	.LVL221:
 2373              	.L144:
 432:Core/Src/fsmc.c **** //SRAMåº•å±‚é©±åŠ¨ï¼Œæ—¶é’Ÿä½¿èƒ½ï¼Œå¼•è„šåˆ†é…
 2374              		.loc 1 432 1 is_stmt 0 view .LVU682
 2375 0120 BDE8F081 		pop	{r4, r5, r6, r7, r8, pc}
 2376              	.LVL222:
 2377              	.L151:
 409:Core/Src/fsmc.c ****     height=sy+height-1;
 2378              		.loc 1 409 5 is_stmt 1 view .LVU683
 409:Core/Src/fsmc.c ****     height=sy+height-1;
 2379              		.loc 1 409 14 is_stmt 0 view .LVU684
 2380 0124 154D     		ldr	r5, .L152
 2381              	.LVL223:
 409:Core/Src/fsmc.c ****     height=sy+height-1;
 2382              		.loc 1 409 14 view .LVU685
 2383 0126 2888     		ldrh	r0, [r5]
 2384              	.LVL224:
 409:Core/Src/fsmc.c ****     height=sy+height-1;
 2385              		.loc 1 409 20 view .LVU686
 2386 0128 A0EB0800 		sub	r0, r0, r8
 2387 012c 80B2     		uxth	r0, r0
 409:Core/Src/fsmc.c ****     height=sy+height-1;
 2388              		.loc 1 409 7 view .LVU687
 2389 012e C71B     		subs	r7, r0, r7
 2390              	.LVL225:
 409:Core/Src/fsmc.c ****     height=sy+height-1;
 2391              		.loc 1 409 7 view .LVU688
 2392 0130 BFB2     		uxth	r7, r7
 2393              	.LVL226:
 410:Core/Src/fsmc.c ****     LCD_WR_REG(lcddev.setxcmd);
 2394              		.loc 1 410 5 is_stmt 1 view .LVU689
 411:Core/Src/fsmc.c ****     LCD_WR_DATA(sx>>8);
 2395              		.loc 1 411 5 view .LVU690
 2396 0132 6889     		ldrh	r0, [r5, #10]
 2397 0134 FFF7FEFF 		bl	LCD_WR_REG
 2398              	.LVL227:
 412:Core/Src/fsmc.c ****     LCD_WR_DATA(sx&0XFF);
 2399              		.loc 1 412 5 view .LVU691
ARM GAS  /tmp/ccE1vrH2.s 			page 91


 2400 0138 380A     		lsrs	r0, r7, #8
 2401 013a FFF7FEFF 		bl	LCD_WR_DATA
 2402              	.LVL228:
 413:Core/Src/fsmc.c ****     LCD_WR_DATA((sx+width-1)>>8);
 2403              		.loc 1 413 5 view .LVU692
 2404 013e F8B2     		uxtb	r0, r7
 2405 0140 FFF7FEFF 		bl	LCD_WR_DATA
 2406              	.LVL229:
 414:Core/Src/fsmc.c ****     LCD_WR_DATA((sx+width-1)&0XFF);
 2407              		.loc 1 414 5 view .LVU693
 414:Core/Src/fsmc.c ****     LCD_WR_DATA((sx+width-1)&0XFF);
 2408              		.loc 1 414 20 is_stmt 0 view .LVU694
 2409 0144 4744     		add	r7, r7, r8
 2410              	.LVL230:
 414:Core/Src/fsmc.c ****     LCD_WR_DATA((sx+width-1)&0XFF);
 2411              		.loc 1 414 26 view .LVU695
 2412 0146 781E     		subs	r0, r7, #1
 414:Core/Src/fsmc.c ****     LCD_WR_DATA((sx+width-1)&0XFF);
 2413              		.loc 1 414 5 view .LVU696
 2414 0148 C0F30F20 		ubfx	r0, r0, #8, #16
 2415 014c FFF7FEFF 		bl	LCD_WR_DATA
 2416              	.LVL231:
 415:Core/Src/fsmc.c ****     LCD_WR_REG(lcddev.setycmd);
 2417              		.loc 1 415 5 is_stmt 1 view .LVU697
 415:Core/Src/fsmc.c ****     LCD_WR_REG(lcddev.setycmd);
 2418              		.loc 1 415 20 is_stmt 0 view .LVU698
 2419 0150 BFB2     		uxth	r7, r7
 415:Core/Src/fsmc.c ****     LCD_WR_REG(lcddev.setycmd);
 2420              		.loc 1 415 26 view .LVU699
 2421 0152 781E     		subs	r0, r7, #1
 415:Core/Src/fsmc.c ****     LCD_WR_REG(lcddev.setycmd);
 2422              		.loc 1 415 5 view .LVU700
 2423 0154 C0B2     		uxtb	r0, r0
 2424 0156 FFF7FEFF 		bl	LCD_WR_DATA
 2425              	.LVL232:
 416:Core/Src/fsmc.c ****     LCD_WR_DATA(sy>>8);
 2426              		.loc 1 416 5 is_stmt 1 view .LVU701
 2427 015a A889     		ldrh	r0, [r5, #12]
 2428 015c FFF7FEFF 		bl	LCD_WR_REG
 2429              	.LVL233:
 417:Core/Src/fsmc.c ****     LCD_WR_DATA(sy&0XFF);
 2430              		.loc 1 417 5 view .LVU702
 2431 0160 300A     		lsrs	r0, r6, #8
 2432 0162 FFF7FEFF 		bl	LCD_WR_DATA
 2433              	.LVL234:
 418:Core/Src/fsmc.c ****     LCD_WR_DATA(height>>8);
 2434              		.loc 1 418 5 view .LVU703
 2435 0166 F0B2     		uxtb	r0, r6
 2436 0168 FFF7FEFF 		bl	LCD_WR_DATA
 2437              	.LVL235:
 419:Core/Src/fsmc.c ****     LCD_WR_DATA(height&0XFF);
 2438              		.loc 1 419 5 view .LVU704
 2439 016c 200A     		lsrs	r0, r4, #8
 2440 016e FFF7FEFF 		bl	LCD_WR_DATA
 2441              	.LVL236:
 420:Core/Src/fsmc.c ****   }else if(lcddev.id==0X5510)
 2442              		.loc 1 420 5 view .LVU705
ARM GAS  /tmp/ccE1vrH2.s 			page 92


 2443 0172 E0B2     		uxtb	r0, r4
 2444 0174 FFF7FEFF 		bl	LCD_WR_DATA
 2445              	.LVL237:
 2446 0178 D2E7     		b	.L144
 2447              	.L153:
 2448 017a 00BF     		.align	2
 2449              	.L152:
 2450 017c 00000000 		.word	.LANCHOR2
 2451              		.cfi_endproc
 2452              	.LFE151:
 2454              		.section	.text.LCD_Clear,"ax",%progbits
 2455              		.align	1
 2456              		.global	LCD_Clear
 2457              		.syntax unified
 2458              		.thumb
 2459              		.thumb_func
 2461              	LCD_Clear:
 2462              	.LVL238:
 2463              	.LFB153:
1754:Core/Src/fsmc.c ****   uint32_t index=0;
 2464              		.loc 1 1754 1 view -0
 2465              		.cfi_startproc
 2466              		@ args = 0, pretend = 0, frame = 0
 2467              		@ frame_needed = 0, uses_anonymous_args = 0
1754:Core/Src/fsmc.c ****   uint32_t index=0;
 2468              		.loc 1 1754 1 is_stmt 0 view .LVU707
 2469 0000 38B5     		push	{r3, r4, r5, lr}
 2470              	.LCFI23:
 2471              		.cfi_def_cfa_offset 16
 2472              		.cfi_offset 3, -16
 2473              		.cfi_offset 4, -12
 2474              		.cfi_offset 5, -8
 2475              		.cfi_offset 14, -4
 2476 0002 0546     		mov	r5, r0
1755:Core/Src/fsmc.c ****   uint32_t totalpoint=lcddev.width;
 2477              		.loc 1 1755 3 is_stmt 1 view .LVU708
 2478              	.LVL239:
1756:Core/Src/fsmc.c ****   totalpoint*=lcddev.height; 			//å¾—åˆ°æ€»ç‚¹??
 2479              		.loc 1 1756 3 view .LVU709
1756:Core/Src/fsmc.c ****   totalpoint*=lcddev.height; 			//å¾—åˆ°æ€»ç‚¹??
 2480              		.loc 1 1756 29 is_stmt 0 view .LVU710
 2481 0004 0A4B     		ldr	r3, .L158
 2482 0006 1A88     		ldrh	r2, [r3]
 2483              	.LVL240:
1757:Core/Src/fsmc.c ****   LCD_SetCursor(0x00,0x0000);			//è®¾ç½®å…‰æ ‡ä½ç½®
 2484              		.loc 1 1757 3 is_stmt 1 view .LVU711
1757:Core/Src/fsmc.c ****   LCD_SetCursor(0x00,0x0000);			//è®¾ç½®å…‰æ ‡ä½ç½®
 2485              		.loc 1 1757 21 is_stmt 0 view .LVU712
 2486 0008 5C88     		ldrh	r4, [r3, #2]
1757:Core/Src/fsmc.c ****   LCD_SetCursor(0x00,0x0000);			//è®¾ç½®å…‰æ ‡ä½ç½®
 2487              		.loc 1 1757 13 view .LVU713
 2488 000a 02FB04F4 		mul	r4, r2, r4
 2489              	.LVL241:
1758:Core/Src/fsmc.c ****   LCD_WriteRAM_Prepare();     		//??å§‹å†™å…¥GRAM
 2490              		.loc 1 1758 3 is_stmt 1 view .LVU714
 2491 000e 0021     		movs	r1, #0
 2492 0010 0846     		mov	r0, r1
ARM GAS  /tmp/ccE1vrH2.s 			page 93


 2493              	.LVL242:
1758:Core/Src/fsmc.c ****   LCD_WriteRAM_Prepare();     		//??å§‹å†™å…¥GRAM
 2494              		.loc 1 1758 3 is_stmt 0 view .LVU715
 2495 0012 FFF7FEFF 		bl	LCD_SetCursor
 2496              	.LVL243:
1759:Core/Src/fsmc.c ****   for(index=0;index<totalpoint;index++)
 2497              		.loc 1 1759 3 is_stmt 1 view .LVU716
 2498 0016 FFF7FEFF 		bl	LCD_WriteRAM_Prepare
 2499              	.LVL244:
1760:Core/Src/fsmc.c ****   {
 2500              		.loc 1 1760 3 view .LVU717
1760:Core/Src/fsmc.c ****   {
 2501              		.loc 1 1760 12 is_stmt 0 view .LVU718
 2502 001a 0022     		movs	r2, #0
1760:Core/Src/fsmc.c ****   {
 2503              		.loc 1 1760 3 view .LVU719
 2504 001c 05E0     		b	.L155
 2505              	.LVL245:
 2506              	.L156:
1762:Core/Src/fsmc.c ****   }
 2507              		.loc 1 1762 5 is_stmt 1 discriminator 3 view .LVU720
1762:Core/Src/fsmc.c ****   }
 2508              		.loc 1 1762 17 is_stmt 0 discriminator 3 view .LVU721
 2509 001e ABB2     		uxth	r3, r5
 2510 0020 4FF0D841 		mov	r1, #1811939328
 2511 0024 A1F88030 		strh	r3, [r1, #128]	@ movhi
1760:Core/Src/fsmc.c ****   {
 2512              		.loc 1 1760 32 is_stmt 1 discriminator 3 view .LVU722
1760:Core/Src/fsmc.c ****   {
 2513              		.loc 1 1760 37 is_stmt 0 discriminator 3 view .LVU723
 2514 0028 0132     		adds	r2, r2, #1
 2515              	.LVL246:
 2516              	.L155:
1760:Core/Src/fsmc.c ****   {
 2517              		.loc 1 1760 15 is_stmt 1 discriminator 1 view .LVU724
1760:Core/Src/fsmc.c ****   {
 2518              		.loc 1 1760 3 is_stmt 0 discriminator 1 view .LVU725
 2519 002a A242     		cmp	r2, r4
 2520 002c F7D3     		bcc	.L156
1764:Core/Src/fsmc.c **** //åœ¨æŒ‡å®šåŒºåŸŸå†…å¡«å……å•ä¸ªé¢œè‰²
 2521              		.loc 1 1764 1 view .LVU726
 2522 002e 38BD     		pop	{r3, r4, r5, pc}
 2523              	.LVL247:
 2524              	.L159:
1764:Core/Src/fsmc.c **** //åœ¨æŒ‡å®šåŒºåŸŸå†…å¡«å……å•ä¸ªé¢œè‰²
 2525              		.loc 1 1764 1 view .LVU727
 2526              		.align	2
 2527              	.L158:
 2528 0030 00000000 		.word	.LANCHOR2
 2529              		.cfi_endproc
 2530              	.LFE153:
 2532              		.section	.text.LCD_Init,"ax",%progbits
 2533              		.align	1
 2534              		.global	LCD_Init
 2535              		.syntax unified
 2536              		.thumb
 2537              		.thumb_func
ARM GAS  /tmp/ccE1vrH2.s 			page 94


 2539              	LCD_Init:
 2540              	.LFB152:
 440:Core/Src/fsmc.c ****   HAL_Delay(50); // delay 50 ms
 2541              		.loc 1 440 1 is_stmt 1 view -0
 2542              		.cfi_startproc
 2543              		@ args = 0, pretend = 0, frame = 0
 2544              		@ frame_needed = 0, uses_anonymous_args = 0
 2545 0000 10B5     		push	{r4, lr}
 2546              	.LCFI24:
 2547              		.cfi_def_cfa_offset 8
 2548              		.cfi_offset 4, -8
 2549              		.cfi_offset 14, -4
 441:Core/Src/fsmc.c **** 
 2550              		.loc 1 441 3 view .LVU729
 2551 0002 3220     		movs	r0, #50
 2552 0004 FFF7FEFF 		bl	HAL_Delay
 2553              	.LVL248:
 444:Core/Src/fsmc.c ****   lcddev.id=LCD_RD_DATA();	//dummy read
 2554              		.loc 1 444 3 view .LVU730
 2555 0008 D320     		movs	r0, #211
 2556 000a FFF7FEFF 		bl	LCD_WR_REG
 2557              	.LVL249:
 445:Core/Src/fsmc.c ****   lcddev.id=LCD_RD_DATA();	//è¯»åˆ°0X00
 2558              		.loc 1 445 3 view .LVU731
 445:Core/Src/fsmc.c ****   lcddev.id=LCD_RD_DATA();	//è¯»åˆ°0X00
 2559              		.loc 1 445 13 is_stmt 0 view .LVU732
 2560 000e FFF7FEFF 		bl	LCD_RD_DATA
 2561              	.LVL250:
 445:Core/Src/fsmc.c ****   lcddev.id=LCD_RD_DATA();	//è¯»åˆ°0X00
 2562              		.loc 1 445 12 view .LVU733
 2563 0012 5B4C     		ldr	r4, .L176
 2564 0014 A080     		strh	r0, [r4, #4]	@ movhi
 446:Core/Src/fsmc.c ****   lcddev.id=LCD_RD_DATA();   	//è¯»å–93
 2565              		.loc 1 446 3 is_stmt 1 view .LVU734
 446:Core/Src/fsmc.c ****   lcddev.id=LCD_RD_DATA();   	//è¯»å–93
 2566              		.loc 1 446 13 is_stmt 0 view .LVU735
 2567 0016 FFF7FEFF 		bl	LCD_RD_DATA
 2568              	.LVL251:
 446:Core/Src/fsmc.c ****   lcddev.id=LCD_RD_DATA();   	//è¯»å–93
 2569              		.loc 1 446 12 view .LVU736
 2570 001a A080     		strh	r0, [r4, #4]	@ movhi
 447:Core/Src/fsmc.c ****   lcddev.id<<=8;
 2571              		.loc 1 447 3 is_stmt 1 view .LVU737
 447:Core/Src/fsmc.c ****   lcddev.id<<=8;
 2572              		.loc 1 447 13 is_stmt 0 view .LVU738
 2573 001c FFF7FEFF 		bl	LCD_RD_DATA
 2574              	.LVL252:
 447:Core/Src/fsmc.c ****   lcddev.id<<=8;
 2575              		.loc 1 447 12 view .LVU739
 2576 0020 A080     		strh	r0, [r4, #4]	@ movhi
 448:Core/Src/fsmc.c ****   lcddev.id|=LCD_RD_DATA();  	//è¯»å–41
 2577              		.loc 1 448 3 is_stmt 1 view .LVU740
 448:Core/Src/fsmc.c ****   lcddev.id|=LCD_RD_DATA();  	//è¯»å–41
 2578              		.loc 1 448 12 is_stmt 0 view .LVU741
 2579 0022 0002     		lsls	r0, r0, #8
 2580 0024 A080     		strh	r0, [r4, #4]	@ movhi
 449:Core/Src/fsmc.c ****   if(lcddev.id!=0X9341)		//??9341,å°è¯•çœ‹çœ‹æ˜¯ä¸æ˜¯NT35310
ARM GAS  /tmp/ccE1vrH2.s 			page 95


 2581              		.loc 1 449 3 is_stmt 1 view .LVU742
 449:Core/Src/fsmc.c ****   if(lcddev.id!=0X9341)		//??9341,å°è¯•çœ‹çœ‹æ˜¯ä¸æ˜¯NT35310
 2582              		.loc 1 449 14 is_stmt 0 view .LVU743
 2583 0026 FFF7FEFF 		bl	LCD_RD_DATA
 2584              	.LVL253:
 449:Core/Src/fsmc.c ****   if(lcddev.id!=0X9341)		//??9341,å°è¯•çœ‹çœ‹æ˜¯ä¸æ˜¯NT35310
 2585              		.loc 1 449 12 view .LVU744
 2586 002a A388     		ldrh	r3, [r4, #4]
 2587 002c 1843     		orrs	r0, r0, r3
 2588 002e 80B2     		uxth	r0, r0
 2589 0030 A080     		strh	r0, [r4, #4]	@ movhi
 450:Core/Src/fsmc.c ****   {
 2590              		.loc 1 450 3 is_stmt 1 view .LVU745
 450:Core/Src/fsmc.c ****   {
 2591              		.loc 1 450 5 is_stmt 0 view .LVU746
 2592 0032 49F24133 		movw	r3, #37697
 2593 0036 9842     		cmp	r0, r3
 2594 0038 46D1     		bne	.L170
 2595              	.L161:
 480:Core/Src/fsmc.c ****   {
 2596              		.loc 1 480 3 is_stmt 1 view .LVU747
 480:Core/Src/fsmc.c ****   {
 2597              		.loc 1 480 12 is_stmt 0 view .LVU748
 2598 003a 514B     		ldr	r3, .L176
 2599 003c 9B88     		ldrh	r3, [r3, #4]
 480:Core/Src/fsmc.c ****   {
 2600              		.loc 1 480 5 view .LVU749
 2601 003e 49F24132 		movw	r2, #37697
 2602 0042 9342     		cmp	r3, r2
 2603 0044 00F0A280 		beq	.L171
 574:Core/Src/fsmc.c ****   {
 2604              		.loc 1 574 9 is_stmt 1 view .LVU750
 574:Core/Src/fsmc.c ****   {
 2605              		.loc 1 574 11 is_stmt 0 view .LVU751
 2606 0048 45F21032 		movw	r2, #21264
 2607 004c 9342     		cmp	r3, r2
 2608 004e 00F0B281 		beq	.L172
1253:Core/Src/fsmc.c ****   {
 2609              		.loc 1 1253 9 is_stmt 1 view .LVU752
1253:Core/Src/fsmc.c ****   {
 2610              		.loc 1 1253 11 is_stmt 0 view .LVU753
 2611 0052 45F21052 		movw	r2, #21776
 2612 0056 9342     		cmp	r3, r2
 2613 0058 01F02681 		beq	.L173
1665:Core/Src/fsmc.c ****   {
 2614              		.loc 1 1665 9 is_stmt 1 view .LVU754
1665:Core/Src/fsmc.c ****   {
 2615              		.loc 1 1665 11 is_stmt 0 view .LVU755
 2616 005c 41F66312 		movw	r2, #6499
 2617 0060 9342     		cmp	r3, r2
 2618 0062 02F09C80 		beq	.L174
 2619              	.L164:
1739:Core/Src/fsmc.c ****   {
 2620              		.loc 1 1739 3 is_stmt 1 view .LVU756
1739:Core/Src/fsmc.c ****   {
 2621              		.loc 1 1739 12 is_stmt 0 view .LVU757
 2622 0066 464B     		ldr	r3, .L176
ARM GAS  /tmp/ccE1vrH2.s 			page 96


 2623 0068 9B88     		ldrh	r3, [r3, #4]
1739:Core/Src/fsmc.c ****   {
 2624              		.loc 1 1739 5 view .LVU758
 2625 006a 49F24132 		movw	r2, #37697
 2626 006e 9342     		cmp	r3, r2
 2627 0070 0BD0     		beq	.L167
1739:Core/Src/fsmc.c ****   {
 2628              		.loc 1 1739 23 discriminator 1 view .LVU759
 2629 0072 45F21032 		movw	r2, #21264
 2630 0076 9342     		cmp	r3, r2
 2631 0078 07D0     		beq	.L167
1739:Core/Src/fsmc.c ****   {
 2632              		.loc 1 1739 42 discriminator 2 view .LVU760
 2633 007a 45F21052 		movw	r2, #21776
 2634 007e 9342     		cmp	r3, r2
 2635 0080 03D0     		beq	.L167
1739:Core/Src/fsmc.c ****   {
 2636              		.loc 1 1739 61 discriminator 3 view .LVU761
 2637 0082 41F66312 		movw	r2, #6499
 2638 0086 9342     		cmp	r3, r2
 2639 0088 10D1     		bne	.L168
 2640              	.L167:
1742:Core/Src/fsmc.c ****     FSMC_Bank1E->BWTR[6]&=~(0XF<<8);//æ•°æ®ä¿å­˜æ—¶é—´æ¸…é›¶
 2641              		.loc 1 1742 5 is_stmt 1 view .LVU762
1742:Core/Src/fsmc.c ****     FSMC_Bank1E->BWTR[6]&=~(0XF<<8);//æ•°æ®ä¿å­˜æ—¶é—´æ¸…é›¶
 2642              		.loc 1 1742 25 is_stmt 0 view .LVU763
 2643 008a 3E4B     		ldr	r3, .L176+4
 2644 008c DA69     		ldr	r2, [r3, #28]
 2645 008e 22F00F02 		bic	r2, r2, #15
 2646 0092 DA61     		str	r2, [r3, #28]
1743:Core/Src/fsmc.c ****     FSMC_Bank1E->BWTR[6]|=3<<0;		//åœ°å€å»ºç«‹æ—¶é—´(ADDSET)??3ä¸ªHCLK =18ns
 2647              		.loc 1 1743 5 is_stmt 1 view .LVU764
1743:Core/Src/fsmc.c ****     FSMC_Bank1E->BWTR[6]|=3<<0;		//åœ°å€å»ºç«‹æ—¶é—´(ADDSET)??3ä¸ªHCLK =18ns
 2648              		.loc 1 1743 25 is_stmt 0 view .LVU765
 2649 0094 DA69     		ldr	r2, [r3, #28]
 2650 0096 22F47062 		bic	r2, r2, #3840
 2651 009a DA61     		str	r2, [r3, #28]
1744:Core/Src/fsmc.c ****     FSMC_Bank1E->BWTR[6]|=2<<8; 	//æ•°æ®ä¿å­˜æ—¶é—´(DATAST)??6ns*3ä¸ªHCLK=18ns
 2652              		.loc 1 1744 5 is_stmt 1 view .LVU766
1744:Core/Src/fsmc.c ****     FSMC_Bank1E->BWTR[6]|=2<<8; 	//æ•°æ®ä¿å­˜æ—¶é—´(DATAST)??6ns*3ä¸ªHCLK=18ns
 2653              		.loc 1 1744 25 is_stmt 0 view .LVU767
 2654 009c DA69     		ldr	r2, [r3, #28]
 2655 009e 42F00302 		orr	r2, r2, #3
 2656 00a2 DA61     		str	r2, [r3, #28]
1745:Core/Src/fsmc.c ****   }
 2657              		.loc 1 1745 5 is_stmt 1 view .LVU768
1745:Core/Src/fsmc.c ****   }
 2658              		.loc 1 1745 25 is_stmt 0 view .LVU769
 2659 00a4 DA69     		ldr	r2, [r3, #28]
 2660 00a6 42F40072 		orr	r2, r2, #512
 2661 00aa DA61     		str	r2, [r3, #28]
 2662              	.L168:
1747:Core/Src/fsmc.c ****   HAL_GPIO_WritePin(GPIOB,GPIO_PIN_15,GPIO_PIN_SET);				//ç‚¹äº®èƒŒå…‰
 2663              		.loc 1 1747 3 is_stmt 1 view .LVU770
 2664 00ac 0020     		movs	r0, #0
 2665 00ae FFF7FEFF 		bl	LCD_Display_Dir
 2666              	.LVL254:
ARM GAS  /tmp/ccE1vrH2.s 			page 97


1748:Core/Src/fsmc.c ****   LCD_Clear(WHITE);
 2667              		.loc 1 1748 3 view .LVU771
 2668 00b2 0122     		movs	r2, #1
 2669 00b4 4FF40041 		mov	r1, #32768
 2670 00b8 3348     		ldr	r0, .L176+8
 2671 00ba FFF7FEFF 		bl	HAL_GPIO_WritePin
 2672              	.LVL255:
1749:Core/Src/fsmc.c **** }
 2673              		.loc 1 1749 3 view .LVU772
 2674 00be 4FF6FF70 		movw	r0, #65535
 2675 00c2 FFF7FEFF 		bl	LCD_Clear
 2676              	.LVL256:
1750:Core/Src/fsmc.c **** //æ¸…å±å‡½æ•°
 2677              		.loc 1 1750 1 is_stmt 0 view .LVU773
 2678 00c6 10BD     		pop	{r4, pc}
 2679              	.L170:
 452:Core/Src/fsmc.c ****     lcddev.id=LCD_RD_DATA();//dummy read
 2680              		.loc 1 452 5 is_stmt 1 view .LVU774
 2681 00c8 D420     		movs	r0, #212
 2682 00ca FFF7FEFF 		bl	LCD_WR_REG
 2683              	.LVL257:
 453:Core/Src/fsmc.c ****     lcddev.id=LCD_RD_DATA();//è¯»å›0X01
 2684              		.loc 1 453 5 view .LVU775
 453:Core/Src/fsmc.c ****     lcddev.id=LCD_RD_DATA();//è¯»å›0X01
 2685              		.loc 1 453 15 is_stmt 0 view .LVU776
 2686 00ce FFF7FEFF 		bl	LCD_RD_DATA
 2687              	.LVL258:
 453:Core/Src/fsmc.c ****     lcddev.id=LCD_RD_DATA();//è¯»å›0X01
 2688              		.loc 1 453 14 view .LVU777
 2689 00d2 A080     		strh	r0, [r4, #4]	@ movhi
 454:Core/Src/fsmc.c ****     lcddev.id=LCD_RD_DATA();//è¯»å›0X53
 2690              		.loc 1 454 5 is_stmt 1 view .LVU778
 454:Core/Src/fsmc.c ****     lcddev.id=LCD_RD_DATA();//è¯»å›0X53
 2691              		.loc 1 454 15 is_stmt 0 view .LVU779
 2692 00d4 FFF7FEFF 		bl	LCD_RD_DATA
 2693              	.LVL259:
 454:Core/Src/fsmc.c ****     lcddev.id=LCD_RD_DATA();//è¯»å›0X53
 2694              		.loc 1 454 14 view .LVU780
 2695 00d8 A080     		strh	r0, [r4, #4]	@ movhi
 455:Core/Src/fsmc.c ****     lcddev.id<<=8;
 2696              		.loc 1 455 5 is_stmt 1 view .LVU781
 455:Core/Src/fsmc.c ****     lcddev.id<<=8;
 2697              		.loc 1 455 15 is_stmt 0 view .LVU782
 2698 00da FFF7FEFF 		bl	LCD_RD_DATA
 2699              	.LVL260:
 455:Core/Src/fsmc.c ****     lcddev.id<<=8;
 2700              		.loc 1 455 14 view .LVU783
 2701 00de A080     		strh	r0, [r4, #4]	@ movhi
 456:Core/Src/fsmc.c ****     lcddev.id|=LCD_RD_DATA();	//è¿™é‡Œè¯»å›0X10
 2702              		.loc 1 456 5 is_stmt 1 view .LVU784
 456:Core/Src/fsmc.c ****     lcddev.id|=LCD_RD_DATA();	//è¿™é‡Œè¯»å›0X10
 2703              		.loc 1 456 14 is_stmt 0 view .LVU785
 2704 00e0 0002     		lsls	r0, r0, #8
 2705 00e2 A080     		strh	r0, [r4, #4]	@ movhi
 457:Core/Src/fsmc.c ****     if(lcddev.id!=0X5310)		//ä¹Ÿä¸æ˜¯NT35310,å°è¯•çœ‹çœ‹æ˜¯ä¸æ˜¯NT35510
 2706              		.loc 1 457 5 is_stmt 1 view .LVU786
 457:Core/Src/fsmc.c ****     if(lcddev.id!=0X5310)		//ä¹Ÿä¸æ˜¯NT35310,å°è¯•çœ‹çœ‹æ˜¯ä¸æ˜¯NT35510
ARM GAS  /tmp/ccE1vrH2.s 			page 98


 2707              		.loc 1 457 16 is_stmt 0 view .LVU787
 2708 00e4 FFF7FEFF 		bl	LCD_RD_DATA
 2709              	.LVL261:
 457:Core/Src/fsmc.c ****     if(lcddev.id!=0X5310)		//ä¹Ÿä¸æ˜¯NT35310,å°è¯•çœ‹çœ‹æ˜¯ä¸æ˜¯NT35510
 2710              		.loc 1 457 14 view .LVU788
 2711 00e8 A388     		ldrh	r3, [r4, #4]
 2712 00ea 1843     		orrs	r0, r0, r3
 2713 00ec 80B2     		uxth	r0, r0
 2714 00ee A080     		strh	r0, [r4, #4]	@ movhi
 458:Core/Src/fsmc.c ****     {
 2715              		.loc 1 458 5 is_stmt 1 view .LVU789
 458:Core/Src/fsmc.c ****     {
 2716              		.loc 1 458 7 is_stmt 0 view .LVU790
 2717 00f0 45F21033 		movw	r3, #21264
 2718 00f4 9842     		cmp	r0, r3
 2719 00f6 A0D0     		beq	.L161
 460:Core/Src/fsmc.c ****       lcddev.id=LCD_RD_DATA();		//è¯»å›0X00
 2720              		.loc 1 460 7 is_stmt 1 view .LVU791
 2721 00f8 4FF45A40 		mov	r0, #55808
 2722 00fc FFF7FEFF 		bl	LCD_WR_REG
 2723              	.LVL262:
 461:Core/Src/fsmc.c ****       LCD_WR_REG(0XDB00);
 2724              		.loc 1 461 7 view .LVU792
 461:Core/Src/fsmc.c ****       LCD_WR_REG(0XDB00);
 2725              		.loc 1 461 17 is_stmt 0 view .LVU793
 2726 0100 FFF7FEFF 		bl	LCD_RD_DATA
 2727              	.LVL263:
 461:Core/Src/fsmc.c ****       LCD_WR_REG(0XDB00);
 2728              		.loc 1 461 16 view .LVU794
 2729 0104 A080     		strh	r0, [r4, #4]	@ movhi
 462:Core/Src/fsmc.c ****       lcddev.id=LCD_RD_DATA();		//è¯»å›0X80
 2730              		.loc 1 462 7 is_stmt 1 view .LVU795
 2731 0106 4FF45B40 		mov	r0, #56064
 2732 010a FFF7FEFF 		bl	LCD_WR_REG
 2733              	.LVL264:
 463:Core/Src/fsmc.c ****       lcddev.id<<=8;
 2734              		.loc 1 463 7 view .LVU796
 463:Core/Src/fsmc.c ****       lcddev.id<<=8;
 2735              		.loc 1 463 17 is_stmt 0 view .LVU797
 2736 010e FFF7FEFF 		bl	LCD_RD_DATA
 2737              	.LVL265:
 463:Core/Src/fsmc.c ****       lcddev.id<<=8;
 2738              		.loc 1 463 16 view .LVU798
 2739 0112 A080     		strh	r0, [r4, #4]	@ movhi
 464:Core/Src/fsmc.c ****       LCD_WR_REG(0XDC00);
 2740              		.loc 1 464 7 is_stmt 1 view .LVU799
 464:Core/Src/fsmc.c ****       LCD_WR_REG(0XDC00);
 2741              		.loc 1 464 16 is_stmt 0 view .LVU800
 2742 0114 0002     		lsls	r0, r0, #8
 2743 0116 A080     		strh	r0, [r4, #4]	@ movhi
 465:Core/Src/fsmc.c ****       lcddev.id|=LCD_RD_DATA();		//è¯»å›0X00
 2744              		.loc 1 465 7 is_stmt 1 view .LVU801
 2745 0118 4FF45C40 		mov	r0, #56320
 2746 011c FFF7FEFF 		bl	LCD_WR_REG
 2747              	.LVL266:
 466:Core/Src/fsmc.c ****       if(lcddev.id==0x8000)lcddev.id=0x5510;//NT35510è¯»å›çš„ID??8000H,ä¸ºæ–¹ä¾¿åŒº??,æˆ‘ä»¬å¼ºåˆ¶
 2748              		.loc 1 466 7 view .LVU802
ARM GAS  /tmp/ccE1vrH2.s 			page 99


 466:Core/Src/fsmc.c ****       if(lcddev.id==0x8000)lcddev.id=0x5510;//NT35510è¯»å›çš„ID??8000H,ä¸ºæ–¹ä¾¿åŒº??,æˆ‘ä»¬å¼ºåˆ¶
 2749              		.loc 1 466 18 is_stmt 0 view .LVU803
 2750 0120 FFF7FEFF 		bl	LCD_RD_DATA
 2751              	.LVL267:
 466:Core/Src/fsmc.c ****       if(lcddev.id==0x8000)lcddev.id=0x5510;//NT35510è¯»å›çš„ID??8000H,ä¸ºæ–¹ä¾¿åŒº??,æˆ‘ä»¬å¼ºåˆ¶
 2752              		.loc 1 466 16 view .LVU804
 2753 0124 A388     		ldrh	r3, [r4, #4]
 2754 0126 1843     		orrs	r0, r0, r3
 2755 0128 80B2     		uxth	r0, r0
 2756 012a A080     		strh	r0, [r4, #4]	@ movhi
 467:Core/Src/fsmc.c ****       if(lcddev.id!=0X5510)			//ä¹Ÿä¸æ˜¯NT5510,å°è¯•çœ‹çœ‹æ˜¯ä¸æ˜¯SSD1963
 2757              		.loc 1 467 7 is_stmt 1 view .LVU805
 467:Core/Src/fsmc.c ****       if(lcddev.id!=0X5510)			//ä¹Ÿä¸æ˜¯NT5510,å°è¯•çœ‹çœ‹æ˜¯ä¸æ˜¯SSD1963
 2758              		.loc 1 467 9 is_stmt 0 view .LVU806
 2759 012c B0F5004F 		cmp	r0, #32768
 2760 0130 21D0     		beq	.L175
 2761              	.L162:
 468:Core/Src/fsmc.c ****       {
 2762              		.loc 1 468 7 is_stmt 1 view .LVU807
 468:Core/Src/fsmc.c ****       {
 2763              		.loc 1 468 16 is_stmt 0 view .LVU808
 2764 0132 134B     		ldr	r3, .L176
 2765 0134 9A88     		ldrh	r2, [r3, #4]
 468:Core/Src/fsmc.c ****       {
 2766              		.loc 1 468 9 view .LVU809
 2767 0136 45F21053 		movw	r3, #21776
 2768 013a 9A42     		cmp	r2, r3
 2769 013c 3FF47DAF 		beq	.L161
 470:Core/Src/fsmc.c ****         lcddev.id=LCD_RD_DATA();
 2770              		.loc 1 470 9 is_stmt 1 view .LVU810
 2771 0140 A120     		movs	r0, #161
 2772 0142 FFF7FEFF 		bl	LCD_WR_REG
 2773              	.LVL268:
 471:Core/Src/fsmc.c ****         lcddev.id=LCD_RD_DATA();	//è¯»å›0X57
 2774              		.loc 1 471 9 view .LVU811
 471:Core/Src/fsmc.c ****         lcddev.id=LCD_RD_DATA();	//è¯»å›0X57
 2775              		.loc 1 471 19 is_stmt 0 view .LVU812
 2776 0146 FFF7FEFF 		bl	LCD_RD_DATA
 2777              	.LVL269:
 471:Core/Src/fsmc.c ****         lcddev.id=LCD_RD_DATA();	//è¯»å›0X57
 2778              		.loc 1 471 18 view .LVU813
 2779 014a 0D4C     		ldr	r4, .L176
 2780 014c A080     		strh	r0, [r4, #4]	@ movhi
 472:Core/Src/fsmc.c ****         lcddev.id<<=8;
 2781              		.loc 1 472 9 is_stmt 1 view .LVU814
 472:Core/Src/fsmc.c ****         lcddev.id<<=8;
 2782              		.loc 1 472 19 is_stmt 0 view .LVU815
 2783 014e FFF7FEFF 		bl	LCD_RD_DATA
 2784              	.LVL270:
 472:Core/Src/fsmc.c ****         lcddev.id<<=8;
 2785              		.loc 1 472 18 view .LVU816
 2786 0152 A080     		strh	r0, [r4, #4]	@ movhi
 473:Core/Src/fsmc.c ****         lcddev.id|=LCD_RD_DATA();	//è¯»å›0X61
 2787              		.loc 1 473 9 is_stmt 1 view .LVU817
 473:Core/Src/fsmc.c ****         lcddev.id|=LCD_RD_DATA();	//è¯»å›0X61
 2788              		.loc 1 473 18 is_stmt 0 view .LVU818
 2789 0154 0002     		lsls	r0, r0, #8
ARM GAS  /tmp/ccE1vrH2.s 			page 100


 2790 0156 A080     		strh	r0, [r4, #4]	@ movhi
 474:Core/Src/fsmc.c ****         if(lcddev.id==0X5761)lcddev.id=0X1963;//SSD1963è¯»å›çš„ID??5761H,ä¸ºæ–¹ä¾¿åŒº??,æˆ‘ä»¬å¼ºå
 2791              		.loc 1 474 9 is_stmt 1 view .LVU819
 474:Core/Src/fsmc.c ****         if(lcddev.id==0X5761)lcddev.id=0X1963;//SSD1963è¯»å›çš„ID??5761H,ä¸ºæ–¹ä¾¿åŒº??,æˆ‘ä»¬å¼ºå
 2792              		.loc 1 474 20 is_stmt 0 view .LVU820
 2793 0158 FFF7FEFF 		bl	LCD_RD_DATA
 2794              	.LVL271:
 474:Core/Src/fsmc.c ****         if(lcddev.id==0X5761)lcddev.id=0X1963;//SSD1963è¯»å›çš„ID??5761H,ä¸ºæ–¹ä¾¿åŒº??,æˆ‘ä»¬å¼ºå
 2795              		.loc 1 474 18 view .LVU821
 2796 015c A388     		ldrh	r3, [r4, #4]
 2797 015e 1843     		orrs	r0, r0, r3
 2798 0160 80B2     		uxth	r0, r0
 2799 0162 A080     		strh	r0, [r4, #4]	@ movhi
 475:Core/Src/fsmc.c ****       }
 2800              		.loc 1 475 9 is_stmt 1 view .LVU822
 475:Core/Src/fsmc.c ****       }
 2801              		.loc 1 475 11 is_stmt 0 view .LVU823
 2802 0164 45F26173 		movw	r3, #22369
 2803 0168 9842     		cmp	r0, r3
 2804 016a 7FF466AF 		bne	.L161
 475:Core/Src/fsmc.c ****       }
 2805              		.loc 1 475 30 is_stmt 1 discriminator 1 view .LVU824
 475:Core/Src/fsmc.c ****       }
 2806              		.loc 1 475 39 is_stmt 0 discriminator 1 view .LVU825
 2807 016e 41F66312 		movw	r2, #6499
 2808 0172 A280     		strh	r2, [r4, #4]	@ movhi
 2809 0174 61E7     		b	.L161
 2810              	.L175:
 467:Core/Src/fsmc.c ****       if(lcddev.id!=0X5510)			//ä¹Ÿä¸æ˜¯NT5510,å°è¯•çœ‹çœ‹æ˜¯ä¸æ˜¯SSD1963
 2811              		.loc 1 467 28 is_stmt 1 discriminator 1 view .LVU826
 467:Core/Src/fsmc.c ****       if(lcddev.id!=0X5510)			//ä¹Ÿä¸æ˜¯NT5510,å°è¯•çœ‹çœ‹æ˜¯ä¸æ˜¯SSD1963
 2812              		.loc 1 467 37 is_stmt 0 discriminator 1 view .LVU827
 2813 0176 45F21052 		movw	r2, #21776
 2814 017a A280     		strh	r2, [r4, #4]	@ movhi
 2815 017c D9E7     		b	.L162
 2816              	.L177:
 2817 017e 00BF     		.align	2
 2818              	.L176:
 2819 0180 00000000 		.word	.LANCHOR2
 2820 0184 000100A0 		.word	-1610612480
 2821 0188 00040240 		.word	1073873920
 2822              	.L171:
 482:Core/Src/fsmc.c ****     LCD_WR_DATA(0x00);
 2823              		.loc 1 482 5 is_stmt 1 view .LVU828
 2824 018c CF20     		movs	r0, #207
 2825 018e FFF7FEFF 		bl	LCD_WR_REG
 2826              	.LVL272:
 483:Core/Src/fsmc.c ****     LCD_WR_DATA(0xC1);
 2827              		.loc 1 483 5 view .LVU829
 2828 0192 0020     		movs	r0, #0
 2829 0194 FFF7FEFF 		bl	LCD_WR_DATA
 2830              	.LVL273:
 484:Core/Src/fsmc.c ****     LCD_WR_DATA(0X30);
 2831              		.loc 1 484 5 view .LVU830
 2832 0198 C120     		movs	r0, #193
 2833 019a FFF7FEFF 		bl	LCD_WR_DATA
 2834              	.LVL274:
ARM GAS  /tmp/ccE1vrH2.s 			page 101


 485:Core/Src/fsmc.c ****     LCD_WR_REG(0xED);
 2835              		.loc 1 485 5 view .LVU831
 2836 019e 3020     		movs	r0, #48
 2837 01a0 FFF7FEFF 		bl	LCD_WR_DATA
 2838              	.LVL275:
 486:Core/Src/fsmc.c ****     LCD_WR_DATA(0x64);
 2839              		.loc 1 486 5 view .LVU832
 2840 01a4 ED20     		movs	r0, #237
 2841 01a6 FFF7FEFF 		bl	LCD_WR_REG
 2842              	.LVL276:
 487:Core/Src/fsmc.c ****     LCD_WR_DATA(0x03);
 2843              		.loc 1 487 5 view .LVU833
 2844 01aa 6420     		movs	r0, #100
 2845 01ac FFF7FEFF 		bl	LCD_WR_DATA
 2846              	.LVL277:
 488:Core/Src/fsmc.c ****     LCD_WR_DATA(0X12);
 2847              		.loc 1 488 5 view .LVU834
 2848 01b0 0320     		movs	r0, #3
 2849 01b2 FFF7FEFF 		bl	LCD_WR_DATA
 2850              	.LVL278:
 489:Core/Src/fsmc.c ****     LCD_WR_DATA(0X81);
 2851              		.loc 1 489 5 view .LVU835
 2852 01b6 1220     		movs	r0, #18
 2853 01b8 FFF7FEFF 		bl	LCD_WR_DATA
 2854              	.LVL279:
 490:Core/Src/fsmc.c ****     LCD_WR_REG(0xE8);
 2855              		.loc 1 490 5 view .LVU836
 2856 01bc 8120     		movs	r0, #129
 2857 01be FFF7FEFF 		bl	LCD_WR_DATA
 2858              	.LVL280:
 491:Core/Src/fsmc.c ****     LCD_WR_DATA(0x85);
 2859              		.loc 1 491 5 view .LVU837
 2860 01c2 E820     		movs	r0, #232
 2861 01c4 FFF7FEFF 		bl	LCD_WR_REG
 2862              	.LVL281:
 492:Core/Src/fsmc.c ****     LCD_WR_DATA(0x10);
 2863              		.loc 1 492 5 view .LVU838
 2864 01c8 8520     		movs	r0, #133
 2865 01ca FFF7FEFF 		bl	LCD_WR_DATA
 2866              	.LVL282:
 493:Core/Src/fsmc.c ****     LCD_WR_DATA(0x7A);
 2867              		.loc 1 493 5 view .LVU839
 2868 01ce 1020     		movs	r0, #16
 2869 01d0 FFF7FEFF 		bl	LCD_WR_DATA
 2870              	.LVL283:
 494:Core/Src/fsmc.c ****     LCD_WR_REG(0xCB);
 2871              		.loc 1 494 5 view .LVU840
 2872 01d4 7A20     		movs	r0, #122
 2873 01d6 FFF7FEFF 		bl	LCD_WR_DATA
 2874              	.LVL284:
 495:Core/Src/fsmc.c ****     LCD_WR_DATA(0x39);
 2875              		.loc 1 495 5 view .LVU841
 2876 01da CB20     		movs	r0, #203
 2877 01dc FFF7FEFF 		bl	LCD_WR_REG
 2878              	.LVL285:
 496:Core/Src/fsmc.c ****     LCD_WR_DATA(0x2C);
 2879              		.loc 1 496 5 view .LVU842
ARM GAS  /tmp/ccE1vrH2.s 			page 102


 2880 01e0 3920     		movs	r0, #57
 2881 01e2 FFF7FEFF 		bl	LCD_WR_DATA
 2882              	.LVL286:
 497:Core/Src/fsmc.c ****     LCD_WR_DATA(0x00);
 2883              		.loc 1 497 5 view .LVU843
 2884 01e6 2C20     		movs	r0, #44
 2885 01e8 FFF7FEFF 		bl	LCD_WR_DATA
 2886              	.LVL287:
 498:Core/Src/fsmc.c ****     LCD_WR_DATA(0x34);
 2887              		.loc 1 498 5 view .LVU844
 2888 01ec 0020     		movs	r0, #0
 2889 01ee FFF7FEFF 		bl	LCD_WR_DATA
 2890              	.LVL288:
 499:Core/Src/fsmc.c ****     LCD_WR_DATA(0x02);
 2891              		.loc 1 499 5 view .LVU845
 2892 01f2 3420     		movs	r0, #52
 2893 01f4 FFF7FEFF 		bl	LCD_WR_DATA
 2894              	.LVL289:
 500:Core/Src/fsmc.c ****     LCD_WR_REG(0xF7);
 2895              		.loc 1 500 5 view .LVU846
 2896 01f8 0220     		movs	r0, #2
 2897 01fa FFF7FEFF 		bl	LCD_WR_DATA
 2898              	.LVL290:
 501:Core/Src/fsmc.c ****     LCD_WR_DATA(0x20);
 2899              		.loc 1 501 5 view .LVU847
 2900 01fe F720     		movs	r0, #247
 2901 0200 FFF7FEFF 		bl	LCD_WR_REG
 2902              	.LVL291:
 502:Core/Src/fsmc.c ****     LCD_WR_REG(0xEA);
 2903              		.loc 1 502 5 view .LVU848
 2904 0204 2020     		movs	r0, #32
 2905 0206 FFF7FEFF 		bl	LCD_WR_DATA
 2906              	.LVL292:
 503:Core/Src/fsmc.c ****     LCD_WR_DATA(0x00);
 2907              		.loc 1 503 5 view .LVU849
 2908 020a EA20     		movs	r0, #234
 2909 020c FFF7FEFF 		bl	LCD_WR_REG
 2910              	.LVL293:
 504:Core/Src/fsmc.c ****     LCD_WR_DATA(0x00);
 2911              		.loc 1 504 5 view .LVU850
 2912 0210 0020     		movs	r0, #0
 2913 0212 FFF7FEFF 		bl	LCD_WR_DATA
 2914              	.LVL294:
 505:Core/Src/fsmc.c ****     LCD_WR_REG(0xC0);    //Power control
 2915              		.loc 1 505 5 view .LVU851
 2916 0216 0020     		movs	r0, #0
 2917 0218 FFF7FEFF 		bl	LCD_WR_DATA
 2918              	.LVL295:
 506:Core/Src/fsmc.c ****     LCD_WR_DATA(0x1B);   //VRH[5:0]
 2919              		.loc 1 506 5 view .LVU852
 2920 021c C020     		movs	r0, #192
 2921 021e FFF7FEFF 		bl	LCD_WR_REG
 2922              	.LVL296:
 507:Core/Src/fsmc.c ****     LCD_WR_REG(0xC1);    //Power control
 2923              		.loc 1 507 5 view .LVU853
 2924 0222 1B20     		movs	r0, #27
 2925 0224 FFF7FEFF 		bl	LCD_WR_DATA
ARM GAS  /tmp/ccE1vrH2.s 			page 103


 2926              	.LVL297:
 508:Core/Src/fsmc.c ****     LCD_WR_DATA(0x01);   //SAP[2:0];BT[3:0]
 2927              		.loc 1 508 5 view .LVU854
 2928 0228 C120     		movs	r0, #193
 2929 022a FFF7FEFF 		bl	LCD_WR_REG
 2930              	.LVL298:
 509:Core/Src/fsmc.c ****     LCD_WR_REG(0xC5);    //VCM control
 2931              		.loc 1 509 5 view .LVU855
 2932 022e 0120     		movs	r0, #1
 2933 0230 FFF7FEFF 		bl	LCD_WR_DATA
 2934              	.LVL299:
 510:Core/Src/fsmc.c ****     LCD_WR_DATA(0x30); 	 //3F
 2935              		.loc 1 510 5 view .LVU856
 2936 0234 C520     		movs	r0, #197
 2937 0236 FFF7FEFF 		bl	LCD_WR_REG
 2938              	.LVL300:
 511:Core/Src/fsmc.c ****     LCD_WR_DATA(0x30); 	 //3C
 2939              		.loc 1 511 5 view .LVU857
 2940 023a 3020     		movs	r0, #48
 2941 023c FFF7FEFF 		bl	LCD_WR_DATA
 2942              	.LVL301:
 512:Core/Src/fsmc.c ****     LCD_WR_REG(0xC7);    //VCM control2
 2943              		.loc 1 512 5 view .LVU858
 2944 0240 3020     		movs	r0, #48
 2945 0242 FFF7FEFF 		bl	LCD_WR_DATA
 2946              	.LVL302:
 513:Core/Src/fsmc.c ****     LCD_WR_DATA(0XB7);
 2947              		.loc 1 513 5 view .LVU859
 2948 0246 C720     		movs	r0, #199
 2949 0248 FFF7FEFF 		bl	LCD_WR_REG
 2950              	.LVL303:
 514:Core/Src/fsmc.c ****     LCD_WR_REG(0x36);    // Memory Access Control
 2951              		.loc 1 514 5 view .LVU860
 2952 024c B720     		movs	r0, #183
 2953 024e FFF7FEFF 		bl	LCD_WR_DATA
 2954              	.LVL304:
 515:Core/Src/fsmc.c ****     LCD_WR_DATA(0x48);
 2955              		.loc 1 515 5 view .LVU861
 2956 0252 3620     		movs	r0, #54
 2957 0254 FFF7FEFF 		bl	LCD_WR_REG
 2958              	.LVL305:
 516:Core/Src/fsmc.c ****     LCD_WR_REG(0x3A);
 2959              		.loc 1 516 5 view .LVU862
 2960 0258 4820     		movs	r0, #72
 2961 025a FFF7FEFF 		bl	LCD_WR_DATA
 2962              	.LVL306:
 517:Core/Src/fsmc.c ****     LCD_WR_DATA(0x55);
 2963              		.loc 1 517 5 view .LVU863
 2964 025e 3A20     		movs	r0, #58
 2965 0260 FFF7FEFF 		bl	LCD_WR_REG
 2966              	.LVL307:
 518:Core/Src/fsmc.c ****     LCD_WR_REG(0xB1);
 2967              		.loc 1 518 5 view .LVU864
 2968 0264 5520     		movs	r0, #85
 2969 0266 FFF7FEFF 		bl	LCD_WR_DATA
 2970              	.LVL308:
 519:Core/Src/fsmc.c ****     LCD_WR_DATA(0x00);
ARM GAS  /tmp/ccE1vrH2.s 			page 104


 2971              		.loc 1 519 5 view .LVU865
 2972 026a B120     		movs	r0, #177
 2973 026c FFF7FEFF 		bl	LCD_WR_REG
 2974              	.LVL309:
 520:Core/Src/fsmc.c ****     LCD_WR_DATA(0x1A);
 2975              		.loc 1 520 5 view .LVU866
 2976 0270 0020     		movs	r0, #0
 2977 0272 FFF7FEFF 		bl	LCD_WR_DATA
 2978              	.LVL310:
 521:Core/Src/fsmc.c ****     LCD_WR_REG(0xB6);    // Display Function Control
 2979              		.loc 1 521 5 view .LVU867
 2980 0276 1A20     		movs	r0, #26
 2981 0278 FFF7FEFF 		bl	LCD_WR_DATA
 2982              	.LVL311:
 522:Core/Src/fsmc.c ****     LCD_WR_DATA(0x0A);
 2983              		.loc 1 522 5 view .LVU868
 2984 027c B620     		movs	r0, #182
 2985 027e FFF7FEFF 		bl	LCD_WR_REG
 2986              	.LVL312:
 523:Core/Src/fsmc.c ****     LCD_WR_DATA(0xA2);
 2987              		.loc 1 523 5 view .LVU869
 2988 0282 0A20     		movs	r0, #10
 2989 0284 FFF7FEFF 		bl	LCD_WR_DATA
 2990              	.LVL313:
 524:Core/Src/fsmc.c ****     LCD_WR_REG(0xF2);    // 3Gamma Function Disable
 2991              		.loc 1 524 5 view .LVU870
 2992 0288 A220     		movs	r0, #162
 2993 028a FFF7FEFF 		bl	LCD_WR_DATA
 2994              	.LVL314:
 525:Core/Src/fsmc.c ****     LCD_WR_DATA(0x00);
 2995              		.loc 1 525 5 view .LVU871
 2996 028e F220     		movs	r0, #242
 2997 0290 FFF7FEFF 		bl	LCD_WR_REG
 2998              	.LVL315:
 526:Core/Src/fsmc.c ****     LCD_WR_REG(0x26);    //Gamma curve selected
 2999              		.loc 1 526 5 view .LVU872
 3000 0294 0020     		movs	r0, #0
 3001 0296 FFF7FEFF 		bl	LCD_WR_DATA
 3002              	.LVL316:
 527:Core/Src/fsmc.c ****     LCD_WR_DATA(0x01);
 3003              		.loc 1 527 5 view .LVU873
 3004 029a 2620     		movs	r0, #38
 3005 029c FFF7FEFF 		bl	LCD_WR_REG
 3006              	.LVL317:
 528:Core/Src/fsmc.c ****     LCD_WR_REG(0xE0);    //Set Gamma
 3007              		.loc 1 528 5 view .LVU874
 3008 02a0 0120     		movs	r0, #1
 3009 02a2 FFF7FEFF 		bl	LCD_WR_DATA
 3010              	.LVL318:
 529:Core/Src/fsmc.c ****     LCD_WR_DATA(0x0F);
 3011              		.loc 1 529 5 view .LVU875
 3012 02a6 E020     		movs	r0, #224
 3013 02a8 FFF7FEFF 		bl	LCD_WR_REG
 3014              	.LVL319:
 530:Core/Src/fsmc.c ****     LCD_WR_DATA(0x2A);
 3015              		.loc 1 530 5 view .LVU876
 3016 02ac 0F20     		movs	r0, #15
ARM GAS  /tmp/ccE1vrH2.s 			page 105


 3017 02ae FFF7FEFF 		bl	LCD_WR_DATA
 3018              	.LVL320:
 531:Core/Src/fsmc.c ****     LCD_WR_DATA(0x28);
 3019              		.loc 1 531 5 view .LVU877
 3020 02b2 2A20     		movs	r0, #42
 3021 02b4 FFF7FEFF 		bl	LCD_WR_DATA
 3022              	.LVL321:
 532:Core/Src/fsmc.c ****     LCD_WR_DATA(0x08);
 3023              		.loc 1 532 5 view .LVU878
 3024 02b8 2820     		movs	r0, #40
 3025 02ba FFF7FEFF 		bl	LCD_WR_DATA
 3026              	.LVL322:
 533:Core/Src/fsmc.c ****     LCD_WR_DATA(0x0E);
 3027              		.loc 1 533 5 view .LVU879
 3028 02be 0820     		movs	r0, #8
 3029 02c0 FFF7FEFF 		bl	LCD_WR_DATA
 3030              	.LVL323:
 534:Core/Src/fsmc.c ****     LCD_WR_DATA(0x08);
 3031              		.loc 1 534 5 view .LVU880
 3032 02c4 0E20     		movs	r0, #14
 3033 02c6 FFF7FEFF 		bl	LCD_WR_DATA
 3034              	.LVL324:
 535:Core/Src/fsmc.c ****     LCD_WR_DATA(0x54);
 3035              		.loc 1 535 5 view .LVU881
 3036 02ca 0820     		movs	r0, #8
 3037 02cc FFF7FEFF 		bl	LCD_WR_DATA
 3038              	.LVL325:
 536:Core/Src/fsmc.c ****     LCD_WR_DATA(0XA9);
 3039              		.loc 1 536 5 view .LVU882
 3040 02d0 5420     		movs	r0, #84
 3041 02d2 FFF7FEFF 		bl	LCD_WR_DATA
 3042              	.LVL326:
 537:Core/Src/fsmc.c ****     LCD_WR_DATA(0x43);
 3043              		.loc 1 537 5 view .LVU883
 3044 02d6 A920     		movs	r0, #169
 3045 02d8 FFF7FEFF 		bl	LCD_WR_DATA
 3046              	.LVL327:
 538:Core/Src/fsmc.c ****     LCD_WR_DATA(0x0A);
 3047              		.loc 1 538 5 view .LVU884
 3048 02dc 4320     		movs	r0, #67
 3049 02de FFF7FEFF 		bl	LCD_WR_DATA
 3050              	.LVL328:
 539:Core/Src/fsmc.c ****     LCD_WR_DATA(0x0F);
 3051              		.loc 1 539 5 view .LVU885
 3052 02e2 0A20     		movs	r0, #10
 3053 02e4 FFF7FEFF 		bl	LCD_WR_DATA
 3054              	.LVL329:
 540:Core/Src/fsmc.c ****     LCD_WR_DATA(0x00);
 3055              		.loc 1 540 5 view .LVU886
 3056 02e8 0F20     		movs	r0, #15
 3057 02ea FFF7FEFF 		bl	LCD_WR_DATA
 3058              	.LVL330:
 541:Core/Src/fsmc.c ****     LCD_WR_DATA(0x00);
 3059              		.loc 1 541 5 view .LVU887
 3060 02ee 0020     		movs	r0, #0
 3061 02f0 FFF7FEFF 		bl	LCD_WR_DATA
 3062              	.LVL331:
ARM GAS  /tmp/ccE1vrH2.s 			page 106


 542:Core/Src/fsmc.c ****     LCD_WR_DATA(0x00);
 3063              		.loc 1 542 5 view .LVU888
 3064 02f4 0020     		movs	r0, #0
 3065 02f6 FFF7FEFF 		bl	LCD_WR_DATA
 3066              	.LVL332:
 543:Core/Src/fsmc.c ****     LCD_WR_DATA(0x00);
 3067              		.loc 1 543 5 view .LVU889
 3068 02fa 0020     		movs	r0, #0
 3069 02fc FFF7FEFF 		bl	LCD_WR_DATA
 3070              	.LVL333:
 544:Core/Src/fsmc.c ****     LCD_WR_REG(0XE1);    //Set Gamma
 3071              		.loc 1 544 5 view .LVU890
 3072 0300 0020     		movs	r0, #0
 3073 0302 FFF7FEFF 		bl	LCD_WR_DATA
 3074              	.LVL334:
 545:Core/Src/fsmc.c ****     LCD_WR_DATA(0x00);
 3075              		.loc 1 545 5 view .LVU891
 3076 0306 E120     		movs	r0, #225
 3077 0308 FFF7FEFF 		bl	LCD_WR_REG
 3078              	.LVL335:
 546:Core/Src/fsmc.c ****     LCD_WR_DATA(0x15);
 3079              		.loc 1 546 5 view .LVU892
 3080 030c 0020     		movs	r0, #0
 3081 030e FFF7FEFF 		bl	LCD_WR_DATA
 3082              	.LVL336:
 547:Core/Src/fsmc.c ****     LCD_WR_DATA(0x17);
 3083              		.loc 1 547 5 view .LVU893
 3084 0312 1520     		movs	r0, #21
 3085 0314 FFF7FEFF 		bl	LCD_WR_DATA
 3086              	.LVL337:
 548:Core/Src/fsmc.c ****     LCD_WR_DATA(0x07);
 3087              		.loc 1 548 5 view .LVU894
 3088 0318 1720     		movs	r0, #23
 3089 031a FFF7FEFF 		bl	LCD_WR_DATA
 3090              	.LVL338:
 549:Core/Src/fsmc.c ****     LCD_WR_DATA(0x11);
 3091              		.loc 1 549 5 view .LVU895
 3092 031e 0720     		movs	r0, #7
 3093 0320 FFF7FEFF 		bl	LCD_WR_DATA
 3094              	.LVL339:
 550:Core/Src/fsmc.c ****     LCD_WR_DATA(0x06);
 3095              		.loc 1 550 5 view .LVU896
 3096 0324 1120     		movs	r0, #17
 3097 0326 FFF7FEFF 		bl	LCD_WR_DATA
 3098              	.LVL340:
 551:Core/Src/fsmc.c ****     LCD_WR_DATA(0x2B);
 3099              		.loc 1 551 5 view .LVU897
 3100 032a 0620     		movs	r0, #6
 3101 032c FFF7FEFF 		bl	LCD_WR_DATA
 3102              	.LVL341:
 552:Core/Src/fsmc.c ****     LCD_WR_DATA(0x56);
 3103              		.loc 1 552 5 view .LVU898
 3104 0330 2B20     		movs	r0, #43
 3105 0332 FFF7FEFF 		bl	LCD_WR_DATA
 3106              	.LVL342:
 553:Core/Src/fsmc.c ****     LCD_WR_DATA(0x3C);
 3107              		.loc 1 553 5 view .LVU899
ARM GAS  /tmp/ccE1vrH2.s 			page 107


 3108 0336 5620     		movs	r0, #86
 3109 0338 FFF7FEFF 		bl	LCD_WR_DATA
 3110              	.LVL343:
 554:Core/Src/fsmc.c ****     LCD_WR_DATA(0x05);
 3111              		.loc 1 554 5 view .LVU900
 3112 033c 3C20     		movs	r0, #60
 3113 033e FFF7FEFF 		bl	LCD_WR_DATA
 3114              	.LVL344:
 555:Core/Src/fsmc.c ****     LCD_WR_DATA(0x10);
 3115              		.loc 1 555 5 view .LVU901
 3116 0342 0520     		movs	r0, #5
 3117 0344 FFF7FEFF 		bl	LCD_WR_DATA
 3118              	.LVL345:
 556:Core/Src/fsmc.c ****     LCD_WR_DATA(0x0F);
 3119              		.loc 1 556 5 view .LVU902
 3120 0348 1020     		movs	r0, #16
 3121 034a FFF7FEFF 		bl	LCD_WR_DATA
 3122              	.LVL346:
 557:Core/Src/fsmc.c ****     LCD_WR_DATA(0x3F);
 3123              		.loc 1 557 5 view .LVU903
 3124 034e 0F20     		movs	r0, #15
 3125 0350 FFF7FEFF 		bl	LCD_WR_DATA
 3126              	.LVL347:
 558:Core/Src/fsmc.c ****     LCD_WR_DATA(0x3F);
 3127              		.loc 1 558 5 view .LVU904
 3128 0354 3F20     		movs	r0, #63
 3129 0356 FFF7FEFF 		bl	LCD_WR_DATA
 3130              	.LVL348:
 559:Core/Src/fsmc.c ****     LCD_WR_DATA(0x0F);
 3131              		.loc 1 559 5 view .LVU905
 3132 035a 3F20     		movs	r0, #63
 3133 035c FFF7FEFF 		bl	LCD_WR_DATA
 3134              	.LVL349:
 560:Core/Src/fsmc.c ****     LCD_WR_REG(0x2B);
 3135              		.loc 1 560 5 view .LVU906
 3136 0360 0F20     		movs	r0, #15
 3137 0362 FFF7FEFF 		bl	LCD_WR_DATA
 3138              	.LVL350:
 561:Core/Src/fsmc.c ****     LCD_WR_DATA(0x00);
 3139              		.loc 1 561 5 view .LVU907
 3140 0366 2B20     		movs	r0, #43
 3141 0368 FFF7FEFF 		bl	LCD_WR_REG
 3142              	.LVL351:
 562:Core/Src/fsmc.c ****     LCD_WR_DATA(0x00);
 3143              		.loc 1 562 5 view .LVU908
 3144 036c 0020     		movs	r0, #0
 3145 036e FFF7FEFF 		bl	LCD_WR_DATA
 3146              	.LVL352:
 563:Core/Src/fsmc.c ****     LCD_WR_DATA(0x01);
 3147              		.loc 1 563 5 view .LVU909
 3148 0372 0020     		movs	r0, #0
 3149 0374 FFF7FEFF 		bl	LCD_WR_DATA
 3150              	.LVL353:
 564:Core/Src/fsmc.c ****     LCD_WR_DATA(0x3f);
 3151              		.loc 1 564 5 view .LVU910
 3152 0378 0120     		movs	r0, #1
 3153 037a FFF7FEFF 		bl	LCD_WR_DATA
ARM GAS  /tmp/ccE1vrH2.s 			page 108


 3154              	.LVL354:
 565:Core/Src/fsmc.c ****     LCD_WR_REG(0x2A);
 3155              		.loc 1 565 5 view .LVU911
 3156 037e 3F20     		movs	r0, #63
 3157 0380 FFF7FEFF 		bl	LCD_WR_DATA
 3158              	.LVL355:
 566:Core/Src/fsmc.c ****     LCD_WR_DATA(0x00);
 3159              		.loc 1 566 5 view .LVU912
 3160 0384 2A20     		movs	r0, #42
 3161 0386 FFF7FEFF 		bl	LCD_WR_REG
 3162              	.LVL356:
 567:Core/Src/fsmc.c ****     LCD_WR_DATA(0x00);
 3163              		.loc 1 567 5 view .LVU913
 3164 038a 0020     		movs	r0, #0
 3165 038c FFF7FEFF 		bl	LCD_WR_DATA
 3166              	.LVL357:
 568:Core/Src/fsmc.c ****     LCD_WR_DATA(0x00);
 3167              		.loc 1 568 5 view .LVU914
 3168 0390 0020     		movs	r0, #0
 3169 0392 FFF7FEFF 		bl	LCD_WR_DATA
 3170              	.LVL358:
 569:Core/Src/fsmc.c ****     LCD_WR_DATA(0xef);
 3171              		.loc 1 569 5 view .LVU915
 3172 0396 0020     		movs	r0, #0
 3173 0398 FFF7FEFF 		bl	LCD_WR_DATA
 3174              	.LVL359:
 570:Core/Src/fsmc.c ****     LCD_WR_REG(0x11); //Exit Sleep
 3175              		.loc 1 570 5 view .LVU916
 3176 039c EF20     		movs	r0, #239
 3177 039e FFF7FEFF 		bl	LCD_WR_DATA
 3178              	.LVL360:
 571:Core/Src/fsmc.c ****     HAL_Delay(120);
 3179              		.loc 1 571 5 view .LVU917
 3180 03a2 1120     		movs	r0, #17
 3181 03a4 FFF7FEFF 		bl	LCD_WR_REG
 3182              	.LVL361:
 572:Core/Src/fsmc.c ****     LCD_WR_REG(0x29); //display on
 3183              		.loc 1 572 5 view .LVU918
 3184 03a8 7820     		movs	r0, #120
 3185 03aa FFF7FEFF 		bl	HAL_Delay
 3186              	.LVL362:
 573:Core/Src/fsmc.c ****   }else if(lcddev.id==0x5310)
 3187              		.loc 1 573 5 view .LVU919
 3188 03ae 2920     		movs	r0, #41
 3189 03b0 FFF7FEFF 		bl	LCD_WR_REG
 3190              	.LVL363:
 3191 03b4 57E6     		b	.L164
 3192              	.L172:
 576:Core/Src/fsmc.c ****     LCD_WR_DATA(0x01);
 3193              		.loc 1 576 5 view .LVU920
 3194 03b6 ED20     		movs	r0, #237
 3195 03b8 FFF7FEFF 		bl	LCD_WR_REG
 3196              	.LVL364:
 577:Core/Src/fsmc.c ****     LCD_WR_DATA(0xFE);
 3197              		.loc 1 577 5 view .LVU921
 3198 03bc 0120     		movs	r0, #1
 3199 03be FFF7FEFF 		bl	LCD_WR_DATA
ARM GAS  /tmp/ccE1vrH2.s 			page 109


 3200              	.LVL365:
 578:Core/Src/fsmc.c **** 
 3201              		.loc 1 578 5 view .LVU922
 3202 03c2 FE20     		movs	r0, #254
 3203 03c4 FFF7FEFF 		bl	LCD_WR_DATA
 3204              	.LVL366:
 580:Core/Src/fsmc.c ****     LCD_WR_DATA(0xDE);
 3205              		.loc 1 580 5 view .LVU923
 3206 03c8 EE20     		movs	r0, #238
 3207 03ca FFF7FEFF 		bl	LCD_WR_REG
 3208              	.LVL367:
 581:Core/Src/fsmc.c ****     LCD_WR_DATA(0x21);
 3209              		.loc 1 581 5 view .LVU924
 3210 03ce DE20     		movs	r0, #222
 3211 03d0 FFF7FEFF 		bl	LCD_WR_DATA
 3212              	.LVL368:
 582:Core/Src/fsmc.c **** 
 3213              		.loc 1 582 5 view .LVU925
 3214 03d4 2120     		movs	r0, #33
 3215 03d6 FFF7FEFF 		bl	LCD_WR_DATA
 3216              	.LVL369:
 584:Core/Src/fsmc.c ****     LCD_WR_DATA(0x01);
 3217              		.loc 1 584 5 view .LVU926
 3218 03da F120     		movs	r0, #241
 3219 03dc FFF7FEFF 		bl	LCD_WR_REG
 3220              	.LVL370:
 585:Core/Src/fsmc.c ****     LCD_WR_REG(0xDF);
 3221              		.loc 1 585 5 view .LVU927
 3222 03e0 0120     		movs	r0, #1
 3223 03e2 FFF7FEFF 		bl	LCD_WR_DATA
 3224              	.LVL371:
 586:Core/Src/fsmc.c ****     LCD_WR_DATA(0x10);
 3225              		.loc 1 586 5 view .LVU928
 3226 03e6 DF20     		movs	r0, #223
 3227 03e8 FFF7FEFF 		bl	LCD_WR_REG
 3228              	.LVL372:
 587:Core/Src/fsmc.c **** 
 3229              		.loc 1 587 5 view .LVU929
 3230 03ec 1020     		movs	r0, #16
 3231 03ee FFF7FEFF 		bl	LCD_WR_DATA
 3232              	.LVL373:
 590:Core/Src/fsmc.c ****     LCD_WR_DATA(0x8F);	  //5f
 3233              		.loc 1 590 5 view .LVU930
 3234 03f2 C420     		movs	r0, #196
 3235 03f4 FFF7FEFF 		bl	LCD_WR_REG
 3236              	.LVL374:
 591:Core/Src/fsmc.c **** 
 3237              		.loc 1 591 5 view .LVU931
 3238 03f8 8F20     		movs	r0, #143
 3239 03fa FFF7FEFF 		bl	LCD_WR_DATA
 3240              	.LVL375:
 593:Core/Src/fsmc.c ****     LCD_WR_DATA(0x00);
 3241              		.loc 1 593 5 view .LVU932
 3242 03fe C620     		movs	r0, #198
 3243 0400 FFF7FEFF 		bl	LCD_WR_REG
 3244              	.LVL376:
 594:Core/Src/fsmc.c ****     LCD_WR_DATA(0xE2);
ARM GAS  /tmp/ccE1vrH2.s 			page 110


 3245              		.loc 1 594 5 view .LVU933
 3246 0404 0020     		movs	r0, #0
 3247 0406 FFF7FEFF 		bl	LCD_WR_DATA
 3248              	.LVL377:
 595:Core/Src/fsmc.c ****     LCD_WR_DATA(0xE2);
 3249              		.loc 1 595 5 view .LVU934
 3250 040a E220     		movs	r0, #226
 3251 040c FFF7FEFF 		bl	LCD_WR_DATA
 3252              	.LVL378:
 596:Core/Src/fsmc.c ****     LCD_WR_DATA(0xE2);
 3253              		.loc 1 596 5 view .LVU935
 3254 0410 E220     		movs	r0, #226
 3255 0412 FFF7FEFF 		bl	LCD_WR_DATA
 3256              	.LVL379:
 597:Core/Src/fsmc.c ****     LCD_WR_REG(0xBF);
 3257              		.loc 1 597 5 view .LVU936
 3258 0416 E220     		movs	r0, #226
 3259 0418 FFF7FEFF 		bl	LCD_WR_DATA
 3260              	.LVL380:
 598:Core/Src/fsmc.c ****     LCD_WR_DATA(0xAA);
 3261              		.loc 1 598 5 view .LVU937
 3262 041c BF20     		movs	r0, #191
 3263 041e FFF7FEFF 		bl	LCD_WR_REG
 3264              	.LVL381:
 599:Core/Src/fsmc.c **** 
 3265              		.loc 1 599 5 view .LVU938
 3266 0422 AA20     		movs	r0, #170
 3267 0424 FFF7FEFF 		bl	LCD_WR_DATA
 3268              	.LVL382:
 601:Core/Src/fsmc.c ****     LCD_WR_DATA(0x0D);
 3269              		.loc 1 601 5 view .LVU939
 3270 0428 B020     		movs	r0, #176
 3271 042a FFF7FEFF 		bl	LCD_WR_REG
 3272              	.LVL383:
 602:Core/Src/fsmc.c ****     LCD_WR_DATA(0x00);
 3273              		.loc 1 602 5 view .LVU940
 3274 042e 0D20     		movs	r0, #13
 3275 0430 FFF7FEFF 		bl	LCD_WR_DATA
 3276              	.LVL384:
 603:Core/Src/fsmc.c ****     LCD_WR_DATA(0x0D);
 3277              		.loc 1 603 5 view .LVU941
 3278 0434 0020     		movs	r0, #0
 3279 0436 FFF7FEFF 		bl	LCD_WR_DATA
 3280              	.LVL385:
 604:Core/Src/fsmc.c ****     LCD_WR_DATA(0x00);
 3281              		.loc 1 604 5 view .LVU942
 3282 043a 0D20     		movs	r0, #13
 3283 043c FFF7FEFF 		bl	LCD_WR_DATA
 3284              	.LVL386:
 605:Core/Src/fsmc.c ****     LCD_WR_DATA(0x11);
 3285              		.loc 1 605 5 view .LVU943
 3286 0440 0020     		movs	r0, #0
 3287 0442 FFF7FEFF 		bl	LCD_WR_DATA
 3288              	.LVL387:
 606:Core/Src/fsmc.c ****     LCD_WR_DATA(0x00);
 3289              		.loc 1 606 5 view .LVU944
 3290 0446 1120     		movs	r0, #17
ARM GAS  /tmp/ccE1vrH2.s 			page 111


 3291 0448 FFF7FEFF 		bl	LCD_WR_DATA
 3292              	.LVL388:
 607:Core/Src/fsmc.c ****     LCD_WR_DATA(0x19);
 3293              		.loc 1 607 5 view .LVU945
 3294 044c 0020     		movs	r0, #0
 3295 044e FFF7FEFF 		bl	LCD_WR_DATA
 3296              	.LVL389:
 608:Core/Src/fsmc.c ****     LCD_WR_DATA(0x00);
 3297              		.loc 1 608 5 view .LVU946
 3298 0452 1920     		movs	r0, #25
 3299 0454 FFF7FEFF 		bl	LCD_WR_DATA
 3300              	.LVL390:
 609:Core/Src/fsmc.c ****     LCD_WR_DATA(0x21);
 3301              		.loc 1 609 5 view .LVU947
 3302 0458 0020     		movs	r0, #0
 3303 045a FFF7FEFF 		bl	LCD_WR_DATA
 3304              	.LVL391:
 610:Core/Src/fsmc.c ****     LCD_WR_DATA(0x00);
 3305              		.loc 1 610 5 view .LVU948
 3306 045e 2120     		movs	r0, #33
 3307 0460 FFF7FEFF 		bl	LCD_WR_DATA
 3308              	.LVL392:
 611:Core/Src/fsmc.c ****     LCD_WR_DATA(0x2D);
 3309              		.loc 1 611 5 view .LVU949
 3310 0464 0020     		movs	r0, #0
 3311 0466 FFF7FEFF 		bl	LCD_WR_DATA
 3312              	.LVL393:
 612:Core/Src/fsmc.c ****     LCD_WR_DATA(0x00);
 3313              		.loc 1 612 5 view .LVU950
 3314 046a 2D20     		movs	r0, #45
 3315 046c FFF7FEFF 		bl	LCD_WR_DATA
 3316              	.LVL394:
 613:Core/Src/fsmc.c ****     LCD_WR_DATA(0x3D);
 3317              		.loc 1 613 5 view .LVU951
 3318 0470 0020     		movs	r0, #0
 3319 0472 FFF7FEFF 		bl	LCD_WR_DATA
 3320              	.LVL395:
 614:Core/Src/fsmc.c ****     LCD_WR_DATA(0x00);
 3321              		.loc 1 614 5 view .LVU952
 3322 0476 3D20     		movs	r0, #61
 3323 0478 FFF7FEFF 		bl	LCD_WR_DATA
 3324              	.LVL396:
 615:Core/Src/fsmc.c ****     LCD_WR_DATA(0x5D);
 3325              		.loc 1 615 5 view .LVU953
 3326 047c 0020     		movs	r0, #0
 3327 047e FFF7FEFF 		bl	LCD_WR_DATA
 3328              	.LVL397:
 616:Core/Src/fsmc.c ****     LCD_WR_DATA(0x00);
 3329              		.loc 1 616 5 view .LVU954
 3330 0482 5D20     		movs	r0, #93
 3331 0484 FFF7FEFF 		bl	LCD_WR_DATA
 3332              	.LVL398:
 617:Core/Src/fsmc.c ****     LCD_WR_DATA(0x5D);
 3333              		.loc 1 617 5 view .LVU955
 3334 0488 0020     		movs	r0, #0
 3335 048a FFF7FEFF 		bl	LCD_WR_DATA
 3336              	.LVL399:
ARM GAS  /tmp/ccE1vrH2.s 			page 112


 618:Core/Src/fsmc.c ****     LCD_WR_DATA(0x00);
 3337              		.loc 1 618 5 view .LVU956
 3338 048e 5D20     		movs	r0, #93
 3339 0490 FFF7FEFF 		bl	LCD_WR_DATA
 3340              	.LVL400:
 619:Core/Src/fsmc.c **** 
 3341              		.loc 1 619 5 view .LVU957
 3342 0494 0020     		movs	r0, #0
 3343 0496 FFF7FEFF 		bl	LCD_WR_DATA
 3344              	.LVL401:
 621:Core/Src/fsmc.c ****     LCD_WR_DATA(0x80);
 3345              		.loc 1 621 5 view .LVU958
 3346 049a B120     		movs	r0, #177
 3347 049c FFF7FEFF 		bl	LCD_WR_REG
 3348              	.LVL402:
 622:Core/Src/fsmc.c ****     LCD_WR_DATA(0x00);
 3349              		.loc 1 622 5 view .LVU959
 3350 04a0 8020     		movs	r0, #128
 3351 04a2 FFF7FEFF 		bl	LCD_WR_DATA
 3352              	.LVL403:
 623:Core/Src/fsmc.c ****     LCD_WR_DATA(0x8B);
 3353              		.loc 1 623 5 view .LVU960
 3354 04a6 0020     		movs	r0, #0
 3355 04a8 FFF7FEFF 		bl	LCD_WR_DATA
 3356              	.LVL404:
 624:Core/Src/fsmc.c ****     LCD_WR_DATA(0x00);
 3357              		.loc 1 624 5 view .LVU961
 3358 04ac 8B20     		movs	r0, #139
 3359 04ae FFF7FEFF 		bl	LCD_WR_DATA
 3360              	.LVL405:
 625:Core/Src/fsmc.c ****     LCD_WR_DATA(0x96);
 3361              		.loc 1 625 5 view .LVU962
 3362 04b2 0020     		movs	r0, #0
 3363 04b4 FFF7FEFF 		bl	LCD_WR_DATA
 3364              	.LVL406:
 626:Core/Src/fsmc.c ****     LCD_WR_DATA(0x00);
 3365              		.loc 1 626 5 view .LVU963
 3366 04b8 9620     		movs	r0, #150
 3367 04ba FFF7FEFF 		bl	LCD_WR_DATA
 3368              	.LVL407:
 627:Core/Src/fsmc.c **** 
 3369              		.loc 1 627 5 view .LVU964
 3370 04be 0020     		movs	r0, #0
 3371 04c0 FFF7FEFF 		bl	LCD_WR_DATA
 3372              	.LVL408:
 629:Core/Src/fsmc.c ****     LCD_WR_DATA(0x00);
 3373              		.loc 1 629 5 view .LVU965
 3374 04c4 B220     		movs	r0, #178
 3375 04c6 FFF7FEFF 		bl	LCD_WR_REG
 3376              	.LVL409:
 630:Core/Src/fsmc.c ****     LCD_WR_DATA(0x00);
 3377              		.loc 1 630 5 view .LVU966
 3378 04ca 0020     		movs	r0, #0
 3379 04cc FFF7FEFF 		bl	LCD_WR_DATA
 3380              	.LVL410:
 631:Core/Src/fsmc.c ****     LCD_WR_DATA(0x02);
 3381              		.loc 1 631 5 view .LVU967
ARM GAS  /tmp/ccE1vrH2.s 			page 113


 3382 04d0 0020     		movs	r0, #0
 3383 04d2 FFF7FEFF 		bl	LCD_WR_DATA
 3384              	.LVL411:
 632:Core/Src/fsmc.c ****     LCD_WR_DATA(0x00);
 3385              		.loc 1 632 5 view .LVU968
 3386 04d6 0220     		movs	r0, #2
 3387 04d8 FFF7FEFF 		bl	LCD_WR_DATA
 3388              	.LVL412:
 633:Core/Src/fsmc.c ****     LCD_WR_DATA(0x03);
 3389              		.loc 1 633 5 view .LVU969
 3390 04dc 0020     		movs	r0, #0
 3391 04de FFF7FEFF 		bl	LCD_WR_DATA
 3392              	.LVL413:
 634:Core/Src/fsmc.c ****     LCD_WR_DATA(0x00);
 3393              		.loc 1 634 5 view .LVU970
 3394 04e2 0320     		movs	r0, #3
 3395 04e4 FFF7FEFF 		bl	LCD_WR_DATA
 3396              	.LVL414:
 635:Core/Src/fsmc.c **** 
 3397              		.loc 1 635 5 view .LVU971
 3398 04e8 0020     		movs	r0, #0
 3399 04ea FFF7FEFF 		bl	LCD_WR_DATA
 3400              	.LVL415:
 637:Core/Src/fsmc.c ****     LCD_WR_DATA(0x00);
 3401              		.loc 1 637 5 view .LVU972
 3402 04ee B320     		movs	r0, #179
 3403 04f0 FFF7FEFF 		bl	LCD_WR_REG
 3404              	.LVL416:
 638:Core/Src/fsmc.c ****     LCD_WR_DATA(0x00);
 3405              		.loc 1 638 5 view .LVU973
 3406 04f4 0020     		movs	r0, #0
 3407 04f6 FFF7FEFF 		bl	LCD_WR_DATA
 3408              	.LVL417:
 639:Core/Src/fsmc.c ****     LCD_WR_DATA(0x00);
 3409              		.loc 1 639 5 view .LVU974
 3410 04fa 0020     		movs	r0, #0
 3411 04fc FFF7FEFF 		bl	LCD_WR_DATA
 3412              	.LVL418:
 640:Core/Src/fsmc.c ****     LCD_WR_DATA(0x00);
 3413              		.loc 1 640 5 view .LVU975
 3414 0500 0020     		movs	r0, #0
 3415 0502 FFF7FEFF 		bl	LCD_WR_DATA
 3416              	.LVL419:
 641:Core/Src/fsmc.c ****     LCD_WR_DATA(0x00);
 3417              		.loc 1 641 5 view .LVU976
 3418 0506 0020     		movs	r0, #0
 3419 0508 FFF7FEFF 		bl	LCD_WR_DATA
 3420              	.LVL420:
 642:Core/Src/fsmc.c ****     LCD_WR_DATA(0x00);
 3421              		.loc 1 642 5 view .LVU977
 3422 050c 0020     		movs	r0, #0
 3423 050e FFF7FEFF 		bl	LCD_WR_DATA
 3424              	.LVL421:
 643:Core/Src/fsmc.c ****     LCD_WR_DATA(0x00);
 3425              		.loc 1 643 5 view .LVU978
 3426 0512 0020     		movs	r0, #0
 3427 0514 FFF7FEFF 		bl	LCD_WR_DATA
ARM GAS  /tmp/ccE1vrH2.s 			page 114


 3428              	.LVL422:
 644:Core/Src/fsmc.c ****     LCD_WR_DATA(0x00);
 3429              		.loc 1 644 5 view .LVU979
 3430 0518 0020     		movs	r0, #0
 3431 051a FFF7FEFF 		bl	LCD_WR_DATA
 3432              	.LVL423:
 645:Core/Src/fsmc.c ****     LCD_WR_DATA(0x00);
 3433              		.loc 1 645 5 view .LVU980
 3434 051e 0020     		movs	r0, #0
 3435 0520 FFF7FEFF 		bl	LCD_WR_DATA
 3436              	.LVL424:
 646:Core/Src/fsmc.c ****     LCD_WR_DATA(0x00);
 3437              		.loc 1 646 5 view .LVU981
 3438 0524 0020     		movs	r0, #0
 3439 0526 FFF7FEFF 		bl	LCD_WR_DATA
 3440              	.LVL425:
 647:Core/Src/fsmc.c ****     LCD_WR_DATA(0x00);
 3441              		.loc 1 647 5 view .LVU982
 3442 052a 0020     		movs	r0, #0
 3443 052c FFF7FEFF 		bl	LCD_WR_DATA
 3444              	.LVL426:
 648:Core/Src/fsmc.c ****     LCD_WR_DATA(0x00);
 3445              		.loc 1 648 5 view .LVU983
 3446 0530 0020     		movs	r0, #0
 3447 0532 FFF7FEFF 		bl	LCD_WR_DATA
 3448              	.LVL427:
 649:Core/Src/fsmc.c ****     LCD_WR_DATA(0x00);
 3449              		.loc 1 649 5 view .LVU984
 3450 0536 0020     		movs	r0, #0
 3451 0538 FFF7FEFF 		bl	LCD_WR_DATA
 3452              	.LVL428:
 650:Core/Src/fsmc.c ****     LCD_WR_DATA(0x00);
 3453              		.loc 1 650 5 view .LVU985
 3454 053c 0020     		movs	r0, #0
 3455 053e FFF7FEFF 		bl	LCD_WR_DATA
 3456              	.LVL429:
 651:Core/Src/fsmc.c ****     LCD_WR_DATA(0x00);
 3457              		.loc 1 651 5 view .LVU986
 3458 0542 0020     		movs	r0, #0
 3459 0544 FFF7FEFF 		bl	LCD_WR_DATA
 3460              	.LVL430:
 652:Core/Src/fsmc.c ****     LCD_WR_DATA(0x00);
 3461              		.loc 1 652 5 view .LVU987
 3462 0548 0020     		movs	r0, #0
 3463 054a FFF7FEFF 		bl	LCD_WR_DATA
 3464              	.LVL431:
 653:Core/Src/fsmc.c ****     LCD_WR_DATA(0x00);
 3465              		.loc 1 653 5 view .LVU988
 3466 054e 0020     		movs	r0, #0
 3467 0550 FFF7FEFF 		bl	LCD_WR_DATA
 3468              	.LVL432:
 654:Core/Src/fsmc.c ****     LCD_WR_DATA(0x00);
 3469              		.loc 1 654 5 view .LVU989
 3470 0554 0020     		movs	r0, #0
 3471 0556 FFF7FEFF 		bl	LCD_WR_DATA
 3472              	.LVL433:
 655:Core/Src/fsmc.c ****     LCD_WR_DATA(0x00);
ARM GAS  /tmp/ccE1vrH2.s 			page 115


 3473              		.loc 1 655 5 view .LVU990
 3474 055a 0020     		movs	r0, #0
 3475 055c FFF7FEFF 		bl	LCD_WR_DATA
 3476              	.LVL434:
 656:Core/Src/fsmc.c ****     LCD_WR_DATA(0x00);
 3477              		.loc 1 656 5 view .LVU991
 3478 0560 0020     		movs	r0, #0
 3479 0562 FFF7FEFF 		bl	LCD_WR_DATA
 3480              	.LVL435:
 657:Core/Src/fsmc.c ****     LCD_WR_DATA(0x00);
 3481              		.loc 1 657 5 view .LVU992
 3482 0566 0020     		movs	r0, #0
 3483 0568 FFF7FEFF 		bl	LCD_WR_DATA
 3484              	.LVL436:
 658:Core/Src/fsmc.c ****     LCD_WR_DATA(0x00);
 3485              		.loc 1 658 5 view .LVU993
 3486 056c 0020     		movs	r0, #0
 3487 056e FFF7FEFF 		bl	LCD_WR_DATA
 3488              	.LVL437:
 659:Core/Src/fsmc.c ****     LCD_WR_DATA(0x00);
 3489              		.loc 1 659 5 view .LVU994
 3490 0572 0020     		movs	r0, #0
 3491 0574 FFF7FEFF 		bl	LCD_WR_DATA
 3492              	.LVL438:
 660:Core/Src/fsmc.c ****     LCD_WR_DATA(0x00);
 3493              		.loc 1 660 5 view .LVU995
 3494 0578 0020     		movs	r0, #0
 3495 057a FFF7FEFF 		bl	LCD_WR_DATA
 3496              	.LVL439:
 661:Core/Src/fsmc.c **** 
 3497              		.loc 1 661 5 view .LVU996
 3498 057e 0020     		movs	r0, #0
 3499 0580 FFF7FEFF 		bl	LCD_WR_DATA
 3500              	.LVL440:
 663:Core/Src/fsmc.c ****     LCD_WR_DATA(0x8B);
 3501              		.loc 1 663 5 view .LVU997
 3502 0584 B420     		movs	r0, #180
 3503 0586 FFF7FEFF 		bl	LCD_WR_REG
 3504              	.LVL441:
 664:Core/Src/fsmc.c ****     LCD_WR_DATA(0x00);
 3505              		.loc 1 664 5 view .LVU998
 3506 058a 8B20     		movs	r0, #139
 3507 058c FFF7FEFF 		bl	LCD_WR_DATA
 3508              	.LVL442:
 665:Core/Src/fsmc.c ****     LCD_WR_DATA(0x96);
 3509              		.loc 1 665 5 view .LVU999
 3510 0590 0020     		movs	r0, #0
 3511 0592 FFF7FEFF 		bl	LCD_WR_DATA
 3512              	.LVL443:
 666:Core/Src/fsmc.c ****     LCD_WR_DATA(0x00);
 3513              		.loc 1 666 5 view .LVU1000
 3514 0596 9620     		movs	r0, #150
 3515 0598 FFF7FEFF 		bl	LCD_WR_DATA
 3516              	.LVL444:
 667:Core/Src/fsmc.c ****     LCD_WR_DATA(0xA1);
 3517              		.loc 1 667 5 view .LVU1001
 3518 059c 0020     		movs	r0, #0
ARM GAS  /tmp/ccE1vrH2.s 			page 116


 3519 059e FFF7FEFF 		bl	LCD_WR_DATA
 3520              	.LVL445:
 668:Core/Src/fsmc.c ****     LCD_WR_DATA(0x00);
 3521              		.loc 1 668 5 view .LVU1002
 3522 05a2 A120     		movs	r0, #161
 3523 05a4 FFF7FEFF 		bl	LCD_WR_DATA
 3524              	.LVL446:
 669:Core/Src/fsmc.c **** 
 3525              		.loc 1 669 5 view .LVU1003
 3526 05a8 0020     		movs	r0, #0
 3527 05aa FFF7FEFF 		bl	LCD_WR_DATA
 3528              	.LVL447:
 671:Core/Src/fsmc.c ****     LCD_WR_DATA(0x02);
 3529              		.loc 1 671 5 view .LVU1004
 3530 05ae B520     		movs	r0, #181
 3531 05b0 FFF7FEFF 		bl	LCD_WR_REG
 3532              	.LVL448:
 672:Core/Src/fsmc.c ****     LCD_WR_DATA(0x00);
 3533              		.loc 1 672 5 view .LVU1005
 3534 05b4 0220     		movs	r0, #2
 3535 05b6 FFF7FEFF 		bl	LCD_WR_DATA
 3536              	.LVL449:
 673:Core/Src/fsmc.c ****     LCD_WR_DATA(0x03);
 3537              		.loc 1 673 5 view .LVU1006
 3538 05ba 0020     		movs	r0, #0
 3539 05bc FFF7FEFF 		bl	LCD_WR_DATA
 3540              	.LVL450:
 674:Core/Src/fsmc.c ****     LCD_WR_DATA(0x00);
 3541              		.loc 1 674 5 view .LVU1007
 3542 05c0 0320     		movs	r0, #3
 3543 05c2 FFF7FEFF 		bl	LCD_WR_DATA
 3544              	.LVL451:
 675:Core/Src/fsmc.c ****     LCD_WR_DATA(0x04);
 3545              		.loc 1 675 5 view .LVU1008
 3546 05c6 0020     		movs	r0, #0
 3547 05c8 FFF7FEFF 		bl	LCD_WR_DATA
 3548              	.LVL452:
 676:Core/Src/fsmc.c ****     LCD_WR_DATA(0x00);
 3549              		.loc 1 676 5 view .LVU1009
 3550 05cc 0420     		movs	r0, #4
 3551 05ce FFF7FEFF 		bl	LCD_WR_DATA
 3552              	.LVL453:
 677:Core/Src/fsmc.c **** 
 3553              		.loc 1 677 5 view .LVU1010
 3554 05d2 0020     		movs	r0, #0
 3555 05d4 FFF7FEFF 		bl	LCD_WR_DATA
 3556              	.LVL454:
 679:Core/Src/fsmc.c ****     LCD_WR_DATA(0x00);
 3557              		.loc 1 679 5 view .LVU1011
 3558 05d8 B620     		movs	r0, #182
 3559 05da FFF7FEFF 		bl	LCD_WR_REG
 3560              	.LVL455:
 680:Core/Src/fsmc.c ****     LCD_WR_DATA(0x00);
 3561              		.loc 1 680 5 view .LVU1012
 3562 05de 0020     		movs	r0, #0
 3563 05e0 FFF7FEFF 		bl	LCD_WR_DATA
 3564              	.LVL456:
ARM GAS  /tmp/ccE1vrH2.s 			page 117


 681:Core/Src/fsmc.c **** 
 3565              		.loc 1 681 5 view .LVU1013
 3566 05e4 0020     		movs	r0, #0
 3567 05e6 FFF7FEFF 		bl	LCD_WR_DATA
 3568              	.LVL457:
 683:Core/Src/fsmc.c ****     LCD_WR_DATA(0x00);
 3569              		.loc 1 683 5 view .LVU1014
 3570 05ea B720     		movs	r0, #183
 3571 05ec FFF7FEFF 		bl	LCD_WR_REG
 3572              	.LVL458:
 684:Core/Src/fsmc.c ****     LCD_WR_DATA(0x00);
 3573              		.loc 1 684 5 view .LVU1015
 3574 05f0 0020     		movs	r0, #0
 3575 05f2 FFF7FEFF 		bl	LCD_WR_DATA
 3576              	.LVL459:
 685:Core/Src/fsmc.c ****     LCD_WR_DATA(0x3F);
 3577              		.loc 1 685 5 view .LVU1016
 3578 05f6 0020     		movs	r0, #0
 3579 05f8 FFF7FEFF 		bl	LCD_WR_DATA
 3580              	.LVL460:
 686:Core/Src/fsmc.c ****     LCD_WR_DATA(0x00);
 3581              		.loc 1 686 5 view .LVU1017
 3582 05fc 3F20     		movs	r0, #63
 3583 05fe FFF7FEFF 		bl	LCD_WR_DATA
 3584              	.LVL461:
 687:Core/Src/fsmc.c ****     LCD_WR_DATA(0x5E);
 3585              		.loc 1 687 5 view .LVU1018
 3586 0602 0020     		movs	r0, #0
 3587 0604 FFF7FEFF 		bl	LCD_WR_DATA
 3588              	.LVL462:
 688:Core/Src/fsmc.c ****     LCD_WR_DATA(0x00);
 3589              		.loc 1 688 5 view .LVU1019
 3590 0608 5E20     		movs	r0, #94
 3591 060a FFF7FEFF 		bl	LCD_WR_DATA
 3592              	.LVL463:
 689:Core/Src/fsmc.c ****     LCD_WR_DATA(0x64);
 3593              		.loc 1 689 5 view .LVU1020
 3594 060e 0020     		movs	r0, #0
 3595 0610 FFF7FEFF 		bl	LCD_WR_DATA
 3596              	.LVL464:
 690:Core/Src/fsmc.c ****     LCD_WR_DATA(0x00);
 3597              		.loc 1 690 5 view .LVU1021
 3598 0614 6420     		movs	r0, #100
 3599 0616 FFF7FEFF 		bl	LCD_WR_DATA
 3600              	.LVL465:
 691:Core/Src/fsmc.c ****     LCD_WR_DATA(0x8C);
 3601              		.loc 1 691 5 view .LVU1022
 3602 061a 0020     		movs	r0, #0
 3603 061c FFF7FEFF 		bl	LCD_WR_DATA
 3604              	.LVL466:
 692:Core/Src/fsmc.c ****     LCD_WR_DATA(0x00);
 3605              		.loc 1 692 5 view .LVU1023
 3606 0620 8C20     		movs	r0, #140
 3607 0622 FFF7FEFF 		bl	LCD_WR_DATA
 3608              	.LVL467:
 693:Core/Src/fsmc.c ****     LCD_WR_DATA(0xAC);
 3609              		.loc 1 693 5 view .LVU1024
ARM GAS  /tmp/ccE1vrH2.s 			page 118


 3610 0626 0020     		movs	r0, #0
 3611 0628 FFF7FEFF 		bl	LCD_WR_DATA
 3612              	.LVL468:
 694:Core/Src/fsmc.c ****     LCD_WR_DATA(0x00);
 3613              		.loc 1 694 5 view .LVU1025
 3614 062c AC20     		movs	r0, #172
 3615 062e FFF7FEFF 		bl	LCD_WR_DATA
 3616              	.LVL469:
 695:Core/Src/fsmc.c ****     LCD_WR_DATA(0xDC);
 3617              		.loc 1 695 5 view .LVU1026
 3618 0632 0020     		movs	r0, #0
 3619 0634 FFF7FEFF 		bl	LCD_WR_DATA
 3620              	.LVL470:
 696:Core/Src/fsmc.c ****     LCD_WR_DATA(0x00);
 3621              		.loc 1 696 5 view .LVU1027
 3622 0638 DC20     		movs	r0, #220
 3623 063a FFF7FEFF 		bl	LCD_WR_DATA
 3624              	.LVL471:
 697:Core/Src/fsmc.c ****     LCD_WR_DATA(0x70);
 3625              		.loc 1 697 5 view .LVU1028
 3626 063e 0020     		movs	r0, #0
 3627 0640 FFF7FEFF 		bl	LCD_WR_DATA
 3628              	.LVL472:
 698:Core/Src/fsmc.c ****     LCD_WR_DATA(0x00);
 3629              		.loc 1 698 5 view .LVU1029
 3630 0644 7020     		movs	r0, #112
 3631 0646 FFF7FEFF 		bl	LCD_WR_DATA
 3632              	.LVL473:
 699:Core/Src/fsmc.c ****     LCD_WR_DATA(0x90);
 3633              		.loc 1 699 5 view .LVU1030
 3634 064a 0020     		movs	r0, #0
 3635 064c FFF7FEFF 		bl	LCD_WR_DATA
 3636              	.LVL474:
 700:Core/Src/fsmc.c ****     LCD_WR_DATA(0x00);
 3637              		.loc 1 700 5 view .LVU1031
 3638 0650 9020     		movs	r0, #144
 3639 0652 FFF7FEFF 		bl	LCD_WR_DATA
 3640              	.LVL475:
 701:Core/Src/fsmc.c ****     LCD_WR_DATA(0xEB);
 3641              		.loc 1 701 5 view .LVU1032
 3642 0656 0020     		movs	r0, #0
 3643 0658 FFF7FEFF 		bl	LCD_WR_DATA
 3644              	.LVL476:
 702:Core/Src/fsmc.c ****     LCD_WR_DATA(0x00);
 3645              		.loc 1 702 5 view .LVU1033
 3646 065c EB20     		movs	r0, #235
 3647 065e FFF7FEFF 		bl	LCD_WR_DATA
 3648              	.LVL477:
 703:Core/Src/fsmc.c ****     LCD_WR_DATA(0xDC);
 3649              		.loc 1 703 5 view .LVU1034
 3650 0662 0020     		movs	r0, #0
 3651 0664 FFF7FEFF 		bl	LCD_WR_DATA
 3652              	.LVL478:
 704:Core/Src/fsmc.c ****     LCD_WR_DATA(0x00);
 3653              		.loc 1 704 5 view .LVU1035
 3654 0668 DC20     		movs	r0, #220
 3655 066a FFF7FEFF 		bl	LCD_WR_DATA
ARM GAS  /tmp/ccE1vrH2.s 			page 119


 3656              	.LVL479:
 705:Core/Src/fsmc.c **** 
 3657              		.loc 1 705 5 view .LVU1036
 3658 066e 0020     		movs	r0, #0
 3659 0670 FFF7FEFF 		bl	LCD_WR_DATA
 3660              	.LVL480:
 707:Core/Src/fsmc.c ****     LCD_WR_DATA(0x00);
 3661              		.loc 1 707 5 view .LVU1037
 3662 0674 B820     		movs	r0, #184
 3663 0676 FFF7FEFF 		bl	LCD_WR_REG
 3664              	.LVL481:
 708:Core/Src/fsmc.c ****     LCD_WR_DATA(0x00);
 3665              		.loc 1 708 5 view .LVU1038
 3666 067a 0020     		movs	r0, #0
 3667 067c FFF7FEFF 		bl	LCD_WR_DATA
 3668              	.LVL482:
 709:Core/Src/fsmc.c ****     LCD_WR_DATA(0x00);
 3669              		.loc 1 709 5 view .LVU1039
 3670 0680 0020     		movs	r0, #0
 3671 0682 FFF7FEFF 		bl	LCD_WR_DATA
 3672              	.LVL483:
 710:Core/Src/fsmc.c ****     LCD_WR_DATA(0x00);
 3673              		.loc 1 710 5 view .LVU1040
 3674 0686 0020     		movs	r0, #0
 3675 0688 FFF7FEFF 		bl	LCD_WR_DATA
 3676              	.LVL484:
 711:Core/Src/fsmc.c ****     LCD_WR_DATA(0x00);
 3677              		.loc 1 711 5 view .LVU1041
 3678 068c 0020     		movs	r0, #0
 3679 068e FFF7FEFF 		bl	LCD_WR_DATA
 3680              	.LVL485:
 712:Core/Src/fsmc.c ****     LCD_WR_DATA(0x00);
 3681              		.loc 1 712 5 view .LVU1042
 3682 0692 0020     		movs	r0, #0
 3683 0694 FFF7FEFF 		bl	LCD_WR_DATA
 3684              	.LVL486:
 713:Core/Src/fsmc.c ****     LCD_WR_DATA(0x00);
 3685              		.loc 1 713 5 view .LVU1043
 3686 0698 0020     		movs	r0, #0
 3687 069a FFF7FEFF 		bl	LCD_WR_DATA
 3688              	.LVL487:
 714:Core/Src/fsmc.c ****     LCD_WR_DATA(0x00);
 3689              		.loc 1 714 5 view .LVU1044
 3690 069e 0020     		movs	r0, #0
 3691 06a0 FFF7FEFF 		bl	LCD_WR_DATA
 3692              	.LVL488:
 715:Core/Src/fsmc.c **** 
 3693              		.loc 1 715 5 view .LVU1045
 3694 06a4 0020     		movs	r0, #0
 3695 06a6 FFF7FEFF 		bl	LCD_WR_DATA
 3696              	.LVL489:
 717:Core/Src/fsmc.c ****     LCD_WR_DATA(0x24);
 3697              		.loc 1 717 5 view .LVU1046
 3698 06aa BA20     		movs	r0, #186
 3699 06ac FFF7FEFF 		bl	LCD_WR_REG
 3700              	.LVL490:
 718:Core/Src/fsmc.c ****     LCD_WR_DATA(0x00);
ARM GAS  /tmp/ccE1vrH2.s 			page 120


 3701              		.loc 1 718 5 view .LVU1047
 3702 06b0 2420     		movs	r0, #36
 3703 06b2 FFF7FEFF 		bl	LCD_WR_DATA
 3704              	.LVL491:
 719:Core/Src/fsmc.c ****     LCD_WR_DATA(0x00);
 3705              		.loc 1 719 5 view .LVU1048
 3706 06b6 0020     		movs	r0, #0
 3707 06b8 FFF7FEFF 		bl	LCD_WR_DATA
 3708              	.LVL492:
 720:Core/Src/fsmc.c ****     LCD_WR_DATA(0x00);
 3709              		.loc 1 720 5 view .LVU1049
 3710 06bc 0020     		movs	r0, #0
 3711 06be FFF7FEFF 		bl	LCD_WR_DATA
 3712              	.LVL493:
 721:Core/Src/fsmc.c **** 
 3713              		.loc 1 721 5 view .LVU1050
 3714 06c2 0020     		movs	r0, #0
 3715 06c4 FFF7FEFF 		bl	LCD_WR_DATA
 3716              	.LVL494:
 723:Core/Src/fsmc.c ****     LCD_WR_DATA(0x20);
 3717              		.loc 1 723 5 view .LVU1051
 3718 06c8 C120     		movs	r0, #193
 3719 06ca FFF7FEFF 		bl	LCD_WR_REG
 3720              	.LVL495:
 724:Core/Src/fsmc.c ****     LCD_WR_DATA(0x00);
 3721              		.loc 1 724 5 view .LVU1052
 3722 06ce 2020     		movs	r0, #32
 3723 06d0 FFF7FEFF 		bl	LCD_WR_DATA
 3724              	.LVL496:
 725:Core/Src/fsmc.c ****     LCD_WR_DATA(0x54);
 3725              		.loc 1 725 5 view .LVU1053
 3726 06d4 0020     		movs	r0, #0
 3727 06d6 FFF7FEFF 		bl	LCD_WR_DATA
 3728              	.LVL497:
 726:Core/Src/fsmc.c ****     LCD_WR_DATA(0x00);
 3729              		.loc 1 726 5 view .LVU1054
 3730 06da 5420     		movs	r0, #84
 3731 06dc FFF7FEFF 		bl	LCD_WR_DATA
 3732              	.LVL498:
 727:Core/Src/fsmc.c ****     LCD_WR_DATA(0xFF);
 3733              		.loc 1 727 5 view .LVU1055
 3734 06e0 0020     		movs	r0, #0
 3735 06e2 FFF7FEFF 		bl	LCD_WR_DATA
 3736              	.LVL499:
 728:Core/Src/fsmc.c ****     LCD_WR_DATA(0x00);
 3737              		.loc 1 728 5 view .LVU1056
 3738 06e6 FF20     		movs	r0, #255
 3739 06e8 FFF7FEFF 		bl	LCD_WR_DATA
 3740              	.LVL500:
 729:Core/Src/fsmc.c **** 
 3741              		.loc 1 729 5 view .LVU1057
 3742 06ec 0020     		movs	r0, #0
 3743 06ee FFF7FEFF 		bl	LCD_WR_DATA
 3744              	.LVL501:
 731:Core/Src/fsmc.c ****     LCD_WR_DATA(0x0A);
 3745              		.loc 1 731 5 view .LVU1058
 3746 06f2 C220     		movs	r0, #194
ARM GAS  /tmp/ccE1vrH2.s 			page 121


 3747 06f4 FFF7FEFF 		bl	LCD_WR_REG
 3748              	.LVL502:
 732:Core/Src/fsmc.c ****     LCD_WR_DATA(0x00);
 3749              		.loc 1 732 5 view .LVU1059
 3750 06f8 0A20     		movs	r0, #10
 3751 06fa FFF7FEFF 		bl	LCD_WR_DATA
 3752              	.LVL503:
 733:Core/Src/fsmc.c ****     LCD_WR_DATA(0x04);
 3753              		.loc 1 733 5 view .LVU1060
 3754 06fe 0020     		movs	r0, #0
 3755 0700 FFF7FEFF 		bl	LCD_WR_DATA
 3756              	.LVL504:
 734:Core/Src/fsmc.c ****     LCD_WR_DATA(0x00);
 3757              		.loc 1 734 5 view .LVU1061
 3758 0704 0420     		movs	r0, #4
 3759 0706 FFF7FEFF 		bl	LCD_WR_DATA
 3760              	.LVL505:
 735:Core/Src/fsmc.c **** 
 3761              		.loc 1 735 5 view .LVU1062
 3762 070a 0020     		movs	r0, #0
 3763 070c FFF7FEFF 		bl	LCD_WR_DATA
 3764              	.LVL506:
 737:Core/Src/fsmc.c ****     LCD_WR_DATA(0x3C);
 3765              		.loc 1 737 5 view .LVU1063
 3766 0710 C320     		movs	r0, #195
 3767 0712 FFF7FEFF 		bl	LCD_WR_REG
 3768              	.LVL507:
 738:Core/Src/fsmc.c ****     LCD_WR_DATA(0x00);
 3769              		.loc 1 738 5 view .LVU1064
 3770 0716 3C20     		movs	r0, #60
 3771 0718 FFF7FEFF 		bl	LCD_WR_DATA
 3772              	.LVL508:
 739:Core/Src/fsmc.c ****     LCD_WR_DATA(0x3A);
 3773              		.loc 1 739 5 view .LVU1065
 3774 071c 0020     		movs	r0, #0
 3775 071e FFF7FEFF 		bl	LCD_WR_DATA
 3776              	.LVL509:
 740:Core/Src/fsmc.c ****     LCD_WR_DATA(0x00);
 3777              		.loc 1 740 5 view .LVU1066
 3778 0722 3A20     		movs	r0, #58
 3779 0724 FFF7FEFF 		bl	LCD_WR_DATA
 3780              	.LVL510:
 741:Core/Src/fsmc.c ****     LCD_WR_DATA(0x39);
 3781              		.loc 1 741 5 view .LVU1067
 3782 0728 0020     		movs	r0, #0
 3783 072a FFF7FEFF 		bl	LCD_WR_DATA
 3784              	.LVL511:
 742:Core/Src/fsmc.c ****     LCD_WR_DATA(0x00);
 3785              		.loc 1 742 5 view .LVU1068
 3786 072e 3920     		movs	r0, #57
 3787 0730 FFF7FEFF 		bl	LCD_WR_DATA
 3788              	.LVL512:
 743:Core/Src/fsmc.c ****     LCD_WR_DATA(0x37);
 3789              		.loc 1 743 5 view .LVU1069
 3790 0734 0020     		movs	r0, #0
 3791 0736 FFF7FEFF 		bl	LCD_WR_DATA
 3792              	.LVL513:
ARM GAS  /tmp/ccE1vrH2.s 			page 122


 744:Core/Src/fsmc.c ****     LCD_WR_DATA(0x00);
 3793              		.loc 1 744 5 view .LVU1070
 3794 073a 3720     		movs	r0, #55
 3795 073c FFF7FEFF 		bl	LCD_WR_DATA
 3796              	.LVL514:
 745:Core/Src/fsmc.c ****     LCD_WR_DATA(0x3C);
 3797              		.loc 1 745 5 view .LVU1071
 3798 0740 0020     		movs	r0, #0
 3799 0742 FFF7FEFF 		bl	LCD_WR_DATA
 3800              	.LVL515:
 746:Core/Src/fsmc.c ****     LCD_WR_DATA(0x00);
 3801              		.loc 1 746 5 view .LVU1072
 3802 0746 3C20     		movs	r0, #60
 3803 0748 FFF7FEFF 		bl	LCD_WR_DATA
 3804              	.LVL516:
 747:Core/Src/fsmc.c ****     LCD_WR_DATA(0x36);
 3805              		.loc 1 747 5 view .LVU1073
 3806 074c 0020     		movs	r0, #0
 3807 074e FFF7FEFF 		bl	LCD_WR_DATA
 3808              	.LVL517:
 748:Core/Src/fsmc.c ****     LCD_WR_DATA(0x00);
 3809              		.loc 1 748 5 view .LVU1074
 3810 0752 3620     		movs	r0, #54
 3811 0754 FFF7FEFF 		bl	LCD_WR_DATA
 3812              	.LVL518:
 749:Core/Src/fsmc.c ****     LCD_WR_DATA(0x32);
 3813              		.loc 1 749 5 view .LVU1075
 3814 0758 0020     		movs	r0, #0
 3815 075a FFF7FEFF 		bl	LCD_WR_DATA
 3816              	.LVL519:
 750:Core/Src/fsmc.c ****     LCD_WR_DATA(0x00);
 3817              		.loc 1 750 5 view .LVU1076
 3818 075e 3220     		movs	r0, #50
 3819 0760 FFF7FEFF 		bl	LCD_WR_DATA
 3820              	.LVL520:
 751:Core/Src/fsmc.c ****     LCD_WR_DATA(0x2F);
 3821              		.loc 1 751 5 view .LVU1077
 3822 0764 0020     		movs	r0, #0
 3823 0766 FFF7FEFF 		bl	LCD_WR_DATA
 3824              	.LVL521:
 752:Core/Src/fsmc.c ****     LCD_WR_DATA(0x00);
 3825              		.loc 1 752 5 view .LVU1078
 3826 076a 2F20     		movs	r0, #47
 3827 076c FFF7FEFF 		bl	LCD_WR_DATA
 3828              	.LVL522:
 753:Core/Src/fsmc.c ****     LCD_WR_DATA(0x2C);
 3829              		.loc 1 753 5 view .LVU1079
 3830 0770 0020     		movs	r0, #0
 3831 0772 FFF7FEFF 		bl	LCD_WR_DATA
 3832              	.LVL523:
 754:Core/Src/fsmc.c ****     LCD_WR_DATA(0x00);
 3833              		.loc 1 754 5 view .LVU1080
 3834 0776 2C20     		movs	r0, #44
 3835 0778 FFF7FEFF 		bl	LCD_WR_DATA
 3836              	.LVL524:
 755:Core/Src/fsmc.c ****     LCD_WR_DATA(0x29);
 3837              		.loc 1 755 5 view .LVU1081
ARM GAS  /tmp/ccE1vrH2.s 			page 123


 3838 077c 0020     		movs	r0, #0
 3839 077e FFF7FEFF 		bl	LCD_WR_DATA
 3840              	.LVL525:
 756:Core/Src/fsmc.c ****     LCD_WR_DATA(0x00);
 3841              		.loc 1 756 5 view .LVU1082
 3842 0782 2920     		movs	r0, #41
 3843 0784 FFF7FEFF 		bl	LCD_WR_DATA
 3844              	.LVL526:
 757:Core/Src/fsmc.c ****     LCD_WR_DATA(0x26);
 3845              		.loc 1 757 5 view .LVU1083
 3846 0788 0020     		movs	r0, #0
 3847 078a FFF7FEFF 		bl	LCD_WR_DATA
 3848              	.LVL527:
 758:Core/Src/fsmc.c ****     LCD_WR_DATA(0x00);
 3849              		.loc 1 758 5 view .LVU1084
 3850 078e 2620     		movs	r0, #38
 3851 0790 FFF7FEFF 		bl	LCD_WR_DATA
 3852              	.LVL528:
 759:Core/Src/fsmc.c ****     LCD_WR_DATA(0x24);
 3853              		.loc 1 759 5 view .LVU1085
 3854 0794 0020     		movs	r0, #0
 3855 0796 FFF7FEFF 		bl	LCD_WR_DATA
 3856              	.LVL529:
 760:Core/Src/fsmc.c ****     LCD_WR_DATA(0x00);
 3857              		.loc 1 760 5 view .LVU1086
 3858 079a 2420     		movs	r0, #36
 3859 079c FFF7FEFF 		bl	LCD_WR_DATA
 3860              	.LVL530:
 761:Core/Src/fsmc.c ****     LCD_WR_DATA(0x24);
 3861              		.loc 1 761 5 view .LVU1087
 3862 07a0 0020     		movs	r0, #0
 3863 07a2 FFF7FEFF 		bl	LCD_WR_DATA
 3864              	.LVL531:
 762:Core/Src/fsmc.c ****     LCD_WR_DATA(0x00);
 3865              		.loc 1 762 5 view .LVU1088
 3866 07a6 2420     		movs	r0, #36
 3867 07a8 FFF7FEFF 		bl	LCD_WR_DATA
 3868              	.LVL532:
 763:Core/Src/fsmc.c ****     LCD_WR_DATA(0x23);
 3869              		.loc 1 763 5 view .LVU1089
 3870 07ac 0020     		movs	r0, #0
 3871 07ae FFF7FEFF 		bl	LCD_WR_DATA
 3872              	.LVL533:
 764:Core/Src/fsmc.c ****     LCD_WR_DATA(0x00);
 3873              		.loc 1 764 5 view .LVU1090
 3874 07b2 2320     		movs	r0, #35
 3875 07b4 FFF7FEFF 		bl	LCD_WR_DATA
 3876              	.LVL534:
 765:Core/Src/fsmc.c ****     LCD_WR_DATA(0x3C);
 3877              		.loc 1 765 5 view .LVU1091
 3878 07b8 0020     		movs	r0, #0
 3879 07ba FFF7FEFF 		bl	LCD_WR_DATA
 3880              	.LVL535:
 766:Core/Src/fsmc.c ****     LCD_WR_DATA(0x00);
 3881              		.loc 1 766 5 view .LVU1092
 3882 07be 3C20     		movs	r0, #60
 3883 07c0 FFF7FEFF 		bl	LCD_WR_DATA
ARM GAS  /tmp/ccE1vrH2.s 			page 124


 3884              	.LVL536:
 767:Core/Src/fsmc.c ****     LCD_WR_DATA(0x36);
 3885              		.loc 1 767 5 view .LVU1093
 3886 07c4 0020     		movs	r0, #0
 3887 07c6 FFF7FEFF 		bl	LCD_WR_DATA
 3888              	.LVL537:
 768:Core/Src/fsmc.c ****     LCD_WR_DATA(0x00);
 3889              		.loc 1 768 5 view .LVU1094
 3890 07ca 3620     		movs	r0, #54
 3891 07cc FFF7FEFF 		bl	LCD_WR_DATA
 3892              	.LVL538:
 769:Core/Src/fsmc.c ****     LCD_WR_DATA(0x32);
 3893              		.loc 1 769 5 view .LVU1095
 3894 07d0 0020     		movs	r0, #0
 3895 07d2 FFF7FEFF 		bl	LCD_WR_DATA
 3896              	.LVL539:
 770:Core/Src/fsmc.c ****     LCD_WR_DATA(0x00);
 3897              		.loc 1 770 5 view .LVU1096
 3898 07d6 3220     		movs	r0, #50
 3899 07d8 FFF7FEFF 		bl	LCD_WR_DATA
 3900              	.LVL540:
 771:Core/Src/fsmc.c ****     LCD_WR_DATA(0x2F);
 3901              		.loc 1 771 5 view .LVU1097
 3902 07dc 0020     		movs	r0, #0
 3903 07de FFF7FEFF 		bl	LCD_WR_DATA
 3904              	.LVL541:
 772:Core/Src/fsmc.c ****     LCD_WR_DATA(0x00);
 3905              		.loc 1 772 5 view .LVU1098
 3906 07e2 2F20     		movs	r0, #47
 3907 07e4 FFF7FEFF 		bl	LCD_WR_DATA
 3908              	.LVL542:
 773:Core/Src/fsmc.c ****     LCD_WR_DATA(0x2C);
 3909              		.loc 1 773 5 view .LVU1099
 3910 07e8 0020     		movs	r0, #0
 3911 07ea FFF7FEFF 		bl	LCD_WR_DATA
 3912              	.LVL543:
 774:Core/Src/fsmc.c ****     LCD_WR_DATA(0x00);
 3913              		.loc 1 774 5 view .LVU1100
 3914 07ee 2C20     		movs	r0, #44
 3915 07f0 FFF7FEFF 		bl	LCD_WR_DATA
 3916              	.LVL544:
 775:Core/Src/fsmc.c ****     LCD_WR_DATA(0x29);
 3917              		.loc 1 775 5 view .LVU1101
 3918 07f4 0020     		movs	r0, #0
 3919 07f6 FFF7FEFF 		bl	LCD_WR_DATA
 3920              	.LVL545:
 776:Core/Src/fsmc.c ****     LCD_WR_DATA(0x00);
 3921              		.loc 1 776 5 view .LVU1102
 3922 07fa 2920     		movs	r0, #41
 3923 07fc FFF7FEFF 		bl	LCD_WR_DATA
 3924              	.LVL546:
 777:Core/Src/fsmc.c ****     LCD_WR_DATA(0x26);
 3925              		.loc 1 777 5 view .LVU1103
 3926 0800 0020     		movs	r0, #0
 3927 0802 FFF7FEFF 		bl	LCD_WR_DATA
 3928              	.LVL547:
 778:Core/Src/fsmc.c ****     LCD_WR_DATA(0x00);
ARM GAS  /tmp/ccE1vrH2.s 			page 125


 3929              		.loc 1 778 5 view .LVU1104
 3930 0806 2620     		movs	r0, #38
 3931 0808 FFF7FEFF 		bl	LCD_WR_DATA
 3932              	.LVL548:
 779:Core/Src/fsmc.c ****     LCD_WR_DATA(0x24);
 3933              		.loc 1 779 5 view .LVU1105
 3934 080c 0020     		movs	r0, #0
 3935 080e FFF7FEFF 		bl	LCD_WR_DATA
 3936              	.LVL549:
 780:Core/Src/fsmc.c ****     LCD_WR_DATA(0x00);
 3937              		.loc 1 780 5 view .LVU1106
 3938 0812 2420     		movs	r0, #36
 3939 0814 FFF7FEFF 		bl	LCD_WR_DATA
 3940              	.LVL550:
 781:Core/Src/fsmc.c ****     LCD_WR_DATA(0x24);
 3941              		.loc 1 781 5 view .LVU1107
 3942 0818 0020     		movs	r0, #0
 3943 081a FFF7FEFF 		bl	LCD_WR_DATA
 3944              	.LVL551:
 782:Core/Src/fsmc.c ****     LCD_WR_DATA(0x00);
 3945              		.loc 1 782 5 view .LVU1108
 3946 081e 2420     		movs	r0, #36
 3947 0820 FFF7FEFF 		bl	LCD_WR_DATA
 3948              	.LVL552:
 783:Core/Src/fsmc.c ****     LCD_WR_DATA(0x23);
 3949              		.loc 1 783 5 view .LVU1109
 3950 0824 0020     		movs	r0, #0
 3951 0826 FFF7FEFF 		bl	LCD_WR_DATA
 3952              	.LVL553:
 784:Core/Src/fsmc.c ****     LCD_WR_DATA(0x00);
 3953              		.loc 1 784 5 view .LVU1110
 3954 082a 2320     		movs	r0, #35
 3955 082c FFF7FEFF 		bl	LCD_WR_DATA
 3956              	.LVL554:
 785:Core/Src/fsmc.c **** 
 3957              		.loc 1 785 5 view .LVU1111
 3958 0830 0020     		movs	r0, #0
 3959 0832 FFF7FEFF 		bl	LCD_WR_DATA
 3960              	.LVL555:
 787:Core/Src/fsmc.c ****     LCD_WR_DATA(0x62);
 3961              		.loc 1 787 5 view .LVU1112
 3962 0836 C420     		movs	r0, #196
 3963 0838 FFF7FEFF 		bl	LCD_WR_REG
 3964              	.LVL556:
 788:Core/Src/fsmc.c ****     LCD_WR_DATA(0x00);
 3965              		.loc 1 788 5 view .LVU1113
 3966 083c 6220     		movs	r0, #98
 3967 083e FFF7FEFF 		bl	LCD_WR_DATA
 3968              	.LVL557:
 789:Core/Src/fsmc.c ****     LCD_WR_DATA(0x05);
 3969              		.loc 1 789 5 view .LVU1114
 3970 0842 0020     		movs	r0, #0
 3971 0844 FFF7FEFF 		bl	LCD_WR_DATA
 3972              	.LVL558:
 790:Core/Src/fsmc.c ****     LCD_WR_DATA(0x00);
 3973              		.loc 1 790 5 view .LVU1115
 3974 0848 0520     		movs	r0, #5
ARM GAS  /tmp/ccE1vrH2.s 			page 126


 3975 084a FFF7FEFF 		bl	LCD_WR_DATA
 3976              	.LVL559:
 791:Core/Src/fsmc.c ****     LCD_WR_DATA(0x84);
 3977              		.loc 1 791 5 view .LVU1116
 3978 084e 0020     		movs	r0, #0
 3979 0850 FFF7FEFF 		bl	LCD_WR_DATA
 3980              	.LVL560:
 792:Core/Src/fsmc.c ****     LCD_WR_DATA(0x00);
 3981              		.loc 1 792 5 view .LVU1117
 3982 0854 8420     		movs	r0, #132
 3983 0856 FFF7FEFF 		bl	LCD_WR_DATA
 3984              	.LVL561:
 793:Core/Src/fsmc.c ****     LCD_WR_DATA(0xF0);
 3985              		.loc 1 793 5 view .LVU1118
 3986 085a 0020     		movs	r0, #0
 3987 085c FFF7FEFF 		bl	LCD_WR_DATA
 3988              	.LVL562:
 794:Core/Src/fsmc.c ****     LCD_WR_DATA(0x00);
 3989              		.loc 1 794 5 view .LVU1119
 3990 0860 F020     		movs	r0, #240
 3991 0862 FFF7FEFF 		bl	LCD_WR_DATA
 3992              	.LVL563:
 795:Core/Src/fsmc.c ****     LCD_WR_DATA(0x18);
 3993              		.loc 1 795 5 view .LVU1120
 3994 0866 0020     		movs	r0, #0
 3995 0868 FFF7FEFF 		bl	LCD_WR_DATA
 3996              	.LVL564:
 796:Core/Src/fsmc.c ****     LCD_WR_DATA(0x00);
 3997              		.loc 1 796 5 view .LVU1121
 3998 086c 1820     		movs	r0, #24
 3999 086e FFF7FEFF 		bl	LCD_WR_DATA
 4000              	.LVL565:
 797:Core/Src/fsmc.c ****     LCD_WR_DATA(0xA4);
 4001              		.loc 1 797 5 view .LVU1122
 4002 0872 0020     		movs	r0, #0
 4003 0874 FFF7FEFF 		bl	LCD_WR_DATA
 4004              	.LVL566:
 798:Core/Src/fsmc.c ****     LCD_WR_DATA(0x00);
 4005              		.loc 1 798 5 view .LVU1123
 4006 0878 A420     		movs	r0, #164
 4007 087a FFF7FEFF 		bl	LCD_WR_DATA
 4008              	.LVL567:
 799:Core/Src/fsmc.c ****     LCD_WR_DATA(0x18);
 4009              		.loc 1 799 5 view .LVU1124
 4010 087e 0020     		movs	r0, #0
 4011 0880 FFF7FEFF 		bl	LCD_WR_DATA
 4012              	.LVL568:
 800:Core/Src/fsmc.c ****     LCD_WR_DATA(0x00);
 4013              		.loc 1 800 5 view .LVU1125
 4014 0884 1820     		movs	r0, #24
 4015 0886 FFF7FEFF 		bl	LCD_WR_DATA
 4016              	.LVL569:
 801:Core/Src/fsmc.c ****     LCD_WR_DATA(0x50);
 4017              		.loc 1 801 5 view .LVU1126
 4018 088a 0020     		movs	r0, #0
 4019 088c FFF7FEFF 		bl	LCD_WR_DATA
 4020              	.LVL570:
ARM GAS  /tmp/ccE1vrH2.s 			page 127


 802:Core/Src/fsmc.c ****     LCD_WR_DATA(0x00);
 4021              		.loc 1 802 5 view .LVU1127
 4022 0890 5020     		movs	r0, #80
 4023 0892 FFF7FEFF 		bl	LCD_WR_DATA
 4024              	.LVL571:
 803:Core/Src/fsmc.c ****     LCD_WR_DATA(0x0C);
 4025              		.loc 1 803 5 view .LVU1128
 4026 0896 0020     		movs	r0, #0
 4027 0898 FFF7FEFF 		bl	LCD_WR_DATA
 4028              	.LVL572:
 804:Core/Src/fsmc.c ****     LCD_WR_DATA(0x00);
 4029              		.loc 1 804 5 view .LVU1129
 4030 089c 0C20     		movs	r0, #12
 4031 089e FFF7FEFF 		bl	LCD_WR_DATA
 4032              	.LVL573:
 805:Core/Src/fsmc.c ****     LCD_WR_DATA(0x17);
 4033              		.loc 1 805 5 view .LVU1130
 4034 08a2 0020     		movs	r0, #0
 4035 08a4 FFF7FEFF 		bl	LCD_WR_DATA
 4036              	.LVL574:
 806:Core/Src/fsmc.c ****     LCD_WR_DATA(0x00);
 4037              		.loc 1 806 5 view .LVU1131
 4038 08a8 1720     		movs	r0, #23
 4039 08aa FFF7FEFF 		bl	LCD_WR_DATA
 4040              	.LVL575:
 807:Core/Src/fsmc.c ****     LCD_WR_DATA(0x95);
 4041              		.loc 1 807 5 view .LVU1132
 4042 08ae 0020     		movs	r0, #0
 4043 08b0 FFF7FEFF 		bl	LCD_WR_DATA
 4044              	.LVL576:
 808:Core/Src/fsmc.c ****     LCD_WR_DATA(0x00);
 4045              		.loc 1 808 5 view .LVU1133
 4046 08b4 9520     		movs	r0, #149
 4047 08b6 FFF7FEFF 		bl	LCD_WR_DATA
 4048              	.LVL577:
 809:Core/Src/fsmc.c ****     LCD_WR_DATA(0xF3);
 4049              		.loc 1 809 5 view .LVU1134
 4050 08ba 0020     		movs	r0, #0
 4051 08bc FFF7FEFF 		bl	LCD_WR_DATA
 4052              	.LVL578:
 810:Core/Src/fsmc.c ****     LCD_WR_DATA(0x00);
 4053              		.loc 1 810 5 view .LVU1135
 4054 08c0 F320     		movs	r0, #243
 4055 08c2 FFF7FEFF 		bl	LCD_WR_DATA
 4056              	.LVL579:
 811:Core/Src/fsmc.c ****     LCD_WR_DATA(0xE6);
 4057              		.loc 1 811 5 view .LVU1136
 4058 08c6 0020     		movs	r0, #0
 4059 08c8 FFF7FEFF 		bl	LCD_WR_DATA
 4060              	.LVL580:
 812:Core/Src/fsmc.c ****     LCD_WR_DATA(0x00);
 4061              		.loc 1 812 5 view .LVU1137
 4062 08cc E620     		movs	r0, #230
 4063 08ce FFF7FEFF 		bl	LCD_WR_DATA
 4064              	.LVL581:
 813:Core/Src/fsmc.c **** 
 4065              		.loc 1 813 5 view .LVU1138
ARM GAS  /tmp/ccE1vrH2.s 			page 128


 4066 08d2 0020     		movs	r0, #0
 4067 08d4 FFF7FEFF 		bl	LCD_WR_DATA
 4068              	.LVL582:
 815:Core/Src/fsmc.c ****     LCD_WR_DATA(0x32);
 4069              		.loc 1 815 5 view .LVU1139
 4070 08d8 C520     		movs	r0, #197
 4071 08da FFF7FEFF 		bl	LCD_WR_REG
 4072              	.LVL583:
 816:Core/Src/fsmc.c ****     LCD_WR_DATA(0x00);
 4073              		.loc 1 816 5 view .LVU1140
 4074 08de 3220     		movs	r0, #50
 4075 08e0 FFF7FEFF 		bl	LCD_WR_DATA
 4076              	.LVL584:
 817:Core/Src/fsmc.c ****     LCD_WR_DATA(0x44);
 4077              		.loc 1 817 5 view .LVU1141
 4078 08e4 0020     		movs	r0, #0
 4079 08e6 FFF7FEFF 		bl	LCD_WR_DATA
 4080              	.LVL585:
 818:Core/Src/fsmc.c ****     LCD_WR_DATA(0x00);
 4081              		.loc 1 818 5 view .LVU1142
 4082 08ea 4420     		movs	r0, #68
 4083 08ec FFF7FEFF 		bl	LCD_WR_DATA
 4084              	.LVL586:
 819:Core/Src/fsmc.c ****     LCD_WR_DATA(0x65);
 4085              		.loc 1 819 5 view .LVU1143
 4086 08f0 0020     		movs	r0, #0
 4087 08f2 FFF7FEFF 		bl	LCD_WR_DATA
 4088              	.LVL587:
 820:Core/Src/fsmc.c ****     LCD_WR_DATA(0x00);
 4089              		.loc 1 820 5 view .LVU1144
 4090 08f6 6520     		movs	r0, #101
 4091 08f8 FFF7FEFF 		bl	LCD_WR_DATA
 4092              	.LVL588:
 821:Core/Src/fsmc.c ****     LCD_WR_DATA(0x76);
 4093              		.loc 1 821 5 view .LVU1145
 4094 08fc 0020     		movs	r0, #0
 4095 08fe FFF7FEFF 		bl	LCD_WR_DATA
 4096              	.LVL589:
 822:Core/Src/fsmc.c ****     LCD_WR_DATA(0x00);
 4097              		.loc 1 822 5 view .LVU1146
 4098 0902 7620     		movs	r0, #118
 4099 0904 FFF7FEFF 		bl	LCD_WR_DATA
 4100              	.LVL590:
 823:Core/Src/fsmc.c ****     LCD_WR_DATA(0x88);
 4101              		.loc 1 823 5 view .LVU1147
 4102 0908 0020     		movs	r0, #0
 4103 090a FFF7FEFF 		bl	LCD_WR_DATA
 4104              	.LVL591:
 824:Core/Src/fsmc.c ****     LCD_WR_DATA(0x00);
 4105              		.loc 1 824 5 view .LVU1148
 4106 090e 8820     		movs	r0, #136
 4107 0910 FFF7FEFF 		bl	LCD_WR_DATA
 4108              	.LVL592:
 825:Core/Src/fsmc.c **** 
 4109              		.loc 1 825 5 view .LVU1149
 4110 0914 0020     		movs	r0, #0
 4111 0916 FFF7FEFF 		bl	LCD_WR_DATA
ARM GAS  /tmp/ccE1vrH2.s 			page 129


 4112              	.LVL593:
 827:Core/Src/fsmc.c ****     LCD_WR_DATA(0x20);
 4113              		.loc 1 827 5 view .LVU1150
 4114 091a C620     		movs	r0, #198
 4115 091c FFF7FEFF 		bl	LCD_WR_REG
 4116              	.LVL594:
 828:Core/Src/fsmc.c ****     LCD_WR_DATA(0x00);
 4117              		.loc 1 828 5 view .LVU1151
 4118 0920 2020     		movs	r0, #32
 4119 0922 FFF7FEFF 		bl	LCD_WR_DATA
 4120              	.LVL595:
 829:Core/Src/fsmc.c ****     LCD_WR_DATA(0x17);
 4121              		.loc 1 829 5 view .LVU1152
 4122 0926 0020     		movs	r0, #0
 4123 0928 FFF7FEFF 		bl	LCD_WR_DATA
 4124              	.LVL596:
 830:Core/Src/fsmc.c ****     LCD_WR_DATA(0x00);
 4125              		.loc 1 830 5 view .LVU1153
 4126 092c 1720     		movs	r0, #23
 4127 092e FFF7FEFF 		bl	LCD_WR_DATA
 4128              	.LVL597:
 831:Core/Src/fsmc.c ****     LCD_WR_DATA(0x01);
 4129              		.loc 1 831 5 view .LVU1154
 4130 0932 0020     		movs	r0, #0
 4131 0934 FFF7FEFF 		bl	LCD_WR_DATA
 4132              	.LVL598:
 832:Core/Src/fsmc.c ****     LCD_WR_DATA(0x00);
 4133              		.loc 1 832 5 view .LVU1155
 4134 0938 0120     		movs	r0, #1
 4135 093a FFF7FEFF 		bl	LCD_WR_DATA
 4136              	.LVL599:
 833:Core/Src/fsmc.c **** 
 4137              		.loc 1 833 5 view .LVU1156
 4138 093e 0020     		movs	r0, #0
 4139 0940 FFF7FEFF 		bl	LCD_WR_DATA
 4140              	.LVL600:
 835:Core/Src/fsmc.c ****     LCD_WR_DATA(0x00);
 4141              		.loc 1 835 5 view .LVU1157
 4142 0944 C720     		movs	r0, #199
 4143 0946 FFF7FEFF 		bl	LCD_WR_REG
 4144              	.LVL601:
 836:Core/Src/fsmc.c ****     LCD_WR_DATA(0x00);
 4145              		.loc 1 836 5 view .LVU1158
 4146 094a 0020     		movs	r0, #0
 4147 094c FFF7FEFF 		bl	LCD_WR_DATA
 4148              	.LVL602:
 837:Core/Src/fsmc.c ****     LCD_WR_DATA(0x00);
 4149              		.loc 1 837 5 view .LVU1159
 4150 0950 0020     		movs	r0, #0
 4151 0952 FFF7FEFF 		bl	LCD_WR_DATA
 4152              	.LVL603:
 838:Core/Src/fsmc.c ****     LCD_WR_DATA(0x00);
 4153              		.loc 1 838 5 view .LVU1160
 4154 0956 0020     		movs	r0, #0
 4155 0958 FFF7FEFF 		bl	LCD_WR_DATA
 4156              	.LVL604:
 839:Core/Src/fsmc.c **** 
ARM GAS  /tmp/ccE1vrH2.s 			page 130


 4157              		.loc 1 839 5 view .LVU1161
 4158 095c 0020     		movs	r0, #0
 4159 095e FFF7FEFF 		bl	LCD_WR_DATA
 4160              	.LVL605:
 841:Core/Src/fsmc.c ****     LCD_WR_DATA(0x00);
 4161              		.loc 1 841 5 view .LVU1162
 4162 0962 C820     		movs	r0, #200
 4163 0964 FFF7FEFF 		bl	LCD_WR_REG
 4164              	.LVL606:
 842:Core/Src/fsmc.c ****     LCD_WR_DATA(0x00);
 4165              		.loc 1 842 5 view .LVU1163
 4166 0968 0020     		movs	r0, #0
 4167 096a FFF7FEFF 		bl	LCD_WR_DATA
 4168              	.LVL607:
 843:Core/Src/fsmc.c ****     LCD_WR_DATA(0x00);
 4169              		.loc 1 843 5 view .LVU1164
 4170 096e 0020     		movs	r0, #0
 4171 0970 FFF7FEFF 		bl	LCD_WR_DATA
 4172              	.LVL608:
 844:Core/Src/fsmc.c ****     LCD_WR_DATA(0x00);
 4173              		.loc 1 844 5 view .LVU1165
 4174 0974 0020     		movs	r0, #0
 4175 0976 FFF7FEFF 		bl	LCD_WR_DATA
 4176              	.LVL609:
 845:Core/Src/fsmc.c **** 
 4177              		.loc 1 845 5 view .LVU1166
 4178 097a 0020     		movs	r0, #0
 4179 097c FFF7FEFF 		bl	LCD_WR_DATA
 4180              	.LVL610:
 847:Core/Src/fsmc.c ****     LCD_WR_DATA(0x00);
 4181              		.loc 1 847 5 view .LVU1167
 4182 0980 C920     		movs	r0, #201
 4183 0982 FFF7FEFF 		bl	LCD_WR_REG
 4184              	.LVL611:
 848:Core/Src/fsmc.c ****     LCD_WR_DATA(0x00);
 4185              		.loc 1 848 5 view .LVU1168
 4186 0986 0020     		movs	r0, #0
 4187 0988 FFF7FEFF 		bl	LCD_WR_DATA
 4188              	.LVL612:
 849:Core/Src/fsmc.c ****     LCD_WR_DATA(0x00);
 4189              		.loc 1 849 5 view .LVU1169
 4190 098c 0020     		movs	r0, #0
 4191 098e FFF7FEFF 		bl	LCD_WR_DATA
 4192              	.LVL613:
 850:Core/Src/fsmc.c ****     LCD_WR_DATA(0x00);
 4193              		.loc 1 850 5 view .LVU1170
 4194 0992 0020     		movs	r0, #0
 4195 0994 FFF7FEFF 		bl	LCD_WR_DATA
 4196              	.LVL614:
 851:Core/Src/fsmc.c ****     LCD_WR_DATA(0x00);
 4197              		.loc 1 851 5 view .LVU1171
 4198 0998 0020     		movs	r0, #0
 4199 099a FFF7FEFF 		bl	LCD_WR_DATA
 4200              	.LVL615:
 852:Core/Src/fsmc.c ****     LCD_WR_DATA(0x00);
 4201              		.loc 1 852 5 view .LVU1172
 4202 099e 0020     		movs	r0, #0
ARM GAS  /tmp/ccE1vrH2.s 			page 131


 4203 09a0 FFF7FEFF 		bl	LCD_WR_DATA
 4204              	.LVL616:
 853:Core/Src/fsmc.c ****     LCD_WR_DATA(0x00);
 4205              		.loc 1 853 5 view .LVU1173
 4206 09a4 0020     		movs	r0, #0
 4207 09a6 FFF7FEFF 		bl	LCD_WR_DATA
 4208              	.LVL617:
 854:Core/Src/fsmc.c ****     LCD_WR_DATA(0x00);
 4209              		.loc 1 854 5 view .LVU1174
 4210 09aa 0020     		movs	r0, #0
 4211 09ac FFF7FEFF 		bl	LCD_WR_DATA
 4212              	.LVL618:
 855:Core/Src/fsmc.c ****     LCD_WR_DATA(0x00);
 4213              		.loc 1 855 5 view .LVU1175
 4214 09b0 0020     		movs	r0, #0
 4215 09b2 FFF7FEFF 		bl	LCD_WR_DATA
 4216              	.LVL619:
 856:Core/Src/fsmc.c ****     LCD_WR_DATA(0x00);
 4217              		.loc 1 856 5 view .LVU1176
 4218 09b6 0020     		movs	r0, #0
 4219 09b8 FFF7FEFF 		bl	LCD_WR_DATA
 4220              	.LVL620:
 857:Core/Src/fsmc.c ****     LCD_WR_DATA(0x00);
 4221              		.loc 1 857 5 view .LVU1177
 4222 09bc 0020     		movs	r0, #0
 4223 09be FFF7FEFF 		bl	LCD_WR_DATA
 4224              	.LVL621:
 858:Core/Src/fsmc.c ****     LCD_WR_DATA(0x00);
 4225              		.loc 1 858 5 view .LVU1178
 4226 09c2 0020     		movs	r0, #0
 4227 09c4 FFF7FEFF 		bl	LCD_WR_DATA
 4228              	.LVL622:
 859:Core/Src/fsmc.c ****     LCD_WR_DATA(0x00);
 4229              		.loc 1 859 5 view .LVU1179
 4230 09c8 0020     		movs	r0, #0
 4231 09ca FFF7FEFF 		bl	LCD_WR_DATA
 4232              	.LVL623:
 860:Core/Src/fsmc.c ****     LCD_WR_DATA(0x00);
 4233              		.loc 1 860 5 view .LVU1180
 4234 09ce 0020     		movs	r0, #0
 4235 09d0 FFF7FEFF 		bl	LCD_WR_DATA
 4236              	.LVL624:
 861:Core/Src/fsmc.c ****     LCD_WR_DATA(0x00);
 4237              		.loc 1 861 5 view .LVU1181
 4238 09d4 0020     		movs	r0, #0
 4239 09d6 FFF7FEFF 		bl	LCD_WR_DATA
 4240              	.LVL625:
 862:Core/Src/fsmc.c ****     LCD_WR_DATA(0x00);
 4241              		.loc 1 862 5 view .LVU1182
 4242 09da 0020     		movs	r0, #0
 4243 09dc FFF7FEFF 		bl	LCD_WR_DATA
 4244              	.LVL626:
 863:Core/Src/fsmc.c **** 
 4245              		.loc 1 863 5 view .LVU1183
 4246 09e0 0020     		movs	r0, #0
 4247 09e2 FFF7FEFF 		bl	LCD_WR_DATA
 4248              	.LVL627:
ARM GAS  /tmp/ccE1vrH2.s 			page 132


 865:Core/Src/fsmc.c ****     LCD_WR_DATA(0x16);
 4249              		.loc 1 865 5 view .LVU1184
 4250 09e6 E020     		movs	r0, #224
 4251 09e8 FFF7FEFF 		bl	LCD_WR_REG
 4252              	.LVL628:
 866:Core/Src/fsmc.c ****     LCD_WR_DATA(0x00);
 4253              		.loc 1 866 5 view .LVU1185
 4254 09ec 1620     		movs	r0, #22
 4255 09ee FFF7FEFF 		bl	LCD_WR_DATA
 4256              	.LVL629:
 867:Core/Src/fsmc.c ****     LCD_WR_DATA(0x1C);
 4257              		.loc 1 867 5 view .LVU1186
 4258 09f2 0020     		movs	r0, #0
 4259 09f4 FFF7FEFF 		bl	LCD_WR_DATA
 4260              	.LVL630:
 868:Core/Src/fsmc.c ****     LCD_WR_DATA(0x00);
 4261              		.loc 1 868 5 view .LVU1187
 4262 09f8 1C20     		movs	r0, #28
 4263 09fa FFF7FEFF 		bl	LCD_WR_DATA
 4264              	.LVL631:
 869:Core/Src/fsmc.c ****     LCD_WR_DATA(0x21);
 4265              		.loc 1 869 5 view .LVU1188
 4266 09fe 0020     		movs	r0, #0
 4267 0a00 FFF7FEFF 		bl	LCD_WR_DATA
 4268              	.LVL632:
 870:Core/Src/fsmc.c ****     LCD_WR_DATA(0x00);
 4269              		.loc 1 870 5 view .LVU1189
 4270 0a04 2120     		movs	r0, #33
 4271 0a06 FFF7FEFF 		bl	LCD_WR_DATA
 4272              	.LVL633:
 871:Core/Src/fsmc.c ****     LCD_WR_DATA(0x36);
 4273              		.loc 1 871 5 view .LVU1190
 4274 0a0a 0020     		movs	r0, #0
 4275 0a0c FFF7FEFF 		bl	LCD_WR_DATA
 4276              	.LVL634:
 872:Core/Src/fsmc.c ****     LCD_WR_DATA(0x00);
 4277              		.loc 1 872 5 view .LVU1191
 4278 0a10 3620     		movs	r0, #54
 4279 0a12 FFF7FEFF 		bl	LCD_WR_DATA
 4280              	.LVL635:
 873:Core/Src/fsmc.c ****     LCD_WR_DATA(0x46);
 4281              		.loc 1 873 5 view .LVU1192
 4282 0a16 0020     		movs	r0, #0
 4283 0a18 FFF7FEFF 		bl	LCD_WR_DATA
 4284              	.LVL636:
 874:Core/Src/fsmc.c ****     LCD_WR_DATA(0x00);
 4285              		.loc 1 874 5 view .LVU1193
 4286 0a1c 4620     		movs	r0, #70
 4287 0a1e FFF7FEFF 		bl	LCD_WR_DATA
 4288              	.LVL637:
 875:Core/Src/fsmc.c ****     LCD_WR_DATA(0x52);
 4289              		.loc 1 875 5 view .LVU1194
 4290 0a22 0020     		movs	r0, #0
 4291 0a24 FFF7FEFF 		bl	LCD_WR_DATA
 4292              	.LVL638:
 876:Core/Src/fsmc.c ****     LCD_WR_DATA(0x00);
 4293              		.loc 1 876 5 view .LVU1195
ARM GAS  /tmp/ccE1vrH2.s 			page 133


 4294 0a28 5220     		movs	r0, #82
 4295 0a2a FFF7FEFF 		bl	LCD_WR_DATA
 4296              	.LVL639:
 877:Core/Src/fsmc.c ****     LCD_WR_DATA(0x64);
 4297              		.loc 1 877 5 view .LVU1196
 4298 0a2e 0020     		movs	r0, #0
 4299 0a30 FFF7FEFF 		bl	LCD_WR_DATA
 4300              	.LVL640:
 878:Core/Src/fsmc.c ****     LCD_WR_DATA(0x00);
 4301              		.loc 1 878 5 view .LVU1197
 4302 0a34 6420     		movs	r0, #100
 4303 0a36 FFF7FEFF 		bl	LCD_WR_DATA
 4304              	.LVL641:
 879:Core/Src/fsmc.c ****     LCD_WR_DATA(0x7A);
 4305              		.loc 1 879 5 view .LVU1198
 4306 0a3a 0020     		movs	r0, #0
 4307 0a3c FFF7FEFF 		bl	LCD_WR_DATA
 4308              	.LVL642:
 880:Core/Src/fsmc.c ****     LCD_WR_DATA(0x00);
 4309              		.loc 1 880 5 view .LVU1199
 4310 0a40 7A20     		movs	r0, #122
 4311 0a42 FFF7FEFF 		bl	LCD_WR_DATA
 4312              	.LVL643:
 881:Core/Src/fsmc.c ****     LCD_WR_DATA(0x8B);
 4313              		.loc 1 881 5 view .LVU1200
 4314 0a46 0020     		movs	r0, #0
 4315 0a48 FFF7FEFF 		bl	LCD_WR_DATA
 4316              	.LVL644:
 882:Core/Src/fsmc.c ****     LCD_WR_DATA(0x00);
 4317              		.loc 1 882 5 view .LVU1201
 4318 0a4c 8B20     		movs	r0, #139
 4319 0a4e FFF7FEFF 		bl	LCD_WR_DATA
 4320              	.LVL645:
 883:Core/Src/fsmc.c ****     LCD_WR_DATA(0x99);
 4321              		.loc 1 883 5 view .LVU1202
 4322 0a52 0020     		movs	r0, #0
 4323 0a54 FFF7FEFF 		bl	LCD_WR_DATA
 4324              	.LVL646:
 884:Core/Src/fsmc.c ****     LCD_WR_DATA(0x00);
 4325              		.loc 1 884 5 view .LVU1203
 4326 0a58 9920     		movs	r0, #153
 4327 0a5a FFF7FEFF 		bl	LCD_WR_DATA
 4328              	.LVL647:
 885:Core/Src/fsmc.c ****     LCD_WR_DATA(0xA8);
 4329              		.loc 1 885 5 view .LVU1204
 4330 0a5e 0020     		movs	r0, #0
 4331 0a60 FFF7FEFF 		bl	LCD_WR_DATA
 4332              	.LVL648:
 886:Core/Src/fsmc.c ****     LCD_WR_DATA(0x00);
 4333              		.loc 1 886 5 view .LVU1205
 4334 0a64 A820     		movs	r0, #168
 4335 0a66 FFF7FEFF 		bl	LCD_WR_DATA
 4336              	.LVL649:
 887:Core/Src/fsmc.c ****     LCD_WR_DATA(0xB9);
 4337              		.loc 1 887 5 view .LVU1206
 4338 0a6a 0020     		movs	r0, #0
 4339 0a6c FFF7FEFF 		bl	LCD_WR_DATA
ARM GAS  /tmp/ccE1vrH2.s 			page 134


 4340              	.LVL650:
 888:Core/Src/fsmc.c ****     LCD_WR_DATA(0x00);
 4341              		.loc 1 888 5 view .LVU1207
 4342 0a70 B920     		movs	r0, #185
 4343 0a72 FFF7FEFF 		bl	LCD_WR_DATA
 4344              	.LVL651:
 889:Core/Src/fsmc.c ****     LCD_WR_DATA(0xC4);
 4345              		.loc 1 889 5 view .LVU1208
 4346 0a76 0020     		movs	r0, #0
 4347 0a78 FFF7FEFF 		bl	LCD_WR_DATA
 4348              	.LVL652:
 890:Core/Src/fsmc.c ****     LCD_WR_DATA(0x00);
 4349              		.loc 1 890 5 view .LVU1209
 4350 0a7c C420     		movs	r0, #196
 4351 0a7e FFF7FEFF 		bl	LCD_WR_DATA
 4352              	.LVL653:
 891:Core/Src/fsmc.c ****     LCD_WR_DATA(0xCA);
 4353              		.loc 1 891 5 view .LVU1210
 4354 0a82 0020     		movs	r0, #0
 4355 0a84 FFF7FEFF 		bl	LCD_WR_DATA
 4356              	.LVL654:
 892:Core/Src/fsmc.c ****     LCD_WR_DATA(0x00);
 4357              		.loc 1 892 5 view .LVU1211
 4358 0a88 CA20     		movs	r0, #202
 4359 0a8a FFF7FEFF 		bl	LCD_WR_DATA
 4360              	.LVL655:
 893:Core/Src/fsmc.c ****     LCD_WR_DATA(0xD2);
 4361              		.loc 1 893 5 view .LVU1212
 4362 0a8e 0020     		movs	r0, #0
 4363 0a90 FFF7FEFF 		bl	LCD_WR_DATA
 4364              	.LVL656:
 894:Core/Src/fsmc.c ****     LCD_WR_DATA(0x00);
 4365              		.loc 1 894 5 view .LVU1213
 4366 0a94 D220     		movs	r0, #210
 4367 0a96 FFF7FEFF 		bl	LCD_WR_DATA
 4368              	.LVL657:
 895:Core/Src/fsmc.c ****     LCD_WR_DATA(0xD9);
 4369              		.loc 1 895 5 view .LVU1214
 4370 0a9a 0020     		movs	r0, #0
 4371 0a9c FFF7FEFF 		bl	LCD_WR_DATA
 4372              	.LVL658:
 896:Core/Src/fsmc.c ****     LCD_WR_DATA(0x00);
 4373              		.loc 1 896 5 view .LVU1215
 4374 0aa0 D920     		movs	r0, #217
 4375 0aa2 FFF7FEFF 		bl	LCD_WR_DATA
 4376              	.LVL659:
 897:Core/Src/fsmc.c ****     LCD_WR_DATA(0xE0);
 4377              		.loc 1 897 5 view .LVU1216
 4378 0aa6 0020     		movs	r0, #0
 4379 0aa8 FFF7FEFF 		bl	LCD_WR_DATA
 4380              	.LVL660:
 898:Core/Src/fsmc.c ****     LCD_WR_DATA(0x00);
 4381              		.loc 1 898 5 view .LVU1217
 4382 0aac E020     		movs	r0, #224
 4383 0aae FFF7FEFF 		bl	LCD_WR_DATA
 4384              	.LVL661:
 899:Core/Src/fsmc.c ****     LCD_WR_DATA(0xF3);
ARM GAS  /tmp/ccE1vrH2.s 			page 135


 4385              		.loc 1 899 5 view .LVU1218
 4386 0ab2 0020     		movs	r0, #0
 4387 0ab4 FFF7FEFF 		bl	LCD_WR_DATA
 4388              	.LVL662:
 900:Core/Src/fsmc.c ****     LCD_WR_DATA(0x00);
 4389              		.loc 1 900 5 view .LVU1219
 4390 0ab8 F320     		movs	r0, #243
 4391 0aba FFF7FEFF 		bl	LCD_WR_DATA
 4392              	.LVL663:
 901:Core/Src/fsmc.c **** 
 4393              		.loc 1 901 5 view .LVU1220
 4394 0abe 0020     		movs	r0, #0
 4395 0ac0 FFF7FEFF 		bl	LCD_WR_DATA
 4396              	.LVL664:
 903:Core/Src/fsmc.c ****     LCD_WR_DATA(0x16);
 4397              		.loc 1 903 5 view .LVU1221
 4398 0ac4 E120     		movs	r0, #225
 4399 0ac6 FFF7FEFF 		bl	LCD_WR_REG
 4400              	.LVL665:
 904:Core/Src/fsmc.c ****     LCD_WR_DATA(0x00);
 4401              		.loc 1 904 5 view .LVU1222
 4402 0aca 1620     		movs	r0, #22
 4403 0acc FFF7FEFF 		bl	LCD_WR_DATA
 4404              	.LVL666:
 905:Core/Src/fsmc.c ****     LCD_WR_DATA(0x1C);
 4405              		.loc 1 905 5 view .LVU1223
 4406 0ad0 0020     		movs	r0, #0
 4407 0ad2 FFF7FEFF 		bl	LCD_WR_DATA
 4408              	.LVL667:
 906:Core/Src/fsmc.c ****     LCD_WR_DATA(0x00);
 4409              		.loc 1 906 5 view .LVU1224
 4410 0ad6 1C20     		movs	r0, #28
 4411 0ad8 FFF7FEFF 		bl	LCD_WR_DATA
 4412              	.LVL668:
 907:Core/Src/fsmc.c ****     LCD_WR_DATA(0x22);
 4413              		.loc 1 907 5 view .LVU1225
 4414 0adc 0020     		movs	r0, #0
 4415 0ade FFF7FEFF 		bl	LCD_WR_DATA
 4416              	.LVL669:
 908:Core/Src/fsmc.c ****     LCD_WR_DATA(0x00);
 4417              		.loc 1 908 5 view .LVU1226
 4418 0ae2 2220     		movs	r0, #34
 4419 0ae4 FFF7FEFF 		bl	LCD_WR_DATA
 4420              	.LVL670:
 909:Core/Src/fsmc.c ****     LCD_WR_DATA(0x36);
 4421              		.loc 1 909 5 view .LVU1227
 4422 0ae8 0020     		movs	r0, #0
 4423 0aea FFF7FEFF 		bl	LCD_WR_DATA
 4424              	.LVL671:
 910:Core/Src/fsmc.c ****     LCD_WR_DATA(0x00);
 4425              		.loc 1 910 5 view .LVU1228
 4426 0aee 3620     		movs	r0, #54
 4427 0af0 FFF7FEFF 		bl	LCD_WR_DATA
 4428              	.LVL672:
 911:Core/Src/fsmc.c ****     LCD_WR_DATA(0x45);
 4429              		.loc 1 911 5 view .LVU1229
 4430 0af4 0020     		movs	r0, #0
ARM GAS  /tmp/ccE1vrH2.s 			page 136


 4431 0af6 FFF7FEFF 		bl	LCD_WR_DATA
 4432              	.LVL673:
 912:Core/Src/fsmc.c ****     LCD_WR_DATA(0x00);
 4433              		.loc 1 912 5 view .LVU1230
 4434 0afa 4520     		movs	r0, #69
 4435 0afc FFF7FEFF 		bl	LCD_WR_DATA
 4436              	.LVL674:
 913:Core/Src/fsmc.c ****     LCD_WR_DATA(0x52);
 4437              		.loc 1 913 5 view .LVU1231
 4438 0b00 0020     		movs	r0, #0
 4439 0b02 FFF7FEFF 		bl	LCD_WR_DATA
 4440              	.LVL675:
 914:Core/Src/fsmc.c ****     LCD_WR_DATA(0x00);
 4441              		.loc 1 914 5 view .LVU1232
 4442 0b06 5220     		movs	r0, #82
 4443 0b08 FFF7FEFF 		bl	LCD_WR_DATA
 4444              	.LVL676:
 915:Core/Src/fsmc.c ****     LCD_WR_DATA(0x64);
 4445              		.loc 1 915 5 view .LVU1233
 4446 0b0c 0020     		movs	r0, #0
 4447 0b0e FFF7FEFF 		bl	LCD_WR_DATA
 4448              	.LVL677:
 916:Core/Src/fsmc.c ****     LCD_WR_DATA(0x00);
 4449              		.loc 1 916 5 view .LVU1234
 4450 0b12 6420     		movs	r0, #100
 4451 0b14 FFF7FEFF 		bl	LCD_WR_DATA
 4452              	.LVL678:
 917:Core/Src/fsmc.c ****     LCD_WR_DATA(0x7A);
 4453              		.loc 1 917 5 view .LVU1235
 4454 0b18 0020     		movs	r0, #0
 4455 0b1a FFF7FEFF 		bl	LCD_WR_DATA
 4456              	.LVL679:
 918:Core/Src/fsmc.c ****     LCD_WR_DATA(0x00);
 4457              		.loc 1 918 5 view .LVU1236
 4458 0b1e 7A20     		movs	r0, #122
 4459 0b20 FFF7FEFF 		bl	LCD_WR_DATA
 4460              	.LVL680:
 919:Core/Src/fsmc.c ****     LCD_WR_DATA(0x8B);
 4461              		.loc 1 919 5 view .LVU1237
 4462 0b24 0020     		movs	r0, #0
 4463 0b26 FFF7FEFF 		bl	LCD_WR_DATA
 4464              	.LVL681:
 920:Core/Src/fsmc.c ****     LCD_WR_DATA(0x00);
 4465              		.loc 1 920 5 view .LVU1238
 4466 0b2a 8B20     		movs	r0, #139
 4467 0b2c FFF7FEFF 		bl	LCD_WR_DATA
 4468              	.LVL682:
 921:Core/Src/fsmc.c ****     LCD_WR_DATA(0x99);
 4469              		.loc 1 921 5 view .LVU1239
 4470 0b30 0020     		movs	r0, #0
 4471 0b32 FFF7FEFF 		bl	LCD_WR_DATA
 4472              	.LVL683:
 922:Core/Src/fsmc.c ****     LCD_WR_DATA(0x00);
 4473              		.loc 1 922 5 view .LVU1240
 4474 0b36 9920     		movs	r0, #153
 4475 0b38 FFF7FEFF 		bl	LCD_WR_DATA
 4476              	.LVL684:
ARM GAS  /tmp/ccE1vrH2.s 			page 137


 923:Core/Src/fsmc.c ****     LCD_WR_DATA(0xA8);
 4477              		.loc 1 923 5 view .LVU1241
 4478 0b3c 0020     		movs	r0, #0
 4479 0b3e FFF7FEFF 		bl	LCD_WR_DATA
 4480              	.LVL685:
 924:Core/Src/fsmc.c ****     LCD_WR_DATA(0x00);
 4481              		.loc 1 924 5 view .LVU1242
 4482 0b42 A820     		movs	r0, #168
 4483 0b44 FFF7FEFF 		bl	LCD_WR_DATA
 4484              	.LVL686:
 925:Core/Src/fsmc.c ****     LCD_WR_DATA(0xB9);
 4485              		.loc 1 925 5 view .LVU1243
 4486 0b48 0020     		movs	r0, #0
 4487 0b4a FFF7FEFF 		bl	LCD_WR_DATA
 4488              	.LVL687:
 926:Core/Src/fsmc.c ****     LCD_WR_DATA(0x00);
 4489              		.loc 1 926 5 view .LVU1244
 4490 0b4e B920     		movs	r0, #185
 4491 0b50 FFF7FEFF 		bl	LCD_WR_DATA
 4492              	.LVL688:
 927:Core/Src/fsmc.c ****     LCD_WR_DATA(0xC4);
 4493              		.loc 1 927 5 view .LVU1245
 4494 0b54 0020     		movs	r0, #0
 4495 0b56 FFF7FEFF 		bl	LCD_WR_DATA
 4496              	.LVL689:
 928:Core/Src/fsmc.c ****     LCD_WR_DATA(0x00);
 4497              		.loc 1 928 5 view .LVU1246
 4498 0b5a C420     		movs	r0, #196
 4499 0b5c FFF7FEFF 		bl	LCD_WR_DATA
 4500              	.LVL690:
 929:Core/Src/fsmc.c ****     LCD_WR_DATA(0xCA);
 4501              		.loc 1 929 5 view .LVU1247
 4502 0b60 0020     		movs	r0, #0
 4503 0b62 FFF7FEFF 		bl	LCD_WR_DATA
 4504              	.LVL691:
 930:Core/Src/fsmc.c ****     LCD_WR_DATA(0x00);
 4505              		.loc 1 930 5 view .LVU1248
 4506 0b66 CA20     		movs	r0, #202
 4507 0b68 FFF7FEFF 		bl	LCD_WR_DATA
 4508              	.LVL692:
 931:Core/Src/fsmc.c ****     LCD_WR_DATA(0xD2);
 4509              		.loc 1 931 5 view .LVU1249
 4510 0b6c 0020     		movs	r0, #0
 4511 0b6e FFF7FEFF 		bl	LCD_WR_DATA
 4512              	.LVL693:
 932:Core/Src/fsmc.c ****     LCD_WR_DATA(0x00);
 4513              		.loc 1 932 5 view .LVU1250
 4514 0b72 D220     		movs	r0, #210
 4515 0b74 FFF7FEFF 		bl	LCD_WR_DATA
 4516              	.LVL694:
 933:Core/Src/fsmc.c ****     LCD_WR_DATA(0xD8);
 4517              		.loc 1 933 5 view .LVU1251
 4518 0b78 0020     		movs	r0, #0
 4519 0b7a FFF7FEFF 		bl	LCD_WR_DATA
 4520              	.LVL695:
 934:Core/Src/fsmc.c ****     LCD_WR_DATA(0x00);
 4521              		.loc 1 934 5 view .LVU1252
ARM GAS  /tmp/ccE1vrH2.s 			page 138


 4522 0b7e D820     		movs	r0, #216
 4523 0b80 FFF7FEFF 		bl	LCD_WR_DATA
 4524              	.LVL696:
 935:Core/Src/fsmc.c ****     LCD_WR_DATA(0xE0);
 4525              		.loc 1 935 5 view .LVU1253
 4526 0b84 0020     		movs	r0, #0
 4527 0b86 FFF7FEFF 		bl	LCD_WR_DATA
 4528              	.LVL697:
 936:Core/Src/fsmc.c ****     LCD_WR_DATA(0x00);
 4529              		.loc 1 936 5 view .LVU1254
 4530 0b8a E020     		movs	r0, #224
 4531 0b8c FFF7FEFF 		bl	LCD_WR_DATA
 4532              	.LVL698:
 937:Core/Src/fsmc.c ****     LCD_WR_DATA(0xF3);
 4533              		.loc 1 937 5 view .LVU1255
 4534 0b90 0020     		movs	r0, #0
 4535 0b92 FFF7FEFF 		bl	LCD_WR_DATA
 4536              	.LVL699:
 938:Core/Src/fsmc.c ****     LCD_WR_DATA(0x00);
 4537              		.loc 1 938 5 view .LVU1256
 4538 0b96 F320     		movs	r0, #243
 4539 0b98 FFF7FEFF 		bl	LCD_WR_DATA
 4540              	.LVL700:
 939:Core/Src/fsmc.c **** 
 4541              		.loc 1 939 5 view .LVU1257
 4542 0b9c 0020     		movs	r0, #0
 4543 0b9e FFF7FEFF 		bl	LCD_WR_DATA
 4544              	.LVL701:
 941:Core/Src/fsmc.c ****     LCD_WR_DATA(0x05);
 4545              		.loc 1 941 5 view .LVU1258
 4546 0ba2 E220     		movs	r0, #226
 4547 0ba4 FFF7FEFF 		bl	LCD_WR_REG
 4548              	.LVL702:
 942:Core/Src/fsmc.c ****     LCD_WR_DATA(0x00);
 4549              		.loc 1 942 5 view .LVU1259
 4550 0ba8 0520     		movs	r0, #5
 4551 0baa FFF7FEFF 		bl	LCD_WR_DATA
 4552              	.LVL703:
 943:Core/Src/fsmc.c ****     LCD_WR_DATA(0x0B);
 4553              		.loc 1 943 5 view .LVU1260
 4554 0bae 0020     		movs	r0, #0
 4555 0bb0 FFF7FEFF 		bl	LCD_WR_DATA
 4556              	.LVL704:
 944:Core/Src/fsmc.c ****     LCD_WR_DATA(0x00);
 4557              		.loc 1 944 5 view .LVU1261
 4558 0bb4 0B20     		movs	r0, #11
 4559 0bb6 FFF7FEFF 		bl	LCD_WR_DATA
 4560              	.LVL705:
 945:Core/Src/fsmc.c ****     LCD_WR_DATA(0x1B);
 4561              		.loc 1 945 5 view .LVU1262
 4562 0bba 0020     		movs	r0, #0
 4563 0bbc FFF7FEFF 		bl	LCD_WR_DATA
 4564              	.LVL706:
 946:Core/Src/fsmc.c ****     LCD_WR_DATA(0x00);
 4565              		.loc 1 946 5 view .LVU1263
 4566 0bc0 1B20     		movs	r0, #27
 4567 0bc2 FFF7FEFF 		bl	LCD_WR_DATA
ARM GAS  /tmp/ccE1vrH2.s 			page 139


 4568              	.LVL707:
 947:Core/Src/fsmc.c ****     LCD_WR_DATA(0x34);
 4569              		.loc 1 947 5 view .LVU1264
 4570 0bc6 0020     		movs	r0, #0
 4571 0bc8 FFF7FEFF 		bl	LCD_WR_DATA
 4572              	.LVL708:
 948:Core/Src/fsmc.c ****     LCD_WR_DATA(0x00);
 4573              		.loc 1 948 5 view .LVU1265
 4574 0bcc 3420     		movs	r0, #52
 4575 0bce FFF7FEFF 		bl	LCD_WR_DATA
 4576              	.LVL709:
 949:Core/Src/fsmc.c ****     LCD_WR_DATA(0x44);
 4577              		.loc 1 949 5 view .LVU1266
 4578 0bd2 0020     		movs	r0, #0
 4579 0bd4 FFF7FEFF 		bl	LCD_WR_DATA
 4580              	.LVL710:
 950:Core/Src/fsmc.c ****     LCD_WR_DATA(0x00);
 4581              		.loc 1 950 5 view .LVU1267
 4582 0bd8 4420     		movs	r0, #68
 4583 0bda FFF7FEFF 		bl	LCD_WR_DATA
 4584              	.LVL711:
 951:Core/Src/fsmc.c ****     LCD_WR_DATA(0x4F);
 4585              		.loc 1 951 5 view .LVU1268
 4586 0bde 0020     		movs	r0, #0
 4587 0be0 FFF7FEFF 		bl	LCD_WR_DATA
 4588              	.LVL712:
 952:Core/Src/fsmc.c ****     LCD_WR_DATA(0x00);
 4589              		.loc 1 952 5 view .LVU1269
 4590 0be4 4F20     		movs	r0, #79
 4591 0be6 FFF7FEFF 		bl	LCD_WR_DATA
 4592              	.LVL713:
 953:Core/Src/fsmc.c ****     LCD_WR_DATA(0x61);
 4593              		.loc 1 953 5 view .LVU1270
 4594 0bea 0020     		movs	r0, #0
 4595 0bec FFF7FEFF 		bl	LCD_WR_DATA
 4596              	.LVL714:
 954:Core/Src/fsmc.c ****     LCD_WR_DATA(0x00);
 4597              		.loc 1 954 5 view .LVU1271
 4598 0bf0 6120     		movs	r0, #97
 4599 0bf2 FFF7FEFF 		bl	LCD_WR_DATA
 4600              	.LVL715:
 955:Core/Src/fsmc.c ****     LCD_WR_DATA(0x79);
 4601              		.loc 1 955 5 view .LVU1272
 4602 0bf6 0020     		movs	r0, #0
 4603 0bf8 FFF7FEFF 		bl	LCD_WR_DATA
 4604              	.LVL716:
 956:Core/Src/fsmc.c ****     LCD_WR_DATA(0x00);
 4605              		.loc 1 956 5 view .LVU1273
 4606 0bfc 7920     		movs	r0, #121
 4607 0bfe FFF7FEFF 		bl	LCD_WR_DATA
 4608              	.LVL717:
 957:Core/Src/fsmc.c ****     LCD_WR_DATA(0x88);
 4609              		.loc 1 957 5 view .LVU1274
 4610 0c02 0020     		movs	r0, #0
 4611 0c04 FFF7FEFF 		bl	LCD_WR_DATA
 4612              	.LVL718:
 958:Core/Src/fsmc.c ****     LCD_WR_DATA(0x00);
ARM GAS  /tmp/ccE1vrH2.s 			page 140


 4613              		.loc 1 958 5 view .LVU1275
 4614 0c08 8820     		movs	r0, #136
 4615 0c0a FFF7FEFF 		bl	LCD_WR_DATA
 4616              	.LVL719:
 959:Core/Src/fsmc.c ****     LCD_WR_DATA(0x97);
 4617              		.loc 1 959 5 view .LVU1276
 4618 0c0e 0020     		movs	r0, #0
 4619 0c10 FFF7FEFF 		bl	LCD_WR_DATA
 4620              	.LVL720:
 960:Core/Src/fsmc.c ****     LCD_WR_DATA(0x00);
 4621              		.loc 1 960 5 view .LVU1277
 4622 0c14 9720     		movs	r0, #151
 4623 0c16 FFF7FEFF 		bl	LCD_WR_DATA
 4624              	.LVL721:
 961:Core/Src/fsmc.c ****     LCD_WR_DATA(0xA6);
 4625              		.loc 1 961 5 view .LVU1278
 4626 0c1a 0020     		movs	r0, #0
 4627 0c1c FFF7FEFF 		bl	LCD_WR_DATA
 4628              	.LVL722:
 962:Core/Src/fsmc.c ****     LCD_WR_DATA(0x00);
 4629              		.loc 1 962 5 view .LVU1279
 4630 0c20 A620     		movs	r0, #166
 4631 0c22 FFF7FEFF 		bl	LCD_WR_DATA
 4632              	.LVL723:
 963:Core/Src/fsmc.c ****     LCD_WR_DATA(0xB7);
 4633              		.loc 1 963 5 view .LVU1280
 4634 0c26 0020     		movs	r0, #0
 4635 0c28 FFF7FEFF 		bl	LCD_WR_DATA
 4636              	.LVL724:
 964:Core/Src/fsmc.c ****     LCD_WR_DATA(0x00);
 4637              		.loc 1 964 5 view .LVU1281
 4638 0c2c B720     		movs	r0, #183
 4639 0c2e FFF7FEFF 		bl	LCD_WR_DATA
 4640              	.LVL725:
 965:Core/Src/fsmc.c ****     LCD_WR_DATA(0xC2);
 4641              		.loc 1 965 5 view .LVU1282
 4642 0c32 0020     		movs	r0, #0
 4643 0c34 FFF7FEFF 		bl	LCD_WR_DATA
 4644              	.LVL726:
 966:Core/Src/fsmc.c ****     LCD_WR_DATA(0x00);
 4645              		.loc 1 966 5 view .LVU1283
 4646 0c38 C220     		movs	r0, #194
 4647 0c3a FFF7FEFF 		bl	LCD_WR_DATA
 4648              	.LVL727:
 967:Core/Src/fsmc.c ****     LCD_WR_DATA(0xC7);
 4649              		.loc 1 967 5 view .LVU1284
 4650 0c3e 0020     		movs	r0, #0
 4651 0c40 FFF7FEFF 		bl	LCD_WR_DATA
 4652              	.LVL728:
 968:Core/Src/fsmc.c ****     LCD_WR_DATA(0x00);
 4653              		.loc 1 968 5 view .LVU1285
 4654 0c44 C720     		movs	r0, #199
 4655 0c46 FFF7FEFF 		bl	LCD_WR_DATA
 4656              	.LVL729:
 969:Core/Src/fsmc.c ****     LCD_WR_DATA(0xD1);
 4657              		.loc 1 969 5 view .LVU1286
 4658 0c4a 0020     		movs	r0, #0
ARM GAS  /tmp/ccE1vrH2.s 			page 141


 4659 0c4c FFF7FEFF 		bl	LCD_WR_DATA
 4660              	.LVL730:
 970:Core/Src/fsmc.c ****     LCD_WR_DATA(0x00);
 4661              		.loc 1 970 5 view .LVU1287
 4662 0c50 D120     		movs	r0, #209
 4663 0c52 FFF7FEFF 		bl	LCD_WR_DATA
 4664              	.LVL731:
 971:Core/Src/fsmc.c ****     LCD_WR_DATA(0xD6);
 4665              		.loc 1 971 5 view .LVU1288
 4666 0c56 0020     		movs	r0, #0
 4667 0c58 FFF7FEFF 		bl	LCD_WR_DATA
 4668              	.LVL732:
 972:Core/Src/fsmc.c ****     LCD_WR_DATA(0x00);
 4669              		.loc 1 972 5 view .LVU1289
 4670 0c5c D620     		movs	r0, #214
 4671 0c5e FFF7FEFF 		bl	LCD_WR_DATA
 4672              	.LVL733:
 973:Core/Src/fsmc.c ****     LCD_WR_DATA(0xDD);
 4673              		.loc 1 973 5 view .LVU1290
 4674 0c62 0020     		movs	r0, #0
 4675 0c64 FFF7FEFF 		bl	LCD_WR_DATA
 4676              	.LVL734:
 974:Core/Src/fsmc.c ****     LCD_WR_DATA(0x00);
 4677              		.loc 1 974 5 view .LVU1291
 4678 0c68 DD20     		movs	r0, #221
 4679 0c6a FFF7FEFF 		bl	LCD_WR_DATA
 4680              	.LVL735:
 975:Core/Src/fsmc.c ****     LCD_WR_DATA(0xF3);
 4681              		.loc 1 975 5 view .LVU1292
 4682 0c6e 0020     		movs	r0, #0
 4683 0c70 FFF7FEFF 		bl	LCD_WR_DATA
 4684              	.LVL736:
 976:Core/Src/fsmc.c ****     LCD_WR_DATA(0x00);
 4685              		.loc 1 976 5 view .LVU1293
 4686 0c74 F320     		movs	r0, #243
 4687 0c76 FFF7FEFF 		bl	LCD_WR_DATA
 4688              	.LVL737:
 977:Core/Src/fsmc.c ****     LCD_WR_REG(0xE3);
 4689              		.loc 1 977 5 view .LVU1294
 4690 0c7a 0020     		movs	r0, #0
 4691 0c7c FFF7FEFF 		bl	LCD_WR_DATA
 4692              	.LVL738:
 978:Core/Src/fsmc.c ****     LCD_WR_DATA(0x05);
 4693              		.loc 1 978 5 view .LVU1295
 4694 0c80 E320     		movs	r0, #227
 4695 0c82 FFF7FEFF 		bl	LCD_WR_REG
 4696              	.LVL739:
 979:Core/Src/fsmc.c ****     LCD_WR_DATA(0x00);
 4697              		.loc 1 979 5 view .LVU1296
 4698 0c86 0520     		movs	r0, #5
 4699 0c88 FFF7FEFF 		bl	LCD_WR_DATA
 4700              	.LVL740:
 980:Core/Src/fsmc.c ****     LCD_WR_DATA(0xA);
 4701              		.loc 1 980 5 view .LVU1297
 4702 0c8c 0020     		movs	r0, #0
 4703 0c8e FFF7FEFF 		bl	LCD_WR_DATA
 4704              	.LVL741:
ARM GAS  /tmp/ccE1vrH2.s 			page 142


 981:Core/Src/fsmc.c ****     LCD_WR_DATA(0x00);
 4705              		.loc 1 981 5 view .LVU1298
 4706 0c92 0A20     		movs	r0, #10
 4707 0c94 FFF7FEFF 		bl	LCD_WR_DATA
 4708              	.LVL742:
 982:Core/Src/fsmc.c ****     LCD_WR_DATA(0x1C);
 4709              		.loc 1 982 5 view .LVU1299
 4710 0c98 0020     		movs	r0, #0
 4711 0c9a FFF7FEFF 		bl	LCD_WR_DATA
 4712              	.LVL743:
 983:Core/Src/fsmc.c ****     LCD_WR_DATA(0x00);
 4713              		.loc 1 983 5 view .LVU1300
 4714 0c9e 1C20     		movs	r0, #28
 4715 0ca0 FFF7FEFF 		bl	LCD_WR_DATA
 4716              	.LVL744:
 984:Core/Src/fsmc.c ****     LCD_WR_DATA(0x33);
 4717              		.loc 1 984 5 view .LVU1301
 4718 0ca4 0020     		movs	r0, #0
 4719 0ca6 FFF7FEFF 		bl	LCD_WR_DATA
 4720              	.LVL745:
 985:Core/Src/fsmc.c ****     LCD_WR_DATA(0x00);
 4721              		.loc 1 985 5 view .LVU1302
 4722 0caa 3320     		movs	r0, #51
 4723 0cac FFF7FEFF 		bl	LCD_WR_DATA
 4724              	.LVL746:
 986:Core/Src/fsmc.c ****     LCD_WR_DATA(0x44);
 4725              		.loc 1 986 5 view .LVU1303
 4726 0cb0 0020     		movs	r0, #0
 4727 0cb2 FFF7FEFF 		bl	LCD_WR_DATA
 4728              	.LVL747:
 987:Core/Src/fsmc.c ****     LCD_WR_DATA(0x00);
 4729              		.loc 1 987 5 view .LVU1304
 4730 0cb6 4420     		movs	r0, #68
 4731 0cb8 FFF7FEFF 		bl	LCD_WR_DATA
 4732              	.LVL748:
 988:Core/Src/fsmc.c ****     LCD_WR_DATA(0x50);
 4733              		.loc 1 988 5 view .LVU1305
 4734 0cbc 0020     		movs	r0, #0
 4735 0cbe FFF7FEFF 		bl	LCD_WR_DATA
 4736              	.LVL749:
 989:Core/Src/fsmc.c ****     LCD_WR_DATA(0x00);
 4737              		.loc 1 989 5 view .LVU1306
 4738 0cc2 5020     		movs	r0, #80
 4739 0cc4 FFF7FEFF 		bl	LCD_WR_DATA
 4740              	.LVL750:
 990:Core/Src/fsmc.c ****     LCD_WR_DATA(0x62);
 4741              		.loc 1 990 5 view .LVU1307
 4742 0cc8 0020     		movs	r0, #0
 4743 0cca FFF7FEFF 		bl	LCD_WR_DATA
 4744              	.LVL751:
 991:Core/Src/fsmc.c ****     LCD_WR_DATA(0x00);
 4745              		.loc 1 991 5 view .LVU1308
 4746 0cce 6220     		movs	r0, #98
 4747 0cd0 FFF7FEFF 		bl	LCD_WR_DATA
 4748              	.LVL752:
 992:Core/Src/fsmc.c ****     LCD_WR_DATA(0x78);
 4749              		.loc 1 992 5 view .LVU1309
ARM GAS  /tmp/ccE1vrH2.s 			page 143


 4750 0cd4 0020     		movs	r0, #0
 4751 0cd6 FFF7FEFF 		bl	LCD_WR_DATA
 4752              	.LVL753:
 993:Core/Src/fsmc.c ****     LCD_WR_DATA(0x00);
 4753              		.loc 1 993 5 view .LVU1310
 4754 0cda 7820     		movs	r0, #120
 4755 0cdc FFF7FEFF 		bl	LCD_WR_DATA
 4756              	.LVL754:
 994:Core/Src/fsmc.c ****     LCD_WR_DATA(0x88);
 4757              		.loc 1 994 5 view .LVU1311
 4758 0ce0 0020     		movs	r0, #0
 4759 0ce2 FFF7FEFF 		bl	LCD_WR_DATA
 4760              	.LVL755:
 995:Core/Src/fsmc.c ****     LCD_WR_DATA(0x00);
 4761              		.loc 1 995 5 view .LVU1312
 4762 0ce6 8820     		movs	r0, #136
 4763 0ce8 FFF7FEFF 		bl	LCD_WR_DATA
 4764              	.LVL756:
 996:Core/Src/fsmc.c ****     LCD_WR_DATA(0x97);
 4765              		.loc 1 996 5 view .LVU1313
 4766 0cec 0020     		movs	r0, #0
 4767 0cee FFF7FEFF 		bl	LCD_WR_DATA
 4768              	.LVL757:
 997:Core/Src/fsmc.c ****     LCD_WR_DATA(0x00);
 4769              		.loc 1 997 5 view .LVU1314
 4770 0cf2 9720     		movs	r0, #151
 4771 0cf4 FFF7FEFF 		bl	LCD_WR_DATA
 4772              	.LVL758:
 998:Core/Src/fsmc.c ****     LCD_WR_DATA(0xA6);
 4773              		.loc 1 998 5 view .LVU1315
 4774 0cf8 0020     		movs	r0, #0
 4775 0cfa FFF7FEFF 		bl	LCD_WR_DATA
 4776              	.LVL759:
 999:Core/Src/fsmc.c ****     LCD_WR_DATA(0x00);
 4777              		.loc 1 999 5 view .LVU1316
 4778 0cfe A620     		movs	r0, #166
 4779 0d00 FFF7FEFF 		bl	LCD_WR_DATA
 4780              	.LVL760:
1000:Core/Src/fsmc.c ****     LCD_WR_DATA(0xB7);
 4781              		.loc 1 1000 5 view .LVU1317
 4782 0d04 0020     		movs	r0, #0
 4783 0d06 FFF7FEFF 		bl	LCD_WR_DATA
 4784              	.LVL761:
1001:Core/Src/fsmc.c ****     LCD_WR_DATA(0x00);
 4785              		.loc 1 1001 5 view .LVU1318
 4786 0d0a B720     		movs	r0, #183
 4787 0d0c FFF7FEFF 		bl	LCD_WR_DATA
 4788              	.LVL762:
1002:Core/Src/fsmc.c ****     LCD_WR_DATA(0xC2);
 4789              		.loc 1 1002 5 view .LVU1319
 4790 0d10 0020     		movs	r0, #0
 4791 0d12 FFF7FEFF 		bl	LCD_WR_DATA
 4792              	.LVL763:
1003:Core/Src/fsmc.c ****     LCD_WR_DATA(0x00);
 4793              		.loc 1 1003 5 view .LVU1320
 4794 0d16 C220     		movs	r0, #194
 4795 0d18 FFF7FEFF 		bl	LCD_WR_DATA
ARM GAS  /tmp/ccE1vrH2.s 			page 144


 4796              	.LVL764:
1004:Core/Src/fsmc.c ****     LCD_WR_DATA(0xC7);
 4797              		.loc 1 1004 5 view .LVU1321
 4798 0d1c 0020     		movs	r0, #0
 4799 0d1e FFF7FEFF 		bl	LCD_WR_DATA
 4800              	.LVL765:
1005:Core/Src/fsmc.c ****     LCD_WR_DATA(0x00);
 4801              		.loc 1 1005 5 view .LVU1322
 4802 0d22 C720     		movs	r0, #199
 4803 0d24 FFF7FEFF 		bl	LCD_WR_DATA
 4804              	.LVL766:
1006:Core/Src/fsmc.c ****     LCD_WR_DATA(0xD1);
 4805              		.loc 1 1006 5 view .LVU1323
 4806 0d28 0020     		movs	r0, #0
 4807 0d2a FFF7FEFF 		bl	LCD_WR_DATA
 4808              	.LVL767:
1007:Core/Src/fsmc.c ****     LCD_WR_DATA(0x00);
 4809              		.loc 1 1007 5 view .LVU1324
 4810 0d2e D120     		movs	r0, #209
 4811 0d30 FFF7FEFF 		bl	LCD_WR_DATA
 4812              	.LVL768:
1008:Core/Src/fsmc.c ****     LCD_WR_DATA(0xD5);
 4813              		.loc 1 1008 5 view .LVU1325
 4814 0d34 0020     		movs	r0, #0
 4815 0d36 FFF7FEFF 		bl	LCD_WR_DATA
 4816              	.LVL769:
1009:Core/Src/fsmc.c ****     LCD_WR_DATA(0x00);
 4817              		.loc 1 1009 5 view .LVU1326
 4818 0d3a D520     		movs	r0, #213
 4819 0d3c FFF7FEFF 		bl	LCD_WR_DATA
 4820              	.LVL770:
1010:Core/Src/fsmc.c ****     LCD_WR_DATA(0xDD);
 4821              		.loc 1 1010 5 view .LVU1327
 4822 0d40 0020     		movs	r0, #0
 4823 0d42 FFF7FEFF 		bl	LCD_WR_DATA
 4824              	.LVL771:
1011:Core/Src/fsmc.c ****     LCD_WR_DATA(0x00);
 4825              		.loc 1 1011 5 view .LVU1328
 4826 0d46 DD20     		movs	r0, #221
 4827 0d48 FFF7FEFF 		bl	LCD_WR_DATA
 4828              	.LVL772:
1012:Core/Src/fsmc.c ****     LCD_WR_DATA(0xF3);
 4829              		.loc 1 1012 5 view .LVU1329
 4830 0d4c 0020     		movs	r0, #0
 4831 0d4e FFF7FEFF 		bl	LCD_WR_DATA
 4832              	.LVL773:
1013:Core/Src/fsmc.c ****     LCD_WR_DATA(0x00);
 4833              		.loc 1 1013 5 view .LVU1330
 4834 0d52 F320     		movs	r0, #243
 4835 0d54 FFF7FEFF 		bl	LCD_WR_DATA
 4836              	.LVL774:
1014:Core/Src/fsmc.c **** 
 4837              		.loc 1 1014 5 view .LVU1331
 4838 0d58 0020     		movs	r0, #0
 4839 0d5a FFF7FEFF 		bl	LCD_WR_DATA
 4840              	.LVL775:
1016:Core/Src/fsmc.c ****     LCD_WR_DATA(0x01);
ARM GAS  /tmp/ccE1vrH2.s 			page 145


 4841              		.loc 1 1016 5 view .LVU1332
 4842 0d5e E420     		movs	r0, #228
 4843 0d60 FFF7FEFF 		bl	LCD_WR_REG
 4844              	.LVL776:
1017:Core/Src/fsmc.c ****     LCD_WR_DATA(0x00);
 4845              		.loc 1 1017 5 view .LVU1333
 4846 0d64 0120     		movs	r0, #1
 4847 0d66 FFF7FEFF 		bl	LCD_WR_DATA
 4848              	.LVL777:
1018:Core/Src/fsmc.c ****     LCD_WR_DATA(0x01);
 4849              		.loc 1 1018 5 view .LVU1334
 4850 0d6a 0020     		movs	r0, #0
 4851 0d6c FFF7FEFF 		bl	LCD_WR_DATA
 4852              	.LVL778:
1019:Core/Src/fsmc.c ****     LCD_WR_DATA(0x00);
 4853              		.loc 1 1019 5 view .LVU1335
 4854 0d70 0120     		movs	r0, #1
 4855 0d72 FFF7FEFF 		bl	LCD_WR_DATA
 4856              	.LVL779:
1020:Core/Src/fsmc.c ****     LCD_WR_DATA(0x02);
 4857              		.loc 1 1020 5 view .LVU1336
 4858 0d76 0020     		movs	r0, #0
 4859 0d78 FFF7FEFF 		bl	LCD_WR_DATA
 4860              	.LVL780:
1021:Core/Src/fsmc.c ****     LCD_WR_DATA(0x00);
 4861              		.loc 1 1021 5 view .LVU1337
 4862 0d7c 0220     		movs	r0, #2
 4863 0d7e FFF7FEFF 		bl	LCD_WR_DATA
 4864              	.LVL781:
1022:Core/Src/fsmc.c ****     LCD_WR_DATA(0x2A);
 4865              		.loc 1 1022 5 view .LVU1338
 4866 0d82 0020     		movs	r0, #0
 4867 0d84 FFF7FEFF 		bl	LCD_WR_DATA
 4868              	.LVL782:
1023:Core/Src/fsmc.c ****     LCD_WR_DATA(0x00);
 4869              		.loc 1 1023 5 view .LVU1339
 4870 0d88 2A20     		movs	r0, #42
 4871 0d8a FFF7FEFF 		bl	LCD_WR_DATA
 4872              	.LVL783:
1024:Core/Src/fsmc.c ****     LCD_WR_DATA(0x3C);
 4873              		.loc 1 1024 5 view .LVU1340
 4874 0d8e 0020     		movs	r0, #0
 4875 0d90 FFF7FEFF 		bl	LCD_WR_DATA
 4876              	.LVL784:
1025:Core/Src/fsmc.c ****     LCD_WR_DATA(0x00);
 4877              		.loc 1 1025 5 view .LVU1341
 4878 0d94 3C20     		movs	r0, #60
 4879 0d96 FFF7FEFF 		bl	LCD_WR_DATA
 4880              	.LVL785:
1026:Core/Src/fsmc.c ****     LCD_WR_DATA(0x4B);
 4881              		.loc 1 1026 5 view .LVU1342
 4882 0d9a 0020     		movs	r0, #0
 4883 0d9c FFF7FEFF 		bl	LCD_WR_DATA
 4884              	.LVL786:
1027:Core/Src/fsmc.c ****     LCD_WR_DATA(0x00);
 4885              		.loc 1 1027 5 view .LVU1343
 4886 0da0 4B20     		movs	r0, #75
ARM GAS  /tmp/ccE1vrH2.s 			page 146


 4887 0da2 FFF7FEFF 		bl	LCD_WR_DATA
 4888              	.LVL787:
1028:Core/Src/fsmc.c ****     LCD_WR_DATA(0x5D);
 4889              		.loc 1 1028 5 view .LVU1344
 4890 0da6 0020     		movs	r0, #0
 4891 0da8 FFF7FEFF 		bl	LCD_WR_DATA
 4892              	.LVL788:
1029:Core/Src/fsmc.c ****     LCD_WR_DATA(0x00);
 4893              		.loc 1 1029 5 view .LVU1345
 4894 0dac 5D20     		movs	r0, #93
 4895 0dae FFF7FEFF 		bl	LCD_WR_DATA
 4896              	.LVL789:
1030:Core/Src/fsmc.c ****     LCD_WR_DATA(0x74);
 4897              		.loc 1 1030 5 view .LVU1346
 4898 0db2 0020     		movs	r0, #0
 4899 0db4 FFF7FEFF 		bl	LCD_WR_DATA
 4900              	.LVL790:
1031:Core/Src/fsmc.c ****     LCD_WR_DATA(0x00);
 4901              		.loc 1 1031 5 view .LVU1347
 4902 0db8 7420     		movs	r0, #116
 4903 0dba FFF7FEFF 		bl	LCD_WR_DATA
 4904              	.LVL791:
1032:Core/Src/fsmc.c ****     LCD_WR_DATA(0x84);
 4905              		.loc 1 1032 5 view .LVU1348
 4906 0dbe 0020     		movs	r0, #0
 4907 0dc0 FFF7FEFF 		bl	LCD_WR_DATA
 4908              	.LVL792:
1033:Core/Src/fsmc.c ****     LCD_WR_DATA(0x00);
 4909              		.loc 1 1033 5 view .LVU1349
 4910 0dc4 8420     		movs	r0, #132
 4911 0dc6 FFF7FEFF 		bl	LCD_WR_DATA
 4912              	.LVL793:
1034:Core/Src/fsmc.c ****     LCD_WR_DATA(0x93);
 4913              		.loc 1 1034 5 view .LVU1350
 4914 0dca 0020     		movs	r0, #0
 4915 0dcc FFF7FEFF 		bl	LCD_WR_DATA
 4916              	.LVL794:
1035:Core/Src/fsmc.c ****     LCD_WR_DATA(0x00);
 4917              		.loc 1 1035 5 view .LVU1351
 4918 0dd0 9320     		movs	r0, #147
 4919 0dd2 FFF7FEFF 		bl	LCD_WR_DATA
 4920              	.LVL795:
1036:Core/Src/fsmc.c ****     LCD_WR_DATA(0xA2);
 4921              		.loc 1 1036 5 view .LVU1352
 4922 0dd6 0020     		movs	r0, #0
 4923 0dd8 FFF7FEFF 		bl	LCD_WR_DATA
 4924              	.LVL796:
1037:Core/Src/fsmc.c ****     LCD_WR_DATA(0x00);
 4925              		.loc 1 1037 5 view .LVU1353
 4926 0ddc A220     		movs	r0, #162
 4927 0dde FFF7FEFF 		bl	LCD_WR_DATA
 4928              	.LVL797:
1038:Core/Src/fsmc.c ****     LCD_WR_DATA(0xB3);
 4929              		.loc 1 1038 5 view .LVU1354
 4930 0de2 0020     		movs	r0, #0
 4931 0de4 FFF7FEFF 		bl	LCD_WR_DATA
 4932              	.LVL798:
ARM GAS  /tmp/ccE1vrH2.s 			page 147


1039:Core/Src/fsmc.c ****     LCD_WR_DATA(0x00);
 4933              		.loc 1 1039 5 view .LVU1355
 4934 0de8 B320     		movs	r0, #179
 4935 0dea FFF7FEFF 		bl	LCD_WR_DATA
 4936              	.LVL799:
1040:Core/Src/fsmc.c ****     LCD_WR_DATA(0xBE);
 4937              		.loc 1 1040 5 view .LVU1356
 4938 0dee 0020     		movs	r0, #0
 4939 0df0 FFF7FEFF 		bl	LCD_WR_DATA
 4940              	.LVL800:
1041:Core/Src/fsmc.c ****     LCD_WR_DATA(0x00);
 4941              		.loc 1 1041 5 view .LVU1357
 4942 0df4 BE20     		movs	r0, #190
 4943 0df6 FFF7FEFF 		bl	LCD_WR_DATA
 4944              	.LVL801:
1042:Core/Src/fsmc.c ****     LCD_WR_DATA(0xC4);
 4945              		.loc 1 1042 5 view .LVU1358
 4946 0dfa 0020     		movs	r0, #0
 4947 0dfc FFF7FEFF 		bl	LCD_WR_DATA
 4948              	.LVL802:
1043:Core/Src/fsmc.c ****     LCD_WR_DATA(0x00);
 4949              		.loc 1 1043 5 view .LVU1359
 4950 0e00 C420     		movs	r0, #196
 4951 0e02 FFF7FEFF 		bl	LCD_WR_DATA
 4952              	.LVL803:
1044:Core/Src/fsmc.c ****     LCD_WR_DATA(0xCD);
 4953              		.loc 1 1044 5 view .LVU1360
 4954 0e06 0020     		movs	r0, #0
 4955 0e08 FFF7FEFF 		bl	LCD_WR_DATA
 4956              	.LVL804:
1045:Core/Src/fsmc.c ****     LCD_WR_DATA(0x00);
 4957              		.loc 1 1045 5 view .LVU1361
 4958 0e0c CD20     		movs	r0, #205
 4959 0e0e FFF7FEFF 		bl	LCD_WR_DATA
 4960              	.LVL805:
1046:Core/Src/fsmc.c ****     LCD_WR_DATA(0xD3);
 4961              		.loc 1 1046 5 view .LVU1362
 4962 0e12 0020     		movs	r0, #0
 4963 0e14 FFF7FEFF 		bl	LCD_WR_DATA
 4964              	.LVL806:
1047:Core/Src/fsmc.c ****     LCD_WR_DATA(0x00);
 4965              		.loc 1 1047 5 view .LVU1363
 4966 0e18 D320     		movs	r0, #211
 4967 0e1a FFF7FEFF 		bl	LCD_WR_DATA
 4968              	.LVL807:
1048:Core/Src/fsmc.c ****     LCD_WR_DATA(0xDD);
 4969              		.loc 1 1048 5 view .LVU1364
 4970 0e1e 0020     		movs	r0, #0
 4971 0e20 FFF7FEFF 		bl	LCD_WR_DATA
 4972              	.LVL808:
1049:Core/Src/fsmc.c ****     LCD_WR_DATA(0x00);
 4973              		.loc 1 1049 5 view .LVU1365
 4974 0e24 DD20     		movs	r0, #221
 4975 0e26 FFF7FEFF 		bl	LCD_WR_DATA
 4976              	.LVL809:
1050:Core/Src/fsmc.c ****     LCD_WR_DATA(0xF3);
 4977              		.loc 1 1050 5 view .LVU1366
ARM GAS  /tmp/ccE1vrH2.s 			page 148


 4978 0e2a 0020     		movs	r0, #0
 4979 0e2c FFF7FEFF 		bl	LCD_WR_DATA
 4980              	.LVL810:
1051:Core/Src/fsmc.c ****     LCD_WR_DATA(0x00);
 4981              		.loc 1 1051 5 view .LVU1367
 4982 0e30 F320     		movs	r0, #243
 4983 0e32 FFF7FEFF 		bl	LCD_WR_DATA
 4984              	.LVL811:
1052:Core/Src/fsmc.c ****     LCD_WR_REG(0xE5);
 4985              		.loc 1 1052 5 view .LVU1368
 4986 0e36 0020     		movs	r0, #0
 4987 0e38 FFF7FEFF 		bl	LCD_WR_DATA
 4988              	.LVL812:
1053:Core/Src/fsmc.c ****     LCD_WR_DATA(0x00);
 4989              		.loc 1 1053 5 view .LVU1369
 4990 0e3c E520     		movs	r0, #229
 4991 0e3e FFF7FEFF 		bl	LCD_WR_REG
 4992              	.LVL813:
1054:Core/Src/fsmc.c ****     LCD_WR_DATA(0x00);
 4993              		.loc 1 1054 5 view .LVU1370
 4994 0e42 0020     		movs	r0, #0
 4995 0e44 FFF7FEFF 		bl	LCD_WR_DATA
 4996              	.LVL814:
1055:Core/Src/fsmc.c ****     LCD_WR_DATA(0x00);
 4997              		.loc 1 1055 5 view .LVU1371
 4998 0e48 0020     		movs	r0, #0
 4999 0e4a FFF7FEFF 		bl	LCD_WR_DATA
 5000              	.LVL815:
1056:Core/Src/fsmc.c ****     LCD_WR_DATA(0x00);
 5001              		.loc 1 1056 5 view .LVU1372
 5002 0e4e 0020     		movs	r0, #0
 5003 0e50 FFF7FEFF 		bl	LCD_WR_DATA
 5004              	.LVL816:
1057:Core/Src/fsmc.c ****     LCD_WR_DATA(0x02);
 5005              		.loc 1 1057 5 view .LVU1373
 5006 0e54 0020     		movs	r0, #0
 5007 0e56 FFF7FEFF 		bl	LCD_WR_DATA
 5008              	.LVL817:
1058:Core/Src/fsmc.c ****     LCD_WR_DATA(0x00);
 5009              		.loc 1 1058 5 view .LVU1374
 5010 0e5a 0220     		movs	r0, #2
 5011 0e5c FFF7FEFF 		bl	LCD_WR_DATA
 5012              	.LVL818:
1059:Core/Src/fsmc.c ****     LCD_WR_DATA(0x29);
 5013              		.loc 1 1059 5 view .LVU1375
 5014 0e60 0020     		movs	r0, #0
 5015 0e62 FFF7FEFF 		bl	LCD_WR_DATA
 5016              	.LVL819:
1060:Core/Src/fsmc.c ****     LCD_WR_DATA(0x00);
 5017              		.loc 1 1060 5 view .LVU1376
 5018 0e66 2920     		movs	r0, #41
 5019 0e68 FFF7FEFF 		bl	LCD_WR_DATA
 5020              	.LVL820:
1061:Core/Src/fsmc.c ****     LCD_WR_DATA(0x3C);
 5021              		.loc 1 1061 5 view .LVU1377
 5022 0e6c 0020     		movs	r0, #0
 5023 0e6e FFF7FEFF 		bl	LCD_WR_DATA
ARM GAS  /tmp/ccE1vrH2.s 			page 149


 5024              	.LVL821:
1062:Core/Src/fsmc.c ****     LCD_WR_DATA(0x00);
 5025              		.loc 1 1062 5 view .LVU1378
 5026 0e72 3C20     		movs	r0, #60
 5027 0e74 FFF7FEFF 		bl	LCD_WR_DATA
 5028              	.LVL822:
1063:Core/Src/fsmc.c ****     LCD_WR_DATA(0x4B);
 5029              		.loc 1 1063 5 view .LVU1379
 5030 0e78 0020     		movs	r0, #0
 5031 0e7a FFF7FEFF 		bl	LCD_WR_DATA
 5032              	.LVL823:
1064:Core/Src/fsmc.c ****     LCD_WR_DATA(0x00);
 5033              		.loc 1 1064 5 view .LVU1380
 5034 0e7e 4B20     		movs	r0, #75
 5035 0e80 FFF7FEFF 		bl	LCD_WR_DATA
 5036              	.LVL824:
1065:Core/Src/fsmc.c ****     LCD_WR_DATA(0x5D);
 5037              		.loc 1 1065 5 view .LVU1381
 5038 0e84 0020     		movs	r0, #0
 5039 0e86 FFF7FEFF 		bl	LCD_WR_DATA
 5040              	.LVL825:
1066:Core/Src/fsmc.c ****     LCD_WR_DATA(0x00);
 5041              		.loc 1 1066 5 view .LVU1382
 5042 0e8a 5D20     		movs	r0, #93
 5043 0e8c FFF7FEFF 		bl	LCD_WR_DATA
 5044              	.LVL826:
1067:Core/Src/fsmc.c ****     LCD_WR_DATA(0x74);
 5045              		.loc 1 1067 5 view .LVU1383
 5046 0e90 0020     		movs	r0, #0
 5047 0e92 FFF7FEFF 		bl	LCD_WR_DATA
 5048              	.LVL827:
1068:Core/Src/fsmc.c ****     LCD_WR_DATA(0x00);
 5049              		.loc 1 1068 5 view .LVU1384
 5050 0e96 7420     		movs	r0, #116
 5051 0e98 FFF7FEFF 		bl	LCD_WR_DATA
 5052              	.LVL828:
1069:Core/Src/fsmc.c ****     LCD_WR_DATA(0x84);
 5053              		.loc 1 1069 5 view .LVU1385
 5054 0e9c 0020     		movs	r0, #0
 5055 0e9e FFF7FEFF 		bl	LCD_WR_DATA
 5056              	.LVL829:
1070:Core/Src/fsmc.c ****     LCD_WR_DATA(0x00);
 5057              		.loc 1 1070 5 view .LVU1386
 5058 0ea2 8420     		movs	r0, #132
 5059 0ea4 FFF7FEFF 		bl	LCD_WR_DATA
 5060              	.LVL830:
1071:Core/Src/fsmc.c ****     LCD_WR_DATA(0x93);
 5061              		.loc 1 1071 5 view .LVU1387
 5062 0ea8 0020     		movs	r0, #0
 5063 0eaa FFF7FEFF 		bl	LCD_WR_DATA
 5064              	.LVL831:
1072:Core/Src/fsmc.c ****     LCD_WR_DATA(0x00);
 5065              		.loc 1 1072 5 view .LVU1388
 5066 0eae 9320     		movs	r0, #147
 5067 0eb0 FFF7FEFF 		bl	LCD_WR_DATA
 5068              	.LVL832:
1073:Core/Src/fsmc.c ****     LCD_WR_DATA(0xA2);
ARM GAS  /tmp/ccE1vrH2.s 			page 150


 5069              		.loc 1 1073 5 view .LVU1389
 5070 0eb4 0020     		movs	r0, #0
 5071 0eb6 FFF7FEFF 		bl	LCD_WR_DATA
 5072              	.LVL833:
1074:Core/Src/fsmc.c ****     LCD_WR_DATA(0x00);
 5073              		.loc 1 1074 5 view .LVU1390
 5074 0eba A220     		movs	r0, #162
 5075 0ebc FFF7FEFF 		bl	LCD_WR_DATA
 5076              	.LVL834:
1075:Core/Src/fsmc.c ****     LCD_WR_DATA(0xB3);
 5077              		.loc 1 1075 5 view .LVU1391
 5078 0ec0 0020     		movs	r0, #0
 5079 0ec2 FFF7FEFF 		bl	LCD_WR_DATA
 5080              	.LVL835:
1076:Core/Src/fsmc.c ****     LCD_WR_DATA(0x00);
 5081              		.loc 1 1076 5 view .LVU1392
 5082 0ec6 B320     		movs	r0, #179
 5083 0ec8 FFF7FEFF 		bl	LCD_WR_DATA
 5084              	.LVL836:
1077:Core/Src/fsmc.c ****     LCD_WR_DATA(0xBE);
 5085              		.loc 1 1077 5 view .LVU1393
 5086 0ecc 0020     		movs	r0, #0
 5087 0ece FFF7FEFF 		bl	LCD_WR_DATA
 5088              	.LVL837:
1078:Core/Src/fsmc.c ****     LCD_WR_DATA(0x00);
 5089              		.loc 1 1078 5 view .LVU1394
 5090 0ed2 BE20     		movs	r0, #190
 5091 0ed4 FFF7FEFF 		bl	LCD_WR_DATA
 5092              	.LVL838:
1079:Core/Src/fsmc.c ****     LCD_WR_DATA(0xC4);
 5093              		.loc 1 1079 5 view .LVU1395
 5094 0ed8 0020     		movs	r0, #0
 5095 0eda FFF7FEFF 		bl	LCD_WR_DATA
 5096              	.LVL839:
1080:Core/Src/fsmc.c ****     LCD_WR_DATA(0x00);
 5097              		.loc 1 1080 5 view .LVU1396
 5098 0ede C420     		movs	r0, #196
 5099 0ee0 FFF7FEFF 		bl	LCD_WR_DATA
 5100              	.LVL840:
1081:Core/Src/fsmc.c ****     LCD_WR_DATA(0xCD);
 5101              		.loc 1 1081 5 view .LVU1397
 5102 0ee4 0020     		movs	r0, #0
 5103 0ee6 FFF7FEFF 		bl	LCD_WR_DATA
 5104              	.LVL841:
1082:Core/Src/fsmc.c ****     LCD_WR_DATA(0x00);
 5105              		.loc 1 1082 5 view .LVU1398
 5106 0eea CD20     		movs	r0, #205
 5107 0eec FFF7FEFF 		bl	LCD_WR_DATA
 5108              	.LVL842:
1083:Core/Src/fsmc.c ****     LCD_WR_DATA(0xD3);
 5109              		.loc 1 1083 5 view .LVU1399
 5110 0ef0 0020     		movs	r0, #0
 5111 0ef2 FFF7FEFF 		bl	LCD_WR_DATA
 5112              	.LVL843:
1084:Core/Src/fsmc.c ****     LCD_WR_DATA(0x00);
 5113              		.loc 1 1084 5 view .LVU1400
 5114 0ef6 D320     		movs	r0, #211
ARM GAS  /tmp/ccE1vrH2.s 			page 151


 5115 0ef8 FFF7FEFF 		bl	LCD_WR_DATA
 5116              	.LVL844:
1085:Core/Src/fsmc.c ****     LCD_WR_DATA(0xDC);
 5117              		.loc 1 1085 5 view .LVU1401
 5118 0efc 0020     		movs	r0, #0
 5119 0efe FFF7FEFF 		bl	LCD_WR_DATA
 5120              	.LVL845:
1086:Core/Src/fsmc.c ****     LCD_WR_DATA(0x00);
 5121              		.loc 1 1086 5 view .LVU1402
 5122 0f02 DC20     		movs	r0, #220
 5123 0f04 FFF7FEFF 		bl	LCD_WR_DATA
 5124              	.LVL846:
1087:Core/Src/fsmc.c ****     LCD_WR_DATA(0xF3);
 5125              		.loc 1 1087 5 view .LVU1403
 5126 0f08 0020     		movs	r0, #0
 5127 0f0a FFF7FEFF 		bl	LCD_WR_DATA
 5128              	.LVL847:
1088:Core/Src/fsmc.c ****     LCD_WR_DATA(0x00);
 5129              		.loc 1 1088 5 view .LVU1404
 5130 0f0e F320     		movs	r0, #243
 5131 0f10 FFF7FEFF 		bl	LCD_WR_DATA
 5132              	.LVL848:
1089:Core/Src/fsmc.c **** 
 5133              		.loc 1 1089 5 view .LVU1405
 5134 0f14 0020     		movs	r0, #0
 5135 0f16 FFF7FEFF 		bl	LCD_WR_DATA
 5136              	.LVL849:
1091:Core/Src/fsmc.c ****     LCD_WR_DATA(0x11);
 5137              		.loc 1 1091 5 view .LVU1406
 5138 0f1a E620     		movs	r0, #230
 5139 0f1c FFF7FEFF 		bl	LCD_WR_REG
 5140              	.LVL850:
1092:Core/Src/fsmc.c ****     LCD_WR_DATA(0x00);
 5141              		.loc 1 1092 5 view .LVU1407
 5142 0f20 1120     		movs	r0, #17
 5143 0f22 FFF7FEFF 		bl	LCD_WR_DATA
 5144              	.LVL851:
1093:Core/Src/fsmc.c ****     LCD_WR_DATA(0x34);
 5145              		.loc 1 1093 5 view .LVU1408
 5146 0f26 0020     		movs	r0, #0
 5147 0f28 FFF7FEFF 		bl	LCD_WR_DATA
 5148              	.LVL852:
1094:Core/Src/fsmc.c ****     LCD_WR_DATA(0x00);
 5149              		.loc 1 1094 5 view .LVU1409
 5150 0f2c 3420     		movs	r0, #52
 5151 0f2e FFF7FEFF 		bl	LCD_WR_DATA
 5152              	.LVL853:
1095:Core/Src/fsmc.c ****     LCD_WR_DATA(0x56);
 5153              		.loc 1 1095 5 view .LVU1410
 5154 0f32 0020     		movs	r0, #0
 5155 0f34 FFF7FEFF 		bl	LCD_WR_DATA
 5156              	.LVL854:
1096:Core/Src/fsmc.c ****     LCD_WR_DATA(0x00);
 5157              		.loc 1 1096 5 view .LVU1411
 5158 0f38 5620     		movs	r0, #86
 5159 0f3a FFF7FEFF 		bl	LCD_WR_DATA
 5160              	.LVL855:
ARM GAS  /tmp/ccE1vrH2.s 			page 152


1097:Core/Src/fsmc.c ****     LCD_WR_DATA(0x76);
 5161              		.loc 1 1097 5 view .LVU1412
 5162 0f3e 0020     		movs	r0, #0
 5163 0f40 FFF7FEFF 		bl	LCD_WR_DATA
 5164              	.LVL856:
1098:Core/Src/fsmc.c ****     LCD_WR_DATA(0x00);
 5165              		.loc 1 1098 5 view .LVU1413
 5166 0f44 7620     		movs	r0, #118
 5167 0f46 FFF7FEFF 		bl	LCD_WR_DATA
 5168              	.LVL857:
1099:Core/Src/fsmc.c ****     LCD_WR_DATA(0x77);
 5169              		.loc 1 1099 5 view .LVU1414
 5170 0f4a 0020     		movs	r0, #0
 5171 0f4c FFF7FEFF 		bl	LCD_WR_DATA
 5172              	.LVL858:
1100:Core/Src/fsmc.c ****     LCD_WR_DATA(0x00);
 5173              		.loc 1 1100 5 view .LVU1415
 5174 0f50 7720     		movs	r0, #119
 5175 0f52 FFF7FEFF 		bl	LCD_WR_DATA
 5176              	.LVL859:
1101:Core/Src/fsmc.c ****     LCD_WR_DATA(0x66);
 5177              		.loc 1 1101 5 view .LVU1416
 5178 0f56 0020     		movs	r0, #0
 5179 0f58 FFF7FEFF 		bl	LCD_WR_DATA
 5180              	.LVL860:
1102:Core/Src/fsmc.c ****     LCD_WR_DATA(0x00);
 5181              		.loc 1 1102 5 view .LVU1417
 5182 0f5c 6620     		movs	r0, #102
 5183 0f5e FFF7FEFF 		bl	LCD_WR_DATA
 5184              	.LVL861:
1103:Core/Src/fsmc.c ****     LCD_WR_DATA(0x88);
 5185              		.loc 1 1103 5 view .LVU1418
 5186 0f62 0020     		movs	r0, #0
 5187 0f64 FFF7FEFF 		bl	LCD_WR_DATA
 5188              	.LVL862:
1104:Core/Src/fsmc.c ****     LCD_WR_DATA(0x00);
 5189              		.loc 1 1104 5 view .LVU1419
 5190 0f68 8820     		movs	r0, #136
 5191 0f6a FFF7FEFF 		bl	LCD_WR_DATA
 5192              	.LVL863:
1105:Core/Src/fsmc.c ****     LCD_WR_DATA(0x99);
 5193              		.loc 1 1105 5 view .LVU1420
 5194 0f6e 0020     		movs	r0, #0
 5195 0f70 FFF7FEFF 		bl	LCD_WR_DATA
 5196              	.LVL864:
1106:Core/Src/fsmc.c ****     LCD_WR_DATA(0x00);
 5197              		.loc 1 1106 5 view .LVU1421
 5198 0f74 9920     		movs	r0, #153
 5199 0f76 FFF7FEFF 		bl	LCD_WR_DATA
 5200              	.LVL865:
1107:Core/Src/fsmc.c ****     LCD_WR_DATA(0xBB);
 5201              		.loc 1 1107 5 view .LVU1422
 5202 0f7a 0020     		movs	r0, #0
 5203 0f7c FFF7FEFF 		bl	LCD_WR_DATA
 5204              	.LVL866:
1108:Core/Src/fsmc.c ****     LCD_WR_DATA(0x00);
 5205              		.loc 1 1108 5 view .LVU1423
ARM GAS  /tmp/ccE1vrH2.s 			page 153


 5206 0f80 BB20     		movs	r0, #187
 5207 0f82 FFF7FEFF 		bl	LCD_WR_DATA
 5208              	.LVL867:
1109:Core/Src/fsmc.c ****     LCD_WR_DATA(0x99);
 5209              		.loc 1 1109 5 view .LVU1424
 5210 0f86 0020     		movs	r0, #0
 5211 0f88 FFF7FEFF 		bl	LCD_WR_DATA
 5212              	.LVL868:
1110:Core/Src/fsmc.c ****     LCD_WR_DATA(0x00);
 5213              		.loc 1 1110 5 view .LVU1425
 5214 0f8c 9920     		movs	r0, #153
 5215 0f8e FFF7FEFF 		bl	LCD_WR_DATA
 5216              	.LVL869:
1111:Core/Src/fsmc.c ****     LCD_WR_DATA(0x66);
 5217              		.loc 1 1111 5 view .LVU1426
 5218 0f92 0020     		movs	r0, #0
 5219 0f94 FFF7FEFF 		bl	LCD_WR_DATA
 5220              	.LVL870:
1112:Core/Src/fsmc.c ****     LCD_WR_DATA(0x00);
 5221              		.loc 1 1112 5 view .LVU1427
 5222 0f98 6620     		movs	r0, #102
 5223 0f9a FFF7FEFF 		bl	LCD_WR_DATA
 5224              	.LVL871:
1113:Core/Src/fsmc.c ****     LCD_WR_DATA(0x55);
 5225              		.loc 1 1113 5 view .LVU1428
 5226 0f9e 0020     		movs	r0, #0
 5227 0fa0 FFF7FEFF 		bl	LCD_WR_DATA
 5228              	.LVL872:
1114:Core/Src/fsmc.c ****     LCD_WR_DATA(0x00);
 5229              		.loc 1 1114 5 view .LVU1429
 5230 0fa4 5520     		movs	r0, #85
 5231 0fa6 FFF7FEFF 		bl	LCD_WR_DATA
 5232              	.LVL873:
1115:Core/Src/fsmc.c ****     LCD_WR_DATA(0x55);
 5233              		.loc 1 1115 5 view .LVU1430
 5234 0faa 0020     		movs	r0, #0
 5235 0fac FFF7FEFF 		bl	LCD_WR_DATA
 5236              	.LVL874:
1116:Core/Src/fsmc.c ****     LCD_WR_DATA(0x00);
 5237              		.loc 1 1116 5 view .LVU1431
 5238 0fb0 5520     		movs	r0, #85
 5239 0fb2 FFF7FEFF 		bl	LCD_WR_DATA
 5240              	.LVL875:
1117:Core/Src/fsmc.c ****     LCD_WR_DATA(0x45);
 5241              		.loc 1 1117 5 view .LVU1432
 5242 0fb6 0020     		movs	r0, #0
 5243 0fb8 FFF7FEFF 		bl	LCD_WR_DATA
 5244              	.LVL876:
1118:Core/Src/fsmc.c ****     LCD_WR_DATA(0x00);
 5245              		.loc 1 1118 5 view .LVU1433
 5246 0fbc 4520     		movs	r0, #69
 5247 0fbe FFF7FEFF 		bl	LCD_WR_DATA
 5248              	.LVL877:
1119:Core/Src/fsmc.c ****     LCD_WR_DATA(0x43);
 5249              		.loc 1 1119 5 view .LVU1434
 5250 0fc2 0020     		movs	r0, #0
 5251 0fc4 FFF7FEFF 		bl	LCD_WR_DATA
ARM GAS  /tmp/ccE1vrH2.s 			page 154


 5252              	.LVL878:
1120:Core/Src/fsmc.c ****     LCD_WR_DATA(0x00);
 5253              		.loc 1 1120 5 view .LVU1435
 5254 0fc8 4320     		movs	r0, #67
 5255 0fca FFF7FEFF 		bl	LCD_WR_DATA
 5256              	.LVL879:
1121:Core/Src/fsmc.c ****     LCD_WR_DATA(0x44);
 5257              		.loc 1 1121 5 view .LVU1436
 5258 0fce 0020     		movs	r0, #0
 5259 0fd0 FFF7FEFF 		bl	LCD_WR_DATA
 5260              	.LVL880:
1122:Core/Src/fsmc.c ****     LCD_WR_DATA(0x00);
 5261              		.loc 1 1122 5 view .LVU1437
 5262 0fd4 4420     		movs	r0, #68
 5263 0fd6 FFF7FEFF 		bl	LCD_WR_DATA
 5264              	.LVL881:
1123:Core/Src/fsmc.c **** 
 5265              		.loc 1 1123 5 view .LVU1438
 5266 0fda 0020     		movs	r0, #0
 5267 0fdc FFF7FEFF 		bl	LCD_WR_DATA
 5268              	.LVL882:
1125:Core/Src/fsmc.c ****     LCD_WR_DATA(0x32);
 5269              		.loc 1 1125 5 view .LVU1439
 5270 0fe0 E720     		movs	r0, #231
 5271 0fe2 FFF7FEFF 		bl	LCD_WR_REG
 5272              	.LVL883:
1126:Core/Src/fsmc.c ****     LCD_WR_DATA(0x00);
 5273              		.loc 1 1126 5 view .LVU1440
 5274 0fe6 3220     		movs	r0, #50
 5275 0fe8 FFF7FEFF 		bl	LCD_WR_DATA
 5276              	.LVL884:
1127:Core/Src/fsmc.c ****     LCD_WR_DATA(0x55);
 5277              		.loc 1 1127 5 view .LVU1441
 5278 0fec 0020     		movs	r0, #0
 5279 0fee FFF7FEFF 		bl	LCD_WR_DATA
 5280              	.LVL885:
1128:Core/Src/fsmc.c ****     LCD_WR_DATA(0x00);
 5281              		.loc 1 1128 5 view .LVU1442
 5282 0ff2 5520     		movs	r0, #85
 5283 0ff4 FFF7FEFF 		bl	LCD_WR_DATA
 5284              	.LVL886:
1129:Core/Src/fsmc.c ****     LCD_WR_DATA(0x76);
 5285              		.loc 1 1129 5 view .LVU1443
 5286 0ff8 0020     		movs	r0, #0
 5287 0ffa FFF7FEFF 		bl	LCD_WR_DATA
 5288              	.LVL887:
1130:Core/Src/fsmc.c ****     LCD_WR_DATA(0x00);
 5289              		.loc 1 1130 5 view .LVU1444
 5290 0ffe 7620     		movs	r0, #118
 5291 1000 FFF7FEFF 		bl	LCD_WR_DATA
 5292              	.LVL888:
1131:Core/Src/fsmc.c ****     LCD_WR_DATA(0x66);
 5293              		.loc 1 1131 5 view .LVU1445
 5294 1004 0020     		movs	r0, #0
 5295 1006 FFF7FEFF 		bl	LCD_WR_DATA
 5296              	.LVL889:
1132:Core/Src/fsmc.c ****     LCD_WR_DATA(0x00);
ARM GAS  /tmp/ccE1vrH2.s 			page 155


 5297              		.loc 1 1132 5 view .LVU1446
 5298 100a 6620     		movs	r0, #102
 5299 100c FFF7FEFF 		bl	LCD_WR_DATA
 5300              	.LVL890:
1133:Core/Src/fsmc.c ****     LCD_WR_DATA(0x67);
 5301              		.loc 1 1133 5 view .LVU1447
 5302 1010 0020     		movs	r0, #0
 5303 1012 FFF7FEFF 		bl	LCD_WR_DATA
 5304              	.LVL891:
1134:Core/Src/fsmc.c ****     LCD_WR_DATA(0x00);
 5305              		.loc 1 1134 5 view .LVU1448
 5306 1016 6720     		movs	r0, #103
 5307 1018 FFF7FEFF 		bl	LCD_WR_DATA
 5308              	.LVL892:
1135:Core/Src/fsmc.c ****     LCD_WR_DATA(0x67);
 5309              		.loc 1 1135 5 view .LVU1449
 5310 101c 0020     		movs	r0, #0
 5311 101e FFF7FEFF 		bl	LCD_WR_DATA
 5312              	.LVL893:
1136:Core/Src/fsmc.c ****     LCD_WR_DATA(0x00);
 5313              		.loc 1 1136 5 view .LVU1450
 5314 1022 6720     		movs	r0, #103
 5315 1024 FFF7FEFF 		bl	LCD_WR_DATA
 5316              	.LVL894:
1137:Core/Src/fsmc.c ****     LCD_WR_DATA(0x87);
 5317              		.loc 1 1137 5 view .LVU1451
 5318 1028 0020     		movs	r0, #0
 5319 102a FFF7FEFF 		bl	LCD_WR_DATA
 5320              	.LVL895:
1138:Core/Src/fsmc.c ****     LCD_WR_DATA(0x00);
 5321              		.loc 1 1138 5 view .LVU1452
 5322 102e 8720     		movs	r0, #135
 5323 1030 FFF7FEFF 		bl	LCD_WR_DATA
 5324              	.LVL896:
1139:Core/Src/fsmc.c ****     LCD_WR_DATA(0x99);
 5325              		.loc 1 1139 5 view .LVU1453
 5326 1034 0020     		movs	r0, #0
 5327 1036 FFF7FEFF 		bl	LCD_WR_DATA
 5328              	.LVL897:
1140:Core/Src/fsmc.c ****     LCD_WR_DATA(0x00);
 5329              		.loc 1 1140 5 view .LVU1454
 5330 103a 9920     		movs	r0, #153
 5331 103c FFF7FEFF 		bl	LCD_WR_DATA
 5332              	.LVL898:
1141:Core/Src/fsmc.c ****     LCD_WR_DATA(0xBB);
 5333              		.loc 1 1141 5 view .LVU1455
 5334 1040 0020     		movs	r0, #0
 5335 1042 FFF7FEFF 		bl	LCD_WR_DATA
 5336              	.LVL899:
1142:Core/Src/fsmc.c ****     LCD_WR_DATA(0x00);
 5337              		.loc 1 1142 5 view .LVU1456
 5338 1046 BB20     		movs	r0, #187
 5339 1048 FFF7FEFF 		bl	LCD_WR_DATA
 5340              	.LVL900:
1143:Core/Src/fsmc.c ****     LCD_WR_DATA(0x99);
 5341              		.loc 1 1143 5 view .LVU1457
 5342 104c 0020     		movs	r0, #0
ARM GAS  /tmp/ccE1vrH2.s 			page 156


 5343 104e FFF7FEFF 		bl	LCD_WR_DATA
 5344              	.LVL901:
1144:Core/Src/fsmc.c ****     LCD_WR_DATA(0x00);
 5345              		.loc 1 1144 5 view .LVU1458
 5346 1052 9920     		movs	r0, #153
 5347 1054 FFF7FEFF 		bl	LCD_WR_DATA
 5348              	.LVL902:
1145:Core/Src/fsmc.c ****     LCD_WR_DATA(0x77);
 5349              		.loc 1 1145 5 view .LVU1459
 5350 1058 0020     		movs	r0, #0
 5351 105a FFF7FEFF 		bl	LCD_WR_DATA
 5352              	.LVL903:
1146:Core/Src/fsmc.c ****     LCD_WR_DATA(0x00);
 5353              		.loc 1 1146 5 view .LVU1460
 5354 105e 7720     		movs	r0, #119
 5355 1060 FFF7FEFF 		bl	LCD_WR_DATA
 5356              	.LVL904:
1147:Core/Src/fsmc.c ****     LCD_WR_DATA(0x44);
 5357              		.loc 1 1147 5 view .LVU1461
 5358 1064 0020     		movs	r0, #0
 5359 1066 FFF7FEFF 		bl	LCD_WR_DATA
 5360              	.LVL905:
1148:Core/Src/fsmc.c ****     LCD_WR_DATA(0x00);
 5361              		.loc 1 1148 5 view .LVU1462
 5362 106a 4420     		movs	r0, #68
 5363 106c FFF7FEFF 		bl	LCD_WR_DATA
 5364              	.LVL906:
1149:Core/Src/fsmc.c ****     LCD_WR_DATA(0x56);
 5365              		.loc 1 1149 5 view .LVU1463
 5366 1070 0020     		movs	r0, #0
 5367 1072 FFF7FEFF 		bl	LCD_WR_DATA
 5368              	.LVL907:
1150:Core/Src/fsmc.c ****     LCD_WR_DATA(0x00);
 5369              		.loc 1 1150 5 view .LVU1464
 5370 1076 5620     		movs	r0, #86
 5371 1078 FFF7FEFF 		bl	LCD_WR_DATA
 5372              	.LVL908:
1151:Core/Src/fsmc.c ****     LCD_WR_DATA(0x23);
 5373              		.loc 1 1151 5 view .LVU1465
 5374 107c 0020     		movs	r0, #0
 5375 107e FFF7FEFF 		bl	LCD_WR_DATA
 5376              	.LVL909:
1152:Core/Src/fsmc.c ****     LCD_WR_DATA(0x00);
 5377              		.loc 1 1152 5 view .LVU1466
 5378 1082 2320     		movs	r0, #35
 5379 1084 FFF7FEFF 		bl	LCD_WR_DATA
 5380              	.LVL910:
1153:Core/Src/fsmc.c ****     LCD_WR_DATA(0x33);
 5381              		.loc 1 1153 5 view .LVU1467
 5382 1088 0020     		movs	r0, #0
 5383 108a FFF7FEFF 		bl	LCD_WR_DATA
 5384              	.LVL911:
1154:Core/Src/fsmc.c ****     LCD_WR_DATA(0x00);
 5385              		.loc 1 1154 5 view .LVU1468
 5386 108e 3320     		movs	r0, #51
 5387 1090 FFF7FEFF 		bl	LCD_WR_DATA
 5388              	.LVL912:
ARM GAS  /tmp/ccE1vrH2.s 			page 157


1155:Core/Src/fsmc.c ****     LCD_WR_DATA(0x45);
 5389              		.loc 1 1155 5 view .LVU1469
 5390 1094 0020     		movs	r0, #0
 5391 1096 FFF7FEFF 		bl	LCD_WR_DATA
 5392              	.LVL913:
1156:Core/Src/fsmc.c ****     LCD_WR_DATA(0x00);
 5393              		.loc 1 1156 5 view .LVU1470
 5394 109a 4520     		movs	r0, #69
 5395 109c FFF7FEFF 		bl	LCD_WR_DATA
 5396              	.LVL914:
1157:Core/Src/fsmc.c **** 
 5397              		.loc 1 1157 5 view .LVU1471
 5398 10a0 0020     		movs	r0, #0
 5399 10a2 FFF7FEFF 		bl	LCD_WR_DATA
 5400              	.LVL915:
1159:Core/Src/fsmc.c ****     LCD_WR_DATA(0x00);
 5401              		.loc 1 1159 5 view .LVU1472
 5402 10a6 E820     		movs	r0, #232
 5403 10a8 FFF7FEFF 		bl	LCD_WR_REG
 5404              	.LVL916:
1160:Core/Src/fsmc.c ****     LCD_WR_DATA(0x00);
 5405              		.loc 1 1160 5 view .LVU1473
 5406 10ac 0020     		movs	r0, #0
 5407 10ae FFF7FEFF 		bl	LCD_WR_DATA
 5408              	.LVL917:
1161:Core/Src/fsmc.c ****     LCD_WR_DATA(0x99);
 5409              		.loc 1 1161 5 view .LVU1474
 5410 10b2 0020     		movs	r0, #0
 5411 10b4 FFF7FEFF 		bl	LCD_WR_DATA
 5412              	.LVL918:
1162:Core/Src/fsmc.c ****     LCD_WR_DATA(0x00);
 5413              		.loc 1 1162 5 view .LVU1475
 5414 10b8 9920     		movs	r0, #153
 5415 10ba FFF7FEFF 		bl	LCD_WR_DATA
 5416              	.LVL919:
1163:Core/Src/fsmc.c ****     LCD_WR_DATA(0x87);
 5417              		.loc 1 1163 5 view .LVU1476
 5418 10be 0020     		movs	r0, #0
 5419 10c0 FFF7FEFF 		bl	LCD_WR_DATA
 5420              	.LVL920:
1164:Core/Src/fsmc.c ****     LCD_WR_DATA(0x00);
 5421              		.loc 1 1164 5 view .LVU1477
 5422 10c4 8720     		movs	r0, #135
 5423 10c6 FFF7FEFF 		bl	LCD_WR_DATA
 5424              	.LVL921:
1165:Core/Src/fsmc.c ****     LCD_WR_DATA(0x88);
 5425              		.loc 1 1165 5 view .LVU1478
 5426 10ca 0020     		movs	r0, #0
 5427 10cc FFF7FEFF 		bl	LCD_WR_DATA
 5428              	.LVL922:
1166:Core/Src/fsmc.c ****     LCD_WR_DATA(0x00);
 5429              		.loc 1 1166 5 view .LVU1479
 5430 10d0 8820     		movs	r0, #136
 5431 10d2 FFF7FEFF 		bl	LCD_WR_DATA
 5432              	.LVL923:
1167:Core/Src/fsmc.c ****     LCD_WR_DATA(0x77);
 5433              		.loc 1 1167 5 view .LVU1480
ARM GAS  /tmp/ccE1vrH2.s 			page 158


 5434 10d6 0020     		movs	r0, #0
 5435 10d8 FFF7FEFF 		bl	LCD_WR_DATA
 5436              	.LVL924:
1168:Core/Src/fsmc.c ****     LCD_WR_DATA(0x00);
 5437              		.loc 1 1168 5 view .LVU1481
 5438 10dc 7720     		movs	r0, #119
 5439 10de FFF7FEFF 		bl	LCD_WR_DATA
 5440              	.LVL925:
1169:Core/Src/fsmc.c ****     LCD_WR_DATA(0x66);
 5441              		.loc 1 1169 5 view .LVU1482
 5442 10e2 0020     		movs	r0, #0
 5443 10e4 FFF7FEFF 		bl	LCD_WR_DATA
 5444              	.LVL926:
1170:Core/Src/fsmc.c ****     LCD_WR_DATA(0x00);
 5445              		.loc 1 1170 5 view .LVU1483
 5446 10e8 6620     		movs	r0, #102
 5447 10ea FFF7FEFF 		bl	LCD_WR_DATA
 5448              	.LVL927:
1171:Core/Src/fsmc.c ****     LCD_WR_DATA(0x88);
 5449              		.loc 1 1171 5 view .LVU1484
 5450 10ee 0020     		movs	r0, #0
 5451 10f0 FFF7FEFF 		bl	LCD_WR_DATA
 5452              	.LVL928:
1172:Core/Src/fsmc.c ****     LCD_WR_DATA(0x00);
 5453              		.loc 1 1172 5 view .LVU1485
 5454 10f4 8820     		movs	r0, #136
 5455 10f6 FFF7FEFF 		bl	LCD_WR_DATA
 5456              	.LVL929:
1173:Core/Src/fsmc.c ****     LCD_WR_DATA(0xAA);
 5457              		.loc 1 1173 5 view .LVU1486
 5458 10fa 0020     		movs	r0, #0
 5459 10fc FFF7FEFF 		bl	LCD_WR_DATA
 5460              	.LVL930:
1174:Core/Src/fsmc.c ****     LCD_WR_DATA(0x00);
 5461              		.loc 1 1174 5 view .LVU1487
 5462 1100 AA20     		movs	r0, #170
 5463 1102 FFF7FEFF 		bl	LCD_WR_DATA
 5464              	.LVL931:
1175:Core/Src/fsmc.c ****     LCD_WR_DATA(0xBB);
 5465              		.loc 1 1175 5 view .LVU1488
 5466 1106 0020     		movs	r0, #0
 5467 1108 FFF7FEFF 		bl	LCD_WR_DATA
 5468              	.LVL932:
1176:Core/Src/fsmc.c ****     LCD_WR_DATA(0x00);
 5469              		.loc 1 1176 5 view .LVU1489
 5470 110c BB20     		movs	r0, #187
 5471 110e FFF7FEFF 		bl	LCD_WR_DATA
 5472              	.LVL933:
1177:Core/Src/fsmc.c ****     LCD_WR_DATA(0x99);
 5473              		.loc 1 1177 5 view .LVU1490
 5474 1112 0020     		movs	r0, #0
 5475 1114 FFF7FEFF 		bl	LCD_WR_DATA
 5476              	.LVL934:
1178:Core/Src/fsmc.c ****     LCD_WR_DATA(0x00);
 5477              		.loc 1 1178 5 view .LVU1491
 5478 1118 9920     		movs	r0, #153
 5479 111a FFF7FEFF 		bl	LCD_WR_DATA
ARM GAS  /tmp/ccE1vrH2.s 			page 159


 5480              	.LVL935:
1179:Core/Src/fsmc.c ****     LCD_WR_DATA(0x66);
 5481              		.loc 1 1179 5 view .LVU1492
 5482 111e 0020     		movs	r0, #0
 5483 1120 FFF7FEFF 		bl	LCD_WR_DATA
 5484              	.LVL936:
1180:Core/Src/fsmc.c ****     LCD_WR_DATA(0x00);
 5485              		.loc 1 1180 5 view .LVU1493
 5486 1124 6620     		movs	r0, #102
 5487 1126 FFF7FEFF 		bl	LCD_WR_DATA
 5488              	.LVL937:
1181:Core/Src/fsmc.c ****     LCD_WR_DATA(0x55);
 5489              		.loc 1 1181 5 view .LVU1494
 5490 112a 0020     		movs	r0, #0
 5491 112c FFF7FEFF 		bl	LCD_WR_DATA
 5492              	.LVL938:
1182:Core/Src/fsmc.c ****     LCD_WR_DATA(0x00);
 5493              		.loc 1 1182 5 view .LVU1495
 5494 1130 5520     		movs	r0, #85
 5495 1132 FFF7FEFF 		bl	LCD_WR_DATA
 5496              	.LVL939:
1183:Core/Src/fsmc.c ****     LCD_WR_DATA(0x55);
 5497              		.loc 1 1183 5 view .LVU1496
 5498 1136 0020     		movs	r0, #0
 5499 1138 FFF7FEFF 		bl	LCD_WR_DATA
 5500              	.LVL940:
1184:Core/Src/fsmc.c ****     LCD_WR_DATA(0x00);
 5501              		.loc 1 1184 5 view .LVU1497
 5502 113c 5520     		movs	r0, #85
 5503 113e FFF7FEFF 		bl	LCD_WR_DATA
 5504              	.LVL941:
1185:Core/Src/fsmc.c ****     LCD_WR_DATA(0x44);
 5505              		.loc 1 1185 5 view .LVU1498
 5506 1142 0020     		movs	r0, #0
 5507 1144 FFF7FEFF 		bl	LCD_WR_DATA
 5508              	.LVL942:
1186:Core/Src/fsmc.c ****     LCD_WR_DATA(0x00);
 5509              		.loc 1 1186 5 view .LVU1499
 5510 1148 4420     		movs	r0, #68
 5511 114a FFF7FEFF 		bl	LCD_WR_DATA
 5512              	.LVL943:
1187:Core/Src/fsmc.c ****     LCD_WR_DATA(0x44);
 5513              		.loc 1 1187 5 view .LVU1500
 5514 114e 0020     		movs	r0, #0
 5515 1150 FFF7FEFF 		bl	LCD_WR_DATA
 5516              	.LVL944:
1188:Core/Src/fsmc.c ****     LCD_WR_DATA(0x00);
 5517              		.loc 1 1188 5 view .LVU1501
 5518 1154 4420     		movs	r0, #68
 5519 1156 FFF7FEFF 		bl	LCD_WR_DATA
 5520              	.LVL945:
1189:Core/Src/fsmc.c ****     LCD_WR_DATA(0x55);
 5521              		.loc 1 1189 5 view .LVU1502
 5522 115a 0020     		movs	r0, #0
 5523 115c FFF7FEFF 		bl	LCD_WR_DATA
 5524              	.LVL946:
1190:Core/Src/fsmc.c ****     LCD_WR_DATA(0x00);
ARM GAS  /tmp/ccE1vrH2.s 			page 160


 5525              		.loc 1 1190 5 view .LVU1503
 5526 1160 5520     		movs	r0, #85
 5527 1162 FFF7FEFF 		bl	LCD_WR_DATA
 5528              	.LVL947:
1191:Core/Src/fsmc.c **** 
 5529              		.loc 1 1191 5 view .LVU1504
 5530 1166 0020     		movs	r0, #0
 5531 1168 FFF7FEFF 		bl	LCD_WR_DATA
 5532              	.LVL948:
1193:Core/Src/fsmc.c ****     LCD_WR_DATA(0xAA);
 5533              		.loc 1 1193 5 view .LVU1505
 5534 116c E920     		movs	r0, #233
 5535 116e FFF7FEFF 		bl	LCD_WR_REG
 5536              	.LVL949:
1194:Core/Src/fsmc.c ****     LCD_WR_DATA(0x00);
 5537              		.loc 1 1194 5 view .LVU1506
 5538 1172 AA20     		movs	r0, #170
 5539 1174 FFF7FEFF 		bl	LCD_WR_DATA
 5540              	.LVL950:
1195:Core/Src/fsmc.c ****     LCD_WR_DATA(0x00);
 5541              		.loc 1 1195 5 view .LVU1507
 5542 1178 0020     		movs	r0, #0
 5543 117a FFF7FEFF 		bl	LCD_WR_DATA
 5544              	.LVL951:
1196:Core/Src/fsmc.c ****     LCD_WR_DATA(0x00);
 5545              		.loc 1 1196 5 view .LVU1508
 5546 117e 0020     		movs	r0, #0
 5547 1180 FFF7FEFF 		bl	LCD_WR_DATA
 5548              	.LVL952:
1197:Core/Src/fsmc.c **** 
 5549              		.loc 1 1197 5 view .LVU1509
 5550 1184 0020     		movs	r0, #0
 5551 1186 FFF7FEFF 		bl	LCD_WR_DATA
 5552              	.LVL953:
1199:Core/Src/fsmc.c ****     LCD_WR_DATA(0xAA);
 5553              		.loc 1 1199 5 view .LVU1510
 5554 118a 0020     		movs	r0, #0
 5555 118c FFF7FEFF 		bl	LCD_WR_REG
 5556              	.LVL954:
1200:Core/Src/fsmc.c **** 
 5557              		.loc 1 1200 5 view .LVU1511
 5558 1190 AA20     		movs	r0, #170
 5559 1192 FFF7FEFF 		bl	LCD_WR_DATA
 5560              	.LVL955:
1202:Core/Src/fsmc.c ****     LCD_WR_DATA(0x00);
 5561              		.loc 1 1202 5 view .LVU1512
 5562 1196 CF20     		movs	r0, #207
 5563 1198 FFF7FEFF 		bl	LCD_WR_REG
 5564              	.LVL956:
1203:Core/Src/fsmc.c ****     LCD_WR_DATA(0x00);
 5565              		.loc 1 1203 5 view .LVU1513
 5566 119c 0020     		movs	r0, #0
 5567 119e FFF7FEFF 		bl	LCD_WR_DATA
 5568              	.LVL957:
1204:Core/Src/fsmc.c ****     LCD_WR_DATA(0x00);
 5569              		.loc 1 1204 5 view .LVU1514
 5570 11a2 0020     		movs	r0, #0
ARM GAS  /tmp/ccE1vrH2.s 			page 161


 5571 11a4 FFF7FEFF 		bl	LCD_WR_DATA
 5572              	.LVL958:
1205:Core/Src/fsmc.c ****     LCD_WR_DATA(0x00);
 5573              		.loc 1 1205 5 view .LVU1515
 5574 11a8 0020     		movs	r0, #0
 5575 11aa FFF7FEFF 		bl	LCD_WR_DATA
 5576              	.LVL959:
1206:Core/Src/fsmc.c ****     LCD_WR_DATA(0x00);
 5577              		.loc 1 1206 5 view .LVU1516
 5578 11ae 0020     		movs	r0, #0
 5579 11b0 FFF7FEFF 		bl	LCD_WR_DATA
 5580              	.LVL960:
1207:Core/Src/fsmc.c ****     LCD_WR_DATA(0x00);
 5581              		.loc 1 1207 5 view .LVU1517
 5582 11b4 0020     		movs	r0, #0
 5583 11b6 FFF7FEFF 		bl	LCD_WR_DATA
 5584              	.LVL961:
1208:Core/Src/fsmc.c ****     LCD_WR_DATA(0x00);
 5585              		.loc 1 1208 5 view .LVU1518
 5586 11ba 0020     		movs	r0, #0
 5587 11bc FFF7FEFF 		bl	LCD_WR_DATA
 5588              	.LVL962:
1209:Core/Src/fsmc.c ****     LCD_WR_DATA(0x00);
 5589              		.loc 1 1209 5 view .LVU1519
 5590 11c0 0020     		movs	r0, #0
 5591 11c2 FFF7FEFF 		bl	LCD_WR_DATA
 5592              	.LVL963:
1210:Core/Src/fsmc.c ****     LCD_WR_DATA(0x00);
 5593              		.loc 1 1210 5 view .LVU1520
 5594 11c6 0020     		movs	r0, #0
 5595 11c8 FFF7FEFF 		bl	LCD_WR_DATA
 5596              	.LVL964:
1211:Core/Src/fsmc.c ****     LCD_WR_DATA(0x00);
 5597              		.loc 1 1211 5 view .LVU1521
 5598 11cc 0020     		movs	r0, #0
 5599 11ce FFF7FEFF 		bl	LCD_WR_DATA
 5600              	.LVL965:
1212:Core/Src/fsmc.c ****     LCD_WR_DATA(0x00);
 5601              		.loc 1 1212 5 view .LVU1522
 5602 11d2 0020     		movs	r0, #0
 5603 11d4 FFF7FEFF 		bl	LCD_WR_DATA
 5604              	.LVL966:
1213:Core/Src/fsmc.c ****     LCD_WR_DATA(0x00);
 5605              		.loc 1 1213 5 view .LVU1523
 5606 11d8 0020     		movs	r0, #0
 5607 11da FFF7FEFF 		bl	LCD_WR_DATA
 5608              	.LVL967:
1214:Core/Src/fsmc.c ****     LCD_WR_DATA(0x00);
 5609              		.loc 1 1214 5 view .LVU1524
 5610 11de 0020     		movs	r0, #0
 5611 11e0 FFF7FEFF 		bl	LCD_WR_DATA
 5612              	.LVL968:
1215:Core/Src/fsmc.c ****     LCD_WR_DATA(0x00);
 5613              		.loc 1 1215 5 view .LVU1525
 5614 11e4 0020     		movs	r0, #0
 5615 11e6 FFF7FEFF 		bl	LCD_WR_DATA
 5616              	.LVL969:
ARM GAS  /tmp/ccE1vrH2.s 			page 162


1216:Core/Src/fsmc.c ****     LCD_WR_DATA(0x00);
 5617              		.loc 1 1216 5 view .LVU1526
 5618 11ea 0020     		movs	r0, #0
 5619 11ec FFF7FEFF 		bl	LCD_WR_DATA
 5620              	.LVL970:
1217:Core/Src/fsmc.c ****     LCD_WR_DATA(0x00);
 5621              		.loc 1 1217 5 view .LVU1527
 5622 11f0 0020     		movs	r0, #0
 5623 11f2 FFF7FEFF 		bl	LCD_WR_DATA
 5624              	.LVL971:
1218:Core/Src/fsmc.c ****     LCD_WR_DATA(0x00);
 5625              		.loc 1 1218 5 view .LVU1528
 5626 11f6 0020     		movs	r0, #0
 5627 11f8 FFF7FEFF 		bl	LCD_WR_DATA
 5628              	.LVL972:
1219:Core/Src/fsmc.c **** 
 5629              		.loc 1 1219 5 view .LVU1529
 5630 11fc 0020     		movs	r0, #0
 5631 11fe FFF7FEFF 		bl	LCD_WR_DATA
 5632              	.LVL973:
1221:Core/Src/fsmc.c ****     LCD_WR_DATA(0x00);
 5633              		.loc 1 1221 5 view .LVU1530
 5634 1202 F020     		movs	r0, #240
 5635 1204 FFF7FEFF 		bl	LCD_WR_REG
 5636              	.LVL974:
1222:Core/Src/fsmc.c ****     LCD_WR_DATA(0x50);
 5637              		.loc 1 1222 5 view .LVU1531
 5638 1208 0020     		movs	r0, #0
 5639 120a FFF7FEFF 		bl	LCD_WR_DATA
 5640              	.LVL975:
1223:Core/Src/fsmc.c ****     LCD_WR_DATA(0x00);
 5641              		.loc 1 1223 5 view .LVU1532
 5642 120e 5020     		movs	r0, #80
 5643 1210 FFF7FEFF 		bl	LCD_WR_DATA
 5644              	.LVL976:
1224:Core/Src/fsmc.c ****     LCD_WR_DATA(0x00);
 5645              		.loc 1 1224 5 view .LVU1533
 5646 1214 0020     		movs	r0, #0
 5647 1216 FFF7FEFF 		bl	LCD_WR_DATA
 5648              	.LVL977:
1225:Core/Src/fsmc.c ****     LCD_WR_DATA(0x00);
 5649              		.loc 1 1225 5 view .LVU1534
 5650 121a 0020     		movs	r0, #0
 5651 121c FFF7FEFF 		bl	LCD_WR_DATA
 5652              	.LVL978:
1226:Core/Src/fsmc.c **** 
 5653              		.loc 1 1226 5 view .LVU1535
 5654 1220 0020     		movs	r0, #0
 5655 1222 FFF7FEFF 		bl	LCD_WR_DATA
 5656              	.LVL979:
1228:Core/Src/fsmc.c ****     LCD_WR_DATA(0x00);
 5657              		.loc 1 1228 5 view .LVU1536
 5658 1226 F320     		movs	r0, #243
 5659 1228 FFF7FEFF 		bl	LCD_WR_REG
 5660              	.LVL980:
1229:Core/Src/fsmc.c **** 
 5661              		.loc 1 1229 5 view .LVU1537
ARM GAS  /tmp/ccE1vrH2.s 			page 163


 5662 122c 0020     		movs	r0, #0
 5663 122e FFF7FEFF 		bl	LCD_WR_DATA
 5664              	.LVL981:
1231:Core/Src/fsmc.c ****     LCD_WR_DATA(0x06);
 5665              		.loc 1 1231 5 view .LVU1538
 5666 1232 F920     		movs	r0, #249
 5667 1234 FFF7FEFF 		bl	LCD_WR_REG
 5668              	.LVL982:
1232:Core/Src/fsmc.c ****     LCD_WR_DATA(0x10);
 5669              		.loc 1 1232 5 view .LVU1539
 5670 1238 0620     		movs	r0, #6
 5671 123a FFF7FEFF 		bl	LCD_WR_DATA
 5672              	.LVL983:
1233:Core/Src/fsmc.c ****     LCD_WR_DATA(0x29);
 5673              		.loc 1 1233 5 view .LVU1540
 5674 123e 1020     		movs	r0, #16
 5675 1240 FFF7FEFF 		bl	LCD_WR_DATA
 5676              	.LVL984:
1234:Core/Src/fsmc.c ****     LCD_WR_DATA(0x00);
 5677              		.loc 1 1234 5 view .LVU1541
 5678 1244 2920     		movs	r0, #41
 5679 1246 FFF7FEFF 		bl	LCD_WR_DATA
 5680              	.LVL985:
1235:Core/Src/fsmc.c **** 
 5681              		.loc 1 1235 5 view .LVU1542
 5682 124a 0020     		movs	r0, #0
 5683 124c FFF7FEFF 		bl	LCD_WR_DATA
 5684              	.LVL986:
1237:Core/Src/fsmc.c ****     LCD_WR_DATA(0x55);	//66
 5685              		.loc 1 1237 5 view .LVU1543
 5686 1250 3A20     		movs	r0, #58
 5687 1252 FFF7FEFF 		bl	LCD_WR_REG
 5688              	.LVL987:
1238:Core/Src/fsmc.c **** 
 5689              		.loc 1 1238 5 view .LVU1544
 5690 1256 5520     		movs	r0, #85
 5691 1258 FFF7FEFF 		bl	LCD_WR_DATA
 5692              	.LVL988:
1240:Core/Src/fsmc.c ****     HAL_Delay(100);
 5693              		.loc 1 1240 5 view .LVU1545
 5694 125c 1120     		movs	r0, #17
 5695 125e FFF7FEFF 		bl	LCD_WR_REG
 5696              	.LVL989:
1241:Core/Src/fsmc.c ****     LCD_WR_REG(0x29);
 5697              		.loc 1 1241 5 view .LVU1546
 5698 1262 6420     		movs	r0, #100
 5699 1264 FFF7FEFF 		bl	HAL_Delay
 5700              	.LVL990:
1242:Core/Src/fsmc.c ****     LCD_WR_REG(0x35);
 5701              		.loc 1 1242 5 view .LVU1547
 5702 1268 2920     		movs	r0, #41
 5703 126a FFF7FEFF 		bl	LCD_WR_REG
 5704              	.LVL991:
1243:Core/Src/fsmc.c ****     LCD_WR_DATA(0x00);
 5705              		.loc 1 1243 5 view .LVU1548
 5706 126e 3520     		movs	r0, #53
 5707 1270 FFF7FEFF 		bl	LCD_WR_REG
ARM GAS  /tmp/ccE1vrH2.s 			page 164


 5708              	.LVL992:
1244:Core/Src/fsmc.c **** 
 5709              		.loc 1 1244 5 view .LVU1549
 5710 1274 0020     		movs	r0, #0
 5711 1276 FFF7FEFF 		bl	LCD_WR_DATA
 5712              	.LVL993:
1246:Core/Src/fsmc.c ****     LCD_WR_DATA(0xFF);
 5713              		.loc 1 1246 5 view .LVU1550
 5714 127a 5120     		movs	r0, #81
 5715 127c FFF7FEFF 		bl	LCD_WR_REG
 5716              	.LVL994:
1247:Core/Src/fsmc.c ****     LCD_WR_REG(0x53);
 5717              		.loc 1 1247 5 view .LVU1551
 5718 1280 FF20     		movs	r0, #255
 5719 1282 FFF7FEFF 		bl	LCD_WR_DATA
 5720              	.LVL995:
1248:Core/Src/fsmc.c ****     LCD_WR_DATA(0x2C);
 5721              		.loc 1 1248 5 view .LVU1552
 5722 1286 5320     		movs	r0, #83
 5723 1288 FFF7FEFF 		bl	LCD_WR_REG
 5724              	.LVL996:
1249:Core/Src/fsmc.c ****     LCD_WR_REG(0x55);
 5725              		.loc 1 1249 5 view .LVU1553
 5726 128c 2C20     		movs	r0, #44
 5727 128e FFF7FEFF 		bl	LCD_WR_DATA
 5728              	.LVL997:
1250:Core/Src/fsmc.c ****     LCD_WR_DATA(0x82);
 5729              		.loc 1 1250 5 view .LVU1554
 5730 1292 5520     		movs	r0, #85
 5731 1294 FFF7FEFF 		bl	LCD_WR_REG
 5732              	.LVL998:
1251:Core/Src/fsmc.c ****     LCD_WR_REG(0x2c);
 5733              		.loc 1 1251 5 view .LVU1555
 5734 1298 8220     		movs	r0, #130
 5735 129a FFF7FEFF 		bl	LCD_WR_DATA
 5736              	.LVL999:
1252:Core/Src/fsmc.c ****   }else if(lcddev.id==0x5510)
 5737              		.loc 1 1252 5 view .LVU1556
 5738 129e 2C20     		movs	r0, #44
 5739 12a0 FFF7FEFF 		bl	LCD_WR_REG
 5740              	.LVL1000:
 5741 12a4 FEF7DFBE 		b	.L164
 5742              	.L173:
1255:Core/Src/fsmc.c ****     LCD_WriteReg(0xF001,0xAA);
 5743              		.loc 1 1255 5 view .LVU1557
 5744 12a8 5521     		movs	r1, #85
 5745 12aa 4FF47040 		mov	r0, #61440
 5746 12ae FFF7FEFF 		bl	LCD_WriteReg
 5747              	.LVL1001:
1256:Core/Src/fsmc.c ****     LCD_WriteReg(0xF002,0x52);
 5748              		.loc 1 1256 5 view .LVU1558
 5749 12b2 AA21     		movs	r1, #170
 5750 12b4 4FF20100 		movw	r0, #61441
 5751 12b8 FFF7FEFF 		bl	LCD_WriteReg
 5752              	.LVL1002:
1257:Core/Src/fsmc.c ****     LCD_WriteReg(0xF003,0x08);
 5753              		.loc 1 1257 5 view .LVU1559
ARM GAS  /tmp/ccE1vrH2.s 			page 165


 5754 12bc 5221     		movs	r1, #82
 5755 12be 4FF20200 		movw	r0, #61442
 5756 12c2 FFF7FEFF 		bl	LCD_WriteReg
 5757              	.LVL1003:
1258:Core/Src/fsmc.c ****     LCD_WriteReg(0xF004,0x01);
 5758              		.loc 1 1258 5 view .LVU1560
 5759 12c6 0821     		movs	r1, #8
 5760 12c8 4FF20300 		movw	r0, #61443
 5761 12cc FFF7FEFF 		bl	LCD_WriteReg
 5762              	.LVL1004:
1259:Core/Src/fsmc.c ****     //AVDD Set AVDD 5.2V
 5763              		.loc 1 1259 5 view .LVU1561
 5764 12d0 0121     		movs	r1, #1
 5765 12d2 4FF20400 		movw	r0, #61444
 5766 12d6 FFF7FEFF 		bl	LCD_WriteReg
 5767              	.LVL1005:
1261:Core/Src/fsmc.c ****     LCD_WriteReg(0xB001,0x0D);
 5768              		.loc 1 1261 5 view .LVU1562
 5769 12da 0D21     		movs	r1, #13
 5770 12dc 4FF43040 		mov	r0, #45056
 5771 12e0 FFF7FEFF 		bl	LCD_WriteReg
 5772              	.LVL1006:
1262:Core/Src/fsmc.c ****     LCD_WriteReg(0xB002,0x0D);
 5773              		.loc 1 1262 5 view .LVU1563
 5774 12e4 0D21     		movs	r1, #13
 5775 12e6 4BF20100 		movw	r0, #45057
 5776 12ea FFF7FEFF 		bl	LCD_WriteReg
 5777              	.LVL1007:
1263:Core/Src/fsmc.c ****     //AVDD ratio
 5778              		.loc 1 1263 5 view .LVU1564
 5779 12ee 0D21     		movs	r1, #13
 5780 12f0 4BF20200 		movw	r0, #45058
 5781 12f4 FFF7FEFF 		bl	LCD_WriteReg
 5782              	.LVL1008:
1265:Core/Src/fsmc.c ****     LCD_WriteReg(0xB601,0x34);
 5783              		.loc 1 1265 5 view .LVU1565
 5784 12f8 3421     		movs	r1, #52
 5785 12fa 4FF43640 		mov	r0, #46592
 5786 12fe FFF7FEFF 		bl	LCD_WriteReg
 5787              	.LVL1009:
1266:Core/Src/fsmc.c ****     LCD_WriteReg(0xB602,0x34);
 5788              		.loc 1 1266 5 view .LVU1566
 5789 1302 3421     		movs	r1, #52
 5790 1304 4BF20160 		movw	r0, #46593
 5791 1308 FFF7FEFF 		bl	LCD_WriteReg
 5792              	.LVL1010:
1267:Core/Src/fsmc.c ****     //AVEE -5.2V
 5793              		.loc 1 1267 5 view .LVU1567
 5794 130c 3421     		movs	r1, #52
 5795 130e 4BF20260 		movw	r0, #46594
 5796 1312 FFF7FEFF 		bl	LCD_WriteReg
 5797              	.LVL1011:
1269:Core/Src/fsmc.c ****     LCD_WriteReg(0xB101,0x0D);
 5798              		.loc 1 1269 5 view .LVU1568
 5799 1316 0D21     		movs	r1, #13
 5800 1318 4FF43140 		mov	r0, #45312
 5801 131c FFF7FEFF 		bl	LCD_WriteReg
ARM GAS  /tmp/ccE1vrH2.s 			page 166


 5802              	.LVL1012:
1270:Core/Src/fsmc.c ****     LCD_WriteReg(0xB102,0x0D);
 5803              		.loc 1 1270 5 view .LVU1569
 5804 1320 0D21     		movs	r1, #13
 5805 1322 4BF20110 		movw	r0, #45313
 5806 1326 FFF7FEFF 		bl	LCD_WriteReg
 5807              	.LVL1013:
1271:Core/Src/fsmc.c ****     //AVEE ratio
 5808              		.loc 1 1271 5 view .LVU1570
 5809 132a 0D21     		movs	r1, #13
 5810 132c 4BF20210 		movw	r0, #45314
 5811 1330 FFF7FEFF 		bl	LCD_WriteReg
 5812              	.LVL1014:
1273:Core/Src/fsmc.c ****     LCD_WriteReg(0xB701,0x34);
 5813              		.loc 1 1273 5 view .LVU1571
 5814 1334 3421     		movs	r1, #52
 5815 1336 4FF43740 		mov	r0, #46848
 5816 133a FFF7FEFF 		bl	LCD_WriteReg
 5817              	.LVL1015:
1274:Core/Src/fsmc.c ****     LCD_WriteReg(0xB702,0x34);
 5818              		.loc 1 1274 5 view .LVU1572
 5819 133e 3421     		movs	r1, #52
 5820 1340 4BF20170 		movw	r0, #46849
 5821 1344 FFF7FEFF 		bl	LCD_WriteReg
 5822              	.LVL1016:
1275:Core/Src/fsmc.c ****     //VCL -2.5V
 5823              		.loc 1 1275 5 view .LVU1573
 5824 1348 3421     		movs	r1, #52
 5825 134a 4BF20270 		movw	r0, #46850
 5826 134e FFF7FEFF 		bl	LCD_WriteReg
 5827              	.LVL1017:
1277:Core/Src/fsmc.c ****     LCD_WriteReg(0xB201,0x00);
 5828              		.loc 1 1277 5 view .LVU1574
 5829 1352 0021     		movs	r1, #0
 5830 1354 4FF43240 		mov	r0, #45568
 5831 1358 FFF7FEFF 		bl	LCD_WriteReg
 5832              	.LVL1018:
1278:Core/Src/fsmc.c ****     LCD_WriteReg(0xB202,0x00);
 5833              		.loc 1 1278 5 view .LVU1575
 5834 135c 0021     		movs	r1, #0
 5835 135e 4BF20120 		movw	r0, #45569
 5836 1362 FFF7FEFF 		bl	LCD_WriteReg
 5837              	.LVL1019:
1279:Core/Src/fsmc.c ****     //VCL ratio
 5838              		.loc 1 1279 5 view .LVU1576
 5839 1366 0021     		movs	r1, #0
 5840 1368 4BF20220 		movw	r0, #45570
 5841 136c FFF7FEFF 		bl	LCD_WriteReg
 5842              	.LVL1020:
1281:Core/Src/fsmc.c ****     LCD_WriteReg(0xB801,0x24);
 5843              		.loc 1 1281 5 view .LVU1577
 5844 1370 2421     		movs	r1, #36
 5845 1372 4FF43840 		mov	r0, #47104
 5846 1376 FFF7FEFF 		bl	LCD_WriteReg
 5847              	.LVL1021:
1282:Core/Src/fsmc.c ****     LCD_WriteReg(0xB802,0x24);
 5848              		.loc 1 1282 5 view .LVU1578
ARM GAS  /tmp/ccE1vrH2.s 			page 167


 5849 137a 2421     		movs	r1, #36
 5850 137c 4BF60100 		movw	r0, #47105
 5851 1380 FFF7FEFF 		bl	LCD_WriteReg
 5852              	.LVL1022:
1283:Core/Src/fsmc.c ****     //VGH 15V (Free pump)
 5853              		.loc 1 1283 5 view .LVU1579
 5854 1384 2421     		movs	r1, #36
 5855 1386 4BF60200 		movw	r0, #47106
 5856 138a FFF7FEFF 		bl	LCD_WriteReg
 5857              	.LVL1023:
1285:Core/Src/fsmc.c ****     LCD_WriteReg(0xB300,0x0F);
 5858              		.loc 1 1285 5 view .LVU1580
 5859 138e 0121     		movs	r1, #1
 5860 1390 4FF43F40 		mov	r0, #48896
 5861 1394 FFF7FEFF 		bl	LCD_WriteReg
 5862              	.LVL1024:
1286:Core/Src/fsmc.c ****     LCD_WriteReg(0xB301,0x0F);
 5863              		.loc 1 1286 5 view .LVU1581
 5864 1398 0F21     		movs	r1, #15
 5865 139a 4FF43340 		mov	r0, #45824
 5866 139e FFF7FEFF 		bl	LCD_WriteReg
 5867              	.LVL1025:
1287:Core/Src/fsmc.c ****     LCD_WriteReg(0xB302,0x0F);
 5868              		.loc 1 1287 5 view .LVU1582
 5869 13a2 0F21     		movs	r1, #15
 5870 13a4 4BF20130 		movw	r0, #45825
 5871 13a8 FFF7FEFF 		bl	LCD_WriteReg
 5872              	.LVL1026:
1288:Core/Src/fsmc.c ****     //VGH ratio
 5873              		.loc 1 1288 5 view .LVU1583
 5874 13ac 0F21     		movs	r1, #15
 5875 13ae 4BF20230 		movw	r0, #45826
 5876 13b2 FFF7FEFF 		bl	LCD_WriteReg
 5877              	.LVL1027:
1290:Core/Src/fsmc.c ****     LCD_WriteReg(0xB901,0x34);
 5878              		.loc 1 1290 5 view .LVU1584
 5879 13b6 3421     		movs	r1, #52
 5880 13b8 4FF43940 		mov	r0, #47360
 5881 13bc FFF7FEFF 		bl	LCD_WriteReg
 5882              	.LVL1028:
1291:Core/Src/fsmc.c ****     LCD_WriteReg(0xB902,0x34);
 5883              		.loc 1 1291 5 view .LVU1585
 5884 13c0 3421     		movs	r1, #52
 5885 13c2 4BF60110 		movw	r0, #47361
 5886 13c6 FFF7FEFF 		bl	LCD_WriteReg
 5887              	.LVL1029:
1292:Core/Src/fsmc.c ****     //VGL_REG -10V
 5888              		.loc 1 1292 5 view .LVU1586
 5889 13ca 3421     		movs	r1, #52
 5890 13cc 4BF60210 		movw	r0, #47362
 5891 13d0 FFF7FEFF 		bl	LCD_WriteReg
 5892              	.LVL1030:
1294:Core/Src/fsmc.c ****     LCD_WriteReg(0xB501,0x08);
 5893              		.loc 1 1294 5 view .LVU1587
 5894 13d4 0821     		movs	r1, #8
 5895 13d6 4FF43540 		mov	r0, #46336
 5896 13da FFF7FEFF 		bl	LCD_WriteReg
ARM GAS  /tmp/ccE1vrH2.s 			page 168


 5897              	.LVL1031:
1295:Core/Src/fsmc.c ****     LCD_WriteReg(0xB502,0x08);
 5898              		.loc 1 1295 5 view .LVU1588
 5899 13de 0821     		movs	r1, #8
 5900 13e0 4BF20150 		movw	r0, #46337
 5901 13e4 FFF7FEFF 		bl	LCD_WriteReg
 5902              	.LVL1032:
1296:Core/Src/fsmc.c ****     LCD_WriteReg(0xC200,0x03);
 5903              		.loc 1 1296 5 view .LVU1589
 5904 13e8 0821     		movs	r1, #8
 5905 13ea 4BF20250 		movw	r0, #46338
 5906 13ee FFF7FEFF 		bl	LCD_WriteReg
 5907              	.LVL1033:
1297:Core/Src/fsmc.c ****     //VGLX ratio
 5908              		.loc 1 1297 5 view .LVU1590
 5909 13f2 0321     		movs	r1, #3
 5910 13f4 4FF44240 		mov	r0, #49664
 5911 13f8 FFF7FEFF 		bl	LCD_WriteReg
 5912              	.LVL1034:
1299:Core/Src/fsmc.c ****     LCD_WriteReg(0xBA01,0x24);
 5913              		.loc 1 1299 5 view .LVU1591
 5914 13fc 2421     		movs	r1, #36
 5915 13fe 4FF43A40 		mov	r0, #47616
 5916 1402 FFF7FEFF 		bl	LCD_WriteReg
 5917              	.LVL1035:
1300:Core/Src/fsmc.c ****     LCD_WriteReg(0xBA02,0x24);
 5918              		.loc 1 1300 5 view .LVU1592
 5919 1406 2421     		movs	r1, #36
 5920 1408 4BF60120 		movw	r0, #47617
 5921 140c FFF7FEFF 		bl	LCD_WriteReg
 5922              	.LVL1036:
1301:Core/Src/fsmc.c ****     //VGMP/VGSP 4.5V/0V
 5923              		.loc 1 1301 5 view .LVU1593
 5924 1410 2421     		movs	r1, #36
 5925 1412 4BF60220 		movw	r0, #47618
 5926 1416 FFF7FEFF 		bl	LCD_WriteReg
 5927              	.LVL1037:
1303:Core/Src/fsmc.c ****     LCD_WriteReg(0xBC01,0x78);
 5928              		.loc 1 1303 5 view .LVU1594
 5929 141a 0021     		movs	r1, #0
 5930 141c 4FF43C40 		mov	r0, #48128
 5931 1420 FFF7FEFF 		bl	LCD_WriteReg
 5932              	.LVL1038:
1304:Core/Src/fsmc.c ****     LCD_WriteReg(0xBC02,0x00);
 5933              		.loc 1 1304 5 view .LVU1595
 5934 1424 7821     		movs	r1, #120
 5935 1426 4BF60140 		movw	r0, #48129
 5936 142a FFF7FEFF 		bl	LCD_WriteReg
 5937              	.LVL1039:
1305:Core/Src/fsmc.c ****     //VGMN/VGSN -4.5V/0V
 5938              		.loc 1 1305 5 view .LVU1596
 5939 142e 0021     		movs	r1, #0
 5940 1430 4BF60240 		movw	r0, #48130
 5941 1434 FFF7FEFF 		bl	LCD_WriteReg
 5942              	.LVL1040:
1307:Core/Src/fsmc.c ****     LCD_WriteReg(0xBD01,0x78);
 5943              		.loc 1 1307 5 view .LVU1597
ARM GAS  /tmp/ccE1vrH2.s 			page 169


 5944 1438 0021     		movs	r1, #0
 5945 143a 4FF43D40 		mov	r0, #48384
 5946 143e FFF7FEFF 		bl	LCD_WriteReg
 5947              	.LVL1041:
1308:Core/Src/fsmc.c ****     LCD_WriteReg(0xBD02,0x00);
 5948              		.loc 1 1308 5 view .LVU1598
 5949 1442 7821     		movs	r1, #120
 5950 1444 4BF60150 		movw	r0, #48385
 5951 1448 FFF7FEFF 		bl	LCD_WriteReg
 5952              	.LVL1042:
1309:Core/Src/fsmc.c ****     //VCOM
 5953              		.loc 1 1309 5 view .LVU1599
 5954 144c 0021     		movs	r1, #0
 5955 144e 4BF60250 		movw	r0, #48386
 5956 1452 FFF7FEFF 		bl	LCD_WriteReg
 5957              	.LVL1043:
1311:Core/Src/fsmc.c ****     LCD_WriteReg(0xBE01,0x64);
 5958              		.loc 1 1311 5 view .LVU1600
 5959 1456 0021     		movs	r1, #0
 5960 1458 4FF43E40 		mov	r0, #48640
 5961 145c FFF7FEFF 		bl	LCD_WriteReg
 5962              	.LVL1044:
1312:Core/Src/fsmc.c ****     //Gamma Setting
 5963              		.loc 1 1312 5 view .LVU1601
 5964 1460 6421     		movs	r1, #100
 5965 1462 4BF60160 		movw	r0, #48641
 5966 1466 FFF7FEFF 		bl	LCD_WriteReg
 5967              	.LVL1045:
1314:Core/Src/fsmc.c ****     LCD_WriteReg(0xD101,0x33);
 5968              		.loc 1 1314 5 view .LVU1602
 5969 146a 0021     		movs	r1, #0
 5970 146c 4FF45140 		mov	r0, #53504
 5971 1470 FFF7FEFF 		bl	LCD_WriteReg
 5972              	.LVL1046:
1315:Core/Src/fsmc.c ****     LCD_WriteReg(0xD102,0x00);
 5973              		.loc 1 1315 5 view .LVU1603
 5974 1474 3321     		movs	r1, #51
 5975 1476 4DF20110 		movw	r0, #53505
 5976 147a FFF7FEFF 		bl	LCD_WriteReg
 5977              	.LVL1047:
1316:Core/Src/fsmc.c ****     LCD_WriteReg(0xD103,0x34);
 5978              		.loc 1 1316 5 view .LVU1604
 5979 147e 0021     		movs	r1, #0
 5980 1480 4DF20210 		movw	r0, #53506
 5981 1484 FFF7FEFF 		bl	LCD_WriteReg
 5982              	.LVL1048:
1317:Core/Src/fsmc.c ****     LCD_WriteReg(0xD104,0x00);
 5983              		.loc 1 1317 5 view .LVU1605
 5984 1488 3421     		movs	r1, #52
 5985 148a 4DF20310 		movw	r0, #53507
 5986 148e FFF7FEFF 		bl	LCD_WriteReg
 5987              	.LVL1049:
1318:Core/Src/fsmc.c ****     LCD_WriteReg(0xD105,0x3A);
 5988              		.loc 1 1318 5 view .LVU1606
 5989 1492 0021     		movs	r1, #0
 5990 1494 4DF20410 		movw	r0, #53508
 5991 1498 FFF7FEFF 		bl	LCD_WriteReg
ARM GAS  /tmp/ccE1vrH2.s 			page 170


 5992              	.LVL1050:
1319:Core/Src/fsmc.c ****     LCD_WriteReg(0xD106,0x00);
 5993              		.loc 1 1319 5 view .LVU1607
 5994 149c 3A21     		movs	r1, #58
 5995 149e 4DF20510 		movw	r0, #53509
 5996 14a2 FFF7FEFF 		bl	LCD_WriteReg
 5997              	.LVL1051:
1320:Core/Src/fsmc.c ****     LCD_WriteReg(0xD107,0x4A);
 5998              		.loc 1 1320 5 view .LVU1608
 5999 14a6 0021     		movs	r1, #0
 6000 14a8 4DF20610 		movw	r0, #53510
 6001 14ac FFF7FEFF 		bl	LCD_WriteReg
 6002              	.LVL1052:
1321:Core/Src/fsmc.c ****     LCD_WriteReg(0xD108,0x00);
 6003              		.loc 1 1321 5 view .LVU1609
 6004 14b0 4A21     		movs	r1, #74
 6005 14b2 4DF20710 		movw	r0, #53511
 6006 14b6 FFF7FEFF 		bl	LCD_WriteReg
 6007              	.LVL1053:
1322:Core/Src/fsmc.c ****     LCD_WriteReg(0xD109,0x5C);
 6008              		.loc 1 1322 5 view .LVU1610
 6009 14ba 0021     		movs	r1, #0
 6010 14bc 4DF20810 		movw	r0, #53512
 6011 14c0 FFF7FEFF 		bl	LCD_WriteReg
 6012              	.LVL1054:
1323:Core/Src/fsmc.c ****     LCD_WriteReg(0xD10A,0x00);
 6013              		.loc 1 1323 5 view .LVU1611
 6014 14c4 5C21     		movs	r1, #92
 6015 14c6 4DF20910 		movw	r0, #53513
 6016 14ca FFF7FEFF 		bl	LCD_WriteReg
 6017              	.LVL1055:
1324:Core/Src/fsmc.c ****     LCD_WriteReg(0xD10B,0x81);
 6018              		.loc 1 1324 5 view .LVU1612
 6019 14ce 0021     		movs	r1, #0
 6020 14d0 4DF20A10 		movw	r0, #53514
 6021 14d4 FFF7FEFF 		bl	LCD_WriteReg
 6022              	.LVL1056:
1325:Core/Src/fsmc.c ****     LCD_WriteReg(0xD10C,0x00);
 6023              		.loc 1 1325 5 view .LVU1613
 6024 14d8 8121     		movs	r1, #129
 6025 14da 4DF20B10 		movw	r0, #53515
 6026 14de FFF7FEFF 		bl	LCD_WriteReg
 6027              	.LVL1057:
1326:Core/Src/fsmc.c ****     LCD_WriteReg(0xD10D,0xA6);
 6028              		.loc 1 1326 5 view .LVU1614
 6029 14e2 0021     		movs	r1, #0
 6030 14e4 4DF20C10 		movw	r0, #53516
 6031 14e8 FFF7FEFF 		bl	LCD_WriteReg
 6032              	.LVL1058:
1327:Core/Src/fsmc.c ****     LCD_WriteReg(0xD10E,0x00);
 6033              		.loc 1 1327 5 view .LVU1615
 6034 14ec A621     		movs	r1, #166
 6035 14ee 4DF20D10 		movw	r0, #53517
 6036 14f2 FFF7FEFF 		bl	LCD_WriteReg
 6037              	.LVL1059:
1328:Core/Src/fsmc.c ****     LCD_WriteReg(0xD10F,0xE5);
 6038              		.loc 1 1328 5 view .LVU1616
ARM GAS  /tmp/ccE1vrH2.s 			page 171


 6039 14f6 0021     		movs	r1, #0
 6040 14f8 4DF20E10 		movw	r0, #53518
 6041 14fc FFF7FEFF 		bl	LCD_WriteReg
 6042              	.LVL1060:
1329:Core/Src/fsmc.c ****     LCD_WriteReg(0xD110,0x01);
 6043              		.loc 1 1329 5 view .LVU1617
 6044 1500 E521     		movs	r1, #229
 6045 1502 4DF20F10 		movw	r0, #53519
 6046 1506 FFF7FEFF 		bl	LCD_WriteReg
 6047              	.LVL1061:
1330:Core/Src/fsmc.c ****     LCD_WriteReg(0xD111,0x13);
 6048              		.loc 1 1330 5 view .LVU1618
 6049 150a 0121     		movs	r1, #1
 6050 150c 4DF21010 		movw	r0, #53520
 6051 1510 FFF7FEFF 		bl	LCD_WriteReg
 6052              	.LVL1062:
1331:Core/Src/fsmc.c ****     LCD_WriteReg(0xD112,0x01);
 6053              		.loc 1 1331 5 view .LVU1619
 6054 1514 1321     		movs	r1, #19
 6055 1516 4DF21110 		movw	r0, #53521
 6056 151a FFF7FEFF 		bl	LCD_WriteReg
 6057              	.LVL1063:
1332:Core/Src/fsmc.c ****     LCD_WriteReg(0xD113,0x54);
 6058              		.loc 1 1332 5 view .LVU1620
 6059 151e 0121     		movs	r1, #1
 6060 1520 4DF21210 		movw	r0, #53522
 6061 1524 FFF7FEFF 		bl	LCD_WriteReg
 6062              	.LVL1064:
1333:Core/Src/fsmc.c ****     LCD_WriteReg(0xD114,0x01);
 6063              		.loc 1 1333 5 view .LVU1621
 6064 1528 5421     		movs	r1, #84
 6065 152a 4DF21310 		movw	r0, #53523
 6066 152e FFF7FEFF 		bl	LCD_WriteReg
 6067              	.LVL1065:
1334:Core/Src/fsmc.c ****     LCD_WriteReg(0xD115,0x82);
 6068              		.loc 1 1334 5 view .LVU1622
 6069 1532 0121     		movs	r1, #1
 6070 1534 4DF21410 		movw	r0, #53524
 6071 1538 FFF7FEFF 		bl	LCD_WriteReg
 6072              	.LVL1066:
1335:Core/Src/fsmc.c ****     LCD_WriteReg(0xD116,0x01);
 6073              		.loc 1 1335 5 view .LVU1623
 6074 153c 8221     		movs	r1, #130
 6075 153e 4DF21510 		movw	r0, #53525
 6076 1542 FFF7FEFF 		bl	LCD_WriteReg
 6077              	.LVL1067:
1336:Core/Src/fsmc.c ****     LCD_WriteReg(0xD117,0xCA);
 6078              		.loc 1 1336 5 view .LVU1624
 6079 1546 0121     		movs	r1, #1
 6080 1548 4DF21610 		movw	r0, #53526
 6081 154c FFF7FEFF 		bl	LCD_WriteReg
 6082              	.LVL1068:
1337:Core/Src/fsmc.c ****     LCD_WriteReg(0xD118,0x02);
 6083              		.loc 1 1337 5 view .LVU1625
 6084 1550 CA21     		movs	r1, #202
 6085 1552 4DF21710 		movw	r0, #53527
 6086 1556 FFF7FEFF 		bl	LCD_WriteReg
ARM GAS  /tmp/ccE1vrH2.s 			page 172


 6087              	.LVL1069:
1338:Core/Src/fsmc.c ****     LCD_WriteReg(0xD119,0x00);
 6088              		.loc 1 1338 5 view .LVU1626
 6089 155a 0221     		movs	r1, #2
 6090 155c 4DF21810 		movw	r0, #53528
 6091 1560 FFF7FEFF 		bl	LCD_WriteReg
 6092              	.LVL1070:
1339:Core/Src/fsmc.c ****     LCD_WriteReg(0xD11A,0x02);
 6093              		.loc 1 1339 5 view .LVU1627
 6094 1564 0021     		movs	r1, #0
 6095 1566 4DF21910 		movw	r0, #53529
 6096 156a FFF7FEFF 		bl	LCD_WriteReg
 6097              	.LVL1071:
1340:Core/Src/fsmc.c ****     LCD_WriteReg(0xD11B,0x01);
 6098              		.loc 1 1340 5 view .LVU1628
 6099 156e 0221     		movs	r1, #2
 6100 1570 4DF21A10 		movw	r0, #53530
 6101 1574 FFF7FEFF 		bl	LCD_WriteReg
 6102              	.LVL1072:
1341:Core/Src/fsmc.c ****     LCD_WriteReg(0xD11C,0x02);
 6103              		.loc 1 1341 5 view .LVU1629
 6104 1578 0121     		movs	r1, #1
 6105 157a 4DF21B10 		movw	r0, #53531
 6106 157e FFF7FEFF 		bl	LCD_WriteReg
 6107              	.LVL1073:
1342:Core/Src/fsmc.c ****     LCD_WriteReg(0xD11D,0x34);
 6108              		.loc 1 1342 5 view .LVU1630
 6109 1582 0221     		movs	r1, #2
 6110 1584 4DF21C10 		movw	r0, #53532
 6111 1588 FFF7FEFF 		bl	LCD_WriteReg
 6112              	.LVL1074:
1343:Core/Src/fsmc.c ****     LCD_WriteReg(0xD11E,0x02);
 6113              		.loc 1 1343 5 view .LVU1631
 6114 158c 3421     		movs	r1, #52
 6115 158e 4DF21D10 		movw	r0, #53533
 6116 1592 FFF7FEFF 		bl	LCD_WriteReg
 6117              	.LVL1075:
1344:Core/Src/fsmc.c ****     LCD_WriteReg(0xD11F,0x67);
 6118              		.loc 1 1344 5 view .LVU1632
 6119 1596 0221     		movs	r1, #2
 6120 1598 4DF21E10 		movw	r0, #53534
 6121 159c FFF7FEFF 		bl	LCD_WriteReg
 6122              	.LVL1076:
1345:Core/Src/fsmc.c ****     LCD_WriteReg(0xD120,0x02);
 6123              		.loc 1 1345 5 view .LVU1633
 6124 15a0 6721     		movs	r1, #103
 6125 15a2 4DF21F10 		movw	r0, #53535
 6126 15a6 FFF7FEFF 		bl	LCD_WriteReg
 6127              	.LVL1077:
1346:Core/Src/fsmc.c ****     LCD_WriteReg(0xD121,0x84);
 6128              		.loc 1 1346 5 view .LVU1634
 6129 15aa 0221     		movs	r1, #2
 6130 15ac 4DF22010 		movw	r0, #53536
 6131 15b0 FFF7FEFF 		bl	LCD_WriteReg
 6132              	.LVL1078:
1347:Core/Src/fsmc.c ****     LCD_WriteReg(0xD122,0x02);
 6133              		.loc 1 1347 5 view .LVU1635
ARM GAS  /tmp/ccE1vrH2.s 			page 173


 6134 15b4 8421     		movs	r1, #132
 6135 15b6 4DF22110 		movw	r0, #53537
 6136 15ba FFF7FEFF 		bl	LCD_WriteReg
 6137              	.LVL1079:
1348:Core/Src/fsmc.c ****     LCD_WriteReg(0xD123,0xA4);
 6138              		.loc 1 1348 5 view .LVU1636
 6139 15be 0221     		movs	r1, #2
 6140 15c0 4DF22210 		movw	r0, #53538
 6141 15c4 FFF7FEFF 		bl	LCD_WriteReg
 6142              	.LVL1080:
1349:Core/Src/fsmc.c ****     LCD_WriteReg(0xD124,0x02);
 6143              		.loc 1 1349 5 view .LVU1637
 6144 15c8 A421     		movs	r1, #164
 6145 15ca 4DF22310 		movw	r0, #53539
 6146 15ce FFF7FEFF 		bl	LCD_WriteReg
 6147              	.LVL1081:
1350:Core/Src/fsmc.c ****     LCD_WriteReg(0xD125,0xB7);
 6148              		.loc 1 1350 5 view .LVU1638
 6149 15d2 0221     		movs	r1, #2
 6150 15d4 4DF22410 		movw	r0, #53540
 6151 15d8 FFF7FEFF 		bl	LCD_WriteReg
 6152              	.LVL1082:
1351:Core/Src/fsmc.c ****     LCD_WriteReg(0xD126,0x02);
 6153              		.loc 1 1351 5 view .LVU1639
 6154 15dc B721     		movs	r1, #183
 6155 15de 4DF22510 		movw	r0, #53541
 6156 15e2 FFF7FEFF 		bl	LCD_WriteReg
 6157              	.LVL1083:
1352:Core/Src/fsmc.c ****     LCD_WriteReg(0xD127,0xCF);
 6158              		.loc 1 1352 5 view .LVU1640
 6159 15e6 0221     		movs	r1, #2
 6160 15e8 4DF22610 		movw	r0, #53542
 6161 15ec FFF7FEFF 		bl	LCD_WriteReg
 6162              	.LVL1084:
1353:Core/Src/fsmc.c ****     LCD_WriteReg(0xD128,0x02);
 6163              		.loc 1 1353 5 view .LVU1641
 6164 15f0 CF21     		movs	r1, #207
 6165 15f2 4DF22710 		movw	r0, #53543
 6166 15f6 FFF7FEFF 		bl	LCD_WriteReg
 6167              	.LVL1085:
1354:Core/Src/fsmc.c ****     LCD_WriteReg(0xD129,0xDE);
 6168              		.loc 1 1354 5 view .LVU1642
 6169 15fa 0221     		movs	r1, #2
 6170 15fc 4DF22810 		movw	r0, #53544
 6171 1600 FFF7FEFF 		bl	LCD_WriteReg
 6172              	.LVL1086:
1355:Core/Src/fsmc.c ****     LCD_WriteReg(0xD12A,0x02);
 6173              		.loc 1 1355 5 view .LVU1643
 6174 1604 DE21     		movs	r1, #222
 6175 1606 4DF22910 		movw	r0, #53545
 6176 160a FFF7FEFF 		bl	LCD_WriteReg
 6177              	.LVL1087:
1356:Core/Src/fsmc.c ****     LCD_WriteReg(0xD12B,0xF2);
 6178              		.loc 1 1356 5 view .LVU1644
 6179 160e 0221     		movs	r1, #2
 6180 1610 4DF22A10 		movw	r0, #53546
 6181 1614 FFF7FEFF 		bl	LCD_WriteReg
ARM GAS  /tmp/ccE1vrH2.s 			page 174


 6182              	.LVL1088:
1357:Core/Src/fsmc.c ****     LCD_WriteReg(0xD12C,0x02);
 6183              		.loc 1 1357 5 view .LVU1645
 6184 1618 F221     		movs	r1, #242
 6185 161a 4DF22B10 		movw	r0, #53547
 6186 161e FFF7FEFF 		bl	LCD_WriteReg
 6187              	.LVL1089:
1358:Core/Src/fsmc.c ****     LCD_WriteReg(0xD12D,0xFE);
 6188              		.loc 1 1358 5 view .LVU1646
 6189 1622 0221     		movs	r1, #2
 6190 1624 4DF22C10 		movw	r0, #53548
 6191 1628 FFF7FEFF 		bl	LCD_WriteReg
 6192              	.LVL1090:
1359:Core/Src/fsmc.c ****     LCD_WriteReg(0xD12E,0x03);
 6193              		.loc 1 1359 5 view .LVU1647
 6194 162c FE21     		movs	r1, #254
 6195 162e 4DF22D10 		movw	r0, #53549
 6196 1632 FFF7FEFF 		bl	LCD_WriteReg
 6197              	.LVL1091:
1360:Core/Src/fsmc.c ****     LCD_WriteReg(0xD12F,0x10);
 6198              		.loc 1 1360 5 view .LVU1648
 6199 1636 0321     		movs	r1, #3
 6200 1638 4DF22E10 		movw	r0, #53550
 6201 163c FFF7FEFF 		bl	LCD_WriteReg
 6202              	.LVL1092:
1361:Core/Src/fsmc.c ****     LCD_WriteReg(0xD130,0x03);
 6203              		.loc 1 1361 5 view .LVU1649
 6204 1640 1021     		movs	r1, #16
 6205 1642 4DF22F10 		movw	r0, #53551
 6206 1646 FFF7FEFF 		bl	LCD_WriteReg
 6207              	.LVL1093:
1362:Core/Src/fsmc.c ****     LCD_WriteReg(0xD131,0x33);
 6208              		.loc 1 1362 5 view .LVU1650
 6209 164a 0321     		movs	r1, #3
 6210 164c 4DF23010 		movw	r0, #53552
 6211 1650 FFF7FEFF 		bl	LCD_WriteReg
 6212              	.LVL1094:
1363:Core/Src/fsmc.c ****     LCD_WriteReg(0xD132,0x03);
 6213              		.loc 1 1363 5 view .LVU1651
 6214 1654 3321     		movs	r1, #51
 6215 1656 4DF23110 		movw	r0, #53553
 6216 165a FFF7FEFF 		bl	LCD_WriteReg
 6217              	.LVL1095:
1364:Core/Src/fsmc.c ****     LCD_WriteReg(0xD133,0x6D);
 6218              		.loc 1 1364 5 view .LVU1652
 6219 165e 0321     		movs	r1, #3
 6220 1660 4DF23210 		movw	r0, #53554
 6221 1664 FFF7FEFF 		bl	LCD_WriteReg
 6222              	.LVL1096:
1365:Core/Src/fsmc.c ****     LCD_WriteReg(0xD200,0x00);
 6223              		.loc 1 1365 5 view .LVU1653
 6224 1668 6D21     		movs	r1, #109
 6225 166a 4DF23310 		movw	r0, #53555
 6226 166e FFF7FEFF 		bl	LCD_WriteReg
 6227              	.LVL1097:
1366:Core/Src/fsmc.c ****     LCD_WriteReg(0xD201,0x33);
 6228              		.loc 1 1366 5 view .LVU1654
ARM GAS  /tmp/ccE1vrH2.s 			page 175


 6229 1672 0021     		movs	r1, #0
 6230 1674 4FF45240 		mov	r0, #53760
 6231 1678 FFF7FEFF 		bl	LCD_WriteReg
 6232              	.LVL1098:
1367:Core/Src/fsmc.c ****     LCD_WriteReg(0xD202,0x00);
 6233              		.loc 1 1367 5 view .LVU1655
 6234 167c 3321     		movs	r1, #51
 6235 167e 4DF20120 		movw	r0, #53761
 6236 1682 FFF7FEFF 		bl	LCD_WriteReg
 6237              	.LVL1099:
1368:Core/Src/fsmc.c ****     LCD_WriteReg(0xD203,0x34);
 6238              		.loc 1 1368 5 view .LVU1656
 6239 1686 0021     		movs	r1, #0
 6240 1688 4DF20220 		movw	r0, #53762
 6241 168c FFF7FEFF 		bl	LCD_WriteReg
 6242              	.LVL1100:
1369:Core/Src/fsmc.c ****     LCD_WriteReg(0xD204,0x00);
 6243              		.loc 1 1369 5 view .LVU1657
 6244 1690 3421     		movs	r1, #52
 6245 1692 4DF20320 		movw	r0, #53763
 6246 1696 FFF7FEFF 		bl	LCD_WriteReg
 6247              	.LVL1101:
1370:Core/Src/fsmc.c ****     LCD_WriteReg(0xD205,0x3A);
 6248              		.loc 1 1370 5 view .LVU1658
 6249 169a 0021     		movs	r1, #0
 6250 169c 4DF20420 		movw	r0, #53764
 6251 16a0 FFF7FEFF 		bl	LCD_WriteReg
 6252              	.LVL1102:
1371:Core/Src/fsmc.c ****     LCD_WriteReg(0xD206,0x00);
 6253              		.loc 1 1371 5 view .LVU1659
 6254 16a4 3A21     		movs	r1, #58
 6255 16a6 4DF20520 		movw	r0, #53765
 6256 16aa FFF7FEFF 		bl	LCD_WriteReg
 6257              	.LVL1103:
1372:Core/Src/fsmc.c ****     LCD_WriteReg(0xD207,0x4A);
 6258              		.loc 1 1372 5 view .LVU1660
 6259 16ae 0021     		movs	r1, #0
 6260 16b0 4DF20620 		movw	r0, #53766
 6261 16b4 FFF7FEFF 		bl	LCD_WriteReg
 6262              	.LVL1104:
1373:Core/Src/fsmc.c ****     LCD_WriteReg(0xD208,0x00);
 6263              		.loc 1 1373 5 view .LVU1661
 6264 16b8 4A21     		movs	r1, #74
 6265 16ba 4DF20720 		movw	r0, #53767
 6266 16be FFF7FEFF 		bl	LCD_WriteReg
 6267              	.LVL1105:
1374:Core/Src/fsmc.c ****     LCD_WriteReg(0xD209,0x5C);
 6268              		.loc 1 1374 5 view .LVU1662
 6269 16c2 0021     		movs	r1, #0
 6270 16c4 4DF20820 		movw	r0, #53768
 6271 16c8 FFF7FEFF 		bl	LCD_WriteReg
 6272              	.LVL1106:
1375:Core/Src/fsmc.c ****     LCD_WriteReg(0xD20A,0x00);
 6273              		.loc 1 1375 5 view .LVU1663
 6274 16cc 5C21     		movs	r1, #92
 6275 16ce 4DF20920 		movw	r0, #53769
 6276 16d2 FFF7FEFF 		bl	LCD_WriteReg
ARM GAS  /tmp/ccE1vrH2.s 			page 176


 6277              	.LVL1107:
1376:Core/Src/fsmc.c **** 
 6278              		.loc 1 1376 5 view .LVU1664
 6279 16d6 0021     		movs	r1, #0
 6280 16d8 4DF20A20 		movw	r0, #53770
 6281 16dc FFF7FEFF 		bl	LCD_WriteReg
 6282              	.LVL1108:
1378:Core/Src/fsmc.c ****     LCD_WriteReg(0xD20C,0x00);
 6283              		.loc 1 1378 5 view .LVU1665
 6284 16e0 8121     		movs	r1, #129
 6285 16e2 4DF20B20 		movw	r0, #53771
 6286 16e6 FFF7FEFF 		bl	LCD_WriteReg
 6287              	.LVL1109:
1379:Core/Src/fsmc.c ****     LCD_WriteReg(0xD20D,0xA6);
 6288              		.loc 1 1379 5 view .LVU1666
 6289 16ea 0021     		movs	r1, #0
 6290 16ec 4DF20C20 		movw	r0, #53772
 6291 16f0 FFF7FEFF 		bl	LCD_WriteReg
 6292              	.LVL1110:
1380:Core/Src/fsmc.c ****     LCD_WriteReg(0xD20E,0x00);
 6293              		.loc 1 1380 5 view .LVU1667
 6294 16f4 A621     		movs	r1, #166
 6295 16f6 4DF20D20 		movw	r0, #53773
 6296 16fa FFF7FEFF 		bl	LCD_WriteReg
 6297              	.LVL1111:
1381:Core/Src/fsmc.c ****     LCD_WriteReg(0xD20F,0xE5);
 6298              		.loc 1 1381 5 view .LVU1668
 6299 16fe 0021     		movs	r1, #0
 6300 1700 4DF20E20 		movw	r0, #53774
 6301 1704 FFF7FEFF 		bl	LCD_WriteReg
 6302              	.LVL1112:
1382:Core/Src/fsmc.c ****     LCD_WriteReg(0xD210,0x01);
 6303              		.loc 1 1382 5 view .LVU1669
 6304 1708 E521     		movs	r1, #229
 6305 170a 4DF20F20 		movw	r0, #53775
 6306 170e FFF7FEFF 		bl	LCD_WriteReg
 6307              	.LVL1113:
1383:Core/Src/fsmc.c ****     LCD_WriteReg(0xD211,0x13);
 6308              		.loc 1 1383 5 view .LVU1670
 6309 1712 0121     		movs	r1, #1
 6310 1714 4DF21020 		movw	r0, #53776
 6311 1718 FFF7FEFF 		bl	LCD_WriteReg
 6312              	.LVL1114:
1384:Core/Src/fsmc.c ****     LCD_WriteReg(0xD212,0x01);
 6313              		.loc 1 1384 5 view .LVU1671
 6314 171c 1321     		movs	r1, #19
 6315 171e 4DF21120 		movw	r0, #53777
 6316 1722 FFF7FEFF 		bl	LCD_WriteReg
 6317              	.LVL1115:
1385:Core/Src/fsmc.c ****     LCD_WriteReg(0xD213,0x54);
 6318              		.loc 1 1385 5 view .LVU1672
 6319 1726 0121     		movs	r1, #1
 6320 1728 4DF21220 		movw	r0, #53778
 6321 172c FFF7FEFF 		bl	LCD_WriteReg
 6322              	.LVL1116:
1386:Core/Src/fsmc.c ****     LCD_WriteReg(0xD214,0x01);
 6323              		.loc 1 1386 5 view .LVU1673
ARM GAS  /tmp/ccE1vrH2.s 			page 177


 6324 1730 5421     		movs	r1, #84
 6325 1732 4DF21320 		movw	r0, #53779
 6326 1736 FFF7FEFF 		bl	LCD_WriteReg
 6327              	.LVL1117:
1387:Core/Src/fsmc.c ****     LCD_WriteReg(0xD215,0x82);
 6328              		.loc 1 1387 5 view .LVU1674
 6329 173a 0121     		movs	r1, #1
 6330 173c 4DF21420 		movw	r0, #53780
 6331 1740 FFF7FEFF 		bl	LCD_WriteReg
 6332              	.LVL1118:
1388:Core/Src/fsmc.c ****     LCD_WriteReg(0xD216,0x01);
 6333              		.loc 1 1388 5 view .LVU1675
 6334 1744 8221     		movs	r1, #130
 6335 1746 4DF21520 		movw	r0, #53781
 6336 174a FFF7FEFF 		bl	LCD_WriteReg
 6337              	.LVL1119:
1389:Core/Src/fsmc.c ****     LCD_WriteReg(0xD217,0xCA);
 6338              		.loc 1 1389 5 view .LVU1676
 6339 174e 0121     		movs	r1, #1
 6340 1750 4DF21620 		movw	r0, #53782
 6341 1754 FFF7FEFF 		bl	LCD_WriteReg
 6342              	.LVL1120:
1390:Core/Src/fsmc.c ****     LCD_WriteReg(0xD218,0x02);
 6343              		.loc 1 1390 5 view .LVU1677
 6344 1758 CA21     		movs	r1, #202
 6345 175a 4DF21720 		movw	r0, #53783
 6346 175e FFF7FEFF 		bl	LCD_WriteReg
 6347              	.LVL1121:
1391:Core/Src/fsmc.c ****     LCD_WriteReg(0xD219,0x00);
 6348              		.loc 1 1391 5 view .LVU1678
 6349 1762 0221     		movs	r1, #2
 6350 1764 4DF21820 		movw	r0, #53784
 6351 1768 FFF7FEFF 		bl	LCD_WriteReg
 6352              	.LVL1122:
1392:Core/Src/fsmc.c ****     LCD_WriteReg(0xD21A,0x02);
 6353              		.loc 1 1392 5 view .LVU1679
 6354 176c 0021     		movs	r1, #0
 6355 176e 4DF21920 		movw	r0, #53785
 6356 1772 FFF7FEFF 		bl	LCD_WriteReg
 6357              	.LVL1123:
1393:Core/Src/fsmc.c ****     LCD_WriteReg(0xD21B,0x01);
 6358              		.loc 1 1393 5 view .LVU1680
 6359 1776 0221     		movs	r1, #2
 6360 1778 4DF21A20 		movw	r0, #53786
 6361 177c FFF7FEFF 		bl	LCD_WriteReg
 6362              	.LVL1124:
1394:Core/Src/fsmc.c ****     LCD_WriteReg(0xD21C,0x02);
 6363              		.loc 1 1394 5 view .LVU1681
 6364 1780 0121     		movs	r1, #1
 6365 1782 4DF21B20 		movw	r0, #53787
 6366 1786 FFF7FEFF 		bl	LCD_WriteReg
 6367              	.LVL1125:
1395:Core/Src/fsmc.c ****     LCD_WriteReg(0xD21D,0x34);
 6368              		.loc 1 1395 5 view .LVU1682
 6369 178a 0221     		movs	r1, #2
 6370 178c 4DF21C20 		movw	r0, #53788
 6371 1790 FFF7FEFF 		bl	LCD_WriteReg
ARM GAS  /tmp/ccE1vrH2.s 			page 178


 6372              	.LVL1126:
1396:Core/Src/fsmc.c ****     LCD_WriteReg(0xD21E,0x02);
 6373              		.loc 1 1396 5 view .LVU1683
 6374 1794 3421     		movs	r1, #52
 6375 1796 4DF21D20 		movw	r0, #53789
 6376 179a FFF7FEFF 		bl	LCD_WriteReg
 6377              	.LVL1127:
1397:Core/Src/fsmc.c ****     LCD_WriteReg(0xD21F,0x67);
 6378              		.loc 1 1397 5 view .LVU1684
 6379 179e 0221     		movs	r1, #2
 6380 17a0 4DF21E20 		movw	r0, #53790
 6381 17a4 FFF7FEFF 		bl	LCD_WriteReg
 6382              	.LVL1128:
1398:Core/Src/fsmc.c ****     LCD_WriteReg(0xD220,0x02);
 6383              		.loc 1 1398 5 view .LVU1685
 6384 17a8 6721     		movs	r1, #103
 6385 17aa 4DF21F20 		movw	r0, #53791
 6386 17ae FFF7FEFF 		bl	LCD_WriteReg
 6387              	.LVL1129:
1399:Core/Src/fsmc.c ****     LCD_WriteReg(0xD221,0x84);
 6388              		.loc 1 1399 5 view .LVU1686
 6389 17b2 0221     		movs	r1, #2
 6390 17b4 4DF22020 		movw	r0, #53792
 6391 17b8 FFF7FEFF 		bl	LCD_WriteReg
 6392              	.LVL1130:
1400:Core/Src/fsmc.c ****     LCD_WriteReg(0xD222,0x02);
 6393              		.loc 1 1400 5 view .LVU1687
 6394 17bc 8421     		movs	r1, #132
 6395 17be 4DF22120 		movw	r0, #53793
 6396 17c2 FFF7FEFF 		bl	LCD_WriteReg
 6397              	.LVL1131:
1401:Core/Src/fsmc.c ****     LCD_WriteReg(0xD223,0xA4);
 6398              		.loc 1 1401 5 view .LVU1688
 6399 17c6 0221     		movs	r1, #2
 6400 17c8 4DF22220 		movw	r0, #53794
 6401 17cc FFF7FEFF 		bl	LCD_WriteReg
 6402              	.LVL1132:
1402:Core/Src/fsmc.c ****     LCD_WriteReg(0xD224,0x02);
 6403              		.loc 1 1402 5 view .LVU1689
 6404 17d0 A421     		movs	r1, #164
 6405 17d2 4DF22320 		movw	r0, #53795
 6406 17d6 FFF7FEFF 		bl	LCD_WriteReg
 6407              	.LVL1133:
1403:Core/Src/fsmc.c ****     LCD_WriteReg(0xD225,0xB7);
 6408              		.loc 1 1403 5 view .LVU1690
 6409 17da 0221     		movs	r1, #2
 6410 17dc 4DF22420 		movw	r0, #53796
 6411 17e0 FFF7FEFF 		bl	LCD_WriteReg
 6412              	.LVL1134:
1404:Core/Src/fsmc.c ****     LCD_WriteReg(0xD226,0x02);
 6413              		.loc 1 1404 5 view .LVU1691
 6414 17e4 B721     		movs	r1, #183
 6415 17e6 4DF22520 		movw	r0, #53797
 6416 17ea FFF7FEFF 		bl	LCD_WriteReg
 6417              	.LVL1135:
1405:Core/Src/fsmc.c ****     LCD_WriteReg(0xD227,0xCF);
 6418              		.loc 1 1405 5 view .LVU1692
ARM GAS  /tmp/ccE1vrH2.s 			page 179


 6419 17ee 0221     		movs	r1, #2
 6420 17f0 4DF22620 		movw	r0, #53798
 6421 17f4 FFF7FEFF 		bl	LCD_WriteReg
 6422              	.LVL1136:
1406:Core/Src/fsmc.c ****     LCD_WriteReg(0xD228,0x02);
 6423              		.loc 1 1406 5 view .LVU1693
 6424 17f8 CF21     		movs	r1, #207
 6425 17fa 4DF22720 		movw	r0, #53799
 6426 17fe FFF7FEFF 		bl	LCD_WriteReg
 6427              	.LVL1137:
1407:Core/Src/fsmc.c ****     LCD_WriteReg(0xD229,0xDE);
 6428              		.loc 1 1407 5 view .LVU1694
 6429 1802 0221     		movs	r1, #2
 6430 1804 4DF22820 		movw	r0, #53800
 6431 1808 FFF7FEFF 		bl	LCD_WriteReg
 6432              	.LVL1138:
1408:Core/Src/fsmc.c ****     LCD_WriteReg(0xD22A,0x02);
 6433              		.loc 1 1408 5 view .LVU1695
 6434 180c DE21     		movs	r1, #222
 6435 180e 4DF22920 		movw	r0, #53801
 6436 1812 FFF7FEFF 		bl	LCD_WriteReg
 6437              	.LVL1139:
1409:Core/Src/fsmc.c ****     LCD_WriteReg(0xD22B,0xF2);
 6438              		.loc 1 1409 5 view .LVU1696
 6439 1816 0221     		movs	r1, #2
 6440 1818 4DF22A20 		movw	r0, #53802
 6441 181c FFF7FEFF 		bl	LCD_WriteReg
 6442              	.LVL1140:
1410:Core/Src/fsmc.c ****     LCD_WriteReg(0xD22C,0x02);
 6443              		.loc 1 1410 5 view .LVU1697
 6444 1820 F221     		movs	r1, #242
 6445 1822 4DF22B20 		movw	r0, #53803
 6446 1826 FFF7FEFF 		bl	LCD_WriteReg
 6447              	.LVL1141:
1411:Core/Src/fsmc.c ****     LCD_WriteReg(0xD22D,0xFE);
 6448              		.loc 1 1411 5 view .LVU1698
 6449 182a 0221     		movs	r1, #2
 6450 182c 4DF22C20 		movw	r0, #53804
 6451 1830 FFF7FEFF 		bl	LCD_WriteReg
 6452              	.LVL1142:
1412:Core/Src/fsmc.c ****     LCD_WriteReg(0xD22E,0x03);
 6453              		.loc 1 1412 5 view .LVU1699
 6454 1834 FE21     		movs	r1, #254
 6455 1836 4DF22D20 		movw	r0, #53805
 6456 183a FFF7FEFF 		bl	LCD_WriteReg
 6457              	.LVL1143:
1413:Core/Src/fsmc.c ****     LCD_WriteReg(0xD22F,0x10);
 6458              		.loc 1 1413 5 view .LVU1700
 6459 183e 0321     		movs	r1, #3
 6460 1840 4DF22E20 		movw	r0, #53806
 6461 1844 FFF7FEFF 		bl	LCD_WriteReg
 6462              	.LVL1144:
1414:Core/Src/fsmc.c ****     LCD_WriteReg(0xD230,0x03);
 6463              		.loc 1 1414 5 view .LVU1701
 6464 1848 1021     		movs	r1, #16
 6465 184a 4DF22F20 		movw	r0, #53807
 6466 184e FFF7FEFF 		bl	LCD_WriteReg
ARM GAS  /tmp/ccE1vrH2.s 			page 180


 6467              	.LVL1145:
1415:Core/Src/fsmc.c ****     LCD_WriteReg(0xD231,0x33);
 6468              		.loc 1 1415 5 view .LVU1702
 6469 1852 0321     		movs	r1, #3
 6470 1854 4DF23020 		movw	r0, #53808
 6471 1858 FFF7FEFF 		bl	LCD_WriteReg
 6472              	.LVL1146:
1416:Core/Src/fsmc.c ****     LCD_WriteReg(0xD232,0x03);
 6473              		.loc 1 1416 5 view .LVU1703
 6474 185c 3321     		movs	r1, #51
 6475 185e 4DF23120 		movw	r0, #53809
 6476 1862 FFF7FEFF 		bl	LCD_WriteReg
 6477              	.LVL1147:
1417:Core/Src/fsmc.c ****     LCD_WriteReg(0xD233,0x6D);
 6478              		.loc 1 1417 5 view .LVU1704
 6479 1866 0321     		movs	r1, #3
 6480 1868 4DF23220 		movw	r0, #53810
 6481 186c FFF7FEFF 		bl	LCD_WriteReg
 6482              	.LVL1148:
1418:Core/Src/fsmc.c ****     LCD_WriteReg(0xD300,0x00);
 6483              		.loc 1 1418 5 view .LVU1705
 6484 1870 6D21     		movs	r1, #109
 6485 1872 4DF23320 		movw	r0, #53811
 6486 1876 FFF7FEFF 		bl	LCD_WriteReg
 6487              	.LVL1149:
1419:Core/Src/fsmc.c ****     LCD_WriteReg(0xD301,0x33);
 6488              		.loc 1 1419 5 view .LVU1706
 6489 187a 0021     		movs	r1, #0
 6490 187c 4FF45340 		mov	r0, #54016
 6491 1880 FFF7FEFF 		bl	LCD_WriteReg
 6492              	.LVL1150:
1420:Core/Src/fsmc.c ****     LCD_WriteReg(0xD302,0x00);
 6493              		.loc 1 1420 5 view .LVU1707
 6494 1884 3321     		movs	r1, #51
 6495 1886 4DF20130 		movw	r0, #54017
 6496 188a FFF7FEFF 		bl	LCD_WriteReg
 6497              	.LVL1151:
1421:Core/Src/fsmc.c ****     LCD_WriteReg(0xD303,0x34);
 6498              		.loc 1 1421 5 view .LVU1708
 6499 188e 0021     		movs	r1, #0
 6500 1890 4DF20230 		movw	r0, #54018
 6501 1894 FFF7FEFF 		bl	LCD_WriteReg
 6502              	.LVL1152:
1422:Core/Src/fsmc.c ****     LCD_WriteReg(0xD304,0x00);
 6503              		.loc 1 1422 5 view .LVU1709
 6504 1898 3421     		movs	r1, #52
 6505 189a 4DF20330 		movw	r0, #54019
 6506 189e FFF7FEFF 		bl	LCD_WriteReg
 6507              	.LVL1153:
1423:Core/Src/fsmc.c ****     LCD_WriteReg(0xD305,0x3A);
 6508              		.loc 1 1423 5 view .LVU1710
 6509 18a2 0021     		movs	r1, #0
 6510 18a4 4DF20430 		movw	r0, #54020
 6511 18a8 FFF7FEFF 		bl	LCD_WriteReg
 6512              	.LVL1154:
1424:Core/Src/fsmc.c ****     LCD_WriteReg(0xD306,0x00);
 6513              		.loc 1 1424 5 view .LVU1711
ARM GAS  /tmp/ccE1vrH2.s 			page 181


 6514 18ac 3A21     		movs	r1, #58
 6515 18ae 4DF20530 		movw	r0, #54021
 6516 18b2 FFF7FEFF 		bl	LCD_WriteReg
 6517              	.LVL1155:
1425:Core/Src/fsmc.c ****     LCD_WriteReg(0xD307,0x4A);
 6518              		.loc 1 1425 5 view .LVU1712
 6519 18b6 0021     		movs	r1, #0
 6520 18b8 4DF20630 		movw	r0, #54022
 6521 18bc FFF7FEFF 		bl	LCD_WriteReg
 6522              	.LVL1156:
1426:Core/Src/fsmc.c ****     LCD_WriteReg(0xD308,0x00);
 6523              		.loc 1 1426 5 view .LVU1713
 6524 18c0 4A21     		movs	r1, #74
 6525 18c2 4DF20730 		movw	r0, #54023
 6526 18c6 FFF7FEFF 		bl	LCD_WriteReg
 6527              	.LVL1157:
1427:Core/Src/fsmc.c ****     LCD_WriteReg(0xD309,0x5C);
 6528              		.loc 1 1427 5 view .LVU1714
 6529 18ca 0021     		movs	r1, #0
 6530 18cc 4DF20830 		movw	r0, #54024
 6531 18d0 FFF7FEFF 		bl	LCD_WriteReg
 6532              	.LVL1158:
1428:Core/Src/fsmc.c ****     LCD_WriteReg(0xD30A,0x00);
 6533              		.loc 1 1428 5 view .LVU1715
 6534 18d4 5C21     		movs	r1, #92
 6535 18d6 4DF20930 		movw	r0, #54025
 6536 18da FFF7FEFF 		bl	LCD_WriteReg
 6537              	.LVL1159:
1429:Core/Src/fsmc.c **** 
 6538              		.loc 1 1429 5 view .LVU1716
 6539 18de 0021     		movs	r1, #0
 6540 18e0 4DF20A30 		movw	r0, #54026
 6541 18e4 FFF7FEFF 		bl	LCD_WriteReg
 6542              	.LVL1160:
1431:Core/Src/fsmc.c ****     LCD_WriteReg(0xD30C,0x00);
 6543              		.loc 1 1431 5 view .LVU1717
 6544 18e8 8121     		movs	r1, #129
 6545 18ea 4DF20B30 		movw	r0, #54027
 6546 18ee FFF7FEFF 		bl	LCD_WriteReg
 6547              	.LVL1161:
1432:Core/Src/fsmc.c ****     LCD_WriteReg(0xD30D,0xA6);
 6548              		.loc 1 1432 5 view .LVU1718
 6549 18f2 0021     		movs	r1, #0
 6550 18f4 4DF20C30 		movw	r0, #54028
 6551 18f8 FFF7FEFF 		bl	LCD_WriteReg
 6552              	.LVL1162:
1433:Core/Src/fsmc.c ****     LCD_WriteReg(0xD30E,0x00);
 6553              		.loc 1 1433 5 view .LVU1719
 6554 18fc A621     		movs	r1, #166
 6555 18fe 4DF20D30 		movw	r0, #54029
 6556 1902 FFF7FEFF 		bl	LCD_WriteReg
 6557              	.LVL1163:
1434:Core/Src/fsmc.c ****     LCD_WriteReg(0xD30F,0xE5);
 6558              		.loc 1 1434 5 view .LVU1720
 6559 1906 0021     		movs	r1, #0
 6560 1908 4DF20E30 		movw	r0, #54030
 6561 190c FFF7FEFF 		bl	LCD_WriteReg
ARM GAS  /tmp/ccE1vrH2.s 			page 182


 6562              	.LVL1164:
1435:Core/Src/fsmc.c ****     LCD_WriteReg(0xD310,0x01);
 6563              		.loc 1 1435 5 view .LVU1721
 6564 1910 E521     		movs	r1, #229
 6565 1912 4DF20F30 		movw	r0, #54031
 6566 1916 FFF7FEFF 		bl	LCD_WriteReg
 6567              	.LVL1165:
1436:Core/Src/fsmc.c ****     LCD_WriteReg(0xD311,0x13);
 6568              		.loc 1 1436 5 view .LVU1722
 6569 191a 0121     		movs	r1, #1
 6570 191c 4DF21030 		movw	r0, #54032
 6571 1920 FFF7FEFF 		bl	LCD_WriteReg
 6572              	.LVL1166:
1437:Core/Src/fsmc.c ****     LCD_WriteReg(0xD312,0x01);
 6573              		.loc 1 1437 5 view .LVU1723
 6574 1924 1321     		movs	r1, #19
 6575 1926 4DF21130 		movw	r0, #54033
 6576 192a FFF7FEFF 		bl	LCD_WriteReg
 6577              	.LVL1167:
1438:Core/Src/fsmc.c ****     LCD_WriteReg(0xD313,0x54);
 6578              		.loc 1 1438 5 view .LVU1724
 6579 192e 0121     		movs	r1, #1
 6580 1930 4DF21230 		movw	r0, #54034
 6581 1934 FFF7FEFF 		bl	LCD_WriteReg
 6582              	.LVL1168:
1439:Core/Src/fsmc.c ****     LCD_WriteReg(0xD314,0x01);
 6583              		.loc 1 1439 5 view .LVU1725
 6584 1938 5421     		movs	r1, #84
 6585 193a 4DF21330 		movw	r0, #54035
 6586 193e FFF7FEFF 		bl	LCD_WriteReg
 6587              	.LVL1169:
1440:Core/Src/fsmc.c ****     LCD_WriteReg(0xD315,0x82);
 6588              		.loc 1 1440 5 view .LVU1726
 6589 1942 0121     		movs	r1, #1
 6590 1944 4DF21430 		movw	r0, #54036
 6591 1948 FFF7FEFF 		bl	LCD_WriteReg
 6592              	.LVL1170:
1441:Core/Src/fsmc.c ****     LCD_WriteReg(0xD316,0x01);
 6593              		.loc 1 1441 5 view .LVU1727
 6594 194c 8221     		movs	r1, #130
 6595 194e 4DF21530 		movw	r0, #54037
 6596 1952 FFF7FEFF 		bl	LCD_WriteReg
 6597              	.LVL1171:
1442:Core/Src/fsmc.c ****     LCD_WriteReg(0xD317,0xCA);
 6598              		.loc 1 1442 5 view .LVU1728
 6599 1956 0121     		movs	r1, #1
 6600 1958 4DF21630 		movw	r0, #54038
 6601 195c FFF7FEFF 		bl	LCD_WriteReg
 6602              	.LVL1172:
1443:Core/Src/fsmc.c ****     LCD_WriteReg(0xD318,0x02);
 6603              		.loc 1 1443 5 view .LVU1729
 6604 1960 CA21     		movs	r1, #202
 6605 1962 4DF21730 		movw	r0, #54039
 6606 1966 FFF7FEFF 		bl	LCD_WriteReg
 6607              	.LVL1173:
1444:Core/Src/fsmc.c ****     LCD_WriteReg(0xD319,0x00);
 6608              		.loc 1 1444 5 view .LVU1730
ARM GAS  /tmp/ccE1vrH2.s 			page 183


 6609 196a 0221     		movs	r1, #2
 6610 196c 4DF21830 		movw	r0, #54040
 6611 1970 FFF7FEFF 		bl	LCD_WriteReg
 6612              	.LVL1174:
1445:Core/Src/fsmc.c ****     LCD_WriteReg(0xD31A,0x02);
 6613              		.loc 1 1445 5 view .LVU1731
 6614 1974 0021     		movs	r1, #0
 6615 1976 4DF21930 		movw	r0, #54041
 6616 197a FFF7FEFF 		bl	LCD_WriteReg
 6617              	.LVL1175:
1446:Core/Src/fsmc.c ****     LCD_WriteReg(0xD31B,0x01);
 6618              		.loc 1 1446 5 view .LVU1732
 6619 197e 0221     		movs	r1, #2
 6620 1980 4DF21A30 		movw	r0, #54042
 6621 1984 FFF7FEFF 		bl	LCD_WriteReg
 6622              	.LVL1176:
1447:Core/Src/fsmc.c ****     LCD_WriteReg(0xD31C,0x02);
 6623              		.loc 1 1447 5 view .LVU1733
 6624 1988 0121     		movs	r1, #1
 6625 198a 4DF21B30 		movw	r0, #54043
 6626 198e FFF7FEFF 		bl	LCD_WriteReg
 6627              	.LVL1177:
1448:Core/Src/fsmc.c ****     LCD_WriteReg(0xD31D,0x34);
 6628              		.loc 1 1448 5 view .LVU1734
 6629 1992 0221     		movs	r1, #2
 6630 1994 4DF21C30 		movw	r0, #54044
 6631 1998 FFF7FEFF 		bl	LCD_WriteReg
 6632              	.LVL1178:
1449:Core/Src/fsmc.c ****     LCD_WriteReg(0xD31E,0x02);
 6633              		.loc 1 1449 5 view .LVU1735
 6634 199c 3421     		movs	r1, #52
 6635 199e 4DF21D30 		movw	r0, #54045
 6636 19a2 FFF7FEFF 		bl	LCD_WriteReg
 6637              	.LVL1179:
1450:Core/Src/fsmc.c ****     LCD_WriteReg(0xD31F,0x67);
 6638              		.loc 1 1450 5 view .LVU1736
 6639 19a6 0221     		movs	r1, #2
 6640 19a8 4DF21E30 		movw	r0, #54046
 6641 19ac FFF7FEFF 		bl	LCD_WriteReg
 6642              	.LVL1180:
1451:Core/Src/fsmc.c ****     LCD_WriteReg(0xD320,0x02);
 6643              		.loc 1 1451 5 view .LVU1737
 6644 19b0 6721     		movs	r1, #103
 6645 19b2 4DF21F30 		movw	r0, #54047
 6646 19b6 FFF7FEFF 		bl	LCD_WriteReg
 6647              	.LVL1181:
1452:Core/Src/fsmc.c ****     LCD_WriteReg(0xD321,0x84);
 6648              		.loc 1 1452 5 view .LVU1738
 6649 19ba 0221     		movs	r1, #2
 6650 19bc 4DF22030 		movw	r0, #54048
 6651 19c0 FFF7FEFF 		bl	LCD_WriteReg
 6652              	.LVL1182:
1453:Core/Src/fsmc.c ****     LCD_WriteReg(0xD322,0x02);
 6653              		.loc 1 1453 5 view .LVU1739
 6654 19c4 8421     		movs	r1, #132
 6655 19c6 4DF22130 		movw	r0, #54049
 6656 19ca FFF7FEFF 		bl	LCD_WriteReg
ARM GAS  /tmp/ccE1vrH2.s 			page 184


 6657              	.LVL1183:
1454:Core/Src/fsmc.c ****     LCD_WriteReg(0xD323,0xA4);
 6658              		.loc 1 1454 5 view .LVU1740
 6659 19ce 0221     		movs	r1, #2
 6660 19d0 4DF22230 		movw	r0, #54050
 6661 19d4 FFF7FEFF 		bl	LCD_WriteReg
 6662              	.LVL1184:
1455:Core/Src/fsmc.c ****     LCD_WriteReg(0xD324,0x02);
 6663              		.loc 1 1455 5 view .LVU1741
 6664 19d8 A421     		movs	r1, #164
 6665 19da 4DF22330 		movw	r0, #54051
 6666 19de FFF7FEFF 		bl	LCD_WriteReg
 6667              	.LVL1185:
1456:Core/Src/fsmc.c ****     LCD_WriteReg(0xD325,0xB7);
 6668              		.loc 1 1456 5 view .LVU1742
 6669 19e2 0221     		movs	r1, #2
 6670 19e4 4DF22430 		movw	r0, #54052
 6671 19e8 FFF7FEFF 		bl	LCD_WriteReg
 6672              	.LVL1186:
1457:Core/Src/fsmc.c ****     LCD_WriteReg(0xD326,0x02);
 6673              		.loc 1 1457 5 view .LVU1743
 6674 19ec B721     		movs	r1, #183
 6675 19ee 4DF22530 		movw	r0, #54053
 6676 19f2 FFF7FEFF 		bl	LCD_WriteReg
 6677              	.LVL1187:
1458:Core/Src/fsmc.c ****     LCD_WriteReg(0xD327,0xCF);
 6678              		.loc 1 1458 5 view .LVU1744
 6679 19f6 0221     		movs	r1, #2
 6680 19f8 4DF22630 		movw	r0, #54054
 6681 19fc FFF7FEFF 		bl	LCD_WriteReg
 6682              	.LVL1188:
1459:Core/Src/fsmc.c ****     LCD_WriteReg(0xD328,0x02);
 6683              		.loc 1 1459 5 view .LVU1745
 6684 1a00 CF21     		movs	r1, #207
 6685 1a02 4DF22730 		movw	r0, #54055
 6686 1a06 FFF7FEFF 		bl	LCD_WriteReg
 6687              	.LVL1189:
1460:Core/Src/fsmc.c ****     LCD_WriteReg(0xD329,0xDE);
 6688              		.loc 1 1460 5 view .LVU1746
 6689 1a0a 0221     		movs	r1, #2
 6690 1a0c 4DF22830 		movw	r0, #54056
 6691 1a10 FFF7FEFF 		bl	LCD_WriteReg
 6692              	.LVL1190:
1461:Core/Src/fsmc.c ****     LCD_WriteReg(0xD32A,0x02);
 6693              		.loc 1 1461 5 view .LVU1747
 6694 1a14 DE21     		movs	r1, #222
 6695 1a16 4DF22930 		movw	r0, #54057
 6696 1a1a FFF7FEFF 		bl	LCD_WriteReg
 6697              	.LVL1191:
1462:Core/Src/fsmc.c ****     LCD_WriteReg(0xD32B,0xF2);
 6698              		.loc 1 1462 5 view .LVU1748
 6699 1a1e 0221     		movs	r1, #2
 6700 1a20 4DF22A30 		movw	r0, #54058
 6701 1a24 FFF7FEFF 		bl	LCD_WriteReg
 6702              	.LVL1192:
1463:Core/Src/fsmc.c ****     LCD_WriteReg(0xD32C,0x02);
 6703              		.loc 1 1463 5 view .LVU1749
ARM GAS  /tmp/ccE1vrH2.s 			page 185


 6704 1a28 F221     		movs	r1, #242
 6705 1a2a 4DF22B30 		movw	r0, #54059
 6706 1a2e FFF7FEFF 		bl	LCD_WriteReg
 6707              	.LVL1193:
1464:Core/Src/fsmc.c ****     LCD_WriteReg(0xD32D,0xFE);
 6708              		.loc 1 1464 5 view .LVU1750
 6709 1a32 0221     		movs	r1, #2
 6710 1a34 4DF22C30 		movw	r0, #54060
 6711 1a38 FFF7FEFF 		bl	LCD_WriteReg
 6712              	.LVL1194:
1465:Core/Src/fsmc.c ****     LCD_WriteReg(0xD32E,0x03);
 6713              		.loc 1 1465 5 view .LVU1751
 6714 1a3c FE21     		movs	r1, #254
 6715 1a3e 4DF22D30 		movw	r0, #54061
 6716 1a42 FFF7FEFF 		bl	LCD_WriteReg
 6717              	.LVL1195:
1466:Core/Src/fsmc.c ****     LCD_WriteReg(0xD32F,0x10);
 6718              		.loc 1 1466 5 view .LVU1752
 6719 1a46 0321     		movs	r1, #3
 6720 1a48 4DF22E30 		movw	r0, #54062
 6721 1a4c FFF7FEFF 		bl	LCD_WriteReg
 6722              	.LVL1196:
1467:Core/Src/fsmc.c ****     LCD_WriteReg(0xD330,0x03);
 6723              		.loc 1 1467 5 view .LVU1753
 6724 1a50 1021     		movs	r1, #16
 6725 1a52 4DF22F30 		movw	r0, #54063
 6726 1a56 FFF7FEFF 		bl	LCD_WriteReg
 6727              	.LVL1197:
1468:Core/Src/fsmc.c ****     LCD_WriteReg(0xD331,0x33);
 6728              		.loc 1 1468 5 view .LVU1754
 6729 1a5a 0321     		movs	r1, #3
 6730 1a5c 4DF23030 		movw	r0, #54064
 6731 1a60 FFF7FEFF 		bl	LCD_WriteReg
 6732              	.LVL1198:
1469:Core/Src/fsmc.c ****     LCD_WriteReg(0xD332,0x03);
 6733              		.loc 1 1469 5 view .LVU1755
 6734 1a64 3321     		movs	r1, #51
 6735 1a66 4DF23130 		movw	r0, #54065
 6736 1a6a FFF7FEFF 		bl	LCD_WriteReg
 6737              	.LVL1199:
1470:Core/Src/fsmc.c ****     LCD_WriteReg(0xD333,0x6D);
 6738              		.loc 1 1470 5 view .LVU1756
 6739 1a6e 0321     		movs	r1, #3
 6740 1a70 4DF23230 		movw	r0, #54066
 6741 1a74 FFF7FEFF 		bl	LCD_WriteReg
 6742              	.LVL1200:
1471:Core/Src/fsmc.c ****     LCD_WriteReg(0xD400,0x00);
 6743              		.loc 1 1471 5 view .LVU1757
 6744 1a78 6D21     		movs	r1, #109
 6745 1a7a 4DF23330 		movw	r0, #54067
 6746 1a7e FFF7FEFF 		bl	LCD_WriteReg
 6747              	.LVL1201:
1472:Core/Src/fsmc.c ****     LCD_WriteReg(0xD401,0x33);
 6748              		.loc 1 1472 5 view .LVU1758
 6749 1a82 0021     		movs	r1, #0
 6750 1a84 4FF45440 		mov	r0, #54272
 6751 1a88 FFF7FEFF 		bl	LCD_WriteReg
ARM GAS  /tmp/ccE1vrH2.s 			page 186


 6752              	.LVL1202:
1473:Core/Src/fsmc.c ****     LCD_WriteReg(0xD402,0x00);
 6753              		.loc 1 1473 5 view .LVU1759
 6754 1a8c 3321     		movs	r1, #51
 6755 1a8e 4DF20140 		movw	r0, #54273
 6756 1a92 FFF7FEFF 		bl	LCD_WriteReg
 6757              	.LVL1203:
1474:Core/Src/fsmc.c ****     LCD_WriteReg(0xD403,0x34);
 6758              		.loc 1 1474 5 view .LVU1760
 6759 1a96 0021     		movs	r1, #0
 6760 1a98 4DF20240 		movw	r0, #54274
 6761 1a9c FFF7FEFF 		bl	LCD_WriteReg
 6762              	.LVL1204:
1475:Core/Src/fsmc.c ****     LCD_WriteReg(0xD404,0x00);
 6763              		.loc 1 1475 5 view .LVU1761
 6764 1aa0 3421     		movs	r1, #52
 6765 1aa2 4DF20340 		movw	r0, #54275
 6766 1aa6 FFF7FEFF 		bl	LCD_WriteReg
 6767              	.LVL1205:
1476:Core/Src/fsmc.c ****     LCD_WriteReg(0xD405,0x3A);
 6768              		.loc 1 1476 5 view .LVU1762
 6769 1aaa 0021     		movs	r1, #0
 6770 1aac 4DF20440 		movw	r0, #54276
 6771 1ab0 FFF7FEFF 		bl	LCD_WriteReg
 6772              	.LVL1206:
1477:Core/Src/fsmc.c ****     LCD_WriteReg(0xD406,0x00);
 6773              		.loc 1 1477 5 view .LVU1763
 6774 1ab4 3A21     		movs	r1, #58
 6775 1ab6 4DF20540 		movw	r0, #54277
 6776 1aba FFF7FEFF 		bl	LCD_WriteReg
 6777              	.LVL1207:
1478:Core/Src/fsmc.c ****     LCD_WriteReg(0xD407,0x4A);
 6778              		.loc 1 1478 5 view .LVU1764
 6779 1abe 0021     		movs	r1, #0
 6780 1ac0 4DF20640 		movw	r0, #54278
 6781 1ac4 FFF7FEFF 		bl	LCD_WriteReg
 6782              	.LVL1208:
1479:Core/Src/fsmc.c ****     LCD_WriteReg(0xD408,0x00);
 6783              		.loc 1 1479 5 view .LVU1765
 6784 1ac8 4A21     		movs	r1, #74
 6785 1aca 4DF20740 		movw	r0, #54279
 6786 1ace FFF7FEFF 		bl	LCD_WriteReg
 6787              	.LVL1209:
1480:Core/Src/fsmc.c ****     LCD_WriteReg(0xD409,0x5C);
 6788              		.loc 1 1480 5 view .LVU1766
 6789 1ad2 0021     		movs	r1, #0
 6790 1ad4 4DF20840 		movw	r0, #54280
 6791 1ad8 FFF7FEFF 		bl	LCD_WriteReg
 6792              	.LVL1210:
1481:Core/Src/fsmc.c ****     LCD_WriteReg(0xD40A,0x00);
 6793              		.loc 1 1481 5 view .LVU1767
 6794 1adc 5C21     		movs	r1, #92
 6795 1ade 4DF20940 		movw	r0, #54281
 6796 1ae2 FFF7FEFF 		bl	LCD_WriteReg
 6797              	.LVL1211:
1482:Core/Src/fsmc.c ****     LCD_WriteReg(0xD40B,0x81);
 6798              		.loc 1 1482 5 view .LVU1768
ARM GAS  /tmp/ccE1vrH2.s 			page 187


 6799 1ae6 0021     		movs	r1, #0
 6800 1ae8 4DF20A40 		movw	r0, #54282
 6801 1aec FFF7FEFF 		bl	LCD_WriteReg
 6802              	.LVL1212:
1483:Core/Src/fsmc.c **** 
 6803              		.loc 1 1483 5 view .LVU1769
 6804 1af0 8121     		movs	r1, #129
 6805 1af2 4DF20B40 		movw	r0, #54283
 6806 1af6 FFF7FEFF 		bl	LCD_WriteReg
 6807              	.LVL1213:
1485:Core/Src/fsmc.c ****     LCD_WriteReg(0xD40D,0xA6);
 6808              		.loc 1 1485 5 view .LVU1770
 6809 1afa 0021     		movs	r1, #0
 6810 1afc 4DF20C40 		movw	r0, #54284
 6811 1b00 FFF7FEFF 		bl	LCD_WriteReg
 6812              	.LVL1214:
1486:Core/Src/fsmc.c ****     LCD_WriteReg(0xD40E,0x00);
 6813              		.loc 1 1486 5 view .LVU1771
 6814 1b04 A621     		movs	r1, #166
 6815 1b06 4DF20D40 		movw	r0, #54285
 6816 1b0a FFF7FEFF 		bl	LCD_WriteReg
 6817              	.LVL1215:
1487:Core/Src/fsmc.c ****     LCD_WriteReg(0xD40F,0xE5);
 6818              		.loc 1 1487 5 view .LVU1772
 6819 1b0e 0021     		movs	r1, #0
 6820 1b10 4DF20E40 		movw	r0, #54286
 6821 1b14 FFF7FEFF 		bl	LCD_WriteReg
 6822              	.LVL1216:
1488:Core/Src/fsmc.c ****     LCD_WriteReg(0xD410,0x01);
 6823              		.loc 1 1488 5 view .LVU1773
 6824 1b18 E521     		movs	r1, #229
 6825 1b1a 4DF20F40 		movw	r0, #54287
 6826 1b1e FFF7FEFF 		bl	LCD_WriteReg
 6827              	.LVL1217:
1489:Core/Src/fsmc.c ****     LCD_WriteReg(0xD411,0x13);
 6828              		.loc 1 1489 5 view .LVU1774
 6829 1b22 0121     		movs	r1, #1
 6830 1b24 4DF21040 		movw	r0, #54288
 6831 1b28 FFF7FEFF 		bl	LCD_WriteReg
 6832              	.LVL1218:
1490:Core/Src/fsmc.c ****     LCD_WriteReg(0xD412,0x01);
 6833              		.loc 1 1490 5 view .LVU1775
 6834 1b2c 1321     		movs	r1, #19
 6835 1b2e 4DF21140 		movw	r0, #54289
 6836 1b32 FFF7FEFF 		bl	LCD_WriteReg
 6837              	.LVL1219:
1491:Core/Src/fsmc.c ****     LCD_WriteReg(0xD413,0x54);
 6838              		.loc 1 1491 5 view .LVU1776
 6839 1b36 0121     		movs	r1, #1
 6840 1b38 4DF21240 		movw	r0, #54290
 6841 1b3c FFF7FEFF 		bl	LCD_WriteReg
 6842              	.LVL1220:
1492:Core/Src/fsmc.c ****     LCD_WriteReg(0xD414,0x01);
 6843              		.loc 1 1492 5 view .LVU1777
 6844 1b40 5421     		movs	r1, #84
 6845 1b42 4DF21340 		movw	r0, #54291
 6846 1b46 FFF7FEFF 		bl	LCD_WriteReg
ARM GAS  /tmp/ccE1vrH2.s 			page 188


 6847              	.LVL1221:
1493:Core/Src/fsmc.c ****     LCD_WriteReg(0xD415,0x82);
 6848              		.loc 1 1493 5 view .LVU1778
 6849 1b4a 0121     		movs	r1, #1
 6850 1b4c 4DF21440 		movw	r0, #54292
 6851 1b50 FFF7FEFF 		bl	LCD_WriteReg
 6852              	.LVL1222:
1494:Core/Src/fsmc.c ****     LCD_WriteReg(0xD416,0x01);
 6853              		.loc 1 1494 5 view .LVU1779
 6854 1b54 8221     		movs	r1, #130
 6855 1b56 4DF21540 		movw	r0, #54293
 6856 1b5a FFF7FEFF 		bl	LCD_WriteReg
 6857              	.LVL1223:
1495:Core/Src/fsmc.c ****     LCD_WriteReg(0xD417,0xCA);
 6858              		.loc 1 1495 5 view .LVU1780
 6859 1b5e 0121     		movs	r1, #1
 6860 1b60 4DF21640 		movw	r0, #54294
 6861 1b64 FFF7FEFF 		bl	LCD_WriteReg
 6862              	.LVL1224:
1496:Core/Src/fsmc.c ****     LCD_WriteReg(0xD418,0x02);
 6863              		.loc 1 1496 5 view .LVU1781
 6864 1b68 CA21     		movs	r1, #202
 6865 1b6a 4DF21740 		movw	r0, #54295
 6866 1b6e FFF7FEFF 		bl	LCD_WriteReg
 6867              	.LVL1225:
1497:Core/Src/fsmc.c ****     LCD_WriteReg(0xD419,0x00);
 6868              		.loc 1 1497 5 view .LVU1782
 6869 1b72 0221     		movs	r1, #2
 6870 1b74 4DF21840 		movw	r0, #54296
 6871 1b78 FFF7FEFF 		bl	LCD_WriteReg
 6872              	.LVL1226:
1498:Core/Src/fsmc.c ****     LCD_WriteReg(0xD41A,0x02);
 6873              		.loc 1 1498 5 view .LVU1783
 6874 1b7c 0021     		movs	r1, #0
 6875 1b7e 4DF21940 		movw	r0, #54297
 6876 1b82 FFF7FEFF 		bl	LCD_WriteReg
 6877              	.LVL1227:
1499:Core/Src/fsmc.c ****     LCD_WriteReg(0xD41B,0x01);
 6878              		.loc 1 1499 5 view .LVU1784
 6879 1b86 0221     		movs	r1, #2
 6880 1b88 4DF21A40 		movw	r0, #54298
 6881 1b8c FFF7FEFF 		bl	LCD_WriteReg
 6882              	.LVL1228:
1500:Core/Src/fsmc.c ****     LCD_WriteReg(0xD41C,0x02);
 6883              		.loc 1 1500 5 view .LVU1785
 6884 1b90 0121     		movs	r1, #1
 6885 1b92 4DF21B40 		movw	r0, #54299
 6886 1b96 FFF7FEFF 		bl	LCD_WriteReg
 6887              	.LVL1229:
1501:Core/Src/fsmc.c ****     LCD_WriteReg(0xD41D,0x34);
 6888              		.loc 1 1501 5 view .LVU1786
 6889 1b9a 0221     		movs	r1, #2
 6890 1b9c 4DF21C40 		movw	r0, #54300
 6891 1ba0 FFF7FEFF 		bl	LCD_WriteReg
 6892              	.LVL1230:
1502:Core/Src/fsmc.c ****     LCD_WriteReg(0xD41E,0x02);
 6893              		.loc 1 1502 5 view .LVU1787
ARM GAS  /tmp/ccE1vrH2.s 			page 189


 6894 1ba4 3421     		movs	r1, #52
 6895 1ba6 4DF21D40 		movw	r0, #54301
 6896 1baa FFF7FEFF 		bl	LCD_WriteReg
 6897              	.LVL1231:
1503:Core/Src/fsmc.c ****     LCD_WriteReg(0xD41F,0x67);
 6898              		.loc 1 1503 5 view .LVU1788
 6899 1bae 0221     		movs	r1, #2
 6900 1bb0 4DF21E40 		movw	r0, #54302
 6901 1bb4 FFF7FEFF 		bl	LCD_WriteReg
 6902              	.LVL1232:
1504:Core/Src/fsmc.c ****     LCD_WriteReg(0xD420,0x02);
 6903              		.loc 1 1504 5 view .LVU1789
 6904 1bb8 6721     		movs	r1, #103
 6905 1bba 4DF21F40 		movw	r0, #54303
 6906 1bbe FFF7FEFF 		bl	LCD_WriteReg
 6907              	.LVL1233:
1505:Core/Src/fsmc.c ****     LCD_WriteReg(0xD421,0x84);
 6908              		.loc 1 1505 5 view .LVU1790
 6909 1bc2 0221     		movs	r1, #2
 6910 1bc4 4DF22040 		movw	r0, #54304
 6911 1bc8 FFF7FEFF 		bl	LCD_WriteReg
 6912              	.LVL1234:
1506:Core/Src/fsmc.c ****     LCD_WriteReg(0xD422,0x02);
 6913              		.loc 1 1506 5 view .LVU1791
 6914 1bcc 8421     		movs	r1, #132
 6915 1bce 4DF22140 		movw	r0, #54305
 6916 1bd2 FFF7FEFF 		bl	LCD_WriteReg
 6917              	.LVL1235:
1507:Core/Src/fsmc.c ****     LCD_WriteReg(0xD423,0xA4);
 6918              		.loc 1 1507 5 view .LVU1792
 6919 1bd6 0221     		movs	r1, #2
 6920 1bd8 4DF22240 		movw	r0, #54306
 6921 1bdc FFF7FEFF 		bl	LCD_WriteReg
 6922              	.LVL1236:
1508:Core/Src/fsmc.c ****     LCD_WriteReg(0xD424,0x02);
 6923              		.loc 1 1508 5 view .LVU1793
 6924 1be0 A421     		movs	r1, #164
 6925 1be2 4DF22340 		movw	r0, #54307
 6926 1be6 FFF7FEFF 		bl	LCD_WriteReg
 6927              	.LVL1237:
1509:Core/Src/fsmc.c ****     LCD_WriteReg(0xD425,0xB7);
 6928              		.loc 1 1509 5 view .LVU1794
 6929 1bea 0221     		movs	r1, #2
 6930 1bec 4DF22440 		movw	r0, #54308
 6931 1bf0 FFF7FEFF 		bl	LCD_WriteReg
 6932              	.LVL1238:
1510:Core/Src/fsmc.c ****     LCD_WriteReg(0xD426,0x02);
 6933              		.loc 1 1510 5 view .LVU1795
 6934 1bf4 B721     		movs	r1, #183
 6935 1bf6 4DF22540 		movw	r0, #54309
 6936 1bfa FFF7FEFF 		bl	LCD_WriteReg
 6937              	.LVL1239:
1511:Core/Src/fsmc.c ****     LCD_WriteReg(0xD427,0xCF);
 6938              		.loc 1 1511 5 view .LVU1796
 6939 1bfe 0221     		movs	r1, #2
 6940 1c00 4DF22640 		movw	r0, #54310
 6941 1c04 FFF7FEFF 		bl	LCD_WriteReg
ARM GAS  /tmp/ccE1vrH2.s 			page 190


 6942              	.LVL1240:
1512:Core/Src/fsmc.c ****     LCD_WriteReg(0xD428,0x02);
 6943              		.loc 1 1512 5 view .LVU1797
 6944 1c08 CF21     		movs	r1, #207
 6945 1c0a 4DF22740 		movw	r0, #54311
 6946 1c0e FFF7FEFF 		bl	LCD_WriteReg
 6947              	.LVL1241:
1513:Core/Src/fsmc.c ****     LCD_WriteReg(0xD429,0xDE);
 6948              		.loc 1 1513 5 view .LVU1798
 6949 1c12 0221     		movs	r1, #2
 6950 1c14 4DF22840 		movw	r0, #54312
 6951 1c18 FFF7FEFF 		bl	LCD_WriteReg
 6952              	.LVL1242:
1514:Core/Src/fsmc.c ****     LCD_WriteReg(0xD42A,0x02);
 6953              		.loc 1 1514 5 view .LVU1799
 6954 1c1c DE21     		movs	r1, #222
 6955 1c1e 4DF22940 		movw	r0, #54313
 6956 1c22 FFF7FEFF 		bl	LCD_WriteReg
 6957              	.LVL1243:
1515:Core/Src/fsmc.c ****     LCD_WriteReg(0xD42B,0xF2);
 6958              		.loc 1 1515 5 view .LVU1800
 6959 1c26 0221     		movs	r1, #2
 6960 1c28 4DF22A40 		movw	r0, #54314
 6961 1c2c FFF7FEFF 		bl	LCD_WriteReg
 6962              	.LVL1244:
1516:Core/Src/fsmc.c ****     LCD_WriteReg(0xD42C,0x02);
 6963              		.loc 1 1516 5 view .LVU1801
 6964 1c30 F221     		movs	r1, #242
 6965 1c32 4DF22B40 		movw	r0, #54315
 6966 1c36 FFF7FEFF 		bl	LCD_WriteReg
 6967              	.LVL1245:
1517:Core/Src/fsmc.c ****     LCD_WriteReg(0xD42D,0xFE);
 6968              		.loc 1 1517 5 view .LVU1802
 6969 1c3a 0221     		movs	r1, #2
 6970 1c3c 4DF22C40 		movw	r0, #54316
 6971 1c40 FFF7FEFF 		bl	LCD_WriteReg
 6972              	.LVL1246:
1518:Core/Src/fsmc.c ****     LCD_WriteReg(0xD42E,0x03);
 6973              		.loc 1 1518 5 view .LVU1803
 6974 1c44 FE21     		movs	r1, #254
 6975 1c46 4DF22D40 		movw	r0, #54317
 6976 1c4a FFF7FEFF 		bl	LCD_WriteReg
 6977              	.LVL1247:
1519:Core/Src/fsmc.c ****     LCD_WriteReg(0xD42F,0x10);
 6978              		.loc 1 1519 5 view .LVU1804
 6979 1c4e 0321     		movs	r1, #3
 6980 1c50 4DF22E40 		movw	r0, #54318
 6981 1c54 FFF7FEFF 		bl	LCD_WriteReg
 6982              	.LVL1248:
1520:Core/Src/fsmc.c ****     LCD_WriteReg(0xD430,0x03);
 6983              		.loc 1 1520 5 view .LVU1805
 6984 1c58 1021     		movs	r1, #16
 6985 1c5a 4DF22F40 		movw	r0, #54319
 6986 1c5e FFF7FEFF 		bl	LCD_WriteReg
 6987              	.LVL1249:
1521:Core/Src/fsmc.c ****     LCD_WriteReg(0xD431,0x33);
 6988              		.loc 1 1521 5 view .LVU1806
ARM GAS  /tmp/ccE1vrH2.s 			page 191


 6989 1c62 0321     		movs	r1, #3
 6990 1c64 4DF23040 		movw	r0, #54320
 6991 1c68 FFF7FEFF 		bl	LCD_WriteReg
 6992              	.LVL1250:
1522:Core/Src/fsmc.c ****     LCD_WriteReg(0xD432,0x03);
 6993              		.loc 1 1522 5 view .LVU1807
 6994 1c6c 3321     		movs	r1, #51
 6995 1c6e 4DF23140 		movw	r0, #54321
 6996 1c72 FFF7FEFF 		bl	LCD_WriteReg
 6997              	.LVL1251:
1523:Core/Src/fsmc.c ****     LCD_WriteReg(0xD433,0x6D);
 6998              		.loc 1 1523 5 view .LVU1808
 6999 1c76 0321     		movs	r1, #3
 7000 1c78 4DF23240 		movw	r0, #54322
 7001 1c7c FFF7FEFF 		bl	LCD_WriteReg
 7002              	.LVL1252:
1524:Core/Src/fsmc.c ****     LCD_WriteReg(0xD500,0x00);
 7003              		.loc 1 1524 5 view .LVU1809
 7004 1c80 6D21     		movs	r1, #109
 7005 1c82 4DF23340 		movw	r0, #54323
 7006 1c86 FFF7FEFF 		bl	LCD_WriteReg
 7007              	.LVL1253:
1525:Core/Src/fsmc.c ****     LCD_WriteReg(0xD501,0x33);
 7008              		.loc 1 1525 5 view .LVU1810
 7009 1c8a 0021     		movs	r1, #0
 7010 1c8c 4FF45540 		mov	r0, #54528
 7011 1c90 FFF7FEFF 		bl	LCD_WriteReg
 7012              	.LVL1254:
1526:Core/Src/fsmc.c ****     LCD_WriteReg(0xD502,0x00);
 7013              		.loc 1 1526 5 view .LVU1811
 7014 1c94 3321     		movs	r1, #51
 7015 1c96 4DF20150 		movw	r0, #54529
 7016 1c9a FFF7FEFF 		bl	LCD_WriteReg
 7017              	.LVL1255:
1527:Core/Src/fsmc.c ****     LCD_WriteReg(0xD503,0x34);
 7018              		.loc 1 1527 5 view .LVU1812
 7019 1c9e 0021     		movs	r1, #0
 7020 1ca0 4DF20250 		movw	r0, #54530
 7021 1ca4 FFF7FEFF 		bl	LCD_WriteReg
 7022              	.LVL1256:
1528:Core/Src/fsmc.c ****     LCD_WriteReg(0xD504,0x00);
 7023              		.loc 1 1528 5 view .LVU1813
 7024 1ca8 3421     		movs	r1, #52
 7025 1caa 4DF20350 		movw	r0, #54531
 7026 1cae FFF7FEFF 		bl	LCD_WriteReg
 7027              	.LVL1257:
1529:Core/Src/fsmc.c ****     LCD_WriteReg(0xD505,0x3A);
 7028              		.loc 1 1529 5 view .LVU1814
 7029 1cb2 0021     		movs	r1, #0
 7030 1cb4 4DF20450 		movw	r0, #54532
 7031 1cb8 FFF7FEFF 		bl	LCD_WriteReg
 7032              	.LVL1258:
1530:Core/Src/fsmc.c ****     LCD_WriteReg(0xD506,0x00);
 7033              		.loc 1 1530 5 view .LVU1815
 7034 1cbc 3A21     		movs	r1, #58
 7035 1cbe 4DF20550 		movw	r0, #54533
 7036 1cc2 FFF7FEFF 		bl	LCD_WriteReg
ARM GAS  /tmp/ccE1vrH2.s 			page 192


 7037              	.LVL1259:
1531:Core/Src/fsmc.c ****     LCD_WriteReg(0xD507,0x4A);
 7038              		.loc 1 1531 5 view .LVU1816
 7039 1cc6 0021     		movs	r1, #0
 7040 1cc8 4DF20650 		movw	r0, #54534
 7041 1ccc FFF7FEFF 		bl	LCD_WriteReg
 7042              	.LVL1260:
1532:Core/Src/fsmc.c ****     LCD_WriteReg(0xD508,0x00);
 7043              		.loc 1 1532 5 view .LVU1817
 7044 1cd0 4A21     		movs	r1, #74
 7045 1cd2 4DF20750 		movw	r0, #54535
 7046 1cd6 FFF7FEFF 		bl	LCD_WriteReg
 7047              	.LVL1261:
1533:Core/Src/fsmc.c ****     LCD_WriteReg(0xD509,0x5C);
 7048              		.loc 1 1533 5 view .LVU1818
 7049 1cda 0021     		movs	r1, #0
 7050 1cdc 4DF20850 		movw	r0, #54536
 7051 1ce0 FFF7FEFF 		bl	LCD_WriteReg
 7052              	.LVL1262:
1534:Core/Src/fsmc.c ****     LCD_WriteReg(0xD50A,0x00);
 7053              		.loc 1 1534 5 view .LVU1819
 7054 1ce4 5C21     		movs	r1, #92
 7055 1ce6 4DF20950 		movw	r0, #54537
 7056 1cea FFF7FEFF 		bl	LCD_WriteReg
 7057              	.LVL1263:
1535:Core/Src/fsmc.c ****     LCD_WriteReg(0xD50B,0x81);
 7058              		.loc 1 1535 5 view .LVU1820
 7059 1cee 0021     		movs	r1, #0
 7060 1cf0 4DF20A50 		movw	r0, #54538
 7061 1cf4 FFF7FEFF 		bl	LCD_WriteReg
 7062              	.LVL1264:
1536:Core/Src/fsmc.c **** 
 7063              		.loc 1 1536 5 view .LVU1821
 7064 1cf8 8121     		movs	r1, #129
 7065 1cfa 4DF20B50 		movw	r0, #54539
 7066 1cfe FFF7FEFF 		bl	LCD_WriteReg
 7067              	.LVL1265:
1538:Core/Src/fsmc.c ****     LCD_WriteReg(0xD50D,0xA6);
 7068              		.loc 1 1538 5 view .LVU1822
 7069 1d02 0021     		movs	r1, #0
 7070 1d04 4DF20C50 		movw	r0, #54540
 7071 1d08 FFF7FEFF 		bl	LCD_WriteReg
 7072              	.LVL1266:
1539:Core/Src/fsmc.c ****     LCD_WriteReg(0xD50E,0x00);
 7073              		.loc 1 1539 5 view .LVU1823
 7074 1d0c A621     		movs	r1, #166
 7075 1d0e 4DF20D50 		movw	r0, #54541
 7076 1d12 FFF7FEFF 		bl	LCD_WriteReg
 7077              	.LVL1267:
1540:Core/Src/fsmc.c ****     LCD_WriteReg(0xD50F,0xE5);
 7078              		.loc 1 1540 5 view .LVU1824
 7079 1d16 0021     		movs	r1, #0
 7080 1d18 4DF20E50 		movw	r0, #54542
 7081 1d1c FFF7FEFF 		bl	LCD_WriteReg
 7082              	.LVL1268:
1541:Core/Src/fsmc.c ****     LCD_WriteReg(0xD510,0x01);
 7083              		.loc 1 1541 5 view .LVU1825
ARM GAS  /tmp/ccE1vrH2.s 			page 193


 7084 1d20 E521     		movs	r1, #229
 7085 1d22 4DF20F50 		movw	r0, #54543
 7086 1d26 FFF7FEFF 		bl	LCD_WriteReg
 7087              	.LVL1269:
1542:Core/Src/fsmc.c ****     LCD_WriteReg(0xD511,0x13);
 7088              		.loc 1 1542 5 view .LVU1826
 7089 1d2a 0121     		movs	r1, #1
 7090 1d2c 4DF21050 		movw	r0, #54544
 7091 1d30 FFF7FEFF 		bl	LCD_WriteReg
 7092              	.LVL1270:
1543:Core/Src/fsmc.c ****     LCD_WriteReg(0xD512,0x01);
 7093              		.loc 1 1543 5 view .LVU1827
 7094 1d34 1321     		movs	r1, #19
 7095 1d36 4DF21150 		movw	r0, #54545
 7096 1d3a FFF7FEFF 		bl	LCD_WriteReg
 7097              	.LVL1271:
1544:Core/Src/fsmc.c ****     LCD_WriteReg(0xD513,0x54);
 7098              		.loc 1 1544 5 view .LVU1828
 7099 1d3e 0121     		movs	r1, #1
 7100 1d40 4DF21250 		movw	r0, #54546
 7101 1d44 FFF7FEFF 		bl	LCD_WriteReg
 7102              	.LVL1272:
1545:Core/Src/fsmc.c ****     LCD_WriteReg(0xD514,0x01);
 7103              		.loc 1 1545 5 view .LVU1829
 7104 1d48 5421     		movs	r1, #84
 7105 1d4a 4DF21350 		movw	r0, #54547
 7106 1d4e FFF7FEFF 		bl	LCD_WriteReg
 7107              	.LVL1273:
1546:Core/Src/fsmc.c ****     LCD_WriteReg(0xD515,0x82);
 7108              		.loc 1 1546 5 view .LVU1830
 7109 1d52 0121     		movs	r1, #1
 7110 1d54 4DF21450 		movw	r0, #54548
 7111 1d58 FFF7FEFF 		bl	LCD_WriteReg
 7112              	.LVL1274:
1547:Core/Src/fsmc.c ****     LCD_WriteReg(0xD516,0x01);
 7113              		.loc 1 1547 5 view .LVU1831
 7114 1d5c 8221     		movs	r1, #130
 7115 1d5e 4DF21550 		movw	r0, #54549
 7116 1d62 FFF7FEFF 		bl	LCD_WriteReg
 7117              	.LVL1275:
1548:Core/Src/fsmc.c ****     LCD_WriteReg(0xD517,0xCA);
 7118              		.loc 1 1548 5 view .LVU1832
 7119 1d66 0121     		movs	r1, #1
 7120 1d68 4DF21650 		movw	r0, #54550
 7121 1d6c FFF7FEFF 		bl	LCD_WriteReg
 7122              	.LVL1276:
1549:Core/Src/fsmc.c ****     LCD_WriteReg(0xD518,0x02);
 7123              		.loc 1 1549 5 view .LVU1833
 7124 1d70 CA21     		movs	r1, #202
 7125 1d72 4DF21750 		movw	r0, #54551
 7126 1d76 FFF7FEFF 		bl	LCD_WriteReg
 7127              	.LVL1277:
1550:Core/Src/fsmc.c ****     LCD_WriteReg(0xD519,0x00);
 7128              		.loc 1 1550 5 view .LVU1834
 7129 1d7a 0221     		movs	r1, #2
 7130 1d7c 4DF21850 		movw	r0, #54552
 7131 1d80 FFF7FEFF 		bl	LCD_WriteReg
ARM GAS  /tmp/ccE1vrH2.s 			page 194


 7132              	.LVL1278:
1551:Core/Src/fsmc.c ****     LCD_WriteReg(0xD51A,0x02);
 7133              		.loc 1 1551 5 view .LVU1835
 7134 1d84 0021     		movs	r1, #0
 7135 1d86 4DF21950 		movw	r0, #54553
 7136 1d8a FFF7FEFF 		bl	LCD_WriteReg
 7137              	.LVL1279:
1552:Core/Src/fsmc.c ****     LCD_WriteReg(0xD51B,0x01);
 7138              		.loc 1 1552 5 view .LVU1836
 7139 1d8e 0221     		movs	r1, #2
 7140 1d90 4DF21A50 		movw	r0, #54554
 7141 1d94 FFF7FEFF 		bl	LCD_WriteReg
 7142              	.LVL1280:
1553:Core/Src/fsmc.c ****     LCD_WriteReg(0xD51C,0x02);
 7143              		.loc 1 1553 5 view .LVU1837
 7144 1d98 0121     		movs	r1, #1
 7145 1d9a 4DF21B50 		movw	r0, #54555
 7146 1d9e FFF7FEFF 		bl	LCD_WriteReg
 7147              	.LVL1281:
1554:Core/Src/fsmc.c ****     LCD_WriteReg(0xD51D,0x34);
 7148              		.loc 1 1554 5 view .LVU1838
 7149 1da2 0221     		movs	r1, #2
 7150 1da4 4DF21C50 		movw	r0, #54556
 7151 1da8 FFF7FEFF 		bl	LCD_WriteReg
 7152              	.LVL1282:
1555:Core/Src/fsmc.c ****     LCD_WriteReg(0xD51E,0x02);
 7153              		.loc 1 1555 5 view .LVU1839
 7154 1dac 3421     		movs	r1, #52
 7155 1dae 4DF21D50 		movw	r0, #54557
 7156 1db2 FFF7FEFF 		bl	LCD_WriteReg
 7157              	.LVL1283:
1556:Core/Src/fsmc.c ****     LCD_WriteReg(0xD51F,0x67);
 7158              		.loc 1 1556 5 view .LVU1840
 7159 1db6 0221     		movs	r1, #2
 7160 1db8 4DF21E50 		movw	r0, #54558
 7161 1dbc FFF7FEFF 		bl	LCD_WriteReg
 7162              	.LVL1284:
1557:Core/Src/fsmc.c ****     LCD_WriteReg(0xD520,0x02);
 7163              		.loc 1 1557 5 view .LVU1841
 7164 1dc0 6721     		movs	r1, #103
 7165 1dc2 4DF21F50 		movw	r0, #54559
 7166 1dc6 FFF7FEFF 		bl	LCD_WriteReg
 7167              	.LVL1285:
1558:Core/Src/fsmc.c ****     LCD_WriteReg(0xD521,0x84);
 7168              		.loc 1 1558 5 view .LVU1842
 7169 1dca 0221     		movs	r1, #2
 7170 1dcc 4DF22050 		movw	r0, #54560
 7171 1dd0 FFF7FEFF 		bl	LCD_WriteReg
 7172              	.LVL1286:
1559:Core/Src/fsmc.c ****     LCD_WriteReg(0xD522,0x02);
 7173              		.loc 1 1559 5 view .LVU1843
 7174 1dd4 8421     		movs	r1, #132
 7175 1dd6 4DF22150 		movw	r0, #54561
 7176 1dda FFF7FEFF 		bl	LCD_WriteReg
 7177              	.LVL1287:
1560:Core/Src/fsmc.c ****     LCD_WriteReg(0xD523,0xA4);
 7178              		.loc 1 1560 5 view .LVU1844
ARM GAS  /tmp/ccE1vrH2.s 			page 195


 7179 1dde 0221     		movs	r1, #2
 7180 1de0 4DF22250 		movw	r0, #54562
 7181 1de4 FFF7FEFF 		bl	LCD_WriteReg
 7182              	.LVL1288:
1561:Core/Src/fsmc.c ****     LCD_WriteReg(0xD524,0x02);
 7183              		.loc 1 1561 5 view .LVU1845
 7184 1de8 A421     		movs	r1, #164
 7185 1dea 4DF22350 		movw	r0, #54563
 7186 1dee FFF7FEFF 		bl	LCD_WriteReg
 7187              	.LVL1289:
1562:Core/Src/fsmc.c ****     LCD_WriteReg(0xD525,0xB7);
 7188              		.loc 1 1562 5 view .LVU1846
 7189 1df2 0221     		movs	r1, #2
 7190 1df4 4DF22450 		movw	r0, #54564
 7191 1df8 FFF7FEFF 		bl	LCD_WriteReg
 7192              	.LVL1290:
1563:Core/Src/fsmc.c ****     LCD_WriteReg(0xD526,0x02);
 7193              		.loc 1 1563 5 view .LVU1847
 7194 1dfc B721     		movs	r1, #183
 7195 1dfe 4DF22550 		movw	r0, #54565
 7196 1e02 FFF7FEFF 		bl	LCD_WriteReg
 7197              	.LVL1291:
1564:Core/Src/fsmc.c ****     LCD_WriteReg(0xD527,0xCF);
 7198              		.loc 1 1564 5 view .LVU1848
 7199 1e06 0221     		movs	r1, #2
 7200 1e08 4DF22650 		movw	r0, #54566
 7201 1e0c FFF7FEFF 		bl	LCD_WriteReg
 7202              	.LVL1292:
1565:Core/Src/fsmc.c ****     LCD_WriteReg(0xD528,0x02);
 7203              		.loc 1 1565 5 view .LVU1849
 7204 1e10 CF21     		movs	r1, #207
 7205 1e12 4DF22750 		movw	r0, #54567
 7206 1e16 FFF7FEFF 		bl	LCD_WriteReg
 7207              	.LVL1293:
1566:Core/Src/fsmc.c ****     LCD_WriteReg(0xD529,0xDE);
 7208              		.loc 1 1566 5 view .LVU1850
 7209 1e1a 0221     		movs	r1, #2
 7210 1e1c 4DF22850 		movw	r0, #54568
 7211 1e20 FFF7FEFF 		bl	LCD_WriteReg
 7212              	.LVL1294:
1567:Core/Src/fsmc.c ****     LCD_WriteReg(0xD52A,0x02);
 7213              		.loc 1 1567 5 view .LVU1851
 7214 1e24 DE21     		movs	r1, #222
 7215 1e26 4DF22950 		movw	r0, #54569
 7216 1e2a FFF7FEFF 		bl	LCD_WriteReg
 7217              	.LVL1295:
1568:Core/Src/fsmc.c ****     LCD_WriteReg(0xD52B,0xF2);
 7218              		.loc 1 1568 5 view .LVU1852
 7219 1e2e 0221     		movs	r1, #2
 7220 1e30 4DF22A50 		movw	r0, #54570
 7221 1e34 FFF7FEFF 		bl	LCD_WriteReg
 7222              	.LVL1296:
1569:Core/Src/fsmc.c ****     LCD_WriteReg(0xD52C,0x02);
 7223              		.loc 1 1569 5 view .LVU1853
 7224 1e38 F221     		movs	r1, #242
 7225 1e3a 4DF22B50 		movw	r0, #54571
 7226 1e3e FFF7FEFF 		bl	LCD_WriteReg
ARM GAS  /tmp/ccE1vrH2.s 			page 196


 7227              	.LVL1297:
1570:Core/Src/fsmc.c ****     LCD_WriteReg(0xD52D,0xFE);
 7228              		.loc 1 1570 5 view .LVU1854
 7229 1e42 0221     		movs	r1, #2
 7230 1e44 4DF22C50 		movw	r0, #54572
 7231 1e48 FFF7FEFF 		bl	LCD_WriteReg
 7232              	.LVL1298:
1571:Core/Src/fsmc.c ****     LCD_WriteReg(0xD52E,0x03);
 7233              		.loc 1 1571 5 view .LVU1855
 7234 1e4c FE21     		movs	r1, #254
 7235 1e4e 4DF22D50 		movw	r0, #54573
 7236 1e52 FFF7FEFF 		bl	LCD_WriteReg
 7237              	.LVL1299:
1572:Core/Src/fsmc.c ****     LCD_WriteReg(0xD52F,0x10);
 7238              		.loc 1 1572 5 view .LVU1856
 7239 1e56 0321     		movs	r1, #3
 7240 1e58 4DF22E50 		movw	r0, #54574
 7241 1e5c FFF7FEFF 		bl	LCD_WriteReg
 7242              	.LVL1300:
1573:Core/Src/fsmc.c ****     LCD_WriteReg(0xD530,0x03);
 7243              		.loc 1 1573 5 view .LVU1857
 7244 1e60 1021     		movs	r1, #16
 7245 1e62 4DF22F50 		movw	r0, #54575
 7246 1e66 FFF7FEFF 		bl	LCD_WriteReg
 7247              	.LVL1301:
1574:Core/Src/fsmc.c ****     LCD_WriteReg(0xD531,0x33);
 7248              		.loc 1 1574 5 view .LVU1858
 7249 1e6a 0321     		movs	r1, #3
 7250 1e6c 4DF23050 		movw	r0, #54576
 7251 1e70 FFF7FEFF 		bl	LCD_WriteReg
 7252              	.LVL1302:
1575:Core/Src/fsmc.c ****     LCD_WriteReg(0xD532,0x03);
 7253              		.loc 1 1575 5 view .LVU1859
 7254 1e74 3321     		movs	r1, #51
 7255 1e76 4DF23150 		movw	r0, #54577
 7256 1e7a FFF7FEFF 		bl	LCD_WriteReg
 7257              	.LVL1303:
1576:Core/Src/fsmc.c ****     LCD_WriteReg(0xD533,0x6D);
 7258              		.loc 1 1576 5 view .LVU1860
 7259 1e7e 0321     		movs	r1, #3
 7260 1e80 4DF23250 		movw	r0, #54578
 7261 1e84 FFF7FEFF 		bl	LCD_WriteReg
 7262              	.LVL1304:
1577:Core/Src/fsmc.c ****     LCD_WriteReg(0xD600,0x00);
 7263              		.loc 1 1577 5 view .LVU1861
 7264 1e88 6D21     		movs	r1, #109
 7265 1e8a 4DF23350 		movw	r0, #54579
 7266 1e8e FFF7FEFF 		bl	LCD_WriteReg
 7267              	.LVL1305:
1578:Core/Src/fsmc.c ****     LCD_WriteReg(0xD601,0x33);
 7268              		.loc 1 1578 5 view .LVU1862
 7269 1e92 0021     		movs	r1, #0
 7270 1e94 4FF45640 		mov	r0, #54784
 7271 1e98 FFF7FEFF 		bl	LCD_WriteReg
 7272              	.LVL1306:
1579:Core/Src/fsmc.c ****     LCD_WriteReg(0xD602,0x00);
 7273              		.loc 1 1579 5 view .LVU1863
ARM GAS  /tmp/ccE1vrH2.s 			page 197


 7274 1e9c 3321     		movs	r1, #51
 7275 1e9e 4DF20160 		movw	r0, #54785
 7276 1ea2 FFF7FEFF 		bl	LCD_WriteReg
 7277              	.LVL1307:
1580:Core/Src/fsmc.c ****     LCD_WriteReg(0xD603,0x34);
 7278              		.loc 1 1580 5 view .LVU1864
 7279 1ea6 0021     		movs	r1, #0
 7280 1ea8 4DF20260 		movw	r0, #54786
 7281 1eac FFF7FEFF 		bl	LCD_WriteReg
 7282              	.LVL1308:
1581:Core/Src/fsmc.c ****     LCD_WriteReg(0xD604,0x00);
 7283              		.loc 1 1581 5 view .LVU1865
 7284 1eb0 3421     		movs	r1, #52
 7285 1eb2 4DF20360 		movw	r0, #54787
 7286 1eb6 FFF7FEFF 		bl	LCD_WriteReg
 7287              	.LVL1309:
1582:Core/Src/fsmc.c ****     LCD_WriteReg(0xD605,0x3A);
 7288              		.loc 1 1582 5 view .LVU1866
 7289 1eba 0021     		movs	r1, #0
 7290 1ebc 4DF20460 		movw	r0, #54788
 7291 1ec0 FFF7FEFF 		bl	LCD_WriteReg
 7292              	.LVL1310:
1583:Core/Src/fsmc.c ****     LCD_WriteReg(0xD606,0x00);
 7293              		.loc 1 1583 5 view .LVU1867
 7294 1ec4 3A21     		movs	r1, #58
 7295 1ec6 4DF20560 		movw	r0, #54789
 7296 1eca FFF7FEFF 		bl	LCD_WriteReg
 7297              	.LVL1311:
1584:Core/Src/fsmc.c ****     LCD_WriteReg(0xD607,0x4A);
 7298              		.loc 1 1584 5 view .LVU1868
 7299 1ece 0021     		movs	r1, #0
 7300 1ed0 4DF20660 		movw	r0, #54790
 7301 1ed4 FFF7FEFF 		bl	LCD_WriteReg
 7302              	.LVL1312:
1585:Core/Src/fsmc.c ****     LCD_WriteReg(0xD608,0x00);
 7303              		.loc 1 1585 5 view .LVU1869
 7304 1ed8 4A21     		movs	r1, #74
 7305 1eda 4DF20760 		movw	r0, #54791
 7306 1ede FFF7FEFF 		bl	LCD_WriteReg
 7307              	.LVL1313:
1586:Core/Src/fsmc.c ****     LCD_WriteReg(0xD609,0x5C);
 7308              		.loc 1 1586 5 view .LVU1870
 7309 1ee2 0021     		movs	r1, #0
 7310 1ee4 4DF20860 		movw	r0, #54792
 7311 1ee8 FFF7FEFF 		bl	LCD_WriteReg
 7312              	.LVL1314:
1587:Core/Src/fsmc.c ****     LCD_WriteReg(0xD60A,0x00);
 7313              		.loc 1 1587 5 view .LVU1871
 7314 1eec 5C21     		movs	r1, #92
 7315 1eee 4DF20960 		movw	r0, #54793
 7316 1ef2 FFF7FEFF 		bl	LCD_WriteReg
 7317              	.LVL1315:
1588:Core/Src/fsmc.c ****     LCD_WriteReg(0xD60B,0x81);
 7318              		.loc 1 1588 5 view .LVU1872
 7319 1ef6 0021     		movs	r1, #0
 7320 1ef8 4DF20A60 		movw	r0, #54794
 7321 1efc FFF7FEFF 		bl	LCD_WriteReg
ARM GAS  /tmp/ccE1vrH2.s 			page 198


 7322              	.LVL1316:
1589:Core/Src/fsmc.c **** 
 7323              		.loc 1 1589 5 view .LVU1873
 7324 1f00 8121     		movs	r1, #129
 7325 1f02 4DF20B60 		movw	r0, #54795
 7326 1f06 FFF7FEFF 		bl	LCD_WriteReg
 7327              	.LVL1317:
1591:Core/Src/fsmc.c ****     LCD_WriteReg(0xD60D,0xA6);
 7328              		.loc 1 1591 5 view .LVU1874
 7329 1f0a 0021     		movs	r1, #0
 7330 1f0c 4DF20C60 		movw	r0, #54796
 7331 1f10 FFF7FEFF 		bl	LCD_WriteReg
 7332              	.LVL1318:
1592:Core/Src/fsmc.c ****     LCD_WriteReg(0xD60E,0x00);
 7333              		.loc 1 1592 5 view .LVU1875
 7334 1f14 A621     		movs	r1, #166
 7335 1f16 4DF20D60 		movw	r0, #54797
 7336 1f1a FFF7FEFF 		bl	LCD_WriteReg
 7337              	.LVL1319:
1593:Core/Src/fsmc.c ****     LCD_WriteReg(0xD60F,0xE5);
 7338              		.loc 1 1593 5 view .LVU1876
 7339 1f1e 0021     		movs	r1, #0
 7340 1f20 4DF20E60 		movw	r0, #54798
 7341 1f24 FFF7FEFF 		bl	LCD_WriteReg
 7342              	.LVL1320:
1594:Core/Src/fsmc.c ****     LCD_WriteReg(0xD610,0x01);
 7343              		.loc 1 1594 5 view .LVU1877
 7344 1f28 E521     		movs	r1, #229
 7345 1f2a 4DF20F60 		movw	r0, #54799
 7346 1f2e FFF7FEFF 		bl	LCD_WriteReg
 7347              	.LVL1321:
1595:Core/Src/fsmc.c ****     LCD_WriteReg(0xD611,0x13);
 7348              		.loc 1 1595 5 view .LVU1878
 7349 1f32 0121     		movs	r1, #1
 7350 1f34 4DF21060 		movw	r0, #54800
 7351 1f38 FFF7FEFF 		bl	LCD_WriteReg
 7352              	.LVL1322:
1596:Core/Src/fsmc.c ****     LCD_WriteReg(0xD612,0x01);
 7353              		.loc 1 1596 5 view .LVU1879
 7354 1f3c 1321     		movs	r1, #19
 7355 1f3e 4DF21160 		movw	r0, #54801
 7356 1f42 FFF7FEFF 		bl	LCD_WriteReg
 7357              	.LVL1323:
1597:Core/Src/fsmc.c ****     LCD_WriteReg(0xD613,0x54);
 7358              		.loc 1 1597 5 view .LVU1880
 7359 1f46 0121     		movs	r1, #1
 7360 1f48 4DF21260 		movw	r0, #54802
 7361 1f4c FFF7FEFF 		bl	LCD_WriteReg
 7362              	.LVL1324:
1598:Core/Src/fsmc.c ****     LCD_WriteReg(0xD614,0x01);
 7363              		.loc 1 1598 5 view .LVU1881
 7364 1f50 5421     		movs	r1, #84
 7365 1f52 4DF21360 		movw	r0, #54803
 7366 1f56 FFF7FEFF 		bl	LCD_WriteReg
 7367              	.LVL1325:
1599:Core/Src/fsmc.c ****     LCD_WriteReg(0xD615,0x82);
 7368              		.loc 1 1599 5 view .LVU1882
ARM GAS  /tmp/ccE1vrH2.s 			page 199


 7369 1f5a 0121     		movs	r1, #1
 7370 1f5c 4DF21460 		movw	r0, #54804
 7371 1f60 FFF7FEFF 		bl	LCD_WriteReg
 7372              	.LVL1326:
1600:Core/Src/fsmc.c ****     LCD_WriteReg(0xD616,0x01);
 7373              		.loc 1 1600 5 view .LVU1883
 7374 1f64 8221     		movs	r1, #130
 7375 1f66 4DF21560 		movw	r0, #54805
 7376 1f6a FFF7FEFF 		bl	LCD_WriteReg
 7377              	.LVL1327:
1601:Core/Src/fsmc.c ****     LCD_WriteReg(0xD617,0xCA);
 7378              		.loc 1 1601 5 view .LVU1884
 7379 1f6e 0121     		movs	r1, #1
 7380 1f70 4DF21660 		movw	r0, #54806
 7381 1f74 FFF7FEFF 		bl	LCD_WriteReg
 7382              	.LVL1328:
1602:Core/Src/fsmc.c ****     LCD_WriteReg(0xD618,0x02);
 7383              		.loc 1 1602 5 view .LVU1885
 7384 1f78 CA21     		movs	r1, #202
 7385 1f7a 4DF21760 		movw	r0, #54807
 7386 1f7e FFF7FEFF 		bl	LCD_WriteReg
 7387              	.LVL1329:
1603:Core/Src/fsmc.c ****     LCD_WriteReg(0xD619,0x00);
 7388              		.loc 1 1603 5 view .LVU1886
 7389 1f82 0221     		movs	r1, #2
 7390 1f84 4DF21860 		movw	r0, #54808
 7391 1f88 FFF7FEFF 		bl	LCD_WriteReg
 7392              	.LVL1330:
1604:Core/Src/fsmc.c ****     LCD_WriteReg(0xD61A,0x02);
 7393              		.loc 1 1604 5 view .LVU1887
 7394 1f8c 0021     		movs	r1, #0
 7395 1f8e 4DF21960 		movw	r0, #54809
 7396 1f92 FFF7FEFF 		bl	LCD_WriteReg
 7397              	.LVL1331:
1605:Core/Src/fsmc.c ****     LCD_WriteReg(0xD61B,0x01);
 7398              		.loc 1 1605 5 view .LVU1888
 7399 1f96 0221     		movs	r1, #2
 7400 1f98 4DF21A60 		movw	r0, #54810
 7401 1f9c FFF7FEFF 		bl	LCD_WriteReg
 7402              	.LVL1332:
1606:Core/Src/fsmc.c ****     LCD_WriteReg(0xD61C,0x02);
 7403              		.loc 1 1606 5 view .LVU1889
 7404 1fa0 0121     		movs	r1, #1
 7405 1fa2 4DF21B60 		movw	r0, #54811
 7406 1fa6 FFF7FEFF 		bl	LCD_WriteReg
 7407              	.LVL1333:
1607:Core/Src/fsmc.c ****     LCD_WriteReg(0xD61D,0x34);
 7408              		.loc 1 1607 5 view .LVU1890
 7409 1faa 0221     		movs	r1, #2
 7410 1fac 4DF21C60 		movw	r0, #54812
 7411 1fb0 FFF7FEFF 		bl	LCD_WriteReg
 7412              	.LVL1334:
1608:Core/Src/fsmc.c ****     LCD_WriteReg(0xD61E,0x02);
 7413              		.loc 1 1608 5 view .LVU1891
 7414 1fb4 3421     		movs	r1, #52
 7415 1fb6 4DF21D60 		movw	r0, #54813
 7416 1fba FFF7FEFF 		bl	LCD_WriteReg
ARM GAS  /tmp/ccE1vrH2.s 			page 200


 7417              	.LVL1335:
1609:Core/Src/fsmc.c ****     LCD_WriteReg(0xD61F,0x67);
 7418              		.loc 1 1609 5 view .LVU1892
 7419 1fbe 0221     		movs	r1, #2
 7420 1fc0 4DF21E60 		movw	r0, #54814
 7421 1fc4 FFF7FEFF 		bl	LCD_WriteReg
 7422              	.LVL1336:
1610:Core/Src/fsmc.c ****     LCD_WriteReg(0xD620,0x02);
 7423              		.loc 1 1610 5 view .LVU1893
 7424 1fc8 6721     		movs	r1, #103
 7425 1fca 4DF21F60 		movw	r0, #54815
 7426 1fce FFF7FEFF 		bl	LCD_WriteReg
 7427              	.LVL1337:
1611:Core/Src/fsmc.c ****     LCD_WriteReg(0xD621,0x84);
 7428              		.loc 1 1611 5 view .LVU1894
 7429 1fd2 0221     		movs	r1, #2
 7430 1fd4 4DF22060 		movw	r0, #54816
 7431 1fd8 FFF7FEFF 		bl	LCD_WriteReg
 7432              	.LVL1338:
1612:Core/Src/fsmc.c ****     LCD_WriteReg(0xD622,0x02);
 7433              		.loc 1 1612 5 view .LVU1895
 7434 1fdc 8421     		movs	r1, #132
 7435 1fde 4DF22160 		movw	r0, #54817
 7436 1fe2 FFF7FEFF 		bl	LCD_WriteReg
 7437              	.LVL1339:
1613:Core/Src/fsmc.c ****     LCD_WriteReg(0xD623,0xA4);
 7438              		.loc 1 1613 5 view .LVU1896
 7439 1fe6 0221     		movs	r1, #2
 7440 1fe8 4DF22260 		movw	r0, #54818
 7441 1fec FFF7FEFF 		bl	LCD_WriteReg
 7442              	.LVL1340:
1614:Core/Src/fsmc.c ****     LCD_WriteReg(0xD624,0x02);
 7443              		.loc 1 1614 5 view .LVU1897
 7444 1ff0 A421     		movs	r1, #164
 7445 1ff2 4DF22360 		movw	r0, #54819
 7446 1ff6 FFF7FEFF 		bl	LCD_WriteReg
 7447              	.LVL1341:
1615:Core/Src/fsmc.c ****     LCD_WriteReg(0xD625,0xB7);
 7448              		.loc 1 1615 5 view .LVU1898
 7449 1ffa 0221     		movs	r1, #2
 7450 1ffc 4DF22460 		movw	r0, #54820
 7451 2000 FFF7FEFF 		bl	LCD_WriteReg
 7452              	.LVL1342:
1616:Core/Src/fsmc.c ****     LCD_WriteReg(0xD626,0x02);
 7453              		.loc 1 1616 5 view .LVU1899
 7454 2004 B721     		movs	r1, #183
 7455 2006 4DF22560 		movw	r0, #54821
 7456 200a FFF7FEFF 		bl	LCD_WriteReg
 7457              	.LVL1343:
1617:Core/Src/fsmc.c ****     LCD_WriteReg(0xD627,0xCF);
 7458              		.loc 1 1617 5 view .LVU1900
 7459 200e 0221     		movs	r1, #2
 7460 2010 4DF22660 		movw	r0, #54822
 7461 2014 FFF7FEFF 		bl	LCD_WriteReg
 7462              	.LVL1344:
1618:Core/Src/fsmc.c ****     LCD_WriteReg(0xD628,0x02);
 7463              		.loc 1 1618 5 view .LVU1901
ARM GAS  /tmp/ccE1vrH2.s 			page 201


 7464 2018 CF21     		movs	r1, #207
 7465 201a 4DF22760 		movw	r0, #54823
 7466 201e FFF7FEFF 		bl	LCD_WriteReg
 7467              	.LVL1345:
1619:Core/Src/fsmc.c ****     LCD_WriteReg(0xD629,0xDE);
 7468              		.loc 1 1619 5 view .LVU1902
 7469 2022 0221     		movs	r1, #2
 7470 2024 4DF22860 		movw	r0, #54824
 7471 2028 FFF7FEFF 		bl	LCD_WriteReg
 7472              	.LVL1346:
1620:Core/Src/fsmc.c ****     LCD_WriteReg(0xD62A,0x02);
 7473              		.loc 1 1620 5 view .LVU1903
 7474 202c DE21     		movs	r1, #222
 7475 202e 4DF22960 		movw	r0, #54825
 7476 2032 FFF7FEFF 		bl	LCD_WriteReg
 7477              	.LVL1347:
1621:Core/Src/fsmc.c ****     LCD_WriteReg(0xD62B,0xF2);
 7478              		.loc 1 1621 5 view .LVU1904
 7479 2036 0221     		movs	r1, #2
 7480 2038 4DF22A60 		movw	r0, #54826
 7481 203c FFF7FEFF 		bl	LCD_WriteReg
 7482              	.LVL1348:
1622:Core/Src/fsmc.c ****     LCD_WriteReg(0xD62C,0x02);
 7483              		.loc 1 1622 5 view .LVU1905
 7484 2040 F221     		movs	r1, #242
 7485 2042 4DF22B60 		movw	r0, #54827
 7486 2046 FFF7FEFF 		bl	LCD_WriteReg
 7487              	.LVL1349:
1623:Core/Src/fsmc.c ****     LCD_WriteReg(0xD62D,0xFE);
 7488              		.loc 1 1623 5 view .LVU1906
 7489 204a 0221     		movs	r1, #2
 7490 204c 4DF22C60 		movw	r0, #54828
 7491 2050 FFF7FEFF 		bl	LCD_WriteReg
 7492              	.LVL1350:
1624:Core/Src/fsmc.c ****     LCD_WriteReg(0xD62E,0x03);
 7493              		.loc 1 1624 5 view .LVU1907
 7494 2054 FE21     		movs	r1, #254
 7495 2056 4DF22D60 		movw	r0, #54829
 7496 205a FFF7FEFF 		bl	LCD_WriteReg
 7497              	.LVL1351:
1625:Core/Src/fsmc.c ****     LCD_WriteReg(0xD62F,0x10);
 7498              		.loc 1 1625 5 view .LVU1908
 7499 205e 0321     		movs	r1, #3
 7500 2060 4DF22E60 		movw	r0, #54830
 7501 2064 FFF7FEFF 		bl	LCD_WriteReg
 7502              	.LVL1352:
1626:Core/Src/fsmc.c ****     LCD_WriteReg(0xD630,0x03);
 7503              		.loc 1 1626 5 view .LVU1909
 7504 2068 1021     		movs	r1, #16
 7505 206a 4DF22F60 		movw	r0, #54831
 7506 206e FFF7FEFF 		bl	LCD_WriteReg
 7507              	.LVL1353:
1627:Core/Src/fsmc.c ****     LCD_WriteReg(0xD631,0x33);
 7508              		.loc 1 1627 5 view .LVU1910
 7509 2072 0321     		movs	r1, #3
 7510 2074 4DF23060 		movw	r0, #54832
 7511 2078 FFF7FEFF 		bl	LCD_WriteReg
ARM GAS  /tmp/ccE1vrH2.s 			page 202


 7512              	.LVL1354:
1628:Core/Src/fsmc.c ****     LCD_WriteReg(0xD632,0x03);
 7513              		.loc 1 1628 5 view .LVU1911
 7514 207c 3321     		movs	r1, #51
 7515 207e 4DF23160 		movw	r0, #54833
 7516 2082 FFF7FEFF 		bl	LCD_WriteReg
 7517              	.LVL1355:
1629:Core/Src/fsmc.c ****     LCD_WriteReg(0xD633,0x6D);
 7518              		.loc 1 1629 5 view .LVU1912
 7519 2086 0321     		movs	r1, #3
 7520 2088 4DF23260 		movw	r0, #54834
 7521 208c FFF7FEFF 		bl	LCD_WriteReg
 7522              	.LVL1356:
1630:Core/Src/fsmc.c ****     //LV2 Page 0 enable
 7523              		.loc 1 1630 5 view .LVU1913
 7524 2090 6D21     		movs	r1, #109
 7525 2092 4DF23360 		movw	r0, #54835
 7526 2096 FFF7FEFF 		bl	LCD_WriteReg
 7527              	.LVL1357:
1632:Core/Src/fsmc.c ****     LCD_WriteReg(0xF001,0xAA);
 7528              		.loc 1 1632 5 view .LVU1914
 7529 209a 5521     		movs	r1, #85
 7530 209c 4FF47040 		mov	r0, #61440
 7531 20a0 FFF7FEFF 		bl	LCD_WriteReg
 7532              	.LVL1358:
1633:Core/Src/fsmc.c ****     LCD_WriteReg(0xF002,0x52);
 7533              		.loc 1 1633 5 view .LVU1915
 7534 20a4 AA21     		movs	r1, #170
 7535 20a6 4FF20100 		movw	r0, #61441
 7536 20aa FFF7FEFF 		bl	LCD_WriteReg
 7537              	.LVL1359:
1634:Core/Src/fsmc.c ****     LCD_WriteReg(0xF003,0x08);
 7538              		.loc 1 1634 5 view .LVU1916
 7539 20ae 5221     		movs	r1, #82
 7540 20b0 4FF20200 		movw	r0, #61442
 7541 20b4 FFF7FEFF 		bl	LCD_WriteReg
 7542              	.LVL1360:
1635:Core/Src/fsmc.c ****     LCD_WriteReg(0xF004,0x00);
 7543              		.loc 1 1635 5 view .LVU1917
 7544 20b8 0821     		movs	r1, #8
 7545 20ba 4FF20300 		movw	r0, #61443
 7546 20be FFF7FEFF 		bl	LCD_WriteReg
 7547              	.LVL1361:
1636:Core/Src/fsmc.c ****     //Display control
 7548              		.loc 1 1636 5 view .LVU1918
 7549 20c2 0021     		movs	r1, #0
 7550 20c4 4FF20400 		movw	r0, #61444
 7551 20c8 FFF7FEFF 		bl	LCD_WriteReg
 7552              	.LVL1362:
1638:Core/Src/fsmc.c ****     LCD_WriteReg(0xB101, 0x00);
 7553              		.loc 1 1638 5 view .LVU1919
 7554 20cc CC21     		movs	r1, #204
 7555 20ce 4FF43140 		mov	r0, #45312
 7556 20d2 FFF7FEFF 		bl	LCD_WriteReg
 7557              	.LVL1363:
1639:Core/Src/fsmc.c ****     //Source hold time
 7558              		.loc 1 1639 5 view .LVU1920
ARM GAS  /tmp/ccE1vrH2.s 			page 203


 7559 20d6 0021     		movs	r1, #0
 7560 20d8 4BF20110 		movw	r0, #45313
 7561 20dc FFF7FEFF 		bl	LCD_WriteReg
 7562              	.LVL1364:
1641:Core/Src/fsmc.c ****     //Gate EQ control
 7563              		.loc 1 1641 5 view .LVU1921
 7564 20e0 0521     		movs	r1, #5
 7565 20e2 4FF43640 		mov	r0, #46592
 7566 20e6 FFF7FEFF 		bl	LCD_WriteReg
 7567              	.LVL1365:
1643:Core/Src/fsmc.c ****     LCD_WriteReg(0xB701,0x70);
 7568              		.loc 1 1643 5 view .LVU1922
 7569 20ea 7021     		movs	r1, #112
 7570 20ec 4FF43740 		mov	r0, #46848
 7571 20f0 FFF7FEFF 		bl	LCD_WriteReg
 7572              	.LVL1366:
1644:Core/Src/fsmc.c ****     //Source EQ control (Mode 2)
 7573              		.loc 1 1644 5 view .LVU1923
 7574 20f4 7021     		movs	r1, #112
 7575 20f6 4BF20170 		movw	r0, #46849
 7576 20fa FFF7FEFF 		bl	LCD_WriteReg
 7577              	.LVL1367:
1646:Core/Src/fsmc.c ****     LCD_WriteReg(0xB801,0x03);
 7578              		.loc 1 1646 5 view .LVU1924
 7579 20fe 0121     		movs	r1, #1
 7580 2100 4FF43840 		mov	r0, #47104
 7581 2104 FFF7FEFF 		bl	LCD_WriteReg
 7582              	.LVL1368:
1647:Core/Src/fsmc.c ****     LCD_WriteReg(0xB802,0x03);
 7583              		.loc 1 1647 5 view .LVU1925
 7584 2108 0321     		movs	r1, #3
 7585 210a 4BF60100 		movw	r0, #47105
 7586 210e FFF7FEFF 		bl	LCD_WriteReg
 7587              	.LVL1369:
1648:Core/Src/fsmc.c ****     LCD_WriteReg(0xB803,0x03);
 7588              		.loc 1 1648 5 view .LVU1926
 7589 2112 0321     		movs	r1, #3
 7590 2114 4BF60200 		movw	r0, #47106
 7591 2118 FFF7FEFF 		bl	LCD_WriteReg
 7592              	.LVL1370:
1649:Core/Src/fsmc.c ****     //Inversion mode (2-dot)
 7593              		.loc 1 1649 5 view .LVU1927
 7594 211c 0321     		movs	r1, #3
 7595 211e 4BF60300 		movw	r0, #47107
 7596 2122 FFF7FEFF 		bl	LCD_WriteReg
 7597              	.LVL1371:
1651:Core/Src/fsmc.c ****     LCD_WriteReg(0xBC01,0x00);
 7598              		.loc 1 1651 5 view .LVU1928
 7599 2126 0221     		movs	r1, #2
 7600 2128 4FF43C40 		mov	r0, #48128
 7601 212c FFF7FEFF 		bl	LCD_WriteReg
 7602              	.LVL1372:
1652:Core/Src/fsmc.c ****     LCD_WriteReg(0xBC02,0x00);
 7603              		.loc 1 1652 5 view .LVU1929
 7604 2130 0021     		movs	r1, #0
 7605 2132 4BF60140 		movw	r0, #48129
 7606 2136 FFF7FEFF 		bl	LCD_WriteReg
ARM GAS  /tmp/ccE1vrH2.s 			page 204


 7607              	.LVL1373:
1653:Core/Src/fsmc.c ****     //Timing control 4H w/ 4-delay
 7608              		.loc 1 1653 5 view .LVU1930
 7609 213a 0021     		movs	r1, #0
 7610 213c 4BF60240 		movw	r0, #48130
 7611 2140 FFF7FEFF 		bl	LCD_WriteReg
 7612              	.LVL1374:
1655:Core/Src/fsmc.c ****     LCD_WriteReg(0xC901,0x02);
 7613              		.loc 1 1655 5 view .LVU1931
 7614 2144 D021     		movs	r1, #208
 7615 2146 4FF44940 		mov	r0, #51456
 7616 214a FFF7FEFF 		bl	LCD_WriteReg
 7617              	.LVL1375:
1656:Core/Src/fsmc.c ****     LCD_WriteReg(0xC902,0x50);
 7618              		.loc 1 1656 5 view .LVU1932
 7619 214e 0221     		movs	r1, #2
 7620 2150 4CF60110 		movw	r0, #51457
 7621 2154 FFF7FEFF 		bl	LCD_WriteReg
 7622              	.LVL1376:
1657:Core/Src/fsmc.c ****     LCD_WriteReg(0xC903,0x50);
 7623              		.loc 1 1657 5 view .LVU1933
 7624 2158 5021     		movs	r1, #80
 7625 215a 4CF60210 		movw	r0, #51458
 7626 215e FFF7FEFF 		bl	LCD_WriteReg
 7627              	.LVL1377:
1658:Core/Src/fsmc.c ****     LCD_WriteReg(0xC904,0x50);
 7628              		.loc 1 1658 5 view .LVU1934
 7629 2162 5021     		movs	r1, #80
 7630 2164 4CF60310 		movw	r0, #51459
 7631 2168 FFF7FEFF 		bl	LCD_WriteReg
 7632              	.LVL1378:
1659:Core/Src/fsmc.c ****     LCD_WriteReg(0x3500,0x00);
 7633              		.loc 1 1659 5 view .LVU1935
 7634 216c 5021     		movs	r1, #80
 7635 216e 4CF60410 		movw	r0, #51460
 7636 2172 FFF7FEFF 		bl	LCD_WriteReg
 7637              	.LVL1379:
1660:Core/Src/fsmc.c ****     LCD_WriteReg(0x3A00,0x55);  //16-bit/pixel
 7638              		.loc 1 1660 5 view .LVU1936
 7639 2176 0021     		movs	r1, #0
 7640 2178 4FF45450 		mov	r0, #13568
 7641 217c FFF7FEFF 		bl	LCD_WriteReg
 7642              	.LVL1380:
1661:Core/Src/fsmc.c ****     LCD_WR_REG(0x1100);
 7643              		.loc 1 1661 5 view .LVU1937
 7644 2180 5521     		movs	r1, #85
 7645 2182 4FF46850 		mov	r0, #14848
 7646 2186 FFF7FEFF 		bl	LCD_WriteReg
 7647              	.LVL1381:
1662:Core/Src/fsmc.c ****     //RCC//delay_us(120);
 7648              		.loc 1 1662 5 view .LVU1938
 7649 218a 4FF48850 		mov	r0, #4352
 7650 218e FFF7FEFF 		bl	LCD_WR_REG
 7651              	.LVL1382:
1664:Core/Src/fsmc.c ****   }else if(lcddev.id==0X1963)
 7652              		.loc 1 1664 5 view .LVU1939
 7653 2192 4FF42450 		mov	r0, #10496
ARM GAS  /tmp/ccE1vrH2.s 			page 205


 7654 2196 FFF7FEFF 		bl	LCD_WR_REG
 7655              	.LVL1383:
 7656 219a FDF764BF 		b	.L164
 7657              	.L174:
1667:Core/Src/fsmc.c ****     LCD_WR_DATA(0x1D);		//å‚æ•°1
 7658              		.loc 1 1667 5 view .LVU1940
 7659 219e E220     		movs	r0, #226
 7660 21a0 FFF7FEFF 		bl	LCD_WR_REG
 7661              	.LVL1384:
1668:Core/Src/fsmc.c ****     LCD_WR_DATA(0x02);		//å‚æ•°2 Divider M = 2, PLL = 300/(M+1) = 100MHz
 7662              		.loc 1 1668 5 view .LVU1941
 7663 21a4 1D20     		movs	r0, #29
 7664 21a6 FFF7FEFF 		bl	LCD_WR_DATA
 7665              	.LVL1385:
1669:Core/Src/fsmc.c ****     LCD_WR_DATA(0x04);		//å‚æ•°3 Validate M and N values
 7666              		.loc 1 1669 5 view .LVU1942
 7667 21aa 0220     		movs	r0, #2
 7668 21ac FFF7FEFF 		bl	LCD_WR_DATA
 7669              	.LVL1386:
1670:Core/Src/fsmc.c ****     //RCC//delay_us(100);
 7670              		.loc 1 1670 5 view .LVU1943
 7671 21b0 0420     		movs	r0, #4
 7672 21b2 FFF7FEFF 		bl	LCD_WR_DATA
 7673              	.LVL1387:
1672:Core/Src/fsmc.c ****     LCD_WR_DATA(0x01);		// enable PLL
 7674              		.loc 1 1672 5 view .LVU1944
 7675 21b6 E020     		movs	r0, #224
 7676 21b8 FFF7FEFF 		bl	LCD_WR_REG
 7677              	.LVL1388:
1673:Core/Src/fsmc.c ****     HAL_Delay(10);
 7678              		.loc 1 1673 5 view .LVU1945
 7679 21bc 0120     		movs	r0, #1
 7680 21be FFF7FEFF 		bl	LCD_WR_DATA
 7681              	.LVL1389:
1674:Core/Src/fsmc.c ****     LCD_WR_REG(0xE0);		// Start PLL command again
 7682              		.loc 1 1674 5 view .LVU1946
 7683 21c2 0A20     		movs	r0, #10
 7684 21c4 FFF7FEFF 		bl	HAL_Delay
 7685              	.LVL1390:
1675:Core/Src/fsmc.c ****     LCD_WR_DATA(0x03);		// now, use PLL output as system clock
 7686              		.loc 1 1675 5 view .LVU1947
 7687 21c8 E020     		movs	r0, #224
 7688 21ca FFF7FEFF 		bl	LCD_WR_REG
 7689              	.LVL1391:
1676:Core/Src/fsmc.c ****     HAL_Delay(12);
 7690              		.loc 1 1676 5 view .LVU1948
 7691 21ce 0320     		movs	r0, #3
 7692 21d0 FFF7FEFF 		bl	LCD_WR_DATA
 7693              	.LVL1392:
1677:Core/Src/fsmc.c ****     LCD_WR_REG(0x01);		//è½¯å¤??
 7694              		.loc 1 1677 5 view .LVU1949
 7695 21d4 0C20     		movs	r0, #12
 7696 21d6 FFF7FEFF 		bl	HAL_Delay
 7697              	.LVL1393:
1678:Core/Src/fsmc.c ****     HAL_Delay(10);
 7698              		.loc 1 1678 5 view .LVU1950
 7699 21da 0120     		movs	r0, #1
ARM GAS  /tmp/ccE1vrH2.s 			page 206


 7700 21dc FFF7FEFF 		bl	LCD_WR_REG
 7701              	.LVL1394:
1679:Core/Src/fsmc.c **** 
 7702              		.loc 1 1679 5 view .LVU1951
 7703 21e0 0A20     		movs	r0, #10
 7704 21e2 FFF7FEFF 		bl	HAL_Delay
 7705              	.LVL1395:
1681:Core/Src/fsmc.c ****     LCD_WR_DATA(0x2F);
 7706              		.loc 1 1681 5 view .LVU1952
 7707 21e6 E620     		movs	r0, #230
 7708 21e8 FFF7FEFF 		bl	LCD_WR_REG
 7709              	.LVL1396:
1682:Core/Src/fsmc.c ****     LCD_WR_DATA(0xFF);
 7710              		.loc 1 1682 5 view .LVU1953
 7711 21ec 2F20     		movs	r0, #47
 7712 21ee FFF7FEFF 		bl	LCD_WR_DATA
 7713              	.LVL1397:
1683:Core/Src/fsmc.c ****     LCD_WR_DATA(0xFF);
 7714              		.loc 1 1683 5 view .LVU1954
 7715 21f2 FF20     		movs	r0, #255
 7716 21f4 FFF7FEFF 		bl	LCD_WR_DATA
 7717              	.LVL1398:
1684:Core/Src/fsmc.c **** 
 7718              		.loc 1 1684 5 view .LVU1955
 7719 21f8 FF20     		movs	r0, #255
 7720 21fa FFF7FEFF 		bl	LCD_WR_DATA
 7721              	.LVL1399:
1686:Core/Src/fsmc.c ****     LCD_WR_DATA(0x20);		//24ä½æ¨¡??
 7722              		.loc 1 1686 5 view .LVU1956
 7723 21fe B020     		movs	r0, #176
 7724 2200 FFF7FEFF 		bl	LCD_WR_REG
 7725              	.LVL1400:
1687:Core/Src/fsmc.c ****     LCD_WR_DATA(0x00);		//TFT æ¨¡å¼
 7726              		.loc 1 1687 5 view .LVU1957
 7727 2204 2020     		movs	r0, #32
 7728 2206 FFF7FEFF 		bl	LCD_WR_DATA
 7729              	.LVL1401:
1688:Core/Src/fsmc.c **** 
 7730              		.loc 1 1688 5 view .LVU1958
 7731 220a 0020     		movs	r0, #0
 7732 220c FFF7FEFF 		bl	LCD_WR_DATA
 7733              	.LVL1402:
1690:Core/Src/fsmc.c ****     LCD_WR_DATA(SSD_HOR_RESOLUTION-1);
 7734              		.loc 1 1690 5 view .LVU1959
 7735 2210 0320     		movs	r0, #3
 7736 2212 FFF7FEFF 		bl	LCD_WR_DATA
 7737              	.LVL1403:
1691:Core/Src/fsmc.c ****     LCD_WR_DATA((SSD_VER_RESOLUTION-1)>>8);//è®¾ç½®LCDå‚ç›´åƒç´ 
 7738              		.loc 1 1691 5 view .LVU1960
 7739 2216 40F21F30 		movw	r0, #799
 7740 221a FFF7FEFF 		bl	LCD_WR_DATA
 7741              	.LVL1404:
1692:Core/Src/fsmc.c ****     LCD_WR_DATA(SSD_VER_RESOLUTION-1);
 7742              		.loc 1 1692 5 view .LVU1961
 7743 221e 0120     		movs	r0, #1
 7744 2220 FFF7FEFF 		bl	LCD_WR_DATA
 7745              	.LVL1405:
ARM GAS  /tmp/ccE1vrH2.s 			page 207


1693:Core/Src/fsmc.c ****     LCD_WR_DATA(0x00);		//RGBåºåˆ—
 7746              		.loc 1 1693 5 view .LVU1962
 7747 2224 40F2DF10 		movw	r0, #479
 7748 2228 FFF7FEFF 		bl	LCD_WR_DATA
 7749              	.LVL1406:
1694:Core/Src/fsmc.c **** 
 7750              		.loc 1 1694 5 view .LVU1963
 7751 222c 0020     		movs	r0, #0
 7752 222e FFF7FEFF 		bl	LCD_WR_DATA
 7753              	.LVL1407:
1696:Core/Src/fsmc.c ****     LCD_WR_DATA((SSD_HT-1)>>8);
 7754              		.loc 1 1696 5 view .LVU1964
 7755 2232 B420     		movs	r0, #180
 7756 2234 FFF7FEFF 		bl	LCD_WR_REG
 7757              	.LVL1408:
1697:Core/Src/fsmc.c ****     LCD_WR_DATA(SSD_HT-1);
 7758              		.loc 1 1697 5 view .LVU1965
 7759 2238 0420     		movs	r0, #4
 7760 223a FFF7FEFF 		bl	LCD_WR_DATA
 7761              	.LVL1409:
1698:Core/Src/fsmc.c ****     LCD_WR_DATA(SSD_HPS>>8);
 7762              		.loc 1 1698 5 view .LVU1966
 7763 223e 40F21F40 		movw	r0, #1055
 7764 2242 FFF7FEFF 		bl	LCD_WR_DATA
 7765              	.LVL1410:
1699:Core/Src/fsmc.c ****     LCD_WR_DATA(SSD_HPS);
 7766              		.loc 1 1699 5 view .LVU1967
 7767 2246 0020     		movs	r0, #0
 7768 2248 FFF7FEFF 		bl	LCD_WR_DATA
 7769              	.LVL1411:
1700:Core/Src/fsmc.c ****     LCD_WR_DATA(SSD_HOR_PULSE_WIDTH-1);
 7770              		.loc 1 1700 5 view .LVU1968
 7771 224c 2E20     		movs	r0, #46
 7772 224e FFF7FEFF 		bl	LCD_WR_DATA
 7773              	.LVL1412:
1701:Core/Src/fsmc.c ****     LCD_WR_DATA(0x00);
 7774              		.loc 1 1701 5 view .LVU1969
 7775 2252 0020     		movs	r0, #0
 7776 2254 FFF7FEFF 		bl	LCD_WR_DATA
 7777              	.LVL1413:
1702:Core/Src/fsmc.c ****     LCD_WR_DATA(0x00);
 7778              		.loc 1 1702 5 view .LVU1970
 7779 2258 0020     		movs	r0, #0
 7780 225a FFF7FEFF 		bl	LCD_WR_DATA
 7781              	.LVL1414:
1703:Core/Src/fsmc.c ****     LCD_WR_DATA(0x00);
 7782              		.loc 1 1703 5 view .LVU1971
 7783 225e 0020     		movs	r0, #0
 7784 2260 FFF7FEFF 		bl	LCD_WR_DATA
 7785              	.LVL1415:
1704:Core/Src/fsmc.c ****     LCD_WR_REG(0xB6);		//Set vertical period
 7786              		.loc 1 1704 5 view .LVU1972
 7787 2264 0020     		movs	r0, #0
 7788 2266 FFF7FEFF 		bl	LCD_WR_DATA
 7789              	.LVL1416:
1705:Core/Src/fsmc.c ****     LCD_WR_DATA((SSD_VT-1)>>8);
 7790              		.loc 1 1705 5 view .LVU1973
ARM GAS  /tmp/ccE1vrH2.s 			page 208


 7791 226a B620     		movs	r0, #182
 7792 226c FFF7FEFF 		bl	LCD_WR_REG
 7793              	.LVL1417:
1706:Core/Src/fsmc.c ****     LCD_WR_DATA(SSD_VT-1);
 7794              		.loc 1 1706 5 view .LVU1974
 7795 2270 0220     		movs	r0, #2
 7796 2272 FFF7FEFF 		bl	LCD_WR_DATA
 7797              	.LVL1418:
1707:Core/Src/fsmc.c ****     LCD_WR_DATA(SSD_VPS>>8);
 7798              		.loc 1 1707 5 view .LVU1975
 7799 2276 4FF40370 		mov	r0, #524
 7800 227a FFF7FEFF 		bl	LCD_WR_DATA
 7801              	.LVL1419:
1708:Core/Src/fsmc.c ****     LCD_WR_DATA(SSD_VPS);
 7802              		.loc 1 1708 5 view .LVU1976
 7803 227e 0020     		movs	r0, #0
 7804 2280 FFF7FEFF 		bl	LCD_WR_DATA
 7805              	.LVL1420:
1709:Core/Src/fsmc.c ****     LCD_WR_DATA(SSD_VER_FRONT_PORCH-1);
 7806              		.loc 1 1709 5 view .LVU1977
 7807 2284 1720     		movs	r0, #23
 7808 2286 FFF7FEFF 		bl	LCD_WR_DATA
 7809              	.LVL1421:
1710:Core/Src/fsmc.c ****     LCD_WR_DATA(0x00);
 7810              		.loc 1 1710 5 view .LVU1978
 7811 228a 1520     		movs	r0, #21
 7812 228c FFF7FEFF 		bl	LCD_WR_DATA
 7813              	.LVL1422:
1711:Core/Src/fsmc.c ****     LCD_WR_DATA(0x00);
 7814              		.loc 1 1711 5 view .LVU1979
 7815 2290 0020     		movs	r0, #0
 7816 2292 FFF7FEFF 		bl	LCD_WR_DATA
 7817              	.LVL1423:
1712:Core/Src/fsmc.c **** 
 7818              		.loc 1 1712 5 view .LVU1980
 7819 2296 0020     		movs	r0, #0
 7820 2298 FFF7FEFF 		bl	LCD_WR_DATA
 7821              	.LVL1424:
1714:Core/Src/fsmc.c ****     LCD_WR_DATA(0x03);	//16-bit(565 format) data for 16bpp
 7822              		.loc 1 1714 5 view .LVU1981
 7823 229c F020     		movs	r0, #240
 7824 229e FFF7FEFF 		bl	LCD_WR_REG
 7825              	.LVL1425:
1715:Core/Src/fsmc.c **** 
 7826              		.loc 1 1715 5 view .LVU1982
 7827 22a2 0320     		movs	r0, #3
 7828 22a4 FFF7FEFF 		bl	LCD_WR_DATA
 7829              	.LVL1426:
1717:Core/Src/fsmc.c **** 
 7830              		.loc 1 1717 5 view .LVU1983
 7831 22a8 2920     		movs	r0, #41
 7832 22aa FFF7FEFF 		bl	LCD_WR_REG
 7833              	.LVL1427:
1719:Core/Src/fsmc.c ****     LCD_WR_DATA(0x00);	//disable
 7834              		.loc 1 1719 5 view .LVU1984
 7835 22ae D020     		movs	r0, #208
 7836 22b0 FFF7FEFF 		bl	LCD_WR_REG
ARM GAS  /tmp/ccE1vrH2.s 			page 209


 7837              	.LVL1428:
1720:Core/Src/fsmc.c **** 
 7838              		.loc 1 1720 5 view .LVU1985
 7839 22b4 0020     		movs	r0, #0
 7840 22b6 FFF7FEFF 		bl	LCD_WR_DATA
 7841              	.LVL1429:
1722:Core/Src/fsmc.c ****     LCD_WR_DATA(0x05);	//1è®¾ç½®PWMé¢‘ç‡
 7842              		.loc 1 1722 5 view .LVU1986
 7843 22ba BE20     		movs	r0, #190
 7844 22bc FFF7FEFF 		bl	LCD_WR_REG
 7845              	.LVL1430:
1723:Core/Src/fsmc.c ****     LCD_WR_DATA(0xFE);	//2è®¾ç½®PWMå ç©ºæ¯”
 7846              		.loc 1 1723 5 view .LVU1987
 7847 22c0 0520     		movs	r0, #5
 7848 22c2 FFF7FEFF 		bl	LCD_WR_DATA
 7849              	.LVL1431:
1724:Core/Src/fsmc.c ****     LCD_WR_DATA(0x01);	//3è®¾ç½®C
 7850              		.loc 1 1724 5 view .LVU1988
 7851 22c6 FE20     		movs	r0, #254
 7852 22c8 FFF7FEFF 		bl	LCD_WR_DATA
 7853              	.LVL1432:
1725:Core/Src/fsmc.c ****     LCD_WR_DATA(0x00);	//4è®¾ç½®D
 7854              		.loc 1 1725 5 view .LVU1989
 7855 22cc 0120     		movs	r0, #1
 7856 22ce FFF7FEFF 		bl	LCD_WR_DATA
 7857              	.LVL1433:
1726:Core/Src/fsmc.c ****     LCD_WR_DATA(0x00);	//5è®¾ç½®E
 7858              		.loc 1 1726 5 view .LVU1990
 7859 22d2 0020     		movs	r0, #0
 7860 22d4 FFF7FEFF 		bl	LCD_WR_DATA
 7861              	.LVL1434:
1727:Core/Src/fsmc.c ****     LCD_WR_DATA(0x00);	//6è®¾ç½®F
 7862              		.loc 1 1727 5 view .LVU1991
 7863 22d8 0020     		movs	r0, #0
 7864 22da FFF7FEFF 		bl	LCD_WR_DATA
 7865              	.LVL1435:
1728:Core/Src/fsmc.c **** 
 7866              		.loc 1 1728 5 view .LVU1992
 7867 22de 0020     		movs	r0, #0
 7868 22e0 FFF7FEFF 		bl	LCD_WR_DATA
 7869              	.LVL1436:
1730:Core/Src/fsmc.c ****     LCD_WR_DATA(0x03);	//2ä¸ªIOå£è®¾ç½®æˆè¾“å‡º
 7870              		.loc 1 1730 5 view .LVU1993
 7871 22e4 B820     		movs	r0, #184
 7872 22e6 FFF7FEFF 		bl	LCD_WR_REG
 7873              	.LVL1437:
1731:Core/Src/fsmc.c ****     LCD_WR_DATA(0x01);	//GPIOä½¿ç”¨æ­£å¸¸çš„IOåŠŸèƒ½
 7874              		.loc 1 1731 5 view .LVU1994
 7875 22ea 0320     		movs	r0, #3
 7876 22ec FFF7FEFF 		bl	LCD_WR_DATA
 7877              	.LVL1438:
1732:Core/Src/fsmc.c ****     LCD_WR_REG(0xBA);
 7878              		.loc 1 1732 5 view .LVU1995
 7879 22f0 0120     		movs	r0, #1
 7880 22f2 FFF7FEFF 		bl	LCD_WR_DATA
 7881              	.LVL1439:
1733:Core/Src/fsmc.c ****     LCD_WR_DATA(0X01);	//GPIO[1:0]=01,æ§åˆ¶LCDæ–¹å‘
ARM GAS  /tmp/ccE1vrH2.s 			page 210


 7882              		.loc 1 1733 5 view .LVU1996
 7883 22f6 BA20     		movs	r0, #186
 7884 22f8 FFF7FEFF 		bl	LCD_WR_REG
 7885              	.LVL1440:
1734:Core/Src/fsmc.c **** 
 7886              		.loc 1 1734 5 view .LVU1997
 7887 22fc 0120     		movs	r0, #1
 7888 22fe FFF7FEFF 		bl	LCD_WR_DATA
 7889              	.LVL1441:
1736:Core/Src/fsmc.c ****   }
 7890              		.loc 1 1736 5 view .LVU1998
 7891 2302 6420     		movs	r0, #100
 7892 2304 FFF7FEFF 		bl	LCD_SSD_BackLightSet
 7893              	.LVL1442:
 7894 2308 FDF7ADBE 		b	.L164
 7895              		.cfi_endproc
 7896              	.LFE152:
 7898              		.section	.text.LCD_Fill,"ax",%progbits
 7899              		.align	1
 7900              		.global	LCD_Fill
 7901              		.syntax unified
 7902              		.thumb
 7903              		.thumb_func
 7905              	LCD_Fill:
 7906              	.LVL1443:
 7907              	.LFB154:
1769:Core/Src/fsmc.c ****   uint16_t i,j;
 7908              		.loc 1 1769 1 view -0
 7909              		.cfi_startproc
 7910              		@ args = 4, pretend = 0, frame = 0
 7911              		@ frame_needed = 0, uses_anonymous_args = 0
1769:Core/Src/fsmc.c ****   uint16_t i,j;
 7912              		.loc 1 1769 1 is_stmt 0 view .LVU2000
 7913 0000 2DE9F041 		push	{r4, r5, r6, r7, r8, lr}
 7914              	.LCFI25:
 7915              		.cfi_def_cfa_offset 24
 7916              		.cfi_offset 4, -24
 7917              		.cfi_offset 5, -20
 7918              		.cfi_offset 6, -16
 7919              		.cfi_offset 7, -12
 7920              		.cfi_offset 8, -8
 7921              		.cfi_offset 14, -4
 7922 0004 0746     		mov	r7, r0
 7923 0006 0E46     		mov	r6, r1
 7924 0008 9846     		mov	r8, r3
 7925 000a 069D     		ldr	r5, [sp, #24]
1770:Core/Src/fsmc.c ****   uint16_t xlen=0;
 7926              		.loc 1 1770 3 is_stmt 1 view .LVU2001
1771:Core/Src/fsmc.c ****   xlen=ex-sx+1;
 7927              		.loc 1 1771 3 view .LVU2002
 7928              	.LVL1444:
1772:Core/Src/fsmc.c ****   for(i=sy;i<=ey;i++)
 7929              		.loc 1 1772 3 view .LVU2003
1772:Core/Src/fsmc.c ****   for(i=sy;i<=ey;i++)
 7930              		.loc 1 1772 10 is_stmt 0 view .LVU2004
 7931 000c 141A     		subs	r4, r2, r0
 7932 000e A4B2     		uxth	r4, r4
ARM GAS  /tmp/ccE1vrH2.s 			page 211


1772:Core/Src/fsmc.c ****   for(i=sy;i<=ey;i++)
 7933              		.loc 1 1772 7 view .LVU2005
 7934 0010 0134     		adds	r4, r4, #1
 7935 0012 A4B2     		uxth	r4, r4
 7936              	.LVL1445:
1773:Core/Src/fsmc.c ****   {
 7937              		.loc 1 1773 3 is_stmt 1 view .LVU2006
1773:Core/Src/fsmc.c ****   {
 7938              		.loc 1 1773 3 is_stmt 0 view .LVU2007
 7939 0014 0AE0     		b	.L179
 7940              	.LVL1446:
 7941              	.L181:
1777:Core/Src/fsmc.c ****   }
 7942              		.loc 1 1777 24 is_stmt 1 discriminator 3 view .LVU2008
1777:Core/Src/fsmc.c ****   }
 7943              		.loc 1 1777 36 is_stmt 0 discriminator 3 view .LVU2009
 7944 0016 ABB2     		uxth	r3, r5
 7945 0018 4FF0D84C 		mov	ip, #1811939328
 7946 001c ACF88030 		strh	r3, [ip, #128]	@ movhi
1777:Core/Src/fsmc.c ****   }
 7947              		.loc 1 1777 20 is_stmt 1 discriminator 3 view .LVU2010
1777:Core/Src/fsmc.c ****   }
 7948              		.loc 1 1777 21 is_stmt 0 discriminator 3 view .LVU2011
 7949 0020 0132     		adds	r2, r2, #1
 7950              	.LVL1447:
1777:Core/Src/fsmc.c ****   }
 7951              		.loc 1 1777 21 discriminator 3 view .LVU2012
 7952 0022 92B2     		uxth	r2, r2
 7953              	.LVL1448:
 7954              	.L180:
1777:Core/Src/fsmc.c ****   }
 7955              		.loc 1 1777 13 is_stmt 1 discriminator 1 view .LVU2013
1777:Core/Src/fsmc.c ****   }
 7956              		.loc 1 1777 5 is_stmt 0 discriminator 1 view .LVU2014
 7957 0024 A242     		cmp	r2, r4
 7958 0026 F6D3     		bcc	.L181
1773:Core/Src/fsmc.c ****   {
 7959              		.loc 1 1773 18 is_stmt 1 discriminator 2 view .LVU2015
1773:Core/Src/fsmc.c ****   {
 7960              		.loc 1 1773 19 is_stmt 0 discriminator 2 view .LVU2016
 7961 0028 0136     		adds	r6, r6, #1
 7962              	.LVL1449:
1773:Core/Src/fsmc.c ****   {
 7963              		.loc 1 1773 19 discriminator 2 view .LVU2017
 7964 002a B6B2     		uxth	r6, r6
 7965              	.LVL1450:
 7966              	.L179:
1773:Core/Src/fsmc.c ****   {
 7967              		.loc 1 1773 12 is_stmt 1 discriminator 1 view .LVU2018
1773:Core/Src/fsmc.c ****   {
 7968              		.loc 1 1773 3 is_stmt 0 discriminator 1 view .LVU2019
 7969 002c 4645     		cmp	r6, r8
 7970 002e 07D8     		bhi	.L184
1775:Core/Src/fsmc.c ****     LCD_WriteRAM_Prepare();     			//??å§‹å†™å…¥GRAM
 7971              		.loc 1 1775 5 is_stmt 1 view .LVU2020
 7972 0030 3146     		mov	r1, r6
 7973 0032 3846     		mov	r0, r7
ARM GAS  /tmp/ccE1vrH2.s 			page 212


 7974 0034 FFF7FEFF 		bl	LCD_SetCursor
 7975              	.LVL1451:
1776:Core/Src/fsmc.c ****     for(j=0;j<xlen;j++)LCD->LCD_RAM=color;	//æ˜¾ç¤ºé¢œè‰²
 7976              		.loc 1 1776 5 view .LVU2021
 7977 0038 FFF7FEFF 		bl	LCD_WriteRAM_Prepare
 7978              	.LVL1452:
1777:Core/Src/fsmc.c ****   }
 7979              		.loc 1 1777 5 view .LVU2022
1777:Core/Src/fsmc.c ****   }
 7980              		.loc 1 1777 10 is_stmt 0 view .LVU2023
 7981 003c 0022     		movs	r2, #0
1777:Core/Src/fsmc.c ****   }
 7982              		.loc 1 1777 5 view .LVU2024
 7983 003e F1E7     		b	.L180
 7984              	.LVL1453:
 7985              	.L184:
1779:Core/Src/fsmc.c **** //åœ¨æŒ‡å®šåŒºåŸŸå†…å¡«å……æŒ‡å®šé¢œè‰²??
 7986              		.loc 1 1779 1 view .LVU2025
 7987 0040 BDE8F081 		pop	{r4, r5, r6, r7, r8, pc}
1779:Core/Src/fsmc.c **** //åœ¨æŒ‡å®šåŒºåŸŸå†…å¡«å……æŒ‡å®šé¢œè‰²??
 7988              		.loc 1 1779 1 view .LVU2026
 7989              		.cfi_endproc
 7990              	.LFE154:
 7992              		.section	.text.LCD_Color_Fill1,"ax",%progbits
 7993              		.align	1
 7994              		.global	LCD_Color_Fill1
 7995              		.syntax unified
 7996              		.thumb
 7997              		.thumb_func
 7999              	LCD_Color_Fill1:
 8000              	.LVL1454:
 8001              	.LFB155:
1784:Core/Src/fsmc.c ****   uint16_t height,width;
 8002              		.loc 1 1784 1 is_stmt 1 view -0
 8003              		.cfi_startproc
 8004              		@ args = 4, pretend = 0, frame = 0
 8005              		@ frame_needed = 0, uses_anonymous_args = 0
1784:Core/Src/fsmc.c ****   uint16_t height,width;
 8006              		.loc 1 1784 1 is_stmt 0 view .LVU2028
 8007 0000 2DE9F843 		push	{r3, r4, r5, r6, r7, r8, r9, lr}
 8008              	.LCFI26:
 8009              		.cfi_def_cfa_offset 32
 8010              		.cfi_offset 3, -32
 8011              		.cfi_offset 4, -28
 8012              		.cfi_offset 5, -24
 8013              		.cfi_offset 6, -20
 8014              		.cfi_offset 7, -16
 8015              		.cfi_offset 8, -12
 8016              		.cfi_offset 9, -8
 8017              		.cfi_offset 14, -4
 8018 0004 8146     		mov	r9, r0
 8019 0006 8846     		mov	r8, r1
 8020 0008 BDF82050 		ldrh	r5, [sp, #32]
1785:Core/Src/fsmc.c ****   uint16_t i,j;
 8021              		.loc 1 1785 3 is_stmt 1 view .LVU2029
1786:Core/Src/fsmc.c ****   width=ex-sx+1; 			//å¾—åˆ°å¡«å……çš„å®½??
 8022              		.loc 1 1786 3 view .LVU2030
ARM GAS  /tmp/ccE1vrH2.s 			page 213


1787:Core/Src/fsmc.c ****   height=ey-sy+1;			//é«˜åº¦
 8023              		.loc 1 1787 3 view .LVU2031
1787:Core/Src/fsmc.c ****   height=ey-sy+1;			//é«˜åº¦
 8024              		.loc 1 1787 11 is_stmt 0 view .LVU2032
 8025 000c 141A     		subs	r4, r2, r0
 8026 000e A4B2     		uxth	r4, r4
1787:Core/Src/fsmc.c ****   height=ey-sy+1;			//é«˜åº¦
 8027              		.loc 1 1787 8 view .LVU2033
 8028 0010 0134     		adds	r4, r4, #1
 8029 0012 A4B2     		uxth	r4, r4
 8030              	.LVL1455:
1788:Core/Src/fsmc.c ****   for(i=0;i<height;i++)
 8031              		.loc 1 1788 3 is_stmt 1 view .LVU2034
1788:Core/Src/fsmc.c ****   for(i=0;i<height;i++)
 8032              		.loc 1 1788 12 is_stmt 0 view .LVU2035
 8033 0014 5F1A     		subs	r7, r3, r1
 8034 0016 BFB2     		uxth	r7, r7
1788:Core/Src/fsmc.c ****   for(i=0;i<height;i++)
 8035              		.loc 1 1788 9 view .LVU2036
 8036 0018 0137     		adds	r7, r7, #1
 8037 001a BFB2     		uxth	r7, r7
 8038              	.LVL1456:
1789:Core/Src/fsmc.c ****   {
 8039              		.loc 1 1789 3 is_stmt 1 view .LVU2037
1789:Core/Src/fsmc.c ****   {
 8040              		.loc 1 1789 8 is_stmt 0 view .LVU2038
 8041 001c 0026     		movs	r6, #0
1789:Core/Src/fsmc.c ****   {
 8042              		.loc 1 1789 3 view .LVU2039
 8043 001e 09E0     		b	.L186
 8044              	.LVL1457:
 8045              	.L188:
1793:Core/Src/fsmc.c ****   }
 8046              		.loc 1 1793 25 is_stmt 1 discriminator 3 view .LVU2040
1793:Core/Src/fsmc.c ****   }
 8047              		.loc 1 1793 37 is_stmt 0 discriminator 3 view .LVU2041
 8048 0020 4FF0D842 		mov	r2, #1811939328
 8049 0024 A2F88050 		strh	r5, [r2, #128]	@ movhi
1793:Core/Src/fsmc.c ****   }
 8050              		.loc 1 1793 21 is_stmt 1 discriminator 3 view .LVU2042
1793:Core/Src/fsmc.c ****   }
 8051              		.loc 1 1793 22 is_stmt 0 discriminator 3 view .LVU2043
 8052 0028 0133     		adds	r3, r3, #1
 8053              	.LVL1458:
1793:Core/Src/fsmc.c ****   }
 8054              		.loc 1 1793 22 discriminator 3 view .LVU2044
 8055 002a 9BB2     		uxth	r3, r3
 8056              	.LVL1459:
 8057              	.L187:
1793:Core/Src/fsmc.c ****   }
 8058              		.loc 1 1793 13 is_stmt 1 discriminator 1 view .LVU2045
1793:Core/Src/fsmc.c ****   }
 8059              		.loc 1 1793 5 is_stmt 0 discriminator 1 view .LVU2046
 8060 002c A342     		cmp	r3, r4
 8061 002e F7D3     		bcc	.L188
1789:Core/Src/fsmc.c ****   {
 8062              		.loc 1 1789 20 is_stmt 1 discriminator 2 view .LVU2047
ARM GAS  /tmp/ccE1vrH2.s 			page 214


1789:Core/Src/fsmc.c ****   {
 8063              		.loc 1 1789 21 is_stmt 0 discriminator 2 view .LVU2048
 8064 0030 0136     		adds	r6, r6, #1
 8065              	.LVL1460:
1789:Core/Src/fsmc.c ****   {
 8066              		.loc 1 1789 21 discriminator 2 view .LVU2049
 8067 0032 B6B2     		uxth	r6, r6
 8068              	.LVL1461:
 8069              	.L186:
1789:Core/Src/fsmc.c ****   {
 8070              		.loc 1 1789 11 is_stmt 1 discriminator 1 view .LVU2050
1789:Core/Src/fsmc.c ****   {
 8071              		.loc 1 1789 3 is_stmt 0 discriminator 1 view .LVU2051
 8072 0034 BE42     		cmp	r6, r7
 8073 0036 09D2     		bcs	.L191
1791:Core/Src/fsmc.c ****     LCD_WriteRAM_Prepare();     //??å§‹å†™å…¥GRAM
 8074              		.loc 1 1791 5 is_stmt 1 view .LVU2052
 8075 0038 06EB0801 		add	r1, r6, r8
 8076 003c 89B2     		uxth	r1, r1
 8077 003e 4846     		mov	r0, r9
 8078 0040 FFF7FEFF 		bl	LCD_SetCursor
 8079              	.LVL1462:
1792:Core/Src/fsmc.c ****     for(j=0;j<width;j++)LCD->LCD_RAM=color;//å†™å…¥æ•°æ®
 8080              		.loc 1 1792 5 view .LVU2053
 8081 0044 FFF7FEFF 		bl	LCD_WriteRAM_Prepare
 8082              	.LVL1463:
1793:Core/Src/fsmc.c ****   }
 8083              		.loc 1 1793 5 view .LVU2054
1793:Core/Src/fsmc.c ****   }
 8084              		.loc 1 1793 10 is_stmt 0 view .LVU2055
 8085 0048 0023     		movs	r3, #0
1793:Core/Src/fsmc.c ****   }
 8086              		.loc 1 1793 5 view .LVU2056
 8087 004a EFE7     		b	.L187
 8088              	.LVL1464:
 8089              	.L191:
1795:Core/Src/fsmc.c **** void LCD_Color_Fill(uint16_t sx,uint16_t sy,uint16_t ex,uint16_t ey,uint16_t* color)
 8090              		.loc 1 1795 1 view .LVU2057
 8091 004c BDE8F883 		pop	{r3, r4, r5, r6, r7, r8, r9, pc}
1795:Core/Src/fsmc.c **** void LCD_Color_Fill(uint16_t sx,uint16_t sy,uint16_t ex,uint16_t ey,uint16_t* color)
 8092              		.loc 1 1795 1 view .LVU2058
 8093              		.cfi_endproc
 8094              	.LFE155:
 8096              		.section	.text.LCD_Color_Fill,"ax",%progbits
 8097              		.align	1
 8098              		.global	LCD_Color_Fill
 8099              		.syntax unified
 8100              		.thumb
 8101              		.thumb_func
 8103              	LCD_Color_Fill:
 8104              	.LVL1465:
 8105              	.LFB156:
1797:Core/Src/fsmc.c ****   uint16_t height,width;
 8106              		.loc 1 1797 1 is_stmt 1 view -0
 8107              		.cfi_startproc
 8108              		@ args = 4, pretend = 0, frame = 0
 8109              		@ frame_needed = 0, uses_anonymous_args = 0
ARM GAS  /tmp/ccE1vrH2.s 			page 215


1797:Core/Src/fsmc.c ****   uint16_t height,width;
 8110              		.loc 1 1797 1 is_stmt 0 view .LVU2060
 8111 0000 2DE9F843 		push	{r3, r4, r5, r6, r7, r8, r9, lr}
 8112              	.LCFI27:
 8113              		.cfi_def_cfa_offset 32
 8114              		.cfi_offset 3, -32
 8115              		.cfi_offset 4, -28
 8116              		.cfi_offset 5, -24
 8117              		.cfi_offset 6, -20
 8118              		.cfi_offset 7, -16
 8119              		.cfi_offset 8, -12
 8120              		.cfi_offset 9, -8
 8121              		.cfi_offset 14, -4
 8122 0004 8146     		mov	r9, r0
 8123 0006 8846     		mov	r8, r1
 8124 0008 089E     		ldr	r6, [sp, #32]
1798:Core/Src/fsmc.c ****   uint16_t i,j;
 8125              		.loc 1 1798 3 is_stmt 1 view .LVU2061
1799:Core/Src/fsmc.c ****   width=ex-sx+1; 			//å¾—åˆ°å¡«å……çš„å®½??
 8126              		.loc 1 1799 3 view .LVU2062
1800:Core/Src/fsmc.c ****   height=ey-sy+1;			//é«˜åº¦
 8127              		.loc 1 1800 3 view .LVU2063
1800:Core/Src/fsmc.c ****   height=ey-sy+1;			//é«˜åº¦
 8128              		.loc 1 1800 11 is_stmt 0 view .LVU2064
 8129 000a 141A     		subs	r4, r2, r0
 8130 000c A4B2     		uxth	r4, r4
1800:Core/Src/fsmc.c ****   height=ey-sy+1;			//é«˜åº¦
 8131              		.loc 1 1800 8 view .LVU2065
 8132 000e 0134     		adds	r4, r4, #1
 8133 0010 A4B2     		uxth	r4, r4
 8134              	.LVL1466:
1801:Core/Src/fsmc.c ****   for(i=0;i<height;i++)
 8135              		.loc 1 1801 3 is_stmt 1 view .LVU2066
1801:Core/Src/fsmc.c ****   for(i=0;i<height;i++)
 8136              		.loc 1 1801 12 is_stmt 0 view .LVU2067
 8137 0012 5F1A     		subs	r7, r3, r1
 8138 0014 BFB2     		uxth	r7, r7
1801:Core/Src/fsmc.c ****   for(i=0;i<height;i++)
 8139              		.loc 1 1801 9 view .LVU2068
 8140 0016 0137     		adds	r7, r7, #1
 8141 0018 BFB2     		uxth	r7, r7
 8142              	.LVL1467:
1802:Core/Src/fsmc.c ****   {
 8143              		.loc 1 1802 3 is_stmt 1 view .LVU2069
1802:Core/Src/fsmc.c ****   {
 8144              		.loc 1 1802 8 is_stmt 0 view .LVU2070
 8145 001a 0025     		movs	r5, #0
1802:Core/Src/fsmc.c ****   {
 8146              		.loc 1 1802 3 view .LVU2071
 8147 001c 0DE0     		b	.L193
 8148              	.LVL1468:
 8149              	.L195:
1806:Core/Src/fsmc.c ****   }
 8150              		.loc 1 1806 25 is_stmt 1 discriminator 3 view .LVU2072
1806:Core/Src/fsmc.c ****   }
 8151              		.loc 1 1806 51 is_stmt 0 discriminator 3 view .LVU2073
 8152 001e 04FB0532 		mla	r2, r4, r5, r3
ARM GAS  /tmp/ccE1vrH2.s 			page 216


1806:Core/Src/fsmc.c ****   }
 8153              		.loc 1 1806 43 discriminator 3 view .LVU2074
 8154 0022 36F81210 		ldrh	r1, [r6, r2, lsl #1]
1806:Core/Src/fsmc.c ****   }
 8155              		.loc 1 1806 37 discriminator 3 view .LVU2075
 8156 0026 4FF0D842 		mov	r2, #1811939328
 8157 002a A2F88010 		strh	r1, [r2, #128]	@ movhi
1806:Core/Src/fsmc.c ****   }
 8158              		.loc 1 1806 21 is_stmt 1 discriminator 3 view .LVU2076
1806:Core/Src/fsmc.c ****   }
 8159              		.loc 1 1806 22 is_stmt 0 discriminator 3 view .LVU2077
 8160 002e 0133     		adds	r3, r3, #1
 8161              	.LVL1469:
1806:Core/Src/fsmc.c ****   }
 8162              		.loc 1 1806 22 discriminator 3 view .LVU2078
 8163 0030 9BB2     		uxth	r3, r3
 8164              	.LVL1470:
 8165              	.L194:
1806:Core/Src/fsmc.c ****   }
 8166              		.loc 1 1806 13 is_stmt 1 discriminator 1 view .LVU2079
1806:Core/Src/fsmc.c ****   }
 8167              		.loc 1 1806 5 is_stmt 0 discriminator 1 view .LVU2080
 8168 0032 A342     		cmp	r3, r4
 8169 0034 F3D3     		bcc	.L195
1802:Core/Src/fsmc.c ****   {
 8170              		.loc 1 1802 20 is_stmt 1 discriminator 2 view .LVU2081
1802:Core/Src/fsmc.c ****   {
 8171              		.loc 1 1802 21 is_stmt 0 discriminator 2 view .LVU2082
 8172 0036 0135     		adds	r5, r5, #1
 8173              	.LVL1471:
1802:Core/Src/fsmc.c ****   {
 8174              		.loc 1 1802 21 discriminator 2 view .LVU2083
 8175 0038 ADB2     		uxth	r5, r5
 8176              	.LVL1472:
 8177              	.L193:
1802:Core/Src/fsmc.c ****   {
 8178              		.loc 1 1802 11 is_stmt 1 discriminator 1 view .LVU2084
1802:Core/Src/fsmc.c ****   {
 8179              		.loc 1 1802 3 is_stmt 0 discriminator 1 view .LVU2085
 8180 003a BD42     		cmp	r5, r7
 8181 003c 09D2     		bcs	.L198
1804:Core/Src/fsmc.c ****     LCD_WriteRAM_Prepare();     //??å§‹å†™å…¥GRAM
 8182              		.loc 1 1804 5 is_stmt 1 view .LVU2086
 8183 003e 05EB0801 		add	r1, r5, r8
 8184 0042 89B2     		uxth	r1, r1
 8185 0044 4846     		mov	r0, r9
 8186 0046 FFF7FEFF 		bl	LCD_SetCursor
 8187              	.LVL1473:
1805:Core/Src/fsmc.c ****     for(j=0;j<width;j++)LCD->LCD_RAM=color[i*width+j];//å†™å…¥æ•°æ®
 8188              		.loc 1 1805 5 view .LVU2087
 8189 004a FFF7FEFF 		bl	LCD_WriteRAM_Prepare
 8190              	.LVL1474:
1806:Core/Src/fsmc.c ****   }
 8191              		.loc 1 1806 5 view .LVU2088
1806:Core/Src/fsmc.c ****   }
 8192              		.loc 1 1806 10 is_stmt 0 view .LVU2089
 8193 004e 0023     		movs	r3, #0
ARM GAS  /tmp/ccE1vrH2.s 			page 217


1806:Core/Src/fsmc.c ****   }
 8194              		.loc 1 1806 5 view .LVU2090
 8195 0050 EFE7     		b	.L194
 8196              	.LVL1475:
 8197              	.L198:
1808:Core/Src/fsmc.c **** //ç”»çº¿
 8198              		.loc 1 1808 1 view .LVU2091
 8199 0052 BDE8F883 		pop	{r3, r4, r5, r6, r7, r8, r9, pc}
1808:Core/Src/fsmc.c **** //ç”»çº¿
 8200              		.loc 1 1808 1 view .LVU2092
 8201              		.cfi_endproc
 8202              	.LFE156:
 8204              		.section	.text.LCD_DrawLine,"ax",%progbits
 8205              		.align	1
 8206              		.global	LCD_DrawLine
 8207              		.syntax unified
 8208              		.thumb
 8209              		.thumb_func
 8211              	LCD_DrawLine:
 8212              	.LVL1476:
 8213              	.LFB157:
1813:Core/Src/fsmc.c ****   uint16_t t;
 8214              		.loc 1 1813 1 is_stmt 1 view -0
 8215              		.cfi_startproc
 8216              		@ args = 0, pretend = 0, frame = 8
 8217              		@ frame_needed = 0, uses_anonymous_args = 0
1813:Core/Src/fsmc.c ****   uint16_t t;
 8218              		.loc 1 1813 1 is_stmt 0 view .LVU2094
 8219 0000 2DE9F04F 		push	{r4, r5, r6, r7, r8, r9, r10, fp, lr}
 8220              	.LCFI28:
 8221              		.cfi_def_cfa_offset 36
 8222              		.cfi_offset 4, -36
 8223              		.cfi_offset 5, -32
 8224              		.cfi_offset 6, -28
 8225              		.cfi_offset 7, -24
 8226              		.cfi_offset 8, -20
 8227              		.cfi_offset 9, -16
 8228              		.cfi_offset 10, -12
 8229              		.cfi_offset 11, -8
 8230              		.cfi_offset 14, -4
 8231 0004 83B0     		sub	sp, sp, #12
 8232              	.LCFI29:
 8233              		.cfi_def_cfa_offset 48
1814:Core/Src/fsmc.c ****   int xerr=0,yerr=0,delta_x,delta_y,distance;
 8234              		.loc 1 1814 3 is_stmt 1 view .LVU2095
1815:Core/Src/fsmc.c ****   int incx,incy,uRow,uCol;
 8235              		.loc 1 1815 3 view .LVU2096
 8236              	.LVL1477:
1816:Core/Src/fsmc.c ****   delta_x=x2-x1; //è®¡ç®—åæ ‡å¢é‡
 8237              		.loc 1 1816 3 view .LVU2097
1817:Core/Src/fsmc.c ****   delta_y=y2-y1;
 8238              		.loc 1 1817 3 view .LVU2098
1817:Core/Src/fsmc.c ****   delta_y=y2-y1;
 8239              		.loc 1 1817 13 is_stmt 0 view .LVU2099
 8240 0006 8046     		mov	r8, r0
1817:Core/Src/fsmc.c ****   delta_y=y2-y1;
 8241              		.loc 1 1817 10 view .LVU2100
ARM GAS  /tmp/ccE1vrH2.s 			page 218


 8242 0008 A2EB000A 		sub	r10, r2, r0
 8243              	.LVL1478:
1818:Core/Src/fsmc.c ****   uRow=x1;
 8244              		.loc 1 1818 3 is_stmt 1 view .LVU2101
1818:Core/Src/fsmc.c ****   uRow=x1;
 8245              		.loc 1 1818 13 is_stmt 0 view .LVU2102
 8246 000c 8946     		mov	r9, r1
1818:Core/Src/fsmc.c ****   uRow=x1;
 8247              		.loc 1 1818 10 view .LVU2103
 8248 000e A3EB010B 		sub	fp, r3, r1
 8249              	.LVL1479:
1819:Core/Src/fsmc.c ****   uCol=y1;
 8250              		.loc 1 1819 3 is_stmt 1 view .LVU2104
1820:Core/Src/fsmc.c ****   if(delta_x>0)incx=1; //è®¾ç½®å•æ­¥æ–¹å‘
 8251              		.loc 1 1820 3 view .LVU2105
1821:Core/Src/fsmc.c ****   else if(delta_x==0)incx=0;//å‚ç›´??
 8252              		.loc 1 1821 3 view .LVU2106
1821:Core/Src/fsmc.c ****   else if(delta_x==0)incx=0;//å‚ç›´??
 8253              		.loc 1 1821 5 is_stmt 0 view .LVU2107
 8254 0012 BAF1000F 		cmp	r10, #0
 8255 0016 0DDD     		ble	.L213
1821:Core/Src/fsmc.c ****   else if(delta_x==0)incx=0;//å‚ç›´??
 8256              		.loc 1 1821 20 view .LVU2108
 8257 0018 0122     		movs	r2, #1
 8258              	.LVL1480:
1821:Core/Src/fsmc.c ****   else if(delta_x==0)incx=0;//å‚ç›´??
 8259              		.loc 1 1821 20 view .LVU2109
 8260 001a 0092     		str	r2, [sp]
 8261              	.L200:
 8262              	.LVL1481:
1824:Core/Src/fsmc.c ****   else if(delta_y==0)incy=0;//æ°´å¹³??
 8263              		.loc 1 1824 3 is_stmt 1 view .LVU2110
1824:Core/Src/fsmc.c ****   else if(delta_y==0)incy=0;//æ°´å¹³??
 8264              		.loc 1 1824 5 is_stmt 0 view .LVU2111
 8265 001c BBF1000F 		cmp	fp, #0
 8266 0020 14DD     		ble	.L214
1824:Core/Src/fsmc.c ****   else if(delta_y==0)incy=0;//æ°´å¹³??
 8267              		.loc 1 1824 20 view .LVU2112
 8268 0022 0123     		movs	r3, #1
 8269              	.LVL1482:
1824:Core/Src/fsmc.c ****   else if(delta_y==0)incy=0;//æ°´å¹³??
 8270              		.loc 1 1824 20 view .LVU2113
 8271 0024 0193     		str	r3, [sp, #4]
 8272              	.L201:
 8273              	.LVL1483:
1827:Core/Src/fsmc.c ****   else distance=delta_y;
 8274              		.loc 1 1827 3 is_stmt 1 view .LVU2114
1827:Core/Src/fsmc.c ****   else distance=delta_y;
 8275              		.loc 1 1827 5 is_stmt 0 view .LVU2115
 8276 0026 DA45     		cmp	r10, fp
 8277 0028 1CDD     		ble	.L211
1827:Core/Src/fsmc.c ****   else distance=delta_y;
 8278              		.loc 1 1827 31 view .LVU2116
 8279 002a 5646     		mov	r6, r10
 8280              	.L202:
 8281              	.LVL1484:
1829:Core/Src/fsmc.c ****   {
ARM GAS  /tmp/ccE1vrH2.s 			page 219


 8282              		.loc 1 1829 3 is_stmt 1 view .LVU2117
1815:Core/Src/fsmc.c ****   int incx,incy,uRow,uCol;
 8283              		.loc 1 1815 14 is_stmt 0 view .LVU2118
 8284 002c 0025     		movs	r5, #0
1815:Core/Src/fsmc.c ****   int incx,incy,uRow,uCol;
 8285              		.loc 1 1815 7 view .LVU2119
 8286 002e 2F46     		mov	r7, r5
1829:Core/Src/fsmc.c ****   {
 8287              		.loc 1 1829 8 view .LVU2120
 8288 0030 2C46     		mov	r4, r5
1829:Core/Src/fsmc.c ****   {
 8289              		.loc 1 1829 3 view .LVU2121
 8290 0032 1BE0     		b	.L203
 8291              	.LVL1485:
 8292              	.L213:
1822:Core/Src/fsmc.c ****   else {incx=-1;delta_x=-delta_x;}
 8293              		.loc 1 1822 8 is_stmt 1 view .LVU2122
1822:Core/Src/fsmc.c ****   else {incx=-1;delta_x=-delta_x;}
 8294              		.loc 1 1822 10 is_stmt 0 view .LVU2123
 8295 0034 BAF1000F 		cmp	r10, #0
 8296 0038 05D0     		beq	.L208
1823:Core/Src/fsmc.c ****   if(delta_y>0)incy=1;
 8297              		.loc 1 1823 9 is_stmt 1 view .LVU2124
 8298              	.LVL1486:
1823:Core/Src/fsmc.c ****   if(delta_y>0)incy=1;
 8299              		.loc 1 1823 17 view .LVU2125
1823:Core/Src/fsmc.c ****   if(delta_y>0)incy=1;
 8300              		.loc 1 1823 24 is_stmt 0 view .LVU2126
 8301 003a A0EB020A 		sub	r10, r0, r2
 8302              	.LVL1487:
1823:Core/Src/fsmc.c ****   if(delta_y>0)incy=1;
 8303              		.loc 1 1823 13 view .LVU2127
 8304 003e 4FF0FF32 		mov	r2, #-1
 8305              	.LVL1488:
1823:Core/Src/fsmc.c ****   if(delta_y>0)incy=1;
 8306              		.loc 1 1823 13 view .LVU2128
 8307 0042 0092     		str	r2, [sp]
 8308 0044 EAE7     		b	.L200
 8309              	.LVL1489:
 8310              	.L208:
1822:Core/Src/fsmc.c ****   else {incx=-1;delta_x=-delta_x;}
 8311              		.loc 1 1822 26 view .LVU2129
 8312 0046 CDF800A0 		str	r10, [sp]
 8313 004a E7E7     		b	.L200
 8314              	.LVL1490:
 8315              	.L214:
1825:Core/Src/fsmc.c ****   else{incy=-1;delta_y=-delta_y;}
 8316              		.loc 1 1825 8 is_stmt 1 view .LVU2130
1825:Core/Src/fsmc.c ****   else{incy=-1;delta_y=-delta_y;}
 8317              		.loc 1 1825 10 is_stmt 0 view .LVU2131
 8318 004c BBF1000F 		cmp	fp, #0
 8319 0050 05D0     		beq	.L210
1826:Core/Src/fsmc.c ****   if( delta_x>delta_y)distance=delta_x; //é€‰å–åŸºæœ¬å¢é‡åæ ‡??
 8320              		.loc 1 1826 8 is_stmt 1 view .LVU2132
 8321              	.LVL1491:
1826:Core/Src/fsmc.c ****   if( delta_x>delta_y)distance=delta_x; //é€‰å–åŸºæœ¬å¢é‡åæ ‡??
 8322              		.loc 1 1826 16 view .LVU2133
ARM GAS  /tmp/ccE1vrH2.s 			page 220


1826:Core/Src/fsmc.c ****   if( delta_x>delta_y)distance=delta_x; //é€‰å–åŸºæœ¬å¢é‡åæ ‡??
 8323              		.loc 1 1826 23 is_stmt 0 view .LVU2134
 8324 0052 A1EB030B 		sub	fp, r1, r3
 8325              	.LVL1492:
1826:Core/Src/fsmc.c ****   if( delta_x>delta_y)distance=delta_x; //é€‰å–åŸºæœ¬å¢é‡åæ ‡??
 8326              		.loc 1 1826 12 view .LVU2135
 8327 0056 4FF0FF33 		mov	r3, #-1
 8328              	.LVL1493:
1826:Core/Src/fsmc.c ****   if( delta_x>delta_y)distance=delta_x; //é€‰å–åŸºæœ¬å¢é‡åæ ‡??
 8329              		.loc 1 1826 12 view .LVU2136
 8330 005a 0193     		str	r3, [sp, #4]
 8331 005c E3E7     		b	.L201
 8332              	.LVL1494:
 8333              	.L210:
1825:Core/Src/fsmc.c ****   else{incy=-1;delta_y=-delta_y;}
 8334              		.loc 1 1825 26 view .LVU2137
 8335 005e CDF804B0 		str	fp, [sp, #4]
 8336 0062 E0E7     		b	.L201
 8337              	.LVL1495:
 8338              	.L211:
1828:Core/Src/fsmc.c ****   for(t=0;t<=distance+1;t++ )//ç”»çº¿è¾“å‡º
 8339              		.loc 1 1828 16 view .LVU2138
 8340 0064 5E46     		mov	r6, fp
 8341 0066 E1E7     		b	.L202
 8342              	.LVL1496:
 8343              	.L205:
1829:Core/Src/fsmc.c ****   {
 8344              		.loc 1 1829 25 is_stmt 1 discriminator 2 view .LVU2139
1829:Core/Src/fsmc.c ****   {
 8345              		.loc 1 1829 26 is_stmt 0 discriminator 2 view .LVU2140
 8346 0068 0134     		adds	r4, r4, #1
 8347              	.LVL1497:
1829:Core/Src/fsmc.c ****   {
 8348              		.loc 1 1829 26 discriminator 2 view .LVU2141
 8349 006a A4B2     		uxth	r4, r4
 8350              	.LVL1498:
 8351              	.L203:
1829:Core/Src/fsmc.c ****   {
 8352              		.loc 1 1829 11 is_stmt 1 discriminator 1 view .LVU2142
1829:Core/Src/fsmc.c ****   {
 8353              		.loc 1 1829 22 is_stmt 0 discriminator 1 view .LVU2143
 8354 006c 731C     		adds	r3, r6, #1
1829:Core/Src/fsmc.c ****   {
 8355              		.loc 1 1829 3 discriminator 1 view .LVU2144
 8356 006e 9C42     		cmp	r4, r3
 8357 0070 12DC     		bgt	.L215
1831:Core/Src/fsmc.c ****     xerr+=delta_x ;
 8358              		.loc 1 1831 5 is_stmt 1 view .LVU2145
 8359 0072 1FFA89F1 		uxth	r1, r9
 8360 0076 1FFA88F0 		uxth	r0, r8
 8361 007a FFF7FEFF 		bl	LCD_DrawPoint
 8362              	.LVL1499:
1832:Core/Src/fsmc.c ****     yerr+=delta_y ;
 8363              		.loc 1 1832 5 view .LVU2146
1832:Core/Src/fsmc.c ****     yerr+=delta_y ;
 8364              		.loc 1 1832 9 is_stmt 0 view .LVU2147
 8365 007e 5744     		add	r7, r7, r10
ARM GAS  /tmp/ccE1vrH2.s 			page 221


 8366              	.LVL1500:
1833:Core/Src/fsmc.c ****     if(xerr>distance)
 8367              		.loc 1 1833 5 is_stmt 1 view .LVU2148
1833:Core/Src/fsmc.c ****     if(xerr>distance)
 8368              		.loc 1 1833 9 is_stmt 0 view .LVU2149
 8369 0080 5D44     		add	r5, r5, fp
 8370              	.LVL1501:
1834:Core/Src/fsmc.c ****     {
 8371              		.loc 1 1834 5 is_stmt 1 view .LVU2150
1834:Core/Src/fsmc.c ****     {
 8372              		.loc 1 1834 7 is_stmt 0 view .LVU2151
 8373 0082 BE42     		cmp	r6, r7
 8374 0084 02DA     		bge	.L204
1836:Core/Src/fsmc.c ****       uRow+=incx;
 8375              		.loc 1 1836 7 is_stmt 1 view .LVU2152
1836:Core/Src/fsmc.c ****       uRow+=incx;
 8376              		.loc 1 1836 11 is_stmt 0 view .LVU2153
 8377 0086 BF1B     		subs	r7, r7, r6
 8378              	.LVL1502:
1837:Core/Src/fsmc.c ****     }
 8379              		.loc 1 1837 7 is_stmt 1 view .LVU2154
1837:Core/Src/fsmc.c ****     }
 8380              		.loc 1 1837 11 is_stmt 0 view .LVU2155
 8381 0088 009B     		ldr	r3, [sp]
 8382 008a 9844     		add	r8, r8, r3
 8383              	.LVL1503:
 8384              	.L204:
1839:Core/Src/fsmc.c ****     {
 8385              		.loc 1 1839 5 is_stmt 1 view .LVU2156
1839:Core/Src/fsmc.c ****     {
 8386              		.loc 1 1839 7 is_stmt 0 view .LVU2157
 8387 008c AE42     		cmp	r6, r5
 8388 008e EBDA     		bge	.L205
1841:Core/Src/fsmc.c ****       uCol+=incy;
 8389              		.loc 1 1841 7 is_stmt 1 view .LVU2158
1841:Core/Src/fsmc.c ****       uCol+=incy;
 8390              		.loc 1 1841 11 is_stmt 0 view .LVU2159
 8391 0090 AD1B     		subs	r5, r5, r6
 8392              	.LVL1504:
1842:Core/Src/fsmc.c ****     }
 8393              		.loc 1 1842 7 is_stmt 1 view .LVU2160
1842:Core/Src/fsmc.c ****     }
 8394              		.loc 1 1842 11 is_stmt 0 view .LVU2161
 8395 0092 019B     		ldr	r3, [sp, #4]
 8396 0094 9944     		add	r9, r9, r3
 8397              	.LVL1505:
1842:Core/Src/fsmc.c ****     }
 8398              		.loc 1 1842 11 view .LVU2162
 8399 0096 E7E7     		b	.L205
 8400              	.L215:
1845:Core/Src/fsmc.c **** //ç”»çŸ©??
 8401              		.loc 1 1845 1 view .LVU2163
 8402 0098 03B0     		add	sp, sp, #12
 8403              	.LCFI30:
 8404              		.cfi_def_cfa_offset 36
 8405              	.LVL1506:
1845:Core/Src/fsmc.c **** //ç”»çŸ©??
ARM GAS  /tmp/ccE1vrH2.s 			page 222


 8406              		.loc 1 1845 1 view .LVU2164
 8407              		@ sp needed
 8408 009a BDE8F08F 		pop	{r4, r5, r6, r7, r8, r9, r10, fp, pc}
1845:Core/Src/fsmc.c **** //ç”»çŸ©??
 8409              		.loc 1 1845 1 view .LVU2165
 8410              		.cfi_endproc
 8411              	.LFE157:
 8413              		.section	.text.LCD_DrawRectangle,"ax",%progbits
 8414              		.align	1
 8415              		.global	LCD_DrawRectangle
 8416              		.syntax unified
 8417              		.thumb
 8418              		.thumb_func
 8420              	LCD_DrawRectangle:
 8421              	.LVL1507:
 8422              	.LFB158:
1849:Core/Src/fsmc.c ****   LCD_DrawLine(x1,y1,x2,y1);
 8423              		.loc 1 1849 1 is_stmt 1 view -0
 8424              		.cfi_startproc
 8425              		@ args = 0, pretend = 0, frame = 0
 8426              		@ frame_needed = 0, uses_anonymous_args = 0
1849:Core/Src/fsmc.c ****   LCD_DrawLine(x1,y1,x2,y1);
 8427              		.loc 1 1849 1 is_stmt 0 view .LVU2167
 8428 0000 F8B5     		push	{r3, r4, r5, r6, r7, lr}
 8429              	.LCFI31:
 8430              		.cfi_def_cfa_offset 24
 8431              		.cfi_offset 3, -24
 8432              		.cfi_offset 4, -20
 8433              		.cfi_offset 5, -16
 8434              		.cfi_offset 6, -12
 8435              		.cfi_offset 7, -8
 8436              		.cfi_offset 14, -4
 8437 0002 0746     		mov	r7, r0
 8438 0004 0E46     		mov	r6, r1
 8439 0006 1546     		mov	r5, r2
 8440 0008 1C46     		mov	r4, r3
1850:Core/Src/fsmc.c ****   LCD_DrawLine(x1,y1,x1,y2);
 8441              		.loc 1 1850 3 is_stmt 1 view .LVU2168
 8442 000a 0B46     		mov	r3, r1
 8443              	.LVL1508:
1850:Core/Src/fsmc.c ****   LCD_DrawLine(x1,y1,x1,y2);
 8444              		.loc 1 1850 3 is_stmt 0 view .LVU2169
 8445 000c FFF7FEFF 		bl	LCD_DrawLine
 8446              	.LVL1509:
1851:Core/Src/fsmc.c ****   LCD_DrawLine(x1,y2,x2,y2);
 8447              		.loc 1 1851 3 is_stmt 1 view .LVU2170
 8448 0010 2346     		mov	r3, r4
 8449 0012 3A46     		mov	r2, r7
 8450 0014 3146     		mov	r1, r6
 8451 0016 3846     		mov	r0, r7
 8452 0018 FFF7FEFF 		bl	LCD_DrawLine
 8453              	.LVL1510:
1852:Core/Src/fsmc.c ****   LCD_DrawLine(x2,y1,x2,y2);
 8454              		.loc 1 1852 3 view .LVU2171
 8455 001c 2346     		mov	r3, r4
 8456 001e 2A46     		mov	r2, r5
 8457 0020 2146     		mov	r1, r4
ARM GAS  /tmp/ccE1vrH2.s 			page 223


 8458 0022 3846     		mov	r0, r7
 8459 0024 FFF7FEFF 		bl	LCD_DrawLine
 8460              	.LVL1511:
1853:Core/Src/fsmc.c **** }
 8461              		.loc 1 1853 3 view .LVU2172
 8462 0028 2346     		mov	r3, r4
 8463 002a 2A46     		mov	r2, r5
 8464 002c 3146     		mov	r1, r6
 8465 002e 2846     		mov	r0, r5
 8466 0030 FFF7FEFF 		bl	LCD_DrawLine
 8467              	.LVL1512:
1854:Core/Src/fsmc.c **** //åœ¨æŒ‡å®šä½ç½®ç”»??ä¸ªæŒ‡å®šå¤§å°çš„??
 8468              		.loc 1 1854 1 is_stmt 0 view .LVU2173
 8469 0034 F8BD     		pop	{r3, r4, r5, r6, r7, pc}
 8470              		.cfi_endproc
 8471              	.LFE158:
 8473              		.section	.text.LCD_Draw_Circle,"ax",%progbits
 8474              		.align	1
 8475              		.global	LCD_Draw_Circle
 8476              		.syntax unified
 8477              		.thumb
 8478              		.thumb_func
 8480              	LCD_Draw_Circle:
 8481              	.LVL1513:
 8482              	.LFB159:
1859:Core/Src/fsmc.c ****   int a,b;
 8483              		.loc 1 1859 1 is_stmt 1 view -0
 8484              		.cfi_startproc
 8485              		@ args = 0, pretend = 0, frame = 16
 8486              		@ frame_needed = 0, uses_anonymous_args = 0
1859:Core/Src/fsmc.c ****   int a,b;
 8487              		.loc 1 1859 1 is_stmt 0 view .LVU2175
 8488 0000 2DE9F04F 		push	{r4, r5, r6, r7, r8, r9, r10, fp, lr}
 8489              	.LCFI32:
 8490              		.cfi_def_cfa_offset 36
 8491              		.cfi_offset 4, -36
 8492              		.cfi_offset 5, -32
 8493              		.cfi_offset 6, -28
 8494              		.cfi_offset 7, -24
 8495              		.cfi_offset 8, -20
 8496              		.cfi_offset 9, -16
 8497              		.cfi_offset 10, -12
 8498              		.cfi_offset 11, -8
 8499              		.cfi_offset 14, -4
 8500 0004 85B0     		sub	sp, sp, #20
 8501              	.LCFI33:
 8502              		.cfi_def_cfa_offset 56
 8503 0006 8046     		mov	r8, r0
 8504 0008 0F46     		mov	r7, r1
 8505 000a 0092     		str	r2, [sp]
1860:Core/Src/fsmc.c ****   int di;
 8506              		.loc 1 1860 3 is_stmt 1 view .LVU2176
1861:Core/Src/fsmc.c ****   a=0;b=r;
 8507              		.loc 1 1861 3 view .LVU2177
1862:Core/Src/fsmc.c ****   di=3-(r<<1);             //åˆ¤æ–­ä¸‹ä¸ªç‚¹ä½ç½®çš„æ ‡å¿—
 8508              		.loc 1 1862 3 view .LVU2178
 8509              	.LVL1514:
ARM GAS  /tmp/ccE1vrH2.s 			page 224


1862:Core/Src/fsmc.c ****   di=3-(r<<1);             //åˆ¤æ–­ä¸‹ä¸ªç‚¹ä½ç½®çš„æ ‡å¿—
 8510              		.loc 1 1862 7 view .LVU2179
1863:Core/Src/fsmc.c ****   while(a<=b)
 8511              		.loc 1 1863 3 view .LVU2180
1863:Core/Src/fsmc.c ****   while(a<=b)
 8512              		.loc 1 1863 10 is_stmt 0 view .LVU2181
 8513 000c 5300     		lsls	r3, r2, #1
1863:Core/Src/fsmc.c ****   while(a<=b)
 8514              		.loc 1 1863 5 view .LVU2182
 8515 000e C3F10303 		rsb	r3, r3, #3
 8516 0012 0193     		str	r3, [sp, #4]
 8517              	.LVL1515:
1864:Core/Src/fsmc.c ****   {
 8518              		.loc 1 1864 3 is_stmt 1 view .LVU2183
1862:Core/Src/fsmc.c ****   di=3-(r<<1);             //åˆ¤æ–­ä¸‹ä¸ªç‚¹ä½ç½®çš„æ ‡å¿—
 8519              		.loc 1 1862 4 is_stmt 0 view .LVU2184
 8520 0014 0026     		movs	r6, #0
1864:Core/Src/fsmc.c ****   {
 8521              		.loc 1 1864 8 view .LVU2185
 8522 0016 08E0     		b	.L219
 8523              	.LVL1516:
 8524              	.L220:
1879:Core/Src/fsmc.c ****       b--;
 8525              		.loc 1 1879 7 is_stmt 1 view .LVU2186
1879:Core/Src/fsmc.c ****       b--;
 8526              		.loc 1 1879 18 is_stmt 0 view .LVU2187
 8527 0018 009A     		ldr	r2, [sp]
 8528 001a B31A     		subs	r3, r6, r2
1879:Core/Src/fsmc.c ****       b--;
 8529              		.loc 1 1879 15 view .LVU2188
 8530 001c 9B00     		lsls	r3, r3, #2
1879:Core/Src/fsmc.c ****       b--;
 8531              		.loc 1 1879 13 view .LVU2189
 8532 001e 0A33     		adds	r3, r3, #10
1879:Core/Src/fsmc.c ****       b--;
 8533              		.loc 1 1879 9 view .LVU2190
 8534 0020 0199     		ldr	r1, [sp, #4]
 8535 0022 1944     		add	r1, r1, r3
 8536 0024 0191     		str	r1, [sp, #4]
 8537              	.LVL1517:
1880:Core/Src/fsmc.c ****     }
 8538              		.loc 1 1880 7 is_stmt 1 view .LVU2191
1880:Core/Src/fsmc.c ****     }
 8539              		.loc 1 1880 8 is_stmt 0 view .LVU2192
 8540 0026 531E     		subs	r3, r2, #1
 8541 0028 0093     		str	r3, [sp]
 8542              	.LVL1518:
 8543              	.L219:
1864:Core/Src/fsmc.c ****   {
 8544              		.loc 1 1864 8 is_stmt 1 view .LVU2193
 8545 002a 009B     		ldr	r3, [sp]
 8546 002c 9E42     		cmp	r6, r3
 8547 002e 47DC     		bgt	.L224
1866:Core/Src/fsmc.c ****     LCD_DrawPoint(x0+b,y0-a);             //0
 8548              		.loc 1 1866 5 view .LVU2194
 8549 0030 B5B2     		uxth	r5, r6
 8550 0032 05EB080B 		add	fp, r5, r8
ARM GAS  /tmp/ccE1vrH2.s 			page 225


 8551 0036 1FFA8BFB 		uxth	fp, fp
 8552 003a BDF80040 		ldrh	r4, [sp]
 8553 003e 3B1B     		subs	r3, r7, r4
 8554 0040 9BB2     		uxth	r3, r3
 8555 0042 0293     		str	r3, [sp, #8]
 8556 0044 1946     		mov	r1, r3
 8557 0046 5846     		mov	r0, fp
 8558 0048 FFF7FEFF 		bl	LCD_DrawPoint
 8559              	.LVL1519:
1867:Core/Src/fsmc.c ****     LCD_DrawPoint(x0+b,y0+a);             //4
 8560              		.loc 1 1867 5 view .LVU2195
 8561 004c 04EB080A 		add	r10, r4, r8
 8562 0050 1FFA8AFA 		uxth	r10, r10
 8563 0054 7B1B     		subs	r3, r7, r5
 8564 0056 9AB2     		uxth	r2, r3
 8565 0058 0392     		str	r2, [sp, #12]
 8566 005a 1146     		mov	r1, r2
 8567 005c 5046     		mov	r0, r10
 8568 005e FFF7FEFF 		bl	LCD_DrawPoint
 8569              	.LVL1520:
1868:Core/Src/fsmc.c ****     LCD_DrawPoint(x0+a,y0+b);             //6
 8570              		.loc 1 1868 5 view .LVU2196
 8571 0062 05EB0709 		add	r9, r5, r7
 8572 0066 1FFA89F9 		uxth	r9, r9
 8573 006a 4946     		mov	r1, r9
 8574 006c 5046     		mov	r0, r10
 8575 006e FFF7FEFF 		bl	LCD_DrawPoint
 8576              	.LVL1521:
1869:Core/Src/fsmc.c ****     LCD_DrawPoint(x0-a,y0+b);             //1
 8577              		.loc 1 1869 5 view .LVU2197
 8578 0072 04EB070A 		add	r10, r4, r7
 8579 0076 1FFA8AFA 		uxth	r10, r10
 8580 007a 5146     		mov	r1, r10
 8581 007c 5846     		mov	r0, fp
 8582 007e FFF7FEFF 		bl	LCD_DrawPoint
 8583              	.LVL1522:
1870:Core/Src/fsmc.c ****     LCD_DrawPoint(x0-b,y0+a);
 8584              		.loc 1 1870 5 view .LVU2198
 8585 0082 A8EB0505 		sub	r5, r8, r5
 8586 0086 ADB2     		uxth	r5, r5
 8587 0088 5146     		mov	r1, r10
 8588 008a 2846     		mov	r0, r5
 8589 008c FFF7FEFF 		bl	LCD_DrawPoint
 8590              	.LVL1523:
1871:Core/Src/fsmc.c ****     LCD_DrawPoint(x0-a,y0-b);             //2
 8591              		.loc 1 1871 5 view .LVU2199
 8592 0090 A8EB0404 		sub	r4, r8, r4
 8593 0094 A4B2     		uxth	r4, r4
 8594 0096 4946     		mov	r1, r9
 8595 0098 2046     		mov	r0, r4
 8596 009a FFF7FEFF 		bl	LCD_DrawPoint
 8597              	.LVL1524:
1872:Core/Src/fsmc.c ****     LCD_DrawPoint(x0-b,y0-a);             //7
 8598              		.loc 1 1872 5 view .LVU2200
 8599 009e 0299     		ldr	r1, [sp, #8]
 8600 00a0 2846     		mov	r0, r5
 8601 00a2 FFF7FEFF 		bl	LCD_DrawPoint
ARM GAS  /tmp/ccE1vrH2.s 			page 226


 8602              	.LVL1525:
1873:Core/Src/fsmc.c ****     a++;
 8603              		.loc 1 1873 5 view .LVU2201
 8604 00a6 0399     		ldr	r1, [sp, #12]
 8605 00a8 2046     		mov	r0, r4
 8606 00aa FFF7FEFF 		bl	LCD_DrawPoint
 8607              	.LVL1526:
1874:Core/Src/fsmc.c ****     //ä½¿ç”¨Bresenhamç®—æ³•ç”»åœ†
 8608              		.loc 1 1874 5 view .LVU2202
1874:Core/Src/fsmc.c ****     //ä½¿ç”¨Bresenhamç®—æ³•ç”»åœ†
 8609              		.loc 1 1874 6 is_stmt 0 view .LVU2203
 8610 00ae 0136     		adds	r6, r6, #1
 8611              	.LVL1527:
1876:Core/Src/fsmc.c ****     else
 8612              		.loc 1 1876 5 is_stmt 1 view .LVU2204
1876:Core/Src/fsmc.c ****     else
 8613              		.loc 1 1876 7 is_stmt 0 view .LVU2205
 8614 00b0 019A     		ldr	r2, [sp, #4]
 8615 00b2 002A     		cmp	r2, #0
 8616 00b4 B0DA     		bge	.L220
1876:Core/Src/fsmc.c ****     else
 8617              		.loc 1 1876 13 is_stmt 1 discriminator 1 view .LVU2206
1876:Core/Src/fsmc.c ****     else
 8618              		.loc 1 1876 19 is_stmt 0 discriminator 1 view .LVU2207
 8619 00b6 B300     		lsls	r3, r6, #2
1876:Core/Src/fsmc.c ****     else
 8620              		.loc 1 1876 21 discriminator 1 view .LVU2208
 8621 00b8 0633     		adds	r3, r3, #6
1876:Core/Src/fsmc.c ****     else
 8622              		.loc 1 1876 16 discriminator 1 view .LVU2209
 8623 00ba 1A44     		add	r2, r2, r3
 8624 00bc 0192     		str	r2, [sp, #4]
 8625              	.LVL1528:
1876:Core/Src/fsmc.c ****     else
 8626              		.loc 1 1876 16 discriminator 1 view .LVU2210
 8627 00be B4E7     		b	.L219
 8628              	.LVL1529:
 8629              	.L224:
1883:Core/Src/fsmc.c **** 
 8630              		.loc 1 1883 1 view .LVU2211
 8631 00c0 05B0     		add	sp, sp, #20
 8632              	.LCFI34:
 8633              		.cfi_def_cfa_offset 36
 8634              		@ sp needed
 8635 00c2 BDE8F08F 		pop	{r4, r5, r6, r7, r8, r9, r10, fp, pc}
1883:Core/Src/fsmc.c **** 
 8636              		.loc 1 1883 1 view .LVU2212
 8637              		.cfi_endproc
 8638              	.LFE159:
 8640              		.section	.text.MX_FSMC_Init,"ax",%progbits
 8641              		.align	1
 8642              		.global	MX_FSMC_Init
 8643              		.syntax unified
 8644              		.thumb
 8645              		.thumb_func
 8647              	MX_FSMC_Init:
 8648              	.LFB160:
ARM GAS  /tmp/ccE1vrH2.s 			page 227


1891:Core/Src/fsmc.c ****   /* USER CODE BEGIN FSMC_Init 0 */
 8649              		.loc 1 1891 1 is_stmt 1 view -0
 8650              		.cfi_startproc
 8651              		@ args = 0, pretend = 0, frame = 56
 8652              		@ frame_needed = 0, uses_anonymous_args = 0
 8653 0000 10B5     		push	{r4, lr}
 8654              	.LCFI35:
 8655              		.cfi_def_cfa_offset 8
 8656              		.cfi_offset 4, -8
 8657              		.cfi_offset 14, -4
 8658 0002 8EB0     		sub	sp, sp, #56
 8659              	.LCFI36:
 8660              		.cfi_def_cfa_offset 64
1896:Core/Src/fsmc.c ****   FSMC_NORSRAM_TimingTypeDef ExtTiming = {0};
 8661              		.loc 1 1896 3 view .LVU2214
1896:Core/Src/fsmc.c ****   FSMC_NORSRAM_TimingTypeDef ExtTiming = {0};
 8662              		.loc 1 1896 30 is_stmt 0 view .LVU2215
 8663 0004 0023     		movs	r3, #0
 8664 0006 0793     		str	r3, [sp, #28]
 8665 0008 0893     		str	r3, [sp, #32]
 8666 000a 0993     		str	r3, [sp, #36]
 8667 000c 0A93     		str	r3, [sp, #40]
 8668 000e 0B93     		str	r3, [sp, #44]
 8669 0010 0C93     		str	r3, [sp, #48]
 8670 0012 0D93     		str	r3, [sp, #52]
1897:Core/Src/fsmc.c **** 
 8671              		.loc 1 1897 3 is_stmt 1 view .LVU2216
1897:Core/Src/fsmc.c **** 
 8672              		.loc 1 1897 30 is_stmt 0 view .LVU2217
 8673 0014 0093     		str	r3, [sp]
 8674 0016 0193     		str	r3, [sp, #4]
 8675 0018 0293     		str	r3, [sp, #8]
 8676 001a 0393     		str	r3, [sp, #12]
 8677 001c 0493     		str	r3, [sp, #16]
 8678 001e 0593     		str	r3, [sp, #20]
 8679 0020 0693     		str	r3, [sp, #24]
1905:Core/Src/fsmc.c ****   hsram1.Extended = FSMC_NORSRAM_EXTENDED_DEVICE;
 8680              		.loc 1 1905 3 is_stmt 1 view .LVU2218
1905:Core/Src/fsmc.c ****   hsram1.Extended = FSMC_NORSRAM_EXTENDED_DEVICE;
 8681              		.loc 1 1905 19 is_stmt 0 view .LVU2219
 8682 0022 1B48     		ldr	r0, .L229
 8683 0024 4FF02042 		mov	r2, #-1610612736
 8684 0028 0260     		str	r2, [r0]
1906:Core/Src/fsmc.c ****   /* hsram1.Init */
 8685              		.loc 1 1906 3 is_stmt 1 view .LVU2220
1906:Core/Src/fsmc.c ****   /* hsram1.Init */
 8686              		.loc 1 1906 19 is_stmt 0 view .LVU2221
 8687 002a 02F58272 		add	r2, r2, #260
 8688 002e 4260     		str	r2, [r0, #4]
1908:Core/Src/fsmc.c ****   hsram1.Init.DataAddressMux = FSMC_DATA_ADDRESS_MUX_DISABLE;
 8689              		.loc 1 1908 3 is_stmt 1 view .LVU2222
1908:Core/Src/fsmc.c ****   hsram1.Init.DataAddressMux = FSMC_DATA_ADDRESS_MUX_DISABLE;
 8690              		.loc 1 1908 22 is_stmt 0 view .LVU2223
 8691 0030 0622     		movs	r2, #6
 8692 0032 8260     		str	r2, [r0, #8]
1909:Core/Src/fsmc.c ****   hsram1.Init.MemoryType = FSMC_MEMORY_TYPE_SRAM;
 8693              		.loc 1 1909 3 is_stmt 1 view .LVU2224
ARM GAS  /tmp/ccE1vrH2.s 			page 228


1909:Core/Src/fsmc.c ****   hsram1.Init.MemoryType = FSMC_MEMORY_TYPE_SRAM;
 8694              		.loc 1 1909 30 is_stmt 0 view .LVU2225
 8695 0034 C360     		str	r3, [r0, #12]
1910:Core/Src/fsmc.c ****   hsram1.Init.MemoryDataWidth = FSMC_NORSRAM_MEM_BUS_WIDTH_16;
 8696              		.loc 1 1910 3 is_stmt 1 view .LVU2226
1910:Core/Src/fsmc.c ****   hsram1.Init.MemoryDataWidth = FSMC_NORSRAM_MEM_BUS_WIDTH_16;
 8697              		.loc 1 1910 26 is_stmt 0 view .LVU2227
 8698 0036 0361     		str	r3, [r0, #16]
1911:Core/Src/fsmc.c ****   hsram1.Init.BurstAccessMode = FSMC_BURST_ACCESS_MODE_DISABLE;
 8699              		.loc 1 1911 3 is_stmt 1 view .LVU2228
1911:Core/Src/fsmc.c ****   hsram1.Init.BurstAccessMode = FSMC_BURST_ACCESS_MODE_DISABLE;
 8700              		.loc 1 1911 31 is_stmt 0 view .LVU2229
 8701 0038 1022     		movs	r2, #16
 8702 003a 4261     		str	r2, [r0, #20]
1912:Core/Src/fsmc.c ****   hsram1.Init.WaitSignalPolarity = FSMC_WAIT_SIGNAL_POLARITY_LOW;
 8703              		.loc 1 1912 3 is_stmt 1 view .LVU2230
1912:Core/Src/fsmc.c ****   hsram1.Init.WaitSignalPolarity = FSMC_WAIT_SIGNAL_POLARITY_LOW;
 8704              		.loc 1 1912 31 is_stmt 0 view .LVU2231
 8705 003c 8361     		str	r3, [r0, #24]
1913:Core/Src/fsmc.c ****   hsram1.Init.WrapMode = FSMC_WRAP_MODE_DISABLE;
 8706              		.loc 1 1913 3 is_stmt 1 view .LVU2232
1913:Core/Src/fsmc.c ****   hsram1.Init.WrapMode = FSMC_WRAP_MODE_DISABLE;
 8707              		.loc 1 1913 34 is_stmt 0 view .LVU2233
 8708 003e C361     		str	r3, [r0, #28]
1914:Core/Src/fsmc.c ****   hsram1.Init.WaitSignalActive = FSMC_WAIT_TIMING_BEFORE_WS;
 8709              		.loc 1 1914 3 is_stmt 1 view .LVU2234
1914:Core/Src/fsmc.c ****   hsram1.Init.WaitSignalActive = FSMC_WAIT_TIMING_BEFORE_WS;
 8710              		.loc 1 1914 24 is_stmt 0 view .LVU2235
 8711 0040 0362     		str	r3, [r0, #32]
1915:Core/Src/fsmc.c ****   hsram1.Init.WriteOperation = FSMC_WRITE_OPERATION_ENABLE;
 8712              		.loc 1 1915 3 is_stmt 1 view .LVU2236
1915:Core/Src/fsmc.c ****   hsram1.Init.WriteOperation = FSMC_WRITE_OPERATION_ENABLE;
 8713              		.loc 1 1915 32 is_stmt 0 view .LVU2237
 8714 0042 4362     		str	r3, [r0, #36]
1916:Core/Src/fsmc.c ****   hsram1.Init.WaitSignal = FSMC_WAIT_SIGNAL_DISABLE;
 8715              		.loc 1 1916 3 is_stmt 1 view .LVU2238
1916:Core/Src/fsmc.c ****   hsram1.Init.WaitSignal = FSMC_WAIT_SIGNAL_DISABLE;
 8716              		.loc 1 1916 30 is_stmt 0 view .LVU2239
 8717 0044 4FF48051 		mov	r1, #4096
 8718 0048 8162     		str	r1, [r0, #40]
1917:Core/Src/fsmc.c ****   hsram1.Init.ExtendedMode = FSMC_EXTENDED_MODE_ENABLE;
 8719              		.loc 1 1917 3 is_stmt 1 view .LVU2240
1917:Core/Src/fsmc.c ****   hsram1.Init.ExtendedMode = FSMC_EXTENDED_MODE_ENABLE;
 8720              		.loc 1 1917 26 is_stmt 0 view .LVU2241
 8721 004a C362     		str	r3, [r0, #44]
1918:Core/Src/fsmc.c ****   hsram1.Init.AsynchronousWait = FSMC_ASYNCHRONOUS_WAIT_DISABLE;
 8722              		.loc 1 1918 3 is_stmt 1 view .LVU2242
1918:Core/Src/fsmc.c ****   hsram1.Init.AsynchronousWait = FSMC_ASYNCHRONOUS_WAIT_DISABLE;
 8723              		.loc 1 1918 28 is_stmt 0 view .LVU2243
 8724 004c 4FF48041 		mov	r1, #16384
 8725 0050 0163     		str	r1, [r0, #48]
1919:Core/Src/fsmc.c ****   hsram1.Init.WriteBurst = FSMC_WRITE_BURST_DISABLE;
 8726              		.loc 1 1919 3 is_stmt 1 view .LVU2244
1919:Core/Src/fsmc.c ****   hsram1.Init.WriteBurst = FSMC_WRITE_BURST_DISABLE;
 8727              		.loc 1 1919 32 is_stmt 0 view .LVU2245
 8728 0052 4363     		str	r3, [r0, #52]
1920:Core/Src/fsmc.c ****   hsram1.Init.PageSize = FSMC_PAGE_SIZE_NONE;
ARM GAS  /tmp/ccE1vrH2.s 			page 229


 8729              		.loc 1 1920 3 is_stmt 1 view .LVU2246
1920:Core/Src/fsmc.c ****   hsram1.Init.PageSize = FSMC_PAGE_SIZE_NONE;
 8730              		.loc 1 1920 26 is_stmt 0 view .LVU2247
 8731 0054 8363     		str	r3, [r0, #56]
1921:Core/Src/fsmc.c ****   /* Timing */
 8732              		.loc 1 1921 3 is_stmt 1 view .LVU2248
1921:Core/Src/fsmc.c ****   /* Timing */
 8733              		.loc 1 1921 24 is_stmt 0 view .LVU2249
 8734 0056 4364     		str	r3, [r0, #68]
1923:Core/Src/fsmc.c ****   Timing.AddressHoldTime = 15;
 8735              		.loc 1 1923 3 is_stmt 1 view .LVU2250
1923:Core/Src/fsmc.c ****   Timing.AddressHoldTime = 15;
 8736              		.loc 1 1923 27 is_stmt 0 view .LVU2251
 8737 0058 0F23     		movs	r3, #15
 8738 005a 0793     		str	r3, [sp, #28]
1924:Core/Src/fsmc.c ****   Timing.DataSetupTime = 60;
 8739              		.loc 1 1924 3 is_stmt 1 view .LVU2252
1924:Core/Src/fsmc.c ****   Timing.DataSetupTime = 60;
 8740              		.loc 1 1924 26 is_stmt 0 view .LVU2253
 8741 005c 0893     		str	r3, [sp, #32]
1925:Core/Src/fsmc.c ****   Timing.BusTurnAroundDuration = 10;
 8742              		.loc 1 1925 3 is_stmt 1 view .LVU2254
1925:Core/Src/fsmc.c ****   Timing.BusTurnAroundDuration = 10;
 8743              		.loc 1 1925 24 is_stmt 0 view .LVU2255
 8744 005e 3C21     		movs	r1, #60
 8745 0060 0991     		str	r1, [sp, #36]
1926:Core/Src/fsmc.c ****   Timing.CLKDivision = 16;
 8746              		.loc 1 1926 3 is_stmt 1 view .LVU2256
1926:Core/Src/fsmc.c ****   Timing.CLKDivision = 16;
 8747              		.loc 1 1926 32 is_stmt 0 view .LVU2257
 8748 0062 0A21     		movs	r1, #10
 8749 0064 0A91     		str	r1, [sp, #40]
1927:Core/Src/fsmc.c ****   Timing.DataLatency = 17;
 8750              		.loc 1 1927 3 is_stmt 1 view .LVU2258
1927:Core/Src/fsmc.c ****   Timing.DataLatency = 17;
 8751              		.loc 1 1927 22 is_stmt 0 view .LVU2259
 8752 0066 0B92     		str	r2, [sp, #44]
1928:Core/Src/fsmc.c ****   Timing.AccessMode = FSMC_ACCESS_MODE_A;
 8753              		.loc 1 1928 3 is_stmt 1 view .LVU2260
1928:Core/Src/fsmc.c ****   Timing.AccessMode = FSMC_ACCESS_MODE_A;
 8754              		.loc 1 1928 22 is_stmt 0 view .LVU2261
 8755 0068 1121     		movs	r1, #17
 8756 006a 0C91     		str	r1, [sp, #48]
1929:Core/Src/fsmc.c ****   /* ExtTiming */
 8757              		.loc 1 1929 3 is_stmt 1 view .LVU2262
1931:Core/Src/fsmc.c ****   ExtTiming.AddressHoldTime = 15;
 8758              		.loc 1 1931 3 view .LVU2263
1931:Core/Src/fsmc.c ****   ExtTiming.AddressHoldTime = 15;
 8759              		.loc 1 1931 30 is_stmt 0 view .LVU2264
 8760 006c 0924     		movs	r4, #9
 8761 006e 0094     		str	r4, [sp]
1932:Core/Src/fsmc.c ****   ExtTiming.DataSetupTime = 8;
 8762              		.loc 1 1932 3 is_stmt 1 view .LVU2265
1932:Core/Src/fsmc.c ****   ExtTiming.DataSetupTime = 8;
 8763              		.loc 1 1932 29 is_stmt 0 view .LVU2266
 8764 0070 0193     		str	r3, [sp, #4]
1933:Core/Src/fsmc.c ****   ExtTiming.BusTurnAroundDuration = 0;
ARM GAS  /tmp/ccE1vrH2.s 			page 230


 8765              		.loc 1 1933 3 is_stmt 1 view .LVU2267
1933:Core/Src/fsmc.c ****   ExtTiming.BusTurnAroundDuration = 0;
 8766              		.loc 1 1933 27 is_stmt 0 view .LVU2268
 8767 0072 0823     		movs	r3, #8
 8768 0074 0293     		str	r3, [sp, #8]
1934:Core/Src/fsmc.c ****   ExtTiming.CLKDivision = 16;
 8769              		.loc 1 1934 3 is_stmt 1 view .LVU2269
1935:Core/Src/fsmc.c ****   ExtTiming.DataLatency = 17;
 8770              		.loc 1 1935 3 view .LVU2270
1935:Core/Src/fsmc.c ****   ExtTiming.DataLatency = 17;
 8771              		.loc 1 1935 25 is_stmt 0 view .LVU2271
 8772 0076 0492     		str	r2, [sp, #16]
1936:Core/Src/fsmc.c ****   ExtTiming.AccessMode = FSMC_ACCESS_MODE_A;
 8773              		.loc 1 1936 3 is_stmt 1 view .LVU2272
1936:Core/Src/fsmc.c ****   ExtTiming.AccessMode = FSMC_ACCESS_MODE_A;
 8774              		.loc 1 1936 25 is_stmt 0 view .LVU2273
 8775 0078 0591     		str	r1, [sp, #20]
1937:Core/Src/fsmc.c **** 
 8776              		.loc 1 1937 3 is_stmt 1 view .LVU2274
1939:Core/Src/fsmc.c ****   {
 8777              		.loc 1 1939 3 view .LVU2275
1939:Core/Src/fsmc.c ****   {
 8778              		.loc 1 1939 7 is_stmt 0 view .LVU2276
 8779 007a 6A46     		mov	r2, sp
 8780 007c 07A9     		add	r1, sp, #28
 8781 007e FFF7FEFF 		bl	HAL_SRAM_Init
 8782              	.LVL1530:
1939:Core/Src/fsmc.c ****   {
 8783              		.loc 1 1939 6 view .LVU2277
 8784 0082 08B9     		cbnz	r0, .L228
 8785              	.L225:
1947:Core/Src/fsmc.c **** 
 8786              		.loc 1 1947 1 view .LVU2278
 8787 0084 0EB0     		add	sp, sp, #56
 8788              	.LCFI37:
 8789              		.cfi_remember_state
 8790              		.cfi_def_cfa_offset 8
 8791              		@ sp needed
 8792 0086 10BD     		pop	{r4, pc}
 8793              	.L228:
 8794              	.LCFI38:
 8795              		.cfi_restore_state
1941:Core/Src/fsmc.c ****   }
 8796              		.loc 1 1941 5 is_stmt 1 view .LVU2279
 8797 0088 FFF7FEFF 		bl	Error_Handler
 8798              	.LVL1531:
1947:Core/Src/fsmc.c **** 
 8799              		.loc 1 1947 1 is_stmt 0 view .LVU2280
 8800 008c FAE7     		b	.L225
 8801              	.L230:
 8802 008e 00BF     		.align	2
 8803              	.L229:
 8804 0090 00000000 		.word	.LANCHOR4
 8805              		.cfi_endproc
 8806              	.LFE160:
 8808              		.section	.text.HAL_SRAM_MspInit,"ax",%progbits
 8809              		.align	1
ARM GAS  /tmp/ccE1vrH2.s 			page 231


 8810              		.global	HAL_SRAM_MspInit
 8811              		.syntax unified
 8812              		.thumb
 8813              		.thumb_func
 8815              	HAL_SRAM_MspInit:
 8816              	.LVL1532:
 8817              	.LFB162:
2031:Core/Src/fsmc.c ****   /* USER CODE BEGIN SRAM_MspInit 0 */
 8818              		.loc 1 2031 54 is_stmt 1 view -0
 8819              		.cfi_startproc
 8820              		@ args = 0, pretend = 0, frame = 0
 8821              		@ frame_needed = 0, uses_anonymous_args = 0
2031:Core/Src/fsmc.c ****   /* USER CODE BEGIN SRAM_MspInit 0 */
 8822              		.loc 1 2031 54 is_stmt 0 view .LVU2282
 8823 0000 08B5     		push	{r3, lr}
 8824              	.LCFI39:
 8825              		.cfi_def_cfa_offset 8
 8826              		.cfi_offset 3, -8
 8827              		.cfi_offset 14, -4
2035:Core/Src/fsmc.c ****   /* USER CODE BEGIN SRAM_MspInit 1 */
 8828              		.loc 1 2035 3 is_stmt 1 view .LVU2283
 8829 0002 FFF7FEFF 		bl	HAL_FSMC_MspInit
 8830              	.LVL1533:
2039:Core/Src/fsmc.c **** 
 8831              		.loc 1 2039 1 is_stmt 0 view .LVU2284
 8832 0006 08BD     		pop	{r3, pc}
 8833              		.cfi_endproc
 8834              	.LFE162:
 8836              		.section	.text.HAL_SRAM_MspDeInit,"ax",%progbits
 8837              		.align	1
 8838              		.global	HAL_SRAM_MspDeInit
 8839              		.syntax unified
 8840              		.thumb
 8841              		.thumb_func
 8843              	HAL_SRAM_MspDeInit:
 8844              	.LVL1534:
 8845              	.LFB164:
2093:Core/Src/fsmc.c **** 
2094:Core/Src/fsmc.c **** void HAL_SRAM_MspDeInit(SRAM_HandleTypeDef* sramHandle){
 8846              		.loc 1 2094 56 is_stmt 1 view -0
 8847              		.cfi_startproc
 8848              		@ args = 0, pretend = 0, frame = 0
 8849              		@ frame_needed = 0, uses_anonymous_args = 0
 8850              		.loc 1 2094 56 is_stmt 0 view .LVU2286
 8851 0000 08B5     		push	{r3, lr}
 8852              	.LCFI40:
 8853              		.cfi_def_cfa_offset 8
 8854              		.cfi_offset 3, -8
 8855              		.cfi_offset 14, -4
2095:Core/Src/fsmc.c ****   /* USER CODE BEGIN SRAM_MspDeInit 0 */
2096:Core/Src/fsmc.c **** 
2097:Core/Src/fsmc.c ****   /* USER CODE END SRAM_MspDeInit 0 */
2098:Core/Src/fsmc.c ****   HAL_FSMC_MspDeInit();
 8856              		.loc 1 2098 3 is_stmt 1 view .LVU2287
 8857 0002 FFF7FEFF 		bl	HAL_FSMC_MspDeInit
 8858              	.LVL1535:
2099:Core/Src/fsmc.c ****   /* USER CODE BEGIN SRAM_MspDeInit 1 */
ARM GAS  /tmp/ccE1vrH2.s 			page 232


2100:Core/Src/fsmc.c **** 
2101:Core/Src/fsmc.c ****   /* USER CODE END SRAM_MspDeInit 1 */
2102:Core/Src/fsmc.c **** }
 8859              		.loc 1 2102 1 is_stmt 0 view .LVU2288
 8860 0006 08BD     		pop	{r3, pc}
 8861              		.cfi_endproc
 8862              	.LFE164:
 8864              		.global	hsram1
 8865              		.global	lcddev
 8866              		.global	BACK_COLOR
 8867              		.global	POINT_COLOR
 8868              		.global	TFTSRAM_Handler
 8869              		.section	.bss.FSMC_DeInitialized,"aw",%nobits
 8870              		.align	2
 8871              		.set	.LANCHOR1,. + 0
 8874              	FSMC_DeInitialized:
 8875 0000 00000000 		.space	4
 8876              		.section	.bss.FSMC_Initialized,"aw",%nobits
 8877              		.align	2
 8878              		.set	.LANCHOR0,. + 0
 8881              	FSMC_Initialized:
 8882 0000 00000000 		.space	4
 8883              		.section	.bss.TFTSRAM_Handler,"aw",%nobits
 8884              		.align	2
 8887              	TFTSRAM_Handler:
 8888 0000 00000000 		.space	80
 8888      00000000 
 8888      00000000 
 8888      00000000 
 8888      00000000 
 8889              		.section	.bss.hsram1,"aw",%nobits
 8890              		.align	2
 8891              		.set	.LANCHOR4,. + 0
 8894              	hsram1:
 8895 0000 00000000 		.space	80
 8895      00000000 
 8895      00000000 
 8895      00000000 
 8895      00000000 
 8896              		.section	.bss.lcddev,"aw",%nobits
 8897              		.align	2
 8898              		.set	.LANCHOR2,. + 0
 8901              	lcddev:
 8902 0000 00000000 		.space	14
 8902      00000000 
 8902      00000000 
 8902      0000
 8903              		.section	.data.BACK_COLOR,"aw"
 8904              		.align	2
 8907              	BACK_COLOR:
 8908 0000 FFFFFFFF 		.word	-1
 8909              		.section	.data.POINT_COLOR,"aw"
 8910              		.align	2
 8911              		.set	.LANCHOR3,. + 0
 8914              	POINT_COLOR:
 8915 0000 000000FF 		.word	-16777216
 8916              		.text
ARM GAS  /tmp/ccE1vrH2.s 			page 233


 8917              	.Letext0:
 8918              		.file 2 "/home/akinya/gcc-arm-none-eabi/arm-none-eabi/include/machine/_default_types.h"
 8919              		.file 3 "/home/akinya/gcc-arm-none-eabi/arm-none-eabi/include/sys/_stdint.h"
 8920              		.file 4 "Drivers/CMSIS/Device/ST/STM32F4xx/Include/stm32f407xx.h"
 8921              		.file 5 "Drivers/STM32F4xx_HAL_Driver/Inc/stm32f4xx_hal_def.h"
 8922              		.file 6 "Drivers/STM32F4xx_HAL_Driver/Inc/stm32f4xx_hal_gpio.h"
 8923              		.file 7 "Drivers/STM32F4xx_HAL_Driver/Inc/stm32f4xx_hal_dma.h"
 8924              		.file 8 "Drivers/STM32F4xx_HAL_Driver/Inc/stm32f4xx_ll_fsmc.h"
 8925              		.file 9 "Drivers/STM32F4xx_HAL_Driver/Inc/stm32f4xx_hal_sram.h"
 8926              		.file 10 "Core/Inc/fsmc.h"
 8927              		.file 11 "Core/Inc/main.h"
 8928              		.file 12 "Drivers/STM32F4xx_HAL_Driver/Inc/stm32f4xx_hal.h"
ARM GAS  /tmp/ccE1vrH2.s 			page 234


DEFINED SYMBOLS
                            *ABS*:0000000000000000 fsmc.c
     /tmp/ccE1vrH2.s:20     .text.HAL_FSMC_MspInit:0000000000000000 $t
     /tmp/ccE1vrH2.s:25     .text.HAL_FSMC_MspInit:0000000000000000 HAL_FSMC_MspInit
     /tmp/ccE1vrH2.s:180    .text.HAL_FSMC_MspInit:000000000000009c $d
     /tmp/ccE1vrH2.s:190    .text.HAL_FSMC_MspDeInit:0000000000000000 $t
     /tmp/ccE1vrH2.s:195    .text.HAL_FSMC_MspDeInit:0000000000000000 HAL_FSMC_MspDeInit
     /tmp/ccE1vrH2.s:250    .text.HAL_FSMC_MspDeInit:0000000000000044 $d
     /tmp/ccE1vrH2.s:260    .text.LCD_WR_REG:0000000000000000 $t
     /tmp/ccE1vrH2.s:266    .text.LCD_WR_REG:0000000000000000 LCD_WR_REG
     /tmp/ccE1vrH2.s:300    .text.LCD_WR_DATA:0000000000000000 $t
     /tmp/ccE1vrH2.s:306    .text.LCD_WR_DATA:0000000000000000 LCD_WR_DATA
     /tmp/ccE1vrH2.s:340    .text.LCD_RD_DATA:0000000000000000 $t
     /tmp/ccE1vrH2.s:346    .text.LCD_RD_DATA:0000000000000000 LCD_RD_DATA
     /tmp/ccE1vrH2.s:378    .text.LCD_WriteReg:0000000000000000 $t
     /tmp/ccE1vrH2.s:384    .text.LCD_WriteReg:0000000000000000 LCD_WriteReg
     /tmp/ccE1vrH2.s:405    .text.LCD_ReadReg:0000000000000000 $t
     /tmp/ccE1vrH2.s:411    .text.LCD_ReadReg:0000000000000000 LCD_ReadReg
     /tmp/ccE1vrH2.s:437    .text.LCD_WriteRAM_Prepare:0000000000000000 $t
     /tmp/ccE1vrH2.s:443    .text.LCD_WriteRAM_Prepare:0000000000000000 LCD_WriteRAM_Prepare
     /tmp/ccE1vrH2.s:462    .text.LCD_WriteRAM_Prepare:0000000000000010 $d
     /tmp/ccE1vrH2.s:467    .text.LCD_WriteRAM:0000000000000000 $t
     /tmp/ccE1vrH2.s:473    .text.LCD_WriteRAM:0000000000000000 LCD_WriteRAM
     /tmp/ccE1vrH2.s:491    .text.LCD_BGR2RGB:0000000000000000 $t
     /tmp/ccE1vrH2.s:497    .text.LCD_BGR2RGB:0000000000000000 LCD_BGR2RGB
     /tmp/ccE1vrH2.s:533    .text.opt_delay:0000000000000000 $t
     /tmp/ccE1vrH2.s:539    .text.opt_delay:0000000000000000 opt_delay
     /tmp/ccE1vrH2.s:564    .text.LCD_DisplayOn:0000000000000000 $t
     /tmp/ccE1vrH2.s:570    .text.LCD_DisplayOn:0000000000000000 LCD_DisplayOn
     /tmp/ccE1vrH2.s:619    .text.LCD_DisplayOn:0000000000000038 $d
     /tmp/ccE1vrH2.s:624    .text.LCD_DisplayOff:0000000000000000 $t
     /tmp/ccE1vrH2.s:630    .text.LCD_DisplayOff:0000000000000000 LCD_DisplayOff
     /tmp/ccE1vrH2.s:679    .text.LCD_DisplayOff:0000000000000038 $d
     /tmp/ccE1vrH2.s:684    .text.LCD_SetCursor:0000000000000000 $t
     /tmp/ccE1vrH2.s:690    .text.LCD_SetCursor:0000000000000000 LCD_SetCursor
     /tmp/ccE1vrH2.s:918    .text.LCD_SetCursor:0000000000000118 $d
     /tmp/ccE1vrH2.s:923    .text.LCD_ReadPoint:0000000000000000 $t
     /tmp/ccE1vrH2.s:929    .text.LCD_ReadPoint:0000000000000000 LCD_ReadPoint
     /tmp/ccE1vrH2.s:1057   .text.LCD_ReadPoint:0000000000000084 $d
     /tmp/ccE1vrH2.s:1062   .text.LCD_Scan_Dir:0000000000000000 $t
     /tmp/ccE1vrH2.s:1068   .text.LCD_Scan_Dir:0000000000000000 LCD_Scan_Dir
     /tmp/ccE1vrH2.s:1132   .text.LCD_Scan_Dir:0000000000000050 $d
     /tmp/ccE1vrH2.s:1140   .text.LCD_Scan_Dir:0000000000000058 $t
     /tmp/ccE1vrH2.s:1220   .text.LCD_Scan_Dir:0000000000000084 $d
     /tmp/ccE1vrH2.s:1562   .text.LCD_Scan_Dir:00000000000001fc $d
     /tmp/ccE1vrH2.s:1567   .text.LCD_DrawPoint:0000000000000000 $t
     /tmp/ccE1vrH2.s:1573   .text.LCD_DrawPoint:0000000000000000 LCD_DrawPoint
     /tmp/ccE1vrH2.s:1603   .text.LCD_DrawPoint:0000000000000018 $d
     /tmp/ccE1vrH2.s:1608   .text.LCD_Fast_DrawPoint:0000000000000000 $t
     /tmp/ccE1vrH2.s:1614   .text.LCD_Fast_DrawPoint:0000000000000000 LCD_Fast_DrawPoint
     /tmp/ccE1vrH2.s:1819   .text.LCD_Fast_DrawPoint:0000000000000104 $d
     /tmp/ccE1vrH2.s:1827   .text.LCD_SSD_BackLightSet:0000000000000000 $t
     /tmp/ccE1vrH2.s:1833   .text.LCD_SSD_BackLightSet:0000000000000000 LCD_SSD_BackLightSet
     /tmp/ccE1vrH2.s:1893   .text.LCD_SSD_BackLightSet:0000000000000048 $d
     /tmp/ccE1vrH2.s:1899   .text.LCD_Display_Dir:0000000000000000 $t
     /tmp/ccE1vrH2.s:1905   .text.LCD_Display_Dir:0000000000000000 LCD_Display_Dir
     /tmp/ccE1vrH2.s:2149   .text.LCD_Display_Dir:0000000000000134 $d
ARM GAS  /tmp/ccE1vrH2.s 			page 235


     /tmp/ccE1vrH2.s:2154   .text.LCD_Set_Window:0000000000000000 $t
     /tmp/ccE1vrH2.s:2160   .text.LCD_Set_Window:0000000000000000 LCD_Set_Window
     /tmp/ccE1vrH2.s:2450   .text.LCD_Set_Window:000000000000017c $d
     /tmp/ccE1vrH2.s:2455   .text.LCD_Clear:0000000000000000 $t
     /tmp/ccE1vrH2.s:2461   .text.LCD_Clear:0000000000000000 LCD_Clear
     /tmp/ccE1vrH2.s:2528   .text.LCD_Clear:0000000000000030 $d
     /tmp/ccE1vrH2.s:2533   .text.LCD_Init:0000000000000000 $t
     /tmp/ccE1vrH2.s:2539   .text.LCD_Init:0000000000000000 LCD_Init
     /tmp/ccE1vrH2.s:2819   .text.LCD_Init:0000000000000180 $d
     /tmp/ccE1vrH2.s:2824   .text.LCD_Init:000000000000018c $t
     /tmp/ccE1vrH2.s:7899   .text.LCD_Fill:0000000000000000 $t
     /tmp/ccE1vrH2.s:7905   .text.LCD_Fill:0000000000000000 LCD_Fill
     /tmp/ccE1vrH2.s:7993   .text.LCD_Color_Fill1:0000000000000000 $t
     /tmp/ccE1vrH2.s:7999   .text.LCD_Color_Fill1:0000000000000000 LCD_Color_Fill1
     /tmp/ccE1vrH2.s:8097   .text.LCD_Color_Fill:0000000000000000 $t
     /tmp/ccE1vrH2.s:8103   .text.LCD_Color_Fill:0000000000000000 LCD_Color_Fill
     /tmp/ccE1vrH2.s:8205   .text.LCD_DrawLine:0000000000000000 $t
     /tmp/ccE1vrH2.s:8211   .text.LCD_DrawLine:0000000000000000 LCD_DrawLine
     /tmp/ccE1vrH2.s:8414   .text.LCD_DrawRectangle:0000000000000000 $t
     /tmp/ccE1vrH2.s:8420   .text.LCD_DrawRectangle:0000000000000000 LCD_DrawRectangle
     /tmp/ccE1vrH2.s:8474   .text.LCD_Draw_Circle:0000000000000000 $t
     /tmp/ccE1vrH2.s:8480   .text.LCD_Draw_Circle:0000000000000000 LCD_Draw_Circle
     /tmp/ccE1vrH2.s:8641   .text.MX_FSMC_Init:0000000000000000 $t
     /tmp/ccE1vrH2.s:8647   .text.MX_FSMC_Init:0000000000000000 MX_FSMC_Init
     /tmp/ccE1vrH2.s:8804   .text.MX_FSMC_Init:0000000000000090 $d
     /tmp/ccE1vrH2.s:8809   .text.HAL_SRAM_MspInit:0000000000000000 $t
     /tmp/ccE1vrH2.s:8815   .text.HAL_SRAM_MspInit:0000000000000000 HAL_SRAM_MspInit
     /tmp/ccE1vrH2.s:8837   .text.HAL_SRAM_MspDeInit:0000000000000000 $t
     /tmp/ccE1vrH2.s:8843   .text.HAL_SRAM_MspDeInit:0000000000000000 HAL_SRAM_MspDeInit
     /tmp/ccE1vrH2.s:8894   .bss.hsram1:0000000000000000 hsram1
     /tmp/ccE1vrH2.s:8901   .bss.lcddev:0000000000000000 lcddev
     /tmp/ccE1vrH2.s:8907   .data.BACK_COLOR:0000000000000000 BACK_COLOR
     /tmp/ccE1vrH2.s:8914   .data.POINT_COLOR:0000000000000000 POINT_COLOR
     /tmp/ccE1vrH2.s:8887   .bss.TFTSRAM_Handler:0000000000000000 TFTSRAM_Handler
     /tmp/ccE1vrH2.s:8870   .bss.FSMC_DeInitialized:0000000000000000 $d
     /tmp/ccE1vrH2.s:8874   .bss.FSMC_DeInitialized:0000000000000000 FSMC_DeInitialized
     /tmp/ccE1vrH2.s:8877   .bss.FSMC_Initialized:0000000000000000 $d
     /tmp/ccE1vrH2.s:8881   .bss.FSMC_Initialized:0000000000000000 FSMC_Initialized
     /tmp/ccE1vrH2.s:8884   .bss.TFTSRAM_Handler:0000000000000000 $d
     /tmp/ccE1vrH2.s:8890   .bss.hsram1:0000000000000000 $d
     /tmp/ccE1vrH2.s:8897   .bss.lcddev:0000000000000000 $d
     /tmp/ccE1vrH2.s:8904   .data.BACK_COLOR:0000000000000000 $d
     /tmp/ccE1vrH2.s:8910   .data.POINT_COLOR:0000000000000000 $d
     /tmp/ccE1vrH2.s:1227   .text.LCD_Scan_Dir:000000000000008b $d
     /tmp/ccE1vrH2.s:1227   .text.LCD_Scan_Dir:000000000000008c $t

UNDEFINED SYMBOLS
HAL_GPIO_Init
HAL_GPIO_DeInit
__aeabi_i2d
__aeabi_dmul
__aeabi_d2uiz
HAL_Delay
HAL_GPIO_WritePin
HAL_SRAM_Init
Error_Handler
