ARM GAS  /tmp/ccDEi7PT.s 			page 1


   1              		.cpu cortex-m4
   2              		.arch armv7e-m
   3              		.fpu fpv4-sp-d16
   4              		.eabi_attribute 27, 1
   5              		.eabi_attribute 28, 1
   6              		.eabi_attribute 20, 1
   7              		.eabi_attribute 21, 1
   8              		.eabi_attribute 23, 3
   9              		.eabi_attribute 24, 1
  10              		.eabi_attribute 25, 1
  11              		.eabi_attribute 26, 1
  12              		.eabi_attribute 30, 1
  13              		.eabi_attribute 34, 1
  14              		.eabi_attribute 18, 4
  15              		.file	"lv_calendar_header_arrow.c"
  16              		.text
  17              	.Ltext0:
  18              		.cfi_sections	.debug_frame
  19              		.section	.rodata.month_event_cb.str1.4,"aMS",%progbits,1
  20              		.align	2
  21              	.LC0:
  22 0000 25642025 		.ascii	"%d %s\000"
  22      7300
  23              		.section	.text.month_event_cb,"ax",%progbits
  24              		.align	1
  25              		.syntax unified
  26              		.thumb
  27              		.thumb_func
  29              	month_event_cb:
  30              	.LVL0:
  31              	.LFB153:
  32              		.file 1 "Middlewares/lvgl/src/extra/widgets/calendar/lv_calendar_header_arrow.c"
   1:Middlewares/lvgl/src/extra/widgets/calendar/lv_calendar_header_arrow.c **** /**
   2:Middlewares/lvgl/src/extra/widgets/calendar/lv_calendar_header_arrow.c ****  * @file lv_calendar_header_arrow.c
   3:Middlewares/lvgl/src/extra/widgets/calendar/lv_calendar_header_arrow.c ****  *
   4:Middlewares/lvgl/src/extra/widgets/calendar/lv_calendar_header_arrow.c ****  */
   5:Middlewares/lvgl/src/extra/widgets/calendar/lv_calendar_header_arrow.c **** 
   6:Middlewares/lvgl/src/extra/widgets/calendar/lv_calendar_header_arrow.c **** /*********************
   7:Middlewares/lvgl/src/extra/widgets/calendar/lv_calendar_header_arrow.c ****  *      INCLUDES
   8:Middlewares/lvgl/src/extra/widgets/calendar/lv_calendar_header_arrow.c ****  *********************/
   9:Middlewares/lvgl/src/extra/widgets/calendar/lv_calendar_header_arrow.c **** #include "lv_calendar_header_arrow.h"
  10:Middlewares/lvgl/src/extra/widgets/calendar/lv_calendar_header_arrow.c **** #if LV_USE_CALENDAR_HEADER_ARROW
  11:Middlewares/lvgl/src/extra/widgets/calendar/lv_calendar_header_arrow.c **** 
  12:Middlewares/lvgl/src/extra/widgets/calendar/lv_calendar_header_arrow.c **** #include "lv_calendar.h"
  13:Middlewares/lvgl/src/extra/widgets/calendar/lv_calendar_header_arrow.c **** #include "../../../widgets/lv_btn.h"
  14:Middlewares/lvgl/src/extra/widgets/calendar/lv_calendar_header_arrow.c **** #include "../../../widgets/lv_label.h"
  15:Middlewares/lvgl/src/extra/widgets/calendar/lv_calendar_header_arrow.c **** #include "../../layouts/flex/lv_flex.h"
  16:Middlewares/lvgl/src/extra/widgets/calendar/lv_calendar_header_arrow.c **** 
  17:Middlewares/lvgl/src/extra/widgets/calendar/lv_calendar_header_arrow.c **** /*********************
  18:Middlewares/lvgl/src/extra/widgets/calendar/lv_calendar_header_arrow.c ****  *      DEFINES
  19:Middlewares/lvgl/src/extra/widgets/calendar/lv_calendar_header_arrow.c ****  *********************/
  20:Middlewares/lvgl/src/extra/widgets/calendar/lv_calendar_header_arrow.c **** 
  21:Middlewares/lvgl/src/extra/widgets/calendar/lv_calendar_header_arrow.c **** /**********************
  22:Middlewares/lvgl/src/extra/widgets/calendar/lv_calendar_header_arrow.c ****  *      TYPEDEFS
  23:Middlewares/lvgl/src/extra/widgets/calendar/lv_calendar_header_arrow.c ****  **********************/
  24:Middlewares/lvgl/src/extra/widgets/calendar/lv_calendar_header_arrow.c **** 
  25:Middlewares/lvgl/src/extra/widgets/calendar/lv_calendar_header_arrow.c **** /**********************
ARM GAS  /tmp/ccDEi7PT.s 			page 2


  26:Middlewares/lvgl/src/extra/widgets/calendar/lv_calendar_header_arrow.c ****  *  STATIC PROTOTYPES
  27:Middlewares/lvgl/src/extra/widgets/calendar/lv_calendar_header_arrow.c ****  **********************/
  28:Middlewares/lvgl/src/extra/widgets/calendar/lv_calendar_header_arrow.c **** static void month_event_cb(lv_event_t * e);
  29:Middlewares/lvgl/src/extra/widgets/calendar/lv_calendar_header_arrow.c **** 
  30:Middlewares/lvgl/src/extra/widgets/calendar/lv_calendar_header_arrow.c **** /**********************
  31:Middlewares/lvgl/src/extra/widgets/calendar/lv_calendar_header_arrow.c ****  *  STATIC VARIABLES
  32:Middlewares/lvgl/src/extra/widgets/calendar/lv_calendar_header_arrow.c ****  **********************/
  33:Middlewares/lvgl/src/extra/widgets/calendar/lv_calendar_header_arrow.c **** static const char * month_names_def[12] = LV_CALENDAR_DEFAULT_MONTH_NAMES;
  34:Middlewares/lvgl/src/extra/widgets/calendar/lv_calendar_header_arrow.c **** 
  35:Middlewares/lvgl/src/extra/widgets/calendar/lv_calendar_header_arrow.c **** /**********************
  36:Middlewares/lvgl/src/extra/widgets/calendar/lv_calendar_header_arrow.c ****  *      MACROS
  37:Middlewares/lvgl/src/extra/widgets/calendar/lv_calendar_header_arrow.c ****  **********************/
  38:Middlewares/lvgl/src/extra/widgets/calendar/lv_calendar_header_arrow.c **** 
  39:Middlewares/lvgl/src/extra/widgets/calendar/lv_calendar_header_arrow.c **** /**********************
  40:Middlewares/lvgl/src/extra/widgets/calendar/lv_calendar_header_arrow.c ****  *   GLOBAL FUNCTIONS
  41:Middlewares/lvgl/src/extra/widgets/calendar/lv_calendar_header_arrow.c ****  **********************/
  42:Middlewares/lvgl/src/extra/widgets/calendar/lv_calendar_header_arrow.c **** 
  43:Middlewares/lvgl/src/extra/widgets/calendar/lv_calendar_header_arrow.c **** lv_obj_t * lv_calendar_header_arrow_create(lv_obj_t * parent, lv_obj_t * calendar, lv_coord_t btn_s
  44:Middlewares/lvgl/src/extra/widgets/calendar/lv_calendar_header_arrow.c **** {
  45:Middlewares/lvgl/src/extra/widgets/calendar/lv_calendar_header_arrow.c ****     lv_obj_t * header = lv_obj_create(parent);
  46:Middlewares/lvgl/src/extra/widgets/calendar/lv_calendar_header_arrow.c **** 
  47:Middlewares/lvgl/src/extra/widgets/calendar/lv_calendar_header_arrow.c ****     /*Use the same paddings as the calendar*/
  48:Middlewares/lvgl/src/extra/widgets/calendar/lv_calendar_header_arrow.c ****     lv_obj_set_style_pad_left(header, lv_obj_get_style_pad_left(calendar, LV_PART_MAIN), 0);
  49:Middlewares/lvgl/src/extra/widgets/calendar/lv_calendar_header_arrow.c ****     lv_obj_set_style_pad_right(header, lv_obj_get_style_pad_right(calendar, LV_PART_MAIN), 0);
  50:Middlewares/lvgl/src/extra/widgets/calendar/lv_calendar_header_arrow.c ****     lv_obj_set_style_pad_top(header, lv_obj_get_style_pad_top(calendar, LV_PART_MAIN), 0);
  51:Middlewares/lvgl/src/extra/widgets/calendar/lv_calendar_header_arrow.c ****     lv_obj_set_style_pad_bottom(header, lv_obj_get_style_pad_bottom(calendar, LV_PART_MAIN), 0);
  52:Middlewares/lvgl/src/extra/widgets/calendar/lv_calendar_header_arrow.c ****     lv_obj_set_style_pad_column(header, lv_obj_get_style_pad_column(calendar, LV_PART_MAIN), 0);
  53:Middlewares/lvgl/src/extra/widgets/calendar/lv_calendar_header_arrow.c ****     lv_obj_set_style_radius(header, lv_obj_get_style_radius(calendar, LV_PART_MAIN), 0);
  54:Middlewares/lvgl/src/extra/widgets/calendar/lv_calendar_header_arrow.c **** 
  55:Middlewares/lvgl/src/extra/widgets/calendar/lv_calendar_header_arrow.c ****     const lv_calendar_date_t * cur_date = lv_calendar_get_showed_date(calendar);
  56:Middlewares/lvgl/src/extra/widgets/calendar/lv_calendar_header_arrow.c **** 
  57:Middlewares/lvgl/src/extra/widgets/calendar/lv_calendar_header_arrow.c ****     lv_obj_update_layout(calendar);
  58:Middlewares/lvgl/src/extra/widgets/calendar/lv_calendar_header_arrow.c ****     lv_coord_t w = lv_obj_get_width(calendar);
  59:Middlewares/lvgl/src/extra/widgets/calendar/lv_calendar_header_arrow.c ****     lv_obj_set_size(header,  w, LV_SIZE_CONTENT);
  60:Middlewares/lvgl/src/extra/widgets/calendar/lv_calendar_header_arrow.c ****     lv_obj_set_flex_flow(header, LV_FLEX_FLOW_ROW);
  61:Middlewares/lvgl/src/extra/widgets/calendar/lv_calendar_header_arrow.c ****     lv_obj_set_flex_align(header, LV_FLEX_ALIGN_START, LV_FLEX_ALIGN_CENTER, LV_FLEX_ALIGN_START);
  62:Middlewares/lvgl/src/extra/widgets/calendar/lv_calendar_header_arrow.c **** 
  63:Middlewares/lvgl/src/extra/widgets/calendar/lv_calendar_header_arrow.c ****     lv_obj_t * mo_prev = lv_btn_create(header);
  64:Middlewares/lvgl/src/extra/widgets/calendar/lv_calendar_header_arrow.c ****     lv_obj_set_style_bg_img_src(mo_prev, LV_SYMBOL_LEFT, 0);
  65:Middlewares/lvgl/src/extra/widgets/calendar/lv_calendar_header_arrow.c ****     lv_obj_set_size(mo_prev, btn_size, btn_size);
  66:Middlewares/lvgl/src/extra/widgets/calendar/lv_calendar_header_arrow.c ****     lv_obj_add_event_cb(mo_prev, month_event_cb, LV_EVENT_CLICKED, calendar);
  67:Middlewares/lvgl/src/extra/widgets/calendar/lv_calendar_header_arrow.c ****     lv_obj_clear_flag(mo_prev, LV_OBJ_FLAG_CLICK_FOCUSABLE);
  68:Middlewares/lvgl/src/extra/widgets/calendar/lv_calendar_header_arrow.c **** 
  69:Middlewares/lvgl/src/extra/widgets/calendar/lv_calendar_header_arrow.c ****     lv_obj_t * label = lv_label_create(header);
  70:Middlewares/lvgl/src/extra/widgets/calendar/lv_calendar_header_arrow.c ****     lv_label_set_long_mode(label, LV_LABEL_LONG_SCROLL_CIRCULAR);
  71:Middlewares/lvgl/src/extra/widgets/calendar/lv_calendar_header_arrow.c ****     lv_obj_set_style_text_align(label, LV_TEXT_ALIGN_CENTER, 0);
  72:Middlewares/lvgl/src/extra/widgets/calendar/lv_calendar_header_arrow.c ****     lv_obj_set_flex_grow(label, 1);
  73:Middlewares/lvgl/src/extra/widgets/calendar/lv_calendar_header_arrow.c ****     lv_label_set_text_fmt(label, "%d %s", cur_date->year, month_names_def[cur_date->month - 1]);
  74:Middlewares/lvgl/src/extra/widgets/calendar/lv_calendar_header_arrow.c **** 
  75:Middlewares/lvgl/src/extra/widgets/calendar/lv_calendar_header_arrow.c ****     lv_obj_t * mo_next = lv_btn_create(header);
  76:Middlewares/lvgl/src/extra/widgets/calendar/lv_calendar_header_arrow.c ****     lv_obj_set_style_bg_img_src(mo_next, LV_SYMBOL_RIGHT, 0);
  77:Middlewares/lvgl/src/extra/widgets/calendar/lv_calendar_header_arrow.c ****     lv_obj_set_size(mo_next, btn_size, btn_size);
  78:Middlewares/lvgl/src/extra/widgets/calendar/lv_calendar_header_arrow.c ****     lv_obj_add_event_cb(mo_next, month_event_cb, LV_EVENT_CLICKED, calendar);
  79:Middlewares/lvgl/src/extra/widgets/calendar/lv_calendar_header_arrow.c ****     lv_obj_clear_flag(mo_next, LV_OBJ_FLAG_CLICK_FOCUSABLE);
  80:Middlewares/lvgl/src/extra/widgets/calendar/lv_calendar_header_arrow.c **** 
  81:Middlewares/lvgl/src/extra/widgets/calendar/lv_calendar_header_arrow.c ****     lv_obj_align_to(header, calendar, LV_ALIGN_OUT_TOP_MID, 0, 0);
  82:Middlewares/lvgl/src/extra/widgets/calendar/lv_calendar_header_arrow.c **** 
ARM GAS  /tmp/ccDEi7PT.s 			page 3


  83:Middlewares/lvgl/src/extra/widgets/calendar/lv_calendar_header_arrow.c ****     return header;
  84:Middlewares/lvgl/src/extra/widgets/calendar/lv_calendar_header_arrow.c **** }
  85:Middlewares/lvgl/src/extra/widgets/calendar/lv_calendar_header_arrow.c **** 
  86:Middlewares/lvgl/src/extra/widgets/calendar/lv_calendar_header_arrow.c **** /**********************
  87:Middlewares/lvgl/src/extra/widgets/calendar/lv_calendar_header_arrow.c ****  *  STATIC FUNCTIONS
  88:Middlewares/lvgl/src/extra/widgets/calendar/lv_calendar_header_arrow.c ****  **********************/
  89:Middlewares/lvgl/src/extra/widgets/calendar/lv_calendar_header_arrow.c **** 
  90:Middlewares/lvgl/src/extra/widgets/calendar/lv_calendar_header_arrow.c **** static void month_event_cb(lv_event_t * e)
  91:Middlewares/lvgl/src/extra/widgets/calendar/lv_calendar_header_arrow.c **** {
  33              		.loc 1 91 1 view -0
  34              		.cfi_startproc
  35              		@ args = 0, pretend = 0, frame = 8
  36              		@ frame_needed = 0, uses_anonymous_args = 0
  37              		.loc 1 91 1 is_stmt 0 view .LVU1
  38 0000 F0B5     		push	{r4, r5, r6, r7, lr}
  39              	.LCFI0:
  40              		.cfi_def_cfa_offset 20
  41              		.cfi_offset 4, -20
  42              		.cfi_offset 5, -16
  43              		.cfi_offset 6, -12
  44              		.cfi_offset 7, -8
  45              		.cfi_offset 14, -4
  46 0002 83B0     		sub	sp, sp, #12
  47              	.LCFI1:
  48              		.cfi_def_cfa_offset 32
  49 0004 0646     		mov	r6, r0
  92:Middlewares/lvgl/src/extra/widgets/calendar/lv_calendar_header_arrow.c ****     lv_obj_t * btn = lv_event_get_target(e);
  50              		.loc 1 92 5 is_stmt 1 view .LVU2
  51              		.loc 1 92 22 is_stmt 0 view .LVU3
  52 0006 FFF7FEFF 		bl	lv_event_get_target
  53              	.LVL1:
  54              		.loc 1 92 22 view .LVU4
  55 000a 0446     		mov	r4, r0
  56              	.LVL2:
  93:Middlewares/lvgl/src/extra/widgets/calendar/lv_calendar_header_arrow.c **** 
  94:Middlewares/lvgl/src/extra/widgets/calendar/lv_calendar_header_arrow.c ****     lv_obj_t * header = lv_obj_get_parent(btn);
  57              		.loc 1 94 5 is_stmt 1 view .LVU5
  58              		.loc 1 94 25 is_stmt 0 view .LVU6
  59 000c FFF7FEFF 		bl	lv_obj_get_parent
  60              	.LVL3:
  61              		.loc 1 94 25 view .LVU7
  62 0010 0546     		mov	r5, r0
  63              	.LVL4:
  95:Middlewares/lvgl/src/extra/widgets/calendar/lv_calendar_header_arrow.c ****     lv_obj_t * calendar = lv_event_get_user_data(e);
  64              		.loc 1 95 5 is_stmt 1 view .LVU8
  65              		.loc 1 95 27 is_stmt 0 view .LVU9
  66 0012 3046     		mov	r0, r6
  67              	.LVL5:
  68              		.loc 1 95 27 view .LVU10
  69 0014 FFF7FEFF 		bl	lv_event_get_user_data
  70              	.LVL6:
  71 0018 0646     		mov	r6, r0
  72              	.LVL7:
  96:Middlewares/lvgl/src/extra/widgets/calendar/lv_calendar_header_arrow.c **** 
  97:Middlewares/lvgl/src/extra/widgets/calendar/lv_calendar_header_arrow.c ****     const lv_calendar_date_t * d;
  73              		.loc 1 97 5 is_stmt 1 view .LVU11
  98:Middlewares/lvgl/src/extra/widgets/calendar/lv_calendar_header_arrow.c ****     d = lv_calendar_get_showed_date(calendar);
ARM GAS  /tmp/ccDEi7PT.s 			page 4


  74              		.loc 1 98 5 view .LVU12
  75              		.loc 1 98 9 is_stmt 0 view .LVU13
  76 001a FFF7FEFF 		bl	lv_calendar_get_showed_date
  77              	.LVL8:
  99:Middlewares/lvgl/src/extra/widgets/calendar/lv_calendar_header_arrow.c ****     lv_calendar_date_t newd = *d;
  78              		.loc 1 99 5 is_stmt 1 view .LVU14
  79              		.loc 1 99 24 is_stmt 0 view .LVU15
  80 001e 0068     		ldr	r0, [r0]	@ unaligned
  81              	.LVL9:
  82              		.loc 1 99 24 view .LVU16
  83 0020 0190     		str	r0, [sp, #4]
 100:Middlewares/lvgl/src/extra/widgets/calendar/lv_calendar_header_arrow.c **** 
 101:Middlewares/lvgl/src/extra/widgets/calendar/lv_calendar_header_arrow.c ****     /*The last child is the right button*/
 102:Middlewares/lvgl/src/extra/widgets/calendar/lv_calendar_header_arrow.c ****     if(lv_obj_get_child(header, 0) == btn) {
  84              		.loc 1 102 5 is_stmt 1 view .LVU17
  85              		.loc 1 102 8 is_stmt 0 view .LVU18
  86 0022 0021     		movs	r1, #0
  87 0024 2846     		mov	r0, r5
  88 0026 FFF7FEFF 		bl	lv_obj_get_child
  89              	.LVL10:
  90              		.loc 1 102 7 view .LVU19
  91 002a 8442     		cmp	r4, r0
  92 002c 1DD0     		beq	.L7
 103:Middlewares/lvgl/src/extra/widgets/calendar/lv_calendar_header_arrow.c ****         if(newd.month == 1) {
 104:Middlewares/lvgl/src/extra/widgets/calendar/lv_calendar_header_arrow.c ****             newd.month = 12;
 105:Middlewares/lvgl/src/extra/widgets/calendar/lv_calendar_header_arrow.c ****             newd.year --;
 106:Middlewares/lvgl/src/extra/widgets/calendar/lv_calendar_header_arrow.c ****         } else {
 107:Middlewares/lvgl/src/extra/widgets/calendar/lv_calendar_header_arrow.c ****             newd.month --;
 108:Middlewares/lvgl/src/extra/widgets/calendar/lv_calendar_header_arrow.c ****         }
 109:Middlewares/lvgl/src/extra/widgets/calendar/lv_calendar_header_arrow.c ****     } else {
 110:Middlewares/lvgl/src/extra/widgets/calendar/lv_calendar_header_arrow.c ****         if(newd.month == 12) {
  93              		.loc 1 110 9 is_stmt 1 view .LVU20
  94              		.loc 1 110 16 is_stmt 0 view .LVU21
  95 002e 9DF90630 		ldrsb	r3, [sp, #6]
  96              		.loc 1 110 11 view .LVU22
  97 0032 0C2B     		cmp	r3, #12
  98 0034 2AD0     		beq	.L8
 111:Middlewares/lvgl/src/extra/widgets/calendar/lv_calendar_header_arrow.c ****             newd.month = 1;
 112:Middlewares/lvgl/src/extra/widgets/calendar/lv_calendar_header_arrow.c ****             newd.year ++;
 113:Middlewares/lvgl/src/extra/widgets/calendar/lv_calendar_header_arrow.c ****         } else {
 114:Middlewares/lvgl/src/extra/widgets/calendar/lv_calendar_header_arrow.c ****             newd.month ++;
  99              		.loc 1 114 13 is_stmt 1 view .LVU23
 100              		.loc 1 114 24 is_stmt 0 view .LVU24
 101 0036 0133     		adds	r3, r3, #1
 102 0038 8DF80630 		strb	r3, [sp, #6]
 103              	.L4:
 115:Middlewares/lvgl/src/extra/widgets/calendar/lv_calendar_header_arrow.c ****         }
 116:Middlewares/lvgl/src/extra/widgets/calendar/lv_calendar_header_arrow.c ****     }
 117:Middlewares/lvgl/src/extra/widgets/calendar/lv_calendar_header_arrow.c **** 
 118:Middlewares/lvgl/src/extra/widgets/calendar/lv_calendar_header_arrow.c ****     lv_calendar_set_showed_date(calendar, newd.year, newd.month);
 104              		.loc 1 118 5 is_stmt 1 view .LVU25
 105              		.loc 1 118 47 is_stmt 0 view .LVU26
 106 003c BDF80470 		ldrh	r7, [sp, #4]
 107              		.loc 1 118 58 view .LVU27
 108 0040 9DF90640 		ldrsb	r4, [sp, #6]
 109              	.LVL11:
 110              		.loc 1 118 5 view .LVU28
ARM GAS  /tmp/ccDEi7PT.s 			page 5


 111 0044 2246     		mov	r2, r4
 112 0046 3946     		mov	r1, r7
 113 0048 3046     		mov	r0, r6
 114 004a FFF7FEFF 		bl	lv_calendar_set_showed_date
 115              	.LVL12:
 119:Middlewares/lvgl/src/extra/widgets/calendar/lv_calendar_header_arrow.c **** 
 120:Middlewares/lvgl/src/extra/widgets/calendar/lv_calendar_header_arrow.c ****     lv_obj_t * label = lv_obj_get_child(header, 1);
 116              		.loc 1 120 5 is_stmt 1 view .LVU29
 117              		.loc 1 120 24 is_stmt 0 view .LVU30
 118 004e 0121     		movs	r1, #1
 119 0050 2846     		mov	r0, r5
 120 0052 FFF7FEFF 		bl	lv_obj_get_child
 121              	.LVL13:
 121:Middlewares/lvgl/src/extra/widgets/calendar/lv_calendar_header_arrow.c ****     lv_label_set_text_fmt(label, "%d %s", newd.year, month_names_def[newd.month - 1]);
 122              		.loc 1 121 5 is_stmt 1 view .LVU31
 123              		.loc 1 121 81 is_stmt 0 view .LVU32
 124 0056 013C     		subs	r4, r4, #1
 125              		.loc 1 121 5 view .LVU33
 126 0058 114B     		ldr	r3, .L10
 127 005a 53F82430 		ldr	r3, [r3, r4, lsl #2]
 128 005e 3A46     		mov	r2, r7
 129 0060 1049     		ldr	r1, .L10+4
 130 0062 FFF7FEFF 		bl	lv_label_set_text_fmt
 131              	.LVL14:
 122:Middlewares/lvgl/src/extra/widgets/calendar/lv_calendar_header_arrow.c **** }
 132              		.loc 1 122 1 view .LVU34
 133 0066 03B0     		add	sp, sp, #12
 134              	.LCFI2:
 135              		.cfi_remember_state
 136              		.cfi_def_cfa_offset 20
 137              		@ sp needed
 138 0068 F0BD     		pop	{r4, r5, r6, r7, pc}
 139              	.LVL15:
 140              	.L7:
 141              	.LCFI3:
 142              		.cfi_restore_state
 103:Middlewares/lvgl/src/extra/widgets/calendar/lv_calendar_header_arrow.c ****             newd.month = 12;
 143              		.loc 1 103 9 is_stmt 1 view .LVU35
 103:Middlewares/lvgl/src/extra/widgets/calendar/lv_calendar_header_arrow.c ****             newd.month = 12;
 144              		.loc 1 103 16 is_stmt 0 view .LVU36
 145 006a 9DF90630 		ldrsb	r3, [sp, #6]
 103:Middlewares/lvgl/src/extra/widgets/calendar/lv_calendar_header_arrow.c ****             newd.month = 12;
 146              		.loc 1 103 11 view .LVU37
 147 006e 012B     		cmp	r3, #1
 148 0070 03D0     		beq	.L9
 107:Middlewares/lvgl/src/extra/widgets/calendar/lv_calendar_header_arrow.c ****         }
 149              		.loc 1 107 13 is_stmt 1 view .LVU38
 107:Middlewares/lvgl/src/extra/widgets/calendar/lv_calendar_header_arrow.c ****         }
 150              		.loc 1 107 24 is_stmt 0 view .LVU39
 151 0072 013B     		subs	r3, r3, #1
 152 0074 8DF80630 		strb	r3, [sp, #6]
 153 0078 E0E7     		b	.L4
 154              	.L9:
 104:Middlewares/lvgl/src/extra/widgets/calendar/lv_calendar_header_arrow.c ****             newd.year --;
 155              		.loc 1 104 13 is_stmt 1 view .LVU40
 104:Middlewares/lvgl/src/extra/widgets/calendar/lv_calendar_header_arrow.c ****             newd.year --;
 156              		.loc 1 104 24 is_stmt 0 view .LVU41
ARM GAS  /tmp/ccDEi7PT.s 			page 6


 157 007a 0C23     		movs	r3, #12
 158 007c 8DF80630 		strb	r3, [sp, #6]
 105:Middlewares/lvgl/src/extra/widgets/calendar/lv_calendar_header_arrow.c ****         } else {
 159              		.loc 1 105 13 is_stmt 1 view .LVU42
 105:Middlewares/lvgl/src/extra/widgets/calendar/lv_calendar_header_arrow.c ****         } else {
 160              		.loc 1 105 17 is_stmt 0 view .LVU43
 161 0080 BDF80430 		ldrh	r3, [sp, #4]
 105:Middlewares/lvgl/src/extra/widgets/calendar/lv_calendar_header_arrow.c ****         } else {
 162              		.loc 1 105 23 view .LVU44
 163 0084 013B     		subs	r3, r3, #1
 164 0086 ADF80430 		strh	r3, [sp, #4]	@ movhi
 165 008a D7E7     		b	.L4
 166              	.L8:
 111:Middlewares/lvgl/src/extra/widgets/calendar/lv_calendar_header_arrow.c ****             newd.year ++;
 167              		.loc 1 111 13 is_stmt 1 view .LVU45
 111:Middlewares/lvgl/src/extra/widgets/calendar/lv_calendar_header_arrow.c ****             newd.year ++;
 168              		.loc 1 111 24 is_stmt 0 view .LVU46
 169 008c 0123     		movs	r3, #1
 170 008e 8DF80630 		strb	r3, [sp, #6]
 112:Middlewares/lvgl/src/extra/widgets/calendar/lv_calendar_header_arrow.c ****         } else {
 171              		.loc 1 112 13 is_stmt 1 view .LVU47
 112:Middlewares/lvgl/src/extra/widgets/calendar/lv_calendar_header_arrow.c ****         } else {
 172              		.loc 1 112 17 is_stmt 0 view .LVU48
 173 0092 BDF80430 		ldrh	r3, [sp, #4]
 112:Middlewares/lvgl/src/extra/widgets/calendar/lv_calendar_header_arrow.c ****         } else {
 174              		.loc 1 112 23 view .LVU49
 175 0096 0133     		adds	r3, r3, #1
 176 0098 ADF80430 		strh	r3, [sp, #4]	@ movhi
 177 009c CEE7     		b	.L4
 178              	.L11:
 179 009e 00BF     		.align	2
 180              	.L10:
 181 00a0 00000000 		.word	.LANCHOR0
 182 00a4 00000000 		.word	.LC0
 183              		.cfi_endproc
 184              	.LFE153:
 186              		.section	.rodata.lv_calendar_header_arrow_create.str1.4,"aMS",%progbits,1
 187              		.align	2
 188              	.LC1:
 189 0000 EF819300 		.ascii	"\357\201\223\000"
 190              		.align	2
 191              	.LC2:
 192 0004 EF819400 		.ascii	"\357\201\224\000"
 193              		.section	.text.lv_calendar_header_arrow_create,"ax",%progbits
 194              		.align	1
 195              		.global	lv_calendar_header_arrow_create
 196              		.syntax unified
 197              		.thumb
 198              		.thumb_func
 200              	lv_calendar_header_arrow_create:
 201              	.LVL16:
 202              	.LFB152:
  44:Middlewares/lvgl/src/extra/widgets/calendar/lv_calendar_header_arrow.c ****     lv_obj_t * header = lv_obj_create(parent);
 203              		.loc 1 44 1 is_stmt 1 view -0
 204              		.cfi_startproc
 205              		@ args = 0, pretend = 0, frame = 0
 206              		@ frame_needed = 0, uses_anonymous_args = 0
ARM GAS  /tmp/ccDEi7PT.s 			page 7


  44:Middlewares/lvgl/src/extra/widgets/calendar/lv_calendar_header_arrow.c ****     lv_obj_t * header = lv_obj_create(parent);
 207              		.loc 1 44 1 is_stmt 0 view .LVU51
 208 0000 2DE9F043 		push	{r4, r5, r6, r7, r8, r9, lr}
 209              	.LCFI4:
 210              		.cfi_def_cfa_offset 28
 211              		.cfi_offset 4, -28
 212              		.cfi_offset 5, -24
 213              		.cfi_offset 6, -20
 214              		.cfi_offset 7, -16
 215              		.cfi_offset 8, -12
 216              		.cfi_offset 9, -8
 217              		.cfi_offset 14, -4
 218 0004 83B0     		sub	sp, sp, #12
 219              	.LCFI5:
 220              		.cfi_def_cfa_offset 40
 221 0006 0D46     		mov	r5, r1
 222 0008 1646     		mov	r6, r2
  45:Middlewares/lvgl/src/extra/widgets/calendar/lv_calendar_header_arrow.c **** 
 223              		.loc 1 45 5 is_stmt 1 view .LVU52
  45:Middlewares/lvgl/src/extra/widgets/calendar/lv_calendar_header_arrow.c **** 
 224              		.loc 1 45 25 is_stmt 0 view .LVU53
 225 000a FFF7FEFF 		bl	lv_obj_create
 226              	.LVL17:
  45:Middlewares/lvgl/src/extra/widgets/calendar/lv_calendar_header_arrow.c **** 
 227              		.loc 1 45 25 view .LVU54
 228 000e 0446     		mov	r4, r0
 229              	.LVL18:
  48:Middlewares/lvgl/src/extra/widgets/calendar/lv_calendar_header_arrow.c ****     lv_obj_set_style_pad_right(header, lv_obj_get_style_pad_right(calendar, LV_PART_MAIN), 0);
 230              		.loc 1 48 5 is_stmt 1 view .LVU55
 231              	.LBB14:
 232              	.LBI14:
 233              		.file 2 "Middlewares/lvgl/src/extra/widgets/calendar/../../../core/lv_obj_style_gen.h"
   1:Middlewares/lvgl/src/extra/widgets/calendar/../../../core/lv_obj_style_gen.h **** static inline lv_coord_t lv_obj_get_style_width(const struct _lv_obj_t * obj, uint32_t part)
   2:Middlewares/lvgl/src/extra/widgets/calendar/../../../core/lv_obj_style_gen.h **** {
   3:Middlewares/lvgl/src/extra/widgets/calendar/../../../core/lv_obj_style_gen.h ****     lv_style_value_t v = lv_obj_get_style_prop(obj, part, LV_STYLE_WIDTH);
   4:Middlewares/lvgl/src/extra/widgets/calendar/../../../core/lv_obj_style_gen.h ****     return (lv_coord_t)v.num;
   5:Middlewares/lvgl/src/extra/widgets/calendar/../../../core/lv_obj_style_gen.h **** }
   6:Middlewares/lvgl/src/extra/widgets/calendar/../../../core/lv_obj_style_gen.h **** 
   7:Middlewares/lvgl/src/extra/widgets/calendar/../../../core/lv_obj_style_gen.h **** static inline lv_coord_t lv_obj_get_style_min_width(const struct _lv_obj_t * obj, uint32_t part)
   8:Middlewares/lvgl/src/extra/widgets/calendar/../../../core/lv_obj_style_gen.h **** {
   9:Middlewares/lvgl/src/extra/widgets/calendar/../../../core/lv_obj_style_gen.h ****     lv_style_value_t v = lv_obj_get_style_prop(obj, part, LV_STYLE_MIN_WIDTH);
  10:Middlewares/lvgl/src/extra/widgets/calendar/../../../core/lv_obj_style_gen.h ****     return (lv_coord_t)v.num;
  11:Middlewares/lvgl/src/extra/widgets/calendar/../../../core/lv_obj_style_gen.h **** }
  12:Middlewares/lvgl/src/extra/widgets/calendar/../../../core/lv_obj_style_gen.h **** 
  13:Middlewares/lvgl/src/extra/widgets/calendar/../../../core/lv_obj_style_gen.h **** static inline lv_coord_t lv_obj_get_style_max_width(const struct _lv_obj_t * obj, uint32_t part)
  14:Middlewares/lvgl/src/extra/widgets/calendar/../../../core/lv_obj_style_gen.h **** {
  15:Middlewares/lvgl/src/extra/widgets/calendar/../../../core/lv_obj_style_gen.h ****     lv_style_value_t v = lv_obj_get_style_prop(obj, part, LV_STYLE_MAX_WIDTH);
  16:Middlewares/lvgl/src/extra/widgets/calendar/../../../core/lv_obj_style_gen.h ****     return (lv_coord_t)v.num;
  17:Middlewares/lvgl/src/extra/widgets/calendar/../../../core/lv_obj_style_gen.h **** }
  18:Middlewares/lvgl/src/extra/widgets/calendar/../../../core/lv_obj_style_gen.h **** 
  19:Middlewares/lvgl/src/extra/widgets/calendar/../../../core/lv_obj_style_gen.h **** static inline lv_coord_t lv_obj_get_style_height(const struct _lv_obj_t * obj, uint32_t part)
  20:Middlewares/lvgl/src/extra/widgets/calendar/../../../core/lv_obj_style_gen.h **** {
  21:Middlewares/lvgl/src/extra/widgets/calendar/../../../core/lv_obj_style_gen.h ****     lv_style_value_t v = lv_obj_get_style_prop(obj, part, LV_STYLE_HEIGHT);
  22:Middlewares/lvgl/src/extra/widgets/calendar/../../../core/lv_obj_style_gen.h ****     return (lv_coord_t)v.num;
  23:Middlewares/lvgl/src/extra/widgets/calendar/../../../core/lv_obj_style_gen.h **** }
  24:Middlewares/lvgl/src/extra/widgets/calendar/../../../core/lv_obj_style_gen.h **** 
  25:Middlewares/lvgl/src/extra/widgets/calendar/../../../core/lv_obj_style_gen.h **** static inline lv_coord_t lv_obj_get_style_min_height(const struct _lv_obj_t * obj, uint32_t part)
ARM GAS  /tmp/ccDEi7PT.s 			page 8


  26:Middlewares/lvgl/src/extra/widgets/calendar/../../../core/lv_obj_style_gen.h **** {
  27:Middlewares/lvgl/src/extra/widgets/calendar/../../../core/lv_obj_style_gen.h ****     lv_style_value_t v = lv_obj_get_style_prop(obj, part, LV_STYLE_MIN_HEIGHT);
  28:Middlewares/lvgl/src/extra/widgets/calendar/../../../core/lv_obj_style_gen.h ****     return (lv_coord_t)v.num;
  29:Middlewares/lvgl/src/extra/widgets/calendar/../../../core/lv_obj_style_gen.h **** }
  30:Middlewares/lvgl/src/extra/widgets/calendar/../../../core/lv_obj_style_gen.h **** 
  31:Middlewares/lvgl/src/extra/widgets/calendar/../../../core/lv_obj_style_gen.h **** static inline lv_coord_t lv_obj_get_style_max_height(const struct _lv_obj_t * obj, uint32_t part)
  32:Middlewares/lvgl/src/extra/widgets/calendar/../../../core/lv_obj_style_gen.h **** {
  33:Middlewares/lvgl/src/extra/widgets/calendar/../../../core/lv_obj_style_gen.h ****     lv_style_value_t v = lv_obj_get_style_prop(obj, part, LV_STYLE_MAX_HEIGHT);
  34:Middlewares/lvgl/src/extra/widgets/calendar/../../../core/lv_obj_style_gen.h ****     return (lv_coord_t)v.num;
  35:Middlewares/lvgl/src/extra/widgets/calendar/../../../core/lv_obj_style_gen.h **** }
  36:Middlewares/lvgl/src/extra/widgets/calendar/../../../core/lv_obj_style_gen.h **** 
  37:Middlewares/lvgl/src/extra/widgets/calendar/../../../core/lv_obj_style_gen.h **** static inline lv_coord_t lv_obj_get_style_x(const struct _lv_obj_t * obj, uint32_t part)
  38:Middlewares/lvgl/src/extra/widgets/calendar/../../../core/lv_obj_style_gen.h **** {
  39:Middlewares/lvgl/src/extra/widgets/calendar/../../../core/lv_obj_style_gen.h ****     lv_style_value_t v = lv_obj_get_style_prop(obj, part, LV_STYLE_X);
  40:Middlewares/lvgl/src/extra/widgets/calendar/../../../core/lv_obj_style_gen.h ****     return (lv_coord_t)v.num;
  41:Middlewares/lvgl/src/extra/widgets/calendar/../../../core/lv_obj_style_gen.h **** }
  42:Middlewares/lvgl/src/extra/widgets/calendar/../../../core/lv_obj_style_gen.h **** 
  43:Middlewares/lvgl/src/extra/widgets/calendar/../../../core/lv_obj_style_gen.h **** static inline lv_coord_t lv_obj_get_style_y(const struct _lv_obj_t * obj, uint32_t part)
  44:Middlewares/lvgl/src/extra/widgets/calendar/../../../core/lv_obj_style_gen.h **** {
  45:Middlewares/lvgl/src/extra/widgets/calendar/../../../core/lv_obj_style_gen.h ****     lv_style_value_t v = lv_obj_get_style_prop(obj, part, LV_STYLE_Y);
  46:Middlewares/lvgl/src/extra/widgets/calendar/../../../core/lv_obj_style_gen.h ****     return (lv_coord_t)v.num;
  47:Middlewares/lvgl/src/extra/widgets/calendar/../../../core/lv_obj_style_gen.h **** }
  48:Middlewares/lvgl/src/extra/widgets/calendar/../../../core/lv_obj_style_gen.h **** 
  49:Middlewares/lvgl/src/extra/widgets/calendar/../../../core/lv_obj_style_gen.h **** static inline lv_align_t lv_obj_get_style_align(const struct _lv_obj_t * obj, uint32_t part)
  50:Middlewares/lvgl/src/extra/widgets/calendar/../../../core/lv_obj_style_gen.h **** {
  51:Middlewares/lvgl/src/extra/widgets/calendar/../../../core/lv_obj_style_gen.h ****     lv_style_value_t v = lv_obj_get_style_prop(obj, part, LV_STYLE_ALIGN);
  52:Middlewares/lvgl/src/extra/widgets/calendar/../../../core/lv_obj_style_gen.h ****     return (lv_align_t)v.num;
  53:Middlewares/lvgl/src/extra/widgets/calendar/../../../core/lv_obj_style_gen.h **** }
  54:Middlewares/lvgl/src/extra/widgets/calendar/../../../core/lv_obj_style_gen.h **** 
  55:Middlewares/lvgl/src/extra/widgets/calendar/../../../core/lv_obj_style_gen.h **** static inline lv_coord_t lv_obj_get_style_transform_width(const struct _lv_obj_t * obj, uint32_t pa
  56:Middlewares/lvgl/src/extra/widgets/calendar/../../../core/lv_obj_style_gen.h **** {
  57:Middlewares/lvgl/src/extra/widgets/calendar/../../../core/lv_obj_style_gen.h ****     lv_style_value_t v = lv_obj_get_style_prop(obj, part, LV_STYLE_TRANSFORM_WIDTH);
  58:Middlewares/lvgl/src/extra/widgets/calendar/../../../core/lv_obj_style_gen.h ****     return (lv_coord_t)v.num;
  59:Middlewares/lvgl/src/extra/widgets/calendar/../../../core/lv_obj_style_gen.h **** }
  60:Middlewares/lvgl/src/extra/widgets/calendar/../../../core/lv_obj_style_gen.h **** 
  61:Middlewares/lvgl/src/extra/widgets/calendar/../../../core/lv_obj_style_gen.h **** static inline lv_coord_t lv_obj_get_style_transform_height(const struct _lv_obj_t * obj, uint32_t p
  62:Middlewares/lvgl/src/extra/widgets/calendar/../../../core/lv_obj_style_gen.h **** {
  63:Middlewares/lvgl/src/extra/widgets/calendar/../../../core/lv_obj_style_gen.h ****     lv_style_value_t v = lv_obj_get_style_prop(obj, part, LV_STYLE_TRANSFORM_HEIGHT);
  64:Middlewares/lvgl/src/extra/widgets/calendar/../../../core/lv_obj_style_gen.h ****     return (lv_coord_t)v.num;
  65:Middlewares/lvgl/src/extra/widgets/calendar/../../../core/lv_obj_style_gen.h **** }
  66:Middlewares/lvgl/src/extra/widgets/calendar/../../../core/lv_obj_style_gen.h **** 
  67:Middlewares/lvgl/src/extra/widgets/calendar/../../../core/lv_obj_style_gen.h **** static inline lv_coord_t lv_obj_get_style_translate_x(const struct _lv_obj_t * obj, uint32_t part)
  68:Middlewares/lvgl/src/extra/widgets/calendar/../../../core/lv_obj_style_gen.h **** {
  69:Middlewares/lvgl/src/extra/widgets/calendar/../../../core/lv_obj_style_gen.h ****     lv_style_value_t v = lv_obj_get_style_prop(obj, part, LV_STYLE_TRANSLATE_X);
  70:Middlewares/lvgl/src/extra/widgets/calendar/../../../core/lv_obj_style_gen.h ****     return (lv_coord_t)v.num;
  71:Middlewares/lvgl/src/extra/widgets/calendar/../../../core/lv_obj_style_gen.h **** }
  72:Middlewares/lvgl/src/extra/widgets/calendar/../../../core/lv_obj_style_gen.h **** 
  73:Middlewares/lvgl/src/extra/widgets/calendar/../../../core/lv_obj_style_gen.h **** static inline lv_coord_t lv_obj_get_style_translate_y(const struct _lv_obj_t * obj, uint32_t part)
  74:Middlewares/lvgl/src/extra/widgets/calendar/../../../core/lv_obj_style_gen.h **** {
  75:Middlewares/lvgl/src/extra/widgets/calendar/../../../core/lv_obj_style_gen.h ****     lv_style_value_t v = lv_obj_get_style_prop(obj, part, LV_STYLE_TRANSLATE_Y);
  76:Middlewares/lvgl/src/extra/widgets/calendar/../../../core/lv_obj_style_gen.h ****     return (lv_coord_t)v.num;
  77:Middlewares/lvgl/src/extra/widgets/calendar/../../../core/lv_obj_style_gen.h **** }
  78:Middlewares/lvgl/src/extra/widgets/calendar/../../../core/lv_obj_style_gen.h **** 
  79:Middlewares/lvgl/src/extra/widgets/calendar/../../../core/lv_obj_style_gen.h **** static inline lv_coord_t lv_obj_get_style_transform_zoom(const struct _lv_obj_t * obj, uint32_t par
  80:Middlewares/lvgl/src/extra/widgets/calendar/../../../core/lv_obj_style_gen.h **** {
  81:Middlewares/lvgl/src/extra/widgets/calendar/../../../core/lv_obj_style_gen.h ****     lv_style_value_t v = lv_obj_get_style_prop(obj, part, LV_STYLE_TRANSFORM_ZOOM);
  82:Middlewares/lvgl/src/extra/widgets/calendar/../../../core/lv_obj_style_gen.h ****     return (lv_coord_t)v.num;
ARM GAS  /tmp/ccDEi7PT.s 			page 9


  83:Middlewares/lvgl/src/extra/widgets/calendar/../../../core/lv_obj_style_gen.h **** }
  84:Middlewares/lvgl/src/extra/widgets/calendar/../../../core/lv_obj_style_gen.h **** 
  85:Middlewares/lvgl/src/extra/widgets/calendar/../../../core/lv_obj_style_gen.h **** static inline lv_coord_t lv_obj_get_style_transform_angle(const struct _lv_obj_t * obj, uint32_t pa
  86:Middlewares/lvgl/src/extra/widgets/calendar/../../../core/lv_obj_style_gen.h **** {
  87:Middlewares/lvgl/src/extra/widgets/calendar/../../../core/lv_obj_style_gen.h ****     lv_style_value_t v = lv_obj_get_style_prop(obj, part, LV_STYLE_TRANSFORM_ANGLE);
  88:Middlewares/lvgl/src/extra/widgets/calendar/../../../core/lv_obj_style_gen.h ****     return (lv_coord_t)v.num;
  89:Middlewares/lvgl/src/extra/widgets/calendar/../../../core/lv_obj_style_gen.h **** }
  90:Middlewares/lvgl/src/extra/widgets/calendar/../../../core/lv_obj_style_gen.h **** 
  91:Middlewares/lvgl/src/extra/widgets/calendar/../../../core/lv_obj_style_gen.h **** static inline lv_coord_t lv_obj_get_style_pad_top(const struct _lv_obj_t * obj, uint32_t part)
  92:Middlewares/lvgl/src/extra/widgets/calendar/../../../core/lv_obj_style_gen.h **** {
  93:Middlewares/lvgl/src/extra/widgets/calendar/../../../core/lv_obj_style_gen.h ****     lv_style_value_t v = lv_obj_get_style_prop(obj, part, LV_STYLE_PAD_TOP);
  94:Middlewares/lvgl/src/extra/widgets/calendar/../../../core/lv_obj_style_gen.h ****     return (lv_coord_t)v.num;
  95:Middlewares/lvgl/src/extra/widgets/calendar/../../../core/lv_obj_style_gen.h **** }
  96:Middlewares/lvgl/src/extra/widgets/calendar/../../../core/lv_obj_style_gen.h **** 
  97:Middlewares/lvgl/src/extra/widgets/calendar/../../../core/lv_obj_style_gen.h **** static inline lv_coord_t lv_obj_get_style_pad_bottom(const struct _lv_obj_t * obj, uint32_t part)
  98:Middlewares/lvgl/src/extra/widgets/calendar/../../../core/lv_obj_style_gen.h **** {
  99:Middlewares/lvgl/src/extra/widgets/calendar/../../../core/lv_obj_style_gen.h ****     lv_style_value_t v = lv_obj_get_style_prop(obj, part, LV_STYLE_PAD_BOTTOM);
 100:Middlewares/lvgl/src/extra/widgets/calendar/../../../core/lv_obj_style_gen.h ****     return (lv_coord_t)v.num;
 101:Middlewares/lvgl/src/extra/widgets/calendar/../../../core/lv_obj_style_gen.h **** }
 102:Middlewares/lvgl/src/extra/widgets/calendar/../../../core/lv_obj_style_gen.h **** 
 103:Middlewares/lvgl/src/extra/widgets/calendar/../../../core/lv_obj_style_gen.h **** static inline lv_coord_t lv_obj_get_style_pad_left(const struct _lv_obj_t * obj, uint32_t part)
 234              		.loc 2 103 26 view .LVU56
 235              	.LBB15:
 104:Middlewares/lvgl/src/extra/widgets/calendar/../../../core/lv_obj_style_gen.h **** {
 105:Middlewares/lvgl/src/extra/widgets/calendar/../../../core/lv_obj_style_gen.h ****     lv_style_value_t v = lv_obj_get_style_prop(obj, part, LV_STYLE_PAD_LEFT);
 236              		.loc 2 105 5 view .LVU57
 237              		.loc 2 105 26 is_stmt 0 view .LVU58
 238 0010 41F21202 		movw	r2, #4114
 239 0014 0021     		movs	r1, #0
 240 0016 2846     		mov	r0, r5
 241              	.LVL19:
 242              		.loc 2 105 26 view .LVU59
 243 0018 FFF7FEFF 		bl	lv_obj_get_style_prop
 244              	.LVL20:
 106:Middlewares/lvgl/src/extra/widgets/calendar/../../../core/lv_obj_style_gen.h ****     return (lv_coord_t)v.num;
 245              		.loc 2 106 5 is_stmt 1 view .LVU60
 246              		.loc 2 106 5 is_stmt 0 view .LVU61
 247              	.LBE15:
 248              	.LBE14:
  48:Middlewares/lvgl/src/extra/widgets/calendar/lv_calendar_header_arrow.c ****     lv_obj_set_style_pad_right(header, lv_obj_get_style_pad_right(calendar, LV_PART_MAIN), 0);
 249              		.loc 1 48 5 view .LVU62
 250 001c 0022     		movs	r2, #0
 251 001e 01B2     		sxth	r1, r0
 252 0020 2046     		mov	r0, r4
 253 0022 FFF7FEFF 		bl	lv_obj_set_style_pad_left
 254              	.LVL21:
  49:Middlewares/lvgl/src/extra/widgets/calendar/lv_calendar_header_arrow.c ****     lv_obj_set_style_pad_top(header, lv_obj_get_style_pad_top(calendar, LV_PART_MAIN), 0);
 255              		.loc 1 49 5 is_stmt 1 view .LVU63
 256              	.LBB16:
 257              	.LBI16:
 107:Middlewares/lvgl/src/extra/widgets/calendar/../../../core/lv_obj_style_gen.h **** }
 108:Middlewares/lvgl/src/extra/widgets/calendar/../../../core/lv_obj_style_gen.h **** 
 109:Middlewares/lvgl/src/extra/widgets/calendar/../../../core/lv_obj_style_gen.h **** static inline lv_coord_t lv_obj_get_style_pad_right(const struct _lv_obj_t * obj, uint32_t part)
 258              		.loc 2 109 26 view .LVU64
 259              	.LBB17:
 110:Middlewares/lvgl/src/extra/widgets/calendar/../../../core/lv_obj_style_gen.h **** {
 111:Middlewares/lvgl/src/extra/widgets/calendar/../../../core/lv_obj_style_gen.h ****     lv_style_value_t v = lv_obj_get_style_prop(obj, part, LV_STYLE_PAD_RIGHT);
ARM GAS  /tmp/ccDEi7PT.s 			page 10


 260              		.loc 2 111 5 view .LVU65
 261              		.loc 2 111 26 is_stmt 0 view .LVU66
 262 0026 41F21302 		movw	r2, #4115
 263 002a 0021     		movs	r1, #0
 264 002c 2846     		mov	r0, r5
 265 002e FFF7FEFF 		bl	lv_obj_get_style_prop
 266              	.LVL22:
 112:Middlewares/lvgl/src/extra/widgets/calendar/../../../core/lv_obj_style_gen.h ****     return (lv_coord_t)v.num;
 267              		.loc 2 112 5 is_stmt 1 view .LVU67
 268              		.loc 2 112 5 is_stmt 0 view .LVU68
 269              	.LBE17:
 270              	.LBE16:
  49:Middlewares/lvgl/src/extra/widgets/calendar/lv_calendar_header_arrow.c ****     lv_obj_set_style_pad_top(header, lv_obj_get_style_pad_top(calendar, LV_PART_MAIN), 0);
 271              		.loc 1 49 5 view .LVU69
 272 0032 0022     		movs	r2, #0
 273 0034 01B2     		sxth	r1, r0
 274 0036 2046     		mov	r0, r4
 275 0038 FFF7FEFF 		bl	lv_obj_set_style_pad_right
 276              	.LVL23:
  50:Middlewares/lvgl/src/extra/widgets/calendar/lv_calendar_header_arrow.c ****     lv_obj_set_style_pad_bottom(header, lv_obj_get_style_pad_bottom(calendar, LV_PART_MAIN), 0);
 277              		.loc 1 50 5 is_stmt 1 view .LVU70
 278              	.LBB18:
 279              	.LBI18:
  91:Middlewares/lvgl/src/extra/widgets/calendar/../../../core/lv_obj_style_gen.h **** {
 280              		.loc 2 91 26 view .LVU71
 281              	.LBB19:
  93:Middlewares/lvgl/src/extra/widgets/calendar/../../../core/lv_obj_style_gen.h ****     return (lv_coord_t)v.num;
 282              		.loc 2 93 5 view .LVU72
  93:Middlewares/lvgl/src/extra/widgets/calendar/../../../core/lv_obj_style_gen.h ****     return (lv_coord_t)v.num;
 283              		.loc 2 93 26 is_stmt 0 view .LVU73
 284 003c 41F21002 		movw	r2, #4112
 285 0040 0021     		movs	r1, #0
 286 0042 2846     		mov	r0, r5
 287 0044 FFF7FEFF 		bl	lv_obj_get_style_prop
 288              	.LVL24:
  94:Middlewares/lvgl/src/extra/widgets/calendar/../../../core/lv_obj_style_gen.h **** }
 289              		.loc 2 94 5 is_stmt 1 view .LVU74
  94:Middlewares/lvgl/src/extra/widgets/calendar/../../../core/lv_obj_style_gen.h **** }
 290              		.loc 2 94 5 is_stmt 0 view .LVU75
 291              	.LBE19:
 292              	.LBE18:
  50:Middlewares/lvgl/src/extra/widgets/calendar/lv_calendar_header_arrow.c ****     lv_obj_set_style_pad_bottom(header, lv_obj_get_style_pad_bottom(calendar, LV_PART_MAIN), 0);
 293              		.loc 1 50 5 view .LVU76
 294 0048 0022     		movs	r2, #0
 295 004a 01B2     		sxth	r1, r0
 296 004c 2046     		mov	r0, r4
 297 004e FFF7FEFF 		bl	lv_obj_set_style_pad_top
 298              	.LVL25:
  51:Middlewares/lvgl/src/extra/widgets/calendar/lv_calendar_header_arrow.c ****     lv_obj_set_style_pad_column(header, lv_obj_get_style_pad_column(calendar, LV_PART_MAIN), 0);
 299              		.loc 1 51 5 is_stmt 1 view .LVU77
 300              	.LBB20:
 301              	.LBI20:
  97:Middlewares/lvgl/src/extra/widgets/calendar/../../../core/lv_obj_style_gen.h **** {
 302              		.loc 2 97 26 view .LVU78
 303              	.LBB21:
  99:Middlewares/lvgl/src/extra/widgets/calendar/../../../core/lv_obj_style_gen.h ****     return (lv_coord_t)v.num;
 304              		.loc 2 99 5 view .LVU79
ARM GAS  /tmp/ccDEi7PT.s 			page 11


  99:Middlewares/lvgl/src/extra/widgets/calendar/../../../core/lv_obj_style_gen.h ****     return (lv_coord_t)v.num;
 305              		.loc 2 99 26 is_stmt 0 view .LVU80
 306 0052 41F21102 		movw	r2, #4113
 307 0056 0021     		movs	r1, #0
 308 0058 2846     		mov	r0, r5
 309 005a FFF7FEFF 		bl	lv_obj_get_style_prop
 310              	.LVL26:
 100:Middlewares/lvgl/src/extra/widgets/calendar/../../../core/lv_obj_style_gen.h **** }
 311              		.loc 2 100 5 is_stmt 1 view .LVU81
 100:Middlewares/lvgl/src/extra/widgets/calendar/../../../core/lv_obj_style_gen.h **** }
 312              		.loc 2 100 5 is_stmt 0 view .LVU82
 313              	.LBE21:
 314              	.LBE20:
  51:Middlewares/lvgl/src/extra/widgets/calendar/lv_calendar_header_arrow.c ****     lv_obj_set_style_pad_column(header, lv_obj_get_style_pad_column(calendar, LV_PART_MAIN), 0);
 315              		.loc 1 51 5 view .LVU83
 316 005e 0022     		movs	r2, #0
 317 0060 01B2     		sxth	r1, r0
 318 0062 2046     		mov	r0, r4
 319 0064 FFF7FEFF 		bl	lv_obj_set_style_pad_bottom
 320              	.LVL27:
  52:Middlewares/lvgl/src/extra/widgets/calendar/lv_calendar_header_arrow.c ****     lv_obj_set_style_radius(header, lv_obj_get_style_radius(calendar, LV_PART_MAIN), 0);
 321              		.loc 1 52 5 is_stmt 1 view .LVU84
 322              	.LBB22:
 323              	.LBI22:
 113:Middlewares/lvgl/src/extra/widgets/calendar/../../../core/lv_obj_style_gen.h **** }
 114:Middlewares/lvgl/src/extra/widgets/calendar/../../../core/lv_obj_style_gen.h **** 
 115:Middlewares/lvgl/src/extra/widgets/calendar/../../../core/lv_obj_style_gen.h **** static inline lv_coord_t lv_obj_get_style_pad_row(const struct _lv_obj_t * obj, uint32_t part)
 116:Middlewares/lvgl/src/extra/widgets/calendar/../../../core/lv_obj_style_gen.h **** {
 117:Middlewares/lvgl/src/extra/widgets/calendar/../../../core/lv_obj_style_gen.h ****     lv_style_value_t v = lv_obj_get_style_prop(obj, part, LV_STYLE_PAD_ROW);
 118:Middlewares/lvgl/src/extra/widgets/calendar/../../../core/lv_obj_style_gen.h ****     return (lv_coord_t)v.num;
 119:Middlewares/lvgl/src/extra/widgets/calendar/../../../core/lv_obj_style_gen.h **** }
 120:Middlewares/lvgl/src/extra/widgets/calendar/../../../core/lv_obj_style_gen.h **** 
 121:Middlewares/lvgl/src/extra/widgets/calendar/../../../core/lv_obj_style_gen.h **** static inline lv_coord_t lv_obj_get_style_pad_column(const struct _lv_obj_t * obj, uint32_t part)
 324              		.loc 2 121 26 view .LVU85
 325              	.LBB23:
 122:Middlewares/lvgl/src/extra/widgets/calendar/../../../core/lv_obj_style_gen.h **** {
 123:Middlewares/lvgl/src/extra/widgets/calendar/../../../core/lv_obj_style_gen.h ****     lv_style_value_t v = lv_obj_get_style_prop(obj, part, LV_STYLE_PAD_COLUMN);
 326              		.loc 2 123 5 view .LVU86
 327              		.loc 2 123 26 is_stmt 0 view .LVU87
 328 0068 41F21502 		movw	r2, #4117
 329 006c 0021     		movs	r1, #0
 330 006e 2846     		mov	r0, r5
 331 0070 FFF7FEFF 		bl	lv_obj_get_style_prop
 332              	.LVL28:
 124:Middlewares/lvgl/src/extra/widgets/calendar/../../../core/lv_obj_style_gen.h ****     return (lv_coord_t)v.num;
 333              		.loc 2 124 5 is_stmt 1 view .LVU88
 334              		.loc 2 124 5 is_stmt 0 view .LVU89
 335              	.LBE23:
 336              	.LBE22:
  52:Middlewares/lvgl/src/extra/widgets/calendar/lv_calendar_header_arrow.c ****     lv_obj_set_style_radius(header, lv_obj_get_style_radius(calendar, LV_PART_MAIN), 0);
 337              		.loc 1 52 5 view .LVU90
 338 0074 0022     		movs	r2, #0
 339 0076 01B2     		sxth	r1, r0
 340 0078 2046     		mov	r0, r4
 341 007a FFF7FEFF 		bl	lv_obj_set_style_pad_column
 342              	.LVL29:
  53:Middlewares/lvgl/src/extra/widgets/calendar/lv_calendar_header_arrow.c **** 
ARM GAS  /tmp/ccDEi7PT.s 			page 12


 343              		.loc 1 53 5 is_stmt 1 view .LVU91
 344              	.LBB24:
 345              	.LBI24:
 125:Middlewares/lvgl/src/extra/widgets/calendar/../../../core/lv_obj_style_gen.h **** }
 126:Middlewares/lvgl/src/extra/widgets/calendar/../../../core/lv_obj_style_gen.h **** 
 127:Middlewares/lvgl/src/extra/widgets/calendar/../../../core/lv_obj_style_gen.h **** static inline lv_coord_t lv_obj_get_style_radius(const struct _lv_obj_t * obj, uint32_t part)
 346              		.loc 2 127 26 view .LVU92
 347              	.LBB25:
 128:Middlewares/lvgl/src/extra/widgets/calendar/../../../core/lv_obj_style_gen.h **** {
 129:Middlewares/lvgl/src/extra/widgets/calendar/../../../core/lv_obj_style_gen.h ****     lv_style_value_t v = lv_obj_get_style_prop(obj, part, LV_STYLE_RADIUS);
 348              		.loc 2 129 5 view .LVU93
 349              		.loc 2 129 26 is_stmt 0 view .LVU94
 350 007e 6022     		movs	r2, #96
 351 0080 0021     		movs	r1, #0
 352 0082 2846     		mov	r0, r5
 353 0084 FFF7FEFF 		bl	lv_obj_get_style_prop
 354              	.LVL30:
 130:Middlewares/lvgl/src/extra/widgets/calendar/../../../core/lv_obj_style_gen.h ****     return (lv_coord_t)v.num;
 355              		.loc 2 130 5 is_stmt 1 view .LVU95
 356              		.loc 2 130 5 is_stmt 0 view .LVU96
 357              	.LBE25:
 358              	.LBE24:
  53:Middlewares/lvgl/src/extra/widgets/calendar/lv_calendar_header_arrow.c **** 
 359              		.loc 1 53 5 view .LVU97
 360 0088 0022     		movs	r2, #0
 361 008a 01B2     		sxth	r1, r0
 362 008c 2046     		mov	r0, r4
 363 008e FFF7FEFF 		bl	lv_obj_set_style_radius
 364              	.LVL31:
  55:Middlewares/lvgl/src/extra/widgets/calendar/lv_calendar_header_arrow.c **** 
 365              		.loc 1 55 5 is_stmt 1 view .LVU98
  55:Middlewares/lvgl/src/extra/widgets/calendar/lv_calendar_header_arrow.c **** 
 366              		.loc 1 55 43 is_stmt 0 view .LVU99
 367 0092 2846     		mov	r0, r5
 368 0094 FFF7FEFF 		bl	lv_calendar_get_showed_date
 369              	.LVL32:
 370 0098 8146     		mov	r9, r0
 371              	.LVL33:
  57:Middlewares/lvgl/src/extra/widgets/calendar/lv_calendar_header_arrow.c ****     lv_coord_t w = lv_obj_get_width(calendar);
 372              		.loc 1 57 5 is_stmt 1 view .LVU100
 373 009a 2846     		mov	r0, r5
 374              	.LVL34:
  57:Middlewares/lvgl/src/extra/widgets/calendar/lv_calendar_header_arrow.c ****     lv_coord_t w = lv_obj_get_width(calendar);
 375              		.loc 1 57 5 is_stmt 0 view .LVU101
 376 009c FFF7FEFF 		bl	lv_obj_update_layout
 377              	.LVL35:
  58:Middlewares/lvgl/src/extra/widgets/calendar/lv_calendar_header_arrow.c ****     lv_obj_set_size(header,  w, LV_SIZE_CONTENT);
 378              		.loc 1 58 5 is_stmt 1 view .LVU102
  58:Middlewares/lvgl/src/extra/widgets/calendar/lv_calendar_header_arrow.c ****     lv_obj_set_size(header,  w, LV_SIZE_CONTENT);
 379              		.loc 1 58 20 is_stmt 0 view .LVU103
 380 00a0 2846     		mov	r0, r5
 381 00a2 FFF7FEFF 		bl	lv_obj_get_width
 382              	.LVL36:
 383 00a6 0146     		mov	r1, r0
 384              	.LVL37:
  59:Middlewares/lvgl/src/extra/widgets/calendar/lv_calendar_header_arrow.c ****     lv_obj_set_flex_flow(header, LV_FLEX_FLOW_ROW);
 385              		.loc 1 59 5 is_stmt 1 view .LVU104
ARM GAS  /tmp/ccDEi7PT.s 			page 13


 386 00a8 42F2D172 		movw	r2, #10193
 387 00ac 2046     		mov	r0, r4
 388 00ae FFF7FEFF 		bl	lv_obj_set_size
 389              	.LVL38:
  60:Middlewares/lvgl/src/extra/widgets/calendar/lv_calendar_header_arrow.c ****     lv_obj_set_flex_align(header, LV_FLEX_ALIGN_START, LV_FLEX_ALIGN_CENTER, LV_FLEX_ALIGN_START);
 390              		.loc 1 60 5 view .LVU105
 391 00b2 0021     		movs	r1, #0
 392 00b4 2046     		mov	r0, r4
 393 00b6 FFF7FEFF 		bl	lv_obj_set_flex_flow
 394              	.LVL39:
  61:Middlewares/lvgl/src/extra/widgets/calendar/lv_calendar_header_arrow.c **** 
 395              		.loc 1 61 5 view .LVU106
 396 00ba 0023     		movs	r3, #0
 397 00bc 0222     		movs	r2, #2
 398 00be 1946     		mov	r1, r3
 399 00c0 2046     		mov	r0, r4
 400 00c2 FFF7FEFF 		bl	lv_obj_set_flex_align
 401              	.LVL40:
  63:Middlewares/lvgl/src/extra/widgets/calendar/lv_calendar_header_arrow.c ****     lv_obj_set_style_bg_img_src(mo_prev, LV_SYMBOL_LEFT, 0);
 402              		.loc 1 63 5 view .LVU107
  63:Middlewares/lvgl/src/extra/widgets/calendar/lv_calendar_header_arrow.c ****     lv_obj_set_style_bg_img_src(mo_prev, LV_SYMBOL_LEFT, 0);
 403              		.loc 1 63 26 is_stmt 0 view .LVU108
 404 00c6 2046     		mov	r0, r4
 405 00c8 FFF7FEFF 		bl	lv_btn_create
 406              	.LVL41:
 407 00cc 0746     		mov	r7, r0
 408              	.LVL42:
  64:Middlewares/lvgl/src/extra/widgets/calendar/lv_calendar_header_arrow.c ****     lv_obj_set_size(mo_prev, btn_size, btn_size);
 409              		.loc 1 64 5 is_stmt 1 view .LVU109
 410 00ce 0022     		movs	r2, #0
 411 00d0 2849     		ldr	r1, .L14
 412 00d2 FFF7FEFF 		bl	lv_obj_set_style_bg_img_src
 413              	.LVL43:
  65:Middlewares/lvgl/src/extra/widgets/calendar/lv_calendar_header_arrow.c ****     lv_obj_add_event_cb(mo_prev, month_event_cb, LV_EVENT_CLICKED, calendar);
 414              		.loc 1 65 5 view .LVU110
 415 00d6 3246     		mov	r2, r6
 416 00d8 3146     		mov	r1, r6
 417 00da 3846     		mov	r0, r7
 418 00dc FFF7FEFF 		bl	lv_obj_set_size
 419              	.LVL44:
  66:Middlewares/lvgl/src/extra/widgets/calendar/lv_calendar_header_arrow.c ****     lv_obj_clear_flag(mo_prev, LV_OBJ_FLAG_CLICK_FOCUSABLE);
 420              		.loc 1 66 5 view .LVU111
 421 00e0 DFF8A080 		ldr	r8, .L14+16
 422 00e4 2B46     		mov	r3, r5
 423 00e6 0722     		movs	r2, #7
 424 00e8 4146     		mov	r1, r8
 425 00ea 3846     		mov	r0, r7
 426 00ec FFF7FEFF 		bl	lv_obj_add_event_cb
 427              	.LVL45:
  67:Middlewares/lvgl/src/extra/widgets/calendar/lv_calendar_header_arrow.c **** 
 428              		.loc 1 67 5 view .LVU112
 429 00f0 0421     		movs	r1, #4
 430 00f2 3846     		mov	r0, r7
 431 00f4 FFF7FEFF 		bl	lv_obj_clear_flag
 432              	.LVL46:
  69:Middlewares/lvgl/src/extra/widgets/calendar/lv_calendar_header_arrow.c ****     lv_label_set_long_mode(label, LV_LABEL_LONG_SCROLL_CIRCULAR);
 433              		.loc 1 69 5 view .LVU113
ARM GAS  /tmp/ccDEi7PT.s 			page 14


  69:Middlewares/lvgl/src/extra/widgets/calendar/lv_calendar_header_arrow.c ****     lv_label_set_long_mode(label, LV_LABEL_LONG_SCROLL_CIRCULAR);
 434              		.loc 1 69 24 is_stmt 0 view .LVU114
 435 00f8 2046     		mov	r0, r4
 436 00fa FFF7FEFF 		bl	lv_label_create
 437              	.LVL47:
 438 00fe 0746     		mov	r7, r0
 439              	.LVL48:
  70:Middlewares/lvgl/src/extra/widgets/calendar/lv_calendar_header_arrow.c ****     lv_obj_set_style_text_align(label, LV_TEXT_ALIGN_CENTER, 0);
 440              		.loc 1 70 5 is_stmt 1 view .LVU115
 441 0100 0321     		movs	r1, #3
 442 0102 FFF7FEFF 		bl	lv_label_set_long_mode
 443              	.LVL49:
  71:Middlewares/lvgl/src/extra/widgets/calendar/lv_calendar_header_arrow.c ****     lv_obj_set_flex_grow(label, 1);
 444              		.loc 1 71 5 view .LVU116
 445 0106 0022     		movs	r2, #0
 446 0108 0221     		movs	r1, #2
 447 010a 3846     		mov	r0, r7
 448 010c FFF7FEFF 		bl	lv_obj_set_style_text_align
 449              	.LVL50:
  72:Middlewares/lvgl/src/extra/widgets/calendar/lv_calendar_header_arrow.c ****     lv_label_set_text_fmt(label, "%d %s", cur_date->year, month_names_def[cur_date->month - 1]);
 450              		.loc 1 72 5 view .LVU117
 451 0110 0121     		movs	r1, #1
 452 0112 3846     		mov	r0, r7
 453 0114 FFF7FEFF 		bl	lv_obj_set_flex_grow
 454              	.LVL51:
  73:Middlewares/lvgl/src/extra/widgets/calendar/lv_calendar_header_arrow.c **** 
 455              		.loc 1 73 5 view .LVU118
  73:Middlewares/lvgl/src/extra/widgets/calendar/lv_calendar_header_arrow.c **** 
 456              		.loc 1 73 83 is_stmt 0 view .LVU119
 457 0118 99F90230 		ldrsb	r3, [r9, #2]
  73:Middlewares/lvgl/src/extra/widgets/calendar/lv_calendar_header_arrow.c **** 
 458              		.loc 1 73 91 view .LVU120
 459 011c 013B     		subs	r3, r3, #1
  73:Middlewares/lvgl/src/extra/widgets/calendar/lv_calendar_header_arrow.c **** 
 460              		.loc 1 73 5 view .LVU121
 461 011e 164A     		ldr	r2, .L14+4
 462 0120 52F82330 		ldr	r3, [r2, r3, lsl #2]
 463 0124 B9F80020 		ldrh	r2, [r9]
 464 0128 1449     		ldr	r1, .L14+8
 465 012a 3846     		mov	r0, r7
 466 012c FFF7FEFF 		bl	lv_label_set_text_fmt
 467              	.LVL52:
  75:Middlewares/lvgl/src/extra/widgets/calendar/lv_calendar_header_arrow.c ****     lv_obj_set_style_bg_img_src(mo_next, LV_SYMBOL_RIGHT, 0);
 468              		.loc 1 75 5 is_stmt 1 view .LVU122
  75:Middlewares/lvgl/src/extra/widgets/calendar/lv_calendar_header_arrow.c ****     lv_obj_set_style_bg_img_src(mo_next, LV_SYMBOL_RIGHT, 0);
 469              		.loc 1 75 26 is_stmt 0 view .LVU123
 470 0130 2046     		mov	r0, r4
 471 0132 FFF7FEFF 		bl	lv_btn_create
 472              	.LVL53:
 473 0136 0746     		mov	r7, r0
 474              	.LVL54:
  76:Middlewares/lvgl/src/extra/widgets/calendar/lv_calendar_header_arrow.c ****     lv_obj_set_size(mo_next, btn_size, btn_size);
 475              		.loc 1 76 5 is_stmt 1 view .LVU124
 476 0138 0022     		movs	r2, #0
 477 013a 1149     		ldr	r1, .L14+12
 478 013c FFF7FEFF 		bl	lv_obj_set_style_bg_img_src
 479              	.LVL55:
ARM GAS  /tmp/ccDEi7PT.s 			page 15


  77:Middlewares/lvgl/src/extra/widgets/calendar/lv_calendar_header_arrow.c ****     lv_obj_add_event_cb(mo_next, month_event_cb, LV_EVENT_CLICKED, calendar);
 480              		.loc 1 77 5 view .LVU125
 481 0140 3246     		mov	r2, r6
 482 0142 3146     		mov	r1, r6
 483 0144 3846     		mov	r0, r7
 484 0146 FFF7FEFF 		bl	lv_obj_set_size
 485              	.LVL56:
  78:Middlewares/lvgl/src/extra/widgets/calendar/lv_calendar_header_arrow.c ****     lv_obj_clear_flag(mo_next, LV_OBJ_FLAG_CLICK_FOCUSABLE);
 486              		.loc 1 78 5 view .LVU126
 487 014a 2B46     		mov	r3, r5
 488 014c 0722     		movs	r2, #7
 489 014e 4146     		mov	r1, r8
 490 0150 3846     		mov	r0, r7
 491 0152 FFF7FEFF 		bl	lv_obj_add_event_cb
 492              	.LVL57:
  79:Middlewares/lvgl/src/extra/widgets/calendar/lv_calendar_header_arrow.c **** 
 493              		.loc 1 79 5 view .LVU127
 494 0156 0421     		movs	r1, #4
 495 0158 3846     		mov	r0, r7
 496 015a FFF7FEFF 		bl	lv_obj_clear_flag
 497              	.LVL58:
  81:Middlewares/lvgl/src/extra/widgets/calendar/lv_calendar_header_arrow.c **** 
 498              		.loc 1 81 5 view .LVU128
 499 015e 0023     		movs	r3, #0
 500 0160 0093     		str	r3, [sp]
 501 0162 0B22     		movs	r2, #11
 502 0164 2946     		mov	r1, r5
 503 0166 2046     		mov	r0, r4
 504 0168 FFF7FEFF 		bl	lv_obj_align_to
 505              	.LVL59:
  83:Middlewares/lvgl/src/extra/widgets/calendar/lv_calendar_header_arrow.c **** }
 506              		.loc 1 83 5 view .LVU129
  84:Middlewares/lvgl/src/extra/widgets/calendar/lv_calendar_header_arrow.c **** 
 507              		.loc 1 84 1 is_stmt 0 view .LVU130
 508 016c 2046     		mov	r0, r4
 509 016e 03B0     		add	sp, sp, #12
 510              	.LCFI6:
 511              		.cfi_def_cfa_offset 28
 512              		@ sp needed
 513 0170 BDE8F083 		pop	{r4, r5, r6, r7, r8, r9, pc}
 514              	.LVL60:
 515              	.L15:
  84:Middlewares/lvgl/src/extra/widgets/calendar/lv_calendar_header_arrow.c **** 
 516              		.loc 1 84 1 view .LVU131
 517              		.align	2
 518              	.L14:
 519 0174 00000000 		.word	.LC1
 520 0178 00000000 		.word	.LANCHOR0
 521 017c 00000000 		.word	.LC0
 522 0180 04000000 		.word	.LC2
 523 0184 00000000 		.word	month_event_cb
 524              		.cfi_endproc
 525              	.LFE152:
 527              		.section	.rodata.str1.4,"aMS",%progbits,1
 528              		.align	2
 529              	.LC3:
 530 0000 4A616E75 		.ascii	"January\000"
ARM GAS  /tmp/ccDEi7PT.s 			page 16


 530      61727900 
 531              		.align	2
 532              	.LC4:
 533 0008 46656272 		.ascii	"February\000"
 533      75617279 
 533      00
 534 0011 000000   		.align	2
 535              	.LC5:
 536 0014 4D617263 		.ascii	"March\000"
 536      6800
 537 001a 0000     		.align	2
 538              	.LC6:
 539 001c 41707269 		.ascii	"April\000"
 539      6C00
 540 0022 0000     		.align	2
 541              	.LC7:
 542 0024 4D617900 		.ascii	"May\000"
 543              		.align	2
 544              	.LC8:
 545 0028 4A756E65 		.ascii	"June\000"
 545      00
 546 002d 000000   		.align	2
 547              	.LC9:
 548 0030 4A756C79 		.ascii	"July\000"
 548      00
 549 0035 000000   		.align	2
 550              	.LC10:
 551 0038 41756775 		.ascii	"August\000"
 551      737400
 552 003f 00       		.align	2
 553              	.LC11:
 554 0040 53657074 		.ascii	"September\000"
 554      656D6265 
 554      7200
 555 004a 0000     		.align	2
 556              	.LC12:
 557 004c 4F63746F 		.ascii	"October\000"
 557      62657200 
 558              		.align	2
 559              	.LC13:
 560 0054 4E6F7665 		.ascii	"November\000"
 560      6D626572 
 560      00
 561 005d 000000   		.align	2
 562              	.LC14:
 563 0060 44656365 		.ascii	"December\000"
 563      6D626572 
 563      00
 564              		.section	.rodata.month_names_def,"a"
 565              		.align	2
 566              		.set	.LANCHOR0,. + 0
 569              	month_names_def:
 570 0000 00000000 		.word	.LC3
 571 0004 08000000 		.word	.LC4
 572 0008 14000000 		.word	.LC5
 573 000c 1C000000 		.word	.LC6
 574 0010 24000000 		.word	.LC7
ARM GAS  /tmp/ccDEi7PT.s 			page 17


 575 0014 28000000 		.word	.LC8
 576 0018 30000000 		.word	.LC9
 577 001c 38000000 		.word	.LC10
 578 0020 40000000 		.word	.LC11
 579 0024 4C000000 		.word	.LC12
 580 0028 54000000 		.word	.LC13
 581 002c 60000000 		.word	.LC14
 582              		.text
 583              	.Letext0:
 584              		.file 3 "/home/akinya/gcc-arm-none-eabi/arm-none-eabi/include/machine/_default_types.h"
 585              		.file 4 "/home/akinya/gcc-arm-none-eabi/arm-none-eabi/include/sys/_stdint.h"
 586              		.file 5 "Middlewares/lvgl/src/extra/widgets/calendar/../../../core/../misc/../font/../misc/lv_area
 587              		.file 6 "Middlewares/lvgl/src/extra/widgets/calendar/../../../core/../misc/lv_color.h"
 588              		.file 7 "Middlewares/lvgl/src/extra/widgets/calendar/../../../core/../misc/lv_txt.h"
 589              		.file 8 "Middlewares/lvgl/src/extra/widgets/calendar/../../../core/../misc/lv_style.h"
 590              		.file 9 "Middlewares/lvgl/src/extra/widgets/calendar/../../../core/../hal/../misc/lv_ll.h"
 591              		.file 10 "Middlewares/lvgl/src/extra/widgets/calendar/../../../core/lv_obj.h"
 592              		.file 11 "Middlewares/lvgl/src/extra/widgets/calendar/../../../core/lv_group.h"
 593              		.file 12 "Middlewares/lvgl/src/extra/widgets/calendar/../../../core/lv_obj_scroll.h"
 594              		.file 13 "Middlewares/lvgl/src/extra/widgets/calendar/../../../core/lv_obj_style.h"
 595              		.file 14 "Middlewares/lvgl/src/extra/widgets/calendar/../../../core/lv_obj_class.h"
 596              		.file 15 "Middlewares/lvgl/src/extra/widgets/calendar/../../../core/lv_event.h"
 597              		.file 16 "Middlewares/lvgl/src/extra/widgets/calendar/lv_calendar.h"
 598              		.file 17 "Middlewares/lvgl/src/extra/widgets/calendar/../../../widgets/lv_label.h"
 599              		.file 18 "Middlewares/lvgl/src/extra/widgets/calendar/../../layouts/flex/lv_flex.h"
 600              		.file 19 "Middlewares/lvgl/src/extra/widgets/calendar/../../../core/lv_obj_tree.h"
 601              		.file 20 "Middlewares/lvgl/src/extra/widgets/calendar/../../../core/lv_obj_pos.h"
 602              		.file 21 "Middlewares/lvgl/src/extra/widgets/calendar/../../../widgets/lv_btn.h"
ARM GAS  /tmp/ccDEi7PT.s 			page 18

