ARM GAS  /tmp/ccKaNmJL.s 			page 1


   1              		.cpu cortex-m4
   2              		.arch armv7e-m
   3              		.fpu fpv4-sp-d16
   4              		.eabi_attribute 27, 1
   5              		.eabi_attribute 28, 1
   6              		.eabi_attribute 20, 1
   7              		.eabi_attribute 21, 1
   8              		.eabi_attribute 23, 3
   9              		.eabi_attribute 24, 1
  10              		.eabi_attribute 25, 1
  11              		.eabi_attribute 26, 1
  12              		.eabi_attribute 30, 1
  13              		.eabi_attribute 34, 1
  14              		.eabi_attribute 18, 4
  15              		.file	"lv_color.c"
  16              		.text
  17              	.Ltext0:
  18              		.cfi_sections	.debug_frame
  19              		.section	.text.lv_color_fill,"ax",%progbits
  20              		.align	1
  21              		.global	lv_color_fill
  22              		.syntax unified
  23              		.thumb
  24              		.thumb_func
  26              	lv_color_fill:
  27              	.LVL0:
  28              	.LFB17:
  29              		.file 1 "Middlewares/lvgl/src/misc/lv_color.c"
   1:Middlewares/lvgl/src/misc/lv_color.c **** /**
   2:Middlewares/lvgl/src/misc/lv_color.c ****  * @file lv_color.c
   3:Middlewares/lvgl/src/misc/lv_color.c ****  *
   4:Middlewares/lvgl/src/misc/lv_color.c ****  */
   5:Middlewares/lvgl/src/misc/lv_color.c **** 
   6:Middlewares/lvgl/src/misc/lv_color.c **** /*********************
   7:Middlewares/lvgl/src/misc/lv_color.c ****  *      INCLUDES
   8:Middlewares/lvgl/src/misc/lv_color.c ****  *********************/
   9:Middlewares/lvgl/src/misc/lv_color.c **** #include "lv_color.h"
  10:Middlewares/lvgl/src/misc/lv_color.c **** #include "lv_log.h"
  11:Middlewares/lvgl/src/misc/lv_color.c **** 
  12:Middlewares/lvgl/src/misc/lv_color.c **** /*********************
  13:Middlewares/lvgl/src/misc/lv_color.c ****  *      DEFINES
  14:Middlewares/lvgl/src/misc/lv_color.c ****  *********************/
  15:Middlewares/lvgl/src/misc/lv_color.c **** 
  16:Middlewares/lvgl/src/misc/lv_color.c **** /**********************
  17:Middlewares/lvgl/src/misc/lv_color.c ****  *      TYPEDEFS
  18:Middlewares/lvgl/src/misc/lv_color.c ****  **********************/
  19:Middlewares/lvgl/src/misc/lv_color.c **** 
  20:Middlewares/lvgl/src/misc/lv_color.c **** /**********************
  21:Middlewares/lvgl/src/misc/lv_color.c ****  *  STATIC PROTOTYPES
  22:Middlewares/lvgl/src/misc/lv_color.c ****  **********************/
  23:Middlewares/lvgl/src/misc/lv_color.c **** 
  24:Middlewares/lvgl/src/misc/lv_color.c **** /**********************
  25:Middlewares/lvgl/src/misc/lv_color.c ****  *  STATIC VARIABLES
  26:Middlewares/lvgl/src/misc/lv_color.c ****  **********************/
  27:Middlewares/lvgl/src/misc/lv_color.c **** 
  28:Middlewares/lvgl/src/misc/lv_color.c **** /**********************
  29:Middlewares/lvgl/src/misc/lv_color.c ****  *      MACROS
ARM GAS  /tmp/ccKaNmJL.s 			page 2


  30:Middlewares/lvgl/src/misc/lv_color.c ****  **********************/
  31:Middlewares/lvgl/src/misc/lv_color.c **** 
  32:Middlewares/lvgl/src/misc/lv_color.c **** /**********************
  33:Middlewares/lvgl/src/misc/lv_color.c ****  *   GLOBAL FUNCTIONS
  34:Middlewares/lvgl/src/misc/lv_color.c ****  **********************/
  35:Middlewares/lvgl/src/misc/lv_color.c **** 
  36:Middlewares/lvgl/src/misc/lv_color.c **** LV_ATTRIBUTE_FAST_MEM void lv_color_fill(lv_color_t * buf, lv_color_t color, uint32_t px_num)
  37:Middlewares/lvgl/src/misc/lv_color.c **** {
  30              		.loc 1 37 1 view -0
  31              		.cfi_startproc
  32              		@ args = 0, pretend = 0, frame = 0
  33              		@ frame_needed = 0, uses_anonymous_args = 0
  34              		@ link register save eliminated.
  38:Middlewares/lvgl/src/misc/lv_color.c **** #if LV_COLOR_DEPTH == 16
  39:Middlewares/lvgl/src/misc/lv_color.c ****     uintptr_t buf_int = (uintptr_t) buf;
  35              		.loc 1 39 5 view .LVU1
  40:Middlewares/lvgl/src/misc/lv_color.c ****     if(buf_int & 0x3) {
  36              		.loc 1 40 5 view .LVU2
  37              		.loc 1 40 7 is_stmt 0 view .LVU3
  38 0000 10F0030F 		tst	r0, #3
  39 0004 02D0     		beq	.L2
  41:Middlewares/lvgl/src/misc/lv_color.c ****         *buf = color;
  40              		.loc 1 41 9 is_stmt 1 view .LVU4
  41              		.loc 1 41 14 is_stmt 0 view .LVU5
  42 0006 20F8021B 		strh	r1, [r0], #2	@ movhi
  43              	.LVL1:
  42:Middlewares/lvgl/src/misc/lv_color.c ****         buf++;
  44              		.loc 1 42 9 is_stmt 1 view .LVU6
  43:Middlewares/lvgl/src/misc/lv_color.c ****         px_num--;
  45              		.loc 1 43 9 view .LVU7
  46              		.loc 1 43 15 is_stmt 0 view .LVU8
  47 000a 013A     		subs	r2, r2, #1
  48              	.LVL2:
  49              	.L2:
  44:Middlewares/lvgl/src/misc/lv_color.c ****     }
  45:Middlewares/lvgl/src/misc/lv_color.c **** 
  46:Middlewares/lvgl/src/misc/lv_color.c ****     uint32_t c32 = (uint32_t)color.full + ((uint32_t)color.full << 16);
  50              		.loc 1 46 5 is_stmt 1 view .LVU9
  51              		.loc 1 46 65 is_stmt 0 view .LVU10
  52 000c 0B04     		lsls	r3, r1, #16
  53              		.loc 1 46 14 view .LVU11
  54 000e 13FA81F3 		uxtah	r3, r3, r1
  55              	.LVL3:
  47:Middlewares/lvgl/src/misc/lv_color.c ****     uint32_t * buf32 = (uint32_t *)buf;
  56              		.loc 1 47 5 is_stmt 1 view .LVU12
  48:Middlewares/lvgl/src/misc/lv_color.c **** 
  49:Middlewares/lvgl/src/misc/lv_color.c ****     while(px_num > 16) {
  57              		.loc 1 49 5 view .LVU13
  58              		.loc 1 49 10 is_stmt 0 view .LVU14
  59 0012 09E0     		b	.L3
  60              	.LVL4:
  61              	.L4:
  50:Middlewares/lvgl/src/misc/lv_color.c ****         *buf32 = c32;
  62              		.loc 1 50 9 is_stmt 1 view .LVU15
  63              		.loc 1 50 16 is_stmt 0 view .LVU16
  64 0014 0360     		str	r3, [r0]
  51:Middlewares/lvgl/src/misc/lv_color.c ****         buf32++;
ARM GAS  /tmp/ccKaNmJL.s 			page 3


  65              		.loc 1 51 9 is_stmt 1 view .LVU17
  66              	.LVL5:
  52:Middlewares/lvgl/src/misc/lv_color.c ****         *buf32 = c32;
  67              		.loc 1 52 9 view .LVU18
  68              		.loc 1 52 16 is_stmt 0 view .LVU19
  69 0016 4360     		str	r3, [r0, #4]
  53:Middlewares/lvgl/src/misc/lv_color.c ****         buf32++;
  70              		.loc 1 53 9 is_stmt 1 view .LVU20
  71              	.LVL6:
  54:Middlewares/lvgl/src/misc/lv_color.c ****         *buf32 = c32;
  72              		.loc 1 54 9 view .LVU21
  73              		.loc 1 54 16 is_stmt 0 view .LVU22
  74 0018 8360     		str	r3, [r0, #8]
  55:Middlewares/lvgl/src/misc/lv_color.c ****         buf32++;
  75              		.loc 1 55 9 is_stmt 1 view .LVU23
  76              	.LVL7:
  56:Middlewares/lvgl/src/misc/lv_color.c ****         *buf32 = c32;
  77              		.loc 1 56 9 view .LVU24
  78              		.loc 1 56 16 is_stmt 0 view .LVU25
  79 001a C360     		str	r3, [r0, #12]
  57:Middlewares/lvgl/src/misc/lv_color.c ****         buf32++;
  80              		.loc 1 57 9 is_stmt 1 view .LVU26
  81              	.LVL8:
  58:Middlewares/lvgl/src/misc/lv_color.c **** 
  59:Middlewares/lvgl/src/misc/lv_color.c ****         *buf32 = c32;
  82              		.loc 1 59 9 view .LVU27
  83              		.loc 1 59 16 is_stmt 0 view .LVU28
  84 001c 0361     		str	r3, [r0, #16]
  60:Middlewares/lvgl/src/misc/lv_color.c ****         buf32++;
  85              		.loc 1 60 9 is_stmt 1 view .LVU29
  86              	.LVL9:
  61:Middlewares/lvgl/src/misc/lv_color.c ****         *buf32 = c32;
  87              		.loc 1 61 9 view .LVU30
  88              		.loc 1 61 16 is_stmt 0 view .LVU31
  89 001e 4361     		str	r3, [r0, #20]
  62:Middlewares/lvgl/src/misc/lv_color.c ****         buf32++;
  90              		.loc 1 62 9 is_stmt 1 view .LVU32
  91              	.LVL10:
  63:Middlewares/lvgl/src/misc/lv_color.c ****         *buf32 = c32;
  92              		.loc 1 63 9 view .LVU33
  93              		.loc 1 63 16 is_stmt 0 view .LVU34
  94 0020 8361     		str	r3, [r0, #24]
  64:Middlewares/lvgl/src/misc/lv_color.c ****         buf32++;
  95              		.loc 1 64 9 is_stmt 1 view .LVU35
  96              	.LVL11:
  65:Middlewares/lvgl/src/misc/lv_color.c ****         *buf32 = c32;
  97              		.loc 1 65 9 view .LVU36
  98              		.loc 1 65 16 is_stmt 0 view .LVU37
  99 0022 C361     		str	r3, [r0, #28]
  66:Middlewares/lvgl/src/misc/lv_color.c ****         buf32++;
 100              		.loc 1 66 9 is_stmt 1 view .LVU38
 101              		.loc 1 66 14 is_stmt 0 view .LVU39
 102 0024 2030     		adds	r0, r0, #32
 103              	.LVL12:
  67:Middlewares/lvgl/src/misc/lv_color.c **** 
  68:Middlewares/lvgl/src/misc/lv_color.c ****         px_num -= 16;
 104              		.loc 1 68 9 is_stmt 1 view .LVU40
ARM GAS  /tmp/ccKaNmJL.s 			page 4


 105              		.loc 1 68 16 is_stmt 0 view .LVU41
 106 0026 103A     		subs	r2, r2, #16
 107              	.LVL13:
 108              	.L3:
  49:Middlewares/lvgl/src/misc/lv_color.c ****         *buf32 = c32;
 109              		.loc 1 49 10 is_stmt 1 view .LVU42
 110 0028 102A     		cmp	r2, #16
 111 002a F3D8     		bhi	.L4
  49:Middlewares/lvgl/src/misc/lv_color.c ****         *buf32 = c32;
 112              		.loc 1 49 10 is_stmt 0 view .LVU43
 113 002c 02E0     		b	.L5
 114              	.LVL14:
 115              	.L6:
  69:Middlewares/lvgl/src/misc/lv_color.c ****     }
  70:Middlewares/lvgl/src/misc/lv_color.c **** 
  71:Middlewares/lvgl/src/misc/lv_color.c ****     buf = (lv_color_t *)buf32;
  72:Middlewares/lvgl/src/misc/lv_color.c **** 
  73:Middlewares/lvgl/src/misc/lv_color.c ****     while(px_num) {
  74:Middlewares/lvgl/src/misc/lv_color.c ****         *buf = color;
 116              		.loc 1 74 9 is_stmt 1 view .LVU44
 117              		.loc 1 74 14 is_stmt 0 view .LVU45
 118 002e 20F8021B 		strh	r1, [r0], #2	@ movhi
 119              	.LVL15:
  75:Middlewares/lvgl/src/misc/lv_color.c ****         buf++;
 120              		.loc 1 75 9 is_stmt 1 view .LVU46
  76:Middlewares/lvgl/src/misc/lv_color.c ****         px_num --;
 121              		.loc 1 76 9 view .LVU47
 122              		.loc 1 76 16 is_stmt 0 view .LVU48
 123 0032 013A     		subs	r2, r2, #1
 124              	.LVL16:
 125              	.L5:
  73:Middlewares/lvgl/src/misc/lv_color.c ****         *buf = color;
 126              		.loc 1 73 10 is_stmt 1 view .LVU49
 127 0034 002A     		cmp	r2, #0
 128 0036 FAD1     		bne	.L6
  77:Middlewares/lvgl/src/misc/lv_color.c ****     }
  78:Middlewares/lvgl/src/misc/lv_color.c **** #else
  79:Middlewares/lvgl/src/misc/lv_color.c ****     while(px_num > 16) {
  80:Middlewares/lvgl/src/misc/lv_color.c ****         *buf = color;
  81:Middlewares/lvgl/src/misc/lv_color.c ****         buf++;
  82:Middlewares/lvgl/src/misc/lv_color.c ****         *buf = color;
  83:Middlewares/lvgl/src/misc/lv_color.c ****         buf++;
  84:Middlewares/lvgl/src/misc/lv_color.c ****         *buf = color;
  85:Middlewares/lvgl/src/misc/lv_color.c ****         buf++;
  86:Middlewares/lvgl/src/misc/lv_color.c ****         *buf = color;
  87:Middlewares/lvgl/src/misc/lv_color.c ****         buf++;
  88:Middlewares/lvgl/src/misc/lv_color.c **** 
  89:Middlewares/lvgl/src/misc/lv_color.c ****         *buf = color;
  90:Middlewares/lvgl/src/misc/lv_color.c ****         buf++;
  91:Middlewares/lvgl/src/misc/lv_color.c ****         *buf = color;
  92:Middlewares/lvgl/src/misc/lv_color.c ****         buf++;
  93:Middlewares/lvgl/src/misc/lv_color.c ****         *buf = color;
  94:Middlewares/lvgl/src/misc/lv_color.c ****         buf++;
  95:Middlewares/lvgl/src/misc/lv_color.c ****         *buf = color;
  96:Middlewares/lvgl/src/misc/lv_color.c ****         buf++;
  97:Middlewares/lvgl/src/misc/lv_color.c **** 
  98:Middlewares/lvgl/src/misc/lv_color.c ****         *buf = color;
ARM GAS  /tmp/ccKaNmJL.s 			page 5


  99:Middlewares/lvgl/src/misc/lv_color.c ****         buf++;
 100:Middlewares/lvgl/src/misc/lv_color.c ****         *buf = color;
 101:Middlewares/lvgl/src/misc/lv_color.c ****         buf++;
 102:Middlewares/lvgl/src/misc/lv_color.c ****         *buf = color;
 103:Middlewares/lvgl/src/misc/lv_color.c ****         buf++;
 104:Middlewares/lvgl/src/misc/lv_color.c ****         *buf = color;
 105:Middlewares/lvgl/src/misc/lv_color.c ****         buf++;
 106:Middlewares/lvgl/src/misc/lv_color.c **** 
 107:Middlewares/lvgl/src/misc/lv_color.c ****         *buf = color;
 108:Middlewares/lvgl/src/misc/lv_color.c ****         buf++;
 109:Middlewares/lvgl/src/misc/lv_color.c ****         *buf = color;
 110:Middlewares/lvgl/src/misc/lv_color.c ****         buf++;
 111:Middlewares/lvgl/src/misc/lv_color.c ****         *buf = color;
 112:Middlewares/lvgl/src/misc/lv_color.c ****         buf++;
 113:Middlewares/lvgl/src/misc/lv_color.c ****         *buf = color;
 114:Middlewares/lvgl/src/misc/lv_color.c ****         buf++;
 115:Middlewares/lvgl/src/misc/lv_color.c **** 
 116:Middlewares/lvgl/src/misc/lv_color.c ****         px_num -= 16;
 117:Middlewares/lvgl/src/misc/lv_color.c ****     }
 118:Middlewares/lvgl/src/misc/lv_color.c ****     while(px_num) {
 119:Middlewares/lvgl/src/misc/lv_color.c ****         *buf = color;
 120:Middlewares/lvgl/src/misc/lv_color.c ****         buf++;
 121:Middlewares/lvgl/src/misc/lv_color.c ****         px_num --;
 122:Middlewares/lvgl/src/misc/lv_color.c ****     }
 123:Middlewares/lvgl/src/misc/lv_color.c **** #endif
 124:Middlewares/lvgl/src/misc/lv_color.c **** }
 129              		.loc 1 124 1 is_stmt 0 view .LVU50
 130 0038 7047     		bx	lr
 131              		.cfi_endproc
 132              	.LFE17:
 134              		.section	.text.lv_color_lighten,"ax",%progbits
 135              		.align	1
 136              		.global	lv_color_lighten
 137              		.syntax unified
 138              		.thumb
 139              		.thumb_func
 141              	lv_color_lighten:
 142              	.LVL17:
 143              	.LFB18:
 125:Middlewares/lvgl/src/misc/lv_color.c **** 
 126:Middlewares/lvgl/src/misc/lv_color.c **** lv_color_t lv_color_lighten(lv_color_t c, lv_opa_t lvl)
 127:Middlewares/lvgl/src/misc/lv_color.c **** {
 144              		.loc 1 127 1 is_stmt 1 view -0
 145              		.cfi_startproc
 146              		@ args = 0, pretend = 0, frame = 0
 147              		@ frame_needed = 0, uses_anonymous_args = 0
 148              		.loc 1 127 1 is_stmt 0 view .LVU52
 149 0000 10B5     		push	{r4, lr}
 150              	.LCFI0:
 151              		.cfi_def_cfa_offset 8
 152              		.cfi_offset 4, -8
 153              		.cfi_offset 14, -4
 154 0002 8446     		mov	ip, r0	@ movhi
 155              	.LVL18:
 128:Middlewares/lvgl/src/misc/lv_color.c ****     return lv_color_mix(lv_color_white(), c, lvl);
 156              		.loc 1 128 5 is_stmt 1 view .LVU53
 157              	.LBB43:
ARM GAS  /tmp/ccKaNmJL.s 			page 6


 158              	.LBI43:
 159              		.file 2 "Middlewares/lvgl/src/misc/lv_color.h"
   1:Middlewares/lvgl/src/misc/lv_color.h **** /**
   2:Middlewares/lvgl/src/misc/lv_color.h ****  * @file lv_color.h
   3:Middlewares/lvgl/src/misc/lv_color.h ****  *
   4:Middlewares/lvgl/src/misc/lv_color.h ****  */
   5:Middlewares/lvgl/src/misc/lv_color.h **** 
   6:Middlewares/lvgl/src/misc/lv_color.h **** #ifndef LV_COLOR_H
   7:Middlewares/lvgl/src/misc/lv_color.h **** #define LV_COLOR_H
   8:Middlewares/lvgl/src/misc/lv_color.h **** 
   9:Middlewares/lvgl/src/misc/lv_color.h **** #ifdef __cplusplus
  10:Middlewares/lvgl/src/misc/lv_color.h **** extern "C" {
  11:Middlewares/lvgl/src/misc/lv_color.h **** #endif
  12:Middlewares/lvgl/src/misc/lv_color.h **** 
  13:Middlewares/lvgl/src/misc/lv_color.h **** /*********************
  14:Middlewares/lvgl/src/misc/lv_color.h ****  *      INCLUDES
  15:Middlewares/lvgl/src/misc/lv_color.h ****  *********************/
  16:Middlewares/lvgl/src/misc/lv_color.h **** #include "../lv_conf_internal.h"
  17:Middlewares/lvgl/src/misc/lv_color.h **** #include "lv_math.h"
  18:Middlewares/lvgl/src/misc/lv_color.h **** #include "lv_types.h"
  19:Middlewares/lvgl/src/misc/lv_color.h **** 
  20:Middlewares/lvgl/src/misc/lv_color.h **** /*Error checking*/
  21:Middlewares/lvgl/src/misc/lv_color.h **** #if LV_COLOR_DEPTH == 24
  22:Middlewares/lvgl/src/misc/lv_color.h **** #error "LV_COLOR_DEPTH 24 is deprecated. Use LV_COLOR_DEPTH 32 instead (lv_conf.h)"
  23:Middlewares/lvgl/src/misc/lv_color.h **** #endif
  24:Middlewares/lvgl/src/misc/lv_color.h **** 
  25:Middlewares/lvgl/src/misc/lv_color.h **** #if LV_COLOR_DEPTH != 32 && LV_COLOR_SCREEN_TRANSP != 0
  26:Middlewares/lvgl/src/misc/lv_color.h **** #error "LV_COLOR_SCREEN_TRANSP requires LV_COLOR_DEPTH == 32. Set it in lv_conf.h"
  27:Middlewares/lvgl/src/misc/lv_color.h **** #endif
  28:Middlewares/lvgl/src/misc/lv_color.h **** 
  29:Middlewares/lvgl/src/misc/lv_color.h **** #if LV_COLOR_DEPTH != 16 && LV_COLOR_16_SWAP != 0
  30:Middlewares/lvgl/src/misc/lv_color.h **** #error "LV_COLOR_16_SWAP requires LV_COLOR_DEPTH == 16. Set it in lv_conf.h"
  31:Middlewares/lvgl/src/misc/lv_color.h **** #endif
  32:Middlewares/lvgl/src/misc/lv_color.h **** 
  33:Middlewares/lvgl/src/misc/lv_color.h **** #include <stdint.h>
  34:Middlewares/lvgl/src/misc/lv_color.h **** 
  35:Middlewares/lvgl/src/misc/lv_color.h **** /*********************
  36:Middlewares/lvgl/src/misc/lv_color.h ****  *      DEFINES
  37:Middlewares/lvgl/src/misc/lv_color.h ****  *********************/
  38:Middlewares/lvgl/src/misc/lv_color.h **** 
  39:Middlewares/lvgl/src/misc/lv_color.h **** /**
  40:Middlewares/lvgl/src/misc/lv_color.h ****  * Opacity percentages.
  41:Middlewares/lvgl/src/misc/lv_color.h ****  */
  42:Middlewares/lvgl/src/misc/lv_color.h **** enum {
  43:Middlewares/lvgl/src/misc/lv_color.h ****     LV_OPA_TRANSP = 0,
  44:Middlewares/lvgl/src/misc/lv_color.h ****     LV_OPA_0      = 0,
  45:Middlewares/lvgl/src/misc/lv_color.h ****     LV_OPA_10     = 25,
  46:Middlewares/lvgl/src/misc/lv_color.h ****     LV_OPA_20     = 51,
  47:Middlewares/lvgl/src/misc/lv_color.h ****     LV_OPA_30     = 76,
  48:Middlewares/lvgl/src/misc/lv_color.h ****     LV_OPA_40     = 102,
  49:Middlewares/lvgl/src/misc/lv_color.h ****     LV_OPA_50     = 127,
  50:Middlewares/lvgl/src/misc/lv_color.h ****     LV_OPA_60     = 153,
  51:Middlewares/lvgl/src/misc/lv_color.h ****     LV_OPA_70     = 178,
  52:Middlewares/lvgl/src/misc/lv_color.h ****     LV_OPA_80     = 204,
  53:Middlewares/lvgl/src/misc/lv_color.h ****     LV_OPA_90     = 229,
  54:Middlewares/lvgl/src/misc/lv_color.h ****     LV_OPA_100    = 255,
  55:Middlewares/lvgl/src/misc/lv_color.h ****     LV_OPA_COVER  = 255,
ARM GAS  /tmp/ccKaNmJL.s 			page 7


  56:Middlewares/lvgl/src/misc/lv_color.h **** };
  57:Middlewares/lvgl/src/misc/lv_color.h **** 
  58:Middlewares/lvgl/src/misc/lv_color.h **** #define LV_OPA_MIN 2    /*Opacities below this will be transparent*/
  59:Middlewares/lvgl/src/misc/lv_color.h **** #define LV_OPA_MAX 253  /*Opacities above this will fully cover*/
  60:Middlewares/lvgl/src/misc/lv_color.h **** 
  61:Middlewares/lvgl/src/misc/lv_color.h **** #if LV_COLOR_DEPTH == 1
  62:Middlewares/lvgl/src/misc/lv_color.h **** #define LV_COLOR_SIZE 8
  63:Middlewares/lvgl/src/misc/lv_color.h **** #elif LV_COLOR_DEPTH == 8
  64:Middlewares/lvgl/src/misc/lv_color.h **** #define LV_COLOR_SIZE 8
  65:Middlewares/lvgl/src/misc/lv_color.h **** #elif LV_COLOR_DEPTH == 16
  66:Middlewares/lvgl/src/misc/lv_color.h **** #define LV_COLOR_SIZE 16
  67:Middlewares/lvgl/src/misc/lv_color.h **** #elif LV_COLOR_DEPTH == 32
  68:Middlewares/lvgl/src/misc/lv_color.h **** #define LV_COLOR_SIZE 32
  69:Middlewares/lvgl/src/misc/lv_color.h **** #else
  70:Middlewares/lvgl/src/misc/lv_color.h **** #error "Invalid LV_COLOR_DEPTH in lv_conf.h! Set it to 1, 8, 16 or 32!"
  71:Middlewares/lvgl/src/misc/lv_color.h **** #endif
  72:Middlewares/lvgl/src/misc/lv_color.h **** 
  73:Middlewares/lvgl/src/misc/lv_color.h **** /**
  74:Middlewares/lvgl/src/misc/lv_color.h ****  * Adjust color mix functions rounding.
  75:Middlewares/lvgl/src/misc/lv_color.h ****  * GPUs might calculate color mix (blending) differently.
  76:Middlewares/lvgl/src/misc/lv_color.h ****  * Should be in range of 0..254
  77:Middlewares/lvgl/src/misc/lv_color.h ****  * 0: no adjustment, get the integer part of the result (round down)
  78:Middlewares/lvgl/src/misc/lv_color.h ****  * 64: round up from x.75
  79:Middlewares/lvgl/src/misc/lv_color.h ****  * 128: round up from half
  80:Middlewares/lvgl/src/misc/lv_color.h ****  * 192: round up from x.25
  81:Middlewares/lvgl/src/misc/lv_color.h ****  * 254: round up*/
  82:Middlewares/lvgl/src/misc/lv_color.h **** #ifndef LV_COLOR_MIX_ROUND_OFS
  83:Middlewares/lvgl/src/misc/lv_color.h **** #if LV_COLOR_DEPTH == 32
  84:Middlewares/lvgl/src/misc/lv_color.h **** #define LV_COLOR_MIX_ROUND_OFS 0
  85:Middlewares/lvgl/src/misc/lv_color.h **** #else
  86:Middlewares/lvgl/src/misc/lv_color.h **** #define LV_COLOR_MIX_ROUND_OFS 128
  87:Middlewares/lvgl/src/misc/lv_color.h **** #endif
  88:Middlewares/lvgl/src/misc/lv_color.h **** #endif
  89:Middlewares/lvgl/src/misc/lv_color.h **** 
  90:Middlewares/lvgl/src/misc/lv_color.h **** #if defined(__cplusplus) && !defined(_LV_COLOR_HAS_MODERN_CPP)
  91:Middlewares/lvgl/src/misc/lv_color.h **** /**
  92:Middlewares/lvgl/src/misc/lv_color.h **** * MSVC compiler's definition of the __cplusplus indicating 199711L regardless to C++ standard versi
  93:Middlewares/lvgl/src/misc/lv_color.h **** * see https://devblogs.microsoft.com/cppblog/msvc-now-correctly-reports-cplusplus
  94:Middlewares/lvgl/src/misc/lv_color.h **** * so we use _MSC_VER macro instead of __cplusplus
  95:Middlewares/lvgl/src/misc/lv_color.h **** */
  96:Middlewares/lvgl/src/misc/lv_color.h **** #ifdef _MSC_VER
  97:Middlewares/lvgl/src/misc/lv_color.h **** #if _MSC_VER >= 1900 /*Visual Studio 2015*/
  98:Middlewares/lvgl/src/misc/lv_color.h **** #define _LV_COLOR_HAS_MODERN_CPP 1
  99:Middlewares/lvgl/src/misc/lv_color.h **** #endif
 100:Middlewares/lvgl/src/misc/lv_color.h **** #else
 101:Middlewares/lvgl/src/misc/lv_color.h **** #if __cplusplus >= 201103L
 102:Middlewares/lvgl/src/misc/lv_color.h **** #define _LV_COLOR_HAS_MODERN_CPP 1
 103:Middlewares/lvgl/src/misc/lv_color.h **** #endif
 104:Middlewares/lvgl/src/misc/lv_color.h **** #endif
 105:Middlewares/lvgl/src/misc/lv_color.h **** #endif /*__cplusplus*/
 106:Middlewares/lvgl/src/misc/lv_color.h **** 
 107:Middlewares/lvgl/src/misc/lv_color.h **** #ifndef _LV_COLOR_HAS_MODERN_CPP
 108:Middlewares/lvgl/src/misc/lv_color.h **** #define _LV_COLOR_HAS_MODERN_CPP 0
 109:Middlewares/lvgl/src/misc/lv_color.h **** #endif
 110:Middlewares/lvgl/src/misc/lv_color.h **** 
 111:Middlewares/lvgl/src/misc/lv_color.h **** #if _LV_COLOR_HAS_MODERN_CPP
 112:Middlewares/lvgl/src/misc/lv_color.h **** /*Fix msvc compiler error C4576 inside C++ code*/
ARM GAS  /tmp/ccKaNmJL.s 			page 8


 113:Middlewares/lvgl/src/misc/lv_color.h **** #define _LV_COLOR_MAKE_TYPE_HELPER lv_color_t
 114:Middlewares/lvgl/src/misc/lv_color.h **** #else
 115:Middlewares/lvgl/src/misc/lv_color.h **** #define _LV_COLOR_MAKE_TYPE_HELPER (lv_color_t)
 116:Middlewares/lvgl/src/misc/lv_color.h **** #endif
 117:Middlewares/lvgl/src/misc/lv_color.h **** 
 118:Middlewares/lvgl/src/misc/lv_color.h **** /*---------------------------------------
 119:Middlewares/lvgl/src/misc/lv_color.h ****  * Macros for all existing color depths
 120:Middlewares/lvgl/src/misc/lv_color.h ****  * to set/get values of the color channels
 121:Middlewares/lvgl/src/misc/lv_color.h ****  *------------------------------------------*/
 122:Middlewares/lvgl/src/misc/lv_color.h **** # define LV_COLOR_SET_R1(c, v) (c).ch.red = (uint8_t)((v) & 0x1)
 123:Middlewares/lvgl/src/misc/lv_color.h **** # define LV_COLOR_SET_G1(c, v) (c).ch.green = (uint8_t)((v) & 0x1)
 124:Middlewares/lvgl/src/misc/lv_color.h **** # define LV_COLOR_SET_B1(c, v) (c).ch.blue = (uint8_t)((v) & 0x1)
 125:Middlewares/lvgl/src/misc/lv_color.h **** # define LV_COLOR_SET_A1(c, v) do {} while(0)
 126:Middlewares/lvgl/src/misc/lv_color.h **** 
 127:Middlewares/lvgl/src/misc/lv_color.h **** # define LV_COLOR_GET_R1(c) (c).ch.red
 128:Middlewares/lvgl/src/misc/lv_color.h **** # define LV_COLOR_GET_G1(c) (c).ch.green
 129:Middlewares/lvgl/src/misc/lv_color.h **** # define LV_COLOR_GET_B1(c) (c).ch.blue
 130:Middlewares/lvgl/src/misc/lv_color.h **** # define LV_COLOR_GET_A1(c) 0xFF
 131:Middlewares/lvgl/src/misc/lv_color.h **** 
 132:Middlewares/lvgl/src/misc/lv_color.h **** # define _LV_COLOR_ZERO_INITIALIZER1 {0x00}
 133:Middlewares/lvgl/src/misc/lv_color.h **** # define LV_COLOR_MAKE1(r8, g8, b8)  {(uint8_t)((b8 >> 7) | (g8 >> 7) | (r8 >> 7))}
 134:Middlewares/lvgl/src/misc/lv_color.h **** 
 135:Middlewares/lvgl/src/misc/lv_color.h **** # define LV_COLOR_SET_R8(c, v) (c).ch.red = (uint8_t)((v) & 0x7U)
 136:Middlewares/lvgl/src/misc/lv_color.h **** # define LV_COLOR_SET_G8(c, v) (c).ch.green = (uint8_t)((v) & 0x7U)
 137:Middlewares/lvgl/src/misc/lv_color.h **** # define LV_COLOR_SET_B8(c, v) (c).ch.blue = (uint8_t)((v) & 0x3U)
 138:Middlewares/lvgl/src/misc/lv_color.h **** # define LV_COLOR_SET_A8(c, v) do {} while(0)
 139:Middlewares/lvgl/src/misc/lv_color.h **** 
 140:Middlewares/lvgl/src/misc/lv_color.h **** # define LV_COLOR_GET_R8(c) (c).ch.red
 141:Middlewares/lvgl/src/misc/lv_color.h **** # define LV_COLOR_GET_G8(c) (c).ch.green
 142:Middlewares/lvgl/src/misc/lv_color.h **** # define LV_COLOR_GET_B8(c) (c).ch.blue
 143:Middlewares/lvgl/src/misc/lv_color.h **** # define LV_COLOR_GET_A8(c) 0xFF
 144:Middlewares/lvgl/src/misc/lv_color.h **** 
 145:Middlewares/lvgl/src/misc/lv_color.h **** # define _LV_COLOR_ZERO_INITIALIZER8 _LV_COLOR_MAKE_TYPE_HELPER {{0x00, 0x00, 0x00}}
 146:Middlewares/lvgl/src/misc/lv_color.h **** # define LV_COLOR_MAKE8(r8, g8, b8) _LV_COLOR_MAKE_TYPE_HELPER  {{(uint8_t)((b8 >> 6) & 0x3U), (uin
 147:Middlewares/lvgl/src/misc/lv_color.h **** 
 148:Middlewares/lvgl/src/misc/lv_color.h **** # define LV_COLOR_SET_R16(c, v) (c).ch.red = (uint8_t)((v) & 0x1FU)
 149:Middlewares/lvgl/src/misc/lv_color.h **** #if LV_COLOR_16_SWAP == 0
 150:Middlewares/lvgl/src/misc/lv_color.h **** # define LV_COLOR_SET_G16(c, v) (c).ch.green = (uint8_t)((v) & 0x3FU)
 151:Middlewares/lvgl/src/misc/lv_color.h **** #else
 152:Middlewares/lvgl/src/misc/lv_color.h **** # define LV_COLOR_SET_G16(c, v) {(c).ch.green_h = (uint8_t)(((v) >> 3) & 0x7); (c).ch.green_l = (ui
 153:Middlewares/lvgl/src/misc/lv_color.h **** #endif
 154:Middlewares/lvgl/src/misc/lv_color.h **** # define LV_COLOR_SET_B16(c, v) (c).ch.blue = (uint8_t)((v) & 0x1FU)
 155:Middlewares/lvgl/src/misc/lv_color.h **** # define LV_COLOR_SET_A16(c, v) do {} while(0)
 156:Middlewares/lvgl/src/misc/lv_color.h **** 
 157:Middlewares/lvgl/src/misc/lv_color.h **** # define LV_COLOR_GET_R16(c) (c).ch.red
 158:Middlewares/lvgl/src/misc/lv_color.h **** #if LV_COLOR_16_SWAP == 0
 159:Middlewares/lvgl/src/misc/lv_color.h **** # define LV_COLOR_GET_G16(c) (c).ch.green
 160:Middlewares/lvgl/src/misc/lv_color.h **** #else
 161:Middlewares/lvgl/src/misc/lv_color.h **** # define LV_COLOR_GET_G16(c) (((c).ch.green_h << 3) + (c).ch.green_l)
 162:Middlewares/lvgl/src/misc/lv_color.h **** #endif
 163:Middlewares/lvgl/src/misc/lv_color.h **** # define LV_COLOR_GET_B16(c) (c).ch.blue
 164:Middlewares/lvgl/src/misc/lv_color.h **** # define LV_COLOR_GET_A16(c) 0xFF
 165:Middlewares/lvgl/src/misc/lv_color.h **** 
 166:Middlewares/lvgl/src/misc/lv_color.h **** #if LV_COLOR_16_SWAP == 0
 167:Middlewares/lvgl/src/misc/lv_color.h **** # define _LV_COLOR_ZERO_INITIALIZER16  {{0x00, 0x00, 0x00}}
 168:Middlewares/lvgl/src/misc/lv_color.h **** # define LV_COLOR_MAKE16(r8, g8, b8) {{(uint8_t)((b8 >> 3) & 0x1FU), (uint8_t)((g8 >> 2) & 0x3FU), 
 169:Middlewares/lvgl/src/misc/lv_color.h **** #else
ARM GAS  /tmp/ccKaNmJL.s 			page 9


 170:Middlewares/lvgl/src/misc/lv_color.h **** # define _LV_COLOR_ZERO_INITIALIZER16 {{0x00, 0x00, 0x00, 0x00}}
 171:Middlewares/lvgl/src/misc/lv_color.h **** # define LV_COLOR_MAKE16(r8, g8, b8) {{(uint8_t)((g8 >> 5) & 0x7U), (uint8_t)((r8 >> 3) & 0x1FU), (
 172:Middlewares/lvgl/src/misc/lv_color.h **** #endif
 173:Middlewares/lvgl/src/misc/lv_color.h **** 
 174:Middlewares/lvgl/src/misc/lv_color.h **** # define LV_COLOR_SET_R32(c, v) (c).ch.red = (uint8_t)((v) & 0xFF)
 175:Middlewares/lvgl/src/misc/lv_color.h **** # define LV_COLOR_SET_G32(c, v) (c).ch.green = (uint8_t)((v) & 0xFF)
 176:Middlewares/lvgl/src/misc/lv_color.h **** # define LV_COLOR_SET_B32(c, v) (c).ch.blue = (uint8_t)((v) & 0xFF)
 177:Middlewares/lvgl/src/misc/lv_color.h **** # define LV_COLOR_SET_A32(c, v) (c).ch.alpha = (uint8_t)((v) & 0xFF)
 178:Middlewares/lvgl/src/misc/lv_color.h **** 
 179:Middlewares/lvgl/src/misc/lv_color.h **** # define LV_COLOR_GET_R32(c) (c).ch.red
 180:Middlewares/lvgl/src/misc/lv_color.h **** # define LV_COLOR_GET_G32(c) (c).ch.green
 181:Middlewares/lvgl/src/misc/lv_color.h **** # define LV_COLOR_GET_B32(c) (c).ch.blue
 182:Middlewares/lvgl/src/misc/lv_color.h **** # define LV_COLOR_GET_A32(c) (c).ch.alpha
 183:Middlewares/lvgl/src/misc/lv_color.h **** 
 184:Middlewares/lvgl/src/misc/lv_color.h **** # define _LV_COLOR_ZERO_INITIALIZER32  {{0x00, 0x00, 0x00, 0x00}}
 185:Middlewares/lvgl/src/misc/lv_color.h **** # define LV_COLOR_MAKE32(r8, g8, b8) {{b8, g8, r8, 0xff}} /*Fix 0xff alpha*/
 186:Middlewares/lvgl/src/misc/lv_color.h **** 
 187:Middlewares/lvgl/src/misc/lv_color.h **** /*---------------------------------------
 188:Middlewares/lvgl/src/misc/lv_color.h ****  * Macros for the current color depth
 189:Middlewares/lvgl/src/misc/lv_color.h ****  * to set/get values of the color channels
 190:Middlewares/lvgl/src/misc/lv_color.h ****  *------------------------------------------*/
 191:Middlewares/lvgl/src/misc/lv_color.h **** #define LV_COLOR_SET_R(c, v) LV_CONCAT(LV_COLOR_SET_R, LV_COLOR_DEPTH)(c, v)
 192:Middlewares/lvgl/src/misc/lv_color.h **** #define LV_COLOR_SET_G(c, v) LV_CONCAT(LV_COLOR_SET_G, LV_COLOR_DEPTH)(c, v)
 193:Middlewares/lvgl/src/misc/lv_color.h **** #define LV_COLOR_SET_B(c, v) LV_CONCAT(LV_COLOR_SET_B, LV_COLOR_DEPTH)(c, v)
 194:Middlewares/lvgl/src/misc/lv_color.h **** #define LV_COLOR_SET_A(c, v) LV_CONCAT(LV_COLOR_SET_A, LV_COLOR_DEPTH)(c, v)
 195:Middlewares/lvgl/src/misc/lv_color.h **** 
 196:Middlewares/lvgl/src/misc/lv_color.h **** #define LV_COLOR_GET_R(c) LV_CONCAT(LV_COLOR_GET_R, LV_COLOR_DEPTH)(c)
 197:Middlewares/lvgl/src/misc/lv_color.h **** #define LV_COLOR_GET_G(c) LV_CONCAT(LV_COLOR_GET_G, LV_COLOR_DEPTH)(c)
 198:Middlewares/lvgl/src/misc/lv_color.h **** #define LV_COLOR_GET_B(c) LV_CONCAT(LV_COLOR_GET_B, LV_COLOR_DEPTH)(c)
 199:Middlewares/lvgl/src/misc/lv_color.h **** #define LV_COLOR_GET_A(c) LV_CONCAT(LV_COLOR_GET_A, LV_COLOR_DEPTH)(c)
 200:Middlewares/lvgl/src/misc/lv_color.h **** 
 201:Middlewares/lvgl/src/misc/lv_color.h **** #define _LV_COLOR_ZERO_INITIALIZER LV_CONCAT(_LV_COLOR_ZERO_INITIALIZER, LV_COLOR_DEPTH)
 202:Middlewares/lvgl/src/misc/lv_color.h **** #define LV_COLOR_MAKE(r8, g8, b8) LV_CONCAT(LV_COLOR_MAKE, LV_COLOR_DEPTH)(r8, g8, b8)
 203:Middlewares/lvgl/src/misc/lv_color.h **** 
 204:Middlewares/lvgl/src/misc/lv_color.h **** #define LV_UDIV255(x) ((uint32_t)((uint32_t) (x) * 0x8081) >> 0x17)
 205:Middlewares/lvgl/src/misc/lv_color.h **** 
 206:Middlewares/lvgl/src/misc/lv_color.h **** /**********************
 207:Middlewares/lvgl/src/misc/lv_color.h ****  *      TYPEDEFS
 208:Middlewares/lvgl/src/misc/lv_color.h ****  **********************/
 209:Middlewares/lvgl/src/misc/lv_color.h **** 
 210:Middlewares/lvgl/src/misc/lv_color.h **** typedef union {
 211:Middlewares/lvgl/src/misc/lv_color.h ****     uint8_t full; /*must be declared first to set all bits of byte via initializer list*/
 212:Middlewares/lvgl/src/misc/lv_color.h ****     union {
 213:Middlewares/lvgl/src/misc/lv_color.h ****         uint8_t blue : 1;
 214:Middlewares/lvgl/src/misc/lv_color.h ****         uint8_t green : 1;
 215:Middlewares/lvgl/src/misc/lv_color.h ****         uint8_t red : 1;
 216:Middlewares/lvgl/src/misc/lv_color.h ****     } ch;
 217:Middlewares/lvgl/src/misc/lv_color.h **** } lv_color1_t;
 218:Middlewares/lvgl/src/misc/lv_color.h **** 
 219:Middlewares/lvgl/src/misc/lv_color.h **** typedef union {
 220:Middlewares/lvgl/src/misc/lv_color.h ****     struct {
 221:Middlewares/lvgl/src/misc/lv_color.h ****         uint8_t blue : 2;
 222:Middlewares/lvgl/src/misc/lv_color.h ****         uint8_t green : 3;
 223:Middlewares/lvgl/src/misc/lv_color.h ****         uint8_t red : 3;
 224:Middlewares/lvgl/src/misc/lv_color.h ****     } ch;
 225:Middlewares/lvgl/src/misc/lv_color.h ****     uint8_t full;
 226:Middlewares/lvgl/src/misc/lv_color.h **** } lv_color8_t;
ARM GAS  /tmp/ccKaNmJL.s 			page 10


 227:Middlewares/lvgl/src/misc/lv_color.h **** 
 228:Middlewares/lvgl/src/misc/lv_color.h **** typedef union {
 229:Middlewares/lvgl/src/misc/lv_color.h ****     struct {
 230:Middlewares/lvgl/src/misc/lv_color.h **** #if LV_COLOR_16_SWAP == 0
 231:Middlewares/lvgl/src/misc/lv_color.h ****         uint16_t blue : 5;
 232:Middlewares/lvgl/src/misc/lv_color.h ****         uint16_t green : 6;
 233:Middlewares/lvgl/src/misc/lv_color.h ****         uint16_t red : 5;
 234:Middlewares/lvgl/src/misc/lv_color.h **** #else
 235:Middlewares/lvgl/src/misc/lv_color.h ****         uint16_t green_h : 3;
 236:Middlewares/lvgl/src/misc/lv_color.h ****         uint16_t red : 5;
 237:Middlewares/lvgl/src/misc/lv_color.h ****         uint16_t blue : 5;
 238:Middlewares/lvgl/src/misc/lv_color.h ****         uint16_t green_l : 3;
 239:Middlewares/lvgl/src/misc/lv_color.h **** #endif
 240:Middlewares/lvgl/src/misc/lv_color.h ****     } ch;
 241:Middlewares/lvgl/src/misc/lv_color.h ****     uint16_t full;
 242:Middlewares/lvgl/src/misc/lv_color.h **** } lv_color16_t;
 243:Middlewares/lvgl/src/misc/lv_color.h **** 
 244:Middlewares/lvgl/src/misc/lv_color.h **** typedef union {
 245:Middlewares/lvgl/src/misc/lv_color.h ****     struct {
 246:Middlewares/lvgl/src/misc/lv_color.h ****         uint8_t blue;
 247:Middlewares/lvgl/src/misc/lv_color.h ****         uint8_t green;
 248:Middlewares/lvgl/src/misc/lv_color.h ****         uint8_t red;
 249:Middlewares/lvgl/src/misc/lv_color.h ****         uint8_t alpha;
 250:Middlewares/lvgl/src/misc/lv_color.h ****     } ch;
 251:Middlewares/lvgl/src/misc/lv_color.h ****     uint32_t full;
 252:Middlewares/lvgl/src/misc/lv_color.h **** } lv_color32_t;
 253:Middlewares/lvgl/src/misc/lv_color.h **** 
 254:Middlewares/lvgl/src/misc/lv_color.h **** typedef LV_CONCAT3(uint, LV_COLOR_SIZE, _t) lv_color_int_t;
 255:Middlewares/lvgl/src/misc/lv_color.h **** typedef LV_CONCAT3(lv_color, LV_COLOR_DEPTH, _t) lv_color_t;
 256:Middlewares/lvgl/src/misc/lv_color.h **** 
 257:Middlewares/lvgl/src/misc/lv_color.h **** typedef struct {
 258:Middlewares/lvgl/src/misc/lv_color.h ****     uint16_t h;
 259:Middlewares/lvgl/src/misc/lv_color.h ****     uint8_t s;
 260:Middlewares/lvgl/src/misc/lv_color.h ****     uint8_t v;
 261:Middlewares/lvgl/src/misc/lv_color.h **** } lv_color_hsv_t;
 262:Middlewares/lvgl/src/misc/lv_color.h **** 
 263:Middlewares/lvgl/src/misc/lv_color.h **** //! @cond Doxygen_Suppress
 264:Middlewares/lvgl/src/misc/lv_color.h **** /*No idea where the guard is required but else throws warnings in the docs*/
 265:Middlewares/lvgl/src/misc/lv_color.h **** typedef uint8_t lv_opa_t;
 266:Middlewares/lvgl/src/misc/lv_color.h **** //! @endcond
 267:Middlewares/lvgl/src/misc/lv_color.h **** 
 268:Middlewares/lvgl/src/misc/lv_color.h **** struct _lv_color_filter_dsc_t;
 269:Middlewares/lvgl/src/misc/lv_color.h **** 
 270:Middlewares/lvgl/src/misc/lv_color.h **** typedef lv_color_t (*lv_color_filter_cb_t)(const struct _lv_color_filter_dsc_t *, lv_color_t, lv_op
 271:Middlewares/lvgl/src/misc/lv_color.h **** 
 272:Middlewares/lvgl/src/misc/lv_color.h **** typedef struct _lv_color_filter_dsc_t {
 273:Middlewares/lvgl/src/misc/lv_color.h ****     lv_color_filter_cb_t filter_cb;
 274:Middlewares/lvgl/src/misc/lv_color.h ****     void * user_data;
 275:Middlewares/lvgl/src/misc/lv_color.h **** }lv_color_filter_dsc_t;
 276:Middlewares/lvgl/src/misc/lv_color.h **** 
 277:Middlewares/lvgl/src/misc/lv_color.h **** 
 278:Middlewares/lvgl/src/misc/lv_color.h **** typedef enum {
 279:Middlewares/lvgl/src/misc/lv_color.h ****     LV_PALETTE_RED,
 280:Middlewares/lvgl/src/misc/lv_color.h ****     LV_PALETTE_PINK,
 281:Middlewares/lvgl/src/misc/lv_color.h ****     LV_PALETTE_PURPLE,
 282:Middlewares/lvgl/src/misc/lv_color.h ****     LV_PALETTE_DEEP_PURPLE,
 283:Middlewares/lvgl/src/misc/lv_color.h ****     LV_PALETTE_INDIGO,
ARM GAS  /tmp/ccKaNmJL.s 			page 11


 284:Middlewares/lvgl/src/misc/lv_color.h ****     LV_PALETTE_BLUE,
 285:Middlewares/lvgl/src/misc/lv_color.h ****     LV_PALETTE_LIGHT_BLUE,
 286:Middlewares/lvgl/src/misc/lv_color.h ****     LV_PALETTE_CYAN,
 287:Middlewares/lvgl/src/misc/lv_color.h ****     LV_PALETTE_TEAL,
 288:Middlewares/lvgl/src/misc/lv_color.h ****     LV_PALETTE_GREEN,
 289:Middlewares/lvgl/src/misc/lv_color.h ****     LV_PALETTE_LIGHT_GREEN,
 290:Middlewares/lvgl/src/misc/lv_color.h ****     LV_PALETTE_LIME,
 291:Middlewares/lvgl/src/misc/lv_color.h ****     LV_PALETTE_YELLOW,
 292:Middlewares/lvgl/src/misc/lv_color.h ****     LV_PALETTE_AMBER,
 293:Middlewares/lvgl/src/misc/lv_color.h ****     LV_PALETTE_ORANGE,
 294:Middlewares/lvgl/src/misc/lv_color.h ****     LV_PALETTE_DEEP_ORANGE,
 295:Middlewares/lvgl/src/misc/lv_color.h ****     LV_PALETTE_BROWN,
 296:Middlewares/lvgl/src/misc/lv_color.h ****     LV_PALETTE_BLUE_GREY,
 297:Middlewares/lvgl/src/misc/lv_color.h ****     LV_PALETTE_GREY,
 298:Middlewares/lvgl/src/misc/lv_color.h ****     _LV_PALETTE_LAST,
 299:Middlewares/lvgl/src/misc/lv_color.h ****     LV_PALETTE_NONE = 0xff,
 300:Middlewares/lvgl/src/misc/lv_color.h **** }lv_palette_t;
 301:Middlewares/lvgl/src/misc/lv_color.h **** 
 302:Middlewares/lvgl/src/misc/lv_color.h **** /**********************
 303:Middlewares/lvgl/src/misc/lv_color.h ****  * GLOBAL PROTOTYPES
 304:Middlewares/lvgl/src/misc/lv_color.h ****  **********************/
 305:Middlewares/lvgl/src/misc/lv_color.h **** 
 306:Middlewares/lvgl/src/misc/lv_color.h **** /*In color conversations:
 307:Middlewares/lvgl/src/misc/lv_color.h ****  * - When converting to bigger color type the LSB weight of 1 LSB is calculated
 308:Middlewares/lvgl/src/misc/lv_color.h ****  *   E.g. 16 bit Red has 5 bits
 309:Middlewares/lvgl/src/misc/lv_color.h ****  *         8 bit Red has 3 bits
 310:Middlewares/lvgl/src/misc/lv_color.h ****  *        ----------------------
 311:Middlewares/lvgl/src/misc/lv_color.h ****  *        8 bit red LSB = (2^5 - 1) / (2^3 - 1) = 31 / 7 = 4
 312:Middlewares/lvgl/src/misc/lv_color.h ****  *
 313:Middlewares/lvgl/src/misc/lv_color.h ****  * - When calculating to smaller color type simply shift out the LSBs
 314:Middlewares/lvgl/src/misc/lv_color.h ****  *   E.g.  8 bit Red has 3 bits
 315:Middlewares/lvgl/src/misc/lv_color.h ****  *        16 bit Red has 5 bits
 316:Middlewares/lvgl/src/misc/lv_color.h ****  *        ----------------------
 317:Middlewares/lvgl/src/misc/lv_color.h ****  *         Shift right with 5 - 3 = 2
 318:Middlewares/lvgl/src/misc/lv_color.h ****  */
 319:Middlewares/lvgl/src/misc/lv_color.h **** static inline uint8_t lv_color_to1(lv_color_t color)
 320:Middlewares/lvgl/src/misc/lv_color.h **** {
 321:Middlewares/lvgl/src/misc/lv_color.h **** #if LV_COLOR_DEPTH == 1
 322:Middlewares/lvgl/src/misc/lv_color.h ****     return color.full;
 323:Middlewares/lvgl/src/misc/lv_color.h **** #elif LV_COLOR_DEPTH == 8
 324:Middlewares/lvgl/src/misc/lv_color.h ****     if((LV_COLOR_GET_R(color) & 0x4) || (LV_COLOR_GET_G(color) & 0x4) || (LV_COLOR_GET_B(color) & 0
 325:Middlewares/lvgl/src/misc/lv_color.h ****         return 1;
 326:Middlewares/lvgl/src/misc/lv_color.h ****     }
 327:Middlewares/lvgl/src/misc/lv_color.h ****     else {
 328:Middlewares/lvgl/src/misc/lv_color.h ****         return 0;
 329:Middlewares/lvgl/src/misc/lv_color.h ****     }
 330:Middlewares/lvgl/src/misc/lv_color.h **** #elif LV_COLOR_DEPTH == 16
 331:Middlewares/lvgl/src/misc/lv_color.h ****     if((LV_COLOR_GET_R(color) & 0x10) || (LV_COLOR_GET_G(color) & 0x20) || (LV_COLOR_GET_B(color) &
 332:Middlewares/lvgl/src/misc/lv_color.h ****         return 1;
 333:Middlewares/lvgl/src/misc/lv_color.h ****     }
 334:Middlewares/lvgl/src/misc/lv_color.h ****     else {
 335:Middlewares/lvgl/src/misc/lv_color.h ****         return 0;
 336:Middlewares/lvgl/src/misc/lv_color.h ****     }
 337:Middlewares/lvgl/src/misc/lv_color.h **** #elif LV_COLOR_DEPTH == 32
 338:Middlewares/lvgl/src/misc/lv_color.h ****     if((LV_COLOR_GET_R(color) & 0x80) || (LV_COLOR_GET_G(color) & 0x80) || (LV_COLOR_GET_B(color) &
 339:Middlewares/lvgl/src/misc/lv_color.h ****         return 1;
 340:Middlewares/lvgl/src/misc/lv_color.h ****     }
ARM GAS  /tmp/ccKaNmJL.s 			page 12


 341:Middlewares/lvgl/src/misc/lv_color.h ****     else {
 342:Middlewares/lvgl/src/misc/lv_color.h ****         return 0;
 343:Middlewares/lvgl/src/misc/lv_color.h ****     }
 344:Middlewares/lvgl/src/misc/lv_color.h **** #endif
 345:Middlewares/lvgl/src/misc/lv_color.h **** }
 346:Middlewares/lvgl/src/misc/lv_color.h **** 
 347:Middlewares/lvgl/src/misc/lv_color.h **** static inline uint8_t lv_color_to8(lv_color_t color)
 348:Middlewares/lvgl/src/misc/lv_color.h **** {
 349:Middlewares/lvgl/src/misc/lv_color.h **** #if LV_COLOR_DEPTH == 1
 350:Middlewares/lvgl/src/misc/lv_color.h ****     if(color.full == 0)
 351:Middlewares/lvgl/src/misc/lv_color.h ****         return 0;
 352:Middlewares/lvgl/src/misc/lv_color.h ****     else
 353:Middlewares/lvgl/src/misc/lv_color.h ****         return 0xFF;
 354:Middlewares/lvgl/src/misc/lv_color.h **** #elif LV_COLOR_DEPTH == 8
 355:Middlewares/lvgl/src/misc/lv_color.h ****     return color.full;
 356:Middlewares/lvgl/src/misc/lv_color.h **** #elif LV_COLOR_DEPTH == 16
 357:Middlewares/lvgl/src/misc/lv_color.h ****     lv_color8_t ret;
 358:Middlewares/lvgl/src/misc/lv_color.h ****     LV_COLOR_SET_R8(ret, LV_COLOR_GET_R(color) >> 2); /*5 - 3  = 2*/
 359:Middlewares/lvgl/src/misc/lv_color.h ****     LV_COLOR_SET_G8(ret, LV_COLOR_GET_G(color) >> 3); /*6 - 3  = 3*/
 360:Middlewares/lvgl/src/misc/lv_color.h ****     LV_COLOR_SET_B8(ret, LV_COLOR_GET_B(color) >> 3); /*5 - 2  = 3*/
 361:Middlewares/lvgl/src/misc/lv_color.h ****     return ret.full;
 362:Middlewares/lvgl/src/misc/lv_color.h **** #elif LV_COLOR_DEPTH == 32
 363:Middlewares/lvgl/src/misc/lv_color.h ****     lv_color8_t ret;
 364:Middlewares/lvgl/src/misc/lv_color.h ****     LV_COLOR_SET_R8(ret, LV_COLOR_GET_R(color) >> 5); /*8 - 3  = 5*/
 365:Middlewares/lvgl/src/misc/lv_color.h ****     LV_COLOR_SET_G8(ret, LV_COLOR_GET_G(color) >> 5); /*8 - 3  = 5*/
 366:Middlewares/lvgl/src/misc/lv_color.h ****     LV_COLOR_SET_B8(ret, LV_COLOR_GET_B(color) >> 6); /*8 - 2  = 6*/
 367:Middlewares/lvgl/src/misc/lv_color.h ****     return ret.full;
 368:Middlewares/lvgl/src/misc/lv_color.h **** #endif
 369:Middlewares/lvgl/src/misc/lv_color.h **** }
 370:Middlewares/lvgl/src/misc/lv_color.h **** 
 371:Middlewares/lvgl/src/misc/lv_color.h **** static inline uint16_t lv_color_to16(lv_color_t color)
 372:Middlewares/lvgl/src/misc/lv_color.h **** {
 373:Middlewares/lvgl/src/misc/lv_color.h **** #if LV_COLOR_DEPTH == 1
 374:Middlewares/lvgl/src/misc/lv_color.h ****     if(color.full == 0)
 375:Middlewares/lvgl/src/misc/lv_color.h ****         return 0;
 376:Middlewares/lvgl/src/misc/lv_color.h ****     else
 377:Middlewares/lvgl/src/misc/lv_color.h ****         return 0xFFFF;
 378:Middlewares/lvgl/src/misc/lv_color.h **** #elif LV_COLOR_DEPTH == 8
 379:Middlewares/lvgl/src/misc/lv_color.h ****     lv_color16_t ret;
 380:Middlewares/lvgl/src/misc/lv_color.h ****     LV_COLOR_SET_R16(ret, LV_COLOR_GET_R(color) * 4);  /*(2^5 - 1)/(2^3 - 1) = 31/7 = 4*/
 381:Middlewares/lvgl/src/misc/lv_color.h ****     LV_COLOR_SET_G16(ret, LV_COLOR_GET_G(color) * 9);  /*(2^6 - 1)/(2^3 - 1) = 63/7 = 9*/
 382:Middlewares/lvgl/src/misc/lv_color.h ****     LV_COLOR_SET_B16(ret, LV_COLOR_GET_B(color) * 10); /*(2^5 - 1)/(2^2 - 1) = 31/3 = 10*/
 383:Middlewares/lvgl/src/misc/lv_color.h ****     return ret.full;
 384:Middlewares/lvgl/src/misc/lv_color.h **** #elif LV_COLOR_DEPTH == 16
 385:Middlewares/lvgl/src/misc/lv_color.h ****     return color.full;
 386:Middlewares/lvgl/src/misc/lv_color.h **** #elif LV_COLOR_DEPTH == 32
 387:Middlewares/lvgl/src/misc/lv_color.h ****     lv_color16_t ret;
 388:Middlewares/lvgl/src/misc/lv_color.h ****     LV_COLOR_SET_R16(ret, LV_COLOR_GET_R(color) >> 3); /*8 - 5  = 3*/
 389:Middlewares/lvgl/src/misc/lv_color.h ****     LV_COLOR_SET_G16(ret, LV_COLOR_GET_G(color) >> 2); /*8 - 6  = 2*/
 390:Middlewares/lvgl/src/misc/lv_color.h ****     LV_COLOR_SET_B16(ret, LV_COLOR_GET_B(color) >> 3); /*8 - 5  = 3*/
 391:Middlewares/lvgl/src/misc/lv_color.h ****     return ret.full;
 392:Middlewares/lvgl/src/misc/lv_color.h **** #endif
 393:Middlewares/lvgl/src/misc/lv_color.h **** }
 394:Middlewares/lvgl/src/misc/lv_color.h **** 
 395:Middlewares/lvgl/src/misc/lv_color.h **** static inline uint32_t lv_color_to32(lv_color_t color)
 396:Middlewares/lvgl/src/misc/lv_color.h **** {
 397:Middlewares/lvgl/src/misc/lv_color.h **** #if LV_COLOR_DEPTH == 1
ARM GAS  /tmp/ccKaNmJL.s 			page 13


 398:Middlewares/lvgl/src/misc/lv_color.h ****     if(color.full == 0)
 399:Middlewares/lvgl/src/misc/lv_color.h ****         return 0xFF000000;
 400:Middlewares/lvgl/src/misc/lv_color.h ****     else
 401:Middlewares/lvgl/src/misc/lv_color.h ****         return 0xFFFFFFFF;
 402:Middlewares/lvgl/src/misc/lv_color.h **** #elif LV_COLOR_DEPTH == 8
 403:Middlewares/lvgl/src/misc/lv_color.h ****     lv_color32_t ret;
 404:Middlewares/lvgl/src/misc/lv_color.h ****     LV_COLOR_SET_R32(ret, LV_COLOR_GET_R(color) * 36); /*(2^8 - 1)/(2^3 - 1) = 255/7 = 36*/
 405:Middlewares/lvgl/src/misc/lv_color.h ****     LV_COLOR_SET_G32(ret, LV_COLOR_GET_G(color) * 36); /*(2^8 - 1)/(2^3 - 1) = 255/7 = 36*/
 406:Middlewares/lvgl/src/misc/lv_color.h ****     LV_COLOR_SET_B32(ret, LV_COLOR_GET_B(color) * 85); /*(2^8 - 1)/(2^2 - 1) = 255/3 = 85*/
 407:Middlewares/lvgl/src/misc/lv_color.h ****     LV_COLOR_SET_A32(ret, 0xFF);
 408:Middlewares/lvgl/src/misc/lv_color.h ****     return ret.full;
 409:Middlewares/lvgl/src/misc/lv_color.h **** #elif LV_COLOR_DEPTH == 16
 410:Middlewares/lvgl/src/misc/lv_color.h ****     /**
 411:Middlewares/lvgl/src/misc/lv_color.h ****      * The floating point math for conversion is:
 412:Middlewares/lvgl/src/misc/lv_color.h ****      *  valueto = valuefrom * ( (2^bitsto - 1) / (float)(2^bitsfrom - 1) )
 413:Middlewares/lvgl/src/misc/lv_color.h ****      * The faster integer math for conversion is:
 414:Middlewares/lvgl/src/misc/lv_color.h ****      *  valueto = ( valuefrom * multiplier + adder ) >> divisor
 415:Middlewares/lvgl/src/misc/lv_color.h ****      *   multiplier = FLOOR( ( (2^bitsto - 1) << divisor ) / (float)(2^bitsfrom - 1) )
 416:Middlewares/lvgl/src/misc/lv_color.h ****      *
 417:Middlewares/lvgl/src/misc/lv_color.h ****      * Find the first divisor where ( adder >> divisor ) <= 0
 418:Middlewares/lvgl/src/misc/lv_color.h ****      *
 419:Middlewares/lvgl/src/misc/lv_color.h ****      * 5-bit to 8-bit: ( 31 * multiplier + adder ) >> divisor = 255
 420:Middlewares/lvgl/src/misc/lv_color.h ****      * divisor  multiplier  adder  min (0)  max (31)
 421:Middlewares/lvgl/src/misc/lv_color.h ****      *       0           8      7        7       255
 422:Middlewares/lvgl/src/misc/lv_color.h ****      *       1          16     14        7       255
 423:Middlewares/lvgl/src/misc/lv_color.h ****      *       2          32     28        7       255
 424:Middlewares/lvgl/src/misc/lv_color.h ****      *       3          65     25        3       255
 425:Middlewares/lvgl/src/misc/lv_color.h ****      *       4         131     19        1       255
 426:Middlewares/lvgl/src/misc/lv_color.h ****      *       5         263      7        0       255
 427:Middlewares/lvgl/src/misc/lv_color.h ****      *
 428:Middlewares/lvgl/src/misc/lv_color.h ****      * 6-bit to 8-bit: 255 = ( 63 * multiplier + adder ) >> divisor
 429:Middlewares/lvgl/src/misc/lv_color.h ****      * divisor  multiplier  adder  min (0)  max (63)
 430:Middlewares/lvgl/src/misc/lv_color.h ****      *       0           4      3        3       255
 431:Middlewares/lvgl/src/misc/lv_color.h ****      *       1           8      6        3       255
 432:Middlewares/lvgl/src/misc/lv_color.h ****      *       2          16     12        3       255
 433:Middlewares/lvgl/src/misc/lv_color.h ****      *       3          32     24        3       255
 434:Middlewares/lvgl/src/misc/lv_color.h ****      *       4          64     48        3       255
 435:Middlewares/lvgl/src/misc/lv_color.h ****      *       5         129     33        1       255
 436:Middlewares/lvgl/src/misc/lv_color.h ****      *       6         259      3        0       255
 437:Middlewares/lvgl/src/misc/lv_color.h ****      */
 438:Middlewares/lvgl/src/misc/lv_color.h **** 
 439:Middlewares/lvgl/src/misc/lv_color.h ****     lv_color32_t ret;
 440:Middlewares/lvgl/src/misc/lv_color.h ****     LV_COLOR_SET_R32(ret, (LV_COLOR_GET_R(color) * 263 + 7) >> 5);
 441:Middlewares/lvgl/src/misc/lv_color.h ****     LV_COLOR_SET_G32(ret, (LV_COLOR_GET_G(color) * 259 + 3) >> 6);
 442:Middlewares/lvgl/src/misc/lv_color.h ****     LV_COLOR_SET_B32(ret, (LV_COLOR_GET_B(color) * 263 + 7) >> 5);
 443:Middlewares/lvgl/src/misc/lv_color.h ****     LV_COLOR_SET_A32(ret, 0xFF);
 444:Middlewares/lvgl/src/misc/lv_color.h ****     return ret.full;
 445:Middlewares/lvgl/src/misc/lv_color.h **** #elif LV_COLOR_DEPTH == 32
 446:Middlewares/lvgl/src/misc/lv_color.h ****     return color.full;
 447:Middlewares/lvgl/src/misc/lv_color.h **** #endif
 448:Middlewares/lvgl/src/misc/lv_color.h **** }
 449:Middlewares/lvgl/src/misc/lv_color.h **** 
 450:Middlewares/lvgl/src/misc/lv_color.h **** //! @cond Doxygen_Suppress
 451:Middlewares/lvgl/src/misc/lv_color.h **** 
 452:Middlewares/lvgl/src/misc/lv_color.h **** /**
 453:Middlewares/lvgl/src/misc/lv_color.h ****  * Mix two colors with a given ratio.
 454:Middlewares/lvgl/src/misc/lv_color.h ****  * @param c1 the first color to mix (usually the foreground)
ARM GAS  /tmp/ccKaNmJL.s 			page 14


 455:Middlewares/lvgl/src/misc/lv_color.h ****  * @param c2 the second color to mix (usually the background)
 456:Middlewares/lvgl/src/misc/lv_color.h ****  * @param mix The ratio of the colors. 0: full `c2`, 255: full `c1`, 127: half `c1` and half`c2`
 457:Middlewares/lvgl/src/misc/lv_color.h ****  * @return the mixed color
 458:Middlewares/lvgl/src/misc/lv_color.h ****  */
 459:Middlewares/lvgl/src/misc/lv_color.h **** LV_ATTRIBUTE_FAST_MEM static inline lv_color_t lv_color_mix(lv_color_t c1, lv_color_t c2, uint8_t m
 460:Middlewares/lvgl/src/misc/lv_color.h **** {
 461:Middlewares/lvgl/src/misc/lv_color.h ****     lv_color_t ret;
 462:Middlewares/lvgl/src/misc/lv_color.h **** #if LV_COLOR_DEPTH != 1
 463:Middlewares/lvgl/src/misc/lv_color.h ****     /*LV_COLOR_DEPTH == 8, 16 or 32*/
 464:Middlewares/lvgl/src/misc/lv_color.h ****     LV_COLOR_SET_R(ret, LV_UDIV255((uint16_t) LV_COLOR_GET_R(c1) * mix + LV_COLOR_GET_R(c2) *
 465:Middlewares/lvgl/src/misc/lv_color.h ****                                         (255 - mix) + LV_COLOR_MIX_ROUND_OFS));
 466:Middlewares/lvgl/src/misc/lv_color.h ****     LV_COLOR_SET_G(ret, LV_UDIV255((uint16_t) LV_COLOR_GET_G(c1) * mix + LV_COLOR_GET_G(c2) *
 467:Middlewares/lvgl/src/misc/lv_color.h ****                                         (255 - mix) + LV_COLOR_MIX_ROUND_OFS));
 468:Middlewares/lvgl/src/misc/lv_color.h ****     LV_COLOR_SET_B(ret, LV_UDIV255((uint16_t) LV_COLOR_GET_B(c1) * mix + LV_COLOR_GET_B(c2) *
 469:Middlewares/lvgl/src/misc/lv_color.h ****                                         (255 - mix) + LV_COLOR_MIX_ROUND_OFS));
 470:Middlewares/lvgl/src/misc/lv_color.h ****     LV_COLOR_SET_A(ret, 0xFF);
 471:Middlewares/lvgl/src/misc/lv_color.h **** #else
 472:Middlewares/lvgl/src/misc/lv_color.h ****     /*LV_COLOR_DEPTH == 1*/
 473:Middlewares/lvgl/src/misc/lv_color.h ****     ret.full = mix > LV_OPA_50 ? c1.full : c2.full;
 474:Middlewares/lvgl/src/misc/lv_color.h **** #endif
 475:Middlewares/lvgl/src/misc/lv_color.h **** 
 476:Middlewares/lvgl/src/misc/lv_color.h ****     return ret;
 477:Middlewares/lvgl/src/misc/lv_color.h **** }
 478:Middlewares/lvgl/src/misc/lv_color.h **** 
 479:Middlewares/lvgl/src/misc/lv_color.h **** LV_ATTRIBUTE_FAST_MEM static inline void lv_color_premult(lv_color_t c, uint8_t mix, uint16_t * out
 480:Middlewares/lvgl/src/misc/lv_color.h **** {
 481:Middlewares/lvgl/src/misc/lv_color.h **** #if LV_COLOR_DEPTH != 1
 482:Middlewares/lvgl/src/misc/lv_color.h ****     out[0] = (uint16_t) LV_COLOR_GET_R(c) * mix;
 483:Middlewares/lvgl/src/misc/lv_color.h ****     out[1] = (uint16_t) LV_COLOR_GET_G(c) * mix;
 484:Middlewares/lvgl/src/misc/lv_color.h ****     out[2] = (uint16_t) LV_COLOR_GET_B(c) * mix;
 485:Middlewares/lvgl/src/misc/lv_color.h **** #else
 486:Middlewares/lvgl/src/misc/lv_color.h ****     (void) mix;
 487:Middlewares/lvgl/src/misc/lv_color.h ****     /*Pre-multiplication can't be used with 1 bpp*/
 488:Middlewares/lvgl/src/misc/lv_color.h ****     out[0] = LV_COLOR_GET_R(c);
 489:Middlewares/lvgl/src/misc/lv_color.h ****     out[1] = LV_COLOR_GET_G(c);
 490:Middlewares/lvgl/src/misc/lv_color.h ****     out[2] = LV_COLOR_GET_B(c);
 491:Middlewares/lvgl/src/misc/lv_color.h **** #endif
 492:Middlewares/lvgl/src/misc/lv_color.h **** 
 493:Middlewares/lvgl/src/misc/lv_color.h **** }
 494:Middlewares/lvgl/src/misc/lv_color.h **** 
 495:Middlewares/lvgl/src/misc/lv_color.h **** /**
 496:Middlewares/lvgl/src/misc/lv_color.h ****  * Mix two colors with a given ratio. It runs faster then `lv_color_mix` but requires some pre comp
 497:Middlewares/lvgl/src/misc/lv_color.h ****  * @param premult_c1 The first color. Should be preprocessed with `lv_color_premult(c1)`
 498:Middlewares/lvgl/src/misc/lv_color.h ****  * @param c2 The second color. As it is no pre computation required on it
 499:Middlewares/lvgl/src/misc/lv_color.h ****  * @param mix The ratio of the colors. 0: full `c1`, 255: full `c2`, 127: half `c1` and half `c2`.
 500:Middlewares/lvgl/src/misc/lv_color.h ****  *            Should be modified like mix = `255 - mix`
 501:Middlewares/lvgl/src/misc/lv_color.h ****  * @return the mixed color
 502:Middlewares/lvgl/src/misc/lv_color.h ****  * @note 255 won't give clearly `c1`.
 503:Middlewares/lvgl/src/misc/lv_color.h ****  */
 504:Middlewares/lvgl/src/misc/lv_color.h **** LV_ATTRIBUTE_FAST_MEM static inline lv_color_t lv_color_mix_premult(uint16_t * premult_c1, lv_color
 505:Middlewares/lvgl/src/misc/lv_color.h **** {
 506:Middlewares/lvgl/src/misc/lv_color.h ****     lv_color_t ret;
 507:Middlewares/lvgl/src/misc/lv_color.h **** #if LV_COLOR_DEPTH != 1
 508:Middlewares/lvgl/src/misc/lv_color.h ****     /*LV_COLOR_DEPTH == 8, 16 or 32*/
 509:Middlewares/lvgl/src/misc/lv_color.h ****     LV_COLOR_SET_R(ret, LV_UDIV255(premult_c1[0] + LV_COLOR_GET_R(c2) * mix + LV_COLOR_MIX_ROUND_OF
 510:Middlewares/lvgl/src/misc/lv_color.h ****     LV_COLOR_SET_G(ret, LV_UDIV255(premult_c1[1] + LV_COLOR_GET_G(c2) * mix + LV_COLOR_MIX_ROUND_OF
 511:Middlewares/lvgl/src/misc/lv_color.h ****     LV_COLOR_SET_B(ret, LV_UDIV255(premult_c1[2] + LV_COLOR_GET_B(c2) * mix + LV_COLOR_MIX_ROUND_OF
ARM GAS  /tmp/ccKaNmJL.s 			page 15


 512:Middlewares/lvgl/src/misc/lv_color.h ****     LV_COLOR_SET_A(ret, 0xFF);
 513:Middlewares/lvgl/src/misc/lv_color.h **** #else
 514:Middlewares/lvgl/src/misc/lv_color.h ****     /*LV_COLOR_DEPTH == 1*/
 515:Middlewares/lvgl/src/misc/lv_color.h ****     /*Restore color1*/
 516:Middlewares/lvgl/src/misc/lv_color.h ****     lv_color_t c1;
 517:Middlewares/lvgl/src/misc/lv_color.h ****     LV_COLOR_SET_R(c1, premult_c1[0]);
 518:Middlewares/lvgl/src/misc/lv_color.h ****     LV_COLOR_SET_G(c1, premult_c1[1]);
 519:Middlewares/lvgl/src/misc/lv_color.h ****     LV_COLOR_SET_B(c1, premult_c1[2]);
 520:Middlewares/lvgl/src/misc/lv_color.h ****     ret.full = mix > LV_OPA_50 ? c2.full : c1.full;
 521:Middlewares/lvgl/src/misc/lv_color.h **** #endif
 522:Middlewares/lvgl/src/misc/lv_color.h **** 
 523:Middlewares/lvgl/src/misc/lv_color.h ****     return ret;
 524:Middlewares/lvgl/src/misc/lv_color.h **** }
 525:Middlewares/lvgl/src/misc/lv_color.h **** 
 526:Middlewares/lvgl/src/misc/lv_color.h **** /**
 527:Middlewares/lvgl/src/misc/lv_color.h ****  * Mix two colors. Both color can have alpha value.
 528:Middlewares/lvgl/src/misc/lv_color.h ****  * @param bg_color background color
 529:Middlewares/lvgl/src/misc/lv_color.h ****  * @param bg_opa alpha of the background color
 530:Middlewares/lvgl/src/misc/lv_color.h ****  * @param fg_color foreground color
 531:Middlewares/lvgl/src/misc/lv_color.h ****  * @param fg_opa alpha of the foreground color
 532:Middlewares/lvgl/src/misc/lv_color.h ****  * @param res_color the result color
 533:Middlewares/lvgl/src/misc/lv_color.h ****  * @param res_opa the result opacity
 534:Middlewares/lvgl/src/misc/lv_color.h ****  */
 535:Middlewares/lvgl/src/misc/lv_color.h **** LV_ATTRIBUTE_FAST_MEM static inline void lv_color_mix_with_alpha(lv_color_t bg_color, lv_opa_t bg_o
 536:Middlewares/lvgl/src/misc/lv_color.h ****                                                                  lv_color_t fg_color, lv_opa_t fg_o
 537:Middlewares/lvgl/src/misc/lv_color.h ****                                                                  lv_color_t * res_color, lv_opa_t *
 538:Middlewares/lvgl/src/misc/lv_color.h **** {
 539:Middlewares/lvgl/src/misc/lv_color.h ****     /*Pick the foreground if it's fully opaque or the Background is fully transparent*/
 540:Middlewares/lvgl/src/misc/lv_color.h ****     if(fg_opa >= LV_OPA_MAX || bg_opa <= LV_OPA_MIN) {
 541:Middlewares/lvgl/src/misc/lv_color.h ****         res_color->full = fg_color.full;
 542:Middlewares/lvgl/src/misc/lv_color.h ****         *res_opa = fg_opa;
 543:Middlewares/lvgl/src/misc/lv_color.h ****     }
 544:Middlewares/lvgl/src/misc/lv_color.h ****     /*Transparent foreground: use the Background*/
 545:Middlewares/lvgl/src/misc/lv_color.h ****     else if(fg_opa <= LV_OPA_MIN) {
 546:Middlewares/lvgl/src/misc/lv_color.h ****         res_color->full = bg_color.full;
 547:Middlewares/lvgl/src/misc/lv_color.h ****         *res_opa = bg_opa;
 548:Middlewares/lvgl/src/misc/lv_color.h ****     }
 549:Middlewares/lvgl/src/misc/lv_color.h ****     /*Opaque background: use simple mix*/
 550:Middlewares/lvgl/src/misc/lv_color.h ****     else if(bg_opa >= LV_OPA_MAX) {
 551:Middlewares/lvgl/src/misc/lv_color.h ****         *res_color = lv_color_mix(fg_color, bg_color, fg_opa);
 552:Middlewares/lvgl/src/misc/lv_color.h ****         *res_opa = LV_OPA_COVER;
 553:Middlewares/lvgl/src/misc/lv_color.h ****     }
 554:Middlewares/lvgl/src/misc/lv_color.h ****     /*Both colors have alpha. Expensive calculation need to be applied*/
 555:Middlewares/lvgl/src/misc/lv_color.h ****     else {
 556:Middlewares/lvgl/src/misc/lv_color.h ****         /*Save the parameters and the result. If they will be asked again don't compute again*/
 557:Middlewares/lvgl/src/misc/lv_color.h ****         static lv_opa_t fg_opa_save     = 0;
 558:Middlewares/lvgl/src/misc/lv_color.h ****         static lv_opa_t bg_opa_save     = 0;
 559:Middlewares/lvgl/src/misc/lv_color.h ****         static lv_color_t fg_color_save = _LV_COLOR_ZERO_INITIALIZER;
 560:Middlewares/lvgl/src/misc/lv_color.h ****         static lv_color_t bg_color_save = _LV_COLOR_ZERO_INITIALIZER;
 561:Middlewares/lvgl/src/misc/lv_color.h ****         static lv_color_t res_color_saved = _LV_COLOR_ZERO_INITIALIZER;
 562:Middlewares/lvgl/src/misc/lv_color.h ****         static lv_opa_t res_opa_saved = 0;
 563:Middlewares/lvgl/src/misc/lv_color.h **** 
 564:Middlewares/lvgl/src/misc/lv_color.h ****         if(fg_opa != fg_opa_save || bg_opa != bg_opa_save || fg_color.full != fg_color_save.full ||
 565:Middlewares/lvgl/src/misc/lv_color.h ****            bg_color.full != bg_color_save.full) {
 566:Middlewares/lvgl/src/misc/lv_color.h ****             fg_opa_save        = fg_opa;
 567:Middlewares/lvgl/src/misc/lv_color.h ****             bg_opa_save        = bg_opa;
 568:Middlewares/lvgl/src/misc/lv_color.h ****             fg_color_save.full = fg_color.full;
ARM GAS  /tmp/ccKaNmJL.s 			page 16


 569:Middlewares/lvgl/src/misc/lv_color.h ****             bg_color_save.full = bg_color.full;
 570:Middlewares/lvgl/src/misc/lv_color.h ****             /*Info:
 571:Middlewares/lvgl/src/misc/lv_color.h ****              * https://en.wikipedia.org/wiki/Alpha_compositing#Analytical_derivation_of_the_over_op
 572:Middlewares/lvgl/src/misc/lv_color.h ****             res_opa_saved = 255 - ((uint16_t)((uint16_t)(255 - fg_opa) * (255 - bg_opa)) >> 8);
 573:Middlewares/lvgl/src/misc/lv_color.h ****             if(res_opa_saved == 0) {
 574:Middlewares/lvgl/src/misc/lv_color.h ****                 while(1)
 575:Middlewares/lvgl/src/misc/lv_color.h ****                     ;
 576:Middlewares/lvgl/src/misc/lv_color.h ****             }
 577:Middlewares/lvgl/src/misc/lv_color.h ****             lv_opa_t ratio = (uint16_t)((uint16_t)fg_opa * 255) / res_opa_saved;
 578:Middlewares/lvgl/src/misc/lv_color.h ****             res_color_saved = lv_color_mix(fg_color, bg_color, ratio);
 579:Middlewares/lvgl/src/misc/lv_color.h **** 
 580:Middlewares/lvgl/src/misc/lv_color.h ****         }
 581:Middlewares/lvgl/src/misc/lv_color.h **** 
 582:Middlewares/lvgl/src/misc/lv_color.h ****         res_color->full = res_color_saved.full;
 583:Middlewares/lvgl/src/misc/lv_color.h ****         *res_opa = res_opa_saved;
 584:Middlewares/lvgl/src/misc/lv_color.h ****     }
 585:Middlewares/lvgl/src/misc/lv_color.h **** }
 586:Middlewares/lvgl/src/misc/lv_color.h **** 
 587:Middlewares/lvgl/src/misc/lv_color.h **** //! @endcond
 588:Middlewares/lvgl/src/misc/lv_color.h **** 
 589:Middlewares/lvgl/src/misc/lv_color.h **** /**
 590:Middlewares/lvgl/src/misc/lv_color.h ****  * Get the brightness of a color
 591:Middlewares/lvgl/src/misc/lv_color.h ****  * @param color a color
 592:Middlewares/lvgl/src/misc/lv_color.h ****  * @return the brightness [0..255]
 593:Middlewares/lvgl/src/misc/lv_color.h ****  */
 594:Middlewares/lvgl/src/misc/lv_color.h **** static inline uint8_t lv_color_brightness(lv_color_t color)
 595:Middlewares/lvgl/src/misc/lv_color.h **** {
 596:Middlewares/lvgl/src/misc/lv_color.h ****     lv_color32_t c32;
 597:Middlewares/lvgl/src/misc/lv_color.h ****     c32.full        = lv_color_to32(color);
 598:Middlewares/lvgl/src/misc/lv_color.h ****     uint16_t bright = (uint16_t)(3u * LV_COLOR_GET_R32(c32) + LV_COLOR_GET_B32(c32) + 4u * LV_COLOR
 599:Middlewares/lvgl/src/misc/lv_color.h ****     return (uint8_t)(bright >> 3);
 600:Middlewares/lvgl/src/misc/lv_color.h **** }
 601:Middlewares/lvgl/src/misc/lv_color.h **** 
 602:Middlewares/lvgl/src/misc/lv_color.h **** static inline lv_color_t lv_color_make(uint8_t r, uint8_t g, uint8_t b)
 603:Middlewares/lvgl/src/misc/lv_color.h **** {
 604:Middlewares/lvgl/src/misc/lv_color.h ****     return _LV_COLOR_MAKE_TYPE_HELPER LV_COLOR_MAKE(r, g, b);
 605:Middlewares/lvgl/src/misc/lv_color.h **** }
 606:Middlewares/lvgl/src/misc/lv_color.h **** 
 607:Middlewares/lvgl/src/misc/lv_color.h **** static inline lv_color_t lv_color_hex(uint32_t c)
 608:Middlewares/lvgl/src/misc/lv_color.h **** {
 609:Middlewares/lvgl/src/misc/lv_color.h ****     return lv_color_make((uint8_t)((c >> 16) & 0xFF), (uint8_t)((c >> 8) & 0xFF), (uint8_t)(c & 0xF
 610:Middlewares/lvgl/src/misc/lv_color.h **** }
 611:Middlewares/lvgl/src/misc/lv_color.h **** 
 612:Middlewares/lvgl/src/misc/lv_color.h **** static inline lv_color_t lv_color_hex3(uint32_t c)
 613:Middlewares/lvgl/src/misc/lv_color.h **** {
 614:Middlewares/lvgl/src/misc/lv_color.h ****     return lv_color_make((uint8_t)(((c >> 4) & 0xF0) | ((c >> 8) & 0xF)), (uint8_t)((c & 0xF0) | ((
 615:Middlewares/lvgl/src/misc/lv_color.h ****                          (uint8_t)((c & 0xF) | ((c & 0xF) << 4)));
 616:Middlewares/lvgl/src/misc/lv_color.h **** }
 617:Middlewares/lvgl/src/misc/lv_color.h **** 
 618:Middlewares/lvgl/src/misc/lv_color.h **** static inline void lv_color_filter_dsc_init(lv_color_filter_dsc_t * dsc, lv_color_filter_cb_t cb)
 619:Middlewares/lvgl/src/misc/lv_color.h **** {
 620:Middlewares/lvgl/src/misc/lv_color.h ****     dsc->filter_cb = cb;
 621:Middlewares/lvgl/src/misc/lv_color.h **** }
 622:Middlewares/lvgl/src/misc/lv_color.h **** 
 623:Middlewares/lvgl/src/misc/lv_color.h **** //! @cond Doxygen_Suppress
 624:Middlewares/lvgl/src/misc/lv_color.h **** //!
 625:Middlewares/lvgl/src/misc/lv_color.h **** LV_ATTRIBUTE_FAST_MEM void lv_color_fill(lv_color_t * buf, lv_color_t color, uint32_t px_num);
ARM GAS  /tmp/ccKaNmJL.s 			page 17


 626:Middlewares/lvgl/src/misc/lv_color.h **** 
 627:Middlewares/lvgl/src/misc/lv_color.h **** //! @endcond
 628:Middlewares/lvgl/src/misc/lv_color.h **** lv_color_t lv_color_lighten(lv_color_t c, lv_opa_t lvl);
 629:Middlewares/lvgl/src/misc/lv_color.h **** 
 630:Middlewares/lvgl/src/misc/lv_color.h **** lv_color_t lv_color_darken(lv_color_t c, lv_opa_t lvl);
 631:Middlewares/lvgl/src/misc/lv_color.h **** 
 632:Middlewares/lvgl/src/misc/lv_color.h **** lv_color_t lv_color_change_lightness(lv_color_t c, lv_opa_t lvl);
 633:Middlewares/lvgl/src/misc/lv_color.h **** 
 634:Middlewares/lvgl/src/misc/lv_color.h **** /**
 635:Middlewares/lvgl/src/misc/lv_color.h ****  * Convert a HSV color to RGB
 636:Middlewares/lvgl/src/misc/lv_color.h ****  * @param h hue [0..359]
 637:Middlewares/lvgl/src/misc/lv_color.h ****  * @param s saturation [0..100]
 638:Middlewares/lvgl/src/misc/lv_color.h ****  * @param v value [0..100]
 639:Middlewares/lvgl/src/misc/lv_color.h ****  * @return the given RGB color in RGB (with LV_COLOR_DEPTH depth)
 640:Middlewares/lvgl/src/misc/lv_color.h ****  */
 641:Middlewares/lvgl/src/misc/lv_color.h **** lv_color_t lv_color_hsv_to_rgb(uint16_t h, uint8_t s, uint8_t v);
 642:Middlewares/lvgl/src/misc/lv_color.h **** 
 643:Middlewares/lvgl/src/misc/lv_color.h **** /**
 644:Middlewares/lvgl/src/misc/lv_color.h ****  * Convert a 32-bit RGB color to HSV
 645:Middlewares/lvgl/src/misc/lv_color.h ****  * @param r8 8-bit red
 646:Middlewares/lvgl/src/misc/lv_color.h ****  * @param g8 8-bit green
 647:Middlewares/lvgl/src/misc/lv_color.h ****  * @param b8 8-bit blue
 648:Middlewares/lvgl/src/misc/lv_color.h ****  * @return the given RGB color in HSV
 649:Middlewares/lvgl/src/misc/lv_color.h ****  */
 650:Middlewares/lvgl/src/misc/lv_color.h **** lv_color_hsv_t lv_color_rgb_to_hsv(uint8_t r8, uint8_t g8, uint8_t b8);
 651:Middlewares/lvgl/src/misc/lv_color.h **** 
 652:Middlewares/lvgl/src/misc/lv_color.h **** /**
 653:Middlewares/lvgl/src/misc/lv_color.h ****  * Convert a color to HSV
 654:Middlewares/lvgl/src/misc/lv_color.h ****  * @param color color
 655:Middlewares/lvgl/src/misc/lv_color.h ****  * @return the given color in HSV
 656:Middlewares/lvgl/src/misc/lv_color.h ****  */
 657:Middlewares/lvgl/src/misc/lv_color.h **** lv_color_hsv_t lv_color_to_hsv(lv_color_t color);
 658:Middlewares/lvgl/src/misc/lv_color.h **** 
 659:Middlewares/lvgl/src/misc/lv_color.h **** /**
 660:Middlewares/lvgl/src/misc/lv_color.h ****  * Just a wrapper around LV_COLOR_CHROMA_KEY because it might be more convenient to use a function 
 661:Middlewares/lvgl/src/misc/lv_color.h ****  * @return LV_COLOR_CHROMA_KEY
 662:Middlewares/lvgl/src/misc/lv_color.h ****  */
 663:Middlewares/lvgl/src/misc/lv_color.h **** static inline lv_color_t lv_color_chroma_key(void)
 664:Middlewares/lvgl/src/misc/lv_color.h **** {
 665:Middlewares/lvgl/src/misc/lv_color.h ****     return LV_COLOR_CHROMA_KEY;
 666:Middlewares/lvgl/src/misc/lv_color.h **** }
 667:Middlewares/lvgl/src/misc/lv_color.h **** 
 668:Middlewares/lvgl/src/misc/lv_color.h **** /**********************
 669:Middlewares/lvgl/src/misc/lv_color.h ****  *  PREDEFINED COLORS
 670:Middlewares/lvgl/src/misc/lv_color.h ****  **********************/
 671:Middlewares/lvgl/src/misc/lv_color.h **** /*Source: https://vuetifyjs.com/en/styles/colors/#material-colors*/
 672:Middlewares/lvgl/src/misc/lv_color.h **** 
 673:Middlewares/lvgl/src/misc/lv_color.h **** lv_color_t lv_palette_main(lv_palette_t p);
 674:Middlewares/lvgl/src/misc/lv_color.h **** static inline lv_color_t lv_color_white(void) { return lv_color_make(0xff, 0xff, 0xff);}
 160              		.loc 2 674 26 view .LVU54
 161              	.LBE43:
 162              		.loc 2 674 49 view .LVU55
 163              	.LBB46:
 164              	.LBB44:
 165              	.LBI44:
 602:Middlewares/lvgl/src/misc/lv_color.h **** {
 166              		.loc 2 602 26 view .LVU56
ARM GAS  /tmp/ccKaNmJL.s 			page 18


 167              	.LBB45:
 604:Middlewares/lvgl/src/misc/lv_color.h **** }
 168              		.loc 2 604 5 view .LVU57
 604:Middlewares/lvgl/src/misc/lv_color.h **** }
 169              		.loc 2 604 12 is_stmt 0 view .LVU58
 170 0004 4FF6FF7E 		movw	lr, #65535
 171              	.LVL19:
 604:Middlewares/lvgl/src/misc/lv_color.h **** }
 172              		.loc 2 604 12 view .LVU59
 173              	.LBE45:
 174              	.LBE44:
 175              	.LBE46:
 176              	.LBB47:
 177              	.LBI47:
 459:Middlewares/lvgl/src/misc/lv_color.h **** {
 178              		.loc 2 459 48 is_stmt 1 view .LVU60
 179              	.LBB48:
 461:Middlewares/lvgl/src/misc/lv_color.h **** #if LV_COLOR_DEPTH != 1
 180              		.loc 2 461 5 view .LVU61
 464:Middlewares/lvgl/src/misc/lv_color.h ****                                         (255 - mix) + LV_COLOR_MIX_ROUND_OFS));
 181              		.loc 2 464 5 view .LVU62
 182 0008 4FEADE20 		lsr	r0, lr, #11
 183              	.LVL20:
 464:Middlewares/lvgl/src/misc/lv_color.h ****                                         (255 - mix) + LV_COLOR_MIX_ROUND_OFS));
 184              		.loc 2 464 5 is_stmt 0 view .LVU63
 185 000c CCF3C422 		ubfx	r2, ip, #11, #5
 186 0010 C1F1FF03 		rsb	r3, r1, #255
 187 0014 03FB02F2 		mul	r2, r3, r2
 188 0018 01FB0022 		mla	r2, r1, r0, r2
 189 001c 8032     		adds	r2, r2, #128
 190 001e 02EB0220 		add	r0, r2, r2, lsl #8
 191 0022 02EBC012 		add	r2, r2, r0, lsl #7
 192 0026 C2F3C452 		ubfx	r2, r2, #23, #5
 193 002a 4FF00000 		mov	r0, #0	@ movhi
 194              	.LVL21:
 464:Middlewares/lvgl/src/misc/lv_color.h ****                                         (255 - mix) + LV_COLOR_MIX_ROUND_OFS));
 195              		.loc 2 464 5 view .LVU64
 196 002e 62F3CF20 		bfi	r0, r2, #11, #5
 197              	.LVL22:
 466:Middlewares/lvgl/src/misc/lv_color.h ****                                         (255 - mix) + LV_COLOR_MIX_ROUND_OFS));
 198              		.loc 2 466 5 is_stmt 1 view .LVU65
 199 0032 CEF34514 		ubfx	r4, lr, #5, #6
 200 0036 CCF34512 		ubfx	r2, ip, #5, #6
 201 003a 03FB02F2 		mul	r2, r3, r2
 202 003e 04FB0122 		mla	r2, r4, r1, r2
 203 0042 8032     		adds	r2, r2, #128
 204 0044 02EB0224 		add	r4, r2, r2, lsl #8
 205 0048 02EBC412 		add	r2, r2, r4, lsl #7
 206 004c C2F3C552 		ubfx	r2, r2, #23, #6
 207 0050 62F34A10 		bfi	r0, r2, #5, #6
 468:Middlewares/lvgl/src/misc/lv_color.h ****                                         (255 - mix) + LV_COLOR_MIX_ROUND_OFS));
 208              		.loc 2 468 5 view .LVU66
 209 0054 0EF01F0E 		and	lr, lr, #31
 210 0058 0CF01F0C 		and	ip, ip, #31
 211              	.LVL23:
 468:Middlewares/lvgl/src/misc/lv_color.h ****                                         (255 - mix) + LV_COLOR_MIX_ROUND_OFS));
 212              		.loc 2 468 5 is_stmt 0 view .LVU67
ARM GAS  /tmp/ccKaNmJL.s 			page 19


 213 005c 0CFB03F3 		mul	r3, ip, r3
 214 0060 0EFB0131 		mla	r1, lr, r1, r3
 215              	.LVL24:
 468:Middlewares/lvgl/src/misc/lv_color.h ****                                         (255 - mix) + LV_COLOR_MIX_ROUND_OFS));
 216              		.loc 2 468 5 view .LVU68
 217 0064 8031     		adds	r1, r1, #128
 218 0066 01EB0123 		add	r3, r1, r1, lsl #8
 219 006a 01EBC311 		add	r1, r1, r3, lsl #7
 220 006e C1F3C451 		ubfx	r1, r1, #23, #5
 221 0072 61F30400 		bfi	r0, r1, #0, #5
 470:Middlewares/lvgl/src/misc/lv_color.h **** #else
 222              		.loc 2 470 5 is_stmt 1 view .LVU69
 470:Middlewares/lvgl/src/misc/lv_color.h **** #else
 223              		.loc 2 470 5 view .LVU70
 470:Middlewares/lvgl/src/misc/lv_color.h **** #else
 224              		.loc 2 470 5 view .LVU71
 476:Middlewares/lvgl/src/misc/lv_color.h **** }
 225              		.loc 2 476 5 view .LVU72
 226              	.LVL25:
 227              	.LVL26:
 476:Middlewares/lvgl/src/misc/lv_color.h **** }
 228              		.loc 2 476 5 is_stmt 0 view .LVU73
 229              	.LBE48:
 230              	.LBE47:
 129:Middlewares/lvgl/src/misc/lv_color.c **** }
 231              		.loc 1 129 1 view .LVU74
 232 0076 10BD     		pop	{r4, pc}
 233              		.cfi_endproc
 234              	.LFE18:
 236              		.section	.text.lv_color_darken,"ax",%progbits
 237              		.align	1
 238              		.global	lv_color_darken
 239              		.syntax unified
 240              		.thumb
 241              		.thumb_func
 243              	lv_color_darken:
 244              	.LVL27:
 245              	.LFB19:
 130:Middlewares/lvgl/src/misc/lv_color.c **** 
 131:Middlewares/lvgl/src/misc/lv_color.c **** lv_color_t lv_color_darken(lv_color_t c, lv_opa_t lvl)
 132:Middlewares/lvgl/src/misc/lv_color.c **** {
 246              		.loc 1 132 1 is_stmt 1 view -0
 247              		.cfi_startproc
 248              		@ args = 0, pretend = 0, frame = 0
 249              		@ frame_needed = 0, uses_anonymous_args = 0
 250              		@ link register save eliminated.
 251              		.loc 1 132 1 is_stmt 0 view .LVU76
 252 0000 0246     		mov	r2, r0	@ movhi
 253              	.LVL28:
 133:Middlewares/lvgl/src/misc/lv_color.c ****     return lv_color_mix(lv_color_black(), c, lvl);
 254              		.loc 1 133 5 is_stmt 1 view .LVU77
 255              	.LBB54:
 256              	.LBI54:
 675:Middlewares/lvgl/src/misc/lv_color.h **** static inline lv_color_t lv_color_black(void) { return lv_color_make(0x00, 0x0, 0x00);}
 257              		.loc 2 675 26 view .LVU78
 258              	.LBE54:
 259              		.loc 2 675 49 view .LVU79
ARM GAS  /tmp/ccKaNmJL.s 			page 20


 260              	.LBB57:
 261              	.LBB55:
 262              	.LBI55:
 602:Middlewares/lvgl/src/misc/lv_color.h **** {
 263              		.loc 2 602 26 view .LVU80
 264              	.LBB56:
 604:Middlewares/lvgl/src/misc/lv_color.h **** }
 265              		.loc 2 604 5 view .LVU81
 604:Middlewares/lvgl/src/misc/lv_color.h **** }
 266              		.loc 2 604 5 is_stmt 0 view .LVU82
 267              	.LBE56:
 268              	.LBE55:
 269              	.LBE57:
 270              	.LBB58:
 271              	.LBI58:
 459:Middlewares/lvgl/src/misc/lv_color.h **** {
 272              		.loc 2 459 48 is_stmt 1 view .LVU83
 273              	.LBB59:
 461:Middlewares/lvgl/src/misc/lv_color.h **** #if LV_COLOR_DEPTH != 1
 274              		.loc 2 461 5 view .LVU84
 464:Middlewares/lvgl/src/misc/lv_color.h ****                                         (255 - mix) + LV_COLOR_MIX_ROUND_OFS));
 275              		.loc 2 464 5 view .LVU85
 464:Middlewares/lvgl/src/misc/lv_color.h ****                                         (255 - mix) + LV_COLOR_MIX_ROUND_OFS));
 276              		.loc 2 464 5 is_stmt 0 view .LVU86
 277 0002 C2F3C423 		ubfx	r3, r2, #11, #5
 278 0006 C1F1FF01 		rsb	r1, r1, #255
 279              	.LVL29:
 464:Middlewares/lvgl/src/misc/lv_color.h ****                                         (255 - mix) + LV_COLOR_MIX_ROUND_OFS));
 280              		.loc 2 464 5 view .LVU87
 281 000a 01FB03F3 		mul	r3, r1, r3
 282 000e 8033     		adds	r3, r3, #128
 283 0010 03EB0320 		add	r0, r3, r3, lsl #8
 284 0014 03EBC013 		add	r3, r3, r0, lsl #7
 285 0018 C3F3C453 		ubfx	r3, r3, #23, #5
 286 001c 4FF00000 		mov	r0, #0	@ movhi
 287              	.LVL30:
 464:Middlewares/lvgl/src/misc/lv_color.h ****                                         (255 - mix) + LV_COLOR_MIX_ROUND_OFS));
 288              		.loc 2 464 5 view .LVU88
 289 0020 63F3CF20 		bfi	r0, r3, #11, #5
 290              	.LVL31:
 466:Middlewares/lvgl/src/misc/lv_color.h ****                                         (255 - mix) + LV_COLOR_MIX_ROUND_OFS));
 291              		.loc 2 466 5 is_stmt 1 view .LVU89
 292 0024 C2F34513 		ubfx	r3, r2, #5, #6
 293 0028 01FB03F3 		mul	r3, r1, r3
 294 002c 8033     		adds	r3, r3, #128
 295 002e 03EB032C 		add	ip, r3, r3, lsl #8
 296 0032 03EBCC13 		add	r3, r3, ip, lsl #7
 297 0036 C3F3C553 		ubfx	r3, r3, #23, #6
 298 003a 63F34A10 		bfi	r0, r3, #5, #6
 468:Middlewares/lvgl/src/misc/lv_color.h ****                                         (255 - mix) + LV_COLOR_MIX_ROUND_OFS));
 299              		.loc 2 468 5 view .LVU90
 300 003e 02F01F02 		and	r2, r2, #31
 301              	.LVL32:
 468:Middlewares/lvgl/src/misc/lv_color.h ****                                         (255 - mix) + LV_COLOR_MIX_ROUND_OFS));
 302              		.loc 2 468 5 is_stmt 0 view .LVU91
 303 0042 02FB01F1 		mul	r1, r2, r1
 304 0046 8031     		adds	r1, r1, #128
ARM GAS  /tmp/ccKaNmJL.s 			page 21


 305 0048 01EB0123 		add	r3, r1, r1, lsl #8
 306 004c 01EBC311 		add	r1, r1, r3, lsl #7
 307 0050 C1F3C451 		ubfx	r1, r1, #23, #5
 308 0054 61F30400 		bfi	r0, r1, #0, #5
 470:Middlewares/lvgl/src/misc/lv_color.h **** #else
 309              		.loc 2 470 5 is_stmt 1 view .LVU92
 470:Middlewares/lvgl/src/misc/lv_color.h **** #else
 310              		.loc 2 470 5 view .LVU93
 470:Middlewares/lvgl/src/misc/lv_color.h **** #else
 311              		.loc 2 470 5 view .LVU94
 476:Middlewares/lvgl/src/misc/lv_color.h **** }
 312              		.loc 2 476 5 view .LVU95
 313              	.LVL33:
 314              	.LVL34:
 476:Middlewares/lvgl/src/misc/lv_color.h **** }
 315              		.loc 2 476 5 is_stmt 0 view .LVU96
 316              	.LBE59:
 317              	.LBE58:
 134:Middlewares/lvgl/src/misc/lv_color.c **** }
 318              		.loc 1 134 1 view .LVU97
 319 0058 7047     		bx	lr
 320              		.cfi_endproc
 321              	.LFE19:
 323              		.section	.text.lv_color_change_lightness,"ax",%progbits
 324              		.align	1
 325              		.global	lv_color_change_lightness
 326              		.syntax unified
 327              		.thumb
 328              		.thumb_func
 330              	lv_color_change_lightness:
 331              	.LVL35:
 332              	.LFB20:
 135:Middlewares/lvgl/src/misc/lv_color.c **** 
 136:Middlewares/lvgl/src/misc/lv_color.c **** lv_color_t lv_color_change_lightness(lv_color_t c, lv_opa_t lvl)
 137:Middlewares/lvgl/src/misc/lv_color.c **** {
 333              		.loc 1 137 1 is_stmt 1 view -0
 334              		.cfi_startproc
 335              		@ args = 0, pretend = 0, frame = 0
 336              		@ frame_needed = 0, uses_anonymous_args = 0
 138:Middlewares/lvgl/src/misc/lv_color.c ****     /*It'd be better to convert the color to HSL, change L and convert back to RGB.*/
 139:Middlewares/lvgl/src/misc/lv_color.c ****     if(lvl == LV_OPA_50) return c;
 337              		.loc 1 139 5 view .LVU99
 338              		.loc 1 139 7 is_stmt 0 view .LVU100
 339 0000 7F29     		cmp	r1, #127
 340 0002 11D0     		beq	.L15
 137:Middlewares/lvgl/src/misc/lv_color.c ****     /*It'd be better to convert the color to HSL, change L and convert back to RGB.*/
 341              		.loc 1 137 1 view .LVU101
 342 0004 08B5     		push	{r3, lr}
 343              	.LCFI1:
 344              		.cfi_def_cfa_offset 8
 345              		.cfi_offset 3, -8
 346              		.cfi_offset 14, -4
 140:Middlewares/lvgl/src/misc/lv_color.c ****     else if(lvl < LV_OPA_50) return lv_color_darken(c, (LV_OPA_50 - lvl) * 2);
 347              		.loc 1 140 10 is_stmt 1 view .LVU102
 348              		.loc 1 140 12 is_stmt 0 view .LVU103
 349 0006 7E29     		cmp	r1, #126
 350 0008 07D8     		bhi	.L13
ARM GAS  /tmp/ccKaNmJL.s 			page 22


 351              		.loc 1 140 30 is_stmt 1 discriminator 1 view .LVU104
 352              		.loc 1 140 67 is_stmt 0 discriminator 1 view .LVU105
 353 000a C1F17F01 		rsb	r1, r1, #127
 354              	.LVL36:
 355              		.loc 1 140 37 discriminator 1 view .LVU106
 356 000e 4900     		lsls	r1, r1, #1
 357 0010 01F0FE01 		and	r1, r1, #254
 358 0014 FFF7FEFF 		bl	lv_color_darken
 359              	.LVL37:
 360              	.L12:
 141:Middlewares/lvgl/src/misc/lv_color.c ****     else return lv_color_lighten(c, (lvl - LV_OPA_50) * 2);
 142:Middlewares/lvgl/src/misc/lv_color.c **** }
 361              		.loc 1 142 1 view .LVU107
 362 0018 08BD     		pop	{r3, pc}
 363              	.LVL38:
 364              	.L13:
 141:Middlewares/lvgl/src/misc/lv_color.c ****     else return lv_color_lighten(c, (lvl - LV_OPA_50) * 2);
 365              		.loc 1 141 10 is_stmt 1 view .LVU108
 141:Middlewares/lvgl/src/misc/lv_color.c ****     else return lv_color_lighten(c, (lvl - LV_OPA_50) * 2);
 366              		.loc 1 141 17 is_stmt 0 view .LVU109
 367 001a 7F39     		subs	r1, r1, #127
 368              	.LVL39:
 141:Middlewares/lvgl/src/misc/lv_color.c ****     else return lv_color_lighten(c, (lvl - LV_OPA_50) * 2);
 369              		.loc 1 141 17 view .LVU110
 370 001c 4900     		lsls	r1, r1, #1
 371 001e 01F0FE01 		and	r1, r1, #254
 372 0022 FFF7FEFF 		bl	lv_color_lighten
 373              	.LVL40:
 141:Middlewares/lvgl/src/misc/lv_color.c ****     else return lv_color_lighten(c, (lvl - LV_OPA_50) * 2);
 374              		.loc 1 141 17 view .LVU111
 375 0026 F7E7     		b	.L12
 376              	.LVL41:
 377              	.L15:
 378              	.LCFI2:
 379              		.cfi_def_cfa_offset 0
 380              		.cfi_restore 3
 381              		.cfi_restore 14
 382              	.LVL42:
 383              		.loc 1 142 1 view .LVU112
 384 0028 7047     		bx	lr
 385              		.cfi_endproc
 386              	.LFE20:
 388              		.section	.text.lv_color_hsv_to_rgb,"ax",%progbits
 389              		.align	1
 390              		.global	lv_color_hsv_to_rgb
 391              		.syntax unified
 392              		.thumb
 393              		.thumb_func
 395              	lv_color_hsv_to_rgb:
 396              	.LVL43:
 397              	.LFB21:
 143:Middlewares/lvgl/src/misc/lv_color.c **** 
 144:Middlewares/lvgl/src/misc/lv_color.c **** /**
 145:Middlewares/lvgl/src/misc/lv_color.c ****  * Convert a HSV color to RGB
 146:Middlewares/lvgl/src/misc/lv_color.c ****  * @param h hue [0..359]
 147:Middlewares/lvgl/src/misc/lv_color.c ****  * @param s saturation [0..100]
 148:Middlewares/lvgl/src/misc/lv_color.c ****  * @param v value [0..100]
ARM GAS  /tmp/ccKaNmJL.s 			page 23


 149:Middlewares/lvgl/src/misc/lv_color.c ****  * @return the given RGB color in RGB (with LV_COLOR_DEPTH depth)
 150:Middlewares/lvgl/src/misc/lv_color.c ****  */
 151:Middlewares/lvgl/src/misc/lv_color.c **** lv_color_t lv_color_hsv_to_rgb(uint16_t h, uint8_t s, uint8_t v)
 152:Middlewares/lvgl/src/misc/lv_color.c **** {
 398              		.loc 1 152 1 is_stmt 1 view -0
 399              		.cfi_startproc
 400              		@ args = 0, pretend = 0, frame = 0
 401              		@ frame_needed = 0, uses_anonymous_args = 0
 402              		.loc 1 152 1 is_stmt 0 view .LVU114
 403 0000 10B5     		push	{r4, lr}
 404              	.LCFI3:
 405              		.cfi_def_cfa_offset 8
 406              		.cfi_offset 4, -8
 407              		.cfi_offset 14, -4
 153:Middlewares/lvgl/src/misc/lv_color.c ****     h = (uint32_t)((uint32_t)h * 255) / 360;
 408              		.loc 1 153 5 is_stmt 1 view .LVU115
 409              		.loc 1 153 9 is_stmt 0 view .LVU116
 410 0002 C0EB0020 		rsb	r0, r0, r0, lsl #8
 411              	.LVL44:
 412              		.loc 1 153 39 view .LVU117
 413 0006 C008     		lsrs	r0, r0, #3
 414 0008 3A4B     		ldr	r3, .L30
 415 000a A3FB0030 		umull	r3, r0, r3, r0
 416 000e 4FEA900C 		lsr	ip, r0, #2
 417              		.loc 1 153 7 view .LVU118
 418 0012 C0F38F00 		ubfx	r0, r0, #2, #16
 419              	.LVL45:
 154:Middlewares/lvgl/src/misc/lv_color.c ****     s = (uint16_t)((uint16_t)s * 255) / 100;
 420              		.loc 1 154 5 is_stmt 1 view .LVU119
 421              		.loc 1 154 9 is_stmt 0 view .LVU120
 422 0016 C1EB0121 		rsb	r1, r1, r1, lsl #8
 423              	.LVL46:
 424              		.loc 1 154 9 view .LVU121
 425 001a 8BB2     		uxth	r3, r1
 426              		.loc 1 154 7 view .LVU122
 427 001c 364C     		ldr	r4, .L30+4
 428 001e A4FB0313 		umull	r1, r3, r4, r3
 429 0022 C3F34713 		ubfx	r3, r3, #5, #8
 430              	.LVL47:
 155:Middlewares/lvgl/src/misc/lv_color.c ****     v = (uint16_t)((uint16_t)v * 255) / 100;
 431              		.loc 1 155 5 is_stmt 1 view .LVU123
 432              		.loc 1 155 9 is_stmt 0 view .LVU124
 433 0026 C2EB0222 		rsb	r2, r2, r2, lsl #8
 434              	.LVL48:
 435              		.loc 1 155 9 view .LVU125
 436 002a 91B2     		uxth	r1, r2
 437              		.loc 1 155 7 view .LVU126
 438 002c A4FB0121 		umull	r2, r1, r4, r1
 439 0030 C1F34711 		ubfx	r1, r1, #5, #8
 440              	.LVL49:
 156:Middlewares/lvgl/src/misc/lv_color.c **** 
 157:Middlewares/lvgl/src/misc/lv_color.c ****     uint8_t r, g, b;
 441              		.loc 1 157 5 is_stmt 1 view .LVU127
 158:Middlewares/lvgl/src/misc/lv_color.c **** 
 159:Middlewares/lvgl/src/misc/lv_color.c ****     uint8_t region, remainder, p, q, t;
 442              		.loc 1 159 5 view .LVU128
 160:Middlewares/lvgl/src/misc/lv_color.c **** 
ARM GAS  /tmp/ccKaNmJL.s 			page 24


 161:Middlewares/lvgl/src/misc/lv_color.c ****     if(s == 0) {
 443              		.loc 1 161 5 view .LVU129
 444              		.loc 1 161 7 is_stmt 0 view .LVU130
 445 0034 83B3     		cbz	r3, .L29
 162:Middlewares/lvgl/src/misc/lv_color.c ****         return lv_color_make(v, v, v);
 163:Middlewares/lvgl/src/misc/lv_color.c ****     }
 164:Middlewares/lvgl/src/misc/lv_color.c **** 
 165:Middlewares/lvgl/src/misc/lv_color.c ****     region    = h / 43;
 446              		.loc 1 165 5 is_stmt 1 view .LVU131
 447              		.loc 1 165 15 is_stmt 0 view .LVU132
 448 0036 314A     		ldr	r2, .L30+8
 449 0038 A2FB0020 		umull	r2, r0, r2, r0
 450              	.LVL50:
 451              		.loc 1 165 15 view .LVU133
 452 003c C0F3C700 		ubfx	r0, r0, #3, #8
 453              	.LVL51:
 166:Middlewares/lvgl/src/misc/lv_color.c ****     remainder = (h - (region * 43)) * 6;
 454              		.loc 1 166 5 is_stmt 1 view .LVU134
 455              		.loc 1 166 20 is_stmt 0 view .LVU135
 456 0040 1FFA8CF2 		uxth	r2, ip
 457 0044 6FF02A04 		mvn	r4, #42
 458 0048 04FB0022 		mla	r2, r4, r0, r2
 459              		.loc 1 166 15 view .LVU136
 460 004c 02EB4202 		add	r2, r2, r2, lsl #1
 461 0050 5200     		lsls	r2, r2, #1
 462 0052 D2B2     		uxtb	r2, r2
 463              	.LVL52:
 167:Middlewares/lvgl/src/misc/lv_color.c **** 
 168:Middlewares/lvgl/src/misc/lv_color.c ****     p = (v * (255 - s)) >> 8;
 464              		.loc 1 168 5 is_stmt 1 view .LVU137
 465              		.loc 1 168 19 is_stmt 0 view .LVU138
 466 0054 C3F1FF0E 		rsb	lr, r3, #255
 467              		.loc 1 168 12 view .LVU139
 468 0058 0EFB01FE 		mul	lr, lr, r1
 469              		.loc 1 168 7 view .LVU140
 470 005c CEF3072E 		ubfx	lr, lr, #8, #8
 471              	.LVL53:
 169:Middlewares/lvgl/src/misc/lv_color.c ****     q = (v * (255 - ((s * remainder) >> 8))) >> 8;
 472              		.loc 1 169 5 is_stmt 1 view .LVU141
 473              		.loc 1 169 25 is_stmt 0 view .LVU142
 474 0060 02FB03FC 		mul	ip, r2, r3
 475              		.loc 1 169 38 view .LVU143
 476 0064 4FEA2C2C 		asr	ip, ip, #8
 477              		.loc 1 169 19 view .LVU144
 478 0068 CCF1FF0C 		rsb	ip, ip, #255
 479              		.loc 1 169 12 view .LVU145
 480 006c 0CFB01FC 		mul	ip, ip, r1
 481              		.loc 1 169 7 view .LVU146
 482 0070 CCF3072C 		ubfx	ip, ip, #8, #8
 483              	.LVL54:
 170:Middlewares/lvgl/src/misc/lv_color.c ****     t = (v * (255 - ((s * (255 - remainder)) >> 8))) >> 8;
 484              		.loc 1 170 5 is_stmt 1 view .LVU147
 485              		.loc 1 170 32 is_stmt 0 view .LVU148
 486 0074 C2F1FF02 		rsb	r2, r2, #255
 487              	.LVL55:
 488              		.loc 1 170 25 view .LVU149
 489 0078 03FB02F2 		mul	r2, r3, r2
ARM GAS  /tmp/ccKaNmJL.s 			page 25


 490              		.loc 1 170 46 view .LVU150
 491 007c 1212     		asrs	r2, r2, #8
 492              		.loc 1 170 19 view .LVU151
 493 007e C2F1FF02 		rsb	r2, r2, #255
 494              		.loc 1 170 12 view .LVU152
 495 0082 01FB02F2 		mul	r2, r1, r2
 496              		.loc 1 170 7 view .LVU153
 497 0086 C2F30722 		ubfx	r2, r2, #8, #8
 498              	.LVL56:
 171:Middlewares/lvgl/src/misc/lv_color.c **** 
 172:Middlewares/lvgl/src/misc/lv_color.c ****     switch(region) {
 499              		.loc 1 172 5 is_stmt 1 view .LVU154
 500 008a 0428     		cmp	r0, #4
 501 008c 2DD8     		bhi	.L21
 502 008e DFE800F0 		tbb	[pc, r0]
 503              	.LVL57:
 504              	.L23:
 505 0092 0E       		.byte	(.L27-.L23)/2
 506 0093 10       		.byte	(.L26-.L23)/2
 507 0094 1F       		.byte	(.L25-.L23)/2
 508 0095 22       		.byte	(.L24-.L23)/2
 509 0096 27       		.byte	(.L22-.L23)/2
 510 0097 00       		.p2align 1
 511              	.L29:
 162:Middlewares/lvgl/src/misc/lv_color.c ****     }
 512              		.loc 1 162 9 view .LVU155
 513              	.LBB60:
 514              	.LBI60:
 602:Middlewares/lvgl/src/misc/lv_color.h **** {
 515              		.loc 2 602 26 view .LVU156
 516              	.LBB61:
 604:Middlewares/lvgl/src/misc/lv_color.h **** }
 517              		.loc 2 604 5 view .LVU157
 604:Middlewares/lvgl/src/misc/lv_color.h **** }
 518              		.loc 2 604 39 is_stmt 0 view .LVU158
 519 0098 CB08     		lsrs	r3, r1, #3
 520              	.LVL58:
 604:Middlewares/lvgl/src/misc/lv_color.h **** }
 521              		.loc 2 604 39 view .LVU159
 522 009a 8908     		lsrs	r1, r1, #2
 523              	.LVL59:
 604:Middlewares/lvgl/src/misc/lv_color.h **** }
 524              		.loc 2 604 12 view .LVU160
 525 009c 4FF00000 		mov	r0, #0	@ movhi
 526              	.LVL60:
 604:Middlewares/lvgl/src/misc/lv_color.h **** }
 527              		.loc 2 604 12 view .LVU161
 528 00a0 63F30400 		bfi	r0, r3, #0, #5
 529 00a4 61F34A10 		bfi	r0, r1, #5, #6
 530 00a8 63F3CF20 		bfi	r0, r3, #11, #5
 604:Middlewares/lvgl/src/misc/lv_color.h **** }
 531              		.loc 2 604 12 view .LVU162
 532              	.LBE61:
 533              	.LBE60:
 162:Middlewares/lvgl/src/misc/lv_color.c ****     }
 534              		.loc 1 162 16 view .LVU163
 535 00ac 0FE0     		b	.L20
ARM GAS  /tmp/ccKaNmJL.s 			page 26


 536              	.LVL61:
 537              	.L27:
 538              		.loc 1 172 5 view .LVU164
 539 00ae 8C46     		mov	ip, r1
 540              	.LVL62:
 541              		.loc 1 172 5 view .LVU165
 542 00b0 1146     		mov	r1, r2
 543              	.LVL63:
 544              	.L26:
 173:Middlewares/lvgl/src/misc/lv_color.c ****         case 0:
 174:Middlewares/lvgl/src/misc/lv_color.c ****             r = v;
 175:Middlewares/lvgl/src/misc/lv_color.c ****             g = t;
 176:Middlewares/lvgl/src/misc/lv_color.c ****             b = p;
 177:Middlewares/lvgl/src/misc/lv_color.c ****             break;
 178:Middlewares/lvgl/src/misc/lv_color.c ****         case 1:
 179:Middlewares/lvgl/src/misc/lv_color.c ****             r = q;
 180:Middlewares/lvgl/src/misc/lv_color.c ****             g = v;
 181:Middlewares/lvgl/src/misc/lv_color.c ****             b = p;
 182:Middlewares/lvgl/src/misc/lv_color.c ****             break;
 183:Middlewares/lvgl/src/misc/lv_color.c ****         case 2:
 184:Middlewares/lvgl/src/misc/lv_color.c ****             r = p;
 185:Middlewares/lvgl/src/misc/lv_color.c ****             g = v;
 186:Middlewares/lvgl/src/misc/lv_color.c ****             b = t;
 187:Middlewares/lvgl/src/misc/lv_color.c ****             break;
 188:Middlewares/lvgl/src/misc/lv_color.c ****         case 3:
 189:Middlewares/lvgl/src/misc/lv_color.c ****             r = p;
 190:Middlewares/lvgl/src/misc/lv_color.c ****             g = q;
 191:Middlewares/lvgl/src/misc/lv_color.c ****             b = v;
 192:Middlewares/lvgl/src/misc/lv_color.c ****             break;
 193:Middlewares/lvgl/src/misc/lv_color.c ****         case 4:
 194:Middlewares/lvgl/src/misc/lv_color.c ****             r = t;
 195:Middlewares/lvgl/src/misc/lv_color.c ****             g = p;
 196:Middlewares/lvgl/src/misc/lv_color.c ****             b = v;
 197:Middlewares/lvgl/src/misc/lv_color.c ****             break;
 198:Middlewares/lvgl/src/misc/lv_color.c ****         default:
 199:Middlewares/lvgl/src/misc/lv_color.c ****             r = v;
 200:Middlewares/lvgl/src/misc/lv_color.c ****             g = p;
 201:Middlewares/lvgl/src/misc/lv_color.c ****             b = q;
 202:Middlewares/lvgl/src/misc/lv_color.c ****             break;
 203:Middlewares/lvgl/src/misc/lv_color.c ****     }
 204:Middlewares/lvgl/src/misc/lv_color.c **** 
 205:Middlewares/lvgl/src/misc/lv_color.c ****     lv_color_t result = lv_color_make(r, g, b);
 545              		.loc 1 205 5 is_stmt 1 view .LVU166
 546              	.LBB62:
 547              	.LBI62:
 602:Middlewares/lvgl/src/misc/lv_color.h **** {
 548              		.loc 2 602 26 view .LVU167
 549              	.LBB63:
 604:Middlewares/lvgl/src/misc/lv_color.h **** }
 550              		.loc 2 604 5 view .LVU168
 604:Middlewares/lvgl/src/misc/lv_color.h **** }
 551              		.loc 2 604 39 is_stmt 0 view .LVU169
 552 00b2 CEF3C40E 		ubfx	lr, lr, #3, #5
 553              	.LVL64:
 604:Middlewares/lvgl/src/misc/lv_color.h **** }
 554              		.loc 2 604 39 view .LVU170
 555 00b6 C1F38501 		ubfx	r1, r1, #2, #6
ARM GAS  /tmp/ccKaNmJL.s 			page 27


 556              	.LVL65:
 604:Middlewares/lvgl/src/misc/lv_color.h **** }
 557              		.loc 2 604 39 view .LVU171
 558 00ba CCF3C40C 		ubfx	ip, ip, #3, #5
 559              	.LVL66:
 604:Middlewares/lvgl/src/misc/lv_color.h **** }
 560              		.loc 2 604 12 view .LVU172
 561 00be 4FF00000 		mov	r0, #0	@ movhi
 562              	.LVL67:
 604:Middlewares/lvgl/src/misc/lv_color.h **** }
 563              		.loc 2 604 12 view .LVU173
 564 00c2 6EF30400 		bfi	r0, lr, #0, #5
 565 00c6 61F34A10 		bfi	r0, r1, #5, #6
 566 00ca 6CF3CF20 		bfi	r0, ip, #11, #5
 604:Middlewares/lvgl/src/misc/lv_color.h **** }
 567              		.loc 2 604 12 view .LVU174
 568              	.LBE63:
 569              	.LBE62:
 206:Middlewares/lvgl/src/misc/lv_color.c ****     return result;
 570              		.loc 1 206 5 is_stmt 1 view .LVU175
 571              	.LVL68:
 572              	.L20:
 207:Middlewares/lvgl/src/misc/lv_color.c **** }
 573              		.loc 1 207 1 is_stmt 0 view .LVU176
 574 00ce 10BD     		pop	{r4, pc}
 575              	.LVL69:
 576              	.L25:
 184:Middlewares/lvgl/src/misc/lv_color.c ****             g = v;
 577              		.loc 1 184 13 is_stmt 1 view .LVU177
 185:Middlewares/lvgl/src/misc/lv_color.c ****             b = t;
 578              		.loc 1 185 13 view .LVU178
 186:Middlewares/lvgl/src/misc/lv_color.c ****             break;
 579              		.loc 1 186 13 view .LVU179
 187:Middlewares/lvgl/src/misc/lv_color.c ****         case 3:
 580              		.loc 1 187 13 view .LVU180
 184:Middlewares/lvgl/src/misc/lv_color.c ****             g = v;
 581              		.loc 1 184 15 is_stmt 0 view .LVU181
 582 00d0 F446     		mov	ip, lr
 583              	.LVL70:
 186:Middlewares/lvgl/src/misc/lv_color.c ****             break;
 584              		.loc 1 186 15 view .LVU182
 585 00d2 9646     		mov	lr, r2
 586              	.LVL71:
 187:Middlewares/lvgl/src/misc/lv_color.c ****         case 3:
 587              		.loc 1 187 13 view .LVU183
 588 00d4 EDE7     		b	.L26
 589              	.LVL72:
 590              	.L24:
 189:Middlewares/lvgl/src/misc/lv_color.c ****             g = q;
 591              		.loc 1 189 13 is_stmt 1 view .LVU184
 190:Middlewares/lvgl/src/misc/lv_color.c ****             b = v;
 592              		.loc 1 190 13 view .LVU185
 191:Middlewares/lvgl/src/misc/lv_color.c ****             break;
 593              		.loc 1 191 13 view .LVU186
 192:Middlewares/lvgl/src/misc/lv_color.c ****         case 4:
 594              		.loc 1 192 13 view .LVU187
 595 00d6 6346     		mov	r3, ip
ARM GAS  /tmp/ccKaNmJL.s 			page 28


 189:Middlewares/lvgl/src/misc/lv_color.c ****             g = q;
 596              		.loc 1 189 15 is_stmt 0 view .LVU188
 597 00d8 F446     		mov	ip, lr
 598              	.LVL73:
 191:Middlewares/lvgl/src/misc/lv_color.c ****             break;
 599              		.loc 1 191 15 view .LVU189
 600 00da 8E46     		mov	lr, r1
 601              	.LVL74:
 190:Middlewares/lvgl/src/misc/lv_color.c ****             b = v;
 602              		.loc 1 190 15 view .LVU190
 603 00dc 1946     		mov	r1, r3
 604              	.LVL75:
 192:Middlewares/lvgl/src/misc/lv_color.c ****         case 4:
 605              		.loc 1 192 13 view .LVU191
 606 00de E8E7     		b	.L26
 607              	.LVL76:
 608              	.L22:
 194:Middlewares/lvgl/src/misc/lv_color.c ****             g = p;
 609              		.loc 1 194 13 is_stmt 1 view .LVU192
 195:Middlewares/lvgl/src/misc/lv_color.c ****             b = v;
 610              		.loc 1 195 13 view .LVU193
 196:Middlewares/lvgl/src/misc/lv_color.c ****             break;
 611              		.loc 1 196 13 view .LVU194
 197:Middlewares/lvgl/src/misc/lv_color.c ****         default:
 612              		.loc 1 197 13 view .LVU195
 613 00e0 0B46     		mov	r3, r1
 195:Middlewares/lvgl/src/misc/lv_color.c ****             b = v;
 614              		.loc 1 195 15 is_stmt 0 view .LVU196
 615 00e2 7146     		mov	r1, lr
 616              	.LVL77:
 196:Middlewares/lvgl/src/misc/lv_color.c ****             break;
 617              		.loc 1 196 15 view .LVU197
 618 00e4 9E46     		mov	lr, r3
 619              	.LVL78:
 194:Middlewares/lvgl/src/misc/lv_color.c ****             g = p;
 620              		.loc 1 194 15 view .LVU198
 621 00e6 9446     		mov	ip, r2
 622              	.LVL79:
 197:Middlewares/lvgl/src/misc/lv_color.c ****         default:
 623              		.loc 1 197 13 view .LVU199
 624 00e8 E3E7     		b	.L26
 625              	.LVL80:
 626              	.L21:
 199:Middlewares/lvgl/src/misc/lv_color.c ****             g = p;
 627              		.loc 1 199 13 is_stmt 1 view .LVU200
 200:Middlewares/lvgl/src/misc/lv_color.c ****             b = q;
 628              		.loc 1 200 13 view .LVU201
 201:Middlewares/lvgl/src/misc/lv_color.c ****             break;
 629              		.loc 1 201 13 view .LVU202
 202:Middlewares/lvgl/src/misc/lv_color.c ****     }
 630              		.loc 1 202 13 view .LVU203
 631 00ea 6346     		mov	r3, ip
 199:Middlewares/lvgl/src/misc/lv_color.c ****             g = p;
 632              		.loc 1 199 15 is_stmt 0 view .LVU204
 633 00ec 8C46     		mov	ip, r1
 634              	.LVL81:
 200:Middlewares/lvgl/src/misc/lv_color.c ****             b = q;
ARM GAS  /tmp/ccKaNmJL.s 			page 29


 635              		.loc 1 200 15 view .LVU205
 636 00ee 7146     		mov	r1, lr
 637              	.LVL82:
 201:Middlewares/lvgl/src/misc/lv_color.c ****             break;
 638              		.loc 1 201 15 view .LVU206
 639 00f0 9E46     		mov	lr, r3
 640              	.LVL83:
 202:Middlewares/lvgl/src/misc/lv_color.c ****     }
 641              		.loc 1 202 13 view .LVU207
 642 00f2 DEE7     		b	.L26
 643              	.L31:
 644              		.align	2
 645              	.L30:
 646 00f4 176CC116 		.word	381774871
 647 00f8 1F85EB51 		.word	1374389535
 648 00fc 83BEA02F 		.word	799063683
 649              		.cfi_endproc
 650              	.LFE21:
 652              		.section	.text.lv_color_rgb_to_hsv,"ax",%progbits
 653              		.align	1
 654              		.global	lv_color_rgb_to_hsv
 655              		.syntax unified
 656              		.thumb
 657              		.thumb_func
 659              	lv_color_rgb_to_hsv:
 660              	.LVL84:
 661              	.LFB22:
 208:Middlewares/lvgl/src/misc/lv_color.c **** 
 209:Middlewares/lvgl/src/misc/lv_color.c **** /**
 210:Middlewares/lvgl/src/misc/lv_color.c ****  * Convert a 32-bit RGB color to HSV
 211:Middlewares/lvgl/src/misc/lv_color.c ****  * @param r8 8-bit red
 212:Middlewares/lvgl/src/misc/lv_color.c ****  * @param g8 8-bit green
 213:Middlewares/lvgl/src/misc/lv_color.c ****  * @param b8 8-bit blue
 214:Middlewares/lvgl/src/misc/lv_color.c ****  * @return the given RGB color in HSV
 215:Middlewares/lvgl/src/misc/lv_color.c ****  */
 216:Middlewares/lvgl/src/misc/lv_color.c **** lv_color_hsv_t lv_color_rgb_to_hsv(uint8_t r8, uint8_t g8, uint8_t b8)
 217:Middlewares/lvgl/src/misc/lv_color.c **** {
 662              		.loc 1 217 1 is_stmt 1 view -0
 663              		.cfi_startproc
 664              		@ args = 0, pretend = 0, frame = 8
 665              		@ frame_needed = 0, uses_anonymous_args = 0
 666              		.loc 1 217 1 is_stmt 0 view .LVU209
 667 0000 70B5     		push	{r4, r5, r6, lr}
 668              	.LCFI4:
 669              		.cfi_def_cfa_offset 16
 670              		.cfi_offset 4, -16
 671              		.cfi_offset 5, -12
 672              		.cfi_offset 6, -8
 673              		.cfi_offset 14, -4
 674 0002 82B0     		sub	sp, sp, #8
 675              	.LCFI5:
 676              		.cfi_def_cfa_offset 24
 218:Middlewares/lvgl/src/misc/lv_color.c ****     uint16_t r = ((uint32_t)r8 << 10) / 255;
 677              		.loc 1 218 5 is_stmt 1 view .LVU210
 678              		.loc 1 218 32 is_stmt 0 view .LVU211
 679 0004 8002     		lsls	r0, r0, #10
 680              	.LVL85:
ARM GAS  /tmp/ccKaNmJL.s 			page 30


 681              		.loc 1 218 39 view .LVU212
 682 0006 494B     		ldr	r3, .L54
 683 0008 A3FB0040 		umull	r4, r0, r3, r0
 684 000c 4FEAD01C 		lsr	ip, r0, #7
 685              		.loc 1 218 14 view .LVU213
 686 0010 6446     		mov	r4, ip
 687              	.LVL86:
 219:Middlewares/lvgl/src/misc/lv_color.c ****     uint16_t g = ((uint32_t)g8 << 10) / 255;
 688              		.loc 1 219 5 is_stmt 1 view .LVU214
 689              		.loc 1 219 32 is_stmt 0 view .LVU215
 690 0012 8902     		lsls	r1, r1, #10
 691              	.LVL87:
 692              		.loc 1 219 39 view .LVU216
 693 0014 A3FB0151 		umull	r5, r1, r3, r1
 694 0018 CD09     		lsrs	r5, r1, #7
 695              		.loc 1 219 14 view .LVU217
 696 001a 2946     		mov	r1, r5
 697              	.LVL88:
 220:Middlewares/lvgl/src/misc/lv_color.c ****     uint16_t b = ((uint32_t)b8 << 10) / 255;
 698              		.loc 1 220 5 is_stmt 1 view .LVU218
 699              		.loc 1 220 32 is_stmt 0 view .LVU219
 700 001c 9202     		lsls	r2, r2, #10
 701              	.LVL89:
 702              		.loc 1 220 39 view .LVU220
 703 001e A3FB0232 		umull	r3, r2, r3, r2
 704 0022 D609     		lsrs	r6, r2, #7
 705              		.loc 1 220 14 view .LVU221
 706 0024 3246     		mov	r2, r6
 707              	.LVL90:
 221:Middlewares/lvgl/src/misc/lv_color.c **** 
 222:Middlewares/lvgl/src/misc/lv_color.c ****     uint16_t rgbMin = r < g ? (r < b ? r : b) : (g < b ? g : b);
 708              		.loc 1 222 5 is_stmt 1 view .LVU222
 709              		.loc 1 222 14 is_stmt 0 view .LVU223
 710 0026 B5EBD01F 		cmp	r5, r0, lsr #7
 711 002a 2BD9     		bls	.L33
 712              		.loc 1 222 14 discriminator 1 view .LVU224
 713 002c 6346     		mov	r3, ip
 714 002e B445     		cmp	ip, r6
 715 0030 28BF     		it	cs
 716 0032 3346     		movcs	r3, r6
 717 0034 9BB2     		uxth	r3, r3
 718              	.L34:
 719              	.LVL91:
 223:Middlewares/lvgl/src/misc/lv_color.c ****     uint16_t rgbMax = r > g ? (r > b ? r : b) : (g > b ? g : b);
 720              		.loc 1 223 5 is_stmt 1 discriminator 4 view .LVU225
 721              		.loc 1 223 14 is_stmt 0 discriminator 4 view .LVU226
 722 0036 8C42     		cmp	r4, r1
 723 0038 2AD9     		bls	.L35
 724              		.loc 1 223 14 discriminator 1 view .LVU227
 725 003a 2046     		mov	r0, r4
 726 003c 9442     		cmp	r4, r2
 727 003e 38BF     		it	cc
 728 0040 1046     		movcc	r0, r2
 729 0042 80B2     		uxth	r0, r0
 730              	.L36:
 731              	.LVL92:
 224:Middlewares/lvgl/src/misc/lv_color.c **** 
ARM GAS  /tmp/ccKaNmJL.s 			page 31


 225:Middlewares/lvgl/src/misc/lv_color.c ****     lv_color_hsv_t hsv;
 732              		.loc 1 225 5 is_stmt 1 discriminator 4 view .LVU228
 226:Middlewares/lvgl/src/misc/lv_color.c **** 
 227:Middlewares/lvgl/src/misc/lv_color.c ****     // https://en.wikipedia.org/wiki/HSL_and_HSV#Lightness
 228:Middlewares/lvgl/src/misc/lv_color.c ****     hsv.v = (100 * rgbMax) >> 10;
 733              		.loc 1 228 5 discriminator 4 view .LVU229
 734              		.loc 1 228 18 is_stmt 0 discriminator 4 view .LVU230
 735 0044 4FF0640E 		mov	lr, #100
 736 0048 0EFB00FE 		mul	lr, lr, r0
 737              		.loc 1 228 28 discriminator 4 view .LVU231
 738 004c 4FEAAE2E 		asr	lr, lr, #10
 739              		.loc 1 228 11 discriminator 4 view .LVU232
 740 0050 8DF803E0 		strb	lr, [sp, #3]
 229:Middlewares/lvgl/src/misc/lv_color.c **** 
 230:Middlewares/lvgl/src/misc/lv_color.c ****     int32_t delta = rgbMax - rgbMin;
 741              		.loc 1 230 5 is_stmt 1 discriminator 4 view .LVU233
 742              		.loc 1 230 13 is_stmt 0 discriminator 4 view .LVU234
 743 0054 C31A     		subs	r3, r0, r3
 744              	.LVL93:
 231:Middlewares/lvgl/src/misc/lv_color.c ****     if(delta < 3) {
 745              		.loc 1 231 5 is_stmt 1 discriminator 4 view .LVU235
 746              		.loc 1 231 7 is_stmt 0 discriminator 4 view .LVU236
 747 0056 022B     		cmp	r3, #2
 748 0058 20DD     		ble	.L48
 232:Middlewares/lvgl/src/misc/lv_color.c ****         hsv.h = 0;
 233:Middlewares/lvgl/src/misc/lv_color.c ****         hsv.s = 0;
 234:Middlewares/lvgl/src/misc/lv_color.c ****         return hsv;
 235:Middlewares/lvgl/src/misc/lv_color.c ****     }
 236:Middlewares/lvgl/src/misc/lv_color.c **** 
 237:Middlewares/lvgl/src/misc/lv_color.c ****     // https://en.wikipedia.org/wiki/HSL_and_HSV#Saturation
 238:Middlewares/lvgl/src/misc/lv_color.c ****     hsv.s = 100 * delta / rgbMax;
 749              		.loc 1 238 5 is_stmt 1 view .LVU237
 750              		.loc 1 238 17 is_stmt 0 view .LVU238
 751 005a 4FF0640E 		mov	lr, #100
 752 005e 0EFB03FE 		mul	lr, lr, r3
 753              		.loc 1 238 25 view .LVU239
 754 0062 9EFBF0FE 		sdiv	lr, lr, r0
 755              		.loc 1 238 11 view .LVU240
 756 0066 5FFA8EFE 		uxtb	lr, lr
 757 006a 8DF802E0 		strb	lr, [sp, #2]
 239:Middlewares/lvgl/src/misc/lv_color.c ****     if(hsv.s < 3) {
 758              		.loc 1 239 5 is_stmt 1 view .LVU241
 759              		.loc 1 239 7 is_stmt 0 view .LVU242
 760 006e BEF1020F 		cmp	lr, #2
 761 0072 1BD9     		bls	.L49
 240:Middlewares/lvgl/src/misc/lv_color.c ****         hsv.h = 0;
 241:Middlewares/lvgl/src/misc/lv_color.c ****         return hsv;
 242:Middlewares/lvgl/src/misc/lv_color.c ****     }
 243:Middlewares/lvgl/src/misc/lv_color.c **** 
 244:Middlewares/lvgl/src/misc/lv_color.c ****     // https://en.wikipedia.org/wiki/HSL_and_HSV#Hue_and_chroma
 245:Middlewares/lvgl/src/misc/lv_color.c ****     int32_t h;
 762              		.loc 1 245 5 is_stmt 1 view .LVU243
 246:Middlewares/lvgl/src/misc/lv_color.c ****     if(rgbMax == r)
 763              		.loc 1 246 5 view .LVU244
 764              		.loc 1 246 7 is_stmt 0 view .LVU245
 765 0074 A042     		cmp	r0, r4
 766 0076 1FD0     		beq	.L50
ARM GAS  /tmp/ccKaNmJL.s 			page 32


 247:Middlewares/lvgl/src/misc/lv_color.c ****         h = (((g - b) << 10) / delta) + (g < b ? (6 << 10) : 0); // between yellow & magenta
 248:Middlewares/lvgl/src/misc/lv_color.c ****     else if(rgbMax == g)
 767              		.loc 1 248 10 is_stmt 1 view .LVU246
 768              		.loc 1 248 12 is_stmt 0 view .LVU247
 769 0078 8842     		cmp	r0, r1
 770 007a 3FD0     		beq	.L51
 249:Middlewares/lvgl/src/misc/lv_color.c ****         h = (((b - r) << 10) / delta) + (2 << 10); // between cyan & yellow
 250:Middlewares/lvgl/src/misc/lv_color.c ****     else if(rgbMax == b)
 771              		.loc 1 250 10 is_stmt 1 view .LVU248
 772              		.loc 1 250 12 is_stmt 0 view .LVU249
 773 007c 9042     		cmp	r0, r2
 774 007e 47D0     		beq	.L52
 251:Middlewares/lvgl/src/misc/lv_color.c ****         h = (((r - g) << 10) / delta) + (4 << 10); // between magenta & cyan
 252:Middlewares/lvgl/src/misc/lv_color.c ****     else
 253:Middlewares/lvgl/src/misc/lv_color.c ****         h = 0;
 775              		.loc 1 253 11 view .LVU250
 776 0080 0023     		movs	r3, #0
 777              	.LVL94:
 778              		.loc 1 253 11 view .LVU251
 779 0082 24E0     		b	.L42
 780              	.LVL95:
 781              	.L33:
 222:Middlewares/lvgl/src/misc/lv_color.c ****     uint16_t rgbMax = r > g ? (r > b ? r : b) : (g > b ? g : b);
 782              		.loc 1 222 14 discriminator 2 view .LVU252
 783 0084 2B46     		mov	r3, r5
 784 0086 B542     		cmp	r5, r6
 785 0088 28BF     		it	cs
 786 008a 3346     		movcs	r3, r6
 787 008c 9BB2     		uxth	r3, r3
 788 008e D2E7     		b	.L34
 789              	.LVL96:
 790              	.L35:
 223:Middlewares/lvgl/src/misc/lv_color.c **** 
 791              		.loc 1 223 14 discriminator 2 view .LVU253
 792 0090 0846     		mov	r0, r1
 793 0092 9142     		cmp	r1, r2
 794 0094 38BF     		it	cc
 795 0096 1046     		movcc	r0, r2
 796 0098 80B2     		uxth	r0, r0
 797 009a D3E7     		b	.L36
 798              	.LVL97:
 799              	.L48:
 232:Middlewares/lvgl/src/misc/lv_color.c ****         hsv.s = 0;
 800              		.loc 1 232 9 is_stmt 1 view .LVU254
 232:Middlewares/lvgl/src/misc/lv_color.c ****         hsv.s = 0;
 801              		.loc 1 232 15 is_stmt 0 view .LVU255
 802 009c 0023     		movs	r3, #0
 803              	.LVL98:
 232:Middlewares/lvgl/src/misc/lv_color.c ****         hsv.s = 0;
 804              		.loc 1 232 15 view .LVU256
 805 009e ADF80030 		strh	r3, [sp]	@ movhi
 233:Middlewares/lvgl/src/misc/lv_color.c ****         return hsv;
 806              		.loc 1 233 9 is_stmt 1 view .LVU257
 233:Middlewares/lvgl/src/misc/lv_color.c ****         return hsv;
 807              		.loc 1 233 15 is_stmt 0 view .LVU258
 808 00a2 8DF80230 		strb	r3, [sp, #2]
 234:Middlewares/lvgl/src/misc/lv_color.c ****     }
ARM GAS  /tmp/ccKaNmJL.s 			page 33


 809              		.loc 1 234 9 is_stmt 1 view .LVU259
 234:Middlewares/lvgl/src/misc/lv_color.c ****     }
 810              		.loc 1 234 16 is_stmt 0 view .LVU260
 811 00a6 009B     		ldr	r3, [sp]
 812 00a8 0193     		str	r3, [sp, #4]
 813 00aa 1AE0     		b	.L38
 814              	.LVL99:
 815              	.L49:
 240:Middlewares/lvgl/src/misc/lv_color.c ****         return hsv;
 816              		.loc 1 240 9 is_stmt 1 view .LVU261
 240:Middlewares/lvgl/src/misc/lv_color.c ****         return hsv;
 817              		.loc 1 240 15 is_stmt 0 view .LVU262
 818 00ac 0023     		movs	r3, #0
 819              	.LVL100:
 240:Middlewares/lvgl/src/misc/lv_color.c ****         return hsv;
 820              		.loc 1 240 15 view .LVU263
 821 00ae ADF80030 		strh	r3, [sp]	@ movhi
 241:Middlewares/lvgl/src/misc/lv_color.c ****     }
 822              		.loc 1 241 9 is_stmt 1 view .LVU264
 241:Middlewares/lvgl/src/misc/lv_color.c ****     }
 823              		.loc 1 241 16 is_stmt 0 view .LVU265
 824 00b2 009B     		ldr	r3, [sp]
 825 00b4 0193     		str	r3, [sp, #4]
 826 00b6 14E0     		b	.L38
 827              	.LVL101:
 828              	.L50:
 247:Middlewares/lvgl/src/misc/lv_color.c ****     else if(rgbMax == g)
 829              		.loc 1 247 9 is_stmt 1 view .LVU266
 247:Middlewares/lvgl/src/misc/lv_color.c ****     else if(rgbMax == g)
 830              		.loc 1 247 18 is_stmt 0 view .LVU267
 831 00b8 A8B2     		uxth	r0, r5
 832              	.LVL102:
 247:Middlewares/lvgl/src/misc/lv_color.c ****     else if(rgbMax == g)
 833              		.loc 1 247 18 view .LVU268
 834 00ba B6B2     		uxth	r6, r6
 247:Middlewares/lvgl/src/misc/lv_color.c ****     else if(rgbMax == g)
 835              		.loc 1 247 18 view .LVU269
 836 00bc 801B     		subs	r0, r0, r6
 247:Middlewares/lvgl/src/misc/lv_color.c ****     else if(rgbMax == g)
 837              		.loc 1 247 23 view .LVU270
 838 00be 8002     		lsls	r0, r0, #10
 247:Middlewares/lvgl/src/misc/lv_color.c ****     else if(rgbMax == g)
 839              		.loc 1 247 30 view .LVU271
 840 00c0 90FBF3F3 		sdiv	r3, r0, r3
 841              	.LVL103:
 247:Middlewares/lvgl/src/misc/lv_color.c ****     else if(rgbMax == g)
 842              		.loc 1 247 60 view .LVU272
 843 00c4 9142     		cmp	r1, r2
 844 00c6 17D2     		bcs	.L45
 845 00c8 4FF4C052 		mov	r2, #6144
 846              	.L41:
 247:Middlewares/lvgl/src/misc/lv_color.c ****     else if(rgbMax == g)
 847              		.loc 1 247 11 discriminator 4 view .LVU273
 848 00cc 1344     		add	r3, r3, r2
 849              	.LVL104:
 850              	.L42:
 254:Middlewares/lvgl/src/misc/lv_color.c ****     h *= 60;
ARM GAS  /tmp/ccKaNmJL.s 			page 34


 851              		.loc 1 254 5 is_stmt 1 view .LVU274
 852              		.loc 1 254 7 is_stmt 0 view .LVU275
 853 00ce C3EB0313 		rsb	r3, r3, r3, lsl #4
 854              	.LVL105:
 255:Middlewares/lvgl/src/misc/lv_color.c ****     h >>= 10;
 855              		.loc 1 255 5 is_stmt 1 view .LVU276
 856              		.loc 1 255 7 is_stmt 0 view .LVU277
 857 00d2 43F31523 		sbfx	r3, r3, #8, #22
 858              	.LVL106:
 256:Middlewares/lvgl/src/misc/lv_color.c ****     if(h < 0) h += 360;
 859              		.loc 1 256 5 is_stmt 1 view .LVU278
 860              		.loc 1 256 7 is_stmt 0 view .LVU279
 861 00d6 002B     		cmp	r3, #0
 862 00d8 24DB     		blt	.L53
 863              	.L44:
 257:Middlewares/lvgl/src/misc/lv_color.c **** 
 258:Middlewares/lvgl/src/misc/lv_color.c ****     hsv.h = h;
 864              		.loc 1 258 5 is_stmt 1 view .LVU280
 865              		.loc 1 258 11 is_stmt 0 view .LVU281
 866 00da ADF80030 		strh	r3, [sp]	@ movhi
 259:Middlewares/lvgl/src/misc/lv_color.c ****     return hsv;
 867              		.loc 1 259 5 is_stmt 1 view .LVU282
 868              		.loc 1 259 12 is_stmt 0 view .LVU283
 869 00de 009B     		ldr	r3, [sp]
 870              	.LVL107:
 871              		.loc 1 259 12 view .LVU284
 872 00e0 0193     		str	r3, [sp, #4]
 873              	.L38:
 260:Middlewares/lvgl/src/misc/lv_color.c **** }
 874              		.loc 1 260 1 view .LVU285
 875 00e2 0020     		movs	r0, #0
 876 00e4 BDF80430 		ldrh	r3, [sp, #4]
 877 00e8 63F30F00 		bfi	r0, r3, #0, #16
 878 00ec BDF80630 		ldrh	r3, [sp, #6]
 879 00f0 63F31F40 		bfi	r0, r3, #16, #16
 880 00f4 02B0     		add	sp, sp, #8
 881              	.LCFI6:
 882              		.cfi_remember_state
 883              		.cfi_def_cfa_offset 16
 884              		@ sp needed
 885 00f6 70BD     		pop	{r4, r5, r6, pc}
 886              	.LVL108:
 887              	.L45:
 888              	.LCFI7:
 889              		.cfi_restore_state
 247:Middlewares/lvgl/src/misc/lv_color.c ****     else if(rgbMax == g)
 890              		.loc 1 247 60 view .LVU286
 891 00f8 0022     		movs	r2, #0
 892 00fa E7E7     		b	.L41
 893              	.LVL109:
 894              	.L51:
 249:Middlewares/lvgl/src/misc/lv_color.c ****     else if(rgbMax == b)
 895              		.loc 1 249 9 is_stmt 1 view .LVU287
 249:Middlewares/lvgl/src/misc/lv_color.c ****     else if(rgbMax == b)
 896              		.loc 1 249 18 is_stmt 0 view .LVU288
 897 00fc B6B2     		uxth	r6, r6
 249:Middlewares/lvgl/src/misc/lv_color.c ****     else if(rgbMax == b)
ARM GAS  /tmp/ccKaNmJL.s 			page 35


 898              		.loc 1 249 18 view .LVU289
 899 00fe A6EB0C0C 		sub	ip, r6, ip
 900              	.LVL110:
 249:Middlewares/lvgl/src/misc/lv_color.c ****     else if(rgbMax == b)
 901              		.loc 1 249 23 view .LVU290
 902 0102 4FEA8C2C 		lsl	ip, ip, #10
 249:Middlewares/lvgl/src/misc/lv_color.c ****     else if(rgbMax == b)
 903              		.loc 1 249 30 view .LVU291
 904 0106 9CFBF3F3 		sdiv	r3, ip, r3
 905              	.LVL111:
 249:Middlewares/lvgl/src/misc/lv_color.c ****     else if(rgbMax == b)
 906              		.loc 1 249 11 view .LVU292
 907 010a 03F50063 		add	r3, r3, #2048
 908              	.LVL112:
 249:Middlewares/lvgl/src/misc/lv_color.c ****     else if(rgbMax == b)
 909              		.loc 1 249 11 view .LVU293
 910 010e DEE7     		b	.L42
 911              	.LVL113:
 912              	.L52:
 251:Middlewares/lvgl/src/misc/lv_color.c ****     else
 913              		.loc 1 251 9 is_stmt 1 view .LVU294
 251:Middlewares/lvgl/src/misc/lv_color.c ****     else
 914              		.loc 1 251 18 is_stmt 0 view .LVU295
 915 0110 A8B2     		uxth	r0, r5
 916              	.LVL114:
 251:Middlewares/lvgl/src/misc/lv_color.c ****     else
 917              		.loc 1 251 18 view .LVU296
 918 0112 ACEB000C 		sub	ip, ip, r0
 919              	.LVL115:
 251:Middlewares/lvgl/src/misc/lv_color.c ****     else
 920              		.loc 1 251 23 view .LVU297
 921 0116 4FEA8C2C 		lsl	ip, ip, #10
 251:Middlewares/lvgl/src/misc/lv_color.c ****     else
 922              		.loc 1 251 30 view .LVU298
 923 011a 9CFBF3F3 		sdiv	r3, ip, r3
 924              	.LVL116:
 251:Middlewares/lvgl/src/misc/lv_color.c ****     else
 925              		.loc 1 251 11 view .LVU299
 926 011e 03F58053 		add	r3, r3, #4096
 927              	.LVL117:
 251:Middlewares/lvgl/src/misc/lv_color.c ****     else
 928              		.loc 1 251 11 view .LVU300
 929 0122 D4E7     		b	.L42
 930              	.LVL118:
 931              	.L53:
 256:Middlewares/lvgl/src/misc/lv_color.c **** 
 932              		.loc 1 256 15 is_stmt 1 discriminator 1 view .LVU301
 256:Middlewares/lvgl/src/misc/lv_color.c **** 
 933              		.loc 1 256 17 is_stmt 0 discriminator 1 view .LVU302
 934 0124 03F5B473 		add	r3, r3, #360
 935              	.LVL119:
 256:Middlewares/lvgl/src/misc/lv_color.c **** 
 936              		.loc 1 256 17 discriminator 1 view .LVU303
 937 0128 D7E7     		b	.L44
 938              	.L55:
 939 012a 00BF     		.align	2
 940              	.L54:
ARM GAS  /tmp/ccKaNmJL.s 			page 36


 941 012c 81808080 		.word	-2139062143
 942              		.cfi_endproc
 943              	.LFE22:
 945              		.section	.text.lv_color_to_hsv,"ax",%progbits
 946              		.align	1
 947              		.global	lv_color_to_hsv
 948              		.syntax unified
 949              		.thumb
 950              		.thumb_func
 952              	lv_color_to_hsv:
 953              	.LVL120:
 954              	.LFB23:
 261:Middlewares/lvgl/src/misc/lv_color.c **** 
 262:Middlewares/lvgl/src/misc/lv_color.c **** /**
 263:Middlewares/lvgl/src/misc/lv_color.c ****  * Convert a color to HSV
 264:Middlewares/lvgl/src/misc/lv_color.c ****  * @param color color
 265:Middlewares/lvgl/src/misc/lv_color.c ****  * @return the given color in HSV
 266:Middlewares/lvgl/src/misc/lv_color.c ****  */
 267:Middlewares/lvgl/src/misc/lv_color.c **** lv_color_hsv_t lv_color_to_hsv(lv_color_t color)
 268:Middlewares/lvgl/src/misc/lv_color.c **** {
 955              		.loc 1 268 1 is_stmt 1 view -0
 956              		.cfi_startproc
 957              		@ args = 0, pretend = 0, frame = 8
 958              		@ frame_needed = 0, uses_anonymous_args = 0
 959              		.loc 1 268 1 is_stmt 0 view .LVU305
 960 0000 00B5     		push	{lr}
 961              	.LCFI8:
 962              		.cfi_def_cfa_offset 4
 963              		.cfi_offset 14, -4
 964 0002 83B0     		sub	sp, sp, #12
 965              	.LCFI9:
 966              		.cfi_def_cfa_offset 16
 269:Middlewares/lvgl/src/misc/lv_color.c ****     lv_color32_t color32;
 967              		.loc 1 269 5 is_stmt 1 view .LVU306
 270:Middlewares/lvgl/src/misc/lv_color.c ****     color32.full = lv_color_to32(color);
 968              		.loc 1 270 5 view .LVU307
 969              	.LBB66:
 970              	.LBI66:
 395:Middlewares/lvgl/src/misc/lv_color.h **** {
 971              		.loc 2 395 24 view .LVU308
 972              	.LBB67:
 439:Middlewares/lvgl/src/misc/lv_color.h ****     LV_COLOR_SET_R32(ret, (LV_COLOR_GET_R(color) * 263 + 7) >> 5);
 973              		.loc 2 439 5 view .LVU309
 440:Middlewares/lvgl/src/misc/lv_color.h ****     LV_COLOR_SET_G32(ret, (LV_COLOR_GET_G(color) * 259 + 3) >> 6);
 974              		.loc 2 440 5 view .LVU310
 975 0004 C0F3C423 		ubfx	r3, r0, #11, #5
 976 0008 03EB4312 		add	r2, r3, r3, lsl #5
 977 000c C3EBC203 		rsb	r3, r3, r2, lsl #3
 978 0010 0733     		adds	r3, r3, #7
 979 0012 C3F34713 		ubfx	r3, r3, #5, #8
 980 0016 4FF0000C 		mov	ip, #0
 981              	.LVL121:
 440:Middlewares/lvgl/src/misc/lv_color.h ****     LV_COLOR_SET_G32(ret, (LV_COLOR_GET_G(color) * 259 + 3) >> 6);
 982              		.loc 2 440 5 is_stmt 0 view .LVU311
 983 001a 63F3174C 		bfi	ip, r3, #16, #8
 984              	.LVL122:
 441:Middlewares/lvgl/src/misc/lv_color.h ****     LV_COLOR_SET_B32(ret, (LV_COLOR_GET_B(color) * 263 + 7) >> 5);
ARM GAS  /tmp/ccKaNmJL.s 			page 37


 985              		.loc 2 441 5 is_stmt 1 view .LVU312
 986 001e C0F34513 		ubfx	r3, r0, #5, #6
 987 0022 03EBC312 		add	r2, r3, r3, lsl #7
 988 0026 03EB4203 		add	r3, r3, r2, lsl #1
 989 002a 0333     		adds	r3, r3, #3
 990 002c C3F38713 		ubfx	r3, r3, #6, #8
 991 0030 63F30F2C 		bfi	ip, r3, #8, #8
 442:Middlewares/lvgl/src/misc/lv_color.h ****     LV_COLOR_SET_A32(ret, 0xFF);
 992              		.loc 2 442 5 view .LVU313
 993 0034 00F01F03 		and	r3, r0, #31
 994 0038 03EB4310 		add	r0, r3, r3, lsl #5
 995              	.LVL123:
 442:Middlewares/lvgl/src/misc/lv_color.h ****     LV_COLOR_SET_A32(ret, 0xFF);
 996              		.loc 2 442 5 is_stmt 0 view .LVU314
 997 003c C3EBC003 		rsb	r3, r3, r0, lsl #3
 998 0040 0733     		adds	r3, r3, #7
 999 0042 C3F34713 		ubfx	r3, r3, #5, #8
 1000 0046 63F3070C 		bfi	ip, r3, #0, #8
 443:Middlewares/lvgl/src/misc/lv_color.h ****     return ret.full;
 1001              		.loc 2 443 5 is_stmt 1 view .LVU315
 1002 004a 4CF07F4C 		orr	ip, ip, #-16777216
 1003              	.LVL124:
 444:Middlewares/lvgl/src/misc/lv_color.h **** #elif LV_COLOR_DEPTH == 32
 1004              		.loc 2 444 5 view .LVU316
 1005              	.LBE67:
 1006              	.LBE66:
 271:Middlewares/lvgl/src/misc/lv_color.c ****     return lv_color_rgb_to_hsv(color32.ch.red, color32.ch.green, color32.ch.blue);
 1007              		.loc 1 271 5 view .LVU317
 1008              		.loc 1 271 12 is_stmt 0 view .LVU318
 1009 004e 5FFA8CF2 		uxtb	r2, ip
 1010 0052 CCF30721 		ubfx	r1, ip, #8, #8
 1011 0056 CCF30740 		ubfx	r0, ip, #16, #8
 1012 005a FFF7FEFF 		bl	lv_color_rgb_to_hsv
 1013              	.LVL125:
 1014              		.loc 1 271 12 view .LVU319
 1015 005e 0190     		str	r0, [sp, #4]
 1016 0060 0020     		movs	r0, #0
 1017 0062 BDF80430 		ldrh	r3, [sp, #4]
 1018 0066 63F30F00 		bfi	r0, r3, #0, #16
 1019 006a BDF80630 		ldrh	r3, [sp, #6]
 1020 006e 63F31F40 		bfi	r0, r3, #16, #16
 272:Middlewares/lvgl/src/misc/lv_color.c **** }
 1021              		.loc 1 272 1 view .LVU320
 1022 0072 03B0     		add	sp, sp, #12
 1023              	.LCFI10:
 1024              		.cfi_def_cfa_offset 4
 1025              		@ sp needed
 1026 0074 5DF804FB 		ldr	pc, [sp], #4
 1027              		.cfi_endproc
 1028              	.LFE23:
 1030              		.section	.text.lv_palette_main,"ax",%progbits
 1031              		.align	1
 1032              		.global	lv_palette_main
 1033              		.syntax unified
 1034              		.thumb
 1035              		.thumb_func
 1037              	lv_palette_main:
ARM GAS  /tmp/ccKaNmJL.s 			page 38


 1038              	.LVL126:
 1039              	.LFB24:
 273:Middlewares/lvgl/src/misc/lv_color.c **** 
 274:Middlewares/lvgl/src/misc/lv_color.c **** lv_color_t lv_palette_main(lv_palette_t p)
 275:Middlewares/lvgl/src/misc/lv_color.c **** {
 1040              		.loc 1 275 1 is_stmt 1 view -0
 1041              		.cfi_startproc
 1042              		@ args = 0, pretend = 0, frame = 0
 1043              		@ frame_needed = 0, uses_anonymous_args = 0
 1044              		@ link register save eliminated.
 276:Middlewares/lvgl/src/misc/lv_color.c ****     static const lv_color_t colors[] = {
 1045              		.loc 1 276 5 view .LVU322
 277:Middlewares/lvgl/src/misc/lv_color.c ****         LV_COLOR_MAKE(0xF4, 0x43, 0x36), LV_COLOR_MAKE(0xE9, 0x1E, 0x63), LV_COLOR_MAKE(0x9C, 0x27,
 278:Middlewares/lvgl/src/misc/lv_color.c ****         LV_COLOR_MAKE(0x3F, 0x51, 0xB5), LV_COLOR_MAKE(0x21, 0x96, 0xF3), LV_COLOR_MAKE(0x03, 0xA9,
 279:Middlewares/lvgl/src/misc/lv_color.c ****         LV_COLOR_MAKE(0x00, 0x96, 0x88), LV_COLOR_MAKE(0x4C, 0xAF, 0x50), LV_COLOR_MAKE(0x8B, 0xC3,
 280:Middlewares/lvgl/src/misc/lv_color.c ****         LV_COLOR_MAKE(0xFF, 0xEB, 0x3B), LV_COLOR_MAKE(0xFF, 0xC1, 0x07), LV_COLOR_MAKE(0xFF, 0x98,
 281:Middlewares/lvgl/src/misc/lv_color.c ****         LV_COLOR_MAKE(0x79, 0x55, 0x48), LV_COLOR_MAKE(0x60, 0x7D, 0x8B), LV_COLOR_MAKE(0x9E, 0x9E,
 282:Middlewares/lvgl/src/misc/lv_color.c ****     };
 283:Middlewares/lvgl/src/misc/lv_color.c **** 
 284:Middlewares/lvgl/src/misc/lv_color.c ****     if(p >= _LV_PALETTE_LAST) {
 1046              		.loc 1 284 5 view .LVU323
 1047              		.loc 1 284 7 is_stmt 0 view .LVU324
 1048 0000 1228     		cmp	r0, #18
 1049 0002 03D8     		bhi	.L61
 285:Middlewares/lvgl/src/misc/lv_color.c ****         LV_LOG_WARN("Invalid palette: %d", p);
 286:Middlewares/lvgl/src/misc/lv_color.c ****         return lv_color_black();
 287:Middlewares/lvgl/src/misc/lv_color.c ****     }
 288:Middlewares/lvgl/src/misc/lv_color.c **** 
 289:Middlewares/lvgl/src/misc/lv_color.c ****     return colors[p];
 1050              		.loc 1 289 5 is_stmt 1 view .LVU325
 1051              		.loc 1 289 18 is_stmt 0 view .LVU326
 1052 0004 034B     		ldr	r3, .L62
 1053 0006 33F81000 		ldrh	r0, [r3, r0, lsl #1]
 1054              	.LVL127:
 290:Middlewares/lvgl/src/misc/lv_color.c **** 
 291:Middlewares/lvgl/src/misc/lv_color.c **** }
 1055              		.loc 1 291 1 view .LVU327
 1056 000a 7047     		bx	lr
 1057              	.LVL128:
 1058              	.L61:
 285:Middlewares/lvgl/src/misc/lv_color.c ****         LV_LOG_WARN("Invalid palette: %d", p);
 1059              		.loc 1 285 46 is_stmt 1 view .LVU328
 286:Middlewares/lvgl/src/misc/lv_color.c ****     }
 1060              		.loc 1 286 9 view .LVU329
 1061              	.LBB68:
 1062              	.LBI68:
 1063              		.loc 2 675 26 view .LVU330
 1064              	.LBE68:
 1065              		.loc 2 675 49 view .LVU331
 1066              	.LBB71:
 1067              	.LBB69:
 1068              	.LBI69:
 602:Middlewares/lvgl/src/misc/lv_color.h **** {
 1069              		.loc 2 602 26 view .LVU332
 1070              	.LBB70:
 604:Middlewares/lvgl/src/misc/lv_color.h **** }
 1071              		.loc 2 604 5 view .LVU333
ARM GAS  /tmp/ccKaNmJL.s 			page 39


 604:Middlewares/lvgl/src/misc/lv_color.h **** }
 1072              		.loc 2 604 5 is_stmt 0 view .LVU334
 1073 000c 4FF00000 		mov	r0, #0	@ movhi
 1074              	.LVL129:
 604:Middlewares/lvgl/src/misc/lv_color.h **** }
 1075              		.loc 2 604 5 view .LVU335
 1076              	.LBE70:
 1077              	.LBE69:
 1078              	.LBE71:
 286:Middlewares/lvgl/src/misc/lv_color.c ****     }
 1079              		.loc 1 286 16 view .LVU336
 1080 0010 7047     		bx	lr
 1081              	.L63:
 1082 0012 00BF     		.align	2
 1083              	.L62:
 1084 0014 00000000 		.word	.LANCHOR0
 1085              		.cfi_endproc
 1086              	.LFE24:
 1088              		.section	.text.lv_palette_lighten,"ax",%progbits
 1089              		.align	1
 1090              		.global	lv_palette_lighten
 1091              		.syntax unified
 1092              		.thumb
 1093              		.thumb_func
 1095              	lv_palette_lighten:
 1096              	.LVL130:
 1097              	.LFB25:
 292:Middlewares/lvgl/src/misc/lv_color.c **** 
 293:Middlewares/lvgl/src/misc/lv_color.c **** lv_color_t lv_palette_lighten(lv_palette_t p, uint8_t lvl)
 294:Middlewares/lvgl/src/misc/lv_color.c **** {
 1098              		.loc 1 294 1 is_stmt 1 view -0
 1099              		.cfi_startproc
 1100              		@ args = 0, pretend = 0, frame = 0
 1101              		@ frame_needed = 0, uses_anonymous_args = 0
 1102              		@ link register save eliminated.
 295:Middlewares/lvgl/src/misc/lv_color.c ****     static const lv_color_t colors[][5] = {
 1103              		.loc 1 295 5 view .LVU338
 296:Middlewares/lvgl/src/misc/lv_color.c ****             {LV_COLOR_MAKE(0xEF, 0x53, 0x50), LV_COLOR_MAKE(0xE5, 0x73, 0x73), LV_COLOR_MAKE(0xEF, 
 297:Middlewares/lvgl/src/misc/lv_color.c ****             {LV_COLOR_MAKE(0xEC, 0x40, 0x7A), LV_COLOR_MAKE(0xF0, 0x62, 0x92), LV_COLOR_MAKE(0xF4, 
 298:Middlewares/lvgl/src/misc/lv_color.c ****             {LV_COLOR_MAKE(0xAB, 0x47, 0xBC), LV_COLOR_MAKE(0xBA, 0x68, 0xC8), LV_COLOR_MAKE(0xCE, 
 299:Middlewares/lvgl/src/misc/lv_color.c ****             {LV_COLOR_MAKE(0x7E, 0x57, 0xC2), LV_COLOR_MAKE(0x95, 0x75, 0xCD), LV_COLOR_MAKE(0xB3, 
 300:Middlewares/lvgl/src/misc/lv_color.c ****             {LV_COLOR_MAKE(0x5C, 0x6B, 0xC0), LV_COLOR_MAKE(0x79, 0x86, 0xCB), LV_COLOR_MAKE(0x9F, 
 301:Middlewares/lvgl/src/misc/lv_color.c ****             {LV_COLOR_MAKE(0x42, 0xA5, 0xF5), LV_COLOR_MAKE(0x64, 0xB5, 0xF6), LV_COLOR_MAKE(0x90, 
 302:Middlewares/lvgl/src/misc/lv_color.c ****             {LV_COLOR_MAKE(0x29, 0xB6, 0xF6), LV_COLOR_MAKE(0x4F, 0xC3, 0xF7), LV_COLOR_MAKE(0x81, 
 303:Middlewares/lvgl/src/misc/lv_color.c ****             {LV_COLOR_MAKE(0x26, 0xC6, 0xDA), LV_COLOR_MAKE(0x4D, 0xD0, 0xE1), LV_COLOR_MAKE(0x80, 
 304:Middlewares/lvgl/src/misc/lv_color.c ****             {LV_COLOR_MAKE(0x26, 0xA6, 0x9A), LV_COLOR_MAKE(0x4D, 0xB6, 0xAC), LV_COLOR_MAKE(0x80, 
 305:Middlewares/lvgl/src/misc/lv_color.c ****             {LV_COLOR_MAKE(0x66, 0xBB, 0x6A), LV_COLOR_MAKE(0x81, 0xC7, 0x84), LV_COLOR_MAKE(0xA5, 
 306:Middlewares/lvgl/src/misc/lv_color.c ****             {LV_COLOR_MAKE(0x9C, 0xCC, 0x65), LV_COLOR_MAKE(0xAE, 0xD5, 0x81), LV_COLOR_MAKE(0xC5, 
 307:Middlewares/lvgl/src/misc/lv_color.c ****             {LV_COLOR_MAKE(0xD4, 0xE1, 0x57), LV_COLOR_MAKE(0xDC, 0xE7, 0x75), LV_COLOR_MAKE(0xE6, 
 308:Middlewares/lvgl/src/misc/lv_color.c ****             {LV_COLOR_MAKE(0xFF, 0xEE, 0x58), LV_COLOR_MAKE(0xFF, 0xF1, 0x76), LV_COLOR_MAKE(0xFF, 
 309:Middlewares/lvgl/src/misc/lv_color.c ****             {LV_COLOR_MAKE(0xFF, 0xCA, 0x28), LV_COLOR_MAKE(0xFF, 0xD5, 0x4F), LV_COLOR_MAKE(0xFF, 
 310:Middlewares/lvgl/src/misc/lv_color.c ****             {LV_COLOR_MAKE(0xFF, 0xA7, 0x26), LV_COLOR_MAKE(0xFF, 0xB7, 0x4D), LV_COLOR_MAKE(0xFF, 
 311:Middlewares/lvgl/src/misc/lv_color.c ****             {LV_COLOR_MAKE(0xFF, 0x70, 0x43), LV_COLOR_MAKE(0xFF, 0x8A, 0x65), LV_COLOR_MAKE(0xFF, 
 312:Middlewares/lvgl/src/misc/lv_color.c ****             {LV_COLOR_MAKE(0x8D, 0x6E, 0x63), LV_COLOR_MAKE(0xA1, 0x88, 0x7F), LV_COLOR_MAKE(0xBC, 
 313:Middlewares/lvgl/src/misc/lv_color.c ****             {LV_COLOR_MAKE(0x78, 0x90, 0x9C), LV_COLOR_MAKE(0x90, 0xA4, 0xAE), LV_COLOR_MAKE(0xB0, 
 314:Middlewares/lvgl/src/misc/lv_color.c ****             {LV_COLOR_MAKE(0xBD, 0xBD, 0xBD), LV_COLOR_MAKE(0xE0, 0xE0, 0xE0), LV_COLOR_MAKE(0xEE, 
 315:Middlewares/lvgl/src/misc/lv_color.c ****     };
ARM GAS  /tmp/ccKaNmJL.s 			page 40


 316:Middlewares/lvgl/src/misc/lv_color.c **** 
 317:Middlewares/lvgl/src/misc/lv_color.c ****      if(p >= _LV_PALETTE_LAST) {
 1104              		.loc 1 317 6 view .LVU339
 1105              		.loc 1 317 8 is_stmt 0 view .LVU340
 1106 0000 1228     		cmp	r0, #18
 1107 0002 0AD8     		bhi	.L68
 318:Middlewares/lvgl/src/misc/lv_color.c ****          LV_LOG_WARN("Invalid palette: %d", p);
 319:Middlewares/lvgl/src/misc/lv_color.c ****          return lv_color_black();
 320:Middlewares/lvgl/src/misc/lv_color.c ****      }
 321:Middlewares/lvgl/src/misc/lv_color.c **** 
 322:Middlewares/lvgl/src/misc/lv_color.c ****      if(lvl == 0 || lvl > 5) {
 1108              		.loc 1 322 6 is_stmt 1 view .LVU341
 1109              		.loc 1 322 18 is_stmt 0 view .LVU342
 1110 0004 0139     		subs	r1, r1, #1
 1111              	.LVL131:
 1112              		.loc 1 322 18 view .LVU343
 1113 0006 C9B2     		uxtb	r1, r1
 1114              		.loc 1 322 8 view .LVU344
 1115 0008 0429     		cmp	r1, #4
 1116 000a 09D8     		bhi	.L69
 323:Middlewares/lvgl/src/misc/lv_color.c ****          LV_LOG_WARN("Invalid level: %d. Must be 1..5", lvl);
 324:Middlewares/lvgl/src/misc/lv_color.c ****          return lv_color_black();
 325:Middlewares/lvgl/src/misc/lv_color.c ****      }
 326:Middlewares/lvgl/src/misc/lv_color.c **** 
 327:Middlewares/lvgl/src/misc/lv_color.c ****      lvl--;
 1117              		.loc 1 327 6 is_stmt 1 view .LVU345
 1118              	.LVL132:
 328:Middlewares/lvgl/src/misc/lv_color.c **** 
 329:Middlewares/lvgl/src/misc/lv_color.c ****      return colors[p][lvl];
 1119              		.loc 1 329 6 view .LVU346
 1120              		.loc 1 329 22 is_stmt 0 view .LVU347
 1121 000c 00EB8000 		add	r0, r0, r0, lsl #2
 1122              	.LVL133:
 1123              		.loc 1 329 22 view .LVU348
 1124 0010 0144     		add	r1, r1, r0
 1125              	.LVL134:
 1126              		.loc 1 329 22 view .LVU349
 1127 0012 054B     		ldr	r3, .L70
 1128 0014 33F81100 		ldrh	r0, [r3, r1, lsl #1]
 330:Middlewares/lvgl/src/misc/lv_color.c **** }
 1129              		.loc 1 330 1 view .LVU350
 1130 0018 7047     		bx	lr
 1131              	.LVL135:
 1132              	.L68:
 318:Middlewares/lvgl/src/misc/lv_color.c ****          return lv_color_black();
 1133              		.loc 1 318 47 is_stmt 1 view .LVU351
 319:Middlewares/lvgl/src/misc/lv_color.c ****      }
 1134              		.loc 1 319 10 view .LVU352
 1135              	.LBB72:
 1136              	.LBI72:
 1137              		.loc 2 675 26 view .LVU353
 1138              	.LBE72:
 1139              		.loc 2 675 49 view .LVU354
 1140              	.LBB75:
 1141              	.LBB73:
 1142              	.LBI73:
 602:Middlewares/lvgl/src/misc/lv_color.h **** {
ARM GAS  /tmp/ccKaNmJL.s 			page 41


 1143              		.loc 2 602 26 view .LVU355
 1144              	.LBB74:
 604:Middlewares/lvgl/src/misc/lv_color.h **** }
 1145              		.loc 2 604 5 view .LVU356
 604:Middlewares/lvgl/src/misc/lv_color.h **** }
 1146              		.loc 2 604 5 is_stmt 0 view .LVU357
 1147 001a 4FF00000 		mov	r0, #0	@ movhi
 1148              	.LVL136:
 604:Middlewares/lvgl/src/misc/lv_color.h **** }
 1149              		.loc 2 604 5 view .LVU358
 1150              	.LBE74:
 1151              	.LBE73:
 1152              	.LBE75:
 319:Middlewares/lvgl/src/misc/lv_color.c ****      }
 1153              		.loc 1 319 17 view .LVU359
 1154 001e 7047     		bx	lr
 1155              	.LVL137:
 1156              	.L69:
 323:Middlewares/lvgl/src/misc/lv_color.c ****          return lv_color_black();
 1157              		.loc 1 323 61 is_stmt 1 view .LVU360
 324:Middlewares/lvgl/src/misc/lv_color.c ****      }
 1158              		.loc 1 324 10 view .LVU361
 1159              	.LBB76:
 1160              	.LBI76:
 1161              		.loc 2 675 26 view .LVU362
 1162              	.LBE76:
 1163              		.loc 2 675 49 view .LVU363
 1164              	.LBB79:
 1165              	.LBB77:
 1166              	.LBI77:
 602:Middlewares/lvgl/src/misc/lv_color.h **** {
 1167              		.loc 2 602 26 view .LVU364
 1168              	.LBB78:
 604:Middlewares/lvgl/src/misc/lv_color.h **** }
 1169              		.loc 2 604 5 view .LVU365
 604:Middlewares/lvgl/src/misc/lv_color.h **** }
 1170              		.loc 2 604 5 is_stmt 0 view .LVU366
 1171 0020 4FF00000 		mov	r0, #0	@ movhi
 1172              	.LVL138:
 604:Middlewares/lvgl/src/misc/lv_color.h **** }
 1173              		.loc 2 604 5 view .LVU367
 1174              	.LBE78:
 1175              	.LBE77:
 1176              	.LBE79:
 324:Middlewares/lvgl/src/misc/lv_color.c ****      }
 1177              		.loc 1 324 17 view .LVU368
 1178 0024 7047     		bx	lr
 1179              	.L71:
 1180 0026 00BF     		.align	2
 1181              	.L70:
 1182 0028 00000000 		.word	.LANCHOR1
 1183              		.cfi_endproc
 1184              	.LFE25:
 1186              		.section	.text.lv_palette_darken,"ax",%progbits
 1187              		.align	1
 1188              		.global	lv_palette_darken
 1189              		.syntax unified
ARM GAS  /tmp/ccKaNmJL.s 			page 42


 1190              		.thumb
 1191              		.thumb_func
 1193              	lv_palette_darken:
 1194              	.LVL139:
 1195              	.LFB26:
 331:Middlewares/lvgl/src/misc/lv_color.c **** 
 332:Middlewares/lvgl/src/misc/lv_color.c **** lv_color_t lv_palette_darken(lv_palette_t p, uint8_t lvl)
 333:Middlewares/lvgl/src/misc/lv_color.c **** {
 1196              		.loc 1 333 1 is_stmt 1 view -0
 1197              		.cfi_startproc
 1198              		@ args = 0, pretend = 0, frame = 0
 1199              		@ frame_needed = 0, uses_anonymous_args = 0
 1200              		@ link register save eliminated.
 334:Middlewares/lvgl/src/misc/lv_color.c ****     static const lv_color_t colors[][4] = {
 1201              		.loc 1 334 5 view .LVU370
 335:Middlewares/lvgl/src/misc/lv_color.c ****             {LV_COLOR_MAKE(0xE5, 0x39, 0x35), LV_COLOR_MAKE(0xD3, 0x2F, 0x2F), LV_COLOR_MAKE(0xC6, 
 336:Middlewares/lvgl/src/misc/lv_color.c ****             {LV_COLOR_MAKE(0xD8, 0x1B, 0x60), LV_COLOR_MAKE(0xC2, 0x18, 0x5B), LV_COLOR_MAKE(0xAD, 
 337:Middlewares/lvgl/src/misc/lv_color.c ****             {LV_COLOR_MAKE(0x8E, 0x24, 0xAA), LV_COLOR_MAKE(0x7B, 0x1F, 0xA2), LV_COLOR_MAKE(0x6A, 
 338:Middlewares/lvgl/src/misc/lv_color.c ****             {LV_COLOR_MAKE(0x5E, 0x35, 0xB1), LV_COLOR_MAKE(0x51, 0x2D, 0xA8), LV_COLOR_MAKE(0x45, 
 339:Middlewares/lvgl/src/misc/lv_color.c ****             {LV_COLOR_MAKE(0x39, 0x49, 0xAB), LV_COLOR_MAKE(0x30, 0x3F, 0x9F), LV_COLOR_MAKE(0x28, 
 340:Middlewares/lvgl/src/misc/lv_color.c ****             {LV_COLOR_MAKE(0x1E, 0x88, 0xE5), LV_COLOR_MAKE(0x19, 0x76, 0xD2), LV_COLOR_MAKE(0x15, 
 341:Middlewares/lvgl/src/misc/lv_color.c ****             {LV_COLOR_MAKE(0x03, 0x9B, 0xE5), LV_COLOR_MAKE(0x02, 0x88, 0xD1), LV_COLOR_MAKE(0x02, 
 342:Middlewares/lvgl/src/misc/lv_color.c ****             {LV_COLOR_MAKE(0x00, 0xAC, 0xC1), LV_COLOR_MAKE(0x00, 0x97, 0xA7), LV_COLOR_MAKE(0x00, 
 343:Middlewares/lvgl/src/misc/lv_color.c ****             {LV_COLOR_MAKE(0x00, 0x89, 0x7B), LV_COLOR_MAKE(0x00, 0x79, 0x6B), LV_COLOR_MAKE(0x00, 
 344:Middlewares/lvgl/src/misc/lv_color.c ****             {LV_COLOR_MAKE(0x43, 0xA0, 0x47), LV_COLOR_MAKE(0x38, 0x8E, 0x3C), LV_COLOR_MAKE(0x2E, 
 345:Middlewares/lvgl/src/misc/lv_color.c ****             {LV_COLOR_MAKE(0x7C, 0xB3, 0x42), LV_COLOR_MAKE(0x68, 0x9F, 0x38), LV_COLOR_MAKE(0x55, 
 346:Middlewares/lvgl/src/misc/lv_color.c ****             {LV_COLOR_MAKE(0xC0, 0xCA, 0x33), LV_COLOR_MAKE(0xAF, 0xB4, 0x2B), LV_COLOR_MAKE(0x9E, 
 347:Middlewares/lvgl/src/misc/lv_color.c ****             {LV_COLOR_MAKE(0xFD, 0xD8, 0x35), LV_COLOR_MAKE(0xFB, 0xC0, 0x2D), LV_COLOR_MAKE(0xF9, 
 348:Middlewares/lvgl/src/misc/lv_color.c ****             {LV_COLOR_MAKE(0xFF, 0xB3, 0x00), LV_COLOR_MAKE(0xFF, 0xA0, 0x00), LV_COLOR_MAKE(0xFF, 
 349:Middlewares/lvgl/src/misc/lv_color.c ****             {LV_COLOR_MAKE(0xFB, 0x8C, 0x00), LV_COLOR_MAKE(0xF5, 0x7C, 0x00), LV_COLOR_MAKE(0xEF, 
 350:Middlewares/lvgl/src/misc/lv_color.c ****             {LV_COLOR_MAKE(0xF4, 0x51, 0x1E), LV_COLOR_MAKE(0xE6, 0x4A, 0x19), LV_COLOR_MAKE(0xD8, 
 351:Middlewares/lvgl/src/misc/lv_color.c ****             {LV_COLOR_MAKE(0x6D, 0x4C, 0x41), LV_COLOR_MAKE(0x5D, 0x40, 0x37), LV_COLOR_MAKE(0x4E, 
 352:Middlewares/lvgl/src/misc/lv_color.c ****             {LV_COLOR_MAKE(0x54, 0x6E, 0x7A), LV_COLOR_MAKE(0x45, 0x5A, 0x64), LV_COLOR_MAKE(0x37, 
 353:Middlewares/lvgl/src/misc/lv_color.c ****             {LV_COLOR_MAKE(0x75, 0x75, 0x75), LV_COLOR_MAKE(0x61, 0x61, 0x61), LV_COLOR_MAKE(0x42, 
 354:Middlewares/lvgl/src/misc/lv_color.c ****     };
 355:Middlewares/lvgl/src/misc/lv_color.c **** 
 356:Middlewares/lvgl/src/misc/lv_color.c ****      if(p >= _LV_PALETTE_LAST) {
 1202              		.loc 1 356 6 view .LVU371
 1203              		.loc 1 356 8 is_stmt 0 view .LVU372
 1204 0000 1228     		cmp	r0, #18
 1205 0002 09D8     		bhi	.L76
 357:Middlewares/lvgl/src/misc/lv_color.c ****          LV_LOG_WARN("Invalid palette: %d", p);
 358:Middlewares/lvgl/src/misc/lv_color.c ****          return lv_color_black();
 359:Middlewares/lvgl/src/misc/lv_color.c ****      }
 360:Middlewares/lvgl/src/misc/lv_color.c **** 
 361:Middlewares/lvgl/src/misc/lv_color.c ****      if(lvl == 0 || lvl > 4) {
 1206              		.loc 1 361 6 is_stmt 1 view .LVU373
 1207              		.loc 1 361 18 is_stmt 0 view .LVU374
 1208 0004 0139     		subs	r1, r1, #1
 1209              	.LVL140:
 1210              		.loc 1 361 18 view .LVU375
 1211 0006 C9B2     		uxtb	r1, r1
 1212              		.loc 1 361 8 view .LVU376
 1213 0008 0329     		cmp	r1, #3
 1214 000a 08D8     		bhi	.L77
 362:Middlewares/lvgl/src/misc/lv_color.c ****          LV_LOG_WARN("Invalid level: %d. Must be 1..4", lvl);
 363:Middlewares/lvgl/src/misc/lv_color.c ****          return lv_color_black();
ARM GAS  /tmp/ccKaNmJL.s 			page 43


 364:Middlewares/lvgl/src/misc/lv_color.c ****      }
 365:Middlewares/lvgl/src/misc/lv_color.c **** 
 366:Middlewares/lvgl/src/misc/lv_color.c ****      lvl--;
 1215              		.loc 1 366 6 is_stmt 1 view .LVU377
 1216              	.LVL141:
 367:Middlewares/lvgl/src/misc/lv_color.c **** 
 368:Middlewares/lvgl/src/misc/lv_color.c ****      return colors[p][lvl];
 1217              		.loc 1 368 6 view .LVU378
 1218              		.loc 1 368 22 is_stmt 0 view .LVU379
 1219 000c 01EB8001 		add	r1, r1, r0, lsl #2
 1220              	.LVL142:
 1221              		.loc 1 368 22 view .LVU380
 1222 0010 044B     		ldr	r3, .L78
 1223 0012 33F81100 		ldrh	r0, [r3, r1, lsl #1]
 1224              	.LVL143:
 369:Middlewares/lvgl/src/misc/lv_color.c **** }
 1225              		.loc 1 369 1 view .LVU381
 1226 0016 7047     		bx	lr
 1227              	.LVL144:
 1228              	.L76:
 357:Middlewares/lvgl/src/misc/lv_color.c ****          return lv_color_black();
 1229              		.loc 1 357 47 is_stmt 1 view .LVU382
 358:Middlewares/lvgl/src/misc/lv_color.c ****      }
 1230              		.loc 1 358 10 view .LVU383
 1231              	.LBB80:
 1232              	.LBI80:
 1233              		.loc 2 675 26 view .LVU384
 1234              	.LBE80:
 1235              		.loc 2 675 49 view .LVU385
 1236              	.LBB83:
 1237              	.LBB81:
 1238              	.LBI81:
 602:Middlewares/lvgl/src/misc/lv_color.h **** {
 1239              		.loc 2 602 26 view .LVU386
 1240              	.LBB82:
 604:Middlewares/lvgl/src/misc/lv_color.h **** }
 1241              		.loc 2 604 5 view .LVU387
 604:Middlewares/lvgl/src/misc/lv_color.h **** }
 1242              		.loc 2 604 5 is_stmt 0 view .LVU388
 1243 0018 4FF00000 		mov	r0, #0	@ movhi
 1244              	.LVL145:
 604:Middlewares/lvgl/src/misc/lv_color.h **** }
 1245              		.loc 2 604 5 view .LVU389
 1246              	.LBE82:
 1247              	.LBE81:
 1248              	.LBE83:
 358:Middlewares/lvgl/src/misc/lv_color.c ****      }
 1249              		.loc 1 358 17 view .LVU390
 1250 001c 7047     		bx	lr
 1251              	.LVL146:
 1252              	.L77:
 362:Middlewares/lvgl/src/misc/lv_color.c ****          return lv_color_black();
 1253              		.loc 1 362 61 is_stmt 1 view .LVU391
 363:Middlewares/lvgl/src/misc/lv_color.c ****      }
 1254              		.loc 1 363 10 view .LVU392
 1255              	.LBB84:
 1256              	.LBI84:
ARM GAS  /tmp/ccKaNmJL.s 			page 44


 1257              		.loc 2 675 26 view .LVU393
 1258              	.LBE84:
 1259              		.loc 2 675 49 view .LVU394
 1260              	.LBB87:
 1261              	.LBB85:
 1262              	.LBI85:
 602:Middlewares/lvgl/src/misc/lv_color.h **** {
 1263              		.loc 2 602 26 view .LVU395
 1264              	.LBB86:
 604:Middlewares/lvgl/src/misc/lv_color.h **** }
 1265              		.loc 2 604 5 view .LVU396
 604:Middlewares/lvgl/src/misc/lv_color.h **** }
 1266              		.loc 2 604 5 is_stmt 0 view .LVU397
 1267 001e 4FF00000 		mov	r0, #0	@ movhi
 1268              	.LVL147:
 604:Middlewares/lvgl/src/misc/lv_color.h **** }
 1269              		.loc 2 604 5 view .LVU398
 1270              	.LBE86:
 1271              	.LBE85:
 1272              	.LBE87:
 363:Middlewares/lvgl/src/misc/lv_color.c ****      }
 1273              		.loc 1 363 17 view .LVU399
 1274 0022 7047     		bx	lr
 1275              	.L79:
 1276              		.align	2
 1277              	.L78:
 1278 0024 00000000 		.word	.LANCHOR2
 1279              		.cfi_endproc
 1280              	.LFE26:
 1282              		.section	.rodata.colors.0,"a"
 1283              		.align	2
 1284              		.set	.LANCHOR2,. + 0
 1287              	colors.0:
 1288 0000 C6       		.byte	198
 1289 0001 E1       		.byte	225
 1290 0002 65       		.byte	101
 1291 0003 D1       		.byte	209
 1292 0004 45       		.byte	69
 1293 0005 C1       		.byte	193
 1294 0006 E3       		.byte	227
 1295 0007 B0       		.byte	176
 1296 0008 CC       		.byte	204
 1297 0009 D8       		.byte	216
 1298 000a CB       		.byte	203
 1299 000b C0       		.byte	192
 1300 000c AA       		.byte	170
 1301 000d A8       		.byte	168
 1302 000e 69       		.byte	105
 1303 000f 88       		.byte	136
 1304 0010 35       		.byte	53
 1305 0011 89       		.byte	137
 1306 0012 F4       		.byte	244
 1307 0013 78       		.byte	120
 1308 0014 D3       		.byte	211
 1309 0015 68       		.byte	104
 1310 0016 B1       		.byte	177
 1311 0017 48       		.byte	72
ARM GAS  /tmp/ccKaNmJL.s 			page 45


 1312 0018 B6       		.byte	182
 1313 0019 59       		.byte	89
 1314 001a 75       		.byte	117
 1315 001b 51       		.byte	81
 1316 001c 34       		.byte	52
 1317 001d 41       		.byte	65
 1318 001e D2       		.byte	210
 1319 001f 30       		.byte	48
 1320 0020 55       		.byte	85
 1321 0021 3A       		.byte	58
 1322 0022 F3       		.byte	243
 1323 0023 31       		.byte	49
 1324 0024 B2       		.byte	178
 1325 0025 29       		.byte	41
 1326 0026 0F       		.byte	15
 1327 0027 19       		.byte	25
 1328 0028 5C       		.byte	92
 1329 0029 1C       		.byte	28
 1330 002a BA       		.byte	186
 1331 002b 1B       		.byte	27
 1332 002c 38       		.byte	56
 1333 002d 13       		.byte	19
 1334 002e 34       		.byte	52
 1335 002f 0A       		.byte	10
 1336 0030 DC       		.byte	220
 1337 0031 04       		.byte	4
 1338 0032 5A       		.byte	90
 1339 0033 04       		.byte	4
 1340 0034 B7       		.byte	183
 1341 0035 03       		.byte	3
 1342 0036 B3       		.byte	179
 1343 0037 02       		.byte	2
 1344 0038 78       		.byte	120
 1345 0039 05       		.byte	5
 1346 003a B4       		.byte	180
 1347 003b 04       		.byte	4
 1348 003c 11       		.byte	17
 1349 003d 04       		.byte	4
 1350 003e 0C       		.byte	12
 1351 003f 03       		.byte	3
 1352 0040 4F       		.byte	79
 1353 0041 04       		.byte	4
 1354 0042 CD       		.byte	205
 1355 0043 03       		.byte	3
 1356 0044 4B       		.byte	75
 1357 0045 03       		.byte	3
 1358 0046 68       		.byte	104
 1359 0047 02       		.byte	2
 1360 0048 08       		.byte	8
 1361 0049 45       		.byte	69
 1362 004a 67       		.byte	103
 1363 004b 3C       		.byte	60
 1364 004c E6       		.byte	230
 1365 004d 2B       		.byte	43
 1366 004e E4       		.byte	228
 1367 004f 1A       		.byte	26
 1368 0050 88       		.byte	136
ARM GAS  /tmp/ccKaNmJL.s 			page 46


 1369 0051 7D       		.byte	125
 1370 0052 E7       		.byte	231
 1371 0053 6C       		.byte	108
 1372 0054 45       		.byte	69
 1373 0055 54       		.byte	84
 1374 0056 43       		.byte	67
 1375 0057 33       		.byte	51
 1376 0058 46       		.byte	70
 1377 0059 C6       		.byte	198
 1378 005a A5       		.byte	165
 1379 005b AD       		.byte	173
 1380 005c E4       		.byte	228
 1381 005d 9C       		.byte	156
 1382 005e A2       		.byte	162
 1383 005f 83       		.byte	131
 1384 0060 C6       		.byte	198
 1385 0061 FE       		.byte	254
 1386 0062 05       		.byte	5
 1387 0063 FE       		.byte	254
 1388 0064 44       		.byte	68
 1389 0065 FD       		.byte	253
 1390 0066 E2       		.byte	226
 1391 0067 F3       		.byte	243
 1392 0068 80       		.byte	128
 1393 0069 FD       		.byte	253
 1394 006a 00       		.byte	0
 1395 006b FD       		.byte	253
 1396 006c 60       		.byte	96
 1397 006d FC       		.byte	252
 1398 006e 60       		.byte	96
 1399 006f FB       		.byte	251
 1400 0070 60       		.byte	96
 1401 0071 FC       		.byte	252
 1402 0072 E0       		.byte	224
 1403 0073 F3       		.byte	243
 1404 0074 60       		.byte	96
 1405 0075 EB       		.byte	235
 1406 0076 80       		.byte	128
 1407 0077 E2       		.byte	226
 1408 0078 83       		.byte	131
 1409 0079 F2       		.byte	242
 1410 007a 43       		.byte	67
 1411 007b E2       		.byte	226
 1412 007c 02       		.byte	2
 1413 007d DA       		.byte	218
 1414 007e A1       		.byte	161
 1415 007f B9       		.byte	185
 1416 0080 68       		.byte	104
 1417 0081 6A       		.byte	106
 1418 0082 06       		.byte	6
 1419 0083 5A       		.byte	90
 1420 0084 A5       		.byte	165
 1421 0085 49       		.byte	73
 1422 0086 24       		.byte	36
 1423 0087 39       		.byte	57
 1424 0088 6F       		.byte	111
 1425 0089 53       		.byte	83
ARM GAS  /tmp/ccKaNmJL.s 			page 47


 1426 008a CC       		.byte	204
 1427 008b 42       		.byte	66
 1428 008c 29       		.byte	41
 1429 008d 32       		.byte	50
 1430 008e 87       		.byte	135
 1431 008f 21       		.byte	33
 1432 0090 AE       		.byte	174
 1433 0091 73       		.byte	115
 1434 0092 0C       		.byte	12
 1435 0093 63       		.byte	99
 1436 0094 08       		.byte	8
 1437 0095 42       		.byte	66
 1438 0096 04       		.byte	4
 1439 0097 21       		.byte	33
 1440              		.section	.rodata.colors.1,"a"
 1441              		.align	2
 1442              		.set	.LANCHOR1,. + 0
 1445              	colors.1:
 1446 0000 8A       		.byte	138
 1447 0001 EA       		.byte	234
 1448 0002 8E       		.byte	142
 1449 0003 E3       		.byte	227
 1450 0004 D3       		.byte	211
 1451 0005 EC       		.byte	236
 1452 0006 7A       		.byte	122
 1453 0007 FE       		.byte	254
 1454 0008 5D       		.byte	93
 1455 0009 FF       		.byte	255
 1456 000a 0F       		.byte	15
 1457 000b EA       		.byte	234
 1458 000c 12       		.byte	18
 1459 000d F3       		.byte	243
 1460 000e 76       		.byte	118
 1461 000f F4       		.byte	244
 1462 0010 DA       		.byte	218
 1463 0011 FD       		.byte	253
 1464 0012 3D       		.byte	61
 1465 0013 FF       		.byte	255
 1466 0014 37       		.byte	55
 1467 0015 AA       		.byte	170
 1468 0016 59       		.byte	89
 1469 0017 BB       		.byte	187
 1470 0018 9B       		.byte	155
 1471 0019 CC       		.byte	204
 1472 001a FC       		.byte	252
 1473 001b E5       		.byte	229
 1474 001c 3E       		.byte	62
 1475 001d F7       		.byte	247
 1476 001e B8       		.byte	184
 1477 001f 7A       		.byte	122
 1478 0020 B9       		.byte	185
 1479 0021 93       		.byte	147
 1480 0022 FB       		.byte	251
 1481 0023 B4       		.byte	180
 1482 0024 3D       		.byte	61
 1483 0025 D6       		.byte	214
 1484 0026 3E       		.byte	62
ARM GAS  /tmp/ccKaNmJL.s 			page 48


 1485 0027 EF       		.byte	239
 1486 0028 58       		.byte	88
 1487 0029 5B       		.byte	91
 1488 002a 39       		.byte	57
 1489 002b 7C       		.byte	124
 1490 002c 5B       		.byte	91
 1491 002d 9D       		.byte	157
 1492 002e 5D       		.byte	93
 1493 002f C6       		.byte	198
 1494 0030 5E       		.byte	94
 1495 0031 EF       		.byte	239
 1496 0032 3E       		.byte	62
 1497 0033 45       		.byte	69
 1498 0034 BE       		.byte	190
 1499 0035 65       		.byte	101
 1500 0036 5F       		.byte	95
 1501 0037 96       		.byte	150
 1502 0038 FF       		.byte	255
 1503 0039 BE       		.byte	190
 1504 003a 9F       		.byte	159
 1505 003b E7       		.byte	231
 1506 003c BE       		.byte	190
 1507 003d 2D       		.byte	45
 1508 003e 1E       		.byte	30
 1509 003f 4E       		.byte	78
 1510 0040 BF       		.byte	191
 1511 0041 86       		.byte	134
 1512 0042 3F       		.byte	63
 1513 0043 B7       		.byte	183
 1514 0044 BF       		.byte	191
 1515 0045 E7       		.byte	231
 1516 0046 3B       		.byte	59
 1517 0047 26       		.byte	38
 1518 0048 9C       		.byte	156
 1519 0049 4E       		.byte	78
 1520 004a FD       		.byte	253
 1521 004b 86       		.byte	134
 1522 004c 5E       		.byte	94
 1523 004d B7       		.byte	183
 1524 004e BF       		.byte	191
 1525 004f E7       		.byte	231
 1526 0050 33       		.byte	51
 1527 0051 25       		.byte	37
 1528 0052 B5       		.byte	181
 1529 0053 4D       		.byte	77
 1530 0054 58       		.byte	88
 1531 0055 86       		.byte	134
 1532 0056 FB       		.byte	251
 1533 0057 B6       		.byte	182
 1534 0058 9E       		.byte	158
 1535 0059 E7       		.byte	231
 1536 005a CD       		.byte	205
 1537 005b 65       		.byte	101
 1538 005c 30       		.byte	48
 1539 005d 86       		.byte	134
 1540 005e B4       		.byte	180
 1541 005f A6       		.byte	166
ARM GAS  /tmp/ccKaNmJL.s 			page 49


 1542 0060 39       		.byte	57
 1543 0061 CF       		.byte	207
 1544 0062 BD       		.byte	189
 1545 0063 EF       		.byte	239
 1546 0064 6C       		.byte	108
 1547 0065 9E       		.byte	158
 1548 0066 B0       		.byte	176
 1549 0067 AE       		.byte	174
 1550 0068 14       		.byte	20
 1551 0069 C7       		.byte	199
 1552 006a 79       		.byte	121
 1553 006b DF       		.byte	223
 1554 006c DD       		.byte	221
 1555 006d F7       		.byte	247
 1556 006e 0A       		.byte	10
 1557 006f D7       		.byte	215
 1558 0070 2E       		.byte	46
 1559 0071 DF       		.byte	223
 1560 0072 73       		.byte	115
 1561 0073 E7       		.byte	231
 1562 0074 B8       		.byte	184
 1563 0075 F7       		.byte	247
 1564 0076 DC       		.byte	220
 1565 0077 FF       		.byte	255
 1566 0078 6B       		.byte	107
 1567 0079 FF       		.byte	255
 1568 007a 8E       		.byte	142
 1569 007b FF       		.byte	255
 1570 007c B3       		.byte	179
 1571 007d FF       		.byte	255
 1572 007e D8       		.byte	216
 1573 007f FF       		.byte	255
 1574 0080 FC       		.byte	252
 1575 0081 FF       		.byte	255
 1576 0082 45       		.byte	69
 1577 0083 FE       		.byte	254
 1578 0084 A9       		.byte	169
 1579 0085 FE       		.byte	254
 1580 0086 10       		.byte	16
 1581 0087 FF       		.byte	255
 1582 0088 76       		.byte	118
 1583 0089 FF       		.byte	255
 1584 008a DC       		.byte	220
 1585 008b FF       		.byte	255
 1586 008c 24       		.byte	36
 1587 008d FD       		.byte	253
 1588 008e A9       		.byte	169
 1589 008f FD       		.byte	253
 1590 0090 70       		.byte	112
 1591 0091 FE       		.byte	254
 1592 0092 16       		.byte	22
 1593 0093 FF       		.byte	255
 1594 0094 9C       		.byte	156
 1595 0095 FF       		.byte	255
 1596 0096 88       		.byte	136
 1597 0097 FB       		.byte	251
 1598 0098 4C       		.byte	76
ARM GAS  /tmp/ccKaNmJL.s 			page 50


 1599 0099 FC       		.byte	252
 1600 009a 52       		.byte	82
 1601 009b FD       		.byte	253
 1602 009c 77       		.byte	119
 1603 009d FE       		.byte	254
 1604 009e 5C       		.byte	92
 1605 009f FF       		.byte	255
 1606 00a0 6C       		.byte	108
 1607 00a1 8B       		.byte	139
 1608 00a2 4F       		.byte	79
 1609 00a3 A4       		.byte	164
 1610 00a4 54       		.byte	84
 1611 00a5 BD       		.byte	189
 1612 00a6 79       		.byte	121
 1613 00a7 D6       		.byte	214
 1614 00a8 5D       		.byte	93
 1615 00a9 EF       		.byte	239
 1616 00aa 93       		.byte	147
 1617 00ab 7C       		.byte	124
 1618 00ac 35       		.byte	53
 1619 00ad 95       		.byte	149
 1620 00ae F8       		.byte	248
 1621 00af B5       		.byte	181
 1622 00b0 DB       		.byte	219
 1623 00b1 CE       		.byte	206
 1624 00b2 7E       		.byte	126
 1625 00b3 EF       		.byte	239
 1626 00b4 F7       		.byte	247
 1627 00b5 BD       		.byte	189
 1628 00b6 1C       		.byte	28
 1629 00b7 E7       		.byte	231
 1630 00b8 7D       		.byte	125
 1631 00b9 EF       		.byte	239
 1632 00ba BE       		.byte	190
 1633 00bb F7       		.byte	247
 1634 00bc DF       		.byte	223
 1635 00bd FF       		.byte	255
 1636              		.section	.rodata.colors.2,"a"
 1637              		.align	2
 1638              		.set	.LANCHOR0,. + 0
 1641              	colors.2:
 1642 0000 06       		.byte	6
 1643 0001 F2       		.byte	242
 1644 0002 EC       		.byte	236
 1645 0003 E8       		.byte	232
 1646 0004 36       		.byte	54
 1647 0005 99       		.byte	153
 1648 0006 D6       		.byte	214
 1649 0007 61       		.byte	97
 1650 0008 96       		.byte	150
 1651 0009 3A       		.byte	58
 1652 000a BE       		.byte	190
 1653 000b 24       		.byte	36
 1654 000c 5E       		.byte	94
 1655 000d 05       		.byte	5
 1656 000e FA       		.byte	250
 1657 000f 05       		.byte	5
ARM GAS  /tmp/ccKaNmJL.s 			page 51


 1658 0010 B1       		.byte	177
 1659 0011 04       		.byte	4
 1660 0012 6A       		.byte	106
 1661 0013 4D       		.byte	77
 1662 0014 09       		.byte	9
 1663 0015 8E       		.byte	142
 1664 0016 E7       		.byte	231
 1665 0017 CE       		.byte	206
 1666 0018 47       		.byte	71
 1667 0019 FF       		.byte	255
 1668 001a 00       		.byte	0
 1669 001b FE       		.byte	254
 1670 001c C0       		.byte	192
 1671 001d FC       		.byte	252
 1672 001e A4       		.byte	164
 1673 001f FA       		.byte	250
 1674 0020 A9       		.byte	169
 1675 0021 7A       		.byte	122
 1676 0022 F1       		.byte	241
 1677 0023 63       		.byte	99
 1678 0024 F3       		.byte	243
 1679 0025 9C       		.byte	156
 1680              		.text
 1681              	.Letext0:
 1682              		.file 3 "/home/akinya/gcc-arm-none-eabi/arm-none-eabi/include/machine/_default_types.h"
 1683              		.file 4 "/home/akinya/gcc-arm-none-eabi/arm-none-eabi/include/sys/_stdint.h"
ARM GAS  /tmp/ccKaNmJL.s 			page 52

