ARM GAS  /tmp/ccMI0ryM.s 			page 1


   1              		.cpu cortex-m4
   2              		.arch armv7e-m
   3              		.fpu fpv4-sp-d16
   4              		.eabi_attribute 27, 1
   5              		.eabi_attribute 28, 1
   6              		.eabi_attribute 20, 1
   7              		.eabi_attribute 21, 1
   8              		.eabi_attribute 23, 3
   9              		.eabi_attribute 24, 1
  10              		.eabi_attribute 25, 1
  11              		.eabi_attribute 26, 1
  12              		.eabi_attribute 30, 1
  13              		.eabi_attribute 34, 1
  14              		.eabi_attribute 18, 4
  15              		.file	"lv_disp.c"
  16              		.text
  17              	.Ltext0:
  18              		.cfi_sections	.debug_frame
  19              		.section	.text.scr_anim_ready,"ax",%progbits
  20              		.align	1
  21              		.syntax unified
  22              		.thumb
  23              		.thumb_func
  25              	scr_anim_ready:
  26              	.LVL0:
  27              	.LFB172:
  28              		.file 1 "Middlewares/lvgl/src/core/lv_disp.c"
   1:Middlewares/lvgl/src/core/lv_disp.c **** /**
   2:Middlewares/lvgl/src/core/lv_disp.c ****  * @file lv_disp.c
   3:Middlewares/lvgl/src/core/lv_disp.c ****  *
   4:Middlewares/lvgl/src/core/lv_disp.c ****  */
   5:Middlewares/lvgl/src/core/lv_disp.c **** 
   6:Middlewares/lvgl/src/core/lv_disp.c **** /*********************
   7:Middlewares/lvgl/src/core/lv_disp.c ****  *      INCLUDES
   8:Middlewares/lvgl/src/core/lv_disp.c ****  *********************/
   9:Middlewares/lvgl/src/core/lv_disp.c **** #include "lv_disp.h"
  10:Middlewares/lvgl/src/core/lv_disp.c **** #include "../misc/lv_math.h"
  11:Middlewares/lvgl/src/core/lv_disp.c **** #include "../core/lv_refr.h"
  12:Middlewares/lvgl/src/core/lv_disp.c **** 
  13:Middlewares/lvgl/src/core/lv_disp.c **** /*********************
  14:Middlewares/lvgl/src/core/lv_disp.c ****  *      DEFINES
  15:Middlewares/lvgl/src/core/lv_disp.c ****  *********************/
  16:Middlewares/lvgl/src/core/lv_disp.c **** 
  17:Middlewares/lvgl/src/core/lv_disp.c **** /**********************
  18:Middlewares/lvgl/src/core/lv_disp.c ****  *      TYPEDEFS
  19:Middlewares/lvgl/src/core/lv_disp.c ****  **********************/
  20:Middlewares/lvgl/src/core/lv_disp.c **** 
  21:Middlewares/lvgl/src/core/lv_disp.c **** /**********************
  22:Middlewares/lvgl/src/core/lv_disp.c ****  *  STATIC PROTOTYPES
  23:Middlewares/lvgl/src/core/lv_disp.c ****  **********************/
  24:Middlewares/lvgl/src/core/lv_disp.c **** 
  25:Middlewares/lvgl/src/core/lv_disp.c **** static void scr_load_anim_start(lv_anim_t * a);
  26:Middlewares/lvgl/src/core/lv_disp.c **** static void opa_scale_anim(void * obj, int32_t v);
  27:Middlewares/lvgl/src/core/lv_disp.c **** static void set_x_anim(void * obj, int32_t v);
  28:Middlewares/lvgl/src/core/lv_disp.c **** static void set_y_anim(void * obj, int32_t v);
  29:Middlewares/lvgl/src/core/lv_disp.c **** static void scr_anim_ready(lv_anim_t * a);
  30:Middlewares/lvgl/src/core/lv_disp.c **** 
ARM GAS  /tmp/ccMI0ryM.s 			page 2


  31:Middlewares/lvgl/src/core/lv_disp.c **** /**********************
  32:Middlewares/lvgl/src/core/lv_disp.c ****  *  STATIC VARIABLES
  33:Middlewares/lvgl/src/core/lv_disp.c ****  **********************/
  34:Middlewares/lvgl/src/core/lv_disp.c **** 
  35:Middlewares/lvgl/src/core/lv_disp.c **** /**********************
  36:Middlewares/lvgl/src/core/lv_disp.c ****  *      MACROS
  37:Middlewares/lvgl/src/core/lv_disp.c ****  **********************/
  38:Middlewares/lvgl/src/core/lv_disp.c **** 
  39:Middlewares/lvgl/src/core/lv_disp.c **** /**********************
  40:Middlewares/lvgl/src/core/lv_disp.c ****  *   GLOBAL FUNCTIONS
  41:Middlewares/lvgl/src/core/lv_disp.c ****  **********************/
  42:Middlewares/lvgl/src/core/lv_disp.c **** 
  43:Middlewares/lvgl/src/core/lv_disp.c **** /**
  44:Middlewares/lvgl/src/core/lv_disp.c ****  * Return with a pointer to the active screen
  45:Middlewares/lvgl/src/core/lv_disp.c ****  * @param disp pointer to display which active screen should be get. (NULL to use the default
  46:Middlewares/lvgl/src/core/lv_disp.c ****  * screen)
  47:Middlewares/lvgl/src/core/lv_disp.c ****  * @return pointer to the active screen object (loaded by 'lv_scr_load()')
  48:Middlewares/lvgl/src/core/lv_disp.c ****  */
  49:Middlewares/lvgl/src/core/lv_disp.c **** lv_obj_t * lv_disp_get_scr_act(lv_disp_t * disp)
  50:Middlewares/lvgl/src/core/lv_disp.c **** {
  51:Middlewares/lvgl/src/core/lv_disp.c ****     if(!disp) disp = lv_disp_get_default();
  52:Middlewares/lvgl/src/core/lv_disp.c ****     if(!disp) {
  53:Middlewares/lvgl/src/core/lv_disp.c ****         LV_LOG_WARN("no display registered to get its active screen");
  54:Middlewares/lvgl/src/core/lv_disp.c ****         return NULL;
  55:Middlewares/lvgl/src/core/lv_disp.c ****     }
  56:Middlewares/lvgl/src/core/lv_disp.c **** 
  57:Middlewares/lvgl/src/core/lv_disp.c ****     return disp->act_scr;
  58:Middlewares/lvgl/src/core/lv_disp.c **** }
  59:Middlewares/lvgl/src/core/lv_disp.c **** 
  60:Middlewares/lvgl/src/core/lv_disp.c **** /**
  61:Middlewares/lvgl/src/core/lv_disp.c ****  * Return with a pointer to the previous screen. Only used during screen transitions.
  62:Middlewares/lvgl/src/core/lv_disp.c ****  * @param disp pointer to display which previous screen should be get. (NULL to use the default
  63:Middlewares/lvgl/src/core/lv_disp.c ****  * screen)
  64:Middlewares/lvgl/src/core/lv_disp.c ****  * @return pointer to the previous screen object or NULL if not used now
  65:Middlewares/lvgl/src/core/lv_disp.c ****  */
  66:Middlewares/lvgl/src/core/lv_disp.c **** lv_obj_t * lv_disp_get_scr_prev(lv_disp_t * disp)
  67:Middlewares/lvgl/src/core/lv_disp.c **** {
  68:Middlewares/lvgl/src/core/lv_disp.c ****     if(!disp) disp = lv_disp_get_default();
  69:Middlewares/lvgl/src/core/lv_disp.c ****     if(!disp) {
  70:Middlewares/lvgl/src/core/lv_disp.c ****         LV_LOG_WARN("no display registered to get its previous screen");
  71:Middlewares/lvgl/src/core/lv_disp.c ****         return NULL;
  72:Middlewares/lvgl/src/core/lv_disp.c ****     }
  73:Middlewares/lvgl/src/core/lv_disp.c **** 
  74:Middlewares/lvgl/src/core/lv_disp.c ****     return disp->prev_scr;
  75:Middlewares/lvgl/src/core/lv_disp.c **** }
  76:Middlewares/lvgl/src/core/lv_disp.c **** 
  77:Middlewares/lvgl/src/core/lv_disp.c **** /**
  78:Middlewares/lvgl/src/core/lv_disp.c ****  * Make a screen active
  79:Middlewares/lvgl/src/core/lv_disp.c ****  * @param scr pointer to a screen
  80:Middlewares/lvgl/src/core/lv_disp.c ****  */
  81:Middlewares/lvgl/src/core/lv_disp.c **** void lv_disp_load_scr(lv_obj_t * scr)
  82:Middlewares/lvgl/src/core/lv_disp.c **** {
  83:Middlewares/lvgl/src/core/lv_disp.c ****     lv_disp_t * d = lv_obj_get_disp(scr);
  84:Middlewares/lvgl/src/core/lv_disp.c ****     if(!d) return;  /*Shouldn't happen, just to be sure*/
  85:Middlewares/lvgl/src/core/lv_disp.c ****     d->act_scr = scr;
  86:Middlewares/lvgl/src/core/lv_disp.c **** 
  87:Middlewares/lvgl/src/core/lv_disp.c ****     lv_obj_invalidate(scr);
ARM GAS  /tmp/ccMI0ryM.s 			page 3


  88:Middlewares/lvgl/src/core/lv_disp.c **** }
  89:Middlewares/lvgl/src/core/lv_disp.c **** 
  90:Middlewares/lvgl/src/core/lv_disp.c **** /**
  91:Middlewares/lvgl/src/core/lv_disp.c ****  * Return with the top layer. (Same on every screen and it is above the normal screen layer)
  92:Middlewares/lvgl/src/core/lv_disp.c ****  * @param disp pointer to display which top layer should be get. (NULL to use the default screen)
  93:Middlewares/lvgl/src/core/lv_disp.c ****  * @return pointer to the top layer object  (transparent screen sized lv_obj)
  94:Middlewares/lvgl/src/core/lv_disp.c ****  */
  95:Middlewares/lvgl/src/core/lv_disp.c **** lv_obj_t * lv_disp_get_layer_top(lv_disp_t * disp)
  96:Middlewares/lvgl/src/core/lv_disp.c **** {
  97:Middlewares/lvgl/src/core/lv_disp.c ****     if(!disp) disp = lv_disp_get_default();
  98:Middlewares/lvgl/src/core/lv_disp.c ****     if(!disp) {
  99:Middlewares/lvgl/src/core/lv_disp.c ****         LV_LOG_WARN("lv_layer_top: no display registered to get its top layer");
 100:Middlewares/lvgl/src/core/lv_disp.c ****         return NULL;
 101:Middlewares/lvgl/src/core/lv_disp.c ****     }
 102:Middlewares/lvgl/src/core/lv_disp.c **** 
 103:Middlewares/lvgl/src/core/lv_disp.c ****     return disp->top_layer;
 104:Middlewares/lvgl/src/core/lv_disp.c **** }
 105:Middlewares/lvgl/src/core/lv_disp.c **** 
 106:Middlewares/lvgl/src/core/lv_disp.c **** /**
 107:Middlewares/lvgl/src/core/lv_disp.c ****  * Return with the sys. layer. (Same on every screen and it is above the normal screen and the top
 108:Middlewares/lvgl/src/core/lv_disp.c ****  * layer)
 109:Middlewares/lvgl/src/core/lv_disp.c ****  * @param disp pointer to display which sys. layer  should be get. (NULL to use the default screen)
 110:Middlewares/lvgl/src/core/lv_disp.c ****  * @return pointer to the sys layer object  (transparent screen sized lv_obj)
 111:Middlewares/lvgl/src/core/lv_disp.c ****  */
 112:Middlewares/lvgl/src/core/lv_disp.c **** lv_obj_t * lv_disp_get_layer_sys(lv_disp_t * disp)
 113:Middlewares/lvgl/src/core/lv_disp.c **** {
 114:Middlewares/lvgl/src/core/lv_disp.c ****     if(!disp) disp = lv_disp_get_default();
 115:Middlewares/lvgl/src/core/lv_disp.c ****     if(!disp) {
 116:Middlewares/lvgl/src/core/lv_disp.c ****         LV_LOG_WARN("lv_layer_sys: no display registered to get its sys. layer");
 117:Middlewares/lvgl/src/core/lv_disp.c ****         return NULL;
 118:Middlewares/lvgl/src/core/lv_disp.c ****     }
 119:Middlewares/lvgl/src/core/lv_disp.c **** 
 120:Middlewares/lvgl/src/core/lv_disp.c ****     return disp->sys_layer;
 121:Middlewares/lvgl/src/core/lv_disp.c **** }
 122:Middlewares/lvgl/src/core/lv_disp.c **** 
 123:Middlewares/lvgl/src/core/lv_disp.c **** /**
 124:Middlewares/lvgl/src/core/lv_disp.c ****  * Get the theme of a display
 125:Middlewares/lvgl/src/core/lv_disp.c ****  * @param disp pointer to a display
 126:Middlewares/lvgl/src/core/lv_disp.c ****  * @return the display's theme (can be NULL)
 127:Middlewares/lvgl/src/core/lv_disp.c ****  */
 128:Middlewares/lvgl/src/core/lv_disp.c **** void lv_disp_set_theme(lv_disp_t * disp, lv_theme_t * th)
 129:Middlewares/lvgl/src/core/lv_disp.c **** {
 130:Middlewares/lvgl/src/core/lv_disp.c **** 	if(disp == NULL) disp = lv_disp_get_default();
 131:Middlewares/lvgl/src/core/lv_disp.c ****     disp->theme = th;
 132:Middlewares/lvgl/src/core/lv_disp.c **** 
 133:Middlewares/lvgl/src/core/lv_disp.c ****     if(disp->screen_cnt == 3 &&
 134:Middlewares/lvgl/src/core/lv_disp.c ****         lv_obj_get_child_cnt(disp->screens[0]) == 0 &&
 135:Middlewares/lvgl/src/core/lv_disp.c ****         lv_obj_get_child_cnt(disp->screens[1]) == 0 &&
 136:Middlewares/lvgl/src/core/lv_disp.c ****         lv_obj_get_child_cnt(disp->screens[2]) == 0)
 137:Middlewares/lvgl/src/core/lv_disp.c ****     {
 138:Middlewares/lvgl/src/core/lv_disp.c ****         lv_theme_apply(disp->screens[0]);
 139:Middlewares/lvgl/src/core/lv_disp.c ****     }
 140:Middlewares/lvgl/src/core/lv_disp.c **** }
 141:Middlewares/lvgl/src/core/lv_disp.c **** /**
 142:Middlewares/lvgl/src/core/lv_disp.c ****  * Get the theme of a display
 143:Middlewares/lvgl/src/core/lv_disp.c ****  * @param disp pointer to a display
 144:Middlewares/lvgl/src/core/lv_disp.c ****  * @return the display's theme (can be NULL)
ARM GAS  /tmp/ccMI0ryM.s 			page 4


 145:Middlewares/lvgl/src/core/lv_disp.c ****  */
 146:Middlewares/lvgl/src/core/lv_disp.c **** lv_theme_t * lv_disp_get_theme(lv_disp_t * disp)
 147:Middlewares/lvgl/src/core/lv_disp.c **** {
 148:Middlewares/lvgl/src/core/lv_disp.c **** 	if(disp == NULL) disp = lv_disp_get_default();
 149:Middlewares/lvgl/src/core/lv_disp.c ****     return disp->theme;
 150:Middlewares/lvgl/src/core/lv_disp.c **** }
 151:Middlewares/lvgl/src/core/lv_disp.c **** 
 152:Middlewares/lvgl/src/core/lv_disp.c **** /**
 153:Middlewares/lvgl/src/core/lv_disp.c ****  * Set the background color of a display
 154:Middlewares/lvgl/src/core/lv_disp.c ****  * @param disp pointer to a display
 155:Middlewares/lvgl/src/core/lv_disp.c ****  * @param color color of the background
 156:Middlewares/lvgl/src/core/lv_disp.c ****  */
 157:Middlewares/lvgl/src/core/lv_disp.c **** void lv_disp_set_bg_color(lv_disp_t * disp, lv_color_t color)
 158:Middlewares/lvgl/src/core/lv_disp.c **** {
 159:Middlewares/lvgl/src/core/lv_disp.c ****     if(!disp) disp = lv_disp_get_default();
 160:Middlewares/lvgl/src/core/lv_disp.c ****     if(!disp) {
 161:Middlewares/lvgl/src/core/lv_disp.c ****         LV_LOG_WARN("no display registered");
 162:Middlewares/lvgl/src/core/lv_disp.c ****         return;
 163:Middlewares/lvgl/src/core/lv_disp.c ****     }
 164:Middlewares/lvgl/src/core/lv_disp.c **** 
 165:Middlewares/lvgl/src/core/lv_disp.c ****     disp->bg_color = color;
 166:Middlewares/lvgl/src/core/lv_disp.c **** 
 167:Middlewares/lvgl/src/core/lv_disp.c ****     lv_area_t a;
 168:Middlewares/lvgl/src/core/lv_disp.c ****     lv_area_set(&a, 0, 0, lv_disp_get_hor_res(disp) - 1, lv_disp_get_ver_res(disp) - 1);
 169:Middlewares/lvgl/src/core/lv_disp.c ****     _lv_inv_area(disp, &a);
 170:Middlewares/lvgl/src/core/lv_disp.c **** 
 171:Middlewares/lvgl/src/core/lv_disp.c **** }
 172:Middlewares/lvgl/src/core/lv_disp.c **** 
 173:Middlewares/lvgl/src/core/lv_disp.c **** /**
 174:Middlewares/lvgl/src/core/lv_disp.c ****  * Set the background image of a display
 175:Middlewares/lvgl/src/core/lv_disp.c ****  * @param disp pointer to a display
 176:Middlewares/lvgl/src/core/lv_disp.c ****  * @param img_src path to file or pointer to an `lv_img_dsc_t` variable
 177:Middlewares/lvgl/src/core/lv_disp.c ****  */
 178:Middlewares/lvgl/src/core/lv_disp.c **** void lv_disp_set_bg_image(lv_disp_t * disp, const void  * img_src)
 179:Middlewares/lvgl/src/core/lv_disp.c **** {
 180:Middlewares/lvgl/src/core/lv_disp.c ****     if(!disp) disp = lv_disp_get_default();
 181:Middlewares/lvgl/src/core/lv_disp.c ****     if(!disp) {
 182:Middlewares/lvgl/src/core/lv_disp.c ****         LV_LOG_WARN("no display registered");
 183:Middlewares/lvgl/src/core/lv_disp.c ****         return;
 184:Middlewares/lvgl/src/core/lv_disp.c ****     }
 185:Middlewares/lvgl/src/core/lv_disp.c **** 
 186:Middlewares/lvgl/src/core/lv_disp.c ****     disp->bg_img = img_src;
 187:Middlewares/lvgl/src/core/lv_disp.c **** 
 188:Middlewares/lvgl/src/core/lv_disp.c ****     lv_area_t a;
 189:Middlewares/lvgl/src/core/lv_disp.c ****     lv_area_set(&a, 0, 0, lv_disp_get_hor_res(disp) - 1, lv_disp_get_ver_res(disp) - 1);
 190:Middlewares/lvgl/src/core/lv_disp.c ****     _lv_inv_area(disp, &a);
 191:Middlewares/lvgl/src/core/lv_disp.c **** }
 192:Middlewares/lvgl/src/core/lv_disp.c **** 
 193:Middlewares/lvgl/src/core/lv_disp.c **** /**
 194:Middlewares/lvgl/src/core/lv_disp.c ****  * Opacity of the background
 195:Middlewares/lvgl/src/core/lv_disp.c ****  * @param disp pointer to a display
 196:Middlewares/lvgl/src/core/lv_disp.c ****  * @param opa opacity (0..255)
 197:Middlewares/lvgl/src/core/lv_disp.c ****  */
 198:Middlewares/lvgl/src/core/lv_disp.c **** void lv_disp_set_bg_opa(lv_disp_t * disp, lv_opa_t opa)
 199:Middlewares/lvgl/src/core/lv_disp.c **** {
 200:Middlewares/lvgl/src/core/lv_disp.c ****     if(!disp) disp = lv_disp_get_default();
 201:Middlewares/lvgl/src/core/lv_disp.c ****     if(!disp) {
ARM GAS  /tmp/ccMI0ryM.s 			page 5


 202:Middlewares/lvgl/src/core/lv_disp.c ****         LV_LOG_WARN("no display registered");
 203:Middlewares/lvgl/src/core/lv_disp.c ****         return;
 204:Middlewares/lvgl/src/core/lv_disp.c ****     }
 205:Middlewares/lvgl/src/core/lv_disp.c **** 
 206:Middlewares/lvgl/src/core/lv_disp.c ****     disp->bg_opa = opa;
 207:Middlewares/lvgl/src/core/lv_disp.c **** 
 208:Middlewares/lvgl/src/core/lv_disp.c ****     lv_area_t a;
 209:Middlewares/lvgl/src/core/lv_disp.c ****     lv_area_set(&a, 0, 0, lv_disp_get_hor_res(disp) - 1, lv_disp_get_ver_res(disp) - 1);
 210:Middlewares/lvgl/src/core/lv_disp.c ****     _lv_inv_area(disp, &a);
 211:Middlewares/lvgl/src/core/lv_disp.c **** }
 212:Middlewares/lvgl/src/core/lv_disp.c **** 
 213:Middlewares/lvgl/src/core/lv_disp.c **** /**
 214:Middlewares/lvgl/src/core/lv_disp.c ****  * Switch screen with animation
 215:Middlewares/lvgl/src/core/lv_disp.c ****  * @param scr pointer to the new screen to load
 216:Middlewares/lvgl/src/core/lv_disp.c ****  * @param anim_type type of the animation from `lv_scr_load_anim_t`. E.g.  `LV_SCR_LOAD_ANIM_MOVE_L
 217:Middlewares/lvgl/src/core/lv_disp.c ****  * @param time time of the animation
 218:Middlewares/lvgl/src/core/lv_disp.c ****  * @param delay delay before the transition
 219:Middlewares/lvgl/src/core/lv_disp.c ****  * @param auto_del true: automatically delete the old screen
 220:Middlewares/lvgl/src/core/lv_disp.c ****  */
 221:Middlewares/lvgl/src/core/lv_disp.c **** void lv_scr_load_anim(lv_obj_t * new_scr, lv_scr_load_anim_t anim_type, uint32_t time, uint32_t del
 222:Middlewares/lvgl/src/core/lv_disp.c **** {
 223:Middlewares/lvgl/src/core/lv_disp.c ****     lv_disp_t * d = lv_obj_get_disp(new_scr);
 224:Middlewares/lvgl/src/core/lv_disp.c ****     lv_obj_t * act_scr = lv_scr_act();
 225:Middlewares/lvgl/src/core/lv_disp.c **** 
 226:Middlewares/lvgl/src/core/lv_disp.c ****     if(d->del_prev && act_scr != d->scr_to_load && d->scr_to_load) {
 227:Middlewares/lvgl/src/core/lv_disp.c ****         lv_obj_del(act_scr);
 228:Middlewares/lvgl/src/core/lv_disp.c ****         lv_disp_load_scr(d->scr_to_load);
 229:Middlewares/lvgl/src/core/lv_disp.c ****         lv_anim_del(d->scr_to_load, NULL);
 230:Middlewares/lvgl/src/core/lv_disp.c ****         lv_obj_set_pos(d->scr_to_load, 0, 0);
 231:Middlewares/lvgl/src/core/lv_disp.c ****         lv_obj_remove_local_style_prop(d->scr_to_load, LV_STYLE_OPA, 0);
 232:Middlewares/lvgl/src/core/lv_disp.c **** 
 233:Middlewares/lvgl/src/core/lv_disp.c ****         act_scr = d->scr_to_load;
 234:Middlewares/lvgl/src/core/lv_disp.c ****     }
 235:Middlewares/lvgl/src/core/lv_disp.c **** 
 236:Middlewares/lvgl/src/core/lv_disp.c ****     d->scr_to_load = new_scr;
 237:Middlewares/lvgl/src/core/lv_disp.c **** 
 238:Middlewares/lvgl/src/core/lv_disp.c ****     if(d->prev_scr && d->del_prev) {
 239:Middlewares/lvgl/src/core/lv_disp.c ****         lv_obj_del(d->prev_scr);
 240:Middlewares/lvgl/src/core/lv_disp.c ****         d->prev_scr = NULL;
 241:Middlewares/lvgl/src/core/lv_disp.c ****     }
 242:Middlewares/lvgl/src/core/lv_disp.c **** 
 243:Middlewares/lvgl/src/core/lv_disp.c ****     d->del_prev = auto_del;
 244:Middlewares/lvgl/src/core/lv_disp.c **** 
 245:Middlewares/lvgl/src/core/lv_disp.c ****     /*Be sure there is no other animation on the screens*/
 246:Middlewares/lvgl/src/core/lv_disp.c ****     lv_anim_del(new_scr, NULL);
 247:Middlewares/lvgl/src/core/lv_disp.c ****     lv_anim_del(lv_scr_act(), NULL);
 248:Middlewares/lvgl/src/core/lv_disp.c **** 
 249:Middlewares/lvgl/src/core/lv_disp.c ****     /*Be sure both screens are in a normal position*/
 250:Middlewares/lvgl/src/core/lv_disp.c ****     lv_obj_set_pos(new_scr, 0, 0);
 251:Middlewares/lvgl/src/core/lv_disp.c ****     lv_obj_set_pos(lv_scr_act(), 0, 0);
 252:Middlewares/lvgl/src/core/lv_disp.c ****     lv_obj_remove_local_style_prop(new_scr, LV_STYLE_OPA, 0);
 253:Middlewares/lvgl/src/core/lv_disp.c ****     lv_obj_remove_local_style_prop(lv_scr_act(), LV_STYLE_OPA, 0);
 254:Middlewares/lvgl/src/core/lv_disp.c **** 
 255:Middlewares/lvgl/src/core/lv_disp.c ****     lv_anim_t a_new;
 256:Middlewares/lvgl/src/core/lv_disp.c ****     lv_anim_init(&a_new);
 257:Middlewares/lvgl/src/core/lv_disp.c ****     lv_anim_set_var(&a_new, new_scr);
 258:Middlewares/lvgl/src/core/lv_disp.c ****     lv_anim_set_start_cb(&a_new, scr_load_anim_start);
ARM GAS  /tmp/ccMI0ryM.s 			page 6


 259:Middlewares/lvgl/src/core/lv_disp.c ****     lv_anim_set_ready_cb(&a_new, scr_anim_ready);
 260:Middlewares/lvgl/src/core/lv_disp.c ****     lv_anim_set_time(&a_new, time);
 261:Middlewares/lvgl/src/core/lv_disp.c ****     lv_anim_set_delay(&a_new, delay);
 262:Middlewares/lvgl/src/core/lv_disp.c **** 
 263:Middlewares/lvgl/src/core/lv_disp.c ****     lv_anim_t a_old;
 264:Middlewares/lvgl/src/core/lv_disp.c ****     lv_anim_init(&a_old);
 265:Middlewares/lvgl/src/core/lv_disp.c ****     lv_anim_set_var(&a_old, d->act_scr);
 266:Middlewares/lvgl/src/core/lv_disp.c ****     lv_anim_set_time(&a_old, time);
 267:Middlewares/lvgl/src/core/lv_disp.c ****     lv_anim_set_delay(&a_old, delay);
 268:Middlewares/lvgl/src/core/lv_disp.c **** 
 269:Middlewares/lvgl/src/core/lv_disp.c ****     switch(anim_type) {
 270:Middlewares/lvgl/src/core/lv_disp.c ****         case LV_SCR_LOAD_ANIM_NONE:
 271:Middlewares/lvgl/src/core/lv_disp.c ****             /*Create a dummy animation to apply the delay*/
 272:Middlewares/lvgl/src/core/lv_disp.c ****             lv_anim_set_exec_cb(&a_new, set_x_anim);
 273:Middlewares/lvgl/src/core/lv_disp.c ****             lv_anim_set_values(&a_new, 0, 0);
 274:Middlewares/lvgl/src/core/lv_disp.c ****             break;
 275:Middlewares/lvgl/src/core/lv_disp.c ****         case LV_SCR_LOAD_ANIM_OVER_LEFT:
 276:Middlewares/lvgl/src/core/lv_disp.c ****             lv_anim_set_exec_cb(&a_new, set_x_anim);
 277:Middlewares/lvgl/src/core/lv_disp.c ****             lv_anim_set_values(&a_new, lv_disp_get_hor_res(d), 0);
 278:Middlewares/lvgl/src/core/lv_disp.c ****             break;
 279:Middlewares/lvgl/src/core/lv_disp.c ****         case LV_SCR_LOAD_ANIM_OVER_RIGHT:
 280:Middlewares/lvgl/src/core/lv_disp.c ****             lv_anim_set_exec_cb(&a_new, set_x_anim);
 281:Middlewares/lvgl/src/core/lv_disp.c ****             lv_anim_set_values(&a_new, -lv_disp_get_hor_res(d), 0);
 282:Middlewares/lvgl/src/core/lv_disp.c ****             break;
 283:Middlewares/lvgl/src/core/lv_disp.c ****         case LV_SCR_LOAD_ANIM_OVER_TOP:
 284:Middlewares/lvgl/src/core/lv_disp.c ****             lv_anim_set_exec_cb(&a_new, set_y_anim);
 285:Middlewares/lvgl/src/core/lv_disp.c ****             lv_anim_set_values(&a_new, lv_disp_get_ver_res(d), 0);
 286:Middlewares/lvgl/src/core/lv_disp.c ****             break;
 287:Middlewares/lvgl/src/core/lv_disp.c ****         case LV_SCR_LOAD_ANIM_OVER_BOTTOM:
 288:Middlewares/lvgl/src/core/lv_disp.c ****             lv_anim_set_exec_cb(&a_new, set_y_anim);
 289:Middlewares/lvgl/src/core/lv_disp.c ****             lv_anim_set_values(&a_new, -lv_disp_get_ver_res(d), 0);
 290:Middlewares/lvgl/src/core/lv_disp.c ****             break;
 291:Middlewares/lvgl/src/core/lv_disp.c ****         case LV_SCR_LOAD_ANIM_MOVE_LEFT:
 292:Middlewares/lvgl/src/core/lv_disp.c ****             lv_anim_set_exec_cb(&a_new, set_x_anim);
 293:Middlewares/lvgl/src/core/lv_disp.c ****             lv_anim_set_values(&a_new, lv_disp_get_hor_res(d), 0);
 294:Middlewares/lvgl/src/core/lv_disp.c **** 
 295:Middlewares/lvgl/src/core/lv_disp.c ****             lv_anim_set_exec_cb(&a_old, set_x_anim);
 296:Middlewares/lvgl/src/core/lv_disp.c ****             lv_anim_set_values(&a_old, 0, -lv_disp_get_hor_res(d));
 297:Middlewares/lvgl/src/core/lv_disp.c ****             break;
 298:Middlewares/lvgl/src/core/lv_disp.c ****         case LV_SCR_LOAD_ANIM_MOVE_RIGHT:
 299:Middlewares/lvgl/src/core/lv_disp.c ****             lv_anim_set_exec_cb(&a_new, set_x_anim);
 300:Middlewares/lvgl/src/core/lv_disp.c ****             lv_anim_set_values(&a_new, -lv_disp_get_hor_res(d), 0);
 301:Middlewares/lvgl/src/core/lv_disp.c **** 
 302:Middlewares/lvgl/src/core/lv_disp.c ****             lv_anim_set_exec_cb(&a_old, set_x_anim);
 303:Middlewares/lvgl/src/core/lv_disp.c ****             lv_anim_set_values(&a_old, 0, lv_disp_get_hor_res(d));
 304:Middlewares/lvgl/src/core/lv_disp.c ****             break;
 305:Middlewares/lvgl/src/core/lv_disp.c ****         case LV_SCR_LOAD_ANIM_MOVE_TOP:
 306:Middlewares/lvgl/src/core/lv_disp.c ****             lv_anim_set_exec_cb(&a_new, set_y_anim);
 307:Middlewares/lvgl/src/core/lv_disp.c ****             lv_anim_set_values(&a_new, lv_disp_get_ver_res(d), 0);
 308:Middlewares/lvgl/src/core/lv_disp.c **** 
 309:Middlewares/lvgl/src/core/lv_disp.c ****             lv_anim_set_exec_cb(&a_old, set_y_anim);
 310:Middlewares/lvgl/src/core/lv_disp.c ****             lv_anim_set_values(&a_old, 0, -lv_disp_get_ver_res(d));
 311:Middlewares/lvgl/src/core/lv_disp.c ****             break;
 312:Middlewares/lvgl/src/core/lv_disp.c ****         case LV_SCR_LOAD_ANIM_MOVE_BOTTOM:
 313:Middlewares/lvgl/src/core/lv_disp.c ****             lv_anim_set_exec_cb(&a_new, set_y_anim);
 314:Middlewares/lvgl/src/core/lv_disp.c ****             lv_anim_set_values(&a_new, -lv_disp_get_ver_res(d), 0);
 315:Middlewares/lvgl/src/core/lv_disp.c **** 
ARM GAS  /tmp/ccMI0ryM.s 			page 7


 316:Middlewares/lvgl/src/core/lv_disp.c ****             lv_anim_set_exec_cb(&a_old, set_y_anim);
 317:Middlewares/lvgl/src/core/lv_disp.c ****             lv_anim_set_values(&a_old, 0, lv_disp_get_ver_res(d));
 318:Middlewares/lvgl/src/core/lv_disp.c ****             break;
 319:Middlewares/lvgl/src/core/lv_disp.c **** 
 320:Middlewares/lvgl/src/core/lv_disp.c ****         case LV_SCR_LOAD_ANIM_FADE_ON:
 321:Middlewares/lvgl/src/core/lv_disp.c ****             lv_anim_set_exec_cb(&a_new, opa_scale_anim);
 322:Middlewares/lvgl/src/core/lv_disp.c ****             lv_anim_set_values(&a_new, LV_OPA_TRANSP, LV_OPA_COVER);
 323:Middlewares/lvgl/src/core/lv_disp.c ****             break;
 324:Middlewares/lvgl/src/core/lv_disp.c ****     }
 325:Middlewares/lvgl/src/core/lv_disp.c **** 
 326:Middlewares/lvgl/src/core/lv_disp.c ****     lv_anim_start(&a_new);
 327:Middlewares/lvgl/src/core/lv_disp.c ****     lv_anim_start(&a_old);
 328:Middlewares/lvgl/src/core/lv_disp.c **** }
 329:Middlewares/lvgl/src/core/lv_disp.c **** 
 330:Middlewares/lvgl/src/core/lv_disp.c **** /**
 331:Middlewares/lvgl/src/core/lv_disp.c ****  * Get elapsed time since last user activity on a display (e.g. click)
 332:Middlewares/lvgl/src/core/lv_disp.c ****  * @param disp pointer to an display (NULL to get the overall smallest inactivity)
 333:Middlewares/lvgl/src/core/lv_disp.c ****  * @return elapsed ticks (milliseconds) since the last activity
 334:Middlewares/lvgl/src/core/lv_disp.c ****  */
 335:Middlewares/lvgl/src/core/lv_disp.c **** uint32_t lv_disp_get_inactive_time(const lv_disp_t * disp)
 336:Middlewares/lvgl/src/core/lv_disp.c **** {
 337:Middlewares/lvgl/src/core/lv_disp.c ****     if(disp) return lv_tick_elaps(disp->last_activity_time);
 338:Middlewares/lvgl/src/core/lv_disp.c **** 
 339:Middlewares/lvgl/src/core/lv_disp.c ****     lv_disp_t * d;
 340:Middlewares/lvgl/src/core/lv_disp.c ****     uint32_t t = UINT32_MAX;
 341:Middlewares/lvgl/src/core/lv_disp.c ****     d          = lv_disp_get_next(NULL);
 342:Middlewares/lvgl/src/core/lv_disp.c ****     while(d) {
 343:Middlewares/lvgl/src/core/lv_disp.c ****         uint32_t elaps = lv_tick_elaps(d->last_activity_time);
 344:Middlewares/lvgl/src/core/lv_disp.c ****         t = LV_MIN(t, elaps);
 345:Middlewares/lvgl/src/core/lv_disp.c ****         d = lv_disp_get_next(d);
 346:Middlewares/lvgl/src/core/lv_disp.c ****     }
 347:Middlewares/lvgl/src/core/lv_disp.c **** 
 348:Middlewares/lvgl/src/core/lv_disp.c ****     return t;
 349:Middlewares/lvgl/src/core/lv_disp.c **** }
 350:Middlewares/lvgl/src/core/lv_disp.c **** 
 351:Middlewares/lvgl/src/core/lv_disp.c **** /**
 352:Middlewares/lvgl/src/core/lv_disp.c ****  * Manually trigger an activity on a display
 353:Middlewares/lvgl/src/core/lv_disp.c ****  * @param disp pointer to an display (NULL to use the default display)
 354:Middlewares/lvgl/src/core/lv_disp.c ****  */
 355:Middlewares/lvgl/src/core/lv_disp.c **** void lv_disp_trig_activity(lv_disp_t * disp)
 356:Middlewares/lvgl/src/core/lv_disp.c **** {
 357:Middlewares/lvgl/src/core/lv_disp.c ****     if(!disp) disp = lv_disp_get_default();
 358:Middlewares/lvgl/src/core/lv_disp.c ****     if(!disp) {
 359:Middlewares/lvgl/src/core/lv_disp.c ****         LV_LOG_WARN("lv_disp_trig_activity: no display registered");
 360:Middlewares/lvgl/src/core/lv_disp.c ****         return;
 361:Middlewares/lvgl/src/core/lv_disp.c ****     }
 362:Middlewares/lvgl/src/core/lv_disp.c **** 
 363:Middlewares/lvgl/src/core/lv_disp.c ****     disp->last_activity_time = lv_tick_get();
 364:Middlewares/lvgl/src/core/lv_disp.c **** }
 365:Middlewares/lvgl/src/core/lv_disp.c **** 
 366:Middlewares/lvgl/src/core/lv_disp.c **** /**
 367:Middlewares/lvgl/src/core/lv_disp.c ****  * Clean any CPU cache that is related to the display.
 368:Middlewares/lvgl/src/core/lv_disp.c ****  * @param disp pointer to an display (NULL to use the default display)
 369:Middlewares/lvgl/src/core/lv_disp.c ****  */
 370:Middlewares/lvgl/src/core/lv_disp.c **** void lv_disp_clean_dcache(lv_disp_t * disp)
 371:Middlewares/lvgl/src/core/lv_disp.c **** {
 372:Middlewares/lvgl/src/core/lv_disp.c ****     if(!disp) disp = lv_disp_get_default();
ARM GAS  /tmp/ccMI0ryM.s 			page 8


 373:Middlewares/lvgl/src/core/lv_disp.c ****     if(!disp) {
 374:Middlewares/lvgl/src/core/lv_disp.c ****         LV_LOG_WARN("lv_disp_clean_dcache: no display registered");
 375:Middlewares/lvgl/src/core/lv_disp.c ****         return;
 376:Middlewares/lvgl/src/core/lv_disp.c ****     }
 377:Middlewares/lvgl/src/core/lv_disp.c **** 
 378:Middlewares/lvgl/src/core/lv_disp.c ****     if(disp->driver->clean_dcache_cb)
 379:Middlewares/lvgl/src/core/lv_disp.c ****         disp->driver->clean_dcache_cb(disp->driver);
 380:Middlewares/lvgl/src/core/lv_disp.c **** }
 381:Middlewares/lvgl/src/core/lv_disp.c **** 
 382:Middlewares/lvgl/src/core/lv_disp.c **** /**
 383:Middlewares/lvgl/src/core/lv_disp.c ****  * Get a pointer to the screen refresher timer to
 384:Middlewares/lvgl/src/core/lv_disp.c ****  * modify its parameters with `lv_timer_...` functions.
 385:Middlewares/lvgl/src/core/lv_disp.c ****  * @param disp pointer to a display
 386:Middlewares/lvgl/src/core/lv_disp.c ****  * @return pointer to the display refresher timer. (NULL on error)
 387:Middlewares/lvgl/src/core/lv_disp.c ****  */
 388:Middlewares/lvgl/src/core/lv_disp.c **** lv_timer_t * _lv_disp_get_refr_timer(lv_disp_t * disp)
 389:Middlewares/lvgl/src/core/lv_disp.c **** {
 390:Middlewares/lvgl/src/core/lv_disp.c ****     if(!disp) disp = lv_disp_get_default();
 391:Middlewares/lvgl/src/core/lv_disp.c ****     if(!disp) {
 392:Middlewares/lvgl/src/core/lv_disp.c ****         LV_LOG_WARN("lv_disp_get_refr_timer: no display registered");
 393:Middlewares/lvgl/src/core/lv_disp.c ****         return NULL;
 394:Middlewares/lvgl/src/core/lv_disp.c ****     }
 395:Middlewares/lvgl/src/core/lv_disp.c **** 
 396:Middlewares/lvgl/src/core/lv_disp.c ****     return disp->refr_timer;
 397:Middlewares/lvgl/src/core/lv_disp.c **** }
 398:Middlewares/lvgl/src/core/lv_disp.c **** 
 399:Middlewares/lvgl/src/core/lv_disp.c **** /**********************
 400:Middlewares/lvgl/src/core/lv_disp.c ****  *   STATIC FUNCTIONS
 401:Middlewares/lvgl/src/core/lv_disp.c ****  **********************/
 402:Middlewares/lvgl/src/core/lv_disp.c **** 
 403:Middlewares/lvgl/src/core/lv_disp.c **** static void scr_load_anim_start(lv_anim_t * a)
 404:Middlewares/lvgl/src/core/lv_disp.c **** {
 405:Middlewares/lvgl/src/core/lv_disp.c ****     lv_disp_t * d = lv_obj_get_disp(a->var);
 406:Middlewares/lvgl/src/core/lv_disp.c ****     d->prev_scr = lv_scr_act();
 407:Middlewares/lvgl/src/core/lv_disp.c **** 
 408:Middlewares/lvgl/src/core/lv_disp.c ****     lv_disp_load_scr(a->var);
 409:Middlewares/lvgl/src/core/lv_disp.c **** }
 410:Middlewares/lvgl/src/core/lv_disp.c **** 
 411:Middlewares/lvgl/src/core/lv_disp.c **** static void opa_scale_anim(void * obj, int32_t v)
 412:Middlewares/lvgl/src/core/lv_disp.c **** {
 413:Middlewares/lvgl/src/core/lv_disp.c ****     lv_obj_set_style_opa(obj, v, 0);
 414:Middlewares/lvgl/src/core/lv_disp.c **** }
 415:Middlewares/lvgl/src/core/lv_disp.c **** 
 416:Middlewares/lvgl/src/core/lv_disp.c **** static void set_x_anim(void * obj, int32_t v)
 417:Middlewares/lvgl/src/core/lv_disp.c **** {
 418:Middlewares/lvgl/src/core/lv_disp.c ****     lv_obj_set_x(obj, v);
 419:Middlewares/lvgl/src/core/lv_disp.c **** }
 420:Middlewares/lvgl/src/core/lv_disp.c **** 
 421:Middlewares/lvgl/src/core/lv_disp.c **** static void set_y_anim(void * obj, int32_t v)
 422:Middlewares/lvgl/src/core/lv_disp.c **** {
 423:Middlewares/lvgl/src/core/lv_disp.c ****     lv_obj_set_y(obj, v);
 424:Middlewares/lvgl/src/core/lv_disp.c **** }
 425:Middlewares/lvgl/src/core/lv_disp.c **** 
 426:Middlewares/lvgl/src/core/lv_disp.c **** static void scr_anim_ready(lv_anim_t * a)
 427:Middlewares/lvgl/src/core/lv_disp.c **** {
  29              		.loc 1 427 1 view -0
  30              		.cfi_startproc
ARM GAS  /tmp/ccMI0ryM.s 			page 9


  31              		@ args = 0, pretend = 0, frame = 0
  32              		@ frame_needed = 0, uses_anonymous_args = 0
  33              		.loc 1 427 1 is_stmt 0 view .LVU1
  34 0000 38B5     		push	{r3, r4, r5, lr}
  35              	.LCFI0:
  36              		.cfi_def_cfa_offset 16
  37              		.cfi_offset 3, -16
  38              		.cfi_offset 4, -12
  39              		.cfi_offset 5, -8
  40              		.cfi_offset 14, -4
  41 0002 0546     		mov	r5, r0
 428:Middlewares/lvgl/src/core/lv_disp.c ****     lv_disp_t * d = lv_obj_get_disp(a->var);
  42              		.loc 1 428 5 is_stmt 1 view .LVU2
  43              		.loc 1 428 21 is_stmt 0 view .LVU3
  44 0004 0068     		ldr	r0, [r0]
  45              	.LVL1:
  46              		.loc 1 428 21 view .LVU4
  47 0006 FFF7FEFF 		bl	lv_obj_get_disp
  48              	.LVL2:
  49 000a 0446     		mov	r4, r0
  50              	.LVL3:
 429:Middlewares/lvgl/src/core/lv_disp.c **** 
 430:Middlewares/lvgl/src/core/lv_disp.c ****     if(d->prev_scr && d->del_prev) lv_obj_del(d->prev_scr);
  51              		.loc 1 430 5 is_stmt 1 view .LVU5
  52              		.loc 1 430 9 is_stmt 0 view .LVU6
  53 000c 4069     		ldr	r0, [r0, #20]
  54              	.LVL4:
  55              		.loc 1 430 7 view .LVU7
  56 000e 20B1     		cbz	r0, .L2
  57              		.loc 1 430 20 discriminator 1 view .LVU8
  58 0010 94F82830 		ldrb	r3, [r4, #40]	@ zero_extendqisi2
  59 0014 13F0010F 		tst	r3, #1
  60 0018 08D1     		bne	.L4
  61              	.L2:
 431:Middlewares/lvgl/src/core/lv_disp.c ****     d->prev_scr = NULL;
  62              		.loc 1 431 5 is_stmt 1 view .LVU9
  63              		.loc 1 431 17 is_stmt 0 view .LVU10
  64 001a 0022     		movs	r2, #0
  65 001c 6261     		str	r2, [r4, #20]
 432:Middlewares/lvgl/src/core/lv_disp.c ****     d->scr_to_load = NULL;
  66              		.loc 1 432 5 is_stmt 1 view .LVU11
  67              		.loc 1 432 20 is_stmt 0 view .LVU12
  68 001e A261     		str	r2, [r4, #24]
 433:Middlewares/lvgl/src/core/lv_disp.c ****     lv_obj_remove_local_style_prop(a->var, LV_STYLE_OPA, 0);
  69              		.loc 1 433 5 is_stmt 1 view .LVU13
  70 0020 40F26241 		movw	r1, #1122
  71 0024 2868     		ldr	r0, [r5]
  72 0026 FFF7FEFF 		bl	lv_obj_remove_local_style_prop
  73              	.LVL5:
 434:Middlewares/lvgl/src/core/lv_disp.c **** }
  74              		.loc 1 434 1 is_stmt 0 view .LVU14
  75 002a 38BD     		pop	{r3, r4, r5, pc}
  76              	.LVL6:
  77              	.L4:
 430:Middlewares/lvgl/src/core/lv_disp.c ****     d->prev_scr = NULL;
  78              		.loc 1 430 36 is_stmt 1 discriminator 2 view .LVU15
  79 002c FFF7FEFF 		bl	lv_obj_del
ARM GAS  /tmp/ccMI0ryM.s 			page 10


  80              	.LVL7:
  81 0030 F3E7     		b	.L2
  82              		.cfi_endproc
  83              	.LFE172:
  85              		.section	.text.opa_scale_anim,"ax",%progbits
  86              		.align	1
  87              		.syntax unified
  88              		.thumb
  89              		.thumb_func
  91              	opa_scale_anim:
  92              	.LVL8:
  93              	.LFB169:
 412:Middlewares/lvgl/src/core/lv_disp.c ****     lv_obj_set_style_opa(obj, v, 0);
  94              		.loc 1 412 1 view -0
  95              		.cfi_startproc
  96              		@ args = 0, pretend = 0, frame = 0
  97              		@ frame_needed = 0, uses_anonymous_args = 0
 412:Middlewares/lvgl/src/core/lv_disp.c ****     lv_obj_set_style_opa(obj, v, 0);
  98              		.loc 1 412 1 is_stmt 0 view .LVU17
  99 0000 08B5     		push	{r3, lr}
 100              	.LCFI1:
 101              		.cfi_def_cfa_offset 8
 102              		.cfi_offset 3, -8
 103              		.cfi_offset 14, -4
 413:Middlewares/lvgl/src/core/lv_disp.c **** }
 104              		.loc 1 413 5 is_stmt 1 view .LVU18
 105 0002 0022     		movs	r2, #0
 106 0004 C9B2     		uxtb	r1, r1
 107              	.LVL9:
 413:Middlewares/lvgl/src/core/lv_disp.c **** }
 108              		.loc 1 413 5 is_stmt 0 view .LVU19
 109 0006 FFF7FEFF 		bl	lv_obj_set_style_opa
 110              	.LVL10:
 414:Middlewares/lvgl/src/core/lv_disp.c **** 
 111              		.loc 1 414 1 view .LVU20
 112 000a 08BD     		pop	{r3, pc}
 113              		.cfi_endproc
 114              	.LFE169:
 116              		.section	.text.set_y_anim,"ax",%progbits
 117              		.align	1
 118              		.syntax unified
 119              		.thumb
 120              		.thumb_func
 122              	set_y_anim:
 123              	.LVL11:
 124              	.LFB171:
 422:Middlewares/lvgl/src/core/lv_disp.c ****     lv_obj_set_y(obj, v);
 125              		.loc 1 422 1 is_stmt 1 view -0
 126              		.cfi_startproc
 127              		@ args = 0, pretend = 0, frame = 0
 128              		@ frame_needed = 0, uses_anonymous_args = 0
 422:Middlewares/lvgl/src/core/lv_disp.c ****     lv_obj_set_y(obj, v);
 129              		.loc 1 422 1 is_stmt 0 view .LVU22
 130 0000 08B5     		push	{r3, lr}
 131              	.LCFI2:
 132              		.cfi_def_cfa_offset 8
 133              		.cfi_offset 3, -8
ARM GAS  /tmp/ccMI0ryM.s 			page 11


 134              		.cfi_offset 14, -4
 423:Middlewares/lvgl/src/core/lv_disp.c **** }
 135              		.loc 1 423 5 is_stmt 1 view .LVU23
 136 0002 09B2     		sxth	r1, r1
 137              	.LVL12:
 423:Middlewares/lvgl/src/core/lv_disp.c **** }
 138              		.loc 1 423 5 is_stmt 0 view .LVU24
 139 0004 FFF7FEFF 		bl	lv_obj_set_y
 140              	.LVL13:
 424:Middlewares/lvgl/src/core/lv_disp.c **** 
 141              		.loc 1 424 1 view .LVU25
 142 0008 08BD     		pop	{r3, pc}
 143              		.cfi_endproc
 144              	.LFE171:
 146              		.section	.text.set_x_anim,"ax",%progbits
 147              		.align	1
 148              		.syntax unified
 149              		.thumb
 150              		.thumb_func
 152              	set_x_anim:
 153              	.LVL14:
 154              	.LFB170:
 417:Middlewares/lvgl/src/core/lv_disp.c ****     lv_obj_set_x(obj, v);
 155              		.loc 1 417 1 is_stmt 1 view -0
 156              		.cfi_startproc
 157              		@ args = 0, pretend = 0, frame = 0
 158              		@ frame_needed = 0, uses_anonymous_args = 0
 417:Middlewares/lvgl/src/core/lv_disp.c ****     lv_obj_set_x(obj, v);
 159              		.loc 1 417 1 is_stmt 0 view .LVU27
 160 0000 08B5     		push	{r3, lr}
 161              	.LCFI3:
 162              		.cfi_def_cfa_offset 8
 163              		.cfi_offset 3, -8
 164              		.cfi_offset 14, -4
 418:Middlewares/lvgl/src/core/lv_disp.c **** }
 165              		.loc 1 418 5 is_stmt 1 view .LVU28
 166 0002 09B2     		sxth	r1, r1
 167              	.LVL15:
 418:Middlewares/lvgl/src/core/lv_disp.c **** }
 168              		.loc 1 418 5 is_stmt 0 view .LVU29
 169 0004 FFF7FEFF 		bl	lv_obj_set_x
 170              	.LVL16:
 419:Middlewares/lvgl/src/core/lv_disp.c **** 
 171              		.loc 1 419 1 view .LVU30
 172 0008 08BD     		pop	{r3, pc}
 173              		.cfi_endproc
 174              	.LFE170:
 176              		.section	.text.lv_disp_get_scr_act,"ax",%progbits
 177              		.align	1
 178              		.global	lv_disp_get_scr_act
 179              		.syntax unified
 180              		.thumb
 181              		.thumb_func
 183              	lv_disp_get_scr_act:
 184              	.LVL17:
 185              	.LFB153:
  50:Middlewares/lvgl/src/core/lv_disp.c ****     if(!disp) disp = lv_disp_get_default();
ARM GAS  /tmp/ccMI0ryM.s 			page 12


 186              		.loc 1 50 1 is_stmt 1 view -0
 187              		.cfi_startproc
 188              		@ args = 0, pretend = 0, frame = 0
 189              		@ frame_needed = 0, uses_anonymous_args = 0
  50:Middlewares/lvgl/src/core/lv_disp.c ****     if(!disp) disp = lv_disp_get_default();
 190              		.loc 1 50 1 is_stmt 0 view .LVU32
 191 0000 08B5     		push	{r3, lr}
 192              	.LCFI4:
 193              		.cfi_def_cfa_offset 8
 194              		.cfi_offset 3, -8
 195              		.cfi_offset 14, -4
  51:Middlewares/lvgl/src/core/lv_disp.c ****     if(!disp) {
 196              		.loc 1 51 5 is_stmt 1 view .LVU33
  51:Middlewares/lvgl/src/core/lv_disp.c ****     if(!disp) {
 197              		.loc 1 51 7 is_stmt 0 view .LVU34
 198 0002 0346     		mov	r3, r0
 199 0004 10B1     		cbz	r0, .L16
 200              	.L12:
  52:Middlewares/lvgl/src/core/lv_disp.c ****         LV_LOG_WARN("no display registered to get its active screen");
 201              		.loc 1 52 5 is_stmt 1 view .LVU35
  52:Middlewares/lvgl/src/core/lv_disp.c ****         LV_LOG_WARN("no display registered to get its active screen");
 202              		.loc 1 52 7 is_stmt 0 view .LVU36
 203 0006 2BB1     		cbz	r3, .L14
  57:Middlewares/lvgl/src/core/lv_disp.c **** }
 204              		.loc 1 57 5 is_stmt 1 view .LVU37
  57:Middlewares/lvgl/src/core/lv_disp.c **** }
 205              		.loc 1 57 16 is_stmt 0 view .LVU38
 206 0008 1869     		ldr	r0, [r3, #16]
 207              	.LVL18:
 208              	.L11:
  58:Middlewares/lvgl/src/core/lv_disp.c **** 
 209              		.loc 1 58 1 view .LVU39
 210 000a 08BD     		pop	{r3, pc}
 211              	.LVL19:
 212              	.L16:
  51:Middlewares/lvgl/src/core/lv_disp.c ****     if(!disp) {
 213              		.loc 1 51 15 is_stmt 1 discriminator 1 view .LVU40
  51:Middlewares/lvgl/src/core/lv_disp.c ****     if(!disp) {
 214              		.loc 1 51 22 is_stmt 0 discriminator 1 view .LVU41
 215 000c FFF7FEFF 		bl	lv_disp_get_default
 216              	.LVL20:
  51:Middlewares/lvgl/src/core/lv_disp.c ****     if(!disp) {
 217              		.loc 1 51 22 discriminator 1 view .LVU42
 218 0010 0346     		mov	r3, r0
 219              	.LVL21:
  51:Middlewares/lvgl/src/core/lv_disp.c ****     if(!disp) {
 220              		.loc 1 51 22 discriminator 1 view .LVU43
 221 0012 F8E7     		b	.L12
 222              	.L14:
  54:Middlewares/lvgl/src/core/lv_disp.c ****     }
 223              		.loc 1 54 16 view .LVU44
 224 0014 1846     		mov	r0, r3
 225              	.LVL22:
  54:Middlewares/lvgl/src/core/lv_disp.c ****     }
 226              		.loc 1 54 16 view .LVU45
 227 0016 F8E7     		b	.L11
 228              		.cfi_endproc
ARM GAS  /tmp/ccMI0ryM.s 			page 13


 229              	.LFE153:
 231              		.section	.text.lv_disp_get_scr_prev,"ax",%progbits
 232              		.align	1
 233              		.global	lv_disp_get_scr_prev
 234              		.syntax unified
 235              		.thumb
 236              		.thumb_func
 238              	lv_disp_get_scr_prev:
 239              	.LVL23:
 240              	.LFB154:
  67:Middlewares/lvgl/src/core/lv_disp.c ****     if(!disp) disp = lv_disp_get_default();
 241              		.loc 1 67 1 is_stmt 1 view -0
 242              		.cfi_startproc
 243              		@ args = 0, pretend = 0, frame = 0
 244              		@ frame_needed = 0, uses_anonymous_args = 0
  67:Middlewares/lvgl/src/core/lv_disp.c ****     if(!disp) disp = lv_disp_get_default();
 245              		.loc 1 67 1 is_stmt 0 view .LVU47
 246 0000 08B5     		push	{r3, lr}
 247              	.LCFI5:
 248              		.cfi_def_cfa_offset 8
 249              		.cfi_offset 3, -8
 250              		.cfi_offset 14, -4
  68:Middlewares/lvgl/src/core/lv_disp.c ****     if(!disp) {
 251              		.loc 1 68 5 is_stmt 1 view .LVU48
  68:Middlewares/lvgl/src/core/lv_disp.c ****     if(!disp) {
 252              		.loc 1 68 7 is_stmt 0 view .LVU49
 253 0002 0346     		mov	r3, r0
 254 0004 10B1     		cbz	r0, .L22
 255              	.L18:
  69:Middlewares/lvgl/src/core/lv_disp.c ****         LV_LOG_WARN("no display registered to get its previous screen");
 256              		.loc 1 69 5 is_stmt 1 view .LVU50
  69:Middlewares/lvgl/src/core/lv_disp.c ****         LV_LOG_WARN("no display registered to get its previous screen");
 257              		.loc 1 69 7 is_stmt 0 view .LVU51
 258 0006 2BB1     		cbz	r3, .L20
  74:Middlewares/lvgl/src/core/lv_disp.c **** }
 259              		.loc 1 74 5 is_stmt 1 view .LVU52
  74:Middlewares/lvgl/src/core/lv_disp.c **** }
 260              		.loc 1 74 16 is_stmt 0 view .LVU53
 261 0008 5869     		ldr	r0, [r3, #20]
 262              	.LVL24:
 263              	.L17:
  75:Middlewares/lvgl/src/core/lv_disp.c **** 
 264              		.loc 1 75 1 view .LVU54
 265 000a 08BD     		pop	{r3, pc}
 266              	.LVL25:
 267              	.L22:
  68:Middlewares/lvgl/src/core/lv_disp.c ****     if(!disp) {
 268              		.loc 1 68 15 is_stmt 1 discriminator 1 view .LVU55
  68:Middlewares/lvgl/src/core/lv_disp.c ****     if(!disp) {
 269              		.loc 1 68 22 is_stmt 0 discriminator 1 view .LVU56
 270 000c FFF7FEFF 		bl	lv_disp_get_default
 271              	.LVL26:
  68:Middlewares/lvgl/src/core/lv_disp.c ****     if(!disp) {
 272              		.loc 1 68 22 discriminator 1 view .LVU57
 273 0010 0346     		mov	r3, r0
 274              	.LVL27:
  68:Middlewares/lvgl/src/core/lv_disp.c ****     if(!disp) {
ARM GAS  /tmp/ccMI0ryM.s 			page 14


 275              		.loc 1 68 22 discriminator 1 view .LVU58
 276 0012 F8E7     		b	.L18
 277              	.L20:
  71:Middlewares/lvgl/src/core/lv_disp.c ****     }
 278              		.loc 1 71 16 view .LVU59
 279 0014 1846     		mov	r0, r3
 280              	.LVL28:
  71:Middlewares/lvgl/src/core/lv_disp.c ****     }
 281              		.loc 1 71 16 view .LVU60
 282 0016 F8E7     		b	.L17
 283              		.cfi_endproc
 284              	.LFE154:
 286              		.section	.text.lv_disp_load_scr,"ax",%progbits
 287              		.align	1
 288              		.global	lv_disp_load_scr
 289              		.syntax unified
 290              		.thumb
 291              		.thumb_func
 293              	lv_disp_load_scr:
 294              	.LVL29:
 295              	.LFB155:
  82:Middlewares/lvgl/src/core/lv_disp.c ****     lv_disp_t * d = lv_obj_get_disp(scr);
 296              		.loc 1 82 1 is_stmt 1 view -0
 297              		.cfi_startproc
 298              		@ args = 0, pretend = 0, frame = 0
 299              		@ frame_needed = 0, uses_anonymous_args = 0
  82:Middlewares/lvgl/src/core/lv_disp.c ****     lv_disp_t * d = lv_obj_get_disp(scr);
 300              		.loc 1 82 1 is_stmt 0 view .LVU62
 301 0000 10B5     		push	{r4, lr}
 302              	.LCFI6:
 303              		.cfi_def_cfa_offset 8
 304              		.cfi_offset 4, -8
 305              		.cfi_offset 14, -4
 306 0002 0446     		mov	r4, r0
  83:Middlewares/lvgl/src/core/lv_disp.c ****     if(!d) return;  /*Shouldn't happen, just to be sure*/
 307              		.loc 1 83 5 is_stmt 1 view .LVU63
  83:Middlewares/lvgl/src/core/lv_disp.c ****     if(!d) return;  /*Shouldn't happen, just to be sure*/
 308              		.loc 1 83 21 is_stmt 0 view .LVU64
 309 0004 FFF7FEFF 		bl	lv_obj_get_disp
 310              	.LVL30:
  84:Middlewares/lvgl/src/core/lv_disp.c ****     d->act_scr = scr;
 311              		.loc 1 84 5 is_stmt 1 view .LVU65
  84:Middlewares/lvgl/src/core/lv_disp.c ****     d->act_scr = scr;
 312              		.loc 1 84 7 is_stmt 0 view .LVU66
 313 0008 18B1     		cbz	r0, .L23
  85:Middlewares/lvgl/src/core/lv_disp.c **** 
 314              		.loc 1 85 5 is_stmt 1 view .LVU67
  85:Middlewares/lvgl/src/core/lv_disp.c **** 
 315              		.loc 1 85 16 is_stmt 0 view .LVU68
 316 000a 0461     		str	r4, [r0, #16]
  87:Middlewares/lvgl/src/core/lv_disp.c **** }
 317              		.loc 1 87 5 is_stmt 1 view .LVU69
 318 000c 2046     		mov	r0, r4
 319              	.LVL31:
  87:Middlewares/lvgl/src/core/lv_disp.c **** }
 320              		.loc 1 87 5 is_stmt 0 view .LVU70
 321 000e FFF7FEFF 		bl	lv_obj_invalidate
ARM GAS  /tmp/ccMI0ryM.s 			page 15


 322              	.LVL32:
 323              	.L23:
  88:Middlewares/lvgl/src/core/lv_disp.c **** 
 324              		.loc 1 88 1 view .LVU71
 325 0012 10BD     		pop	{r4, pc}
  88:Middlewares/lvgl/src/core/lv_disp.c **** 
 326              		.loc 1 88 1 view .LVU72
 327              		.cfi_endproc
 328              	.LFE155:
 330              		.section	.text.scr_load_anim_start,"ax",%progbits
 331              		.align	1
 332              		.syntax unified
 333              		.thumb
 334              		.thumb_func
 336              	scr_load_anim_start:
 337              	.LVL33:
 338              	.LFB168:
 404:Middlewares/lvgl/src/core/lv_disp.c ****     lv_disp_t * d = lv_obj_get_disp(a->var);
 339              		.loc 1 404 1 is_stmt 1 view -0
 340              		.cfi_startproc
 341              		@ args = 0, pretend = 0, frame = 0
 342              		@ frame_needed = 0, uses_anonymous_args = 0
 404:Middlewares/lvgl/src/core/lv_disp.c ****     lv_disp_t * d = lv_obj_get_disp(a->var);
 343              		.loc 1 404 1 is_stmt 0 view .LVU74
 344 0000 38B5     		push	{r3, r4, r5, lr}
 345              	.LCFI7:
 346              		.cfi_def_cfa_offset 16
 347              		.cfi_offset 3, -16
 348              		.cfi_offset 4, -12
 349              		.cfi_offset 5, -8
 350              		.cfi_offset 14, -4
 351 0002 0446     		mov	r4, r0
 405:Middlewares/lvgl/src/core/lv_disp.c ****     d->prev_scr = lv_scr_act();
 352              		.loc 1 405 5 is_stmt 1 view .LVU75
 405:Middlewares/lvgl/src/core/lv_disp.c ****     d->prev_scr = lv_scr_act();
 353              		.loc 1 405 21 is_stmt 0 view .LVU76
 354 0004 0068     		ldr	r0, [r0]
 355              	.LVL34:
 405:Middlewares/lvgl/src/core/lv_disp.c ****     d->prev_scr = lv_scr_act();
 356              		.loc 1 405 21 view .LVU77
 357 0006 FFF7FEFF 		bl	lv_obj_get_disp
 358              	.LVL35:
 359 000a 0546     		mov	r5, r0
 360              	.LVL36:
 406:Middlewares/lvgl/src/core/lv_disp.c **** 
 361              		.loc 1 406 5 is_stmt 1 view .LVU78
 362              	.LBB76:
 363              	.LBI76:
 364              		.file 2 "Middlewares/lvgl/src/core/lv_disp.h"
   1:Middlewares/lvgl/src/core/lv_disp.h **** /**
   2:Middlewares/lvgl/src/core/lv_disp.h ****  * @file lv_disp.h
   3:Middlewares/lvgl/src/core/lv_disp.h ****  *
   4:Middlewares/lvgl/src/core/lv_disp.h ****  */
   5:Middlewares/lvgl/src/core/lv_disp.h **** 
   6:Middlewares/lvgl/src/core/lv_disp.h **** #ifndef LV_DISP_H
   7:Middlewares/lvgl/src/core/lv_disp.h **** #define LV_DISP_H
   8:Middlewares/lvgl/src/core/lv_disp.h **** 
ARM GAS  /tmp/ccMI0ryM.s 			page 16


   9:Middlewares/lvgl/src/core/lv_disp.h **** #ifdef __cplusplus
  10:Middlewares/lvgl/src/core/lv_disp.h **** extern "C" {
  11:Middlewares/lvgl/src/core/lv_disp.h **** #endif
  12:Middlewares/lvgl/src/core/lv_disp.h **** 
  13:Middlewares/lvgl/src/core/lv_disp.h **** /*********************
  14:Middlewares/lvgl/src/core/lv_disp.h ****  *      INCLUDES
  15:Middlewares/lvgl/src/core/lv_disp.h ****  *********************/
  16:Middlewares/lvgl/src/core/lv_disp.h **** #include "../hal/lv_hal.h"
  17:Middlewares/lvgl/src/core/lv_disp.h **** #include "lv_obj.h"
  18:Middlewares/lvgl/src/core/lv_disp.h **** #include "lv_theme.h"
  19:Middlewares/lvgl/src/core/lv_disp.h **** 
  20:Middlewares/lvgl/src/core/lv_disp.h **** /*********************
  21:Middlewares/lvgl/src/core/lv_disp.h ****  *      DEFINES
  22:Middlewares/lvgl/src/core/lv_disp.h ****  *********************/
  23:Middlewares/lvgl/src/core/lv_disp.h **** 
  24:Middlewares/lvgl/src/core/lv_disp.h **** /**********************
  25:Middlewares/lvgl/src/core/lv_disp.h ****  *      TYPEDEFS
  26:Middlewares/lvgl/src/core/lv_disp.h ****  **********************/
  27:Middlewares/lvgl/src/core/lv_disp.h **** 
  28:Middlewares/lvgl/src/core/lv_disp.h **** typedef enum {
  29:Middlewares/lvgl/src/core/lv_disp.h ****     LV_SCR_LOAD_ANIM_NONE,
  30:Middlewares/lvgl/src/core/lv_disp.h ****     LV_SCR_LOAD_ANIM_OVER_LEFT,
  31:Middlewares/lvgl/src/core/lv_disp.h ****     LV_SCR_LOAD_ANIM_OVER_RIGHT,
  32:Middlewares/lvgl/src/core/lv_disp.h ****     LV_SCR_LOAD_ANIM_OVER_TOP,
  33:Middlewares/lvgl/src/core/lv_disp.h ****     LV_SCR_LOAD_ANIM_OVER_BOTTOM,
  34:Middlewares/lvgl/src/core/lv_disp.h ****     LV_SCR_LOAD_ANIM_MOVE_LEFT,
  35:Middlewares/lvgl/src/core/lv_disp.h ****     LV_SCR_LOAD_ANIM_MOVE_RIGHT,
  36:Middlewares/lvgl/src/core/lv_disp.h ****     LV_SCR_LOAD_ANIM_MOVE_TOP,
  37:Middlewares/lvgl/src/core/lv_disp.h ****     LV_SCR_LOAD_ANIM_MOVE_BOTTOM,
  38:Middlewares/lvgl/src/core/lv_disp.h ****     LV_SCR_LOAD_ANIM_FADE_ON,
  39:Middlewares/lvgl/src/core/lv_disp.h **** } lv_scr_load_anim_t;
  40:Middlewares/lvgl/src/core/lv_disp.h **** 
  41:Middlewares/lvgl/src/core/lv_disp.h **** /**********************
  42:Middlewares/lvgl/src/core/lv_disp.h ****  * GLOBAL PROTOTYPES
  43:Middlewares/lvgl/src/core/lv_disp.h ****  **********************/
  44:Middlewares/lvgl/src/core/lv_disp.h **** 
  45:Middlewares/lvgl/src/core/lv_disp.h **** /**
  46:Middlewares/lvgl/src/core/lv_disp.h ****  * Return with a pointer to the active screen
  47:Middlewares/lvgl/src/core/lv_disp.h ****  * @param disp pointer to display which active screen should be get. (NULL to use the default
  48:Middlewares/lvgl/src/core/lv_disp.h ****  * screen)
  49:Middlewares/lvgl/src/core/lv_disp.h ****  * @return pointer to the active screen object (loaded by 'lv_scr_load()')
  50:Middlewares/lvgl/src/core/lv_disp.h ****  */
  51:Middlewares/lvgl/src/core/lv_disp.h **** lv_obj_t * lv_disp_get_scr_act(lv_disp_t * disp);
  52:Middlewares/lvgl/src/core/lv_disp.h **** 
  53:Middlewares/lvgl/src/core/lv_disp.h **** /**
  54:Middlewares/lvgl/src/core/lv_disp.h ****  * Return with a pointer to the previous screen. Only used during screen transitions.
  55:Middlewares/lvgl/src/core/lv_disp.h ****  * @param disp pointer to display which previous screen should be get. (NULL to use the default
  56:Middlewares/lvgl/src/core/lv_disp.h ****  * screen)
  57:Middlewares/lvgl/src/core/lv_disp.h ****  * @return pointer to the previous screen object or NULL if not used now
  58:Middlewares/lvgl/src/core/lv_disp.h ****  */
  59:Middlewares/lvgl/src/core/lv_disp.h **** lv_obj_t * lv_disp_get_scr_prev(lv_disp_t * disp);
  60:Middlewares/lvgl/src/core/lv_disp.h **** 
  61:Middlewares/lvgl/src/core/lv_disp.h **** /**
  62:Middlewares/lvgl/src/core/lv_disp.h ****  * Make a screen active
  63:Middlewares/lvgl/src/core/lv_disp.h ****  * @param scr pointer to a screen
  64:Middlewares/lvgl/src/core/lv_disp.h ****  */
  65:Middlewares/lvgl/src/core/lv_disp.h **** void lv_disp_load_scr(lv_obj_t * scr);
ARM GAS  /tmp/ccMI0ryM.s 			page 17


  66:Middlewares/lvgl/src/core/lv_disp.h **** 
  67:Middlewares/lvgl/src/core/lv_disp.h **** /**
  68:Middlewares/lvgl/src/core/lv_disp.h ****  * Return with the top layer. (Same on every screen and it is above the normal screen layer)
  69:Middlewares/lvgl/src/core/lv_disp.h ****  * @param disp pointer to display which top layer should be get. (NULL to use the default screen)
  70:Middlewares/lvgl/src/core/lv_disp.h ****  * @return pointer to the top layer object  (transparent screen sized lv_obj)
  71:Middlewares/lvgl/src/core/lv_disp.h ****  */
  72:Middlewares/lvgl/src/core/lv_disp.h **** lv_obj_t * lv_disp_get_layer_top(lv_disp_t * disp);
  73:Middlewares/lvgl/src/core/lv_disp.h **** 
  74:Middlewares/lvgl/src/core/lv_disp.h **** /**
  75:Middlewares/lvgl/src/core/lv_disp.h ****  * Return with the sys. layer. (Same on every screen and it is above the normal screen and the top
  76:Middlewares/lvgl/src/core/lv_disp.h ****  * layer)
  77:Middlewares/lvgl/src/core/lv_disp.h ****  * @param disp pointer to display which sys. layer  should be get. (NULL to use the default screen)
  78:Middlewares/lvgl/src/core/lv_disp.h ****  * @return pointer to the sys layer object  (transparent screen sized lv_obj)
  79:Middlewares/lvgl/src/core/lv_disp.h ****  */
  80:Middlewares/lvgl/src/core/lv_disp.h **** lv_obj_t * lv_disp_get_layer_sys(lv_disp_t * disp);
  81:Middlewares/lvgl/src/core/lv_disp.h **** 
  82:Middlewares/lvgl/src/core/lv_disp.h **** /**
  83:Middlewares/lvgl/src/core/lv_disp.h ****  * Get the theme of a display
  84:Middlewares/lvgl/src/core/lv_disp.h ****  * @param disp pointer to a display
  85:Middlewares/lvgl/src/core/lv_disp.h ****  * @return the display's theme (can be NULL)
  86:Middlewares/lvgl/src/core/lv_disp.h ****  */
  87:Middlewares/lvgl/src/core/lv_disp.h **** void lv_disp_set_theme(lv_disp_t * disp, lv_theme_t * th);
  88:Middlewares/lvgl/src/core/lv_disp.h **** 
  89:Middlewares/lvgl/src/core/lv_disp.h **** /**
  90:Middlewares/lvgl/src/core/lv_disp.h ****  * Get the theme of a display
  91:Middlewares/lvgl/src/core/lv_disp.h ****  * @param disp pointer to a display
  92:Middlewares/lvgl/src/core/lv_disp.h ****  * @return the display's theme (can be NULL)
  93:Middlewares/lvgl/src/core/lv_disp.h ****  */
  94:Middlewares/lvgl/src/core/lv_disp.h **** lv_theme_t * lv_disp_get_theme(lv_disp_t * disp);
  95:Middlewares/lvgl/src/core/lv_disp.h **** 
  96:Middlewares/lvgl/src/core/lv_disp.h **** /**
  97:Middlewares/lvgl/src/core/lv_disp.h ****  * Set the background color of a display
  98:Middlewares/lvgl/src/core/lv_disp.h ****  * @param disp pointer to a display
  99:Middlewares/lvgl/src/core/lv_disp.h ****  * @param color color of the background
 100:Middlewares/lvgl/src/core/lv_disp.h ****  */
 101:Middlewares/lvgl/src/core/lv_disp.h **** void lv_disp_set_bg_color(lv_disp_t * disp, lv_color_t color);
 102:Middlewares/lvgl/src/core/lv_disp.h **** 
 103:Middlewares/lvgl/src/core/lv_disp.h **** /**
 104:Middlewares/lvgl/src/core/lv_disp.h ****  * Set the background image of a display
 105:Middlewares/lvgl/src/core/lv_disp.h ****  * @param disp pointer to a display
 106:Middlewares/lvgl/src/core/lv_disp.h ****  * @param img_src path to file or pointer to an `lv_img_dsc_t` variable
 107:Middlewares/lvgl/src/core/lv_disp.h ****  */
 108:Middlewares/lvgl/src/core/lv_disp.h **** void lv_disp_set_bg_image(lv_disp_t * disp, const void  * img_src);
 109:Middlewares/lvgl/src/core/lv_disp.h **** 
 110:Middlewares/lvgl/src/core/lv_disp.h **** /**
 111:Middlewares/lvgl/src/core/lv_disp.h ****  * Opacity of the background
 112:Middlewares/lvgl/src/core/lv_disp.h ****  * @param disp pointer to a display
 113:Middlewares/lvgl/src/core/lv_disp.h ****  * @param opa opacity (0..255)
 114:Middlewares/lvgl/src/core/lv_disp.h ****  */
 115:Middlewares/lvgl/src/core/lv_disp.h **** void lv_disp_set_bg_opa(lv_disp_t * disp, lv_opa_t opa);
 116:Middlewares/lvgl/src/core/lv_disp.h **** 
 117:Middlewares/lvgl/src/core/lv_disp.h **** /**
 118:Middlewares/lvgl/src/core/lv_disp.h ****  * Switch screen with animation
 119:Middlewares/lvgl/src/core/lv_disp.h ****  * @param scr pointer to the new screen to load
 120:Middlewares/lvgl/src/core/lv_disp.h ****  * @param anim_type type of the animation from `lv_scr_load_anim_t`. E.g.  `LV_SCR_LOAD_ANIM_MOVE_L
 121:Middlewares/lvgl/src/core/lv_disp.h ****  * @param time time of the animation
 122:Middlewares/lvgl/src/core/lv_disp.h ****  * @param delay delay before the transition
ARM GAS  /tmp/ccMI0ryM.s 			page 18


 123:Middlewares/lvgl/src/core/lv_disp.h ****  * @param auto_del true: automatically delete the old screen
 124:Middlewares/lvgl/src/core/lv_disp.h ****  */
 125:Middlewares/lvgl/src/core/lv_disp.h **** void lv_scr_load_anim(lv_obj_t * scr, lv_scr_load_anim_t anim_type, uint32_t time, uint32_t delay, 
 126:Middlewares/lvgl/src/core/lv_disp.h **** 
 127:Middlewares/lvgl/src/core/lv_disp.h **** /**
 128:Middlewares/lvgl/src/core/lv_disp.h ****  * Get elapsed time since last user activity on a display (e.g. click)
 129:Middlewares/lvgl/src/core/lv_disp.h ****  * @param disp pointer to an display (NULL to get the overall smallest inactivity)
 130:Middlewares/lvgl/src/core/lv_disp.h ****  * @return elapsed ticks (milliseconds) since the last activity
 131:Middlewares/lvgl/src/core/lv_disp.h ****  */
 132:Middlewares/lvgl/src/core/lv_disp.h **** uint32_t lv_disp_get_inactive_time(const lv_disp_t * disp);
 133:Middlewares/lvgl/src/core/lv_disp.h **** 
 134:Middlewares/lvgl/src/core/lv_disp.h **** /**
 135:Middlewares/lvgl/src/core/lv_disp.h ****  * Manually trigger an activity on a display
 136:Middlewares/lvgl/src/core/lv_disp.h ****  * @param disp pointer to an display (NULL to use the default display)
 137:Middlewares/lvgl/src/core/lv_disp.h ****  */
 138:Middlewares/lvgl/src/core/lv_disp.h **** void lv_disp_trig_activity(lv_disp_t * disp);
 139:Middlewares/lvgl/src/core/lv_disp.h **** 
 140:Middlewares/lvgl/src/core/lv_disp.h **** /**
 141:Middlewares/lvgl/src/core/lv_disp.h ****  * Clean any CPU cache that is related to the display.
 142:Middlewares/lvgl/src/core/lv_disp.h ****  * @param disp pointer to an display (NULL to use the default display)
 143:Middlewares/lvgl/src/core/lv_disp.h ****  */
 144:Middlewares/lvgl/src/core/lv_disp.h **** void lv_disp_clean_dcache(lv_disp_t * disp);
 145:Middlewares/lvgl/src/core/lv_disp.h **** 
 146:Middlewares/lvgl/src/core/lv_disp.h **** /**
 147:Middlewares/lvgl/src/core/lv_disp.h ****  * Get a pointer to the screen refresher timer to
 148:Middlewares/lvgl/src/core/lv_disp.h ****  * modify its parameters with `lv_timer_...` functions.
 149:Middlewares/lvgl/src/core/lv_disp.h ****  * @param disp pointer to a display
 150:Middlewares/lvgl/src/core/lv_disp.h ****  * @return pointer to the display refresher timer. (NULL on error)
 151:Middlewares/lvgl/src/core/lv_disp.h ****  */
 152:Middlewares/lvgl/src/core/lv_disp.h **** lv_timer_t * _lv_disp_get_refr_timer(lv_disp_t * disp);
 153:Middlewares/lvgl/src/core/lv_disp.h **** 
 154:Middlewares/lvgl/src/core/lv_disp.h **** /*------------------------------------------------
 155:Middlewares/lvgl/src/core/lv_disp.h ****  * To improve backward compatibility
 156:Middlewares/lvgl/src/core/lv_disp.h ****  * Recommended only if you have one display
 157:Middlewares/lvgl/src/core/lv_disp.h ****  *------------------------------------------------*/
 158:Middlewares/lvgl/src/core/lv_disp.h **** 
 159:Middlewares/lvgl/src/core/lv_disp.h **** /**
 160:Middlewares/lvgl/src/core/lv_disp.h ****  * Get the active screen of the default display
 161:Middlewares/lvgl/src/core/lv_disp.h ****  * @return pointer to the active screen
 162:Middlewares/lvgl/src/core/lv_disp.h ****  */
 163:Middlewares/lvgl/src/core/lv_disp.h **** static inline lv_obj_t * lv_scr_act(void)
 365              		.loc 2 163 26 view .LVU79
 366              	.LBB77:
 164:Middlewares/lvgl/src/core/lv_disp.h **** {
 165:Middlewares/lvgl/src/core/lv_disp.h ****     return lv_disp_get_scr_act(lv_disp_get_default());
 367              		.loc 2 165 5 view .LVU80
 368              		.loc 2 165 12 is_stmt 0 view .LVU81
 369 000c FFF7FEFF 		bl	lv_disp_get_default
 370              	.LVL37:
 371              		.loc 2 165 12 view .LVU82
 372 0010 FFF7FEFF 		bl	lv_disp_get_scr_act
 373              	.LVL38:
 374              	.LBE77:
 375              	.LBE76:
 406:Middlewares/lvgl/src/core/lv_disp.c **** 
 376              		.loc 1 406 17 view .LVU83
 377 0014 6861     		str	r0, [r5, #20]
ARM GAS  /tmp/ccMI0ryM.s 			page 19


 408:Middlewares/lvgl/src/core/lv_disp.c **** }
 378              		.loc 1 408 5 is_stmt 1 view .LVU84
 379 0016 2068     		ldr	r0, [r4]
 380 0018 FFF7FEFF 		bl	lv_disp_load_scr
 381              	.LVL39:
 409:Middlewares/lvgl/src/core/lv_disp.c **** 
 382              		.loc 1 409 1 is_stmt 0 view .LVU85
 383 001c 38BD     		pop	{r3, r4, r5, pc}
 409:Middlewares/lvgl/src/core/lv_disp.c **** 
 384              		.loc 1 409 1 view .LVU86
 385              		.cfi_endproc
 386              	.LFE168:
 388              		.section	.text.lv_disp_get_layer_top,"ax",%progbits
 389              		.align	1
 390              		.global	lv_disp_get_layer_top
 391              		.syntax unified
 392              		.thumb
 393              		.thumb_func
 395              	lv_disp_get_layer_top:
 396              	.LVL40:
 397              	.LFB156:
  96:Middlewares/lvgl/src/core/lv_disp.c ****     if(!disp) disp = lv_disp_get_default();
 398              		.loc 1 96 1 is_stmt 1 view -0
 399              		.cfi_startproc
 400              		@ args = 0, pretend = 0, frame = 0
 401              		@ frame_needed = 0, uses_anonymous_args = 0
  96:Middlewares/lvgl/src/core/lv_disp.c ****     if(!disp) disp = lv_disp_get_default();
 402              		.loc 1 96 1 is_stmt 0 view .LVU88
 403 0000 08B5     		push	{r3, lr}
 404              	.LCFI8:
 405              		.cfi_def_cfa_offset 8
 406              		.cfi_offset 3, -8
 407              		.cfi_offset 14, -4
  97:Middlewares/lvgl/src/core/lv_disp.c ****     if(!disp) {
 408              		.loc 1 97 5 is_stmt 1 view .LVU89
  97:Middlewares/lvgl/src/core/lv_disp.c ****     if(!disp) {
 409              		.loc 1 97 7 is_stmt 0 view .LVU90
 410 0002 0346     		mov	r3, r0
 411 0004 10B1     		cbz	r0, .L33
 412              	.L29:
  98:Middlewares/lvgl/src/core/lv_disp.c ****         LV_LOG_WARN("lv_layer_top: no display registered to get its top layer");
 413              		.loc 1 98 5 is_stmt 1 view .LVU91
  98:Middlewares/lvgl/src/core/lv_disp.c ****         LV_LOG_WARN("lv_layer_top: no display registered to get its top layer");
 414              		.loc 1 98 7 is_stmt 0 view .LVU92
 415 0006 2BB1     		cbz	r3, .L31
 103:Middlewares/lvgl/src/core/lv_disp.c **** }
 416              		.loc 1 103 5 is_stmt 1 view .LVU93
 103:Middlewares/lvgl/src/core/lv_disp.c **** }
 417              		.loc 1 103 16 is_stmt 0 view .LVU94
 418 0008 D869     		ldr	r0, [r3, #28]
 419              	.LVL41:
 420              	.L28:
 104:Middlewares/lvgl/src/core/lv_disp.c **** 
 421              		.loc 1 104 1 view .LVU95
 422 000a 08BD     		pop	{r3, pc}
 423              	.LVL42:
 424              	.L33:
ARM GAS  /tmp/ccMI0ryM.s 			page 20


  97:Middlewares/lvgl/src/core/lv_disp.c ****     if(!disp) {
 425              		.loc 1 97 15 is_stmt 1 discriminator 1 view .LVU96
  97:Middlewares/lvgl/src/core/lv_disp.c ****     if(!disp) {
 426              		.loc 1 97 22 is_stmt 0 discriminator 1 view .LVU97
 427 000c FFF7FEFF 		bl	lv_disp_get_default
 428              	.LVL43:
  97:Middlewares/lvgl/src/core/lv_disp.c ****     if(!disp) {
 429              		.loc 1 97 22 discriminator 1 view .LVU98
 430 0010 0346     		mov	r3, r0
 431              	.LVL44:
  97:Middlewares/lvgl/src/core/lv_disp.c ****     if(!disp) {
 432              		.loc 1 97 22 discriminator 1 view .LVU99
 433 0012 F8E7     		b	.L29
 434              	.L31:
 100:Middlewares/lvgl/src/core/lv_disp.c ****     }
 435              		.loc 1 100 16 view .LVU100
 436 0014 1846     		mov	r0, r3
 437              	.LVL45:
 100:Middlewares/lvgl/src/core/lv_disp.c ****     }
 438              		.loc 1 100 16 view .LVU101
 439 0016 F8E7     		b	.L28
 440              		.cfi_endproc
 441              	.LFE156:
 443              		.section	.text.lv_disp_get_layer_sys,"ax",%progbits
 444              		.align	1
 445              		.global	lv_disp_get_layer_sys
 446              		.syntax unified
 447              		.thumb
 448              		.thumb_func
 450              	lv_disp_get_layer_sys:
 451              	.LVL46:
 452              	.LFB157:
 113:Middlewares/lvgl/src/core/lv_disp.c ****     if(!disp) disp = lv_disp_get_default();
 453              		.loc 1 113 1 is_stmt 1 view -0
 454              		.cfi_startproc
 455              		@ args = 0, pretend = 0, frame = 0
 456              		@ frame_needed = 0, uses_anonymous_args = 0
 113:Middlewares/lvgl/src/core/lv_disp.c ****     if(!disp) disp = lv_disp_get_default();
 457              		.loc 1 113 1 is_stmt 0 view .LVU103
 458 0000 08B5     		push	{r3, lr}
 459              	.LCFI9:
 460              		.cfi_def_cfa_offset 8
 461              		.cfi_offset 3, -8
 462              		.cfi_offset 14, -4
 114:Middlewares/lvgl/src/core/lv_disp.c ****     if(!disp) {
 463              		.loc 1 114 5 is_stmt 1 view .LVU104
 114:Middlewares/lvgl/src/core/lv_disp.c ****     if(!disp) {
 464              		.loc 1 114 7 is_stmt 0 view .LVU105
 465 0002 0346     		mov	r3, r0
 466 0004 10B1     		cbz	r0, .L39
 467              	.L35:
 115:Middlewares/lvgl/src/core/lv_disp.c ****         LV_LOG_WARN("lv_layer_sys: no display registered to get its sys. layer");
 468              		.loc 1 115 5 is_stmt 1 view .LVU106
 115:Middlewares/lvgl/src/core/lv_disp.c ****         LV_LOG_WARN("lv_layer_sys: no display registered to get its sys. layer");
 469              		.loc 1 115 7 is_stmt 0 view .LVU107
 470 0006 2BB1     		cbz	r3, .L37
 120:Middlewares/lvgl/src/core/lv_disp.c **** }
ARM GAS  /tmp/ccMI0ryM.s 			page 21


 471              		.loc 1 120 5 is_stmt 1 view .LVU108
 120:Middlewares/lvgl/src/core/lv_disp.c **** }
 472              		.loc 1 120 16 is_stmt 0 view .LVU109
 473 0008 186A     		ldr	r0, [r3, #32]
 474              	.LVL47:
 475              	.L34:
 121:Middlewares/lvgl/src/core/lv_disp.c **** 
 476              		.loc 1 121 1 view .LVU110
 477 000a 08BD     		pop	{r3, pc}
 478              	.LVL48:
 479              	.L39:
 114:Middlewares/lvgl/src/core/lv_disp.c ****     if(!disp) {
 480              		.loc 1 114 15 is_stmt 1 discriminator 1 view .LVU111
 114:Middlewares/lvgl/src/core/lv_disp.c ****     if(!disp) {
 481              		.loc 1 114 22 is_stmt 0 discriminator 1 view .LVU112
 482 000c FFF7FEFF 		bl	lv_disp_get_default
 483              	.LVL49:
 114:Middlewares/lvgl/src/core/lv_disp.c ****     if(!disp) {
 484              		.loc 1 114 22 discriminator 1 view .LVU113
 485 0010 0346     		mov	r3, r0
 486              	.LVL50:
 114:Middlewares/lvgl/src/core/lv_disp.c ****     if(!disp) {
 487              		.loc 1 114 22 discriminator 1 view .LVU114
 488 0012 F8E7     		b	.L35
 489              	.L37:
 117:Middlewares/lvgl/src/core/lv_disp.c ****     }
 490              		.loc 1 117 16 view .LVU115
 491 0014 1846     		mov	r0, r3
 492              	.LVL51:
 117:Middlewares/lvgl/src/core/lv_disp.c ****     }
 493              		.loc 1 117 16 view .LVU116
 494 0016 F8E7     		b	.L34
 495              		.cfi_endproc
 496              	.LFE157:
 498              		.section	.text.lv_disp_set_theme,"ax",%progbits
 499              		.align	1
 500              		.global	lv_disp_set_theme
 501              		.syntax unified
 502              		.thumb
 503              		.thumb_func
 505              	lv_disp_set_theme:
 506              	.LVL52:
 507              	.LFB158:
 129:Middlewares/lvgl/src/core/lv_disp.c **** 	if(disp == NULL) disp = lv_disp_get_default();
 508              		.loc 1 129 1 is_stmt 1 view -0
 509              		.cfi_startproc
 510              		@ args = 0, pretend = 0, frame = 0
 511              		@ frame_needed = 0, uses_anonymous_args = 0
 129:Middlewares/lvgl/src/core/lv_disp.c **** 	if(disp == NULL) disp = lv_disp_get_default();
 512              		.loc 1 129 1 is_stmt 0 view .LVU118
 513 0000 38B5     		push	{r3, r4, r5, lr}
 514              	.LCFI10:
 515              		.cfi_def_cfa_offset 16
 516              		.cfi_offset 3, -16
 517              		.cfi_offset 4, -12
 518              		.cfi_offset 5, -8
 519              		.cfi_offset 14, -4
ARM GAS  /tmp/ccMI0ryM.s 			page 22


 520 0002 0C46     		mov	r4, r1
 130:Middlewares/lvgl/src/core/lv_disp.c ****     disp->theme = th;
 521              		.loc 1 130 2 is_stmt 1 view .LVU119
 130:Middlewares/lvgl/src/core/lv_disp.c ****     disp->theme = th;
 522              		.loc 1 130 4 is_stmt 0 view .LVU120
 523 0004 0546     		mov	r5, r0
 524 0006 20B1     		cbz	r0, .L44
 525              	.LVL53:
 526              	.L41:
 131:Middlewares/lvgl/src/core/lv_disp.c **** 
 527              		.loc 1 131 5 is_stmt 1 view .LVU121
 131:Middlewares/lvgl/src/core/lv_disp.c **** 
 528              		.loc 1 131 17 is_stmt 0 view .LVU122
 529 0008 AC60     		str	r4, [r5, #8]
 133:Middlewares/lvgl/src/core/lv_disp.c ****         lv_obj_get_child_cnt(disp->screens[0]) == 0 &&
 530              		.loc 1 133 5 is_stmt 1 view .LVU123
 133:Middlewares/lvgl/src/core/lv_disp.c ****         lv_obj_get_child_cnt(disp->screens[0]) == 0 &&
 531              		.loc 1 133 12 is_stmt 0 view .LVU124
 532 000a 6B6A     		ldr	r3, [r5, #36]
 133:Middlewares/lvgl/src/core/lv_disp.c ****         lv_obj_get_child_cnt(disp->screens[0]) == 0 &&
 533              		.loc 1 133 7 view .LVU125
 534 000c 032B     		cmp	r3, #3
 535 000e 04D0     		beq	.L45
 536              	.LVL54:
 537              	.L40:
 140:Middlewares/lvgl/src/core/lv_disp.c **** /**
 538              		.loc 1 140 1 view .LVU126
 539 0010 38BD     		pop	{r3, r4, r5, pc}
 540              	.LVL55:
 541              	.L44:
 130:Middlewares/lvgl/src/core/lv_disp.c ****     disp->theme = th;
 542              		.loc 1 130 19 is_stmt 1 discriminator 1 view .LVU127
 130:Middlewares/lvgl/src/core/lv_disp.c ****     disp->theme = th;
 543              		.loc 1 130 26 is_stmt 0 discriminator 1 view .LVU128
 544 0012 FFF7FEFF 		bl	lv_disp_get_default
 545              	.LVL56:
 130:Middlewares/lvgl/src/core/lv_disp.c ****     disp->theme = th;
 546              		.loc 1 130 26 discriminator 1 view .LVU129
 547 0016 0546     		mov	r5, r0
 548              	.LVL57:
 130:Middlewares/lvgl/src/core/lv_disp.c ****     disp->theme = th;
 549              		.loc 1 130 26 discriminator 1 view .LVU130
 550 0018 F6E7     		b	.L41
 551              	.L45:
 134:Middlewares/lvgl/src/core/lv_disp.c ****         lv_obj_get_child_cnt(disp->screens[1]) == 0 &&
 552              		.loc 1 134 34 discriminator 1 view .LVU131
 553 001a EB68     		ldr	r3, [r5, #12]
 134:Middlewares/lvgl/src/core/lv_disp.c ****         lv_obj_get_child_cnt(disp->screens[1]) == 0 &&
 554              		.loc 1 134 9 discriminator 1 view .LVU132
 555 001c 1868     		ldr	r0, [r3]
 556              	.LVL58:
 134:Middlewares/lvgl/src/core/lv_disp.c ****         lv_obj_get_child_cnt(disp->screens[1]) == 0 &&
 557              		.loc 1 134 9 discriminator 1 view .LVU133
 558 001e FFF7FEFF 		bl	lv_obj_get_child_cnt
 559              	.LVL59:
 133:Middlewares/lvgl/src/core/lv_disp.c ****         lv_obj_get_child_cnt(disp->screens[0]) == 0 &&
 560              		.loc 1 133 30 discriminator 1 view .LVU134
ARM GAS  /tmp/ccMI0ryM.s 			page 23


 561 0022 0028     		cmp	r0, #0
 562 0024 F4D1     		bne	.L40
 135:Middlewares/lvgl/src/core/lv_disp.c ****         lv_obj_get_child_cnt(disp->screens[2]) == 0)
 563              		.loc 1 135 34 view .LVU135
 564 0026 EB68     		ldr	r3, [r5, #12]
 135:Middlewares/lvgl/src/core/lv_disp.c ****         lv_obj_get_child_cnt(disp->screens[2]) == 0)
 565              		.loc 1 135 9 view .LVU136
 566 0028 5868     		ldr	r0, [r3, #4]
 567 002a FFF7FEFF 		bl	lv_obj_get_child_cnt
 568              	.LVL60:
 134:Middlewares/lvgl/src/core/lv_disp.c ****         lv_obj_get_child_cnt(disp->screens[1]) == 0 &&
 569              		.loc 1 134 53 view .LVU137
 570 002e 0028     		cmp	r0, #0
 571 0030 EED1     		bne	.L40
 136:Middlewares/lvgl/src/core/lv_disp.c ****     {
 572              		.loc 1 136 34 view .LVU138
 573 0032 EB68     		ldr	r3, [r5, #12]
 136:Middlewares/lvgl/src/core/lv_disp.c ****     {
 574              		.loc 1 136 9 view .LVU139
 575 0034 9868     		ldr	r0, [r3, #8]
 576 0036 FFF7FEFF 		bl	lv_obj_get_child_cnt
 577              	.LVL61:
 135:Middlewares/lvgl/src/core/lv_disp.c ****         lv_obj_get_child_cnt(disp->screens[2]) == 0)
 578              		.loc 1 135 53 view .LVU140
 579 003a 0028     		cmp	r0, #0
 580 003c E8D1     		bne	.L40
 138:Middlewares/lvgl/src/core/lv_disp.c ****     }
 581              		.loc 1 138 9 is_stmt 1 view .LVU141
 138:Middlewares/lvgl/src/core/lv_disp.c ****     }
 582              		.loc 1 138 28 is_stmt 0 view .LVU142
 583 003e EB68     		ldr	r3, [r5, #12]
 138:Middlewares/lvgl/src/core/lv_disp.c ****     }
 584              		.loc 1 138 9 view .LVU143
 585 0040 1868     		ldr	r0, [r3]
 586 0042 FFF7FEFF 		bl	lv_theme_apply
 587              	.LVL62:
 140:Middlewares/lvgl/src/core/lv_disp.c **** /**
 588              		.loc 1 140 1 view .LVU144
 589 0046 E3E7     		b	.L40
 590              		.cfi_endproc
 591              	.LFE158:
 593              		.section	.text.lv_disp_get_theme,"ax",%progbits
 594              		.align	1
 595              		.global	lv_disp_get_theme
 596              		.syntax unified
 597              		.thumb
 598              		.thumb_func
 600              	lv_disp_get_theme:
 601              	.LVL63:
 602              	.LFB159:
 147:Middlewares/lvgl/src/core/lv_disp.c **** 	if(disp == NULL) disp = lv_disp_get_default();
 603              		.loc 1 147 1 is_stmt 1 view -0
 604              		.cfi_startproc
 605              		@ args = 0, pretend = 0, frame = 0
 606              		@ frame_needed = 0, uses_anonymous_args = 0
 147:Middlewares/lvgl/src/core/lv_disp.c **** 	if(disp == NULL) disp = lv_disp_get_default();
 607              		.loc 1 147 1 is_stmt 0 view .LVU146
ARM GAS  /tmp/ccMI0ryM.s 			page 24


 608 0000 08B5     		push	{r3, lr}
 609              	.LCFI11:
 610              		.cfi_def_cfa_offset 8
 611              		.cfi_offset 3, -8
 612              		.cfi_offset 14, -4
 148:Middlewares/lvgl/src/core/lv_disp.c ****     return disp->theme;
 613              		.loc 1 148 2 is_stmt 1 view .LVU147
 148:Middlewares/lvgl/src/core/lv_disp.c ****     return disp->theme;
 614              		.loc 1 148 4 is_stmt 0 view .LVU148
 615 0002 0346     		mov	r3, r0
 616 0004 08B1     		cbz	r0, .L49
 617              	.L47:
 149:Middlewares/lvgl/src/core/lv_disp.c **** }
 618              		.loc 1 149 5 is_stmt 1 view .LVU149
 150:Middlewares/lvgl/src/core/lv_disp.c **** 
 619              		.loc 1 150 1 is_stmt 0 view .LVU150
 620 0006 9868     		ldr	r0, [r3, #8]
 621              	.LVL64:
 150:Middlewares/lvgl/src/core/lv_disp.c **** 
 622              		.loc 1 150 1 view .LVU151
 623 0008 08BD     		pop	{r3, pc}
 624              	.LVL65:
 625              	.L49:
 148:Middlewares/lvgl/src/core/lv_disp.c ****     return disp->theme;
 626              		.loc 1 148 19 is_stmt 1 discriminator 1 view .LVU152
 148:Middlewares/lvgl/src/core/lv_disp.c ****     return disp->theme;
 627              		.loc 1 148 26 is_stmt 0 discriminator 1 view .LVU153
 628 000a FFF7FEFF 		bl	lv_disp_get_default
 629              	.LVL66:
 148:Middlewares/lvgl/src/core/lv_disp.c ****     return disp->theme;
 630              		.loc 1 148 26 discriminator 1 view .LVU154
 631 000e 0346     		mov	r3, r0
 632              	.LVL67:
 148:Middlewares/lvgl/src/core/lv_disp.c ****     return disp->theme;
 633              		.loc 1 148 26 discriminator 1 view .LVU155
 634 0010 F9E7     		b	.L47
 635              		.cfi_endproc
 636              	.LFE159:
 638              		.section	.text.lv_disp_set_bg_color,"ax",%progbits
 639              		.align	1
 640              		.global	lv_disp_set_bg_color
 641              		.syntax unified
 642              		.thumb
 643              		.thumb_func
 645              	lv_disp_set_bg_color:
 646              	.LVL68:
 647              	.LFB160:
 158:Middlewares/lvgl/src/core/lv_disp.c ****     if(!disp) disp = lv_disp_get_default();
 648              		.loc 1 158 1 is_stmt 1 view -0
 649              		.cfi_startproc
 650              		@ args = 0, pretend = 0, frame = 8
 651              		@ frame_needed = 0, uses_anonymous_args = 0
 158:Middlewares/lvgl/src/core/lv_disp.c ****     if(!disp) disp = lv_disp_get_default();
 652              		.loc 1 158 1 is_stmt 0 view .LVU157
 653 0000 30B5     		push	{r4, r5, lr}
 654              	.LCFI12:
 655              		.cfi_def_cfa_offset 12
ARM GAS  /tmp/ccMI0ryM.s 			page 25


 656              		.cfi_offset 4, -12
 657              		.cfi_offset 5, -8
 658              		.cfi_offset 14, -4
 659 0002 85B0     		sub	sp, sp, #20
 660              	.LCFI13:
 661              		.cfi_def_cfa_offset 32
 662 0004 0C46     		mov	r4, r1	@ movhi
 663              	.LVL69:
 159:Middlewares/lvgl/src/core/lv_disp.c ****     if(!disp) {
 664              		.loc 1 159 5 is_stmt 1 view .LVU158
 159:Middlewares/lvgl/src/core/lv_disp.c ****     if(!disp) {
 665              		.loc 1 159 7 is_stmt 0 view .LVU159
 666 0006 0546     		mov	r5, r0
 667 0008 D0B1     		cbz	r0, .L55
 668              	.L51:
 160:Middlewares/lvgl/src/core/lv_disp.c ****         LV_LOG_WARN("no display registered");
 669              		.loc 1 160 5 is_stmt 1 view .LVU160
 160:Middlewares/lvgl/src/core/lv_disp.c ****         LV_LOG_WARN("no display registered");
 670              		.loc 1 160 7 is_stmt 0 view .LVU161
 671 000a BDB1     		cbz	r5, .L50
 165:Middlewares/lvgl/src/core/lv_disp.c **** 
 672              		.loc 1 165 5 is_stmt 1 view .LVU162
 673              	.LVL70:
 165:Middlewares/lvgl/src/core/lv_disp.c **** 
 674              		.loc 1 165 20 is_stmt 0 view .LVU163
 675 000c 6C85     		strh	r4, [r5, #42]	@ movhi
 167:Middlewares/lvgl/src/core/lv_disp.c ****     lv_area_set(&a, 0, 0, lv_disp_get_hor_res(disp) - 1, lv_disp_get_ver_res(disp) - 1);
 676              		.loc 1 167 5 is_stmt 1 view .LVU164
 168:Middlewares/lvgl/src/core/lv_disp.c ****     _lv_inv_area(disp, &a);
 677              		.loc 1 168 5 view .LVU165
 168:Middlewares/lvgl/src/core/lv_disp.c ****     _lv_inv_area(disp, &a);
 678              		.loc 1 168 27 is_stmt 0 view .LVU166
 679 000e 2846     		mov	r0, r5
 168:Middlewares/lvgl/src/core/lv_disp.c ****     _lv_inv_area(disp, &a);
 680              		.loc 1 168 27 view .LVU167
 681 0010 FFF7FEFF 		bl	lv_disp_get_hor_res
 682              	.LVL71:
 168:Middlewares/lvgl/src/core/lv_disp.c ****     _lv_inv_area(disp, &a);
 683              		.loc 1 168 27 view .LVU168
 684 0014 84B2     		uxth	r4, r0
 685              	.LVL72:
 168:Middlewares/lvgl/src/core/lv_disp.c ****     _lv_inv_area(disp, &a);
 686              		.loc 1 168 53 view .LVU169
 687 0016 013C     		subs	r4, r4, #1
 688 0018 A4B2     		uxth	r4, r4
 168:Middlewares/lvgl/src/core/lv_disp.c ****     _lv_inv_area(disp, &a);
 689              		.loc 1 168 58 view .LVU170
 690 001a 2846     		mov	r0, r5
 691 001c FFF7FEFF 		bl	lv_disp_get_ver_res
 692              	.LVL73:
 693 0020 83B2     		uxth	r3, r0
 168:Middlewares/lvgl/src/core/lv_disp.c ****     _lv_inv_area(disp, &a);
 694              		.loc 1 168 84 view .LVU171
 695 0022 013B     		subs	r3, r3, #1
 168:Middlewares/lvgl/src/core/lv_disp.c ****     _lv_inv_area(disp, &a);
 696              		.loc 1 168 5 view .LVU172
 697 0024 1BB2     		sxth	r3, r3
ARM GAS  /tmp/ccMI0ryM.s 			page 26


 698 0026 0093     		str	r3, [sp]
 699 0028 23B2     		sxth	r3, r4
 700 002a 0022     		movs	r2, #0
 701 002c 1146     		mov	r1, r2
 702 002e 02A8     		add	r0, sp, #8
 703 0030 FFF7FEFF 		bl	lv_area_set
 704              	.LVL74:
 169:Middlewares/lvgl/src/core/lv_disp.c **** 
 705              		.loc 1 169 5 is_stmt 1 view .LVU173
 706 0034 02A9     		add	r1, sp, #8
 707 0036 2846     		mov	r0, r5
 708 0038 FFF7FEFF 		bl	_lv_inv_area
 709              	.LVL75:
 710              	.L50:
 171:Middlewares/lvgl/src/core/lv_disp.c **** 
 711              		.loc 1 171 1 is_stmt 0 view .LVU174
 712 003c 05B0     		add	sp, sp, #20
 713              	.LCFI14:
 714              		.cfi_remember_state
 715              		.cfi_def_cfa_offset 12
 716              		@ sp needed
 717 003e 30BD     		pop	{r4, r5, pc}
 718              	.LVL76:
 719              	.L55:
 720              	.LCFI15:
 721              		.cfi_restore_state
 159:Middlewares/lvgl/src/core/lv_disp.c ****     if(!disp) {
 722              		.loc 1 159 15 is_stmt 1 discriminator 1 view .LVU175
 159:Middlewares/lvgl/src/core/lv_disp.c ****     if(!disp) {
 723              		.loc 1 159 22 is_stmt 0 discriminator 1 view .LVU176
 724 0040 FFF7FEFF 		bl	lv_disp_get_default
 725              	.LVL77:
 159:Middlewares/lvgl/src/core/lv_disp.c ****     if(!disp) {
 726              		.loc 1 159 22 discriminator 1 view .LVU177
 727 0044 0546     		mov	r5, r0
 728              	.LVL78:
 159:Middlewares/lvgl/src/core/lv_disp.c ****     if(!disp) {
 729              		.loc 1 159 22 discriminator 1 view .LVU178
 730 0046 E0E7     		b	.L51
 731              		.cfi_endproc
 732              	.LFE160:
 734              		.section	.text.lv_disp_set_bg_image,"ax",%progbits
 735              		.align	1
 736              		.global	lv_disp_set_bg_image
 737              		.syntax unified
 738              		.thumb
 739              		.thumb_func
 741              	lv_disp_set_bg_image:
 742              	.LVL79:
 743              	.LFB161:
 179:Middlewares/lvgl/src/core/lv_disp.c ****     if(!disp) disp = lv_disp_get_default();
 744              		.loc 1 179 1 is_stmt 1 view -0
 745              		.cfi_startproc
 746              		@ args = 0, pretend = 0, frame = 8
 747              		@ frame_needed = 0, uses_anonymous_args = 0
 179:Middlewares/lvgl/src/core/lv_disp.c ****     if(!disp) disp = lv_disp_get_default();
 748              		.loc 1 179 1 is_stmt 0 view .LVU180
ARM GAS  /tmp/ccMI0ryM.s 			page 27


 749 0000 30B5     		push	{r4, r5, lr}
 750              	.LCFI16:
 751              		.cfi_def_cfa_offset 12
 752              		.cfi_offset 4, -12
 753              		.cfi_offset 5, -8
 754              		.cfi_offset 14, -4
 755 0002 85B0     		sub	sp, sp, #20
 756              	.LCFI17:
 757              		.cfi_def_cfa_offset 32
 758 0004 0C46     		mov	r4, r1
 180:Middlewares/lvgl/src/core/lv_disp.c ****     if(!disp) {
 759              		.loc 1 180 5 is_stmt 1 view .LVU181
 180:Middlewares/lvgl/src/core/lv_disp.c ****     if(!disp) {
 760              		.loc 1 180 7 is_stmt 0 view .LVU182
 761 0006 0546     		mov	r5, r0
 762 0008 D0B1     		cbz	r0, .L61
 763              	.LVL80:
 764              	.L57:
 181:Middlewares/lvgl/src/core/lv_disp.c ****         LV_LOG_WARN("no display registered");
 765              		.loc 1 181 5 is_stmt 1 view .LVU183
 181:Middlewares/lvgl/src/core/lv_disp.c ****         LV_LOG_WARN("no display registered");
 766              		.loc 1 181 7 is_stmt 0 view .LVU184
 767 000a BDB1     		cbz	r5, .L56
 186:Middlewares/lvgl/src/core/lv_disp.c **** 
 768              		.loc 1 186 5 is_stmt 1 view .LVU185
 186:Middlewares/lvgl/src/core/lv_disp.c **** 
 769              		.loc 1 186 18 is_stmt 0 view .LVU186
 770 000c EC62     		str	r4, [r5, #44]
 188:Middlewares/lvgl/src/core/lv_disp.c ****     lv_area_set(&a, 0, 0, lv_disp_get_hor_res(disp) - 1, lv_disp_get_ver_res(disp) - 1);
 771              		.loc 1 188 5 is_stmt 1 view .LVU187
 189:Middlewares/lvgl/src/core/lv_disp.c ****     _lv_inv_area(disp, &a);
 772              		.loc 1 189 5 view .LVU188
 189:Middlewares/lvgl/src/core/lv_disp.c ****     _lv_inv_area(disp, &a);
 773              		.loc 1 189 27 is_stmt 0 view .LVU189
 774 000e 2846     		mov	r0, r5
 189:Middlewares/lvgl/src/core/lv_disp.c ****     _lv_inv_area(disp, &a);
 775              		.loc 1 189 27 view .LVU190
 776 0010 FFF7FEFF 		bl	lv_disp_get_hor_res
 777              	.LVL81:
 189:Middlewares/lvgl/src/core/lv_disp.c ****     _lv_inv_area(disp, &a);
 778              		.loc 1 189 27 view .LVU191
 779 0014 84B2     		uxth	r4, r0
 780              	.LVL82:
 189:Middlewares/lvgl/src/core/lv_disp.c ****     _lv_inv_area(disp, &a);
 781              		.loc 1 189 53 view .LVU192
 782 0016 013C     		subs	r4, r4, #1
 783 0018 A4B2     		uxth	r4, r4
 189:Middlewares/lvgl/src/core/lv_disp.c ****     _lv_inv_area(disp, &a);
 784              		.loc 1 189 58 view .LVU193
 785 001a 2846     		mov	r0, r5
 786 001c FFF7FEFF 		bl	lv_disp_get_ver_res
 787              	.LVL83:
 788 0020 83B2     		uxth	r3, r0
 189:Middlewares/lvgl/src/core/lv_disp.c ****     _lv_inv_area(disp, &a);
 789              		.loc 1 189 84 view .LVU194
 790 0022 013B     		subs	r3, r3, #1
 189:Middlewares/lvgl/src/core/lv_disp.c ****     _lv_inv_area(disp, &a);
ARM GAS  /tmp/ccMI0ryM.s 			page 28


 791              		.loc 1 189 5 view .LVU195
 792 0024 1BB2     		sxth	r3, r3
 793 0026 0093     		str	r3, [sp]
 794 0028 23B2     		sxth	r3, r4
 795 002a 0022     		movs	r2, #0
 796 002c 1146     		mov	r1, r2
 797 002e 02A8     		add	r0, sp, #8
 798 0030 FFF7FEFF 		bl	lv_area_set
 799              	.LVL84:
 190:Middlewares/lvgl/src/core/lv_disp.c **** }
 800              		.loc 1 190 5 is_stmt 1 view .LVU196
 801 0034 02A9     		add	r1, sp, #8
 802 0036 2846     		mov	r0, r5
 803 0038 FFF7FEFF 		bl	_lv_inv_area
 804              	.LVL85:
 805              	.L56:
 191:Middlewares/lvgl/src/core/lv_disp.c **** 
 806              		.loc 1 191 1 is_stmt 0 view .LVU197
 807 003c 05B0     		add	sp, sp, #20
 808              	.LCFI18:
 809              		.cfi_remember_state
 810              		.cfi_def_cfa_offset 12
 811              		@ sp needed
 812 003e 30BD     		pop	{r4, r5, pc}
 813              	.LVL86:
 814              	.L61:
 815              	.LCFI19:
 816              		.cfi_restore_state
 180:Middlewares/lvgl/src/core/lv_disp.c ****     if(!disp) {
 817              		.loc 1 180 15 is_stmt 1 discriminator 1 view .LVU198
 180:Middlewares/lvgl/src/core/lv_disp.c ****     if(!disp) {
 818              		.loc 1 180 22 is_stmt 0 discriminator 1 view .LVU199
 819 0040 FFF7FEFF 		bl	lv_disp_get_default
 820              	.LVL87:
 180:Middlewares/lvgl/src/core/lv_disp.c ****     if(!disp) {
 821              		.loc 1 180 22 discriminator 1 view .LVU200
 822 0044 0546     		mov	r5, r0
 823              	.LVL88:
 180:Middlewares/lvgl/src/core/lv_disp.c ****     if(!disp) {
 824              		.loc 1 180 22 discriminator 1 view .LVU201
 825 0046 E0E7     		b	.L57
 826              		.cfi_endproc
 827              	.LFE161:
 829              		.section	.text.lv_disp_set_bg_opa,"ax",%progbits
 830              		.align	1
 831              		.global	lv_disp_set_bg_opa
 832              		.syntax unified
 833              		.thumb
 834              		.thumb_func
 836              	lv_disp_set_bg_opa:
 837              	.LVL89:
 838              	.LFB162:
 199:Middlewares/lvgl/src/core/lv_disp.c ****     if(!disp) disp = lv_disp_get_default();
 839              		.loc 1 199 1 is_stmt 1 view -0
 840              		.cfi_startproc
 841              		@ args = 0, pretend = 0, frame = 8
 842              		@ frame_needed = 0, uses_anonymous_args = 0
ARM GAS  /tmp/ccMI0ryM.s 			page 29


 199:Middlewares/lvgl/src/core/lv_disp.c ****     if(!disp) disp = lv_disp_get_default();
 843              		.loc 1 199 1 is_stmt 0 view .LVU203
 844 0000 30B5     		push	{r4, r5, lr}
 845              	.LCFI20:
 846              		.cfi_def_cfa_offset 12
 847              		.cfi_offset 4, -12
 848              		.cfi_offset 5, -8
 849              		.cfi_offset 14, -4
 850 0002 85B0     		sub	sp, sp, #20
 851              	.LCFI21:
 852              		.cfi_def_cfa_offset 32
 853 0004 0C46     		mov	r4, r1
 200:Middlewares/lvgl/src/core/lv_disp.c ****     if(!disp) {
 854              		.loc 1 200 5 is_stmt 1 view .LVU204
 200:Middlewares/lvgl/src/core/lv_disp.c ****     if(!disp) {
 855              		.loc 1 200 7 is_stmt 0 view .LVU205
 856 0006 0546     		mov	r5, r0
 857 0008 D8B1     		cbz	r0, .L67
 858              	.LVL90:
 859              	.L63:
 201:Middlewares/lvgl/src/core/lv_disp.c ****         LV_LOG_WARN("no display registered");
 860              		.loc 1 201 5 is_stmt 1 view .LVU206
 201:Middlewares/lvgl/src/core/lv_disp.c ****         LV_LOG_WARN("no display registered");
 861              		.loc 1 201 7 is_stmt 0 view .LVU207
 862 000a C5B1     		cbz	r5, .L62
 206:Middlewares/lvgl/src/core/lv_disp.c **** 
 863              		.loc 1 206 5 is_stmt 1 view .LVU208
 206:Middlewares/lvgl/src/core/lv_disp.c **** 
 864              		.loc 1 206 18 is_stmt 0 view .LVU209
 865 000c 85F82940 		strb	r4, [r5, #41]
 208:Middlewares/lvgl/src/core/lv_disp.c ****     lv_area_set(&a, 0, 0, lv_disp_get_hor_res(disp) - 1, lv_disp_get_ver_res(disp) - 1);
 866              		.loc 1 208 5 is_stmt 1 view .LVU210
 209:Middlewares/lvgl/src/core/lv_disp.c ****     _lv_inv_area(disp, &a);
 867              		.loc 1 209 5 view .LVU211
 209:Middlewares/lvgl/src/core/lv_disp.c ****     _lv_inv_area(disp, &a);
 868              		.loc 1 209 27 is_stmt 0 view .LVU212
 869 0010 2846     		mov	r0, r5
 209:Middlewares/lvgl/src/core/lv_disp.c ****     _lv_inv_area(disp, &a);
 870              		.loc 1 209 27 view .LVU213
 871 0012 FFF7FEFF 		bl	lv_disp_get_hor_res
 872              	.LVL91:
 209:Middlewares/lvgl/src/core/lv_disp.c ****     _lv_inv_area(disp, &a);
 873              		.loc 1 209 27 view .LVU214
 874 0016 84B2     		uxth	r4, r0
 209:Middlewares/lvgl/src/core/lv_disp.c ****     _lv_inv_area(disp, &a);
 875              		.loc 1 209 53 view .LVU215
 876 0018 013C     		subs	r4, r4, #1
 877 001a A4B2     		uxth	r4, r4
 209:Middlewares/lvgl/src/core/lv_disp.c ****     _lv_inv_area(disp, &a);
 878              		.loc 1 209 58 view .LVU216
 879 001c 2846     		mov	r0, r5
 880 001e FFF7FEFF 		bl	lv_disp_get_ver_res
 881              	.LVL92:
 882 0022 83B2     		uxth	r3, r0
 209:Middlewares/lvgl/src/core/lv_disp.c ****     _lv_inv_area(disp, &a);
 883              		.loc 1 209 84 view .LVU217
 884 0024 013B     		subs	r3, r3, #1
ARM GAS  /tmp/ccMI0ryM.s 			page 30


 209:Middlewares/lvgl/src/core/lv_disp.c ****     _lv_inv_area(disp, &a);
 885              		.loc 1 209 5 view .LVU218
 886 0026 1BB2     		sxth	r3, r3
 887 0028 0093     		str	r3, [sp]
 888 002a 23B2     		sxth	r3, r4
 889 002c 0022     		movs	r2, #0
 890 002e 1146     		mov	r1, r2
 891 0030 02A8     		add	r0, sp, #8
 892 0032 FFF7FEFF 		bl	lv_area_set
 893              	.LVL93:
 210:Middlewares/lvgl/src/core/lv_disp.c **** }
 894              		.loc 1 210 5 is_stmt 1 view .LVU219
 895 0036 02A9     		add	r1, sp, #8
 896 0038 2846     		mov	r0, r5
 897 003a FFF7FEFF 		bl	_lv_inv_area
 898              	.LVL94:
 899              	.L62:
 211:Middlewares/lvgl/src/core/lv_disp.c **** 
 900              		.loc 1 211 1 is_stmt 0 view .LVU220
 901 003e 05B0     		add	sp, sp, #20
 902              	.LCFI22:
 903              		.cfi_remember_state
 904              		.cfi_def_cfa_offset 12
 905              		@ sp needed
 906 0040 30BD     		pop	{r4, r5, pc}
 907              	.LVL95:
 908              	.L67:
 909              	.LCFI23:
 910              		.cfi_restore_state
 200:Middlewares/lvgl/src/core/lv_disp.c ****     if(!disp) {
 911              		.loc 1 200 15 is_stmt 1 discriminator 1 view .LVU221
 200:Middlewares/lvgl/src/core/lv_disp.c ****     if(!disp) {
 912              		.loc 1 200 22 is_stmt 0 discriminator 1 view .LVU222
 913 0042 FFF7FEFF 		bl	lv_disp_get_default
 914              	.LVL96:
 200:Middlewares/lvgl/src/core/lv_disp.c ****     if(!disp) {
 915              		.loc 1 200 22 discriminator 1 view .LVU223
 916 0046 0546     		mov	r5, r0
 917              	.LVL97:
 200:Middlewares/lvgl/src/core/lv_disp.c ****     if(!disp) {
 918              		.loc 1 200 22 discriminator 1 view .LVU224
 919 0048 DFE7     		b	.L63
 920              		.cfi_endproc
 921              	.LFE162:
 923              		.section	.text.lv_scr_load_anim,"ax",%progbits
 924              		.align	1
 925              		.global	lv_scr_load_anim
 926              		.syntax unified
 927              		.thumb
 928              		.thumb_func
 930              	lv_scr_load_anim:
 931              	.LVL98:
 932              	.LFB163:
 222:Middlewares/lvgl/src/core/lv_disp.c ****     lv_disp_t * d = lv_obj_get_disp(new_scr);
 933              		.loc 1 222 1 is_stmt 1 view -0
 934              		.cfi_startproc
 935              		@ args = 4, pretend = 0, frame = 136
ARM GAS  /tmp/ccMI0ryM.s 			page 31


 936              		@ frame_needed = 0, uses_anonymous_args = 0
 222:Middlewares/lvgl/src/core/lv_disp.c ****     lv_disp_t * d = lv_obj_get_disp(new_scr);
 937              		.loc 1 222 1 is_stmt 0 view .LVU226
 938 0000 2DE9F041 		push	{r4, r5, r6, r7, r8, lr}
 939              	.LCFI24:
 940              		.cfi_def_cfa_offset 24
 941              		.cfi_offset 4, -24
 942              		.cfi_offset 5, -20
 943              		.cfi_offset 6, -16
 944              		.cfi_offset 7, -12
 945              		.cfi_offset 8, -8
 946              		.cfi_offset 14, -4
 947 0004 A2B0     		sub	sp, sp, #136
 948              	.LCFI25:
 949              		.cfi_def_cfa_offset 160
 950 0006 0546     		mov	r5, r0
 951 0008 0F46     		mov	r7, r1
 952 000a 9046     		mov	r8, r2
 953 000c 1E46     		mov	r6, r3
 223:Middlewares/lvgl/src/core/lv_disp.c ****     lv_obj_t * act_scr = lv_scr_act();
 954              		.loc 1 223 5 is_stmt 1 view .LVU227
 223:Middlewares/lvgl/src/core/lv_disp.c ****     lv_obj_t * act_scr = lv_scr_act();
 955              		.loc 1 223 21 is_stmt 0 view .LVU228
 956 000e FFF7FEFF 		bl	lv_obj_get_disp
 957              	.LVL99:
 223:Middlewares/lvgl/src/core/lv_disp.c ****     lv_obj_t * act_scr = lv_scr_act();
 958              		.loc 1 223 21 view .LVU229
 959 0012 0446     		mov	r4, r0
 960              	.LVL100:
 224:Middlewares/lvgl/src/core/lv_disp.c **** 
 961              		.loc 1 224 5 is_stmt 1 view .LVU230
 962              	.LBB158:
 963              	.LBI158:
 163:Middlewares/lvgl/src/core/lv_disp.h **** {
 964              		.loc 2 163 26 view .LVU231
 965              	.LBB159:
 966              		.loc 2 165 5 view .LVU232
 967              		.loc 2 165 12 is_stmt 0 view .LVU233
 968 0014 FFF7FEFF 		bl	lv_disp_get_default
 969              	.LVL101:
 970              		.loc 2 165 12 view .LVU234
 971 0018 FFF7FEFF 		bl	lv_disp_get_scr_act
 972              	.LVL102:
 973              		.loc 2 165 12 view .LVU235
 974              	.LBE159:
 975              	.LBE158:
 226:Middlewares/lvgl/src/core/lv_disp.c ****         lv_obj_del(act_scr);
 976              		.loc 1 226 5 is_stmt 1 view .LVU236
 226:Middlewares/lvgl/src/core/lv_disp.c ****         lv_obj_del(act_scr);
 977              		.loc 1 226 8 is_stmt 0 view .LVU237
 978 001c 94F82830 		ldrb	r3, [r4, #40]	@ zero_extendqisi2
 226:Middlewares/lvgl/src/core/lv_disp.c ****         lv_obj_del(act_scr);
 979              		.loc 1 226 7 view .LVU238
 980 0020 13F0010F 		tst	r3, #1
 981 0024 17D0     		beq	.L69
 226:Middlewares/lvgl/src/core/lv_disp.c ****         lv_obj_del(act_scr);
 982              		.loc 1 226 35 discriminator 1 view .LVU239
ARM GAS  /tmp/ccMI0ryM.s 			page 32


 983 0026 A369     		ldr	r3, [r4, #24]
 226:Middlewares/lvgl/src/core/lv_disp.c ****         lv_obj_del(act_scr);
 984              		.loc 1 226 20 discriminator 1 view .LVU240
 985 0028 8342     		cmp	r3, r0
 986 002a 14D0     		beq	.L69
 226:Middlewares/lvgl/src/core/lv_disp.c ****         lv_obj_del(act_scr);
 987              		.loc 1 226 49 discriminator 2 view .LVU241
 988 002c 9BB1     		cbz	r3, .L69
 227:Middlewares/lvgl/src/core/lv_disp.c ****         lv_disp_load_scr(d->scr_to_load);
 989              		.loc 1 227 9 is_stmt 1 view .LVU242
 990 002e FFF7FEFF 		bl	lv_obj_del
 991              	.LVL103:
 228:Middlewares/lvgl/src/core/lv_disp.c ****         lv_anim_del(d->scr_to_load, NULL);
 992              		.loc 1 228 9 view .LVU243
 993 0032 A069     		ldr	r0, [r4, #24]
 994 0034 FFF7FEFF 		bl	lv_disp_load_scr
 995              	.LVL104:
 229:Middlewares/lvgl/src/core/lv_disp.c ****         lv_obj_set_pos(d->scr_to_load, 0, 0);
 996              		.loc 1 229 9 view .LVU244
 997 0038 0021     		movs	r1, #0
 998 003a A069     		ldr	r0, [r4, #24]
 999 003c FFF7FEFF 		bl	lv_anim_del
 1000              	.LVL105:
 230:Middlewares/lvgl/src/core/lv_disp.c ****         lv_obj_remove_local_style_prop(d->scr_to_load, LV_STYLE_OPA, 0);
 1001              		.loc 1 230 9 view .LVU245
 1002 0040 0022     		movs	r2, #0
 1003 0042 1146     		mov	r1, r2
 1004 0044 A069     		ldr	r0, [r4, #24]
 1005 0046 FFF7FEFF 		bl	lv_obj_set_pos
 1006              	.LVL106:
 231:Middlewares/lvgl/src/core/lv_disp.c **** 
 1007              		.loc 1 231 9 view .LVU246
 1008 004a 0022     		movs	r2, #0
 1009 004c 40F26241 		movw	r1, #1122
 1010 0050 A069     		ldr	r0, [r4, #24]
 1011 0052 FFF7FEFF 		bl	lv_obj_remove_local_style_prop
 1012              	.LVL107:
 233:Middlewares/lvgl/src/core/lv_disp.c ****     }
 1013              		.loc 1 233 9 view .LVU247
 1014              	.L69:
 236:Middlewares/lvgl/src/core/lv_disp.c **** 
 1015              		.loc 1 236 5 view .LVU248
 236:Middlewares/lvgl/src/core/lv_disp.c **** 
 1016              		.loc 1 236 20 is_stmt 0 view .LVU249
 1017 0056 A561     		str	r5, [r4, #24]
 238:Middlewares/lvgl/src/core/lv_disp.c ****         lv_obj_del(d->prev_scr);
 1018              		.loc 1 238 5 is_stmt 1 view .LVU250
 238:Middlewares/lvgl/src/core/lv_disp.c ****         lv_obj_del(d->prev_scr);
 1019              		.loc 1 238 9 is_stmt 0 view .LVU251
 1020 0058 6069     		ldr	r0, [r4, #20]
 238:Middlewares/lvgl/src/core/lv_disp.c ****         lv_obj_del(d->prev_scr);
 1021              		.loc 1 238 7 view .LVU252
 1022 005a 20B1     		cbz	r0, .L70
 238:Middlewares/lvgl/src/core/lv_disp.c ****         lv_obj_del(d->prev_scr);
 1023              		.loc 1 238 20 discriminator 1 view .LVU253
 1024 005c 94F82830 		ldrb	r3, [r4, #40]	@ zero_extendqisi2
 1025 0060 13F0010F 		tst	r3, #1
ARM GAS  /tmp/ccMI0ryM.s 			page 33


 1026 0064 4BD1     		bne	.L84
 1027              	.L70:
 243:Middlewares/lvgl/src/core/lv_disp.c **** 
 1028              		.loc 1 243 5 is_stmt 1 view .LVU254
 243:Middlewares/lvgl/src/core/lv_disp.c **** 
 1029              		.loc 1 243 17 is_stmt 0 view .LVU255
 1030 0066 94F82830 		ldrb	r3, [r4, #40]	@ zero_extendqisi2
 1031 006a 9DF8A020 		ldrb	r2, [sp, #160]	@ zero_extendqisi2
 1032 006e 62F30003 		bfi	r3, r2, #0, #1
 1033 0072 84F82830 		strb	r3, [r4, #40]
 246:Middlewares/lvgl/src/core/lv_disp.c ****     lv_anim_del(lv_scr_act(), NULL);
 1034              		.loc 1 246 5 is_stmt 1 view .LVU256
 1035 0076 0021     		movs	r1, #0
 1036 0078 2846     		mov	r0, r5
 1037 007a FFF7FEFF 		bl	lv_anim_del
 1038              	.LVL108:
 247:Middlewares/lvgl/src/core/lv_disp.c **** 
 1039              		.loc 1 247 5 view .LVU257
 1040              	.LBB160:
 1041              	.LBI160:
 163:Middlewares/lvgl/src/core/lv_disp.h **** {
 1042              		.loc 2 163 26 view .LVU258
 1043              	.LBB161:
 1044              		.loc 2 165 5 view .LVU259
 1045              		.loc 2 165 12 is_stmt 0 view .LVU260
 1046 007e FFF7FEFF 		bl	lv_disp_get_default
 1047              	.LVL109:
 1048 0082 FFF7FEFF 		bl	lv_disp_get_scr_act
 1049              	.LVL110:
 1050              	.LBE161:
 1051              	.LBE160:
 247:Middlewares/lvgl/src/core/lv_disp.c **** 
 1052              		.loc 1 247 5 view .LVU261
 1053 0086 0021     		movs	r1, #0
 1054 0088 FFF7FEFF 		bl	lv_anim_del
 1055              	.LVL111:
 250:Middlewares/lvgl/src/core/lv_disp.c ****     lv_obj_set_pos(lv_scr_act(), 0, 0);
 1056              		.loc 1 250 5 is_stmt 1 view .LVU262
 1057 008c 0022     		movs	r2, #0
 1058 008e 1146     		mov	r1, r2
 1059 0090 2846     		mov	r0, r5
 1060 0092 FFF7FEFF 		bl	lv_obj_set_pos
 1061              	.LVL112:
 251:Middlewares/lvgl/src/core/lv_disp.c ****     lv_obj_remove_local_style_prop(new_scr, LV_STYLE_OPA, 0);
 1062              		.loc 1 251 5 view .LVU263
 1063              	.LBB162:
 1064              	.LBI162:
 163:Middlewares/lvgl/src/core/lv_disp.h **** {
 1065              		.loc 2 163 26 view .LVU264
 1066              	.LBB163:
 1067              		.loc 2 165 5 view .LVU265
 1068              		.loc 2 165 12 is_stmt 0 view .LVU266
 1069 0096 FFF7FEFF 		bl	lv_disp_get_default
 1070              	.LVL113:
 1071 009a FFF7FEFF 		bl	lv_disp_get_scr_act
 1072              	.LVL114:
 1073              	.LBE163:
ARM GAS  /tmp/ccMI0ryM.s 			page 34


 1074              	.LBE162:
 251:Middlewares/lvgl/src/core/lv_disp.c ****     lv_obj_remove_local_style_prop(new_scr, LV_STYLE_OPA, 0);
 1075              		.loc 1 251 5 view .LVU267
 1076 009e 0022     		movs	r2, #0
 1077 00a0 1146     		mov	r1, r2
 1078 00a2 FFF7FEFF 		bl	lv_obj_set_pos
 1079              	.LVL115:
 252:Middlewares/lvgl/src/core/lv_disp.c ****     lv_obj_remove_local_style_prop(lv_scr_act(), LV_STYLE_OPA, 0);
 1080              		.loc 1 252 5 is_stmt 1 view .LVU268
 1081 00a6 0022     		movs	r2, #0
 1082 00a8 40F26241 		movw	r1, #1122
 1083 00ac 2846     		mov	r0, r5
 1084 00ae FFF7FEFF 		bl	lv_obj_remove_local_style_prop
 1085              	.LVL116:
 253:Middlewares/lvgl/src/core/lv_disp.c **** 
 1086              		.loc 1 253 5 view .LVU269
 1087              	.LBB164:
 1088              	.LBI164:
 163:Middlewares/lvgl/src/core/lv_disp.h **** {
 1089              		.loc 2 163 26 view .LVU270
 1090              	.LBB165:
 1091              		.loc 2 165 5 view .LVU271
 1092              		.loc 2 165 12 is_stmt 0 view .LVU272
 1093 00b2 FFF7FEFF 		bl	lv_disp_get_default
 1094              	.LVL117:
 1095 00b6 FFF7FEFF 		bl	lv_disp_get_scr_act
 1096              	.LVL118:
 1097              	.LBE165:
 1098              	.LBE164:
 253:Middlewares/lvgl/src/core/lv_disp.c **** 
 1099              		.loc 1 253 5 view .LVU273
 1100 00ba 0022     		movs	r2, #0
 1101 00bc 40F26241 		movw	r1, #1122
 1102 00c0 FFF7FEFF 		bl	lv_obj_remove_local_style_prop
 1103              	.LVL119:
 255:Middlewares/lvgl/src/core/lv_disp.c ****     lv_anim_init(&a_new);
 1104              		.loc 1 255 5 is_stmt 1 view .LVU274
 256:Middlewares/lvgl/src/core/lv_disp.c ****     lv_anim_set_var(&a_new, new_scr);
 1105              		.loc 1 256 5 view .LVU275
 1106 00c4 11A8     		add	r0, sp, #68
 1107 00c6 FFF7FEFF 		bl	lv_anim_init
 1108              	.LVL120:
 257:Middlewares/lvgl/src/core/lv_disp.c ****     lv_anim_set_start_cb(&a_new, scr_load_anim_start);
 1109              		.loc 1 257 5 view .LVU276
 1110              	.LBB166:
 1111              	.LBI166:
 1112              		.file 3 "Middlewares/lvgl/src/core/../misc/lv_anim.h"
   1:Middlewares/lvgl/src/core/../misc/lv_anim.h **** /**
   2:Middlewares/lvgl/src/core/../misc/lv_anim.h ****  * @file lv_anim.h
   3:Middlewares/lvgl/src/core/../misc/lv_anim.h ****  *
   4:Middlewares/lvgl/src/core/../misc/lv_anim.h ****  */
   5:Middlewares/lvgl/src/core/../misc/lv_anim.h **** 
   6:Middlewares/lvgl/src/core/../misc/lv_anim.h **** #ifndef LV_ANIM_H
   7:Middlewares/lvgl/src/core/../misc/lv_anim.h **** #define LV_ANIM_H
   8:Middlewares/lvgl/src/core/../misc/lv_anim.h **** 
   9:Middlewares/lvgl/src/core/../misc/lv_anim.h **** #ifdef __cplusplus
  10:Middlewares/lvgl/src/core/../misc/lv_anim.h **** extern "C" {
ARM GAS  /tmp/ccMI0ryM.s 			page 35


  11:Middlewares/lvgl/src/core/../misc/lv_anim.h **** #endif
  12:Middlewares/lvgl/src/core/../misc/lv_anim.h **** 
  13:Middlewares/lvgl/src/core/../misc/lv_anim.h **** /*********************
  14:Middlewares/lvgl/src/core/../misc/lv_anim.h ****  *      INCLUDES
  15:Middlewares/lvgl/src/core/../misc/lv_anim.h ****  *********************/
  16:Middlewares/lvgl/src/core/../misc/lv_anim.h **** #include "../lv_conf_internal.h"
  17:Middlewares/lvgl/src/core/../misc/lv_anim.h **** 
  18:Middlewares/lvgl/src/core/../misc/lv_anim.h **** #include <stdint.h>
  19:Middlewares/lvgl/src/core/../misc/lv_anim.h **** #include <stdbool.h>
  20:Middlewares/lvgl/src/core/../misc/lv_anim.h **** #include <string.h>
  21:Middlewares/lvgl/src/core/../misc/lv_anim.h **** 
  22:Middlewares/lvgl/src/core/../misc/lv_anim.h **** /*********************
  23:Middlewares/lvgl/src/core/../misc/lv_anim.h ****  *      DEFINES
  24:Middlewares/lvgl/src/core/../misc/lv_anim.h ****  *********************/
  25:Middlewares/lvgl/src/core/../misc/lv_anim.h **** 
  26:Middlewares/lvgl/src/core/../misc/lv_anim.h **** /**********************
  27:Middlewares/lvgl/src/core/../misc/lv_anim.h ****  *      TYPEDEFS
  28:Middlewares/lvgl/src/core/../misc/lv_anim.h ****  **********************/
  29:Middlewares/lvgl/src/core/../misc/lv_anim.h **** 
  30:Middlewares/lvgl/src/core/../misc/lv_anim.h **** /** Can be used to indicate if animations are enabled or disabled in a case*/
  31:Middlewares/lvgl/src/core/../misc/lv_anim.h **** typedef enum {
  32:Middlewares/lvgl/src/core/../misc/lv_anim.h ****     LV_ANIM_OFF,
  33:Middlewares/lvgl/src/core/../misc/lv_anim.h ****     LV_ANIM_ON,
  34:Middlewares/lvgl/src/core/../misc/lv_anim.h **** }lv_anim_enable_t;
  35:Middlewares/lvgl/src/core/../misc/lv_anim.h **** 
  36:Middlewares/lvgl/src/core/../misc/lv_anim.h **** #define LV_ANIM_REPEAT_INFINITE      0xFFFF
  37:Middlewares/lvgl/src/core/../misc/lv_anim.h **** LV_EXPORT_CONST_INT(LV_ANIM_REPEAT_INFINITE);
  38:Middlewares/lvgl/src/core/../misc/lv_anim.h **** 
  39:Middlewares/lvgl/src/core/../misc/lv_anim.h **** struct _lv_anim_t;
  40:Middlewares/lvgl/src/core/../misc/lv_anim.h **** 
  41:Middlewares/lvgl/src/core/../misc/lv_anim.h **** /** Get the current value during an animation*/
  42:Middlewares/lvgl/src/core/../misc/lv_anim.h **** typedef int32_t (*lv_anim_path_cb_t)(const struct _lv_anim_t *);
  43:Middlewares/lvgl/src/core/../misc/lv_anim.h **** 
  44:Middlewares/lvgl/src/core/../misc/lv_anim.h **** /** Generic prototype of "animator" functions.
  45:Middlewares/lvgl/src/core/../misc/lv_anim.h ****  * First parameter is the variable to animate.
  46:Middlewares/lvgl/src/core/../misc/lv_anim.h ****  * Second parameter is the value to set.
  47:Middlewares/lvgl/src/core/../misc/lv_anim.h ****  * Compatible with `lv_xxx_set_yyy(obj, value)` functions
  48:Middlewares/lvgl/src/core/../misc/lv_anim.h ****  * The `x` in `_xcb_t` means its not a fully generic prototype because
  49:Middlewares/lvgl/src/core/../misc/lv_anim.h ****  * it doesn't receive `lv_anim_t *` as its first argument*/
  50:Middlewares/lvgl/src/core/../misc/lv_anim.h **** typedef void (*lv_anim_exec_xcb_t)(void *, int32_t);
  51:Middlewares/lvgl/src/core/../misc/lv_anim.h **** 
  52:Middlewares/lvgl/src/core/../misc/lv_anim.h **** /** Same as `lv_anim_exec_xcb_t` but receives `lv_anim_t *` as the first parameter.
  53:Middlewares/lvgl/src/core/../misc/lv_anim.h ****  * It's more consistent but less convenient. Might be used by binding generator functions.*/
  54:Middlewares/lvgl/src/core/../misc/lv_anim.h **** typedef void (*lv_anim_custom_exec_cb_t)(struct _lv_anim_t *, int32_t);
  55:Middlewares/lvgl/src/core/../misc/lv_anim.h **** 
  56:Middlewares/lvgl/src/core/../misc/lv_anim.h **** /** Callback to call when the animation is ready*/
  57:Middlewares/lvgl/src/core/../misc/lv_anim.h **** typedef void (*lv_anim_ready_cb_t)(struct _lv_anim_t *);
  58:Middlewares/lvgl/src/core/../misc/lv_anim.h **** 
  59:Middlewares/lvgl/src/core/../misc/lv_anim.h **** /** Callback to call when the animation really stars (considering `delay`)*/
  60:Middlewares/lvgl/src/core/../misc/lv_anim.h **** typedef void (*lv_anim_start_cb_t)(struct _lv_anim_t *);
  61:Middlewares/lvgl/src/core/../misc/lv_anim.h **** 
  62:Middlewares/lvgl/src/core/../misc/lv_anim.h **** /** Callback used when the animation values are relative to get the current value*/
  63:Middlewares/lvgl/src/core/../misc/lv_anim.h **** typedef int32_t (*lv_anim_get_value_cb_t)(struct _lv_anim_t *);
  64:Middlewares/lvgl/src/core/../misc/lv_anim.h **** 
  65:Middlewares/lvgl/src/core/../misc/lv_anim.h **** /** Describes an animation*/
  66:Middlewares/lvgl/src/core/../misc/lv_anim.h **** typedef struct _lv_anim_t {
  67:Middlewares/lvgl/src/core/../misc/lv_anim.h ****     void * var;                          /**<Variable to animate*/
ARM GAS  /tmp/ccMI0ryM.s 			page 36


  68:Middlewares/lvgl/src/core/../misc/lv_anim.h ****     lv_anim_exec_xcb_t exec_cb;          /**< Function to execute to animate*/
  69:Middlewares/lvgl/src/core/../misc/lv_anim.h ****     lv_anim_start_cb_t start_cb;         /**< Call it when the animation is starts (considering `de
  70:Middlewares/lvgl/src/core/../misc/lv_anim.h ****     lv_anim_ready_cb_t ready_cb;         /**< Call it when the animation is ready*/
  71:Middlewares/lvgl/src/core/../misc/lv_anim.h ****     lv_anim_get_value_cb_t get_value_cb; /**< Get the current value in relative mode*/
  72:Middlewares/lvgl/src/core/../misc/lv_anim.h **** #if LV_USE_USER_DATA
  73:Middlewares/lvgl/src/core/../misc/lv_anim.h ****     void * user_data; /**< Custom user data*/
  74:Middlewares/lvgl/src/core/../misc/lv_anim.h **** #endif
  75:Middlewares/lvgl/src/core/../misc/lv_anim.h ****     lv_anim_path_cb_t path_cb;         /**< Describe the path (curve) of animations*/
  76:Middlewares/lvgl/src/core/../misc/lv_anim.h ****     int32_t start_value;               /**< Start value*/
  77:Middlewares/lvgl/src/core/../misc/lv_anim.h ****     int32_t current_value;             /**< Current value*/
  78:Middlewares/lvgl/src/core/../misc/lv_anim.h ****     int32_t end_value;                 /**< End value*/
  79:Middlewares/lvgl/src/core/../misc/lv_anim.h ****     int32_t time;                /**< Animation time in ms*/
  80:Middlewares/lvgl/src/core/../misc/lv_anim.h ****     int32_t act_time;            /**< Current time in animation. Set to negative to make delay.*/
  81:Middlewares/lvgl/src/core/../misc/lv_anim.h ****     uint32_t playback_delay;     /**< Wait before play back*/
  82:Middlewares/lvgl/src/core/../misc/lv_anim.h ****     uint32_t playback_time;      /**< Duration of playback animation*/
  83:Middlewares/lvgl/src/core/../misc/lv_anim.h ****     uint32_t repeat_delay;       /**< Wait before repeat*/
  84:Middlewares/lvgl/src/core/../misc/lv_anim.h ****     uint16_t repeat_cnt;         /**< Repeat count for the animation*/
  85:Middlewares/lvgl/src/core/../misc/lv_anim.h ****     uint8_t early_apply  : 1;    /**< 1: Apply start value immediately even is there is `delay`*/
  86:Middlewares/lvgl/src/core/../misc/lv_anim.h **** 
  87:Middlewares/lvgl/src/core/../misc/lv_anim.h ****     /*Animation system use these - user shouldn't set*/
  88:Middlewares/lvgl/src/core/../misc/lv_anim.h ****     uint8_t playback_now : 1; /**< Play back is in progress*/
  89:Middlewares/lvgl/src/core/../misc/lv_anim.h ****     uint8_t run_round : 1;    /**< Indicates the animation has run in this round*/
  90:Middlewares/lvgl/src/core/../misc/lv_anim.h ****     uint8_t start_cb_called : 1;    /**< Indicates that the `start_cb` was already called*/
  91:Middlewares/lvgl/src/core/../misc/lv_anim.h ****     uint32_t time_orig;
  92:Middlewares/lvgl/src/core/../misc/lv_anim.h **** } lv_anim_t;
  93:Middlewares/lvgl/src/core/../misc/lv_anim.h **** 
  94:Middlewares/lvgl/src/core/../misc/lv_anim.h **** /**********************
  95:Middlewares/lvgl/src/core/../misc/lv_anim.h ****  * GLOBAL PROTOTYPES
  96:Middlewares/lvgl/src/core/../misc/lv_anim.h ****  **********************/
  97:Middlewares/lvgl/src/core/../misc/lv_anim.h **** 
  98:Middlewares/lvgl/src/core/../misc/lv_anim.h **** /**
  99:Middlewares/lvgl/src/core/../misc/lv_anim.h ****  * Init. the animation module
 100:Middlewares/lvgl/src/core/../misc/lv_anim.h ****  */
 101:Middlewares/lvgl/src/core/../misc/lv_anim.h **** void _lv_anim_core_init(void);
 102:Middlewares/lvgl/src/core/../misc/lv_anim.h **** 
 103:Middlewares/lvgl/src/core/../misc/lv_anim.h **** /**
 104:Middlewares/lvgl/src/core/../misc/lv_anim.h ****  * Initialize an animation variable.
 105:Middlewares/lvgl/src/core/../misc/lv_anim.h ****  * E.g.:
 106:Middlewares/lvgl/src/core/../misc/lv_anim.h ****  * lv_anim_t a;
 107:Middlewares/lvgl/src/core/../misc/lv_anim.h ****  * lv_anim_init(&a);
 108:Middlewares/lvgl/src/core/../misc/lv_anim.h ****  * lv_anim_set_...(&a);
 109:Middlewares/lvgl/src/core/../misc/lv_anim.h ****  * lv_anim_start(&a);
 110:Middlewares/lvgl/src/core/../misc/lv_anim.h ****  * @param a     pointer to an `lv_anim_t` variable to initialize
 111:Middlewares/lvgl/src/core/../misc/lv_anim.h ****  */
 112:Middlewares/lvgl/src/core/../misc/lv_anim.h **** void lv_anim_init(lv_anim_t * a);
 113:Middlewares/lvgl/src/core/../misc/lv_anim.h **** 
 114:Middlewares/lvgl/src/core/../misc/lv_anim.h **** /**
 115:Middlewares/lvgl/src/core/../misc/lv_anim.h ****  * Set a variable to animate
 116:Middlewares/lvgl/src/core/../misc/lv_anim.h ****  * @param a     pointer to an initialized `lv_anim_t` variable
 117:Middlewares/lvgl/src/core/../misc/lv_anim.h ****  * @param var   pointer to a variable to animate
 118:Middlewares/lvgl/src/core/../misc/lv_anim.h ****  */
 119:Middlewares/lvgl/src/core/../misc/lv_anim.h **** static inline void lv_anim_set_var(lv_anim_t * a, void * var)
 1113              		.loc 3 119 20 view .LVU277
 1114              	.LBB167:
 120:Middlewares/lvgl/src/core/../misc/lv_anim.h **** {
 121:Middlewares/lvgl/src/core/../misc/lv_anim.h ****     a->var = var;
 1115              		.loc 3 121 5 view .LVU278
ARM GAS  /tmp/ccMI0ryM.s 			page 37


 1116              		.loc 3 121 12 is_stmt 0 view .LVU279
 1117 00ca 1195     		str	r5, [sp, #68]
 1118              	.LVL121:
 1119              		.loc 3 121 12 view .LVU280
 1120              	.LBE167:
 1121              	.LBE166:
 258:Middlewares/lvgl/src/core/lv_disp.c ****     lv_anim_set_ready_cb(&a_new, scr_anim_ready);
 1122              		.loc 1 258 5 is_stmt 1 view .LVU281
 1123              	.LBB168:
 1124              	.LBI168:
 122:Middlewares/lvgl/src/core/../misc/lv_anim.h **** }
 123:Middlewares/lvgl/src/core/../misc/lv_anim.h **** 
 124:Middlewares/lvgl/src/core/../misc/lv_anim.h **** /**
 125:Middlewares/lvgl/src/core/../misc/lv_anim.h ****  * Set a function to animate `var`
 126:Middlewares/lvgl/src/core/../misc/lv_anim.h ****  * @param a         pointer to an initialized `lv_anim_t` variable
 127:Middlewares/lvgl/src/core/../misc/lv_anim.h ****  * @param exec_cb   a function to execute during animation
 128:Middlewares/lvgl/src/core/../misc/lv_anim.h ****  *                  LVGL's built-in functions can be used.
 129:Middlewares/lvgl/src/core/../misc/lv_anim.h ****  *                  E.g. lv_obj_set_x
 130:Middlewares/lvgl/src/core/../misc/lv_anim.h ****  */
 131:Middlewares/lvgl/src/core/../misc/lv_anim.h **** static inline void lv_anim_set_exec_cb(lv_anim_t * a, lv_anim_exec_xcb_t exec_cb)
 132:Middlewares/lvgl/src/core/../misc/lv_anim.h **** {
 133:Middlewares/lvgl/src/core/../misc/lv_anim.h ****     a->exec_cb = exec_cb;
 134:Middlewares/lvgl/src/core/../misc/lv_anim.h **** }
 135:Middlewares/lvgl/src/core/../misc/lv_anim.h **** 
 136:Middlewares/lvgl/src/core/../misc/lv_anim.h **** /**
 137:Middlewares/lvgl/src/core/../misc/lv_anim.h ****  * Set the duration of an animation
 138:Middlewares/lvgl/src/core/../misc/lv_anim.h ****  * @param a         pointer to an initialized `lv_anim_t` variable
 139:Middlewares/lvgl/src/core/../misc/lv_anim.h ****  * @param duration  duration of the animation in milliseconds
 140:Middlewares/lvgl/src/core/../misc/lv_anim.h ****  */
 141:Middlewares/lvgl/src/core/../misc/lv_anim.h **** static inline void lv_anim_set_time(lv_anim_t * a, uint32_t duration)
 142:Middlewares/lvgl/src/core/../misc/lv_anim.h **** {
 143:Middlewares/lvgl/src/core/../misc/lv_anim.h ****     a->time = duration;
 144:Middlewares/lvgl/src/core/../misc/lv_anim.h **** }
 145:Middlewares/lvgl/src/core/../misc/lv_anim.h **** 
 146:Middlewares/lvgl/src/core/../misc/lv_anim.h **** /**
 147:Middlewares/lvgl/src/core/../misc/lv_anim.h ****  * Set a delay before starting the animation
 148:Middlewares/lvgl/src/core/../misc/lv_anim.h ****  * @param a         pointer to an initialized `lv_anim_t` variable
 149:Middlewares/lvgl/src/core/../misc/lv_anim.h ****  * @param delay     delay before the animation in milliseconds
 150:Middlewares/lvgl/src/core/../misc/lv_anim.h ****  */
 151:Middlewares/lvgl/src/core/../misc/lv_anim.h **** static inline void lv_anim_set_delay(lv_anim_t * a, uint32_t delay)
 152:Middlewares/lvgl/src/core/../misc/lv_anim.h **** {
 153:Middlewares/lvgl/src/core/../misc/lv_anim.h ****     a->act_time = -(int32_t)(delay);
 154:Middlewares/lvgl/src/core/../misc/lv_anim.h **** }
 155:Middlewares/lvgl/src/core/../misc/lv_anim.h **** 
 156:Middlewares/lvgl/src/core/../misc/lv_anim.h **** /**
 157:Middlewares/lvgl/src/core/../misc/lv_anim.h ****  * Set the start and end values of an animation
 158:Middlewares/lvgl/src/core/../misc/lv_anim.h ****  * @param a         pointer to an initialized `lv_anim_t` variable
 159:Middlewares/lvgl/src/core/../misc/lv_anim.h ****  * @param start     the start value
 160:Middlewares/lvgl/src/core/../misc/lv_anim.h ****  * @param end       the end value
 161:Middlewares/lvgl/src/core/../misc/lv_anim.h ****  */
 162:Middlewares/lvgl/src/core/../misc/lv_anim.h **** static inline void lv_anim_set_values(lv_anim_t * a, int32_t start, int32_t end)
 163:Middlewares/lvgl/src/core/../misc/lv_anim.h **** {
 164:Middlewares/lvgl/src/core/../misc/lv_anim.h ****     a->start_value = start;
 165:Middlewares/lvgl/src/core/../misc/lv_anim.h ****     a->current_value = start;
 166:Middlewares/lvgl/src/core/../misc/lv_anim.h ****     a->end_value = end;
 167:Middlewares/lvgl/src/core/../misc/lv_anim.h **** }
 168:Middlewares/lvgl/src/core/../misc/lv_anim.h **** 
ARM GAS  /tmp/ccMI0ryM.s 			page 38


 169:Middlewares/lvgl/src/core/../misc/lv_anim.h **** /**
 170:Middlewares/lvgl/src/core/../misc/lv_anim.h ****  * Similar to `lv_anim_set_exec_cb` but `lv_anim_custom_exec_cb_t` receives
 171:Middlewares/lvgl/src/core/../misc/lv_anim.h ****  * `lv_anim_t * ` as its first parameter instead of `void *`.
 172:Middlewares/lvgl/src/core/../misc/lv_anim.h ****  * This function might be used when LVGL is binded to other languages because
 173:Middlewares/lvgl/src/core/../misc/lv_anim.h ****  * it's more consistent to have `lv_anim_t *` as first parameter.
 174:Middlewares/lvgl/src/core/../misc/lv_anim.h ****  * The variable to animate can be stored in the animation's `user_sata`
 175:Middlewares/lvgl/src/core/../misc/lv_anim.h ****  * @param a         pointer to an initialized `lv_anim_t` variable
 176:Middlewares/lvgl/src/core/../misc/lv_anim.h ****  * @param exec_cb   a function to execute.
 177:Middlewares/lvgl/src/core/../misc/lv_anim.h ****  */
 178:Middlewares/lvgl/src/core/../misc/lv_anim.h **** static inline void lv_anim_set_custom_exec_cb(lv_anim_t * a, lv_anim_custom_exec_cb_t exec_cb)
 179:Middlewares/lvgl/src/core/../misc/lv_anim.h **** {
 180:Middlewares/lvgl/src/core/../misc/lv_anim.h ****     a->var     = a;
 181:Middlewares/lvgl/src/core/../misc/lv_anim.h ****     a->exec_cb = (lv_anim_exec_xcb_t)exec_cb;
 182:Middlewares/lvgl/src/core/../misc/lv_anim.h **** }
 183:Middlewares/lvgl/src/core/../misc/lv_anim.h **** 
 184:Middlewares/lvgl/src/core/../misc/lv_anim.h **** /**
 185:Middlewares/lvgl/src/core/../misc/lv_anim.h ****  * Set the path (curve) of the animation.
 186:Middlewares/lvgl/src/core/../misc/lv_anim.h ****  * @param a         pointer to an initialized `lv_anim_t` variable
 187:Middlewares/lvgl/src/core/../misc/lv_anim.h ****  * @param path_cb a function the get the current value of the animation.
 188:Middlewares/lvgl/src/core/../misc/lv_anim.h ****  */
 189:Middlewares/lvgl/src/core/../misc/lv_anim.h **** static inline void lv_anim_set_path_cb(lv_anim_t * a, lv_anim_path_cb_t path_cb)
 190:Middlewares/lvgl/src/core/../misc/lv_anim.h **** {
 191:Middlewares/lvgl/src/core/../misc/lv_anim.h ****     a->path_cb = path_cb;
 192:Middlewares/lvgl/src/core/../misc/lv_anim.h **** }
 193:Middlewares/lvgl/src/core/../misc/lv_anim.h **** 
 194:Middlewares/lvgl/src/core/../misc/lv_anim.h **** /**
 195:Middlewares/lvgl/src/core/../misc/lv_anim.h ****  * Set a function call when the animation really starts (considering `delay`)
 196:Middlewares/lvgl/src/core/../misc/lv_anim.h ****  * @param a         pointer to an initialized `lv_anim_t` variable
 197:Middlewares/lvgl/src/core/../misc/lv_anim.h ****  * @param start_cb  a function call when the animation starts
 198:Middlewares/lvgl/src/core/../misc/lv_anim.h ****  */
 199:Middlewares/lvgl/src/core/../misc/lv_anim.h **** static inline void lv_anim_set_start_cb(lv_anim_t * a, lv_anim_ready_cb_t start_cb)
 1125              		.loc 3 199 20 view .LVU282
 1126              	.LBB169:
 200:Middlewares/lvgl/src/core/../misc/lv_anim.h **** {
 201:Middlewares/lvgl/src/core/../misc/lv_anim.h ****     a->start_cb = start_cb;
 1127              		.loc 3 201 5 view .LVU283
 1128              		.loc 3 201 17 is_stmt 0 view .LVU284
 1129 00cc 534B     		ldr	r3, .L85
 1130 00ce 1393     		str	r3, [sp, #76]
 1131              	.LVL122:
 1132              		.loc 3 201 17 view .LVU285
 1133              	.LBE169:
 1134              	.LBE168:
 259:Middlewares/lvgl/src/core/lv_disp.c ****     lv_anim_set_time(&a_new, time);
 1135              		.loc 1 259 5 is_stmt 1 view .LVU286
 1136              	.LBB170:
 1137              	.LBI170:
 202:Middlewares/lvgl/src/core/../misc/lv_anim.h **** }
 203:Middlewares/lvgl/src/core/../misc/lv_anim.h **** 
 204:Middlewares/lvgl/src/core/../misc/lv_anim.h **** /**
 205:Middlewares/lvgl/src/core/../misc/lv_anim.h ****  * Set a function to use the current value of the variable and make start and end value
 206:Middlewares/lvgl/src/core/../misc/lv_anim.h ****  * relative the the returned current value.
 207:Middlewares/lvgl/src/core/../misc/lv_anim.h ****  * @param a             pointer to an initialized `lv_anim_t` variable
 208:Middlewares/lvgl/src/core/../misc/lv_anim.h ****  * @param get_value_cb  a function call when the animation starts
 209:Middlewares/lvgl/src/core/../misc/lv_anim.h ****  */
 210:Middlewares/lvgl/src/core/../misc/lv_anim.h **** static inline void lv_anim_set_get_value_cb(lv_anim_t * a, lv_anim_get_value_cb_t get_value_cb)
 211:Middlewares/lvgl/src/core/../misc/lv_anim.h **** {
ARM GAS  /tmp/ccMI0ryM.s 			page 39


 212:Middlewares/lvgl/src/core/../misc/lv_anim.h ****     a->get_value_cb = get_value_cb;
 213:Middlewares/lvgl/src/core/../misc/lv_anim.h **** }
 214:Middlewares/lvgl/src/core/../misc/lv_anim.h **** 
 215:Middlewares/lvgl/src/core/../misc/lv_anim.h **** /**
 216:Middlewares/lvgl/src/core/../misc/lv_anim.h ****  * Set a function call when the animation is ready
 217:Middlewares/lvgl/src/core/../misc/lv_anim.h ****  * @param a         pointer to an initialized `lv_anim_t` variable
 218:Middlewares/lvgl/src/core/../misc/lv_anim.h ****  * @param ready_cb  a function call when the animation is ready
 219:Middlewares/lvgl/src/core/../misc/lv_anim.h ****  */
 220:Middlewares/lvgl/src/core/../misc/lv_anim.h **** static inline void lv_anim_set_ready_cb(lv_anim_t * a, lv_anim_ready_cb_t ready_cb)
 1138              		.loc 3 220 20 view .LVU287
 1139              	.LBB171:
 221:Middlewares/lvgl/src/core/../misc/lv_anim.h **** {
 222:Middlewares/lvgl/src/core/../misc/lv_anim.h ****     a->ready_cb = ready_cb;
 1140              		.loc 3 222 5 view .LVU288
 1141              		.loc 3 222 17 is_stmt 0 view .LVU289
 1142 00d0 534B     		ldr	r3, .L85+4
 1143 00d2 1493     		str	r3, [sp, #80]
 1144              	.LVL123:
 1145              		.loc 3 222 17 view .LVU290
 1146              	.LBE171:
 1147              	.LBE170:
 260:Middlewares/lvgl/src/core/lv_disp.c ****     lv_anim_set_delay(&a_new, delay);
 1148              		.loc 1 260 5 is_stmt 1 view .LVU291
 1149              	.LBB172:
 1150              	.LBI172:
 141:Middlewares/lvgl/src/core/../misc/lv_anim.h **** {
 1151              		.loc 3 141 20 view .LVU292
 1152              	.LBB173:
 143:Middlewares/lvgl/src/core/../misc/lv_anim.h **** }
 1153              		.loc 3 143 5 view .LVU293
 143:Middlewares/lvgl/src/core/../misc/lv_anim.h **** }
 1154              		.loc 3 143 13 is_stmt 0 view .LVU294
 1155 00d4 CDF86C80 		str	r8, [sp, #108]
 1156              	.LVL124:
 143:Middlewares/lvgl/src/core/../misc/lv_anim.h **** }
 1157              		.loc 3 143 13 view .LVU295
 1158              	.LBE173:
 1159              	.LBE172:
 261:Middlewares/lvgl/src/core/lv_disp.c **** 
 1160              		.loc 1 261 5 is_stmt 1 view .LVU296
 1161              	.LBB174:
 1162              	.LBI174:
 151:Middlewares/lvgl/src/core/../misc/lv_anim.h **** {
 1163              		.loc 3 151 20 view .LVU297
 1164              	.LBB175:
 153:Middlewares/lvgl/src/core/../misc/lv_anim.h **** }
 1165              		.loc 3 153 5 view .LVU298
 153:Middlewares/lvgl/src/core/../misc/lv_anim.h **** }
 1166              		.loc 3 153 19 is_stmt 0 view .LVU299
 1167 00d8 7642     		rsbs	r6, r6, #0
 1168              	.LVL125:
 153:Middlewares/lvgl/src/core/../misc/lv_anim.h **** }
 1169              		.loc 3 153 17 view .LVU300
 1170 00da 1C96     		str	r6, [sp, #112]
 1171              	.LVL126:
 153:Middlewares/lvgl/src/core/../misc/lv_anim.h **** }
 1172              		.loc 3 153 17 view .LVU301
ARM GAS  /tmp/ccMI0ryM.s 			page 40


 1173              	.LBE175:
 1174              	.LBE174:
 263:Middlewares/lvgl/src/core/lv_disp.c ****     lv_anim_init(&a_old);
 1175              		.loc 1 263 5 is_stmt 1 view .LVU302
 264:Middlewares/lvgl/src/core/lv_disp.c ****     lv_anim_set_var(&a_old, d->act_scr);
 1176              		.loc 1 264 5 view .LVU303
 1177 00dc 6846     		mov	r0, sp
 1178 00de FFF7FEFF 		bl	lv_anim_init
 1179              	.LVL127:
 265:Middlewares/lvgl/src/core/lv_disp.c ****     lv_anim_set_time(&a_old, time);
 1180              		.loc 1 265 5 view .LVU304
 265:Middlewares/lvgl/src/core/lv_disp.c ****     lv_anim_set_time(&a_old, time);
 1181              		.loc 1 265 30 is_stmt 0 view .LVU305
 1182 00e2 2369     		ldr	r3, [r4, #16]
 1183              	.LVL128:
 1184              	.LBB176:
 1185              	.LBI176:
 119:Middlewares/lvgl/src/core/../misc/lv_anim.h **** {
 1186              		.loc 3 119 20 is_stmt 1 view .LVU306
 1187              	.LBB177:
 121:Middlewares/lvgl/src/core/../misc/lv_anim.h **** }
 1188              		.loc 3 121 5 view .LVU307
 121:Middlewares/lvgl/src/core/../misc/lv_anim.h **** }
 1189              		.loc 3 121 12 is_stmt 0 view .LVU308
 1190 00e4 0093     		str	r3, [sp]
 1191              	.LVL129:
 121:Middlewares/lvgl/src/core/../misc/lv_anim.h **** }
 1192              		.loc 3 121 12 view .LVU309
 1193              	.LBE177:
 1194              	.LBE176:
 266:Middlewares/lvgl/src/core/lv_disp.c ****     lv_anim_set_delay(&a_old, delay);
 1195              		.loc 1 266 5 is_stmt 1 view .LVU310
 1196              	.LBB178:
 1197              	.LBI178:
 141:Middlewares/lvgl/src/core/../misc/lv_anim.h **** {
 1198              		.loc 3 141 20 view .LVU311
 1199              	.LBB179:
 143:Middlewares/lvgl/src/core/../misc/lv_anim.h **** }
 1200              		.loc 3 143 5 view .LVU312
 143:Middlewares/lvgl/src/core/../misc/lv_anim.h **** }
 1201              		.loc 3 143 13 is_stmt 0 view .LVU313
 1202 00e6 CDF82880 		str	r8, [sp, #40]
 1203              	.LVL130:
 143:Middlewares/lvgl/src/core/../misc/lv_anim.h **** }
 1204              		.loc 3 143 13 view .LVU314
 1205              	.LBE179:
 1206              	.LBE178:
 267:Middlewares/lvgl/src/core/lv_disp.c **** 
 1207              		.loc 1 267 5 is_stmt 1 view .LVU315
 1208              	.LBB180:
 1209              	.LBI180:
 151:Middlewares/lvgl/src/core/../misc/lv_anim.h **** {
 1210              		.loc 3 151 20 view .LVU316
 1211              	.LBB181:
 153:Middlewares/lvgl/src/core/../misc/lv_anim.h **** }
 1212              		.loc 3 153 5 view .LVU317
 153:Middlewares/lvgl/src/core/../misc/lv_anim.h **** }
ARM GAS  /tmp/ccMI0ryM.s 			page 41


 1213              		.loc 3 153 17 is_stmt 0 view .LVU318
 1214 00ea 0B96     		str	r6, [sp, #44]
 1215              	.LVL131:
 153:Middlewares/lvgl/src/core/../misc/lv_anim.h **** }
 1216              		.loc 3 153 17 view .LVU319
 1217              	.LBE181:
 1218              	.LBE180:
 269:Middlewares/lvgl/src/core/lv_disp.c ****         case LV_SCR_LOAD_ANIM_NONE:
 1219              		.loc 1 269 5 is_stmt 1 view .LVU320
 1220 00ec 092F     		cmp	r7, #9
 1221 00ee 11D8     		bhi	.L71
 1222 00f0 DFE807F0 		tbb	[pc, r7]
 1223              	.L73:
 1224 00f4 0A       		.byte	(.L82-.L73)/2
 1225 00f5 19       		.byte	(.L81-.L73)/2
 1226 00f6 23       		.byte	(.L80-.L73)/2
 1227 00f7 2E       		.byte	(.L79-.L73)/2
 1228 00f8 38       		.byte	(.L78-.L73)/2
 1229 00f9 43       		.byte	(.L77-.L73)/2
 1230 00fa 55       		.byte	(.L76-.L73)/2
 1231 00fb 67       		.byte	(.L75-.L73)/2
 1232 00fc 79       		.byte	(.L74-.L73)/2
 1233 00fd 8B       		.byte	(.L72-.L73)/2
 1234              	.LVL132:
 1235              		.p2align 1
 1236              	.L84:
 239:Middlewares/lvgl/src/core/lv_disp.c ****         d->prev_scr = NULL;
 1237              		.loc 1 239 9 view .LVU321
 1238 00fe FFF7FEFF 		bl	lv_obj_del
 1239              	.LVL133:
 240:Middlewares/lvgl/src/core/lv_disp.c ****     }
 1240              		.loc 1 240 9 view .LVU322
 240:Middlewares/lvgl/src/core/lv_disp.c ****     }
 1241              		.loc 1 240 21 is_stmt 0 view .LVU323
 1242 0102 0023     		movs	r3, #0
 1243 0104 6361     		str	r3, [r4, #20]
 1244 0106 AEE7     		b	.L70
 1245              	.LVL134:
 1246              	.L82:
 272:Middlewares/lvgl/src/core/lv_disp.c ****             lv_anim_set_values(&a_new, 0, 0);
 1247              		.loc 1 272 13 is_stmt 1 view .LVU324
 1248              	.LBB182:
 1249              	.LBI182:
 131:Middlewares/lvgl/src/core/../misc/lv_anim.h **** {
 1250              		.loc 3 131 20 view .LVU325
 1251              	.LBB183:
 133:Middlewares/lvgl/src/core/../misc/lv_anim.h **** }
 1252              		.loc 3 133 5 view .LVU326
 133:Middlewares/lvgl/src/core/../misc/lv_anim.h **** }
 1253              		.loc 3 133 16 is_stmt 0 view .LVU327
 1254 0108 464B     		ldr	r3, .L85+8
 1255 010a 1293     		str	r3, [sp, #72]
 1256              	.LVL135:
 133:Middlewares/lvgl/src/core/../misc/lv_anim.h **** }
 1257              		.loc 3 133 16 view .LVU328
 1258              	.LBE183:
 1259              	.LBE182:
ARM GAS  /tmp/ccMI0ryM.s 			page 42


 273:Middlewares/lvgl/src/core/lv_disp.c ****             break;
 1260              		.loc 1 273 13 is_stmt 1 view .LVU329
 1261              	.LBB184:
 1262              	.LBI184:
 162:Middlewares/lvgl/src/core/../misc/lv_anim.h **** {
 1263              		.loc 3 162 20 view .LVU330
 1264              	.LBB185:
 164:Middlewares/lvgl/src/core/../misc/lv_anim.h ****     a->current_value = start;
 1265              		.loc 3 164 5 view .LVU331
 164:Middlewares/lvgl/src/core/../misc/lv_anim.h ****     a->current_value = start;
 1266              		.loc 3 164 20 is_stmt 0 view .LVU332
 1267 010c 0023     		movs	r3, #0
 1268 010e 1893     		str	r3, [sp, #96]
 165:Middlewares/lvgl/src/core/../misc/lv_anim.h ****     a->end_value = end;
 1269              		.loc 3 165 5 is_stmt 1 view .LVU333
 165:Middlewares/lvgl/src/core/../misc/lv_anim.h ****     a->end_value = end;
 1270              		.loc 3 165 22 is_stmt 0 view .LVU334
 1271 0110 1993     		str	r3, [sp, #100]
 166:Middlewares/lvgl/src/core/../misc/lv_anim.h **** }
 1272              		.loc 3 166 5 is_stmt 1 view .LVU335
 166:Middlewares/lvgl/src/core/../misc/lv_anim.h **** }
 1273              		.loc 3 166 18 is_stmt 0 view .LVU336
 1274 0112 1A93     		str	r3, [sp, #104]
 1275              	.LVL136:
 1276              	.L71:
 166:Middlewares/lvgl/src/core/../misc/lv_anim.h **** }
 1277              		.loc 3 166 18 view .LVU337
 1278              	.LBE185:
 1279              	.LBE184:
 326:Middlewares/lvgl/src/core/lv_disp.c ****     lv_anim_start(&a_old);
 1280              		.loc 1 326 5 is_stmt 1 view .LVU338
 1281 0114 11A8     		add	r0, sp, #68
 1282 0116 FFF7FEFF 		bl	lv_anim_start
 1283              	.LVL137:
 327:Middlewares/lvgl/src/core/lv_disp.c **** }
 1284              		.loc 1 327 5 view .LVU339
 1285 011a 6846     		mov	r0, sp
 1286 011c FFF7FEFF 		bl	lv_anim_start
 1287              	.LVL138:
 328:Middlewares/lvgl/src/core/lv_disp.c **** 
 1288              		.loc 1 328 1 is_stmt 0 view .LVU340
 1289 0120 22B0     		add	sp, sp, #136
 1290              	.LCFI26:
 1291              		.cfi_remember_state
 1292              		.cfi_def_cfa_offset 24
 1293              		@ sp needed
 1294 0122 BDE8F081 		pop	{r4, r5, r6, r7, r8, pc}
 1295              	.LVL139:
 1296              	.L81:
 1297              	.LCFI27:
 1298              		.cfi_restore_state
 276:Middlewares/lvgl/src/core/lv_disp.c ****             lv_anim_set_values(&a_new, lv_disp_get_hor_res(d), 0);
 1299              		.loc 1 276 13 is_stmt 1 view .LVU341
 1300              	.LBB186:
 1301              	.LBI186:
 131:Middlewares/lvgl/src/core/../misc/lv_anim.h **** {
 1302              		.loc 3 131 20 view .LVU342
ARM GAS  /tmp/ccMI0ryM.s 			page 43


 1303              	.LBB187:
 133:Middlewares/lvgl/src/core/../misc/lv_anim.h **** }
 1304              		.loc 3 133 5 view .LVU343
 133:Middlewares/lvgl/src/core/../misc/lv_anim.h **** }
 1305              		.loc 3 133 16 is_stmt 0 view .LVU344
 1306 0126 3F4B     		ldr	r3, .L85+8
 1307 0128 1293     		str	r3, [sp, #72]
 1308              	.LVL140:
 133:Middlewares/lvgl/src/core/../misc/lv_anim.h **** }
 1309              		.loc 3 133 16 view .LVU345
 1310              	.LBE187:
 1311              	.LBE186:
 277:Middlewares/lvgl/src/core/lv_disp.c ****             break;
 1312              		.loc 1 277 13 is_stmt 1 view .LVU346
 277:Middlewares/lvgl/src/core/lv_disp.c ****             break;
 1313              		.loc 1 277 40 is_stmt 0 view .LVU347
 1314 012a 2046     		mov	r0, r4
 1315 012c FFF7FEFF 		bl	lv_disp_get_hor_res
 1316              	.LVL141:
 1317              	.LBB188:
 1318              	.LBI188:
 162:Middlewares/lvgl/src/core/../misc/lv_anim.h **** {
 1319              		.loc 3 162 20 is_stmt 1 view .LVU348
 1320              	.LBB189:
 164:Middlewares/lvgl/src/core/../misc/lv_anim.h ****     a->current_value = start;
 1321              		.loc 3 164 5 view .LVU349
 164:Middlewares/lvgl/src/core/../misc/lv_anim.h ****     a->current_value = start;
 1322              		.loc 3 164 20 is_stmt 0 view .LVU350
 1323 0130 1890     		str	r0, [sp, #96]
 165:Middlewares/lvgl/src/core/../misc/lv_anim.h ****     a->end_value = end;
 1324              		.loc 3 165 5 is_stmt 1 view .LVU351
 165:Middlewares/lvgl/src/core/../misc/lv_anim.h ****     a->end_value = end;
 1325              		.loc 3 165 22 is_stmt 0 view .LVU352
 1326 0132 1990     		str	r0, [sp, #100]
 166:Middlewares/lvgl/src/core/../misc/lv_anim.h **** }
 1327              		.loc 3 166 5 is_stmt 1 view .LVU353
 166:Middlewares/lvgl/src/core/../misc/lv_anim.h **** }
 1328              		.loc 3 166 18 is_stmt 0 view .LVU354
 1329 0134 0023     		movs	r3, #0
 1330 0136 1A93     		str	r3, [sp, #104]
 167:Middlewares/lvgl/src/core/../misc/lv_anim.h **** 
 1331              		.loc 3 167 1 view .LVU355
 1332 0138 ECE7     		b	.L71
 1333              	.LVL142:
 1334              	.L80:
 167:Middlewares/lvgl/src/core/../misc/lv_anim.h **** 
 1335              		.loc 3 167 1 view .LVU356
 1336              	.LBE189:
 1337              	.LBE188:
 280:Middlewares/lvgl/src/core/lv_disp.c ****             lv_anim_set_values(&a_new, -lv_disp_get_hor_res(d), 0);
 1338              		.loc 1 280 13 is_stmt 1 view .LVU357
 1339              	.LBB190:
 1340              	.LBI190:
 131:Middlewares/lvgl/src/core/../misc/lv_anim.h **** {
 1341              		.loc 3 131 20 view .LVU358
 1342              	.LBB191:
 133:Middlewares/lvgl/src/core/../misc/lv_anim.h **** }
ARM GAS  /tmp/ccMI0ryM.s 			page 44


 1343              		.loc 3 133 5 view .LVU359
 133:Middlewares/lvgl/src/core/../misc/lv_anim.h **** }
 1344              		.loc 3 133 16 is_stmt 0 view .LVU360
 1345 013a 3A4B     		ldr	r3, .L85+8
 1346 013c 1293     		str	r3, [sp, #72]
 1347              	.LVL143:
 133:Middlewares/lvgl/src/core/../misc/lv_anim.h **** }
 1348              		.loc 3 133 16 view .LVU361
 1349              	.LBE191:
 1350              	.LBE190:
 281:Middlewares/lvgl/src/core/lv_disp.c ****             break;
 1351              		.loc 1 281 13 is_stmt 1 view .LVU362
 281:Middlewares/lvgl/src/core/lv_disp.c ****             break;
 1352              		.loc 1 281 41 is_stmt 0 view .LVU363
 1353 013e 2046     		mov	r0, r4
 1354 0140 FFF7FEFF 		bl	lv_disp_get_hor_res
 1355              	.LVL144:
 281:Middlewares/lvgl/src/core/lv_disp.c ****             break;
 1356              		.loc 1 281 40 view .LVU364
 1357 0144 4042     		rsbs	r0, r0, #0
 1358              	.LVL145:
 1359              	.LBB192:
 1360              	.LBI192:
 162:Middlewares/lvgl/src/core/../misc/lv_anim.h **** {
 1361              		.loc 3 162 20 is_stmt 1 view .LVU365
 1362              	.LBB193:
 164:Middlewares/lvgl/src/core/../misc/lv_anim.h ****     a->current_value = start;
 1363              		.loc 3 164 5 view .LVU366
 164:Middlewares/lvgl/src/core/../misc/lv_anim.h ****     a->current_value = start;
 1364              		.loc 3 164 20 is_stmt 0 view .LVU367
 1365 0146 1890     		str	r0, [sp, #96]
 165:Middlewares/lvgl/src/core/../misc/lv_anim.h ****     a->end_value = end;
 1366              		.loc 3 165 5 is_stmt 1 view .LVU368
 165:Middlewares/lvgl/src/core/../misc/lv_anim.h ****     a->end_value = end;
 1367              		.loc 3 165 22 is_stmt 0 view .LVU369
 1368 0148 1990     		str	r0, [sp, #100]
 166:Middlewares/lvgl/src/core/../misc/lv_anim.h **** }
 1369              		.loc 3 166 5 is_stmt 1 view .LVU370
 166:Middlewares/lvgl/src/core/../misc/lv_anim.h **** }
 1370              		.loc 3 166 18 is_stmt 0 view .LVU371
 1371 014a 0023     		movs	r3, #0
 1372 014c 1A93     		str	r3, [sp, #104]
 167:Middlewares/lvgl/src/core/../misc/lv_anim.h **** 
 1373              		.loc 3 167 1 view .LVU372
 1374 014e E1E7     		b	.L71
 1375              	.LVL146:
 1376              	.L79:
 167:Middlewares/lvgl/src/core/../misc/lv_anim.h **** 
 1377              		.loc 3 167 1 view .LVU373
 1378              	.LBE193:
 1379              	.LBE192:
 284:Middlewares/lvgl/src/core/lv_disp.c ****             lv_anim_set_values(&a_new, lv_disp_get_ver_res(d), 0);
 1380              		.loc 1 284 13 is_stmt 1 view .LVU374
 1381              	.LBB194:
 1382              	.LBI194:
 131:Middlewares/lvgl/src/core/../misc/lv_anim.h **** {
 1383              		.loc 3 131 20 view .LVU375
ARM GAS  /tmp/ccMI0ryM.s 			page 45


 1384              	.LBB195:
 133:Middlewares/lvgl/src/core/../misc/lv_anim.h **** }
 1385              		.loc 3 133 5 view .LVU376
 133:Middlewares/lvgl/src/core/../misc/lv_anim.h **** }
 1386              		.loc 3 133 16 is_stmt 0 view .LVU377
 1387 0150 354B     		ldr	r3, .L85+12
 1388 0152 1293     		str	r3, [sp, #72]
 1389              	.LVL147:
 133:Middlewares/lvgl/src/core/../misc/lv_anim.h **** }
 1390              		.loc 3 133 16 view .LVU378
 1391              	.LBE195:
 1392              	.LBE194:
 285:Middlewares/lvgl/src/core/lv_disp.c ****             break;
 1393              		.loc 1 285 13 is_stmt 1 view .LVU379
 285:Middlewares/lvgl/src/core/lv_disp.c ****             break;
 1394              		.loc 1 285 40 is_stmt 0 view .LVU380
 1395 0154 2046     		mov	r0, r4
 1396 0156 FFF7FEFF 		bl	lv_disp_get_ver_res
 1397              	.LVL148:
 1398              	.LBB196:
 1399              	.LBI196:
 162:Middlewares/lvgl/src/core/../misc/lv_anim.h **** {
 1400              		.loc 3 162 20 is_stmt 1 view .LVU381
 1401              	.LBB197:
 164:Middlewares/lvgl/src/core/../misc/lv_anim.h ****     a->current_value = start;
 1402              		.loc 3 164 5 view .LVU382
 164:Middlewares/lvgl/src/core/../misc/lv_anim.h ****     a->current_value = start;
 1403              		.loc 3 164 20 is_stmt 0 view .LVU383
 1404 015a 1890     		str	r0, [sp, #96]
 165:Middlewares/lvgl/src/core/../misc/lv_anim.h ****     a->end_value = end;
 1405              		.loc 3 165 5 is_stmt 1 view .LVU384
 165:Middlewares/lvgl/src/core/../misc/lv_anim.h ****     a->end_value = end;
 1406              		.loc 3 165 22 is_stmt 0 view .LVU385
 1407 015c 1990     		str	r0, [sp, #100]
 166:Middlewares/lvgl/src/core/../misc/lv_anim.h **** }
 1408              		.loc 3 166 5 is_stmt 1 view .LVU386
 166:Middlewares/lvgl/src/core/../misc/lv_anim.h **** }
 1409              		.loc 3 166 18 is_stmt 0 view .LVU387
 1410 015e 0023     		movs	r3, #0
 1411 0160 1A93     		str	r3, [sp, #104]
 167:Middlewares/lvgl/src/core/../misc/lv_anim.h **** 
 1412              		.loc 3 167 1 view .LVU388
 1413 0162 D7E7     		b	.L71
 1414              	.LVL149:
 1415              	.L78:
 167:Middlewares/lvgl/src/core/../misc/lv_anim.h **** 
 1416              		.loc 3 167 1 view .LVU389
 1417              	.LBE197:
 1418              	.LBE196:
 288:Middlewares/lvgl/src/core/lv_disp.c ****             lv_anim_set_values(&a_new, -lv_disp_get_ver_res(d), 0);
 1419              		.loc 1 288 13 is_stmt 1 view .LVU390
 1420              	.LBB198:
 1421              	.LBI198:
 131:Middlewares/lvgl/src/core/../misc/lv_anim.h **** {
 1422              		.loc 3 131 20 view .LVU391
 1423              	.LBB199:
 133:Middlewares/lvgl/src/core/../misc/lv_anim.h **** }
ARM GAS  /tmp/ccMI0ryM.s 			page 46


 1424              		.loc 3 133 5 view .LVU392
 133:Middlewares/lvgl/src/core/../misc/lv_anim.h **** }
 1425              		.loc 3 133 16 is_stmt 0 view .LVU393
 1426 0164 304B     		ldr	r3, .L85+12
 1427 0166 1293     		str	r3, [sp, #72]
 1428              	.LVL150:
 133:Middlewares/lvgl/src/core/../misc/lv_anim.h **** }
 1429              		.loc 3 133 16 view .LVU394
 1430              	.LBE199:
 1431              	.LBE198:
 289:Middlewares/lvgl/src/core/lv_disp.c ****             break;
 1432              		.loc 1 289 13 is_stmt 1 view .LVU395
 289:Middlewares/lvgl/src/core/lv_disp.c ****             break;
 1433              		.loc 1 289 41 is_stmt 0 view .LVU396
 1434 0168 2046     		mov	r0, r4
 1435 016a FFF7FEFF 		bl	lv_disp_get_ver_res
 1436              	.LVL151:
 289:Middlewares/lvgl/src/core/lv_disp.c ****             break;
 1437              		.loc 1 289 40 view .LVU397
 1438 016e 4042     		rsbs	r0, r0, #0
 1439              	.LVL152:
 1440              	.LBB200:
 1441              	.LBI200:
 162:Middlewares/lvgl/src/core/../misc/lv_anim.h **** {
 1442              		.loc 3 162 20 is_stmt 1 view .LVU398
 1443              	.LBB201:
 164:Middlewares/lvgl/src/core/../misc/lv_anim.h ****     a->current_value = start;
 1444              		.loc 3 164 5 view .LVU399
 164:Middlewares/lvgl/src/core/../misc/lv_anim.h ****     a->current_value = start;
 1445              		.loc 3 164 20 is_stmt 0 view .LVU400
 1446 0170 1890     		str	r0, [sp, #96]
 165:Middlewares/lvgl/src/core/../misc/lv_anim.h ****     a->end_value = end;
 1447              		.loc 3 165 5 is_stmt 1 view .LVU401
 165:Middlewares/lvgl/src/core/../misc/lv_anim.h ****     a->end_value = end;
 1448              		.loc 3 165 22 is_stmt 0 view .LVU402
 1449 0172 1990     		str	r0, [sp, #100]
 166:Middlewares/lvgl/src/core/../misc/lv_anim.h **** }
 1450              		.loc 3 166 5 is_stmt 1 view .LVU403
 166:Middlewares/lvgl/src/core/../misc/lv_anim.h **** }
 1451              		.loc 3 166 18 is_stmt 0 view .LVU404
 1452 0174 0023     		movs	r3, #0
 1453 0176 1A93     		str	r3, [sp, #104]
 167:Middlewares/lvgl/src/core/../misc/lv_anim.h **** 
 1454              		.loc 3 167 1 view .LVU405
 1455 0178 CCE7     		b	.L71
 1456              	.LVL153:
 1457              	.L77:
 167:Middlewares/lvgl/src/core/../misc/lv_anim.h **** 
 1458              		.loc 3 167 1 view .LVU406
 1459              	.LBE201:
 1460              	.LBE200:
 292:Middlewares/lvgl/src/core/lv_disp.c ****             lv_anim_set_values(&a_new, lv_disp_get_hor_res(d), 0);
 1461              		.loc 1 292 13 is_stmt 1 view .LVU407
 1462              	.LBB202:
 1463              	.LBI202:
 131:Middlewares/lvgl/src/core/../misc/lv_anim.h **** {
 1464              		.loc 3 131 20 view .LVU408
ARM GAS  /tmp/ccMI0ryM.s 			page 47


 1465              	.LBB203:
 133:Middlewares/lvgl/src/core/../misc/lv_anim.h **** }
 1466              		.loc 3 133 5 view .LVU409
 133:Middlewares/lvgl/src/core/../misc/lv_anim.h **** }
 1467              		.loc 3 133 16 is_stmt 0 view .LVU410
 1468 017a 2A4E     		ldr	r6, .L85+8
 1469 017c 1296     		str	r6, [sp, #72]
 1470              	.LVL154:
 133:Middlewares/lvgl/src/core/../misc/lv_anim.h **** }
 1471              		.loc 3 133 16 view .LVU411
 1472              	.LBE203:
 1473              	.LBE202:
 293:Middlewares/lvgl/src/core/lv_disp.c **** 
 1474              		.loc 1 293 13 is_stmt 1 view .LVU412
 293:Middlewares/lvgl/src/core/lv_disp.c **** 
 1475              		.loc 1 293 40 is_stmt 0 view .LVU413
 1476 017e 2046     		mov	r0, r4
 1477 0180 FFF7FEFF 		bl	lv_disp_get_hor_res
 1478              	.LVL155:
 1479              	.LBB204:
 1480              	.LBI204:
 162:Middlewares/lvgl/src/core/../misc/lv_anim.h **** {
 1481              		.loc 3 162 20 is_stmt 1 view .LVU414
 1482              	.LBB205:
 164:Middlewares/lvgl/src/core/../misc/lv_anim.h ****     a->current_value = start;
 1483              		.loc 3 164 5 view .LVU415
 164:Middlewares/lvgl/src/core/../misc/lv_anim.h ****     a->current_value = start;
 1484              		.loc 3 164 20 is_stmt 0 view .LVU416
 1485 0184 1890     		str	r0, [sp, #96]
 165:Middlewares/lvgl/src/core/../misc/lv_anim.h ****     a->end_value = end;
 1486              		.loc 3 165 5 is_stmt 1 view .LVU417
 165:Middlewares/lvgl/src/core/../misc/lv_anim.h ****     a->end_value = end;
 1487              		.loc 3 165 22 is_stmt 0 view .LVU418
 1488 0186 1990     		str	r0, [sp, #100]
 166:Middlewares/lvgl/src/core/../misc/lv_anim.h **** }
 1489              		.loc 3 166 5 is_stmt 1 view .LVU419
 166:Middlewares/lvgl/src/core/../misc/lv_anim.h **** }
 1490              		.loc 3 166 18 is_stmt 0 view .LVU420
 1491 0188 0025     		movs	r5, #0
 1492              	.LVL156:
 166:Middlewares/lvgl/src/core/../misc/lv_anim.h **** }
 1493              		.loc 3 166 18 view .LVU421
 1494 018a 1A95     		str	r5, [sp, #104]
 1495              	.LVL157:
 166:Middlewares/lvgl/src/core/../misc/lv_anim.h **** }
 1496              		.loc 3 166 18 view .LVU422
 1497              	.LBE205:
 1498              	.LBE204:
 295:Middlewares/lvgl/src/core/lv_disp.c ****             lv_anim_set_values(&a_old, 0, -lv_disp_get_hor_res(d));
 1499              		.loc 1 295 13 is_stmt 1 view .LVU423
 1500              	.LBB206:
 1501              	.LBI206:
 131:Middlewares/lvgl/src/core/../misc/lv_anim.h **** {
 1502              		.loc 3 131 20 view .LVU424
 1503              	.LBB207:
 133:Middlewares/lvgl/src/core/../misc/lv_anim.h **** }
 1504              		.loc 3 133 5 view .LVU425
ARM GAS  /tmp/ccMI0ryM.s 			page 48


 133:Middlewares/lvgl/src/core/../misc/lv_anim.h **** }
 1505              		.loc 3 133 16 is_stmt 0 view .LVU426
 1506 018c 0196     		str	r6, [sp, #4]
 1507              	.LVL158:
 133:Middlewares/lvgl/src/core/../misc/lv_anim.h **** }
 1508              		.loc 3 133 16 view .LVU427
 1509              	.LBE207:
 1510              	.LBE206:
 296:Middlewares/lvgl/src/core/lv_disp.c ****             break;
 1511              		.loc 1 296 13 is_stmt 1 view .LVU428
 296:Middlewares/lvgl/src/core/lv_disp.c ****             break;
 1512              		.loc 1 296 44 is_stmt 0 view .LVU429
 1513 018e 2046     		mov	r0, r4
 1514 0190 FFF7FEFF 		bl	lv_disp_get_hor_res
 1515              	.LVL159:
 296:Middlewares/lvgl/src/core/lv_disp.c ****             break;
 1516              		.loc 1 296 43 view .LVU430
 1517 0194 4042     		rsbs	r0, r0, #0
 1518              	.LVL160:
 1519              	.LBB208:
 1520              	.LBI208:
 162:Middlewares/lvgl/src/core/../misc/lv_anim.h **** {
 1521              		.loc 3 162 20 is_stmt 1 view .LVU431
 1522              	.LBB209:
 164:Middlewares/lvgl/src/core/../misc/lv_anim.h ****     a->current_value = start;
 1523              		.loc 3 164 5 view .LVU432
 164:Middlewares/lvgl/src/core/../misc/lv_anim.h ****     a->current_value = start;
 1524              		.loc 3 164 20 is_stmt 0 view .LVU433
 1525 0196 0795     		str	r5, [sp, #28]
 165:Middlewares/lvgl/src/core/../misc/lv_anim.h ****     a->end_value = end;
 1526              		.loc 3 165 5 is_stmt 1 view .LVU434
 165:Middlewares/lvgl/src/core/../misc/lv_anim.h ****     a->end_value = end;
 1527              		.loc 3 165 22 is_stmt 0 view .LVU435
 1528 0198 0895     		str	r5, [sp, #32]
 166:Middlewares/lvgl/src/core/../misc/lv_anim.h **** }
 1529              		.loc 3 166 5 is_stmt 1 view .LVU436
 166:Middlewares/lvgl/src/core/../misc/lv_anim.h **** }
 1530              		.loc 3 166 18 is_stmt 0 view .LVU437
 1531 019a 0990     		str	r0, [sp, #36]
 167:Middlewares/lvgl/src/core/../misc/lv_anim.h **** 
 1532              		.loc 3 167 1 view .LVU438
 1533 019c BAE7     		b	.L71
 1534              	.LVL161:
 1535              	.L76:
 167:Middlewares/lvgl/src/core/../misc/lv_anim.h **** 
 1536              		.loc 3 167 1 view .LVU439
 1537              	.LBE209:
 1538              	.LBE208:
 299:Middlewares/lvgl/src/core/lv_disp.c ****             lv_anim_set_values(&a_new, -lv_disp_get_hor_res(d), 0);
 1539              		.loc 1 299 13 is_stmt 1 view .LVU440
 1540              	.LBB210:
 1541              	.LBI210:
 131:Middlewares/lvgl/src/core/../misc/lv_anim.h **** {
 1542              		.loc 3 131 20 view .LVU441
 1543              	.LBB211:
 133:Middlewares/lvgl/src/core/../misc/lv_anim.h **** }
 1544              		.loc 3 133 5 view .LVU442
ARM GAS  /tmp/ccMI0ryM.s 			page 49


 133:Middlewares/lvgl/src/core/../misc/lv_anim.h **** }
 1545              		.loc 3 133 16 is_stmt 0 view .LVU443
 1546 019e 214E     		ldr	r6, .L85+8
 1547 01a0 1296     		str	r6, [sp, #72]
 1548              	.LVL162:
 133:Middlewares/lvgl/src/core/../misc/lv_anim.h **** }
 1549              		.loc 3 133 16 view .LVU444
 1550              	.LBE211:
 1551              	.LBE210:
 300:Middlewares/lvgl/src/core/lv_disp.c **** 
 1552              		.loc 1 300 13 is_stmt 1 view .LVU445
 300:Middlewares/lvgl/src/core/lv_disp.c **** 
 1553              		.loc 1 300 41 is_stmt 0 view .LVU446
 1554 01a2 2046     		mov	r0, r4
 1555 01a4 FFF7FEFF 		bl	lv_disp_get_hor_res
 1556              	.LVL163:
 300:Middlewares/lvgl/src/core/lv_disp.c **** 
 1557              		.loc 1 300 40 view .LVU447
 1558 01a8 4042     		rsbs	r0, r0, #0
 1559              	.LVL164:
 1560              	.LBB212:
 1561              	.LBI212:
 162:Middlewares/lvgl/src/core/../misc/lv_anim.h **** {
 1562              		.loc 3 162 20 is_stmt 1 view .LVU448
 1563              	.LBB213:
 164:Middlewares/lvgl/src/core/../misc/lv_anim.h ****     a->current_value = start;
 1564              		.loc 3 164 5 view .LVU449
 164:Middlewares/lvgl/src/core/../misc/lv_anim.h ****     a->current_value = start;
 1565              		.loc 3 164 20 is_stmt 0 view .LVU450
 1566 01aa 1890     		str	r0, [sp, #96]
 165:Middlewares/lvgl/src/core/../misc/lv_anim.h ****     a->end_value = end;
 1567              		.loc 3 165 5 is_stmt 1 view .LVU451
 165:Middlewares/lvgl/src/core/../misc/lv_anim.h ****     a->end_value = end;
 1568              		.loc 3 165 22 is_stmt 0 view .LVU452
 1569 01ac 1990     		str	r0, [sp, #100]
 166:Middlewares/lvgl/src/core/../misc/lv_anim.h **** }
 1570              		.loc 3 166 5 is_stmt 1 view .LVU453
 166:Middlewares/lvgl/src/core/../misc/lv_anim.h **** }
 1571              		.loc 3 166 18 is_stmt 0 view .LVU454
 1572 01ae 0025     		movs	r5, #0
 1573              	.LVL165:
 166:Middlewares/lvgl/src/core/../misc/lv_anim.h **** }
 1574              		.loc 3 166 18 view .LVU455
 1575 01b0 1A95     		str	r5, [sp, #104]
 1576              	.LVL166:
 166:Middlewares/lvgl/src/core/../misc/lv_anim.h **** }
 1577              		.loc 3 166 18 view .LVU456
 1578              	.LBE213:
 1579              	.LBE212:
 302:Middlewares/lvgl/src/core/lv_disp.c ****             lv_anim_set_values(&a_old, 0, lv_disp_get_hor_res(d));
 1580              		.loc 1 302 13 is_stmt 1 view .LVU457
 1581              	.LBB214:
 1582              	.LBI214:
 131:Middlewares/lvgl/src/core/../misc/lv_anim.h **** {
 1583              		.loc 3 131 20 view .LVU458
 1584              	.LBB215:
 133:Middlewares/lvgl/src/core/../misc/lv_anim.h **** }
ARM GAS  /tmp/ccMI0ryM.s 			page 50


 1585              		.loc 3 133 5 view .LVU459
 133:Middlewares/lvgl/src/core/../misc/lv_anim.h **** }
 1586              		.loc 3 133 16 is_stmt 0 view .LVU460
 1587 01b2 0196     		str	r6, [sp, #4]
 1588              	.LVL167:
 133:Middlewares/lvgl/src/core/../misc/lv_anim.h **** }
 1589              		.loc 3 133 16 view .LVU461
 1590              	.LBE215:
 1591              	.LBE214:
 303:Middlewares/lvgl/src/core/lv_disp.c ****             break;
 1592              		.loc 1 303 13 is_stmt 1 view .LVU462
 303:Middlewares/lvgl/src/core/lv_disp.c ****             break;
 1593              		.loc 1 303 43 is_stmt 0 view .LVU463
 1594 01b4 2046     		mov	r0, r4
 1595 01b6 FFF7FEFF 		bl	lv_disp_get_hor_res
 1596              	.LVL168:
 1597              	.LBB216:
 1598              	.LBI216:
 162:Middlewares/lvgl/src/core/../misc/lv_anim.h **** {
 1599              		.loc 3 162 20 is_stmt 1 view .LVU464
 1600              	.LBB217:
 164:Middlewares/lvgl/src/core/../misc/lv_anim.h ****     a->current_value = start;
 1601              		.loc 3 164 5 view .LVU465
 164:Middlewares/lvgl/src/core/../misc/lv_anim.h ****     a->current_value = start;
 1602              		.loc 3 164 20 is_stmt 0 view .LVU466
 1603 01ba 0795     		str	r5, [sp, #28]
 165:Middlewares/lvgl/src/core/../misc/lv_anim.h ****     a->end_value = end;
 1604              		.loc 3 165 5 is_stmt 1 view .LVU467
 165:Middlewares/lvgl/src/core/../misc/lv_anim.h ****     a->end_value = end;
 1605              		.loc 3 165 22 is_stmt 0 view .LVU468
 1606 01bc 0895     		str	r5, [sp, #32]
 166:Middlewares/lvgl/src/core/../misc/lv_anim.h **** }
 1607              		.loc 3 166 5 is_stmt 1 view .LVU469
 166:Middlewares/lvgl/src/core/../misc/lv_anim.h **** }
 1608              		.loc 3 166 18 is_stmt 0 view .LVU470
 1609 01be 0990     		str	r0, [sp, #36]
 167:Middlewares/lvgl/src/core/../misc/lv_anim.h **** 
 1610              		.loc 3 167 1 view .LVU471
 1611 01c0 A8E7     		b	.L71
 1612              	.LVL169:
 1613              	.L75:
 167:Middlewares/lvgl/src/core/../misc/lv_anim.h **** 
 1614              		.loc 3 167 1 view .LVU472
 1615              	.LBE217:
 1616              	.LBE216:
 306:Middlewares/lvgl/src/core/lv_disp.c ****             lv_anim_set_values(&a_new, lv_disp_get_ver_res(d), 0);
 1617              		.loc 1 306 13 is_stmt 1 view .LVU473
 1618              	.LBB218:
 1619              	.LBI218:
 131:Middlewares/lvgl/src/core/../misc/lv_anim.h **** {
 1620              		.loc 3 131 20 view .LVU474
 1621              	.LBB219:
 133:Middlewares/lvgl/src/core/../misc/lv_anim.h **** }
 1622              		.loc 3 133 5 view .LVU475
 133:Middlewares/lvgl/src/core/../misc/lv_anim.h **** }
 1623              		.loc 3 133 16 is_stmt 0 view .LVU476
 1624 01c2 194E     		ldr	r6, .L85+12
ARM GAS  /tmp/ccMI0ryM.s 			page 51


 1625 01c4 1296     		str	r6, [sp, #72]
 1626              	.LVL170:
 133:Middlewares/lvgl/src/core/../misc/lv_anim.h **** }
 1627              		.loc 3 133 16 view .LVU477
 1628              	.LBE219:
 1629              	.LBE218:
 307:Middlewares/lvgl/src/core/lv_disp.c **** 
 1630              		.loc 1 307 13 is_stmt 1 view .LVU478
 307:Middlewares/lvgl/src/core/lv_disp.c **** 
 1631              		.loc 1 307 40 is_stmt 0 view .LVU479
 1632 01c6 2046     		mov	r0, r4
 1633 01c8 FFF7FEFF 		bl	lv_disp_get_ver_res
 1634              	.LVL171:
 1635              	.LBB220:
 1636              	.LBI220:
 162:Middlewares/lvgl/src/core/../misc/lv_anim.h **** {
 1637              		.loc 3 162 20 is_stmt 1 view .LVU480
 1638              	.LBB221:
 164:Middlewares/lvgl/src/core/../misc/lv_anim.h ****     a->current_value = start;
 1639              		.loc 3 164 5 view .LVU481
 164:Middlewares/lvgl/src/core/../misc/lv_anim.h ****     a->current_value = start;
 1640              		.loc 3 164 20 is_stmt 0 view .LVU482
 1641 01cc 1890     		str	r0, [sp, #96]
 165:Middlewares/lvgl/src/core/../misc/lv_anim.h ****     a->end_value = end;
 1642              		.loc 3 165 5 is_stmt 1 view .LVU483
 165:Middlewares/lvgl/src/core/../misc/lv_anim.h ****     a->end_value = end;
 1643              		.loc 3 165 22 is_stmt 0 view .LVU484
 1644 01ce 1990     		str	r0, [sp, #100]
 166:Middlewares/lvgl/src/core/../misc/lv_anim.h **** }
 1645              		.loc 3 166 5 is_stmt 1 view .LVU485
 166:Middlewares/lvgl/src/core/../misc/lv_anim.h **** }
 1646              		.loc 3 166 18 is_stmt 0 view .LVU486
 1647 01d0 0025     		movs	r5, #0
 1648              	.LVL172:
 166:Middlewares/lvgl/src/core/../misc/lv_anim.h **** }
 1649              		.loc 3 166 18 view .LVU487
 1650 01d2 1A95     		str	r5, [sp, #104]
 1651              	.LVL173:
 166:Middlewares/lvgl/src/core/../misc/lv_anim.h **** }
 1652              		.loc 3 166 18 view .LVU488
 1653              	.LBE221:
 1654              	.LBE220:
 309:Middlewares/lvgl/src/core/lv_disp.c ****             lv_anim_set_values(&a_old, 0, -lv_disp_get_ver_res(d));
 1655              		.loc 1 309 13 is_stmt 1 view .LVU489
 1656              	.LBB222:
 1657              	.LBI222:
 131:Middlewares/lvgl/src/core/../misc/lv_anim.h **** {
 1658              		.loc 3 131 20 view .LVU490
 1659              	.LBB223:
 133:Middlewares/lvgl/src/core/../misc/lv_anim.h **** }
 1660              		.loc 3 133 5 view .LVU491
 133:Middlewares/lvgl/src/core/../misc/lv_anim.h **** }
 1661              		.loc 3 133 16 is_stmt 0 view .LVU492
 1662 01d4 0196     		str	r6, [sp, #4]
 1663              	.LVL174:
 133:Middlewares/lvgl/src/core/../misc/lv_anim.h **** }
 1664              		.loc 3 133 16 view .LVU493
ARM GAS  /tmp/ccMI0ryM.s 			page 52


 1665              	.LBE223:
 1666              	.LBE222:
 310:Middlewares/lvgl/src/core/lv_disp.c ****             break;
 1667              		.loc 1 310 13 is_stmt 1 view .LVU494
 310:Middlewares/lvgl/src/core/lv_disp.c ****             break;
 1668              		.loc 1 310 44 is_stmt 0 view .LVU495
 1669 01d6 2046     		mov	r0, r4
 1670 01d8 FFF7FEFF 		bl	lv_disp_get_ver_res
 1671              	.LVL175:
 310:Middlewares/lvgl/src/core/lv_disp.c ****             break;
 1672              		.loc 1 310 43 view .LVU496
 1673 01dc 4042     		rsbs	r0, r0, #0
 1674              	.LVL176:
 1675              	.LBB224:
 1676              	.LBI224:
 162:Middlewares/lvgl/src/core/../misc/lv_anim.h **** {
 1677              		.loc 3 162 20 is_stmt 1 view .LVU497
 1678              	.LBB225:
 164:Middlewares/lvgl/src/core/../misc/lv_anim.h ****     a->current_value = start;
 1679              		.loc 3 164 5 view .LVU498
 164:Middlewares/lvgl/src/core/../misc/lv_anim.h ****     a->current_value = start;
 1680              		.loc 3 164 20 is_stmt 0 view .LVU499
 1681 01de 0795     		str	r5, [sp, #28]
 165:Middlewares/lvgl/src/core/../misc/lv_anim.h ****     a->end_value = end;
 1682              		.loc 3 165 5 is_stmt 1 view .LVU500
 165:Middlewares/lvgl/src/core/../misc/lv_anim.h ****     a->end_value = end;
 1683              		.loc 3 165 22 is_stmt 0 view .LVU501
 1684 01e0 0895     		str	r5, [sp, #32]
 166:Middlewares/lvgl/src/core/../misc/lv_anim.h **** }
 1685              		.loc 3 166 5 is_stmt 1 view .LVU502
 166:Middlewares/lvgl/src/core/../misc/lv_anim.h **** }
 1686              		.loc 3 166 18 is_stmt 0 view .LVU503
 1687 01e2 0990     		str	r0, [sp, #36]
 167:Middlewares/lvgl/src/core/../misc/lv_anim.h **** 
 1688              		.loc 3 167 1 view .LVU504
 1689 01e4 96E7     		b	.L71
 1690              	.LVL177:
 1691              	.L74:
 167:Middlewares/lvgl/src/core/../misc/lv_anim.h **** 
 1692              		.loc 3 167 1 view .LVU505
 1693              	.LBE225:
 1694              	.LBE224:
 313:Middlewares/lvgl/src/core/lv_disp.c ****             lv_anim_set_values(&a_new, -lv_disp_get_ver_res(d), 0);
 1695              		.loc 1 313 13 is_stmt 1 view .LVU506
 1696              	.LBB226:
 1697              	.LBI226:
 131:Middlewares/lvgl/src/core/../misc/lv_anim.h **** {
 1698              		.loc 3 131 20 view .LVU507
 1699              	.LBB227:
 133:Middlewares/lvgl/src/core/../misc/lv_anim.h **** }
 1700              		.loc 3 133 5 view .LVU508
 133:Middlewares/lvgl/src/core/../misc/lv_anim.h **** }
 1701              		.loc 3 133 16 is_stmt 0 view .LVU509
 1702 01e6 104E     		ldr	r6, .L85+12
 1703 01e8 1296     		str	r6, [sp, #72]
 1704              	.LVL178:
 133:Middlewares/lvgl/src/core/../misc/lv_anim.h **** }
ARM GAS  /tmp/ccMI0ryM.s 			page 53


 1705              		.loc 3 133 16 view .LVU510
 1706              	.LBE227:
 1707              	.LBE226:
 314:Middlewares/lvgl/src/core/lv_disp.c **** 
 1708              		.loc 1 314 13 is_stmt 1 view .LVU511
 314:Middlewares/lvgl/src/core/lv_disp.c **** 
 1709              		.loc 1 314 41 is_stmt 0 view .LVU512
 1710 01ea 2046     		mov	r0, r4
 1711 01ec FFF7FEFF 		bl	lv_disp_get_ver_res
 1712              	.LVL179:
 314:Middlewares/lvgl/src/core/lv_disp.c **** 
 1713              		.loc 1 314 40 view .LVU513
 1714 01f0 4042     		rsbs	r0, r0, #0
 1715              	.LVL180:
 1716              	.LBB228:
 1717              	.LBI228:
 162:Middlewares/lvgl/src/core/../misc/lv_anim.h **** {
 1718              		.loc 3 162 20 is_stmt 1 view .LVU514
 1719              	.LBB229:
 164:Middlewares/lvgl/src/core/../misc/lv_anim.h ****     a->current_value = start;
 1720              		.loc 3 164 5 view .LVU515
 164:Middlewares/lvgl/src/core/../misc/lv_anim.h ****     a->current_value = start;
 1721              		.loc 3 164 20 is_stmt 0 view .LVU516
 1722 01f2 1890     		str	r0, [sp, #96]
 165:Middlewares/lvgl/src/core/../misc/lv_anim.h ****     a->end_value = end;
 1723              		.loc 3 165 5 is_stmt 1 view .LVU517
 165:Middlewares/lvgl/src/core/../misc/lv_anim.h ****     a->end_value = end;
 1724              		.loc 3 165 22 is_stmt 0 view .LVU518
 1725 01f4 1990     		str	r0, [sp, #100]
 166:Middlewares/lvgl/src/core/../misc/lv_anim.h **** }
 1726              		.loc 3 166 5 is_stmt 1 view .LVU519
 166:Middlewares/lvgl/src/core/../misc/lv_anim.h **** }
 1727              		.loc 3 166 18 is_stmt 0 view .LVU520
 1728 01f6 0025     		movs	r5, #0
 1729              	.LVL181:
 166:Middlewares/lvgl/src/core/../misc/lv_anim.h **** }
 1730              		.loc 3 166 18 view .LVU521
 1731 01f8 1A95     		str	r5, [sp, #104]
 1732              	.LVL182:
 166:Middlewares/lvgl/src/core/../misc/lv_anim.h **** }
 1733              		.loc 3 166 18 view .LVU522
 1734              	.LBE229:
 1735              	.LBE228:
 316:Middlewares/lvgl/src/core/lv_disp.c ****             lv_anim_set_values(&a_old, 0, lv_disp_get_ver_res(d));
 1736              		.loc 1 316 13 is_stmt 1 view .LVU523
 1737              	.LBB230:
 1738              	.LBI230:
 131:Middlewares/lvgl/src/core/../misc/lv_anim.h **** {
 1739              		.loc 3 131 20 view .LVU524
 1740              	.LBB231:
 133:Middlewares/lvgl/src/core/../misc/lv_anim.h **** }
 1741              		.loc 3 133 5 view .LVU525
 133:Middlewares/lvgl/src/core/../misc/lv_anim.h **** }
 1742              		.loc 3 133 16 is_stmt 0 view .LVU526
 1743 01fa 0196     		str	r6, [sp, #4]
 1744              	.LVL183:
 133:Middlewares/lvgl/src/core/../misc/lv_anim.h **** }
ARM GAS  /tmp/ccMI0ryM.s 			page 54


 1745              		.loc 3 133 16 view .LVU527
 1746              	.LBE231:
 1747              	.LBE230:
 317:Middlewares/lvgl/src/core/lv_disp.c ****             break;
 1748              		.loc 1 317 13 is_stmt 1 view .LVU528
 317:Middlewares/lvgl/src/core/lv_disp.c ****             break;
 1749              		.loc 1 317 43 is_stmt 0 view .LVU529
 1750 01fc 2046     		mov	r0, r4
 1751 01fe FFF7FEFF 		bl	lv_disp_get_ver_res
 1752              	.LVL184:
 1753              	.LBB232:
 1754              	.LBI232:
 162:Middlewares/lvgl/src/core/../misc/lv_anim.h **** {
 1755              		.loc 3 162 20 is_stmt 1 view .LVU530
 1756              	.LBB233:
 164:Middlewares/lvgl/src/core/../misc/lv_anim.h ****     a->current_value = start;
 1757              		.loc 3 164 5 view .LVU531
 164:Middlewares/lvgl/src/core/../misc/lv_anim.h ****     a->current_value = start;
 1758              		.loc 3 164 20 is_stmt 0 view .LVU532
 1759 0202 0795     		str	r5, [sp, #28]
 165:Middlewares/lvgl/src/core/../misc/lv_anim.h ****     a->end_value = end;
 1760              		.loc 3 165 5 is_stmt 1 view .LVU533
 165:Middlewares/lvgl/src/core/../misc/lv_anim.h ****     a->end_value = end;
 1761              		.loc 3 165 22 is_stmt 0 view .LVU534
 1762 0204 0895     		str	r5, [sp, #32]
 166:Middlewares/lvgl/src/core/../misc/lv_anim.h **** }
 1763              		.loc 3 166 5 is_stmt 1 view .LVU535
 166:Middlewares/lvgl/src/core/../misc/lv_anim.h **** }
 1764              		.loc 3 166 18 is_stmt 0 view .LVU536
 1765 0206 0990     		str	r0, [sp, #36]
 167:Middlewares/lvgl/src/core/../misc/lv_anim.h **** 
 1766              		.loc 3 167 1 view .LVU537
 1767 0208 84E7     		b	.L71
 1768              	.LVL185:
 1769              	.L72:
 167:Middlewares/lvgl/src/core/../misc/lv_anim.h **** 
 1770              		.loc 3 167 1 view .LVU538
 1771              	.LBE233:
 1772              	.LBE232:
 321:Middlewares/lvgl/src/core/lv_disp.c ****             lv_anim_set_values(&a_new, LV_OPA_TRANSP, LV_OPA_COVER);
 1773              		.loc 1 321 13 is_stmt 1 view .LVU539
 1774              	.LBB234:
 1775              	.LBI234:
 131:Middlewares/lvgl/src/core/../misc/lv_anim.h **** {
 1776              		.loc 3 131 20 view .LVU540
 1777              	.LBB235:
 133:Middlewares/lvgl/src/core/../misc/lv_anim.h **** }
 1778              		.loc 3 133 5 view .LVU541
 133:Middlewares/lvgl/src/core/../misc/lv_anim.h **** }
 1779              		.loc 3 133 16 is_stmt 0 view .LVU542
 1780 020a 084B     		ldr	r3, .L85+16
 1781 020c 1293     		str	r3, [sp, #72]
 1782              	.LVL186:
 133:Middlewares/lvgl/src/core/../misc/lv_anim.h **** }
 1783              		.loc 3 133 16 view .LVU543
 1784              	.LBE235:
 1785              	.LBE234:
ARM GAS  /tmp/ccMI0ryM.s 			page 55


 322:Middlewares/lvgl/src/core/lv_disp.c ****             break;
 1786              		.loc 1 322 13 is_stmt 1 view .LVU544
 1787              	.LBB236:
 1788              	.LBI236:
 162:Middlewares/lvgl/src/core/../misc/lv_anim.h **** {
 1789              		.loc 3 162 20 view .LVU545
 1790              	.LBB237:
 164:Middlewares/lvgl/src/core/../misc/lv_anim.h ****     a->current_value = start;
 1791              		.loc 3 164 5 view .LVU546
 164:Middlewares/lvgl/src/core/../misc/lv_anim.h ****     a->current_value = start;
 1792              		.loc 3 164 20 is_stmt 0 view .LVU547
 1793 020e 0023     		movs	r3, #0
 1794 0210 1893     		str	r3, [sp, #96]
 165:Middlewares/lvgl/src/core/../misc/lv_anim.h ****     a->end_value = end;
 1795              		.loc 3 165 5 is_stmt 1 view .LVU548
 165:Middlewares/lvgl/src/core/../misc/lv_anim.h ****     a->end_value = end;
 1796              		.loc 3 165 22 is_stmt 0 view .LVU549
 1797 0212 1993     		str	r3, [sp, #100]
 166:Middlewares/lvgl/src/core/../misc/lv_anim.h **** }
 1798              		.loc 3 166 5 is_stmt 1 view .LVU550
 166:Middlewares/lvgl/src/core/../misc/lv_anim.h **** }
 1799              		.loc 3 166 18 is_stmt 0 view .LVU551
 1800 0214 FF23     		movs	r3, #255
 1801 0216 1A93     		str	r3, [sp, #104]
 167:Middlewares/lvgl/src/core/../misc/lv_anim.h **** 
 1802              		.loc 3 167 1 view .LVU552
 1803 0218 7CE7     		b	.L71
 1804              	.L86:
 1805 021a 00BF     		.align	2
 1806              	.L85:
 1807 021c 00000000 		.word	scr_load_anim_start
 1808 0220 00000000 		.word	scr_anim_ready
 1809 0224 00000000 		.word	set_x_anim
 1810 0228 00000000 		.word	set_y_anim
 1811 022c 00000000 		.word	opa_scale_anim
 1812              	.LBE237:
 1813              	.LBE236:
 1814              		.cfi_endproc
 1815              	.LFE163:
 1817              		.section	.text.lv_disp_get_inactive_time,"ax",%progbits
 1818              		.align	1
 1819              		.global	lv_disp_get_inactive_time
 1820              		.syntax unified
 1821              		.thumb
 1822              		.thumb_func
 1824              	lv_disp_get_inactive_time:
 1825              	.LVL187:
 1826              	.LFB164:
 336:Middlewares/lvgl/src/core/lv_disp.c ****     if(disp) return lv_tick_elaps(disp->last_activity_time);
 1827              		.loc 1 336 1 is_stmt 1 view -0
 1828              		.cfi_startproc
 1829              		@ args = 0, pretend = 0, frame = 0
 1830              		@ frame_needed = 0, uses_anonymous_args = 0
 336:Middlewares/lvgl/src/core/lv_disp.c ****     if(disp) return lv_tick_elaps(disp->last_activity_time);
 1831              		.loc 1 336 1 is_stmt 0 view .LVU554
 1832 0000 38B5     		push	{r3, r4, r5, lr}
 1833              	.LCFI28:
ARM GAS  /tmp/ccMI0ryM.s 			page 56


 1834              		.cfi_def_cfa_offset 16
 1835              		.cfi_offset 3, -16
 1836              		.cfi_offset 4, -12
 1837              		.cfi_offset 5, -8
 1838              		.cfi_offset 14, -4
 337:Middlewares/lvgl/src/core/lv_disp.c **** 
 1839              		.loc 1 337 5 is_stmt 1 view .LVU555
 337:Middlewares/lvgl/src/core/lv_disp.c **** 
 1840              		.loc 1 337 7 is_stmt 0 view .LVU556
 1841 0002 30B1     		cbz	r0, .L88
 337:Middlewares/lvgl/src/core/lv_disp.c **** 
 1842              		.loc 1 337 14 is_stmt 1 discriminator 1 view .LVU557
 337:Middlewares/lvgl/src/core/lv_disp.c **** 
 1843              		.loc 1 337 21 is_stmt 0 discriminator 1 view .LVU558
 1844 0004 D0F85401 		ldr	r0, [r0, #340]
 1845              	.LVL188:
 337:Middlewares/lvgl/src/core/lv_disp.c **** 
 1846              		.loc 1 337 21 discriminator 1 view .LVU559
 1847 0008 FFF7FEFF 		bl	lv_tick_elaps
 1848              	.LVL189:
 1849 000c 0546     		mov	r5, r0
 1850              	.L87:
 349:Middlewares/lvgl/src/core/lv_disp.c **** 
 1851              		.loc 1 349 1 view .LVU560
 1852 000e 2846     		mov	r0, r5
 1853 0010 38BD     		pop	{r3, r4, r5, pc}
 1854              	.LVL190:
 1855              	.L88:
 339:Middlewares/lvgl/src/core/lv_disp.c ****     uint32_t t = UINT32_MAX;
 1856              		.loc 1 339 5 is_stmt 1 view .LVU561
 340:Middlewares/lvgl/src/core/lv_disp.c ****     d          = lv_disp_get_next(NULL);
 1857              		.loc 1 340 5 view .LVU562
 341:Middlewares/lvgl/src/core/lv_disp.c ****     while(d) {
 1858              		.loc 1 341 5 view .LVU563
 341:Middlewares/lvgl/src/core/lv_disp.c ****     while(d) {
 1859              		.loc 1 341 18 is_stmt 0 view .LVU564
 1860 0012 0020     		movs	r0, #0
 1861              	.LVL191:
 341:Middlewares/lvgl/src/core/lv_disp.c ****     while(d) {
 1862              		.loc 1 341 18 view .LVU565
 1863 0014 FFF7FEFF 		bl	lv_disp_get_next
 1864              	.LVL192:
 1865 0018 0446     		mov	r4, r0
 1866              	.LVL193:
 342:Middlewares/lvgl/src/core/lv_disp.c ****         uint32_t elaps = lv_tick_elaps(d->last_activity_time);
 1867              		.loc 1 342 5 is_stmt 1 view .LVU566
 340:Middlewares/lvgl/src/core/lv_disp.c ****     d          = lv_disp_get_next(NULL);
 1868              		.loc 1 340 14 is_stmt 0 view .LVU567
 1869 001a 4FF0FF35 		mov	r5, #-1
 342:Middlewares/lvgl/src/core/lv_disp.c ****         uint32_t elaps = lv_tick_elaps(d->last_activity_time);
 1870              		.loc 1 342 10 view .LVU568
 1871 001e 0AE0     		b	.L90
 1872              	.LVL194:
 1873              	.L91:
 1874              	.LBB238:
 343:Middlewares/lvgl/src/core/lv_disp.c ****         t = LV_MIN(t, elaps);
 1875              		.loc 1 343 9 is_stmt 1 view .LVU569
ARM GAS  /tmp/ccMI0ryM.s 			page 57


 343:Middlewares/lvgl/src/core/lv_disp.c ****         t = LV_MIN(t, elaps);
 1876              		.loc 1 343 26 is_stmt 0 view .LVU570
 1877 0020 D4F85401 		ldr	r0, [r4, #340]
 1878              	.LVL195:
 343:Middlewares/lvgl/src/core/lv_disp.c ****         t = LV_MIN(t, elaps);
 1879              		.loc 1 343 26 view .LVU571
 1880 0024 FFF7FEFF 		bl	lv_tick_elaps
 1881              	.LVL196:
 344:Middlewares/lvgl/src/core/lv_disp.c ****         d = lv_disp_get_next(d);
 1882              		.loc 1 344 9 is_stmt 1 view .LVU572
 344:Middlewares/lvgl/src/core/lv_disp.c ****         d = lv_disp_get_next(d);
 1883              		.loc 1 344 11 is_stmt 0 view .LVU573
 1884 0028 8542     		cmp	r5, r0
 1885 002a 28BF     		it	cs
 1886 002c 0546     		movcs	r5, r0
 1887              	.LVL197:
 345:Middlewares/lvgl/src/core/lv_disp.c ****     }
 1888              		.loc 1 345 9 is_stmt 1 view .LVU574
 345:Middlewares/lvgl/src/core/lv_disp.c ****     }
 1889              		.loc 1 345 13 is_stmt 0 view .LVU575
 1890 002e 2046     		mov	r0, r4
 1891              	.LVL198:
 345:Middlewares/lvgl/src/core/lv_disp.c ****     }
 1892              		.loc 1 345 13 view .LVU576
 1893 0030 FFF7FEFF 		bl	lv_disp_get_next
 1894              	.LVL199:
 1895 0034 0446     		mov	r4, r0
 1896              	.LVL200:
 1897              	.L90:
 345:Middlewares/lvgl/src/core/lv_disp.c ****     }
 1898              		.loc 1 345 13 view .LVU577
 1899              	.LBE238:
 342:Middlewares/lvgl/src/core/lv_disp.c ****         uint32_t elaps = lv_tick_elaps(d->last_activity_time);
 1900              		.loc 1 342 10 is_stmt 1 view .LVU578
 1901 0036 002C     		cmp	r4, #0
 1902 0038 F2D1     		bne	.L91
 342:Middlewares/lvgl/src/core/lv_disp.c ****         uint32_t elaps = lv_tick_elaps(d->last_activity_time);
 1903              		.loc 1 342 10 is_stmt 0 view .LVU579
 1904 003a E8E7     		b	.L87
 1905              		.cfi_endproc
 1906              	.LFE164:
 1908              		.section	.text.lv_disp_trig_activity,"ax",%progbits
 1909              		.align	1
 1910              		.global	lv_disp_trig_activity
 1911              		.syntax unified
 1912              		.thumb
 1913              		.thumb_func
 1915              	lv_disp_trig_activity:
 1916              	.LVL201:
 1917              	.LFB165:
 356:Middlewares/lvgl/src/core/lv_disp.c ****     if(!disp) disp = lv_disp_get_default();
 1918              		.loc 1 356 1 is_stmt 1 view -0
 1919              		.cfi_startproc
 1920              		@ args = 0, pretend = 0, frame = 0
 1921              		@ frame_needed = 0, uses_anonymous_args = 0
 356:Middlewares/lvgl/src/core/lv_disp.c ****     if(!disp) disp = lv_disp_get_default();
 1922              		.loc 1 356 1 is_stmt 0 view .LVU581
ARM GAS  /tmp/ccMI0ryM.s 			page 58


 1923 0000 10B5     		push	{r4, lr}
 1924              	.LCFI29:
 1925              		.cfi_def_cfa_offset 8
 1926              		.cfi_offset 4, -8
 1927              		.cfi_offset 14, -4
 357:Middlewares/lvgl/src/core/lv_disp.c ****     if(!disp) {
 1928              		.loc 1 357 5 is_stmt 1 view .LVU582
 357:Middlewares/lvgl/src/core/lv_disp.c ****     if(!disp) {
 1929              		.loc 1 357 7 is_stmt 0 view .LVU583
 1930 0002 0446     		mov	r4, r0
 1931 0004 28B1     		cbz	r0, .L97
 1932              	.L94:
 358:Middlewares/lvgl/src/core/lv_disp.c ****         LV_LOG_WARN("lv_disp_trig_activity: no display registered");
 1933              		.loc 1 358 5 is_stmt 1 view .LVU584
 358:Middlewares/lvgl/src/core/lv_disp.c ****         LV_LOG_WARN("lv_disp_trig_activity: no display registered");
 1934              		.loc 1 358 7 is_stmt 0 view .LVU585
 1935 0006 1CB1     		cbz	r4, .L93
 363:Middlewares/lvgl/src/core/lv_disp.c **** }
 1936              		.loc 1 363 5 is_stmt 1 view .LVU586
 363:Middlewares/lvgl/src/core/lv_disp.c **** }
 1937              		.loc 1 363 32 is_stmt 0 view .LVU587
 1938 0008 FFF7FEFF 		bl	lv_tick_get
 1939              	.LVL202:
 363:Middlewares/lvgl/src/core/lv_disp.c **** }
 1940              		.loc 1 363 30 view .LVU588
 1941 000c C4F85401 		str	r0, [r4, #340]
 1942              	.L93:
 364:Middlewares/lvgl/src/core/lv_disp.c **** 
 1943              		.loc 1 364 1 view .LVU589
 1944 0010 10BD     		pop	{r4, pc}
 1945              	.LVL203:
 1946              	.L97:
 357:Middlewares/lvgl/src/core/lv_disp.c ****     if(!disp) {
 1947              		.loc 1 357 15 is_stmt 1 discriminator 1 view .LVU590
 357:Middlewares/lvgl/src/core/lv_disp.c ****     if(!disp) {
 1948              		.loc 1 357 22 is_stmt 0 discriminator 1 view .LVU591
 1949 0012 FFF7FEFF 		bl	lv_disp_get_default
 1950              	.LVL204:
 357:Middlewares/lvgl/src/core/lv_disp.c ****     if(!disp) {
 1951              		.loc 1 357 22 discriminator 1 view .LVU592
 1952 0016 0446     		mov	r4, r0
 1953              	.LVL205:
 357:Middlewares/lvgl/src/core/lv_disp.c ****     if(!disp) {
 1954              		.loc 1 357 22 discriminator 1 view .LVU593
 1955 0018 F5E7     		b	.L94
 1956              		.cfi_endproc
 1957              	.LFE165:
 1959              		.section	.text.lv_disp_clean_dcache,"ax",%progbits
 1960              		.align	1
 1961              		.global	lv_disp_clean_dcache
 1962              		.syntax unified
 1963              		.thumb
 1964              		.thumb_func
 1966              	lv_disp_clean_dcache:
 1967              	.LVL206:
 1968              	.LFB166:
 371:Middlewares/lvgl/src/core/lv_disp.c ****     if(!disp) disp = lv_disp_get_default();
ARM GAS  /tmp/ccMI0ryM.s 			page 59


 1969              		.loc 1 371 1 is_stmt 1 view -0
 1970              		.cfi_startproc
 1971              		@ args = 0, pretend = 0, frame = 0
 1972              		@ frame_needed = 0, uses_anonymous_args = 0
 371:Middlewares/lvgl/src/core/lv_disp.c ****     if(!disp) disp = lv_disp_get_default();
 1973              		.loc 1 371 1 is_stmt 0 view .LVU595
 1974 0000 08B5     		push	{r3, lr}
 1975              	.LCFI30:
 1976              		.cfi_def_cfa_offset 8
 1977              		.cfi_offset 3, -8
 1978              		.cfi_offset 14, -4
 372:Middlewares/lvgl/src/core/lv_disp.c ****     if(!disp) {
 1979              		.loc 1 372 5 is_stmt 1 view .LVU596
 372:Middlewares/lvgl/src/core/lv_disp.c ****     if(!disp) {
 1980              		.loc 1 372 7 is_stmt 0 view .LVU597
 1981 0002 0346     		mov	r3, r0
 1982 0004 28B1     		cbz	r0, .L102
 1983              	.L99:
 373:Middlewares/lvgl/src/core/lv_disp.c ****         LV_LOG_WARN("lv_disp_clean_dcache: no display registered");
 1984              		.loc 1 373 5 is_stmt 1 view .LVU598
 373:Middlewares/lvgl/src/core/lv_disp.c ****         LV_LOG_WARN("lv_disp_clean_dcache: no display registered");
 1985              		.loc 1 373 7 is_stmt 0 view .LVU599
 1986 0006 1BB1     		cbz	r3, .L98
 378:Middlewares/lvgl/src/core/lv_disp.c ****         disp->driver->clean_dcache_cb(disp->driver);
 1987              		.loc 1 378 5 is_stmt 1 view .LVU600
 378:Middlewares/lvgl/src/core/lv_disp.c ****         disp->driver->clean_dcache_cb(disp->driver);
 1988              		.loc 1 378 12 is_stmt 0 view .LVU601
 1989 0008 1868     		ldr	r0, [r3]
 1990              	.LVL207:
 378:Middlewares/lvgl/src/core/lv_disp.c ****         disp->driver->clean_dcache_cb(disp->driver);
 1991              		.loc 1 378 20 view .LVU602
 1992 000a 036A     		ldr	r3, [r0, #32]
 1993              	.LVL208:
 378:Middlewares/lvgl/src/core/lv_disp.c ****         disp->driver->clean_dcache_cb(disp->driver);
 1994              		.loc 1 378 7 view .LVU603
 1995 000c 03B1     		cbz	r3, .L98
 379:Middlewares/lvgl/src/core/lv_disp.c **** }
 1996              		.loc 1 379 9 is_stmt 1 view .LVU604
 1997 000e 9847     		blx	r3
 1998              	.LVL209:
 1999              	.L98:
 380:Middlewares/lvgl/src/core/lv_disp.c **** 
 2000              		.loc 1 380 1 is_stmt 0 view .LVU605
 2001 0010 08BD     		pop	{r3, pc}
 2002              	.LVL210:
 2003              	.L102:
 372:Middlewares/lvgl/src/core/lv_disp.c ****     if(!disp) {
 2004              		.loc 1 372 15 is_stmt 1 discriminator 1 view .LVU606
 372:Middlewares/lvgl/src/core/lv_disp.c ****     if(!disp) {
 2005              		.loc 1 372 22 is_stmt 0 discriminator 1 view .LVU607
 2006 0012 FFF7FEFF 		bl	lv_disp_get_default
 2007              	.LVL211:
 372:Middlewares/lvgl/src/core/lv_disp.c ****     if(!disp) {
 2008              		.loc 1 372 22 discriminator 1 view .LVU608
 2009 0016 0346     		mov	r3, r0
 2010              	.LVL212:
 372:Middlewares/lvgl/src/core/lv_disp.c ****     if(!disp) {
ARM GAS  /tmp/ccMI0ryM.s 			page 60


 2011              		.loc 1 372 22 discriminator 1 view .LVU609
 2012 0018 F5E7     		b	.L99
 2013              		.cfi_endproc
 2014              	.LFE166:
 2016              		.section	.text._lv_disp_get_refr_timer,"ax",%progbits
 2017              		.align	1
 2018              		.global	_lv_disp_get_refr_timer
 2019              		.syntax unified
 2020              		.thumb
 2021              		.thumb_func
 2023              	_lv_disp_get_refr_timer:
 2024              	.LVL213:
 2025              	.LFB167:
 389:Middlewares/lvgl/src/core/lv_disp.c ****     if(!disp) disp = lv_disp_get_default();
 2026              		.loc 1 389 1 is_stmt 1 view -0
 2027              		.cfi_startproc
 2028              		@ args = 0, pretend = 0, frame = 0
 2029              		@ frame_needed = 0, uses_anonymous_args = 0
 389:Middlewares/lvgl/src/core/lv_disp.c ****     if(!disp) disp = lv_disp_get_default();
 2030              		.loc 1 389 1 is_stmt 0 view .LVU611
 2031 0000 08B5     		push	{r3, lr}
 2032              	.LCFI31:
 2033              		.cfi_def_cfa_offset 8
 2034              		.cfi_offset 3, -8
 2035              		.cfi_offset 14, -4
 390:Middlewares/lvgl/src/core/lv_disp.c ****     if(!disp) {
 2036              		.loc 1 390 5 is_stmt 1 view .LVU612
 390:Middlewares/lvgl/src/core/lv_disp.c ****     if(!disp) {
 2037              		.loc 1 390 7 is_stmt 0 view .LVU613
 2038 0002 0346     		mov	r3, r0
 2039 0004 10B1     		cbz	r0, .L108
 2040              	.L104:
 391:Middlewares/lvgl/src/core/lv_disp.c ****         LV_LOG_WARN("lv_disp_get_refr_timer: no display registered");
 2041              		.loc 1 391 5 is_stmt 1 view .LVU614
 391:Middlewares/lvgl/src/core/lv_disp.c ****         LV_LOG_WARN("lv_disp_get_refr_timer: no display registered");
 2042              		.loc 1 391 7 is_stmt 0 view .LVU615
 2043 0006 2BB1     		cbz	r3, .L106
 396:Middlewares/lvgl/src/core/lv_disp.c **** }
 2044              		.loc 1 396 5 is_stmt 1 view .LVU616
 396:Middlewares/lvgl/src/core/lv_disp.c **** }
 2045              		.loc 1 396 16 is_stmt 0 view .LVU617
 2046 0008 5868     		ldr	r0, [r3, #4]
 2047              	.LVL214:
 2048              	.L103:
 397:Middlewares/lvgl/src/core/lv_disp.c **** 
 2049              		.loc 1 397 1 view .LVU618
 2050 000a 08BD     		pop	{r3, pc}
 2051              	.LVL215:
 2052              	.L108:
 390:Middlewares/lvgl/src/core/lv_disp.c ****     if(!disp) {
 2053              		.loc 1 390 15 is_stmt 1 discriminator 1 view .LVU619
 390:Middlewares/lvgl/src/core/lv_disp.c ****     if(!disp) {
 2054              		.loc 1 390 22 is_stmt 0 discriminator 1 view .LVU620
 2055 000c FFF7FEFF 		bl	lv_disp_get_default
 2056              	.LVL216:
 390:Middlewares/lvgl/src/core/lv_disp.c ****     if(!disp) {
 2057              		.loc 1 390 22 discriminator 1 view .LVU621
ARM GAS  /tmp/ccMI0ryM.s 			page 61


 2058 0010 0346     		mov	r3, r0
 2059              	.LVL217:
 390:Middlewares/lvgl/src/core/lv_disp.c ****     if(!disp) {
 2060              		.loc 1 390 22 discriminator 1 view .LVU622
 2061 0012 F8E7     		b	.L104
 2062              	.L106:
 393:Middlewares/lvgl/src/core/lv_disp.c ****     }
 2063              		.loc 1 393 16 view .LVU623
 2064 0014 1846     		mov	r0, r3
 2065              	.LVL218:
 393:Middlewares/lvgl/src/core/lv_disp.c ****     }
 2066              		.loc 1 393 16 view .LVU624
 2067 0016 F8E7     		b	.L103
 2068              		.cfi_endproc
 2069              	.LFE167:
 2071              		.text
 2072              	.Letext0:
 2073              		.file 4 "/home/akinya/gcc-arm-none-eabi/arm-none-eabi/include/machine/_default_types.h"
 2074              		.file 5 "/home/akinya/gcc-arm-none-eabi/arm-none-eabi/include/sys/_stdint.h"
 2075              		.file 6 "Middlewares/lvgl/src/core/../hal/../misc/lv_color.h"
 2076              		.file 7 "Middlewares/lvgl/src/core/../hal/../misc/lv_area.h"
 2077              		.file 8 "Middlewares/lvgl/src/core/../hal/../misc/lv_ll.h"
 2078              		.file 9 "Middlewares/lvgl/src/core/../hal/../misc/lv_timer.h"
 2079              		.file 10 "Middlewares/lvgl/src/core/../hal/lv_hal_disp.h"
 2080              		.file 11 "Middlewares/lvgl/src/core/lv_theme.h"
 2081              		.file 12 "Middlewares/lvgl/src/core/lv_obj.h"
 2082              		.file 13 "Middlewares/lvgl/src/core/lv_group.h"
 2083              		.file 14 "Middlewares/lvgl/src/core/../misc/../font/lv_font.h"
 2084              		.file 15 "Middlewares/lvgl/src/core/../misc/lv_style.h"
 2085              		.file 16 "Middlewares/lvgl/src/core/lv_obj_scroll.h"
 2086              		.file 17 "Middlewares/lvgl/src/core/lv_obj_style.h"
 2087              		.file 18 "Middlewares/lvgl/src/core/lv_obj_class.h"
 2088              		.file 19 "Middlewares/lvgl/src/core/lv_event.h"
 2089              		.file 20 "Middlewares/lvgl/src/core/lv_obj_tree.h"
 2090              		.file 21 "Middlewares/lvgl/src/core/lv_obj_pos.h"
 2091              		.file 22 "Middlewares/lvgl/src/core/lv_obj_style_gen.h"
 2092              		.file 23 "Middlewares/lvgl/src/core/../hal/lv_hal_tick.h"
 2093              		.file 24 "Middlewares/lvgl/src/core/../core/lv_refr.h"
ARM GAS  /tmp/ccMI0ryM.s 			page 62

