ARM GAS  /tmp/cc8MR0Sw.s 			page 1


   1              		.cpu cortex-m4
   2              		.arch armv7e-m
   3              		.fpu fpv4-sp-d16
   4              		.eabi_attribute 27, 1
   5              		.eabi_attribute 28, 1
   6              		.eabi_attribute 20, 1
   7              		.eabi_attribute 21, 1
   8              		.eabi_attribute 23, 3
   9              		.eabi_attribute 24, 1
  10              		.eabi_attribute 25, 1
  11              		.eabi_attribute 26, 1
  12              		.eabi_attribute 30, 1
  13              		.eabi_attribute 34, 1
  14              		.eabi_attribute 18, 4
  15              		.file	"lv_example_chart_5.c"
  16              		.text
  17              	.Ltext0:
  18              		.cfi_sections	.debug_frame
  19              		.section	.text.slider_y_event_cb,"ax",%progbits
  20              		.align	1
  21              		.syntax unified
  22              		.thumb
  23              		.thumb_func
  25              	slider_y_event_cb:
  26              	.LVL0:
  27              	.LFB185:
  28              		.file 1 "Middlewares/lvgl/examples/widgets/chart/lv_example_chart_5.c"
   1:Middlewares/lvgl/examples/widgets/chart/lv_example_chart_5.c **** #include "../../lv_examples.h"
   2:Middlewares/lvgl/examples/widgets/chart/lv_example_chart_5.c **** #if LV_USE_CHART && LV_USE_SLIDER && LV_BUILD_EXAMPLES
   3:Middlewares/lvgl/examples/widgets/chart/lv_example_chart_5.c **** 
   4:Middlewares/lvgl/examples/widgets/chart/lv_example_chart_5.c **** static lv_obj_t * chart;
   5:Middlewares/lvgl/examples/widgets/chart/lv_example_chart_5.c **** /* Source: https://github.com/ankur219/ECG-Arrhythmia-classification/blob/642230149583adfae1e4bd26c
   6:Middlewares/lvgl/examples/widgets/chart/lv_example_chart_5.c **** static const lv_coord_t ecg_sample[] = {
   7:Middlewares/lvgl/examples/widgets/chart/lv_example_chart_5.c ****     -2, 2, 0, -15, -39, -63, -71, -68, -67, -69, -84, -95, -104, -107, -108, -107, -107, -107, -107
   8:Middlewares/lvgl/examples/widgets/chart/lv_example_chart_5.c ****     -112, -100, -89, -83, -71, -64, -58, -58, -62, -62, -58, -51, -46, -39, -27, -10, 4, 7, 1, -3, 
   9:Middlewares/lvgl/examples/widgets/chart/lv_example_chart_5.c ****     13, 7, 12, 15, 18, 21, 13, 6, 9, 8, 17, 19, 13, 11, 11, 11, 23, 30, 37, 34, 25, 14, 15, 19, 28,
  10:Middlewares/lvgl/examples/widgets/chart/lv_example_chart_5.c ****     39, 37, 37, 34, 30, 32, 22, 29, 31, 33, 37, 23, 13, 7, 2, 4, -2, 2, 11, 22, 33, 19, -1, -27, -5
  11:Middlewares/lvgl/examples/widgets/chart/lv_example_chart_5.c ****     -49, -18, 35, 113, 230, 369, 525, 651, 722, 730, 667, 563, 454, 357, 305, 288, 274, 255, 212, 1
  12:Middlewares/lvgl/examples/widgets/chart/lv_example_chart_5.c ****     -13, -53, -78, -91, -101, -113, -124, -131, -131, -131, -129, -128, -129, -125, -123, -123, -12
  13:Middlewares/lvgl/examples/widgets/chart/lv_example_chart_5.c ****     -159, -166, -183, -205, -227, -243, -248, -246, -254, -280, -327, -381, -429, -473, -517, -556,
  14:Middlewares/lvgl/examples/widgets/chart/lv_example_chart_5.c ****     -620, -614, -604, -591, -574, -540, -497, -441, -389, -358, -336, -313, -284, -222, -167, -114,
  15:Middlewares/lvgl/examples/widgets/chart/lv_example_chart_5.c ****     38, 52, 58, 56, 56, 57, 68, 77, 86, 86, 80, 69, 67, 70, 82, 85, 89, 90, 89, 89, 88, 91, 96, 97,
  16:Middlewares/lvgl/examples/widgets/chart/lv_example_chart_5.c ****     96, 105, 106, 110, 102, 100, 96, 98, 97, 101, 98, 99, 100, 107, 113, 119, 115, 110, 96, 85, 73,
  17:Middlewares/lvgl/examples/widgets/chart/lv_example_chart_5.c ****     78, 75, 85, 100, 114, 113, 105, 96, 84, 74, 66, 60, 75, 85, 89, 83, 67, 61, 67, 73, 79, 74, 63,
  18:Middlewares/lvgl/examples/widgets/chart/lv_example_chart_5.c ****     48, 45, 46, 55, 62, 55, 49, 43, 50, 59, 63, 57, 40, 31, 23, 25, 27, 31, 35, 34, 30, 36, 34, 42,
  19:Middlewares/lvgl/examples/widgets/chart/lv_example_chart_5.c ****     47, 32, 30, 32, 52, 67, 73, 71, 63, 54, 53, 45, 41, 28, 13, 3, 1, 4, 4, -8, -23, -32, -31, -19,
  20:Middlewares/lvgl/examples/widgets/chart/lv_example_chart_5.c ****     24, 27, 29, 25, 22, 26, 32, 42, 51, 56, 60, 57, 55, 53, 53, 54, 59, 54, 49, 26, -3, -11, -20, -
  21:Middlewares/lvgl/examples/widgets/chart/lv_example_chart_5.c ****     -212, -123, 8, 103, 142, 147, 120, 105, 98, 93, 81, 61, 40, 26, 28, 30, 30, 27, 19, 17, 21, 20,
  22:Middlewares/lvgl/examples/widgets/chart/lv_example_chart_5.c ****     35, 20, 7, 1, 10, 18, 27, 22, 6, -4, -2, 3, 6, -2, -13, -14, -10, -2, 3, 2, -1, -5, -10, -19, -
  23:Middlewares/lvgl/examples/widgets/chart/lv_example_chart_5.c ****     -68, -77, -86, -101, -110, -117, -115, -104, -92, -84, -85, -84, -73, -65, -52, -50, -45, -35, 
  24:Middlewares/lvgl/examples/widgets/chart/lv_example_chart_5.c ****     26, 28, 28, 30, 28, 25, 28, 33, 42, 42, 36, 23, 9, 0, 1, -4, 1, -4, -4, 1, 5, 9, 9, -3, -1, -18
  25:Middlewares/lvgl/examples/widgets/chart/lv_example_chart_5.c ****     -272, -340, -408, -446, -537, -643, -777, -894, -920, -853, -697, -461, -251, -60, 58, 103, 129
  26:Middlewares/lvgl/examples/widgets/chart/lv_example_chart_5.c ****     178, 185, 190, 193, 200, 208, 215, 225, 224, 232, 234, 240, 240, 236, 229, 226, 224, 232, 233, 
  27:Middlewares/lvgl/examples/widgets/chart/lv_example_chart_5.c ****     223, 231, 226, 223, 219, 218, 223, 223, 223, 233, 245, 268, 286, 296, 295, 283, 271, 263, 252, 
  28:Middlewares/lvgl/examples/widgets/chart/lv_example_chart_5.c ****     186, 171, 152, 133, 117, 114, 110, 107, 96, 80, 63, 48, 40, 38, 34, 28, 15, 2, -7, -11, -14, -1
  29:Middlewares/lvgl/examples/widgets/chart/lv_example_chart_5.c ****     -58, -63, -61, -52, -50, -48, -61, -59, -58, -54, -47, -52, -62, -61, -64, -54, -52, -59, -69, 
  30:Middlewares/lvgl/examples/widgets/chart/lv_example_chart_5.c ****     -74, -78, -81, -80, -73, -65, -57, -53, -51, -47, -35, -27, -22, -22, -24, -21, -17, -13, -10, 
ARM GAS  /tmp/cc8MR0Sw.s 			page 2


  31:Middlewares/lvgl/examples/widgets/chart/lv_example_chart_5.c ****     -12, -2, 7, -1, -12, -16, -13, -2, 2, -4, -5, -2, 9, 19, 19, 14, 11, 13, 19, 21, 20, 18, 19, 19
  32:Middlewares/lvgl/examples/widgets/chart/lv_example_chart_5.c ****     9, 3, -5, -9, -5, -3, -2, -3, -3, 2, 8, 9, 9, 5, 6, 8, 8, 7, 4, 3, 4, 5, 3, 5, 5, 13, 13, 12, 1
  33:Middlewares/lvgl/examples/widgets/chart/lv_example_chart_5.c ****     14, 7, 10, 15, 16, 11, 12, 10, 13, 9, -2, -4, -2, 7, 16, 16, 17, 16, 7, -1, -16, -18, -16, -9, 
  34:Middlewares/lvgl/examples/widgets/chart/lv_example_chart_5.c ****     -3, -4, -10, -19, -20, -16, -9, -9, -23, -40, -48, -43, -33, -19, -21, -26, -31, -33, -19, 0, 1
  35:Middlewares/lvgl/examples/widgets/chart/lv_example_chart_5.c ****     -63, -67, -59, -52, -51, -50, -49, -42, -26, -21, -15, -20, -23, -22, -19, -12, -8, 5, 18, 27, 
  36:Middlewares/lvgl/examples/widgets/chart/lv_example_chart_5.c ****     23, 17, 14, 17, 21, 25, 2, -45, -121, -196, -226, -200, -118, -9, 73, 126, 131, 114, 87, 60, 42
  37:Middlewares/lvgl/examples/widgets/chart/lv_example_chart_5.c ****     25, 12, 9, 7, 3, 2, -8, -11, 2, 23, 38, 41, 23, 9, 10, 13, 16, 8, -8, -17, -23, -26, -25, -21, 
  38:Middlewares/lvgl/examples/widgets/chart/lv_example_chart_5.c ****     -19, -22, -29, -40, -48, -48, -54, -55, -66, -82, -85, -90, -92, -98, -114, -119, -124, -129, -
  39:Middlewares/lvgl/examples/widgets/chart/lv_example_chart_5.c ****     -124, -99, -85, -72, -65, -65, -65, -66, -63, -64, -64, -58, -46, -26, -9, 2, 2, 4, 0, 1, 4, 3,
  40:Middlewares/lvgl/examples/widgets/chart/lv_example_chart_5.c ****     0, 10, 18, 20, 6, 2, -9, -7, -3, -3, -2, -7, -12, -5, 5, 24, 36, 31, 25, 6, 3, 7, 12, 17, 11, 0
  41:Middlewares/lvgl/examples/widgets/chart/lv_example_chart_5.c ****     -6, -2, -2, -6, -2, 2, 14, 24, 22, 15, 8, 4, 6, 7, 12, 16, 25, 20, 7, -16, -41, -60, -67, -65, 
  42:Middlewares/lvgl/examples/widgets/chart/lv_example_chart_5.c ****     84, 175, 302, 455, 603, 707, 743, 714, 625, 519, 414, 337, 300, 281, 263, 239, 197, 163, 136, 1
  43:Middlewares/lvgl/examples/widgets/chart/lv_example_chart_5.c ****     -66, -74, -79, -92, -107, -117, -127, -129, -135, -139, -141, -155, -159, -167, -171, -169, -17
  44:Middlewares/lvgl/examples/widgets/chart/lv_example_chart_5.c ****     -202, -223, -235, -243, -237, -240, -256, -298, -345, -393, -432, -475, -518, -565, -596, -619,
  45:Middlewares/lvgl/examples/widgets/chart/lv_example_chart_5.c ****     -599, -583, -559, -524, -477, -425, -383, -357, -331, -301, -252, -198, -143, -96, -57, -29, -8
  46:Middlewares/lvgl/examples/widgets/chart/lv_example_chart_5.c ****     70, 74, 76, 79, 82, 79, 75, 62,
  47:Middlewares/lvgl/examples/widgets/chart/lv_example_chart_5.c **** };
  48:Middlewares/lvgl/examples/widgets/chart/lv_example_chart_5.c **** 
  49:Middlewares/lvgl/examples/widgets/chart/lv_example_chart_5.c **** static void slider_x_event_cb(lv_event_t * e)
  50:Middlewares/lvgl/examples/widgets/chart/lv_example_chart_5.c **** {
  51:Middlewares/lvgl/examples/widgets/chart/lv_example_chart_5.c ****     lv_obj_t * obj = lv_event_get_target(e);
  52:Middlewares/lvgl/examples/widgets/chart/lv_example_chart_5.c ****     int32_t v = lv_slider_get_value(obj);
  53:Middlewares/lvgl/examples/widgets/chart/lv_example_chart_5.c ****     lv_chart_set_zoom_x(chart, v);
  54:Middlewares/lvgl/examples/widgets/chart/lv_example_chart_5.c **** }
  55:Middlewares/lvgl/examples/widgets/chart/lv_example_chart_5.c **** 
  56:Middlewares/lvgl/examples/widgets/chart/lv_example_chart_5.c **** static void slider_y_event_cb(lv_event_t * e)
  57:Middlewares/lvgl/examples/widgets/chart/lv_example_chart_5.c **** {
  29              		.loc 1 57 1 view -0
  30              		.cfi_startproc
  31              		@ args = 0, pretend = 0, frame = 0
  32              		@ frame_needed = 0, uses_anonymous_args = 0
  33              		.loc 1 57 1 is_stmt 0 view .LVU1
  34 0000 08B5     		push	{r3, lr}
  35              	.LCFI0:
  36              		.cfi_def_cfa_offset 8
  37              		.cfi_offset 3, -8
  38              		.cfi_offset 14, -4
  58:Middlewares/lvgl/examples/widgets/chart/lv_example_chart_5.c ****     lv_obj_t * obj = lv_event_get_target(e);
  39              		.loc 1 58 5 is_stmt 1 view .LVU2
  40              		.loc 1 58 22 is_stmt 0 view .LVU3
  41 0002 FFF7FEFF 		bl	lv_event_get_target
  42              	.LVL1:
  59:Middlewares/lvgl/examples/widgets/chart/lv_example_chart_5.c ****     int32_t v = lv_slider_get_value(obj);
  43              		.loc 1 59 5 is_stmt 1 view .LVU4
  44              	.LBB10:
  45              	.LBI10:
  46              		.file 2 "Middlewares/lvgl/examples/widgets/chart/../../../src/widgets/lv_slider.h"
   1:Middlewares/lvgl/examples/widgets/chart/../../../src/widgets/lv_slider.h **** /**
   2:Middlewares/lvgl/examples/widgets/chart/../../../src/widgets/lv_slider.h ****  * @file lv_slider.h
   3:Middlewares/lvgl/examples/widgets/chart/../../../src/widgets/lv_slider.h ****  *
   4:Middlewares/lvgl/examples/widgets/chart/../../../src/widgets/lv_slider.h ****  */
   5:Middlewares/lvgl/examples/widgets/chart/../../../src/widgets/lv_slider.h **** 
   6:Middlewares/lvgl/examples/widgets/chart/../../../src/widgets/lv_slider.h **** #ifndef LV_SLIDER_H
   7:Middlewares/lvgl/examples/widgets/chart/../../../src/widgets/lv_slider.h **** #define LV_SLIDER_H
   8:Middlewares/lvgl/examples/widgets/chart/../../../src/widgets/lv_slider.h **** 
   9:Middlewares/lvgl/examples/widgets/chart/../../../src/widgets/lv_slider.h **** #ifdef __cplusplus
  10:Middlewares/lvgl/examples/widgets/chart/../../../src/widgets/lv_slider.h **** extern "C" {
ARM GAS  /tmp/cc8MR0Sw.s 			page 3


  11:Middlewares/lvgl/examples/widgets/chart/../../../src/widgets/lv_slider.h **** #endif
  12:Middlewares/lvgl/examples/widgets/chart/../../../src/widgets/lv_slider.h **** 
  13:Middlewares/lvgl/examples/widgets/chart/../../../src/widgets/lv_slider.h **** /*********************
  14:Middlewares/lvgl/examples/widgets/chart/../../../src/widgets/lv_slider.h ****  *      INCLUDES
  15:Middlewares/lvgl/examples/widgets/chart/../../../src/widgets/lv_slider.h ****  *********************/
  16:Middlewares/lvgl/examples/widgets/chart/../../../src/widgets/lv_slider.h **** #include "../lv_conf_internal.h"
  17:Middlewares/lvgl/examples/widgets/chart/../../../src/widgets/lv_slider.h **** 
  18:Middlewares/lvgl/examples/widgets/chart/../../../src/widgets/lv_slider.h **** #if LV_USE_SLIDER != 0
  19:Middlewares/lvgl/examples/widgets/chart/../../../src/widgets/lv_slider.h **** 
  20:Middlewares/lvgl/examples/widgets/chart/../../../src/widgets/lv_slider.h **** /*Testing of dependencies*/
  21:Middlewares/lvgl/examples/widgets/chart/../../../src/widgets/lv_slider.h **** #if LV_USE_BAR == 0
  22:Middlewares/lvgl/examples/widgets/chart/../../../src/widgets/lv_slider.h **** #error "lv_slider: lv_bar is required. Enable it in lv_conf.h (LV_USE_BAR 1)"
  23:Middlewares/lvgl/examples/widgets/chart/../../../src/widgets/lv_slider.h **** #endif
  24:Middlewares/lvgl/examples/widgets/chart/../../../src/widgets/lv_slider.h **** 
  25:Middlewares/lvgl/examples/widgets/chart/../../../src/widgets/lv_slider.h **** #include "../core/lv_obj.h"
  26:Middlewares/lvgl/examples/widgets/chart/../../../src/widgets/lv_slider.h **** #include "lv_bar.h"
  27:Middlewares/lvgl/examples/widgets/chart/../../../src/widgets/lv_slider.h **** 
  28:Middlewares/lvgl/examples/widgets/chart/../../../src/widgets/lv_slider.h **** /*********************
  29:Middlewares/lvgl/examples/widgets/chart/../../../src/widgets/lv_slider.h ****  *      DEFINES
  30:Middlewares/lvgl/examples/widgets/chart/../../../src/widgets/lv_slider.h ****  *********************/
  31:Middlewares/lvgl/examples/widgets/chart/../../../src/widgets/lv_slider.h **** 
  32:Middlewares/lvgl/examples/widgets/chart/../../../src/widgets/lv_slider.h **** /**********************
  33:Middlewares/lvgl/examples/widgets/chart/../../../src/widgets/lv_slider.h ****  *      TYPEDEFS
  34:Middlewares/lvgl/examples/widgets/chart/../../../src/widgets/lv_slider.h ****  **********************/
  35:Middlewares/lvgl/examples/widgets/chart/../../../src/widgets/lv_slider.h **** 
  36:Middlewares/lvgl/examples/widgets/chart/../../../src/widgets/lv_slider.h **** enum {
  37:Middlewares/lvgl/examples/widgets/chart/../../../src/widgets/lv_slider.h ****     LV_SLIDER_MODE_NORMAL = LV_BAR_MODE_NORMAL,
  38:Middlewares/lvgl/examples/widgets/chart/../../../src/widgets/lv_slider.h ****     LV_SLIDER_MODE_SYMMETRICAL = LV_BAR_MODE_SYMMETRICAL,
  39:Middlewares/lvgl/examples/widgets/chart/../../../src/widgets/lv_slider.h ****     LV_SLIDER_MODE_RANGE = LV_BAR_MODE_RANGE
  40:Middlewares/lvgl/examples/widgets/chart/../../../src/widgets/lv_slider.h **** };
  41:Middlewares/lvgl/examples/widgets/chart/../../../src/widgets/lv_slider.h **** typedef uint8_t lv_slider_mode_t;
  42:Middlewares/lvgl/examples/widgets/chart/../../../src/widgets/lv_slider.h **** 
  43:Middlewares/lvgl/examples/widgets/chart/../../../src/widgets/lv_slider.h **** typedef struct {
  44:Middlewares/lvgl/examples/widgets/chart/../../../src/widgets/lv_slider.h ****     lv_bar_t bar;       /*Add the ancestor's type first*/
  45:Middlewares/lvgl/examples/widgets/chart/../../../src/widgets/lv_slider.h ****     lv_area_t left_knob_area;
  46:Middlewares/lvgl/examples/widgets/chart/../../../src/widgets/lv_slider.h ****     lv_area_t right_knob_area;
  47:Middlewares/lvgl/examples/widgets/chart/../../../src/widgets/lv_slider.h ****     int32_t * value_to_set; /*Which bar value to set*/
  48:Middlewares/lvgl/examples/widgets/chart/../../../src/widgets/lv_slider.h ****     uint8_t dragging : 1;       /*1: the slider is being dragged*/
  49:Middlewares/lvgl/examples/widgets/chart/../../../src/widgets/lv_slider.h ****     uint8_t left_knob_focus : 1; /*1: with encoder now the right knob can be adjusted*/
  50:Middlewares/lvgl/examples/widgets/chart/../../../src/widgets/lv_slider.h **** }lv_slider_t;
  51:Middlewares/lvgl/examples/widgets/chart/../../../src/widgets/lv_slider.h **** 
  52:Middlewares/lvgl/examples/widgets/chart/../../../src/widgets/lv_slider.h **** extern const lv_obj_class_t lv_slider_class;
  53:Middlewares/lvgl/examples/widgets/chart/../../../src/widgets/lv_slider.h **** 
  54:Middlewares/lvgl/examples/widgets/chart/../../../src/widgets/lv_slider.h **** /**********************
  55:Middlewares/lvgl/examples/widgets/chart/../../../src/widgets/lv_slider.h ****  * GLOBAL PROTOTYPES
  56:Middlewares/lvgl/examples/widgets/chart/../../../src/widgets/lv_slider.h ****  **********************/
  57:Middlewares/lvgl/examples/widgets/chart/../../../src/widgets/lv_slider.h **** 
  58:Middlewares/lvgl/examples/widgets/chart/../../../src/widgets/lv_slider.h **** /**
  59:Middlewares/lvgl/examples/widgets/chart/../../../src/widgets/lv_slider.h ****  * Create a slider objects
  60:Middlewares/lvgl/examples/widgets/chart/../../../src/widgets/lv_slider.h ****  * @param parent    pointer to an object, it will be the parent of the new slider.
  61:Middlewares/lvgl/examples/widgets/chart/../../../src/widgets/lv_slider.h ****  * @return          pointer to the created slider
  62:Middlewares/lvgl/examples/widgets/chart/../../../src/widgets/lv_slider.h ****  */
  63:Middlewares/lvgl/examples/widgets/chart/../../../src/widgets/lv_slider.h **** lv_obj_t * lv_slider_create(lv_obj_t * parent);
  64:Middlewares/lvgl/examples/widgets/chart/../../../src/widgets/lv_slider.h **** 
  65:Middlewares/lvgl/examples/widgets/chart/../../../src/widgets/lv_slider.h **** /*=====================
  66:Middlewares/lvgl/examples/widgets/chart/../../../src/widgets/lv_slider.h ****  * Setter functions
  67:Middlewares/lvgl/examples/widgets/chart/../../../src/widgets/lv_slider.h ****  *====================*/
ARM GAS  /tmp/cc8MR0Sw.s 			page 4


  68:Middlewares/lvgl/examples/widgets/chart/../../../src/widgets/lv_slider.h **** 
  69:Middlewares/lvgl/examples/widgets/chart/../../../src/widgets/lv_slider.h **** /**
  70:Middlewares/lvgl/examples/widgets/chart/../../../src/widgets/lv_slider.h ****  * Set a new value on the slider
  71:Middlewares/lvgl/examples/widgets/chart/../../../src/widgets/lv_slider.h ****  * @param obj       pointer to a slider object
  72:Middlewares/lvgl/examples/widgets/chart/../../../src/widgets/lv_slider.h ****  * @param value     the new value
  73:Middlewares/lvgl/examples/widgets/chart/../../../src/widgets/lv_slider.h ****  * @param anim      LV_ANIM_ON: set the value with an animation; LV_ANIM_OFF: change the value imme
  74:Middlewares/lvgl/examples/widgets/chart/../../../src/widgets/lv_slider.h ****  */
  75:Middlewares/lvgl/examples/widgets/chart/../../../src/widgets/lv_slider.h **** static inline void lv_slider_set_value(lv_obj_t * obj, int32_t value, lv_anim_enable_t anim)
  76:Middlewares/lvgl/examples/widgets/chart/../../../src/widgets/lv_slider.h **** {
  77:Middlewares/lvgl/examples/widgets/chart/../../../src/widgets/lv_slider.h ****     lv_bar_set_value(obj, value, anim);
  78:Middlewares/lvgl/examples/widgets/chart/../../../src/widgets/lv_slider.h **** }
  79:Middlewares/lvgl/examples/widgets/chart/../../../src/widgets/lv_slider.h **** 
  80:Middlewares/lvgl/examples/widgets/chart/../../../src/widgets/lv_slider.h **** /**
  81:Middlewares/lvgl/examples/widgets/chart/../../../src/widgets/lv_slider.h ****  * Set a new value for the left knob of a slider
  82:Middlewares/lvgl/examples/widgets/chart/../../../src/widgets/lv_slider.h ****  * @param obj       pointer to a slider object
  83:Middlewares/lvgl/examples/widgets/chart/../../../src/widgets/lv_slider.h ****  * @param value     new value
  84:Middlewares/lvgl/examples/widgets/chart/../../../src/widgets/lv_slider.h ****  * @param anim      LV_ANIM_ON: set the value with an animation; LV_ANIM_OFF: change the value imme
  85:Middlewares/lvgl/examples/widgets/chart/../../../src/widgets/lv_slider.h ****  */
  86:Middlewares/lvgl/examples/widgets/chart/../../../src/widgets/lv_slider.h **** static inline void lv_slider_set_left_value(lv_obj_t * obj, int32_t value, lv_anim_enable_t anim)
  87:Middlewares/lvgl/examples/widgets/chart/../../../src/widgets/lv_slider.h **** {
  88:Middlewares/lvgl/examples/widgets/chart/../../../src/widgets/lv_slider.h ****     lv_bar_set_start_value(obj, value, anim);
  89:Middlewares/lvgl/examples/widgets/chart/../../../src/widgets/lv_slider.h **** }
  90:Middlewares/lvgl/examples/widgets/chart/../../../src/widgets/lv_slider.h **** 
  91:Middlewares/lvgl/examples/widgets/chart/../../../src/widgets/lv_slider.h **** /**
  92:Middlewares/lvgl/examples/widgets/chart/../../../src/widgets/lv_slider.h ****  * Set minimum and the maximum values of a bar
  93:Middlewares/lvgl/examples/widgets/chart/../../../src/widgets/lv_slider.h ****  * @param obj       pointer to the slider object
  94:Middlewares/lvgl/examples/widgets/chart/../../../src/widgets/lv_slider.h ****  * @param min       minimum value
  95:Middlewares/lvgl/examples/widgets/chart/../../../src/widgets/lv_slider.h ****  * @param max       maximum value
  96:Middlewares/lvgl/examples/widgets/chart/../../../src/widgets/lv_slider.h ****  */
  97:Middlewares/lvgl/examples/widgets/chart/../../../src/widgets/lv_slider.h **** static inline void lv_slider_set_range(lv_obj_t * obj, int32_t min, int32_t max)
  98:Middlewares/lvgl/examples/widgets/chart/../../../src/widgets/lv_slider.h **** {
  99:Middlewares/lvgl/examples/widgets/chart/../../../src/widgets/lv_slider.h ****     lv_bar_set_range(obj, min, max);
 100:Middlewares/lvgl/examples/widgets/chart/../../../src/widgets/lv_slider.h **** }
 101:Middlewares/lvgl/examples/widgets/chart/../../../src/widgets/lv_slider.h **** 
 102:Middlewares/lvgl/examples/widgets/chart/../../../src/widgets/lv_slider.h **** /**
 103:Middlewares/lvgl/examples/widgets/chart/../../../src/widgets/lv_slider.h ****  * Set the mode of slider.
 104:Middlewares/lvgl/examples/widgets/chart/../../../src/widgets/lv_slider.h ****  * @param obj       pointer to a slider object
 105:Middlewares/lvgl/examples/widgets/chart/../../../src/widgets/lv_slider.h ****  * @param mode      the mode of the slider. See ::lv_slider_mode_t
 106:Middlewares/lvgl/examples/widgets/chart/../../../src/widgets/lv_slider.h ****  */
 107:Middlewares/lvgl/examples/widgets/chart/../../../src/widgets/lv_slider.h **** static inline void lv_slider_set_mode(lv_obj_t * obj, lv_slider_mode_t mode)
 108:Middlewares/lvgl/examples/widgets/chart/../../../src/widgets/lv_slider.h **** {
 109:Middlewares/lvgl/examples/widgets/chart/../../../src/widgets/lv_slider.h ****     lv_bar_set_mode(obj, (lv_bar_mode_t)mode);
 110:Middlewares/lvgl/examples/widgets/chart/../../../src/widgets/lv_slider.h **** }
 111:Middlewares/lvgl/examples/widgets/chart/../../../src/widgets/lv_slider.h **** 
 112:Middlewares/lvgl/examples/widgets/chart/../../../src/widgets/lv_slider.h **** /*=====================
 113:Middlewares/lvgl/examples/widgets/chart/../../../src/widgets/lv_slider.h ****  * Getter functions
 114:Middlewares/lvgl/examples/widgets/chart/../../../src/widgets/lv_slider.h ****  *====================*/
 115:Middlewares/lvgl/examples/widgets/chart/../../../src/widgets/lv_slider.h **** 
 116:Middlewares/lvgl/examples/widgets/chart/../../../src/widgets/lv_slider.h **** /**
 117:Middlewares/lvgl/examples/widgets/chart/../../../src/widgets/lv_slider.h ****  * Get the value of the main knob of a slider
 118:Middlewares/lvgl/examples/widgets/chart/../../../src/widgets/lv_slider.h ****  * @param obj       pointer to a slider object
 119:Middlewares/lvgl/examples/widgets/chart/../../../src/widgets/lv_slider.h ****  * @return          the value of the main knob of the slider
 120:Middlewares/lvgl/examples/widgets/chart/../../../src/widgets/lv_slider.h ****  */
 121:Middlewares/lvgl/examples/widgets/chart/../../../src/widgets/lv_slider.h **** static inline int32_t lv_slider_get_value(const lv_obj_t * obj)
  47              		.loc 2 121 23 view .LVU5
  48              	.LBB11:
 122:Middlewares/lvgl/examples/widgets/chart/../../../src/widgets/lv_slider.h **** {
ARM GAS  /tmp/cc8MR0Sw.s 			page 5


 123:Middlewares/lvgl/examples/widgets/chart/../../../src/widgets/lv_slider.h ****     return lv_bar_get_value(obj);
  49              		.loc 2 123 5 view .LVU6
  50              		.loc 2 123 12 is_stmt 0 view .LVU7
  51 0006 FFF7FEFF 		bl	lv_bar_get_value
  52              	.LVL2:
  53              		.loc 2 123 12 view .LVU8
  54              	.LBE11:
  55              	.LBE10:
  60:Middlewares/lvgl/examples/widgets/chart/lv_example_chart_5.c ****     lv_chart_set_zoom_y(chart, v);
  56              		.loc 1 60 5 is_stmt 1 view .LVU9
  57 000a 81B2     		uxth	r1, r0
  58 000c 024B     		ldr	r3, .L3
  59 000e 1868     		ldr	r0, [r3]
  60              	.LVL3:
  61              		.loc 1 60 5 is_stmt 0 view .LVU10
  62 0010 FFF7FEFF 		bl	lv_chart_set_zoom_y
  63              	.LVL4:
  61:Middlewares/lvgl/examples/widgets/chart/lv_example_chart_5.c **** }
  64              		.loc 1 61 1 view .LVU11
  65 0014 08BD     		pop	{r3, pc}
  66              	.L4:
  67 0016 00BF     		.align	2
  68              	.L3:
  69 0018 00000000 		.word	.LANCHOR0
  70              		.cfi_endproc
  71              	.LFE185:
  73              		.section	.text.slider_x_event_cb,"ax",%progbits
  74              		.align	1
  75              		.syntax unified
  76              		.thumb
  77              		.thumb_func
  79              	slider_x_event_cb:
  80              	.LVL5:
  81              	.LFB184:
  50:Middlewares/lvgl/examples/widgets/chart/lv_example_chart_5.c ****     lv_obj_t * obj = lv_event_get_target(e);
  82              		.loc 1 50 1 is_stmt 1 view -0
  83              		.cfi_startproc
  84              		@ args = 0, pretend = 0, frame = 0
  85              		@ frame_needed = 0, uses_anonymous_args = 0
  50:Middlewares/lvgl/examples/widgets/chart/lv_example_chart_5.c ****     lv_obj_t * obj = lv_event_get_target(e);
  86              		.loc 1 50 1 is_stmt 0 view .LVU13
  87 0000 08B5     		push	{r3, lr}
  88              	.LCFI1:
  89              		.cfi_def_cfa_offset 8
  90              		.cfi_offset 3, -8
  91              		.cfi_offset 14, -4
  51:Middlewares/lvgl/examples/widgets/chart/lv_example_chart_5.c ****     int32_t v = lv_slider_get_value(obj);
  92              		.loc 1 51 5 is_stmt 1 view .LVU14
  51:Middlewares/lvgl/examples/widgets/chart/lv_example_chart_5.c ****     int32_t v = lv_slider_get_value(obj);
  93              		.loc 1 51 22 is_stmt 0 view .LVU15
  94 0002 FFF7FEFF 		bl	lv_event_get_target
  95              	.LVL6:
  52:Middlewares/lvgl/examples/widgets/chart/lv_example_chart_5.c ****     lv_chart_set_zoom_x(chart, v);
  96              		.loc 1 52 5 is_stmt 1 view .LVU16
  97              	.LBB12:
  98              	.LBI12:
 121:Middlewares/lvgl/examples/widgets/chart/../../../src/widgets/lv_slider.h **** {
ARM GAS  /tmp/cc8MR0Sw.s 			page 6


  99              		.loc 2 121 23 view .LVU17
 100              	.LBB13:
 101              		.loc 2 123 5 view .LVU18
 102              		.loc 2 123 12 is_stmt 0 view .LVU19
 103 0006 FFF7FEFF 		bl	lv_bar_get_value
 104              	.LVL7:
 105              		.loc 2 123 12 view .LVU20
 106              	.LBE13:
 107              	.LBE12:
  53:Middlewares/lvgl/examples/widgets/chart/lv_example_chart_5.c **** }
 108              		.loc 1 53 5 is_stmt 1 view .LVU21
 109 000a 81B2     		uxth	r1, r0
 110 000c 024B     		ldr	r3, .L7
 111 000e 1868     		ldr	r0, [r3]
 112              	.LVL8:
  53:Middlewares/lvgl/examples/widgets/chart/lv_example_chart_5.c **** }
 113              		.loc 1 53 5 is_stmt 0 view .LVU22
 114 0010 FFF7FEFF 		bl	lv_chart_set_zoom_x
 115              	.LVL9:
  54:Middlewares/lvgl/examples/widgets/chart/lv_example_chart_5.c **** 
 116              		.loc 1 54 1 view .LVU23
 117 0014 08BD     		pop	{r3, pc}
 118              	.L8:
 119 0016 00BF     		.align	2
 120              	.L7:
 121 0018 00000000 		.word	.LANCHOR0
 122              		.cfi_endproc
 123              	.LFE184:
 125              		.section	.text.lv_example_chart_5,"ax",%progbits
 126              		.align	1
 127              		.global	lv_example_chart_5
 128              		.syntax unified
 129              		.thumb
 130              		.thumb_func
 132              	lv_example_chart_5:
 133              	.LFB186:
  62:Middlewares/lvgl/examples/widgets/chart/lv_example_chart_5.c **** 
  63:Middlewares/lvgl/examples/widgets/chart/lv_example_chart_5.c **** /**
  64:Middlewares/lvgl/examples/widgets/chart/lv_example_chart_5.c ****  * Display 1000 data points with zooming and scrolling.
  65:Middlewares/lvgl/examples/widgets/chart/lv_example_chart_5.c ****  * See how the chart changes drawing mode (draw only vertical lines) when
  66:Middlewares/lvgl/examples/widgets/chart/lv_example_chart_5.c ****  * the points get too crowded.
  67:Middlewares/lvgl/examples/widgets/chart/lv_example_chart_5.c ****  */
  68:Middlewares/lvgl/examples/widgets/chart/lv_example_chart_5.c **** void lv_example_chart_5(void)
  69:Middlewares/lvgl/examples/widgets/chart/lv_example_chart_5.c **** {
 134              		.loc 1 69 1 is_stmt 1 view -0
 135              		.cfi_startproc
 136              		@ args = 0, pretend = 0, frame = 0
 137              		@ frame_needed = 0, uses_anonymous_args = 0
 138 0000 70B5     		push	{r4, r5, r6, lr}
 139              	.LCFI2:
 140              		.cfi_def_cfa_offset 16
 141              		.cfi_offset 4, -16
 142              		.cfi_offset 5, -12
 143              		.cfi_offset 6, -8
 144              		.cfi_offset 14, -4
 145 0002 82B0     		sub	sp, sp, #8
 146              	.LCFI3:
ARM GAS  /tmp/cc8MR0Sw.s 			page 7


 147              		.cfi_def_cfa_offset 24
  70:Middlewares/lvgl/examples/widgets/chart/lv_example_chart_5.c ****     /*Create a chart*/
  71:Middlewares/lvgl/examples/widgets/chart/lv_example_chart_5.c ****     chart = lv_chart_create(lv_scr_act());
 148              		.loc 1 71 5 view .LVU25
 149              	.LBB26:
 150              	.LBI26:
 151              		.file 3 "Middlewares/lvgl/examples/widgets/chart/../../../src/core/lv_disp.h"
   1:Middlewares/lvgl/examples/widgets/chart/../../../src/core/lv_disp.h **** /**
   2:Middlewares/lvgl/examples/widgets/chart/../../../src/core/lv_disp.h ****  * @file lv_disp.h
   3:Middlewares/lvgl/examples/widgets/chart/../../../src/core/lv_disp.h ****  *
   4:Middlewares/lvgl/examples/widgets/chart/../../../src/core/lv_disp.h ****  */
   5:Middlewares/lvgl/examples/widgets/chart/../../../src/core/lv_disp.h **** 
   6:Middlewares/lvgl/examples/widgets/chart/../../../src/core/lv_disp.h **** #ifndef LV_DISP_H
   7:Middlewares/lvgl/examples/widgets/chart/../../../src/core/lv_disp.h **** #define LV_DISP_H
   8:Middlewares/lvgl/examples/widgets/chart/../../../src/core/lv_disp.h **** 
   9:Middlewares/lvgl/examples/widgets/chart/../../../src/core/lv_disp.h **** #ifdef __cplusplus
  10:Middlewares/lvgl/examples/widgets/chart/../../../src/core/lv_disp.h **** extern "C" {
  11:Middlewares/lvgl/examples/widgets/chart/../../../src/core/lv_disp.h **** #endif
  12:Middlewares/lvgl/examples/widgets/chart/../../../src/core/lv_disp.h **** 
  13:Middlewares/lvgl/examples/widgets/chart/../../../src/core/lv_disp.h **** /*********************
  14:Middlewares/lvgl/examples/widgets/chart/../../../src/core/lv_disp.h ****  *      INCLUDES
  15:Middlewares/lvgl/examples/widgets/chart/../../../src/core/lv_disp.h ****  *********************/
  16:Middlewares/lvgl/examples/widgets/chart/../../../src/core/lv_disp.h **** #include "../hal/lv_hal.h"
  17:Middlewares/lvgl/examples/widgets/chart/../../../src/core/lv_disp.h **** #include "lv_obj.h"
  18:Middlewares/lvgl/examples/widgets/chart/../../../src/core/lv_disp.h **** #include "lv_theme.h"
  19:Middlewares/lvgl/examples/widgets/chart/../../../src/core/lv_disp.h **** 
  20:Middlewares/lvgl/examples/widgets/chart/../../../src/core/lv_disp.h **** /*********************
  21:Middlewares/lvgl/examples/widgets/chart/../../../src/core/lv_disp.h ****  *      DEFINES
  22:Middlewares/lvgl/examples/widgets/chart/../../../src/core/lv_disp.h ****  *********************/
  23:Middlewares/lvgl/examples/widgets/chart/../../../src/core/lv_disp.h **** 
  24:Middlewares/lvgl/examples/widgets/chart/../../../src/core/lv_disp.h **** /**********************
  25:Middlewares/lvgl/examples/widgets/chart/../../../src/core/lv_disp.h ****  *      TYPEDEFS
  26:Middlewares/lvgl/examples/widgets/chart/../../../src/core/lv_disp.h ****  **********************/
  27:Middlewares/lvgl/examples/widgets/chart/../../../src/core/lv_disp.h **** 
  28:Middlewares/lvgl/examples/widgets/chart/../../../src/core/lv_disp.h **** typedef enum {
  29:Middlewares/lvgl/examples/widgets/chart/../../../src/core/lv_disp.h ****     LV_SCR_LOAD_ANIM_NONE,
  30:Middlewares/lvgl/examples/widgets/chart/../../../src/core/lv_disp.h ****     LV_SCR_LOAD_ANIM_OVER_LEFT,
  31:Middlewares/lvgl/examples/widgets/chart/../../../src/core/lv_disp.h ****     LV_SCR_LOAD_ANIM_OVER_RIGHT,
  32:Middlewares/lvgl/examples/widgets/chart/../../../src/core/lv_disp.h ****     LV_SCR_LOAD_ANIM_OVER_TOP,
  33:Middlewares/lvgl/examples/widgets/chart/../../../src/core/lv_disp.h ****     LV_SCR_LOAD_ANIM_OVER_BOTTOM,
  34:Middlewares/lvgl/examples/widgets/chart/../../../src/core/lv_disp.h ****     LV_SCR_LOAD_ANIM_MOVE_LEFT,
  35:Middlewares/lvgl/examples/widgets/chart/../../../src/core/lv_disp.h ****     LV_SCR_LOAD_ANIM_MOVE_RIGHT,
  36:Middlewares/lvgl/examples/widgets/chart/../../../src/core/lv_disp.h ****     LV_SCR_LOAD_ANIM_MOVE_TOP,
  37:Middlewares/lvgl/examples/widgets/chart/../../../src/core/lv_disp.h ****     LV_SCR_LOAD_ANIM_MOVE_BOTTOM,
  38:Middlewares/lvgl/examples/widgets/chart/../../../src/core/lv_disp.h ****     LV_SCR_LOAD_ANIM_FADE_ON,
  39:Middlewares/lvgl/examples/widgets/chart/../../../src/core/lv_disp.h **** } lv_scr_load_anim_t;
  40:Middlewares/lvgl/examples/widgets/chart/../../../src/core/lv_disp.h **** 
  41:Middlewares/lvgl/examples/widgets/chart/../../../src/core/lv_disp.h **** /**********************
  42:Middlewares/lvgl/examples/widgets/chart/../../../src/core/lv_disp.h ****  * GLOBAL PROTOTYPES
  43:Middlewares/lvgl/examples/widgets/chart/../../../src/core/lv_disp.h ****  **********************/
  44:Middlewares/lvgl/examples/widgets/chart/../../../src/core/lv_disp.h **** 
  45:Middlewares/lvgl/examples/widgets/chart/../../../src/core/lv_disp.h **** /**
  46:Middlewares/lvgl/examples/widgets/chart/../../../src/core/lv_disp.h ****  * Return with a pointer to the active screen
  47:Middlewares/lvgl/examples/widgets/chart/../../../src/core/lv_disp.h ****  * @param disp pointer to display which active screen should be get. (NULL to use the default
  48:Middlewares/lvgl/examples/widgets/chart/../../../src/core/lv_disp.h ****  * screen)
  49:Middlewares/lvgl/examples/widgets/chart/../../../src/core/lv_disp.h ****  * @return pointer to the active screen object (loaded by 'lv_scr_load()')
  50:Middlewares/lvgl/examples/widgets/chart/../../../src/core/lv_disp.h ****  */
ARM GAS  /tmp/cc8MR0Sw.s 			page 8


  51:Middlewares/lvgl/examples/widgets/chart/../../../src/core/lv_disp.h **** lv_obj_t * lv_disp_get_scr_act(lv_disp_t * disp);
  52:Middlewares/lvgl/examples/widgets/chart/../../../src/core/lv_disp.h **** 
  53:Middlewares/lvgl/examples/widgets/chart/../../../src/core/lv_disp.h **** /**
  54:Middlewares/lvgl/examples/widgets/chart/../../../src/core/lv_disp.h ****  * Return with a pointer to the previous screen. Only used during screen transitions.
  55:Middlewares/lvgl/examples/widgets/chart/../../../src/core/lv_disp.h ****  * @param disp pointer to display which previous screen should be get. (NULL to use the default
  56:Middlewares/lvgl/examples/widgets/chart/../../../src/core/lv_disp.h ****  * screen)
  57:Middlewares/lvgl/examples/widgets/chart/../../../src/core/lv_disp.h ****  * @return pointer to the previous screen object or NULL if not used now
  58:Middlewares/lvgl/examples/widgets/chart/../../../src/core/lv_disp.h ****  */
  59:Middlewares/lvgl/examples/widgets/chart/../../../src/core/lv_disp.h **** lv_obj_t * lv_disp_get_scr_prev(lv_disp_t * disp);
  60:Middlewares/lvgl/examples/widgets/chart/../../../src/core/lv_disp.h **** 
  61:Middlewares/lvgl/examples/widgets/chart/../../../src/core/lv_disp.h **** /**
  62:Middlewares/lvgl/examples/widgets/chart/../../../src/core/lv_disp.h ****  * Make a screen active
  63:Middlewares/lvgl/examples/widgets/chart/../../../src/core/lv_disp.h ****  * @param scr pointer to a screen
  64:Middlewares/lvgl/examples/widgets/chart/../../../src/core/lv_disp.h ****  */
  65:Middlewares/lvgl/examples/widgets/chart/../../../src/core/lv_disp.h **** void lv_disp_load_scr(lv_obj_t * scr);
  66:Middlewares/lvgl/examples/widgets/chart/../../../src/core/lv_disp.h **** 
  67:Middlewares/lvgl/examples/widgets/chart/../../../src/core/lv_disp.h **** /**
  68:Middlewares/lvgl/examples/widgets/chart/../../../src/core/lv_disp.h ****  * Return with the top layer. (Same on every screen and it is above the normal screen layer)
  69:Middlewares/lvgl/examples/widgets/chart/../../../src/core/lv_disp.h ****  * @param disp pointer to display which top layer should be get. (NULL to use the default screen)
  70:Middlewares/lvgl/examples/widgets/chart/../../../src/core/lv_disp.h ****  * @return pointer to the top layer object  (transparent screen sized lv_obj)
  71:Middlewares/lvgl/examples/widgets/chart/../../../src/core/lv_disp.h ****  */
  72:Middlewares/lvgl/examples/widgets/chart/../../../src/core/lv_disp.h **** lv_obj_t * lv_disp_get_layer_top(lv_disp_t * disp);
  73:Middlewares/lvgl/examples/widgets/chart/../../../src/core/lv_disp.h **** 
  74:Middlewares/lvgl/examples/widgets/chart/../../../src/core/lv_disp.h **** /**
  75:Middlewares/lvgl/examples/widgets/chart/../../../src/core/lv_disp.h ****  * Return with the sys. layer. (Same on every screen and it is above the normal screen and the top
  76:Middlewares/lvgl/examples/widgets/chart/../../../src/core/lv_disp.h ****  * layer)
  77:Middlewares/lvgl/examples/widgets/chart/../../../src/core/lv_disp.h ****  * @param disp pointer to display which sys. layer  should be get. (NULL to use the default screen)
  78:Middlewares/lvgl/examples/widgets/chart/../../../src/core/lv_disp.h ****  * @return pointer to the sys layer object  (transparent screen sized lv_obj)
  79:Middlewares/lvgl/examples/widgets/chart/../../../src/core/lv_disp.h ****  */
  80:Middlewares/lvgl/examples/widgets/chart/../../../src/core/lv_disp.h **** lv_obj_t * lv_disp_get_layer_sys(lv_disp_t * disp);
  81:Middlewares/lvgl/examples/widgets/chart/../../../src/core/lv_disp.h **** 
  82:Middlewares/lvgl/examples/widgets/chart/../../../src/core/lv_disp.h **** /**
  83:Middlewares/lvgl/examples/widgets/chart/../../../src/core/lv_disp.h ****  * Get the theme of a display
  84:Middlewares/lvgl/examples/widgets/chart/../../../src/core/lv_disp.h ****  * @param disp pointer to a display
  85:Middlewares/lvgl/examples/widgets/chart/../../../src/core/lv_disp.h ****  * @return the display's theme (can be NULL)
  86:Middlewares/lvgl/examples/widgets/chart/../../../src/core/lv_disp.h ****  */
  87:Middlewares/lvgl/examples/widgets/chart/../../../src/core/lv_disp.h **** void lv_disp_set_theme(lv_disp_t * disp, lv_theme_t * th);
  88:Middlewares/lvgl/examples/widgets/chart/../../../src/core/lv_disp.h **** 
  89:Middlewares/lvgl/examples/widgets/chart/../../../src/core/lv_disp.h **** /**
  90:Middlewares/lvgl/examples/widgets/chart/../../../src/core/lv_disp.h ****  * Get the theme of a display
  91:Middlewares/lvgl/examples/widgets/chart/../../../src/core/lv_disp.h ****  * @param disp pointer to a display
  92:Middlewares/lvgl/examples/widgets/chart/../../../src/core/lv_disp.h ****  * @return the display's theme (can be NULL)
  93:Middlewares/lvgl/examples/widgets/chart/../../../src/core/lv_disp.h ****  */
  94:Middlewares/lvgl/examples/widgets/chart/../../../src/core/lv_disp.h **** lv_theme_t * lv_disp_get_theme(lv_disp_t * disp);
  95:Middlewares/lvgl/examples/widgets/chart/../../../src/core/lv_disp.h **** 
  96:Middlewares/lvgl/examples/widgets/chart/../../../src/core/lv_disp.h **** /**
  97:Middlewares/lvgl/examples/widgets/chart/../../../src/core/lv_disp.h ****  * Set the background color of a display
  98:Middlewares/lvgl/examples/widgets/chart/../../../src/core/lv_disp.h ****  * @param disp pointer to a display
  99:Middlewares/lvgl/examples/widgets/chart/../../../src/core/lv_disp.h ****  * @param color color of the background
 100:Middlewares/lvgl/examples/widgets/chart/../../../src/core/lv_disp.h ****  */
 101:Middlewares/lvgl/examples/widgets/chart/../../../src/core/lv_disp.h **** void lv_disp_set_bg_color(lv_disp_t * disp, lv_color_t color);
 102:Middlewares/lvgl/examples/widgets/chart/../../../src/core/lv_disp.h **** 
 103:Middlewares/lvgl/examples/widgets/chart/../../../src/core/lv_disp.h **** /**
 104:Middlewares/lvgl/examples/widgets/chart/../../../src/core/lv_disp.h ****  * Set the background image of a display
 105:Middlewares/lvgl/examples/widgets/chart/../../../src/core/lv_disp.h ****  * @param disp pointer to a display
 106:Middlewares/lvgl/examples/widgets/chart/../../../src/core/lv_disp.h ****  * @param img_src path to file or pointer to an `lv_img_dsc_t` variable
 107:Middlewares/lvgl/examples/widgets/chart/../../../src/core/lv_disp.h ****  */
ARM GAS  /tmp/cc8MR0Sw.s 			page 9


 108:Middlewares/lvgl/examples/widgets/chart/../../../src/core/lv_disp.h **** void lv_disp_set_bg_image(lv_disp_t * disp, const void  * img_src);
 109:Middlewares/lvgl/examples/widgets/chart/../../../src/core/lv_disp.h **** 
 110:Middlewares/lvgl/examples/widgets/chart/../../../src/core/lv_disp.h **** /**
 111:Middlewares/lvgl/examples/widgets/chart/../../../src/core/lv_disp.h ****  * Opacity of the background
 112:Middlewares/lvgl/examples/widgets/chart/../../../src/core/lv_disp.h ****  * @param disp pointer to a display
 113:Middlewares/lvgl/examples/widgets/chart/../../../src/core/lv_disp.h ****  * @param opa opacity (0..255)
 114:Middlewares/lvgl/examples/widgets/chart/../../../src/core/lv_disp.h ****  */
 115:Middlewares/lvgl/examples/widgets/chart/../../../src/core/lv_disp.h **** void lv_disp_set_bg_opa(lv_disp_t * disp, lv_opa_t opa);
 116:Middlewares/lvgl/examples/widgets/chart/../../../src/core/lv_disp.h **** 
 117:Middlewares/lvgl/examples/widgets/chart/../../../src/core/lv_disp.h **** /**
 118:Middlewares/lvgl/examples/widgets/chart/../../../src/core/lv_disp.h ****  * Switch screen with animation
 119:Middlewares/lvgl/examples/widgets/chart/../../../src/core/lv_disp.h ****  * @param scr pointer to the new screen to load
 120:Middlewares/lvgl/examples/widgets/chart/../../../src/core/lv_disp.h ****  * @param anim_type type of the animation from `lv_scr_load_anim_t`. E.g.  `LV_SCR_LOAD_ANIM_MOVE_L
 121:Middlewares/lvgl/examples/widgets/chart/../../../src/core/lv_disp.h ****  * @param time time of the animation
 122:Middlewares/lvgl/examples/widgets/chart/../../../src/core/lv_disp.h ****  * @param delay delay before the transition
 123:Middlewares/lvgl/examples/widgets/chart/../../../src/core/lv_disp.h ****  * @param auto_del true: automatically delete the old screen
 124:Middlewares/lvgl/examples/widgets/chart/../../../src/core/lv_disp.h ****  */
 125:Middlewares/lvgl/examples/widgets/chart/../../../src/core/lv_disp.h **** void lv_scr_load_anim(lv_obj_t * scr, lv_scr_load_anim_t anim_type, uint32_t time, uint32_t delay, 
 126:Middlewares/lvgl/examples/widgets/chart/../../../src/core/lv_disp.h **** 
 127:Middlewares/lvgl/examples/widgets/chart/../../../src/core/lv_disp.h **** /**
 128:Middlewares/lvgl/examples/widgets/chart/../../../src/core/lv_disp.h ****  * Get elapsed time since last user activity on a display (e.g. click)
 129:Middlewares/lvgl/examples/widgets/chart/../../../src/core/lv_disp.h ****  * @param disp pointer to an display (NULL to get the overall smallest inactivity)
 130:Middlewares/lvgl/examples/widgets/chart/../../../src/core/lv_disp.h ****  * @return elapsed ticks (milliseconds) since the last activity
 131:Middlewares/lvgl/examples/widgets/chart/../../../src/core/lv_disp.h ****  */
 132:Middlewares/lvgl/examples/widgets/chart/../../../src/core/lv_disp.h **** uint32_t lv_disp_get_inactive_time(const lv_disp_t * disp);
 133:Middlewares/lvgl/examples/widgets/chart/../../../src/core/lv_disp.h **** 
 134:Middlewares/lvgl/examples/widgets/chart/../../../src/core/lv_disp.h **** /**
 135:Middlewares/lvgl/examples/widgets/chart/../../../src/core/lv_disp.h ****  * Manually trigger an activity on a display
 136:Middlewares/lvgl/examples/widgets/chart/../../../src/core/lv_disp.h ****  * @param disp pointer to an display (NULL to use the default display)
 137:Middlewares/lvgl/examples/widgets/chart/../../../src/core/lv_disp.h ****  */
 138:Middlewares/lvgl/examples/widgets/chart/../../../src/core/lv_disp.h **** void lv_disp_trig_activity(lv_disp_t * disp);
 139:Middlewares/lvgl/examples/widgets/chart/../../../src/core/lv_disp.h **** 
 140:Middlewares/lvgl/examples/widgets/chart/../../../src/core/lv_disp.h **** /**
 141:Middlewares/lvgl/examples/widgets/chart/../../../src/core/lv_disp.h ****  * Clean any CPU cache that is related to the display.
 142:Middlewares/lvgl/examples/widgets/chart/../../../src/core/lv_disp.h ****  * @param disp pointer to an display (NULL to use the default display)
 143:Middlewares/lvgl/examples/widgets/chart/../../../src/core/lv_disp.h ****  */
 144:Middlewares/lvgl/examples/widgets/chart/../../../src/core/lv_disp.h **** void lv_disp_clean_dcache(lv_disp_t * disp);
 145:Middlewares/lvgl/examples/widgets/chart/../../../src/core/lv_disp.h **** 
 146:Middlewares/lvgl/examples/widgets/chart/../../../src/core/lv_disp.h **** /**
 147:Middlewares/lvgl/examples/widgets/chart/../../../src/core/lv_disp.h ****  * Get a pointer to the screen refresher timer to
 148:Middlewares/lvgl/examples/widgets/chart/../../../src/core/lv_disp.h ****  * modify its parameters with `lv_timer_...` functions.
 149:Middlewares/lvgl/examples/widgets/chart/../../../src/core/lv_disp.h ****  * @param disp pointer to a display
 150:Middlewares/lvgl/examples/widgets/chart/../../../src/core/lv_disp.h ****  * @return pointer to the display refresher timer. (NULL on error)
 151:Middlewares/lvgl/examples/widgets/chart/../../../src/core/lv_disp.h ****  */
 152:Middlewares/lvgl/examples/widgets/chart/../../../src/core/lv_disp.h **** lv_timer_t * _lv_disp_get_refr_timer(lv_disp_t * disp);
 153:Middlewares/lvgl/examples/widgets/chart/../../../src/core/lv_disp.h **** 
 154:Middlewares/lvgl/examples/widgets/chart/../../../src/core/lv_disp.h **** /*------------------------------------------------
 155:Middlewares/lvgl/examples/widgets/chart/../../../src/core/lv_disp.h ****  * To improve backward compatibility
 156:Middlewares/lvgl/examples/widgets/chart/../../../src/core/lv_disp.h ****  * Recommended only if you have one display
 157:Middlewares/lvgl/examples/widgets/chart/../../../src/core/lv_disp.h ****  *------------------------------------------------*/
 158:Middlewares/lvgl/examples/widgets/chart/../../../src/core/lv_disp.h **** 
 159:Middlewares/lvgl/examples/widgets/chart/../../../src/core/lv_disp.h **** /**
 160:Middlewares/lvgl/examples/widgets/chart/../../../src/core/lv_disp.h ****  * Get the active screen of the default display
 161:Middlewares/lvgl/examples/widgets/chart/../../../src/core/lv_disp.h ****  * @return pointer to the active screen
 162:Middlewares/lvgl/examples/widgets/chart/../../../src/core/lv_disp.h ****  */
 163:Middlewares/lvgl/examples/widgets/chart/../../../src/core/lv_disp.h **** static inline lv_obj_t * lv_scr_act(void)
 152              		.loc 3 163 26 view .LVU26
ARM GAS  /tmp/cc8MR0Sw.s 			page 10


 153              	.LBB27:
 164:Middlewares/lvgl/examples/widgets/chart/../../../src/core/lv_disp.h **** {
 165:Middlewares/lvgl/examples/widgets/chart/../../../src/core/lv_disp.h ****     return lv_disp_get_scr_act(lv_disp_get_default());
 154              		.loc 3 165 5 view .LVU27
 155              		.loc 3 165 12 is_stmt 0 view .LVU28
 156 0004 FFF7FEFF 		bl	lv_disp_get_default
 157              	.LVL10:
 158 0008 FFF7FEFF 		bl	lv_disp_get_scr_act
 159              	.LVL11:
 160              	.LBE27:
 161              	.LBE26:
 162              		.loc 1 71 13 view .LVU29
 163 000c FFF7FEFF 		bl	lv_chart_create
 164              	.LVL12:
 165              		.loc 1 71 11 view .LVU30
 166 0010 3B4C     		ldr	r4, .L11
 167 0012 2060     		str	r0, [r4]
  72:Middlewares/lvgl/examples/widgets/chart/lv_example_chart_5.c ****     lv_obj_set_size(chart, 200, 150);
 168              		.loc 1 72 5 is_stmt 1 view .LVU31
 169 0014 9622     		movs	r2, #150
 170 0016 C821     		movs	r1, #200
 171 0018 FFF7FEFF 		bl	lv_obj_set_size
 172              	.LVL13:
  73:Middlewares/lvgl/examples/widgets/chart/lv_example_chart_5.c ****     lv_obj_align(chart, LV_ALIGN_CENTER, -30, -30);
 173              		.loc 1 73 5 view .LVU32
 174 001c 6FF01D03 		mvn	r3, #29
 175 0020 1A46     		mov	r2, r3
 176 0022 0921     		movs	r1, #9
 177 0024 2068     		ldr	r0, [r4]
 178 0026 FFF7FEFF 		bl	lv_obj_align
 179              	.LVL14:
  74:Middlewares/lvgl/examples/widgets/chart/lv_example_chart_5.c ****     lv_chart_set_range(chart, LV_CHART_AXIS_PRIMARY_Y, -1000, 1000);
 180              		.loc 1 74 5 view .LVU33
 181 002a 4FF47A73 		mov	r3, #1000
 182 002e 354A     		ldr	r2, .L11+4
 183 0030 0021     		movs	r1, #0
 184 0032 2068     		ldr	r0, [r4]
 185 0034 FFF7FEFF 		bl	lv_chart_set_range
 186              	.LVL15:
  75:Middlewares/lvgl/examples/widgets/chart/lv_example_chart_5.c **** 
  76:Middlewares/lvgl/examples/widgets/chart/lv_example_chart_5.c ****     /*Do not display points on the data*/
  77:Middlewares/lvgl/examples/widgets/chart/lv_example_chart_5.c ****     lv_obj_set_style_size(chart, 0, LV_PART_INDICATOR);
 187              		.loc 1 77 5 view .LVU34
 188 0038 2568     		ldr	r5, [r4]
 189              	.LVL16:
 190              	.LBB28:
 191              	.LBI28:
 192              		.file 4 "Middlewares/lvgl/examples/widgets/chart/../../../src/core/lv_obj_style.h"
   1:Middlewares/lvgl/examples/widgets/chart/../../../src/core/lv_obj_style.h **** /**
   2:Middlewares/lvgl/examples/widgets/chart/../../../src/core/lv_obj_style.h ****  * @file lv_obj_style.h
   3:Middlewares/lvgl/examples/widgets/chart/../../../src/core/lv_obj_style.h ****  *
   4:Middlewares/lvgl/examples/widgets/chart/../../../src/core/lv_obj_style.h ****  */
   5:Middlewares/lvgl/examples/widgets/chart/../../../src/core/lv_obj_style.h **** 
   6:Middlewares/lvgl/examples/widgets/chart/../../../src/core/lv_obj_style.h **** #ifndef LV_OBJ_STYLE_H
   7:Middlewares/lvgl/examples/widgets/chart/../../../src/core/lv_obj_style.h **** #define LV_OBJ_STYLE_H
   8:Middlewares/lvgl/examples/widgets/chart/../../../src/core/lv_obj_style.h **** 
   9:Middlewares/lvgl/examples/widgets/chart/../../../src/core/lv_obj_style.h **** #ifdef __cplusplus
ARM GAS  /tmp/cc8MR0Sw.s 			page 11


  10:Middlewares/lvgl/examples/widgets/chart/../../../src/core/lv_obj_style.h **** extern "C" {
  11:Middlewares/lvgl/examples/widgets/chart/../../../src/core/lv_obj_style.h **** #endif
  12:Middlewares/lvgl/examples/widgets/chart/../../../src/core/lv_obj_style.h **** 
  13:Middlewares/lvgl/examples/widgets/chart/../../../src/core/lv_obj_style.h **** /*********************
  14:Middlewares/lvgl/examples/widgets/chart/../../../src/core/lv_obj_style.h ****  *      INCLUDES
  15:Middlewares/lvgl/examples/widgets/chart/../../../src/core/lv_obj_style.h ****  *********************/
  16:Middlewares/lvgl/examples/widgets/chart/../../../src/core/lv_obj_style.h **** #include <stdint.h>
  17:Middlewares/lvgl/examples/widgets/chart/../../../src/core/lv_obj_style.h **** #include <stdbool.h>
  18:Middlewares/lvgl/examples/widgets/chart/../../../src/core/lv_obj_style.h **** #include "../misc/lv_bidi.h"
  19:Middlewares/lvgl/examples/widgets/chart/../../../src/core/lv_obj_style.h **** 
  20:Middlewares/lvgl/examples/widgets/chart/../../../src/core/lv_obj_style.h **** /*********************
  21:Middlewares/lvgl/examples/widgets/chart/../../../src/core/lv_obj_style.h ****  *      DEFINES
  22:Middlewares/lvgl/examples/widgets/chart/../../../src/core/lv_obj_style.h ****  *********************/
  23:Middlewares/lvgl/examples/widgets/chart/../../../src/core/lv_obj_style.h **** 
  24:Middlewares/lvgl/examples/widgets/chart/../../../src/core/lv_obj_style.h **** /**********************
  25:Middlewares/lvgl/examples/widgets/chart/../../../src/core/lv_obj_style.h ****  *      TYPEDEFS
  26:Middlewares/lvgl/examples/widgets/chart/../../../src/core/lv_obj_style.h ****  **********************/
  27:Middlewares/lvgl/examples/widgets/chart/../../../src/core/lv_obj_style.h **** /*Can't include lv_obj.h because it includes this header file*/
  28:Middlewares/lvgl/examples/widgets/chart/../../../src/core/lv_obj_style.h **** struct _lv_obj_t;
  29:Middlewares/lvgl/examples/widgets/chart/../../../src/core/lv_obj_style.h **** 
  30:Middlewares/lvgl/examples/widgets/chart/../../../src/core/lv_obj_style.h **** typedef enum {
  31:Middlewares/lvgl/examples/widgets/chart/../../../src/core/lv_obj_style.h ****     _LV_STYLE_STATE_CMP_SAME,           /*The style properties in the 2 states are identical*/
  32:Middlewares/lvgl/examples/widgets/chart/../../../src/core/lv_obj_style.h ****     _LV_STYLE_STATE_CMP_DIFF_REDRAW,    /*The differences can be shown with a simple redraw*/
  33:Middlewares/lvgl/examples/widgets/chart/../../../src/core/lv_obj_style.h ****     _LV_STYLE_STATE_CMP_DIFF_DRAW_PAD,  /*The differences can be shown with a simple redraw*/
  34:Middlewares/lvgl/examples/widgets/chart/../../../src/core/lv_obj_style.h ****     _LV_STYLE_STATE_CMP_DIFF_LAYOUT,    /*The differences can be shown with a simple redraw*/
  35:Middlewares/lvgl/examples/widgets/chart/../../../src/core/lv_obj_style.h **** } _lv_style_state_cmp_t;
  36:Middlewares/lvgl/examples/widgets/chart/../../../src/core/lv_obj_style.h **** 
  37:Middlewares/lvgl/examples/widgets/chart/../../../src/core/lv_obj_style.h **** typedef uint32_t lv_style_selector_t;
  38:Middlewares/lvgl/examples/widgets/chart/../../../src/core/lv_obj_style.h **** 
  39:Middlewares/lvgl/examples/widgets/chart/../../../src/core/lv_obj_style.h **** typedef struct {
  40:Middlewares/lvgl/examples/widgets/chart/../../../src/core/lv_obj_style.h ****     lv_style_t * style;
  41:Middlewares/lvgl/examples/widgets/chart/../../../src/core/lv_obj_style.h ****     uint32_t selector :24;
  42:Middlewares/lvgl/examples/widgets/chart/../../../src/core/lv_obj_style.h ****     uint32_t is_local :1;
  43:Middlewares/lvgl/examples/widgets/chart/../../../src/core/lv_obj_style.h ****     uint32_t is_trans :1;
  44:Middlewares/lvgl/examples/widgets/chart/../../../src/core/lv_obj_style.h **** }_lv_obj_style_t;
  45:Middlewares/lvgl/examples/widgets/chart/../../../src/core/lv_obj_style.h **** 
  46:Middlewares/lvgl/examples/widgets/chart/../../../src/core/lv_obj_style.h **** typedef struct {
  47:Middlewares/lvgl/examples/widgets/chart/../../../src/core/lv_obj_style.h ****     uint16_t time;
  48:Middlewares/lvgl/examples/widgets/chart/../../../src/core/lv_obj_style.h ****     uint16_t delay;
  49:Middlewares/lvgl/examples/widgets/chart/../../../src/core/lv_obj_style.h ****     lv_style_selector_t selector;
  50:Middlewares/lvgl/examples/widgets/chart/../../../src/core/lv_obj_style.h ****     lv_style_prop_t prop;
  51:Middlewares/lvgl/examples/widgets/chart/../../../src/core/lv_obj_style.h ****     lv_anim_path_cb_t path_cb;
  52:Middlewares/lvgl/examples/widgets/chart/../../../src/core/lv_obj_style.h **** #if LV_USE_USER_DATA
  53:Middlewares/lvgl/examples/widgets/chart/../../../src/core/lv_obj_style.h ****     void * user_data;
  54:Middlewares/lvgl/examples/widgets/chart/../../../src/core/lv_obj_style.h **** #endif
  55:Middlewares/lvgl/examples/widgets/chart/../../../src/core/lv_obj_style.h **** }_lv_obj_style_transition_dsc_t;
  56:Middlewares/lvgl/examples/widgets/chart/../../../src/core/lv_obj_style.h **** 
  57:Middlewares/lvgl/examples/widgets/chart/../../../src/core/lv_obj_style.h **** /**********************
  58:Middlewares/lvgl/examples/widgets/chart/../../../src/core/lv_obj_style.h ****  * GLOBAL PROTOTYPES
  59:Middlewares/lvgl/examples/widgets/chart/../../../src/core/lv_obj_style.h ****  **********************/
  60:Middlewares/lvgl/examples/widgets/chart/../../../src/core/lv_obj_style.h **** 
  61:Middlewares/lvgl/examples/widgets/chart/../../../src/core/lv_obj_style.h **** /**
  62:Middlewares/lvgl/examples/widgets/chart/../../../src/core/lv_obj_style.h ****  * Initialize the object related style manager module.
  63:Middlewares/lvgl/examples/widgets/chart/../../../src/core/lv_obj_style.h ****  * Called by LVGL in `lv_init()`
  64:Middlewares/lvgl/examples/widgets/chart/../../../src/core/lv_obj_style.h ****  */
  65:Middlewares/lvgl/examples/widgets/chart/../../../src/core/lv_obj_style.h **** void _lv_obj_style_init(void);
  66:Middlewares/lvgl/examples/widgets/chart/../../../src/core/lv_obj_style.h **** 
ARM GAS  /tmp/cc8MR0Sw.s 			page 12


  67:Middlewares/lvgl/examples/widgets/chart/../../../src/core/lv_obj_style.h **** /**
  68:Middlewares/lvgl/examples/widgets/chart/../../../src/core/lv_obj_style.h ****  * Add a style to an object.
  69:Middlewares/lvgl/examples/widgets/chart/../../../src/core/lv_obj_style.h ****  * @param obj       pointer to an object
  70:Middlewares/lvgl/examples/widgets/chart/../../../src/core/lv_obj_style.h ****  * @param style     pointer to a style to add
  71:Middlewares/lvgl/examples/widgets/chart/../../../src/core/lv_obj_style.h ****  * @param selector  OR-ed value of parts and state to which the style should be added
  72:Middlewares/lvgl/examples/widgets/chart/../../../src/core/lv_obj_style.h ****  * @example         lv_obj_add_style(btn, &style_btn, 0); //Default button style
  73:Middlewares/lvgl/examples/widgets/chart/../../../src/core/lv_obj_style.h ****  * @example         lv_obj_add_style(btn, &btn_red, LV_STATE_PRESSED); //Overwrite only some colors
  74:Middlewares/lvgl/examples/widgets/chart/../../../src/core/lv_obj_style.h ****  */
  75:Middlewares/lvgl/examples/widgets/chart/../../../src/core/lv_obj_style.h **** void lv_obj_add_style(struct _lv_obj_t * obj, lv_style_t * style, lv_style_selector_t selector);
  76:Middlewares/lvgl/examples/widgets/chart/../../../src/core/lv_obj_style.h **** 
  77:Middlewares/lvgl/examples/widgets/chart/../../../src/core/lv_obj_style.h **** /**
  78:Middlewares/lvgl/examples/widgets/chart/../../../src/core/lv_obj_style.h ****  * Add a style to an object.
  79:Middlewares/lvgl/examples/widgets/chart/../../../src/core/lv_obj_style.h ****  * @param obj       pointer to an object
  80:Middlewares/lvgl/examples/widgets/chart/../../../src/core/lv_obj_style.h ****  * @param style     pointer to a style to remove. Can be NULL to check only the selector
  81:Middlewares/lvgl/examples/widgets/chart/../../../src/core/lv_obj_style.h ****  * @param selector  OR-ed values of states and a part to remove only styles with matching selectors
  82:Middlewares/lvgl/examples/widgets/chart/../../../src/core/lv_obj_style.h ****  * @example lv_obj_remove_style(obj, &style, LV_PART_ANY | LV_STATE_ANY); //Remove a specific style
  83:Middlewares/lvgl/examples/widgets/chart/../../../src/core/lv_obj_style.h ****  * @example lv_obj_remove_style(obj, NULL, LV_PART_MAIN | LV_STATE_ANY); //Remove all styles from t
  84:Middlewares/lvgl/examples/widgets/chart/../../../src/core/lv_obj_style.h ****  * @example lv_obj_remove_style(obj, NULL, LV_PART_ANY | LV_STATE_ANY); //Remove all styles
  85:Middlewares/lvgl/examples/widgets/chart/../../../src/core/lv_obj_style.h ****  */
  86:Middlewares/lvgl/examples/widgets/chart/../../../src/core/lv_obj_style.h **** void lv_obj_remove_style(struct _lv_obj_t * obj, lv_style_t * style, lv_style_selector_t selector);
  87:Middlewares/lvgl/examples/widgets/chart/../../../src/core/lv_obj_style.h **** 
  88:Middlewares/lvgl/examples/widgets/chart/../../../src/core/lv_obj_style.h **** /**
  89:Middlewares/lvgl/examples/widgets/chart/../../../src/core/lv_obj_style.h ****  * Remove all styles from an object
  90:Middlewares/lvgl/examples/widgets/chart/../../../src/core/lv_obj_style.h ****  * @param obj       pointer to an object
  91:Middlewares/lvgl/examples/widgets/chart/../../../src/core/lv_obj_style.h ****  */
  92:Middlewares/lvgl/examples/widgets/chart/../../../src/core/lv_obj_style.h **** static inline void lv_obj_remove_style_all(struct _lv_obj_t * obj)
  93:Middlewares/lvgl/examples/widgets/chart/../../../src/core/lv_obj_style.h **** {
  94:Middlewares/lvgl/examples/widgets/chart/../../../src/core/lv_obj_style.h ****     lv_obj_remove_style(obj, NULL, LV_PART_ANY | LV_STATE_ANY);
  95:Middlewares/lvgl/examples/widgets/chart/../../../src/core/lv_obj_style.h **** }
  96:Middlewares/lvgl/examples/widgets/chart/../../../src/core/lv_obj_style.h **** 
  97:Middlewares/lvgl/examples/widgets/chart/../../../src/core/lv_obj_style.h **** /**
  98:Middlewares/lvgl/examples/widgets/chart/../../../src/core/lv_obj_style.h ****  * Notify all object if a style is modified
  99:Middlewares/lvgl/examples/widgets/chart/../../../src/core/lv_obj_style.h ****  * @param style     pointer to a style. Only the objects with this style will be notified
 100:Middlewares/lvgl/examples/widgets/chart/../../../src/core/lv_obj_style.h ****  *                  (NULL to notify all objects)
 101:Middlewares/lvgl/examples/widgets/chart/../../../src/core/lv_obj_style.h ****  */
 102:Middlewares/lvgl/examples/widgets/chart/../../../src/core/lv_obj_style.h **** void lv_obj_report_style_change(lv_style_t * style);
 103:Middlewares/lvgl/examples/widgets/chart/../../../src/core/lv_obj_style.h **** 
 104:Middlewares/lvgl/examples/widgets/chart/../../../src/core/lv_obj_style.h **** /**
 105:Middlewares/lvgl/examples/widgets/chart/../../../src/core/lv_obj_style.h ****  * Notify an object and its children about its style is modified.
 106:Middlewares/lvgl/examples/widgets/chart/../../../src/core/lv_obj_style.h ****  * @param obj       pointer to an object
 107:Middlewares/lvgl/examples/widgets/chart/../../../src/core/lv_obj_style.h ****  * @param part      the part whose style was changed. E.g. `LV_PART_ANY`, `LV_PART_MAIN`
 108:Middlewares/lvgl/examples/widgets/chart/../../../src/core/lv_obj_style.h ****  * @param prop      `LV_STYLE_PROP_ANY` or an `LV_STYLE_...` property.
 109:Middlewares/lvgl/examples/widgets/chart/../../../src/core/lv_obj_style.h ****  *                  It is used to optimize what needs to be refreshed.
 110:Middlewares/lvgl/examples/widgets/chart/../../../src/core/lv_obj_style.h ****  *                  `LV_STYLE_PROP_INV` to perform only a style cache update
 111:Middlewares/lvgl/examples/widgets/chart/../../../src/core/lv_obj_style.h ****  */
 112:Middlewares/lvgl/examples/widgets/chart/../../../src/core/lv_obj_style.h **** void lv_obj_refresh_style(struct _lv_obj_t * obj, lv_part_t part, lv_style_prop_t prop);
 113:Middlewares/lvgl/examples/widgets/chart/../../../src/core/lv_obj_style.h **** 
 114:Middlewares/lvgl/examples/widgets/chart/../../../src/core/lv_obj_style.h **** /**
 115:Middlewares/lvgl/examples/widgets/chart/../../../src/core/lv_obj_style.h ****  * Enable or disable automatic style refreshing when a new style is added/removed to/from an object
 116:Middlewares/lvgl/examples/widgets/chart/../../../src/core/lv_obj_style.h ****  * or any other style change happens.
 117:Middlewares/lvgl/examples/widgets/chart/../../../src/core/lv_obj_style.h ****  * @param en        true: enable refreshing; false: disable refreshing
 118:Middlewares/lvgl/examples/widgets/chart/../../../src/core/lv_obj_style.h ****  */
 119:Middlewares/lvgl/examples/widgets/chart/../../../src/core/lv_obj_style.h **** void lv_obj_enable_style_refresh(bool en);
 120:Middlewares/lvgl/examples/widgets/chart/../../../src/core/lv_obj_style.h **** 
 121:Middlewares/lvgl/examples/widgets/chart/../../../src/core/lv_obj_style.h **** /**
 122:Middlewares/lvgl/examples/widgets/chart/../../../src/core/lv_obj_style.h ****  * Get the value of a style property. The current state of the object will be considered.
 123:Middlewares/lvgl/examples/widgets/chart/../../../src/core/lv_obj_style.h ****  * Inherited properties will be inherited.
ARM GAS  /tmp/cc8MR0Sw.s 			page 13


 124:Middlewares/lvgl/examples/widgets/chart/../../../src/core/lv_obj_style.h ****  * If a property is not set a default value will be returned.
 125:Middlewares/lvgl/examples/widgets/chart/../../../src/core/lv_obj_style.h ****  * @param obj       pointer to an object
 126:Middlewares/lvgl/examples/widgets/chart/../../../src/core/lv_obj_style.h ****  * @param part      a part from which the property should be get
 127:Middlewares/lvgl/examples/widgets/chart/../../../src/core/lv_obj_style.h ****  * @param prop      the property to get
 128:Middlewares/lvgl/examples/widgets/chart/../../../src/core/lv_obj_style.h ****  * @return          the value of the property.
 129:Middlewares/lvgl/examples/widgets/chart/../../../src/core/lv_obj_style.h ****  *                  Should be read from the correct field of the `lv_style_value_t` according to th
 130:Middlewares/lvgl/examples/widgets/chart/../../../src/core/lv_obj_style.h ****  */
 131:Middlewares/lvgl/examples/widgets/chart/../../../src/core/lv_obj_style.h **** lv_style_value_t lv_obj_get_style_prop(const struct _lv_obj_t * obj, lv_part_t part, lv_style_prop_
 132:Middlewares/lvgl/examples/widgets/chart/../../../src/core/lv_obj_style.h **** 
 133:Middlewares/lvgl/examples/widgets/chart/../../../src/core/lv_obj_style.h **** /**
 134:Middlewares/lvgl/examples/widgets/chart/../../../src/core/lv_obj_style.h ****  * Set local style property on an object's part and state.
 135:Middlewares/lvgl/examples/widgets/chart/../../../src/core/lv_obj_style.h ****  * @param obj       pointer to an object
 136:Middlewares/lvgl/examples/widgets/chart/../../../src/core/lv_obj_style.h ****  * @param part      a part to which the property should be added
 137:Middlewares/lvgl/examples/widgets/chart/../../../src/core/lv_obj_style.h ****  * @param state     a state to which the property should be added
 138:Middlewares/lvgl/examples/widgets/chart/../../../src/core/lv_obj_style.h ****  * @param prop      the property
 139:Middlewares/lvgl/examples/widgets/chart/../../../src/core/lv_obj_style.h ****  * @param value     value of the property. The correct element should be set according to the type 
 140:Middlewares/lvgl/examples/widgets/chart/../../../src/core/lv_obj_style.h ****  */
 141:Middlewares/lvgl/examples/widgets/chart/../../../src/core/lv_obj_style.h **** void lv_obj_set_local_style_prop(struct _lv_obj_t * obj, lv_style_prop_t prop, lv_style_value_t val
 142:Middlewares/lvgl/examples/widgets/chart/../../../src/core/lv_obj_style.h **** 
 143:Middlewares/lvgl/examples/widgets/chart/../../../src/core/lv_obj_style.h **** lv_res_t lv_obj_get_local_style_prop(struct _lv_obj_t * obj, lv_style_prop_t prop, lv_style_value_t
 144:Middlewares/lvgl/examples/widgets/chart/../../../src/core/lv_obj_style.h **** 
 145:Middlewares/lvgl/examples/widgets/chart/../../../src/core/lv_obj_style.h **** /**
 146:Middlewares/lvgl/examples/widgets/chart/../../../src/core/lv_obj_style.h ****  * Remove a local style property from a part of an object with a given state.
 147:Middlewares/lvgl/examples/widgets/chart/../../../src/core/lv_obj_style.h ****  * @param obj       pointer to an object
 148:Middlewares/lvgl/examples/widgets/chart/../../../src/core/lv_obj_style.h ****  * @param part      the part of the object which style property should be removed.
 149:Middlewares/lvgl/examples/widgets/chart/../../../src/core/lv_obj_style.h ****  * @param state     the state from which the property should be removed.
 150:Middlewares/lvgl/examples/widgets/chart/../../../src/core/lv_obj_style.h ****  * @param prop      a style property to remove.
 151:Middlewares/lvgl/examples/widgets/chart/../../../src/core/lv_obj_style.h ****  * @return true     the property was found and removed; false: the property was not found
 152:Middlewares/lvgl/examples/widgets/chart/../../../src/core/lv_obj_style.h ****  */
 153:Middlewares/lvgl/examples/widgets/chart/../../../src/core/lv_obj_style.h **** bool lv_obj_remove_local_style_prop(struct _lv_obj_t * obj, lv_style_prop_t prop, lv_style_selector
 154:Middlewares/lvgl/examples/widgets/chart/../../../src/core/lv_obj_style.h **** 
 155:Middlewares/lvgl/examples/widgets/chart/../../../src/core/lv_obj_style.h **** /**
 156:Middlewares/lvgl/examples/widgets/chart/../../../src/core/lv_obj_style.h ****  * Used internally to create a style tarnsition
 157:Middlewares/lvgl/examples/widgets/chart/../../../src/core/lv_obj_style.h ****  * @param obj
 158:Middlewares/lvgl/examples/widgets/chart/../../../src/core/lv_obj_style.h ****  * @param part
 159:Middlewares/lvgl/examples/widgets/chart/../../../src/core/lv_obj_style.h ****  * @param prev_state
 160:Middlewares/lvgl/examples/widgets/chart/../../../src/core/lv_obj_style.h ****  * @param new_state
 161:Middlewares/lvgl/examples/widgets/chart/../../../src/core/lv_obj_style.h ****  * @param tr
 162:Middlewares/lvgl/examples/widgets/chart/../../../src/core/lv_obj_style.h ****  */
 163:Middlewares/lvgl/examples/widgets/chart/../../../src/core/lv_obj_style.h **** void _lv_obj_style_create_transition(struct _lv_obj_t * obj, lv_part_t part, lv_state_t prev_state,
 164:Middlewares/lvgl/examples/widgets/chart/../../../src/core/lv_obj_style.h **** 
 165:Middlewares/lvgl/examples/widgets/chart/../../../src/core/lv_obj_style.h **** /**
 166:Middlewares/lvgl/examples/widgets/chart/../../../src/core/lv_obj_style.h ****  * Used internally to compare the appearance of an object in 2 states
 167:Middlewares/lvgl/examples/widgets/chart/../../../src/core/lv_obj_style.h ****  * @param obj
 168:Middlewares/lvgl/examples/widgets/chart/../../../src/core/lv_obj_style.h ****  * @param state1
 169:Middlewares/lvgl/examples/widgets/chart/../../../src/core/lv_obj_style.h ****  * @param state2
 170:Middlewares/lvgl/examples/widgets/chart/../../../src/core/lv_obj_style.h ****  * @return
 171:Middlewares/lvgl/examples/widgets/chart/../../../src/core/lv_obj_style.h ****  */
 172:Middlewares/lvgl/examples/widgets/chart/../../../src/core/lv_obj_style.h **** _lv_style_state_cmp_t _lv_obj_style_state_compare(struct _lv_obj_t * obj, lv_state_t state1, lv_sta
 173:Middlewares/lvgl/examples/widgets/chart/../../../src/core/lv_obj_style.h **** 
 174:Middlewares/lvgl/examples/widgets/chart/../../../src/core/lv_obj_style.h **** /**
 175:Middlewares/lvgl/examples/widgets/chart/../../../src/core/lv_obj_style.h ****  * Fade in an an object and all its children.
 176:Middlewares/lvgl/examples/widgets/chart/../../../src/core/lv_obj_style.h ****  * @param obj       the object to fade in
 177:Middlewares/lvgl/examples/widgets/chart/../../../src/core/lv_obj_style.h ****  * @param time      time of fade
 178:Middlewares/lvgl/examples/widgets/chart/../../../src/core/lv_obj_style.h ****  * @param delay     delay to start the animation
 179:Middlewares/lvgl/examples/widgets/chart/../../../src/core/lv_obj_style.h ****  */
 180:Middlewares/lvgl/examples/widgets/chart/../../../src/core/lv_obj_style.h **** void lv_obj_fade_in(struct _lv_obj_t * obj, uint32_t time, uint32_t delay);
ARM GAS  /tmp/cc8MR0Sw.s 			page 14


 181:Middlewares/lvgl/examples/widgets/chart/../../../src/core/lv_obj_style.h **** 
 182:Middlewares/lvgl/examples/widgets/chart/../../../src/core/lv_obj_style.h **** /**
 183:Middlewares/lvgl/examples/widgets/chart/../../../src/core/lv_obj_style.h ****  * Fade out an an object and all its children.
 184:Middlewares/lvgl/examples/widgets/chart/../../../src/core/lv_obj_style.h ****  * @param obj       the object to fade out
 185:Middlewares/lvgl/examples/widgets/chart/../../../src/core/lv_obj_style.h ****  * @param time      time of fade
 186:Middlewares/lvgl/examples/widgets/chart/../../../src/core/lv_obj_style.h ****  * @param delay     delay to start the animation
 187:Middlewares/lvgl/examples/widgets/chart/../../../src/core/lv_obj_style.h ****  */
 188:Middlewares/lvgl/examples/widgets/chart/../../../src/core/lv_obj_style.h **** void lv_obj_fade_out(struct _lv_obj_t * obj, uint32_t time, uint32_t delay);
 189:Middlewares/lvgl/examples/widgets/chart/../../../src/core/lv_obj_style.h **** 
 190:Middlewares/lvgl/examples/widgets/chart/../../../src/core/lv_obj_style.h **** lv_state_t lv_obj_style_get_selector_state(lv_style_selector_t selector);
 191:Middlewares/lvgl/examples/widgets/chart/../../../src/core/lv_obj_style.h **** 
 192:Middlewares/lvgl/examples/widgets/chart/../../../src/core/lv_obj_style.h **** lv_part_t lv_obj_style_get_selector_part(lv_style_selector_t selector);
 193:Middlewares/lvgl/examples/widgets/chart/../../../src/core/lv_obj_style.h **** 
 194:Middlewares/lvgl/examples/widgets/chart/../../../src/core/lv_obj_style.h **** #include "lv_obj_style_gen.h"
 195:Middlewares/lvgl/examples/widgets/chart/../../../src/core/lv_obj_style.h **** 
 196:Middlewares/lvgl/examples/widgets/chart/../../../src/core/lv_obj_style.h **** static inline void lv_obj_set_style_pad_all(struct _lv_obj_t * obj, lv_coord_t value, lv_style_sele
 197:Middlewares/lvgl/examples/widgets/chart/../../../src/core/lv_obj_style.h ****     lv_obj_set_style_pad_left(obj, value, selector);
 198:Middlewares/lvgl/examples/widgets/chart/../../../src/core/lv_obj_style.h ****     lv_obj_set_style_pad_right(obj, value, selector);
 199:Middlewares/lvgl/examples/widgets/chart/../../../src/core/lv_obj_style.h ****     lv_obj_set_style_pad_top(obj, value, selector);
 200:Middlewares/lvgl/examples/widgets/chart/../../../src/core/lv_obj_style.h ****     lv_obj_set_style_pad_bottom(obj, value, selector);
 201:Middlewares/lvgl/examples/widgets/chart/../../../src/core/lv_obj_style.h **** }
 202:Middlewares/lvgl/examples/widgets/chart/../../../src/core/lv_obj_style.h **** 
 203:Middlewares/lvgl/examples/widgets/chart/../../../src/core/lv_obj_style.h **** static inline void lv_obj_set_style_pad_hor(struct _lv_obj_t * obj, lv_coord_t value, lv_style_sele
 204:Middlewares/lvgl/examples/widgets/chart/../../../src/core/lv_obj_style.h ****     lv_obj_set_style_pad_left(obj, value, selector);
 205:Middlewares/lvgl/examples/widgets/chart/../../../src/core/lv_obj_style.h ****     lv_obj_set_style_pad_right(obj, value, selector);
 206:Middlewares/lvgl/examples/widgets/chart/../../../src/core/lv_obj_style.h **** }
 207:Middlewares/lvgl/examples/widgets/chart/../../../src/core/lv_obj_style.h **** 
 208:Middlewares/lvgl/examples/widgets/chart/../../../src/core/lv_obj_style.h **** static inline void lv_obj_set_style_pad_ver(struct _lv_obj_t * obj, lv_coord_t value, lv_style_sele
 209:Middlewares/lvgl/examples/widgets/chart/../../../src/core/lv_obj_style.h ****     lv_obj_set_style_pad_top(obj, value, selector);
 210:Middlewares/lvgl/examples/widgets/chart/../../../src/core/lv_obj_style.h ****     lv_obj_set_style_pad_bottom(obj, value, selector);
 211:Middlewares/lvgl/examples/widgets/chart/../../../src/core/lv_obj_style.h **** }
 212:Middlewares/lvgl/examples/widgets/chart/../../../src/core/lv_obj_style.h **** 
 213:Middlewares/lvgl/examples/widgets/chart/../../../src/core/lv_obj_style.h **** static inline void lv_obj_set_style_pad_gap(struct _lv_obj_t * obj,  lv_coord_t value, lv_style_sel
 214:Middlewares/lvgl/examples/widgets/chart/../../../src/core/lv_obj_style.h ****     lv_obj_set_style_pad_row(obj, value, selector);
 215:Middlewares/lvgl/examples/widgets/chart/../../../src/core/lv_obj_style.h ****     lv_obj_set_style_pad_column(obj, value, selector);
 216:Middlewares/lvgl/examples/widgets/chart/../../../src/core/lv_obj_style.h **** }
 217:Middlewares/lvgl/examples/widgets/chart/../../../src/core/lv_obj_style.h **** 
 218:Middlewares/lvgl/examples/widgets/chart/../../../src/core/lv_obj_style.h **** static inline void lv_obj_set_style_size(struct _lv_obj_t * obj,  lv_coord_t value, lv_style_select
 193              		.loc 4 218 20 view .LVU35
 194              	.LBB29:
 219:Middlewares/lvgl/examples/widgets/chart/../../../src/core/lv_obj_style.h ****     lv_obj_set_style_width(obj, value, selector);
 195              		.loc 4 219 5 view .LVU36
 196 003a 4FF40032 		mov	r2, #131072
 197 003e 0021     		movs	r1, #0
 198 0040 2846     		mov	r0, r5
 199 0042 FFF7FEFF 		bl	lv_obj_set_style_width
 200              	.LVL17:
 220:Middlewares/lvgl/examples/widgets/chart/../../../src/core/lv_obj_style.h ****     lv_obj_set_style_height(obj, value, selector);
 201              		.loc 4 220 5 view .LVU37
 202 0046 4FF40032 		mov	r2, #131072
 203 004a 0021     		movs	r1, #0
 204 004c 2846     		mov	r0, r5
 205 004e FFF7FEFF 		bl	lv_obj_set_style_height
 206              	.LVL18:
 207              		.loc 4 220 5 is_stmt 0 view .LVU38
 208              	.LBE29:
 209              	.LBE28:
ARM GAS  /tmp/cc8MR0Sw.s 			page 15


  78:Middlewares/lvgl/examples/widgets/chart/lv_example_chart_5.c **** 
  79:Middlewares/lvgl/examples/widgets/chart/lv_example_chart_5.c ****     lv_chart_series_t * ser = lv_chart_add_series(chart, lv_palette_main(LV_PALETTE_RED), LV_CHART_
 210              		.loc 1 79 5 is_stmt 1 view .LVU39
 211              		.loc 1 79 31 is_stmt 0 view .LVU40
 212 0052 2568     		ldr	r5, [r4]
 213 0054 0020     		movs	r0, #0
 214 0056 FFF7FEFF 		bl	lv_palette_main
 215              	.LVL19:
 216 005a 0146     		mov	r1, r0	@ movhi
 217 005c 0022     		movs	r2, #0
 218 005e 2846     		mov	r0, r5
 219 0060 FFF7FEFF 		bl	lv_chart_add_series
 220              	.LVL20:
 221 0064 0546     		mov	r5, r0
 222              	.LVL21:
  80:Middlewares/lvgl/examples/widgets/chart/lv_example_chart_5.c **** 
  81:Middlewares/lvgl/examples/widgets/chart/lv_example_chart_5.c ****     uint32_t pcnt = sizeof(ecg_sample) / sizeof(ecg_sample[0]);
 223              		.loc 1 81 5 is_stmt 1 view .LVU41
  82:Middlewares/lvgl/examples/widgets/chart/lv_example_chart_5.c ****     lv_chart_set_point_count(chart, pcnt);
 224              		.loc 1 82 5 view .LVU42
 225 0066 40F2E931 		movw	r1, #1001
 226 006a 2068     		ldr	r0, [r4]
 227              	.LVL22:
 228              		.loc 1 82 5 is_stmt 0 view .LVU43
 229 006c FFF7FEFF 		bl	lv_chart_set_point_count
 230              	.LVL23:
  83:Middlewares/lvgl/examples/widgets/chart/lv_example_chart_5.c ****     lv_chart_set_ext_y_array(chart, ser, (lv_coord_t *)ecg_sample);
 231              		.loc 1 83 5 is_stmt 1 view .LVU44
 232 0070 254A     		ldr	r2, .L11+8
 233 0072 2946     		mov	r1, r5
 234 0074 2068     		ldr	r0, [r4]
 235 0076 FFF7FEFF 		bl	lv_chart_set_ext_y_array
 236              	.LVL24:
  84:Middlewares/lvgl/examples/widgets/chart/lv_example_chart_5.c **** 
  85:Middlewares/lvgl/examples/widgets/chart/lv_example_chart_5.c ****     lv_obj_t * slider;
 237              		.loc 1 85 5 view .LVU45
  86:Middlewares/lvgl/examples/widgets/chart/lv_example_chart_5.c ****     slider = lv_slider_create(lv_scr_act());
 238              		.loc 1 86 5 view .LVU46
 239              	.LBB30:
 240              	.LBI30:
 163:Middlewares/lvgl/examples/widgets/chart/../../../src/core/lv_disp.h **** {
 241              		.loc 3 163 26 view .LVU47
 242              	.LBB31:
 243              		.loc 3 165 5 view .LVU48
 244              		.loc 3 165 12 is_stmt 0 view .LVU49
 245 007a FFF7FEFF 		bl	lv_disp_get_default
 246              	.LVL25:
 247 007e FFF7FEFF 		bl	lv_disp_get_scr_act
 248              	.LVL26:
 249              	.LBE31:
 250              	.LBE30:
 251              		.loc 1 86 14 view .LVU50
 252 0082 FFF7FEFF 		bl	lv_slider_create
 253              	.LVL27:
 254 0086 0546     		mov	r5, r0
 255              	.LVL28:
  87:Middlewares/lvgl/examples/widgets/chart/lv_example_chart_5.c ****     lv_slider_set_range(slider, LV_IMG_ZOOM_NONE, LV_IMG_ZOOM_NONE * 10);
ARM GAS  /tmp/cc8MR0Sw.s 			page 16


 256              		.loc 1 87 5 is_stmt 1 view .LVU51
 257              	.LBB32:
 258              	.LBI32:
  97:Middlewares/lvgl/examples/widgets/chart/../../../src/widgets/lv_slider.h **** {
 259              		.loc 2 97 20 view .LVU52
 260              	.LBB33:
  99:Middlewares/lvgl/examples/widgets/chart/../../../src/widgets/lv_slider.h **** }
 261              		.loc 2 99 5 view .LVU53
 262 0088 4FF42062 		mov	r2, #2560
 263 008c 4FF48071 		mov	r1, #256
 264 0090 FFF7FEFF 		bl	lv_bar_set_range
 265              	.LVL29:
  99:Middlewares/lvgl/examples/widgets/chart/../../../src/widgets/lv_slider.h **** }
 266              		.loc 2 99 5 is_stmt 0 view .LVU54
 267              	.LBE33:
 268              	.LBE32:
  88:Middlewares/lvgl/examples/widgets/chart/lv_example_chart_5.c ****     lv_obj_add_event_cb(slider, slider_x_event_cb, LV_EVENT_VALUE_CHANGED, NULL);
 269              		.loc 1 88 5 is_stmt 1 view .LVU55
 270 0094 0023     		movs	r3, #0
 271 0096 1C22     		movs	r2, #28
 272 0098 1C49     		ldr	r1, .L11+12
 273 009a 2846     		mov	r0, r5
 274 009c FFF7FEFF 		bl	lv_obj_add_event_cb
 275              	.LVL30:
  89:Middlewares/lvgl/examples/widgets/chart/lv_example_chart_5.c ****     lv_obj_set_size(slider, 200, 10);
 276              		.loc 1 89 5 view .LVU56
 277 00a0 0A22     		movs	r2, #10
 278 00a2 C821     		movs	r1, #200
 279 00a4 2846     		mov	r0, r5
 280 00a6 FFF7FEFF 		bl	lv_obj_set_size
 281              	.LVL31:
  90:Middlewares/lvgl/examples/widgets/chart/lv_example_chart_5.c ****     lv_obj_align_to(slider, chart, LV_ALIGN_OUT_BOTTOM_MID, 0, 20);
 282              		.loc 1 90 5 view .LVU57
 283 00aa 1426     		movs	r6, #20
 284 00ac 0096     		str	r6, [sp]
 285 00ae 0023     		movs	r3, #0
 286 00b0 0E22     		movs	r2, #14
 287 00b2 2168     		ldr	r1, [r4]
 288 00b4 2846     		mov	r0, r5
 289 00b6 FFF7FEFF 		bl	lv_obj_align_to
 290              	.LVL32:
  91:Middlewares/lvgl/examples/widgets/chart/lv_example_chart_5.c **** 
  92:Middlewares/lvgl/examples/widgets/chart/lv_example_chart_5.c ****     slider = lv_slider_create(lv_scr_act());
 291              		.loc 1 92 5 view .LVU58
 292              	.LBB34:
 293              	.LBI34:
 163:Middlewares/lvgl/examples/widgets/chart/../../../src/core/lv_disp.h **** {
 294              		.loc 3 163 26 view .LVU59
 295              	.LBB35:
 296              		.loc 3 165 5 view .LVU60
 297              		.loc 3 165 12 is_stmt 0 view .LVU61
 298 00ba FFF7FEFF 		bl	lv_disp_get_default
 299              	.LVL33:
 300 00be FFF7FEFF 		bl	lv_disp_get_scr_act
 301              	.LVL34:
 302              	.LBE35:
 303              	.LBE34:
ARM GAS  /tmp/cc8MR0Sw.s 			page 17


 304              		.loc 1 92 14 view .LVU62
 305 00c2 FFF7FEFF 		bl	lv_slider_create
 306              	.LVL35:
 307 00c6 0546     		mov	r5, r0
 308              	.LVL36:
  93:Middlewares/lvgl/examples/widgets/chart/lv_example_chart_5.c ****     lv_slider_set_range(slider, LV_IMG_ZOOM_NONE, LV_IMG_ZOOM_NONE * 10);
 309              		.loc 1 93 5 is_stmt 1 view .LVU63
 310              	.LBB36:
 311              	.LBI36:
  97:Middlewares/lvgl/examples/widgets/chart/../../../src/widgets/lv_slider.h **** {
 312              		.loc 2 97 20 view .LVU64
 313              	.LBB37:
  99:Middlewares/lvgl/examples/widgets/chart/../../../src/widgets/lv_slider.h **** }
 314              		.loc 2 99 5 view .LVU65
 315 00c8 4FF42062 		mov	r2, #2560
 316 00cc 4FF48071 		mov	r1, #256
 317 00d0 FFF7FEFF 		bl	lv_bar_set_range
 318              	.LVL37:
  99:Middlewares/lvgl/examples/widgets/chart/../../../src/widgets/lv_slider.h **** }
 319              		.loc 2 99 5 is_stmt 0 view .LVU66
 320              	.LBE37:
 321              	.LBE36:
  94:Middlewares/lvgl/examples/widgets/chart/lv_example_chart_5.c ****     lv_obj_add_event_cb(slider, slider_y_event_cb, LV_EVENT_VALUE_CHANGED, NULL);
 322              		.loc 1 94 5 is_stmt 1 view .LVU67
 323 00d4 0023     		movs	r3, #0
 324 00d6 1C22     		movs	r2, #28
 325 00d8 0D49     		ldr	r1, .L11+16
 326 00da 2846     		mov	r0, r5
 327 00dc FFF7FEFF 		bl	lv_obj_add_event_cb
 328              	.LVL38:
  95:Middlewares/lvgl/examples/widgets/chart/lv_example_chart_5.c ****     lv_obj_set_size(slider, 10, 150);
 329              		.loc 1 95 5 view .LVU68
 330 00e0 9622     		movs	r2, #150
 331 00e2 0A21     		movs	r1, #10
 332 00e4 2846     		mov	r0, r5
 333 00e6 FFF7FEFF 		bl	lv_obj_set_size
 334              	.LVL39:
  96:Middlewares/lvgl/examples/widgets/chart/lv_example_chart_5.c ****     lv_obj_align_to(slider, chart, LV_ALIGN_OUT_RIGHT_MID, 20, 0);
 335              		.loc 1 96 5 view .LVU69
 336 00ea 0023     		movs	r3, #0
 337 00ec 0093     		str	r3, [sp]
 338 00ee 3346     		mov	r3, r6
 339 00f0 3246     		mov	r2, r6
 340 00f2 2168     		ldr	r1, [r4]
 341 00f4 2846     		mov	r0, r5
 342 00f6 FFF7FEFF 		bl	lv_obj_align_to
 343              	.LVL40:
  97:Middlewares/lvgl/examples/widgets/chart/lv_example_chart_5.c **** }
 344              		.loc 1 97 1 is_stmt 0 view .LVU70
 345 00fa 02B0     		add	sp, sp, #8
 346              	.LCFI4:
 347              		.cfi_def_cfa_offset 16
 348              		@ sp needed
 349 00fc 70BD     		pop	{r4, r5, r6, pc}
 350              	.LVL41:
 351              	.L12:
 352              		.loc 1 97 1 view .LVU71
ARM GAS  /tmp/cc8MR0Sw.s 			page 18


 353 00fe 00BF     		.align	2
 354              	.L11:
 355 0100 00000000 		.word	.LANCHOR0
 356 0104 18FCFFFF 		.word	-1000
 357 0108 00000000 		.word	.LANCHOR1
 358 010c 00000000 		.word	slider_x_event_cb
 359 0110 00000000 		.word	slider_y_event_cb
 360              		.cfi_endproc
 361              	.LFE186:
 363              		.section	.bss.chart,"aw",%nobits
 364              		.align	2
 365              		.set	.LANCHOR0,. + 0
 368              	chart:
 369 0000 00000000 		.space	4
 370              		.section	.rodata.ecg_sample,"a"
 371              		.align	2
 372              		.set	.LANCHOR1,. + 0
 375              	ecg_sample:
 376 0000 FEFF     		.short	-2
 377 0002 0200     		.short	2
 378 0004 0000     		.short	0
 379 0006 F1FF     		.short	-15
 380 0008 D9FF     		.short	-39
 381 000a C1FF     		.short	-63
 382 000c B9FF     		.short	-71
 383 000e BCFF     		.short	-68
 384 0010 BDFF     		.short	-67
 385 0012 BBFF     		.short	-69
 386 0014 ACFF     		.short	-84
 387 0016 A1FF     		.short	-95
 388 0018 98FF     		.short	-104
 389 001a 95FF     		.short	-107
 390 001c 94FF     		.short	-108
 391 001e 95FF     		.short	-107
 392 0020 95FF     		.short	-107
 393 0022 95FF     		.short	-107
 394 0024 95FF     		.short	-107
 395 0026 8EFF     		.short	-114
 396 0028 8AFF     		.short	-118
 397 002a 8BFF     		.short	-117
 398 002c 90FF     		.short	-112
 399 002e 9CFF     		.short	-100
 400 0030 A7FF     		.short	-89
 401 0032 ADFF     		.short	-83
 402 0034 B9FF     		.short	-71
 403 0036 C0FF     		.short	-64
 404 0038 C6FF     		.short	-58
 405 003a C6FF     		.short	-58
 406 003c C2FF     		.short	-62
 407 003e C2FF     		.short	-62
 408 0040 C6FF     		.short	-58
 409 0042 CDFF     		.short	-51
 410 0044 D2FF     		.short	-46
 411 0046 D9FF     		.short	-39
 412 0048 E5FF     		.short	-27
 413 004a F6FF     		.short	-10
 414 004c 0400     		.short	4
ARM GAS  /tmp/cc8MR0Sw.s 			page 19


 415 004e 0700     		.short	7
 416 0050 0100     		.short	1
 417 0052 FDFF     		.short	-3
 418 0054 0000     		.short	0
 419 0056 0E00     		.short	14
 420 0058 1800     		.short	24
 421 005a 1E00     		.short	30
 422 005c 1900     		.short	25
 423 005e 1300     		.short	19
 424 0060 0D00     		.short	13
 425 0062 0700     		.short	7
 426 0064 0C00     		.short	12
 427 0066 0F00     		.short	15
 428 0068 1200     		.short	18
 429 006a 1500     		.short	21
 430 006c 0D00     		.short	13
 431 006e 0600     		.short	6
 432 0070 0900     		.short	9
 433 0072 0800     		.short	8
 434 0074 1100     		.short	17
 435 0076 1300     		.short	19
 436 0078 0D00     		.short	13
 437 007a 0B00     		.short	11
 438 007c 0B00     		.short	11
 439 007e 0B00     		.short	11
 440 0080 1700     		.short	23
 441 0082 1E00     		.short	30
 442 0084 2500     		.short	37
 443 0086 2200     		.short	34
 444 0088 1900     		.short	25
 445 008a 0E00     		.short	14
 446 008c 0F00     		.short	15
 447 008e 1300     		.short	19
 448 0090 1C00     		.short	28
 449 0092 1F00     		.short	31
 450 0094 1A00     		.short	26
 451 0096 1700     		.short	23
 452 0098 1900     		.short	25
 453 009a 1F00     		.short	31
 454 009c 2700     		.short	39
 455 009e 2500     		.short	37
 456 00a0 2500     		.short	37
 457 00a2 2200     		.short	34
 458 00a4 1E00     		.short	30
 459 00a6 2000     		.short	32
 460 00a8 1600     		.short	22
 461 00aa 1D00     		.short	29
 462 00ac 1F00     		.short	31
 463 00ae 2100     		.short	33
 464 00b0 2500     		.short	37
 465 00b2 1700     		.short	23
 466 00b4 0D00     		.short	13
 467 00b6 0700     		.short	7
 468 00b8 0200     		.short	2
 469 00ba 0400     		.short	4
 470 00bc FEFF     		.short	-2
 471 00be 0200     		.short	2
ARM GAS  /tmp/cc8MR0Sw.s 			page 20


 472 00c0 0B00     		.short	11
 473 00c2 1600     		.short	22
 474 00c4 2100     		.short	33
 475 00c6 1300     		.short	19
 476 00c8 FFFF     		.short	-1
 477 00ca E5FF     		.short	-27
 478 00cc C9FF     		.short	-55
 479 00ce BDFF     		.short	-67
 480 00d0 B8FF     		.short	-72
 481 00d2 B9FF     		.short	-71
 482 00d4 C1FF     		.short	-63
 483 00d6 CFFF     		.short	-49
 484 00d8 EEFF     		.short	-18
 485 00da 2300     		.short	35
 486 00dc 7100     		.short	113
 487 00de E600     		.short	230
 488 00e0 7101     		.short	369
 489 00e2 0D02     		.short	525
 490 00e4 8B02     		.short	651
 491 00e6 D202     		.short	722
 492 00e8 DA02     		.short	730
 493 00ea 9B02     		.short	667
 494 00ec 3302     		.short	563
 495 00ee C601     		.short	454
 496 00f0 6501     		.short	357
 497 00f2 3101     		.short	305
 498 00f4 2001     		.short	288
 499 00f6 1201     		.short	274
 500 00f8 FF00     		.short	255
 501 00fa D400     		.short	212
 502 00fc AD00     		.short	173
 503 00fe 8F00     		.short	143
 504 0100 7500     		.short	117
 505 0102 5200     		.short	82
 506 0104 2700     		.short	39
 507 0106 F3FF     		.short	-13
 508 0108 CBFF     		.short	-53
 509 010a B2FF     		.short	-78
 510 010c A5FF     		.short	-91
 511 010e 9BFF     		.short	-101
 512 0110 8FFF     		.short	-113
 513 0112 84FF     		.short	-124
 514 0114 7DFF     		.short	-131
 515 0116 7DFF     		.short	-131
 516 0118 7DFF     		.short	-131
 517 011a 7FFF     		.short	-129
 518 011c 80FF     		.short	-128
 519 011e 7FFF     		.short	-129
 520 0120 83FF     		.short	-125
 521 0122 85FF     		.short	-123
 522 0124 85FF     		.short	-123
 523 0126 7FFF     		.short	-129
 524 0128 75FF     		.short	-139
 525 012a 6CFF     		.short	-148
 526 012c 67FF     		.short	-153
 527 012e 61FF     		.short	-159
 528 0130 5AFF     		.short	-166
ARM GAS  /tmp/cc8MR0Sw.s 			page 21


 529 0132 49FF     		.short	-183
 530 0134 33FF     		.short	-205
 531 0136 1DFF     		.short	-227
 532 0138 0DFF     		.short	-243
 533 013a 08FF     		.short	-248
 534 013c 0AFF     		.short	-246
 535 013e 02FF     		.short	-254
 536 0140 E8FE     		.short	-280
 537 0142 B9FE     		.short	-327
 538 0144 83FE     		.short	-381
 539 0146 53FE     		.short	-429
 540 0148 27FE     		.short	-473
 541 014a FBFD     		.short	-517
 542 014c D4FD     		.short	-556
 543 014e B0FD     		.short	-592
 544 0150 9CFD     		.short	-612
 545 0152 94FD     		.short	-620
 546 0154 94FD     		.short	-620
 547 0156 9AFD     		.short	-614
 548 0158 A4FD     		.short	-604
 549 015a B1FD     		.short	-591
 550 015c C2FD     		.short	-574
 551 015e E4FD     		.short	-540
 552 0160 0FFE     		.short	-497
 553 0162 47FE     		.short	-441
 554 0164 7BFE     		.short	-389
 555 0166 9AFE     		.short	-358
 556 0168 B0FE     		.short	-336
 557 016a C7FE     		.short	-313
 558 016c E4FE     		.short	-284
 559 016e 22FF     		.short	-222
 560 0170 59FF     		.short	-167
 561 0172 8EFF     		.short	-114
 562 0174 BAFF     		.short	-70
 563 0176 D1FF     		.short	-47
 564 0178 E4FF     		.short	-28
 565 017a FCFF     		.short	-4
 566 017c 0C00     		.short	12
 567 017e 2600     		.short	38
 568 0180 3400     		.short	52
 569 0182 3A00     		.short	58
 570 0184 3800     		.short	56
 571 0186 3800     		.short	56
 572 0188 3900     		.short	57
 573 018a 4400     		.short	68
 574 018c 4D00     		.short	77
 575 018e 5600     		.short	86
 576 0190 5600     		.short	86
 577 0192 5000     		.short	80
 578 0194 4500     		.short	69
 579 0196 4300     		.short	67
 580 0198 4600     		.short	70
 581 019a 5200     		.short	82
 582 019c 5500     		.short	85
 583 019e 5900     		.short	89
 584 01a0 5A00     		.short	90
 585 01a2 5900     		.short	89
ARM GAS  /tmp/cc8MR0Sw.s 			page 22


 586 01a4 5900     		.short	89
 587 01a6 5800     		.short	88
 588 01a8 5B00     		.short	91
 589 01aa 6000     		.short	96
 590 01ac 6100     		.short	97
 591 01ae 5B00     		.short	91
 592 01b0 5300     		.short	83
 593 01b2 4E00     		.short	78
 594 01b4 5200     		.short	82
 595 01b6 5800     		.short	88
 596 01b8 5F00     		.short	95
 597 01ba 6000     		.short	96
 598 01bc 6900     		.short	105
 599 01be 6A00     		.short	106
 600 01c0 6E00     		.short	110
 601 01c2 6600     		.short	102
 602 01c4 6400     		.short	100
 603 01c6 6000     		.short	96
 604 01c8 6200     		.short	98
 605 01ca 6100     		.short	97
 606 01cc 6500     		.short	101
 607 01ce 6200     		.short	98
 608 01d0 6300     		.short	99
 609 01d2 6400     		.short	100
 610 01d4 6B00     		.short	107
 611 01d6 7100     		.short	113
 612 01d8 7700     		.short	119
 613 01da 7300     		.short	115
 614 01dc 6E00     		.short	110
 615 01de 6000     		.short	96
 616 01e0 5500     		.short	85
 617 01e2 4900     		.short	73
 618 01e4 4000     		.short	64
 619 01e6 4500     		.short	69
 620 01e8 4C00     		.short	76
 621 01ea 4F00     		.short	79
 622 01ec 4E00     		.short	78
 623 01ee 4B00     		.short	75
 624 01f0 5500     		.short	85
 625 01f2 6400     		.short	100
 626 01f4 7200     		.short	114
 627 01f6 7100     		.short	113
 628 01f8 6900     		.short	105
 629 01fa 6000     		.short	96
 630 01fc 5400     		.short	84
 631 01fe 4A00     		.short	74
 632 0200 4200     		.short	66
 633 0202 3C00     		.short	60
 634 0204 4B00     		.short	75
 635 0206 5500     		.short	85
 636 0208 5900     		.short	89
 637 020a 5300     		.short	83
 638 020c 4300     		.short	67
 639 020e 3D00     		.short	61
 640 0210 4300     		.short	67
 641 0212 4900     		.short	73
 642 0214 4F00     		.short	79
ARM GAS  /tmp/cc8MR0Sw.s 			page 23


 643 0216 4A00     		.short	74
 644 0218 3F00     		.short	63
 645 021a 3900     		.short	57
 646 021c 3800     		.short	56
 647 021e 3A00     		.short	58
 648 0220 3D00     		.short	61
 649 0222 3700     		.short	55
 650 0224 3000     		.short	48
 651 0226 2D00     		.short	45
 652 0228 2E00     		.short	46
 653 022a 3700     		.short	55
 654 022c 3E00     		.short	62
 655 022e 3700     		.short	55
 656 0230 3100     		.short	49
 657 0232 2B00     		.short	43
 658 0234 3200     		.short	50
 659 0236 3B00     		.short	59
 660 0238 3F00     		.short	63
 661 023a 3900     		.short	57
 662 023c 2800     		.short	40
 663 023e 1F00     		.short	31
 664 0240 1700     		.short	23
 665 0242 1900     		.short	25
 666 0244 1B00     		.short	27
 667 0246 1F00     		.short	31
 668 0248 2300     		.short	35
 669 024a 2200     		.short	34
 670 024c 1E00     		.short	30
 671 024e 2400     		.short	36
 672 0250 2200     		.short	34
 673 0252 2A00     		.short	42
 674 0254 2600     		.short	38
 675 0256 2400     		.short	36
 676 0258 2800     		.short	40
 677 025a 2E00     		.short	46
 678 025c 3200     		.short	50
 679 025e 2F00     		.short	47
 680 0260 2000     		.short	32
 681 0262 1E00     		.short	30
 682 0264 2000     		.short	32
 683 0266 3400     		.short	52
 684 0268 4300     		.short	67
 685 026a 4900     		.short	73
 686 026c 4700     		.short	71
 687 026e 3F00     		.short	63
 688 0270 3600     		.short	54
 689 0272 3500     		.short	53
 690 0274 2D00     		.short	45
 691 0276 2900     		.short	41
 692 0278 1C00     		.short	28
 693 027a 0D00     		.short	13
 694 027c 0300     		.short	3
 695 027e 0100     		.short	1
 696 0280 0400     		.short	4
 697 0282 0400     		.short	4
 698 0284 F8FF     		.short	-8
 699 0286 E9FF     		.short	-23
ARM GAS  /tmp/cc8MR0Sw.s 			page 24


 700 0288 E0FF     		.short	-32
 701 028a E1FF     		.short	-31
 702 028c EDFF     		.short	-19
 703 028e FBFF     		.short	-5
 704 0290 0300     		.short	3
 705 0292 0900     		.short	9
 706 0294 0D00     		.short	13
 707 0296 1300     		.short	19
 708 0298 1800     		.short	24
 709 029a 1B00     		.short	27
 710 029c 1D00     		.short	29
 711 029e 1900     		.short	25
 712 02a0 1600     		.short	22
 713 02a2 1A00     		.short	26
 714 02a4 2000     		.short	32
 715 02a6 2A00     		.short	42
 716 02a8 3300     		.short	51
 717 02aa 3800     		.short	56
 718 02ac 3C00     		.short	60
 719 02ae 3900     		.short	57
 720 02b0 3700     		.short	55
 721 02b2 3500     		.short	53
 722 02b4 3500     		.short	53
 723 02b6 3600     		.short	54
 724 02b8 3B00     		.short	59
 725 02ba 3600     		.short	54
 726 02bc 3100     		.short	49
 727 02be 1A00     		.short	26
 728 02c0 FDFF     		.short	-3
 729 02c2 F5FF     		.short	-11
 730 02c4 ECFF     		.short	-20
 731 02c6 D1FF     		.short	-47
 732 02c8 9CFF     		.short	-100
 733 02ca 3EFF     		.short	-194
 734 02cc 14FF     		.short	-236
 735 02ce 2CFF     		.short	-212
 736 02d0 85FF     		.short	-123
 737 02d2 0800     		.short	8
 738 02d4 6700     		.short	103
 739 02d6 8E00     		.short	142
 740 02d8 9300     		.short	147
 741 02da 7800     		.short	120
 742 02dc 6900     		.short	105
 743 02de 6200     		.short	98
 744 02e0 5D00     		.short	93
 745 02e2 5100     		.short	81
 746 02e4 3D00     		.short	61
 747 02e6 2800     		.short	40
 748 02e8 1A00     		.short	26
 749 02ea 1C00     		.short	28
 750 02ec 1E00     		.short	30
 751 02ee 1E00     		.short	30
 752 02f0 1B00     		.short	27
 753 02f2 1300     		.short	19
 754 02f4 1100     		.short	17
 755 02f6 1500     		.short	21
 756 02f8 1400     		.short	20
ARM GAS  /tmp/cc8MR0Sw.s 			page 25


 757 02fa 1300     		.short	19
 758 02fc 1300     		.short	19
 759 02fe 1600     		.short	22
 760 0300 2400     		.short	36
 761 0302 2800     		.short	40
 762 0304 2300     		.short	35
 763 0306 1400     		.short	20
 764 0308 0700     		.short	7
 765 030a 0100     		.short	1
 766 030c 0A00     		.short	10
 767 030e 1200     		.short	18
 768 0310 1B00     		.short	27
 769 0312 1600     		.short	22
 770 0314 0600     		.short	6
 771 0316 FCFF     		.short	-4
 772 0318 FEFF     		.short	-2
 773 031a 0300     		.short	3
 774 031c 0600     		.short	6
 775 031e FEFF     		.short	-2
 776 0320 F3FF     		.short	-13
 777 0322 F2FF     		.short	-14
 778 0324 F6FF     		.short	-10
 779 0326 FEFF     		.short	-2
 780 0328 0300     		.short	3
 781 032a 0200     		.short	2
 782 032c FFFF     		.short	-1
 783 032e FBFF     		.short	-5
 784 0330 F6FF     		.short	-10
 785 0332 EDFF     		.short	-19
 786 0334 E0FF     		.short	-32
 787 0336 D6FF     		.short	-42
 788 0338 C9FF     		.short	-55
 789 033a C4FF     		.short	-60
 790 033c BCFF     		.short	-68
 791 033e B3FF     		.short	-77
 792 0340 AAFF     		.short	-86
 793 0342 9BFF     		.short	-101
 794 0344 92FF     		.short	-110
 795 0346 8BFF     		.short	-117
 796 0348 8DFF     		.short	-115
 797 034a 98FF     		.short	-104
 798 034c A4FF     		.short	-92
 799 034e ACFF     		.short	-84
 800 0350 ABFF     		.short	-85
 801 0352 ACFF     		.short	-84
 802 0354 B7FF     		.short	-73
 803 0356 BFFF     		.short	-65
 804 0358 CCFF     		.short	-52
 805 035a CEFF     		.short	-50
 806 035c D3FF     		.short	-45
 807 035e DDFF     		.short	-35
 808 0360 ECFF     		.short	-20
 809 0362 FDFF     		.short	-3
 810 0364 0C00     		.short	12
 811 0366 1400     		.short	20
 812 0368 1900     		.short	25
 813 036a 1A00     		.short	26
ARM GAS  /tmp/cc8MR0Sw.s 			page 26


 814 036c 1C00     		.short	28
 815 036e 1C00     		.short	28
 816 0370 1E00     		.short	30
 817 0372 1C00     		.short	28
 818 0374 1900     		.short	25
 819 0376 1C00     		.short	28
 820 0378 2100     		.short	33
 821 037a 2A00     		.short	42
 822 037c 2A00     		.short	42
 823 037e 2400     		.short	36
 824 0380 1700     		.short	23
 825 0382 0900     		.short	9
 826 0384 0000     		.short	0
 827 0386 0100     		.short	1
 828 0388 FCFF     		.short	-4
 829 038a 0100     		.short	1
 830 038c FCFF     		.short	-4
 831 038e FCFF     		.short	-4
 832 0390 0100     		.short	1
 833 0392 0500     		.short	5
 834 0394 0900     		.short	9
 835 0396 0900     		.short	9
 836 0398 FDFF     		.short	-3
 837 039a FFFF     		.short	-1
 838 039c EEFF     		.short	-18
 839 039e CEFF     		.short	-50
 840 03a0 94FF     		.short	-108
 841 03a2 42FF     		.short	-190
 842 03a4 F0FE     		.short	-272
 843 03a6 ACFE     		.short	-340
 844 03a8 68FE     		.short	-408
 845 03aa 42FE     		.short	-446
 846 03ac E7FD     		.short	-537
 847 03ae 7DFD     		.short	-643
 848 03b0 F7FC     		.short	-777
 849 03b2 82FC     		.short	-894
 850 03b4 68FC     		.short	-920
 851 03b6 ABFC     		.short	-853
 852 03b8 47FD     		.short	-697
 853 03ba 33FE     		.short	-461
 854 03bc 05FF     		.short	-251
 855 03be C4FF     		.short	-60
 856 03c0 3A00     		.short	58
 857 03c2 6700     		.short	103
 858 03c4 8100     		.short	129
 859 03c6 8B00     		.short	139
 860 03c8 9B00     		.short	155
 861 03ca AA00     		.short	170
 862 03cc AD00     		.short	173
 863 03ce B200     		.short	178
 864 03d0 B900     		.short	185
 865 03d2 BE00     		.short	190
 866 03d4 C100     		.short	193
 867 03d6 C800     		.short	200
 868 03d8 D000     		.short	208
 869 03da D700     		.short	215
 870 03dc E100     		.short	225
ARM GAS  /tmp/cc8MR0Sw.s 			page 27


 871 03de E000     		.short	224
 872 03e0 E800     		.short	232
 873 03e2 EA00     		.short	234
 874 03e4 F000     		.short	240
 875 03e6 F000     		.short	240
 876 03e8 EC00     		.short	236
 877 03ea E500     		.short	229
 878 03ec E200     		.short	226
 879 03ee E000     		.short	224
 880 03f0 E800     		.short	232
 881 03f2 E900     		.short	233
 882 03f4 E800     		.short	232
 883 03f6 E000     		.short	224
 884 03f8 DB00     		.short	219
 885 03fa DB00     		.short	219
 886 03fc DF00     		.short	223
 887 03fe E700     		.short	231
 888 0400 E200     		.short	226
 889 0402 DF00     		.short	223
 890 0404 DB00     		.short	219
 891 0406 DA00     		.short	218
 892 0408 DF00     		.short	223
 893 040a DF00     		.short	223
 894 040c DF00     		.short	223
 895 040e E900     		.short	233
 896 0410 F500     		.short	245
 897 0412 0C01     		.short	268
 898 0414 1E01     		.short	286
 899 0416 2801     		.short	296
 900 0418 2701     		.short	295
 901 041a 1B01     		.short	283
 902 041c 0F01     		.short	271
 903 041e 0701     		.short	263
 904 0420 FC00     		.short	252
 905 0422 F300     		.short	243
 906 0424 E200     		.short	226
 907 0426 D200     		.short	210
 908 0428 C500     		.short	197
 909 042a BA00     		.short	186
 910 042c AB00     		.short	171
 911 042e 9800     		.short	152
 912 0430 8500     		.short	133
 913 0432 7500     		.short	117
 914 0434 7200     		.short	114
 915 0436 6E00     		.short	110
 916 0438 6B00     		.short	107
 917 043a 6000     		.short	96
 918 043c 5000     		.short	80
 919 043e 3F00     		.short	63
 920 0440 3000     		.short	48
 921 0442 2800     		.short	40
 922 0444 2600     		.short	38
 923 0446 2200     		.short	34
 924 0448 1C00     		.short	28
 925 044a 0F00     		.short	15
 926 044c 0200     		.short	2
 927 044e F9FF     		.short	-7
ARM GAS  /tmp/cc8MR0Sw.s 			page 28


 928 0450 F5FF     		.short	-11
 929 0452 F2FF     		.short	-14
 930 0454 EEFF     		.short	-18
 931 0456 E3FF     		.short	-29
 932 0458 DBFF     		.short	-37
 933 045a D4FF     		.short	-44
 934 045c CEFF     		.short	-50
 935 045e C6FF     		.short	-58
 936 0460 C1FF     		.short	-63
 937 0462 C3FF     		.short	-61
 938 0464 CCFF     		.short	-52
 939 0466 CEFF     		.short	-50
 940 0468 D0FF     		.short	-48
 941 046a C3FF     		.short	-61
 942 046c C5FF     		.short	-59
 943 046e C6FF     		.short	-58
 944 0470 CAFF     		.short	-54
 945 0472 D1FF     		.short	-47
 946 0474 CCFF     		.short	-52
 947 0476 C2FF     		.short	-62
 948 0478 C3FF     		.short	-61
 949 047a C0FF     		.short	-64
 950 047c CAFF     		.short	-54
 951 047e CCFF     		.short	-52
 952 0480 C5FF     		.short	-59
 953 0482 BBFF     		.short	-69
 954 0484 B4FF     		.short	-76
 955 0486 B4FF     		.short	-76
 956 0488 BBFF     		.short	-69
 957 048a BDFF     		.short	-67
 958 048c B6FF     		.short	-74
 959 048e B2FF     		.short	-78
 960 0490 AFFF     		.short	-81
 961 0492 B0FF     		.short	-80
 962 0494 B7FF     		.short	-73
 963 0496 BFFF     		.short	-65
 964 0498 C7FF     		.short	-57
 965 049a CBFF     		.short	-53
 966 049c CDFF     		.short	-51
 967 049e D1FF     		.short	-47
 968 04a0 DDFF     		.short	-35
 969 04a2 E5FF     		.short	-27
 970 04a4 EAFF     		.short	-22
 971 04a6 EAFF     		.short	-22
 972 04a8 E8FF     		.short	-24
 973 04aa EBFF     		.short	-21
 974 04ac EFFF     		.short	-17
 975 04ae F3FF     		.short	-13
 976 04b0 F6FF     		.short	-10
 977 04b2 F5FF     		.short	-11
 978 04b4 F3FF     		.short	-13
 979 04b6 ECFF     		.short	-20
 980 04b8 ECFF     		.short	-20
 981 04ba F4FF     		.short	-12
 982 04bc FEFF     		.short	-2
 983 04be 0700     		.short	7
 984 04c0 FFFF     		.short	-1
ARM GAS  /tmp/cc8MR0Sw.s 			page 29


 985 04c2 F4FF     		.short	-12
 986 04c4 F0FF     		.short	-16
 987 04c6 F3FF     		.short	-13
 988 04c8 FEFF     		.short	-2
 989 04ca 0200     		.short	2
 990 04cc FCFF     		.short	-4
 991 04ce FBFF     		.short	-5
 992 04d0 FEFF     		.short	-2
 993 04d2 0900     		.short	9
 994 04d4 1300     		.short	19
 995 04d6 1300     		.short	19
 996 04d8 0E00     		.short	14
 997 04da 0B00     		.short	11
 998 04dc 0D00     		.short	13
 999 04de 1300     		.short	19
 1000 04e0 1500     		.short	21
 1001 04e2 1400     		.short	20
 1002 04e4 1200     		.short	18
 1003 04e6 1300     		.short	19
 1004 04e8 1300     		.short	19
 1005 04ea 1300     		.short	19
 1006 04ec 1000     		.short	16
 1007 04ee 0F00     		.short	15
 1008 04f0 0D00     		.short	13
 1009 04f2 0E00     		.short	14
 1010 04f4 0900     		.short	9
 1011 04f6 0300     		.short	3
 1012 04f8 FBFF     		.short	-5
 1013 04fa F7FF     		.short	-9
 1014 04fc FBFF     		.short	-5
 1015 04fe FDFF     		.short	-3
 1016 0500 FEFF     		.short	-2
 1017 0502 FDFF     		.short	-3
 1018 0504 FDFF     		.short	-3
 1019 0506 0200     		.short	2
 1020 0508 0800     		.short	8
 1021 050a 0900     		.short	9
 1022 050c 0900     		.short	9
 1023 050e 0500     		.short	5
 1024 0510 0600     		.short	6
 1025 0512 0800     		.short	8
 1026 0514 0800     		.short	8
 1027 0516 0700     		.short	7
 1028 0518 0400     		.short	4
 1029 051a 0300     		.short	3
 1030 051c 0400     		.short	4
 1031 051e 0500     		.short	5
 1032 0520 0300     		.short	3
 1033 0522 0500     		.short	5
 1034 0524 0500     		.short	5
 1035 0526 0D00     		.short	13
 1036 0528 0D00     		.short	13
 1037 052a 0C00     		.short	12
 1038 052c 0A00     		.short	10
 1039 052e 0A00     		.short	10
 1040 0530 0F00     		.short	15
 1041 0532 1600     		.short	22
ARM GAS  /tmp/cc8MR0Sw.s 			page 30


 1042 0534 1100     		.short	17
 1043 0536 0E00     		.short	14
 1044 0538 0700     		.short	7
 1045 053a 0A00     		.short	10
 1046 053c 0F00     		.short	15
 1047 053e 1000     		.short	16
 1048 0540 0B00     		.short	11
 1049 0542 0C00     		.short	12
 1050 0544 0A00     		.short	10
 1051 0546 0D00     		.short	13
 1052 0548 0900     		.short	9
 1053 054a FEFF     		.short	-2
 1054 054c FCFF     		.short	-4
 1055 054e FEFF     		.short	-2
 1056 0550 0700     		.short	7
 1057 0552 1000     		.short	16
 1058 0554 1000     		.short	16
 1059 0556 1100     		.short	17
 1060 0558 1000     		.short	16
 1061 055a 0700     		.short	7
 1062 055c FFFF     		.short	-1
 1063 055e F0FF     		.short	-16
 1064 0560 EEFF     		.short	-18
 1065 0562 F0FF     		.short	-16
 1066 0564 F7FF     		.short	-9
 1067 0566 FCFF     		.short	-4
 1068 0568 FBFF     		.short	-5
 1069 056a F6FF     		.short	-10
 1070 056c F7FF     		.short	-9
 1071 056e F8FF     		.short	-8
 1072 0570 FDFF     		.short	-3
 1073 0572 FCFF     		.short	-4
 1074 0574 F6FF     		.short	-10
 1075 0576 EDFF     		.short	-19
 1076 0578 ECFF     		.short	-20
 1077 057a F0FF     		.short	-16
 1078 057c F7FF     		.short	-9
 1079 057e F7FF     		.short	-9
 1080 0580 E9FF     		.short	-23
 1081 0582 D8FF     		.short	-40
 1082 0584 D0FF     		.short	-48
 1083 0586 D5FF     		.short	-43
 1084 0588 DFFF     		.short	-33
 1085 058a EDFF     		.short	-19
 1086 058c EBFF     		.short	-21
 1087 058e E6FF     		.short	-26
 1088 0590 E1FF     		.short	-31
 1089 0592 DFFF     		.short	-33
 1090 0594 EDFF     		.short	-19
 1091 0596 0000     		.short	0
 1092 0598 1100     		.short	17
 1093 059a 1800     		.short	24
 1094 059c 0900     		.short	9
 1095 059e EFFF     		.short	-17
 1096 05a0 D1FF     		.short	-47
 1097 05a2 C1FF     		.short	-63
 1098 05a4 BDFF     		.short	-67
ARM GAS  /tmp/cc8MR0Sw.s 			page 31


 1099 05a6 C5FF     		.short	-59
 1100 05a8 CCFF     		.short	-52
 1101 05aa CDFF     		.short	-51
 1102 05ac CEFF     		.short	-50
 1103 05ae CFFF     		.short	-49
 1104 05b0 D6FF     		.short	-42
 1105 05b2 E6FF     		.short	-26
 1106 05b4 EBFF     		.short	-21
 1107 05b6 F1FF     		.short	-15
 1108 05b8 ECFF     		.short	-20
 1109 05ba E9FF     		.short	-23
 1110 05bc EAFF     		.short	-22
 1111 05be EDFF     		.short	-19
 1112 05c0 F4FF     		.short	-12
 1113 05c2 F8FF     		.short	-8
 1114 05c4 0500     		.short	5
 1115 05c6 1200     		.short	18
 1116 05c8 1B00     		.short	27
 1117 05ca 2000     		.short	32
 1118 05cc 1A00     		.short	26
 1119 05ce 1900     		.short	25
 1120 05d0 1A00     		.short	26
 1121 05d2 1600     		.short	22
 1122 05d4 1700     		.short	23
 1123 05d6 1100     		.short	17
 1124 05d8 0E00     		.short	14
 1125 05da 1100     		.short	17
 1126 05dc 1500     		.short	21
 1127 05de 1900     		.short	25
 1128 05e0 0200     		.short	2
 1129 05e2 D3FF     		.short	-45
 1130 05e4 87FF     		.short	-121
 1131 05e6 3CFF     		.short	-196
 1132 05e8 1EFF     		.short	-226
 1133 05ea 38FF     		.short	-200
 1134 05ec 8AFF     		.short	-118
 1135 05ee F7FF     		.short	-9
 1136 05f0 4900     		.short	73
 1137 05f2 7E00     		.short	126
 1138 05f4 8300     		.short	131
 1139 05f6 7200     		.short	114
 1140 05f8 5700     		.short	87
 1141 05fa 3C00     		.short	60
 1142 05fc 2A00     		.short	42
 1143 05fe 1D00     		.short	29
 1144 0600 1A00     		.short	26
 1145 0602 2200     		.short	34
 1146 0604 2300     		.short	35
 1147 0606 2200     		.short	34
 1148 0608 1900     		.short	25
 1149 060a 0C00     		.short	12
 1150 060c 0900     		.short	9
 1151 060e 0700     		.short	7
 1152 0610 0300     		.short	3
 1153 0612 0200     		.short	2
 1154 0614 F8FF     		.short	-8
 1155 0616 F5FF     		.short	-11
ARM GAS  /tmp/cc8MR0Sw.s 			page 32


 1156 0618 0200     		.short	2
 1157 061a 1700     		.short	23
 1158 061c 2600     		.short	38
 1159 061e 2900     		.short	41
 1160 0620 1700     		.short	23
 1161 0622 0900     		.short	9
 1162 0624 0A00     		.short	10
 1163 0626 0D00     		.short	13
 1164 0628 1000     		.short	16
 1165 062a 0800     		.short	8
 1166 062c F8FF     		.short	-8
 1167 062e EFFF     		.short	-17
 1168 0630 E9FF     		.short	-23
 1169 0632 E6FF     		.short	-26
 1170 0634 E7FF     		.short	-25
 1171 0636 EBFF     		.short	-21
 1172 0638 F1FF     		.short	-15
 1173 063a F6FF     		.short	-10
 1174 063c F3FF     		.short	-13
 1175 063e F3FF     		.short	-13
 1176 0640 EDFF     		.short	-19
 1177 0642 EAFF     		.short	-22
 1178 0644 E3FF     		.short	-29
 1179 0646 D8FF     		.short	-40
 1180 0648 D0FF     		.short	-48
 1181 064a D0FF     		.short	-48
 1182 064c CAFF     		.short	-54
 1183 064e C9FF     		.short	-55
 1184 0650 BEFF     		.short	-66
 1185 0652 AEFF     		.short	-82
 1186 0654 ABFF     		.short	-85
 1187 0656 A6FF     		.short	-90
 1188 0658 A4FF     		.short	-92
 1189 065a 9EFF     		.short	-98
 1190 065c 8EFF     		.short	-114
 1191 065e 89FF     		.short	-119
 1192 0660 84FF     		.short	-124
 1193 0662 7FFF     		.short	-129
 1194 0664 7CFF     		.short	-132
 1195 0666 6EFF     		.short	-146
 1196 0668 6EFF     		.short	-146
 1197 066a 76FF     		.short	-138
 1198 066c 84FF     		.short	-124
 1199 066e 9DFF     		.short	-99
 1200 0670 ABFF     		.short	-85
 1201 0672 B8FF     		.short	-72
 1202 0674 BFFF     		.short	-65
 1203 0676 BFFF     		.short	-65
 1204 0678 BFFF     		.short	-65
 1205 067a BEFF     		.short	-66
 1206 067c C1FF     		.short	-63
 1207 067e C0FF     		.short	-64
 1208 0680 C0FF     		.short	-64
 1209 0682 C6FF     		.short	-58
 1210 0684 D2FF     		.short	-46
 1211 0686 E6FF     		.short	-26
 1212 0688 F7FF     		.short	-9
ARM GAS  /tmp/cc8MR0Sw.s 			page 33


 1213 068a 0200     		.short	2
 1214 068c 0200     		.short	2
 1215 068e 0400     		.short	4
 1216 0690 0000     		.short	0
 1217 0692 0100     		.short	1
 1218 0694 0400     		.short	4
 1219 0696 0300     		.short	3
 1220 0698 0A00     		.short	10
 1221 069a 0B00     		.short	11
 1222 069c 0A00     		.short	10
 1223 069e 0200     		.short	2
 1224 06a0 FCFF     		.short	-4
 1225 06a2 0000     		.short	0
 1226 06a4 0A00     		.short	10
 1227 06a6 1200     		.short	18
 1228 06a8 1400     		.short	20
 1229 06aa 0600     		.short	6
 1230 06ac 0200     		.short	2
 1231 06ae F7FF     		.short	-9
 1232 06b0 F9FF     		.short	-7
 1233 06b2 FDFF     		.short	-3
 1234 06b4 FDFF     		.short	-3
 1235 06b6 FEFF     		.short	-2
 1236 06b8 F9FF     		.short	-7
 1237 06ba F4FF     		.short	-12
 1238 06bc FBFF     		.short	-5
 1239 06be 0500     		.short	5
 1240 06c0 1800     		.short	24
 1241 06c2 2400     		.short	36
 1242 06c4 1F00     		.short	31
 1243 06c6 1900     		.short	25
 1244 06c8 0600     		.short	6
 1245 06ca 0300     		.short	3
 1246 06cc 0700     		.short	7
 1247 06ce 0C00     		.short	12
 1248 06d0 1100     		.short	17
 1249 06d2 0B00     		.short	11
 1250 06d4 0000     		.short	0
 1251 06d6 FAFF     		.short	-6
 1252 06d8 F7FF     		.short	-9
 1253 06da F8FF     		.short	-8
 1254 06dc F9FF     		.short	-7
 1255 06de FBFF     		.short	-5
 1256 06e0 FAFF     		.short	-6
 1257 06e2 FEFF     		.short	-2
 1258 06e4 FEFF     		.short	-2
 1259 06e6 FAFF     		.short	-6
 1260 06e8 FEFF     		.short	-2
 1261 06ea 0200     		.short	2
 1262 06ec 0E00     		.short	14
 1263 06ee 1800     		.short	24
 1264 06f0 1600     		.short	22
 1265 06f2 0F00     		.short	15
 1266 06f4 0800     		.short	8
 1267 06f6 0400     		.short	4
 1268 06f8 0600     		.short	6
 1269 06fa 0700     		.short	7
ARM GAS  /tmp/cc8MR0Sw.s 			page 34


 1270 06fc 0C00     		.short	12
 1271 06fe 1000     		.short	16
 1272 0700 1900     		.short	25
 1273 0702 1400     		.short	20
 1274 0704 0700     		.short	7
 1275 0706 F0FF     		.short	-16
 1276 0708 D7FF     		.short	-41
 1277 070a C4FF     		.short	-60
 1278 070c BDFF     		.short	-67
 1279 070e BFFF     		.short	-65
 1280 0710 CAFF     		.short	-54
 1281 0712 DDFF     		.short	-35
 1282 0714 F5FF     		.short	-11
 1283 0716 1E00     		.short	30
 1284 0718 5400     		.short	84
 1285 071a AF00     		.short	175
 1286 071c 2E01     		.short	302
 1287 071e C701     		.short	455
 1288 0720 5B02     		.short	603
 1289 0722 C302     		.short	707
 1290 0724 E702     		.short	743
 1291 0726 CA02     		.short	714
 1292 0728 7102     		.short	625
 1293 072a 0702     		.short	519
 1294 072c 9E01     		.short	414
 1295 072e 5101     		.short	337
 1296 0730 2C01     		.short	300
 1297 0732 1901     		.short	281
 1298 0734 0701     		.short	263
 1299 0736 EF00     		.short	239
 1300 0738 C500     		.short	197
 1301 073a A300     		.short	163
 1302 073c 8800     		.short	136
 1303 073e 6D00     		.short	109
 1304 0740 4D00     		.short	77
 1305 0742 2200     		.short	34
 1306 0744 EEFF     		.short	-18
 1307 0746 CEFF     		.short	-50
 1308 0748 BEFF     		.short	-66
 1309 074a B6FF     		.short	-74
 1310 074c B1FF     		.short	-79
 1311 074e A4FF     		.short	-92
 1312 0750 95FF     		.short	-107
 1313 0752 8BFF     		.short	-117
 1314 0754 81FF     		.short	-127
 1315 0756 7FFF     		.short	-129
 1316 0758 79FF     		.short	-135
 1317 075a 75FF     		.short	-139
 1318 075c 73FF     		.short	-141
 1319 075e 65FF     		.short	-155
 1320 0760 61FF     		.short	-159
 1321 0762 59FF     		.short	-167
 1322 0764 55FF     		.short	-171
 1323 0766 57FF     		.short	-169
 1324 0768 52FF     		.short	-174
 1325 076a 51FF     		.short	-175
 1326 076c 4EFF     		.short	-178
ARM GAS  /tmp/cc8MR0Sw.s 			page 35


 1327 076e 41FF     		.short	-191
 1328 0770 36FF     		.short	-202
 1329 0772 21FF     		.short	-223
 1330 0774 15FF     		.short	-235
 1331 0776 0DFF     		.short	-243
 1332 0778 13FF     		.short	-237
 1333 077a 10FF     		.short	-240
 1334 077c 00FF     		.short	-256
 1335 077e D6FE     		.short	-298
 1336 0780 A7FE     		.short	-345
 1337 0782 77FE     		.short	-393
 1338 0784 50FE     		.short	-432
 1339 0786 25FE     		.short	-475
 1340 0788 FAFD     		.short	-518
 1341 078a CBFD     		.short	-565
 1342 078c ACFD     		.short	-596
 1343 078e 95FD     		.short	-619
 1344 0790 91FD     		.short	-623
 1345 0792 91FD     		.short	-623
 1346 0794 9AFD     		.short	-614
 1347 0796 A9FD     		.short	-599
 1348 0798 B9FD     		.short	-583
 1349 079a D1FD     		.short	-559
 1350 079c F4FD     		.short	-524
 1351 079e 23FE     		.short	-477
 1352 07a0 57FE     		.short	-425
 1353 07a2 81FE     		.short	-383
 1354 07a4 9BFE     		.short	-357
 1355 07a6 B5FE     		.short	-331
 1356 07a8 D3FE     		.short	-301
 1357 07aa 04FF     		.short	-252
 1358 07ac 3AFF     		.short	-198
 1359 07ae 71FF     		.short	-143
 1360 07b0 A0FF     		.short	-96
 1361 07b2 C7FF     		.short	-57
 1362 07b4 E3FF     		.short	-29
 1363 07b6 F8FF     		.short	-8
 1364 07b8 0A00     		.short	10
 1365 07ba 1F00     		.short	31
 1366 07bc 2D00     		.short	45
 1367 07be 3C00     		.short	60
 1368 07c0 4100     		.short	65
 1369 07c2 4600     		.short	70
 1370 07c4 4A00     		.short	74
 1371 07c6 4C00     		.short	76
 1372 07c8 4F00     		.short	79
 1373 07ca 5200     		.short	82
 1374 07cc 4F00     		.short	79
 1375 07ce 4B00     		.short	75
 1376 07d0 3E00     		.short	62
 1377              		.text
 1378              	.Letext0:
 1379              		.file 5 "/home/akinya/gcc-arm-none-eabi/arm-none-eabi/include/machine/_default_types.h"
 1380              		.file 6 "/home/akinya/gcc-arm-none-eabi/arm-none-eabi/include/sys/_stdint.h"
 1381              		.file 7 "Middlewares/lvgl/examples/widgets/chart/../../../src/misc/lv_ll.h"
 1382              		.file 8 "Middlewares/lvgl/examples/widgets/chart/../../../src/hal/../misc/lv_color.h"
 1383              		.file 9 "Middlewares/lvgl/examples/widgets/chart/../../../src/hal/../misc/lv_area.h"
ARM GAS  /tmp/cc8MR0Sw.s 			page 36


 1384              		.file 10 "Middlewares/lvgl/examples/widgets/chart/../../../src/core/lv_obj.h"
 1385              		.file 11 "Middlewares/lvgl/examples/widgets/chart/../../../src/core/lv_group.h"
 1386              		.file 12 "Middlewares/lvgl/examples/widgets/chart/../../../src/core/../misc/lv_style.h"
 1387              		.file 13 "Middlewares/lvgl/examples/widgets/chart/../../../src/core/lv_obj_scroll.h"
 1388              		.file 14 "Middlewares/lvgl/examples/widgets/chart/../../../src/core/lv_obj_class.h"
 1389              		.file 15 "Middlewares/lvgl/examples/widgets/chart/../../../src/core/lv_event.h"
 1390              		.file 16 "Middlewares/lvgl/examples/widgets/chart/../../../src/widgets/lv_bar.h"
 1391              		.file 17 "Middlewares/lvgl/examples/widgets/chart/../../../src/extra/widgets/chart/lv_chart.h"
 1392              		.file 18 "Middlewares/lvgl/examples/widgets/chart/../../../src/extra/widgets/imgbtn/lv_imgbtn.h"
 1393              		.file 19 "Middlewares/lvgl/examples/widgets/chart/../../../src/hal/lv_hal_disp.h"
 1394              		.file 20 "Middlewares/lvgl/examples/widgets/chart/../../../src/core/lv_obj_style_gen.h"
 1395              		.file 21 "Middlewares/lvgl/examples/widgets/chart/../../../src/core/lv_obj_pos.h"
ARM GAS  /tmp/cc8MR0Sw.s 			page 37

