ARM GAS  /tmp/cceKd5Am.s 			page 1


   1              		.cpu cortex-m4
   2              		.arch armv7e-m
   3              		.fpu fpv4-sp-d16
   4              		.eabi_attribute 27, 1
   5              		.eabi_attribute 28, 1
   6              		.eabi_attribute 20, 1
   7              		.eabi_attribute 21, 1
   8              		.eabi_attribute 23, 3
   9              		.eabi_attribute 24, 1
  10              		.eabi_attribute 25, 1
  11              		.eabi_attribute 26, 1
  12              		.eabi_attribute 30, 1
  13              		.eabi_attribute 34, 1
  14              		.eabi_attribute 18, 4
  15              		.file	"lv_list.c"
  16              		.text
  17              	.Ltext0:
  18              		.cfi_sections	.debug_frame
  19              		.section	.text.lv_list_create,"ax",%progbits
  20              		.align	1
  21              		.global	lv_list_create
  22              		.syntax unified
  23              		.thumb
  24              		.thumb_func
  26              	lv_list_create:
  27              	.LVL0:
  28              	.LFB158:
  29              		.file 1 "Middlewares/lvgl/src/extra/widgets/list/lv_list.c"
   1:Middlewares/lvgl/src/extra/widgets/list/lv_list.c **** /**
   2:Middlewares/lvgl/src/extra/widgets/list/lv_list.c ****  * @file lv_list.c
   3:Middlewares/lvgl/src/extra/widgets/list/lv_list.c ****  *
   4:Middlewares/lvgl/src/extra/widgets/list/lv_list.c ****  */
   5:Middlewares/lvgl/src/extra/widgets/list/lv_list.c **** 
   6:Middlewares/lvgl/src/extra/widgets/list/lv_list.c **** /*********************
   7:Middlewares/lvgl/src/extra/widgets/list/lv_list.c ****  *      INCLUDES
   8:Middlewares/lvgl/src/extra/widgets/list/lv_list.c ****  *********************/
   9:Middlewares/lvgl/src/extra/widgets/list/lv_list.c **** #include "lv_list.h"
  10:Middlewares/lvgl/src/extra/widgets/list/lv_list.c **** #include "../../../core/lv_disp.h"
  11:Middlewares/lvgl/src/extra/widgets/list/lv_list.c **** #include "../../../widgets/lv_label.h"
  12:Middlewares/lvgl/src/extra/widgets/list/lv_list.c **** #include "../../../widgets/lv_img.h"
  13:Middlewares/lvgl/src/extra/widgets/list/lv_list.c **** #include "../../../widgets/lv_btn.h"
  14:Middlewares/lvgl/src/extra/widgets/list/lv_list.c **** 
  15:Middlewares/lvgl/src/extra/widgets/list/lv_list.c **** #if LV_USE_LIST
  16:Middlewares/lvgl/src/extra/widgets/list/lv_list.c **** 
  17:Middlewares/lvgl/src/extra/widgets/list/lv_list.c **** /*********************
  18:Middlewares/lvgl/src/extra/widgets/list/lv_list.c ****  *      DEFINES
  19:Middlewares/lvgl/src/extra/widgets/list/lv_list.c ****  *********************/
  20:Middlewares/lvgl/src/extra/widgets/list/lv_list.c **** #define MV_CLASS &lv_list
  21:Middlewares/lvgl/src/extra/widgets/list/lv_list.c **** 
  22:Middlewares/lvgl/src/extra/widgets/list/lv_list.c **** /**********************
  23:Middlewares/lvgl/src/extra/widgets/list/lv_list.c ****  *      TYPEDEFS
  24:Middlewares/lvgl/src/extra/widgets/list/lv_list.c ****  **********************/
  25:Middlewares/lvgl/src/extra/widgets/list/lv_list.c **** 
  26:Middlewares/lvgl/src/extra/widgets/list/lv_list.c **** /**********************
  27:Middlewares/lvgl/src/extra/widgets/list/lv_list.c ****  *  STATIC PROTOTYPES
  28:Middlewares/lvgl/src/extra/widgets/list/lv_list.c ****  **********************/
  29:Middlewares/lvgl/src/extra/widgets/list/lv_list.c **** 
ARM GAS  /tmp/cceKd5Am.s 			page 2


  30:Middlewares/lvgl/src/extra/widgets/list/lv_list.c **** const lv_obj_class_t lv_list_class = {
  31:Middlewares/lvgl/src/extra/widgets/list/lv_list.c ****     .base_class = &lv_obj_class,
  32:Middlewares/lvgl/src/extra/widgets/list/lv_list.c ****     .width_def = (LV_DPI_DEF * 3) / 2,
  33:Middlewares/lvgl/src/extra/widgets/list/lv_list.c ****     .height_def = LV_DPI_DEF * 2
  34:Middlewares/lvgl/src/extra/widgets/list/lv_list.c **** };
  35:Middlewares/lvgl/src/extra/widgets/list/lv_list.c **** 
  36:Middlewares/lvgl/src/extra/widgets/list/lv_list.c **** const lv_obj_class_t lv_list_btn_class = {
  37:Middlewares/lvgl/src/extra/widgets/list/lv_list.c ****     .base_class = &lv_btn_class,
  38:Middlewares/lvgl/src/extra/widgets/list/lv_list.c **** };
  39:Middlewares/lvgl/src/extra/widgets/list/lv_list.c **** 
  40:Middlewares/lvgl/src/extra/widgets/list/lv_list.c **** const lv_obj_class_t lv_list_text_class = {
  41:Middlewares/lvgl/src/extra/widgets/list/lv_list.c ****     .base_class = &lv_label_class,
  42:Middlewares/lvgl/src/extra/widgets/list/lv_list.c **** };
  43:Middlewares/lvgl/src/extra/widgets/list/lv_list.c **** 
  44:Middlewares/lvgl/src/extra/widgets/list/lv_list.c **** /**********************
  45:Middlewares/lvgl/src/extra/widgets/list/lv_list.c ****  *  STATIC VARIABLES
  46:Middlewares/lvgl/src/extra/widgets/list/lv_list.c ****  **********************/
  47:Middlewares/lvgl/src/extra/widgets/list/lv_list.c **** 
  48:Middlewares/lvgl/src/extra/widgets/list/lv_list.c **** /**********************
  49:Middlewares/lvgl/src/extra/widgets/list/lv_list.c ****  *      MACROS
  50:Middlewares/lvgl/src/extra/widgets/list/lv_list.c ****  **********************/
  51:Middlewares/lvgl/src/extra/widgets/list/lv_list.c **** 
  52:Middlewares/lvgl/src/extra/widgets/list/lv_list.c **** /**********************
  53:Middlewares/lvgl/src/extra/widgets/list/lv_list.c ****  *   GLOBAL FUNCTIONS
  54:Middlewares/lvgl/src/extra/widgets/list/lv_list.c ****  **********************/
  55:Middlewares/lvgl/src/extra/widgets/list/lv_list.c **** 
  56:Middlewares/lvgl/src/extra/widgets/list/lv_list.c **** lv_obj_t * lv_list_create(lv_obj_t * parent)
  57:Middlewares/lvgl/src/extra/widgets/list/lv_list.c **** {
  30              		.loc 1 57 1 view -0
  31              		.cfi_startproc
  32              		@ args = 0, pretend = 0, frame = 0
  33              		@ frame_needed = 0, uses_anonymous_args = 0
  34              		.loc 1 57 1 is_stmt 0 view .LVU1
  35 0000 10B5     		push	{r4, lr}
  36              	.LCFI0:
  37              		.cfi_def_cfa_offset 8
  38              		.cfi_offset 4, -8
  39              		.cfi_offset 14, -4
  40 0002 0146     		mov	r1, r0
  58:Middlewares/lvgl/src/extra/widgets/list/lv_list.c ****     LV_LOG_INFO("begin")
  59:Middlewares/lvgl/src/extra/widgets/list/lv_list.c ****     lv_obj_t * obj = lv_obj_class_create_obj(&lv_list_class, parent);
  41              		.loc 1 59 5 is_stmt 1 view .LVU2
  42              		.loc 1 59 22 is_stmt 0 view .LVU3
  43 0004 0548     		ldr	r0, .L3
  44              	.LVL1:
  45              		.loc 1 59 22 view .LVU4
  46 0006 FFF7FEFF 		bl	lv_obj_class_create_obj
  47              	.LVL2:
  48              		.loc 1 59 22 view .LVU5
  49 000a 0446     		mov	r4, r0
  50              	.LVL3:
  60:Middlewares/lvgl/src/extra/widgets/list/lv_list.c ****     lv_obj_class_init_obj(obj);
  51              		.loc 1 60 5 is_stmt 1 view .LVU6
  52 000c FFF7FEFF 		bl	lv_obj_class_init_obj
  53              	.LVL4:
  61:Middlewares/lvgl/src/extra/widgets/list/lv_list.c ****     lv_obj_set_flex_flow(obj, LV_FLEX_FLOW_COLUMN);
  54              		.loc 1 61 5 view .LVU7
ARM GAS  /tmp/cceKd5Am.s 			page 3


  55 0010 0121     		movs	r1, #1
  56 0012 2046     		mov	r0, r4
  57 0014 FFF7FEFF 		bl	lv_obj_set_flex_flow
  58              	.LVL5:
  62:Middlewares/lvgl/src/extra/widgets/list/lv_list.c ****     return obj;
  59              		.loc 1 62 5 view .LVU8
  63:Middlewares/lvgl/src/extra/widgets/list/lv_list.c **** }
  60              		.loc 1 63 1 is_stmt 0 view .LVU9
  61 0018 2046     		mov	r0, r4
  62 001a 10BD     		pop	{r4, pc}
  63              	.LVL6:
  64              	.L4:
  65              		.loc 1 63 1 view .LVU10
  66              		.align	2
  67              	.L3:
  68 001c 00000000 		.word	.LANCHOR0
  69              		.cfi_endproc
  70              	.LFE158:
  72              		.section	.text.lv_list_add_text,"ax",%progbits
  73              		.align	1
  74              		.global	lv_list_add_text
  75              		.syntax unified
  76              		.thumb
  77              		.thumb_func
  79              	lv_list_add_text:
  80              	.LVL7:
  81              	.LFB159:
  64:Middlewares/lvgl/src/extra/widgets/list/lv_list.c **** 
  65:Middlewares/lvgl/src/extra/widgets/list/lv_list.c **** lv_obj_t * lv_list_add_text(lv_obj_t * list, const char * txt)
  66:Middlewares/lvgl/src/extra/widgets/list/lv_list.c **** {
  82              		.loc 1 66 1 is_stmt 1 view -0
  83              		.cfi_startproc
  84              		@ args = 0, pretend = 0, frame = 0
  85              		@ frame_needed = 0, uses_anonymous_args = 0
  86              		.loc 1 66 1 is_stmt 0 view .LVU12
  87 0000 38B5     		push	{r3, r4, r5, lr}
  88              	.LCFI1:
  89              		.cfi_def_cfa_offset 16
  90              		.cfi_offset 3, -16
  91              		.cfi_offset 4, -12
  92              		.cfi_offset 5, -8
  93              		.cfi_offset 14, -4
  94 0002 0D46     		mov	r5, r1
  67:Middlewares/lvgl/src/extra/widgets/list/lv_list.c ****     LV_LOG_INFO("begin")
  68:Middlewares/lvgl/src/extra/widgets/list/lv_list.c ****     lv_obj_t * obj = lv_obj_class_create_obj(&lv_list_text_class, list);
  95              		.loc 1 68 5 is_stmt 1 view .LVU13
  96              		.loc 1 68 22 is_stmt 0 view .LVU14
  97 0004 0146     		mov	r1, r0
  98              	.LVL8:
  99              		.loc 1 68 22 view .LVU15
 100 0006 0A48     		ldr	r0, .L7
 101              	.LVL9:
 102              		.loc 1 68 22 view .LVU16
 103 0008 FFF7FEFF 		bl	lv_obj_class_create_obj
 104              	.LVL10:
 105              		.loc 1 68 22 view .LVU17
 106 000c 0446     		mov	r4, r0
ARM GAS  /tmp/cceKd5Am.s 			page 4


 107              	.LVL11:
  69:Middlewares/lvgl/src/extra/widgets/list/lv_list.c ****     lv_obj_class_init_obj(obj);
 108              		.loc 1 69 5 is_stmt 1 view .LVU18
 109 000e FFF7FEFF 		bl	lv_obj_class_init_obj
 110              	.LVL12:
  70:Middlewares/lvgl/src/extra/widgets/list/lv_list.c ****     lv_label_set_text(obj, txt);
 111              		.loc 1 70 5 view .LVU19
 112 0012 2946     		mov	r1, r5
 113 0014 2046     		mov	r0, r4
 114 0016 FFF7FEFF 		bl	lv_label_set_text
 115              	.LVL13:
  71:Middlewares/lvgl/src/extra/widgets/list/lv_list.c ****     lv_label_set_long_mode(obj, LV_LABEL_LONG_SCROLL_CIRCULAR);
 116              		.loc 1 71 5 view .LVU20
 117 001a 0321     		movs	r1, #3
 118 001c 2046     		mov	r0, r4
 119 001e FFF7FEFF 		bl	lv_label_set_long_mode
 120              	.LVL14:
  72:Middlewares/lvgl/src/extra/widgets/list/lv_list.c ****     lv_obj_set_width(obj, LV_PCT(100));
 121              		.loc 1 72 5 view .LVU21
 122 0022 42F26401 		movw	r1, #8292
 123 0026 2046     		mov	r0, r4
 124 0028 FFF7FEFF 		bl	lv_obj_set_width
 125              	.LVL15:
  73:Middlewares/lvgl/src/extra/widgets/list/lv_list.c ****     return obj;
 126              		.loc 1 73 5 view .LVU22
  74:Middlewares/lvgl/src/extra/widgets/list/lv_list.c **** }
 127              		.loc 1 74 1 is_stmt 0 view .LVU23
 128 002c 2046     		mov	r0, r4
 129 002e 38BD     		pop	{r3, r4, r5, pc}
 130              	.LVL16:
 131              	.L8:
 132              		.loc 1 74 1 view .LVU24
 133              		.align	2
 134              	.L7:
 135 0030 00000000 		.word	.LANCHOR1
 136              		.cfi_endproc
 137              	.LFE159:
 139              		.section	.text.lv_list_add_btn,"ax",%progbits
 140              		.align	1
 141              		.global	lv_list_add_btn
 142              		.syntax unified
 143              		.thumb
 144              		.thumb_func
 146              	lv_list_add_btn:
 147              	.LVL17:
 148              	.LFB160:
  75:Middlewares/lvgl/src/extra/widgets/list/lv_list.c **** 
  76:Middlewares/lvgl/src/extra/widgets/list/lv_list.c **** lv_obj_t * lv_list_add_btn(lv_obj_t * list, const char * icon, const char * txt)
  77:Middlewares/lvgl/src/extra/widgets/list/lv_list.c **** {
 149              		.loc 1 77 1 is_stmt 1 view -0
 150              		.cfi_startproc
 151              		@ args = 0, pretend = 0, frame = 0
 152              		@ frame_needed = 0, uses_anonymous_args = 0
 153              		.loc 1 77 1 is_stmt 0 view .LVU26
 154 0000 70B5     		push	{r4, r5, r6, lr}
 155              	.LCFI2:
 156              		.cfi_def_cfa_offset 16
ARM GAS  /tmp/cceKd5Am.s 			page 5


 157              		.cfi_offset 4, -16
 158              		.cfi_offset 5, -12
 159              		.cfi_offset 6, -8
 160              		.cfi_offset 14, -4
 161 0002 0E46     		mov	r6, r1
 162 0004 1546     		mov	r5, r2
  78:Middlewares/lvgl/src/extra/widgets/list/lv_list.c ****     LV_LOG_INFO("begin")
  79:Middlewares/lvgl/src/extra/widgets/list/lv_list.c ****     lv_obj_t * obj = lv_obj_class_create_obj(&lv_list_btn_class, list);
 163              		.loc 1 79 5 is_stmt 1 view .LVU27
 164              		.loc 1 79 22 is_stmt 0 view .LVU28
 165 0006 0146     		mov	r1, r0
 166              	.LVL18:
 167              		.loc 1 79 22 view .LVU29
 168 0008 1448     		ldr	r0, .L13
 169              	.LVL19:
 170              		.loc 1 79 22 view .LVU30
 171 000a FFF7FEFF 		bl	lv_obj_class_create_obj
 172              	.LVL20:
 173              		.loc 1 79 22 view .LVU31
 174 000e 0446     		mov	r4, r0
 175              	.LVL21:
  80:Middlewares/lvgl/src/extra/widgets/list/lv_list.c ****     lv_obj_class_init_obj(obj);
 176              		.loc 1 80 5 is_stmt 1 view .LVU32
 177 0010 FFF7FEFF 		bl	lv_obj_class_init_obj
 178              	.LVL22:
  81:Middlewares/lvgl/src/extra/widgets/list/lv_list.c ****     lv_obj_set_size(obj, LV_PCT(100), LV_SIZE_CONTENT);
 179              		.loc 1 81 5 view .LVU33
 180 0014 42F2D172 		movw	r2, #10193
 181 0018 42F26401 		movw	r1, #8292
 182 001c 2046     		mov	r0, r4
 183 001e FFF7FEFF 		bl	lv_obj_set_size
 184              	.LVL23:
  82:Middlewares/lvgl/src/extra/widgets/list/lv_list.c ****     lv_obj_set_flex_flow(obj, LV_FLEX_FLOW_ROW);
 185              		.loc 1 82 5 view .LVU34
 186 0022 0021     		movs	r1, #0
 187 0024 2046     		mov	r0, r4
 188 0026 FFF7FEFF 		bl	lv_obj_set_flex_flow
 189              	.LVL24:
  83:Middlewares/lvgl/src/extra/widgets/list/lv_list.c **** 
  84:Middlewares/lvgl/src/extra/widgets/list/lv_list.c ****     if(icon) {
 190              		.loc 1 84 5 view .LVU35
 191              		.loc 1 84 7 is_stmt 0 view .LVU36
 192 002a 2EB1     		cbz	r6, .L10
 193              	.LBB2:
  85:Middlewares/lvgl/src/extra/widgets/list/lv_list.c ****         lv_obj_t * img = lv_img_create(obj);
 194              		.loc 1 85 9 is_stmt 1 view .LVU37
 195              		.loc 1 85 26 is_stmt 0 view .LVU38
 196 002c 2046     		mov	r0, r4
 197 002e FFF7FEFF 		bl	lv_img_create
 198              	.LVL25:
  86:Middlewares/lvgl/src/extra/widgets/list/lv_list.c ****         lv_img_set_src(img, icon);
 199              		.loc 1 86 9 is_stmt 1 view .LVU39
 200 0032 3146     		mov	r1, r6
 201 0034 FFF7FEFF 		bl	lv_img_set_src
 202              	.LVL26:
 203              	.L10:
 204              		.loc 1 86 9 is_stmt 0 view .LVU40
ARM GAS  /tmp/cceKd5Am.s 			page 6


 205              	.LBE2:
  87:Middlewares/lvgl/src/extra/widgets/list/lv_list.c ****     }
  88:Middlewares/lvgl/src/extra/widgets/list/lv_list.c **** 
  89:Middlewares/lvgl/src/extra/widgets/list/lv_list.c ****     if(txt) {
 206              		.loc 1 89 5 is_stmt 1 view .LVU41
 207              		.loc 1 89 7 is_stmt 0 view .LVU42
 208 0038 75B1     		cbz	r5, .L9
 209              	.LBB3:
  90:Middlewares/lvgl/src/extra/widgets/list/lv_list.c ****         lv_obj_t * label = lv_label_create(obj);
 210              		.loc 1 90 9 is_stmt 1 view .LVU43
 211              		.loc 1 90 28 is_stmt 0 view .LVU44
 212 003a 2046     		mov	r0, r4
 213 003c FFF7FEFF 		bl	lv_label_create
 214              	.LVL27:
 215 0040 0646     		mov	r6, r0
 216              	.LVL28:
  91:Middlewares/lvgl/src/extra/widgets/list/lv_list.c ****         lv_label_set_text(label, txt);
 217              		.loc 1 91 9 is_stmt 1 view .LVU45
 218 0042 2946     		mov	r1, r5
 219 0044 FFF7FEFF 		bl	lv_label_set_text
 220              	.LVL29:
  92:Middlewares/lvgl/src/extra/widgets/list/lv_list.c ****         lv_label_set_long_mode(label, LV_LABEL_LONG_SCROLL_CIRCULAR);
 221              		.loc 1 92 9 view .LVU46
 222 0048 0321     		movs	r1, #3
 223 004a 3046     		mov	r0, r6
 224 004c FFF7FEFF 		bl	lv_label_set_long_mode
 225              	.LVL30:
  93:Middlewares/lvgl/src/extra/widgets/list/lv_list.c ****         lv_obj_set_flex_grow(label, 1);
 226              		.loc 1 93 9 view .LVU47
 227 0050 0121     		movs	r1, #1
 228 0052 3046     		mov	r0, r6
 229 0054 FFF7FEFF 		bl	lv_obj_set_flex_grow
 230              	.LVL31:
 231              	.LBE3:
  94:Middlewares/lvgl/src/extra/widgets/list/lv_list.c ****     }
  95:Middlewares/lvgl/src/extra/widgets/list/lv_list.c **** 
  96:Middlewares/lvgl/src/extra/widgets/list/lv_list.c ****     return obj;
 232              		.loc 1 96 5 view .LVU48
 233              	.L9:
  97:Middlewares/lvgl/src/extra/widgets/list/lv_list.c **** }
 234              		.loc 1 97 1 is_stmt 0 view .LVU49
 235 0058 2046     		mov	r0, r4
 236 005a 70BD     		pop	{r4, r5, r6, pc}
 237              	.LVL32:
 238              	.L14:
 239              		.loc 1 97 1 view .LVU50
 240              		.align	2
 241              	.L13:
 242 005c 00000000 		.word	.LANCHOR2
 243              		.cfi_endproc
 244              	.LFE160:
 246              		.section	.rodata.lv_list_get_btn_text.str1.4,"aMS",%progbits,1
 247              		.align	2
 248              	.LC0:
 249 0000 00       		.ascii	"\000"
 250              		.section	.text.lv_list_get_btn_text,"ax",%progbits
 251              		.align	1
ARM GAS  /tmp/cceKd5Am.s 			page 7


 252              		.global	lv_list_get_btn_text
 253              		.syntax unified
 254              		.thumb
 255              		.thumb_func
 257              	lv_list_get_btn_text:
 258              	.LVL33:
 259              	.LFB161:
  98:Middlewares/lvgl/src/extra/widgets/list/lv_list.c **** 
  99:Middlewares/lvgl/src/extra/widgets/list/lv_list.c **** const char * lv_list_get_btn_text(lv_obj_t * list, lv_obj_t * btn)
 100:Middlewares/lvgl/src/extra/widgets/list/lv_list.c **** {
 260              		.loc 1 100 1 is_stmt 1 view -0
 261              		.cfi_startproc
 262              		@ args = 0, pretend = 0, frame = 0
 263              		@ frame_needed = 0, uses_anonymous_args = 0
 264              		.loc 1 100 1 is_stmt 0 view .LVU52
 265 0000 70B5     		push	{r4, r5, r6, lr}
 266              	.LCFI3:
 267              		.cfi_def_cfa_offset 16
 268              		.cfi_offset 4, -16
 269              		.cfi_offset 5, -12
 270              		.cfi_offset 6, -8
 271              		.cfi_offset 14, -4
 272 0002 0E46     		mov	r6, r1
 101:Middlewares/lvgl/src/extra/widgets/list/lv_list.c ****     LV_UNUSED(list);
 273              		.loc 1 101 5 is_stmt 1 view .LVU53
 102:Middlewares/lvgl/src/extra/widgets/list/lv_list.c ****     uint32_t i;
 274              		.loc 1 102 5 view .LVU54
 103:Middlewares/lvgl/src/extra/widgets/list/lv_list.c ****     for(i = 0; i < lv_obj_get_child_cnt(btn); i++) {
 275              		.loc 1 103 5 view .LVU55
 276              	.LVL34:
 277              		.loc 1 103 11 is_stmt 0 view .LVU56
 278 0004 0024     		movs	r4, #0
 279              		.loc 1 103 5 view .LVU57
 280 0006 00E0     		b	.L16
 281              	.LVL35:
 282              	.L17:
 283              		.loc 1 103 47 is_stmt 1 discriminator 2 view .LVU58
 284              		.loc 1 103 48 is_stmt 0 discriminator 2 view .LVU59
 285 0008 0134     		adds	r4, r4, #1
 286              	.LVL36:
 287              	.L16:
 288              		.loc 1 103 16 is_stmt 1 discriminator 1 view .LVU60
 289              		.loc 1 103 20 is_stmt 0 discriminator 1 view .LVU61
 290 000a 3046     		mov	r0, r6
 291 000c FFF7FEFF 		bl	lv_obj_get_child_cnt
 292              	.LVL37:
 293              		.loc 1 103 5 discriminator 1 view .LVU62
 294 0010 A042     		cmp	r0, r4
 295 0012 0DD9     		bls	.L21
 296              	.LBB4:
 104:Middlewares/lvgl/src/extra/widgets/list/lv_list.c ****         lv_obj_t * child = lv_obj_get_child(btn, i);
 297              		.loc 1 104 9 is_stmt 1 view .LVU63
 298              		.loc 1 104 28 is_stmt 0 view .LVU64
 299 0014 2146     		mov	r1, r4
 300 0016 3046     		mov	r0, r6
 301 0018 FFF7FEFF 		bl	lv_obj_get_child
 302              	.LVL38:
ARM GAS  /tmp/cceKd5Am.s 			page 8


 303 001c 0546     		mov	r5, r0
 304              	.LVL39:
 105:Middlewares/lvgl/src/extra/widgets/list/lv_list.c ****         if(lv_obj_check_type(child, &lv_label_class)) {
 305              		.loc 1 105 9 is_stmt 1 view .LVU65
 306              		.loc 1 105 12 is_stmt 0 view .LVU66
 307 001e 0549     		ldr	r1, .L22
 308 0020 FFF7FEFF 		bl	lv_obj_check_type
 309              	.LVL40:
 310              		.loc 1 105 11 view .LVU67
 311 0024 0028     		cmp	r0, #0
 312 0026 EFD0     		beq	.L17
 106:Middlewares/lvgl/src/extra/widgets/list/lv_list.c ****             return lv_label_get_text(child);
 313              		.loc 1 106 13 is_stmt 1 view .LVU68
 314              		.loc 1 106 20 is_stmt 0 view .LVU69
 315 0028 2846     		mov	r0, r5
 316 002a FFF7FEFF 		bl	lv_label_get_text
 317              	.LVL41:
 318 002e 00E0     		b	.L15
 319              	.LVL42:
 320              	.L21:
 321              		.loc 1 106 20 view .LVU70
 322              	.LBE4:
 107:Middlewares/lvgl/src/extra/widgets/list/lv_list.c ****         }
 108:Middlewares/lvgl/src/extra/widgets/list/lv_list.c **** 
 109:Middlewares/lvgl/src/extra/widgets/list/lv_list.c ****     }
 110:Middlewares/lvgl/src/extra/widgets/list/lv_list.c **** 
 111:Middlewares/lvgl/src/extra/widgets/list/lv_list.c ****     return "";
 323              		.loc 1 111 12 view .LVU71
 324 0030 0148     		ldr	r0, .L22+4
 325              	.L15:
 112:Middlewares/lvgl/src/extra/widgets/list/lv_list.c **** }
 326              		.loc 1 112 1 view .LVU72
 327 0032 70BD     		pop	{r4, r5, r6, pc}
 328              	.LVL43:
 329              	.L23:
 330              		.loc 1 112 1 view .LVU73
 331              		.align	2
 332              	.L22:
 333 0034 00000000 		.word	lv_label_class
 334 0038 00000000 		.word	.LC0
 335              		.cfi_endproc
 336              	.LFE161:
 338              		.global	lv_list_text_class
 339              		.global	lv_list_btn_class
 340              		.global	lv_list_class
 341              		.section	.rodata.lv_list_btn_class,"a"
 342              		.align	2
 343              		.set	.LANCHOR2,. + 0
 346              	lv_list_btn_class:
 347 0000 00000000 		.word	lv_btn_class
 348 0004 00000000 		.space	24
 348      00000000 
 348      00000000 
 348      00000000 
 348      00000000 
 349              		.section	.rodata.lv_list_class,"a"
 350              		.align	2
ARM GAS  /tmp/cceKd5Am.s 			page 9


 351              		.set	.LANCHOR0,. + 0
 354              	lv_list_class:
 355 0000 00000000 		.word	lv_obj_class
 356 0004 00000000 		.space	16
 356      00000000 
 356      00000000 
 356      00000000 
 357 0014 C300     		.short	195
 358 0016 0401     		.short	260
 359 0018 00000000 		.space	4
 360              		.section	.rodata.lv_list_text_class,"a"
 361              		.align	2
 362              		.set	.LANCHOR1,. + 0
 365              	lv_list_text_class:
 366 0000 00000000 		.word	lv_label_class
 367 0004 00000000 		.space	24
 367      00000000 
 367      00000000 
 367      00000000 
 367      00000000 
 368              		.text
 369              	.Letext0:
 370              		.file 2 "/home/akinya/gcc-arm-none-eabi/arm-none-eabi/include/machine/_default_types.h"
 371              		.file 3 "/home/akinya/gcc-arm-none-eabi/arm-none-eabi/include/sys/_stdint.h"
 372              		.file 4 "Middlewares/lvgl/src/extra/widgets/list/../../../core/../misc/../font/../misc/lv_area.h"
 373              		.file 5 "Middlewares/lvgl/src/extra/widgets/list/../../../core/../misc/lv_color.h"
 374              		.file 6 "Middlewares/lvgl/src/extra/widgets/list/../../../core/../misc/lv_style.h"
 375              		.file 7 "Middlewares/lvgl/src/extra/widgets/list/../../../core/../hal/../misc/lv_ll.h"
 376              		.file 8 "Middlewares/lvgl/src/extra/widgets/list/../../../core/lv_obj.h"
 377              		.file 9 "Middlewares/lvgl/src/extra/widgets/list/../../../core/lv_group.h"
 378              		.file 10 "Middlewares/lvgl/src/extra/widgets/list/../../../core/lv_obj_scroll.h"
 379              		.file 11 "Middlewares/lvgl/src/extra/widgets/list/../../../core/lv_obj_style.h"
 380              		.file 12 "Middlewares/lvgl/src/extra/widgets/list/../../../core/lv_obj_class.h"
 381              		.file 13 "Middlewares/lvgl/src/extra/widgets/list/../../../core/lv_event.h"
 382              		.file 14 "Middlewares/lvgl/src/extra/widgets/list/../../layouts/flex/lv_flex.h"
 383              		.file 15 "Middlewares/lvgl/src/extra/widgets/list/lv_list.h"
 384              		.file 16 "Middlewares/lvgl/src/extra/widgets/list/../../../widgets/lv_label.h"
 385              		.file 17 "Middlewares/lvgl/src/extra/widgets/list/../../../widgets/lv_btn.h"
 386              		.file 18 "Middlewares/lvgl/src/extra/widgets/list/../../../core/lv_obj_tree.h"
 387              		.file 19 "Middlewares/lvgl/src/extra/widgets/list/../../../widgets/lv_img.h"
 388              		.file 20 "Middlewares/lvgl/src/extra/widgets/list/../../../core/lv_obj_pos.h"
ARM GAS  /tmp/cceKd5Am.s 			page 10

