ARM GAS  /tmp/ccPpOeRU.s 			page 1


   1              		.cpu cortex-m4
   2              		.arch armv7e-m
   3              		.fpu fpv4-sp-d16
   4              		.eabi_attribute 27, 1
   5              		.eabi_attribute 28, 1
   6              		.eabi_attribute 20, 1
   7              		.eabi_attribute 21, 1
   8              		.eabi_attribute 23, 3
   9              		.eabi_attribute 24, 1
  10              		.eabi_attribute 25, 1
  11              		.eabi_attribute 26, 1
  12              		.eabi_attribute 30, 1
  13              		.eabi_attribute 34, 1
  14              		.eabi_attribute 18, 4
  15              		.file	"lv_msgbox.c"
  16              		.text
  17              	.Ltext0:
  18              		.cfi_sections	.debug_frame
  19              		.section	.rodata.lv_msgbox_create.str1.4,"aMS",%progbits,1
  20              		.align	2
  21              	.LC0:
  22 0000 EF808D00 		.ascii	"\357\200\215\000"
  23              		.section	.text.lv_msgbox_create,"ax",%progbits
  24              		.align	1
  25              		.global	lv_msgbox_create
  26              		.syntax unified
  27              		.thumb
  28              		.thumb_func
  30              	lv_msgbox_create:
  31              	.LVL0:
  32              	.LFB184:
  33              		.file 1 "Middlewares/lvgl/src/extra/widgets/msgbox/lv_msgbox.c"
   1:Middlewares/lvgl/src/extra/widgets/msgbox/lv_msgbox.c **** /**
   2:Middlewares/lvgl/src/extra/widgets/msgbox/lv_msgbox.c ****  * @file lv_msgbox.c
   3:Middlewares/lvgl/src/extra/widgets/msgbox/lv_msgbox.c ****  *
   4:Middlewares/lvgl/src/extra/widgets/msgbox/lv_msgbox.c ****  */
   5:Middlewares/lvgl/src/extra/widgets/msgbox/lv_msgbox.c **** 
   6:Middlewares/lvgl/src/extra/widgets/msgbox/lv_msgbox.c **** /*********************
   7:Middlewares/lvgl/src/extra/widgets/msgbox/lv_msgbox.c ****  *      INCLUDES
   8:Middlewares/lvgl/src/extra/widgets/msgbox/lv_msgbox.c ****  *********************/
   9:Middlewares/lvgl/src/extra/widgets/msgbox/lv_msgbox.c **** #include "lv_msgbox.h"
  10:Middlewares/lvgl/src/extra/widgets/msgbox/lv_msgbox.c **** #if LV_USE_MSGBOX
  11:Middlewares/lvgl/src/extra/widgets/msgbox/lv_msgbox.c **** 
  12:Middlewares/lvgl/src/extra/widgets/msgbox/lv_msgbox.c **** 
  13:Middlewares/lvgl/src/extra/widgets/msgbox/lv_msgbox.c **** /*********************
  14:Middlewares/lvgl/src/extra/widgets/msgbox/lv_msgbox.c ****  *      DEFINES
  15:Middlewares/lvgl/src/extra/widgets/msgbox/lv_msgbox.c ****  *********************/
  16:Middlewares/lvgl/src/extra/widgets/msgbox/lv_msgbox.c **** #define LV_MSGBOX_FLAG_AUTO_PARENT  LV_OBJ_FLAG_WIDGET_1        /*Mark that the parent was automati
  17:Middlewares/lvgl/src/extra/widgets/msgbox/lv_msgbox.c **** 
  18:Middlewares/lvgl/src/extra/widgets/msgbox/lv_msgbox.c **** /**********************
  19:Middlewares/lvgl/src/extra/widgets/msgbox/lv_msgbox.c ****  *      TYPEDEFS
  20:Middlewares/lvgl/src/extra/widgets/msgbox/lv_msgbox.c ****  **********************/
  21:Middlewares/lvgl/src/extra/widgets/msgbox/lv_msgbox.c **** 
  22:Middlewares/lvgl/src/extra/widgets/msgbox/lv_msgbox.c **** /**********************
  23:Middlewares/lvgl/src/extra/widgets/msgbox/lv_msgbox.c ****  *  STATIC PROTOTYPES
  24:Middlewares/lvgl/src/extra/widgets/msgbox/lv_msgbox.c ****  **********************/
  25:Middlewares/lvgl/src/extra/widgets/msgbox/lv_msgbox.c **** static void msgbox_close_click_event_cb(lv_event_t * e);
ARM GAS  /tmp/ccPpOeRU.s 			page 2


  26:Middlewares/lvgl/src/extra/widgets/msgbox/lv_msgbox.c **** 
  27:Middlewares/lvgl/src/extra/widgets/msgbox/lv_msgbox.c **** /**********************
  28:Middlewares/lvgl/src/extra/widgets/msgbox/lv_msgbox.c ****  *  STATIC VARIABLES
  29:Middlewares/lvgl/src/extra/widgets/msgbox/lv_msgbox.c ****  **********************/
  30:Middlewares/lvgl/src/extra/widgets/msgbox/lv_msgbox.c **** const lv_obj_class_t lv_msgbox_class = {.base_class = &lv_obj_class};
  31:Middlewares/lvgl/src/extra/widgets/msgbox/lv_msgbox.c **** 
  32:Middlewares/lvgl/src/extra/widgets/msgbox/lv_msgbox.c **** /**********************
  33:Middlewares/lvgl/src/extra/widgets/msgbox/lv_msgbox.c ****  *      MACROS
  34:Middlewares/lvgl/src/extra/widgets/msgbox/lv_msgbox.c ****  **********************/
  35:Middlewares/lvgl/src/extra/widgets/msgbox/lv_msgbox.c **** 
  36:Middlewares/lvgl/src/extra/widgets/msgbox/lv_msgbox.c **** /**********************
  37:Middlewares/lvgl/src/extra/widgets/msgbox/lv_msgbox.c ****  *   GLOBAL FUNCTIONS
  38:Middlewares/lvgl/src/extra/widgets/msgbox/lv_msgbox.c ****  **********************/
  39:Middlewares/lvgl/src/extra/widgets/msgbox/lv_msgbox.c **** 
  40:Middlewares/lvgl/src/extra/widgets/msgbox/lv_msgbox.c **** lv_obj_t * lv_msgbox_create(lv_obj_t * parent, const char * title, const char * txt, const char * b
  41:Middlewares/lvgl/src/extra/widgets/msgbox/lv_msgbox.c **** {
  34              		.loc 1 41 1 view -0
  35              		.cfi_startproc
  36              		@ args = 4, pretend = 0, frame = 0
  37              		@ frame_needed = 0, uses_anonymous_args = 0
  38              		.loc 1 41 1 is_stmt 0 view .LVU1
  39 0000 2DE9F843 		push	{r3, r4, r5, r6, r7, r8, r9, lr}
  40              	.LCFI0:
  41              		.cfi_def_cfa_offset 32
  42              		.cfi_offset 3, -32
  43              		.cfi_offset 4, -28
  44              		.cfi_offset 5, -24
  45              		.cfi_offset 6, -20
  46              		.cfi_offset 7, -16
  47              		.cfi_offset 8, -12
  48              		.cfi_offset 9, -8
  49              		.cfi_offset 14, -4
  50 0004 0F46     		mov	r7, r1
  51 0006 1446     		mov	r4, r2
  52 0008 1E46     		mov	r6, r3
  53 000a 9DF82090 		ldrb	r9, [sp, #32]	@ zero_extendqisi2
  42:Middlewares/lvgl/src/extra/widgets/msgbox/lv_msgbox.c ****     LV_LOG_INFO("begin")
  43:Middlewares/lvgl/src/extra/widgets/msgbox/lv_msgbox.c ****     bool auto_parent = false;
  54              		.loc 1 43 5 is_stmt 1 view .LVU2
  55              	.LVL1:
  44:Middlewares/lvgl/src/extra/widgets/msgbox/lv_msgbox.c ****     if(parent == NULL) {
  56              		.loc 1 44 5 view .LVU3
  57              		.loc 1 44 7 is_stmt 0 view .LVU4
  58 000e 0028     		cmp	r0, #0
  59 0010 55D0     		beq	.L19
  60 0012 0546     		mov	r5, r0
  43:Middlewares/lvgl/src/extra/widgets/msgbox/lv_msgbox.c ****     if(parent == NULL) {
  61              		.loc 1 43 10 view .LVU5
  62 0014 4FF00008 		mov	r8, #0
  63              	.LVL2:
  64              	.L2:
  45:Middlewares/lvgl/src/extra/widgets/msgbox/lv_msgbox.c ****         auto_parent = true;
  46:Middlewares/lvgl/src/extra/widgets/msgbox/lv_msgbox.c ****         parent = lv_obj_create(lv_layer_top());
  47:Middlewares/lvgl/src/extra/widgets/msgbox/lv_msgbox.c ****         lv_obj_remove_style_all(parent);
  48:Middlewares/lvgl/src/extra/widgets/msgbox/lv_msgbox.c ****         lv_obj_clear_flag(parent, LV_OBJ_FLAG_IGNORE_LAYOUT);
  49:Middlewares/lvgl/src/extra/widgets/msgbox/lv_msgbox.c ****         lv_obj_set_style_bg_color(parent, lv_palette_main(LV_PALETTE_GREY), 0);
  50:Middlewares/lvgl/src/extra/widgets/msgbox/lv_msgbox.c ****         lv_obj_set_style_bg_opa(parent, LV_OPA_50, 0);
ARM GAS  /tmp/ccPpOeRU.s 			page 3


  51:Middlewares/lvgl/src/extra/widgets/msgbox/lv_msgbox.c ****         lv_obj_set_size(parent, LV_PCT(100), LV_PCT(100));
  52:Middlewares/lvgl/src/extra/widgets/msgbox/lv_msgbox.c ****     }
  53:Middlewares/lvgl/src/extra/widgets/msgbox/lv_msgbox.c **** 
  54:Middlewares/lvgl/src/extra/widgets/msgbox/lv_msgbox.c ****     lv_obj_t * mbox = lv_obj_class_create_obj(&lv_msgbox_class, parent);
  65              		.loc 1 54 5 is_stmt 1 view .LVU6
  66              		.loc 1 54 23 is_stmt 0 view .LVU7
  67 0018 2946     		mov	r1, r5
  68 001a 8148     		ldr	r0, .L24
  69 001c FFF7FEFF 		bl	lv_obj_class_create_obj
  70              	.LVL3:
  71 0020 0546     		mov	r5, r0
  72              	.LVL4:
  55:Middlewares/lvgl/src/extra/widgets/msgbox/lv_msgbox.c ****     lv_obj_class_init_obj(mbox);
  73              		.loc 1 55 5 is_stmt 1 view .LVU8
  74 0022 FFF7FEFF 		bl	lv_obj_class_init_obj
  75              	.LVL5:
  56:Middlewares/lvgl/src/extra/widgets/msgbox/lv_msgbox.c ****     LV_ASSERT_MALLOC(mbox);
  76              		.loc 1 56 5 view .LVU9
  77              		.loc 1 56 5 view .LVU10
  78 0026 002D     		cmp	r5, #0
  79 0028 6FD0     		beq	.L4
  80              		.loc 1 56 5 view .LVU11
  81              		.loc 1 56 27 view .LVU12
  57:Middlewares/lvgl/src/extra/widgets/msgbox/lv_msgbox.c ****     if(mbox == NULL) return NULL;
  82              		.loc 1 57 5 view .LVU13
  58:Middlewares/lvgl/src/extra/widgets/msgbox/lv_msgbox.c **** 
  59:Middlewares/lvgl/src/extra/widgets/msgbox/lv_msgbox.c ****     if(auto_parent) lv_obj_add_flag(mbox, LV_MSGBOX_FLAG_AUTO_PARENT);
  83              		.loc 1 59 5 view .LVU14
  84              		.loc 1 59 7 is_stmt 0 view .LVU15
  85 002a B8F1000F 		cmp	r8, #0
  86 002e 6DD1     		bne	.L20
  87              	.L5:
  60:Middlewares/lvgl/src/extra/widgets/msgbox/lv_msgbox.c **** 
  61:Middlewares/lvgl/src/extra/widgets/msgbox/lv_msgbox.c ****     lv_obj_set_size(mbox, LV_DPI_DEF * 2, LV_SIZE_CONTENT);
  88              		.loc 1 61 5 is_stmt 1 view .LVU16
  89 0030 42F2D172 		movw	r2, #10193
  90 0034 4FF48271 		mov	r1, #260
  91 0038 2846     		mov	r0, r5
  92 003a FFF7FEFF 		bl	lv_obj_set_size
  93              	.LVL6:
  62:Middlewares/lvgl/src/extra/widgets/msgbox/lv_msgbox.c ****     lv_obj_set_flex_flow(mbox, LV_FLEX_FLOW_ROW_WRAP);
  94              		.loc 1 62 5 view .LVU17
  95 003e 0421     		movs	r1, #4
  96 0040 2846     		mov	r0, r5
  97 0042 FFF7FEFF 		bl	lv_obj_set_flex_flow
  98              	.LVL7:
  63:Middlewares/lvgl/src/extra/widgets/msgbox/lv_msgbox.c ****     lv_obj_set_flex_align(mbox, LV_FLEX_ALIGN_START, LV_FLEX_ALIGN_CENTER, LV_FLEX_ALIGN_START);
  99              		.loc 1 63 5 view .LVU18
 100 0046 0023     		movs	r3, #0
 101 0048 0222     		movs	r2, #2
 102 004a 1946     		mov	r1, r3
 103 004c 2846     		mov	r0, r5
 104 004e FFF7FEFF 		bl	lv_obj_set_flex_align
 105              	.LVL8:
  64:Middlewares/lvgl/src/extra/widgets/msgbox/lv_msgbox.c **** 
  65:Middlewares/lvgl/src/extra/widgets/msgbox/lv_msgbox.c ****     lv_obj_t * label;
 106              		.loc 1 65 5 view .LVU19
ARM GAS  /tmp/ccPpOeRU.s 			page 4


  66:Middlewares/lvgl/src/extra/widgets/msgbox/lv_msgbox.c ****     label = lv_label_create(mbox);
 107              		.loc 1 66 5 view .LVU20
 108              		.loc 1 66 13 is_stmt 0 view .LVU21
 109 0052 2846     		mov	r0, r5
 110 0054 FFF7FEFF 		bl	lv_label_create
 111              	.LVL9:
 112 0058 8046     		mov	r8, r0
 113              	.LVL10:
  67:Middlewares/lvgl/src/extra/widgets/msgbox/lv_msgbox.c ****     lv_label_set_text(label, title);
 114              		.loc 1 67 5 is_stmt 1 view .LVU22
 115 005a 3946     		mov	r1, r7
 116 005c FFF7FEFF 		bl	lv_label_set_text
 117              	.LVL11:
  68:Middlewares/lvgl/src/extra/widgets/msgbox/lv_msgbox.c ****     lv_label_set_long_mode(label, LV_LABEL_LONG_SCROLL_CIRCULAR);
 118              		.loc 1 68 5 view .LVU23
 119 0060 0321     		movs	r1, #3
 120 0062 4046     		mov	r0, r8
 121 0064 FFF7FEFF 		bl	lv_label_set_long_mode
 122              	.LVL12:
  69:Middlewares/lvgl/src/extra/widgets/msgbox/lv_msgbox.c ****     if(add_close_btn) lv_obj_set_flex_grow(label, 1);
 123              		.loc 1 69 5 view .LVU24
 124              		.loc 1 69 7 is_stmt 0 view .LVU25
 125 0068 B9F1000F 		cmp	r9, #0
 126 006c 54D0     		beq	.L6
 127              		.loc 1 69 23 is_stmt 1 discriminator 1 view .LVU26
 128 006e 0121     		movs	r1, #1
 129 0070 4046     		mov	r0, r8
 130 0072 FFF7FEFF 		bl	lv_obj_set_flex_grow
 131              	.LVL13:
 132              	.L7:
  70:Middlewares/lvgl/src/extra/widgets/msgbox/lv_msgbox.c ****     else lv_obj_set_width(label, LV_PCT(100));
  71:Middlewares/lvgl/src/extra/widgets/msgbox/lv_msgbox.c **** 
  72:Middlewares/lvgl/src/extra/widgets/msgbox/lv_msgbox.c ****     if(add_close_btn) {
 133              		.loc 1 72 5 view .LVU27
 134              		.loc 1 72 7 is_stmt 0 view .LVU28
 135 0076 B9F1000F 		cmp	r9, #0
 136 007a 53D1     		bne	.L21
 137              	.LVL14:
 138              	.L8:
  73:Middlewares/lvgl/src/extra/widgets/msgbox/lv_msgbox.c ****         lv_obj_t * close_btn = lv_btn_create(mbox);
  74:Middlewares/lvgl/src/extra/widgets/msgbox/lv_msgbox.c ****         lv_obj_set_ext_click_area(close_btn, LV_DPX(10));
  75:Middlewares/lvgl/src/extra/widgets/msgbox/lv_msgbox.c ****         lv_obj_add_event_cb(close_btn, msgbox_close_click_event_cb, LV_EVENT_CLICKED, NULL);
  76:Middlewares/lvgl/src/extra/widgets/msgbox/lv_msgbox.c ****         label = lv_label_create(close_btn);
  77:Middlewares/lvgl/src/extra/widgets/msgbox/lv_msgbox.c ****         lv_label_set_text(label, LV_SYMBOL_CLOSE);
  78:Middlewares/lvgl/src/extra/widgets/msgbox/lv_msgbox.c ****         const lv_font_t * font = lv_obj_get_style_text_font(close_btn, LV_PART_MAIN);
  79:Middlewares/lvgl/src/extra/widgets/msgbox/lv_msgbox.c ****         lv_coord_t close_btn_size = lv_font_get_line_height(font) + LV_DPX(10);
  80:Middlewares/lvgl/src/extra/widgets/msgbox/lv_msgbox.c ****         lv_obj_set_size(close_btn, close_btn_size, close_btn_size);
  81:Middlewares/lvgl/src/extra/widgets/msgbox/lv_msgbox.c ****         lv_obj_align(label, LV_ALIGN_CENTER, 0, 0);
  82:Middlewares/lvgl/src/extra/widgets/msgbox/lv_msgbox.c ****     }
  83:Middlewares/lvgl/src/extra/widgets/msgbox/lv_msgbox.c **** 
  84:Middlewares/lvgl/src/extra/widgets/msgbox/lv_msgbox.c ****     label = lv_label_create(mbox);
 139              		.loc 1 84 5 is_stmt 1 view .LVU29
 140              		.loc 1 84 13 is_stmt 0 view .LVU30
 141 007c 2846     		mov	r0, r5
 142 007e FFF7FEFF 		bl	lv_label_create
 143              	.LVL15:
 144 0082 0746     		mov	r7, r0
ARM GAS  /tmp/ccPpOeRU.s 			page 5


 145              	.LVL16:
  85:Middlewares/lvgl/src/extra/widgets/msgbox/lv_msgbox.c ****     lv_label_set_text(label, txt);
 146              		.loc 1 85 5 is_stmt 1 view .LVU31
 147 0084 2146     		mov	r1, r4
 148 0086 FFF7FEFF 		bl	lv_label_set_text
 149              	.LVL17:
  86:Middlewares/lvgl/src/extra/widgets/msgbox/lv_msgbox.c ****     lv_label_set_long_mode(label, LV_LABEL_LONG_WRAP);
 150              		.loc 1 86 5 view .LVU32
 151 008a 0021     		movs	r1, #0
 152 008c 3846     		mov	r0, r7
 153 008e FFF7FEFF 		bl	lv_label_set_long_mode
 154              	.LVL18:
  87:Middlewares/lvgl/src/extra/widgets/msgbox/lv_msgbox.c ****     lv_obj_set_width(label, LV_PCT(100));
 155              		.loc 1 87 5 view .LVU33
 156 0092 42F26401 		movw	r1, #8292
 157 0096 3846     		mov	r0, r7
 158 0098 FFF7FEFF 		bl	lv_obj_set_width
 159              	.LVL19:
  88:Middlewares/lvgl/src/extra/widgets/msgbox/lv_msgbox.c **** 
  89:Middlewares/lvgl/src/extra/widgets/msgbox/lv_msgbox.c ****     if(btn_txts) {
 160              		.loc 1 89 5 view .LVU34
 161              		.loc 1 89 7 is_stmt 0 view .LVU35
 162 009c 002E     		cmp	r6, #0
 163 009e 00F0BC80 		beq	.L1
 164              	.LBB28:
  90:Middlewares/lvgl/src/extra/widgets/msgbox/lv_msgbox.c ****         lv_obj_t * btns = lv_btnmatrix_create(mbox);
 165              		.loc 1 90 9 is_stmt 1 view .LVU36
 166              		.loc 1 90 27 is_stmt 0 view .LVU37
 167 00a2 2846     		mov	r0, r5
 168 00a4 FFF7FEFF 		bl	lv_btnmatrix_create
 169              	.LVL20:
 170 00a8 0746     		mov	r7, r0
 171              	.LVL21:
  91:Middlewares/lvgl/src/extra/widgets/msgbox/lv_msgbox.c ****         lv_btnmatrix_set_map(btns, btn_txts);
 172              		.loc 1 91 9 is_stmt 1 view .LVU38
 173 00aa 3146     		mov	r1, r6
 174 00ac FFF7FEFF 		bl	lv_btnmatrix_set_map
 175              	.LVL22:
  92:Middlewares/lvgl/src/extra/widgets/msgbox/lv_msgbox.c ****         lv_btnmatrix_set_btn_ctrl_all(btns, LV_BTNMATRIX_CTRL_CLICK_TRIG | LV_BTNMATRIX_CTRL_NO_REP
 176              		.loc 1 92 9 view .LVU39
 177 00b0 4FF48871 		mov	r1, #272
 178 00b4 3846     		mov	r0, r7
 179 00b6 FFF7FEFF 		bl	lv_btnmatrix_set_btn_ctrl_all
 180              	.LVL23:
  93:Middlewares/lvgl/src/extra/widgets/msgbox/lv_msgbox.c **** 
  94:Middlewares/lvgl/src/extra/widgets/msgbox/lv_msgbox.c ****         uint32_t btn_cnt = 0;
 181              		.loc 1 94 9 view .LVU40
  95:Middlewares/lvgl/src/extra/widgets/msgbox/lv_msgbox.c ****         while(btn_txts[btn_cnt] && btn_txts[btn_cnt][0] != '\0') {
 182              		.loc 1 95 9 view .LVU41
  94:Middlewares/lvgl/src/extra/widgets/msgbox/lv_msgbox.c ****         while(btn_txts[btn_cnt] && btn_txts[btn_cnt][0] != '\0') {
 183              		.loc 1 94 18 is_stmt 0 view .LVU42
 184 00ba 0024     		movs	r4, #0
 185              	.LVL24:
 186              		.loc 1 95 14 view .LVU43
 187 00bc 8DE0     		b	.L12
 188              	.LVL25:
 189              	.L19:
ARM GAS  /tmp/ccPpOeRU.s 			page 6


 190              		.loc 1 95 14 view .LVU44
 191              	.LBE28:
  45:Middlewares/lvgl/src/extra/widgets/msgbox/lv_msgbox.c ****         parent = lv_obj_create(lv_layer_top());
 192              		.loc 1 45 9 is_stmt 1 view .LVU45
  46:Middlewares/lvgl/src/extra/widgets/msgbox/lv_msgbox.c ****         lv_obj_remove_style_all(parent);
 193              		.loc 1 46 9 view .LVU46
 194              	.LBB33:
 195              	.LBI33:
 196              		.file 2 "Middlewares/lvgl/src/extra/widgets/msgbox/../../../../src/core/lv_disp.h"
   1:Middlewares/lvgl/src/extra/widgets/msgbox/../../../../src/core/lv_disp.h **** /**
   2:Middlewares/lvgl/src/extra/widgets/msgbox/../../../../src/core/lv_disp.h ****  * @file lv_disp.h
   3:Middlewares/lvgl/src/extra/widgets/msgbox/../../../../src/core/lv_disp.h ****  *
   4:Middlewares/lvgl/src/extra/widgets/msgbox/../../../../src/core/lv_disp.h ****  */
   5:Middlewares/lvgl/src/extra/widgets/msgbox/../../../../src/core/lv_disp.h **** 
   6:Middlewares/lvgl/src/extra/widgets/msgbox/../../../../src/core/lv_disp.h **** #ifndef LV_DISP_H
   7:Middlewares/lvgl/src/extra/widgets/msgbox/../../../../src/core/lv_disp.h **** #define LV_DISP_H
   8:Middlewares/lvgl/src/extra/widgets/msgbox/../../../../src/core/lv_disp.h **** 
   9:Middlewares/lvgl/src/extra/widgets/msgbox/../../../../src/core/lv_disp.h **** #ifdef __cplusplus
  10:Middlewares/lvgl/src/extra/widgets/msgbox/../../../../src/core/lv_disp.h **** extern "C" {
  11:Middlewares/lvgl/src/extra/widgets/msgbox/../../../../src/core/lv_disp.h **** #endif
  12:Middlewares/lvgl/src/extra/widgets/msgbox/../../../../src/core/lv_disp.h **** 
  13:Middlewares/lvgl/src/extra/widgets/msgbox/../../../../src/core/lv_disp.h **** /*********************
  14:Middlewares/lvgl/src/extra/widgets/msgbox/../../../../src/core/lv_disp.h ****  *      INCLUDES
  15:Middlewares/lvgl/src/extra/widgets/msgbox/../../../../src/core/lv_disp.h ****  *********************/
  16:Middlewares/lvgl/src/extra/widgets/msgbox/../../../../src/core/lv_disp.h **** #include "../hal/lv_hal.h"
  17:Middlewares/lvgl/src/extra/widgets/msgbox/../../../../src/core/lv_disp.h **** #include "lv_obj.h"
  18:Middlewares/lvgl/src/extra/widgets/msgbox/../../../../src/core/lv_disp.h **** #include "lv_theme.h"
  19:Middlewares/lvgl/src/extra/widgets/msgbox/../../../../src/core/lv_disp.h **** 
  20:Middlewares/lvgl/src/extra/widgets/msgbox/../../../../src/core/lv_disp.h **** /*********************
  21:Middlewares/lvgl/src/extra/widgets/msgbox/../../../../src/core/lv_disp.h ****  *      DEFINES
  22:Middlewares/lvgl/src/extra/widgets/msgbox/../../../../src/core/lv_disp.h ****  *********************/
  23:Middlewares/lvgl/src/extra/widgets/msgbox/../../../../src/core/lv_disp.h **** 
  24:Middlewares/lvgl/src/extra/widgets/msgbox/../../../../src/core/lv_disp.h **** /**********************
  25:Middlewares/lvgl/src/extra/widgets/msgbox/../../../../src/core/lv_disp.h ****  *      TYPEDEFS
  26:Middlewares/lvgl/src/extra/widgets/msgbox/../../../../src/core/lv_disp.h ****  **********************/
  27:Middlewares/lvgl/src/extra/widgets/msgbox/../../../../src/core/lv_disp.h **** 
  28:Middlewares/lvgl/src/extra/widgets/msgbox/../../../../src/core/lv_disp.h **** typedef enum {
  29:Middlewares/lvgl/src/extra/widgets/msgbox/../../../../src/core/lv_disp.h ****     LV_SCR_LOAD_ANIM_NONE,
  30:Middlewares/lvgl/src/extra/widgets/msgbox/../../../../src/core/lv_disp.h ****     LV_SCR_LOAD_ANIM_OVER_LEFT,
  31:Middlewares/lvgl/src/extra/widgets/msgbox/../../../../src/core/lv_disp.h ****     LV_SCR_LOAD_ANIM_OVER_RIGHT,
  32:Middlewares/lvgl/src/extra/widgets/msgbox/../../../../src/core/lv_disp.h ****     LV_SCR_LOAD_ANIM_OVER_TOP,
  33:Middlewares/lvgl/src/extra/widgets/msgbox/../../../../src/core/lv_disp.h ****     LV_SCR_LOAD_ANIM_OVER_BOTTOM,
  34:Middlewares/lvgl/src/extra/widgets/msgbox/../../../../src/core/lv_disp.h ****     LV_SCR_LOAD_ANIM_MOVE_LEFT,
  35:Middlewares/lvgl/src/extra/widgets/msgbox/../../../../src/core/lv_disp.h ****     LV_SCR_LOAD_ANIM_MOVE_RIGHT,
  36:Middlewares/lvgl/src/extra/widgets/msgbox/../../../../src/core/lv_disp.h ****     LV_SCR_LOAD_ANIM_MOVE_TOP,
  37:Middlewares/lvgl/src/extra/widgets/msgbox/../../../../src/core/lv_disp.h ****     LV_SCR_LOAD_ANIM_MOVE_BOTTOM,
  38:Middlewares/lvgl/src/extra/widgets/msgbox/../../../../src/core/lv_disp.h ****     LV_SCR_LOAD_ANIM_FADE_ON,
  39:Middlewares/lvgl/src/extra/widgets/msgbox/../../../../src/core/lv_disp.h **** } lv_scr_load_anim_t;
  40:Middlewares/lvgl/src/extra/widgets/msgbox/../../../../src/core/lv_disp.h **** 
  41:Middlewares/lvgl/src/extra/widgets/msgbox/../../../../src/core/lv_disp.h **** /**********************
  42:Middlewares/lvgl/src/extra/widgets/msgbox/../../../../src/core/lv_disp.h ****  * GLOBAL PROTOTYPES
  43:Middlewares/lvgl/src/extra/widgets/msgbox/../../../../src/core/lv_disp.h ****  **********************/
  44:Middlewares/lvgl/src/extra/widgets/msgbox/../../../../src/core/lv_disp.h **** 
  45:Middlewares/lvgl/src/extra/widgets/msgbox/../../../../src/core/lv_disp.h **** /**
  46:Middlewares/lvgl/src/extra/widgets/msgbox/../../../../src/core/lv_disp.h ****  * Return with a pointer to the active screen
  47:Middlewares/lvgl/src/extra/widgets/msgbox/../../../../src/core/lv_disp.h ****  * @param disp pointer to display which active screen should be get. (NULL to use the default
  48:Middlewares/lvgl/src/extra/widgets/msgbox/../../../../src/core/lv_disp.h ****  * screen)
ARM GAS  /tmp/ccPpOeRU.s 			page 7


  49:Middlewares/lvgl/src/extra/widgets/msgbox/../../../../src/core/lv_disp.h ****  * @return pointer to the active screen object (loaded by 'lv_scr_load()')
  50:Middlewares/lvgl/src/extra/widgets/msgbox/../../../../src/core/lv_disp.h ****  */
  51:Middlewares/lvgl/src/extra/widgets/msgbox/../../../../src/core/lv_disp.h **** lv_obj_t * lv_disp_get_scr_act(lv_disp_t * disp);
  52:Middlewares/lvgl/src/extra/widgets/msgbox/../../../../src/core/lv_disp.h **** 
  53:Middlewares/lvgl/src/extra/widgets/msgbox/../../../../src/core/lv_disp.h **** /**
  54:Middlewares/lvgl/src/extra/widgets/msgbox/../../../../src/core/lv_disp.h ****  * Return with a pointer to the previous screen. Only used during screen transitions.
  55:Middlewares/lvgl/src/extra/widgets/msgbox/../../../../src/core/lv_disp.h ****  * @param disp pointer to display which previous screen should be get. (NULL to use the default
  56:Middlewares/lvgl/src/extra/widgets/msgbox/../../../../src/core/lv_disp.h ****  * screen)
  57:Middlewares/lvgl/src/extra/widgets/msgbox/../../../../src/core/lv_disp.h ****  * @return pointer to the previous screen object or NULL if not used now
  58:Middlewares/lvgl/src/extra/widgets/msgbox/../../../../src/core/lv_disp.h ****  */
  59:Middlewares/lvgl/src/extra/widgets/msgbox/../../../../src/core/lv_disp.h **** lv_obj_t * lv_disp_get_scr_prev(lv_disp_t * disp);
  60:Middlewares/lvgl/src/extra/widgets/msgbox/../../../../src/core/lv_disp.h **** 
  61:Middlewares/lvgl/src/extra/widgets/msgbox/../../../../src/core/lv_disp.h **** /**
  62:Middlewares/lvgl/src/extra/widgets/msgbox/../../../../src/core/lv_disp.h ****  * Make a screen active
  63:Middlewares/lvgl/src/extra/widgets/msgbox/../../../../src/core/lv_disp.h ****  * @param scr pointer to a screen
  64:Middlewares/lvgl/src/extra/widgets/msgbox/../../../../src/core/lv_disp.h ****  */
  65:Middlewares/lvgl/src/extra/widgets/msgbox/../../../../src/core/lv_disp.h **** void lv_disp_load_scr(lv_obj_t * scr);
  66:Middlewares/lvgl/src/extra/widgets/msgbox/../../../../src/core/lv_disp.h **** 
  67:Middlewares/lvgl/src/extra/widgets/msgbox/../../../../src/core/lv_disp.h **** /**
  68:Middlewares/lvgl/src/extra/widgets/msgbox/../../../../src/core/lv_disp.h ****  * Return with the top layer. (Same on every screen and it is above the normal screen layer)
  69:Middlewares/lvgl/src/extra/widgets/msgbox/../../../../src/core/lv_disp.h ****  * @param disp pointer to display which top layer should be get. (NULL to use the default screen)
  70:Middlewares/lvgl/src/extra/widgets/msgbox/../../../../src/core/lv_disp.h ****  * @return pointer to the top layer object  (transparent screen sized lv_obj)
  71:Middlewares/lvgl/src/extra/widgets/msgbox/../../../../src/core/lv_disp.h ****  */
  72:Middlewares/lvgl/src/extra/widgets/msgbox/../../../../src/core/lv_disp.h **** lv_obj_t * lv_disp_get_layer_top(lv_disp_t * disp);
  73:Middlewares/lvgl/src/extra/widgets/msgbox/../../../../src/core/lv_disp.h **** 
  74:Middlewares/lvgl/src/extra/widgets/msgbox/../../../../src/core/lv_disp.h **** /**
  75:Middlewares/lvgl/src/extra/widgets/msgbox/../../../../src/core/lv_disp.h ****  * Return with the sys. layer. (Same on every screen and it is above the normal screen and the top
  76:Middlewares/lvgl/src/extra/widgets/msgbox/../../../../src/core/lv_disp.h ****  * layer)
  77:Middlewares/lvgl/src/extra/widgets/msgbox/../../../../src/core/lv_disp.h ****  * @param disp pointer to display which sys. layer  should be get. (NULL to use the default screen)
  78:Middlewares/lvgl/src/extra/widgets/msgbox/../../../../src/core/lv_disp.h ****  * @return pointer to the sys layer object  (transparent screen sized lv_obj)
  79:Middlewares/lvgl/src/extra/widgets/msgbox/../../../../src/core/lv_disp.h ****  */
  80:Middlewares/lvgl/src/extra/widgets/msgbox/../../../../src/core/lv_disp.h **** lv_obj_t * lv_disp_get_layer_sys(lv_disp_t * disp);
  81:Middlewares/lvgl/src/extra/widgets/msgbox/../../../../src/core/lv_disp.h **** 
  82:Middlewares/lvgl/src/extra/widgets/msgbox/../../../../src/core/lv_disp.h **** /**
  83:Middlewares/lvgl/src/extra/widgets/msgbox/../../../../src/core/lv_disp.h ****  * Get the theme of a display
  84:Middlewares/lvgl/src/extra/widgets/msgbox/../../../../src/core/lv_disp.h ****  * @param disp pointer to a display
  85:Middlewares/lvgl/src/extra/widgets/msgbox/../../../../src/core/lv_disp.h ****  * @return the display's theme (can be NULL)
  86:Middlewares/lvgl/src/extra/widgets/msgbox/../../../../src/core/lv_disp.h ****  */
  87:Middlewares/lvgl/src/extra/widgets/msgbox/../../../../src/core/lv_disp.h **** void lv_disp_set_theme(lv_disp_t * disp, lv_theme_t * th);
  88:Middlewares/lvgl/src/extra/widgets/msgbox/../../../../src/core/lv_disp.h **** 
  89:Middlewares/lvgl/src/extra/widgets/msgbox/../../../../src/core/lv_disp.h **** /**
  90:Middlewares/lvgl/src/extra/widgets/msgbox/../../../../src/core/lv_disp.h ****  * Get the theme of a display
  91:Middlewares/lvgl/src/extra/widgets/msgbox/../../../../src/core/lv_disp.h ****  * @param disp pointer to a display
  92:Middlewares/lvgl/src/extra/widgets/msgbox/../../../../src/core/lv_disp.h ****  * @return the display's theme (can be NULL)
  93:Middlewares/lvgl/src/extra/widgets/msgbox/../../../../src/core/lv_disp.h ****  */
  94:Middlewares/lvgl/src/extra/widgets/msgbox/../../../../src/core/lv_disp.h **** lv_theme_t * lv_disp_get_theme(lv_disp_t * disp);
  95:Middlewares/lvgl/src/extra/widgets/msgbox/../../../../src/core/lv_disp.h **** 
  96:Middlewares/lvgl/src/extra/widgets/msgbox/../../../../src/core/lv_disp.h **** /**
  97:Middlewares/lvgl/src/extra/widgets/msgbox/../../../../src/core/lv_disp.h ****  * Set the background color of a display
  98:Middlewares/lvgl/src/extra/widgets/msgbox/../../../../src/core/lv_disp.h ****  * @param disp pointer to a display
  99:Middlewares/lvgl/src/extra/widgets/msgbox/../../../../src/core/lv_disp.h ****  * @param color color of the background
 100:Middlewares/lvgl/src/extra/widgets/msgbox/../../../../src/core/lv_disp.h ****  */
 101:Middlewares/lvgl/src/extra/widgets/msgbox/../../../../src/core/lv_disp.h **** void lv_disp_set_bg_color(lv_disp_t * disp, lv_color_t color);
 102:Middlewares/lvgl/src/extra/widgets/msgbox/../../../../src/core/lv_disp.h **** 
 103:Middlewares/lvgl/src/extra/widgets/msgbox/../../../../src/core/lv_disp.h **** /**
 104:Middlewares/lvgl/src/extra/widgets/msgbox/../../../../src/core/lv_disp.h ****  * Set the background image of a display
 105:Middlewares/lvgl/src/extra/widgets/msgbox/../../../../src/core/lv_disp.h ****  * @param disp pointer to a display
ARM GAS  /tmp/ccPpOeRU.s 			page 8


 106:Middlewares/lvgl/src/extra/widgets/msgbox/../../../../src/core/lv_disp.h ****  * @param img_src path to file or pointer to an `lv_img_dsc_t` variable
 107:Middlewares/lvgl/src/extra/widgets/msgbox/../../../../src/core/lv_disp.h ****  */
 108:Middlewares/lvgl/src/extra/widgets/msgbox/../../../../src/core/lv_disp.h **** void lv_disp_set_bg_image(lv_disp_t * disp, const void  * img_src);
 109:Middlewares/lvgl/src/extra/widgets/msgbox/../../../../src/core/lv_disp.h **** 
 110:Middlewares/lvgl/src/extra/widgets/msgbox/../../../../src/core/lv_disp.h **** /**
 111:Middlewares/lvgl/src/extra/widgets/msgbox/../../../../src/core/lv_disp.h ****  * Opacity of the background
 112:Middlewares/lvgl/src/extra/widgets/msgbox/../../../../src/core/lv_disp.h ****  * @param disp pointer to a display
 113:Middlewares/lvgl/src/extra/widgets/msgbox/../../../../src/core/lv_disp.h ****  * @param opa opacity (0..255)
 114:Middlewares/lvgl/src/extra/widgets/msgbox/../../../../src/core/lv_disp.h ****  */
 115:Middlewares/lvgl/src/extra/widgets/msgbox/../../../../src/core/lv_disp.h **** void lv_disp_set_bg_opa(lv_disp_t * disp, lv_opa_t opa);
 116:Middlewares/lvgl/src/extra/widgets/msgbox/../../../../src/core/lv_disp.h **** 
 117:Middlewares/lvgl/src/extra/widgets/msgbox/../../../../src/core/lv_disp.h **** /**
 118:Middlewares/lvgl/src/extra/widgets/msgbox/../../../../src/core/lv_disp.h ****  * Switch screen with animation
 119:Middlewares/lvgl/src/extra/widgets/msgbox/../../../../src/core/lv_disp.h ****  * @param scr pointer to the new screen to load
 120:Middlewares/lvgl/src/extra/widgets/msgbox/../../../../src/core/lv_disp.h ****  * @param anim_type type of the animation from `lv_scr_load_anim_t`. E.g.  `LV_SCR_LOAD_ANIM_MOVE_L
 121:Middlewares/lvgl/src/extra/widgets/msgbox/../../../../src/core/lv_disp.h ****  * @param time time of the animation
 122:Middlewares/lvgl/src/extra/widgets/msgbox/../../../../src/core/lv_disp.h ****  * @param delay delay before the transition
 123:Middlewares/lvgl/src/extra/widgets/msgbox/../../../../src/core/lv_disp.h ****  * @param auto_del true: automatically delete the old screen
 124:Middlewares/lvgl/src/extra/widgets/msgbox/../../../../src/core/lv_disp.h ****  */
 125:Middlewares/lvgl/src/extra/widgets/msgbox/../../../../src/core/lv_disp.h **** void lv_scr_load_anim(lv_obj_t * scr, lv_scr_load_anim_t anim_type, uint32_t time, uint32_t delay, 
 126:Middlewares/lvgl/src/extra/widgets/msgbox/../../../../src/core/lv_disp.h **** 
 127:Middlewares/lvgl/src/extra/widgets/msgbox/../../../../src/core/lv_disp.h **** /**
 128:Middlewares/lvgl/src/extra/widgets/msgbox/../../../../src/core/lv_disp.h ****  * Get elapsed time since last user activity on a display (e.g. click)
 129:Middlewares/lvgl/src/extra/widgets/msgbox/../../../../src/core/lv_disp.h ****  * @param disp pointer to an display (NULL to get the overall smallest inactivity)
 130:Middlewares/lvgl/src/extra/widgets/msgbox/../../../../src/core/lv_disp.h ****  * @return elapsed ticks (milliseconds) since the last activity
 131:Middlewares/lvgl/src/extra/widgets/msgbox/../../../../src/core/lv_disp.h ****  */
 132:Middlewares/lvgl/src/extra/widgets/msgbox/../../../../src/core/lv_disp.h **** uint32_t lv_disp_get_inactive_time(const lv_disp_t * disp);
 133:Middlewares/lvgl/src/extra/widgets/msgbox/../../../../src/core/lv_disp.h **** 
 134:Middlewares/lvgl/src/extra/widgets/msgbox/../../../../src/core/lv_disp.h **** /**
 135:Middlewares/lvgl/src/extra/widgets/msgbox/../../../../src/core/lv_disp.h ****  * Manually trigger an activity on a display
 136:Middlewares/lvgl/src/extra/widgets/msgbox/../../../../src/core/lv_disp.h ****  * @param disp pointer to an display (NULL to use the default display)
 137:Middlewares/lvgl/src/extra/widgets/msgbox/../../../../src/core/lv_disp.h ****  */
 138:Middlewares/lvgl/src/extra/widgets/msgbox/../../../../src/core/lv_disp.h **** void lv_disp_trig_activity(lv_disp_t * disp);
 139:Middlewares/lvgl/src/extra/widgets/msgbox/../../../../src/core/lv_disp.h **** 
 140:Middlewares/lvgl/src/extra/widgets/msgbox/../../../../src/core/lv_disp.h **** /**
 141:Middlewares/lvgl/src/extra/widgets/msgbox/../../../../src/core/lv_disp.h ****  * Clean any CPU cache that is related to the display.
 142:Middlewares/lvgl/src/extra/widgets/msgbox/../../../../src/core/lv_disp.h ****  * @param disp pointer to an display (NULL to use the default display)
 143:Middlewares/lvgl/src/extra/widgets/msgbox/../../../../src/core/lv_disp.h ****  */
 144:Middlewares/lvgl/src/extra/widgets/msgbox/../../../../src/core/lv_disp.h **** void lv_disp_clean_dcache(lv_disp_t * disp);
 145:Middlewares/lvgl/src/extra/widgets/msgbox/../../../../src/core/lv_disp.h **** 
 146:Middlewares/lvgl/src/extra/widgets/msgbox/../../../../src/core/lv_disp.h **** /**
 147:Middlewares/lvgl/src/extra/widgets/msgbox/../../../../src/core/lv_disp.h ****  * Get a pointer to the screen refresher timer to
 148:Middlewares/lvgl/src/extra/widgets/msgbox/../../../../src/core/lv_disp.h ****  * modify its parameters with `lv_timer_...` functions.
 149:Middlewares/lvgl/src/extra/widgets/msgbox/../../../../src/core/lv_disp.h ****  * @param disp pointer to a display
 150:Middlewares/lvgl/src/extra/widgets/msgbox/../../../../src/core/lv_disp.h ****  * @return pointer to the display refresher timer. (NULL on error)
 151:Middlewares/lvgl/src/extra/widgets/msgbox/../../../../src/core/lv_disp.h ****  */
 152:Middlewares/lvgl/src/extra/widgets/msgbox/../../../../src/core/lv_disp.h **** lv_timer_t * _lv_disp_get_refr_timer(lv_disp_t * disp);
 153:Middlewares/lvgl/src/extra/widgets/msgbox/../../../../src/core/lv_disp.h **** 
 154:Middlewares/lvgl/src/extra/widgets/msgbox/../../../../src/core/lv_disp.h **** /*------------------------------------------------
 155:Middlewares/lvgl/src/extra/widgets/msgbox/../../../../src/core/lv_disp.h ****  * To improve backward compatibility
 156:Middlewares/lvgl/src/extra/widgets/msgbox/../../../../src/core/lv_disp.h ****  * Recommended only if you have one display
 157:Middlewares/lvgl/src/extra/widgets/msgbox/../../../../src/core/lv_disp.h ****  *------------------------------------------------*/
 158:Middlewares/lvgl/src/extra/widgets/msgbox/../../../../src/core/lv_disp.h **** 
 159:Middlewares/lvgl/src/extra/widgets/msgbox/../../../../src/core/lv_disp.h **** /**
 160:Middlewares/lvgl/src/extra/widgets/msgbox/../../../../src/core/lv_disp.h ****  * Get the active screen of the default display
 161:Middlewares/lvgl/src/extra/widgets/msgbox/../../../../src/core/lv_disp.h ****  * @return pointer to the active screen
 162:Middlewares/lvgl/src/extra/widgets/msgbox/../../../../src/core/lv_disp.h ****  */
ARM GAS  /tmp/ccPpOeRU.s 			page 9


 163:Middlewares/lvgl/src/extra/widgets/msgbox/../../../../src/core/lv_disp.h **** static inline lv_obj_t * lv_scr_act(void)
 164:Middlewares/lvgl/src/extra/widgets/msgbox/../../../../src/core/lv_disp.h **** {
 165:Middlewares/lvgl/src/extra/widgets/msgbox/../../../../src/core/lv_disp.h ****     return lv_disp_get_scr_act(lv_disp_get_default());
 166:Middlewares/lvgl/src/extra/widgets/msgbox/../../../../src/core/lv_disp.h **** }
 167:Middlewares/lvgl/src/extra/widgets/msgbox/../../../../src/core/lv_disp.h **** 
 168:Middlewares/lvgl/src/extra/widgets/msgbox/../../../../src/core/lv_disp.h **** /**
 169:Middlewares/lvgl/src/extra/widgets/msgbox/../../../../src/core/lv_disp.h ****  * Get the top layer  of the default display
 170:Middlewares/lvgl/src/extra/widgets/msgbox/../../../../src/core/lv_disp.h ****  * @return pointer to the top layer
 171:Middlewares/lvgl/src/extra/widgets/msgbox/../../../../src/core/lv_disp.h ****  */
 172:Middlewares/lvgl/src/extra/widgets/msgbox/../../../../src/core/lv_disp.h **** static inline lv_obj_t * lv_layer_top(void)
 197              		.loc 2 172 26 view .LVU47
 198              	.LBB34:
 173:Middlewares/lvgl/src/extra/widgets/msgbox/../../../../src/core/lv_disp.h **** {
 174:Middlewares/lvgl/src/extra/widgets/msgbox/../../../../src/core/lv_disp.h ****     return lv_disp_get_layer_top(lv_disp_get_default());
 199              		.loc 2 174 5 view .LVU48
 200              		.loc 2 174 12 is_stmt 0 view .LVU49
 201 00be FFF7FEFF 		bl	lv_disp_get_default
 202              	.LVL26:
 203              		.loc 2 174 12 view .LVU50
 204 00c2 FFF7FEFF 		bl	lv_disp_get_layer_top
 205              	.LVL27:
 206              	.LBE34:
 207              	.LBE33:
  46:Middlewares/lvgl/src/extra/widgets/msgbox/lv_msgbox.c ****         lv_obj_remove_style_all(parent);
 208              		.loc 1 46 18 view .LVU51
 209 00c6 FFF7FEFF 		bl	lv_obj_create
 210              	.LVL28:
 211 00ca 0546     		mov	r5, r0
 212              	.LVL29:
  47:Middlewares/lvgl/src/extra/widgets/msgbox/lv_msgbox.c ****         lv_obj_clear_flag(parent, LV_OBJ_FLAG_IGNORE_LAYOUT);
 213              		.loc 1 47 9 is_stmt 1 view .LVU52
 214              	.LBB35:
 215              	.LBI35:
 216              		.file 3 "Middlewares/lvgl/src/extra/widgets/msgbox/../../../../src/core/lv_obj_style.h"
   1:Middlewares/lvgl/src/extra/widgets/msgbox/../../../../src/core/lv_obj_style.h **** /**
   2:Middlewares/lvgl/src/extra/widgets/msgbox/../../../../src/core/lv_obj_style.h ****  * @file lv_obj_style.h
   3:Middlewares/lvgl/src/extra/widgets/msgbox/../../../../src/core/lv_obj_style.h ****  *
   4:Middlewares/lvgl/src/extra/widgets/msgbox/../../../../src/core/lv_obj_style.h ****  */
   5:Middlewares/lvgl/src/extra/widgets/msgbox/../../../../src/core/lv_obj_style.h **** 
   6:Middlewares/lvgl/src/extra/widgets/msgbox/../../../../src/core/lv_obj_style.h **** #ifndef LV_OBJ_STYLE_H
   7:Middlewares/lvgl/src/extra/widgets/msgbox/../../../../src/core/lv_obj_style.h **** #define LV_OBJ_STYLE_H
   8:Middlewares/lvgl/src/extra/widgets/msgbox/../../../../src/core/lv_obj_style.h **** 
   9:Middlewares/lvgl/src/extra/widgets/msgbox/../../../../src/core/lv_obj_style.h **** #ifdef __cplusplus
  10:Middlewares/lvgl/src/extra/widgets/msgbox/../../../../src/core/lv_obj_style.h **** extern "C" {
  11:Middlewares/lvgl/src/extra/widgets/msgbox/../../../../src/core/lv_obj_style.h **** #endif
  12:Middlewares/lvgl/src/extra/widgets/msgbox/../../../../src/core/lv_obj_style.h **** 
  13:Middlewares/lvgl/src/extra/widgets/msgbox/../../../../src/core/lv_obj_style.h **** /*********************
  14:Middlewares/lvgl/src/extra/widgets/msgbox/../../../../src/core/lv_obj_style.h ****  *      INCLUDES
  15:Middlewares/lvgl/src/extra/widgets/msgbox/../../../../src/core/lv_obj_style.h ****  *********************/
  16:Middlewares/lvgl/src/extra/widgets/msgbox/../../../../src/core/lv_obj_style.h **** #include <stdint.h>
  17:Middlewares/lvgl/src/extra/widgets/msgbox/../../../../src/core/lv_obj_style.h **** #include <stdbool.h>
  18:Middlewares/lvgl/src/extra/widgets/msgbox/../../../../src/core/lv_obj_style.h **** #include "../misc/lv_bidi.h"
  19:Middlewares/lvgl/src/extra/widgets/msgbox/../../../../src/core/lv_obj_style.h **** 
  20:Middlewares/lvgl/src/extra/widgets/msgbox/../../../../src/core/lv_obj_style.h **** /*********************
  21:Middlewares/lvgl/src/extra/widgets/msgbox/../../../../src/core/lv_obj_style.h ****  *      DEFINES
  22:Middlewares/lvgl/src/extra/widgets/msgbox/../../../../src/core/lv_obj_style.h ****  *********************/
  23:Middlewares/lvgl/src/extra/widgets/msgbox/../../../../src/core/lv_obj_style.h **** 
ARM GAS  /tmp/ccPpOeRU.s 			page 10


  24:Middlewares/lvgl/src/extra/widgets/msgbox/../../../../src/core/lv_obj_style.h **** /**********************
  25:Middlewares/lvgl/src/extra/widgets/msgbox/../../../../src/core/lv_obj_style.h ****  *      TYPEDEFS
  26:Middlewares/lvgl/src/extra/widgets/msgbox/../../../../src/core/lv_obj_style.h ****  **********************/
  27:Middlewares/lvgl/src/extra/widgets/msgbox/../../../../src/core/lv_obj_style.h **** /*Can't include lv_obj.h because it includes this header file*/
  28:Middlewares/lvgl/src/extra/widgets/msgbox/../../../../src/core/lv_obj_style.h **** struct _lv_obj_t;
  29:Middlewares/lvgl/src/extra/widgets/msgbox/../../../../src/core/lv_obj_style.h **** 
  30:Middlewares/lvgl/src/extra/widgets/msgbox/../../../../src/core/lv_obj_style.h **** typedef enum {
  31:Middlewares/lvgl/src/extra/widgets/msgbox/../../../../src/core/lv_obj_style.h ****     _LV_STYLE_STATE_CMP_SAME,           /*The style properties in the 2 states are identical*/
  32:Middlewares/lvgl/src/extra/widgets/msgbox/../../../../src/core/lv_obj_style.h ****     _LV_STYLE_STATE_CMP_DIFF_REDRAW,    /*The differences can be shown with a simple redraw*/
  33:Middlewares/lvgl/src/extra/widgets/msgbox/../../../../src/core/lv_obj_style.h ****     _LV_STYLE_STATE_CMP_DIFF_DRAW_PAD,  /*The differences can be shown with a simple redraw*/
  34:Middlewares/lvgl/src/extra/widgets/msgbox/../../../../src/core/lv_obj_style.h ****     _LV_STYLE_STATE_CMP_DIFF_LAYOUT,    /*The differences can be shown with a simple redraw*/
  35:Middlewares/lvgl/src/extra/widgets/msgbox/../../../../src/core/lv_obj_style.h **** } _lv_style_state_cmp_t;
  36:Middlewares/lvgl/src/extra/widgets/msgbox/../../../../src/core/lv_obj_style.h **** 
  37:Middlewares/lvgl/src/extra/widgets/msgbox/../../../../src/core/lv_obj_style.h **** typedef uint32_t lv_style_selector_t;
  38:Middlewares/lvgl/src/extra/widgets/msgbox/../../../../src/core/lv_obj_style.h **** 
  39:Middlewares/lvgl/src/extra/widgets/msgbox/../../../../src/core/lv_obj_style.h **** typedef struct {
  40:Middlewares/lvgl/src/extra/widgets/msgbox/../../../../src/core/lv_obj_style.h ****     lv_style_t * style;
  41:Middlewares/lvgl/src/extra/widgets/msgbox/../../../../src/core/lv_obj_style.h ****     uint32_t selector :24;
  42:Middlewares/lvgl/src/extra/widgets/msgbox/../../../../src/core/lv_obj_style.h ****     uint32_t is_local :1;
  43:Middlewares/lvgl/src/extra/widgets/msgbox/../../../../src/core/lv_obj_style.h ****     uint32_t is_trans :1;
  44:Middlewares/lvgl/src/extra/widgets/msgbox/../../../../src/core/lv_obj_style.h **** }_lv_obj_style_t;
  45:Middlewares/lvgl/src/extra/widgets/msgbox/../../../../src/core/lv_obj_style.h **** 
  46:Middlewares/lvgl/src/extra/widgets/msgbox/../../../../src/core/lv_obj_style.h **** typedef struct {
  47:Middlewares/lvgl/src/extra/widgets/msgbox/../../../../src/core/lv_obj_style.h ****     uint16_t time;
  48:Middlewares/lvgl/src/extra/widgets/msgbox/../../../../src/core/lv_obj_style.h ****     uint16_t delay;
  49:Middlewares/lvgl/src/extra/widgets/msgbox/../../../../src/core/lv_obj_style.h ****     lv_style_selector_t selector;
  50:Middlewares/lvgl/src/extra/widgets/msgbox/../../../../src/core/lv_obj_style.h ****     lv_style_prop_t prop;
  51:Middlewares/lvgl/src/extra/widgets/msgbox/../../../../src/core/lv_obj_style.h ****     lv_anim_path_cb_t path_cb;
  52:Middlewares/lvgl/src/extra/widgets/msgbox/../../../../src/core/lv_obj_style.h **** #if LV_USE_USER_DATA
  53:Middlewares/lvgl/src/extra/widgets/msgbox/../../../../src/core/lv_obj_style.h ****     void * user_data;
  54:Middlewares/lvgl/src/extra/widgets/msgbox/../../../../src/core/lv_obj_style.h **** #endif
  55:Middlewares/lvgl/src/extra/widgets/msgbox/../../../../src/core/lv_obj_style.h **** }_lv_obj_style_transition_dsc_t;
  56:Middlewares/lvgl/src/extra/widgets/msgbox/../../../../src/core/lv_obj_style.h **** 
  57:Middlewares/lvgl/src/extra/widgets/msgbox/../../../../src/core/lv_obj_style.h **** /**********************
  58:Middlewares/lvgl/src/extra/widgets/msgbox/../../../../src/core/lv_obj_style.h ****  * GLOBAL PROTOTYPES
  59:Middlewares/lvgl/src/extra/widgets/msgbox/../../../../src/core/lv_obj_style.h ****  **********************/
  60:Middlewares/lvgl/src/extra/widgets/msgbox/../../../../src/core/lv_obj_style.h **** 
  61:Middlewares/lvgl/src/extra/widgets/msgbox/../../../../src/core/lv_obj_style.h **** /**
  62:Middlewares/lvgl/src/extra/widgets/msgbox/../../../../src/core/lv_obj_style.h ****  * Initialize the object related style manager module.
  63:Middlewares/lvgl/src/extra/widgets/msgbox/../../../../src/core/lv_obj_style.h ****  * Called by LVGL in `lv_init()`
  64:Middlewares/lvgl/src/extra/widgets/msgbox/../../../../src/core/lv_obj_style.h ****  */
  65:Middlewares/lvgl/src/extra/widgets/msgbox/../../../../src/core/lv_obj_style.h **** void _lv_obj_style_init(void);
  66:Middlewares/lvgl/src/extra/widgets/msgbox/../../../../src/core/lv_obj_style.h **** 
  67:Middlewares/lvgl/src/extra/widgets/msgbox/../../../../src/core/lv_obj_style.h **** /**
  68:Middlewares/lvgl/src/extra/widgets/msgbox/../../../../src/core/lv_obj_style.h ****  * Add a style to an object.
  69:Middlewares/lvgl/src/extra/widgets/msgbox/../../../../src/core/lv_obj_style.h ****  * @param obj       pointer to an object
  70:Middlewares/lvgl/src/extra/widgets/msgbox/../../../../src/core/lv_obj_style.h ****  * @param style     pointer to a style to add
  71:Middlewares/lvgl/src/extra/widgets/msgbox/../../../../src/core/lv_obj_style.h ****  * @param selector  OR-ed value of parts and state to which the style should be added
  72:Middlewares/lvgl/src/extra/widgets/msgbox/../../../../src/core/lv_obj_style.h ****  * @example         lv_obj_add_style(btn, &style_btn, 0); //Default button style
  73:Middlewares/lvgl/src/extra/widgets/msgbox/../../../../src/core/lv_obj_style.h ****  * @example         lv_obj_add_style(btn, &btn_red, LV_STATE_PRESSED); //Overwrite only some colors
  74:Middlewares/lvgl/src/extra/widgets/msgbox/../../../../src/core/lv_obj_style.h ****  */
  75:Middlewares/lvgl/src/extra/widgets/msgbox/../../../../src/core/lv_obj_style.h **** void lv_obj_add_style(struct _lv_obj_t * obj, lv_style_t * style, lv_style_selector_t selector);
  76:Middlewares/lvgl/src/extra/widgets/msgbox/../../../../src/core/lv_obj_style.h **** 
  77:Middlewares/lvgl/src/extra/widgets/msgbox/../../../../src/core/lv_obj_style.h **** /**
  78:Middlewares/lvgl/src/extra/widgets/msgbox/../../../../src/core/lv_obj_style.h ****  * Add a style to an object.
  79:Middlewares/lvgl/src/extra/widgets/msgbox/../../../../src/core/lv_obj_style.h ****  * @param obj       pointer to an object
  80:Middlewares/lvgl/src/extra/widgets/msgbox/../../../../src/core/lv_obj_style.h ****  * @param style     pointer to a style to remove. Can be NULL to check only the selector
ARM GAS  /tmp/ccPpOeRU.s 			page 11


  81:Middlewares/lvgl/src/extra/widgets/msgbox/../../../../src/core/lv_obj_style.h ****  * @param selector  OR-ed values of states and a part to remove only styles with matching selectors
  82:Middlewares/lvgl/src/extra/widgets/msgbox/../../../../src/core/lv_obj_style.h ****  * @example lv_obj_remove_style(obj, &style, LV_PART_ANY | LV_STATE_ANY); //Remove a specific style
  83:Middlewares/lvgl/src/extra/widgets/msgbox/../../../../src/core/lv_obj_style.h ****  * @example lv_obj_remove_style(obj, NULL, LV_PART_MAIN | LV_STATE_ANY); //Remove all styles from t
  84:Middlewares/lvgl/src/extra/widgets/msgbox/../../../../src/core/lv_obj_style.h ****  * @example lv_obj_remove_style(obj, NULL, LV_PART_ANY | LV_STATE_ANY); //Remove all styles
  85:Middlewares/lvgl/src/extra/widgets/msgbox/../../../../src/core/lv_obj_style.h ****  */
  86:Middlewares/lvgl/src/extra/widgets/msgbox/../../../../src/core/lv_obj_style.h **** void lv_obj_remove_style(struct _lv_obj_t * obj, lv_style_t * style, lv_style_selector_t selector);
  87:Middlewares/lvgl/src/extra/widgets/msgbox/../../../../src/core/lv_obj_style.h **** 
  88:Middlewares/lvgl/src/extra/widgets/msgbox/../../../../src/core/lv_obj_style.h **** /**
  89:Middlewares/lvgl/src/extra/widgets/msgbox/../../../../src/core/lv_obj_style.h ****  * Remove all styles from an object
  90:Middlewares/lvgl/src/extra/widgets/msgbox/../../../../src/core/lv_obj_style.h ****  * @param obj       pointer to an object
  91:Middlewares/lvgl/src/extra/widgets/msgbox/../../../../src/core/lv_obj_style.h ****  */
  92:Middlewares/lvgl/src/extra/widgets/msgbox/../../../../src/core/lv_obj_style.h **** static inline void lv_obj_remove_style_all(struct _lv_obj_t * obj)
 217              		.loc 3 92 20 view .LVU53
 218              	.LBB36:
  93:Middlewares/lvgl/src/extra/widgets/msgbox/../../../../src/core/lv_obj_style.h **** {
  94:Middlewares/lvgl/src/extra/widgets/msgbox/../../../../src/core/lv_obj_style.h ****     lv_obj_remove_style(obj, NULL, LV_PART_ANY | LV_STATE_ANY);
 219              		.loc 3 94 5 view .LVU54
 220 00cc 554A     		ldr	r2, .L24+4
 221 00ce 0021     		movs	r1, #0
 222 00d0 FFF7FEFF 		bl	lv_obj_remove_style
 223              	.LVL30:
 224              		.loc 3 94 5 is_stmt 0 view .LVU55
 225              	.LBE36:
 226              	.LBE35:
  48:Middlewares/lvgl/src/extra/widgets/msgbox/lv_msgbox.c ****         lv_obj_set_style_bg_color(parent, lv_palette_main(LV_PALETTE_GREY), 0);
 227              		.loc 1 48 9 is_stmt 1 view .LVU56
 228 00d4 4FF40041 		mov	r1, #32768
 229 00d8 2846     		mov	r0, r5
 230 00da FFF7FEFF 		bl	lv_obj_clear_flag
 231              	.LVL31:
  49:Middlewares/lvgl/src/extra/widgets/msgbox/lv_msgbox.c ****         lv_obj_set_style_bg_opa(parent, LV_OPA_50, 0);
 232              		.loc 1 49 9 view .LVU57
 233 00de 1220     		movs	r0, #18
 234 00e0 FFF7FEFF 		bl	lv_palette_main
 235              	.LVL32:
 236 00e4 0146     		mov	r1, r0	@ movhi
 237 00e6 0022     		movs	r2, #0
 238 00e8 2846     		mov	r0, r5
 239 00ea FFF7FEFF 		bl	lv_obj_set_style_bg_color
 240              	.LVL33:
  50:Middlewares/lvgl/src/extra/widgets/msgbox/lv_msgbox.c ****         lv_obj_set_size(parent, LV_PCT(100), LV_PCT(100));
 241              		.loc 1 50 9 view .LVU58
 242 00ee 0022     		movs	r2, #0
 243 00f0 7F21     		movs	r1, #127
 244 00f2 2846     		mov	r0, r5
 245 00f4 FFF7FEFF 		bl	lv_obj_set_style_bg_opa
 246              	.LVL34:
  51:Middlewares/lvgl/src/extra/widgets/msgbox/lv_msgbox.c ****     }
 247              		.loc 1 51 9 view .LVU59
 248 00f8 42F26402 		movw	r2, #8292
 249 00fc 1146     		mov	r1, r2
 250 00fe 2846     		mov	r0, r5
 251 0100 FFF7FEFF 		bl	lv_obj_set_size
 252              	.LVL35:
  45:Middlewares/lvgl/src/extra/widgets/msgbox/lv_msgbox.c ****         parent = lv_obj_create(lv_layer_top());
 253              		.loc 1 45 21 is_stmt 0 view .LVU60
 254 0104 4FF00108 		mov	r8, #1
ARM GAS  /tmp/ccPpOeRU.s 			page 12


 255 0108 86E7     		b	.L2
 256              	.LVL36:
 257              	.L4:
  56:Middlewares/lvgl/src/extra/widgets/msgbox/lv_msgbox.c ****     if(mbox == NULL) return NULL;
 258              		.loc 1 56 5 is_stmt 1 discriminator 1 view .LVU61
  56:Middlewares/lvgl/src/extra/widgets/msgbox/lv_msgbox.c ****     if(mbox == NULL) return NULL;
 259              		.loc 1 56 5 discriminator 1 view .LVU62
  56:Middlewares/lvgl/src/extra/widgets/msgbox/lv_msgbox.c ****     if(mbox == NULL) return NULL;
 260              		.loc 1 56 5 discriminator 1 view .LVU63
  56:Middlewares/lvgl/src/extra/widgets/msgbox/lv_msgbox.c ****     if(mbox == NULL) return NULL;
 261              		.loc 1 56 5 discriminator 1 view .LVU64
 262 010a FEE7     		b	.L4
 263              	.L20:
  59:Middlewares/lvgl/src/extra/widgets/msgbox/lv_msgbox.c **** 
 264              		.loc 1 59 21 discriminator 1 view .LVU65
 265 010c 4FF00071 		mov	r1, #33554432
 266 0110 2846     		mov	r0, r5
 267 0112 FFF7FEFF 		bl	lv_obj_add_flag
 268              	.LVL37:
 269 0116 8BE7     		b	.L5
 270              	.LVL38:
 271              	.L6:
  70:Middlewares/lvgl/src/extra/widgets/msgbox/lv_msgbox.c **** 
 272              		.loc 1 70 10 view .LVU66
 273 0118 42F26401 		movw	r1, #8292
 274 011c 4046     		mov	r0, r8
 275 011e FFF7FEFF 		bl	lv_obj_set_width
 276              	.LVL39:
 277 0122 A8E7     		b	.L7
 278              	.L21:
 279              	.LBB37:
  73:Middlewares/lvgl/src/extra/widgets/msgbox/lv_msgbox.c ****         lv_obj_set_ext_click_area(close_btn, LV_DPX(10));
 280              		.loc 1 73 9 view .LVU67
  73:Middlewares/lvgl/src/extra/widgets/msgbox/lv_msgbox.c ****         lv_obj_set_ext_click_area(close_btn, LV_DPX(10));
 281              		.loc 1 73 32 is_stmt 0 view .LVU68
 282 0124 2846     		mov	r0, r5
 283 0126 FFF7FEFF 		bl	lv_btn_create
 284              	.LVL40:
 285 012a 8046     		mov	r8, r0
 286              	.LVL41:
  74:Middlewares/lvgl/src/extra/widgets/msgbox/lv_msgbox.c ****         lv_obj_add_event_cb(close_btn, msgbox_close_click_event_cb, LV_EVENT_CLICKED, NULL);
 287              		.loc 1 74 9 is_stmt 1 view .LVU69
  74:Middlewares/lvgl/src/extra/widgets/msgbox/lv_msgbox.c ****         lv_obj_add_event_cb(close_btn, msgbox_close_click_event_cb, LV_EVENT_CLICKED, NULL);
 288              		.loc 1 74 46 is_stmt 0 view .LVU70
 289 012c 0020     		movs	r0, #0
 290              	.LVL42:
  74:Middlewares/lvgl/src/extra/widgets/msgbox/lv_msgbox.c ****         lv_obj_add_event_cb(close_btn, msgbox_close_click_event_cb, LV_EVENT_CLICKED, NULL);
 291              		.loc 1 74 46 view .LVU71
 292 012e FFF7FEFF 		bl	lv_disp_get_dpi
 293              	.LVL43:
 294 0132 00EB8000 		add	r0, r0, r0, lsl #2
 295 0136 4300     		lsls	r3, r0, #1
  74:Middlewares/lvgl/src/extra/widgets/msgbox/lv_msgbox.c ****         lv_obj_add_event_cb(close_btn, msgbox_close_click_event_cb, LV_EVENT_CLICKED, NULL);
 296              		.loc 1 74 9 view .LVU72
 297 0138 EF2B     		cmp	r3, #239
 298 013a 2FDC     		bgt	.L22
 299 013c 0121     		movs	r1, #1
ARM GAS  /tmp/ccPpOeRU.s 			page 13


 300              	.L9:
  74:Middlewares/lvgl/src/extra/widgets/msgbox/lv_msgbox.c ****         lv_obj_add_event_cb(close_btn, msgbox_close_click_event_cb, LV_EVENT_CLICKED, NULL);
 301              		.loc 1 74 9 discriminator 4 view .LVU73
 302 013e 4046     		mov	r0, r8
 303 0140 FFF7FEFF 		bl	lv_obj_set_ext_click_area
 304              	.LVL44:
  75:Middlewares/lvgl/src/extra/widgets/msgbox/lv_msgbox.c ****         label = lv_label_create(close_btn);
 305              		.loc 1 75 9 is_stmt 1 discriminator 4 view .LVU74
 306 0144 0023     		movs	r3, #0
 307 0146 0722     		movs	r2, #7
 308 0148 3749     		ldr	r1, .L24+8
 309 014a 4046     		mov	r0, r8
 310 014c FFF7FEFF 		bl	lv_obj_add_event_cb
 311              	.LVL45:
  76:Middlewares/lvgl/src/extra/widgets/msgbox/lv_msgbox.c ****         lv_label_set_text(label, LV_SYMBOL_CLOSE);
 312              		.loc 1 76 9 discriminator 4 view .LVU75
  76:Middlewares/lvgl/src/extra/widgets/msgbox/lv_msgbox.c ****         lv_label_set_text(label, LV_SYMBOL_CLOSE);
 313              		.loc 1 76 17 is_stmt 0 discriminator 4 view .LVU76
 314 0150 4046     		mov	r0, r8
 315 0152 FFF7FEFF 		bl	lv_label_create
 316              	.LVL46:
 317 0156 8146     		mov	r9, r0
 318              	.LVL47:
  77:Middlewares/lvgl/src/extra/widgets/msgbox/lv_msgbox.c ****         const lv_font_t * font = lv_obj_get_style_text_font(close_btn, LV_PART_MAIN);
 319              		.loc 1 77 9 is_stmt 1 discriminator 4 view .LVU77
 320 0158 3449     		ldr	r1, .L24+12
 321 015a FFF7FEFF 		bl	lv_label_set_text
 322              	.LVL48:
  78:Middlewares/lvgl/src/extra/widgets/msgbox/lv_msgbox.c ****         lv_coord_t close_btn_size = lv_font_get_line_height(font) + LV_DPX(10);
 323              		.loc 1 78 9 discriminator 4 view .LVU78
 324              	.LBB38:
 325              	.LBI38:
 326              		.file 4 "Middlewares/lvgl/src/extra/widgets/msgbox/../../../../src/core/lv_obj_style_gen.h"
   1:Middlewares/lvgl/src/extra/widgets/msgbox/../../../../src/core/lv_obj_style_gen.h **** static inline lv_coord_t lv_obj_get_style_width(const struct _lv_obj_t * obj, uint32_t part)
   2:Middlewares/lvgl/src/extra/widgets/msgbox/../../../../src/core/lv_obj_style_gen.h **** {
   3:Middlewares/lvgl/src/extra/widgets/msgbox/../../../../src/core/lv_obj_style_gen.h ****     lv_style_value_t v = lv_obj_get_style_prop(obj, part, LV_STYLE_WIDTH);
   4:Middlewares/lvgl/src/extra/widgets/msgbox/../../../../src/core/lv_obj_style_gen.h ****     return (lv_coord_t)v.num;
   5:Middlewares/lvgl/src/extra/widgets/msgbox/../../../../src/core/lv_obj_style_gen.h **** }
   6:Middlewares/lvgl/src/extra/widgets/msgbox/../../../../src/core/lv_obj_style_gen.h **** 
   7:Middlewares/lvgl/src/extra/widgets/msgbox/../../../../src/core/lv_obj_style_gen.h **** static inline lv_coord_t lv_obj_get_style_min_width(const struct _lv_obj_t * obj, uint32_t part)
   8:Middlewares/lvgl/src/extra/widgets/msgbox/../../../../src/core/lv_obj_style_gen.h **** {
   9:Middlewares/lvgl/src/extra/widgets/msgbox/../../../../src/core/lv_obj_style_gen.h ****     lv_style_value_t v = lv_obj_get_style_prop(obj, part, LV_STYLE_MIN_WIDTH);
  10:Middlewares/lvgl/src/extra/widgets/msgbox/../../../../src/core/lv_obj_style_gen.h ****     return (lv_coord_t)v.num;
  11:Middlewares/lvgl/src/extra/widgets/msgbox/../../../../src/core/lv_obj_style_gen.h **** }
  12:Middlewares/lvgl/src/extra/widgets/msgbox/../../../../src/core/lv_obj_style_gen.h **** 
  13:Middlewares/lvgl/src/extra/widgets/msgbox/../../../../src/core/lv_obj_style_gen.h **** static inline lv_coord_t lv_obj_get_style_max_width(const struct _lv_obj_t * obj, uint32_t part)
  14:Middlewares/lvgl/src/extra/widgets/msgbox/../../../../src/core/lv_obj_style_gen.h **** {
  15:Middlewares/lvgl/src/extra/widgets/msgbox/../../../../src/core/lv_obj_style_gen.h ****     lv_style_value_t v = lv_obj_get_style_prop(obj, part, LV_STYLE_MAX_WIDTH);
  16:Middlewares/lvgl/src/extra/widgets/msgbox/../../../../src/core/lv_obj_style_gen.h ****     return (lv_coord_t)v.num;
  17:Middlewares/lvgl/src/extra/widgets/msgbox/../../../../src/core/lv_obj_style_gen.h **** }
  18:Middlewares/lvgl/src/extra/widgets/msgbox/../../../../src/core/lv_obj_style_gen.h **** 
  19:Middlewares/lvgl/src/extra/widgets/msgbox/../../../../src/core/lv_obj_style_gen.h **** static inline lv_coord_t lv_obj_get_style_height(const struct _lv_obj_t * obj, uint32_t part)
  20:Middlewares/lvgl/src/extra/widgets/msgbox/../../../../src/core/lv_obj_style_gen.h **** {
  21:Middlewares/lvgl/src/extra/widgets/msgbox/../../../../src/core/lv_obj_style_gen.h ****     lv_style_value_t v = lv_obj_get_style_prop(obj, part, LV_STYLE_HEIGHT);
  22:Middlewares/lvgl/src/extra/widgets/msgbox/../../../../src/core/lv_obj_style_gen.h ****     return (lv_coord_t)v.num;
  23:Middlewares/lvgl/src/extra/widgets/msgbox/../../../../src/core/lv_obj_style_gen.h **** }
  24:Middlewares/lvgl/src/extra/widgets/msgbox/../../../../src/core/lv_obj_style_gen.h **** 
ARM GAS  /tmp/ccPpOeRU.s 			page 14


  25:Middlewares/lvgl/src/extra/widgets/msgbox/../../../../src/core/lv_obj_style_gen.h **** static inline lv_coord_t lv_obj_get_style_min_height(const struct _lv_obj_t * obj, uint32_t part)
  26:Middlewares/lvgl/src/extra/widgets/msgbox/../../../../src/core/lv_obj_style_gen.h **** {
  27:Middlewares/lvgl/src/extra/widgets/msgbox/../../../../src/core/lv_obj_style_gen.h ****     lv_style_value_t v = lv_obj_get_style_prop(obj, part, LV_STYLE_MIN_HEIGHT);
  28:Middlewares/lvgl/src/extra/widgets/msgbox/../../../../src/core/lv_obj_style_gen.h ****     return (lv_coord_t)v.num;
  29:Middlewares/lvgl/src/extra/widgets/msgbox/../../../../src/core/lv_obj_style_gen.h **** }
  30:Middlewares/lvgl/src/extra/widgets/msgbox/../../../../src/core/lv_obj_style_gen.h **** 
  31:Middlewares/lvgl/src/extra/widgets/msgbox/../../../../src/core/lv_obj_style_gen.h **** static inline lv_coord_t lv_obj_get_style_max_height(const struct _lv_obj_t * obj, uint32_t part)
  32:Middlewares/lvgl/src/extra/widgets/msgbox/../../../../src/core/lv_obj_style_gen.h **** {
  33:Middlewares/lvgl/src/extra/widgets/msgbox/../../../../src/core/lv_obj_style_gen.h ****     lv_style_value_t v = lv_obj_get_style_prop(obj, part, LV_STYLE_MAX_HEIGHT);
  34:Middlewares/lvgl/src/extra/widgets/msgbox/../../../../src/core/lv_obj_style_gen.h ****     return (lv_coord_t)v.num;
  35:Middlewares/lvgl/src/extra/widgets/msgbox/../../../../src/core/lv_obj_style_gen.h **** }
  36:Middlewares/lvgl/src/extra/widgets/msgbox/../../../../src/core/lv_obj_style_gen.h **** 
  37:Middlewares/lvgl/src/extra/widgets/msgbox/../../../../src/core/lv_obj_style_gen.h **** static inline lv_coord_t lv_obj_get_style_x(const struct _lv_obj_t * obj, uint32_t part)
  38:Middlewares/lvgl/src/extra/widgets/msgbox/../../../../src/core/lv_obj_style_gen.h **** {
  39:Middlewares/lvgl/src/extra/widgets/msgbox/../../../../src/core/lv_obj_style_gen.h ****     lv_style_value_t v = lv_obj_get_style_prop(obj, part, LV_STYLE_X);
  40:Middlewares/lvgl/src/extra/widgets/msgbox/../../../../src/core/lv_obj_style_gen.h ****     return (lv_coord_t)v.num;
  41:Middlewares/lvgl/src/extra/widgets/msgbox/../../../../src/core/lv_obj_style_gen.h **** }
  42:Middlewares/lvgl/src/extra/widgets/msgbox/../../../../src/core/lv_obj_style_gen.h **** 
  43:Middlewares/lvgl/src/extra/widgets/msgbox/../../../../src/core/lv_obj_style_gen.h **** static inline lv_coord_t lv_obj_get_style_y(const struct _lv_obj_t * obj, uint32_t part)
  44:Middlewares/lvgl/src/extra/widgets/msgbox/../../../../src/core/lv_obj_style_gen.h **** {
  45:Middlewares/lvgl/src/extra/widgets/msgbox/../../../../src/core/lv_obj_style_gen.h ****     lv_style_value_t v = lv_obj_get_style_prop(obj, part, LV_STYLE_Y);
  46:Middlewares/lvgl/src/extra/widgets/msgbox/../../../../src/core/lv_obj_style_gen.h ****     return (lv_coord_t)v.num;
  47:Middlewares/lvgl/src/extra/widgets/msgbox/../../../../src/core/lv_obj_style_gen.h **** }
  48:Middlewares/lvgl/src/extra/widgets/msgbox/../../../../src/core/lv_obj_style_gen.h **** 
  49:Middlewares/lvgl/src/extra/widgets/msgbox/../../../../src/core/lv_obj_style_gen.h **** static inline lv_align_t lv_obj_get_style_align(const struct _lv_obj_t * obj, uint32_t part)
  50:Middlewares/lvgl/src/extra/widgets/msgbox/../../../../src/core/lv_obj_style_gen.h **** {
  51:Middlewares/lvgl/src/extra/widgets/msgbox/../../../../src/core/lv_obj_style_gen.h ****     lv_style_value_t v = lv_obj_get_style_prop(obj, part, LV_STYLE_ALIGN);
  52:Middlewares/lvgl/src/extra/widgets/msgbox/../../../../src/core/lv_obj_style_gen.h ****     return (lv_align_t)v.num;
  53:Middlewares/lvgl/src/extra/widgets/msgbox/../../../../src/core/lv_obj_style_gen.h **** }
  54:Middlewares/lvgl/src/extra/widgets/msgbox/../../../../src/core/lv_obj_style_gen.h **** 
  55:Middlewares/lvgl/src/extra/widgets/msgbox/../../../../src/core/lv_obj_style_gen.h **** static inline lv_coord_t lv_obj_get_style_transform_width(const struct _lv_obj_t * obj, uint32_t pa
  56:Middlewares/lvgl/src/extra/widgets/msgbox/../../../../src/core/lv_obj_style_gen.h **** {
  57:Middlewares/lvgl/src/extra/widgets/msgbox/../../../../src/core/lv_obj_style_gen.h ****     lv_style_value_t v = lv_obj_get_style_prop(obj, part, LV_STYLE_TRANSFORM_WIDTH);
  58:Middlewares/lvgl/src/extra/widgets/msgbox/../../../../src/core/lv_obj_style_gen.h ****     return (lv_coord_t)v.num;
  59:Middlewares/lvgl/src/extra/widgets/msgbox/../../../../src/core/lv_obj_style_gen.h **** }
  60:Middlewares/lvgl/src/extra/widgets/msgbox/../../../../src/core/lv_obj_style_gen.h **** 
  61:Middlewares/lvgl/src/extra/widgets/msgbox/../../../../src/core/lv_obj_style_gen.h **** static inline lv_coord_t lv_obj_get_style_transform_height(const struct _lv_obj_t * obj, uint32_t p
  62:Middlewares/lvgl/src/extra/widgets/msgbox/../../../../src/core/lv_obj_style_gen.h **** {
  63:Middlewares/lvgl/src/extra/widgets/msgbox/../../../../src/core/lv_obj_style_gen.h ****     lv_style_value_t v = lv_obj_get_style_prop(obj, part, LV_STYLE_TRANSFORM_HEIGHT);
  64:Middlewares/lvgl/src/extra/widgets/msgbox/../../../../src/core/lv_obj_style_gen.h ****     return (lv_coord_t)v.num;
  65:Middlewares/lvgl/src/extra/widgets/msgbox/../../../../src/core/lv_obj_style_gen.h **** }
  66:Middlewares/lvgl/src/extra/widgets/msgbox/../../../../src/core/lv_obj_style_gen.h **** 
  67:Middlewares/lvgl/src/extra/widgets/msgbox/../../../../src/core/lv_obj_style_gen.h **** static inline lv_coord_t lv_obj_get_style_translate_x(const struct _lv_obj_t * obj, uint32_t part)
  68:Middlewares/lvgl/src/extra/widgets/msgbox/../../../../src/core/lv_obj_style_gen.h **** {
  69:Middlewares/lvgl/src/extra/widgets/msgbox/../../../../src/core/lv_obj_style_gen.h ****     lv_style_value_t v = lv_obj_get_style_prop(obj, part, LV_STYLE_TRANSLATE_X);
  70:Middlewares/lvgl/src/extra/widgets/msgbox/../../../../src/core/lv_obj_style_gen.h ****     return (lv_coord_t)v.num;
  71:Middlewares/lvgl/src/extra/widgets/msgbox/../../../../src/core/lv_obj_style_gen.h **** }
  72:Middlewares/lvgl/src/extra/widgets/msgbox/../../../../src/core/lv_obj_style_gen.h **** 
  73:Middlewares/lvgl/src/extra/widgets/msgbox/../../../../src/core/lv_obj_style_gen.h **** static inline lv_coord_t lv_obj_get_style_translate_y(const struct _lv_obj_t * obj, uint32_t part)
  74:Middlewares/lvgl/src/extra/widgets/msgbox/../../../../src/core/lv_obj_style_gen.h **** {
  75:Middlewares/lvgl/src/extra/widgets/msgbox/../../../../src/core/lv_obj_style_gen.h ****     lv_style_value_t v = lv_obj_get_style_prop(obj, part, LV_STYLE_TRANSLATE_Y);
  76:Middlewares/lvgl/src/extra/widgets/msgbox/../../../../src/core/lv_obj_style_gen.h ****     return (lv_coord_t)v.num;
  77:Middlewares/lvgl/src/extra/widgets/msgbox/../../../../src/core/lv_obj_style_gen.h **** }
  78:Middlewares/lvgl/src/extra/widgets/msgbox/../../../../src/core/lv_obj_style_gen.h **** 
  79:Middlewares/lvgl/src/extra/widgets/msgbox/../../../../src/core/lv_obj_style_gen.h **** static inline lv_coord_t lv_obj_get_style_transform_zoom(const struct _lv_obj_t * obj, uint32_t par
  80:Middlewares/lvgl/src/extra/widgets/msgbox/../../../../src/core/lv_obj_style_gen.h **** {
  81:Middlewares/lvgl/src/extra/widgets/msgbox/../../../../src/core/lv_obj_style_gen.h ****     lv_style_value_t v = lv_obj_get_style_prop(obj, part, LV_STYLE_TRANSFORM_ZOOM);
ARM GAS  /tmp/ccPpOeRU.s 			page 15


  82:Middlewares/lvgl/src/extra/widgets/msgbox/../../../../src/core/lv_obj_style_gen.h ****     return (lv_coord_t)v.num;
  83:Middlewares/lvgl/src/extra/widgets/msgbox/../../../../src/core/lv_obj_style_gen.h **** }
  84:Middlewares/lvgl/src/extra/widgets/msgbox/../../../../src/core/lv_obj_style_gen.h **** 
  85:Middlewares/lvgl/src/extra/widgets/msgbox/../../../../src/core/lv_obj_style_gen.h **** static inline lv_coord_t lv_obj_get_style_transform_angle(const struct _lv_obj_t * obj, uint32_t pa
  86:Middlewares/lvgl/src/extra/widgets/msgbox/../../../../src/core/lv_obj_style_gen.h **** {
  87:Middlewares/lvgl/src/extra/widgets/msgbox/../../../../src/core/lv_obj_style_gen.h ****     lv_style_value_t v = lv_obj_get_style_prop(obj, part, LV_STYLE_TRANSFORM_ANGLE);
  88:Middlewares/lvgl/src/extra/widgets/msgbox/../../../../src/core/lv_obj_style_gen.h ****     return (lv_coord_t)v.num;
  89:Middlewares/lvgl/src/extra/widgets/msgbox/../../../../src/core/lv_obj_style_gen.h **** }
  90:Middlewares/lvgl/src/extra/widgets/msgbox/../../../../src/core/lv_obj_style_gen.h **** 
  91:Middlewares/lvgl/src/extra/widgets/msgbox/../../../../src/core/lv_obj_style_gen.h **** static inline lv_coord_t lv_obj_get_style_pad_top(const struct _lv_obj_t * obj, uint32_t part)
  92:Middlewares/lvgl/src/extra/widgets/msgbox/../../../../src/core/lv_obj_style_gen.h **** {
  93:Middlewares/lvgl/src/extra/widgets/msgbox/../../../../src/core/lv_obj_style_gen.h ****     lv_style_value_t v = lv_obj_get_style_prop(obj, part, LV_STYLE_PAD_TOP);
  94:Middlewares/lvgl/src/extra/widgets/msgbox/../../../../src/core/lv_obj_style_gen.h ****     return (lv_coord_t)v.num;
  95:Middlewares/lvgl/src/extra/widgets/msgbox/../../../../src/core/lv_obj_style_gen.h **** }
  96:Middlewares/lvgl/src/extra/widgets/msgbox/../../../../src/core/lv_obj_style_gen.h **** 
  97:Middlewares/lvgl/src/extra/widgets/msgbox/../../../../src/core/lv_obj_style_gen.h **** static inline lv_coord_t lv_obj_get_style_pad_bottom(const struct _lv_obj_t * obj, uint32_t part)
  98:Middlewares/lvgl/src/extra/widgets/msgbox/../../../../src/core/lv_obj_style_gen.h **** {
  99:Middlewares/lvgl/src/extra/widgets/msgbox/../../../../src/core/lv_obj_style_gen.h ****     lv_style_value_t v = lv_obj_get_style_prop(obj, part, LV_STYLE_PAD_BOTTOM);
 100:Middlewares/lvgl/src/extra/widgets/msgbox/../../../../src/core/lv_obj_style_gen.h ****     return (lv_coord_t)v.num;
 101:Middlewares/lvgl/src/extra/widgets/msgbox/../../../../src/core/lv_obj_style_gen.h **** }
 102:Middlewares/lvgl/src/extra/widgets/msgbox/../../../../src/core/lv_obj_style_gen.h **** 
 103:Middlewares/lvgl/src/extra/widgets/msgbox/../../../../src/core/lv_obj_style_gen.h **** static inline lv_coord_t lv_obj_get_style_pad_left(const struct _lv_obj_t * obj, uint32_t part)
 104:Middlewares/lvgl/src/extra/widgets/msgbox/../../../../src/core/lv_obj_style_gen.h **** {
 105:Middlewares/lvgl/src/extra/widgets/msgbox/../../../../src/core/lv_obj_style_gen.h ****     lv_style_value_t v = lv_obj_get_style_prop(obj, part, LV_STYLE_PAD_LEFT);
 106:Middlewares/lvgl/src/extra/widgets/msgbox/../../../../src/core/lv_obj_style_gen.h ****     return (lv_coord_t)v.num;
 107:Middlewares/lvgl/src/extra/widgets/msgbox/../../../../src/core/lv_obj_style_gen.h **** }
 108:Middlewares/lvgl/src/extra/widgets/msgbox/../../../../src/core/lv_obj_style_gen.h **** 
 109:Middlewares/lvgl/src/extra/widgets/msgbox/../../../../src/core/lv_obj_style_gen.h **** static inline lv_coord_t lv_obj_get_style_pad_right(const struct _lv_obj_t * obj, uint32_t part)
 110:Middlewares/lvgl/src/extra/widgets/msgbox/../../../../src/core/lv_obj_style_gen.h **** {
 111:Middlewares/lvgl/src/extra/widgets/msgbox/../../../../src/core/lv_obj_style_gen.h ****     lv_style_value_t v = lv_obj_get_style_prop(obj, part, LV_STYLE_PAD_RIGHT);
 112:Middlewares/lvgl/src/extra/widgets/msgbox/../../../../src/core/lv_obj_style_gen.h ****     return (lv_coord_t)v.num;
 113:Middlewares/lvgl/src/extra/widgets/msgbox/../../../../src/core/lv_obj_style_gen.h **** }
 114:Middlewares/lvgl/src/extra/widgets/msgbox/../../../../src/core/lv_obj_style_gen.h **** 
 115:Middlewares/lvgl/src/extra/widgets/msgbox/../../../../src/core/lv_obj_style_gen.h **** static inline lv_coord_t lv_obj_get_style_pad_row(const struct _lv_obj_t * obj, uint32_t part)
 116:Middlewares/lvgl/src/extra/widgets/msgbox/../../../../src/core/lv_obj_style_gen.h **** {
 117:Middlewares/lvgl/src/extra/widgets/msgbox/../../../../src/core/lv_obj_style_gen.h ****     lv_style_value_t v = lv_obj_get_style_prop(obj, part, LV_STYLE_PAD_ROW);
 118:Middlewares/lvgl/src/extra/widgets/msgbox/../../../../src/core/lv_obj_style_gen.h ****     return (lv_coord_t)v.num;
 119:Middlewares/lvgl/src/extra/widgets/msgbox/../../../../src/core/lv_obj_style_gen.h **** }
 120:Middlewares/lvgl/src/extra/widgets/msgbox/../../../../src/core/lv_obj_style_gen.h **** 
 121:Middlewares/lvgl/src/extra/widgets/msgbox/../../../../src/core/lv_obj_style_gen.h **** static inline lv_coord_t lv_obj_get_style_pad_column(const struct _lv_obj_t * obj, uint32_t part)
 122:Middlewares/lvgl/src/extra/widgets/msgbox/../../../../src/core/lv_obj_style_gen.h **** {
 123:Middlewares/lvgl/src/extra/widgets/msgbox/../../../../src/core/lv_obj_style_gen.h ****     lv_style_value_t v = lv_obj_get_style_prop(obj, part, LV_STYLE_PAD_COLUMN);
 124:Middlewares/lvgl/src/extra/widgets/msgbox/../../../../src/core/lv_obj_style_gen.h ****     return (lv_coord_t)v.num;
 125:Middlewares/lvgl/src/extra/widgets/msgbox/../../../../src/core/lv_obj_style_gen.h **** }
 126:Middlewares/lvgl/src/extra/widgets/msgbox/../../../../src/core/lv_obj_style_gen.h **** 
 127:Middlewares/lvgl/src/extra/widgets/msgbox/../../../../src/core/lv_obj_style_gen.h **** static inline lv_coord_t lv_obj_get_style_radius(const struct _lv_obj_t * obj, uint32_t part)
 128:Middlewares/lvgl/src/extra/widgets/msgbox/../../../../src/core/lv_obj_style_gen.h **** {
 129:Middlewares/lvgl/src/extra/widgets/msgbox/../../../../src/core/lv_obj_style_gen.h ****     lv_style_value_t v = lv_obj_get_style_prop(obj, part, LV_STYLE_RADIUS);
 130:Middlewares/lvgl/src/extra/widgets/msgbox/../../../../src/core/lv_obj_style_gen.h ****     return (lv_coord_t)v.num;
 131:Middlewares/lvgl/src/extra/widgets/msgbox/../../../../src/core/lv_obj_style_gen.h **** }
 132:Middlewares/lvgl/src/extra/widgets/msgbox/../../../../src/core/lv_obj_style_gen.h **** 
 133:Middlewares/lvgl/src/extra/widgets/msgbox/../../../../src/core/lv_obj_style_gen.h **** static inline bool lv_obj_get_style_clip_corner(const struct _lv_obj_t * obj, uint32_t part)
 134:Middlewares/lvgl/src/extra/widgets/msgbox/../../../../src/core/lv_obj_style_gen.h **** {
 135:Middlewares/lvgl/src/extra/widgets/msgbox/../../../../src/core/lv_obj_style_gen.h ****     lv_style_value_t v = lv_obj_get_style_prop(obj, part, LV_STYLE_CLIP_CORNER);
 136:Middlewares/lvgl/src/extra/widgets/msgbox/../../../../src/core/lv_obj_style_gen.h ****     return (bool)v.num;
 137:Middlewares/lvgl/src/extra/widgets/msgbox/../../../../src/core/lv_obj_style_gen.h **** }
 138:Middlewares/lvgl/src/extra/widgets/msgbox/../../../../src/core/lv_obj_style_gen.h **** 
ARM GAS  /tmp/ccPpOeRU.s 			page 16


 139:Middlewares/lvgl/src/extra/widgets/msgbox/../../../../src/core/lv_obj_style_gen.h **** static inline lv_opa_t lv_obj_get_style_opa(const struct _lv_obj_t * obj, uint32_t part)
 140:Middlewares/lvgl/src/extra/widgets/msgbox/../../../../src/core/lv_obj_style_gen.h **** {
 141:Middlewares/lvgl/src/extra/widgets/msgbox/../../../../src/core/lv_obj_style_gen.h ****     lv_style_value_t v = lv_obj_get_style_prop(obj, part, LV_STYLE_OPA);
 142:Middlewares/lvgl/src/extra/widgets/msgbox/../../../../src/core/lv_obj_style_gen.h ****     return (lv_opa_t)v.num;
 143:Middlewares/lvgl/src/extra/widgets/msgbox/../../../../src/core/lv_obj_style_gen.h **** }
 144:Middlewares/lvgl/src/extra/widgets/msgbox/../../../../src/core/lv_obj_style_gen.h **** 
 145:Middlewares/lvgl/src/extra/widgets/msgbox/../../../../src/core/lv_obj_style_gen.h **** static inline const lv_color_filter_dsc_t * lv_obj_get_style_color_filter_dsc(const struct _lv_obj_
 146:Middlewares/lvgl/src/extra/widgets/msgbox/../../../../src/core/lv_obj_style_gen.h **** {
 147:Middlewares/lvgl/src/extra/widgets/msgbox/../../../../src/core/lv_obj_style_gen.h ****     lv_style_value_t v = lv_obj_get_style_prop(obj, part, LV_STYLE_COLOR_FILTER_DSC);
 148:Middlewares/lvgl/src/extra/widgets/msgbox/../../../../src/core/lv_obj_style_gen.h ****     return (const lv_color_filter_dsc_t *)v.ptr;
 149:Middlewares/lvgl/src/extra/widgets/msgbox/../../../../src/core/lv_obj_style_gen.h **** }
 150:Middlewares/lvgl/src/extra/widgets/msgbox/../../../../src/core/lv_obj_style_gen.h **** 
 151:Middlewares/lvgl/src/extra/widgets/msgbox/../../../../src/core/lv_obj_style_gen.h **** static inline lv_opa_t lv_obj_get_style_color_filter_opa(const struct _lv_obj_t * obj, uint32_t par
 152:Middlewares/lvgl/src/extra/widgets/msgbox/../../../../src/core/lv_obj_style_gen.h **** {
 153:Middlewares/lvgl/src/extra/widgets/msgbox/../../../../src/core/lv_obj_style_gen.h ****     lv_style_value_t v = lv_obj_get_style_prop(obj, part, LV_STYLE_COLOR_FILTER_OPA);
 154:Middlewares/lvgl/src/extra/widgets/msgbox/../../../../src/core/lv_obj_style_gen.h ****     return (lv_opa_t)v.num;
 155:Middlewares/lvgl/src/extra/widgets/msgbox/../../../../src/core/lv_obj_style_gen.h **** }
 156:Middlewares/lvgl/src/extra/widgets/msgbox/../../../../src/core/lv_obj_style_gen.h **** 
 157:Middlewares/lvgl/src/extra/widgets/msgbox/../../../../src/core/lv_obj_style_gen.h **** static inline uint32_t lv_obj_get_style_anim_time(const struct _lv_obj_t * obj, uint32_t part)
 158:Middlewares/lvgl/src/extra/widgets/msgbox/../../../../src/core/lv_obj_style_gen.h **** {
 159:Middlewares/lvgl/src/extra/widgets/msgbox/../../../../src/core/lv_obj_style_gen.h ****     lv_style_value_t v = lv_obj_get_style_prop(obj, part, LV_STYLE_ANIM_TIME);
 160:Middlewares/lvgl/src/extra/widgets/msgbox/../../../../src/core/lv_obj_style_gen.h ****     return (uint32_t)v.num;
 161:Middlewares/lvgl/src/extra/widgets/msgbox/../../../../src/core/lv_obj_style_gen.h **** }
 162:Middlewares/lvgl/src/extra/widgets/msgbox/../../../../src/core/lv_obj_style_gen.h **** 
 163:Middlewares/lvgl/src/extra/widgets/msgbox/../../../../src/core/lv_obj_style_gen.h **** static inline uint32_t lv_obj_get_style_anim_speed(const struct _lv_obj_t * obj, uint32_t part)
 164:Middlewares/lvgl/src/extra/widgets/msgbox/../../../../src/core/lv_obj_style_gen.h **** {
 165:Middlewares/lvgl/src/extra/widgets/msgbox/../../../../src/core/lv_obj_style_gen.h ****     lv_style_value_t v = lv_obj_get_style_prop(obj, part, LV_STYLE_ANIM_SPEED);
 166:Middlewares/lvgl/src/extra/widgets/msgbox/../../../../src/core/lv_obj_style_gen.h ****     return (uint32_t)v.num;
 167:Middlewares/lvgl/src/extra/widgets/msgbox/../../../../src/core/lv_obj_style_gen.h **** }
 168:Middlewares/lvgl/src/extra/widgets/msgbox/../../../../src/core/lv_obj_style_gen.h **** 
 169:Middlewares/lvgl/src/extra/widgets/msgbox/../../../../src/core/lv_obj_style_gen.h **** static inline const lv_style_transition_dsc_t * lv_obj_get_style_transition(const struct _lv_obj_t 
 170:Middlewares/lvgl/src/extra/widgets/msgbox/../../../../src/core/lv_obj_style_gen.h **** {
 171:Middlewares/lvgl/src/extra/widgets/msgbox/../../../../src/core/lv_obj_style_gen.h ****     lv_style_value_t v = lv_obj_get_style_prop(obj, part, LV_STYLE_TRANSITION);
 172:Middlewares/lvgl/src/extra/widgets/msgbox/../../../../src/core/lv_obj_style_gen.h ****     return (const lv_style_transition_dsc_t *)v.ptr;
 173:Middlewares/lvgl/src/extra/widgets/msgbox/../../../../src/core/lv_obj_style_gen.h **** }
 174:Middlewares/lvgl/src/extra/widgets/msgbox/../../../../src/core/lv_obj_style_gen.h **** 
 175:Middlewares/lvgl/src/extra/widgets/msgbox/../../../../src/core/lv_obj_style_gen.h **** static inline lv_blend_mode_t lv_obj_get_style_blend_mode(const struct _lv_obj_t * obj, uint32_t pa
 176:Middlewares/lvgl/src/extra/widgets/msgbox/../../../../src/core/lv_obj_style_gen.h **** {
 177:Middlewares/lvgl/src/extra/widgets/msgbox/../../../../src/core/lv_obj_style_gen.h ****     lv_style_value_t v = lv_obj_get_style_prop(obj, part, LV_STYLE_BLEND_MODE);
 178:Middlewares/lvgl/src/extra/widgets/msgbox/../../../../src/core/lv_obj_style_gen.h ****     return (lv_blend_mode_t)v.num;
 179:Middlewares/lvgl/src/extra/widgets/msgbox/../../../../src/core/lv_obj_style_gen.h **** }
 180:Middlewares/lvgl/src/extra/widgets/msgbox/../../../../src/core/lv_obj_style_gen.h **** 
 181:Middlewares/lvgl/src/extra/widgets/msgbox/../../../../src/core/lv_obj_style_gen.h **** static inline uint16_t lv_obj_get_style_layout(const struct _lv_obj_t * obj, uint32_t part)
 182:Middlewares/lvgl/src/extra/widgets/msgbox/../../../../src/core/lv_obj_style_gen.h **** {
 183:Middlewares/lvgl/src/extra/widgets/msgbox/../../../../src/core/lv_obj_style_gen.h ****     lv_style_value_t v = lv_obj_get_style_prop(obj, part, LV_STYLE_LAYOUT);
 184:Middlewares/lvgl/src/extra/widgets/msgbox/../../../../src/core/lv_obj_style_gen.h ****     return (uint16_t)v.num;
 185:Middlewares/lvgl/src/extra/widgets/msgbox/../../../../src/core/lv_obj_style_gen.h **** }
 186:Middlewares/lvgl/src/extra/widgets/msgbox/../../../../src/core/lv_obj_style_gen.h **** 
 187:Middlewares/lvgl/src/extra/widgets/msgbox/../../../../src/core/lv_obj_style_gen.h **** static inline lv_base_dir_t lv_obj_get_style_base_dir(const struct _lv_obj_t * obj, uint32_t part)
 188:Middlewares/lvgl/src/extra/widgets/msgbox/../../../../src/core/lv_obj_style_gen.h **** {
 189:Middlewares/lvgl/src/extra/widgets/msgbox/../../../../src/core/lv_obj_style_gen.h ****     lv_style_value_t v = lv_obj_get_style_prop(obj, part, LV_STYLE_BASE_DIR);
 190:Middlewares/lvgl/src/extra/widgets/msgbox/../../../../src/core/lv_obj_style_gen.h ****     return (lv_base_dir_t)v.num;
 191:Middlewares/lvgl/src/extra/widgets/msgbox/../../../../src/core/lv_obj_style_gen.h **** }
 192:Middlewares/lvgl/src/extra/widgets/msgbox/../../../../src/core/lv_obj_style_gen.h **** 
 193:Middlewares/lvgl/src/extra/widgets/msgbox/../../../../src/core/lv_obj_style_gen.h **** static inline lv_color_t lv_obj_get_style_bg_color(const struct _lv_obj_t * obj, uint32_t part)
 194:Middlewares/lvgl/src/extra/widgets/msgbox/../../../../src/core/lv_obj_style_gen.h **** {
 195:Middlewares/lvgl/src/extra/widgets/msgbox/../../../../src/core/lv_obj_style_gen.h ****     lv_style_value_t v = lv_obj_get_style_prop(obj, part, LV_STYLE_BG_COLOR);
ARM GAS  /tmp/ccPpOeRU.s 			page 17


 196:Middlewares/lvgl/src/extra/widgets/msgbox/../../../../src/core/lv_obj_style_gen.h ****     return v.color;
 197:Middlewares/lvgl/src/extra/widgets/msgbox/../../../../src/core/lv_obj_style_gen.h **** }
 198:Middlewares/lvgl/src/extra/widgets/msgbox/../../../../src/core/lv_obj_style_gen.h **** 
 199:Middlewares/lvgl/src/extra/widgets/msgbox/../../../../src/core/lv_obj_style_gen.h **** static inline lv_color_t lv_obj_get_style_bg_color_filtered(const struct _lv_obj_t * obj, uint32_t 
 200:Middlewares/lvgl/src/extra/widgets/msgbox/../../../../src/core/lv_obj_style_gen.h **** {
 201:Middlewares/lvgl/src/extra/widgets/msgbox/../../../../src/core/lv_obj_style_gen.h ****     lv_style_value_t v = lv_obj_get_style_prop(obj, part, LV_STYLE_BG_COLOR_FILTERED);
 202:Middlewares/lvgl/src/extra/widgets/msgbox/../../../../src/core/lv_obj_style_gen.h ****     return v.color;
 203:Middlewares/lvgl/src/extra/widgets/msgbox/../../../../src/core/lv_obj_style_gen.h **** }
 204:Middlewares/lvgl/src/extra/widgets/msgbox/../../../../src/core/lv_obj_style_gen.h **** 
 205:Middlewares/lvgl/src/extra/widgets/msgbox/../../../../src/core/lv_obj_style_gen.h **** static inline lv_opa_t lv_obj_get_style_bg_opa(const struct _lv_obj_t * obj, uint32_t part)
 206:Middlewares/lvgl/src/extra/widgets/msgbox/../../../../src/core/lv_obj_style_gen.h **** {
 207:Middlewares/lvgl/src/extra/widgets/msgbox/../../../../src/core/lv_obj_style_gen.h ****     lv_style_value_t v = lv_obj_get_style_prop(obj, part, LV_STYLE_BG_OPA);
 208:Middlewares/lvgl/src/extra/widgets/msgbox/../../../../src/core/lv_obj_style_gen.h ****     return (lv_opa_t)v.num;
 209:Middlewares/lvgl/src/extra/widgets/msgbox/../../../../src/core/lv_obj_style_gen.h **** }
 210:Middlewares/lvgl/src/extra/widgets/msgbox/../../../../src/core/lv_obj_style_gen.h **** 
 211:Middlewares/lvgl/src/extra/widgets/msgbox/../../../../src/core/lv_obj_style_gen.h **** static inline lv_color_t lv_obj_get_style_bg_grad_color(const struct _lv_obj_t * obj, uint32_t part
 212:Middlewares/lvgl/src/extra/widgets/msgbox/../../../../src/core/lv_obj_style_gen.h **** {
 213:Middlewares/lvgl/src/extra/widgets/msgbox/../../../../src/core/lv_obj_style_gen.h ****     lv_style_value_t v = lv_obj_get_style_prop(obj, part, LV_STYLE_BG_GRAD_COLOR);
 214:Middlewares/lvgl/src/extra/widgets/msgbox/../../../../src/core/lv_obj_style_gen.h ****     return v.color;
 215:Middlewares/lvgl/src/extra/widgets/msgbox/../../../../src/core/lv_obj_style_gen.h **** }
 216:Middlewares/lvgl/src/extra/widgets/msgbox/../../../../src/core/lv_obj_style_gen.h **** 
 217:Middlewares/lvgl/src/extra/widgets/msgbox/../../../../src/core/lv_obj_style_gen.h **** static inline lv_color_t lv_obj_get_style_bg_grad_color_filtered(const struct _lv_obj_t * obj, uint
 218:Middlewares/lvgl/src/extra/widgets/msgbox/../../../../src/core/lv_obj_style_gen.h **** {
 219:Middlewares/lvgl/src/extra/widgets/msgbox/../../../../src/core/lv_obj_style_gen.h ****     lv_style_value_t v = lv_obj_get_style_prop(obj, part, LV_STYLE_BG_GRAD_COLOR_FILTERED);
 220:Middlewares/lvgl/src/extra/widgets/msgbox/../../../../src/core/lv_obj_style_gen.h ****     return v.color;
 221:Middlewares/lvgl/src/extra/widgets/msgbox/../../../../src/core/lv_obj_style_gen.h **** }
 222:Middlewares/lvgl/src/extra/widgets/msgbox/../../../../src/core/lv_obj_style_gen.h **** 
 223:Middlewares/lvgl/src/extra/widgets/msgbox/../../../../src/core/lv_obj_style_gen.h **** static inline lv_grad_dir_t lv_obj_get_style_bg_grad_dir(const struct _lv_obj_t * obj, uint32_t par
 224:Middlewares/lvgl/src/extra/widgets/msgbox/../../../../src/core/lv_obj_style_gen.h **** {
 225:Middlewares/lvgl/src/extra/widgets/msgbox/../../../../src/core/lv_obj_style_gen.h ****     lv_style_value_t v = lv_obj_get_style_prop(obj, part, LV_STYLE_BG_GRAD_DIR);
 226:Middlewares/lvgl/src/extra/widgets/msgbox/../../../../src/core/lv_obj_style_gen.h ****     return (lv_grad_dir_t)v.num;
 227:Middlewares/lvgl/src/extra/widgets/msgbox/../../../../src/core/lv_obj_style_gen.h **** }
 228:Middlewares/lvgl/src/extra/widgets/msgbox/../../../../src/core/lv_obj_style_gen.h **** 
 229:Middlewares/lvgl/src/extra/widgets/msgbox/../../../../src/core/lv_obj_style_gen.h **** static inline lv_coord_t lv_obj_get_style_bg_main_stop(const struct _lv_obj_t * obj, uint32_t part)
 230:Middlewares/lvgl/src/extra/widgets/msgbox/../../../../src/core/lv_obj_style_gen.h **** {
 231:Middlewares/lvgl/src/extra/widgets/msgbox/../../../../src/core/lv_obj_style_gen.h ****     lv_style_value_t v = lv_obj_get_style_prop(obj, part, LV_STYLE_BG_MAIN_STOP);
 232:Middlewares/lvgl/src/extra/widgets/msgbox/../../../../src/core/lv_obj_style_gen.h ****     return (lv_coord_t)v.num;
 233:Middlewares/lvgl/src/extra/widgets/msgbox/../../../../src/core/lv_obj_style_gen.h **** }
 234:Middlewares/lvgl/src/extra/widgets/msgbox/../../../../src/core/lv_obj_style_gen.h **** 
 235:Middlewares/lvgl/src/extra/widgets/msgbox/../../../../src/core/lv_obj_style_gen.h **** static inline lv_coord_t lv_obj_get_style_bg_grad_stop(const struct _lv_obj_t * obj, uint32_t part)
 236:Middlewares/lvgl/src/extra/widgets/msgbox/../../../../src/core/lv_obj_style_gen.h **** {
 237:Middlewares/lvgl/src/extra/widgets/msgbox/../../../../src/core/lv_obj_style_gen.h ****     lv_style_value_t v = lv_obj_get_style_prop(obj, part, LV_STYLE_BG_GRAD_STOP);
 238:Middlewares/lvgl/src/extra/widgets/msgbox/../../../../src/core/lv_obj_style_gen.h ****     return (lv_coord_t)v.num;
 239:Middlewares/lvgl/src/extra/widgets/msgbox/../../../../src/core/lv_obj_style_gen.h **** }
 240:Middlewares/lvgl/src/extra/widgets/msgbox/../../../../src/core/lv_obj_style_gen.h **** 
 241:Middlewares/lvgl/src/extra/widgets/msgbox/../../../../src/core/lv_obj_style_gen.h **** static inline const void * lv_obj_get_style_bg_img_src(const struct _lv_obj_t * obj, uint32_t part)
 242:Middlewares/lvgl/src/extra/widgets/msgbox/../../../../src/core/lv_obj_style_gen.h **** {
 243:Middlewares/lvgl/src/extra/widgets/msgbox/../../../../src/core/lv_obj_style_gen.h ****     lv_style_value_t v = lv_obj_get_style_prop(obj, part, LV_STYLE_BG_IMG_SRC);
 244:Middlewares/lvgl/src/extra/widgets/msgbox/../../../../src/core/lv_obj_style_gen.h ****     return (const void *)v.ptr;
 245:Middlewares/lvgl/src/extra/widgets/msgbox/../../../../src/core/lv_obj_style_gen.h **** }
 246:Middlewares/lvgl/src/extra/widgets/msgbox/../../../../src/core/lv_obj_style_gen.h **** 
 247:Middlewares/lvgl/src/extra/widgets/msgbox/../../../../src/core/lv_obj_style_gen.h **** static inline lv_opa_t lv_obj_get_style_bg_img_opa(const struct _lv_obj_t * obj, uint32_t part)
 248:Middlewares/lvgl/src/extra/widgets/msgbox/../../../../src/core/lv_obj_style_gen.h **** {
 249:Middlewares/lvgl/src/extra/widgets/msgbox/../../../../src/core/lv_obj_style_gen.h ****     lv_style_value_t v = lv_obj_get_style_prop(obj, part, LV_STYLE_BG_IMG_OPA);
 250:Middlewares/lvgl/src/extra/widgets/msgbox/../../../../src/core/lv_obj_style_gen.h ****     return (lv_opa_t)v.num;
 251:Middlewares/lvgl/src/extra/widgets/msgbox/../../../../src/core/lv_obj_style_gen.h **** }
 252:Middlewares/lvgl/src/extra/widgets/msgbox/../../../../src/core/lv_obj_style_gen.h **** 
ARM GAS  /tmp/ccPpOeRU.s 			page 18


 253:Middlewares/lvgl/src/extra/widgets/msgbox/../../../../src/core/lv_obj_style_gen.h **** static inline lv_color_t lv_obj_get_style_bg_img_recolor(const struct _lv_obj_t * obj, uint32_t par
 254:Middlewares/lvgl/src/extra/widgets/msgbox/../../../../src/core/lv_obj_style_gen.h **** {
 255:Middlewares/lvgl/src/extra/widgets/msgbox/../../../../src/core/lv_obj_style_gen.h ****     lv_style_value_t v = lv_obj_get_style_prop(obj, part, LV_STYLE_BG_IMG_RECOLOR);
 256:Middlewares/lvgl/src/extra/widgets/msgbox/../../../../src/core/lv_obj_style_gen.h ****     return v.color;
 257:Middlewares/lvgl/src/extra/widgets/msgbox/../../../../src/core/lv_obj_style_gen.h **** }
 258:Middlewares/lvgl/src/extra/widgets/msgbox/../../../../src/core/lv_obj_style_gen.h **** 
 259:Middlewares/lvgl/src/extra/widgets/msgbox/../../../../src/core/lv_obj_style_gen.h **** static inline lv_color_t lv_obj_get_style_bg_img_recolor_filtered(const struct _lv_obj_t * obj, uin
 260:Middlewares/lvgl/src/extra/widgets/msgbox/../../../../src/core/lv_obj_style_gen.h **** {
 261:Middlewares/lvgl/src/extra/widgets/msgbox/../../../../src/core/lv_obj_style_gen.h ****     lv_style_value_t v = lv_obj_get_style_prop(obj, part, LV_STYLE_BG_IMG_RECOLOR_FILTERED);
 262:Middlewares/lvgl/src/extra/widgets/msgbox/../../../../src/core/lv_obj_style_gen.h ****     return v.color;
 263:Middlewares/lvgl/src/extra/widgets/msgbox/../../../../src/core/lv_obj_style_gen.h **** }
 264:Middlewares/lvgl/src/extra/widgets/msgbox/../../../../src/core/lv_obj_style_gen.h **** 
 265:Middlewares/lvgl/src/extra/widgets/msgbox/../../../../src/core/lv_obj_style_gen.h **** static inline lv_opa_t lv_obj_get_style_bg_img_recolor_opa(const struct _lv_obj_t * obj, uint32_t p
 266:Middlewares/lvgl/src/extra/widgets/msgbox/../../../../src/core/lv_obj_style_gen.h **** {
 267:Middlewares/lvgl/src/extra/widgets/msgbox/../../../../src/core/lv_obj_style_gen.h ****     lv_style_value_t v = lv_obj_get_style_prop(obj, part, LV_STYLE_BG_IMG_RECOLOR_OPA);
 268:Middlewares/lvgl/src/extra/widgets/msgbox/../../../../src/core/lv_obj_style_gen.h ****     return (lv_opa_t)v.num;
 269:Middlewares/lvgl/src/extra/widgets/msgbox/../../../../src/core/lv_obj_style_gen.h **** }
 270:Middlewares/lvgl/src/extra/widgets/msgbox/../../../../src/core/lv_obj_style_gen.h **** 
 271:Middlewares/lvgl/src/extra/widgets/msgbox/../../../../src/core/lv_obj_style_gen.h **** static inline bool lv_obj_get_style_bg_img_tiled(const struct _lv_obj_t * obj, uint32_t part)
 272:Middlewares/lvgl/src/extra/widgets/msgbox/../../../../src/core/lv_obj_style_gen.h **** {
 273:Middlewares/lvgl/src/extra/widgets/msgbox/../../../../src/core/lv_obj_style_gen.h ****     lv_style_value_t v = lv_obj_get_style_prop(obj, part, LV_STYLE_BG_IMG_TILED);
 274:Middlewares/lvgl/src/extra/widgets/msgbox/../../../../src/core/lv_obj_style_gen.h ****     return (bool)v.num;
 275:Middlewares/lvgl/src/extra/widgets/msgbox/../../../../src/core/lv_obj_style_gen.h **** }
 276:Middlewares/lvgl/src/extra/widgets/msgbox/../../../../src/core/lv_obj_style_gen.h **** 
 277:Middlewares/lvgl/src/extra/widgets/msgbox/../../../../src/core/lv_obj_style_gen.h **** static inline lv_color_t lv_obj_get_style_border_color(const struct _lv_obj_t * obj, uint32_t part)
 278:Middlewares/lvgl/src/extra/widgets/msgbox/../../../../src/core/lv_obj_style_gen.h **** {
 279:Middlewares/lvgl/src/extra/widgets/msgbox/../../../../src/core/lv_obj_style_gen.h ****     lv_style_value_t v = lv_obj_get_style_prop(obj, part, LV_STYLE_BORDER_COLOR);
 280:Middlewares/lvgl/src/extra/widgets/msgbox/../../../../src/core/lv_obj_style_gen.h ****     return v.color;
 281:Middlewares/lvgl/src/extra/widgets/msgbox/../../../../src/core/lv_obj_style_gen.h **** }
 282:Middlewares/lvgl/src/extra/widgets/msgbox/../../../../src/core/lv_obj_style_gen.h **** 
 283:Middlewares/lvgl/src/extra/widgets/msgbox/../../../../src/core/lv_obj_style_gen.h **** static inline lv_color_t lv_obj_get_style_border_color_filtered(const struct _lv_obj_t * obj, uint3
 284:Middlewares/lvgl/src/extra/widgets/msgbox/../../../../src/core/lv_obj_style_gen.h **** {
 285:Middlewares/lvgl/src/extra/widgets/msgbox/../../../../src/core/lv_obj_style_gen.h ****     lv_style_value_t v = lv_obj_get_style_prop(obj, part, LV_STYLE_BORDER_COLOR_FILTERED);
 286:Middlewares/lvgl/src/extra/widgets/msgbox/../../../../src/core/lv_obj_style_gen.h ****     return v.color;
 287:Middlewares/lvgl/src/extra/widgets/msgbox/../../../../src/core/lv_obj_style_gen.h **** }
 288:Middlewares/lvgl/src/extra/widgets/msgbox/../../../../src/core/lv_obj_style_gen.h **** 
 289:Middlewares/lvgl/src/extra/widgets/msgbox/../../../../src/core/lv_obj_style_gen.h **** static inline lv_opa_t lv_obj_get_style_border_opa(const struct _lv_obj_t * obj, uint32_t part)
 290:Middlewares/lvgl/src/extra/widgets/msgbox/../../../../src/core/lv_obj_style_gen.h **** {
 291:Middlewares/lvgl/src/extra/widgets/msgbox/../../../../src/core/lv_obj_style_gen.h ****     lv_style_value_t v = lv_obj_get_style_prop(obj, part, LV_STYLE_BORDER_OPA);
 292:Middlewares/lvgl/src/extra/widgets/msgbox/../../../../src/core/lv_obj_style_gen.h ****     return (lv_opa_t)v.num;
 293:Middlewares/lvgl/src/extra/widgets/msgbox/../../../../src/core/lv_obj_style_gen.h **** }
 294:Middlewares/lvgl/src/extra/widgets/msgbox/../../../../src/core/lv_obj_style_gen.h **** 
 295:Middlewares/lvgl/src/extra/widgets/msgbox/../../../../src/core/lv_obj_style_gen.h **** static inline lv_coord_t lv_obj_get_style_border_width(const struct _lv_obj_t * obj, uint32_t part)
 296:Middlewares/lvgl/src/extra/widgets/msgbox/../../../../src/core/lv_obj_style_gen.h **** {
 297:Middlewares/lvgl/src/extra/widgets/msgbox/../../../../src/core/lv_obj_style_gen.h ****     lv_style_value_t v = lv_obj_get_style_prop(obj, part, LV_STYLE_BORDER_WIDTH);
 298:Middlewares/lvgl/src/extra/widgets/msgbox/../../../../src/core/lv_obj_style_gen.h ****     return (lv_coord_t)v.num;
 299:Middlewares/lvgl/src/extra/widgets/msgbox/../../../../src/core/lv_obj_style_gen.h **** }
 300:Middlewares/lvgl/src/extra/widgets/msgbox/../../../../src/core/lv_obj_style_gen.h **** 
 301:Middlewares/lvgl/src/extra/widgets/msgbox/../../../../src/core/lv_obj_style_gen.h **** static inline lv_border_side_t lv_obj_get_style_border_side(const struct _lv_obj_t * obj, uint32_t 
 302:Middlewares/lvgl/src/extra/widgets/msgbox/../../../../src/core/lv_obj_style_gen.h **** {
 303:Middlewares/lvgl/src/extra/widgets/msgbox/../../../../src/core/lv_obj_style_gen.h ****     lv_style_value_t v = lv_obj_get_style_prop(obj, part, LV_STYLE_BORDER_SIDE);
 304:Middlewares/lvgl/src/extra/widgets/msgbox/../../../../src/core/lv_obj_style_gen.h ****     return (lv_border_side_t)v.num;
 305:Middlewares/lvgl/src/extra/widgets/msgbox/../../../../src/core/lv_obj_style_gen.h **** }
 306:Middlewares/lvgl/src/extra/widgets/msgbox/../../../../src/core/lv_obj_style_gen.h **** 
 307:Middlewares/lvgl/src/extra/widgets/msgbox/../../../../src/core/lv_obj_style_gen.h **** static inline bool lv_obj_get_style_border_post(const struct _lv_obj_t * obj, uint32_t part)
 308:Middlewares/lvgl/src/extra/widgets/msgbox/../../../../src/core/lv_obj_style_gen.h **** {
 309:Middlewares/lvgl/src/extra/widgets/msgbox/../../../../src/core/lv_obj_style_gen.h ****     lv_style_value_t v = lv_obj_get_style_prop(obj, part, LV_STYLE_BORDER_POST);
ARM GAS  /tmp/ccPpOeRU.s 			page 19


 310:Middlewares/lvgl/src/extra/widgets/msgbox/../../../../src/core/lv_obj_style_gen.h ****     return (bool)v.num;
 311:Middlewares/lvgl/src/extra/widgets/msgbox/../../../../src/core/lv_obj_style_gen.h **** }
 312:Middlewares/lvgl/src/extra/widgets/msgbox/../../../../src/core/lv_obj_style_gen.h **** 
 313:Middlewares/lvgl/src/extra/widgets/msgbox/../../../../src/core/lv_obj_style_gen.h **** static inline lv_color_t lv_obj_get_style_text_color(const struct _lv_obj_t * obj, uint32_t part)
 314:Middlewares/lvgl/src/extra/widgets/msgbox/../../../../src/core/lv_obj_style_gen.h **** {
 315:Middlewares/lvgl/src/extra/widgets/msgbox/../../../../src/core/lv_obj_style_gen.h ****     lv_style_value_t v = lv_obj_get_style_prop(obj, part, LV_STYLE_TEXT_COLOR);
 316:Middlewares/lvgl/src/extra/widgets/msgbox/../../../../src/core/lv_obj_style_gen.h ****     return v.color;
 317:Middlewares/lvgl/src/extra/widgets/msgbox/../../../../src/core/lv_obj_style_gen.h **** }
 318:Middlewares/lvgl/src/extra/widgets/msgbox/../../../../src/core/lv_obj_style_gen.h **** 
 319:Middlewares/lvgl/src/extra/widgets/msgbox/../../../../src/core/lv_obj_style_gen.h **** static inline lv_color_t lv_obj_get_style_text_color_filtered(const struct _lv_obj_t * obj, uint32_
 320:Middlewares/lvgl/src/extra/widgets/msgbox/../../../../src/core/lv_obj_style_gen.h **** {
 321:Middlewares/lvgl/src/extra/widgets/msgbox/../../../../src/core/lv_obj_style_gen.h ****     lv_style_value_t v = lv_obj_get_style_prop(obj, part, LV_STYLE_TEXT_COLOR_FILTERED);
 322:Middlewares/lvgl/src/extra/widgets/msgbox/../../../../src/core/lv_obj_style_gen.h ****     return v.color;
 323:Middlewares/lvgl/src/extra/widgets/msgbox/../../../../src/core/lv_obj_style_gen.h **** }
 324:Middlewares/lvgl/src/extra/widgets/msgbox/../../../../src/core/lv_obj_style_gen.h **** 
 325:Middlewares/lvgl/src/extra/widgets/msgbox/../../../../src/core/lv_obj_style_gen.h **** static inline lv_opa_t lv_obj_get_style_text_opa(const struct _lv_obj_t * obj, uint32_t part)
 326:Middlewares/lvgl/src/extra/widgets/msgbox/../../../../src/core/lv_obj_style_gen.h **** {
 327:Middlewares/lvgl/src/extra/widgets/msgbox/../../../../src/core/lv_obj_style_gen.h ****     lv_style_value_t v = lv_obj_get_style_prop(obj, part, LV_STYLE_TEXT_OPA);
 328:Middlewares/lvgl/src/extra/widgets/msgbox/../../../../src/core/lv_obj_style_gen.h ****     return (lv_opa_t)v.num;
 329:Middlewares/lvgl/src/extra/widgets/msgbox/../../../../src/core/lv_obj_style_gen.h **** }
 330:Middlewares/lvgl/src/extra/widgets/msgbox/../../../../src/core/lv_obj_style_gen.h **** 
 331:Middlewares/lvgl/src/extra/widgets/msgbox/../../../../src/core/lv_obj_style_gen.h **** static inline const lv_font_t * lv_obj_get_style_text_font(const struct _lv_obj_t * obj, uint32_t p
 327              		.loc 4 331 33 discriminator 4 view .LVU79
 328              	.LBB39:
 332:Middlewares/lvgl/src/extra/widgets/msgbox/../../../../src/core/lv_obj_style_gen.h **** {
 333:Middlewares/lvgl/src/extra/widgets/msgbox/../../../../src/core/lv_obj_style_gen.h ****     lv_style_value_t v = lv_obj_get_style_prop(obj, part, LV_STYLE_TEXT_FONT);
 329              		.loc 4 333 5 discriminator 4 view .LVU80
 330              		.loc 4 333 26 is_stmt 0 discriminator 4 view .LVU81
 331 015e 41F25942 		movw	r2, #5209
 332 0162 0021     		movs	r1, #0
 333 0164 4046     		mov	r0, r8
 334 0166 FFF7FEFF 		bl	lv_obj_get_style_prop
 335              	.LVL49:
 334:Middlewares/lvgl/src/extra/widgets/msgbox/../../../../src/core/lv_obj_style_gen.h ****     return (const lv_font_t *)v.ptr;
 336              		.loc 4 334 5 is_stmt 1 discriminator 4 view .LVU82
 337              		.loc 4 334 5 is_stmt 0 discriminator 4 view .LVU83
 338              	.LBE39:
 339              	.LBE38:
  79:Middlewares/lvgl/src/extra/widgets/msgbox/lv_msgbox.c ****         lv_obj_set_size(close_btn, close_btn_size, close_btn_size);
 340              		.loc 1 79 9 is_stmt 1 discriminator 4 view .LVU84
 341              	.LBB40:
 342              	.LBI40:
 343              		.file 5 "Middlewares/lvgl/src/extra/widgets/msgbox/../../../../src/core/../misc/../font/lv_font.h"
   1:Middlewares/lvgl/src/extra/widgets/msgbox/../../../../src/core/../misc/../font/lv_font.h **** /**
   2:Middlewares/lvgl/src/extra/widgets/msgbox/../../../../src/core/../misc/../font/lv_font.h ****  * @file lv_font.h
   3:Middlewares/lvgl/src/extra/widgets/msgbox/../../../../src/core/../misc/../font/lv_font.h ****  *
   4:Middlewares/lvgl/src/extra/widgets/msgbox/../../../../src/core/../misc/../font/lv_font.h ****  */
   5:Middlewares/lvgl/src/extra/widgets/msgbox/../../../../src/core/../misc/../font/lv_font.h **** 
   6:Middlewares/lvgl/src/extra/widgets/msgbox/../../../../src/core/../misc/../font/lv_font.h **** #ifndef LV_FONT_H
   7:Middlewares/lvgl/src/extra/widgets/msgbox/../../../../src/core/../misc/../font/lv_font.h **** #define LV_FONT_H
   8:Middlewares/lvgl/src/extra/widgets/msgbox/../../../../src/core/../misc/../font/lv_font.h **** 
   9:Middlewares/lvgl/src/extra/widgets/msgbox/../../../../src/core/../misc/../font/lv_font.h **** #ifdef __cplusplus
  10:Middlewares/lvgl/src/extra/widgets/msgbox/../../../../src/core/../misc/../font/lv_font.h **** extern "C" {
  11:Middlewares/lvgl/src/extra/widgets/msgbox/../../../../src/core/../misc/../font/lv_font.h **** #endif
  12:Middlewares/lvgl/src/extra/widgets/msgbox/../../../../src/core/../misc/../font/lv_font.h **** 
  13:Middlewares/lvgl/src/extra/widgets/msgbox/../../../../src/core/../misc/../font/lv_font.h **** /*********************
  14:Middlewares/lvgl/src/extra/widgets/msgbox/../../../../src/core/../misc/../font/lv_font.h ****  *      INCLUDES
ARM GAS  /tmp/ccPpOeRU.s 			page 20


  15:Middlewares/lvgl/src/extra/widgets/msgbox/../../../../src/core/../misc/../font/lv_font.h ****  *********************/
  16:Middlewares/lvgl/src/extra/widgets/msgbox/../../../../src/core/../misc/../font/lv_font.h **** #include "../lv_conf_internal.h"
  17:Middlewares/lvgl/src/extra/widgets/msgbox/../../../../src/core/../misc/../font/lv_font.h **** #include <stdint.h>
  18:Middlewares/lvgl/src/extra/widgets/msgbox/../../../../src/core/../misc/../font/lv_font.h **** #include <stddef.h>
  19:Middlewares/lvgl/src/extra/widgets/msgbox/../../../../src/core/../misc/../font/lv_font.h **** #include <stdbool.h>
  20:Middlewares/lvgl/src/extra/widgets/msgbox/../../../../src/core/../misc/../font/lv_font.h **** 
  21:Middlewares/lvgl/src/extra/widgets/msgbox/../../../../src/core/../misc/../font/lv_font.h **** #include "lv_symbol_def.h"
  22:Middlewares/lvgl/src/extra/widgets/msgbox/../../../../src/core/../misc/../font/lv_font.h **** #include "../misc/lv_area.h"
  23:Middlewares/lvgl/src/extra/widgets/msgbox/../../../../src/core/../misc/../font/lv_font.h **** 
  24:Middlewares/lvgl/src/extra/widgets/msgbox/../../../../src/core/../misc/../font/lv_font.h **** /*********************
  25:Middlewares/lvgl/src/extra/widgets/msgbox/../../../../src/core/../misc/../font/lv_font.h ****  *      DEFINES
  26:Middlewares/lvgl/src/extra/widgets/msgbox/../../../../src/core/../misc/../font/lv_font.h ****  *********************/
  27:Middlewares/lvgl/src/extra/widgets/msgbox/../../../../src/core/../misc/../font/lv_font.h **** 
  28:Middlewares/lvgl/src/extra/widgets/msgbox/../../../../src/core/../misc/../font/lv_font.h **** /**********************
  29:Middlewares/lvgl/src/extra/widgets/msgbox/../../../../src/core/../misc/../font/lv_font.h ****  *      TYPEDEFS
  30:Middlewares/lvgl/src/extra/widgets/msgbox/../../../../src/core/../misc/../font/lv_font.h ****  **********************/
  31:Middlewares/lvgl/src/extra/widgets/msgbox/../../../../src/core/../misc/../font/lv_font.h **** 
  32:Middlewares/lvgl/src/extra/widgets/msgbox/../../../../src/core/../misc/../font/lv_font.h **** /*------------------
  33:Middlewares/lvgl/src/extra/widgets/msgbox/../../../../src/core/../misc/../font/lv_font.h ****  * General types
  34:Middlewares/lvgl/src/extra/widgets/msgbox/../../../../src/core/../misc/../font/lv_font.h ****  *-----------------*/
  35:Middlewares/lvgl/src/extra/widgets/msgbox/../../../../src/core/../misc/../font/lv_font.h **** 
  36:Middlewares/lvgl/src/extra/widgets/msgbox/../../../../src/core/../misc/../font/lv_font.h **** /** Describes the properties of a glyph.*/
  37:Middlewares/lvgl/src/extra/widgets/msgbox/../../../../src/core/../misc/../font/lv_font.h **** typedef struct {
  38:Middlewares/lvgl/src/extra/widgets/msgbox/../../../../src/core/../misc/../font/lv_font.h ****     uint16_t adv_w; /**< The glyph needs this space. Draw the next glyph after this width.*/
  39:Middlewares/lvgl/src/extra/widgets/msgbox/../../../../src/core/../misc/../font/lv_font.h ****     uint16_t box_w;  /**< Width of the glyph's bounding box*/
  40:Middlewares/lvgl/src/extra/widgets/msgbox/../../../../src/core/../misc/../font/lv_font.h ****     uint16_t box_h;  /**< Height of the glyph's bounding box*/
  41:Middlewares/lvgl/src/extra/widgets/msgbox/../../../../src/core/../misc/../font/lv_font.h ****     int16_t ofs_x;   /**< x offset of the bounding box*/
  42:Middlewares/lvgl/src/extra/widgets/msgbox/../../../../src/core/../misc/../font/lv_font.h ****     int16_t ofs_y;  /**< y offset of the bounding box*/
  43:Middlewares/lvgl/src/extra/widgets/msgbox/../../../../src/core/../misc/../font/lv_font.h ****     uint8_t bpp;   /**< Bit-per-pixel: 1, 2, 4, 8*/
  44:Middlewares/lvgl/src/extra/widgets/msgbox/../../../../src/core/../misc/../font/lv_font.h **** } lv_font_glyph_dsc_t;
  45:Middlewares/lvgl/src/extra/widgets/msgbox/../../../../src/core/../misc/../font/lv_font.h **** 
  46:Middlewares/lvgl/src/extra/widgets/msgbox/../../../../src/core/../misc/../font/lv_font.h **** /** The bitmaps might be upscaled by 3 to achieve subpixel rendering.*/
  47:Middlewares/lvgl/src/extra/widgets/msgbox/../../../../src/core/../misc/../font/lv_font.h **** enum {
  48:Middlewares/lvgl/src/extra/widgets/msgbox/../../../../src/core/../misc/../font/lv_font.h ****     LV_FONT_SUBPX_NONE,
  49:Middlewares/lvgl/src/extra/widgets/msgbox/../../../../src/core/../misc/../font/lv_font.h ****     LV_FONT_SUBPX_HOR,
  50:Middlewares/lvgl/src/extra/widgets/msgbox/../../../../src/core/../misc/../font/lv_font.h ****     LV_FONT_SUBPX_VER,
  51:Middlewares/lvgl/src/extra/widgets/msgbox/../../../../src/core/../misc/../font/lv_font.h ****     LV_FONT_SUBPX_BOTH,
  52:Middlewares/lvgl/src/extra/widgets/msgbox/../../../../src/core/../misc/../font/lv_font.h **** };
  53:Middlewares/lvgl/src/extra/widgets/msgbox/../../../../src/core/../misc/../font/lv_font.h **** 
  54:Middlewares/lvgl/src/extra/widgets/msgbox/../../../../src/core/../misc/../font/lv_font.h **** typedef uint8_t lv_font_subpx_t;
  55:Middlewares/lvgl/src/extra/widgets/msgbox/../../../../src/core/../misc/../font/lv_font.h **** 
  56:Middlewares/lvgl/src/extra/widgets/msgbox/../../../../src/core/../misc/../font/lv_font.h **** struct _lv_font_t;
  57:Middlewares/lvgl/src/extra/widgets/msgbox/../../../../src/core/../misc/../font/lv_font.h **** 
  58:Middlewares/lvgl/src/extra/widgets/msgbox/../../../../src/core/../misc/../font/lv_font.h **** /** Describe the properties of a font*/
  59:Middlewares/lvgl/src/extra/widgets/msgbox/../../../../src/core/../misc/../font/lv_font.h **** typedef struct _lv_font_t {
  60:Middlewares/lvgl/src/extra/widgets/msgbox/../../../../src/core/../misc/../font/lv_font.h ****     /** Get a glyph's descriptor from a font*/
  61:Middlewares/lvgl/src/extra/widgets/msgbox/../../../../src/core/../misc/../font/lv_font.h ****     bool (*get_glyph_dsc)(const struct _lv_font_t *, lv_font_glyph_dsc_t *, uint32_t letter, uint32
  62:Middlewares/lvgl/src/extra/widgets/msgbox/../../../../src/core/../misc/../font/lv_font.h **** 
  63:Middlewares/lvgl/src/extra/widgets/msgbox/../../../../src/core/../misc/../font/lv_font.h ****     /** Get a glyph's bitmap from a font*/
  64:Middlewares/lvgl/src/extra/widgets/msgbox/../../../../src/core/../misc/../font/lv_font.h ****     const uint8_t * (*get_glyph_bitmap)(const struct _lv_font_t *, uint32_t);
  65:Middlewares/lvgl/src/extra/widgets/msgbox/../../../../src/core/../misc/../font/lv_font.h **** 
  66:Middlewares/lvgl/src/extra/widgets/msgbox/../../../../src/core/../misc/../font/lv_font.h ****     /*Pointer to the font in a font pack (must have the same line height)*/
  67:Middlewares/lvgl/src/extra/widgets/msgbox/../../../../src/core/../misc/../font/lv_font.h ****     lv_coord_t line_height;         /**< The real line height where any text fits*/
  68:Middlewares/lvgl/src/extra/widgets/msgbox/../../../../src/core/../misc/../font/lv_font.h ****     lv_coord_t base_line;           /**< Base line measured from the top of the line_height*/
  69:Middlewares/lvgl/src/extra/widgets/msgbox/../../../../src/core/../misc/../font/lv_font.h ****     uint8_t subpx  : 2;             /**< An element of `lv_font_subpx_t`*/
  70:Middlewares/lvgl/src/extra/widgets/msgbox/../../../../src/core/../misc/../font/lv_font.h **** 
  71:Middlewares/lvgl/src/extra/widgets/msgbox/../../../../src/core/../misc/../font/lv_font.h ****     int8_t underline_position;      /**< Distance between the top of the underline and base line (<
ARM GAS  /tmp/ccPpOeRU.s 			page 21


  72:Middlewares/lvgl/src/extra/widgets/msgbox/../../../../src/core/../misc/../font/lv_font.h ****     int8_t underline_thickness;     /**< Thickness of the underline*/
  73:Middlewares/lvgl/src/extra/widgets/msgbox/../../../../src/core/../misc/../font/lv_font.h **** 
  74:Middlewares/lvgl/src/extra/widgets/msgbox/../../../../src/core/../misc/../font/lv_font.h ****     const void * dsc;                     /**< Store implementation specific or run_time data or ca
  75:Middlewares/lvgl/src/extra/widgets/msgbox/../../../../src/core/../misc/../font/lv_font.h **** #if LV_USE_USER_DATA
  76:Middlewares/lvgl/src/extra/widgets/msgbox/../../../../src/core/../misc/../font/lv_font.h ****     void * user_data;               /**< Custom user data for font.*/
  77:Middlewares/lvgl/src/extra/widgets/msgbox/../../../../src/core/../misc/../font/lv_font.h **** #endif
  78:Middlewares/lvgl/src/extra/widgets/msgbox/../../../../src/core/../misc/../font/lv_font.h **** 
  79:Middlewares/lvgl/src/extra/widgets/msgbox/../../../../src/core/../misc/../font/lv_font.h **** } lv_font_t;
  80:Middlewares/lvgl/src/extra/widgets/msgbox/../../../../src/core/../misc/../font/lv_font.h **** 
  81:Middlewares/lvgl/src/extra/widgets/msgbox/../../../../src/core/../misc/../font/lv_font.h **** /**********************
  82:Middlewares/lvgl/src/extra/widgets/msgbox/../../../../src/core/../misc/../font/lv_font.h ****  * GLOBAL PROTOTYPES
  83:Middlewares/lvgl/src/extra/widgets/msgbox/../../../../src/core/../misc/../font/lv_font.h ****  **********************/
  84:Middlewares/lvgl/src/extra/widgets/msgbox/../../../../src/core/../misc/../font/lv_font.h **** 
  85:Middlewares/lvgl/src/extra/widgets/msgbox/../../../../src/core/../misc/../font/lv_font.h **** /**
  86:Middlewares/lvgl/src/extra/widgets/msgbox/../../../../src/core/../misc/../font/lv_font.h ****  * Return with the bitmap of a font.
  87:Middlewares/lvgl/src/extra/widgets/msgbox/../../../../src/core/../misc/../font/lv_font.h ****  * @param font_p pointer to a font
  88:Middlewares/lvgl/src/extra/widgets/msgbox/../../../../src/core/../misc/../font/lv_font.h ****  * @param letter an UNICODE character code
  89:Middlewares/lvgl/src/extra/widgets/msgbox/../../../../src/core/../misc/../font/lv_font.h ****  * @return pointer to the bitmap of the letter
  90:Middlewares/lvgl/src/extra/widgets/msgbox/../../../../src/core/../misc/../font/lv_font.h ****  */
  91:Middlewares/lvgl/src/extra/widgets/msgbox/../../../../src/core/../misc/../font/lv_font.h **** const uint8_t * lv_font_get_glyph_bitmap(const lv_font_t * font_p, uint32_t letter);
  92:Middlewares/lvgl/src/extra/widgets/msgbox/../../../../src/core/../misc/../font/lv_font.h **** 
  93:Middlewares/lvgl/src/extra/widgets/msgbox/../../../../src/core/../misc/../font/lv_font.h **** /**
  94:Middlewares/lvgl/src/extra/widgets/msgbox/../../../../src/core/../misc/../font/lv_font.h ****  * Get the descriptor of a glyph
  95:Middlewares/lvgl/src/extra/widgets/msgbox/../../../../src/core/../misc/../font/lv_font.h ****  * @param font_p pointer to font
  96:Middlewares/lvgl/src/extra/widgets/msgbox/../../../../src/core/../misc/../font/lv_font.h ****  * @param dsc_out store the result descriptor here
  97:Middlewares/lvgl/src/extra/widgets/msgbox/../../../../src/core/../misc/../font/lv_font.h ****  * @param letter an UNICODE letter code
  98:Middlewares/lvgl/src/extra/widgets/msgbox/../../../../src/core/../misc/../font/lv_font.h ****  * @return true: descriptor is successfully loaded into `dsc_out`.
  99:Middlewares/lvgl/src/extra/widgets/msgbox/../../../../src/core/../misc/../font/lv_font.h ****  *         false: the letter was not found, no data is loaded to `dsc_out`
 100:Middlewares/lvgl/src/extra/widgets/msgbox/../../../../src/core/../misc/../font/lv_font.h ****  */
 101:Middlewares/lvgl/src/extra/widgets/msgbox/../../../../src/core/../misc/../font/lv_font.h **** bool lv_font_get_glyph_dsc(const lv_font_t * font_p, lv_font_glyph_dsc_t * dsc_out, uint32_t letter
 102:Middlewares/lvgl/src/extra/widgets/msgbox/../../../../src/core/../misc/../font/lv_font.h ****                            uint32_t letter_next);
 103:Middlewares/lvgl/src/extra/widgets/msgbox/../../../../src/core/../misc/../font/lv_font.h **** 
 104:Middlewares/lvgl/src/extra/widgets/msgbox/../../../../src/core/../misc/../font/lv_font.h **** /**
 105:Middlewares/lvgl/src/extra/widgets/msgbox/../../../../src/core/../misc/../font/lv_font.h ****  * Get the width of a glyph with kerning
 106:Middlewares/lvgl/src/extra/widgets/msgbox/../../../../src/core/../misc/../font/lv_font.h ****  * @param font pointer to a font
 107:Middlewares/lvgl/src/extra/widgets/msgbox/../../../../src/core/../misc/../font/lv_font.h ****  * @param letter an UNICODE letter
 108:Middlewares/lvgl/src/extra/widgets/msgbox/../../../../src/core/../misc/../font/lv_font.h ****  * @param letter_next the next letter after `letter`. Used for kerning
 109:Middlewares/lvgl/src/extra/widgets/msgbox/../../../../src/core/../misc/../font/lv_font.h ****  * @return the width of the glyph
 110:Middlewares/lvgl/src/extra/widgets/msgbox/../../../../src/core/../misc/../font/lv_font.h ****  */
 111:Middlewares/lvgl/src/extra/widgets/msgbox/../../../../src/core/../misc/../font/lv_font.h **** uint16_t lv_font_get_glyph_width(const lv_font_t * font, uint32_t letter, uint32_t letter_next);
 112:Middlewares/lvgl/src/extra/widgets/msgbox/../../../../src/core/../misc/../font/lv_font.h **** 
 113:Middlewares/lvgl/src/extra/widgets/msgbox/../../../../src/core/../misc/../font/lv_font.h **** /**
 114:Middlewares/lvgl/src/extra/widgets/msgbox/../../../../src/core/../misc/../font/lv_font.h ****  * Get the line height of a font. All characters fit into this height
 115:Middlewares/lvgl/src/extra/widgets/msgbox/../../../../src/core/../misc/../font/lv_font.h ****  * @param font_p pointer to a font
 116:Middlewares/lvgl/src/extra/widgets/msgbox/../../../../src/core/../misc/../font/lv_font.h ****  * @return the height of a font
 117:Middlewares/lvgl/src/extra/widgets/msgbox/../../../../src/core/../misc/../font/lv_font.h ****  */
 118:Middlewares/lvgl/src/extra/widgets/msgbox/../../../../src/core/../misc/../font/lv_font.h **** static inline lv_coord_t lv_font_get_line_height(const lv_font_t * font_p)
 344              		.loc 5 118 26 discriminator 4 view .LVU85
 345              	.LBB41:
 119:Middlewares/lvgl/src/extra/widgets/msgbox/../../../../src/core/../misc/../font/lv_font.h **** {
 120:Middlewares/lvgl/src/extra/widgets/msgbox/../../../../src/core/../misc/../font/lv_font.h ****     return font_p->line_height;
 346              		.loc 5 120 5 discriminator 4 view .LVU86
 347              		.loc 5 120 18 is_stmt 0 discriminator 4 view .LVU87
 348 016a B0F90870 		ldrsh	r7, [r0, #8]
 349              	.LVL50:
 350              		.loc 5 120 18 discriminator 4 view .LVU88
 351              	.LBE41:
ARM GAS  /tmp/ccPpOeRU.s 			page 22


 352              	.LBE40:
  79:Middlewares/lvgl/src/extra/widgets/msgbox/lv_msgbox.c ****         lv_obj_set_size(close_btn, close_btn_size, close_btn_size);
 353              		.loc 1 79 37 discriminator 4 view .LVU89
 354 016e BFB2     		uxth	r7, r7
  79:Middlewares/lvgl/src/extra/widgets/msgbox/lv_msgbox.c ****         lv_obj_set_size(close_btn, close_btn_size, close_btn_size);
 355              		.loc 1 79 69 discriminator 4 view .LVU90
 356 0170 0020     		movs	r0, #0
 357              	.LVL51:
  79:Middlewares/lvgl/src/extra/widgets/msgbox/lv_msgbox.c ****         lv_obj_set_size(close_btn, close_btn_size, close_btn_size);
 358              		.loc 1 79 69 discriminator 4 view .LVU91
 359 0172 FFF7FEFF 		bl	lv_disp_get_dpi
 360              	.LVL52:
 361 0176 00EB8000 		add	r0, r0, r0, lsl #2
 362 017a 4300     		lsls	r3, r0, #1
  79:Middlewares/lvgl/src/extra/widgets/msgbox/lv_msgbox.c ****         lv_obj_set_size(close_btn, close_btn_size, close_btn_size);
 363              		.loc 1 79 67 discriminator 4 view .LVU92
 364 017c EF2B     		cmp	r3, #239
 365 017e 1CDC     		bgt	.L23
  79:Middlewares/lvgl/src/extra/widgets/msgbox/lv_msgbox.c ****         lv_obj_set_size(close_btn, close_btn_size, close_btn_size);
 366              		.loc 1 79 67 view .LVU93
 367 0180 0121     		movs	r1, #1
 368              	.L10:
  79:Middlewares/lvgl/src/extra/widgets/msgbox/lv_msgbox.c ****         lv_obj_set_size(close_btn, close_btn_size, close_btn_size);
 369              		.loc 1 79 67 discriminator 4 view .LVU94
 370 0182 3944     		add	r1, r1, r7
  79:Middlewares/lvgl/src/extra/widgets/msgbox/lv_msgbox.c ****         lv_obj_set_size(close_btn, close_btn_size, close_btn_size);
 371              		.loc 1 79 20 discriminator 4 view .LVU95
 372 0184 09B2     		sxth	r1, r1
 373              	.LVL53:
  80:Middlewares/lvgl/src/extra/widgets/msgbox/lv_msgbox.c ****         lv_obj_align(label, LV_ALIGN_CENTER, 0, 0);
 374              		.loc 1 80 9 is_stmt 1 discriminator 4 view .LVU96
 375 0186 0A46     		mov	r2, r1
 376 0188 4046     		mov	r0, r8
 377 018a FFF7FEFF 		bl	lv_obj_set_size
 378              	.LVL54:
  81:Middlewares/lvgl/src/extra/widgets/msgbox/lv_msgbox.c ****     }
 379              		.loc 1 81 9 discriminator 4 view .LVU97
 380 018e 0023     		movs	r3, #0
 381 0190 1A46     		mov	r2, r3
 382 0192 0921     		movs	r1, #9
 383 0194 4846     		mov	r0, r9
 384 0196 FFF7FEFF 		bl	lv_obj_align
 385              	.LVL55:
 386 019a 6FE7     		b	.L8
 387              	.LVL56:
 388              	.L22:
  74:Middlewares/lvgl/src/extra/widgets/msgbox/lv_msgbox.c ****         lv_obj_add_event_cb(close_btn, msgbox_close_click_event_cb, LV_EVENT_CLICKED, NULL);
 389              		.loc 1 74 46 is_stmt 0 discriminator 1 view .LVU98
 390 019c 0020     		movs	r0, #0
 391 019e FFF7FEFF 		bl	lv_disp_get_dpi
 392              	.LVL57:
 393 01a2 00EB8000 		add	r0, r0, r0, lsl #2
 394 01a6 4300     		lsls	r3, r0, #1
 395 01a8 5033     		adds	r3, r3, #80
 396 01aa 214A     		ldr	r2, .L24+16
 397 01ac 82FB0312 		smull	r1, r2, r2, r3
 398 01b0 D917     		asrs	r1, r3, #31
ARM GAS  /tmp/ccPpOeRU.s 			page 23


 399 01b2 C1EBA211 		rsb	r1, r1, r2, asr #6
  74:Middlewares/lvgl/src/extra/widgets/msgbox/lv_msgbox.c ****         lv_obj_add_event_cb(close_btn, msgbox_close_click_event_cb, LV_EVENT_CLICKED, NULL);
 400              		.loc 1 74 9 discriminator 1 view .LVU99
 401 01b6 09B2     		sxth	r1, r1
 402 01b8 C1E7     		b	.L9
 403              	.LVL58:
 404              	.L23:
  79:Middlewares/lvgl/src/extra/widgets/msgbox/lv_msgbox.c ****         lv_obj_set_size(close_btn, close_btn_size, close_btn_size);
 405              		.loc 1 79 69 discriminator 1 view .LVU100
 406 01ba 0020     		movs	r0, #0
 407 01bc FFF7FEFF 		bl	lv_disp_get_dpi
 408              	.LVL59:
 409 01c0 00EB8000 		add	r0, r0, r0, lsl #2
 410 01c4 4300     		lsls	r3, r0, #1
 411 01c6 5033     		adds	r3, r3, #80
 412 01c8 194A     		ldr	r2, .L24+16
 413 01ca 82FB0312 		smull	r1, r2, r2, r3
 414 01ce D917     		asrs	r1, r3, #31
 415 01d0 C1EBA211 		rsb	r1, r1, r2, asr #6
  79:Middlewares/lvgl/src/extra/widgets/msgbox/lv_msgbox.c ****         lv_obj_set_size(close_btn, close_btn_size, close_btn_size);
 416              		.loc 1 79 67 discriminator 1 view .LVU101
 417 01d4 89B2     		uxth	r1, r1
 418 01d6 D4E7     		b	.L10
 419              	.LVL60:
 420              	.L14:
  79:Middlewares/lvgl/src/extra/widgets/msgbox/lv_msgbox.c ****         lv_obj_set_size(close_btn, close_btn_size, close_btn_size);
 421              		.loc 1 79 67 discriminator 1 view .LVU102
 422              	.LBE37:
 423              	.LBB42:
  96:Middlewares/lvgl/src/extra/widgets/msgbox/lv_msgbox.c ****             btn_cnt++;
 424              		.loc 1 96 13 is_stmt 1 view .LVU103
 425              		.loc 1 96 20 is_stmt 0 view .LVU104
 426 01d8 0134     		adds	r4, r4, #1
 427              	.LVL61:
 428              	.L12:
  95:Middlewares/lvgl/src/extra/widgets/msgbox/lv_msgbox.c ****             btn_cnt++;
 429              		.loc 1 95 14 is_stmt 1 view .LVU105
  95:Middlewares/lvgl/src/extra/widgets/msgbox/lv_msgbox.c ****             btn_cnt++;
 430              		.loc 1 95 23 is_stmt 0 view .LVU106
 431 01da 56F82420 		ldr	r2, [r6, r4, lsl #2]
  95:Middlewares/lvgl/src/extra/widgets/msgbox/lv_msgbox.c ****             btn_cnt++;
 432              		.loc 1 95 14 view .LVU107
 433 01de 12B1     		cbz	r2, .L13
  95:Middlewares/lvgl/src/extra/widgets/msgbox/lv_msgbox.c ****             btn_cnt++;
 434              		.loc 1 95 53 discriminator 1 view .LVU108
 435 01e0 1378     		ldrb	r3, [r2]	@ zero_extendqisi2
  95:Middlewares/lvgl/src/extra/widgets/msgbox/lv_msgbox.c ****             btn_cnt++;
 436              		.loc 1 95 33 discriminator 1 view .LVU109
 437 01e2 002B     		cmp	r3, #0
 438 01e4 F8D1     		bne	.L14
 439              	.L13:
  97:Middlewares/lvgl/src/extra/widgets/msgbox/lv_msgbox.c ****         }
  98:Middlewares/lvgl/src/extra/widgets/msgbox/lv_msgbox.c **** 
  99:Middlewares/lvgl/src/extra/widgets/msgbox/lv_msgbox.c ****         const lv_font_t * font = lv_obj_get_style_text_font(btns, LV_PART_ITEMS);
 440              		.loc 1 99 9 is_stmt 1 view .LVU110
 441              	.LVL62:
 442              	.LBB29:
ARM GAS  /tmp/ccPpOeRU.s 			page 24


 443              	.LBI29:
 331:Middlewares/lvgl/src/extra/widgets/msgbox/../../../../src/core/lv_obj_style_gen.h **** {
 444              		.loc 4 331 33 view .LVU111
 445              	.LBB30:
 333:Middlewares/lvgl/src/extra/widgets/msgbox/../../../../src/core/lv_obj_style_gen.h ****     return (const lv_font_t *)v.ptr;
 446              		.loc 4 333 5 view .LVU112
 333:Middlewares/lvgl/src/extra/widgets/msgbox/../../../../src/core/lv_obj_style_gen.h ****     return (const lv_font_t *)v.ptr;
 447              		.loc 4 333 26 is_stmt 0 view .LVU113
 448 01e6 41F25942 		movw	r2, #5209
 449 01ea 4FF4A021 		mov	r1, #327680
 450 01ee 3846     		mov	r0, r7
 451 01f0 FFF7FEFF 		bl	lv_obj_get_style_prop
 452              	.LVL63:
 453              		.loc 4 334 5 is_stmt 1 view .LVU114
 454              		.loc 4 334 5 is_stmt 0 view .LVU115
 455              	.LBE30:
 456              	.LBE29:
 100:Middlewares/lvgl/src/extra/widgets/msgbox/lv_msgbox.c ****         lv_coord_t btn_h = lv_font_get_line_height(font) + LV_DPI_DEF / 10;
 457              		.loc 1 100 9 is_stmt 1 view .LVU116
 458              	.LBB31:
 459              	.LBI31:
 118:Middlewares/lvgl/src/extra/widgets/msgbox/../../../../src/core/../misc/../font/lv_font.h **** {
 460              		.loc 5 118 26 view .LVU117
 461              	.LBB32:
 462              		.loc 5 120 5 view .LVU118
 463              		.loc 5 120 18 is_stmt 0 view .LVU119
 464 01f4 B0F90820 		ldrsh	r2, [r0, #8]
 465              	.LVL64:
 466              		.loc 5 120 18 view .LVU120
 467              	.LBE32:
 468              	.LBE31:
 469              		.loc 1 100 28 view .LVU121
 470 01f8 92B2     		uxth	r2, r2
 471              		.loc 1 100 58 view .LVU122
 472 01fa 0D32     		adds	r2, r2, #13
 473              	.LVL65:
 101:Middlewares/lvgl/src/extra/widgets/msgbox/lv_msgbox.c ****         lv_obj_set_size(btns, btn_cnt * (2 * LV_DPI_DEF / 3), btn_h);
 474              		.loc 1 101 9 is_stmt 1 view .LVU123
 475 01fc 04EB8401 		add	r1, r4, r4, lsl #2
 476 0200 01EB0111 		add	r1, r1, r1, lsl #4
 477 0204 2144     		add	r1, r1, r4
 478 0206 12B2     		sxth	r2, r2
 479              		.loc 1 101 9 is_stmt 0 view .LVU124
 480 0208 09B2     		sxth	r1, r1
 481 020a 3846     		mov	r0, r7
 482              	.LVL66:
 483              		.loc 1 101 9 view .LVU125
 484 020c FFF7FEFF 		bl	lv_obj_set_size
 485              	.LVL67:
 102:Middlewares/lvgl/src/extra/widgets/msgbox/lv_msgbox.c ****         lv_obj_add_flag(btns, LV_OBJ_FLAG_EVENT_BUBBLE);    /*To see the event directly on the mess
 486              		.loc 1 102 9 is_stmt 1 view .LVU126
 487 0210 4FF48051 		mov	r1, #4096
 488 0214 3846     		mov	r0, r7
 489 0216 FFF7FEFF 		bl	lv_obj_add_flag
 490              	.LVL68:
 491              	.LBE42:
 103:Middlewares/lvgl/src/extra/widgets/msgbox/lv_msgbox.c ****     }
ARM GAS  /tmp/ccPpOeRU.s 			page 25


 104:Middlewares/lvgl/src/extra/widgets/msgbox/lv_msgbox.c **** 
 105:Middlewares/lvgl/src/extra/widgets/msgbox/lv_msgbox.c ****     return mbox;
 492              		.loc 1 105 5 view .LVU127
 493              	.L1:
 106:Middlewares/lvgl/src/extra/widgets/msgbox/lv_msgbox.c **** }
 494              		.loc 1 106 1 is_stmt 0 view .LVU128
 495 021a 2846     		mov	r0, r5
 496 021c BDE8F883 		pop	{r3, r4, r5, r6, r7, r8, r9, pc}
 497              	.LVL69:
 498              	.L25:
 499              		.loc 1 106 1 view .LVU129
 500              		.align	2
 501              	.L24:
 502 0220 00000000 		.word	.LANCHOR0
 503 0224 FFFF0F00 		.word	1048575
 504 0228 00000000 		.word	msgbox_close_click_event_cb
 505 022c 00000000 		.word	.LC0
 506 0230 67666666 		.word	1717986919
 507              		.cfi_endproc
 508              	.LFE184:
 510              		.section	.text.lv_msgbox_get_title,"ax",%progbits
 511              		.align	1
 512              		.global	lv_msgbox_get_title
 513              		.syntax unified
 514              		.thumb
 515              		.thumb_func
 517              	lv_msgbox_get_title:
 518              	.LVL70:
 519              	.LFB185:
 107:Middlewares/lvgl/src/extra/widgets/msgbox/lv_msgbox.c **** 
 108:Middlewares/lvgl/src/extra/widgets/msgbox/lv_msgbox.c **** 
 109:Middlewares/lvgl/src/extra/widgets/msgbox/lv_msgbox.c **** lv_obj_t * lv_msgbox_get_title(lv_obj_t * mbox)
 110:Middlewares/lvgl/src/extra/widgets/msgbox/lv_msgbox.c **** {
 520              		.loc 1 110 1 is_stmt 1 view -0
 521              		.cfi_startproc
 522              		@ args = 0, pretend = 0, frame = 0
 523              		@ frame_needed = 0, uses_anonymous_args = 0
 524              		.loc 1 110 1 is_stmt 0 view .LVU131
 525 0000 08B5     		push	{r3, lr}
 526              	.LCFI1:
 527              		.cfi_def_cfa_offset 8
 528              		.cfi_offset 3, -8
 529              		.cfi_offset 14, -4
 111:Middlewares/lvgl/src/extra/widgets/msgbox/lv_msgbox.c ****     return lv_obj_get_child(mbox, 0);
 530              		.loc 1 111 5 is_stmt 1 view .LVU132
 531              		.loc 1 111 12 is_stmt 0 view .LVU133
 532 0002 0021     		movs	r1, #0
 533 0004 FFF7FEFF 		bl	lv_obj_get_child
 534              	.LVL71:
 112:Middlewares/lvgl/src/extra/widgets/msgbox/lv_msgbox.c **** }
 535              		.loc 1 112 1 view .LVU134
 536 0008 08BD     		pop	{r3, pc}
 537              		.cfi_endproc
 538              	.LFE185:
 540              		.section	.text.lv_msgbox_get_close_btn,"ax",%progbits
 541              		.align	1
 542              		.global	lv_msgbox_get_close_btn
ARM GAS  /tmp/ccPpOeRU.s 			page 26


 543              		.syntax unified
 544              		.thumb
 545              		.thumb_func
 547              	lv_msgbox_get_close_btn:
 548              	.LVL72:
 549              	.LFB186:
 113:Middlewares/lvgl/src/extra/widgets/msgbox/lv_msgbox.c **** 
 114:Middlewares/lvgl/src/extra/widgets/msgbox/lv_msgbox.c **** lv_obj_t * lv_msgbox_get_close_btn(lv_obj_t * mbox)
 115:Middlewares/lvgl/src/extra/widgets/msgbox/lv_msgbox.c **** {
 550              		.loc 1 115 1 is_stmt 1 view -0
 551              		.cfi_startproc
 552              		@ args = 0, pretend = 0, frame = 0
 553              		@ frame_needed = 0, uses_anonymous_args = 0
 554              		.loc 1 115 1 is_stmt 0 view .LVU136
 555 0000 10B5     		push	{r4, lr}
 556              	.LCFI2:
 557              		.cfi_def_cfa_offset 8
 558              		.cfi_offset 4, -8
 559              		.cfi_offset 14, -4
 116:Middlewares/lvgl/src/extra/widgets/msgbox/lv_msgbox.c ****     lv_obj_t * obj = lv_obj_get_child(mbox, 1);
 560              		.loc 1 116 5 is_stmt 1 view .LVU137
 561              		.loc 1 116 22 is_stmt 0 view .LVU138
 562 0002 0121     		movs	r1, #1
 563 0004 FFF7FEFF 		bl	lv_obj_get_child
 564              	.LVL73:
 565              		.loc 1 116 22 view .LVU139
 566 0008 0446     		mov	r4, r0
 567              	.LVL74:
 117:Middlewares/lvgl/src/extra/widgets/msgbox/lv_msgbox.c ****     if(lv_obj_check_type(obj, &lv_btn_class)) return obj;
 568              		.loc 1 117 5 is_stmt 1 view .LVU140
 569              		.loc 1 117 8 is_stmt 0 view .LVU141
 570 000a 0449     		ldr	r1, .L33
 571 000c FFF7FEFF 		bl	lv_obj_check_type
 572              	.LVL75:
 573              		.loc 1 117 7 view .LVU142
 574 0010 08B1     		cbz	r0, .L32
 575              	.LVL76:
 576              	.L28:
 118:Middlewares/lvgl/src/extra/widgets/msgbox/lv_msgbox.c ****     else return NULL;
 119:Middlewares/lvgl/src/extra/widgets/msgbox/lv_msgbox.c **** }
 577              		.loc 1 119 1 view .LVU143
 578 0012 2046     		mov	r0, r4
 579 0014 10BD     		pop	{r4, pc}
 580              	.LVL77:
 581              	.L32:
 118:Middlewares/lvgl/src/extra/widgets/msgbox/lv_msgbox.c ****     else return NULL;
 582              		.loc 1 118 17 view .LVU144
 583 0016 0024     		movs	r4, #0
 584              	.LVL78:
 118:Middlewares/lvgl/src/extra/widgets/msgbox/lv_msgbox.c ****     else return NULL;
 585              		.loc 1 118 17 view .LVU145
 586 0018 FBE7     		b	.L28
 587              	.L34:
 588 001a 00BF     		.align	2
 589              	.L33:
 590 001c 00000000 		.word	lv_btn_class
 591              		.cfi_endproc
ARM GAS  /tmp/ccPpOeRU.s 			page 27


 592              	.LFE186:
 594              		.section	.text.lv_msgbox_get_text,"ax",%progbits
 595              		.align	1
 596              		.global	lv_msgbox_get_text
 597              		.syntax unified
 598              		.thumb
 599              		.thumb_func
 601              	lv_msgbox_get_text:
 602              	.LVL79:
 603              	.LFB187:
 120:Middlewares/lvgl/src/extra/widgets/msgbox/lv_msgbox.c **** 
 121:Middlewares/lvgl/src/extra/widgets/msgbox/lv_msgbox.c **** lv_obj_t * lv_msgbox_get_text(lv_obj_t * mbox)
 122:Middlewares/lvgl/src/extra/widgets/msgbox/lv_msgbox.c **** {
 604              		.loc 1 122 1 is_stmt 1 view -0
 605              		.cfi_startproc
 606              		@ args = 0, pretend = 0, frame = 0
 607              		@ frame_needed = 0, uses_anonymous_args = 0
 608              		.loc 1 122 1 is_stmt 0 view .LVU147
 609 0000 10B5     		push	{r4, lr}
 610              	.LCFI3:
 611              		.cfi_def_cfa_offset 8
 612              		.cfi_offset 4, -8
 613              		.cfi_offset 14, -4
 614 0002 0446     		mov	r4, r0
 123:Middlewares/lvgl/src/extra/widgets/msgbox/lv_msgbox.c ****     return lv_obj_get_child(mbox, lv_obj_get_child_cnt(mbox) - 2);
 615              		.loc 1 123 5 is_stmt 1 view .LVU148
 616              		.loc 1 123 35 is_stmt 0 view .LVU149
 617 0004 FFF7FEFF 		bl	lv_obj_get_child_cnt
 618              	.LVL80:
 619              		.loc 1 123 12 view .LVU150
 620 0008 811E     		subs	r1, r0, #2
 621 000a 2046     		mov	r0, r4
 622 000c FFF7FEFF 		bl	lv_obj_get_child
 623              	.LVL81:
 124:Middlewares/lvgl/src/extra/widgets/msgbox/lv_msgbox.c **** }
 624              		.loc 1 124 1 view .LVU151
 625 0010 10BD     		pop	{r4, pc}
 626              		.loc 1 124 1 view .LVU152
 627              		.cfi_endproc
 628              	.LFE187:
 630              		.section	.text.lv_msgbox_get_btns,"ax",%progbits
 631              		.align	1
 632              		.global	lv_msgbox_get_btns
 633              		.syntax unified
 634              		.thumb
 635              		.thumb_func
 637              	lv_msgbox_get_btns:
 638              	.LVL82:
 639              	.LFB188:
 125:Middlewares/lvgl/src/extra/widgets/msgbox/lv_msgbox.c **** 
 126:Middlewares/lvgl/src/extra/widgets/msgbox/lv_msgbox.c **** lv_obj_t * lv_msgbox_get_btns(lv_obj_t * mbox)
 127:Middlewares/lvgl/src/extra/widgets/msgbox/lv_msgbox.c **** {
 640              		.loc 1 127 1 is_stmt 1 view -0
 641              		.cfi_startproc
 642              		@ args = 0, pretend = 0, frame = 0
 643              		@ frame_needed = 0, uses_anonymous_args = 0
 644              		.loc 1 127 1 is_stmt 0 view .LVU154
ARM GAS  /tmp/ccPpOeRU.s 			page 28


 645 0000 10B5     		push	{r4, lr}
 646              	.LCFI4:
 647              		.cfi_def_cfa_offset 8
 648              		.cfi_offset 4, -8
 649              		.cfi_offset 14, -4
 650 0002 0446     		mov	r4, r0
 128:Middlewares/lvgl/src/extra/widgets/msgbox/lv_msgbox.c ****     return lv_obj_get_child(mbox, lv_obj_get_child_cnt(mbox) - 1);
 651              		.loc 1 128 5 is_stmt 1 view .LVU155
 652              		.loc 1 128 35 is_stmt 0 view .LVU156
 653 0004 FFF7FEFF 		bl	lv_obj_get_child_cnt
 654              	.LVL83:
 655              		.loc 1 128 12 view .LVU157
 656 0008 411E     		subs	r1, r0, #1
 657 000a 2046     		mov	r0, r4
 658 000c FFF7FEFF 		bl	lv_obj_get_child
 659              	.LVL84:
 129:Middlewares/lvgl/src/extra/widgets/msgbox/lv_msgbox.c **** }
 660              		.loc 1 129 1 view .LVU158
 661 0010 10BD     		pop	{r4, pc}
 662              		.loc 1 129 1 view .LVU159
 663              		.cfi_endproc
 664              	.LFE188:
 666              		.section	.text.lv_msgbox_get_active_btn_text,"ax",%progbits
 667              		.align	1
 668              		.global	lv_msgbox_get_active_btn_text
 669              		.syntax unified
 670              		.thumb
 671              		.thumb_func
 673              	lv_msgbox_get_active_btn_text:
 674              	.LVL85:
 675              	.LFB189:
 130:Middlewares/lvgl/src/extra/widgets/msgbox/lv_msgbox.c **** 
 131:Middlewares/lvgl/src/extra/widgets/msgbox/lv_msgbox.c **** const char * lv_msgbox_get_active_btn_text(lv_obj_t * mbox)
 132:Middlewares/lvgl/src/extra/widgets/msgbox/lv_msgbox.c **** {
 676              		.loc 1 132 1 is_stmt 1 view -0
 677              		.cfi_startproc
 678              		@ args = 0, pretend = 0, frame = 0
 679              		@ frame_needed = 0, uses_anonymous_args = 0
 680              		.loc 1 132 1 is_stmt 0 view .LVU161
 681 0000 10B5     		push	{r4, lr}
 682              	.LCFI5:
 683              		.cfi_def_cfa_offset 8
 684              		.cfi_offset 4, -8
 685              		.cfi_offset 14, -4
 133:Middlewares/lvgl/src/extra/widgets/msgbox/lv_msgbox.c ****     lv_obj_t * btnm = lv_msgbox_get_btns(mbox);
 686              		.loc 1 133 5 is_stmt 1 view .LVU162
 687              		.loc 1 133 23 is_stmt 0 view .LVU163
 688 0002 FFF7FEFF 		bl	lv_msgbox_get_btns
 689              	.LVL86:
 690              		.loc 1 133 23 view .LVU164
 691 0006 0446     		mov	r4, r0
 692              	.LVL87:
 134:Middlewares/lvgl/src/extra/widgets/msgbox/lv_msgbox.c ****     return lv_btnmatrix_get_btn_text(btnm, lv_btnmatrix_get_selected_btn(btnm));
 693              		.loc 1 134 5 is_stmt 1 view .LVU165
 694              		.loc 1 134 12 is_stmt 0 view .LVU166
 695 0008 FFF7FEFF 		bl	lv_btnmatrix_get_selected_btn
 696              	.LVL88:
ARM GAS  /tmp/ccPpOeRU.s 			page 29


 697              		.loc 1 134 12 view .LVU167
 698 000c 0146     		mov	r1, r0
 699 000e 2046     		mov	r0, r4
 700 0010 FFF7FEFF 		bl	lv_btnmatrix_get_btn_text
 701              	.LVL89:
 135:Middlewares/lvgl/src/extra/widgets/msgbox/lv_msgbox.c **** }
 702              		.loc 1 135 1 view .LVU168
 703 0014 10BD     		pop	{r4, pc}
 704              		.loc 1 135 1 view .LVU169
 705              		.cfi_endproc
 706              	.LFE189:
 708              		.section	.text.lv_msgbox_close,"ax",%progbits
 709              		.align	1
 710              		.global	lv_msgbox_close
 711              		.syntax unified
 712              		.thumb
 713              		.thumb_func
 715              	lv_msgbox_close:
 716              	.LVL90:
 717              	.LFB190:
 136:Middlewares/lvgl/src/extra/widgets/msgbox/lv_msgbox.c **** 
 137:Middlewares/lvgl/src/extra/widgets/msgbox/lv_msgbox.c **** void lv_msgbox_close(lv_obj_t * mbox)
 138:Middlewares/lvgl/src/extra/widgets/msgbox/lv_msgbox.c **** {
 718              		.loc 1 138 1 is_stmt 1 view -0
 719              		.cfi_startproc
 720              		@ args = 0, pretend = 0, frame = 0
 721              		@ frame_needed = 0, uses_anonymous_args = 0
 722              		.loc 1 138 1 is_stmt 0 view .LVU171
 723 0000 10B5     		push	{r4, lr}
 724              	.LCFI6:
 725              		.cfi_def_cfa_offset 8
 726              		.cfi_offset 4, -8
 727              		.cfi_offset 14, -4
 728 0002 0446     		mov	r4, r0
 139:Middlewares/lvgl/src/extra/widgets/msgbox/lv_msgbox.c ****     if(lv_obj_has_flag(mbox, LV_MSGBOX_FLAG_AUTO_PARENT)) lv_obj_del(lv_obj_get_parent(mbox));
 729              		.loc 1 139 5 is_stmt 1 view .LVU172
 730              		.loc 1 139 8 is_stmt 0 view .LVU173
 731 0004 4FF00071 		mov	r1, #33554432
 732 0008 FFF7FEFF 		bl	lv_obj_has_flag
 733              	.LVL91:
 734              		.loc 1 139 7 view .LVU174
 735 000c 28B1     		cbz	r0, .L42
 736              		.loc 1 139 59 is_stmt 1 discriminator 1 view .LVU175
 737 000e 2046     		mov	r0, r4
 738 0010 FFF7FEFF 		bl	lv_obj_get_parent
 739              	.LVL92:
 740 0014 FFF7FEFF 		bl	lv_obj_del
 741              	.LVL93:
 742              	.L41:
 140:Middlewares/lvgl/src/extra/widgets/msgbox/lv_msgbox.c ****     else lv_obj_del(mbox);
 141:Middlewares/lvgl/src/extra/widgets/msgbox/lv_msgbox.c **** }
 743              		.loc 1 141 1 is_stmt 0 view .LVU176
 744 0018 10BD     		pop	{r4, pc}
 745              	.LVL94:
 746              	.L42:
 140:Middlewares/lvgl/src/extra/widgets/msgbox/lv_msgbox.c ****     else lv_obj_del(mbox);
 747              		.loc 1 140 10 is_stmt 1 view .LVU177
ARM GAS  /tmp/ccPpOeRU.s 			page 30


 748 001a 2046     		mov	r0, r4
 749 001c FFF7FEFF 		bl	lv_obj_del
 750              	.LVL95:
 751              		.loc 1 141 1 is_stmt 0 view .LVU178
 752 0020 FAE7     		b	.L41
 753              		.cfi_endproc
 754              	.LFE190:
 756              		.section	.text.msgbox_close_click_event_cb,"ax",%progbits
 757              		.align	1
 758              		.syntax unified
 759              		.thumb
 760              		.thumb_func
 762              	msgbox_close_click_event_cb:
 763              	.LVL96:
 764              	.LFB191:
 142:Middlewares/lvgl/src/extra/widgets/msgbox/lv_msgbox.c **** 
 143:Middlewares/lvgl/src/extra/widgets/msgbox/lv_msgbox.c **** 
 144:Middlewares/lvgl/src/extra/widgets/msgbox/lv_msgbox.c **** /**********************
 145:Middlewares/lvgl/src/extra/widgets/msgbox/lv_msgbox.c ****  *   STATIC FUNCTIONS
 146:Middlewares/lvgl/src/extra/widgets/msgbox/lv_msgbox.c ****  **********************/
 147:Middlewares/lvgl/src/extra/widgets/msgbox/lv_msgbox.c **** 
 148:Middlewares/lvgl/src/extra/widgets/msgbox/lv_msgbox.c **** static void msgbox_close_click_event_cb(lv_event_t * e)
 149:Middlewares/lvgl/src/extra/widgets/msgbox/lv_msgbox.c **** {
 765              		.loc 1 149 1 is_stmt 1 view -0
 766              		.cfi_startproc
 767              		@ args = 0, pretend = 0, frame = 0
 768              		@ frame_needed = 0, uses_anonymous_args = 0
 769              		.loc 1 149 1 is_stmt 0 view .LVU180
 770 0000 08B5     		push	{r3, lr}
 771              	.LCFI7:
 772              		.cfi_def_cfa_offset 8
 773              		.cfi_offset 3, -8
 774              		.cfi_offset 14, -4
 150:Middlewares/lvgl/src/extra/widgets/msgbox/lv_msgbox.c ****     lv_obj_t * btn = lv_event_get_target(e);
 775              		.loc 1 150 5 is_stmt 1 view .LVU181
 776              		.loc 1 150 22 is_stmt 0 view .LVU182
 777 0002 FFF7FEFF 		bl	lv_event_get_target
 778              	.LVL97:
 151:Middlewares/lvgl/src/extra/widgets/msgbox/lv_msgbox.c ****     lv_obj_t * mbox = lv_obj_get_parent(btn);
 779              		.loc 1 151 5 is_stmt 1 view .LVU183
 780              		.loc 1 151 23 is_stmt 0 view .LVU184
 781 0006 FFF7FEFF 		bl	lv_obj_get_parent
 782              	.LVL98:
 152:Middlewares/lvgl/src/extra/widgets/msgbox/lv_msgbox.c ****     lv_msgbox_close(mbox);
 783              		.loc 1 152 5 is_stmt 1 view .LVU185
 784 000a FFF7FEFF 		bl	lv_msgbox_close
 785              	.LVL99:
 153:Middlewares/lvgl/src/extra/widgets/msgbox/lv_msgbox.c **** }
 786              		.loc 1 153 1 is_stmt 0 view .LVU186
 787 000e 08BD     		pop	{r3, pc}
 788              		.cfi_endproc
 789              	.LFE191:
 791              		.global	lv_msgbox_class
 792              		.section	.rodata.lv_msgbox_class,"a"
 793              		.align	2
 794              		.set	.LANCHOR0,. + 0
 797              	lv_msgbox_class:
ARM GAS  /tmp/ccPpOeRU.s 			page 31


 798 0000 00000000 		.word	lv_obj_class
 799 0004 00000000 		.space	24
 799      00000000 
 799      00000000 
 799      00000000 
 799      00000000 
 800              		.text
 801              	.Letext0:
 802              		.file 6 "/home/akinya/gcc-arm-none-eabi/arm-none-eabi/include/machine/_default_types.h"
 803              		.file 7 "/home/akinya/gcc-arm-none-eabi/arm-none-eabi/include/sys/_stdint.h"
 804              		.file 8 "Middlewares/lvgl/src/extra/widgets/msgbox/../../../../src/misc/lv_ll.h"
 805              		.file 9 "Middlewares/lvgl/src/extra/widgets/msgbox/../../../../src/hal/../misc/lv_color.h"
 806              		.file 10 "Middlewares/lvgl/src/extra/widgets/msgbox/../../../../src/hal/../misc/lv_area.h"
 807              		.file 11 "Middlewares/lvgl/src/extra/widgets/msgbox/../../../../src/core/lv_obj.h"
 808              		.file 12 "Middlewares/lvgl/src/extra/widgets/msgbox/../../../../src/core/lv_group.h"
 809              		.file 13 "Middlewares/lvgl/src/extra/widgets/msgbox/../../../../src/core/../misc/lv_style.h"
 810              		.file 14 "Middlewares/lvgl/src/extra/widgets/msgbox/../../../../src/core/lv_obj_scroll.h"
 811              		.file 15 "Middlewares/lvgl/src/extra/widgets/msgbox/../../../../src/core/lv_obj_class.h"
 812              		.file 16 "Middlewares/lvgl/src/extra/widgets/msgbox/../../../../src/core/lv_event.h"
 813              		.file 17 "Middlewares/lvgl/src/extra/widgets/msgbox/../../../../src/widgets/lv_btn.h"
 814              		.file 18 "Middlewares/lvgl/src/extra/widgets/msgbox/../../../../src/widgets/lv_label.h"
 815              		.file 19 "Middlewares/lvgl/src/extra/widgets/msgbox/../../../../src/widgets/lv_bar.h"
 816              		.file 20 "Middlewares/lvgl/src/extra/widgets/msgbox/../../../../src/widgets/lv_btnmatrix.h"
 817              		.file 21 "Middlewares/lvgl/src/extra/widgets/msgbox/../../../../src/extra/widgets/list/../../layou
 818              		.file 22 "Middlewares/lvgl/src/extra/widgets/msgbox/../../../../src/extra/widgets/imgbtn/lv_imgbtn
 819              		.file 23 "Middlewares/lvgl/src/extra/widgets/msgbox/lv_msgbox.h"
 820              		.file 24 "Middlewares/lvgl/src/extra/widgets/msgbox/../../../../src/core/lv_obj_tree.h"
 821              		.file 25 "Middlewares/lvgl/src/extra/widgets/msgbox/../../../../src/hal/lv_hal_disp.h"
 822              		.file 26 "Middlewares/lvgl/src/extra/widgets/msgbox/../../../../src/core/lv_obj_pos.h"
ARM GAS  /tmp/ccPpOeRU.s 			page 32

