ARM GAS  /tmp/cc4ZvNDe.s 			page 1


   1              		.cpu cortex-m4
   2              		.arch armv7e-m
   3              		.fpu fpv4-sp-d16
   4              		.eabi_attribute 27, 1
   5              		.eabi_attribute 28, 1
   6              		.eabi_attribute 20, 1
   7              		.eabi_attribute 21, 1
   8              		.eabi_attribute 23, 3
   9              		.eabi_attribute 24, 1
  10              		.eabi_attribute 25, 1
  11              		.eabi_attribute 26, 1
  12              		.eabi_attribute 30, 1
  13              		.eabi_attribute 34, 1
  14              		.eabi_attribute 18, 4
  15              		.file	"lv_obj_class.c"
  16              		.text
  17              	.Ltext0:
  18              		.cfi_sections	.debug_frame
  19              		.section	.text.lv_obj_construct,"ax",%progbits
  20              		.align	1
  21              		.syntax unified
  22              		.thumb
  23              		.thumb_func
  25              	lv_obj_construct:
  26              	.LVL0:
  27              	.LFB152:
  28              		.file 1 "Middlewares/lvgl/src/core/lv_obj_class.c"
   1:Middlewares/lvgl/src/core/lv_obj_class.c **** /**
   2:Middlewares/lvgl/src/core/lv_obj_class.c ****  * @file lv_obj_class.c
   3:Middlewares/lvgl/src/core/lv_obj_class.c ****  *
   4:Middlewares/lvgl/src/core/lv_obj_class.c ****  */
   5:Middlewares/lvgl/src/core/lv_obj_class.c **** 
   6:Middlewares/lvgl/src/core/lv_obj_class.c **** /*********************
   7:Middlewares/lvgl/src/core/lv_obj_class.c ****  *      INCLUDES
   8:Middlewares/lvgl/src/core/lv_obj_class.c ****  *********************/
   9:Middlewares/lvgl/src/core/lv_obj_class.c **** #include "lv_obj.h"
  10:Middlewares/lvgl/src/core/lv_obj_class.c **** #include "lv_theme.h"
  11:Middlewares/lvgl/src/core/lv_obj_class.c **** 
  12:Middlewares/lvgl/src/core/lv_obj_class.c **** /*********************
  13:Middlewares/lvgl/src/core/lv_obj_class.c ****  *      DEFINES
  14:Middlewares/lvgl/src/core/lv_obj_class.c ****  *********************/
  15:Middlewares/lvgl/src/core/lv_obj_class.c **** #define MY_CLASS &lv_obj_class
  16:Middlewares/lvgl/src/core/lv_obj_class.c **** 
  17:Middlewares/lvgl/src/core/lv_obj_class.c **** /**********************
  18:Middlewares/lvgl/src/core/lv_obj_class.c ****  *      TYPEDEFS
  19:Middlewares/lvgl/src/core/lv_obj_class.c ****  **********************/
  20:Middlewares/lvgl/src/core/lv_obj_class.c **** 
  21:Middlewares/lvgl/src/core/lv_obj_class.c **** /**********************
  22:Middlewares/lvgl/src/core/lv_obj_class.c ****  *  GLOBAL PROTOTYPES
  23:Middlewares/lvgl/src/core/lv_obj_class.c ****  **********************/
  24:Middlewares/lvgl/src/core/lv_obj_class.c **** 
  25:Middlewares/lvgl/src/core/lv_obj_class.c **** /**********************
  26:Middlewares/lvgl/src/core/lv_obj_class.c ****  *  STATIC PROTOTYPES
  27:Middlewares/lvgl/src/core/lv_obj_class.c ****  **********************/
  28:Middlewares/lvgl/src/core/lv_obj_class.c **** static void lv_obj_construct(lv_obj_t * obj);
  29:Middlewares/lvgl/src/core/lv_obj_class.c **** static uint32_t get_instance_size(const lv_obj_class_t * class_p);
  30:Middlewares/lvgl/src/core/lv_obj_class.c **** 
ARM GAS  /tmp/cc4ZvNDe.s 			page 2


  31:Middlewares/lvgl/src/core/lv_obj_class.c **** /**********************
  32:Middlewares/lvgl/src/core/lv_obj_class.c ****  *  STATIC VARIABLES
  33:Middlewares/lvgl/src/core/lv_obj_class.c ****  **********************/
  34:Middlewares/lvgl/src/core/lv_obj_class.c **** 
  35:Middlewares/lvgl/src/core/lv_obj_class.c **** /**********************
  36:Middlewares/lvgl/src/core/lv_obj_class.c ****  *      MACROS
  37:Middlewares/lvgl/src/core/lv_obj_class.c ****  **********************/
  38:Middlewares/lvgl/src/core/lv_obj_class.c **** 
  39:Middlewares/lvgl/src/core/lv_obj_class.c **** /**********************
  40:Middlewares/lvgl/src/core/lv_obj_class.c ****  *   GLOBAL FUNCTIONS
  41:Middlewares/lvgl/src/core/lv_obj_class.c ****  **********************/
  42:Middlewares/lvgl/src/core/lv_obj_class.c **** 
  43:Middlewares/lvgl/src/core/lv_obj_class.c **** lv_obj_t * lv_obj_class_create_obj(const lv_obj_class_t * class_p, lv_obj_t * parent)
  44:Middlewares/lvgl/src/core/lv_obj_class.c **** {
  45:Middlewares/lvgl/src/core/lv_obj_class.c ****     LV_TRACE_OBJ_CREATE("Creating object with %p class on %p parent", class_p, parent);
  46:Middlewares/lvgl/src/core/lv_obj_class.c ****     uint32_t s = get_instance_size(class_p);
  47:Middlewares/lvgl/src/core/lv_obj_class.c ****     lv_obj_t * obj = lv_mem_alloc(s);
  48:Middlewares/lvgl/src/core/lv_obj_class.c ****     if(obj == NULL) return NULL;
  49:Middlewares/lvgl/src/core/lv_obj_class.c ****     lv_memset_00(obj, s);
  50:Middlewares/lvgl/src/core/lv_obj_class.c ****     obj->class_p = class_p;
  51:Middlewares/lvgl/src/core/lv_obj_class.c ****     obj->parent = parent;
  52:Middlewares/lvgl/src/core/lv_obj_class.c **** 
  53:Middlewares/lvgl/src/core/lv_obj_class.c ****     /*Create a screen*/
  54:Middlewares/lvgl/src/core/lv_obj_class.c ****     if(parent == NULL) {
  55:Middlewares/lvgl/src/core/lv_obj_class.c ****         LV_TRACE_OBJ_CREATE("creating a screen");
  56:Middlewares/lvgl/src/core/lv_obj_class.c ****         lv_disp_t * disp = lv_disp_get_default();
  57:Middlewares/lvgl/src/core/lv_obj_class.c ****         if(!disp) {
  58:Middlewares/lvgl/src/core/lv_obj_class.c ****             LV_LOG_WARN("No display created to so far. No place to assign the new screen");
  59:Middlewares/lvgl/src/core/lv_obj_class.c ****             return NULL;
  60:Middlewares/lvgl/src/core/lv_obj_class.c ****         }
  61:Middlewares/lvgl/src/core/lv_obj_class.c **** 
  62:Middlewares/lvgl/src/core/lv_obj_class.c ****         if(disp->screens == NULL) {
  63:Middlewares/lvgl/src/core/lv_obj_class.c ****             disp->screens = lv_mem_alloc(sizeof(lv_obj_t *));
  64:Middlewares/lvgl/src/core/lv_obj_class.c ****             disp->screens[0] = obj;
  65:Middlewares/lvgl/src/core/lv_obj_class.c ****             disp->screen_cnt = 1;
  66:Middlewares/lvgl/src/core/lv_obj_class.c ****         } else {
  67:Middlewares/lvgl/src/core/lv_obj_class.c ****             disp->screen_cnt++;
  68:Middlewares/lvgl/src/core/lv_obj_class.c ****             disp->screens = lv_mem_realloc(disp->screens, sizeof(lv_obj_t *) * disp->screen_cnt);
  69:Middlewares/lvgl/src/core/lv_obj_class.c ****             disp->screens[disp->screen_cnt - 1] = obj;
  70:Middlewares/lvgl/src/core/lv_obj_class.c ****         }
  71:Middlewares/lvgl/src/core/lv_obj_class.c **** 
  72:Middlewares/lvgl/src/core/lv_obj_class.c ****         /*Set coordinates to full screen size*/
  73:Middlewares/lvgl/src/core/lv_obj_class.c ****         obj->coords.x1 = 0;
  74:Middlewares/lvgl/src/core/lv_obj_class.c ****         obj->coords.y1 = 0;
  75:Middlewares/lvgl/src/core/lv_obj_class.c ****         obj->coords.x2 = lv_disp_get_hor_res(NULL) - 1;
  76:Middlewares/lvgl/src/core/lv_obj_class.c ****         obj->coords.y2 = lv_disp_get_ver_res(NULL) - 1;
  77:Middlewares/lvgl/src/core/lv_obj_class.c ****     }
  78:Middlewares/lvgl/src/core/lv_obj_class.c ****     /*Create a normal object*/
  79:Middlewares/lvgl/src/core/lv_obj_class.c ****     else {
  80:Middlewares/lvgl/src/core/lv_obj_class.c ****         LV_TRACE_OBJ_CREATE("creating normal object");
  81:Middlewares/lvgl/src/core/lv_obj_class.c ****         LV_ASSERT_OBJ(parent, MY_CLASS);
  82:Middlewares/lvgl/src/core/lv_obj_class.c ****         if(parent->spec_attr == NULL) {
  83:Middlewares/lvgl/src/core/lv_obj_class.c ****             lv_obj_allocate_spec_attr(parent);
  84:Middlewares/lvgl/src/core/lv_obj_class.c ****         }
  85:Middlewares/lvgl/src/core/lv_obj_class.c **** 
  86:Middlewares/lvgl/src/core/lv_obj_class.c ****         if(parent->spec_attr->children == NULL) {
  87:Middlewares/lvgl/src/core/lv_obj_class.c ****             parent->spec_attr->children = lv_mem_alloc(sizeof(lv_obj_t *));
ARM GAS  /tmp/cc4ZvNDe.s 			page 3


  88:Middlewares/lvgl/src/core/lv_obj_class.c ****             parent->spec_attr->children[0] = obj;
  89:Middlewares/lvgl/src/core/lv_obj_class.c ****             parent->spec_attr->child_cnt = 1;
  90:Middlewares/lvgl/src/core/lv_obj_class.c ****         } else {
  91:Middlewares/lvgl/src/core/lv_obj_class.c ****             parent->spec_attr->child_cnt++;
  92:Middlewares/lvgl/src/core/lv_obj_class.c ****             parent->spec_attr->children = lv_mem_realloc(parent->spec_attr->children, sizeof(lv_obj
  93:Middlewares/lvgl/src/core/lv_obj_class.c ****             parent->spec_attr->children[parent->spec_attr->child_cnt - 1] = obj;
  94:Middlewares/lvgl/src/core/lv_obj_class.c ****         }
  95:Middlewares/lvgl/src/core/lv_obj_class.c ****     }
  96:Middlewares/lvgl/src/core/lv_obj_class.c **** 
  97:Middlewares/lvgl/src/core/lv_obj_class.c ****     return obj;
  98:Middlewares/lvgl/src/core/lv_obj_class.c **** }
  99:Middlewares/lvgl/src/core/lv_obj_class.c **** 
 100:Middlewares/lvgl/src/core/lv_obj_class.c **** void lv_obj_class_init_obj(lv_obj_t * obj)
 101:Middlewares/lvgl/src/core/lv_obj_class.c **** {
 102:Middlewares/lvgl/src/core/lv_obj_class.c ****     lv_obj_mark_layout_as_dirty(obj);
 103:Middlewares/lvgl/src/core/lv_obj_class.c ****     lv_obj_enable_style_refresh(false);
 104:Middlewares/lvgl/src/core/lv_obj_class.c **** 
 105:Middlewares/lvgl/src/core/lv_obj_class.c ****     lv_theme_apply(obj);
 106:Middlewares/lvgl/src/core/lv_obj_class.c ****     lv_obj_construct(obj);
 107:Middlewares/lvgl/src/core/lv_obj_class.c **** 
 108:Middlewares/lvgl/src/core/lv_obj_class.c ****     lv_obj_enable_style_refresh(true);
 109:Middlewares/lvgl/src/core/lv_obj_class.c ****     lv_obj_refresh_style(obj, LV_PART_ANY, LV_STYLE_PROP_ANY);
 110:Middlewares/lvgl/src/core/lv_obj_class.c **** 
 111:Middlewares/lvgl/src/core/lv_obj_class.c ****     lv_obj_refresh_self_size(obj);
 112:Middlewares/lvgl/src/core/lv_obj_class.c **** 
 113:Middlewares/lvgl/src/core/lv_obj_class.c ****     lv_group_t * def_group = lv_group_get_default();
 114:Middlewares/lvgl/src/core/lv_obj_class.c ****     if(def_group && lv_obj_is_group_def(obj)) {
 115:Middlewares/lvgl/src/core/lv_obj_class.c **** 
 116:Middlewares/lvgl/src/core/lv_obj_class.c ****         lv_group_add_obj(def_group, obj);
 117:Middlewares/lvgl/src/core/lv_obj_class.c ****     }
 118:Middlewares/lvgl/src/core/lv_obj_class.c **** 
 119:Middlewares/lvgl/src/core/lv_obj_class.c ****     lv_obj_t * parent = lv_obj_get_parent(obj);
 120:Middlewares/lvgl/src/core/lv_obj_class.c ****     if(parent) {
 121:Middlewares/lvgl/src/core/lv_obj_class.c ****         /*Call the ancestor's event handler to the parent to notify it about the new child.
 122:Middlewares/lvgl/src/core/lv_obj_class.c ****          *Also triggers layout update*/
 123:Middlewares/lvgl/src/core/lv_obj_class.c ****         lv_event_send(parent, LV_EVENT_CHILD_CHANGED, obj);
 124:Middlewares/lvgl/src/core/lv_obj_class.c **** 
 125:Middlewares/lvgl/src/core/lv_obj_class.c ****         /*Invalidate the area if not screen created*/
 126:Middlewares/lvgl/src/core/lv_obj_class.c ****         lv_obj_invalidate(obj);
 127:Middlewares/lvgl/src/core/lv_obj_class.c ****     }
 128:Middlewares/lvgl/src/core/lv_obj_class.c **** }
 129:Middlewares/lvgl/src/core/lv_obj_class.c **** 
 130:Middlewares/lvgl/src/core/lv_obj_class.c **** void _lv_obj_destructor(lv_obj_t * obj)
 131:Middlewares/lvgl/src/core/lv_obj_class.c **** {
 132:Middlewares/lvgl/src/core/lv_obj_class.c ****     if(obj->class_p->destructor_cb) obj->class_p->destructor_cb(obj->class_p, obj);
 133:Middlewares/lvgl/src/core/lv_obj_class.c **** 
 134:Middlewares/lvgl/src/core/lv_obj_class.c ****     if(obj->class_p->base_class) {
 135:Middlewares/lvgl/src/core/lv_obj_class.c ****         /*Don't let the descendant methods run during destructing the ancestor type*/
 136:Middlewares/lvgl/src/core/lv_obj_class.c ****         obj->class_p = obj->class_p->base_class;
 137:Middlewares/lvgl/src/core/lv_obj_class.c **** 
 138:Middlewares/lvgl/src/core/lv_obj_class.c ****         /*Call the base class's destructor too*/
 139:Middlewares/lvgl/src/core/lv_obj_class.c ****         _lv_obj_destructor(obj);
 140:Middlewares/lvgl/src/core/lv_obj_class.c ****     }
 141:Middlewares/lvgl/src/core/lv_obj_class.c **** }
 142:Middlewares/lvgl/src/core/lv_obj_class.c **** 
 143:Middlewares/lvgl/src/core/lv_obj_class.c **** bool lv_obj_is_editable(lv_obj_t * obj)
 144:Middlewares/lvgl/src/core/lv_obj_class.c **** {
ARM GAS  /tmp/cc4ZvNDe.s 			page 4


 145:Middlewares/lvgl/src/core/lv_obj_class.c ****     const lv_obj_class_t * class_p = obj->class_p;
 146:Middlewares/lvgl/src/core/lv_obj_class.c **** 
 147:Middlewares/lvgl/src/core/lv_obj_class.c ****     /*Find a base in which editable is set*/
 148:Middlewares/lvgl/src/core/lv_obj_class.c ****     while(class_p && class_p->editable == LV_OBJ_CLASS_EDITABLE_INHERIT) class_p = class_p->base_cl
 149:Middlewares/lvgl/src/core/lv_obj_class.c **** 
 150:Middlewares/lvgl/src/core/lv_obj_class.c ****     if(class_p == NULL) return false;
 151:Middlewares/lvgl/src/core/lv_obj_class.c **** 
 152:Middlewares/lvgl/src/core/lv_obj_class.c ****     return class_p->editable == LV_OBJ_CLASS_EDITABLE_TRUE ? true : false;
 153:Middlewares/lvgl/src/core/lv_obj_class.c **** }
 154:Middlewares/lvgl/src/core/lv_obj_class.c **** 
 155:Middlewares/lvgl/src/core/lv_obj_class.c **** bool lv_obj_is_group_def(lv_obj_t * obj)
 156:Middlewares/lvgl/src/core/lv_obj_class.c **** {
 157:Middlewares/lvgl/src/core/lv_obj_class.c ****     const lv_obj_class_t * class_p = obj->class_p;
 158:Middlewares/lvgl/src/core/lv_obj_class.c **** 
 159:Middlewares/lvgl/src/core/lv_obj_class.c ****     /*Find a base in which group_def is set*/
 160:Middlewares/lvgl/src/core/lv_obj_class.c ****     while(class_p && class_p->group_def == LV_OBJ_CLASS_GROUP_DEF_INHERIT) class_p = class_p->base_
 161:Middlewares/lvgl/src/core/lv_obj_class.c **** 
 162:Middlewares/lvgl/src/core/lv_obj_class.c ****     if(class_p == NULL) return false;
 163:Middlewares/lvgl/src/core/lv_obj_class.c **** 
 164:Middlewares/lvgl/src/core/lv_obj_class.c ****     return class_p->group_def == LV_OBJ_CLASS_GROUP_DEF_TRUE ? true : false;
 165:Middlewares/lvgl/src/core/lv_obj_class.c **** }
 166:Middlewares/lvgl/src/core/lv_obj_class.c **** /**********************
 167:Middlewares/lvgl/src/core/lv_obj_class.c ****  *   STATIC FUNCTIONS
 168:Middlewares/lvgl/src/core/lv_obj_class.c ****  **********************/
 169:Middlewares/lvgl/src/core/lv_obj_class.c **** 
 170:Middlewares/lvgl/src/core/lv_obj_class.c **** static void lv_obj_construct(lv_obj_t * obj)
 171:Middlewares/lvgl/src/core/lv_obj_class.c **** {
  29              		.loc 1 171 1 view -0
  30              		.cfi_startproc
  31              		@ args = 0, pretend = 0, frame = 0
  32              		@ frame_needed = 0, uses_anonymous_args = 0
  33              		.loc 1 171 1 is_stmt 0 view .LVU1
  34 0000 38B5     		push	{r3, r4, r5, lr}
  35              	.LCFI0:
  36              		.cfi_def_cfa_offset 16
  37              		.cfi_offset 3, -16
  38              		.cfi_offset 4, -12
  39              		.cfi_offset 5, -8
  40              		.cfi_offset 14, -4
  41 0002 0446     		mov	r4, r0
 172:Middlewares/lvgl/src/core/lv_obj_class.c ****     const lv_obj_class_t * original_class_p = obj->class_p;
  42              		.loc 1 172 5 is_stmt 1 view .LVU2
  43              		.loc 1 172 28 is_stmt 0 view .LVU3
  44 0004 0568     		ldr	r5, [r0]
  45              	.LVL1:
 173:Middlewares/lvgl/src/core/lv_obj_class.c **** 
 174:Middlewares/lvgl/src/core/lv_obj_class.c ****     if(obj->class_p->base_class) {
  46              		.loc 1 174 5 is_stmt 1 view .LVU4
  47              		.loc 1 174 20 is_stmt 0 view .LVU5
  48 0006 2B68     		ldr	r3, [r5]
  49              		.loc 1 174 7 view .LVU6
  50 0008 13B1     		cbz	r3, .L2
 175:Middlewares/lvgl/src/core/lv_obj_class.c ****         /*Don't let the descendant methods run during constructing the ancestor type*/
 176:Middlewares/lvgl/src/core/lv_obj_class.c ****         obj->class_p = obj->class_p->base_class;
  51              		.loc 1 176 9 is_stmt 1 view .LVU7
  52              		.loc 1 176 22 is_stmt 0 view .LVU8
  53 000a 0360     		str	r3, [r0]
ARM GAS  /tmp/cc4ZvNDe.s 			page 5


 177:Middlewares/lvgl/src/core/lv_obj_class.c **** 
 178:Middlewares/lvgl/src/core/lv_obj_class.c ****         /*Construct the base first*/
 179:Middlewares/lvgl/src/core/lv_obj_class.c ****         lv_obj_construct(obj);
  54              		.loc 1 179 9 is_stmt 1 view .LVU9
  55 000c FFF7F8FF 		bl	lv_obj_construct
  56              	.LVL2:
  57              	.L2:
 180:Middlewares/lvgl/src/core/lv_obj_class.c ****     }
 181:Middlewares/lvgl/src/core/lv_obj_class.c **** 
 182:Middlewares/lvgl/src/core/lv_obj_class.c ****     /*Restore the original class*/
 183:Middlewares/lvgl/src/core/lv_obj_class.c ****     obj->class_p = original_class_p;
  58              		.loc 1 183 5 view .LVU10
  59              		.loc 1 183 18 is_stmt 0 view .LVU11
  60 0010 2560     		str	r5, [r4]
 184:Middlewares/lvgl/src/core/lv_obj_class.c **** 
 185:Middlewares/lvgl/src/core/lv_obj_class.c ****     if(obj->class_p->constructor_cb) obj->class_p->constructor_cb(obj->class_p, obj);
  61              		.loc 1 185 5 is_stmt 1 view .LVU12
  62              		.loc 1 185 20 is_stmt 0 view .LVU13
  63 0012 6B68     		ldr	r3, [r5, #4]
  64              		.loc 1 185 7 view .LVU14
  65 0014 13B1     		cbz	r3, .L1
  66              		.loc 1 185 38 is_stmt 1 discriminator 1 view .LVU15
  67 0016 2146     		mov	r1, r4
  68 0018 2846     		mov	r0, r5
  69 001a 9847     		blx	r3
  70              	.LVL3:
  71              	.L1:
 186:Middlewares/lvgl/src/core/lv_obj_class.c **** }
  72              		.loc 1 186 1 is_stmt 0 view .LVU16
  73 001c 38BD     		pop	{r3, r4, r5, pc}
  74              		.loc 1 186 1 view .LVU17
  75              		.cfi_endproc
  76              	.LFE152:
  78              		.section	.text.get_instance_size,"ax",%progbits
  79              		.align	1
  80              		.syntax unified
  81              		.thumb
  82              		.thumb_func
  84              	get_instance_size:
  85              	.LVL4:
  86              	.LFB153:
 187:Middlewares/lvgl/src/core/lv_obj_class.c **** 
 188:Middlewares/lvgl/src/core/lv_obj_class.c **** static uint32_t get_instance_size(const lv_obj_class_t * class_p)
 189:Middlewares/lvgl/src/core/lv_obj_class.c **** {
  87              		.loc 1 189 1 is_stmt 1 view -0
  88              		.cfi_startproc
  89              		@ args = 0, pretend = 0, frame = 0
  90              		@ frame_needed = 0, uses_anonymous_args = 0
  91              		@ link register save eliminated.
 190:Middlewares/lvgl/src/core/lv_obj_class.c ****     /*Find a base in which instance size is set*/
 191:Middlewares/lvgl/src/core/lv_obj_class.c ****     const lv_obj_class_t * base = class_p;
  92              		.loc 1 191 5 view .LVU19
 192:Middlewares/lvgl/src/core/lv_obj_class.c ****     while(base && base->instance_size == 0) base = base->base_class;
  93              		.loc 1 192 5 view .LVU20
  94              		.loc 1 192 10 is_stmt 0 view .LVU21
  95 0000 00E0     		b	.L6
  96              	.LVL5:
ARM GAS  /tmp/cc4ZvNDe.s 			page 6


  97              	.L8:
  98              		.loc 1 192 45 is_stmt 1 discriminator 3 view .LVU22
  99              		.loc 1 192 50 is_stmt 0 discriminator 3 view .LVU23
 100 0002 0068     		ldr	r0, [r0]
 101              	.LVL6:
 102              	.L6:
 103              		.loc 1 192 10 is_stmt 1 discriminator 1 view .LVU24
 104 0004 20B1     		cbz	r0, .L7
 105              		.loc 1 192 39 is_stmt 0 discriminator 2 view .LVU25
 106 0006 8269     		ldr	r2, [r0, #24]
 107 0008 054B     		ldr	r3, .L11
 108 000a 1340     		ands	r3, r3, r2
 109              		.loc 1 192 16 discriminator 2 view .LVU26
 110 000c 002B     		cmp	r3, #0
 111 000e F8D0     		beq	.L8
 112              	.L7:
 193:Middlewares/lvgl/src/core/lv_obj_class.c **** 
 194:Middlewares/lvgl/src/core/lv_obj_class.c ****     if(base == NULL) return 0;  /*Never happens: set at least in `lv_obj` class*/
 113              		.loc 1 194 5 is_stmt 1 view .LVU27
 114              		.loc 1 194 7 is_stmt 0 view .LVU28
 115 0010 18B1     		cbz	r0, .L10
 195:Middlewares/lvgl/src/core/lv_obj_class.c **** 
 196:Middlewares/lvgl/src/core/lv_obj_class.c ****     return base->instance_size;
 116              		.loc 1 196 5 is_stmt 1 view .LVU29
 117              		.loc 1 196 16 is_stmt 0 view .LVU30
 118 0012 8069     		ldr	r0, [r0, #24]
 119              	.LVL7:
 120              		.loc 1 196 16 view .LVU31
 121 0014 C0F30F10 		ubfx	r0, r0, #4, #16
 122 0018 7047     		bx	lr
 123              	.LVL8:
 124              	.L10:
 194:Middlewares/lvgl/src/core/lv_obj_class.c **** 
 125              		.loc 1 194 29 view .LVU32
 126 001a 0020     		movs	r0, #0
 127              	.LVL9:
 197:Middlewares/lvgl/src/core/lv_obj_class.c **** }
 128              		.loc 1 197 1 view .LVU33
 129 001c 7047     		bx	lr
 130              	.L12:
 131 001e 00BF     		.align	2
 132              	.L11:
 133 0020 F0FF0F00 		.word	1048560
 134              		.cfi_endproc
 135              	.LFE153:
 137              		.section	.text.lv_obj_class_create_obj,"ax",%progbits
 138              		.align	1
 139              		.global	lv_obj_class_create_obj
 140              		.syntax unified
 141              		.thumb
 142              		.thumb_func
 144              	lv_obj_class_create_obj:
 145              	.LVL10:
 146              	.LFB147:
  44:Middlewares/lvgl/src/core/lv_obj_class.c ****     LV_TRACE_OBJ_CREATE("Creating object with %p class on %p parent", class_p, parent);
 147              		.loc 1 44 1 is_stmt 1 view -0
 148              		.cfi_startproc
ARM GAS  /tmp/cc4ZvNDe.s 			page 7


 149              		@ args = 0, pretend = 0, frame = 0
 150              		@ frame_needed = 0, uses_anonymous_args = 0
  44:Middlewares/lvgl/src/core/lv_obj_class.c ****     LV_TRACE_OBJ_CREATE("Creating object with %p class on %p parent", class_p, parent);
 151              		.loc 1 44 1 is_stmt 0 view .LVU35
 152 0000 F8B5     		push	{r3, r4, r5, r6, r7, lr}
 153              	.LCFI1:
 154              		.cfi_def_cfa_offset 24
 155              		.cfi_offset 3, -24
 156              		.cfi_offset 4, -20
 157              		.cfi_offset 5, -16
 158              		.cfi_offset 6, -12
 159              		.cfi_offset 7, -8
 160              		.cfi_offset 14, -4
 161 0002 0546     		mov	r5, r0
 162 0004 0C46     		mov	r4, r1
  45:Middlewares/lvgl/src/core/lv_obj_class.c ****     uint32_t s = get_instance_size(class_p);
 163              		.loc 1 45 87 is_stmt 1 view .LVU36
  46:Middlewares/lvgl/src/core/lv_obj_class.c ****     lv_obj_t * obj = lv_mem_alloc(s);
 164              		.loc 1 46 5 view .LVU37
  46:Middlewares/lvgl/src/core/lv_obj_class.c ****     lv_obj_t * obj = lv_mem_alloc(s);
 165              		.loc 1 46 18 is_stmt 0 view .LVU38
 166 0006 FFF7FEFF 		bl	get_instance_size
 167              	.LVL11:
  46:Middlewares/lvgl/src/core/lv_obj_class.c ****     lv_obj_t * obj = lv_mem_alloc(s);
 168              		.loc 1 46 18 view .LVU39
 169 000a 0646     		mov	r6, r0
 170              	.LVL12:
  47:Middlewares/lvgl/src/core/lv_obj_class.c ****     if(obj == NULL) return NULL;
 171              		.loc 1 47 5 is_stmt 1 view .LVU40
  47:Middlewares/lvgl/src/core/lv_obj_class.c ****     if(obj == NULL) return NULL;
 172              		.loc 1 47 22 is_stmt 0 view .LVU41
 173 000c FFF7FEFF 		bl	lv_mem_alloc
 174              	.LVL13:
  48:Middlewares/lvgl/src/core/lv_obj_class.c ****     lv_memset_00(obj, s);
 175              		.loc 1 48 5 is_stmt 1 view .LVU42
  48:Middlewares/lvgl/src/core/lv_obj_class.c ****     lv_memset_00(obj, s);
 176              		.loc 1 48 7 is_stmt 0 view .LVU43
 177 0010 0746     		mov	r7, r0
 178 0012 F0B1     		cbz	r0, .L13
  49:Middlewares/lvgl/src/core/lv_obj_class.c ****     obj->class_p = class_p;
 179              		.loc 1 49 5 is_stmt 1 view .LVU44
 180 0014 3146     		mov	r1, r6
 181 0016 FFF7FEFF 		bl	lv_memset_00
 182              	.LVL14:
  50:Middlewares/lvgl/src/core/lv_obj_class.c ****     obj->parent = parent;
 183              		.loc 1 50 5 view .LVU45
  50:Middlewares/lvgl/src/core/lv_obj_class.c ****     obj->parent = parent;
 184              		.loc 1 50 18 is_stmt 0 view .LVU46
 185 001a 3D60     		str	r5, [r7]
  51:Middlewares/lvgl/src/core/lv_obj_class.c **** 
 186              		.loc 1 51 5 is_stmt 1 view .LVU47
  51:Middlewares/lvgl/src/core/lv_obj_class.c **** 
 187              		.loc 1 51 17 is_stmt 0 view .LVU48
 188 001c 7C60     		str	r4, [r7, #4]
  54:Middlewares/lvgl/src/core/lv_obj_class.c ****         LV_TRACE_OBJ_CREATE("creating a screen");
 189              		.loc 1 54 5 is_stmt 1 view .LVU49
  54:Middlewares/lvgl/src/core/lv_obj_class.c ****         LV_TRACE_OBJ_CREATE("creating a screen");
ARM GAS  /tmp/cc4ZvNDe.s 			page 8


 190              		.loc 1 54 7 is_stmt 0 view .LVU50
 191 001e D4B1     		cbz	r4, .L22
  80:Middlewares/lvgl/src/core/lv_obj_class.c ****         LV_ASSERT_OBJ(parent, MY_CLASS);
 192              		.loc 1 80 54 is_stmt 1 view .LVU51
  81:Middlewares/lvgl/src/core/lv_obj_class.c ****         if(parent->spec_attr == NULL) {
 193              		.loc 1 81 9 view .LVU52
  81:Middlewares/lvgl/src/core/lv_obj_class.c ****         if(parent->spec_attr == NULL) {
 194              		.loc 1 81 9 view .LVU53
  81:Middlewares/lvgl/src/core/lv_obj_class.c ****         if(parent->spec_attr == NULL) {
 195              		.loc 1 81 9 view .LVU54
  82:Middlewares/lvgl/src/core/lv_obj_class.c ****             lv_obj_allocate_spec_attr(parent);
 196              		.loc 1 82 9 view .LVU55
  82:Middlewares/lvgl/src/core/lv_obj_class.c ****             lv_obj_allocate_spec_attr(parent);
 197              		.loc 1 82 18 is_stmt 0 view .LVU56
 198 0020 A368     		ldr	r3, [r4, #8]
  82:Middlewares/lvgl/src/core/lv_obj_class.c ****             lv_obj_allocate_spec_attr(parent);
 199              		.loc 1 82 11 view .LVU57
 200 0022 002B     		cmp	r3, #0
 201 0024 43D0     		beq	.L23
 202              	.L18:
  86:Middlewares/lvgl/src/core/lv_obj_class.c ****             parent->spec_attr->children = lv_mem_alloc(sizeof(lv_obj_t *));
 203              		.loc 1 86 9 is_stmt 1 view .LVU58
  86:Middlewares/lvgl/src/core/lv_obj_class.c ****             parent->spec_attr->children = lv_mem_alloc(sizeof(lv_obj_t *));
 204              		.loc 1 86 18 is_stmt 0 view .LVU59
 205 0026 A568     		ldr	r5, [r4, #8]
 206              	.LVL15:
  86:Middlewares/lvgl/src/core/lv_obj_class.c ****             parent->spec_attr->children = lv_mem_alloc(sizeof(lv_obj_t *));
 207              		.loc 1 86 29 view .LVU60
 208 0028 2B68     		ldr	r3, [r5]
  86:Middlewares/lvgl/src/core/lv_obj_class.c ****             parent->spec_attr->children = lv_mem_alloc(sizeof(lv_obj_t *));
 209              		.loc 1 86 11 view .LVU61
 210 002a 002B     		cmp	r3, #0
 211 002c 43D0     		beq	.L24
  91:Middlewares/lvgl/src/core/lv_obj_class.c ****             parent->spec_attr->children = lv_mem_realloc(parent->spec_attr->children, sizeof(lv_obj
 212              		.loc 1 91 13 is_stmt 1 view .LVU62
  91:Middlewares/lvgl/src/core/lv_obj_class.c ****             parent->spec_attr->children = lv_mem_realloc(parent->spec_attr->children, sizeof(lv_obj
 213              		.loc 1 91 30 is_stmt 0 view .LVU63
 214 002e 6B68     		ldr	r3, [r5, #4]
  91:Middlewares/lvgl/src/core/lv_obj_class.c ****             parent->spec_attr->children = lv_mem_realloc(parent->spec_attr->children, sizeof(lv_obj
 215              		.loc 1 91 41 view .LVU64
 216 0030 0133     		adds	r3, r3, #1
 217 0032 6B60     		str	r3, [r5, #4]
  92:Middlewares/lvgl/src/core/lv_obj_class.c ****             parent->spec_attr->children[parent->spec_attr->child_cnt - 1] = obj;
 218              		.loc 1 92 13 is_stmt 1 view .LVU65
  92:Middlewares/lvgl/src/core/lv_obj_class.c ****             parent->spec_attr->children[parent->spec_attr->child_cnt - 1] = obj;
 219              		.loc 1 92 64 is_stmt 0 view .LVU66
 220 0034 A568     		ldr	r5, [r4, #8]
  92:Middlewares/lvgl/src/core/lv_obj_class.c ****             parent->spec_attr->children[parent->spec_attr->child_cnt - 1] = obj;
 221              		.loc 1 92 125 view .LVU67
 222 0036 6968     		ldr	r1, [r5, #4]
  92:Middlewares/lvgl/src/core/lv_obj_class.c ****             parent->spec_attr->children[parent->spec_attr->child_cnt - 1] = obj;
 223              		.loc 1 92 43 view .LVU68
 224 0038 8900     		lsls	r1, r1, #2
 225 003a 2868     		ldr	r0, [r5]
 226 003c FFF7FEFF 		bl	lv_mem_realloc
 227              	.LVL16:
  92:Middlewares/lvgl/src/core/lv_obj_class.c ****             parent->spec_attr->children[parent->spec_attr->child_cnt - 1] = obj;
ARM GAS  /tmp/cc4ZvNDe.s 			page 9


 228              		.loc 1 92 41 view .LVU69
 229 0040 2860     		str	r0, [r5]
  93:Middlewares/lvgl/src/core/lv_obj_class.c ****         }
 230              		.loc 1 93 13 is_stmt 1 view .LVU70
  93:Middlewares/lvgl/src/core/lv_obj_class.c ****         }
 231              		.loc 1 93 19 is_stmt 0 view .LVU71
 232 0042 A368     		ldr	r3, [r4, #8]
  93:Middlewares/lvgl/src/core/lv_obj_class.c ****         }
 233              		.loc 1 93 30 view .LVU72
 234 0044 1A68     		ldr	r2, [r3]
  93:Middlewares/lvgl/src/core/lv_obj_class.c ****         }
 235              		.loc 1 93 58 view .LVU73
 236 0046 5B68     		ldr	r3, [r3, #4]
  93:Middlewares/lvgl/src/core/lv_obj_class.c ****         }
 237              		.loc 1 93 40 view .LVU74
 238 0048 03F18043 		add	r3, r3, #1073741824
 239 004c 013B     		subs	r3, r3, #1
  93:Middlewares/lvgl/src/core/lv_obj_class.c ****         }
 240              		.loc 1 93 75 view .LVU75
 241 004e 42F82370 		str	r7, [r2, r3, lsl #2]
 242              	.LVL17:
 243              	.L13:
  98:Middlewares/lvgl/src/core/lv_obj_class.c **** 
 244              		.loc 1 98 1 view .LVU76
 245 0052 3846     		mov	r0, r7
 246 0054 F8BD     		pop	{r3, r4, r5, r6, r7, pc}
 247              	.LVL18:
 248              	.L22:
 249              	.LBB2:
  55:Middlewares/lvgl/src/core/lv_obj_class.c ****         lv_disp_t * disp = lv_disp_get_default();
 250              		.loc 1 55 49 is_stmt 1 view .LVU77
  56:Middlewares/lvgl/src/core/lv_obj_class.c ****         if(!disp) {
 251              		.loc 1 56 9 view .LVU78
  56:Middlewares/lvgl/src/core/lv_obj_class.c ****         if(!disp) {
 252              		.loc 1 56 28 is_stmt 0 view .LVU79
 253 0056 FFF7FEFF 		bl	lv_disp_get_default
 254              	.LVL19:
  57:Middlewares/lvgl/src/core/lv_obj_class.c ****             LV_LOG_WARN("No display created to so far. No place to assign the new screen");
 255              		.loc 1 57 9 is_stmt 1 view .LVU80
  57:Middlewares/lvgl/src/core/lv_obj_class.c ****             LV_LOG_WARN("No display created to so far. No place to assign the new screen");
 256              		.loc 1 57 11 is_stmt 0 view .LVU81
 257 005a 0446     		mov	r4, r0
 258              	.LVL20:
  57:Middlewares/lvgl/src/core/lv_obj_class.c ****             LV_LOG_WARN("No display created to so far. No place to assign the new screen");
 259              		.loc 1 57 11 view .LVU82
 260 005c 0028     		cmp	r0, #0
 261 005e 35D0     		beq	.L20
  62:Middlewares/lvgl/src/core/lv_obj_class.c ****             disp->screens = lv_mem_alloc(sizeof(lv_obj_t *));
 262              		.loc 1 62 9 is_stmt 1 view .LVU83
  62:Middlewares/lvgl/src/core/lv_obj_class.c ****             disp->screens = lv_mem_alloc(sizeof(lv_obj_t *));
 263              		.loc 1 62 16 is_stmt 0 view .LVU84
 264 0060 C068     		ldr	r0, [r0, #12]
 265              	.LVL21:
  62:Middlewares/lvgl/src/core/lv_obj_class.c ****             disp->screens = lv_mem_alloc(sizeof(lv_obj_t *));
 266              		.loc 1 62 11 view .LVU85
 267 0062 E0B1     		cbz	r0, .L25
  67:Middlewares/lvgl/src/core/lv_obj_class.c ****             disp->screens = lv_mem_realloc(disp->screens, sizeof(lv_obj_t *) * disp->screen_cnt);
ARM GAS  /tmp/cc4ZvNDe.s 			page 10


 268              		.loc 1 67 13 is_stmt 1 view .LVU86
  67:Middlewares/lvgl/src/core/lv_obj_class.c ****             disp->screens = lv_mem_realloc(disp->screens, sizeof(lv_obj_t *) * disp->screen_cnt);
 269              		.loc 1 67 17 is_stmt 0 view .LVU87
 270 0064 616A     		ldr	r1, [r4, #36]
  67:Middlewares/lvgl/src/core/lv_obj_class.c ****             disp->screens = lv_mem_realloc(disp->screens, sizeof(lv_obj_t *) * disp->screen_cnt);
 271              		.loc 1 67 29 view .LVU88
 272 0066 0131     		adds	r1, r1, #1
 273 0068 6162     		str	r1, [r4, #36]
  68:Middlewares/lvgl/src/core/lv_obj_class.c ****             disp->screens[disp->screen_cnt - 1] = obj;
 274              		.loc 1 68 13 is_stmt 1 view .LVU89
  68:Middlewares/lvgl/src/core/lv_obj_class.c ****             disp->screens[disp->screen_cnt - 1] = obj;
 275              		.loc 1 68 29 is_stmt 0 view .LVU90
 276 006a 8900     		lsls	r1, r1, #2
 277 006c FFF7FEFF 		bl	lv_mem_realloc
 278              	.LVL22:
  68:Middlewares/lvgl/src/core/lv_obj_class.c ****             disp->screens[disp->screen_cnt - 1] = obj;
 279              		.loc 1 68 27 view .LVU91
 280 0070 E060     		str	r0, [r4, #12]
  69:Middlewares/lvgl/src/core/lv_obj_class.c ****         }
 281              		.loc 1 69 13 is_stmt 1 view .LVU92
  69:Middlewares/lvgl/src/core/lv_obj_class.c ****         }
 282              		.loc 1 69 31 is_stmt 0 view .LVU93
 283 0072 636A     		ldr	r3, [r4, #36]
  69:Middlewares/lvgl/src/core/lv_obj_class.c ****         }
 284              		.loc 1 69 26 view .LVU94
 285 0074 03F18043 		add	r3, r3, #1073741824
 286 0078 013B     		subs	r3, r3, #1
  69:Middlewares/lvgl/src/core/lv_obj_class.c ****         }
 287              		.loc 1 69 49 view .LVU95
 288 007a 40F82370 		str	r7, [r0, r3, lsl #2]
 289              	.L17:
  73:Middlewares/lvgl/src/core/lv_obj_class.c ****         obj->coords.y1 = 0;
 290              		.loc 1 73 9 is_stmt 1 view .LVU96
  73:Middlewares/lvgl/src/core/lv_obj_class.c ****         obj->coords.y1 = 0;
 291              		.loc 1 73 24 is_stmt 0 view .LVU97
 292 007e 0024     		movs	r4, #0
 293              	.LVL23:
  73:Middlewares/lvgl/src/core/lv_obj_class.c ****         obj->coords.y1 = 0;
 294              		.loc 1 73 24 view .LVU98
 295 0080 BC82     		strh	r4, [r7, #20]	@ movhi
  74:Middlewares/lvgl/src/core/lv_obj_class.c ****         obj->coords.x2 = lv_disp_get_hor_res(NULL) - 1;
 296              		.loc 1 74 9 is_stmt 1 view .LVU99
  74:Middlewares/lvgl/src/core/lv_obj_class.c ****         obj->coords.x2 = lv_disp_get_hor_res(NULL) - 1;
 297              		.loc 1 74 24 is_stmt 0 view .LVU100
 298 0082 FC82     		strh	r4, [r7, #22]	@ movhi
  75:Middlewares/lvgl/src/core/lv_obj_class.c ****         obj->coords.y2 = lv_disp_get_ver_res(NULL) - 1;
 299              		.loc 1 75 9 is_stmt 1 view .LVU101
  75:Middlewares/lvgl/src/core/lv_obj_class.c ****         obj->coords.y2 = lv_disp_get_ver_res(NULL) - 1;
 300              		.loc 1 75 26 is_stmt 0 view .LVU102
 301 0084 2046     		mov	r0, r4
 302 0086 FFF7FEFF 		bl	lv_disp_get_hor_res
 303              	.LVL24:
 304 008a 80B2     		uxth	r0, r0
  75:Middlewares/lvgl/src/core/lv_obj_class.c ****         obj->coords.y2 = lv_disp_get_ver_res(NULL) - 1;
 305              		.loc 1 75 52 view .LVU103
 306 008c 0138     		subs	r0, r0, #1
  75:Middlewares/lvgl/src/core/lv_obj_class.c ****         obj->coords.y2 = lv_disp_get_ver_res(NULL) - 1;
ARM GAS  /tmp/cc4ZvNDe.s 			page 11


 307              		.loc 1 75 24 view .LVU104
 308 008e 3883     		strh	r0, [r7, #24]	@ movhi
  76:Middlewares/lvgl/src/core/lv_obj_class.c ****     }
 309              		.loc 1 76 9 is_stmt 1 view .LVU105
  76:Middlewares/lvgl/src/core/lv_obj_class.c ****     }
 310              		.loc 1 76 26 is_stmt 0 view .LVU106
 311 0090 2046     		mov	r0, r4
 312 0092 FFF7FEFF 		bl	lv_disp_get_ver_res
 313              	.LVL25:
 314 0096 80B2     		uxth	r0, r0
  76:Middlewares/lvgl/src/core/lv_obj_class.c ****     }
 315              		.loc 1 76 52 view .LVU107
 316 0098 0138     		subs	r0, r0, #1
  76:Middlewares/lvgl/src/core/lv_obj_class.c ****     }
 317              		.loc 1 76 24 view .LVU108
 318 009a 7883     		strh	r0, [r7, #26]	@ movhi
 319              	.LBE2:
 320 009c D9E7     		b	.L13
 321              	.LVL26:
 322              	.L25:
 323              	.LBB3:
  63:Middlewares/lvgl/src/core/lv_obj_class.c ****             disp->screens[0] = obj;
 324              		.loc 1 63 13 is_stmt 1 view .LVU109
  63:Middlewares/lvgl/src/core/lv_obj_class.c ****             disp->screens[0] = obj;
 325              		.loc 1 63 29 is_stmt 0 view .LVU110
 326 009e 0420     		movs	r0, #4
 327 00a0 FFF7FEFF 		bl	lv_mem_alloc
 328              	.LVL27:
  63:Middlewares/lvgl/src/core/lv_obj_class.c ****             disp->screens[0] = obj;
 329              		.loc 1 63 27 view .LVU111
 330 00a4 E060     		str	r0, [r4, #12]
  64:Middlewares/lvgl/src/core/lv_obj_class.c ****             disp->screen_cnt = 1;
 331              		.loc 1 64 13 is_stmt 1 view .LVU112
  64:Middlewares/lvgl/src/core/lv_obj_class.c ****             disp->screen_cnt = 1;
 332              		.loc 1 64 30 is_stmt 0 view .LVU113
 333 00a6 0760     		str	r7, [r0]
  65:Middlewares/lvgl/src/core/lv_obj_class.c ****         } else {
 334              		.loc 1 65 13 is_stmt 1 view .LVU114
  65:Middlewares/lvgl/src/core/lv_obj_class.c ****         } else {
 335              		.loc 1 65 30 is_stmt 0 view .LVU115
 336 00a8 0123     		movs	r3, #1
 337 00aa 6362     		str	r3, [r4, #36]
 338 00ac E7E7     		b	.L17
 339              	.LVL28:
 340              	.L23:
  65:Middlewares/lvgl/src/core/lv_obj_class.c ****         } else {
 341              		.loc 1 65 30 view .LVU116
 342              	.LBE3:
  83:Middlewares/lvgl/src/core/lv_obj_class.c ****         }
 343              		.loc 1 83 13 is_stmt 1 view .LVU117
 344 00ae 2046     		mov	r0, r4
 345 00b0 FFF7FEFF 		bl	lv_obj_allocate_spec_attr
 346              	.LVL29:
 347 00b4 B7E7     		b	.L18
 348              	.LVL30:
 349              	.L24:
  87:Middlewares/lvgl/src/core/lv_obj_class.c ****             parent->spec_attr->children[0] = obj;
ARM GAS  /tmp/cc4ZvNDe.s 			page 12


 350              		.loc 1 87 13 view .LVU118
  87:Middlewares/lvgl/src/core/lv_obj_class.c ****             parent->spec_attr->children[0] = obj;
 351              		.loc 1 87 43 is_stmt 0 view .LVU119
 352 00b6 0420     		movs	r0, #4
 353 00b8 FFF7FEFF 		bl	lv_mem_alloc
 354              	.LVL31:
  87:Middlewares/lvgl/src/core/lv_obj_class.c ****             parent->spec_attr->children[0] = obj;
 355              		.loc 1 87 41 view .LVU120
 356 00bc 2860     		str	r0, [r5]
  88:Middlewares/lvgl/src/core/lv_obj_class.c ****             parent->spec_attr->child_cnt = 1;
 357              		.loc 1 88 13 is_stmt 1 view .LVU121
  88:Middlewares/lvgl/src/core/lv_obj_class.c ****             parent->spec_attr->child_cnt = 1;
 358              		.loc 1 88 19 is_stmt 0 view .LVU122
 359 00be A368     		ldr	r3, [r4, #8]
  88:Middlewares/lvgl/src/core/lv_obj_class.c ****             parent->spec_attr->child_cnt = 1;
 360              		.loc 1 88 30 view .LVU123
 361 00c0 1B68     		ldr	r3, [r3]
  88:Middlewares/lvgl/src/core/lv_obj_class.c ****             parent->spec_attr->child_cnt = 1;
 362              		.loc 1 88 44 view .LVU124
 363 00c2 1F60     		str	r7, [r3]
  89:Middlewares/lvgl/src/core/lv_obj_class.c ****         } else {
 364              		.loc 1 89 13 is_stmt 1 view .LVU125
  89:Middlewares/lvgl/src/core/lv_obj_class.c ****         } else {
 365              		.loc 1 89 19 is_stmt 0 view .LVU126
 366 00c4 A368     		ldr	r3, [r4, #8]
  89:Middlewares/lvgl/src/core/lv_obj_class.c ****         } else {
 367              		.loc 1 89 42 view .LVU127
 368 00c6 0122     		movs	r2, #1
 369 00c8 5A60     		str	r2, [r3, #4]
 370 00ca C2E7     		b	.L13
 371              	.LVL32:
 372              	.L20:
 373              	.LBB4:
  59:Middlewares/lvgl/src/core/lv_obj_class.c ****         }
 374              		.loc 1 59 20 view .LVU128
 375 00cc 0746     		mov	r7, r0
 376              	.LVL33:
  59:Middlewares/lvgl/src/core/lv_obj_class.c ****         }
 377              		.loc 1 59 20 view .LVU129
 378 00ce C0E7     		b	.L13
 379              	.LBE4:
 380              		.cfi_endproc
 381              	.LFE147:
 383              		.section	.text._lv_obj_destructor,"ax",%progbits
 384              		.align	1
 385              		.global	_lv_obj_destructor
 386              		.syntax unified
 387              		.thumb
 388              		.thumb_func
 390              	_lv_obj_destructor:
 391              	.LVL34:
 392              	.LFB149:
 131:Middlewares/lvgl/src/core/lv_obj_class.c ****     if(obj->class_p->destructor_cb) obj->class_p->destructor_cb(obj->class_p, obj);
 393              		.loc 1 131 1 is_stmt 1 view -0
 394              		.cfi_startproc
 395              		@ args = 0, pretend = 0, frame = 0
 396              		@ frame_needed = 0, uses_anonymous_args = 0
ARM GAS  /tmp/cc4ZvNDe.s 			page 13


 131:Middlewares/lvgl/src/core/lv_obj_class.c ****     if(obj->class_p->destructor_cb) obj->class_p->destructor_cb(obj->class_p, obj);
 397              		.loc 1 131 1 is_stmt 0 view .LVU131
 398 0000 10B5     		push	{r4, lr}
 399              	.LCFI2:
 400              		.cfi_def_cfa_offset 8
 401              		.cfi_offset 4, -8
 402              		.cfi_offset 14, -4
 403 0002 0446     		mov	r4, r0
 132:Middlewares/lvgl/src/core/lv_obj_class.c **** 
 404              		.loc 1 132 5 is_stmt 1 view .LVU132
 132:Middlewares/lvgl/src/core/lv_obj_class.c **** 
 405              		.loc 1 132 11 is_stmt 0 view .LVU133
 406 0004 0068     		ldr	r0, [r0]
 407              	.LVL35:
 132:Middlewares/lvgl/src/core/lv_obj_class.c **** 
 408              		.loc 1 132 20 view .LVU134
 409 0006 8368     		ldr	r3, [r0, #8]
 132:Middlewares/lvgl/src/core/lv_obj_class.c **** 
 410              		.loc 1 132 7 view .LVU135
 411 0008 0BB1     		cbz	r3, .L27
 132:Middlewares/lvgl/src/core/lv_obj_class.c **** 
 412              		.loc 1 132 37 is_stmt 1 discriminator 1 view .LVU136
 413 000a 2146     		mov	r1, r4
 414 000c 9847     		blx	r3
 415              	.LVL36:
 416              	.L27:
 134:Middlewares/lvgl/src/core/lv_obj_class.c ****         /*Don't let the descendant methods run during destructing the ancestor type*/
 417              		.loc 1 134 5 view .LVU137
 134:Middlewares/lvgl/src/core/lv_obj_class.c ****         /*Don't let the descendant methods run during destructing the ancestor type*/
 418              		.loc 1 134 11 is_stmt 0 view .LVU138
 419 000e 2368     		ldr	r3, [r4]
 134:Middlewares/lvgl/src/core/lv_obj_class.c ****         /*Don't let the descendant methods run during destructing the ancestor type*/
 420              		.loc 1 134 20 view .LVU139
 421 0010 1B68     		ldr	r3, [r3]
 134:Middlewares/lvgl/src/core/lv_obj_class.c ****         /*Don't let the descendant methods run during destructing the ancestor type*/
 422              		.loc 1 134 7 view .LVU140
 423 0012 1BB1     		cbz	r3, .L26
 136:Middlewares/lvgl/src/core/lv_obj_class.c **** 
 424              		.loc 1 136 9 is_stmt 1 view .LVU141
 136:Middlewares/lvgl/src/core/lv_obj_class.c **** 
 425              		.loc 1 136 22 is_stmt 0 view .LVU142
 426 0014 2360     		str	r3, [r4]
 139:Middlewares/lvgl/src/core/lv_obj_class.c ****     }
 427              		.loc 1 139 9 is_stmt 1 view .LVU143
 428 0016 2046     		mov	r0, r4
 429 0018 FFF7FEFF 		bl	_lv_obj_destructor
 430              	.LVL37:
 431              	.L26:
 141:Middlewares/lvgl/src/core/lv_obj_class.c **** 
 432              		.loc 1 141 1 is_stmt 0 view .LVU144
 433 001c 10BD     		pop	{r4, pc}
 141:Middlewares/lvgl/src/core/lv_obj_class.c **** 
 434              		.loc 1 141 1 view .LVU145
 435              		.cfi_endproc
 436              	.LFE149:
 438              		.section	.text.lv_obj_is_editable,"ax",%progbits
 439              		.align	1
ARM GAS  /tmp/cc4ZvNDe.s 			page 14


 440              		.global	lv_obj_is_editable
 441              		.syntax unified
 442              		.thumb
 443              		.thumb_func
 445              	lv_obj_is_editable:
 446              	.LVL38:
 447              	.LFB150:
 144:Middlewares/lvgl/src/core/lv_obj_class.c ****     const lv_obj_class_t * class_p = obj->class_p;
 448              		.loc 1 144 1 is_stmt 1 view -0
 449              		.cfi_startproc
 450              		@ args = 0, pretend = 0, frame = 0
 451              		@ frame_needed = 0, uses_anonymous_args = 0
 452              		@ link register save eliminated.
 145:Middlewares/lvgl/src/core/lv_obj_class.c **** 
 453              		.loc 1 145 5 view .LVU147
 145:Middlewares/lvgl/src/core/lv_obj_class.c **** 
 454              		.loc 1 145 28 is_stmt 0 view .LVU148
 455 0000 0368     		ldr	r3, [r0]
 456              	.LVL39:
 148:Middlewares/lvgl/src/core/lv_obj_class.c **** 
 457              		.loc 1 148 5 is_stmt 1 view .LVU149
 148:Middlewares/lvgl/src/core/lv_obj_class.c **** 
 458              		.loc 1 148 10 is_stmt 0 view .LVU150
 459 0002 00E0     		b	.L31
 460              	.L33:
 148:Middlewares/lvgl/src/core/lv_obj_class.c **** 
 461              		.loc 1 148 74 is_stmt 1 discriminator 3 view .LVU151
 148:Middlewares/lvgl/src/core/lv_obj_class.c **** 
 462              		.loc 1 148 82 is_stmt 0 discriminator 3 view .LVU152
 463 0004 1B68     		ldr	r3, [r3]
 464              	.LVL40:
 465              	.L31:
 148:Middlewares/lvgl/src/core/lv_obj_class.c **** 
 466              		.loc 1 148 10 is_stmt 1 discriminator 1 view .LVU153
 467 0006 1BB1     		cbz	r3, .L32
 148:Middlewares/lvgl/src/core/lv_obj_class.c **** 
 468              		.loc 1 148 40 is_stmt 0 discriminator 2 view .LVU154
 469 0008 1A7E     		ldrb	r2, [r3, #24]	@ zero_extendqisi2
 148:Middlewares/lvgl/src/core/lv_obj_class.c **** 
 470              		.loc 1 148 19 discriminator 2 view .LVU155
 471 000a 12F0030F 		tst	r2, #3
 472 000e F9D0     		beq	.L33
 473              	.L32:
 150:Middlewares/lvgl/src/core/lv_obj_class.c **** 
 474              		.loc 1 150 5 is_stmt 1 view .LVU156
 150:Middlewares/lvgl/src/core/lv_obj_class.c **** 
 475              		.loc 1 150 7 is_stmt 0 view .LVU157
 476 0010 3BB1     		cbz	r3, .L35
 152:Middlewares/lvgl/src/core/lv_obj_class.c **** }
 477              		.loc 1 152 5 is_stmt 1 view .LVU158
 152:Middlewares/lvgl/src/core/lv_obj_class.c **** }
 478              		.loc 1 152 30 is_stmt 0 view .LVU159
 479 0012 187E     		ldrb	r0, [r3, #24]	@ zero_extendqisi2
 480              	.LVL41:
 152:Middlewares/lvgl/src/core/lv_obj_class.c **** }
 481              		.loc 1 152 67 view .LVU160
 482 0014 00F00300 		and	r0, r0, #3
ARM GAS  /tmp/cc4ZvNDe.s 			page 15


 483 0018 0128     		cmp	r0, #1
 484 001a 14BF     		ite	ne
 485 001c 0020     		movne	r0, #0
 486 001e 0120     		moveq	r0, #1
 487 0020 7047     		bx	lr
 488              	.LVL42:
 489              	.L35:
 150:Middlewares/lvgl/src/core/lv_obj_class.c **** 
 490              		.loc 1 150 32 view .LVU161
 491 0022 0020     		movs	r0, #0
 492              	.LVL43:
 153:Middlewares/lvgl/src/core/lv_obj_class.c **** 
 493              		.loc 1 153 1 view .LVU162
 494 0024 7047     		bx	lr
 495              		.cfi_endproc
 496              	.LFE150:
 498              		.section	.text.lv_obj_is_group_def,"ax",%progbits
 499              		.align	1
 500              		.global	lv_obj_is_group_def
 501              		.syntax unified
 502              		.thumb
 503              		.thumb_func
 505              	lv_obj_is_group_def:
 506              	.LVL44:
 507              	.LFB151:
 156:Middlewares/lvgl/src/core/lv_obj_class.c ****     const lv_obj_class_t * class_p = obj->class_p;
 508              		.loc 1 156 1 is_stmt 1 view -0
 509              		.cfi_startproc
 510              		@ args = 0, pretend = 0, frame = 0
 511              		@ frame_needed = 0, uses_anonymous_args = 0
 512              		@ link register save eliminated.
 157:Middlewares/lvgl/src/core/lv_obj_class.c **** 
 513              		.loc 1 157 5 view .LVU164
 157:Middlewares/lvgl/src/core/lv_obj_class.c **** 
 514              		.loc 1 157 28 is_stmt 0 view .LVU165
 515 0000 0368     		ldr	r3, [r0]
 516              	.LVL45:
 160:Middlewares/lvgl/src/core/lv_obj_class.c **** 
 517              		.loc 1 160 5 is_stmt 1 view .LVU166
 160:Middlewares/lvgl/src/core/lv_obj_class.c **** 
 518              		.loc 1 160 10 is_stmt 0 view .LVU167
 519 0002 00E0     		b	.L37
 520              	.L39:
 160:Middlewares/lvgl/src/core/lv_obj_class.c **** 
 521              		.loc 1 160 76 is_stmt 1 discriminator 3 view .LVU168
 160:Middlewares/lvgl/src/core/lv_obj_class.c **** 
 522              		.loc 1 160 84 is_stmt 0 discriminator 3 view .LVU169
 523 0004 1B68     		ldr	r3, [r3]
 524              	.LVL46:
 525              	.L37:
 160:Middlewares/lvgl/src/core/lv_obj_class.c **** 
 526              		.loc 1 160 10 is_stmt 1 discriminator 1 view .LVU170
 527 0006 1BB1     		cbz	r3, .L38
 160:Middlewares/lvgl/src/core/lv_obj_class.c **** 
 528              		.loc 1 160 41 is_stmt 0 discriminator 2 view .LVU171
 529 0008 1A7E     		ldrb	r2, [r3, #24]	@ zero_extendqisi2
 160:Middlewares/lvgl/src/core/lv_obj_class.c **** 
ARM GAS  /tmp/cc4ZvNDe.s 			page 16


 530              		.loc 1 160 19 discriminator 2 view .LVU172
 531 000a 12F00C0F 		tst	r2, #12
 532 000e F9D0     		beq	.L39
 533              	.L38:
 162:Middlewares/lvgl/src/core/lv_obj_class.c **** 
 534              		.loc 1 162 5 is_stmt 1 view .LVU173
 162:Middlewares/lvgl/src/core/lv_obj_class.c **** 
 535              		.loc 1 162 7 is_stmt 0 view .LVU174
 536 0010 3BB1     		cbz	r3, .L41
 164:Middlewares/lvgl/src/core/lv_obj_class.c **** }
 537              		.loc 1 164 5 is_stmt 1 view .LVU175
 164:Middlewares/lvgl/src/core/lv_obj_class.c **** }
 538              		.loc 1 164 31 is_stmt 0 view .LVU176
 539 0012 187E     		ldrb	r0, [r3, #24]	@ zero_extendqisi2
 540              	.LVL47:
 164:Middlewares/lvgl/src/core/lv_obj_class.c **** }
 541              		.loc 1 164 69 view .LVU177
 542 0014 00F00C00 		and	r0, r0, #12
 543 0018 0428     		cmp	r0, #4
 544 001a 14BF     		ite	ne
 545 001c 0020     		movne	r0, #0
 546 001e 0120     		moveq	r0, #1
 547 0020 7047     		bx	lr
 548              	.LVL48:
 549              	.L41:
 162:Middlewares/lvgl/src/core/lv_obj_class.c **** 
 550              		.loc 1 162 32 view .LVU178
 551 0022 0020     		movs	r0, #0
 552              	.LVL49:
 165:Middlewares/lvgl/src/core/lv_obj_class.c **** /**********************
 553              		.loc 1 165 1 view .LVU179
 554 0024 7047     		bx	lr
 555              		.cfi_endproc
 556              	.LFE151:
 558              		.section	.text.lv_obj_class_init_obj,"ax",%progbits
 559              		.align	1
 560              		.global	lv_obj_class_init_obj
 561              		.syntax unified
 562              		.thumb
 563              		.thumb_func
 565              	lv_obj_class_init_obj:
 566              	.LVL50:
 567              	.LFB148:
 101:Middlewares/lvgl/src/core/lv_obj_class.c ****     lv_obj_mark_layout_as_dirty(obj);
 568              		.loc 1 101 1 is_stmt 1 view -0
 569              		.cfi_startproc
 570              		@ args = 0, pretend = 0, frame = 0
 571              		@ frame_needed = 0, uses_anonymous_args = 0
 101:Middlewares/lvgl/src/core/lv_obj_class.c ****     lv_obj_mark_layout_as_dirty(obj);
 572              		.loc 1 101 1 is_stmt 0 view .LVU181
 573 0000 38B5     		push	{r3, r4, r5, lr}
 574              	.LCFI3:
 575              		.cfi_def_cfa_offset 16
 576              		.cfi_offset 3, -16
 577              		.cfi_offset 4, -12
 578              		.cfi_offset 5, -8
 579              		.cfi_offset 14, -4
ARM GAS  /tmp/cc4ZvNDe.s 			page 17


 580 0002 0446     		mov	r4, r0
 102:Middlewares/lvgl/src/core/lv_obj_class.c ****     lv_obj_enable_style_refresh(false);
 581              		.loc 1 102 5 is_stmt 1 view .LVU182
 582 0004 FFF7FEFF 		bl	lv_obj_mark_layout_as_dirty
 583              	.LVL51:
 103:Middlewares/lvgl/src/core/lv_obj_class.c **** 
 584              		.loc 1 103 5 view .LVU183
 585 0008 0020     		movs	r0, #0
 586 000a FFF7FEFF 		bl	lv_obj_enable_style_refresh
 587              	.LVL52:
 105:Middlewares/lvgl/src/core/lv_obj_class.c ****     lv_obj_construct(obj);
 588              		.loc 1 105 5 view .LVU184
 589 000e 2046     		mov	r0, r4
 590 0010 FFF7FEFF 		bl	lv_theme_apply
 591              	.LVL53:
 106:Middlewares/lvgl/src/core/lv_obj_class.c **** 
 592              		.loc 1 106 5 view .LVU185
 593 0014 2046     		mov	r0, r4
 594 0016 FFF7FEFF 		bl	lv_obj_construct
 595              	.LVL54:
 108:Middlewares/lvgl/src/core/lv_obj_class.c ****     lv_obj_refresh_style(obj, LV_PART_ANY, LV_STYLE_PROP_ANY);
 596              		.loc 1 108 5 view .LVU186
 597 001a 0120     		movs	r0, #1
 598 001c FFF7FEFF 		bl	lv_obj_enable_style_refresh
 599              	.LVL55:
 109:Middlewares/lvgl/src/core/lv_obj_class.c **** 
 600              		.loc 1 109 5 view .LVU187
 601 0020 4FF6FF72 		movw	r2, #65535
 602 0024 4FF47021 		mov	r1, #983040
 603 0028 2046     		mov	r0, r4
 604 002a FFF7FEFF 		bl	lv_obj_refresh_style
 605              	.LVL56:
 111:Middlewares/lvgl/src/core/lv_obj_class.c **** 
 606              		.loc 1 111 5 view .LVU188
 607 002e 2046     		mov	r0, r4
 608 0030 FFF7FEFF 		bl	lv_obj_refresh_self_size
 609              	.LVL57:
 113:Middlewares/lvgl/src/core/lv_obj_class.c ****     if(def_group && lv_obj_is_group_def(obj)) {
 610              		.loc 1 113 5 view .LVU189
 113:Middlewares/lvgl/src/core/lv_obj_class.c ****     if(def_group && lv_obj_is_group_def(obj)) {
 611              		.loc 1 113 30 is_stmt 0 view .LVU190
 612 0034 FFF7FEFF 		bl	lv_group_get_default
 613              	.LVL58:
 114:Middlewares/lvgl/src/core/lv_obj_class.c **** 
 614              		.loc 1 114 5 is_stmt 1 view .LVU191
 114:Middlewares/lvgl/src/core/lv_obj_class.c **** 
 615              		.loc 1 114 7 is_stmt 0 view .LVU192
 616 0038 20B1     		cbz	r0, .L43
 617 003a 0546     		mov	r5, r0
 114:Middlewares/lvgl/src/core/lv_obj_class.c **** 
 618              		.loc 1 114 21 discriminator 1 view .LVU193
 619 003c 2046     		mov	r0, r4
 620              	.LVL59:
 114:Middlewares/lvgl/src/core/lv_obj_class.c **** 
 621              		.loc 1 114 21 discriminator 1 view .LVU194
 622 003e FFF7FEFF 		bl	lv_obj_is_group_def
 623              	.LVL60:
ARM GAS  /tmp/cc4ZvNDe.s 			page 18


 114:Middlewares/lvgl/src/core/lv_obj_class.c **** 
 624              		.loc 1 114 18 discriminator 1 view .LVU195
 625 0042 58B9     		cbnz	r0, .L46
 626              	.LVL61:
 627              	.L43:
 119:Middlewares/lvgl/src/core/lv_obj_class.c ****     if(parent) {
 628              		.loc 1 119 5 is_stmt 1 view .LVU196
 119:Middlewares/lvgl/src/core/lv_obj_class.c ****     if(parent) {
 629              		.loc 1 119 25 is_stmt 0 view .LVU197
 630 0044 2046     		mov	r0, r4
 631 0046 FFF7FEFF 		bl	lv_obj_get_parent
 632              	.LVL62:
 120:Middlewares/lvgl/src/core/lv_obj_class.c ****         /*Call the ancestor's event handler to the parent to notify it about the new child.
 633              		.loc 1 120 5 is_stmt 1 view .LVU198
 120:Middlewares/lvgl/src/core/lv_obj_class.c ****         /*Call the ancestor's event handler to the parent to notify it about the new child.
 634              		.loc 1 120 7 is_stmt 0 view .LVU199
 635 004a 30B1     		cbz	r0, .L42
 123:Middlewares/lvgl/src/core/lv_obj_class.c **** 
 636              		.loc 1 123 9 is_stmt 1 view .LVU200
 637 004c 2246     		mov	r2, r4
 638 004e 2221     		movs	r1, #34
 639 0050 FFF7FEFF 		bl	lv_event_send
 640              	.LVL63:
 126:Middlewares/lvgl/src/core/lv_obj_class.c ****     }
 641              		.loc 1 126 9 view .LVU201
 642 0054 2046     		mov	r0, r4
 643 0056 FFF7FEFF 		bl	lv_obj_invalidate
 644              	.LVL64:
 645              	.L42:
 128:Middlewares/lvgl/src/core/lv_obj_class.c **** 
 646              		.loc 1 128 1 is_stmt 0 view .LVU202
 647 005a 38BD     		pop	{r3, r4, r5, pc}
 648              	.LVL65:
 649              	.L46:
 116:Middlewares/lvgl/src/core/lv_obj_class.c ****     }
 650              		.loc 1 116 9 is_stmt 1 view .LVU203
 651 005c 2146     		mov	r1, r4
 652 005e 2846     		mov	r0, r5
 653 0060 FFF7FEFF 		bl	lv_group_add_obj
 654              	.LVL66:
 655 0064 EEE7     		b	.L43
 656              		.cfi_endproc
 657              	.LFE148:
 659              		.text
 660              	.Letext0:
 661              		.file 2 "/home/akinya/gcc-arm-none-eabi/arm-none-eabi/include/machine/_default_types.h"
 662              		.file 3 "/home/akinya/gcc-arm-none-eabi/arm-none-eabi/include/sys/_stdint.h"
 663              		.file 4 "Middlewares/lvgl/src/core/../misc/../font/../misc/lv_area.h"
 664              		.file 5 "Middlewares/lvgl/src/core/../misc/../font/lv_font.h"
 665              		.file 6 "Middlewares/lvgl/src/core/../misc/lv_color.h"
 666              		.file 7 "Middlewares/lvgl/src/core/../misc/lv_style.h"
 667              		.file 8 "Middlewares/lvgl/src/core/../hal/../misc/lv_ll.h"
 668              		.file 9 "Middlewares/lvgl/src/core/../hal/../misc/lv_timer.h"
 669              		.file 10 "Middlewares/lvgl/src/core/../hal/lv_hal_disp.h"
 670              		.file 11 "Middlewares/lvgl/src/core/lv_theme.h"
 671              		.file 12 "Middlewares/lvgl/src/core/lv_obj.h"
 672              		.file 13 "Middlewares/lvgl/src/core/lv_group.h"
ARM GAS  /tmp/cc4ZvNDe.s 			page 19


 673              		.file 14 "Middlewares/lvgl/src/core/lv_obj_scroll.h"
 674              		.file 15 "Middlewares/lvgl/src/core/lv_obj_style.h"
 675              		.file 16 "Middlewares/lvgl/src/core/lv_obj_class.h"
 676              		.file 17 "Middlewares/lvgl/src/core/lv_event.h"
 677              		.file 18 "Middlewares/lvgl/src/core/lv_obj_pos.h"
 678              		.file 19 "Middlewares/lvgl/src/core/lv_obj_tree.h"
 679              		.file 20 "Middlewares/lvgl/src/core/../hal/../misc/lv_mem.h"
ARM GAS  /tmp/cc4ZvNDe.s 			page 20

