ARM GAS  /tmp/ccdh8Ctk.s 			page 1


   1              		.cpu cortex-m4
   2              		.arch armv7e-m
   3              		.fpu fpv4-sp-d16
   4              		.eabi_attribute 27, 1
   5              		.eabi_attribute 28, 1
   6              		.eabi_attribute 20, 1
   7              		.eabi_attribute 21, 1
   8              		.eabi_attribute 23, 3
   9              		.eabi_attribute 24, 1
  10              		.eabi_attribute 25, 1
  11              		.eabi_attribute 26, 1
  12              		.eabi_attribute 30, 1
  13              		.eabi_attribute 34, 1
  14              		.eabi_attribute 18, 4
  15              		.file	"lv_obj_tree.c"
  16              		.text
  17              	.Ltext0:
  18              		.cfi_sections	.debug_frame
  19              		.section	.text.lv_obj_del_delayed,"ax",%progbits
  20              		.align	1
  21              		.global	lv_obj_del_delayed
  22              		.syntax unified
  23              		.thumb
  24              		.thumb_func
  26              	lv_obj_del_delayed:
  27              	.LVL0:
  28              	.LFB149:
  29              		.file 1 "Middlewares/lvgl/src/core/lv_obj_tree.c"
   1:Middlewares/lvgl/src/core/lv_obj_tree.c **** /**
   2:Middlewares/lvgl/src/core/lv_obj_tree.c ****  * @file lv_obj_tree.c
   3:Middlewares/lvgl/src/core/lv_obj_tree.c ****  *
   4:Middlewares/lvgl/src/core/lv_obj_tree.c ****  */
   5:Middlewares/lvgl/src/core/lv_obj_tree.c **** 
   6:Middlewares/lvgl/src/core/lv_obj_tree.c **** /*********************
   7:Middlewares/lvgl/src/core/lv_obj_tree.c ****  *      INCLUDES
   8:Middlewares/lvgl/src/core/lv_obj_tree.c ****  *********************/
   9:Middlewares/lvgl/src/core/lv_obj_tree.c **** #include "lv_obj.h"
  10:Middlewares/lvgl/src/core/lv_obj_tree.c **** #include "lv_indev.h"
  11:Middlewares/lvgl/src/core/lv_obj_tree.c **** #include "../misc/lv_anim.h"
  12:Middlewares/lvgl/src/core/lv_obj_tree.c **** #include "../misc/lv_gc.h"
  13:Middlewares/lvgl/src/core/lv_obj_tree.c **** #include "../misc/lv_async.h"
  14:Middlewares/lvgl/src/core/lv_obj_tree.c **** 
  15:Middlewares/lvgl/src/core/lv_obj_tree.c **** /*********************
  16:Middlewares/lvgl/src/core/lv_obj_tree.c ****  *      DEFINES
  17:Middlewares/lvgl/src/core/lv_obj_tree.c ****  *********************/
  18:Middlewares/lvgl/src/core/lv_obj_tree.c **** #define MY_CLASS &lv_obj_class
  19:Middlewares/lvgl/src/core/lv_obj_tree.c **** 
  20:Middlewares/lvgl/src/core/lv_obj_tree.c **** #if defined(LV_USER_DATA_FREE_INCLUDE)
  21:Middlewares/lvgl/src/core/lv_obj_tree.c ****     #include LV_USER_DATA_FREE_INCLUDE
  22:Middlewares/lvgl/src/core/lv_obj_tree.c **** #endif /*LV_USE_USER_DATA_FREE*/
  23:Middlewares/lvgl/src/core/lv_obj_tree.c **** 
  24:Middlewares/lvgl/src/core/lv_obj_tree.c **** /**********************
  25:Middlewares/lvgl/src/core/lv_obj_tree.c ****  *      TYPEDEFS
  26:Middlewares/lvgl/src/core/lv_obj_tree.c ****  **********************/
  27:Middlewares/lvgl/src/core/lv_obj_tree.c **** 
  28:Middlewares/lvgl/src/core/lv_obj_tree.c **** /**********************
  29:Middlewares/lvgl/src/core/lv_obj_tree.c ****  *  STATIC PROTOTYPES
ARM GAS  /tmp/ccdh8Ctk.s 			page 2


  30:Middlewares/lvgl/src/core/lv_obj_tree.c ****  **********************/
  31:Middlewares/lvgl/src/core/lv_obj_tree.c **** static void lv_obj_del_async_cb(void * obj);
  32:Middlewares/lvgl/src/core/lv_obj_tree.c **** static void obj_del_core(lv_obj_t * obj);
  33:Middlewares/lvgl/src/core/lv_obj_tree.c **** static lv_obj_tree_walk_res_t walk_core(lv_obj_t * obj, lv_obj_tree_walk_cb_t cb, void * user_data)
  34:Middlewares/lvgl/src/core/lv_obj_tree.c **** 
  35:Middlewares/lvgl/src/core/lv_obj_tree.c **** /**********************
  36:Middlewares/lvgl/src/core/lv_obj_tree.c ****  *  STATIC VARIABLES
  37:Middlewares/lvgl/src/core/lv_obj_tree.c ****  **********************/
  38:Middlewares/lvgl/src/core/lv_obj_tree.c **** 
  39:Middlewares/lvgl/src/core/lv_obj_tree.c **** /**********************
  40:Middlewares/lvgl/src/core/lv_obj_tree.c ****  *      MACROS
  41:Middlewares/lvgl/src/core/lv_obj_tree.c ****  **********************/
  42:Middlewares/lvgl/src/core/lv_obj_tree.c **** 
  43:Middlewares/lvgl/src/core/lv_obj_tree.c **** /**********************
  44:Middlewares/lvgl/src/core/lv_obj_tree.c ****  *   GLOBAL FUNCTIONS
  45:Middlewares/lvgl/src/core/lv_obj_tree.c ****  **********************/
  46:Middlewares/lvgl/src/core/lv_obj_tree.c **** 
  47:Middlewares/lvgl/src/core/lv_obj_tree.c **** void lv_obj_del(lv_obj_t * obj)
  48:Middlewares/lvgl/src/core/lv_obj_tree.c **** {
  49:Middlewares/lvgl/src/core/lv_obj_tree.c ****     LV_LOG_TRACE("begin (delete %p)", obj)
  50:Middlewares/lvgl/src/core/lv_obj_tree.c ****     LV_ASSERT_OBJ(obj, MY_CLASS);
  51:Middlewares/lvgl/src/core/lv_obj_tree.c ****     lv_obj_invalidate(obj);
  52:Middlewares/lvgl/src/core/lv_obj_tree.c **** 
  53:Middlewares/lvgl/src/core/lv_obj_tree.c ****     lv_obj_t * par = lv_obj_get_parent(obj);
  54:Middlewares/lvgl/src/core/lv_obj_tree.c ****     if(par) {
  55:Middlewares/lvgl/src/core/lv_obj_tree.c ****         lv_obj_scrollbar_invalidate(par);
  56:Middlewares/lvgl/src/core/lv_obj_tree.c ****     }
  57:Middlewares/lvgl/src/core/lv_obj_tree.c **** 
  58:Middlewares/lvgl/src/core/lv_obj_tree.c ****     lv_disp_t * disp = NULL;
  59:Middlewares/lvgl/src/core/lv_obj_tree.c ****     bool act_scr_del = false;
  60:Middlewares/lvgl/src/core/lv_obj_tree.c ****     if(par == NULL) {
  61:Middlewares/lvgl/src/core/lv_obj_tree.c ****         disp = lv_obj_get_disp(obj);
  62:Middlewares/lvgl/src/core/lv_obj_tree.c ****         if(!disp) return;   /*Shouldn't happen*/
  63:Middlewares/lvgl/src/core/lv_obj_tree.c ****         if(disp->act_scr == obj) act_scr_del = true;
  64:Middlewares/lvgl/src/core/lv_obj_tree.c ****     }
  65:Middlewares/lvgl/src/core/lv_obj_tree.c **** 
  66:Middlewares/lvgl/src/core/lv_obj_tree.c ****     obj_del_core(obj);
  67:Middlewares/lvgl/src/core/lv_obj_tree.c **** 
  68:Middlewares/lvgl/src/core/lv_obj_tree.c ****     /*Call the ancestor's event handler to the parent to notify it about the child delete*/
  69:Middlewares/lvgl/src/core/lv_obj_tree.c ****     if(par) {
  70:Middlewares/lvgl/src/core/lv_obj_tree.c ****         lv_obj_readjust_scroll(par, LV_ANIM_OFF);
  71:Middlewares/lvgl/src/core/lv_obj_tree.c ****         lv_obj_scrollbar_invalidate(par);
  72:Middlewares/lvgl/src/core/lv_obj_tree.c ****         lv_event_send(par, LV_EVENT_CHILD_CHANGED, NULL);
  73:Middlewares/lvgl/src/core/lv_obj_tree.c ****     }
  74:Middlewares/lvgl/src/core/lv_obj_tree.c **** 
  75:Middlewares/lvgl/src/core/lv_obj_tree.c ****     /*Handle if the active screen was deleted*/
  76:Middlewares/lvgl/src/core/lv_obj_tree.c ****     if(act_scr_del)  {
  77:Middlewares/lvgl/src/core/lv_obj_tree.c ****         LV_LOG_WARN("the active screen was deleted")
  78:Middlewares/lvgl/src/core/lv_obj_tree.c ****         disp->act_scr = NULL;
  79:Middlewares/lvgl/src/core/lv_obj_tree.c ****     }
  80:Middlewares/lvgl/src/core/lv_obj_tree.c **** 
  81:Middlewares/lvgl/src/core/lv_obj_tree.c ****     LV_ASSERT_MEM_INTEGRITY();
  82:Middlewares/lvgl/src/core/lv_obj_tree.c ****     LV_LOG_TRACE("finished (delete %p)", obj)
  83:Middlewares/lvgl/src/core/lv_obj_tree.c **** }
  84:Middlewares/lvgl/src/core/lv_obj_tree.c **** 
  85:Middlewares/lvgl/src/core/lv_obj_tree.c **** void lv_obj_clean(lv_obj_t * obj)
  86:Middlewares/lvgl/src/core/lv_obj_tree.c **** {
ARM GAS  /tmp/ccdh8Ctk.s 			page 3


  87:Middlewares/lvgl/src/core/lv_obj_tree.c ****     LV_LOG_TRACE("begin (delete %p)", obj)
  88:Middlewares/lvgl/src/core/lv_obj_tree.c ****     LV_ASSERT_OBJ(obj, MY_CLASS);
  89:Middlewares/lvgl/src/core/lv_obj_tree.c **** 
  90:Middlewares/lvgl/src/core/lv_obj_tree.c ****     lv_obj_invalidate(obj);
  91:Middlewares/lvgl/src/core/lv_obj_tree.c **** 
  92:Middlewares/lvgl/src/core/lv_obj_tree.c ****     lv_obj_t * child = lv_obj_get_child(obj, 0);
  93:Middlewares/lvgl/src/core/lv_obj_tree.c ****     while(child) {
  94:Middlewares/lvgl/src/core/lv_obj_tree.c ****         obj_del_core(child);
  95:Middlewares/lvgl/src/core/lv_obj_tree.c ****         child = lv_obj_get_child(obj, 0);
  96:Middlewares/lvgl/src/core/lv_obj_tree.c ****     }
  97:Middlewares/lvgl/src/core/lv_obj_tree.c ****     /*Just to remove scroll animations if any*/
  98:Middlewares/lvgl/src/core/lv_obj_tree.c ****     lv_obj_scroll_to(obj, 0, 0, LV_ANIM_OFF);
  99:Middlewares/lvgl/src/core/lv_obj_tree.c ****     if(obj->spec_attr) {
 100:Middlewares/lvgl/src/core/lv_obj_tree.c ****         obj->spec_attr->scroll.x = 0;
 101:Middlewares/lvgl/src/core/lv_obj_tree.c ****         obj->spec_attr->scroll.y = 0;
 102:Middlewares/lvgl/src/core/lv_obj_tree.c ****     }
 103:Middlewares/lvgl/src/core/lv_obj_tree.c **** 
 104:Middlewares/lvgl/src/core/lv_obj_tree.c ****     LV_ASSERT_MEM_INTEGRITY();
 105:Middlewares/lvgl/src/core/lv_obj_tree.c **** 
 106:Middlewares/lvgl/src/core/lv_obj_tree.c ****     LV_LOG_TRACE("finished (delete %p)", obj)
 107:Middlewares/lvgl/src/core/lv_obj_tree.c **** }
 108:Middlewares/lvgl/src/core/lv_obj_tree.c **** 
 109:Middlewares/lvgl/src/core/lv_obj_tree.c **** void lv_obj_del_delayed(lv_obj_t * obj, uint32_t delay_ms)
 110:Middlewares/lvgl/src/core/lv_obj_tree.c **** {
  30              		.loc 1 110 1 view -0
  31              		.cfi_startproc
  32              		@ args = 0, pretend = 0, frame = 72
  33              		@ frame_needed = 0, uses_anonymous_args = 0
  34              		.loc 1 110 1 is_stmt 0 view .LVU1
  35 0000 30B5     		push	{r4, r5, lr}
  36              	.LCFI0:
  37              		.cfi_def_cfa_offset 12
  38              		.cfi_offset 4, -12
  39              		.cfi_offset 5, -8
  40              		.cfi_offset 14, -4
  41 0002 93B0     		sub	sp, sp, #76
  42              	.LCFI1:
  43              		.cfi_def_cfa_offset 88
  44 0004 0546     		mov	r5, r0
  45 0006 0C46     		mov	r4, r1
 111:Middlewares/lvgl/src/core/lv_obj_tree.c ****     lv_anim_t a;
  46              		.loc 1 111 5 is_stmt 1 view .LVU2
 112:Middlewares/lvgl/src/core/lv_obj_tree.c ****     lv_anim_init(&a);
  47              		.loc 1 112 5 view .LVU3
  48 0008 01A8     		add	r0, sp, #4
  49              	.LVL1:
  50              		.loc 1 112 5 is_stmt 0 view .LVU4
  51 000a FFF7FEFF 		bl	lv_anim_init
  52              	.LVL2:
 113:Middlewares/lvgl/src/core/lv_obj_tree.c ****     lv_anim_set_var(&a, obj);
  53              		.loc 1 113 5 is_stmt 1 view .LVU5
  54              	.LBB19:
  55              	.LBI19:
  56              		.file 2 "Middlewares/lvgl/src/core/../misc/lv_anim.h"
   1:Middlewares/lvgl/src/core/../misc/lv_anim.h **** /**
   2:Middlewares/lvgl/src/core/../misc/lv_anim.h ****  * @file lv_anim.h
   3:Middlewares/lvgl/src/core/../misc/lv_anim.h ****  *
ARM GAS  /tmp/ccdh8Ctk.s 			page 4


   4:Middlewares/lvgl/src/core/../misc/lv_anim.h ****  */
   5:Middlewares/lvgl/src/core/../misc/lv_anim.h **** 
   6:Middlewares/lvgl/src/core/../misc/lv_anim.h **** #ifndef LV_ANIM_H
   7:Middlewares/lvgl/src/core/../misc/lv_anim.h **** #define LV_ANIM_H
   8:Middlewares/lvgl/src/core/../misc/lv_anim.h **** 
   9:Middlewares/lvgl/src/core/../misc/lv_anim.h **** #ifdef __cplusplus
  10:Middlewares/lvgl/src/core/../misc/lv_anim.h **** extern "C" {
  11:Middlewares/lvgl/src/core/../misc/lv_anim.h **** #endif
  12:Middlewares/lvgl/src/core/../misc/lv_anim.h **** 
  13:Middlewares/lvgl/src/core/../misc/lv_anim.h **** /*********************
  14:Middlewares/lvgl/src/core/../misc/lv_anim.h ****  *      INCLUDES
  15:Middlewares/lvgl/src/core/../misc/lv_anim.h ****  *********************/
  16:Middlewares/lvgl/src/core/../misc/lv_anim.h **** #include "../lv_conf_internal.h"
  17:Middlewares/lvgl/src/core/../misc/lv_anim.h **** 
  18:Middlewares/lvgl/src/core/../misc/lv_anim.h **** #include <stdint.h>
  19:Middlewares/lvgl/src/core/../misc/lv_anim.h **** #include <stdbool.h>
  20:Middlewares/lvgl/src/core/../misc/lv_anim.h **** #include <string.h>
  21:Middlewares/lvgl/src/core/../misc/lv_anim.h **** 
  22:Middlewares/lvgl/src/core/../misc/lv_anim.h **** /*********************
  23:Middlewares/lvgl/src/core/../misc/lv_anim.h ****  *      DEFINES
  24:Middlewares/lvgl/src/core/../misc/lv_anim.h ****  *********************/
  25:Middlewares/lvgl/src/core/../misc/lv_anim.h **** 
  26:Middlewares/lvgl/src/core/../misc/lv_anim.h **** /**********************
  27:Middlewares/lvgl/src/core/../misc/lv_anim.h ****  *      TYPEDEFS
  28:Middlewares/lvgl/src/core/../misc/lv_anim.h ****  **********************/
  29:Middlewares/lvgl/src/core/../misc/lv_anim.h **** 
  30:Middlewares/lvgl/src/core/../misc/lv_anim.h **** /** Can be used to indicate if animations are enabled or disabled in a case*/
  31:Middlewares/lvgl/src/core/../misc/lv_anim.h **** typedef enum {
  32:Middlewares/lvgl/src/core/../misc/lv_anim.h ****     LV_ANIM_OFF,
  33:Middlewares/lvgl/src/core/../misc/lv_anim.h ****     LV_ANIM_ON,
  34:Middlewares/lvgl/src/core/../misc/lv_anim.h **** }lv_anim_enable_t;
  35:Middlewares/lvgl/src/core/../misc/lv_anim.h **** 
  36:Middlewares/lvgl/src/core/../misc/lv_anim.h **** #define LV_ANIM_REPEAT_INFINITE      0xFFFF
  37:Middlewares/lvgl/src/core/../misc/lv_anim.h **** LV_EXPORT_CONST_INT(LV_ANIM_REPEAT_INFINITE);
  38:Middlewares/lvgl/src/core/../misc/lv_anim.h **** 
  39:Middlewares/lvgl/src/core/../misc/lv_anim.h **** struct _lv_anim_t;
  40:Middlewares/lvgl/src/core/../misc/lv_anim.h **** 
  41:Middlewares/lvgl/src/core/../misc/lv_anim.h **** /** Get the current value during an animation*/
  42:Middlewares/lvgl/src/core/../misc/lv_anim.h **** typedef int32_t (*lv_anim_path_cb_t)(const struct _lv_anim_t *);
  43:Middlewares/lvgl/src/core/../misc/lv_anim.h **** 
  44:Middlewares/lvgl/src/core/../misc/lv_anim.h **** /** Generic prototype of "animator" functions.
  45:Middlewares/lvgl/src/core/../misc/lv_anim.h ****  * First parameter is the variable to animate.
  46:Middlewares/lvgl/src/core/../misc/lv_anim.h ****  * Second parameter is the value to set.
  47:Middlewares/lvgl/src/core/../misc/lv_anim.h ****  * Compatible with `lv_xxx_set_yyy(obj, value)` functions
  48:Middlewares/lvgl/src/core/../misc/lv_anim.h ****  * The `x` in `_xcb_t` means its not a fully generic prototype because
  49:Middlewares/lvgl/src/core/../misc/lv_anim.h ****  * it doesn't receive `lv_anim_t *` as its first argument*/
  50:Middlewares/lvgl/src/core/../misc/lv_anim.h **** typedef void (*lv_anim_exec_xcb_t)(void *, int32_t);
  51:Middlewares/lvgl/src/core/../misc/lv_anim.h **** 
  52:Middlewares/lvgl/src/core/../misc/lv_anim.h **** /** Same as `lv_anim_exec_xcb_t` but receives `lv_anim_t *` as the first parameter.
  53:Middlewares/lvgl/src/core/../misc/lv_anim.h ****  * It's more consistent but less convenient. Might be used by binding generator functions.*/
  54:Middlewares/lvgl/src/core/../misc/lv_anim.h **** typedef void (*lv_anim_custom_exec_cb_t)(struct _lv_anim_t *, int32_t);
  55:Middlewares/lvgl/src/core/../misc/lv_anim.h **** 
  56:Middlewares/lvgl/src/core/../misc/lv_anim.h **** /** Callback to call when the animation is ready*/
  57:Middlewares/lvgl/src/core/../misc/lv_anim.h **** typedef void (*lv_anim_ready_cb_t)(struct _lv_anim_t *);
  58:Middlewares/lvgl/src/core/../misc/lv_anim.h **** 
  59:Middlewares/lvgl/src/core/../misc/lv_anim.h **** /** Callback to call when the animation really stars (considering `delay`)*/
  60:Middlewares/lvgl/src/core/../misc/lv_anim.h **** typedef void (*lv_anim_start_cb_t)(struct _lv_anim_t *);
ARM GAS  /tmp/ccdh8Ctk.s 			page 5


  61:Middlewares/lvgl/src/core/../misc/lv_anim.h **** 
  62:Middlewares/lvgl/src/core/../misc/lv_anim.h **** /** Callback used when the animation values are relative to get the current value*/
  63:Middlewares/lvgl/src/core/../misc/lv_anim.h **** typedef int32_t (*lv_anim_get_value_cb_t)(struct _lv_anim_t *);
  64:Middlewares/lvgl/src/core/../misc/lv_anim.h **** 
  65:Middlewares/lvgl/src/core/../misc/lv_anim.h **** /** Describes an animation*/
  66:Middlewares/lvgl/src/core/../misc/lv_anim.h **** typedef struct _lv_anim_t {
  67:Middlewares/lvgl/src/core/../misc/lv_anim.h ****     void * var;                          /**<Variable to animate*/
  68:Middlewares/lvgl/src/core/../misc/lv_anim.h ****     lv_anim_exec_xcb_t exec_cb;          /**< Function to execute to animate*/
  69:Middlewares/lvgl/src/core/../misc/lv_anim.h ****     lv_anim_start_cb_t start_cb;         /**< Call it when the animation is starts (considering `de
  70:Middlewares/lvgl/src/core/../misc/lv_anim.h ****     lv_anim_ready_cb_t ready_cb;         /**< Call it when the animation is ready*/
  71:Middlewares/lvgl/src/core/../misc/lv_anim.h ****     lv_anim_get_value_cb_t get_value_cb; /**< Get the current value in relative mode*/
  72:Middlewares/lvgl/src/core/../misc/lv_anim.h **** #if LV_USE_USER_DATA
  73:Middlewares/lvgl/src/core/../misc/lv_anim.h ****     void * user_data; /**< Custom user data*/
  74:Middlewares/lvgl/src/core/../misc/lv_anim.h **** #endif
  75:Middlewares/lvgl/src/core/../misc/lv_anim.h ****     lv_anim_path_cb_t path_cb;         /**< Describe the path (curve) of animations*/
  76:Middlewares/lvgl/src/core/../misc/lv_anim.h ****     int32_t start_value;               /**< Start value*/
  77:Middlewares/lvgl/src/core/../misc/lv_anim.h ****     int32_t current_value;             /**< Current value*/
  78:Middlewares/lvgl/src/core/../misc/lv_anim.h ****     int32_t end_value;                 /**< End value*/
  79:Middlewares/lvgl/src/core/../misc/lv_anim.h ****     int32_t time;                /**< Animation time in ms*/
  80:Middlewares/lvgl/src/core/../misc/lv_anim.h ****     int32_t act_time;            /**< Current time in animation. Set to negative to make delay.*/
  81:Middlewares/lvgl/src/core/../misc/lv_anim.h ****     uint32_t playback_delay;     /**< Wait before play back*/
  82:Middlewares/lvgl/src/core/../misc/lv_anim.h ****     uint32_t playback_time;      /**< Duration of playback animation*/
  83:Middlewares/lvgl/src/core/../misc/lv_anim.h ****     uint32_t repeat_delay;       /**< Wait before repeat*/
  84:Middlewares/lvgl/src/core/../misc/lv_anim.h ****     uint16_t repeat_cnt;         /**< Repeat count for the animation*/
  85:Middlewares/lvgl/src/core/../misc/lv_anim.h ****     uint8_t early_apply  : 1;    /**< 1: Apply start value immediately even is there is `delay`*/
  86:Middlewares/lvgl/src/core/../misc/lv_anim.h **** 
  87:Middlewares/lvgl/src/core/../misc/lv_anim.h ****     /*Animation system use these - user shouldn't set*/
  88:Middlewares/lvgl/src/core/../misc/lv_anim.h ****     uint8_t playback_now : 1; /**< Play back is in progress*/
  89:Middlewares/lvgl/src/core/../misc/lv_anim.h ****     uint8_t run_round : 1;    /**< Indicates the animation has run in this round*/
  90:Middlewares/lvgl/src/core/../misc/lv_anim.h ****     uint8_t start_cb_called : 1;    /**< Indicates that the `start_cb` was already called*/
  91:Middlewares/lvgl/src/core/../misc/lv_anim.h ****     uint32_t time_orig;
  92:Middlewares/lvgl/src/core/../misc/lv_anim.h **** } lv_anim_t;
  93:Middlewares/lvgl/src/core/../misc/lv_anim.h **** 
  94:Middlewares/lvgl/src/core/../misc/lv_anim.h **** /**********************
  95:Middlewares/lvgl/src/core/../misc/lv_anim.h ****  * GLOBAL PROTOTYPES
  96:Middlewares/lvgl/src/core/../misc/lv_anim.h ****  **********************/
  97:Middlewares/lvgl/src/core/../misc/lv_anim.h **** 
  98:Middlewares/lvgl/src/core/../misc/lv_anim.h **** /**
  99:Middlewares/lvgl/src/core/../misc/lv_anim.h ****  * Init. the animation module
 100:Middlewares/lvgl/src/core/../misc/lv_anim.h ****  */
 101:Middlewares/lvgl/src/core/../misc/lv_anim.h **** void _lv_anim_core_init(void);
 102:Middlewares/lvgl/src/core/../misc/lv_anim.h **** 
 103:Middlewares/lvgl/src/core/../misc/lv_anim.h **** /**
 104:Middlewares/lvgl/src/core/../misc/lv_anim.h ****  * Initialize an animation variable.
 105:Middlewares/lvgl/src/core/../misc/lv_anim.h ****  * E.g.:
 106:Middlewares/lvgl/src/core/../misc/lv_anim.h ****  * lv_anim_t a;
 107:Middlewares/lvgl/src/core/../misc/lv_anim.h ****  * lv_anim_init(&a);
 108:Middlewares/lvgl/src/core/../misc/lv_anim.h ****  * lv_anim_set_...(&a);
 109:Middlewares/lvgl/src/core/../misc/lv_anim.h ****  * lv_anim_start(&a);
 110:Middlewares/lvgl/src/core/../misc/lv_anim.h ****  * @param a     pointer to an `lv_anim_t` variable to initialize
 111:Middlewares/lvgl/src/core/../misc/lv_anim.h ****  */
 112:Middlewares/lvgl/src/core/../misc/lv_anim.h **** void lv_anim_init(lv_anim_t * a);
 113:Middlewares/lvgl/src/core/../misc/lv_anim.h **** 
 114:Middlewares/lvgl/src/core/../misc/lv_anim.h **** /**
 115:Middlewares/lvgl/src/core/../misc/lv_anim.h ****  * Set a variable to animate
 116:Middlewares/lvgl/src/core/../misc/lv_anim.h ****  * @param a     pointer to an initialized `lv_anim_t` variable
 117:Middlewares/lvgl/src/core/../misc/lv_anim.h ****  * @param var   pointer to a variable to animate
ARM GAS  /tmp/ccdh8Ctk.s 			page 6


 118:Middlewares/lvgl/src/core/../misc/lv_anim.h ****  */
 119:Middlewares/lvgl/src/core/../misc/lv_anim.h **** static inline void lv_anim_set_var(lv_anim_t * a, void * var)
  57              		.loc 2 119 20 view .LVU6
  58              	.LBB20:
 120:Middlewares/lvgl/src/core/../misc/lv_anim.h **** {
 121:Middlewares/lvgl/src/core/../misc/lv_anim.h ****     a->var = var;
  59              		.loc 2 121 5 view .LVU7
  60              		.loc 2 121 12 is_stmt 0 view .LVU8
  61 000e 0195     		str	r5, [sp, #4]
  62              	.LVL3:
  63              		.loc 2 121 12 view .LVU9
  64              	.LBE20:
  65              	.LBE19:
 114:Middlewares/lvgl/src/core/lv_obj_tree.c ****     lv_anim_set_exec_cb(&a, NULL);
  66              		.loc 1 114 5 is_stmt 1 view .LVU10
  67              	.LBB21:
  68              	.LBI21:
 122:Middlewares/lvgl/src/core/../misc/lv_anim.h **** }
 123:Middlewares/lvgl/src/core/../misc/lv_anim.h **** 
 124:Middlewares/lvgl/src/core/../misc/lv_anim.h **** /**
 125:Middlewares/lvgl/src/core/../misc/lv_anim.h ****  * Set a function to animate `var`
 126:Middlewares/lvgl/src/core/../misc/lv_anim.h ****  * @param a         pointer to an initialized `lv_anim_t` variable
 127:Middlewares/lvgl/src/core/../misc/lv_anim.h ****  * @param exec_cb   a function to execute during animation
 128:Middlewares/lvgl/src/core/../misc/lv_anim.h ****  *                  LVGL's built-in functions can be used.
 129:Middlewares/lvgl/src/core/../misc/lv_anim.h ****  *                  E.g. lv_obj_set_x
 130:Middlewares/lvgl/src/core/../misc/lv_anim.h ****  */
 131:Middlewares/lvgl/src/core/../misc/lv_anim.h **** static inline void lv_anim_set_exec_cb(lv_anim_t * a, lv_anim_exec_xcb_t exec_cb)
  69              		.loc 2 131 20 view .LVU11
  70              	.LBB22:
 132:Middlewares/lvgl/src/core/../misc/lv_anim.h **** {
 133:Middlewares/lvgl/src/core/../misc/lv_anim.h ****     a->exec_cb = exec_cb;
  71              		.loc 2 133 5 view .LVU12
  72              		.loc 2 133 16 is_stmt 0 view .LVU13
  73 0010 0023     		movs	r3, #0
  74 0012 0293     		str	r3, [sp, #8]
  75              	.LVL4:
  76              		.loc 2 133 16 view .LVU14
  77              	.LBE22:
  78              	.LBE21:
 115:Middlewares/lvgl/src/core/lv_obj_tree.c ****     lv_anim_set_time(&a, 1);
  79              		.loc 1 115 5 is_stmt 1 view .LVU15
  80              	.LBB23:
  81              	.LBI23:
 134:Middlewares/lvgl/src/core/../misc/lv_anim.h **** }
 135:Middlewares/lvgl/src/core/../misc/lv_anim.h **** 
 136:Middlewares/lvgl/src/core/../misc/lv_anim.h **** /**
 137:Middlewares/lvgl/src/core/../misc/lv_anim.h ****  * Set the duration of an animation
 138:Middlewares/lvgl/src/core/../misc/lv_anim.h ****  * @param a         pointer to an initialized `lv_anim_t` variable
 139:Middlewares/lvgl/src/core/../misc/lv_anim.h ****  * @param duration  duration of the animation in milliseconds
 140:Middlewares/lvgl/src/core/../misc/lv_anim.h ****  */
 141:Middlewares/lvgl/src/core/../misc/lv_anim.h **** static inline void lv_anim_set_time(lv_anim_t * a, uint32_t duration)
  82              		.loc 2 141 20 view .LVU16
  83              	.LBB24:
 142:Middlewares/lvgl/src/core/../misc/lv_anim.h **** {
 143:Middlewares/lvgl/src/core/../misc/lv_anim.h ****     a->time = duration;
  84              		.loc 2 143 5 view .LVU17
  85              		.loc 2 143 13 is_stmt 0 view .LVU18
ARM GAS  /tmp/ccdh8Ctk.s 			page 7


  86 0014 0123     		movs	r3, #1
  87 0016 0B93     		str	r3, [sp, #44]
  88              	.LVL5:
  89              		.loc 2 143 13 view .LVU19
  90              	.LBE24:
  91              	.LBE23:
 116:Middlewares/lvgl/src/core/lv_obj_tree.c ****     lv_anim_set_delay(&a, delay_ms);
  92              		.loc 1 116 5 is_stmt 1 view .LVU20
  93              	.LBB25:
  94              	.LBI25:
 144:Middlewares/lvgl/src/core/../misc/lv_anim.h **** }
 145:Middlewares/lvgl/src/core/../misc/lv_anim.h **** 
 146:Middlewares/lvgl/src/core/../misc/lv_anim.h **** /**
 147:Middlewares/lvgl/src/core/../misc/lv_anim.h ****  * Set a delay before starting the animation
 148:Middlewares/lvgl/src/core/../misc/lv_anim.h ****  * @param a         pointer to an initialized `lv_anim_t` variable
 149:Middlewares/lvgl/src/core/../misc/lv_anim.h ****  * @param delay     delay before the animation in milliseconds
 150:Middlewares/lvgl/src/core/../misc/lv_anim.h ****  */
 151:Middlewares/lvgl/src/core/../misc/lv_anim.h **** static inline void lv_anim_set_delay(lv_anim_t * a, uint32_t delay)
  95              		.loc 2 151 20 view .LVU21
  96              	.LBB26:
 152:Middlewares/lvgl/src/core/../misc/lv_anim.h **** {
 153:Middlewares/lvgl/src/core/../misc/lv_anim.h ****     a->act_time = -(int32_t)(delay);
  97              		.loc 2 153 5 view .LVU22
  98              		.loc 2 153 19 is_stmt 0 view .LVU23
  99 0018 6442     		rsbs	r4, r4, #0
 100              	.LVL6:
 101              		.loc 2 153 17 view .LVU24
 102 001a 0C94     		str	r4, [sp, #48]
 103              	.LVL7:
 104              		.loc 2 153 17 view .LVU25
 105              	.LBE26:
 106              	.LBE25:
 117:Middlewares/lvgl/src/core/lv_obj_tree.c ****     lv_anim_set_ready_cb(&a, lv_obj_del_anim_ready_cb);
 107              		.loc 1 117 5 is_stmt 1 view .LVU26
 108              	.LBB27:
 109              	.LBI27:
 154:Middlewares/lvgl/src/core/../misc/lv_anim.h **** }
 155:Middlewares/lvgl/src/core/../misc/lv_anim.h **** 
 156:Middlewares/lvgl/src/core/../misc/lv_anim.h **** /**
 157:Middlewares/lvgl/src/core/../misc/lv_anim.h ****  * Set the start and end values of an animation
 158:Middlewares/lvgl/src/core/../misc/lv_anim.h ****  * @param a         pointer to an initialized `lv_anim_t` variable
 159:Middlewares/lvgl/src/core/../misc/lv_anim.h ****  * @param start     the start value
 160:Middlewares/lvgl/src/core/../misc/lv_anim.h ****  * @param end       the end value
 161:Middlewares/lvgl/src/core/../misc/lv_anim.h ****  */
 162:Middlewares/lvgl/src/core/../misc/lv_anim.h **** static inline void lv_anim_set_values(lv_anim_t * a, int32_t start, int32_t end)
 163:Middlewares/lvgl/src/core/../misc/lv_anim.h **** {
 164:Middlewares/lvgl/src/core/../misc/lv_anim.h ****     a->start_value = start;
 165:Middlewares/lvgl/src/core/../misc/lv_anim.h ****     a->current_value = start;
 166:Middlewares/lvgl/src/core/../misc/lv_anim.h ****     a->end_value = end;
 167:Middlewares/lvgl/src/core/../misc/lv_anim.h **** }
 168:Middlewares/lvgl/src/core/../misc/lv_anim.h **** 
 169:Middlewares/lvgl/src/core/../misc/lv_anim.h **** /**
 170:Middlewares/lvgl/src/core/../misc/lv_anim.h ****  * Similar to `lv_anim_set_exec_cb` but `lv_anim_custom_exec_cb_t` receives
 171:Middlewares/lvgl/src/core/../misc/lv_anim.h ****  * `lv_anim_t * ` as its first parameter instead of `void *`.
 172:Middlewares/lvgl/src/core/../misc/lv_anim.h ****  * This function might be used when LVGL is binded to other languages because
 173:Middlewares/lvgl/src/core/../misc/lv_anim.h ****  * it's more consistent to have `lv_anim_t *` as first parameter.
 174:Middlewares/lvgl/src/core/../misc/lv_anim.h ****  * The variable to animate can be stored in the animation's `user_sata`
ARM GAS  /tmp/ccdh8Ctk.s 			page 8


 175:Middlewares/lvgl/src/core/../misc/lv_anim.h ****  * @param a         pointer to an initialized `lv_anim_t` variable
 176:Middlewares/lvgl/src/core/../misc/lv_anim.h ****  * @param exec_cb   a function to execute.
 177:Middlewares/lvgl/src/core/../misc/lv_anim.h ****  */
 178:Middlewares/lvgl/src/core/../misc/lv_anim.h **** static inline void lv_anim_set_custom_exec_cb(lv_anim_t * a, lv_anim_custom_exec_cb_t exec_cb)
 179:Middlewares/lvgl/src/core/../misc/lv_anim.h **** {
 180:Middlewares/lvgl/src/core/../misc/lv_anim.h ****     a->var     = a;
 181:Middlewares/lvgl/src/core/../misc/lv_anim.h ****     a->exec_cb = (lv_anim_exec_xcb_t)exec_cb;
 182:Middlewares/lvgl/src/core/../misc/lv_anim.h **** }
 183:Middlewares/lvgl/src/core/../misc/lv_anim.h **** 
 184:Middlewares/lvgl/src/core/../misc/lv_anim.h **** /**
 185:Middlewares/lvgl/src/core/../misc/lv_anim.h ****  * Set the path (curve) of the animation.
 186:Middlewares/lvgl/src/core/../misc/lv_anim.h ****  * @param a         pointer to an initialized `lv_anim_t` variable
 187:Middlewares/lvgl/src/core/../misc/lv_anim.h ****  * @param path_cb a function the get the current value of the animation.
 188:Middlewares/lvgl/src/core/../misc/lv_anim.h ****  */
 189:Middlewares/lvgl/src/core/../misc/lv_anim.h **** static inline void lv_anim_set_path_cb(lv_anim_t * a, lv_anim_path_cb_t path_cb)
 190:Middlewares/lvgl/src/core/../misc/lv_anim.h **** {
 191:Middlewares/lvgl/src/core/../misc/lv_anim.h ****     a->path_cb = path_cb;
 192:Middlewares/lvgl/src/core/../misc/lv_anim.h **** }
 193:Middlewares/lvgl/src/core/../misc/lv_anim.h **** 
 194:Middlewares/lvgl/src/core/../misc/lv_anim.h **** /**
 195:Middlewares/lvgl/src/core/../misc/lv_anim.h ****  * Set a function call when the animation really starts (considering `delay`)
 196:Middlewares/lvgl/src/core/../misc/lv_anim.h ****  * @param a         pointer to an initialized `lv_anim_t` variable
 197:Middlewares/lvgl/src/core/../misc/lv_anim.h ****  * @param start_cb  a function call when the animation starts
 198:Middlewares/lvgl/src/core/../misc/lv_anim.h ****  */
 199:Middlewares/lvgl/src/core/../misc/lv_anim.h **** static inline void lv_anim_set_start_cb(lv_anim_t * a, lv_anim_ready_cb_t start_cb)
 200:Middlewares/lvgl/src/core/../misc/lv_anim.h **** {
 201:Middlewares/lvgl/src/core/../misc/lv_anim.h ****     a->start_cb = start_cb;
 202:Middlewares/lvgl/src/core/../misc/lv_anim.h **** }
 203:Middlewares/lvgl/src/core/../misc/lv_anim.h **** 
 204:Middlewares/lvgl/src/core/../misc/lv_anim.h **** /**
 205:Middlewares/lvgl/src/core/../misc/lv_anim.h ****  * Set a function to use the current value of the variable and make start and end value
 206:Middlewares/lvgl/src/core/../misc/lv_anim.h ****  * relative the the returned current value.
 207:Middlewares/lvgl/src/core/../misc/lv_anim.h ****  * @param a             pointer to an initialized `lv_anim_t` variable
 208:Middlewares/lvgl/src/core/../misc/lv_anim.h ****  * @param get_value_cb  a function call when the animation starts
 209:Middlewares/lvgl/src/core/../misc/lv_anim.h ****  */
 210:Middlewares/lvgl/src/core/../misc/lv_anim.h **** static inline void lv_anim_set_get_value_cb(lv_anim_t * a, lv_anim_get_value_cb_t get_value_cb)
 211:Middlewares/lvgl/src/core/../misc/lv_anim.h **** {
 212:Middlewares/lvgl/src/core/../misc/lv_anim.h ****     a->get_value_cb = get_value_cb;
 213:Middlewares/lvgl/src/core/../misc/lv_anim.h **** }
 214:Middlewares/lvgl/src/core/../misc/lv_anim.h **** 
 215:Middlewares/lvgl/src/core/../misc/lv_anim.h **** /**
 216:Middlewares/lvgl/src/core/../misc/lv_anim.h ****  * Set a function call when the animation is ready
 217:Middlewares/lvgl/src/core/../misc/lv_anim.h ****  * @param a         pointer to an initialized `lv_anim_t` variable
 218:Middlewares/lvgl/src/core/../misc/lv_anim.h ****  * @param ready_cb  a function call when the animation is ready
 219:Middlewares/lvgl/src/core/../misc/lv_anim.h ****  */
 220:Middlewares/lvgl/src/core/../misc/lv_anim.h **** static inline void lv_anim_set_ready_cb(lv_anim_t * a, lv_anim_ready_cb_t ready_cb)
 110              		.loc 2 220 20 view .LVU27
 111              	.LBB28:
 221:Middlewares/lvgl/src/core/../misc/lv_anim.h **** {
 222:Middlewares/lvgl/src/core/../misc/lv_anim.h ****     a->ready_cb = ready_cb;
 112              		.loc 2 222 5 view .LVU28
 113              		.loc 2 222 17 is_stmt 0 view .LVU29
 114 001c 034B     		ldr	r3, .L3
 115 001e 0493     		str	r3, [sp, #16]
 116              	.LVL8:
 117              		.loc 2 222 17 view .LVU30
 118              	.LBE28:
ARM GAS  /tmp/ccdh8Ctk.s 			page 9


 119              	.LBE27:
 118:Middlewares/lvgl/src/core/lv_obj_tree.c ****     lv_anim_start(&a);
 120              		.loc 1 118 5 is_stmt 1 view .LVU31
 121 0020 01A8     		add	r0, sp, #4
 122 0022 FFF7FEFF 		bl	lv_anim_start
 123              	.LVL9:
 119:Middlewares/lvgl/src/core/lv_obj_tree.c **** }
 124              		.loc 1 119 1 is_stmt 0 view .LVU32
 125 0026 13B0     		add	sp, sp, #76
 126              	.LCFI2:
 127              		.cfi_def_cfa_offset 12
 128              		@ sp needed
 129 0028 30BD     		pop	{r4, r5, pc}
 130              	.LVL10:
 131              	.L4:
 132              		.loc 1 119 1 view .LVU33
 133 002a 00BF     		.align	2
 134              	.L3:
 135 002c 00000000 		.word	lv_obj_del_anim_ready_cb
 136              		.cfi_endproc
 137              	.LFE149:
 139              		.section	.text.lv_obj_del_async,"ax",%progbits
 140              		.align	1
 141              		.global	lv_obj_del_async
 142              		.syntax unified
 143              		.thumb
 144              		.thumb_func
 146              	lv_obj_del_async:
 147              	.LVL11:
 148              	.LFB151:
 120:Middlewares/lvgl/src/core/lv_obj_tree.c **** 
 121:Middlewares/lvgl/src/core/lv_obj_tree.c **** void lv_obj_del_anim_ready_cb(lv_anim_t * a)
 122:Middlewares/lvgl/src/core/lv_obj_tree.c **** {
 123:Middlewares/lvgl/src/core/lv_obj_tree.c ****     lv_obj_del(a->var);
 124:Middlewares/lvgl/src/core/lv_obj_tree.c **** }
 125:Middlewares/lvgl/src/core/lv_obj_tree.c **** 
 126:Middlewares/lvgl/src/core/lv_obj_tree.c **** void lv_obj_del_async(lv_obj_t * obj)
 127:Middlewares/lvgl/src/core/lv_obj_tree.c **** {
 149              		.loc 1 127 1 is_stmt 1 view -0
 150              		.cfi_startproc
 151              		@ args = 0, pretend = 0, frame = 0
 152              		@ frame_needed = 0, uses_anonymous_args = 0
 153              		.loc 1 127 1 is_stmt 0 view .LVU35
 154 0000 08B5     		push	{r3, lr}
 155              	.LCFI3:
 156              		.cfi_def_cfa_offset 8
 157              		.cfi_offset 3, -8
 158              		.cfi_offset 14, -4
 159 0002 0146     		mov	r1, r0
 128:Middlewares/lvgl/src/core/lv_obj_tree.c ****     LV_ASSERT_OBJ(obj, MY_CLASS);
 160              		.loc 1 128 5 is_stmt 1 view .LVU36
 161              		.loc 1 128 5 view .LVU37
 162              		.loc 1 128 5 view .LVU38
 129:Middlewares/lvgl/src/core/lv_obj_tree.c ****     lv_async_call(lv_obj_del_async_cb, obj);
 163              		.loc 1 129 5 view .LVU39
 164 0004 0148     		ldr	r0, .L7
 165              	.LVL12:
ARM GAS  /tmp/ccdh8Ctk.s 			page 10


 166              		.loc 1 129 5 is_stmt 0 view .LVU40
 167 0006 FFF7FEFF 		bl	lv_async_call
 168              	.LVL13:
 130:Middlewares/lvgl/src/core/lv_obj_tree.c **** }
 169              		.loc 1 130 1 view .LVU41
 170 000a 08BD     		pop	{r3, pc}
 171              	.L8:
 172              		.align	2
 173              	.L7:
 174 000c 00000000 		.word	lv_obj_del_async_cb
 175              		.cfi_endproc
 176              	.LFE151:
 178              		.section	.text.lv_obj_get_parent,"ax",%progbits
 179              		.align	1
 180              		.global	lv_obj_get_parent
 181              		.syntax unified
 182              		.thumb
 183              		.thumb_func
 185              	lv_obj_get_parent:
 186              	.LVL14:
 187              	.LFB157:
 131:Middlewares/lvgl/src/core/lv_obj_tree.c **** 
 132:Middlewares/lvgl/src/core/lv_obj_tree.c **** void lv_obj_set_parent(lv_obj_t * obj, lv_obj_t * parent)
 133:Middlewares/lvgl/src/core/lv_obj_tree.c **** {
 134:Middlewares/lvgl/src/core/lv_obj_tree.c ****     LV_ASSERT_OBJ(obj, MY_CLASS);
 135:Middlewares/lvgl/src/core/lv_obj_tree.c ****     LV_ASSERT_OBJ(parent, MY_CLASS);
 136:Middlewares/lvgl/src/core/lv_obj_tree.c **** 
 137:Middlewares/lvgl/src/core/lv_obj_tree.c ****     if(obj->parent == NULL) {
 138:Middlewares/lvgl/src/core/lv_obj_tree.c ****         LV_LOG_WARN("Can't set the parent of a screen");
 139:Middlewares/lvgl/src/core/lv_obj_tree.c ****         return;
 140:Middlewares/lvgl/src/core/lv_obj_tree.c ****     }
 141:Middlewares/lvgl/src/core/lv_obj_tree.c **** 
 142:Middlewares/lvgl/src/core/lv_obj_tree.c ****     if(parent == NULL) {
 143:Middlewares/lvgl/src/core/lv_obj_tree.c ****         LV_LOG_WARN("Can't set parent == NULL to an object");
 144:Middlewares/lvgl/src/core/lv_obj_tree.c ****         return;
 145:Middlewares/lvgl/src/core/lv_obj_tree.c ****     }
 146:Middlewares/lvgl/src/core/lv_obj_tree.c **** 
 147:Middlewares/lvgl/src/core/lv_obj_tree.c ****     lv_obj_invalidate(obj);
 148:Middlewares/lvgl/src/core/lv_obj_tree.c **** 
 149:Middlewares/lvgl/src/core/lv_obj_tree.c ****     lv_obj_allocate_spec_attr(parent);
 150:Middlewares/lvgl/src/core/lv_obj_tree.c **** 
 151:Middlewares/lvgl/src/core/lv_obj_tree.c ****     lv_obj_t * old_parent = obj->parent;
 152:Middlewares/lvgl/src/core/lv_obj_tree.c ****     lv_point_t old_pos;
 153:Middlewares/lvgl/src/core/lv_obj_tree.c ****     old_pos.y = lv_obj_get_y(obj);
 154:Middlewares/lvgl/src/core/lv_obj_tree.c **** 
 155:Middlewares/lvgl/src/core/lv_obj_tree.c ****     lv_base_dir_t new_base_dir = lv_obj_get_style_base_dir(parent, LV_PART_MAIN);
 156:Middlewares/lvgl/src/core/lv_obj_tree.c **** 
 157:Middlewares/lvgl/src/core/lv_obj_tree.c ****     if(new_base_dir != LV_BASE_DIR_RTL) old_pos.x = lv_obj_get_x(obj);
 158:Middlewares/lvgl/src/core/lv_obj_tree.c ****     else  old_pos.x = old_parent->coords.x2 - obj->coords.x2;
 159:Middlewares/lvgl/src/core/lv_obj_tree.c **** 
 160:Middlewares/lvgl/src/core/lv_obj_tree.c ****     /*Remove the object from the old parent's child list*/
 161:Middlewares/lvgl/src/core/lv_obj_tree.c ****     int32_t i;
 162:Middlewares/lvgl/src/core/lv_obj_tree.c ****     for(i = lv_obj_get_child_id(obj); i <= (int32_t)lv_obj_get_child_cnt(old_parent) - 2; i++) {
 163:Middlewares/lvgl/src/core/lv_obj_tree.c ****         old_parent->spec_attr->children[i] = old_parent->spec_attr->children[i+1];
 164:Middlewares/lvgl/src/core/lv_obj_tree.c ****     }
 165:Middlewares/lvgl/src/core/lv_obj_tree.c ****     old_parent->spec_attr->child_cnt--;
 166:Middlewares/lvgl/src/core/lv_obj_tree.c ****     if(old_parent->spec_attr->child_cnt) {
ARM GAS  /tmp/ccdh8Ctk.s 			page 11


 167:Middlewares/lvgl/src/core/lv_obj_tree.c ****         old_parent->spec_attr->children = lv_mem_realloc(old_parent->spec_attr->children, old_paren
 168:Middlewares/lvgl/src/core/lv_obj_tree.c ****     } else {
 169:Middlewares/lvgl/src/core/lv_obj_tree.c ****         lv_mem_free(old_parent->spec_attr->children);
 170:Middlewares/lvgl/src/core/lv_obj_tree.c ****         old_parent->spec_attr->children = NULL;
 171:Middlewares/lvgl/src/core/lv_obj_tree.c ****     }
 172:Middlewares/lvgl/src/core/lv_obj_tree.c **** 
 173:Middlewares/lvgl/src/core/lv_obj_tree.c ****     /*Add the child to the new parent as the last (newest child)*/
 174:Middlewares/lvgl/src/core/lv_obj_tree.c ****     parent->spec_attr->child_cnt++;
 175:Middlewares/lvgl/src/core/lv_obj_tree.c ****     parent->spec_attr->children = lv_mem_realloc(parent->spec_attr->children, parent->spec_attr->ch
 176:Middlewares/lvgl/src/core/lv_obj_tree.c ****     parent->spec_attr->children[lv_obj_get_child_cnt(parent) - 1] = obj;
 177:Middlewares/lvgl/src/core/lv_obj_tree.c **** 
 178:Middlewares/lvgl/src/core/lv_obj_tree.c ****     obj->parent = parent;
 179:Middlewares/lvgl/src/core/lv_obj_tree.c **** 
 180:Middlewares/lvgl/src/core/lv_obj_tree.c ****     if(new_base_dir != LV_BASE_DIR_RTL) {
 181:Middlewares/lvgl/src/core/lv_obj_tree.c ****         lv_obj_set_pos(obj, old_pos.x, old_pos.y);
 182:Middlewares/lvgl/src/core/lv_obj_tree.c ****     }
 183:Middlewares/lvgl/src/core/lv_obj_tree.c ****     else {
 184:Middlewares/lvgl/src/core/lv_obj_tree.c ****         /*Align to the right in case of RTL base dir*/
 185:Middlewares/lvgl/src/core/lv_obj_tree.c ****         lv_coord_t new_x = lv_obj_get_width(parent) - old_pos.x - lv_obj_get_width(obj);
 186:Middlewares/lvgl/src/core/lv_obj_tree.c ****         lv_obj_set_pos(obj, new_x, old_pos.y);
 187:Middlewares/lvgl/src/core/lv_obj_tree.c ****     }
 188:Middlewares/lvgl/src/core/lv_obj_tree.c **** 
 189:Middlewares/lvgl/src/core/lv_obj_tree.c ****     /*Notify the original parent because one of its children is lost*/
 190:Middlewares/lvgl/src/core/lv_obj_tree.c ****     lv_event_send(old_parent, LV_EVENT_CHILD_CHANGED, obj);
 191:Middlewares/lvgl/src/core/lv_obj_tree.c **** 
 192:Middlewares/lvgl/src/core/lv_obj_tree.c ****     /*Notify the new parent about the child*/
 193:Middlewares/lvgl/src/core/lv_obj_tree.c ****     lv_event_send(parent, LV_EVENT_CHILD_CHANGED, obj);
 194:Middlewares/lvgl/src/core/lv_obj_tree.c **** 
 195:Middlewares/lvgl/src/core/lv_obj_tree.c ****     lv_obj_invalidate(obj);
 196:Middlewares/lvgl/src/core/lv_obj_tree.c **** }
 197:Middlewares/lvgl/src/core/lv_obj_tree.c **** 
 198:Middlewares/lvgl/src/core/lv_obj_tree.c **** void lv_obj_move_foreground(lv_obj_t * obj)
 199:Middlewares/lvgl/src/core/lv_obj_tree.c **** {
 200:Middlewares/lvgl/src/core/lv_obj_tree.c ****     LV_ASSERT_OBJ(obj, MY_CLASS);
 201:Middlewares/lvgl/src/core/lv_obj_tree.c **** 
 202:Middlewares/lvgl/src/core/lv_obj_tree.c ****     lv_obj_t * parent = lv_obj_get_parent(obj);
 203:Middlewares/lvgl/src/core/lv_obj_tree.c **** 
 204:Middlewares/lvgl/src/core/lv_obj_tree.c ****     lv_obj_invalidate(parent);
 205:Middlewares/lvgl/src/core/lv_obj_tree.c **** 
 206:Middlewares/lvgl/src/core/lv_obj_tree.c ****     uint32_t i;
 207:Middlewares/lvgl/src/core/lv_obj_tree.c ****     for(i = lv_obj_get_child_id(obj); i < lv_obj_get_child_cnt(parent) - 1; i++) {
 208:Middlewares/lvgl/src/core/lv_obj_tree.c ****         parent->spec_attr->children[i] = parent->spec_attr->children[i + 1];
 209:Middlewares/lvgl/src/core/lv_obj_tree.c ****     }
 210:Middlewares/lvgl/src/core/lv_obj_tree.c ****     parent->spec_attr->children[lv_obj_get_child_cnt(parent) - 1] = obj;
 211:Middlewares/lvgl/src/core/lv_obj_tree.c **** 
 212:Middlewares/lvgl/src/core/lv_obj_tree.c ****     /*Notify the new parent about the child*/
 213:Middlewares/lvgl/src/core/lv_obj_tree.c ****     lv_event_send(parent, LV_EVENT_CHILD_CHANGED, obj);
 214:Middlewares/lvgl/src/core/lv_obj_tree.c **** 
 215:Middlewares/lvgl/src/core/lv_obj_tree.c ****     lv_obj_invalidate(parent);
 216:Middlewares/lvgl/src/core/lv_obj_tree.c **** }
 217:Middlewares/lvgl/src/core/lv_obj_tree.c **** 
 218:Middlewares/lvgl/src/core/lv_obj_tree.c **** void lv_obj_move_background(lv_obj_t * obj)
 219:Middlewares/lvgl/src/core/lv_obj_tree.c **** {
 220:Middlewares/lvgl/src/core/lv_obj_tree.c ****     LV_ASSERT_OBJ(obj, MY_CLASS);
 221:Middlewares/lvgl/src/core/lv_obj_tree.c **** 
 222:Middlewares/lvgl/src/core/lv_obj_tree.c ****     lv_obj_t * parent = lv_obj_get_parent(obj);
 223:Middlewares/lvgl/src/core/lv_obj_tree.c **** 
ARM GAS  /tmp/ccdh8Ctk.s 			page 12


 224:Middlewares/lvgl/src/core/lv_obj_tree.c ****     lv_obj_invalidate(parent);
 225:Middlewares/lvgl/src/core/lv_obj_tree.c **** 
 226:Middlewares/lvgl/src/core/lv_obj_tree.c ****     int32_t i;
 227:Middlewares/lvgl/src/core/lv_obj_tree.c ****     for(i = lv_obj_get_child_id(obj); i > 0; i--) {
 228:Middlewares/lvgl/src/core/lv_obj_tree.c ****         parent->spec_attr->children[i] = parent->spec_attr->children[i-1];
 229:Middlewares/lvgl/src/core/lv_obj_tree.c ****     }
 230:Middlewares/lvgl/src/core/lv_obj_tree.c ****     parent->spec_attr->children[0] = obj;
 231:Middlewares/lvgl/src/core/lv_obj_tree.c **** 
 232:Middlewares/lvgl/src/core/lv_obj_tree.c ****     /*Notify the new parent about the child*/
 233:Middlewares/lvgl/src/core/lv_obj_tree.c ****     lv_event_send(parent, LV_EVENT_CHILD_CHANGED, obj);
 234:Middlewares/lvgl/src/core/lv_obj_tree.c **** 
 235:Middlewares/lvgl/src/core/lv_obj_tree.c ****     lv_obj_invalidate(parent);
 236:Middlewares/lvgl/src/core/lv_obj_tree.c **** }
 237:Middlewares/lvgl/src/core/lv_obj_tree.c **** 
 238:Middlewares/lvgl/src/core/lv_obj_tree.c **** lv_obj_t * lv_obj_get_screen(const lv_obj_t * obj)
 239:Middlewares/lvgl/src/core/lv_obj_tree.c **** {
 240:Middlewares/lvgl/src/core/lv_obj_tree.c ****     LV_ASSERT_OBJ(obj, MY_CLASS);
 241:Middlewares/lvgl/src/core/lv_obj_tree.c **** 
 242:Middlewares/lvgl/src/core/lv_obj_tree.c ****     const lv_obj_t * par = obj;
 243:Middlewares/lvgl/src/core/lv_obj_tree.c ****     const lv_obj_t * act_par;
 244:Middlewares/lvgl/src/core/lv_obj_tree.c **** 
 245:Middlewares/lvgl/src/core/lv_obj_tree.c ****     do {
 246:Middlewares/lvgl/src/core/lv_obj_tree.c ****         act_par = par;
 247:Middlewares/lvgl/src/core/lv_obj_tree.c ****         par   = lv_obj_get_parent(act_par);
 248:Middlewares/lvgl/src/core/lv_obj_tree.c ****     } while(par != NULL);
 249:Middlewares/lvgl/src/core/lv_obj_tree.c **** 
 250:Middlewares/lvgl/src/core/lv_obj_tree.c ****     return (lv_obj_t*)act_par;
 251:Middlewares/lvgl/src/core/lv_obj_tree.c **** }
 252:Middlewares/lvgl/src/core/lv_obj_tree.c **** 
 253:Middlewares/lvgl/src/core/lv_obj_tree.c **** lv_disp_t * lv_obj_get_disp(const lv_obj_t * obj)
 254:Middlewares/lvgl/src/core/lv_obj_tree.c **** {
 255:Middlewares/lvgl/src/core/lv_obj_tree.c ****     LV_ASSERT_OBJ(obj, MY_CLASS);
 256:Middlewares/lvgl/src/core/lv_obj_tree.c **** 
 257:Middlewares/lvgl/src/core/lv_obj_tree.c ****     const lv_obj_t * scr;
 258:Middlewares/lvgl/src/core/lv_obj_tree.c **** 
 259:Middlewares/lvgl/src/core/lv_obj_tree.c ****     if(obj->parent == NULL) scr = obj;  /*`obj` is a screen*/
 260:Middlewares/lvgl/src/core/lv_obj_tree.c ****     else scr = lv_obj_get_screen(obj);  /*get the screen of `obj`*/
 261:Middlewares/lvgl/src/core/lv_obj_tree.c **** 
 262:Middlewares/lvgl/src/core/lv_obj_tree.c ****     lv_disp_t * d;
 263:Middlewares/lvgl/src/core/lv_obj_tree.c ****     _LV_LL_READ(&LV_GC_ROOT(_lv_disp_ll), d) {
 264:Middlewares/lvgl/src/core/lv_obj_tree.c ****         uint32_t i;
 265:Middlewares/lvgl/src/core/lv_obj_tree.c ****         for(i = 0; i < d->screen_cnt; i++) {
 266:Middlewares/lvgl/src/core/lv_obj_tree.c ****             if(d->screens[i] == scr) return d;
 267:Middlewares/lvgl/src/core/lv_obj_tree.c ****         }
 268:Middlewares/lvgl/src/core/lv_obj_tree.c ****     }
 269:Middlewares/lvgl/src/core/lv_obj_tree.c **** 
 270:Middlewares/lvgl/src/core/lv_obj_tree.c ****     LV_LOG_WARN("No screen found")
 271:Middlewares/lvgl/src/core/lv_obj_tree.c ****     return NULL;
 272:Middlewares/lvgl/src/core/lv_obj_tree.c **** }
 273:Middlewares/lvgl/src/core/lv_obj_tree.c **** 
 274:Middlewares/lvgl/src/core/lv_obj_tree.c **** lv_obj_t * lv_obj_get_parent(const lv_obj_t * obj)
 275:Middlewares/lvgl/src/core/lv_obj_tree.c **** {
 188              		.loc 1 275 1 is_stmt 1 view -0
 189              		.cfi_startproc
 190              		@ args = 0, pretend = 0, frame = 0
 191              		@ frame_needed = 0, uses_anonymous_args = 0
 192              		@ link register save eliminated.
ARM GAS  /tmp/ccdh8Ctk.s 			page 13


 276:Middlewares/lvgl/src/core/lv_obj_tree.c ****     if(obj == NULL) return NULL;
 193              		.loc 1 276 5 view .LVU43
 194              		.loc 1 276 7 is_stmt 0 view .LVU44
 195 0000 08B1     		cbz	r0, .L11
 277:Middlewares/lvgl/src/core/lv_obj_tree.c ****     LV_ASSERT_OBJ(obj, MY_CLASS);
 196              		.loc 1 277 5 is_stmt 1 view .LVU45
 197              		.loc 1 277 5 view .LVU46
 198              		.loc 1 277 5 view .LVU47
 278:Middlewares/lvgl/src/core/lv_obj_tree.c **** 
 279:Middlewares/lvgl/src/core/lv_obj_tree.c ****     return obj->parent;
 199              		.loc 1 279 5 view .LVU48
 200              		.loc 1 279 15 is_stmt 0 view .LVU49
 201 0002 4068     		ldr	r0, [r0, #4]
 202              	.LVL15:
 203              		.loc 1 279 15 view .LVU50
 204 0004 7047     		bx	lr
 205              	.LVL16:
 206              	.L11:
 280:Middlewares/lvgl/src/core/lv_obj_tree.c **** }
 207              		.loc 1 280 1 view .LVU51
 208 0006 7047     		bx	lr
 209              		.cfi_endproc
 210              	.LFE157:
 212              		.section	.text.lv_obj_get_screen,"ax",%progbits
 213              		.align	1
 214              		.global	lv_obj_get_screen
 215              		.syntax unified
 216              		.thumb
 217              		.thumb_func
 219              	lv_obj_get_screen:
 220              	.LFB155:
 239:Middlewares/lvgl/src/core/lv_obj_tree.c ****     LV_ASSERT_OBJ(obj, MY_CLASS);
 221              		.loc 1 239 1 is_stmt 1 view -0
 222              		.cfi_startproc
 223              		@ args = 0, pretend = 0, frame = 0
 224              		@ frame_needed = 0, uses_anonymous_args = 0
 225              	.LVL17:
 239:Middlewares/lvgl/src/core/lv_obj_tree.c ****     LV_ASSERT_OBJ(obj, MY_CLASS);
 226              		.loc 1 239 1 is_stmt 0 view .LVU53
 227 0000 10B5     		push	{r4, lr}
 228              	.LCFI4:
 229              		.cfi_def_cfa_offset 8
 230              		.cfi_offset 4, -8
 231              		.cfi_offset 14, -4
 232              	.LVL18:
 233              	.L13:
 243:Middlewares/lvgl/src/core/lv_obj_tree.c **** 
 234              		.loc 1 243 5 is_stmt 1 discriminator 1 view .LVU54
 245:Middlewares/lvgl/src/core/lv_obj_tree.c ****         act_par = par;
 235              		.loc 1 245 5 discriminator 1 view .LVU55
 246:Middlewares/lvgl/src/core/lv_obj_tree.c ****         par   = lv_obj_get_parent(act_par);
 236              		.loc 1 246 9 discriminator 1 view .LVU56
 247:Middlewares/lvgl/src/core/lv_obj_tree.c ****     } while(par != NULL);
 237              		.loc 1 247 9 discriminator 1 view .LVU57
 238 0002 0446     		mov	r4, r0
 247:Middlewares/lvgl/src/core/lv_obj_tree.c ****     } while(par != NULL);
 239              		.loc 1 247 17 is_stmt 0 discriminator 1 view .LVU58
ARM GAS  /tmp/ccdh8Ctk.s 			page 14


 240 0004 FFF7FEFF 		bl	lv_obj_get_parent
 241              	.LVL19:
 248:Middlewares/lvgl/src/core/lv_obj_tree.c **** 
 242              		.loc 1 248 12 is_stmt 1 discriminator 1 view .LVU59
 248:Middlewares/lvgl/src/core/lv_obj_tree.c **** 
 243              		.loc 1 248 5 is_stmt 0 discriminator 1 view .LVU60
 244 0008 0028     		cmp	r0, #0
 245 000a FAD1     		bne	.L13
 250:Middlewares/lvgl/src/core/lv_obj_tree.c **** }
 246              		.loc 1 250 5 is_stmt 1 view .LVU61
 251:Middlewares/lvgl/src/core/lv_obj_tree.c **** 
 247              		.loc 1 251 1 is_stmt 0 view .LVU62
 248 000c 2046     		mov	r0, r4
 249 000e 10BD     		pop	{r4, pc}
 251:Middlewares/lvgl/src/core/lv_obj_tree.c **** 
 250              		.loc 1 251 1 view .LVU63
 251              		.cfi_endproc
 252              	.LFE155:
 254              		.section	.text.lv_obj_get_disp,"ax",%progbits
 255              		.align	1
 256              		.global	lv_obj_get_disp
 257              		.syntax unified
 258              		.thumb
 259              		.thumb_func
 261              	lv_obj_get_disp:
 262              	.LVL20:
 263              	.LFB156:
 254:Middlewares/lvgl/src/core/lv_obj_tree.c ****     LV_ASSERT_OBJ(obj, MY_CLASS);
 264              		.loc 1 254 1 is_stmt 1 view -0
 265              		.cfi_startproc
 266              		@ args = 0, pretend = 0, frame = 0
 267              		@ frame_needed = 0, uses_anonymous_args = 0
 254:Middlewares/lvgl/src/core/lv_obj_tree.c ****     LV_ASSERT_OBJ(obj, MY_CLASS);
 268              		.loc 1 254 1 is_stmt 0 view .LVU65
 269 0000 10B5     		push	{r4, lr}
 270              	.LCFI5:
 271              		.cfi_def_cfa_offset 8
 272              		.cfi_offset 4, -8
 273              		.cfi_offset 14, -4
 274 0002 0446     		mov	r4, r0
 255:Middlewares/lvgl/src/core/lv_obj_tree.c **** 
 275              		.loc 1 255 5 is_stmt 1 view .LVU66
 255:Middlewares/lvgl/src/core/lv_obj_tree.c **** 
 276              		.loc 1 255 5 view .LVU67
 255:Middlewares/lvgl/src/core/lv_obj_tree.c **** 
 277              		.loc 1 255 5 view .LVU68
 257:Middlewares/lvgl/src/core/lv_obj_tree.c **** 
 278              		.loc 1 257 5 view .LVU69
 259:Middlewares/lvgl/src/core/lv_obj_tree.c ****     else scr = lv_obj_get_screen(obj);  /*get the screen of `obj`*/
 279              		.loc 1 259 5 view .LVU70
 259:Middlewares/lvgl/src/core/lv_obj_tree.c ****     else scr = lv_obj_get_screen(obj);  /*get the screen of `obj`*/
 280              		.loc 1 259 11 is_stmt 0 view .LVU71
 281 0004 4368     		ldr	r3, [r0, #4]
 259:Middlewares/lvgl/src/core/lv_obj_tree.c ****     else scr = lv_obj_get_screen(obj);  /*get the screen of `obj`*/
 282              		.loc 1 259 7 view .LVU72
 283 0006 13B1     		cbz	r3, .L16
 260:Middlewares/lvgl/src/core/lv_obj_tree.c **** 
ARM GAS  /tmp/ccdh8Ctk.s 			page 15


 284              		.loc 1 260 10 is_stmt 1 view .LVU73
 260:Middlewares/lvgl/src/core/lv_obj_tree.c **** 
 285              		.loc 1 260 16 is_stmt 0 view .LVU74
 286 0008 FFF7FEFF 		bl	lv_obj_get_screen
 287              	.LVL21:
 260:Middlewares/lvgl/src/core/lv_obj_tree.c **** 
 288              		.loc 1 260 16 view .LVU75
 289 000c 0446     		mov	r4, r0
 290              	.LVL22:
 291              	.L16:
 262:Middlewares/lvgl/src/core/lv_obj_tree.c ****     _LV_LL_READ(&LV_GC_ROOT(_lv_disp_ll), d) {
 292              		.loc 1 262 5 is_stmt 1 view .LVU76
 263:Middlewares/lvgl/src/core/lv_obj_tree.c ****         uint32_t i;
 293              		.loc 1 263 5 view .LVU77
 294 000e 0A48     		ldr	r0, .L25
 295 0010 FFF7FEFF 		bl	_lv_ll_get_head
 296              	.LVL23:
 297              	.L17:
 263:Middlewares/lvgl/src/core/lv_obj_tree.c ****         uint32_t i;
 298              		.loc 1 263 5 discriminator 1 view .LVU78
 299 0014 50B1     		cbz	r0, .L15
 300              	.LBB29:
 265:Middlewares/lvgl/src/core/lv_obj_tree.c ****             if(d->screens[i] == scr) return d;
 301              		.loc 1 265 15 is_stmt 0 view .LVU79
 302 0016 0023     		movs	r3, #0
 303 0018 00E0     		b	.L20
 304              	.LVL24:
 305              	.L24:
 265:Middlewares/lvgl/src/core/lv_obj_tree.c ****             if(d->screens[i] == scr) return d;
 306              		.loc 1 265 39 is_stmt 1 discriminator 2 view .LVU80
 265:Middlewares/lvgl/src/core/lv_obj_tree.c ****             if(d->screens[i] == scr) return d;
 307              		.loc 1 265 40 is_stmt 0 discriminator 2 view .LVU81
 308 001a 0133     		adds	r3, r3, #1
 309              	.LVL25:
 310              	.L20:
 265:Middlewares/lvgl/src/core/lv_obj_tree.c ****             if(d->screens[i] == scr) return d;
 311              		.loc 1 265 20 is_stmt 1 discriminator 1 view .LVU82
 265:Middlewares/lvgl/src/core/lv_obj_tree.c ****             if(d->screens[i] == scr) return d;
 312              		.loc 1 265 25 is_stmt 0 discriminator 1 view .LVU83
 313 001c 426A     		ldr	r2, [r0, #36]
 265:Middlewares/lvgl/src/core/lv_obj_tree.c ****             if(d->screens[i] == scr) return d;
 314              		.loc 1 265 9 discriminator 1 view .LVU84
 315 001e 9A42     		cmp	r2, r3
 316 0020 05D9     		bls	.L23
 266:Middlewares/lvgl/src/core/lv_obj_tree.c ****         }
 317              		.loc 1 266 13 is_stmt 1 view .LVU85
 266:Middlewares/lvgl/src/core/lv_obj_tree.c ****         }
 318              		.loc 1 266 17 is_stmt 0 view .LVU86
 319 0022 C268     		ldr	r2, [r0, #12]
 266:Middlewares/lvgl/src/core/lv_obj_tree.c ****         }
 320              		.loc 1 266 26 view .LVU87
 321 0024 52F82320 		ldr	r2, [r2, r3, lsl #2]
 266:Middlewares/lvgl/src/core/lv_obj_tree.c ****         }
 322              		.loc 1 266 15 view .LVU88
 323 0028 A242     		cmp	r2, r4
 324 002a F6D1     		bne	.L24
 325              	.LVL26:
ARM GAS  /tmp/ccdh8Ctk.s 			page 16


 326              	.L15:
 266:Middlewares/lvgl/src/core/lv_obj_tree.c ****         }
 327              		.loc 1 266 15 view .LVU89
 328              	.LBE29:
 272:Middlewares/lvgl/src/core/lv_obj_tree.c **** 
 329              		.loc 1 272 1 view .LVU90
 330 002c 10BD     		pop	{r4, pc}
 331              	.LVL27:
 332              	.L23:
 263:Middlewares/lvgl/src/core/lv_obj_tree.c ****         uint32_t i;
 333              		.loc 1 263 5 is_stmt 1 discriminator 2 view .LVU91
 334 002e 0146     		mov	r1, r0
 335 0030 0148     		ldr	r0, .L25
 336              	.LVL28:
 263:Middlewares/lvgl/src/core/lv_obj_tree.c ****         uint32_t i;
 337              		.loc 1 263 5 is_stmt 0 discriminator 2 view .LVU92
 338 0032 FFF7FEFF 		bl	_lv_ll_get_next
 339              	.LVL29:
 263:Middlewares/lvgl/src/core/lv_obj_tree.c ****         uint32_t i;
 340              		.loc 1 263 5 discriminator 2 view .LVU93
 341 0036 EDE7     		b	.L17
 342              	.L26:
 343              		.align	2
 344              	.L25:
 345 0038 00000000 		.word	_lv_disp_ll
 346              		.cfi_endproc
 347              	.LFE156:
 349              		.section	.text.lv_obj_get_child,"ax",%progbits
 350              		.align	1
 351              		.global	lv_obj_get_child
 352              		.syntax unified
 353              		.thumb
 354              		.thumb_func
 356              	lv_obj_get_child:
 357              	.LVL30:
 358              	.LFB158:
 281:Middlewares/lvgl/src/core/lv_obj_tree.c **** 
 282:Middlewares/lvgl/src/core/lv_obj_tree.c **** lv_obj_t * lv_obj_get_child(const lv_obj_t * obj, int32_t id)
 283:Middlewares/lvgl/src/core/lv_obj_tree.c **** {
 359              		.loc 1 283 1 is_stmt 1 view -0
 360              		.cfi_startproc
 361              		@ args = 0, pretend = 0, frame = 0
 362              		@ frame_needed = 0, uses_anonymous_args = 0
 363              		@ link register save eliminated.
 284:Middlewares/lvgl/src/core/lv_obj_tree.c ****     LV_ASSERT_OBJ(obj, MY_CLASS);
 364              		.loc 1 284 5 view .LVU95
 365              		.loc 1 284 5 view .LVU96
 366              		.loc 1 284 5 view .LVU97
 285:Middlewares/lvgl/src/core/lv_obj_tree.c **** 
 286:Middlewares/lvgl/src/core/lv_obj_tree.c ****     if(obj->spec_attr == NULL) return NULL;
 367              		.loc 1 286 5 view .LVU98
 368              		.loc 1 286 11 is_stmt 0 view .LVU99
 369 0000 8068     		ldr	r0, [r0, #8]
 370              	.LVL31:
 371              		.loc 1 286 7 view .LVU100
 372 0002 88B1     		cbz	r0, .L27
 287:Middlewares/lvgl/src/core/lv_obj_tree.c **** 
ARM GAS  /tmp/ccdh8Ctk.s 			page 17


 288:Middlewares/lvgl/src/core/lv_obj_tree.c ****     uint32_t idu;
 373              		.loc 1 288 5 is_stmt 1 view .LVU101
 289:Middlewares/lvgl/src/core/lv_obj_tree.c ****     if(id < 0) {
 374              		.loc 1 289 5 view .LVU102
 375              		.loc 1 289 7 is_stmt 0 view .LVU103
 376 0004 0029     		cmp	r1, #0
 377 0006 07DB     		blt	.L33
 290:Middlewares/lvgl/src/core/lv_obj_tree.c ****         id = obj->spec_attr->child_cnt + id;
 291:Middlewares/lvgl/src/core/lv_obj_tree.c ****         if(id < 0) return NULL;
 292:Middlewares/lvgl/src/core/lv_obj_tree.c ****         idu = (uint32_t) id;
 293:Middlewares/lvgl/src/core/lv_obj_tree.c ****     } else {
 294:Middlewares/lvgl/src/core/lv_obj_tree.c ****         idu = id;
 378              		.loc 1 294 9 is_stmt 1 view .LVU104
 379              		.loc 1 294 13 is_stmt 0 view .LVU105
 380 0008 0B46     		mov	r3, r1
 381              	.LVL32:
 382              	.L30:
 295:Middlewares/lvgl/src/core/lv_obj_tree.c ****     }
 296:Middlewares/lvgl/src/core/lv_obj_tree.c **** 
 297:Middlewares/lvgl/src/core/lv_obj_tree.c ****     if(idu >= obj->spec_attr->child_cnt) return NULL;
 383              		.loc 1 297 5 is_stmt 1 view .LVU106
 384              		.loc 1 297 29 is_stmt 0 view .LVU107
 385 000a 4268     		ldr	r2, [r0, #4]
 386              		.loc 1 297 7 view .LVU108
 387 000c 9A42     		cmp	r2, r3
 388 000e 0AD9     		bls	.L32
 298:Middlewares/lvgl/src/core/lv_obj_tree.c ****     else return obj->spec_attr->children[id];
 389              		.loc 1 298 10 is_stmt 1 view .LVU109
 390              		.loc 1 298 31 is_stmt 0 view .LVU110
 391 0010 0368     		ldr	r3, [r0]
 392              		.loc 1 298 41 view .LVU111
 393 0012 53F82100 		ldr	r0, [r3, r1, lsl #2]
 394 0016 7047     		bx	lr
 395              	.LVL33:
 396              	.L33:
 290:Middlewares/lvgl/src/core/lv_obj_tree.c ****         id = obj->spec_attr->child_cnt + id;
 397              		.loc 1 290 9 is_stmt 1 view .LVU112
 290:Middlewares/lvgl/src/core/lv_obj_tree.c ****         id = obj->spec_attr->child_cnt + id;
 398              		.loc 1 290 28 is_stmt 0 view .LVU113
 399 0018 4368     		ldr	r3, [r0, #4]
 290:Middlewares/lvgl/src/core/lv_obj_tree.c ****         id = obj->spec_attr->child_cnt + id;
 400              		.loc 1 290 40 view .LVU114
 401 001a 1944     		add	r1, r1, r3
 402              	.LVL34:
 290:Middlewares/lvgl/src/core/lv_obj_tree.c ****         id = obj->spec_attr->child_cnt + id;
 403              		.loc 1 290 12 view .LVU115
 404 001c 0B46     		mov	r3, r1
 405              	.LVL35:
 291:Middlewares/lvgl/src/core/lv_obj_tree.c ****         idu = (uint32_t) id;
 406              		.loc 1 291 9 is_stmt 1 view .LVU116
 291:Middlewares/lvgl/src/core/lv_obj_tree.c ****         idu = (uint32_t) id;
 407              		.loc 1 291 11 is_stmt 0 view .LVU117
 408 001e 0029     		cmp	r1, #0
 409 0020 F3DA     		bge	.L30
 291:Middlewares/lvgl/src/core/lv_obj_tree.c ****         idu = (uint32_t) id;
 410              		.loc 1 291 27 view .LVU118
 411 0022 0020     		movs	r0, #0
ARM GAS  /tmp/ccdh8Ctk.s 			page 18


 412 0024 7047     		bx	lr
 413              	.LVL36:
 414              	.L32:
 297:Middlewares/lvgl/src/core/lv_obj_tree.c ****     else return obj->spec_attr->children[id];
 415              		.loc 1 297 49 view .LVU119
 416 0026 0020     		movs	r0, #0
 417              	.LVL37:
 418              	.L27:
 299:Middlewares/lvgl/src/core/lv_obj_tree.c **** }
 419              		.loc 1 299 1 view .LVU120
 420 0028 7047     		bx	lr
 421              		.cfi_endproc
 422              	.LFE158:
 424              		.section	.text.lv_obj_get_child_cnt,"ax",%progbits
 425              		.align	1
 426              		.global	lv_obj_get_child_cnt
 427              		.syntax unified
 428              		.thumb
 429              		.thumb_func
 431              	lv_obj_get_child_cnt:
 432              	.LVL38:
 433              	.LFB159:
 300:Middlewares/lvgl/src/core/lv_obj_tree.c **** 
 301:Middlewares/lvgl/src/core/lv_obj_tree.c **** uint32_t lv_obj_get_child_cnt(const lv_obj_t * obj)
 302:Middlewares/lvgl/src/core/lv_obj_tree.c **** {
 434              		.loc 1 302 1 is_stmt 1 view -0
 435              		.cfi_startproc
 436              		@ args = 0, pretend = 0, frame = 0
 437              		@ frame_needed = 0, uses_anonymous_args = 0
 438              		@ link register save eliminated.
 303:Middlewares/lvgl/src/core/lv_obj_tree.c ****     LV_ASSERT_OBJ(obj, MY_CLASS);
 439              		.loc 1 303 5 view .LVU122
 440              		.loc 1 303 5 view .LVU123
 441              		.loc 1 303 5 view .LVU124
 304:Middlewares/lvgl/src/core/lv_obj_tree.c ****     if(obj->spec_attr == NULL) return 0;
 442              		.loc 1 304 5 view .LVU125
 443              		.loc 1 304 11 is_stmt 0 view .LVU126
 444 0000 8368     		ldr	r3, [r0, #8]
 445              		.loc 1 304 7 view .LVU127
 446 0002 0BB1     		cbz	r3, .L36
 305:Middlewares/lvgl/src/core/lv_obj_tree.c ****     return obj->spec_attr->child_cnt;
 447              		.loc 1 305 5 is_stmt 1 view .LVU128
 448              		.loc 1 305 26 is_stmt 0 view .LVU129
 449 0004 5868     		ldr	r0, [r3, #4]
 450              	.LVL39:
 451              		.loc 1 305 26 view .LVU130
 452 0006 7047     		bx	lr
 453              	.LVL40:
 454              	.L36:
 304:Middlewares/lvgl/src/core/lv_obj_tree.c ****     if(obj->spec_attr == NULL) return 0;
 455              		.loc 1 304 39 view .LVU131
 456 0008 0020     		movs	r0, #0
 457              	.LVL41:
 306:Middlewares/lvgl/src/core/lv_obj_tree.c **** }
 458              		.loc 1 306 1 view .LVU132
 459 000a 7047     		bx	lr
 460              		.cfi_endproc
ARM GAS  /tmp/ccdh8Ctk.s 			page 19


 461              	.LFE159:
 463              		.section	.text.walk_core,"ax",%progbits
 464              		.align	1
 465              		.syntax unified
 466              		.thumb
 467              		.thumb_func
 469              	walk_core:
 470              	.LVL42:
 471              	.LFB164:
 307:Middlewares/lvgl/src/core/lv_obj_tree.c **** 
 308:Middlewares/lvgl/src/core/lv_obj_tree.c **** uint32_t lv_obj_get_child_id(const lv_obj_t * obj)
 309:Middlewares/lvgl/src/core/lv_obj_tree.c **** {
 310:Middlewares/lvgl/src/core/lv_obj_tree.c ****     LV_ASSERT_OBJ(obj, MY_CLASS);
 311:Middlewares/lvgl/src/core/lv_obj_tree.c **** 
 312:Middlewares/lvgl/src/core/lv_obj_tree.c ****     lv_obj_t * parent = lv_obj_get_parent(obj);
 313:Middlewares/lvgl/src/core/lv_obj_tree.c ****     if(parent == NULL) return 0;
 314:Middlewares/lvgl/src/core/lv_obj_tree.c **** 
 315:Middlewares/lvgl/src/core/lv_obj_tree.c ****     uint32_t i = 0;
 316:Middlewares/lvgl/src/core/lv_obj_tree.c ****     for(i = 0; i < lv_obj_get_child_cnt(parent); i++) {
 317:Middlewares/lvgl/src/core/lv_obj_tree.c ****         if(lv_obj_get_child(parent, i) == obj) return i;
 318:Middlewares/lvgl/src/core/lv_obj_tree.c ****     }
 319:Middlewares/lvgl/src/core/lv_obj_tree.c **** 
 320:Middlewares/lvgl/src/core/lv_obj_tree.c ****     return 0xFFFFFFFF; /*Shouldn't happen*/
 321:Middlewares/lvgl/src/core/lv_obj_tree.c **** }
 322:Middlewares/lvgl/src/core/lv_obj_tree.c **** 
 323:Middlewares/lvgl/src/core/lv_obj_tree.c **** 
 324:Middlewares/lvgl/src/core/lv_obj_tree.c **** void lv_obj_tree_walk(lv_obj_t * start_obj, lv_obj_tree_walk_cb_t cb, void * user_data)
 325:Middlewares/lvgl/src/core/lv_obj_tree.c **** {
 326:Middlewares/lvgl/src/core/lv_obj_tree.c ****     walk_core(start_obj, cb, user_data);
 327:Middlewares/lvgl/src/core/lv_obj_tree.c **** }
 328:Middlewares/lvgl/src/core/lv_obj_tree.c **** 
 329:Middlewares/lvgl/src/core/lv_obj_tree.c **** /**********************
 330:Middlewares/lvgl/src/core/lv_obj_tree.c ****  *   STATIC FUNCTIONS
 331:Middlewares/lvgl/src/core/lv_obj_tree.c ****  **********************/
 332:Middlewares/lvgl/src/core/lv_obj_tree.c **** 
 333:Middlewares/lvgl/src/core/lv_obj_tree.c **** static void lv_obj_del_async_cb(void * obj)
 334:Middlewares/lvgl/src/core/lv_obj_tree.c **** {
 335:Middlewares/lvgl/src/core/lv_obj_tree.c ****     LV_ASSERT_OBJ(obj, MY_CLASS);
 336:Middlewares/lvgl/src/core/lv_obj_tree.c **** 
 337:Middlewares/lvgl/src/core/lv_obj_tree.c ****     lv_obj_del(obj);
 338:Middlewares/lvgl/src/core/lv_obj_tree.c **** }
 339:Middlewares/lvgl/src/core/lv_obj_tree.c **** 
 340:Middlewares/lvgl/src/core/lv_obj_tree.c **** static void obj_del_core(lv_obj_t * obj)
 341:Middlewares/lvgl/src/core/lv_obj_tree.c **** {
 342:Middlewares/lvgl/src/core/lv_obj_tree.c ****     /*Let the user free the resources used in `LV_EVENT_DELETE`*/
 343:Middlewares/lvgl/src/core/lv_obj_tree.c ****     lv_res_t res = lv_event_send(obj, LV_EVENT_DELETE, NULL);
 344:Middlewares/lvgl/src/core/lv_obj_tree.c ****     if(res == LV_RES_INV) return;
 345:Middlewares/lvgl/src/core/lv_obj_tree.c **** 
 346:Middlewares/lvgl/src/core/lv_obj_tree.c ****     /*Delete from the group*/
 347:Middlewares/lvgl/src/core/lv_obj_tree.c ****     lv_group_t * group = lv_obj_get_group(obj);
 348:Middlewares/lvgl/src/core/lv_obj_tree.c ****     if(group) lv_group_remove_obj(obj);
 349:Middlewares/lvgl/src/core/lv_obj_tree.c **** 
 350:Middlewares/lvgl/src/core/lv_obj_tree.c ****     /*Remove the animations from this object*/
 351:Middlewares/lvgl/src/core/lv_obj_tree.c ****     lv_anim_del(obj, NULL);
 352:Middlewares/lvgl/src/core/lv_obj_tree.c **** 
 353:Middlewares/lvgl/src/core/lv_obj_tree.c ****     /*Recursively delete the children*/
 354:Middlewares/lvgl/src/core/lv_obj_tree.c ****     lv_obj_t * child = lv_obj_get_child(obj, 0);
ARM GAS  /tmp/ccdh8Ctk.s 			page 20


 355:Middlewares/lvgl/src/core/lv_obj_tree.c ****     while(child) {
 356:Middlewares/lvgl/src/core/lv_obj_tree.c ****         obj_del_core(child);
 357:Middlewares/lvgl/src/core/lv_obj_tree.c ****         child = lv_obj_get_child(obj, 0);
 358:Middlewares/lvgl/src/core/lv_obj_tree.c ****     }
 359:Middlewares/lvgl/src/core/lv_obj_tree.c **** 
 360:Middlewares/lvgl/src/core/lv_obj_tree.c ****     _lv_event_mark_deleted(obj);
 361:Middlewares/lvgl/src/core/lv_obj_tree.c **** 
 362:Middlewares/lvgl/src/core/lv_obj_tree.c ****     /*Remove all style*/
 363:Middlewares/lvgl/src/core/lv_obj_tree.c ****     lv_obj_enable_style_refresh(false); /*No need to refresh the style because the object will be d
 364:Middlewares/lvgl/src/core/lv_obj_tree.c ****     lv_obj_remove_style_all(obj);
 365:Middlewares/lvgl/src/core/lv_obj_tree.c ****     lv_obj_enable_style_refresh(true);
 366:Middlewares/lvgl/src/core/lv_obj_tree.c **** 
 367:Middlewares/lvgl/src/core/lv_obj_tree.c ****     /*Reset all input devices if the object to delete is used*/
 368:Middlewares/lvgl/src/core/lv_obj_tree.c ****     lv_indev_t * indev = lv_indev_get_next(NULL);
 369:Middlewares/lvgl/src/core/lv_obj_tree.c ****     while(indev) {
 370:Middlewares/lvgl/src/core/lv_obj_tree.c ****         if(indev->proc.types.pointer.act_obj == obj || indev->proc.types.pointer.last_obj == obj) {
 371:Middlewares/lvgl/src/core/lv_obj_tree.c ****             lv_indev_reset(indev, obj);
 372:Middlewares/lvgl/src/core/lv_obj_tree.c ****         }
 373:Middlewares/lvgl/src/core/lv_obj_tree.c ****         if(indev->proc.types.pointer.last_pressed == obj) {
 374:Middlewares/lvgl/src/core/lv_obj_tree.c ****             indev->proc.types.pointer.last_pressed = NULL;
 375:Middlewares/lvgl/src/core/lv_obj_tree.c ****         }
 376:Middlewares/lvgl/src/core/lv_obj_tree.c **** 
 377:Middlewares/lvgl/src/core/lv_obj_tree.c ****         if(indev->group == group && obj == lv_indev_get_obj_act()) {
 378:Middlewares/lvgl/src/core/lv_obj_tree.c ****             lv_indev_reset(indev, obj);
 379:Middlewares/lvgl/src/core/lv_obj_tree.c ****         }
 380:Middlewares/lvgl/src/core/lv_obj_tree.c ****         indev = lv_indev_get_next(indev);
 381:Middlewares/lvgl/src/core/lv_obj_tree.c ****     }
 382:Middlewares/lvgl/src/core/lv_obj_tree.c **** 
 383:Middlewares/lvgl/src/core/lv_obj_tree.c ****     /*All children deleted. Now clean up the object specific data*/
 384:Middlewares/lvgl/src/core/lv_obj_tree.c ****     _lv_obj_destructor(obj);
 385:Middlewares/lvgl/src/core/lv_obj_tree.c **** 
 386:Middlewares/lvgl/src/core/lv_obj_tree.c ****     /*Remove the screen for the screen list*/
 387:Middlewares/lvgl/src/core/lv_obj_tree.c ****     if(obj->parent == NULL) {
 388:Middlewares/lvgl/src/core/lv_obj_tree.c ****         lv_disp_t * disp = lv_obj_get_disp(obj);
 389:Middlewares/lvgl/src/core/lv_obj_tree.c ****         uint32_t i;
 390:Middlewares/lvgl/src/core/lv_obj_tree.c ****         /*Find the screen in the list*/
 391:Middlewares/lvgl/src/core/lv_obj_tree.c ****         for(i = 0; i < disp->screen_cnt; i++) {
 392:Middlewares/lvgl/src/core/lv_obj_tree.c ****             if(disp->screens[i] == obj) break;
 393:Middlewares/lvgl/src/core/lv_obj_tree.c ****         }
 394:Middlewares/lvgl/src/core/lv_obj_tree.c **** 
 395:Middlewares/lvgl/src/core/lv_obj_tree.c ****         uint32_t id = i;
 396:Middlewares/lvgl/src/core/lv_obj_tree.c ****         for(i = id; i < disp->screen_cnt - 1; i++) {
 397:Middlewares/lvgl/src/core/lv_obj_tree.c ****             disp->screens[i] = disp->screens[i + 1];
 398:Middlewares/lvgl/src/core/lv_obj_tree.c ****         }
 399:Middlewares/lvgl/src/core/lv_obj_tree.c ****         disp->screen_cnt--;
 400:Middlewares/lvgl/src/core/lv_obj_tree.c ****         disp->screens = lv_mem_realloc(disp->screens, disp->screen_cnt * sizeof(lv_obj_t *));
 401:Middlewares/lvgl/src/core/lv_obj_tree.c ****     }
 402:Middlewares/lvgl/src/core/lv_obj_tree.c ****     /*Remove the object from the child list of its parent*/
 403:Middlewares/lvgl/src/core/lv_obj_tree.c ****     else {
 404:Middlewares/lvgl/src/core/lv_obj_tree.c ****         uint32_t id = lv_obj_get_child_id(obj);
 405:Middlewares/lvgl/src/core/lv_obj_tree.c ****         uint32_t i;
 406:Middlewares/lvgl/src/core/lv_obj_tree.c ****         for(i = id; i < obj->parent->spec_attr->child_cnt - 1; i++) {
 407:Middlewares/lvgl/src/core/lv_obj_tree.c ****             obj->parent->spec_attr->children[i] = obj->parent->spec_attr->children[i + 1];
 408:Middlewares/lvgl/src/core/lv_obj_tree.c ****         }
 409:Middlewares/lvgl/src/core/lv_obj_tree.c ****         obj->parent->spec_attr->child_cnt--;
 410:Middlewares/lvgl/src/core/lv_obj_tree.c ****         obj->parent->spec_attr->children = lv_mem_realloc(obj->parent->spec_attr->children, obj->pa
 411:Middlewares/lvgl/src/core/lv_obj_tree.c ****     }
ARM GAS  /tmp/ccdh8Ctk.s 			page 21


 412:Middlewares/lvgl/src/core/lv_obj_tree.c **** 
 413:Middlewares/lvgl/src/core/lv_obj_tree.c ****     /*Free the object itself*/
 414:Middlewares/lvgl/src/core/lv_obj_tree.c ****     lv_mem_free(obj);
 415:Middlewares/lvgl/src/core/lv_obj_tree.c **** }
 416:Middlewares/lvgl/src/core/lv_obj_tree.c **** 
 417:Middlewares/lvgl/src/core/lv_obj_tree.c **** 
 418:Middlewares/lvgl/src/core/lv_obj_tree.c **** static lv_obj_tree_walk_res_t walk_core(lv_obj_t * obj, lv_obj_tree_walk_cb_t cb, void * user_data)
 419:Middlewares/lvgl/src/core/lv_obj_tree.c **** {
 472              		.loc 1 419 1 is_stmt 1 view -0
 473              		.cfi_startproc
 474              		@ args = 0, pretend = 0, frame = 0
 475              		@ frame_needed = 0, uses_anonymous_args = 0
 476              		.loc 1 419 1 is_stmt 0 view .LVU134
 477 0000 F8B5     		push	{r3, r4, r5, r6, r7, lr}
 478              	.LCFI6:
 479              		.cfi_def_cfa_offset 24
 480              		.cfi_offset 3, -24
 481              		.cfi_offset 4, -20
 482              		.cfi_offset 5, -16
 483              		.cfi_offset 6, -12
 484              		.cfi_offset 7, -8
 485              		.cfi_offset 14, -4
 486 0002 0D46     		mov	r5, r1
 487 0004 1646     		mov	r6, r2
 420:Middlewares/lvgl/src/core/lv_obj_tree.c ****     lv_obj_tree_walk_res_t res = LV_OBJ_TREE_WALK_NEXT;
 488              		.loc 1 420 5 is_stmt 1 view .LVU135
 489              	.LVL43:
 421:Middlewares/lvgl/src/core/lv_obj_tree.c **** 
 422:Middlewares/lvgl/src/core/lv_obj_tree.c ****     if(obj == NULL) {
 490              		.loc 1 422 5 view .LVU136
 491              		.loc 1 422 7 is_stmt 0 view .LVU137
 492 0006 C0B1     		cbz	r0, .L48
 493 0008 0746     		mov	r7, r0
 423:Middlewares/lvgl/src/core/lv_obj_tree.c ****         lv_disp_t * disp = lv_disp_get_next(NULL);
 424:Middlewares/lvgl/src/core/lv_obj_tree.c ****         while(disp) {
 425:Middlewares/lvgl/src/core/lv_obj_tree.c ****             uint32_t i;
 426:Middlewares/lvgl/src/core/lv_obj_tree.c ****             for(i = 0; i < disp->screen_cnt; i++) {
 427:Middlewares/lvgl/src/core/lv_obj_tree.c ****                 walk_core(disp->screens[i], cb, user_data);
 428:Middlewares/lvgl/src/core/lv_obj_tree.c ****             }
 429:Middlewares/lvgl/src/core/lv_obj_tree.c ****             disp = lv_disp_get_next(disp);
 430:Middlewares/lvgl/src/core/lv_obj_tree.c ****         }
 431:Middlewares/lvgl/src/core/lv_obj_tree.c ****         return LV_OBJ_TREE_WALK_END;    /*The value doesn't matter as it wasn't called recursively*
 432:Middlewares/lvgl/src/core/lv_obj_tree.c ****     }
 433:Middlewares/lvgl/src/core/lv_obj_tree.c **** 
 434:Middlewares/lvgl/src/core/lv_obj_tree.c ****     res = cb(obj, user_data);
 494              		.loc 1 434 5 is_stmt 1 view .LVU138
 495              		.loc 1 434 11 is_stmt 0 view .LVU139
 496 000a 1146     		mov	r1, r2
 497              	.LVL44:
 498              		.loc 1 434 11 view .LVU140
 499 000c A847     		blx	r5
 500              	.LVL45:
 435:Middlewares/lvgl/src/core/lv_obj_tree.c **** 
 436:Middlewares/lvgl/src/core/lv_obj_tree.c ****     if(res == LV_OBJ_TREE_WALK_END) return LV_OBJ_TREE_WALK_END;
 501              		.loc 1 436 5 is_stmt 1 view .LVU141
 502              		.loc 1 436 7 is_stmt 0 view .LVU142
 503 000e 0228     		cmp	r0, #2
ARM GAS  /tmp/ccdh8Ctk.s 			page 22


 504 0010 2ED0     		beq	.L42
 437:Middlewares/lvgl/src/core/lv_obj_tree.c **** 
 438:Middlewares/lvgl/src/core/lv_obj_tree.c ****     if(res != LV_OBJ_TREE_WALK_SKIP_CHILDREN) {
 505              		.loc 1 438 5 is_stmt 1 view .LVU143
 506              		.loc 1 438 7 is_stmt 0 view .LVU144
 507 0012 0128     		cmp	r0, #1
 508 0014 29D0     		beq	.L49
 509              	.LBB30:
 439:Middlewares/lvgl/src/core/lv_obj_tree.c ****         uint32_t i;
 440:Middlewares/lvgl/src/core/lv_obj_tree.c ****         for(i = 0; i < lv_obj_get_child_cnt(obj); i++) {
 510              		.loc 1 440 15 view .LVU145
 511 0016 0024     		movs	r4, #0
 512              	.L43:
 513              	.LVL46:
 514              		.loc 1 440 20 is_stmt 1 discriminator 1 view .LVU146
 515              		.loc 1 440 24 is_stmt 0 discriminator 1 view .LVU147
 516 0018 3846     		mov	r0, r7
 517              	.LVL47:
 518              		.loc 1 440 24 discriminator 1 view .LVU148
 519 001a FFF7FEFF 		bl	lv_obj_get_child_cnt
 520              	.LVL48:
 521              		.loc 1 440 9 discriminator 1 view .LVU149
 522 001e A042     		cmp	r0, r4
 523 0020 25D9     		bls	.L50
 441:Middlewares/lvgl/src/core/lv_obj_tree.c ****             res = walk_core(lv_obj_get_child(obj, i), cb, user_data);
 524              		.loc 1 441 13 is_stmt 1 view .LVU150
 525              		.loc 1 441 29 is_stmt 0 view .LVU151
 526 0022 2146     		mov	r1, r4
 527 0024 3846     		mov	r0, r7
 528 0026 FFF7FEFF 		bl	lv_obj_get_child
 529              	.LVL49:
 530              		.loc 1 441 19 view .LVU152
 531 002a 3246     		mov	r2, r6
 532 002c 2946     		mov	r1, r5
 533 002e FFF7E7FF 		bl	walk_core
 534              	.LVL50:
 442:Middlewares/lvgl/src/core/lv_obj_tree.c ****             if(res == LV_OBJ_TREE_WALK_END) return LV_OBJ_TREE_WALK_END;
 535              		.loc 1 442 13 is_stmt 1 view .LVU153
 536              		.loc 1 442 15 is_stmt 0 view .LVU154
 537 0032 0228     		cmp	r0, #2
 538 0034 1CD0     		beq	.L42
 440:Middlewares/lvgl/src/core/lv_obj_tree.c ****             res = walk_core(lv_obj_get_child(obj, i), cb, user_data);
 539              		.loc 1 440 51 is_stmt 1 discriminator 2 view .LVU155
 440:Middlewares/lvgl/src/core/lv_obj_tree.c ****             res = walk_core(lv_obj_get_child(obj, i), cb, user_data);
 540              		.loc 1 440 52 is_stmt 0 discriminator 2 view .LVU156
 541 0036 0134     		adds	r4, r4, #1
 542              	.LVL51:
 440:Middlewares/lvgl/src/core/lv_obj_tree.c ****             res = walk_core(lv_obj_get_child(obj, i), cb, user_data);
 543              		.loc 1 440 52 discriminator 2 view .LVU157
 544 0038 EEE7     		b	.L43
 545              	.LVL52:
 546              	.L48:
 440:Middlewares/lvgl/src/core/lv_obj_tree.c ****             res = walk_core(lv_obj_get_child(obj, i), cb, user_data);
 547              		.loc 1 440 52 discriminator 2 view .LVU158
 548              	.LBE30:
 549              	.LBB31:
 423:Middlewares/lvgl/src/core/lv_obj_tree.c ****         while(disp) {
ARM GAS  /tmp/ccdh8Ctk.s 			page 23


 550              		.loc 1 423 9 is_stmt 1 view .LVU159
 423:Middlewares/lvgl/src/core/lv_obj_tree.c ****         while(disp) {
 551              		.loc 1 423 28 is_stmt 0 view .LVU160
 552 003a FFF7FEFF 		bl	lv_disp_get_next
 553              	.LVL53:
 423:Middlewares/lvgl/src/core/lv_obj_tree.c ****         while(disp) {
 554              		.loc 1 423 28 view .LVU161
 555 003e 0746     		mov	r7, r0
 556              	.LVL54:
 424:Middlewares/lvgl/src/core/lv_obj_tree.c ****             uint32_t i;
 557              		.loc 1 424 9 is_stmt 1 view .LVU162
 424:Middlewares/lvgl/src/core/lv_obj_tree.c ****             uint32_t i;
 558              		.loc 1 424 14 is_stmt 0 view .LVU163
 559 0040 0EE0     		b	.L39
 560              	.LVL55:
 561              	.L40:
 562              	.LBB32:
 427:Middlewares/lvgl/src/core/lv_obj_tree.c ****             }
 563              		.loc 1 427 17 is_stmt 1 discriminator 3 view .LVU164
 427:Middlewares/lvgl/src/core/lv_obj_tree.c ****             }
 564              		.loc 1 427 31 is_stmt 0 discriminator 3 view .LVU165
 565 0042 FB68     		ldr	r3, [r7, #12]
 427:Middlewares/lvgl/src/core/lv_obj_tree.c ****             }
 566              		.loc 1 427 17 discriminator 3 view .LVU166
 567 0044 3246     		mov	r2, r6
 568 0046 2946     		mov	r1, r5
 569 0048 53F82400 		ldr	r0, [r3, r4, lsl #2]
 570 004c FFF7D8FF 		bl	walk_core
 571              	.LVL56:
 426:Middlewares/lvgl/src/core/lv_obj_tree.c ****                 walk_core(disp->screens[i], cb, user_data);
 572              		.loc 1 426 46 is_stmt 1 discriminator 3 view .LVU167
 426:Middlewares/lvgl/src/core/lv_obj_tree.c ****                 walk_core(disp->screens[i], cb, user_data);
 573              		.loc 1 426 47 is_stmt 0 discriminator 3 view .LVU168
 574 0050 0134     		adds	r4, r4, #1
 575              	.LVL57:
 576              	.L41:
 426:Middlewares/lvgl/src/core/lv_obj_tree.c ****                 walk_core(disp->screens[i], cb, user_data);
 577              		.loc 1 426 24 is_stmt 1 discriminator 1 view .LVU169
 426:Middlewares/lvgl/src/core/lv_obj_tree.c ****                 walk_core(disp->screens[i], cb, user_data);
 578              		.loc 1 426 32 is_stmt 0 discriminator 1 view .LVU170
 579 0052 7B6A     		ldr	r3, [r7, #36]
 426:Middlewares/lvgl/src/core/lv_obj_tree.c ****                 walk_core(disp->screens[i], cb, user_data);
 580              		.loc 1 426 13 discriminator 1 view .LVU171
 581 0054 A342     		cmp	r3, r4
 582 0056 F4D8     		bhi	.L40
 429:Middlewares/lvgl/src/core/lv_obj_tree.c ****         }
 583              		.loc 1 429 13 is_stmt 1 view .LVU172
 429:Middlewares/lvgl/src/core/lv_obj_tree.c ****         }
 584              		.loc 1 429 20 is_stmt 0 view .LVU173
 585 0058 3846     		mov	r0, r7
 586 005a FFF7FEFF 		bl	lv_disp_get_next
 587              	.LVL58:
 588 005e 0746     		mov	r7, r0
 589              	.LVL59:
 590              	.L39:
 429:Middlewares/lvgl/src/core/lv_obj_tree.c ****         }
 591              		.loc 1 429 20 view .LVU174
ARM GAS  /tmp/ccdh8Ctk.s 			page 24


 592              	.LBE32:
 424:Middlewares/lvgl/src/core/lv_obj_tree.c ****             uint32_t i;
 593              		.loc 1 424 14 is_stmt 1 view .LVU175
 594 0060 0FB1     		cbz	r7, .L51
 595              	.LBB33:
 426:Middlewares/lvgl/src/core/lv_obj_tree.c ****                 walk_core(disp->screens[i], cb, user_data);
 596              		.loc 1 426 19 is_stmt 0 view .LVU176
 597 0062 0024     		movs	r4, #0
 598 0064 F5E7     		b	.L41
 599              	.L51:
 600              	.LBE33:
 431:Middlewares/lvgl/src/core/lv_obj_tree.c ****     }
 601              		.loc 1 431 16 view .LVU177
 602 0066 0220     		movs	r0, #2
 603              	.LVL60:
 431:Middlewares/lvgl/src/core/lv_obj_tree.c ****     }
 604              		.loc 1 431 16 view .LVU178
 605 0068 02E0     		b	.L42
 606              	.LVL61:
 607              	.L49:
 431:Middlewares/lvgl/src/core/lv_obj_tree.c ****     }
 608              		.loc 1 431 16 view .LVU179
 609              	.LBE31:
 443:Middlewares/lvgl/src/core/lv_obj_tree.c ****         }
 444:Middlewares/lvgl/src/core/lv_obj_tree.c ****     }
 445:Middlewares/lvgl/src/core/lv_obj_tree.c ****     return LV_OBJ_TREE_WALK_NEXT;
 610              		.loc 1 445 12 view .LVU180
 611 006a 0020     		movs	r0, #0
 612              	.LVL62:
 613              		.loc 1 445 12 view .LVU181
 614 006c 00E0     		b	.L42
 615              	.LVL63:
 616              	.L50:
 617              		.loc 1 445 12 view .LVU182
 618 006e 0020     		movs	r0, #0
 619              	.LVL64:
 620              	.L42:
 446:Middlewares/lvgl/src/core/lv_obj_tree.c **** }
 621              		.loc 1 446 1 view .LVU183
 622 0070 F8BD     		pop	{r3, r4, r5, r6, r7, pc}
 623              		.loc 1 446 1 view .LVU184
 624              		.cfi_endproc
 625              	.LFE164:
 627              		.section	.text.lv_obj_get_child_id,"ax",%progbits
 628              		.align	1
 629              		.global	lv_obj_get_child_id
 630              		.syntax unified
 631              		.thumb
 632              		.thumb_func
 634              	lv_obj_get_child_id:
 635              	.LVL65:
 636              	.LFB160:
 309:Middlewares/lvgl/src/core/lv_obj_tree.c ****     LV_ASSERT_OBJ(obj, MY_CLASS);
 637              		.loc 1 309 1 is_stmt 1 view -0
 638              		.cfi_startproc
 639              		@ args = 0, pretend = 0, frame = 0
 640              		@ frame_needed = 0, uses_anonymous_args = 0
ARM GAS  /tmp/ccdh8Ctk.s 			page 25


 309:Middlewares/lvgl/src/core/lv_obj_tree.c ****     LV_ASSERT_OBJ(obj, MY_CLASS);
 641              		.loc 1 309 1 is_stmt 0 view .LVU186
 642 0000 70B5     		push	{r4, r5, r6, lr}
 643              	.LCFI7:
 644              		.cfi_def_cfa_offset 16
 645              		.cfi_offset 4, -16
 646              		.cfi_offset 5, -12
 647              		.cfi_offset 6, -8
 648              		.cfi_offset 14, -4
 649 0002 0646     		mov	r6, r0
 310:Middlewares/lvgl/src/core/lv_obj_tree.c **** 
 650              		.loc 1 310 5 is_stmt 1 view .LVU187
 310:Middlewares/lvgl/src/core/lv_obj_tree.c **** 
 651              		.loc 1 310 5 view .LVU188
 310:Middlewares/lvgl/src/core/lv_obj_tree.c **** 
 652              		.loc 1 310 5 view .LVU189
 312:Middlewares/lvgl/src/core/lv_obj_tree.c ****     if(parent == NULL) return 0;
 653              		.loc 1 312 5 view .LVU190
 312:Middlewares/lvgl/src/core/lv_obj_tree.c ****     if(parent == NULL) return 0;
 654              		.loc 1 312 25 is_stmt 0 view .LVU191
 655 0004 FFF7FEFF 		bl	lv_obj_get_parent
 656              	.LVL66:
 313:Middlewares/lvgl/src/core/lv_obj_tree.c **** 
 657              		.loc 1 313 5 is_stmt 1 view .LVU192
 313:Middlewares/lvgl/src/core/lv_obj_tree.c **** 
 658              		.loc 1 313 7 is_stmt 0 view .LVU193
 659 0008 90B1     		cbz	r0, .L56
 660 000a 0546     		mov	r5, r0
 316:Middlewares/lvgl/src/core/lv_obj_tree.c ****         if(lv_obj_get_child(parent, i) == obj) return i;
 661              		.loc 1 316 11 view .LVU194
 662 000c 0024     		movs	r4, #0
 663              	.LVL67:
 664              	.L54:
 316:Middlewares/lvgl/src/core/lv_obj_tree.c ****         if(lv_obj_get_child(parent, i) == obj) return i;
 665              		.loc 1 316 16 is_stmt 1 discriminator 1 view .LVU195
 316:Middlewares/lvgl/src/core/lv_obj_tree.c ****         if(lv_obj_get_child(parent, i) == obj) return i;
 666              		.loc 1 316 20 is_stmt 0 discriminator 1 view .LVU196
 667 000e 2846     		mov	r0, r5
 668 0010 FFF7FEFF 		bl	lv_obj_get_child_cnt
 669              	.LVL68:
 316:Middlewares/lvgl/src/core/lv_obj_tree.c ****         if(lv_obj_get_child(parent, i) == obj) return i;
 670              		.loc 1 316 5 discriminator 1 view .LVU197
 671 0014 A042     		cmp	r0, r4
 672 0016 07D9     		bls	.L58
 317:Middlewares/lvgl/src/core/lv_obj_tree.c ****     }
 673              		.loc 1 317 9 is_stmt 1 view .LVU198
 317:Middlewares/lvgl/src/core/lv_obj_tree.c ****     }
 674              		.loc 1 317 12 is_stmt 0 view .LVU199
 675 0018 2146     		mov	r1, r4
 676 001a 2846     		mov	r0, r5
 677 001c FFF7FEFF 		bl	lv_obj_get_child
 678              	.LVL69:
 317:Middlewares/lvgl/src/core/lv_obj_tree.c ****     }
 679              		.loc 1 317 11 view .LVU200
 680 0020 8642     		cmp	r6, r0
 681 0022 03D0     		beq	.L52
 316:Middlewares/lvgl/src/core/lv_obj_tree.c ****         if(lv_obj_get_child(parent, i) == obj) return i;
ARM GAS  /tmp/ccdh8Ctk.s 			page 26


 682              		.loc 1 316 50 is_stmt 1 discriminator 2 view .LVU201
 316:Middlewares/lvgl/src/core/lv_obj_tree.c ****         if(lv_obj_get_child(parent, i) == obj) return i;
 683              		.loc 1 316 51 is_stmt 0 discriminator 2 view .LVU202
 684 0024 0134     		adds	r4, r4, #1
 685              	.LVL70:
 316:Middlewares/lvgl/src/core/lv_obj_tree.c ****         if(lv_obj_get_child(parent, i) == obj) return i;
 686              		.loc 1 316 51 discriminator 2 view .LVU203
 687 0026 F2E7     		b	.L54
 688              	.L58:
 320:Middlewares/lvgl/src/core/lv_obj_tree.c **** }
 689              		.loc 1 320 12 view .LVU204
 690 0028 4FF0FF34 		mov	r4, #-1
 691              	.LVL71:
 692              	.L52:
 321:Middlewares/lvgl/src/core/lv_obj_tree.c **** 
 693              		.loc 1 321 1 view .LVU205
 694 002c 2046     		mov	r0, r4
 695 002e 70BD     		pop	{r4, r5, r6, pc}
 696              	.LVL72:
 697              	.L56:
 313:Middlewares/lvgl/src/core/lv_obj_tree.c **** 
 698              		.loc 1 313 31 view .LVU206
 699 0030 0024     		movs	r4, #0
 700 0032 FBE7     		b	.L52
 701              		.cfi_endproc
 702              	.LFE160:
 704              		.section	.text.obj_del_core,"ax",%progbits
 705              		.align	1
 706              		.syntax unified
 707              		.thumb
 708              		.thumb_func
 710              	obj_del_core:
 711              	.LVL73:
 712              	.LFB163:
 341:Middlewares/lvgl/src/core/lv_obj_tree.c ****     /*Let the user free the resources used in `LV_EVENT_DELETE`*/
 713              		.loc 1 341 1 is_stmt 1 view -0
 714              		.cfi_startproc
 715              		@ args = 0, pretend = 0, frame = 0
 716              		@ frame_needed = 0, uses_anonymous_args = 0
 341:Middlewares/lvgl/src/core/lv_obj_tree.c ****     /*Let the user free the resources used in `LV_EVENT_DELETE`*/
 717              		.loc 1 341 1 is_stmt 0 view .LVU208
 718 0000 70B5     		push	{r4, r5, r6, lr}
 719              	.LCFI8:
 720              		.cfi_def_cfa_offset 16
 721              		.cfi_offset 4, -16
 722              		.cfi_offset 5, -12
 723              		.cfi_offset 6, -8
 724              		.cfi_offset 14, -4
 725 0002 0546     		mov	r5, r0
 343:Middlewares/lvgl/src/core/lv_obj_tree.c ****     if(res == LV_RES_INV) return;
 726              		.loc 1 343 5 is_stmt 1 view .LVU209
 343:Middlewares/lvgl/src/core/lv_obj_tree.c ****     if(res == LV_RES_INV) return;
 727              		.loc 1 343 20 is_stmt 0 view .LVU210
 728 0004 0022     		movs	r2, #0
 729 0006 2121     		movs	r1, #33
 730 0008 FFF7FEFF 		bl	lv_event_send
 731              	.LVL74:
ARM GAS  /tmp/ccdh8Ctk.s 			page 27


 344:Middlewares/lvgl/src/core/lv_obj_tree.c **** 
 732              		.loc 1 344 5 is_stmt 1 view .LVU211
 344:Middlewares/lvgl/src/core/lv_obj_tree.c **** 
 733              		.loc 1 344 7 is_stmt 0 view .LVU212
 734 000c 00B9     		cbnz	r0, .L80
 735              	.LVL75:
 736              	.L59:
 415:Middlewares/lvgl/src/core/lv_obj_tree.c **** 
 737              		.loc 1 415 1 view .LVU213
 738 000e 70BD     		pop	{r4, r5, r6, pc}
 739              	.LVL76:
 740              	.L80:
 347:Middlewares/lvgl/src/core/lv_obj_tree.c ****     if(group) lv_group_remove_obj(obj);
 741              		.loc 1 347 5 is_stmt 1 view .LVU214
 347:Middlewares/lvgl/src/core/lv_obj_tree.c ****     if(group) lv_group_remove_obj(obj);
 742              		.loc 1 347 26 is_stmt 0 view .LVU215
 743 0010 2846     		mov	r0, r5
 744              	.LVL77:
 347:Middlewares/lvgl/src/core/lv_obj_tree.c ****     if(group) lv_group_remove_obj(obj);
 745              		.loc 1 347 26 view .LVU216
 746 0012 FFF7FEFF 		bl	lv_obj_get_group
 747              	.LVL78:
 348:Middlewares/lvgl/src/core/lv_obj_tree.c **** 
 748              		.loc 1 348 5 is_stmt 1 view .LVU217
 348:Middlewares/lvgl/src/core/lv_obj_tree.c **** 
 749              		.loc 1 348 7 is_stmt 0 view .LVU218
 750 0016 0646     		mov	r6, r0
 751 0018 10B1     		cbz	r0, .L61
 348:Middlewares/lvgl/src/core/lv_obj_tree.c **** 
 752              		.loc 1 348 15 is_stmt 1 discriminator 1 view .LVU219
 753 001a 2846     		mov	r0, r5
 754              	.LVL79:
 348:Middlewares/lvgl/src/core/lv_obj_tree.c **** 
 755              		.loc 1 348 15 is_stmt 0 discriminator 1 view .LVU220
 756 001c FFF7FEFF 		bl	lv_group_remove_obj
 757              	.LVL80:
 758              	.L61:
 351:Middlewares/lvgl/src/core/lv_obj_tree.c **** 
 759              		.loc 1 351 5 is_stmt 1 view .LVU221
 760 0020 0021     		movs	r1, #0
 761 0022 2846     		mov	r0, r5
 762 0024 FFF7FEFF 		bl	lv_anim_del
 763              	.LVL81:
 354:Middlewares/lvgl/src/core/lv_obj_tree.c ****     while(child) {
 764              		.loc 1 354 5 view .LVU222
 354:Middlewares/lvgl/src/core/lv_obj_tree.c ****     while(child) {
 765              		.loc 1 354 24 is_stmt 0 view .LVU223
 766 0028 0021     		movs	r1, #0
 767 002a 2846     		mov	r0, r5
 768 002c FFF7FEFF 		bl	lv_obj_get_child
 769              	.LVL82:
 355:Middlewares/lvgl/src/core/lv_obj_tree.c ****         obj_del_core(child);
 770              		.loc 1 355 5 is_stmt 1 view .LVU224
 355:Middlewares/lvgl/src/core/lv_obj_tree.c ****         obj_del_core(child);
 771              		.loc 1 355 10 is_stmt 0 view .LVU225
 772 0030 05E0     		b	.L62
 773              	.L63:
ARM GAS  /tmp/ccdh8Ctk.s 			page 28


 356:Middlewares/lvgl/src/core/lv_obj_tree.c ****         child = lv_obj_get_child(obj, 0);
 774              		.loc 1 356 9 is_stmt 1 view .LVU226
 775 0032 FFF7E5FF 		bl	obj_del_core
 776              	.LVL83:
 357:Middlewares/lvgl/src/core/lv_obj_tree.c ****     }
 777              		.loc 1 357 9 view .LVU227
 357:Middlewares/lvgl/src/core/lv_obj_tree.c ****     }
 778              		.loc 1 357 17 is_stmt 0 view .LVU228
 779 0036 0021     		movs	r1, #0
 780 0038 2846     		mov	r0, r5
 781 003a FFF7FEFF 		bl	lv_obj_get_child
 782              	.LVL84:
 783              	.L62:
 355:Middlewares/lvgl/src/core/lv_obj_tree.c ****         obj_del_core(child);
 784              		.loc 1 355 10 is_stmt 1 view .LVU229
 785 003e 0028     		cmp	r0, #0
 786 0040 F7D1     		bne	.L63
 360:Middlewares/lvgl/src/core/lv_obj_tree.c **** 
 787              		.loc 1 360 5 view .LVU230
 788 0042 2846     		mov	r0, r5
 789              	.LVL85:
 360:Middlewares/lvgl/src/core/lv_obj_tree.c **** 
 790              		.loc 1 360 5 is_stmt 0 view .LVU231
 791 0044 FFF7FEFF 		bl	_lv_event_mark_deleted
 792              	.LVL86:
 363:Middlewares/lvgl/src/core/lv_obj_tree.c ****     lv_obj_remove_style_all(obj);
 793              		.loc 1 363 5 is_stmt 1 view .LVU232
 794 0048 0020     		movs	r0, #0
 795 004a FFF7FEFF 		bl	lv_obj_enable_style_refresh
 796              	.LVL87:
 364:Middlewares/lvgl/src/core/lv_obj_tree.c ****     lv_obj_enable_style_refresh(true);
 797              		.loc 1 364 5 view .LVU233
 798              	.LBB34:
 799              	.LBI34:
 800              		.file 3 "Middlewares/lvgl/src/core/lv_obj_style.h"
   1:Middlewares/lvgl/src/core/lv_obj_style.h **** /**
   2:Middlewares/lvgl/src/core/lv_obj_style.h ****  * @file lv_obj_style.h
   3:Middlewares/lvgl/src/core/lv_obj_style.h ****  *
   4:Middlewares/lvgl/src/core/lv_obj_style.h ****  */
   5:Middlewares/lvgl/src/core/lv_obj_style.h **** 
   6:Middlewares/lvgl/src/core/lv_obj_style.h **** #ifndef LV_OBJ_STYLE_H
   7:Middlewares/lvgl/src/core/lv_obj_style.h **** #define LV_OBJ_STYLE_H
   8:Middlewares/lvgl/src/core/lv_obj_style.h **** 
   9:Middlewares/lvgl/src/core/lv_obj_style.h **** #ifdef __cplusplus
  10:Middlewares/lvgl/src/core/lv_obj_style.h **** extern "C" {
  11:Middlewares/lvgl/src/core/lv_obj_style.h **** #endif
  12:Middlewares/lvgl/src/core/lv_obj_style.h **** 
  13:Middlewares/lvgl/src/core/lv_obj_style.h **** /*********************
  14:Middlewares/lvgl/src/core/lv_obj_style.h ****  *      INCLUDES
  15:Middlewares/lvgl/src/core/lv_obj_style.h ****  *********************/
  16:Middlewares/lvgl/src/core/lv_obj_style.h **** #include <stdint.h>
  17:Middlewares/lvgl/src/core/lv_obj_style.h **** #include <stdbool.h>
  18:Middlewares/lvgl/src/core/lv_obj_style.h **** #include "../misc/lv_bidi.h"
  19:Middlewares/lvgl/src/core/lv_obj_style.h **** 
  20:Middlewares/lvgl/src/core/lv_obj_style.h **** /*********************
  21:Middlewares/lvgl/src/core/lv_obj_style.h ****  *      DEFINES
  22:Middlewares/lvgl/src/core/lv_obj_style.h ****  *********************/
ARM GAS  /tmp/ccdh8Ctk.s 			page 29


  23:Middlewares/lvgl/src/core/lv_obj_style.h **** 
  24:Middlewares/lvgl/src/core/lv_obj_style.h **** /**********************
  25:Middlewares/lvgl/src/core/lv_obj_style.h ****  *      TYPEDEFS
  26:Middlewares/lvgl/src/core/lv_obj_style.h ****  **********************/
  27:Middlewares/lvgl/src/core/lv_obj_style.h **** /*Can't include lv_obj.h because it includes this header file*/
  28:Middlewares/lvgl/src/core/lv_obj_style.h **** struct _lv_obj_t;
  29:Middlewares/lvgl/src/core/lv_obj_style.h **** 
  30:Middlewares/lvgl/src/core/lv_obj_style.h **** typedef enum {
  31:Middlewares/lvgl/src/core/lv_obj_style.h ****     _LV_STYLE_STATE_CMP_SAME,           /*The style properties in the 2 states are identical*/
  32:Middlewares/lvgl/src/core/lv_obj_style.h ****     _LV_STYLE_STATE_CMP_DIFF_REDRAW,    /*The differences can be shown with a simple redraw*/
  33:Middlewares/lvgl/src/core/lv_obj_style.h ****     _LV_STYLE_STATE_CMP_DIFF_DRAW_PAD,  /*The differences can be shown with a simple redraw*/
  34:Middlewares/lvgl/src/core/lv_obj_style.h ****     _LV_STYLE_STATE_CMP_DIFF_LAYOUT,    /*The differences can be shown with a simple redraw*/
  35:Middlewares/lvgl/src/core/lv_obj_style.h **** } _lv_style_state_cmp_t;
  36:Middlewares/lvgl/src/core/lv_obj_style.h **** 
  37:Middlewares/lvgl/src/core/lv_obj_style.h **** typedef uint32_t lv_style_selector_t;
  38:Middlewares/lvgl/src/core/lv_obj_style.h **** 
  39:Middlewares/lvgl/src/core/lv_obj_style.h **** typedef struct {
  40:Middlewares/lvgl/src/core/lv_obj_style.h ****     lv_style_t * style;
  41:Middlewares/lvgl/src/core/lv_obj_style.h ****     uint32_t selector :24;
  42:Middlewares/lvgl/src/core/lv_obj_style.h ****     uint32_t is_local :1;
  43:Middlewares/lvgl/src/core/lv_obj_style.h ****     uint32_t is_trans :1;
  44:Middlewares/lvgl/src/core/lv_obj_style.h **** }_lv_obj_style_t;
  45:Middlewares/lvgl/src/core/lv_obj_style.h **** 
  46:Middlewares/lvgl/src/core/lv_obj_style.h **** typedef struct {
  47:Middlewares/lvgl/src/core/lv_obj_style.h ****     uint16_t time;
  48:Middlewares/lvgl/src/core/lv_obj_style.h ****     uint16_t delay;
  49:Middlewares/lvgl/src/core/lv_obj_style.h ****     lv_style_selector_t selector;
  50:Middlewares/lvgl/src/core/lv_obj_style.h ****     lv_style_prop_t prop;
  51:Middlewares/lvgl/src/core/lv_obj_style.h ****     lv_anim_path_cb_t path_cb;
  52:Middlewares/lvgl/src/core/lv_obj_style.h **** #if LV_USE_USER_DATA
  53:Middlewares/lvgl/src/core/lv_obj_style.h ****     void * user_data;
  54:Middlewares/lvgl/src/core/lv_obj_style.h **** #endif
  55:Middlewares/lvgl/src/core/lv_obj_style.h **** }_lv_obj_style_transition_dsc_t;
  56:Middlewares/lvgl/src/core/lv_obj_style.h **** 
  57:Middlewares/lvgl/src/core/lv_obj_style.h **** /**********************
  58:Middlewares/lvgl/src/core/lv_obj_style.h ****  * GLOBAL PROTOTYPES
  59:Middlewares/lvgl/src/core/lv_obj_style.h ****  **********************/
  60:Middlewares/lvgl/src/core/lv_obj_style.h **** 
  61:Middlewares/lvgl/src/core/lv_obj_style.h **** /**
  62:Middlewares/lvgl/src/core/lv_obj_style.h ****  * Initialize the object related style manager module.
  63:Middlewares/lvgl/src/core/lv_obj_style.h ****  * Called by LVGL in `lv_init()`
  64:Middlewares/lvgl/src/core/lv_obj_style.h ****  */
  65:Middlewares/lvgl/src/core/lv_obj_style.h **** void _lv_obj_style_init(void);
  66:Middlewares/lvgl/src/core/lv_obj_style.h **** 
  67:Middlewares/lvgl/src/core/lv_obj_style.h **** /**
  68:Middlewares/lvgl/src/core/lv_obj_style.h ****  * Add a style to an object.
  69:Middlewares/lvgl/src/core/lv_obj_style.h ****  * @param obj       pointer to an object
  70:Middlewares/lvgl/src/core/lv_obj_style.h ****  * @param style     pointer to a style to add
  71:Middlewares/lvgl/src/core/lv_obj_style.h ****  * @param selector  OR-ed value of parts and state to which the style should be added
  72:Middlewares/lvgl/src/core/lv_obj_style.h ****  * @example         lv_obj_add_style(btn, &style_btn, 0); //Default button style
  73:Middlewares/lvgl/src/core/lv_obj_style.h ****  * @example         lv_obj_add_style(btn, &btn_red, LV_STATE_PRESSED); //Overwrite only some colors
  74:Middlewares/lvgl/src/core/lv_obj_style.h ****  */
  75:Middlewares/lvgl/src/core/lv_obj_style.h **** void lv_obj_add_style(struct _lv_obj_t * obj, lv_style_t * style, lv_style_selector_t selector);
  76:Middlewares/lvgl/src/core/lv_obj_style.h **** 
  77:Middlewares/lvgl/src/core/lv_obj_style.h **** /**
  78:Middlewares/lvgl/src/core/lv_obj_style.h ****  * Add a style to an object.
  79:Middlewares/lvgl/src/core/lv_obj_style.h ****  * @param obj       pointer to an object
ARM GAS  /tmp/ccdh8Ctk.s 			page 30


  80:Middlewares/lvgl/src/core/lv_obj_style.h ****  * @param style     pointer to a style to remove. Can be NULL to check only the selector
  81:Middlewares/lvgl/src/core/lv_obj_style.h ****  * @param selector  OR-ed values of states and a part to remove only styles with matching selectors
  82:Middlewares/lvgl/src/core/lv_obj_style.h ****  * @example lv_obj_remove_style(obj, &style, LV_PART_ANY | LV_STATE_ANY); //Remove a specific style
  83:Middlewares/lvgl/src/core/lv_obj_style.h ****  * @example lv_obj_remove_style(obj, NULL, LV_PART_MAIN | LV_STATE_ANY); //Remove all styles from t
  84:Middlewares/lvgl/src/core/lv_obj_style.h ****  * @example lv_obj_remove_style(obj, NULL, LV_PART_ANY | LV_STATE_ANY); //Remove all styles
  85:Middlewares/lvgl/src/core/lv_obj_style.h ****  */
  86:Middlewares/lvgl/src/core/lv_obj_style.h **** void lv_obj_remove_style(struct _lv_obj_t * obj, lv_style_t * style, lv_style_selector_t selector);
  87:Middlewares/lvgl/src/core/lv_obj_style.h **** 
  88:Middlewares/lvgl/src/core/lv_obj_style.h **** /**
  89:Middlewares/lvgl/src/core/lv_obj_style.h ****  * Remove all styles from an object
  90:Middlewares/lvgl/src/core/lv_obj_style.h ****  * @param obj       pointer to an object
  91:Middlewares/lvgl/src/core/lv_obj_style.h ****  */
  92:Middlewares/lvgl/src/core/lv_obj_style.h **** static inline void lv_obj_remove_style_all(struct _lv_obj_t * obj)
 801              		.loc 3 92 20 view .LVU234
 802              	.LBB35:
  93:Middlewares/lvgl/src/core/lv_obj_style.h **** {
  94:Middlewares/lvgl/src/core/lv_obj_style.h ****     lv_obj_remove_style(obj, NULL, LV_PART_ANY | LV_STATE_ANY);
 803              		.loc 3 94 5 view .LVU235
 804 004e 394A     		ldr	r2, .L86
 805 0050 0021     		movs	r1, #0
 806 0052 2846     		mov	r0, r5
 807 0054 FFF7FEFF 		bl	lv_obj_remove_style
 808              	.LVL88:
 809              		.loc 3 94 5 is_stmt 0 view .LVU236
 810              	.LBE35:
 811              	.LBE34:
 365:Middlewares/lvgl/src/core/lv_obj_tree.c **** 
 812              		.loc 1 365 5 is_stmt 1 view .LVU237
 813 0058 0120     		movs	r0, #1
 814 005a FFF7FEFF 		bl	lv_obj_enable_style_refresh
 815              	.LVL89:
 368:Middlewares/lvgl/src/core/lv_obj_tree.c ****     while(indev) {
 816              		.loc 1 368 5 view .LVU238
 368:Middlewares/lvgl/src/core/lv_obj_tree.c ****     while(indev) {
 817              		.loc 1 368 26 is_stmt 0 view .LVU239
 818 005e 0020     		movs	r0, #0
 819 0060 FFF7FEFF 		bl	lv_indev_get_next
 820              	.LVL90:
 821 0064 0446     		mov	r4, r0
 822              	.LVL91:
 369:Middlewares/lvgl/src/core/lv_obj_tree.c ****         if(indev->proc.types.pointer.act_obj == obj || indev->proc.types.pointer.last_obj == obj) {
 823              		.loc 1 369 5 is_stmt 1 view .LVU240
 369:Middlewares/lvgl/src/core/lv_obj_tree.c ****         if(indev->proc.types.pointer.act_obj == obj || indev->proc.types.pointer.last_obj == obj) {
 824              		.loc 1 369 10 is_stmt 0 view .LVU241
 825 0066 0DE0     		b	.L64
 826              	.L65:
 371:Middlewares/lvgl/src/core/lv_obj_tree.c ****         }
 827              		.loc 1 371 13 is_stmt 1 view .LVU242
 828 0068 2946     		mov	r1, r5
 829 006a 2046     		mov	r0, r4
 830              	.LVL92:
 371:Middlewares/lvgl/src/core/lv_obj_tree.c ****         }
 831              		.loc 1 371 13 is_stmt 0 view .LVU243
 832 006c FFF7FEFF 		bl	lv_indev_reset
 833              	.LVL93:
 834              	.L66:
 373:Middlewares/lvgl/src/core/lv_obj_tree.c ****             indev->proc.types.pointer.last_pressed = NULL;
ARM GAS  /tmp/ccdh8Ctk.s 			page 31


 835              		.loc 1 373 9 is_stmt 1 view .LVU244
 373:Middlewares/lvgl/src/core/lv_obj_tree.c ****             indev->proc.types.pointer.last_pressed = NULL;
 836              		.loc 1 373 37 is_stmt 0 view .LVU245
 837 0070 236B     		ldr	r3, [r4, #48]
 373:Middlewares/lvgl/src/core/lv_obj_tree.c ****             indev->proc.types.pointer.last_pressed = NULL;
 838              		.loc 1 373 11 view .LVU246
 839 0072 AB42     		cmp	r3, r5
 840 0074 0ED0     		beq	.L81
 841              	.L67:
 377:Middlewares/lvgl/src/core/lv_obj_tree.c ****             lv_indev_reset(indev, obj);
 842              		.loc 1 377 9 is_stmt 1 view .LVU247
 377:Middlewares/lvgl/src/core/lv_obj_tree.c ****             lv_indev_reset(indev, obj);
 843              		.loc 1 377 17 is_stmt 0 view .LVU248
 844 0076 236D     		ldr	r3, [r4, #80]
 377:Middlewares/lvgl/src/core/lv_obj_tree.c ****             lv_indev_reset(indev, obj);
 845              		.loc 1 377 11 view .LVU249
 846 0078 B342     		cmp	r3, r6
 847 007a 0ED0     		beq	.L82
 848              	.L68:
 380:Middlewares/lvgl/src/core/lv_obj_tree.c ****     }
 849              		.loc 1 380 9 is_stmt 1 view .LVU250
 380:Middlewares/lvgl/src/core/lv_obj_tree.c ****     }
 850              		.loc 1 380 17 is_stmt 0 view .LVU251
 851 007c 2046     		mov	r0, r4
 852 007e FFF7FEFF 		bl	lv_indev_get_next
 853              	.LVL94:
 854 0082 0446     		mov	r4, r0
 855              	.LVL95:
 856              	.L64:
 369:Middlewares/lvgl/src/core/lv_obj_tree.c ****         if(indev->proc.types.pointer.act_obj == obj || indev->proc.types.pointer.last_obj == obj) {
 857              		.loc 1 369 10 is_stmt 1 view .LVU252
 858 0084 94B1     		cbz	r4, .L83
 370:Middlewares/lvgl/src/core/lv_obj_tree.c ****             lv_indev_reset(indev, obj);
 859              		.loc 1 370 9 view .LVU253
 370:Middlewares/lvgl/src/core/lv_obj_tree.c ****             lv_indev_reset(indev, obj);
 860              		.loc 1 370 37 is_stmt 0 view .LVU254
 861 0086 636A     		ldr	r3, [r4, #36]
 370:Middlewares/lvgl/src/core/lv_obj_tree.c ****             lv_indev_reset(indev, obj);
 862              		.loc 1 370 11 view .LVU255
 863 0088 AB42     		cmp	r3, r5
 864 008a EDD0     		beq	.L65
 370:Middlewares/lvgl/src/core/lv_obj_tree.c ****             lv_indev_reset(indev, obj);
 865              		.loc 1 370 81 discriminator 1 view .LVU256
 866 008c A36A     		ldr	r3, [r4, #40]
 370:Middlewares/lvgl/src/core/lv_obj_tree.c ****             lv_indev_reset(indev, obj);
 867              		.loc 1 370 53 discriminator 1 view .LVU257
 868 008e AB42     		cmp	r3, r5
 869 0090 EED1     		bne	.L66
 870 0092 E9E7     		b	.L65
 871              	.LVL96:
 872              	.L81:
 374:Middlewares/lvgl/src/core/lv_obj_tree.c ****         }
 873              		.loc 1 374 13 is_stmt 1 view .LVU258
 374:Middlewares/lvgl/src/core/lv_obj_tree.c ****         }
 874              		.loc 1 374 52 is_stmt 0 view .LVU259
 875 0094 0023     		movs	r3, #0
 876 0096 2363     		str	r3, [r4, #48]
ARM GAS  /tmp/ccdh8Ctk.s 			page 32


 877 0098 EDE7     		b	.L67
 878              	.L82:
 377:Middlewares/lvgl/src/core/lv_obj_tree.c ****             lv_indev_reset(indev, obj);
 879              		.loc 1 377 44 discriminator 1 view .LVU260
 880 009a FFF7FEFF 		bl	lv_indev_get_obj_act
 881              	.LVL97:
 377:Middlewares/lvgl/src/core/lv_obj_tree.c ****             lv_indev_reset(indev, obj);
 882              		.loc 1 377 34 discriminator 1 view .LVU261
 883 009e 8542     		cmp	r5, r0
 884 00a0 ECD1     		bne	.L68
 378:Middlewares/lvgl/src/core/lv_obj_tree.c ****         }
 885              		.loc 1 378 13 is_stmt 1 view .LVU262
 886 00a2 2946     		mov	r1, r5
 887 00a4 2046     		mov	r0, r4
 888 00a6 FFF7FEFF 		bl	lv_indev_reset
 889              	.LVL98:
 890 00aa E7E7     		b	.L68
 891              	.LVL99:
 892              	.L83:
 384:Middlewares/lvgl/src/core/lv_obj_tree.c **** 
 893              		.loc 1 384 5 view .LVU263
 894 00ac 2846     		mov	r0, r5
 895              	.LVL100:
 384:Middlewares/lvgl/src/core/lv_obj_tree.c **** 
 896              		.loc 1 384 5 is_stmt 0 view .LVU264
 897 00ae FFF7FEFF 		bl	_lv_obj_destructor
 898              	.LVL101:
 387:Middlewares/lvgl/src/core/lv_obj_tree.c ****         lv_disp_t * disp = lv_obj_get_disp(obj);
 899              		.loc 1 387 5 is_stmt 1 view .LVU265
 387:Middlewares/lvgl/src/core/lv_obj_tree.c ****         lv_disp_t * disp = lv_obj_get_disp(obj);
 900              		.loc 1 387 11 is_stmt 0 view .LVU266
 901 00b2 6B68     		ldr	r3, [r5, #4]
 387:Middlewares/lvgl/src/core/lv_obj_tree.c ****         lv_disp_t * disp = lv_obj_get_disp(obj);
 902              		.loc 1 387 7 view .LVU267
 903 00b4 83B1     		cbz	r3, .L84
 904              	.LBB36:
 404:Middlewares/lvgl/src/core/lv_obj_tree.c ****         uint32_t i;
 905              		.loc 1 404 9 is_stmt 1 view .LVU268
 404:Middlewares/lvgl/src/core/lv_obj_tree.c ****         uint32_t i;
 906              		.loc 1 404 23 is_stmt 0 view .LVU269
 907 00b6 2846     		mov	r0, r5
 908 00b8 FFF7FEFF 		bl	lv_obj_get_child_id
 909              	.LVL102:
 405:Middlewares/lvgl/src/core/lv_obj_tree.c ****         for(i = id; i < obj->parent->spec_attr->child_cnt - 1; i++) {
 910              		.loc 1 405 9 is_stmt 1 view .LVU270
 406:Middlewares/lvgl/src/core/lv_obj_tree.c ****             obj->parent->spec_attr->children[i] = obj->parent->spec_attr->children[i + 1];
 911              		.loc 1 406 9 view .LVU271
 912              	.L77:
 406:Middlewares/lvgl/src/core/lv_obj_tree.c ****             obj->parent->spec_attr->children[i] = obj->parent->spec_attr->children[i + 1];
 913              		.loc 1 406 21 discriminator 1 view .LVU272
 406:Middlewares/lvgl/src/core/lv_obj_tree.c ****             obj->parent->spec_attr->children[i] = obj->parent->spec_attr->children[i + 1];
 914              		.loc 1 406 28 is_stmt 0 discriminator 1 view .LVU273
 915 00bc 6B68     		ldr	r3, [r5, #4]
 406:Middlewares/lvgl/src/core/lv_obj_tree.c ****             obj->parent->spec_attr->children[i] = obj->parent->spec_attr->children[i + 1];
 916              		.loc 1 406 36 discriminator 1 view .LVU274
 917 00be 9A68     		ldr	r2, [r3, #8]
 406:Middlewares/lvgl/src/core/lv_obj_tree.c ****             obj->parent->spec_attr->children[i] = obj->parent->spec_attr->children[i + 1];
ARM GAS  /tmp/ccdh8Ctk.s 			page 33


 918              		.loc 1 406 47 discriminator 1 view .LVU275
 919 00c0 5368     		ldr	r3, [r2, #4]
 406:Middlewares/lvgl/src/core/lv_obj_tree.c ****             obj->parent->spec_attr->children[i] = obj->parent->spec_attr->children[i + 1];
 920              		.loc 1 406 59 discriminator 1 view .LVU276
 921 00c2 013B     		subs	r3, r3, #1
 406:Middlewares/lvgl/src/core/lv_obj_tree.c ****             obj->parent->spec_attr->children[i] = obj->parent->spec_attr->children[i + 1];
 922              		.loc 1 406 9 discriminator 1 view .LVU277
 923 00c4 8342     		cmp	r3, r0
 924 00c6 28D9     		bls	.L85
 407:Middlewares/lvgl/src/core/lv_obj_tree.c ****         }
 925              		.loc 1 407 13 is_stmt 1 discriminator 3 view .LVU278
 407:Middlewares/lvgl/src/core/lv_obj_tree.c ****         }
 926              		.loc 1 407 73 is_stmt 0 discriminator 3 view .LVU279
 927 00c8 1268     		ldr	r2, [r2]
 407:Middlewares/lvgl/src/core/lv_obj_tree.c ****         }
 928              		.loc 1 407 83 discriminator 3 view .LVU280
 929 00ca 431C     		adds	r3, r0, #1
 930 00cc 52F82310 		ldr	r1, [r2, r3, lsl #2]
 407:Middlewares/lvgl/src/core/lv_obj_tree.c ****         }
 931              		.loc 1 407 49 discriminator 3 view .LVU281
 932 00d0 42F82010 		str	r1, [r2, r0, lsl #2]
 406:Middlewares/lvgl/src/core/lv_obj_tree.c ****             obj->parent->spec_attr->children[i] = obj->parent->spec_attr->children[i + 1];
 933              		.loc 1 406 64 is_stmt 1 discriminator 3 view .LVU282
 934              	.LVL103:
 406:Middlewares/lvgl/src/core/lv_obj_tree.c ****             obj->parent->spec_attr->children[i] = obj->parent->spec_attr->children[i + 1];
 935              		.loc 1 406 65 is_stmt 0 discriminator 3 view .LVU283
 936 00d4 1846     		mov	r0, r3
 937 00d6 F1E7     		b	.L77
 938              	.LVL104:
 939              	.L84:
 406:Middlewares/lvgl/src/core/lv_obj_tree.c ****             obj->parent->spec_attr->children[i] = obj->parent->spec_attr->children[i + 1];
 940              		.loc 1 406 65 discriminator 3 view .LVU284
 941              	.LBE36:
 942              	.LBB37:
 388:Middlewares/lvgl/src/core/lv_obj_tree.c ****         uint32_t i;
 943              		.loc 1 388 9 is_stmt 1 view .LVU285
 388:Middlewares/lvgl/src/core/lv_obj_tree.c ****         uint32_t i;
 944              		.loc 1 388 28 is_stmt 0 view .LVU286
 945 00d8 2846     		mov	r0, r5
 946 00da FFF7FEFF 		bl	lv_obj_get_disp
 947              	.LVL105:
 948 00de 0446     		mov	r4, r0
 949              	.LVL106:
 389:Middlewares/lvgl/src/core/lv_obj_tree.c ****         /*Find the screen in the list*/
 950              		.loc 1 389 9 is_stmt 1 view .LVU287
 391:Middlewares/lvgl/src/core/lv_obj_tree.c ****             if(disp->screens[i] == obj) break;
 951              		.loc 1 391 9 view .LVU288
 391:Middlewares/lvgl/src/core/lv_obj_tree.c ****             if(disp->screens[i] == obj) break;
 952              		.loc 1 391 15 is_stmt 0 view .LVU289
 953 00e0 0023     		movs	r3, #0
 954              	.LVL107:
 955              	.L71:
 391:Middlewares/lvgl/src/core/lv_obj_tree.c ****             if(disp->screens[i] == obj) break;
 956              		.loc 1 391 20 is_stmt 1 discriminator 1 view .LVU290
 391:Middlewares/lvgl/src/core/lv_obj_tree.c ****             if(disp->screens[i] == obj) break;
 957              		.loc 1 391 28 is_stmt 0 discriminator 1 view .LVU291
 958 00e2 626A     		ldr	r2, [r4, #36]
ARM GAS  /tmp/ccdh8Ctk.s 			page 34


 391:Middlewares/lvgl/src/core/lv_obj_tree.c ****             if(disp->screens[i] == obj) break;
 959              		.loc 1 391 9 discriminator 1 view .LVU292
 960 00e4 9A42     		cmp	r2, r3
 961 00e6 0DD9     		bls	.L74
 392:Middlewares/lvgl/src/core/lv_obj_tree.c ****         }
 962              		.loc 1 392 13 is_stmt 1 view .LVU293
 392:Middlewares/lvgl/src/core/lv_obj_tree.c ****         }
 963              		.loc 1 392 20 is_stmt 0 view .LVU294
 964 00e8 E268     		ldr	r2, [r4, #12]
 392:Middlewares/lvgl/src/core/lv_obj_tree.c ****         }
 965              		.loc 1 392 29 view .LVU295
 966 00ea 52F82320 		ldr	r2, [r2, r3, lsl #2]
 392:Middlewares/lvgl/src/core/lv_obj_tree.c ****         }
 967              		.loc 1 392 15 view .LVU296
 968 00ee AA42     		cmp	r2, r5
 969 00f0 08D0     		beq	.L74
 391:Middlewares/lvgl/src/core/lv_obj_tree.c ****             if(disp->screens[i] == obj) break;
 970              		.loc 1 391 42 is_stmt 1 discriminator 2 view .LVU297
 391:Middlewares/lvgl/src/core/lv_obj_tree.c ****             if(disp->screens[i] == obj) break;
 971              		.loc 1 391 43 is_stmt 0 discriminator 2 view .LVU298
 972 00f2 0133     		adds	r3, r3, #1
 973              	.LVL108:
 391:Middlewares/lvgl/src/core/lv_obj_tree.c ****             if(disp->screens[i] == obj) break;
 974              		.loc 1 391 43 discriminator 2 view .LVU299
 975 00f4 F5E7     		b	.L71
 976              	.LVL109:
 977              	.L75:
 397:Middlewares/lvgl/src/core/lv_obj_tree.c ****         }
 978              		.loc 1 397 13 is_stmt 1 discriminator 3 view .LVU300
 397:Middlewares/lvgl/src/core/lv_obj_tree.c ****         }
 979              		.loc 1 397 36 is_stmt 0 discriminator 3 view .LVU301
 980 00f6 E168     		ldr	r1, [r4, #12]
 397:Middlewares/lvgl/src/core/lv_obj_tree.c ****         }
 981              		.loc 1 397 45 discriminator 3 view .LVU302
 982 00f8 5A1C     		adds	r2, r3, #1
 983 00fa 51F82200 		ldr	r0, [r1, r2, lsl #2]
 397:Middlewares/lvgl/src/core/lv_obj_tree.c ****         }
 984              		.loc 1 397 30 discriminator 3 view .LVU303
 985 00fe 41F82300 		str	r0, [r1, r3, lsl #2]
 396:Middlewares/lvgl/src/core/lv_obj_tree.c ****             disp->screens[i] = disp->screens[i + 1];
 986              		.loc 1 396 47 is_stmt 1 discriminator 3 view .LVU304
 987              	.LVL110:
 396:Middlewares/lvgl/src/core/lv_obj_tree.c ****             disp->screens[i] = disp->screens[i + 1];
 988              		.loc 1 396 48 is_stmt 0 discriminator 3 view .LVU305
 989 0102 1346     		mov	r3, r2
 990              	.LVL111:
 991              	.L74:
 396:Middlewares/lvgl/src/core/lv_obj_tree.c ****             disp->screens[i] = disp->screens[i + 1];
 992              		.loc 1 396 21 is_stmt 1 discriminator 1 view .LVU306
 396:Middlewares/lvgl/src/core/lv_obj_tree.c ****             disp->screens[i] = disp->screens[i + 1];
 993              		.loc 1 396 29 is_stmt 0 discriminator 1 view .LVU307
 994 0104 616A     		ldr	r1, [r4, #36]
 396:Middlewares/lvgl/src/core/lv_obj_tree.c ****             disp->screens[i] = disp->screens[i + 1];
 995              		.loc 1 396 42 discriminator 1 view .LVU308
 996 0106 0139     		subs	r1, r1, #1
 396:Middlewares/lvgl/src/core/lv_obj_tree.c ****             disp->screens[i] = disp->screens[i + 1];
 997              		.loc 1 396 9 discriminator 1 view .LVU309
ARM GAS  /tmp/ccdh8Ctk.s 			page 35


 998 0108 9942     		cmp	r1, r3
 999 010a F4D8     		bhi	.L75
 399:Middlewares/lvgl/src/core/lv_obj_tree.c ****         disp->screens = lv_mem_realloc(disp->screens, disp->screen_cnt * sizeof(lv_obj_t *));
 1000              		.loc 1 399 9 is_stmt 1 view .LVU310
 399:Middlewares/lvgl/src/core/lv_obj_tree.c ****         disp->screens = lv_mem_realloc(disp->screens, disp->screen_cnt * sizeof(lv_obj_t *));
 1001              		.loc 1 399 25 is_stmt 0 view .LVU311
 1002 010c 6162     		str	r1, [r4, #36]
 400:Middlewares/lvgl/src/core/lv_obj_tree.c ****     }
 1003              		.loc 1 400 9 is_stmt 1 view .LVU312
 400:Middlewares/lvgl/src/core/lv_obj_tree.c ****     }
 1004              		.loc 1 400 25 is_stmt 0 view .LVU313
 1005 010e 8900     		lsls	r1, r1, #2
 1006 0110 E068     		ldr	r0, [r4, #12]
 1007 0112 FFF7FEFF 		bl	lv_mem_realloc
 1008              	.LVL112:
 400:Middlewares/lvgl/src/core/lv_obj_tree.c ****     }
 1009              		.loc 1 400 23 view .LVU314
 1010 0116 E060     		str	r0, [r4, #12]
 1011              	.LBE37:
 1012 0118 08E0     		b	.L76
 1013              	.LVL113:
 1014              	.L85:
 1015              	.LBB38:
 409:Middlewares/lvgl/src/core/lv_obj_tree.c ****         obj->parent->spec_attr->children = lv_mem_realloc(obj->parent->spec_attr->children, obj->pa
 1016              		.loc 1 409 9 is_stmt 1 view .LVU315
 409:Middlewares/lvgl/src/core/lv_obj_tree.c ****         obj->parent->spec_attr->children = lv_mem_realloc(obj->parent->spec_attr->children, obj->pa
 1017              		.loc 1 409 42 is_stmt 0 view .LVU316
 1018 011a 5360     		str	r3, [r2, #4]
 410:Middlewares/lvgl/src/core/lv_obj_tree.c ****     }
 1019              		.loc 1 410 9 is_stmt 1 view .LVU317
 410:Middlewares/lvgl/src/core/lv_obj_tree.c ****     }
 1020              		.loc 1 410 62 is_stmt 0 view .LVU318
 1021 011c 6B68     		ldr	r3, [r5, #4]
 410:Middlewares/lvgl/src/core/lv_obj_tree.c ****     }
 1022              		.loc 1 410 70 view .LVU319
 1023 011e 9C68     		ldr	r4, [r3, #8]
 1024              	.LVL114:
 410:Middlewares/lvgl/src/core/lv_obj_tree.c ****     }
 1025              		.loc 1 410 115 view .LVU320
 1026 0120 6168     		ldr	r1, [r4, #4]
 410:Middlewares/lvgl/src/core/lv_obj_tree.c ****     }
 1027              		.loc 1 410 44 view .LVU321
 1028 0122 8900     		lsls	r1, r1, #2
 1029 0124 2068     		ldr	r0, [r4]
 1030              	.LVL115:
 410:Middlewares/lvgl/src/core/lv_obj_tree.c ****     }
 1031              		.loc 1 410 44 view .LVU322
 1032 0126 FFF7FEFF 		bl	lv_mem_realloc
 1033              	.LVL116:
 410:Middlewares/lvgl/src/core/lv_obj_tree.c ****     }
 1034              		.loc 1 410 42 view .LVU323
 1035 012a 2060     		str	r0, [r4]
 1036              	.L76:
 410:Middlewares/lvgl/src/core/lv_obj_tree.c ****     }
 1037              		.loc 1 410 42 view .LVU324
 1038              	.LBE38:
 414:Middlewares/lvgl/src/core/lv_obj_tree.c **** }
ARM GAS  /tmp/ccdh8Ctk.s 			page 36


 1039              		.loc 1 414 5 is_stmt 1 view .LVU325
 1040 012c 2846     		mov	r0, r5
 1041 012e FFF7FEFF 		bl	lv_mem_free
 1042              	.LVL117:
 1043 0132 6CE7     		b	.L59
 1044              	.L87:
 1045              		.align	2
 1046              	.L86:
 1047 0134 FFFF0F00 		.word	1048575
 1048              		.cfi_endproc
 1049              	.LFE163:
 1051              		.section	.text.lv_obj_del,"ax",%progbits
 1052              		.align	1
 1053              		.global	lv_obj_del
 1054              		.syntax unified
 1055              		.thumb
 1056              		.thumb_func
 1058              	lv_obj_del:
 1059              	.LVL118:
 1060              	.LFB147:
  48:Middlewares/lvgl/src/core/lv_obj_tree.c ****     LV_LOG_TRACE("begin (delete %p)", obj)
 1061              		.loc 1 48 1 view -0
 1062              		.cfi_startproc
 1063              		@ args = 0, pretend = 0, frame = 0
 1064              		@ frame_needed = 0, uses_anonymous_args = 0
  48:Middlewares/lvgl/src/core/lv_obj_tree.c ****     LV_LOG_TRACE("begin (delete %p)", obj)
 1065              		.loc 1 48 1 is_stmt 0 view .LVU327
 1066 0000 F8B5     		push	{r3, r4, r5, r6, r7, lr}
 1067              	.LCFI9:
 1068              		.cfi_def_cfa_offset 24
 1069              		.cfi_offset 3, -24
 1070              		.cfi_offset 4, -20
 1071              		.cfi_offset 5, -16
 1072              		.cfi_offset 6, -12
 1073              		.cfi_offset 7, -8
 1074              		.cfi_offset 14, -4
 1075 0002 0446     		mov	r4, r0
  50:Middlewares/lvgl/src/core/lv_obj_tree.c ****     lv_obj_invalidate(obj);
 1076              		.loc 1 50 5 is_stmt 1 view .LVU328
  50:Middlewares/lvgl/src/core/lv_obj_tree.c ****     lv_obj_invalidate(obj);
 1077              		.loc 1 50 5 view .LVU329
  50:Middlewares/lvgl/src/core/lv_obj_tree.c ****     lv_obj_invalidate(obj);
 1078              		.loc 1 50 5 view .LVU330
  51:Middlewares/lvgl/src/core/lv_obj_tree.c **** 
 1079              		.loc 1 51 5 view .LVU331
 1080 0004 FFF7FEFF 		bl	lv_obj_invalidate
 1081              	.LVL119:
  53:Middlewares/lvgl/src/core/lv_obj_tree.c ****     if(par) {
 1082              		.loc 1 53 5 view .LVU332
  53:Middlewares/lvgl/src/core/lv_obj_tree.c ****     if(par) {
 1083              		.loc 1 53 22 is_stmt 0 view .LVU333
 1084 0008 2046     		mov	r0, r4
 1085 000a FFF7FEFF 		bl	lv_obj_get_parent
 1086              	.LVL120:
  54:Middlewares/lvgl/src/core/lv_obj_tree.c ****         lv_obj_scrollbar_invalidate(par);
 1087              		.loc 1 54 5 is_stmt 1 view .LVU334
  54:Middlewares/lvgl/src/core/lv_obj_tree.c ****         lv_obj_scrollbar_invalidate(par);
ARM GAS  /tmp/ccdh8Ctk.s 			page 37


 1088              		.loc 1 54 7 is_stmt 0 view .LVU335
 1089 000e 0546     		mov	r5, r0
 1090 0010 08B1     		cbz	r0, .L89
  55:Middlewares/lvgl/src/core/lv_obj_tree.c ****     }
 1091              		.loc 1 55 9 is_stmt 1 view .LVU336
 1092 0012 FFF7FEFF 		bl	lv_obj_scrollbar_invalidate
 1093              	.LVL121:
 1094              	.L89:
  58:Middlewares/lvgl/src/core/lv_obj_tree.c ****     bool act_scr_del = false;
 1095              		.loc 1 58 5 view .LVU337
  59:Middlewares/lvgl/src/core/lv_obj_tree.c ****     if(par == NULL) {
 1096              		.loc 1 59 5 view .LVU338
  60:Middlewares/lvgl/src/core/lv_obj_tree.c ****         disp = lv_obj_get_disp(obj);
 1097              		.loc 1 60 5 view .LVU339
  60:Middlewares/lvgl/src/core/lv_obj_tree.c ****         disp = lv_obj_get_disp(obj);
 1098              		.loc 1 60 7 is_stmt 0 view .LVU340
 1099 0016 ADB1     		cbz	r5, .L96
  59:Middlewares/lvgl/src/core/lv_obj_tree.c ****     if(par == NULL) {
 1100              		.loc 1 59 10 view .LVU341
 1101 0018 0026     		movs	r6, #0
  58:Middlewares/lvgl/src/core/lv_obj_tree.c ****     bool act_scr_del = false;
 1102              		.loc 1 58 17 view .LVU342
 1103 001a 3746     		mov	r7, r6
 1104              	.LVL122:
 1105              	.L90:
  66:Middlewares/lvgl/src/core/lv_obj_tree.c **** 
 1106              		.loc 1 66 5 is_stmt 1 view .LVU343
 1107 001c 2046     		mov	r0, r4
 1108 001e FFF7FEFF 		bl	obj_del_core
 1109              	.LVL123:
  69:Middlewares/lvgl/src/core/lv_obj_tree.c ****         lv_obj_readjust_scroll(par, LV_ANIM_OFF);
 1110              		.loc 1 69 5 view .LVU344
  69:Middlewares/lvgl/src/core/lv_obj_tree.c ****         lv_obj_readjust_scroll(par, LV_ANIM_OFF);
 1111              		.loc 1 69 7 is_stmt 0 view .LVU345
 1112 0022 5DB1     		cbz	r5, .L92
  70:Middlewares/lvgl/src/core/lv_obj_tree.c ****         lv_obj_scrollbar_invalidate(par);
 1113              		.loc 1 70 9 is_stmt 1 view .LVU346
 1114 0024 0021     		movs	r1, #0
 1115 0026 2846     		mov	r0, r5
 1116 0028 FFF7FEFF 		bl	lv_obj_readjust_scroll
 1117              	.LVL124:
  71:Middlewares/lvgl/src/core/lv_obj_tree.c ****         lv_event_send(par, LV_EVENT_CHILD_CHANGED, NULL);
 1118              		.loc 1 71 9 view .LVU347
 1119 002c 2846     		mov	r0, r5
 1120 002e FFF7FEFF 		bl	lv_obj_scrollbar_invalidate
 1121              	.LVL125:
  72:Middlewares/lvgl/src/core/lv_obj_tree.c ****     }
 1122              		.loc 1 72 9 view .LVU348
 1123 0032 0022     		movs	r2, #0
 1124 0034 2221     		movs	r1, #34
 1125 0036 2846     		mov	r0, r5
 1126 0038 FFF7FEFF 		bl	lv_event_send
 1127              	.LVL126:
 1128              	.L92:
  76:Middlewares/lvgl/src/core/lv_obj_tree.c ****         LV_LOG_WARN("the active screen was deleted")
 1129              		.loc 1 76 5 view .LVU349
  76:Middlewares/lvgl/src/core/lv_obj_tree.c ****         LV_LOG_WARN("the active screen was deleted")
ARM GAS  /tmp/ccdh8Ctk.s 			page 38


 1130              		.loc 1 76 7 is_stmt 0 view .LVU350
 1131 003c 0EB1     		cbz	r6, .L88
  78:Middlewares/lvgl/src/core/lv_obj_tree.c ****     }
 1132              		.loc 1 78 9 is_stmt 1 view .LVU351
  78:Middlewares/lvgl/src/core/lv_obj_tree.c ****     }
 1133              		.loc 1 78 23 is_stmt 0 view .LVU352
 1134 003e 0023     		movs	r3, #0
 1135 0040 3B61     		str	r3, [r7, #16]
  81:Middlewares/lvgl/src/core/lv_obj_tree.c ****     LV_LOG_TRACE("finished (delete %p)", obj)
 1136              		.loc 1 81 30 is_stmt 1 view .LVU353
 1137              	.LVL127:
 1138              	.L88:
  83:Middlewares/lvgl/src/core/lv_obj_tree.c **** 
 1139              		.loc 1 83 1 is_stmt 0 view .LVU354
 1140 0042 F8BD     		pop	{r3, r4, r5, r6, r7, pc}
 1141              	.LVL128:
 1142              	.L96:
  61:Middlewares/lvgl/src/core/lv_obj_tree.c ****         if(!disp) return;   /*Shouldn't happen*/
 1143              		.loc 1 61 9 is_stmt 1 view .LVU355
  61:Middlewares/lvgl/src/core/lv_obj_tree.c ****         if(!disp) return;   /*Shouldn't happen*/
 1144              		.loc 1 61 16 is_stmt 0 view .LVU356
 1145 0044 2046     		mov	r0, r4
 1146 0046 FFF7FEFF 		bl	lv_obj_get_disp
 1147              	.LVL129:
  62:Middlewares/lvgl/src/core/lv_obj_tree.c ****         if(disp->act_scr == obj) act_scr_del = true;
 1148              		.loc 1 62 9 is_stmt 1 view .LVU357
  62:Middlewares/lvgl/src/core/lv_obj_tree.c ****         if(disp->act_scr == obj) act_scr_del = true;
 1149              		.loc 1 62 11 is_stmt 0 view .LVU358
 1150 004a 0746     		mov	r7, r0
 1151 004c 0028     		cmp	r0, #0
 1152 004e F8D0     		beq	.L88
  63:Middlewares/lvgl/src/core/lv_obj_tree.c ****     }
 1153              		.loc 1 63 9 is_stmt 1 view .LVU359
  63:Middlewares/lvgl/src/core/lv_obj_tree.c ****     }
 1154              		.loc 1 63 16 is_stmt 0 view .LVU360
 1155 0050 0369     		ldr	r3, [r0, #16]
  63:Middlewares/lvgl/src/core/lv_obj_tree.c ****     }
 1156              		.loc 1 63 11 view .LVU361
 1157 0052 A342     		cmp	r3, r4
 1158 0054 01D0     		beq	.L94
  59:Middlewares/lvgl/src/core/lv_obj_tree.c ****     if(par == NULL) {
 1159              		.loc 1 59 10 view .LVU362
 1160 0056 0026     		movs	r6, #0
 1161 0058 E0E7     		b	.L90
 1162              	.L94:
  63:Middlewares/lvgl/src/core/lv_obj_tree.c ****     }
 1163              		.loc 1 63 46 view .LVU363
 1164 005a 0126     		movs	r6, #1
 1165 005c DEE7     		b	.L90
 1166              		.cfi_endproc
 1167              	.LFE147:
 1169              		.section	.text.lv_obj_del_anim_ready_cb,"ax",%progbits
 1170              		.align	1
 1171              		.global	lv_obj_del_anim_ready_cb
 1172              		.syntax unified
 1173              		.thumb
 1174              		.thumb_func
ARM GAS  /tmp/ccdh8Ctk.s 			page 39


 1176              	lv_obj_del_anim_ready_cb:
 1177              	.LVL130:
 1178              	.LFB150:
 122:Middlewares/lvgl/src/core/lv_obj_tree.c ****     lv_obj_del(a->var);
 1179              		.loc 1 122 1 is_stmt 1 view -0
 1180              		.cfi_startproc
 1181              		@ args = 0, pretend = 0, frame = 0
 1182              		@ frame_needed = 0, uses_anonymous_args = 0
 122:Middlewares/lvgl/src/core/lv_obj_tree.c ****     lv_obj_del(a->var);
 1183              		.loc 1 122 1 is_stmt 0 view .LVU365
 1184 0000 08B5     		push	{r3, lr}
 1185              	.LCFI10:
 1186              		.cfi_def_cfa_offset 8
 1187              		.cfi_offset 3, -8
 1188              		.cfi_offset 14, -4
 123:Middlewares/lvgl/src/core/lv_obj_tree.c **** }
 1189              		.loc 1 123 5 is_stmt 1 view .LVU366
 1190 0002 0068     		ldr	r0, [r0]
 1191              	.LVL131:
 123:Middlewares/lvgl/src/core/lv_obj_tree.c **** }
 1192              		.loc 1 123 5 is_stmt 0 view .LVU367
 1193 0004 FFF7FEFF 		bl	lv_obj_del
 1194              	.LVL132:
 124:Middlewares/lvgl/src/core/lv_obj_tree.c **** 
 1195              		.loc 1 124 1 view .LVU368
 1196 0008 08BD     		pop	{r3, pc}
 1197              		.cfi_endproc
 1198              	.LFE150:
 1200              		.section	.text.lv_obj_del_async_cb,"ax",%progbits
 1201              		.align	1
 1202              		.syntax unified
 1203              		.thumb
 1204              		.thumb_func
 1206              	lv_obj_del_async_cb:
 1207              	.LVL133:
 1208              	.LFB162:
 334:Middlewares/lvgl/src/core/lv_obj_tree.c ****     LV_ASSERT_OBJ(obj, MY_CLASS);
 1209              		.loc 1 334 1 is_stmt 1 view -0
 1210              		.cfi_startproc
 1211              		@ args = 0, pretend = 0, frame = 0
 1212              		@ frame_needed = 0, uses_anonymous_args = 0
 334:Middlewares/lvgl/src/core/lv_obj_tree.c ****     LV_ASSERT_OBJ(obj, MY_CLASS);
 1213              		.loc 1 334 1 is_stmt 0 view .LVU370
 1214 0000 08B5     		push	{r3, lr}
 1215              	.LCFI11:
 1216              		.cfi_def_cfa_offset 8
 1217              		.cfi_offset 3, -8
 1218              		.cfi_offset 14, -4
 335:Middlewares/lvgl/src/core/lv_obj_tree.c **** 
 1219              		.loc 1 335 5 is_stmt 1 view .LVU371
 335:Middlewares/lvgl/src/core/lv_obj_tree.c **** 
 1220              		.loc 1 335 5 view .LVU372
 335:Middlewares/lvgl/src/core/lv_obj_tree.c **** 
 1221              		.loc 1 335 5 view .LVU373
 337:Middlewares/lvgl/src/core/lv_obj_tree.c **** }
 1222              		.loc 1 337 5 view .LVU374
 1223 0002 FFF7FEFF 		bl	lv_obj_del
ARM GAS  /tmp/ccdh8Ctk.s 			page 40


 1224              	.LVL134:
 338:Middlewares/lvgl/src/core/lv_obj_tree.c **** 
 1225              		.loc 1 338 1 is_stmt 0 view .LVU375
 1226 0006 08BD     		pop	{r3, pc}
 1227              		.cfi_endproc
 1228              	.LFE162:
 1230              		.section	.text.lv_obj_clean,"ax",%progbits
 1231              		.align	1
 1232              		.global	lv_obj_clean
 1233              		.syntax unified
 1234              		.thumb
 1235              		.thumb_func
 1237              	lv_obj_clean:
 1238              	.LVL135:
 1239              	.LFB148:
  86:Middlewares/lvgl/src/core/lv_obj_tree.c ****     LV_LOG_TRACE("begin (delete %p)", obj)
 1240              		.loc 1 86 1 is_stmt 1 view -0
 1241              		.cfi_startproc
 1242              		@ args = 0, pretend = 0, frame = 0
 1243              		@ frame_needed = 0, uses_anonymous_args = 0
  86:Middlewares/lvgl/src/core/lv_obj_tree.c ****     LV_LOG_TRACE("begin (delete %p)", obj)
 1244              		.loc 1 86 1 is_stmt 0 view .LVU377
 1245 0000 10B5     		push	{r4, lr}
 1246              	.LCFI12:
 1247              		.cfi_def_cfa_offset 8
 1248              		.cfi_offset 4, -8
 1249              		.cfi_offset 14, -4
 1250 0002 0446     		mov	r4, r0
  88:Middlewares/lvgl/src/core/lv_obj_tree.c **** 
 1251              		.loc 1 88 5 is_stmt 1 view .LVU378
  88:Middlewares/lvgl/src/core/lv_obj_tree.c **** 
 1252              		.loc 1 88 5 view .LVU379
  88:Middlewares/lvgl/src/core/lv_obj_tree.c **** 
 1253              		.loc 1 88 5 view .LVU380
  90:Middlewares/lvgl/src/core/lv_obj_tree.c **** 
 1254              		.loc 1 90 5 view .LVU381
 1255 0004 FFF7FEFF 		bl	lv_obj_invalidate
 1256              	.LVL136:
  92:Middlewares/lvgl/src/core/lv_obj_tree.c ****     while(child) {
 1257              		.loc 1 92 5 view .LVU382
  92:Middlewares/lvgl/src/core/lv_obj_tree.c ****     while(child) {
 1258              		.loc 1 92 24 is_stmt 0 view .LVU383
 1259 0008 0021     		movs	r1, #0
 1260 000a 2046     		mov	r0, r4
 1261 000c FFF7FEFF 		bl	lv_obj_get_child
 1262              	.LVL137:
  93:Middlewares/lvgl/src/core/lv_obj_tree.c ****         obj_del_core(child);
 1263              		.loc 1 93 5 is_stmt 1 view .LVU384
  93:Middlewares/lvgl/src/core/lv_obj_tree.c ****         obj_del_core(child);
 1264              		.loc 1 93 10 is_stmt 0 view .LVU385
 1265 0010 05E0     		b	.L102
 1266              	.L103:
  94:Middlewares/lvgl/src/core/lv_obj_tree.c ****         child = lv_obj_get_child(obj, 0);
 1267              		.loc 1 94 9 is_stmt 1 view .LVU386
 1268 0012 FFF7FEFF 		bl	obj_del_core
 1269              	.LVL138:
  95:Middlewares/lvgl/src/core/lv_obj_tree.c ****     }
ARM GAS  /tmp/ccdh8Ctk.s 			page 41


 1270              		.loc 1 95 9 view .LVU387
  95:Middlewares/lvgl/src/core/lv_obj_tree.c ****     }
 1271              		.loc 1 95 17 is_stmt 0 view .LVU388
 1272 0016 0021     		movs	r1, #0
 1273 0018 2046     		mov	r0, r4
 1274 001a FFF7FEFF 		bl	lv_obj_get_child
 1275              	.LVL139:
 1276              	.L102:
  93:Middlewares/lvgl/src/core/lv_obj_tree.c ****         obj_del_core(child);
 1277              		.loc 1 93 10 is_stmt 1 view .LVU389
 1278 001e 0028     		cmp	r0, #0
 1279 0020 F7D1     		bne	.L103
  98:Middlewares/lvgl/src/core/lv_obj_tree.c ****     if(obj->spec_attr) {
 1280              		.loc 1 98 5 view .LVU390
 1281 0022 0023     		movs	r3, #0
 1282 0024 1A46     		mov	r2, r3
 1283 0026 1946     		mov	r1, r3
 1284 0028 2046     		mov	r0, r4
 1285              	.LVL140:
  98:Middlewares/lvgl/src/core/lv_obj_tree.c ****     if(obj->spec_attr) {
 1286              		.loc 1 98 5 is_stmt 0 view .LVU391
 1287 002a FFF7FEFF 		bl	lv_obj_scroll_to
 1288              	.LVL141:
  99:Middlewares/lvgl/src/core/lv_obj_tree.c ****         obj->spec_attr->scroll.x = 0;
 1289              		.loc 1 99 5 is_stmt 1 view .LVU392
  99:Middlewares/lvgl/src/core/lv_obj_tree.c ****         obj->spec_attr->scroll.x = 0;
 1290              		.loc 1 99 11 is_stmt 0 view .LVU393
 1291 002e A368     		ldr	r3, [r4, #8]
  99:Middlewares/lvgl/src/core/lv_obj_tree.c ****         obj->spec_attr->scroll.x = 0;
 1292              		.loc 1 99 7 view .LVU394
 1293 0030 1BB1     		cbz	r3, .L101
 100:Middlewares/lvgl/src/core/lv_obj_tree.c ****         obj->spec_attr->scroll.y = 0;
 1294              		.loc 1 100 9 is_stmt 1 view .LVU395
 100:Middlewares/lvgl/src/core/lv_obj_tree.c ****         obj->spec_attr->scroll.y = 0;
 1295              		.loc 1 100 34 is_stmt 0 view .LVU396
 1296 0032 0022     		movs	r2, #0
 1297 0034 1A82     		strh	r2, [r3, #16]	@ movhi
 101:Middlewares/lvgl/src/core/lv_obj_tree.c ****     }
 1298              		.loc 1 101 9 is_stmt 1 view .LVU397
 101:Middlewares/lvgl/src/core/lv_obj_tree.c ****     }
 1299              		.loc 1 101 12 is_stmt 0 view .LVU398
 1300 0036 A368     		ldr	r3, [r4, #8]
 101:Middlewares/lvgl/src/core/lv_obj_tree.c ****     }
 1301              		.loc 1 101 34 view .LVU399
 1302 0038 5A82     		strh	r2, [r3, #18]	@ movhi
 104:Middlewares/lvgl/src/core/lv_obj_tree.c **** 
 1303              		.loc 1 104 30 is_stmt 1 view .LVU400
 1304              	.L101:
 107:Middlewares/lvgl/src/core/lv_obj_tree.c **** 
 1305              		.loc 1 107 1 is_stmt 0 view .LVU401
 1306 003a 10BD     		pop	{r4, pc}
 107:Middlewares/lvgl/src/core/lv_obj_tree.c **** 
 1307              		.loc 1 107 1 view .LVU402
 1308              		.cfi_endproc
 1309              	.LFE148:
 1311              		.section	.text.lv_obj_set_parent,"ax",%progbits
 1312              		.align	1
ARM GAS  /tmp/ccdh8Ctk.s 			page 42


 1313              		.global	lv_obj_set_parent
 1314              		.syntax unified
 1315              		.thumb
 1316              		.thumb_func
 1318              	lv_obj_set_parent:
 1319              	.LVL142:
 1320              	.LFB152:
 133:Middlewares/lvgl/src/core/lv_obj_tree.c ****     LV_ASSERT_OBJ(obj, MY_CLASS);
 1321              		.loc 1 133 1 is_stmt 1 view -0
 1322              		.cfi_startproc
 1323              		@ args = 0, pretend = 0, frame = 8
 1324              		@ frame_needed = 0, uses_anonymous_args = 0
 134:Middlewares/lvgl/src/core/lv_obj_tree.c ****     LV_ASSERT_OBJ(parent, MY_CLASS);
 1325              		.loc 1 134 5 view .LVU404
 134:Middlewares/lvgl/src/core/lv_obj_tree.c ****     LV_ASSERT_OBJ(parent, MY_CLASS);
 1326              		.loc 1 134 5 view .LVU405
 134:Middlewares/lvgl/src/core/lv_obj_tree.c ****     LV_ASSERT_OBJ(parent, MY_CLASS);
 1327              		.loc 1 134 5 view .LVU406
 135:Middlewares/lvgl/src/core/lv_obj_tree.c **** 
 1328              		.loc 1 135 5 view .LVU407
 135:Middlewares/lvgl/src/core/lv_obj_tree.c **** 
 1329              		.loc 1 135 5 view .LVU408
 135:Middlewares/lvgl/src/core/lv_obj_tree.c **** 
 1330              		.loc 1 135 5 view .LVU409
 137:Middlewares/lvgl/src/core/lv_obj_tree.c ****         LV_LOG_WARN("Can't set the parent of a screen");
 1331              		.loc 1 137 5 view .LVU410
 137:Middlewares/lvgl/src/core/lv_obj_tree.c ****         LV_LOG_WARN("Can't set the parent of a screen");
 1332              		.loc 1 137 11 is_stmt 0 view .LVU411
 1333 0000 4368     		ldr	r3, [r0, #4]
 137:Middlewares/lvgl/src/core/lv_obj_tree.c ****         LV_LOG_WARN("Can't set the parent of a screen");
 1334              		.loc 1 137 7 view .LVU412
 1335 0002 002B     		cmp	r3, #0
 1336 0004 00F09280 		beq	.L118
 133:Middlewares/lvgl/src/core/lv_obj_tree.c ****     LV_ASSERT_OBJ(obj, MY_CLASS);
 1337              		.loc 1 133 1 view .LVU413
 1338 0008 2DE9F043 		push	{r4, r5, r6, r7, r8, r9, lr}
 1339              	.LCFI13:
 1340              		.cfi_def_cfa_offset 28
 1341              		.cfi_offset 4, -28
 1342              		.cfi_offset 5, -24
 1343              		.cfi_offset 6, -20
 1344              		.cfi_offset 7, -16
 1345              		.cfi_offset 8, -12
 1346              		.cfi_offset 9, -8
 1347              		.cfi_offset 14, -4
 1348 000c 83B0     		sub	sp, sp, #12
 1349              	.LCFI14:
 1350              		.cfi_def_cfa_offset 40
 1351 000e 0646     		mov	r6, r0
 1352 0010 0F46     		mov	r7, r1
 142:Middlewares/lvgl/src/core/lv_obj_tree.c ****         LV_LOG_WARN("Can't set parent == NULL to an object");
 1353              		.loc 1 142 5 is_stmt 1 view .LVU414
 142:Middlewares/lvgl/src/core/lv_obj_tree.c ****         LV_LOG_WARN("Can't set parent == NULL to an object");
 1354              		.loc 1 142 7 is_stmt 0 view .LVU415
 1355 0012 0029     		cmp	r1, #0
 1356 0014 6DD0     		beq	.L106
 147:Middlewares/lvgl/src/core/lv_obj_tree.c **** 
ARM GAS  /tmp/ccdh8Ctk.s 			page 43


 1357              		.loc 1 147 5 is_stmt 1 view .LVU416
 1358 0016 FFF7FEFF 		bl	lv_obj_invalidate
 1359              	.LVL143:
 149:Middlewares/lvgl/src/core/lv_obj_tree.c **** 
 1360              		.loc 1 149 5 view .LVU417
 1361 001a 3846     		mov	r0, r7
 1362 001c FFF7FEFF 		bl	lv_obj_allocate_spec_attr
 1363              	.LVL144:
 151:Middlewares/lvgl/src/core/lv_obj_tree.c ****     lv_point_t old_pos;
 1364              		.loc 1 151 5 view .LVU418
 151:Middlewares/lvgl/src/core/lv_obj_tree.c ****     lv_point_t old_pos;
 1365              		.loc 1 151 16 is_stmt 0 view .LVU419
 1366 0020 7568     		ldr	r5, [r6, #4]
 1367              	.LVL145:
 152:Middlewares/lvgl/src/core/lv_obj_tree.c ****     old_pos.y = lv_obj_get_y(obj);
 1368              		.loc 1 152 5 is_stmt 1 view .LVU420
 153:Middlewares/lvgl/src/core/lv_obj_tree.c **** 
 1369              		.loc 1 153 5 view .LVU421
 153:Middlewares/lvgl/src/core/lv_obj_tree.c **** 
 1370              		.loc 1 153 17 is_stmt 0 view .LVU422
 1371 0022 3046     		mov	r0, r6
 1372 0024 FFF7FEFF 		bl	lv_obj_get_y
 1373              	.LVL146:
 1374 0028 8146     		mov	r9, r0
 153:Middlewares/lvgl/src/core/lv_obj_tree.c **** 
 1375              		.loc 1 153 15 view .LVU423
 1376 002a ADF80600 		strh	r0, [sp, #6]	@ movhi
 155:Middlewares/lvgl/src/core/lv_obj_tree.c **** 
 1377              		.loc 1 155 5 is_stmt 1 view .LVU424
 1378              	.LVL147:
 1379              	.LBB39:
 1380              	.LBI39:
 1381              		.file 4 "Middlewares/lvgl/src/core/lv_obj_style_gen.h"
   1:Middlewares/lvgl/src/core/lv_obj_style_gen.h **** static inline lv_coord_t lv_obj_get_style_width(const struct _lv_obj_t * obj, uint32_t part)
   2:Middlewares/lvgl/src/core/lv_obj_style_gen.h **** {
   3:Middlewares/lvgl/src/core/lv_obj_style_gen.h ****     lv_style_value_t v = lv_obj_get_style_prop(obj, part, LV_STYLE_WIDTH);
   4:Middlewares/lvgl/src/core/lv_obj_style_gen.h ****     return (lv_coord_t)v.num;
   5:Middlewares/lvgl/src/core/lv_obj_style_gen.h **** }
   6:Middlewares/lvgl/src/core/lv_obj_style_gen.h **** 
   7:Middlewares/lvgl/src/core/lv_obj_style_gen.h **** static inline lv_coord_t lv_obj_get_style_min_width(const struct _lv_obj_t * obj, uint32_t part)
   8:Middlewares/lvgl/src/core/lv_obj_style_gen.h **** {
   9:Middlewares/lvgl/src/core/lv_obj_style_gen.h ****     lv_style_value_t v = lv_obj_get_style_prop(obj, part, LV_STYLE_MIN_WIDTH);
  10:Middlewares/lvgl/src/core/lv_obj_style_gen.h ****     return (lv_coord_t)v.num;
  11:Middlewares/lvgl/src/core/lv_obj_style_gen.h **** }
  12:Middlewares/lvgl/src/core/lv_obj_style_gen.h **** 
  13:Middlewares/lvgl/src/core/lv_obj_style_gen.h **** static inline lv_coord_t lv_obj_get_style_max_width(const struct _lv_obj_t * obj, uint32_t part)
  14:Middlewares/lvgl/src/core/lv_obj_style_gen.h **** {
  15:Middlewares/lvgl/src/core/lv_obj_style_gen.h ****     lv_style_value_t v = lv_obj_get_style_prop(obj, part, LV_STYLE_MAX_WIDTH);
  16:Middlewares/lvgl/src/core/lv_obj_style_gen.h ****     return (lv_coord_t)v.num;
  17:Middlewares/lvgl/src/core/lv_obj_style_gen.h **** }
  18:Middlewares/lvgl/src/core/lv_obj_style_gen.h **** 
  19:Middlewares/lvgl/src/core/lv_obj_style_gen.h **** static inline lv_coord_t lv_obj_get_style_height(const struct _lv_obj_t * obj, uint32_t part)
  20:Middlewares/lvgl/src/core/lv_obj_style_gen.h **** {
  21:Middlewares/lvgl/src/core/lv_obj_style_gen.h ****     lv_style_value_t v = lv_obj_get_style_prop(obj, part, LV_STYLE_HEIGHT);
  22:Middlewares/lvgl/src/core/lv_obj_style_gen.h ****     return (lv_coord_t)v.num;
  23:Middlewares/lvgl/src/core/lv_obj_style_gen.h **** }
  24:Middlewares/lvgl/src/core/lv_obj_style_gen.h **** 
ARM GAS  /tmp/ccdh8Ctk.s 			page 44


  25:Middlewares/lvgl/src/core/lv_obj_style_gen.h **** static inline lv_coord_t lv_obj_get_style_min_height(const struct _lv_obj_t * obj, uint32_t part)
  26:Middlewares/lvgl/src/core/lv_obj_style_gen.h **** {
  27:Middlewares/lvgl/src/core/lv_obj_style_gen.h ****     lv_style_value_t v = lv_obj_get_style_prop(obj, part, LV_STYLE_MIN_HEIGHT);
  28:Middlewares/lvgl/src/core/lv_obj_style_gen.h ****     return (lv_coord_t)v.num;
  29:Middlewares/lvgl/src/core/lv_obj_style_gen.h **** }
  30:Middlewares/lvgl/src/core/lv_obj_style_gen.h **** 
  31:Middlewares/lvgl/src/core/lv_obj_style_gen.h **** static inline lv_coord_t lv_obj_get_style_max_height(const struct _lv_obj_t * obj, uint32_t part)
  32:Middlewares/lvgl/src/core/lv_obj_style_gen.h **** {
  33:Middlewares/lvgl/src/core/lv_obj_style_gen.h ****     lv_style_value_t v = lv_obj_get_style_prop(obj, part, LV_STYLE_MAX_HEIGHT);
  34:Middlewares/lvgl/src/core/lv_obj_style_gen.h ****     return (lv_coord_t)v.num;
  35:Middlewares/lvgl/src/core/lv_obj_style_gen.h **** }
  36:Middlewares/lvgl/src/core/lv_obj_style_gen.h **** 
  37:Middlewares/lvgl/src/core/lv_obj_style_gen.h **** static inline lv_coord_t lv_obj_get_style_x(const struct _lv_obj_t * obj, uint32_t part)
  38:Middlewares/lvgl/src/core/lv_obj_style_gen.h **** {
  39:Middlewares/lvgl/src/core/lv_obj_style_gen.h ****     lv_style_value_t v = lv_obj_get_style_prop(obj, part, LV_STYLE_X);
  40:Middlewares/lvgl/src/core/lv_obj_style_gen.h ****     return (lv_coord_t)v.num;
  41:Middlewares/lvgl/src/core/lv_obj_style_gen.h **** }
  42:Middlewares/lvgl/src/core/lv_obj_style_gen.h **** 
  43:Middlewares/lvgl/src/core/lv_obj_style_gen.h **** static inline lv_coord_t lv_obj_get_style_y(const struct _lv_obj_t * obj, uint32_t part)
  44:Middlewares/lvgl/src/core/lv_obj_style_gen.h **** {
  45:Middlewares/lvgl/src/core/lv_obj_style_gen.h ****     lv_style_value_t v = lv_obj_get_style_prop(obj, part, LV_STYLE_Y);
  46:Middlewares/lvgl/src/core/lv_obj_style_gen.h ****     return (lv_coord_t)v.num;
  47:Middlewares/lvgl/src/core/lv_obj_style_gen.h **** }
  48:Middlewares/lvgl/src/core/lv_obj_style_gen.h **** 
  49:Middlewares/lvgl/src/core/lv_obj_style_gen.h **** static inline lv_align_t lv_obj_get_style_align(const struct _lv_obj_t * obj, uint32_t part)
  50:Middlewares/lvgl/src/core/lv_obj_style_gen.h **** {
  51:Middlewares/lvgl/src/core/lv_obj_style_gen.h ****     lv_style_value_t v = lv_obj_get_style_prop(obj, part, LV_STYLE_ALIGN);
  52:Middlewares/lvgl/src/core/lv_obj_style_gen.h ****     return (lv_align_t)v.num;
  53:Middlewares/lvgl/src/core/lv_obj_style_gen.h **** }
  54:Middlewares/lvgl/src/core/lv_obj_style_gen.h **** 
  55:Middlewares/lvgl/src/core/lv_obj_style_gen.h **** static inline lv_coord_t lv_obj_get_style_transform_width(const struct _lv_obj_t * obj, uint32_t pa
  56:Middlewares/lvgl/src/core/lv_obj_style_gen.h **** {
  57:Middlewares/lvgl/src/core/lv_obj_style_gen.h ****     lv_style_value_t v = lv_obj_get_style_prop(obj, part, LV_STYLE_TRANSFORM_WIDTH);
  58:Middlewares/lvgl/src/core/lv_obj_style_gen.h ****     return (lv_coord_t)v.num;
  59:Middlewares/lvgl/src/core/lv_obj_style_gen.h **** }
  60:Middlewares/lvgl/src/core/lv_obj_style_gen.h **** 
  61:Middlewares/lvgl/src/core/lv_obj_style_gen.h **** static inline lv_coord_t lv_obj_get_style_transform_height(const struct _lv_obj_t * obj, uint32_t p
  62:Middlewares/lvgl/src/core/lv_obj_style_gen.h **** {
  63:Middlewares/lvgl/src/core/lv_obj_style_gen.h ****     lv_style_value_t v = lv_obj_get_style_prop(obj, part, LV_STYLE_TRANSFORM_HEIGHT);
  64:Middlewares/lvgl/src/core/lv_obj_style_gen.h ****     return (lv_coord_t)v.num;
  65:Middlewares/lvgl/src/core/lv_obj_style_gen.h **** }
  66:Middlewares/lvgl/src/core/lv_obj_style_gen.h **** 
  67:Middlewares/lvgl/src/core/lv_obj_style_gen.h **** static inline lv_coord_t lv_obj_get_style_translate_x(const struct _lv_obj_t * obj, uint32_t part)
  68:Middlewares/lvgl/src/core/lv_obj_style_gen.h **** {
  69:Middlewares/lvgl/src/core/lv_obj_style_gen.h ****     lv_style_value_t v = lv_obj_get_style_prop(obj, part, LV_STYLE_TRANSLATE_X);
  70:Middlewares/lvgl/src/core/lv_obj_style_gen.h ****     return (lv_coord_t)v.num;
  71:Middlewares/lvgl/src/core/lv_obj_style_gen.h **** }
  72:Middlewares/lvgl/src/core/lv_obj_style_gen.h **** 
  73:Middlewares/lvgl/src/core/lv_obj_style_gen.h **** static inline lv_coord_t lv_obj_get_style_translate_y(const struct _lv_obj_t * obj, uint32_t part)
  74:Middlewares/lvgl/src/core/lv_obj_style_gen.h **** {
  75:Middlewares/lvgl/src/core/lv_obj_style_gen.h ****     lv_style_value_t v = lv_obj_get_style_prop(obj, part, LV_STYLE_TRANSLATE_Y);
  76:Middlewares/lvgl/src/core/lv_obj_style_gen.h ****     return (lv_coord_t)v.num;
  77:Middlewares/lvgl/src/core/lv_obj_style_gen.h **** }
  78:Middlewares/lvgl/src/core/lv_obj_style_gen.h **** 
  79:Middlewares/lvgl/src/core/lv_obj_style_gen.h **** static inline lv_coord_t lv_obj_get_style_transform_zoom(const struct _lv_obj_t * obj, uint32_t par
  80:Middlewares/lvgl/src/core/lv_obj_style_gen.h **** {
  81:Middlewares/lvgl/src/core/lv_obj_style_gen.h ****     lv_style_value_t v = lv_obj_get_style_prop(obj, part, LV_STYLE_TRANSFORM_ZOOM);
ARM GAS  /tmp/ccdh8Ctk.s 			page 45


  82:Middlewares/lvgl/src/core/lv_obj_style_gen.h ****     return (lv_coord_t)v.num;
  83:Middlewares/lvgl/src/core/lv_obj_style_gen.h **** }
  84:Middlewares/lvgl/src/core/lv_obj_style_gen.h **** 
  85:Middlewares/lvgl/src/core/lv_obj_style_gen.h **** static inline lv_coord_t lv_obj_get_style_transform_angle(const struct _lv_obj_t * obj, uint32_t pa
  86:Middlewares/lvgl/src/core/lv_obj_style_gen.h **** {
  87:Middlewares/lvgl/src/core/lv_obj_style_gen.h ****     lv_style_value_t v = lv_obj_get_style_prop(obj, part, LV_STYLE_TRANSFORM_ANGLE);
  88:Middlewares/lvgl/src/core/lv_obj_style_gen.h ****     return (lv_coord_t)v.num;
  89:Middlewares/lvgl/src/core/lv_obj_style_gen.h **** }
  90:Middlewares/lvgl/src/core/lv_obj_style_gen.h **** 
  91:Middlewares/lvgl/src/core/lv_obj_style_gen.h **** static inline lv_coord_t lv_obj_get_style_pad_top(const struct _lv_obj_t * obj, uint32_t part)
  92:Middlewares/lvgl/src/core/lv_obj_style_gen.h **** {
  93:Middlewares/lvgl/src/core/lv_obj_style_gen.h ****     lv_style_value_t v = lv_obj_get_style_prop(obj, part, LV_STYLE_PAD_TOP);
  94:Middlewares/lvgl/src/core/lv_obj_style_gen.h ****     return (lv_coord_t)v.num;
  95:Middlewares/lvgl/src/core/lv_obj_style_gen.h **** }
  96:Middlewares/lvgl/src/core/lv_obj_style_gen.h **** 
  97:Middlewares/lvgl/src/core/lv_obj_style_gen.h **** static inline lv_coord_t lv_obj_get_style_pad_bottom(const struct _lv_obj_t * obj, uint32_t part)
  98:Middlewares/lvgl/src/core/lv_obj_style_gen.h **** {
  99:Middlewares/lvgl/src/core/lv_obj_style_gen.h ****     lv_style_value_t v = lv_obj_get_style_prop(obj, part, LV_STYLE_PAD_BOTTOM);
 100:Middlewares/lvgl/src/core/lv_obj_style_gen.h ****     return (lv_coord_t)v.num;
 101:Middlewares/lvgl/src/core/lv_obj_style_gen.h **** }
 102:Middlewares/lvgl/src/core/lv_obj_style_gen.h **** 
 103:Middlewares/lvgl/src/core/lv_obj_style_gen.h **** static inline lv_coord_t lv_obj_get_style_pad_left(const struct _lv_obj_t * obj, uint32_t part)
 104:Middlewares/lvgl/src/core/lv_obj_style_gen.h **** {
 105:Middlewares/lvgl/src/core/lv_obj_style_gen.h ****     lv_style_value_t v = lv_obj_get_style_prop(obj, part, LV_STYLE_PAD_LEFT);
 106:Middlewares/lvgl/src/core/lv_obj_style_gen.h ****     return (lv_coord_t)v.num;
 107:Middlewares/lvgl/src/core/lv_obj_style_gen.h **** }
 108:Middlewares/lvgl/src/core/lv_obj_style_gen.h **** 
 109:Middlewares/lvgl/src/core/lv_obj_style_gen.h **** static inline lv_coord_t lv_obj_get_style_pad_right(const struct _lv_obj_t * obj, uint32_t part)
 110:Middlewares/lvgl/src/core/lv_obj_style_gen.h **** {
 111:Middlewares/lvgl/src/core/lv_obj_style_gen.h ****     lv_style_value_t v = lv_obj_get_style_prop(obj, part, LV_STYLE_PAD_RIGHT);
 112:Middlewares/lvgl/src/core/lv_obj_style_gen.h ****     return (lv_coord_t)v.num;
 113:Middlewares/lvgl/src/core/lv_obj_style_gen.h **** }
 114:Middlewares/lvgl/src/core/lv_obj_style_gen.h **** 
 115:Middlewares/lvgl/src/core/lv_obj_style_gen.h **** static inline lv_coord_t lv_obj_get_style_pad_row(const struct _lv_obj_t * obj, uint32_t part)
 116:Middlewares/lvgl/src/core/lv_obj_style_gen.h **** {
 117:Middlewares/lvgl/src/core/lv_obj_style_gen.h ****     lv_style_value_t v = lv_obj_get_style_prop(obj, part, LV_STYLE_PAD_ROW);
 118:Middlewares/lvgl/src/core/lv_obj_style_gen.h ****     return (lv_coord_t)v.num;
 119:Middlewares/lvgl/src/core/lv_obj_style_gen.h **** }
 120:Middlewares/lvgl/src/core/lv_obj_style_gen.h **** 
 121:Middlewares/lvgl/src/core/lv_obj_style_gen.h **** static inline lv_coord_t lv_obj_get_style_pad_column(const struct _lv_obj_t * obj, uint32_t part)
 122:Middlewares/lvgl/src/core/lv_obj_style_gen.h **** {
 123:Middlewares/lvgl/src/core/lv_obj_style_gen.h ****     lv_style_value_t v = lv_obj_get_style_prop(obj, part, LV_STYLE_PAD_COLUMN);
 124:Middlewares/lvgl/src/core/lv_obj_style_gen.h ****     return (lv_coord_t)v.num;
 125:Middlewares/lvgl/src/core/lv_obj_style_gen.h **** }
 126:Middlewares/lvgl/src/core/lv_obj_style_gen.h **** 
 127:Middlewares/lvgl/src/core/lv_obj_style_gen.h **** static inline lv_coord_t lv_obj_get_style_radius(const struct _lv_obj_t * obj, uint32_t part)
 128:Middlewares/lvgl/src/core/lv_obj_style_gen.h **** {
 129:Middlewares/lvgl/src/core/lv_obj_style_gen.h ****     lv_style_value_t v = lv_obj_get_style_prop(obj, part, LV_STYLE_RADIUS);
 130:Middlewares/lvgl/src/core/lv_obj_style_gen.h ****     return (lv_coord_t)v.num;
 131:Middlewares/lvgl/src/core/lv_obj_style_gen.h **** }
 132:Middlewares/lvgl/src/core/lv_obj_style_gen.h **** 
 133:Middlewares/lvgl/src/core/lv_obj_style_gen.h **** static inline bool lv_obj_get_style_clip_corner(const struct _lv_obj_t * obj, uint32_t part)
 134:Middlewares/lvgl/src/core/lv_obj_style_gen.h **** {
 135:Middlewares/lvgl/src/core/lv_obj_style_gen.h ****     lv_style_value_t v = lv_obj_get_style_prop(obj, part, LV_STYLE_CLIP_CORNER);
 136:Middlewares/lvgl/src/core/lv_obj_style_gen.h ****     return (bool)v.num;
 137:Middlewares/lvgl/src/core/lv_obj_style_gen.h **** }
 138:Middlewares/lvgl/src/core/lv_obj_style_gen.h **** 
ARM GAS  /tmp/ccdh8Ctk.s 			page 46


 139:Middlewares/lvgl/src/core/lv_obj_style_gen.h **** static inline lv_opa_t lv_obj_get_style_opa(const struct _lv_obj_t * obj, uint32_t part)
 140:Middlewares/lvgl/src/core/lv_obj_style_gen.h **** {
 141:Middlewares/lvgl/src/core/lv_obj_style_gen.h ****     lv_style_value_t v = lv_obj_get_style_prop(obj, part, LV_STYLE_OPA);
 142:Middlewares/lvgl/src/core/lv_obj_style_gen.h ****     return (lv_opa_t)v.num;
 143:Middlewares/lvgl/src/core/lv_obj_style_gen.h **** }
 144:Middlewares/lvgl/src/core/lv_obj_style_gen.h **** 
 145:Middlewares/lvgl/src/core/lv_obj_style_gen.h **** static inline const lv_color_filter_dsc_t * lv_obj_get_style_color_filter_dsc(const struct _lv_obj_
 146:Middlewares/lvgl/src/core/lv_obj_style_gen.h **** {
 147:Middlewares/lvgl/src/core/lv_obj_style_gen.h ****     lv_style_value_t v = lv_obj_get_style_prop(obj, part, LV_STYLE_COLOR_FILTER_DSC);
 148:Middlewares/lvgl/src/core/lv_obj_style_gen.h ****     return (const lv_color_filter_dsc_t *)v.ptr;
 149:Middlewares/lvgl/src/core/lv_obj_style_gen.h **** }
 150:Middlewares/lvgl/src/core/lv_obj_style_gen.h **** 
 151:Middlewares/lvgl/src/core/lv_obj_style_gen.h **** static inline lv_opa_t lv_obj_get_style_color_filter_opa(const struct _lv_obj_t * obj, uint32_t par
 152:Middlewares/lvgl/src/core/lv_obj_style_gen.h **** {
 153:Middlewares/lvgl/src/core/lv_obj_style_gen.h ****     lv_style_value_t v = lv_obj_get_style_prop(obj, part, LV_STYLE_COLOR_FILTER_OPA);
 154:Middlewares/lvgl/src/core/lv_obj_style_gen.h ****     return (lv_opa_t)v.num;
 155:Middlewares/lvgl/src/core/lv_obj_style_gen.h **** }
 156:Middlewares/lvgl/src/core/lv_obj_style_gen.h **** 
 157:Middlewares/lvgl/src/core/lv_obj_style_gen.h **** static inline uint32_t lv_obj_get_style_anim_time(const struct _lv_obj_t * obj, uint32_t part)
 158:Middlewares/lvgl/src/core/lv_obj_style_gen.h **** {
 159:Middlewares/lvgl/src/core/lv_obj_style_gen.h ****     lv_style_value_t v = lv_obj_get_style_prop(obj, part, LV_STYLE_ANIM_TIME);
 160:Middlewares/lvgl/src/core/lv_obj_style_gen.h ****     return (uint32_t)v.num;
 161:Middlewares/lvgl/src/core/lv_obj_style_gen.h **** }
 162:Middlewares/lvgl/src/core/lv_obj_style_gen.h **** 
 163:Middlewares/lvgl/src/core/lv_obj_style_gen.h **** static inline uint32_t lv_obj_get_style_anim_speed(const struct _lv_obj_t * obj, uint32_t part)
 164:Middlewares/lvgl/src/core/lv_obj_style_gen.h **** {
 165:Middlewares/lvgl/src/core/lv_obj_style_gen.h ****     lv_style_value_t v = lv_obj_get_style_prop(obj, part, LV_STYLE_ANIM_SPEED);
 166:Middlewares/lvgl/src/core/lv_obj_style_gen.h ****     return (uint32_t)v.num;
 167:Middlewares/lvgl/src/core/lv_obj_style_gen.h **** }
 168:Middlewares/lvgl/src/core/lv_obj_style_gen.h **** 
 169:Middlewares/lvgl/src/core/lv_obj_style_gen.h **** static inline const lv_style_transition_dsc_t * lv_obj_get_style_transition(const struct _lv_obj_t 
 170:Middlewares/lvgl/src/core/lv_obj_style_gen.h **** {
 171:Middlewares/lvgl/src/core/lv_obj_style_gen.h ****     lv_style_value_t v = lv_obj_get_style_prop(obj, part, LV_STYLE_TRANSITION);
 172:Middlewares/lvgl/src/core/lv_obj_style_gen.h ****     return (const lv_style_transition_dsc_t *)v.ptr;
 173:Middlewares/lvgl/src/core/lv_obj_style_gen.h **** }
 174:Middlewares/lvgl/src/core/lv_obj_style_gen.h **** 
 175:Middlewares/lvgl/src/core/lv_obj_style_gen.h **** static inline lv_blend_mode_t lv_obj_get_style_blend_mode(const struct _lv_obj_t * obj, uint32_t pa
 176:Middlewares/lvgl/src/core/lv_obj_style_gen.h **** {
 177:Middlewares/lvgl/src/core/lv_obj_style_gen.h ****     lv_style_value_t v = lv_obj_get_style_prop(obj, part, LV_STYLE_BLEND_MODE);
 178:Middlewares/lvgl/src/core/lv_obj_style_gen.h ****     return (lv_blend_mode_t)v.num;
 179:Middlewares/lvgl/src/core/lv_obj_style_gen.h **** }
 180:Middlewares/lvgl/src/core/lv_obj_style_gen.h **** 
 181:Middlewares/lvgl/src/core/lv_obj_style_gen.h **** static inline uint16_t lv_obj_get_style_layout(const struct _lv_obj_t * obj, uint32_t part)
 182:Middlewares/lvgl/src/core/lv_obj_style_gen.h **** {
 183:Middlewares/lvgl/src/core/lv_obj_style_gen.h ****     lv_style_value_t v = lv_obj_get_style_prop(obj, part, LV_STYLE_LAYOUT);
 184:Middlewares/lvgl/src/core/lv_obj_style_gen.h ****     return (uint16_t)v.num;
 185:Middlewares/lvgl/src/core/lv_obj_style_gen.h **** }
 186:Middlewares/lvgl/src/core/lv_obj_style_gen.h **** 
 187:Middlewares/lvgl/src/core/lv_obj_style_gen.h **** static inline lv_base_dir_t lv_obj_get_style_base_dir(const struct _lv_obj_t * obj, uint32_t part)
 1382              		.loc 4 187 29 view .LVU425
 1383              	.LBB40:
 188:Middlewares/lvgl/src/core/lv_obj_style_gen.h **** {
 189:Middlewares/lvgl/src/core/lv_obj_style_gen.h ****     lv_style_value_t v = lv_obj_get_style_prop(obj, part, LV_STYLE_BASE_DIR);
 1384              		.loc 4 189 5 view .LVU426
 1385              		.loc 4 189 26 is_stmt 0 view .LVU427
 1386 002e 41F26A42 		movw	r2, #5226
 1387 0032 0021     		movs	r1, #0
ARM GAS  /tmp/ccdh8Ctk.s 			page 47


 1388 0034 3846     		mov	r0, r7
 1389 0036 FFF7FEFF 		bl	lv_obj_get_style_prop
 1390              	.LVL148:
 190:Middlewares/lvgl/src/core/lv_obj_style_gen.h ****     return (lv_base_dir_t)v.num;
 1391              		.loc 4 190 5 is_stmt 1 view .LVU428
 1392              		.loc 4 190 12 is_stmt 0 view .LVU429
 1393 003a 5FFA80F8 		uxtb	r8, r0
 1394              	.LVL149:
 1395              		.loc 4 190 12 view .LVU430
 1396              	.LBE40:
 1397              	.LBE39:
 157:Middlewares/lvgl/src/core/lv_obj_tree.c ****     else  old_pos.x = old_parent->coords.x2 - obj->coords.x2;
 1398              		.loc 1 157 5 is_stmt 1 view .LVU431
 157:Middlewares/lvgl/src/core/lv_obj_tree.c ****     else  old_pos.x = old_parent->coords.x2 - obj->coords.x2;
 1399              		.loc 1 157 7 is_stmt 0 view .LVU432
 1400 003e B8F1010F 		cmp	r8, #1
 1401 0042 09D1     		bne	.L121
 158:Middlewares/lvgl/src/core/lv_obj_tree.c **** 
 1402              		.loc 1 158 11 is_stmt 1 view .LVU433
 158:Middlewares/lvgl/src/core/lv_obj_tree.c **** 
 1403              		.loc 1 158 41 is_stmt 0 view .LVU434
 1404 0044 2B8B     		ldrh	r3, [r5, #24]
 158:Middlewares/lvgl/src/core/lv_obj_tree.c **** 
 1405              		.loc 1 158 58 view .LVU435
 1406 0046 328B     		ldrh	r2, [r6, #24]
 158:Middlewares/lvgl/src/core/lv_obj_tree.c **** 
 1407              		.loc 1 158 45 view .LVU436
 1408 0048 9B1A     		subs	r3, r3, r2
 158:Middlewares/lvgl/src/core/lv_obj_tree.c **** 
 1409              		.loc 1 158 21 view .LVU437
 1410 004a ADF80430 		strh	r3, [sp, #4]	@ movhi
 1411              	.L109:
 161:Middlewares/lvgl/src/core/lv_obj_tree.c ****     for(i = lv_obj_get_child_id(obj); i <= (int32_t)lv_obj_get_child_cnt(old_parent) - 2; i++) {
 1412              		.loc 1 161 5 is_stmt 1 view .LVU438
 162:Middlewares/lvgl/src/core/lv_obj_tree.c ****         old_parent->spec_attr->children[i] = old_parent->spec_attr->children[i+1];
 1413              		.loc 1 162 5 view .LVU439
 162:Middlewares/lvgl/src/core/lv_obj_tree.c ****         old_parent->spec_attr->children[i] = old_parent->spec_attr->children[i+1];
 1414              		.loc 1 162 13 is_stmt 0 view .LVU440
 1415 004e 3046     		mov	r0, r6
 1416 0050 FFF7FEFF 		bl	lv_obj_get_child_id
 1417              	.LVL150:
 1418 0054 0446     		mov	r4, r0
 1419              	.LVL151:
 162:Middlewares/lvgl/src/core/lv_obj_tree.c ****         old_parent->spec_attr->children[i] = old_parent->spec_attr->children[i+1];
 1420              		.loc 1 162 5 view .LVU441
 1421 0056 0DE0     		b	.L110
 1422              	.LVL152:
 1423              	.L121:
 157:Middlewares/lvgl/src/core/lv_obj_tree.c ****     else  old_pos.x = old_parent->coords.x2 - obj->coords.x2;
 1424              		.loc 1 157 41 is_stmt 1 discriminator 1 view .LVU442
 157:Middlewares/lvgl/src/core/lv_obj_tree.c ****     else  old_pos.x = old_parent->coords.x2 - obj->coords.x2;
 1425              		.loc 1 157 53 is_stmt 0 discriminator 1 view .LVU443
 1426 0058 3046     		mov	r0, r6
 1427 005a FFF7FEFF 		bl	lv_obj_get_x
 1428              	.LVL153:
 157:Middlewares/lvgl/src/core/lv_obj_tree.c ****     else  old_pos.x = old_parent->coords.x2 - obj->coords.x2;
 1429              		.loc 1 157 51 discriminator 1 view .LVU444
ARM GAS  /tmp/ccdh8Ctk.s 			page 48


 1430 005e ADF80400 		strh	r0, [sp, #4]	@ movhi
 1431 0062 F4E7     		b	.L109
 1432              	.LVL154:
 1433              	.L111:
 163:Middlewares/lvgl/src/core/lv_obj_tree.c ****     }
 1434              		.loc 1 163 9 is_stmt 1 discriminator 3 view .LVU445
 163:Middlewares/lvgl/src/core/lv_obj_tree.c ****     }
 1435              		.loc 1 163 56 is_stmt 0 discriminator 3 view .LVU446
 1436 0064 AB68     		ldr	r3, [r5, #8]
 163:Middlewares/lvgl/src/core/lv_obj_tree.c ****     }
 1437              		.loc 1 163 67 discriminator 3 view .LVU447
 1438 0066 1A68     		ldr	r2, [r3]
 163:Middlewares/lvgl/src/core/lv_obj_tree.c ****     }
 1439              		.loc 1 163 77 discriminator 3 view .LVU448
 1440 0068 631C     		adds	r3, r4, #1
 1441 006a 52F82310 		ldr	r1, [r2, r3, lsl #2]
 163:Middlewares/lvgl/src/core/lv_obj_tree.c ****     }
 1442              		.loc 1 163 44 discriminator 3 view .LVU449
 1443 006e 42F82410 		str	r1, [r2, r4, lsl #2]
 162:Middlewares/lvgl/src/core/lv_obj_tree.c ****         old_parent->spec_attr->children[i] = old_parent->spec_attr->children[i+1];
 1444              		.loc 1 162 91 is_stmt 1 discriminator 3 view .LVU450
 162:Middlewares/lvgl/src/core/lv_obj_tree.c ****         old_parent->spec_attr->children[i] = old_parent->spec_attr->children[i+1];
 1445              		.loc 1 162 92 is_stmt 0 discriminator 3 view .LVU451
 1446 0072 1C46     		mov	r4, r3
 1447              	.LVL155:
 1448              	.L110:
 162:Middlewares/lvgl/src/core/lv_obj_tree.c ****         old_parent->spec_attr->children[i] = old_parent->spec_attr->children[i+1];
 1449              		.loc 1 162 39 is_stmt 1 discriminator 1 view .LVU452
 162:Middlewares/lvgl/src/core/lv_obj_tree.c ****         old_parent->spec_attr->children[i] = old_parent->spec_attr->children[i+1];
 1450              		.loc 1 162 53 is_stmt 0 discriminator 1 view .LVU453
 1451 0074 2846     		mov	r0, r5
 1452 0076 FFF7FEFF 		bl	lv_obj_get_child_cnt
 1453              	.LVL156:
 162:Middlewares/lvgl/src/core/lv_obj_tree.c ****         old_parent->spec_attr->children[i] = old_parent->spec_attr->children[i+1];
 1454              		.loc 1 162 41 discriminator 1 view .LVU454
 1455 007a 431E     		subs	r3, r0, #1
 162:Middlewares/lvgl/src/core/lv_obj_tree.c ****         old_parent->spec_attr->children[i] = old_parent->spec_attr->children[i+1];
 1456              		.loc 1 162 5 discriminator 1 view .LVU455
 1457 007c A342     		cmp	r3, r4
 1458 007e F1DC     		bgt	.L111
 165:Middlewares/lvgl/src/core/lv_obj_tree.c ****     if(old_parent->spec_attr->child_cnt) {
 1459              		.loc 1 165 5 is_stmt 1 view .LVU456
 165:Middlewares/lvgl/src/core/lv_obj_tree.c ****     if(old_parent->spec_attr->child_cnt) {
 1460              		.loc 1 165 15 is_stmt 0 view .LVU457
 1461 0080 AA68     		ldr	r2, [r5, #8]
 165:Middlewares/lvgl/src/core/lv_obj_tree.c ****     if(old_parent->spec_attr->child_cnt) {
 1462              		.loc 1 165 26 view .LVU458
 1463 0082 5368     		ldr	r3, [r2, #4]
 165:Middlewares/lvgl/src/core/lv_obj_tree.c ****     if(old_parent->spec_attr->child_cnt) {
 1464              		.loc 1 165 37 view .LVU459
 1465 0084 013B     		subs	r3, r3, #1
 1466 0086 5360     		str	r3, [r2, #4]
 166:Middlewares/lvgl/src/core/lv_obj_tree.c ****         old_parent->spec_attr->children = lv_mem_realloc(old_parent->spec_attr->children, old_paren
 1467              		.loc 1 166 5 is_stmt 1 view .LVU460
 166:Middlewares/lvgl/src/core/lv_obj_tree.c ****         old_parent->spec_attr->children = lv_mem_realloc(old_parent->spec_attr->children, old_paren
 1468              		.loc 1 166 18 is_stmt 0 view .LVU461
 1469 0088 AC68     		ldr	r4, [r5, #8]
ARM GAS  /tmp/ccdh8Ctk.s 			page 49


 1470              	.LVL157:
 166:Middlewares/lvgl/src/core/lv_obj_tree.c ****         old_parent->spec_attr->children = lv_mem_realloc(old_parent->spec_attr->children, old_paren
 1471              		.loc 1 166 29 view .LVU462
 1472 008a 6168     		ldr	r1, [r4, #4]
 166:Middlewares/lvgl/src/core/lv_obj_tree.c ****         old_parent->spec_attr->children = lv_mem_realloc(old_parent->spec_attr->children, old_paren
 1473              		.loc 1 166 7 view .LVU463
 1474 008c 0029     		cmp	r1, #0
 1475 008e 33D0     		beq	.L112
 167:Middlewares/lvgl/src/core/lv_obj_tree.c ****     } else {
 1476              		.loc 1 167 9 is_stmt 1 view .LVU464
 167:Middlewares/lvgl/src/core/lv_obj_tree.c ****     } else {
 1477              		.loc 1 167 43 is_stmt 0 view .LVU465
 1478 0090 8900     		lsls	r1, r1, #2
 1479 0092 2068     		ldr	r0, [r4]
 1480 0094 FFF7FEFF 		bl	lv_mem_realloc
 1481              	.LVL158:
 167:Middlewares/lvgl/src/core/lv_obj_tree.c ****     } else {
 1482              		.loc 1 167 41 view .LVU466
 1483 0098 2060     		str	r0, [r4]
 1484              	.L113:
 174:Middlewares/lvgl/src/core/lv_obj_tree.c ****     parent->spec_attr->children = lv_mem_realloc(parent->spec_attr->children, parent->spec_attr->ch
 1485              		.loc 1 174 5 is_stmt 1 view .LVU467
 174:Middlewares/lvgl/src/core/lv_obj_tree.c ****     parent->spec_attr->children = lv_mem_realloc(parent->spec_attr->children, parent->spec_attr->ch
 1486              		.loc 1 174 11 is_stmt 0 view .LVU468
 1487 009a BA68     		ldr	r2, [r7, #8]
 174:Middlewares/lvgl/src/core/lv_obj_tree.c ****     parent->spec_attr->children = lv_mem_realloc(parent->spec_attr->children, parent->spec_attr->ch
 1488              		.loc 1 174 22 view .LVU469
 1489 009c 5368     		ldr	r3, [r2, #4]
 174:Middlewares/lvgl/src/core/lv_obj_tree.c ****     parent->spec_attr->children = lv_mem_realloc(parent->spec_attr->children, parent->spec_attr->ch
 1490              		.loc 1 174 33 view .LVU470
 1491 009e 0133     		adds	r3, r3, #1
 1492 00a0 5360     		str	r3, [r2, #4]
 175:Middlewares/lvgl/src/core/lv_obj_tree.c ****     parent->spec_attr->children[lv_obj_get_child_cnt(parent) - 1] = obj;
 1493              		.loc 1 175 5 is_stmt 1 view .LVU471
 175:Middlewares/lvgl/src/core/lv_obj_tree.c ****     parent->spec_attr->children[lv_obj_get_child_cnt(parent) - 1] = obj;
 1494              		.loc 1 175 56 is_stmt 0 view .LVU472
 1495 00a2 BC68     		ldr	r4, [r7, #8]
 175:Middlewares/lvgl/src/core/lv_obj_tree.c ****     parent->spec_attr->children[lv_obj_get_child_cnt(parent) - 1] = obj;
 1496              		.loc 1 175 96 view .LVU473
 1497 00a4 6168     		ldr	r1, [r4, #4]
 175:Middlewares/lvgl/src/core/lv_obj_tree.c ****     parent->spec_attr->children[lv_obj_get_child_cnt(parent) - 1] = obj;
 1498              		.loc 1 175 35 view .LVU474
 1499 00a6 8900     		lsls	r1, r1, #2
 1500 00a8 2068     		ldr	r0, [r4]
 1501 00aa FFF7FEFF 		bl	lv_mem_realloc
 1502              	.LVL159:
 175:Middlewares/lvgl/src/core/lv_obj_tree.c ****     parent->spec_attr->children[lv_obj_get_child_cnt(parent) - 1] = obj;
 1503              		.loc 1 175 33 view .LVU475
 1504 00ae 2060     		str	r0, [r4]
 176:Middlewares/lvgl/src/core/lv_obj_tree.c **** 
 1505              		.loc 1 176 5 is_stmt 1 view .LVU476
 176:Middlewares/lvgl/src/core/lv_obj_tree.c **** 
 1506              		.loc 1 176 11 is_stmt 0 view .LVU477
 1507 00b0 BB68     		ldr	r3, [r7, #8]
 176:Middlewares/lvgl/src/core/lv_obj_tree.c **** 
 1508              		.loc 1 176 22 view .LVU478
 1509 00b2 1C68     		ldr	r4, [r3]
ARM GAS  /tmp/ccdh8Ctk.s 			page 50


 176:Middlewares/lvgl/src/core/lv_obj_tree.c **** 
 1510              		.loc 1 176 33 view .LVU479
 1511 00b4 3846     		mov	r0, r7
 1512 00b6 FFF7FEFF 		bl	lv_obj_get_child_cnt
 1513              	.LVL160:
 176:Middlewares/lvgl/src/core/lv_obj_tree.c **** 
 1514              		.loc 1 176 32 view .LVU480
 1515 00ba 00F18040 		add	r0, r0, #1073741824
 1516 00be 0138     		subs	r0, r0, #1
 176:Middlewares/lvgl/src/core/lv_obj_tree.c **** 
 1517              		.loc 1 176 67 view .LVU481
 1518 00c0 44F82060 		str	r6, [r4, r0, lsl #2]
 178:Middlewares/lvgl/src/core/lv_obj_tree.c **** 
 1519              		.loc 1 178 5 is_stmt 1 view .LVU482
 178:Middlewares/lvgl/src/core/lv_obj_tree.c **** 
 1520              		.loc 1 178 17 is_stmt 0 view .LVU483
 1521 00c4 7760     		str	r7, [r6, #4]
 180:Middlewares/lvgl/src/core/lv_obj_tree.c ****         lv_obj_set_pos(obj, old_pos.x, old_pos.y);
 1522              		.loc 1 180 5 is_stmt 1 view .LVU484
 180:Middlewares/lvgl/src/core/lv_obj_tree.c ****         lv_obj_set_pos(obj, old_pos.x, old_pos.y);
 1523              		.loc 1 180 7 is_stmt 0 view .LVU485
 1524 00c6 B8F1010F 		cmp	r8, #1
 1525 00ca 1CD0     		beq	.L114
 181:Middlewares/lvgl/src/core/lv_obj_tree.c ****     }
 1526              		.loc 1 181 9 is_stmt 1 view .LVU486
 1527 00cc 4A46     		mov	r2, r9
 1528 00ce BDF90410 		ldrsh	r1, [sp, #4]
 1529 00d2 3046     		mov	r0, r6
 1530 00d4 FFF7FEFF 		bl	lv_obj_set_pos
 1531              	.LVL161:
 1532              	.L115:
 190:Middlewares/lvgl/src/core/lv_obj_tree.c **** 
 1533              		.loc 1 190 5 view .LVU487
 1534 00d8 3246     		mov	r2, r6
 1535 00da 2221     		movs	r1, #34
 1536 00dc 2846     		mov	r0, r5
 1537 00de FFF7FEFF 		bl	lv_event_send
 1538              	.LVL162:
 193:Middlewares/lvgl/src/core/lv_obj_tree.c **** 
 1539              		.loc 1 193 5 view .LVU488
 1540 00e2 3246     		mov	r2, r6
 1541 00e4 2221     		movs	r1, #34
 1542 00e6 3846     		mov	r0, r7
 1543 00e8 FFF7FEFF 		bl	lv_event_send
 1544              	.LVL163:
 195:Middlewares/lvgl/src/core/lv_obj_tree.c **** }
 1545              		.loc 1 195 5 view .LVU489
 1546 00ec 3046     		mov	r0, r6
 1547 00ee FFF7FEFF 		bl	lv_obj_invalidate
 1548              	.LVL164:
 1549              	.L106:
 196:Middlewares/lvgl/src/core/lv_obj_tree.c **** 
 1550              		.loc 1 196 1 is_stmt 0 view .LVU490
 1551 00f2 03B0     		add	sp, sp, #12
 1552              	.LCFI15:
 1553              		.cfi_remember_state
 1554              		.cfi_def_cfa_offset 28
ARM GAS  /tmp/ccdh8Ctk.s 			page 51


 1555              		@ sp needed
 1556 00f4 BDE8F083 		pop	{r4, r5, r6, r7, r8, r9, pc}
 1557              	.LVL165:
 1558              	.L112:
 1559              	.LCFI16:
 1560              		.cfi_restore_state
 169:Middlewares/lvgl/src/core/lv_obj_tree.c ****         old_parent->spec_attr->children = NULL;
 1561              		.loc 1 169 9 is_stmt 1 view .LVU491
 1562 00f8 2068     		ldr	r0, [r4]
 1563 00fa FFF7FEFF 		bl	lv_mem_free
 1564              	.LVL166:
 170:Middlewares/lvgl/src/core/lv_obj_tree.c ****     }
 1565              		.loc 1 170 9 view .LVU492
 170:Middlewares/lvgl/src/core/lv_obj_tree.c ****     }
 1566              		.loc 1 170 19 is_stmt 0 view .LVU493
 1567 00fe AB68     		ldr	r3, [r5, #8]
 170:Middlewares/lvgl/src/core/lv_obj_tree.c ****     }
 1568              		.loc 1 170 41 view .LVU494
 1569 0100 0022     		movs	r2, #0
 1570 0102 1A60     		str	r2, [r3]
 1571 0104 C9E7     		b	.L113
 1572              	.L114:
 1573              	.LBB41:
 185:Middlewares/lvgl/src/core/lv_obj_tree.c ****         lv_obj_set_pos(obj, new_x, old_pos.y);
 1574              		.loc 1 185 9 is_stmt 1 view .LVU495
 185:Middlewares/lvgl/src/core/lv_obj_tree.c ****         lv_obj_set_pos(obj, new_x, old_pos.y);
 1575              		.loc 1 185 28 is_stmt 0 view .LVU496
 1576 0106 3846     		mov	r0, r7
 1577 0108 FFF7FEFF 		bl	lv_obj_get_width
 1578              	.LVL167:
 1579 010c 84B2     		uxth	r4, r0
 185:Middlewares/lvgl/src/core/lv_obj_tree.c ****         lv_obj_set_pos(obj, new_x, old_pos.y);
 1580              		.loc 1 185 62 view .LVU497
 1581 010e BDF80430 		ldrh	r3, [sp, #4]
 185:Middlewares/lvgl/src/core/lv_obj_tree.c ****         lv_obj_set_pos(obj, new_x, old_pos.y);
 1582              		.loc 1 185 53 view .LVU498
 1583 0112 E41A     		subs	r4, r4, r3
 1584 0114 A4B2     		uxth	r4, r4
 185:Middlewares/lvgl/src/core/lv_obj_tree.c ****         lv_obj_set_pos(obj, new_x, old_pos.y);
 1585              		.loc 1 185 67 view .LVU499
 1586 0116 3046     		mov	r0, r6
 1587 0118 FFF7FEFF 		bl	lv_obj_get_width
 1588              	.LVL168:
 1589 011c 81B2     		uxth	r1, r0
 185:Middlewares/lvgl/src/core/lv_obj_tree.c ****         lv_obj_set_pos(obj, new_x, old_pos.y);
 1590              		.loc 1 185 65 view .LVU500
 1591 011e 611A     		subs	r1, r4, r1
 1592              	.LVL169:
 186:Middlewares/lvgl/src/core/lv_obj_tree.c ****     }
 1593              		.loc 1 186 9 is_stmt 1 view .LVU501
 1594 0120 4A46     		mov	r2, r9
 1595 0122 09B2     		sxth	r1, r1
 186:Middlewares/lvgl/src/core/lv_obj_tree.c ****     }
 1596              		.loc 1 186 9 is_stmt 0 view .LVU502
 1597 0124 3046     		mov	r0, r6
 1598 0126 FFF7FEFF 		bl	lv_obj_set_pos
 1599              	.LVL170:
ARM GAS  /tmp/ccdh8Ctk.s 			page 52


 186:Middlewares/lvgl/src/core/lv_obj_tree.c ****     }
 1600              		.loc 1 186 9 view .LVU503
 1601 012a D5E7     		b	.L115
 1602              	.LVL171:
 1603              	.L118:
 1604              	.LCFI17:
 1605              		.cfi_def_cfa_offset 0
 1606              		.cfi_restore 4
 1607              		.cfi_restore 5
 1608              		.cfi_restore 6
 1609              		.cfi_restore 7
 1610              		.cfi_restore 8
 1611              		.cfi_restore 9
 1612              		.cfi_restore 14
 186:Middlewares/lvgl/src/core/lv_obj_tree.c ****     }
 1613              		.loc 1 186 9 view .LVU504
 1614 012c 7047     		bx	lr
 1615              	.LBE41:
 1616              		.cfi_endproc
 1617              	.LFE152:
 1619              		.section	.text.lv_obj_move_foreground,"ax",%progbits
 1620              		.align	1
 1621              		.global	lv_obj_move_foreground
 1622              		.syntax unified
 1623              		.thumb
 1624              		.thumb_func
 1626              	lv_obj_move_foreground:
 1627              	.LVL172:
 1628              	.LFB153:
 199:Middlewares/lvgl/src/core/lv_obj_tree.c ****     LV_ASSERT_OBJ(obj, MY_CLASS);
 1629              		.loc 1 199 1 is_stmt 1 view -0
 1630              		.cfi_startproc
 1631              		@ args = 0, pretend = 0, frame = 0
 1632              		@ frame_needed = 0, uses_anonymous_args = 0
 199:Middlewares/lvgl/src/core/lv_obj_tree.c ****     LV_ASSERT_OBJ(obj, MY_CLASS);
 1633              		.loc 1 199 1 is_stmt 0 view .LVU506
 1634 0000 70B5     		push	{r4, r5, r6, lr}
 1635              	.LCFI18:
 1636              		.cfi_def_cfa_offset 16
 1637              		.cfi_offset 4, -16
 1638              		.cfi_offset 5, -12
 1639              		.cfi_offset 6, -8
 1640              		.cfi_offset 14, -4
 1641 0002 0646     		mov	r6, r0
 200:Middlewares/lvgl/src/core/lv_obj_tree.c **** 
 1642              		.loc 1 200 5 is_stmt 1 view .LVU507
 200:Middlewares/lvgl/src/core/lv_obj_tree.c **** 
 1643              		.loc 1 200 5 view .LVU508
 200:Middlewares/lvgl/src/core/lv_obj_tree.c **** 
 1644              		.loc 1 200 5 view .LVU509
 202:Middlewares/lvgl/src/core/lv_obj_tree.c **** 
 1645              		.loc 1 202 5 view .LVU510
 202:Middlewares/lvgl/src/core/lv_obj_tree.c **** 
 1646              		.loc 1 202 25 is_stmt 0 view .LVU511
 1647 0004 FFF7FEFF 		bl	lv_obj_get_parent
 1648              	.LVL173:
 202:Middlewares/lvgl/src/core/lv_obj_tree.c **** 
ARM GAS  /tmp/ccdh8Ctk.s 			page 53


 1649              		.loc 1 202 25 view .LVU512
 1650 0008 0546     		mov	r5, r0
 1651              	.LVL174:
 204:Middlewares/lvgl/src/core/lv_obj_tree.c **** 
 1652              		.loc 1 204 5 is_stmt 1 view .LVU513
 1653 000a FFF7FEFF 		bl	lv_obj_invalidate
 1654              	.LVL175:
 206:Middlewares/lvgl/src/core/lv_obj_tree.c ****     for(i = lv_obj_get_child_id(obj); i < lv_obj_get_child_cnt(parent) - 1; i++) {
 1655              		.loc 1 206 5 view .LVU514
 207:Middlewares/lvgl/src/core/lv_obj_tree.c ****         parent->spec_attr->children[i] = parent->spec_attr->children[i + 1];
 1656              		.loc 1 207 5 view .LVU515
 207:Middlewares/lvgl/src/core/lv_obj_tree.c ****         parent->spec_attr->children[i] = parent->spec_attr->children[i + 1];
 1657              		.loc 1 207 13 is_stmt 0 view .LVU516
 1658 000e 3046     		mov	r0, r6
 1659 0010 FFF7FEFF 		bl	lv_obj_get_child_id
 1660              	.LVL176:
 1661 0014 0446     		mov	r4, r0
 1662              	.LVL177:
 207:Middlewares/lvgl/src/core/lv_obj_tree.c ****         parent->spec_attr->children[i] = parent->spec_attr->children[i + 1];
 1663              		.loc 1 207 5 view .LVU517
 1664 0016 07E0     		b	.L123
 1665              	.LVL178:
 1666              	.L124:
 208:Middlewares/lvgl/src/core/lv_obj_tree.c ****     }
 1667              		.loc 1 208 9 is_stmt 1 discriminator 3 view .LVU518
 208:Middlewares/lvgl/src/core/lv_obj_tree.c ****     }
 1668              		.loc 1 208 48 is_stmt 0 discriminator 3 view .LVU519
 1669 0018 AB68     		ldr	r3, [r5, #8]
 208:Middlewares/lvgl/src/core/lv_obj_tree.c ****     }
 1670              		.loc 1 208 59 discriminator 3 view .LVU520
 1671 001a 1968     		ldr	r1, [r3]
 208:Middlewares/lvgl/src/core/lv_obj_tree.c ****     }
 1672              		.loc 1 208 69 discriminator 3 view .LVU521
 1673 001c 631C     		adds	r3, r4, #1
 1674 001e 51F82320 		ldr	r2, [r1, r3, lsl #2]
 208:Middlewares/lvgl/src/core/lv_obj_tree.c ****     }
 1675              		.loc 1 208 40 discriminator 3 view .LVU522
 1676 0022 41F82420 		str	r2, [r1, r4, lsl #2]
 207:Middlewares/lvgl/src/core/lv_obj_tree.c ****         parent->spec_attr->children[i] = parent->spec_attr->children[i + 1];
 1677              		.loc 1 207 77 is_stmt 1 discriminator 3 view .LVU523
 1678              	.LVL179:
 207:Middlewares/lvgl/src/core/lv_obj_tree.c ****         parent->spec_attr->children[i] = parent->spec_attr->children[i + 1];
 1679              		.loc 1 207 78 is_stmt 0 discriminator 3 view .LVU524
 1680 0026 1C46     		mov	r4, r3
 1681              	.LVL180:
 1682              	.L123:
 207:Middlewares/lvgl/src/core/lv_obj_tree.c ****         parent->spec_attr->children[i] = parent->spec_attr->children[i + 1];
 1683              		.loc 1 207 39 is_stmt 1 discriminator 1 view .LVU525
 207:Middlewares/lvgl/src/core/lv_obj_tree.c ****         parent->spec_attr->children[i] = parent->spec_attr->children[i + 1];
 1684              		.loc 1 207 43 is_stmt 0 discriminator 1 view .LVU526
 1685 0028 2846     		mov	r0, r5
 1686 002a FFF7FEFF 		bl	lv_obj_get_child_cnt
 1687              	.LVL181:
 207:Middlewares/lvgl/src/core/lv_obj_tree.c ****         parent->spec_attr->children[i] = parent->spec_attr->children[i + 1];
 1688              		.loc 1 207 72 discriminator 1 view .LVU527
 1689 002e 431E     		subs	r3, r0, #1
 207:Middlewares/lvgl/src/core/lv_obj_tree.c ****         parent->spec_attr->children[i] = parent->spec_attr->children[i + 1];
ARM GAS  /tmp/ccdh8Ctk.s 			page 54


 1690              		.loc 1 207 5 discriminator 1 view .LVU528
 1691 0030 A342     		cmp	r3, r4
 1692 0032 F1D8     		bhi	.L124
 210:Middlewares/lvgl/src/core/lv_obj_tree.c **** 
 1693              		.loc 1 210 5 is_stmt 1 view .LVU529
 210:Middlewares/lvgl/src/core/lv_obj_tree.c **** 
 1694              		.loc 1 210 11 is_stmt 0 view .LVU530
 1695 0034 AB68     		ldr	r3, [r5, #8]
 210:Middlewares/lvgl/src/core/lv_obj_tree.c **** 
 1696              		.loc 1 210 22 view .LVU531
 1697 0036 1A68     		ldr	r2, [r3]
 210:Middlewares/lvgl/src/core/lv_obj_tree.c **** 
 1698              		.loc 1 210 32 view .LVU532
 1699 0038 00F18043 		add	r3, r0, #1073741824
 1700 003c 013B     		subs	r3, r3, #1
 210:Middlewares/lvgl/src/core/lv_obj_tree.c **** 
 1701              		.loc 1 210 67 view .LVU533
 1702 003e 42F82360 		str	r6, [r2, r3, lsl #2]
 213:Middlewares/lvgl/src/core/lv_obj_tree.c **** 
 1703              		.loc 1 213 5 is_stmt 1 view .LVU534
 1704 0042 3246     		mov	r2, r6
 1705 0044 2221     		movs	r1, #34
 1706 0046 2846     		mov	r0, r5
 1707 0048 FFF7FEFF 		bl	lv_event_send
 1708              	.LVL182:
 215:Middlewares/lvgl/src/core/lv_obj_tree.c **** }
 1709              		.loc 1 215 5 view .LVU535
 1710 004c 2846     		mov	r0, r5
 1711 004e FFF7FEFF 		bl	lv_obj_invalidate
 1712              	.LVL183:
 216:Middlewares/lvgl/src/core/lv_obj_tree.c **** 
 1713              		.loc 1 216 1 is_stmt 0 view .LVU536
 1714 0052 70BD     		pop	{r4, r5, r6, pc}
 216:Middlewares/lvgl/src/core/lv_obj_tree.c **** 
 1715              		.loc 1 216 1 view .LVU537
 1716              		.cfi_endproc
 1717              	.LFE153:
 1719              		.section	.text.lv_obj_move_background,"ax",%progbits
 1720              		.align	1
 1721              		.global	lv_obj_move_background
 1722              		.syntax unified
 1723              		.thumb
 1724              		.thumb_func
 1726              	lv_obj_move_background:
 1727              	.LVL184:
 1728              	.LFB154:
 219:Middlewares/lvgl/src/core/lv_obj_tree.c ****     LV_ASSERT_OBJ(obj, MY_CLASS);
 1729              		.loc 1 219 1 is_stmt 1 view -0
 1730              		.cfi_startproc
 1731              		@ args = 0, pretend = 0, frame = 0
 1732              		@ frame_needed = 0, uses_anonymous_args = 0
 219:Middlewares/lvgl/src/core/lv_obj_tree.c ****     LV_ASSERT_OBJ(obj, MY_CLASS);
 1733              		.loc 1 219 1 is_stmt 0 view .LVU539
 1734 0000 38B5     		push	{r3, r4, r5, lr}
 1735              	.LCFI19:
 1736              		.cfi_def_cfa_offset 16
 1737              		.cfi_offset 3, -16
ARM GAS  /tmp/ccdh8Ctk.s 			page 55


 1738              		.cfi_offset 4, -12
 1739              		.cfi_offset 5, -8
 1740              		.cfi_offset 14, -4
 1741 0002 0546     		mov	r5, r0
 220:Middlewares/lvgl/src/core/lv_obj_tree.c **** 
 1742              		.loc 1 220 5 is_stmt 1 view .LVU540
 220:Middlewares/lvgl/src/core/lv_obj_tree.c **** 
 1743              		.loc 1 220 5 view .LVU541
 220:Middlewares/lvgl/src/core/lv_obj_tree.c **** 
 1744              		.loc 1 220 5 view .LVU542
 222:Middlewares/lvgl/src/core/lv_obj_tree.c **** 
 1745              		.loc 1 222 5 view .LVU543
 222:Middlewares/lvgl/src/core/lv_obj_tree.c **** 
 1746              		.loc 1 222 25 is_stmt 0 view .LVU544
 1747 0004 FFF7FEFF 		bl	lv_obj_get_parent
 1748              	.LVL185:
 222:Middlewares/lvgl/src/core/lv_obj_tree.c **** 
 1749              		.loc 1 222 25 view .LVU545
 1750 0008 0446     		mov	r4, r0
 1751              	.LVL186:
 224:Middlewares/lvgl/src/core/lv_obj_tree.c **** 
 1752              		.loc 1 224 5 is_stmt 1 view .LVU546
 1753 000a FFF7FEFF 		bl	lv_obj_invalidate
 1754              	.LVL187:
 226:Middlewares/lvgl/src/core/lv_obj_tree.c ****     for(i = lv_obj_get_child_id(obj); i > 0; i--) {
 1755              		.loc 1 226 5 view .LVU547
 227:Middlewares/lvgl/src/core/lv_obj_tree.c ****         parent->spec_attr->children[i] = parent->spec_attr->children[i-1];
 1756              		.loc 1 227 5 view .LVU548
 227:Middlewares/lvgl/src/core/lv_obj_tree.c ****         parent->spec_attr->children[i] = parent->spec_attr->children[i-1];
 1757              		.loc 1 227 13 is_stmt 0 view .LVU549
 1758 000e 2846     		mov	r0, r5
 1759 0010 FFF7FEFF 		bl	lv_obj_get_child_id
 1760              	.LVL188:
 227:Middlewares/lvgl/src/core/lv_obj_tree.c ****         parent->spec_attr->children[i] = parent->spec_attr->children[i-1];
 1761              		.loc 1 227 5 view .LVU550
 1762 0014 09E0     		b	.L127
 1763              	.L128:
 228:Middlewares/lvgl/src/core/lv_obj_tree.c ****     }
 1764              		.loc 1 228 9 is_stmt 1 discriminator 3 view .LVU551
 228:Middlewares/lvgl/src/core/lv_obj_tree.c ****     }
 1765              		.loc 1 228 48 is_stmt 0 discriminator 3 view .LVU552
 1766 0016 A368     		ldr	r3, [r4, #8]
 228:Middlewares/lvgl/src/core/lv_obj_tree.c ****     }
 1767              		.loc 1 228 59 discriminator 3 view .LVU553
 1768 0018 1968     		ldr	r1, [r3]
 228:Middlewares/lvgl/src/core/lv_obj_tree.c ****     }
 1769              		.loc 1 228 69 discriminator 3 view .LVU554
 1770 001a 00F18043 		add	r3, r0, #1073741824
 1771 001e 013B     		subs	r3, r3, #1
 1772 0020 51F82330 		ldr	r3, [r1, r3, lsl #2]
 228:Middlewares/lvgl/src/core/lv_obj_tree.c ****     }
 1773              		.loc 1 228 40 discriminator 3 view .LVU555
 1774 0024 41F82030 		str	r3, [r1, r0, lsl #2]
 227:Middlewares/lvgl/src/core/lv_obj_tree.c ****         parent->spec_attr->children[i] = parent->spec_attr->children[i-1];
 1775              		.loc 1 227 46 is_stmt 1 discriminator 3 view .LVU556
 227:Middlewares/lvgl/src/core/lv_obj_tree.c ****         parent->spec_attr->children[i] = parent->spec_attr->children[i-1];
 1776              		.loc 1 227 47 is_stmt 0 discriminator 3 view .LVU557
ARM GAS  /tmp/ccdh8Ctk.s 			page 56


 1777 0028 0138     		subs	r0, r0, #1
 1778              	.LVL189:
 1779              	.L127:
 227:Middlewares/lvgl/src/core/lv_obj_tree.c ****         parent->spec_attr->children[i] = parent->spec_attr->children[i-1];
 1780              		.loc 1 227 39 is_stmt 1 discriminator 1 view .LVU558
 227:Middlewares/lvgl/src/core/lv_obj_tree.c ****         parent->spec_attr->children[i] = parent->spec_attr->children[i-1];
 1781              		.loc 1 227 5 is_stmt 0 discriminator 1 view .LVU559
 1782 002a 0028     		cmp	r0, #0
 1783 002c F3DC     		bgt	.L128
 230:Middlewares/lvgl/src/core/lv_obj_tree.c **** 
 1784              		.loc 1 230 5 is_stmt 1 view .LVU560
 230:Middlewares/lvgl/src/core/lv_obj_tree.c **** 
 1785              		.loc 1 230 11 is_stmt 0 view .LVU561
 1786 002e A368     		ldr	r3, [r4, #8]
 230:Middlewares/lvgl/src/core/lv_obj_tree.c **** 
 1787              		.loc 1 230 22 view .LVU562
 1788 0030 1B68     		ldr	r3, [r3]
 230:Middlewares/lvgl/src/core/lv_obj_tree.c **** 
 1789              		.loc 1 230 36 view .LVU563
 1790 0032 1D60     		str	r5, [r3]
 233:Middlewares/lvgl/src/core/lv_obj_tree.c **** 
 1791              		.loc 1 233 5 is_stmt 1 view .LVU564
 1792 0034 2A46     		mov	r2, r5
 1793 0036 2221     		movs	r1, #34
 1794 0038 2046     		mov	r0, r4
 1795              	.LVL190:
 233:Middlewares/lvgl/src/core/lv_obj_tree.c **** 
 1796              		.loc 1 233 5 is_stmt 0 view .LVU565
 1797 003a FFF7FEFF 		bl	lv_event_send
 1798              	.LVL191:
 235:Middlewares/lvgl/src/core/lv_obj_tree.c **** }
 1799              		.loc 1 235 5 is_stmt 1 view .LVU566
 1800 003e 2046     		mov	r0, r4
 1801 0040 FFF7FEFF 		bl	lv_obj_invalidate
 1802              	.LVL192:
 236:Middlewares/lvgl/src/core/lv_obj_tree.c **** 
 1803              		.loc 1 236 1 is_stmt 0 view .LVU567
 1804 0044 38BD     		pop	{r3, r4, r5, pc}
 236:Middlewares/lvgl/src/core/lv_obj_tree.c **** 
 1805              		.loc 1 236 1 view .LVU568
 1806              		.cfi_endproc
 1807              	.LFE154:
 1809              		.section	.text.lv_obj_tree_walk,"ax",%progbits
 1810              		.align	1
 1811              		.global	lv_obj_tree_walk
 1812              		.syntax unified
 1813              		.thumb
 1814              		.thumb_func
 1816              	lv_obj_tree_walk:
 1817              	.LVL193:
 1818              	.LFB161:
 325:Middlewares/lvgl/src/core/lv_obj_tree.c ****     walk_core(start_obj, cb, user_data);
 1819              		.loc 1 325 1 is_stmt 1 view -0
 1820              		.cfi_startproc
 1821              		@ args = 0, pretend = 0, frame = 0
 1822              		@ frame_needed = 0, uses_anonymous_args = 0
 325:Middlewares/lvgl/src/core/lv_obj_tree.c ****     walk_core(start_obj, cb, user_data);
ARM GAS  /tmp/ccdh8Ctk.s 			page 57


 1823              		.loc 1 325 1 is_stmt 0 view .LVU570
 1824 0000 08B5     		push	{r3, lr}
 1825              	.LCFI20:
 1826              		.cfi_def_cfa_offset 8
 1827              		.cfi_offset 3, -8
 1828              		.cfi_offset 14, -4
 326:Middlewares/lvgl/src/core/lv_obj_tree.c **** }
 1829              		.loc 1 326 5 is_stmt 1 view .LVU571
 1830 0002 FFF7FEFF 		bl	walk_core
 1831              	.LVL194:
 327:Middlewares/lvgl/src/core/lv_obj_tree.c **** 
 1832              		.loc 1 327 1 is_stmt 0 view .LVU572
 1833 0006 08BD     		pop	{r3, pc}
 1834              		.cfi_endproc
 1835              	.LFE161:
 1837              		.text
 1838              	.Letext0:
 1839              		.file 5 "/home/akinya/gcc-arm-none-eabi/arm-none-eabi/include/machine/_default_types.h"
 1840              		.file 6 "/home/akinya/gcc-arm-none-eabi/arm-none-eabi/include/sys/_stdint.h"
 1841              		.file 7 "Middlewares/lvgl/src/core/../misc/../font/../misc/lv_area.h"
 1842              		.file 8 "Middlewares/lvgl/src/core/../misc/lv_types.h"
 1843              		.file 9 "Middlewares/lvgl/src/core/../misc/lv_color.h"
 1844              		.file 10 "Middlewares/lvgl/src/core/../misc/lv_bidi.h"
 1845              		.file 11 "Middlewares/lvgl/src/core/../misc/lv_style.h"
 1846              		.file 12 "Middlewares/lvgl/src/core/../hal/../misc/lv_ll.h"
 1847              		.file 13 "Middlewares/lvgl/src/core/../hal/../misc/lv_timer.h"
 1848              		.file 14 "Middlewares/lvgl/src/core/../hal/lv_hal_disp.h"
 1849              		.file 15 "Middlewares/lvgl/src/core/lv_obj.h"
 1850              		.file 16 "Middlewares/lvgl/src/core/../hal/lv_hal_indev.h"
 1851              		.file 17 "Middlewares/lvgl/src/core/lv_group.h"
 1852              		.file 18 "Middlewares/lvgl/src/core/lv_obj_tree.h"
 1853              		.file 19 "Middlewares/lvgl/src/core/lv_obj_scroll.h"
 1854              		.file 20 "Middlewares/lvgl/src/core/lv_obj_class.h"
 1855              		.file 21 "Middlewares/lvgl/src/core/lv_event.h"
 1856              		.file 22 "Middlewares/lvgl/src/core/../misc/lv_gc.h"
 1857              		.file 23 "Middlewares/lvgl/src/core/../hal/../misc/lv_mem.h"
 1858              		.file 24 "Middlewares/lvgl/src/core/lv_indev.h"
 1859              		.file 25 "Middlewares/lvgl/src/core/lv_obj_pos.h"
 1860              		.file 26 "Middlewares/lvgl/src/core/../misc/lv_async.h"
ARM GAS  /tmp/ccdh8Ctk.s 			page 58

