ARM GAS  /tmp/cc7kjK8u.s 			page 1


   1              		.cpu cortex-m4
   2              		.arch armv7e-m
   3              		.fpu fpv4-sp-d16
   4              		.eabi_attribute 27, 1
   5              		.eabi_attribute 28, 1
   6              		.eabi_attribute 20, 1
   7              		.eabi_attribute 21, 1
   8              		.eabi_attribute 23, 3
   9              		.eabi_attribute 24, 1
  10              		.eabi_attribute 25, 1
  11              		.eabi_attribute 26, 1
  12              		.eabi_attribute 30, 1
  13              		.eabi_attribute 34, 1
  14              		.eabi_attribute 18, 4
  15              		.file	"lv_obj_style.c"
  16              		.text
  17              	.Ltext0:
  18              		.cfi_sections	.debug_frame
  19              		.section	.text.trans_del,"ax",%progbits
  20              		.align	1
  21              		.syntax unified
  22              		.thumb
  23              		.thumb_func
  25              	trans_del:
  26              	.LVL0:
  27              	.LFB175:
  28              		.file 1 "Middlewares/lvgl/src/core/lv_obj_style.c"
   1:Middlewares/lvgl/src/core/lv_obj_style.c **** /**
   2:Middlewares/lvgl/src/core/lv_obj_style.c ****  * @file lv_obj_style.c
   3:Middlewares/lvgl/src/core/lv_obj_style.c ****  *
   4:Middlewares/lvgl/src/core/lv_obj_style.c ****  */
   5:Middlewares/lvgl/src/core/lv_obj_style.c **** 
   6:Middlewares/lvgl/src/core/lv_obj_style.c **** /*********************
   7:Middlewares/lvgl/src/core/lv_obj_style.c ****  *      INCLUDES
   8:Middlewares/lvgl/src/core/lv_obj_style.c ****  *********************/
   9:Middlewares/lvgl/src/core/lv_obj_style.c **** #include "lv_obj.h"
  10:Middlewares/lvgl/src/core/lv_obj_style.c **** #include "lv_disp.h"
  11:Middlewares/lvgl/src/core/lv_obj_style.c **** #include "../misc/lv_gc.h"
  12:Middlewares/lvgl/src/core/lv_obj_style.c **** 
  13:Middlewares/lvgl/src/core/lv_obj_style.c **** /*********************
  14:Middlewares/lvgl/src/core/lv_obj_style.c ****  *      DEFINES
  15:Middlewares/lvgl/src/core/lv_obj_style.c ****  *********************/
  16:Middlewares/lvgl/src/core/lv_obj_style.c **** #define MY_CLASS &lv_obj_class
  17:Middlewares/lvgl/src/core/lv_obj_style.c **** 
  18:Middlewares/lvgl/src/core/lv_obj_style.c **** /**********************
  19:Middlewares/lvgl/src/core/lv_obj_style.c ****  *      TYPEDEFS
  20:Middlewares/lvgl/src/core/lv_obj_style.c ****  **********************/
  21:Middlewares/lvgl/src/core/lv_obj_style.c **** 
  22:Middlewares/lvgl/src/core/lv_obj_style.c **** typedef struct {
  23:Middlewares/lvgl/src/core/lv_obj_style.c ****     lv_obj_t * obj;
  24:Middlewares/lvgl/src/core/lv_obj_style.c ****     lv_style_prop_t prop;
  25:Middlewares/lvgl/src/core/lv_obj_style.c ****     lv_style_selector_t selector;
  26:Middlewares/lvgl/src/core/lv_obj_style.c ****     lv_style_value_t start_value;
  27:Middlewares/lvgl/src/core/lv_obj_style.c ****     lv_style_value_t end_value;
  28:Middlewares/lvgl/src/core/lv_obj_style.c **** } trans_t;
  29:Middlewares/lvgl/src/core/lv_obj_style.c **** 
  30:Middlewares/lvgl/src/core/lv_obj_style.c **** typedef enum {
ARM GAS  /tmp/cc7kjK8u.s 			page 2


  31:Middlewares/lvgl/src/core/lv_obj_style.c ****     CACHE_ZERO = 0,
  32:Middlewares/lvgl/src/core/lv_obj_style.c ****     CACHE_TRUE = 1,
  33:Middlewares/lvgl/src/core/lv_obj_style.c ****     CACHE_UNSET = 2,
  34:Middlewares/lvgl/src/core/lv_obj_style.c ****     CACHE_255 = 3,
  35:Middlewares/lvgl/src/core/lv_obj_style.c ****     CACHE_NEED_CHECK = 4,
  36:Middlewares/lvgl/src/core/lv_obj_style.c **** }cache_t;
  37:Middlewares/lvgl/src/core/lv_obj_style.c **** 
  38:Middlewares/lvgl/src/core/lv_obj_style.c **** /**********************
  39:Middlewares/lvgl/src/core/lv_obj_style.c ****  *  GLOBAL PROTOTYPES
  40:Middlewares/lvgl/src/core/lv_obj_style.c ****  **********************/
  41:Middlewares/lvgl/src/core/lv_obj_style.c **** 
  42:Middlewares/lvgl/src/core/lv_obj_style.c **** /**********************
  43:Middlewares/lvgl/src/core/lv_obj_style.c ****  *  STATIC PROTOTYPES
  44:Middlewares/lvgl/src/core/lv_obj_style.c ****  **********************/
  45:Middlewares/lvgl/src/core/lv_obj_style.c **** static lv_style_t * get_local_style(lv_obj_t * obj, lv_style_selector_t selector);
  46:Middlewares/lvgl/src/core/lv_obj_style.c **** static _lv_obj_style_t * get_trans_style(lv_obj_t * obj, uint32_t part);
  47:Middlewares/lvgl/src/core/lv_obj_style.c **** static bool get_prop_core(const lv_obj_t * obj, lv_part_t part, lv_style_prop_t prop, lv_style_valu
  48:Middlewares/lvgl/src/core/lv_obj_style.c **** static lv_style_value_t apply_color_filter(const lv_obj_t * obj, uint32_t part, lv_style_value_t v)
  49:Middlewares/lvgl/src/core/lv_obj_style.c **** static void report_style_change_core(void * style, lv_obj_t * obj);
  50:Middlewares/lvgl/src/core/lv_obj_style.c **** static void refresh_children_style(lv_obj_t * obj);
  51:Middlewares/lvgl/src/core/lv_obj_style.c **** static bool trans_del(lv_obj_t * obj, lv_part_t part, lv_style_prop_t prop, trans_t * tr_limit);
  52:Middlewares/lvgl/src/core/lv_obj_style.c **** static void trans_anim_cb(void * _tr, int32_t v);
  53:Middlewares/lvgl/src/core/lv_obj_style.c **** static void trans_anim_start_cb(lv_anim_t * a);
  54:Middlewares/lvgl/src/core/lv_obj_style.c **** static void trans_anim_ready_cb(lv_anim_t * a);
  55:Middlewares/lvgl/src/core/lv_obj_style.c **** static void fade_anim_cb(void * obj, int32_t v);
  56:Middlewares/lvgl/src/core/lv_obj_style.c **** static void fade_in_anim_ready(lv_anim_t * a);
  57:Middlewares/lvgl/src/core/lv_obj_style.c **** 
  58:Middlewares/lvgl/src/core/lv_obj_style.c **** /**********************
  59:Middlewares/lvgl/src/core/lv_obj_style.c ****  *  STATIC VARIABLES
  60:Middlewares/lvgl/src/core/lv_obj_style.c ****  **********************/
  61:Middlewares/lvgl/src/core/lv_obj_style.c **** static bool style_refr = true;
  62:Middlewares/lvgl/src/core/lv_obj_style.c **** 
  63:Middlewares/lvgl/src/core/lv_obj_style.c **** /**********************
  64:Middlewares/lvgl/src/core/lv_obj_style.c ****  *      MACROS
  65:Middlewares/lvgl/src/core/lv_obj_style.c ****  **********************/
  66:Middlewares/lvgl/src/core/lv_obj_style.c **** 
  67:Middlewares/lvgl/src/core/lv_obj_style.c **** /**********************
  68:Middlewares/lvgl/src/core/lv_obj_style.c ****  *   GLOBAL FUNCTIONS
  69:Middlewares/lvgl/src/core/lv_obj_style.c ****  **********************/
  70:Middlewares/lvgl/src/core/lv_obj_style.c **** 
  71:Middlewares/lvgl/src/core/lv_obj_style.c **** void _lv_obj_style_init(void)
  72:Middlewares/lvgl/src/core/lv_obj_style.c **** {
  73:Middlewares/lvgl/src/core/lv_obj_style.c ****     _lv_ll_init(&LV_GC_ROOT(_lv_obj_style_trans_ll), sizeof(trans_t));
  74:Middlewares/lvgl/src/core/lv_obj_style.c **** }
  75:Middlewares/lvgl/src/core/lv_obj_style.c **** 
  76:Middlewares/lvgl/src/core/lv_obj_style.c **** void lv_obj_add_style(lv_obj_t * obj, lv_style_t * style, lv_style_selector_t selector)
  77:Middlewares/lvgl/src/core/lv_obj_style.c **** {
  78:Middlewares/lvgl/src/core/lv_obj_style.c ****     trans_del(obj, selector, LV_STYLE_PROP_ANY, NULL);
  79:Middlewares/lvgl/src/core/lv_obj_style.c **** 
  80:Middlewares/lvgl/src/core/lv_obj_style.c ****     uint32_t i;
  81:Middlewares/lvgl/src/core/lv_obj_style.c ****     /*Go after the transition and local styles*/
  82:Middlewares/lvgl/src/core/lv_obj_style.c ****     for(i = 0; i < obj->style_cnt; i++) {
  83:Middlewares/lvgl/src/core/lv_obj_style.c ****         if(obj->styles[i].is_trans) continue;
  84:Middlewares/lvgl/src/core/lv_obj_style.c ****         if(obj->styles[i].is_local) continue;
  85:Middlewares/lvgl/src/core/lv_obj_style.c ****         break;
  86:Middlewares/lvgl/src/core/lv_obj_style.c ****     }
  87:Middlewares/lvgl/src/core/lv_obj_style.c **** 
ARM GAS  /tmp/cc7kjK8u.s 			page 3


  88:Middlewares/lvgl/src/core/lv_obj_style.c ****     /*Now `i` is at the first normal style. Insert the new style before this*/
  89:Middlewares/lvgl/src/core/lv_obj_style.c **** 
  90:Middlewares/lvgl/src/core/lv_obj_style.c ****     /*Allocate space for the new style and shift the rest of the style to the end*/
  91:Middlewares/lvgl/src/core/lv_obj_style.c ****     obj->style_cnt++;
  92:Middlewares/lvgl/src/core/lv_obj_style.c ****     obj->styles = lv_mem_realloc(obj->styles, obj->style_cnt * sizeof(_lv_obj_style_t));
  93:Middlewares/lvgl/src/core/lv_obj_style.c **** 
  94:Middlewares/lvgl/src/core/lv_obj_style.c ****     uint32_t j;
  95:Middlewares/lvgl/src/core/lv_obj_style.c ****     for(j = obj->style_cnt - 1; j > i ; j--) {
  96:Middlewares/lvgl/src/core/lv_obj_style.c ****         obj->styles[j] = obj->styles[j - 1];
  97:Middlewares/lvgl/src/core/lv_obj_style.c ****     }
  98:Middlewares/lvgl/src/core/lv_obj_style.c **** 
  99:Middlewares/lvgl/src/core/lv_obj_style.c ****     lv_memset_00(&obj->styles[i], sizeof(_lv_obj_style_t));
 100:Middlewares/lvgl/src/core/lv_obj_style.c ****     obj->styles[i].style = style;
 101:Middlewares/lvgl/src/core/lv_obj_style.c ****     obj->styles[i].selector = selector;
 102:Middlewares/lvgl/src/core/lv_obj_style.c **** 
 103:Middlewares/lvgl/src/core/lv_obj_style.c ****     lv_obj_refresh_style(obj, selector, LV_STYLE_PROP_ANY);
 104:Middlewares/lvgl/src/core/lv_obj_style.c **** }
 105:Middlewares/lvgl/src/core/lv_obj_style.c **** 
 106:Middlewares/lvgl/src/core/lv_obj_style.c **** void lv_obj_remove_style(lv_obj_t * obj, lv_style_t * style, lv_style_selector_t selector)
 107:Middlewares/lvgl/src/core/lv_obj_style.c **** {
 108:Middlewares/lvgl/src/core/lv_obj_style.c ****     lv_state_t state = lv_obj_style_get_selector_state(selector);
 109:Middlewares/lvgl/src/core/lv_obj_style.c ****     lv_part_t part = lv_obj_style_get_selector_part(selector);
 110:Middlewares/lvgl/src/core/lv_obj_style.c ****     lv_style_prop_t prop = LV_STYLE_PROP_ANY;
 111:Middlewares/lvgl/src/core/lv_obj_style.c ****     if(style && style->prop_cnt == 0) prop = LV_STYLE_PROP_INV;
 112:Middlewares/lvgl/src/core/lv_obj_style.c **** 
 113:Middlewares/lvgl/src/core/lv_obj_style.c ****     uint32_t i = 0;
 114:Middlewares/lvgl/src/core/lv_obj_style.c ****     bool deleted = false;
 115:Middlewares/lvgl/src/core/lv_obj_style.c ****     while(i <  obj->style_cnt) {
 116:Middlewares/lvgl/src/core/lv_obj_style.c ****         lv_state_t state_act = lv_obj_style_get_selector_state(obj->styles[i].selector);
 117:Middlewares/lvgl/src/core/lv_obj_style.c ****         lv_part_t part_act = lv_obj_style_get_selector_part(obj->styles[i].selector);
 118:Middlewares/lvgl/src/core/lv_obj_style.c ****         if((state != LV_STATE_ANY && state_act != state) ||
 119:Middlewares/lvgl/src/core/lv_obj_style.c ****            (part != LV_PART_ANY && part_act != part) ||
 120:Middlewares/lvgl/src/core/lv_obj_style.c ****            (style != NULL && style != obj->styles[i].style))
 121:Middlewares/lvgl/src/core/lv_obj_style.c ****         {
 122:Middlewares/lvgl/src/core/lv_obj_style.c ****             i++;
 123:Middlewares/lvgl/src/core/lv_obj_style.c ****             continue;
 124:Middlewares/lvgl/src/core/lv_obj_style.c ****         }
 125:Middlewares/lvgl/src/core/lv_obj_style.c **** 
 126:Middlewares/lvgl/src/core/lv_obj_style.c ****         if(obj->styles[i].is_trans) {
 127:Middlewares/lvgl/src/core/lv_obj_style.c ****             trans_del(obj, part, LV_STYLE_PROP_ANY, NULL);
 128:Middlewares/lvgl/src/core/lv_obj_style.c ****         }
 129:Middlewares/lvgl/src/core/lv_obj_style.c **** 
 130:Middlewares/lvgl/src/core/lv_obj_style.c ****         if(obj->styles[i].is_local || obj->styles[i].is_trans) {
 131:Middlewares/lvgl/src/core/lv_obj_style.c ****             lv_style_reset(obj->styles[i].style);
 132:Middlewares/lvgl/src/core/lv_obj_style.c ****             lv_mem_free(obj->styles[i].style);
 133:Middlewares/lvgl/src/core/lv_obj_style.c ****             obj->styles[i].style = NULL;
 134:Middlewares/lvgl/src/core/lv_obj_style.c ****         }
 135:Middlewares/lvgl/src/core/lv_obj_style.c **** 
 136:Middlewares/lvgl/src/core/lv_obj_style.c ****         /*Shift the styles after `i` by one*/
 137:Middlewares/lvgl/src/core/lv_obj_style.c ****         uint32_t j;
 138:Middlewares/lvgl/src/core/lv_obj_style.c ****         for(j = i; j < (uint32_t)obj->style_cnt - 1 ; j++) {
 139:Middlewares/lvgl/src/core/lv_obj_style.c ****             obj->styles[j] = obj->styles[j + 1];
 140:Middlewares/lvgl/src/core/lv_obj_style.c ****         }
 141:Middlewares/lvgl/src/core/lv_obj_style.c **** 
 142:Middlewares/lvgl/src/core/lv_obj_style.c ****         obj->style_cnt--;
 143:Middlewares/lvgl/src/core/lv_obj_style.c ****         obj->styles = lv_mem_realloc(obj->styles, obj->style_cnt * sizeof(_lv_obj_style_t));
 144:Middlewares/lvgl/src/core/lv_obj_style.c **** 
ARM GAS  /tmp/cc7kjK8u.s 			page 4


 145:Middlewares/lvgl/src/core/lv_obj_style.c ****         deleted = true;
 146:Middlewares/lvgl/src/core/lv_obj_style.c ****         /*The style from the current `i` index is removed, so `i` points to the next style.
 147:Middlewares/lvgl/src/core/lv_obj_style.c ****          *Therefore it doesn't needs to be incremented*/
 148:Middlewares/lvgl/src/core/lv_obj_style.c ****     }
 149:Middlewares/lvgl/src/core/lv_obj_style.c ****     if(deleted && prop != LV_STYLE_PROP_INV) {
 150:Middlewares/lvgl/src/core/lv_obj_style.c ****         lv_obj_refresh_style(obj, part, prop);
 151:Middlewares/lvgl/src/core/lv_obj_style.c ****     }
 152:Middlewares/lvgl/src/core/lv_obj_style.c **** }
 153:Middlewares/lvgl/src/core/lv_obj_style.c **** 
 154:Middlewares/lvgl/src/core/lv_obj_style.c **** void lv_obj_report_style_change(lv_style_t * style)
 155:Middlewares/lvgl/src/core/lv_obj_style.c **** {
 156:Middlewares/lvgl/src/core/lv_obj_style.c ****     if(!style_refr) return;
 157:Middlewares/lvgl/src/core/lv_obj_style.c ****     lv_disp_t * d = lv_disp_get_next(NULL);
 158:Middlewares/lvgl/src/core/lv_obj_style.c **** 
 159:Middlewares/lvgl/src/core/lv_obj_style.c ****     while(d) {
 160:Middlewares/lvgl/src/core/lv_obj_style.c ****         uint32_t i;
 161:Middlewares/lvgl/src/core/lv_obj_style.c ****         for(i = 0; i < d->screen_cnt; i++) {
 162:Middlewares/lvgl/src/core/lv_obj_style.c ****             report_style_change_core(style, d->screens[i]);
 163:Middlewares/lvgl/src/core/lv_obj_style.c ****         }
 164:Middlewares/lvgl/src/core/lv_obj_style.c ****         d = lv_disp_get_next(d);
 165:Middlewares/lvgl/src/core/lv_obj_style.c ****     }
 166:Middlewares/lvgl/src/core/lv_obj_style.c **** }
 167:Middlewares/lvgl/src/core/lv_obj_style.c **** 
 168:Middlewares/lvgl/src/core/lv_obj_style.c **** void lv_obj_refresh_style(lv_obj_t * obj, lv_style_selector_t selector, lv_style_prop_t prop)
 169:Middlewares/lvgl/src/core/lv_obj_style.c **** {
 170:Middlewares/lvgl/src/core/lv_obj_style.c ****     LV_ASSERT_OBJ(obj, MY_CLASS);
 171:Middlewares/lvgl/src/core/lv_obj_style.c **** 
 172:Middlewares/lvgl/src/core/lv_obj_style.c ****     if(!style_refr) return;
 173:Middlewares/lvgl/src/core/lv_obj_style.c **** 
 174:Middlewares/lvgl/src/core/lv_obj_style.c ****     lv_obj_invalidate(obj);
 175:Middlewares/lvgl/src/core/lv_obj_style.c **** 
 176:Middlewares/lvgl/src/core/lv_obj_style.c ****     lv_part_t part = lv_obj_style_get_selector_part(selector);
 177:Middlewares/lvgl/src/core/lv_obj_style.c **** 
 178:Middlewares/lvgl/src/core/lv_obj_style.c ****     if((part == LV_PART_ANY || part == LV_PART_MAIN) && (prop == LV_STYLE_PROP_ANY || (prop & LV_ST
 179:Middlewares/lvgl/src/core/lv_obj_style.c ****         lv_event_send(obj, LV_EVENT_STYLE_CHANGED, NULL);
 180:Middlewares/lvgl/src/core/lv_obj_style.c ****         lv_obj_mark_layout_as_dirty(obj);
 181:Middlewares/lvgl/src/core/lv_obj_style.c ****     }
 182:Middlewares/lvgl/src/core/lv_obj_style.c ****     if((part == LV_PART_ANY || part == LV_PART_MAIN) && (prop == LV_STYLE_PROP_ANY || (prop & LV_ST
 183:Middlewares/lvgl/src/core/lv_obj_style.c ****         lv_obj_t * parent = lv_obj_get_parent(obj);
 184:Middlewares/lvgl/src/core/lv_obj_style.c ****         if(parent) lv_obj_mark_layout_as_dirty(parent);
 185:Middlewares/lvgl/src/core/lv_obj_style.c ****     }
 186:Middlewares/lvgl/src/core/lv_obj_style.c **** 
 187:Middlewares/lvgl/src/core/lv_obj_style.c ****     if(prop == LV_STYLE_PROP_ANY || (prop & LV_STYLE_PROP_EXT_DRAW)) {
 188:Middlewares/lvgl/src/core/lv_obj_style.c ****         lv_obj_refresh_ext_draw_size(obj);
 189:Middlewares/lvgl/src/core/lv_obj_style.c ****     }
 190:Middlewares/lvgl/src/core/lv_obj_style.c ****     lv_obj_invalidate(obj);
 191:Middlewares/lvgl/src/core/lv_obj_style.c **** 
 192:Middlewares/lvgl/src/core/lv_obj_style.c ****     if(prop == LV_STYLE_PROP_ANY ||
 193:Middlewares/lvgl/src/core/lv_obj_style.c ****       ((prop & LV_STYLE_PROP_INHERIT) && ((prop & LV_STYLE_PROP_EXT_DRAW) || (prop & LV_STYLE_PROP_
 194:Middlewares/lvgl/src/core/lv_obj_style.c ****     {
 195:Middlewares/lvgl/src/core/lv_obj_style.c ****         if(part != LV_PART_SCROLLBAR) {
 196:Middlewares/lvgl/src/core/lv_obj_style.c ****             refresh_children_style(obj);
 197:Middlewares/lvgl/src/core/lv_obj_style.c ****         }
 198:Middlewares/lvgl/src/core/lv_obj_style.c ****     }
 199:Middlewares/lvgl/src/core/lv_obj_style.c **** }
 200:Middlewares/lvgl/src/core/lv_obj_style.c **** 
 201:Middlewares/lvgl/src/core/lv_obj_style.c **** void lv_obj_enable_style_refresh(bool en)
ARM GAS  /tmp/cc7kjK8u.s 			page 5


 202:Middlewares/lvgl/src/core/lv_obj_style.c **** {
 203:Middlewares/lvgl/src/core/lv_obj_style.c ****     style_refr = en;
 204:Middlewares/lvgl/src/core/lv_obj_style.c **** }
 205:Middlewares/lvgl/src/core/lv_obj_style.c **** 
 206:Middlewares/lvgl/src/core/lv_obj_style.c **** lv_style_value_t lv_obj_get_style_prop(const lv_obj_t * obj, lv_part_t part, lv_style_prop_t prop)
 207:Middlewares/lvgl/src/core/lv_obj_style.c **** {
 208:Middlewares/lvgl/src/core/lv_obj_style.c ****     lv_style_value_t value_act;
 209:Middlewares/lvgl/src/core/lv_obj_style.c ****     bool inherit = prop & LV_STYLE_PROP_INHERIT ? true : false;
 210:Middlewares/lvgl/src/core/lv_obj_style.c ****     bool filter = prop & LV_STYLE_PROP_FILTER ? true : false;
 211:Middlewares/lvgl/src/core/lv_obj_style.c ****     if(filter) {
 212:Middlewares/lvgl/src/core/lv_obj_style.c ****         prop &= ~LV_STYLE_PROP_FILTER;
 213:Middlewares/lvgl/src/core/lv_obj_style.c ****     }
 214:Middlewares/lvgl/src/core/lv_obj_style.c ****     bool found = false;
 215:Middlewares/lvgl/src/core/lv_obj_style.c ****     while(obj) {
 216:Middlewares/lvgl/src/core/lv_obj_style.c ****         found = get_prop_core(obj, part, prop, &value_act);
 217:Middlewares/lvgl/src/core/lv_obj_style.c ****         if(found) break;
 218:Middlewares/lvgl/src/core/lv_obj_style.c ****         if(!inherit) break;
 219:Middlewares/lvgl/src/core/lv_obj_style.c **** 
 220:Middlewares/lvgl/src/core/lv_obj_style.c ****         /*If not found, check the `MAIN` style first*/
 221:Middlewares/lvgl/src/core/lv_obj_style.c ****         if(part != LV_PART_MAIN) {
 222:Middlewares/lvgl/src/core/lv_obj_style.c ****             part = LV_PART_MAIN;
 223:Middlewares/lvgl/src/core/lv_obj_style.c ****             continue;
 224:Middlewares/lvgl/src/core/lv_obj_style.c ****         }
 225:Middlewares/lvgl/src/core/lv_obj_style.c **** 
 226:Middlewares/lvgl/src/core/lv_obj_style.c ****         /*Check the parent too.*/
 227:Middlewares/lvgl/src/core/lv_obj_style.c ****         obj = lv_obj_get_parent(obj);
 228:Middlewares/lvgl/src/core/lv_obj_style.c ****     }
 229:Middlewares/lvgl/src/core/lv_obj_style.c **** 
 230:Middlewares/lvgl/src/core/lv_obj_style.c ****     if(!found) {
 231:Middlewares/lvgl/src/core/lv_obj_style.c ****         if(part == LV_PART_MAIN && (prop == LV_STYLE_WIDTH || prop == LV_STYLE_HEIGHT)) {
 232:Middlewares/lvgl/src/core/lv_obj_style.c ****             const lv_obj_class_t * cls = obj->class_p;
 233:Middlewares/lvgl/src/core/lv_obj_style.c ****             while(cls) {
 234:Middlewares/lvgl/src/core/lv_obj_style.c ****                 if(prop == LV_STYLE_WIDTH) {
 235:Middlewares/lvgl/src/core/lv_obj_style.c ****                     if(cls->width_def != 0) break;
 236:Middlewares/lvgl/src/core/lv_obj_style.c ****                 } else {
 237:Middlewares/lvgl/src/core/lv_obj_style.c ****                     if(cls->height_def != 0) break;
 238:Middlewares/lvgl/src/core/lv_obj_style.c ****                 }
 239:Middlewares/lvgl/src/core/lv_obj_style.c ****                 cls = cls->base_class;
 240:Middlewares/lvgl/src/core/lv_obj_style.c ****             }
 241:Middlewares/lvgl/src/core/lv_obj_style.c **** 
 242:Middlewares/lvgl/src/core/lv_obj_style.c ****             value_act.num = prop == LV_STYLE_WIDTH ? cls->width_def : cls->height_def;
 243:Middlewares/lvgl/src/core/lv_obj_style.c ****         } else {
 244:Middlewares/lvgl/src/core/lv_obj_style.c ****             value_act = lv_style_prop_get_default(prop);
 245:Middlewares/lvgl/src/core/lv_obj_style.c ****         }
 246:Middlewares/lvgl/src/core/lv_obj_style.c ****     }
 247:Middlewares/lvgl/src/core/lv_obj_style.c ****     if(filter) value_act = apply_color_filter(obj, part, value_act);
 248:Middlewares/lvgl/src/core/lv_obj_style.c ****     return value_act;
 249:Middlewares/lvgl/src/core/lv_obj_style.c **** }
 250:Middlewares/lvgl/src/core/lv_obj_style.c **** 
 251:Middlewares/lvgl/src/core/lv_obj_style.c **** void lv_obj_set_local_style_prop(lv_obj_t * obj, lv_style_prop_t prop, lv_style_value_t value, lv_s
 252:Middlewares/lvgl/src/core/lv_obj_style.c **** {
 253:Middlewares/lvgl/src/core/lv_obj_style.c ****     lv_style_t * style = get_local_style(obj, selector);
 254:Middlewares/lvgl/src/core/lv_obj_style.c ****     lv_style_set_prop(style, prop, value);
 255:Middlewares/lvgl/src/core/lv_obj_style.c ****     lv_obj_refresh_style(obj, selector, prop);
 256:Middlewares/lvgl/src/core/lv_obj_style.c **** }
 257:Middlewares/lvgl/src/core/lv_obj_style.c **** 
 258:Middlewares/lvgl/src/core/lv_obj_style.c **** 
ARM GAS  /tmp/cc7kjK8u.s 			page 6


 259:Middlewares/lvgl/src/core/lv_obj_style.c **** lv_res_t lv_obj_get_local_style_prop(lv_obj_t * obj, lv_style_prop_t prop, lv_style_value_t * value
 260:Middlewares/lvgl/src/core/lv_obj_style.c **** {
 261:Middlewares/lvgl/src/core/lv_obj_style.c ****     uint32_t i;
 262:Middlewares/lvgl/src/core/lv_obj_style.c ****     for(i = 0; i < obj->style_cnt; i++) {
 263:Middlewares/lvgl/src/core/lv_obj_style.c ****         if(obj->styles[i].is_local &&
 264:Middlewares/lvgl/src/core/lv_obj_style.c ****            obj->styles[i].selector ==  selector)
 265:Middlewares/lvgl/src/core/lv_obj_style.c ****         {
 266:Middlewares/lvgl/src/core/lv_obj_style.c ****             return lv_style_get_prop(obj->styles[i].style, prop, value);
 267:Middlewares/lvgl/src/core/lv_obj_style.c ****         }
 268:Middlewares/lvgl/src/core/lv_obj_style.c ****     }
 269:Middlewares/lvgl/src/core/lv_obj_style.c **** 
 270:Middlewares/lvgl/src/core/lv_obj_style.c ****     return LV_RES_INV;
 271:Middlewares/lvgl/src/core/lv_obj_style.c **** }
 272:Middlewares/lvgl/src/core/lv_obj_style.c **** 
 273:Middlewares/lvgl/src/core/lv_obj_style.c **** bool lv_obj_remove_local_style_prop(lv_obj_t * obj, lv_style_prop_t prop, lv_style_selector_t selec
 274:Middlewares/lvgl/src/core/lv_obj_style.c **** {
 275:Middlewares/lvgl/src/core/lv_obj_style.c ****     LV_ASSERT_OBJ(obj, MY_CLASS);
 276:Middlewares/lvgl/src/core/lv_obj_style.c **** 
 277:Middlewares/lvgl/src/core/lv_obj_style.c ****     uint32_t i;
 278:Middlewares/lvgl/src/core/lv_obj_style.c ****     /*Find the style*/
 279:Middlewares/lvgl/src/core/lv_obj_style.c ****     for(i = 0; i < obj->style_cnt; i++) {
 280:Middlewares/lvgl/src/core/lv_obj_style.c ****         if(obj->styles[i].is_local &&
 281:Middlewares/lvgl/src/core/lv_obj_style.c ****            obj->styles[i].selector == selector) {
 282:Middlewares/lvgl/src/core/lv_obj_style.c ****             break;
 283:Middlewares/lvgl/src/core/lv_obj_style.c ****         }
 284:Middlewares/lvgl/src/core/lv_obj_style.c ****     }
 285:Middlewares/lvgl/src/core/lv_obj_style.c **** 
 286:Middlewares/lvgl/src/core/lv_obj_style.c ****     /*The style is not found*/
 287:Middlewares/lvgl/src/core/lv_obj_style.c ****     if(i == obj->style_cnt) return false;
 288:Middlewares/lvgl/src/core/lv_obj_style.c **** 
 289:Middlewares/lvgl/src/core/lv_obj_style.c ****     return lv_style_remove_prop(obj->styles[i].style, prop);
 290:Middlewares/lvgl/src/core/lv_obj_style.c **** }
 291:Middlewares/lvgl/src/core/lv_obj_style.c **** 
 292:Middlewares/lvgl/src/core/lv_obj_style.c **** void _lv_obj_style_create_transition(lv_obj_t * obj, lv_part_t part, lv_state_t prev_state, lv_stat
 293:Middlewares/lvgl/src/core/lv_obj_style.c **** {
 294:Middlewares/lvgl/src/core/lv_obj_style.c ****     trans_t * tr;
 295:Middlewares/lvgl/src/core/lv_obj_style.c **** 
 296:Middlewares/lvgl/src/core/lv_obj_style.c ****     /*Get the previous and current values*/
 297:Middlewares/lvgl/src/core/lv_obj_style.c ****     obj->skip_trans = 1;
 298:Middlewares/lvgl/src/core/lv_obj_style.c ****     obj->state = prev_state;
 299:Middlewares/lvgl/src/core/lv_obj_style.c ****     lv_style_value_t v1 = lv_obj_get_style_prop(obj, part, tr_dsc->prop);
 300:Middlewares/lvgl/src/core/lv_obj_style.c ****     obj->state = new_state;
 301:Middlewares/lvgl/src/core/lv_obj_style.c ****     lv_style_value_t v2 = lv_obj_get_style_prop(obj, part, tr_dsc->prop);
 302:Middlewares/lvgl/src/core/lv_obj_style.c ****     obj->skip_trans = 0;
 303:Middlewares/lvgl/src/core/lv_obj_style.c **** 
 304:Middlewares/lvgl/src/core/lv_obj_style.c ****     if(v1.ptr == v2.ptr && v1.num == v2.num && v1.color.full == v2.color.full)  return;
 305:Middlewares/lvgl/src/core/lv_obj_style.c ****     obj->state = prev_state;
 306:Middlewares/lvgl/src/core/lv_obj_style.c ****     v1 = lv_obj_get_style_prop(obj, part, tr_dsc->prop);
 307:Middlewares/lvgl/src/core/lv_obj_style.c ****     obj->state = new_state;
 308:Middlewares/lvgl/src/core/lv_obj_style.c **** 
 309:Middlewares/lvgl/src/core/lv_obj_style.c ****     _lv_obj_style_t * style_trans = get_trans_style(obj, part);
 310:Middlewares/lvgl/src/core/lv_obj_style.c ****     lv_style_set_prop(style_trans->style, tr_dsc->prop, v1);   /*Be sure `trans_style` has a valid 
 311:Middlewares/lvgl/src/core/lv_obj_style.c **** 
 312:Middlewares/lvgl/src/core/lv_obj_style.c ****     if(tr_dsc->prop == LV_STYLE_RADIUS) {
 313:Middlewares/lvgl/src/core/lv_obj_style.c ****         if(v1.num == LV_RADIUS_CIRCLE || v2.num == LV_RADIUS_CIRCLE) {
 314:Middlewares/lvgl/src/core/lv_obj_style.c ****             lv_coord_t whalf = lv_obj_get_width(obj) / 2;
 315:Middlewares/lvgl/src/core/lv_obj_style.c ****             lv_coord_t hhalf = lv_obj_get_width(obj) / 2;
ARM GAS  /tmp/cc7kjK8u.s 			page 7


 316:Middlewares/lvgl/src/core/lv_obj_style.c ****             if(v1.num == LV_RADIUS_CIRCLE) v1.num = LV_MIN(whalf + 1, hhalf + 1);
 317:Middlewares/lvgl/src/core/lv_obj_style.c ****             if(v2.num == LV_RADIUS_CIRCLE) v2.num = LV_MIN(whalf + 1, hhalf + 1);
 318:Middlewares/lvgl/src/core/lv_obj_style.c ****         }
 319:Middlewares/lvgl/src/core/lv_obj_style.c ****     }
 320:Middlewares/lvgl/src/core/lv_obj_style.c **** 
 321:Middlewares/lvgl/src/core/lv_obj_style.c ****     tr = _lv_ll_ins_head(&LV_GC_ROOT(_lv_obj_style_trans_ll));
 322:Middlewares/lvgl/src/core/lv_obj_style.c ****     LV_ASSERT_MALLOC(tr);
 323:Middlewares/lvgl/src/core/lv_obj_style.c ****     if(tr == NULL) return;
 324:Middlewares/lvgl/src/core/lv_obj_style.c ****     tr->start_value = v1;
 325:Middlewares/lvgl/src/core/lv_obj_style.c ****     tr->end_value = v2;
 326:Middlewares/lvgl/src/core/lv_obj_style.c **** 
 327:Middlewares/lvgl/src/core/lv_obj_style.c ****     if(tr) {
 328:Middlewares/lvgl/src/core/lv_obj_style.c ****         tr->obj = obj;
 329:Middlewares/lvgl/src/core/lv_obj_style.c ****         tr->prop = tr_dsc->prop;
 330:Middlewares/lvgl/src/core/lv_obj_style.c ****         tr->selector = part;
 331:Middlewares/lvgl/src/core/lv_obj_style.c **** 
 332:Middlewares/lvgl/src/core/lv_obj_style.c ****         lv_anim_t a;
 333:Middlewares/lvgl/src/core/lv_obj_style.c ****         lv_anim_init(&a);
 334:Middlewares/lvgl/src/core/lv_obj_style.c ****         lv_anim_set_var(&a, tr);
 335:Middlewares/lvgl/src/core/lv_obj_style.c ****         lv_anim_set_exec_cb(&a, trans_anim_cb);
 336:Middlewares/lvgl/src/core/lv_obj_style.c ****         lv_anim_set_start_cb(&a, trans_anim_start_cb);
 337:Middlewares/lvgl/src/core/lv_obj_style.c ****         lv_anim_set_ready_cb(&a, trans_anim_ready_cb);
 338:Middlewares/lvgl/src/core/lv_obj_style.c ****         lv_anim_set_values(&a, 0x00, 0xFF);
 339:Middlewares/lvgl/src/core/lv_obj_style.c ****         lv_anim_set_time(&a, tr_dsc->time);
 340:Middlewares/lvgl/src/core/lv_obj_style.c ****         lv_anim_set_delay(&a, tr_dsc->delay);
 341:Middlewares/lvgl/src/core/lv_obj_style.c ****         lv_anim_set_path_cb(&a, tr_dsc->path_cb);
 342:Middlewares/lvgl/src/core/lv_obj_style.c ****         lv_anim_set_early_apply(&a, false);
 343:Middlewares/lvgl/src/core/lv_obj_style.c **** #if LV_USE_USER_DATA
 344:Middlewares/lvgl/src/core/lv_obj_style.c ****         a.user_data = tr_dsc->user_data;
 345:Middlewares/lvgl/src/core/lv_obj_style.c **** #endif
 346:Middlewares/lvgl/src/core/lv_obj_style.c ****         lv_anim_start(&a);
 347:Middlewares/lvgl/src/core/lv_obj_style.c ****     }
 348:Middlewares/lvgl/src/core/lv_obj_style.c **** }
 349:Middlewares/lvgl/src/core/lv_obj_style.c **** 
 350:Middlewares/lvgl/src/core/lv_obj_style.c **** _lv_style_state_cmp_t _lv_obj_style_state_compare(lv_obj_t * obj, lv_state_t state1, lv_state_t sta
 351:Middlewares/lvgl/src/core/lv_obj_style.c **** {
 352:Middlewares/lvgl/src/core/lv_obj_style.c ****     _lv_style_state_cmp_t res = _LV_STYLE_STATE_CMP_SAME;
 353:Middlewares/lvgl/src/core/lv_obj_style.c **** 
 354:Middlewares/lvgl/src/core/lv_obj_style.c ****     /*Are there any new styles for the new state?*/
 355:Middlewares/lvgl/src/core/lv_obj_style.c ****     uint32_t i;
 356:Middlewares/lvgl/src/core/lv_obj_style.c ****     for(i = 0; i < obj->style_cnt; i++) {
 357:Middlewares/lvgl/src/core/lv_obj_style.c ****         if(obj->styles[i].is_trans) continue;
 358:Middlewares/lvgl/src/core/lv_obj_style.c **** 
 359:Middlewares/lvgl/src/core/lv_obj_style.c ****         lv_state_t state_act = lv_obj_style_get_selector_state(obj->styles[i].selector);
 360:Middlewares/lvgl/src/core/lv_obj_style.c ****         lv_part_t part_act = lv_obj_style_get_selector_part(obj->styles[i].selector);
 361:Middlewares/lvgl/src/core/lv_obj_style.c ****         /*The style is valid for a stat but not the other*/
 362:Middlewares/lvgl/src/core/lv_obj_style.c ****         bool valid1 = state_act & (~state1) ? false : true;
 363:Middlewares/lvgl/src/core/lv_obj_style.c ****         bool valid2 = state_act & (~state2) ? false : true;
 364:Middlewares/lvgl/src/core/lv_obj_style.c ****         if(valid1 != valid2) {
 365:Middlewares/lvgl/src/core/lv_obj_style.c ****             lv_style_t * style = obj->styles[i].style;
 366:Middlewares/lvgl/src/core/lv_obj_style.c ****             lv_style_value_t v;
 367:Middlewares/lvgl/src/core/lv_obj_style.c ****             /*If there is layout difference on the main part, return immediately. There is no more 
 368:Middlewares/lvgl/src/core/lv_obj_style.c ****             bool layout_diff = false;
 369:Middlewares/lvgl/src/core/lv_obj_style.c ****             if(lv_style_get_prop(style, LV_STYLE_PAD_TOP, &v))layout_diff = true;
 370:Middlewares/lvgl/src/core/lv_obj_style.c ****             else if(lv_style_get_prop(style, LV_STYLE_PAD_BOTTOM, &v)) layout_diff = true;
 371:Middlewares/lvgl/src/core/lv_obj_style.c ****             else if(lv_style_get_prop(style, LV_STYLE_PAD_LEFT, &v)) layout_diff = true;
 372:Middlewares/lvgl/src/core/lv_obj_style.c ****             else if(lv_style_get_prop(style, LV_STYLE_PAD_RIGHT, &v)) layout_diff = true;
ARM GAS  /tmp/cc7kjK8u.s 			page 8


 373:Middlewares/lvgl/src/core/lv_obj_style.c ****             else if(lv_style_get_prop(style, LV_STYLE_PAD_COLUMN, &v)) layout_diff = true;
 374:Middlewares/lvgl/src/core/lv_obj_style.c ****             else if(lv_style_get_prop(style, LV_STYLE_PAD_ROW, &v)) layout_diff = true;
 375:Middlewares/lvgl/src/core/lv_obj_style.c ****             else if(lv_style_get_prop(style, LV_STYLE_LAYOUT, &v)) layout_diff = true;
 376:Middlewares/lvgl/src/core/lv_obj_style.c ****             else if(lv_style_get_prop(style, LV_STYLE_TRANSLATE_X, &v)) layout_diff = true;
 377:Middlewares/lvgl/src/core/lv_obj_style.c ****             else if(lv_style_get_prop(style, LV_STYLE_TRANSLATE_Y, &v)) layout_diff = true;
 378:Middlewares/lvgl/src/core/lv_obj_style.c ****             else if(lv_style_get_prop(style, LV_STYLE_WIDTH, &v)) layout_diff = true;
 379:Middlewares/lvgl/src/core/lv_obj_style.c ****             else if(lv_style_get_prop(style, LV_STYLE_HEIGHT, &v)) layout_diff = true;
 380:Middlewares/lvgl/src/core/lv_obj_style.c ****             else if(lv_style_get_prop(style, LV_STYLE_MIN_WIDTH, &v)) layout_diff = true;
 381:Middlewares/lvgl/src/core/lv_obj_style.c ****             else if(lv_style_get_prop(style, LV_STYLE_MAX_WIDTH, &v)) layout_diff = true;
 382:Middlewares/lvgl/src/core/lv_obj_style.c ****             else if(lv_style_get_prop(style, LV_STYLE_MIN_HEIGHT, &v)) layout_diff = true;
 383:Middlewares/lvgl/src/core/lv_obj_style.c ****             else if(lv_style_get_prop(style, LV_STYLE_MAX_HEIGHT, &v)) layout_diff = true;
 384:Middlewares/lvgl/src/core/lv_obj_style.c ****             else if(lv_style_get_prop(style, LV_STYLE_BORDER_WIDTH, &v)) layout_diff = true;
 385:Middlewares/lvgl/src/core/lv_obj_style.c **** 
 386:Middlewares/lvgl/src/core/lv_obj_style.c ****             if(layout_diff) {
 387:Middlewares/lvgl/src/core/lv_obj_style.c ****                 if(part_act == LV_PART_MAIN) {
 388:Middlewares/lvgl/src/core/lv_obj_style.c ****                     return _LV_STYLE_STATE_CMP_DIFF_LAYOUT;
 389:Middlewares/lvgl/src/core/lv_obj_style.c ****                 }
 390:Middlewares/lvgl/src/core/lv_obj_style.c ****                 else {
 391:Middlewares/lvgl/src/core/lv_obj_style.c ****                     res = _LV_STYLE_STATE_CMP_DIFF_DRAW_PAD;
 392:Middlewares/lvgl/src/core/lv_obj_style.c ****                     continue;
 393:Middlewares/lvgl/src/core/lv_obj_style.c ****                 }
 394:Middlewares/lvgl/src/core/lv_obj_style.c ****             }
 395:Middlewares/lvgl/src/core/lv_obj_style.c **** 
 396:Middlewares/lvgl/src/core/lv_obj_style.c ****             /*Check for draw pad changes*/
 397:Middlewares/lvgl/src/core/lv_obj_style.c ****             if(lv_style_get_prop(style, LV_STYLE_TRANSFORM_WIDTH, &v)) res = _LV_STYLE_STATE_CMP_DI
 398:Middlewares/lvgl/src/core/lv_obj_style.c ****             else if(lv_style_get_prop(style, LV_STYLE_TRANSFORM_HEIGHT, &v)) res = _LV_STYLE_STATE_
 399:Middlewares/lvgl/src/core/lv_obj_style.c ****             else if(lv_style_get_prop(style, LV_STYLE_TRANSFORM_ANGLE, &v)) res = _LV_STYLE_STATE_C
 400:Middlewares/lvgl/src/core/lv_obj_style.c ****             else if(lv_style_get_prop(style, LV_STYLE_TRANSFORM_ZOOM, &v)) res = _LV_STYLE_STATE_CM
 401:Middlewares/lvgl/src/core/lv_obj_style.c ****             else if(lv_style_get_prop(style, LV_STYLE_OUTLINE_OPA, &v)) res = _LV_STYLE_STATE_CMP_D
 402:Middlewares/lvgl/src/core/lv_obj_style.c ****             else if(lv_style_get_prop(style, LV_STYLE_OUTLINE_PAD, &v)) res = _LV_STYLE_STATE_CMP_D
 403:Middlewares/lvgl/src/core/lv_obj_style.c ****             else if(lv_style_get_prop(style, LV_STYLE_OUTLINE_WIDTH, &v)) res = _LV_STYLE_STATE_CMP
 404:Middlewares/lvgl/src/core/lv_obj_style.c ****             else if(lv_style_get_prop(style, LV_STYLE_SHADOW_WIDTH, &v)) res = _LV_STYLE_STATE_CMP_
 405:Middlewares/lvgl/src/core/lv_obj_style.c ****             else if(lv_style_get_prop(style, LV_STYLE_SHADOW_OPA, &v)) res = _LV_STYLE_STATE_CMP_DI
 406:Middlewares/lvgl/src/core/lv_obj_style.c ****             else if(lv_style_get_prop(style, LV_STYLE_SHADOW_OFS_X, &v)) res = _LV_STYLE_STATE_CMP_
 407:Middlewares/lvgl/src/core/lv_obj_style.c ****             else if(lv_style_get_prop(style, LV_STYLE_SHADOW_OFS_Y, &v)) res = _LV_STYLE_STATE_CMP_
 408:Middlewares/lvgl/src/core/lv_obj_style.c ****             else if(lv_style_get_prop(style, LV_STYLE_SHADOW_SPREAD, &v)) res = _LV_STYLE_STATE_CMP
 409:Middlewares/lvgl/src/core/lv_obj_style.c ****             else if(lv_style_get_prop(style, LV_STYLE_LINE_WIDTH, &v)) res = _LV_STYLE_STATE_CMP_DI
 410:Middlewares/lvgl/src/core/lv_obj_style.c ****             else if(res == _LV_STYLE_STATE_CMP_SAME) res = _LV_STYLE_STATE_CMP_DIFF_REDRAW;
 411:Middlewares/lvgl/src/core/lv_obj_style.c ****         }
 412:Middlewares/lvgl/src/core/lv_obj_style.c ****     }
 413:Middlewares/lvgl/src/core/lv_obj_style.c **** 
 414:Middlewares/lvgl/src/core/lv_obj_style.c ****     return res;
 415:Middlewares/lvgl/src/core/lv_obj_style.c **** }
 416:Middlewares/lvgl/src/core/lv_obj_style.c **** 
 417:Middlewares/lvgl/src/core/lv_obj_style.c **** void lv_obj_fade_in(lv_obj_t * obj, uint32_t time, uint32_t delay)
 418:Middlewares/lvgl/src/core/lv_obj_style.c **** {
 419:Middlewares/lvgl/src/core/lv_obj_style.c ****     lv_anim_t a;
 420:Middlewares/lvgl/src/core/lv_obj_style.c ****     lv_anim_init(&a);
 421:Middlewares/lvgl/src/core/lv_obj_style.c ****     lv_anim_set_var(&a, obj);
 422:Middlewares/lvgl/src/core/lv_obj_style.c ****     lv_anim_set_values(&a, LV_OPA_TRANSP, LV_OPA_COVER);
 423:Middlewares/lvgl/src/core/lv_obj_style.c ****     lv_anim_set_exec_cb(&a, fade_anim_cb);
 424:Middlewares/lvgl/src/core/lv_obj_style.c ****     lv_anim_set_ready_cb(&a, fade_in_anim_ready);
 425:Middlewares/lvgl/src/core/lv_obj_style.c ****     lv_anim_set_time(&a, time);
 426:Middlewares/lvgl/src/core/lv_obj_style.c ****     lv_anim_set_delay(&a, delay);
 427:Middlewares/lvgl/src/core/lv_obj_style.c ****     lv_anim_start(&a);
 428:Middlewares/lvgl/src/core/lv_obj_style.c **** }
 429:Middlewares/lvgl/src/core/lv_obj_style.c **** 
ARM GAS  /tmp/cc7kjK8u.s 			page 9


 430:Middlewares/lvgl/src/core/lv_obj_style.c **** void lv_obj_fade_out(lv_obj_t * obj, uint32_t time, uint32_t delay)
 431:Middlewares/lvgl/src/core/lv_obj_style.c **** {
 432:Middlewares/lvgl/src/core/lv_obj_style.c ****     lv_anim_t a;
 433:Middlewares/lvgl/src/core/lv_obj_style.c ****     lv_anim_init(&a);
 434:Middlewares/lvgl/src/core/lv_obj_style.c ****     lv_anim_set_var(&a, obj);
 435:Middlewares/lvgl/src/core/lv_obj_style.c ****     lv_anim_set_values(&a, LV_OPA_COVER, LV_OPA_TRANSP);
 436:Middlewares/lvgl/src/core/lv_obj_style.c ****     lv_anim_set_exec_cb(&a, fade_anim_cb);
 437:Middlewares/lvgl/src/core/lv_obj_style.c ****     lv_anim_set_time(&a, time);
 438:Middlewares/lvgl/src/core/lv_obj_style.c ****     lv_anim_set_delay(&a, delay);
 439:Middlewares/lvgl/src/core/lv_obj_style.c ****     lv_anim_start(&a);
 440:Middlewares/lvgl/src/core/lv_obj_style.c **** }
 441:Middlewares/lvgl/src/core/lv_obj_style.c **** 
 442:Middlewares/lvgl/src/core/lv_obj_style.c **** lv_state_t lv_obj_style_get_selector_state(lv_style_selector_t selector)
 443:Middlewares/lvgl/src/core/lv_obj_style.c **** {
 444:Middlewares/lvgl/src/core/lv_obj_style.c ****     return selector & 0xFFFF;
 445:Middlewares/lvgl/src/core/lv_obj_style.c **** }
 446:Middlewares/lvgl/src/core/lv_obj_style.c **** 
 447:Middlewares/lvgl/src/core/lv_obj_style.c **** lv_part_t lv_obj_style_get_selector_part(lv_style_selector_t selector)
 448:Middlewares/lvgl/src/core/lv_obj_style.c **** {
 449:Middlewares/lvgl/src/core/lv_obj_style.c ****     return selector & 0xFF0000;
 450:Middlewares/lvgl/src/core/lv_obj_style.c **** }
 451:Middlewares/lvgl/src/core/lv_obj_style.c **** 
 452:Middlewares/lvgl/src/core/lv_obj_style.c **** /**********************
 453:Middlewares/lvgl/src/core/lv_obj_style.c ****  *   STATIC FUNCTIONS
 454:Middlewares/lvgl/src/core/lv_obj_style.c ****  **********************/
 455:Middlewares/lvgl/src/core/lv_obj_style.c **** 
 456:Middlewares/lvgl/src/core/lv_obj_style.c **** /**
 457:Middlewares/lvgl/src/core/lv_obj_style.c ****  * Get the local style of an object for a given part and for a given state.
 458:Middlewares/lvgl/src/core/lv_obj_style.c ****  * If the local style for the part-state pair doesn't exist allocate and return it.
 459:Middlewares/lvgl/src/core/lv_obj_style.c ****  * @param obj   pointer to an object
 460:Middlewares/lvgl/src/core/lv_obj_style.c ****  * @param part  the part in whose local style to get
 461:Middlewares/lvgl/src/core/lv_obj_style.c ****  * @param state the state in whose local style to get
 462:Middlewares/lvgl/src/core/lv_obj_style.c ****  * @return pointer to the local style
 463:Middlewares/lvgl/src/core/lv_obj_style.c ****  */
 464:Middlewares/lvgl/src/core/lv_obj_style.c **** static lv_style_t * get_local_style(lv_obj_t * obj,  lv_style_selector_t selector)
 465:Middlewares/lvgl/src/core/lv_obj_style.c **** {
 466:Middlewares/lvgl/src/core/lv_obj_style.c ****     uint32_t i;
 467:Middlewares/lvgl/src/core/lv_obj_style.c ****     for(i = 0; i < obj->style_cnt; i++) {
 468:Middlewares/lvgl/src/core/lv_obj_style.c ****         if(obj->styles[i].is_local &&
 469:Middlewares/lvgl/src/core/lv_obj_style.c ****            obj->styles[i].selector == selector)
 470:Middlewares/lvgl/src/core/lv_obj_style.c ****         {
 471:Middlewares/lvgl/src/core/lv_obj_style.c ****             return obj->styles[i].style;
 472:Middlewares/lvgl/src/core/lv_obj_style.c ****         }
 473:Middlewares/lvgl/src/core/lv_obj_style.c ****     }
 474:Middlewares/lvgl/src/core/lv_obj_style.c **** 
 475:Middlewares/lvgl/src/core/lv_obj_style.c ****     obj->style_cnt++;
 476:Middlewares/lvgl/src/core/lv_obj_style.c ****     obj->styles = lv_mem_realloc(obj->styles, obj->style_cnt * sizeof(_lv_obj_style_t));
 477:Middlewares/lvgl/src/core/lv_obj_style.c ****     LV_ASSERT_MALLOC(obj->styles);
 478:Middlewares/lvgl/src/core/lv_obj_style.c **** 
 479:Middlewares/lvgl/src/core/lv_obj_style.c ****     for(i = obj->style_cnt - 1; i > 0 ; i--) {
 480:Middlewares/lvgl/src/core/lv_obj_style.c ****         /*Copy only normal styles (not local and transition).
 481:Middlewares/lvgl/src/core/lv_obj_style.c ****          *The new local style will be added as the last local style*/
 482:Middlewares/lvgl/src/core/lv_obj_style.c ****         if(obj->styles[i - 1].is_local || obj->styles[i - 1].is_trans) break;
 483:Middlewares/lvgl/src/core/lv_obj_style.c ****         obj->styles[i] = obj->styles[i - 1];
 484:Middlewares/lvgl/src/core/lv_obj_style.c ****     }
 485:Middlewares/lvgl/src/core/lv_obj_style.c **** 
 486:Middlewares/lvgl/src/core/lv_obj_style.c ****     lv_memset_00(&obj->styles[i], sizeof(_lv_obj_style_t));
ARM GAS  /tmp/cc7kjK8u.s 			page 10


 487:Middlewares/lvgl/src/core/lv_obj_style.c ****     obj->styles[i].style = lv_mem_alloc(sizeof(lv_style_t));
 488:Middlewares/lvgl/src/core/lv_obj_style.c ****     lv_style_init(obj->styles[i].style);
 489:Middlewares/lvgl/src/core/lv_obj_style.c ****     obj->styles[i].is_local = 1;
 490:Middlewares/lvgl/src/core/lv_obj_style.c ****     obj->styles[i].selector = selector;
 491:Middlewares/lvgl/src/core/lv_obj_style.c ****     return obj->styles[i].style;
 492:Middlewares/lvgl/src/core/lv_obj_style.c **** }
 493:Middlewares/lvgl/src/core/lv_obj_style.c **** 
 494:Middlewares/lvgl/src/core/lv_obj_style.c **** /**
 495:Middlewares/lvgl/src/core/lv_obj_style.c ****  * Get the transition style of an object for a given part and for a given state.
 496:Middlewares/lvgl/src/core/lv_obj_style.c ****  * If the transition style for the part-state pair doesn't exist allocate and return it.
 497:Middlewares/lvgl/src/core/lv_obj_style.c ****  * @param obj   pointer to an object
 498:Middlewares/lvgl/src/core/lv_obj_style.c ****  * @param part  the part in whose local style to get
 499:Middlewares/lvgl/src/core/lv_obj_style.c ****  * @param state the state in whose local style to get
 500:Middlewares/lvgl/src/core/lv_obj_style.c ****  * @return pointer to the transition style
 501:Middlewares/lvgl/src/core/lv_obj_style.c ****  */
 502:Middlewares/lvgl/src/core/lv_obj_style.c **** static _lv_obj_style_t * get_trans_style(lv_obj_t * obj,  lv_style_selector_t selector)
 503:Middlewares/lvgl/src/core/lv_obj_style.c **** {
 504:Middlewares/lvgl/src/core/lv_obj_style.c ****     uint32_t i;
 505:Middlewares/lvgl/src/core/lv_obj_style.c ****     for(i = 0; i < obj->style_cnt; i++) {
 506:Middlewares/lvgl/src/core/lv_obj_style.c ****         if(obj->styles[i].is_trans && obj->styles[i].selector == selector) break;
 507:Middlewares/lvgl/src/core/lv_obj_style.c ****     }
 508:Middlewares/lvgl/src/core/lv_obj_style.c **** 
 509:Middlewares/lvgl/src/core/lv_obj_style.c ****     /*Already have a transition style for it*/
 510:Middlewares/lvgl/src/core/lv_obj_style.c ****     if(i != obj->style_cnt) return &obj->styles[i];
 511:Middlewares/lvgl/src/core/lv_obj_style.c **** 
 512:Middlewares/lvgl/src/core/lv_obj_style.c ****     obj->style_cnt++;
 513:Middlewares/lvgl/src/core/lv_obj_style.c ****     obj->styles = lv_mem_realloc(obj->styles, obj->style_cnt * sizeof(_lv_obj_style_t));
 514:Middlewares/lvgl/src/core/lv_obj_style.c **** 
 515:Middlewares/lvgl/src/core/lv_obj_style.c ****     for(i = obj->style_cnt - 1; i > 0 ; i--) {
 516:Middlewares/lvgl/src/core/lv_obj_style.c ****         obj->styles[i] = obj->styles[i - 1];
 517:Middlewares/lvgl/src/core/lv_obj_style.c ****     }
 518:Middlewares/lvgl/src/core/lv_obj_style.c **** 
 519:Middlewares/lvgl/src/core/lv_obj_style.c ****     lv_memset_00(&obj->styles[0], sizeof(_lv_obj_style_t));
 520:Middlewares/lvgl/src/core/lv_obj_style.c ****     obj->styles[0].style = lv_mem_alloc(sizeof(lv_style_t));
 521:Middlewares/lvgl/src/core/lv_obj_style.c ****     lv_style_init(obj->styles[0].style);
 522:Middlewares/lvgl/src/core/lv_obj_style.c ****     obj->styles[0].is_trans = 1;
 523:Middlewares/lvgl/src/core/lv_obj_style.c ****     obj->styles[0].selector = selector;
 524:Middlewares/lvgl/src/core/lv_obj_style.c ****     return &obj->styles[0];
 525:Middlewares/lvgl/src/core/lv_obj_style.c **** }
 526:Middlewares/lvgl/src/core/lv_obj_style.c **** 
 527:Middlewares/lvgl/src/core/lv_obj_style.c **** 
 528:Middlewares/lvgl/src/core/lv_obj_style.c **** static bool get_prop_core(const lv_obj_t * obj, lv_part_t part, lv_style_prop_t prop, lv_style_valu
 529:Middlewares/lvgl/src/core/lv_obj_style.c **** {
 530:Middlewares/lvgl/src/core/lv_obj_style.c ****     uint8_t group = 1 << _lv_style_get_prop_group(prop);
 531:Middlewares/lvgl/src/core/lv_obj_style.c ****     int32_t weight = -1;
 532:Middlewares/lvgl/src/core/lv_obj_style.c ****     lv_state_t state = obj->state;
 533:Middlewares/lvgl/src/core/lv_obj_style.c ****     lv_state_t state_inv = ~state;
 534:Middlewares/lvgl/src/core/lv_obj_style.c ****     lv_style_value_t value_tmp;
 535:Middlewares/lvgl/src/core/lv_obj_style.c ****     bool skip_trans = obj->skip_trans;
 536:Middlewares/lvgl/src/core/lv_obj_style.c ****     uint32_t i;
 537:Middlewares/lvgl/src/core/lv_obj_style.c ****     bool found;
 538:Middlewares/lvgl/src/core/lv_obj_style.c ****     for(i = 0; i < obj->style_cnt; i++) {
 539:Middlewares/lvgl/src/core/lv_obj_style.c ****         _lv_obj_style_t * obj_style = &obj->styles[i];
 540:Middlewares/lvgl/src/core/lv_obj_style.c ****         if(obj_style->is_trans == false) break;
 541:Middlewares/lvgl/src/core/lv_obj_style.c ****         if(skip_trans) continue;
 542:Middlewares/lvgl/src/core/lv_obj_style.c **** 
 543:Middlewares/lvgl/src/core/lv_obj_style.c ****         lv_part_t part_act = lv_obj_style_get_selector_part(obj->styles[i].selector);
ARM GAS  /tmp/cc7kjK8u.s 			page 11


 544:Middlewares/lvgl/src/core/lv_obj_style.c **** 
 545:Middlewares/lvgl/src/core/lv_obj_style.c ****         if(part_act != part) continue;
 546:Middlewares/lvgl/src/core/lv_obj_style.c ****         if((obj_style->style->has_group & group) == 0) continue;
 547:Middlewares/lvgl/src/core/lv_obj_style.c ****         found = lv_style_get_prop(obj_style->style, prop, &value_tmp);
 548:Middlewares/lvgl/src/core/lv_obj_style.c ****         if(found) {
 549:Middlewares/lvgl/src/core/lv_obj_style.c ****             *v = value_tmp;
 550:Middlewares/lvgl/src/core/lv_obj_style.c ****             return true;
 551:Middlewares/lvgl/src/core/lv_obj_style.c ****         }
 552:Middlewares/lvgl/src/core/lv_obj_style.c ****     }
 553:Middlewares/lvgl/src/core/lv_obj_style.c **** 
 554:Middlewares/lvgl/src/core/lv_obj_style.c ****     for(; i < obj->style_cnt; i++) {
 555:Middlewares/lvgl/src/core/lv_obj_style.c ****         _lv_obj_style_t * obj_style = &obj->styles[i];
 556:Middlewares/lvgl/src/core/lv_obj_style.c ****         lv_part_t part_act = lv_obj_style_get_selector_part(obj->styles[i].selector);
 557:Middlewares/lvgl/src/core/lv_obj_style.c ****         lv_state_t state_act = lv_obj_style_get_selector_state(obj->styles[i].selector);
 558:Middlewares/lvgl/src/core/lv_obj_style.c ****         if(part_act != part) continue;
 559:Middlewares/lvgl/src/core/lv_obj_style.c **** 
 560:Middlewares/lvgl/src/core/lv_obj_style.c ****         if((obj_style->style->has_group & group) == 0) continue;
 561:Middlewares/lvgl/src/core/lv_obj_style.c **** 
 562:Middlewares/lvgl/src/core/lv_obj_style.c ****         /*Be sure the style not specifies other state than the requested.
 563:Middlewares/lvgl/src/core/lv_obj_style.c ****          *E.g. For HOVER+PRESS object state, HOVER style only is OK, but HOVER+FOCUS style is not*/
 564:Middlewares/lvgl/src/core/lv_obj_style.c ****         if((state_act & state_inv)) continue;
 565:Middlewares/lvgl/src/core/lv_obj_style.c **** 
 566:Middlewares/lvgl/src/core/lv_obj_style.c ****         /*Check only better candidates*/
 567:Middlewares/lvgl/src/core/lv_obj_style.c ****         if(state_act <= weight) continue;
 568:Middlewares/lvgl/src/core/lv_obj_style.c **** 
 569:Middlewares/lvgl/src/core/lv_obj_style.c ****         found = lv_style_get_prop(obj_style->style, prop, &value_tmp);
 570:Middlewares/lvgl/src/core/lv_obj_style.c **** 
 571:Middlewares/lvgl/src/core/lv_obj_style.c ****         if(found) {
 572:Middlewares/lvgl/src/core/lv_obj_style.c ****             if(state_act == state) {
 573:Middlewares/lvgl/src/core/lv_obj_style.c ****                 *v = value_tmp;
 574:Middlewares/lvgl/src/core/lv_obj_style.c ****                 return true;
 575:Middlewares/lvgl/src/core/lv_obj_style.c ****             }
 576:Middlewares/lvgl/src/core/lv_obj_style.c ****             if(weight < state_act) {
 577:Middlewares/lvgl/src/core/lv_obj_style.c ****                 weight = state_act;
 578:Middlewares/lvgl/src/core/lv_obj_style.c ****                 *v = value_tmp;
 579:Middlewares/lvgl/src/core/lv_obj_style.c ****             }
 580:Middlewares/lvgl/src/core/lv_obj_style.c ****         }
 581:Middlewares/lvgl/src/core/lv_obj_style.c ****     }
 582:Middlewares/lvgl/src/core/lv_obj_style.c **** 
 583:Middlewares/lvgl/src/core/lv_obj_style.c ****     if(weight >= 0) {
 584:Middlewares/lvgl/src/core/lv_obj_style.c ****         *v = value_tmp;
 585:Middlewares/lvgl/src/core/lv_obj_style.c ****         return true;
 586:Middlewares/lvgl/src/core/lv_obj_style.c ****     }
 587:Middlewares/lvgl/src/core/lv_obj_style.c ****     else return false;
 588:Middlewares/lvgl/src/core/lv_obj_style.c **** }
 589:Middlewares/lvgl/src/core/lv_obj_style.c **** 
 590:Middlewares/lvgl/src/core/lv_obj_style.c **** static lv_style_value_t apply_color_filter(const lv_obj_t * obj, uint32_t part, lv_style_value_t v)
 591:Middlewares/lvgl/src/core/lv_obj_style.c **** {
 592:Middlewares/lvgl/src/core/lv_obj_style.c ****     if(obj == NULL) return v;
 593:Middlewares/lvgl/src/core/lv_obj_style.c ****     const lv_color_filter_dsc_t * f = lv_obj_get_style_color_filter_dsc(obj, part);
 594:Middlewares/lvgl/src/core/lv_obj_style.c ****     if(f && f->filter_cb) {
 595:Middlewares/lvgl/src/core/lv_obj_style.c ****         lv_opa_t f_opa = lv_obj_get_style_color_filter_opa(obj, part);
 596:Middlewares/lvgl/src/core/lv_obj_style.c ****         if(f_opa != 0) v.color = f->filter_cb(f, v.color, f_opa);
 597:Middlewares/lvgl/src/core/lv_obj_style.c ****     }
 598:Middlewares/lvgl/src/core/lv_obj_style.c ****     return v;
 599:Middlewares/lvgl/src/core/lv_obj_style.c **** }
 600:Middlewares/lvgl/src/core/lv_obj_style.c **** 
ARM GAS  /tmp/cc7kjK8u.s 			page 12


 601:Middlewares/lvgl/src/core/lv_obj_style.c **** /**
 602:Middlewares/lvgl/src/core/lv_obj_style.c ****  * Refresh the style of all children of an object. (Called recursively)
 603:Middlewares/lvgl/src/core/lv_obj_style.c ****  * @param style refresh objects only with this
 604:Middlewares/lvgl/src/core/lv_obj_style.c ****  * @param obj pointer to an object
 605:Middlewares/lvgl/src/core/lv_obj_style.c ****  */
 606:Middlewares/lvgl/src/core/lv_obj_style.c **** static void report_style_change_core(void * style, lv_obj_t * obj)
 607:Middlewares/lvgl/src/core/lv_obj_style.c **** {
 608:Middlewares/lvgl/src/core/lv_obj_style.c ****     uint32_t i;
 609:Middlewares/lvgl/src/core/lv_obj_style.c ****     for(i = 0; i < obj->style_cnt; i++) {
 610:Middlewares/lvgl/src/core/lv_obj_style.c ****         if(style == NULL || obj->styles[i].style == style) {
 611:Middlewares/lvgl/src/core/lv_obj_style.c ****             lv_obj_refresh_style(obj, LV_PART_ANY, LV_STYLE_PROP_ANY);
 612:Middlewares/lvgl/src/core/lv_obj_style.c ****             break;
 613:Middlewares/lvgl/src/core/lv_obj_style.c ****         }
 614:Middlewares/lvgl/src/core/lv_obj_style.c ****     }
 615:Middlewares/lvgl/src/core/lv_obj_style.c **** 
 616:Middlewares/lvgl/src/core/lv_obj_style.c ****     uint32_t child_cnt = lv_obj_get_child_cnt(obj);
 617:Middlewares/lvgl/src/core/lv_obj_style.c ****     for(i = 0; i < child_cnt; i++) {
 618:Middlewares/lvgl/src/core/lv_obj_style.c ****         report_style_change_core(style, lv_obj_get_child(obj, i));
 619:Middlewares/lvgl/src/core/lv_obj_style.c ****     }
 620:Middlewares/lvgl/src/core/lv_obj_style.c **** }
 621:Middlewares/lvgl/src/core/lv_obj_style.c **** 
 622:Middlewares/lvgl/src/core/lv_obj_style.c **** /**
 623:Middlewares/lvgl/src/core/lv_obj_style.c ****  * Recursively refresh the style of the children. Go deeper until a not NULL style is found
 624:Middlewares/lvgl/src/core/lv_obj_style.c ****  * because the NULL styles are inherited from the parent
 625:Middlewares/lvgl/src/core/lv_obj_style.c ****  * @param obj pointer to an object
 626:Middlewares/lvgl/src/core/lv_obj_style.c ****  */
 627:Middlewares/lvgl/src/core/lv_obj_style.c **** static void refresh_children_style(lv_obj_t * obj)
 628:Middlewares/lvgl/src/core/lv_obj_style.c **** {
 629:Middlewares/lvgl/src/core/lv_obj_style.c ****     uint32_t i;
 630:Middlewares/lvgl/src/core/lv_obj_style.c ****     uint32_t child_cnt = lv_obj_get_child_cnt(obj);
 631:Middlewares/lvgl/src/core/lv_obj_style.c ****     for(i = 0; i < child_cnt; i++) {
 632:Middlewares/lvgl/src/core/lv_obj_style.c ****         lv_obj_t * child = lv_obj_get_child(obj, i);
 633:Middlewares/lvgl/src/core/lv_obj_style.c ****         lv_obj_invalidate(child);
 634:Middlewares/lvgl/src/core/lv_obj_style.c ****         lv_event_send(child, LV_EVENT_STYLE_CHANGED, NULL);
 635:Middlewares/lvgl/src/core/lv_obj_style.c ****         lv_obj_invalidate(child);
 636:Middlewares/lvgl/src/core/lv_obj_style.c **** 
 637:Middlewares/lvgl/src/core/lv_obj_style.c ****         refresh_children_style(child); /*Check children too*/
 638:Middlewares/lvgl/src/core/lv_obj_style.c ****     }
 639:Middlewares/lvgl/src/core/lv_obj_style.c **** }
 640:Middlewares/lvgl/src/core/lv_obj_style.c **** 
 641:Middlewares/lvgl/src/core/lv_obj_style.c **** /**
 642:Middlewares/lvgl/src/core/lv_obj_style.c ****  * Remove the transition from object's part's property.
 643:Middlewares/lvgl/src/core/lv_obj_style.c ****  * - Remove the transition from `_lv_obj_style_trans_ll` and free it
 644:Middlewares/lvgl/src/core/lv_obj_style.c ****  * - Delete pending transitions
 645:Middlewares/lvgl/src/core/lv_obj_style.c ****  * @param obj pointer to an object which transition(s) should be removed
 646:Middlewares/lvgl/src/core/lv_obj_style.c ****  * @param part a part of object or 0xFF to remove from all parts
 647:Middlewares/lvgl/src/core/lv_obj_style.c ****  * @param prop a property or 0xFF to remove all properties
 648:Middlewares/lvgl/src/core/lv_obj_style.c ****  * @param tr_limit delete transitions only "older" than this. `NULL` if not used
 649:Middlewares/lvgl/src/core/lv_obj_style.c ****  */
 650:Middlewares/lvgl/src/core/lv_obj_style.c **** static bool trans_del(lv_obj_t * obj, lv_part_t part, lv_style_prop_t prop, trans_t * tr_limit)
 651:Middlewares/lvgl/src/core/lv_obj_style.c **** {
  29              		.loc 1 651 1 view -0
  30              		.cfi_startproc
  31              		@ args = 0, pretend = 0, frame = 0
  32              		@ frame_needed = 0, uses_anonymous_args = 0
  33              		.loc 1 651 1 is_stmt 0 view .LVU1
  34 0000 2DE9F84F 		push	{r3, r4, r5, r6, r7, r8, r9, r10, fp, lr}
ARM GAS  /tmp/cc7kjK8u.s 			page 13


  35              	.LCFI0:
  36              		.cfi_def_cfa_offset 40
  37              		.cfi_offset 3, -40
  38              		.cfi_offset 4, -36
  39              		.cfi_offset 5, -32
  40              		.cfi_offset 6, -28
  41              		.cfi_offset 7, -24
  42              		.cfi_offset 8, -20
  43              		.cfi_offset 9, -16
  44              		.cfi_offset 10, -12
  45              		.cfi_offset 11, -8
  46              		.cfi_offset 14, -4
  47 0004 0646     		mov	r6, r0
  48 0006 8946     		mov	r9, r1
  49 0008 9246     		mov	r10, r2
  50 000a 9846     		mov	r8, r3
 652:Middlewares/lvgl/src/core/lv_obj_style.c ****     trans_t * tr;
  51              		.loc 1 652 5 is_stmt 1 view .LVU2
 653:Middlewares/lvgl/src/core/lv_obj_style.c ****     trans_t * tr_prev;
  52              		.loc 1 653 5 view .LVU3
 654:Middlewares/lvgl/src/core/lv_obj_style.c ****     bool removed = false;
  53              		.loc 1 654 5 view .LVU4
  54              	.LVL1:
 655:Middlewares/lvgl/src/core/lv_obj_style.c ****     tr = _lv_ll_get_tail(&LV_GC_ROOT(_lv_obj_style_trans_ll));
  55              		.loc 1 655 5 view .LVU5
  56              		.loc 1 655 10 is_stmt 0 view .LVU6
  57 000c 2848     		ldr	r0, .L16
  58              	.LVL2:
  59              		.loc 1 655 10 view .LVU7
  60 000e FFF7FEFF 		bl	_lv_ll_get_tail
  61              	.LVL3:
  62              		.loc 1 655 10 view .LVU8
  63 0012 0446     		mov	r4, r0
  64              	.LVL4:
 656:Middlewares/lvgl/src/core/lv_obj_style.c ****     while(tr != NULL) {
  65              		.loc 1 656 5 is_stmt 1 view .LVU9
 654:Middlewares/lvgl/src/core/lv_obj_style.c ****     bool removed = false;
  66              		.loc 1 654 10 is_stmt 0 view .LVU10
  67 0014 4FF0000B 		mov	fp, #0
  68              		.loc 1 656 10 view .LVU11
  69 0018 07E0     		b	.L2
  70              	.LVL5:
  71              	.L5:
 657:Middlewares/lvgl/src/core/lv_obj_style.c ****         if(tr == tr_limit) break;
 658:Middlewares/lvgl/src/core/lv_obj_style.c **** 
 659:Middlewares/lvgl/src/core/lv_obj_style.c ****         /*'tr' might be deleted, so get the next object while 'tr' is valid*/
 660:Middlewares/lvgl/src/core/lv_obj_style.c ****         tr_prev = _lv_ll_get_prev(&LV_GC_ROOT(_lv_obj_style_trans_ll), tr);
 661:Middlewares/lvgl/src/core/lv_obj_style.c **** 
 662:Middlewares/lvgl/src/core/lv_obj_style.c ****         if(tr->obj == obj && (part == tr->selector || part == LV_PART_ANY) && (prop == tr->prop || 
  72              		.loc 1 662 90 discriminator 4 view .LVU12
  73 001a A388     		ldrh	r3, [r4, #4]
  74              		.loc 1 662 76 discriminator 4 view .LVU13
  75 001c 5345     		cmp	r3, r10
  76 001e 3FD0     		beq	.L12
  77              		.loc 1 662 97 discriminator 5 view .LVU14
  78 0020 4FF6FF73 		movw	r3, #65535
  79 0024 9A45     		cmp	r10, r3
ARM GAS  /tmp/cc7kjK8u.s 			page 14


  80 0026 3DD0     		beq	.L15
  81              	.LVL6:
  82              	.L4:
  83              		.loc 1 662 97 discriminator 5 view .LVU15
  84 0028 2C46     		mov	r4, r5
  85              	.LVL7:
  86              	.L2:
 656:Middlewares/lvgl/src/core/lv_obj_style.c ****     while(tr != NULL) {
  87              		.loc 1 656 10 is_stmt 1 view .LVU16
  88 002a 002C     		cmp	r4, #0
  89 002c 3CD0     		beq	.L3
 657:Middlewares/lvgl/src/core/lv_obj_style.c ****         if(tr == tr_limit) break;
  90              		.loc 1 657 9 view .LVU17
 657:Middlewares/lvgl/src/core/lv_obj_style.c ****         if(tr == tr_limit) break;
  91              		.loc 1 657 11 is_stmt 0 view .LVU18
  92 002e 4445     		cmp	r4, r8
  93 0030 3AD0     		beq	.L3
 660:Middlewares/lvgl/src/core/lv_obj_style.c **** 
  94              		.loc 1 660 9 is_stmt 1 view .LVU19
 660:Middlewares/lvgl/src/core/lv_obj_style.c **** 
  95              		.loc 1 660 19 is_stmt 0 view .LVU20
  96 0032 2146     		mov	r1, r4
  97 0034 1E48     		ldr	r0, .L16
  98 0036 FFF7FEFF 		bl	_lv_ll_get_prev
  99              	.LVL8:
 100 003a 0546     		mov	r5, r0
 101              	.LVL9:
 102              		.loc 1 662 9 is_stmt 1 view .LVU21
 103              		.loc 1 662 14 is_stmt 0 view .LVU22
 104 003c 2368     		ldr	r3, [r4]
 105              		.loc 1 662 11 view .LVU23
 106 003e B342     		cmp	r3, r6
 107 0040 F2D1     		bne	.L4
 108              		.loc 1 662 41 discriminator 1 view .LVU24
 109 0042 A368     		ldr	r3, [r4, #8]
 110              		.loc 1 662 27 discriminator 1 view .LVU25
 111 0044 4B45     		cmp	r3, r9
 112 0046 E8D0     		beq	.L5
 113              		.loc 1 662 52 discriminator 3 view .LVU26
 114 0048 B9F5702F 		cmp	r9, #983040
 115 004c ECD1     		bne	.L4
 116 004e E4E7     		b	.L5
 117              	.LVL10:
 118              	.L8:
 119              	.LBB49:
 663:Middlewares/lvgl/src/core/lv_obj_style.c ****             /*Remove the transitioned property from trans. style
 664:Middlewares/lvgl/src/core/lv_obj_style.c ****              *to allow changing it by normal styles*/
 665:Middlewares/lvgl/src/core/lv_obj_style.c ****             uint32_t i;
 666:Middlewares/lvgl/src/core/lv_obj_style.c ****             for(i = 0; i < obj->style_cnt; i++) {
 667:Middlewares/lvgl/src/core/lv_obj_style.c ****                 if(obj->styles[i].is_trans && (part == LV_PART_ANY || obj->styles[i].selector == pa
 668:Middlewares/lvgl/src/core/lv_obj_style.c ****                     lv_style_remove_prop(obj->styles[i].style, tr->prop);
 120              		.loc 1 668 21 is_stmt 1 view .LVU27
 121 0050 A188     		ldrh	r1, [r4, #4]
 122 0052 1058     		ldr	r0, [r2, r0]
 123 0054 FFF7FEFF 		bl	lv_style_remove_prop
 124              	.LVL11:
 669:Middlewares/lvgl/src/core/lv_obj_style.c ****                     lv_anim_del(tr, NULL);
ARM GAS  /tmp/cc7kjK8u.s 			page 15


 125              		.loc 1 669 21 view .LVU28
 126 0058 0021     		movs	r1, #0
 127 005a 2046     		mov	r0, r4
 128 005c FFF7FEFF 		bl	lv_anim_del
 129              	.LVL12:
 670:Middlewares/lvgl/src/core/lv_obj_style.c ****                     _lv_ll_remove(&LV_GC_ROOT(_lv_obj_style_trans_ll), tr);
 130              		.loc 1 670 21 view .LVU29
 131 0060 2146     		mov	r1, r4
 132 0062 1348     		ldr	r0, .L16
 133 0064 FFF7FEFF 		bl	_lv_ll_remove
 134              	.LVL13:
 671:Middlewares/lvgl/src/core/lv_obj_style.c ****                     lv_mem_free(tr);
 135              		.loc 1 671 21 view .LVU30
 136 0068 2046     		mov	r0, r4
 137 006a FFF7FEFF 		bl	lv_mem_free
 138              	.LVL14:
 672:Middlewares/lvgl/src/core/lv_obj_style.c ****                     removed = true;
 139              		.loc 1 672 21 view .LVU31
 140              		.loc 1 672 29 is_stmt 0 view .LVU32
 141 006e 4FF0010B 		mov	fp, #1
 142              	.LVL15:
 143              	.L7:
 666:Middlewares/lvgl/src/core/lv_obj_style.c ****                 if(obj->styles[i].is_trans && (part == LV_PART_ANY || obj->styles[i].selector == pa
 144              		.loc 1 666 44 is_stmt 1 discriminator 2 view .LVU33
 666:Middlewares/lvgl/src/core/lv_obj_style.c ****                 if(obj->styles[i].is_trans && (part == LV_PART_ANY || obj->styles[i].selector == pa
 145              		.loc 1 666 45 is_stmt 0 discriminator 2 view .LVU34
 146 0072 0137     		adds	r7, r7, #1
 147              	.LVL16:
 148              	.L9:
 666:Middlewares/lvgl/src/core/lv_obj_style.c ****                 if(obj->styles[i].is_trans && (part == LV_PART_ANY || obj->styles[i].selector == pa
 149              		.loc 1 666 24 is_stmt 1 discriminator 1 view .LVU35
 666:Middlewares/lvgl/src/core/lv_obj_style.c ****                 if(obj->styles[i].is_trans && (part == LV_PART_ANY || obj->styles[i].selector == pa
 150              		.loc 1 666 31 is_stmt 0 discriminator 1 view .LVU36
 151 0074 738C     		ldrh	r3, [r6, #34]
 152 0076 C3F3C503 		ubfx	r3, r3, #3, #6
 666:Middlewares/lvgl/src/core/lv_obj_style.c ****                 if(obj->styles[i].is_trans && (part == LV_PART_ANY || obj->styles[i].selector == pa
 153              		.loc 1 666 13 discriminator 1 view .LVU37
 154 007a BB42     		cmp	r3, r7
 155 007c D4D9     		bls	.L4
 667:Middlewares/lvgl/src/core/lv_obj_style.c ****                     lv_style_remove_prop(obj->styles[i].style, tr->prop);
 156              		.loc 1 667 17 is_stmt 1 view .LVU38
 667:Middlewares/lvgl/src/core/lv_obj_style.c ****                     lv_style_remove_prop(obj->styles[i].style, tr->prop);
 157              		.loc 1 667 23 is_stmt 0 view .LVU39
 158 007e F268     		ldr	r2, [r6, #12]
 667:Middlewares/lvgl/src/core/lv_obj_style.c ****                     lv_style_remove_prop(obj->styles[i].style, tr->prop);
 159              		.loc 1 667 31 view .LVU40
 160 0080 F800     		lsls	r0, r7, #3
 161 0082 02EBC703 		add	r3, r2, r7, lsl #3
 667:Middlewares/lvgl/src/core/lv_obj_style.c ****                     lv_style_remove_prop(obj->styles[i].style, tr->prop);
 162              		.loc 1 667 20 view .LVU41
 163 0086 D979     		ldrb	r1, [r3, #7]	@ zero_extendqisi2
 667:Middlewares/lvgl/src/core/lv_obj_style.c ****                     lv_style_remove_prop(obj->styles[i].style, tr->prop);
 164              		.loc 1 667 19 view .LVU42
 165 0088 11F0020F 		tst	r1, #2
 166 008c F1D0     		beq	.L7
 667:Middlewares/lvgl/src/core/lv_obj_style.c ****                     lv_style_remove_prop(obj->styles[i].style, tr->prop);
 167              		.loc 1 667 44 discriminator 1 view .LVU43
ARM GAS  /tmp/cc7kjK8u.s 			page 16


 168 008e B9F5702F 		cmp	r9, #983040
 169 0092 DDD0     		beq	.L8
 667:Middlewares/lvgl/src/core/lv_obj_style.c ****                     lv_style_remove_prop(obj->styles[i].style, tr->prop);
 170              		.loc 1 667 85 discriminator 2 view .LVU44
 171 0094 5B68     		ldr	r3, [r3, #4]
 172 0096 C3F31703 		ubfx	r3, r3, #0, #24
 667:Middlewares/lvgl/src/core/lv_obj_style.c ****                     lv_style_remove_prop(obj->styles[i].style, tr->prop);
 173              		.loc 1 667 68 discriminator 2 view .LVU45
 174 009a 4B45     		cmp	r3, r9
 175 009c E9D1     		bne	.L7
 176 009e D7E7     		b	.L8
 177              	.LVL17:
 178              	.L12:
 667:Middlewares/lvgl/src/core/lv_obj_style.c ****                     lv_style_remove_prop(obj->styles[i].style, tr->prop);
 179              		.loc 1 667 68 discriminator 2 view .LVU46
 180              	.LBE49:
 181 00a0 0027     		movs	r7, #0
 182 00a2 E7E7     		b	.L9
 183              	.L15:
 184 00a4 0027     		movs	r7, #0
 185 00a6 E5E7     		b	.L9
 186              	.LVL18:
 187              	.L3:
 673:Middlewares/lvgl/src/core/lv_obj_style.c ****                 }
 674:Middlewares/lvgl/src/core/lv_obj_style.c ****             }
 675:Middlewares/lvgl/src/core/lv_obj_style.c **** 
 676:Middlewares/lvgl/src/core/lv_obj_style.c ****         }
 677:Middlewares/lvgl/src/core/lv_obj_style.c ****         tr = tr_prev;
 678:Middlewares/lvgl/src/core/lv_obj_style.c ****     }
 679:Middlewares/lvgl/src/core/lv_obj_style.c ****     return removed;
 188              		.loc 1 679 5 is_stmt 1 view .LVU47
 680:Middlewares/lvgl/src/core/lv_obj_style.c **** }
 189              		.loc 1 680 1 is_stmt 0 view .LVU48
 190 00a8 5846     		mov	r0, fp
 191 00aa BDE8F88F 		pop	{r3, r4, r5, r6, r7, r8, r9, r10, fp, pc}
 192              	.LVL19:
 193              	.L17:
 194              		.loc 1 680 1 view .LVU49
 195 00ae 00BF     		.align	2
 196              	.L16:
 197 00b0 00000000 		.word	_lv_obj_style_trans_ll
 198              		.cfi_endproc
 199              	.LFE175:
 201              		.section	.text.refresh_children_style,"ax",%progbits
 202              		.align	1
 203              		.syntax unified
 204              		.thumb
 205              		.thumb_func
 207              	refresh_children_style:
 208              	.LVL20:
 209              	.LFB174:
 628:Middlewares/lvgl/src/core/lv_obj_style.c ****     uint32_t i;
 210              		.loc 1 628 1 is_stmt 1 view -0
 211              		.cfi_startproc
 212              		@ args = 0, pretend = 0, frame = 0
 213              		@ frame_needed = 0, uses_anonymous_args = 0
 628:Middlewares/lvgl/src/core/lv_obj_style.c ****     uint32_t i;
ARM GAS  /tmp/cc7kjK8u.s 			page 17


 214              		.loc 1 628 1 is_stmt 0 view .LVU51
 215 0000 F8B5     		push	{r3, r4, r5, r6, r7, lr}
 216              	.LCFI1:
 217              		.cfi_def_cfa_offset 24
 218              		.cfi_offset 3, -24
 219              		.cfi_offset 4, -20
 220              		.cfi_offset 5, -16
 221              		.cfi_offset 6, -12
 222              		.cfi_offset 7, -8
 223              		.cfi_offset 14, -4
 224 0002 0746     		mov	r7, r0
 629:Middlewares/lvgl/src/core/lv_obj_style.c ****     uint32_t child_cnt = lv_obj_get_child_cnt(obj);
 225              		.loc 1 629 5 is_stmt 1 view .LVU52
 630:Middlewares/lvgl/src/core/lv_obj_style.c ****     for(i = 0; i < child_cnt; i++) {
 226              		.loc 1 630 5 view .LVU53
 630:Middlewares/lvgl/src/core/lv_obj_style.c ****     for(i = 0; i < child_cnt; i++) {
 227              		.loc 1 630 26 is_stmt 0 view .LVU54
 228 0004 FFF7FEFF 		bl	lv_obj_get_child_cnt
 229              	.LVL21:
 630:Middlewares/lvgl/src/core/lv_obj_style.c ****     for(i = 0; i < child_cnt; i++) {
 230              		.loc 1 630 26 view .LVU55
 231 0008 0646     		mov	r6, r0
 232              	.LVL22:
 631:Middlewares/lvgl/src/core/lv_obj_style.c ****         lv_obj_t * child = lv_obj_get_child(obj, i);
 233              		.loc 1 631 5 is_stmt 1 view .LVU56
 631:Middlewares/lvgl/src/core/lv_obj_style.c ****         lv_obj_t * child = lv_obj_get_child(obj, i);
 234              		.loc 1 631 11 is_stmt 0 view .LVU57
 235 000a 0025     		movs	r5, #0
 631:Middlewares/lvgl/src/core/lv_obj_style.c ****         lv_obj_t * child = lv_obj_get_child(obj, i);
 236              		.loc 1 631 5 view .LVU58
 237 000c 12E0     		b	.L19
 238              	.LVL23:
 239              	.L20:
 240              	.LBB50:
 632:Middlewares/lvgl/src/core/lv_obj_style.c ****         lv_obj_invalidate(child);
 241              		.loc 1 632 9 is_stmt 1 discriminator 3 view .LVU59
 632:Middlewares/lvgl/src/core/lv_obj_style.c ****         lv_obj_invalidate(child);
 242              		.loc 1 632 28 is_stmt 0 discriminator 3 view .LVU60
 243 000e 2946     		mov	r1, r5
 244 0010 3846     		mov	r0, r7
 245 0012 FFF7FEFF 		bl	lv_obj_get_child
 246              	.LVL24:
 247 0016 0446     		mov	r4, r0
 248              	.LVL25:
 633:Middlewares/lvgl/src/core/lv_obj_style.c ****         lv_event_send(child, LV_EVENT_STYLE_CHANGED, NULL);
 249              		.loc 1 633 9 is_stmt 1 discriminator 3 view .LVU61
 250 0018 FFF7FEFF 		bl	lv_obj_invalidate
 251              	.LVL26:
 634:Middlewares/lvgl/src/core/lv_obj_style.c ****         lv_obj_invalidate(child);
 252              		.loc 1 634 9 discriminator 3 view .LVU62
 253 001c 0022     		movs	r2, #0
 254 001e 2421     		movs	r1, #36
 255 0020 2046     		mov	r0, r4
 256 0022 FFF7FEFF 		bl	lv_event_send
 257              	.LVL27:
 635:Middlewares/lvgl/src/core/lv_obj_style.c **** 
 258              		.loc 1 635 9 discriminator 3 view .LVU63
ARM GAS  /tmp/cc7kjK8u.s 			page 18


 259 0026 2046     		mov	r0, r4
 260 0028 FFF7FEFF 		bl	lv_obj_invalidate
 261              	.LVL28:
 637:Middlewares/lvgl/src/core/lv_obj_style.c ****     }
 262              		.loc 1 637 9 discriminator 3 view .LVU64
 263 002c 2046     		mov	r0, r4
 264 002e FFF7E7FF 		bl	refresh_children_style
 265              	.LVL29:
 266              	.LBE50:
 631:Middlewares/lvgl/src/core/lv_obj_style.c ****         lv_obj_t * child = lv_obj_get_child(obj, i);
 267              		.loc 1 631 31 discriminator 3 view .LVU65
 631:Middlewares/lvgl/src/core/lv_obj_style.c ****         lv_obj_t * child = lv_obj_get_child(obj, i);
 268              		.loc 1 631 32 is_stmt 0 discriminator 3 view .LVU66
 269 0032 0135     		adds	r5, r5, #1
 270              	.LVL30:
 271              	.L19:
 631:Middlewares/lvgl/src/core/lv_obj_style.c ****         lv_obj_t * child = lv_obj_get_child(obj, i);
 272              		.loc 1 631 16 is_stmt 1 discriminator 1 view .LVU67
 631:Middlewares/lvgl/src/core/lv_obj_style.c ****         lv_obj_t * child = lv_obj_get_child(obj, i);
 273              		.loc 1 631 5 is_stmt 0 discriminator 1 view .LVU68
 274 0034 B542     		cmp	r5, r6
 275 0036 EAD3     		bcc	.L20
 639:Middlewares/lvgl/src/core/lv_obj_style.c **** 
 276              		.loc 1 639 1 view .LVU69
 277 0038 F8BD     		pop	{r3, r4, r5, r6, r7, pc}
 639:Middlewares/lvgl/src/core/lv_obj_style.c **** 
 278              		.loc 1 639 1 view .LVU70
 279              		.cfi_endproc
 280              	.LFE174:
 282              		.section	.text.get_local_style,"ax",%progbits
 283              		.align	1
 284              		.syntax unified
 285              		.thumb
 286              		.thumb_func
 288              	get_local_style:
 289              	.LVL31:
 290              	.LFB169:
 465:Middlewares/lvgl/src/core/lv_obj_style.c ****     uint32_t i;
 291              		.loc 1 465 1 is_stmt 1 view -0
 292              		.cfi_startproc
 293              		@ args = 0, pretend = 0, frame = 0
 294              		@ frame_needed = 0, uses_anonymous_args = 0
 465:Middlewares/lvgl/src/core/lv_obj_style.c ****     uint32_t i;
 295              		.loc 1 465 1 is_stmt 0 view .LVU72
 296 0000 2DE9F041 		push	{r4, r5, r6, r7, r8, lr}
 297              	.LCFI2:
 298              		.cfi_def_cfa_offset 24
 299              		.cfi_offset 4, -24
 300              		.cfi_offset 5, -20
 301              		.cfi_offset 6, -16
 302              		.cfi_offset 7, -12
 303              		.cfi_offset 8, -8
 304              		.cfi_offset 14, -4
 305 0004 0446     		mov	r4, r0
 306 0006 0D46     		mov	r5, r1
 466:Middlewares/lvgl/src/core/lv_obj_style.c ****     for(i = 0; i < obj->style_cnt; i++) {
 307              		.loc 1 466 5 is_stmt 1 view .LVU73
ARM GAS  /tmp/cc7kjK8u.s 			page 19


 467:Middlewares/lvgl/src/core/lv_obj_style.c ****         if(obj->styles[i].is_local &&
 308              		.loc 1 467 5 view .LVU74
 309              	.LVL32:
 467:Middlewares/lvgl/src/core/lv_obj_style.c ****         if(obj->styles[i].is_local &&
 310              		.loc 1 467 11 is_stmt 0 view .LVU75
 311 0008 0022     		movs	r2, #0
 467:Middlewares/lvgl/src/core/lv_obj_style.c ****         if(obj->styles[i].is_local &&
 312              		.loc 1 467 5 view .LVU76
 313 000a 00E0     		b	.L23
 314              	.LVL33:
 315              	.L24:
 467:Middlewares/lvgl/src/core/lv_obj_style.c ****         if(obj->styles[i].is_local &&
 316              		.loc 1 467 36 is_stmt 1 discriminator 2 view .LVU77
 467:Middlewares/lvgl/src/core/lv_obj_style.c ****         if(obj->styles[i].is_local &&
 317              		.loc 1 467 37 is_stmt 0 discriminator 2 view .LVU78
 318 000c 0132     		adds	r2, r2, #1
 319              	.LVL34:
 320              	.L23:
 467:Middlewares/lvgl/src/core/lv_obj_style.c ****         if(obj->styles[i].is_local &&
 321              		.loc 1 467 16 is_stmt 1 discriminator 1 view .LVU79
 467:Middlewares/lvgl/src/core/lv_obj_style.c ****         if(obj->styles[i].is_local &&
 322              		.loc 1 467 23 is_stmt 0 discriminator 1 view .LVU80
 323 000e 638C     		ldrh	r3, [r4, #34]
 324 0010 C3F3C503 		ubfx	r3, r3, #3, #6
 467:Middlewares/lvgl/src/core/lv_obj_style.c ****         if(obj->styles[i].is_local &&
 325              		.loc 1 467 5 discriminator 1 view .LVU81
 326 0014 9342     		cmp	r3, r2
 327 0016 0DD9     		bls	.L33
 468:Middlewares/lvgl/src/core/lv_obj_style.c ****            obj->styles[i].selector == selector)
 328              		.loc 1 468 9 is_stmt 1 view .LVU82
 468:Middlewares/lvgl/src/core/lv_obj_style.c ****            obj->styles[i].selector == selector)
 329              		.loc 1 468 15 is_stmt 0 view .LVU83
 330 0018 E368     		ldr	r3, [r4, #12]
 468:Middlewares/lvgl/src/core/lv_obj_style.c ****            obj->styles[i].selector == selector)
 331              		.loc 1 468 23 view .LVU84
 332 001a 03EBC203 		add	r3, r3, r2, lsl #3
 468:Middlewares/lvgl/src/core/lv_obj_style.c ****            obj->styles[i].selector == selector)
 333              		.loc 1 468 12 view .LVU85
 334 001e D979     		ldrb	r1, [r3, #7]	@ zero_extendqisi2
 468:Middlewares/lvgl/src/core/lv_obj_style.c ****            obj->styles[i].selector == selector)
 335              		.loc 1 468 11 view .LVU86
 336 0020 11F0010F 		tst	r1, #1
 337 0024 F2D0     		beq	.L24
 469:Middlewares/lvgl/src/core/lv_obj_style.c ****         {
 338              		.loc 1 469 26 discriminator 1 view .LVU87
 339 0026 5968     		ldr	r1, [r3, #4]
 340 0028 C1F31701 		ubfx	r1, r1, #0, #24
 468:Middlewares/lvgl/src/core/lv_obj_style.c ****            obj->styles[i].selector == selector)
 341              		.loc 1 468 36 discriminator 1 view .LVU88
 342 002c A942     		cmp	r1, r5
 343 002e EDD1     		bne	.L24
 471:Middlewares/lvgl/src/core/lv_obj_style.c ****         }
 344              		.loc 1 471 13 is_stmt 1 view .LVU89
 471:Middlewares/lvgl/src/core/lv_obj_style.c ****         }
 345              		.loc 1 471 34 is_stmt 0 view .LVU90
 346 0030 1868     		ldr	r0, [r3]
 347              	.LVL35:
ARM GAS  /tmp/cc7kjK8u.s 			page 20


 471:Middlewares/lvgl/src/core/lv_obj_style.c ****         }
 348              		.loc 1 471 34 view .LVU91
 349 0032 46E0     		b	.L22
 350              	.LVL36:
 351              	.L33:
 475:Middlewares/lvgl/src/core/lv_obj_style.c ****     obj->styles = lv_mem_realloc(obj->styles, obj->style_cnt * sizeof(_lv_obj_style_t));
 352              		.loc 1 475 5 is_stmt 1 view .LVU92
 475:Middlewares/lvgl/src/core/lv_obj_style.c ****     obj->styles = lv_mem_realloc(obj->styles, obj->style_cnt * sizeof(_lv_obj_style_t));
 353              		.loc 1 475 19 is_stmt 0 view .LVU93
 354 0034 0133     		adds	r3, r3, #1
 355 0036 03F03F03 		and	r3, r3, #63
 356 003a 628C     		ldrh	r2, [r4, #34]
 357              	.LVL37:
 475:Middlewares/lvgl/src/core/lv_obj_style.c ****     obj->styles = lv_mem_realloc(obj->styles, obj->style_cnt * sizeof(_lv_obj_style_t));
 358              		.loc 1 475 19 view .LVU94
 359 003c 63F3C802 		bfi	r2, r3, #3, #6
 360 0040 6284     		strh	r2, [r4, #34]	@ movhi
 476:Middlewares/lvgl/src/core/lv_obj_style.c ****     LV_ASSERT_MALLOC(obj->styles);
 361              		.loc 1 476 5 is_stmt 1 view .LVU95
 476:Middlewares/lvgl/src/core/lv_obj_style.c ****     LV_ASSERT_MALLOC(obj->styles);
 362              		.loc 1 476 19 is_stmt 0 view .LVU96
 363 0042 D900     		lsls	r1, r3, #3
 364 0044 E068     		ldr	r0, [r4, #12]
 365              	.LVL38:
 476:Middlewares/lvgl/src/core/lv_obj_style.c ****     LV_ASSERT_MALLOC(obj->styles);
 366              		.loc 1 476 19 view .LVU97
 367 0046 FFF7FEFF 		bl	lv_mem_realloc
 368              	.LVL39:
 476:Middlewares/lvgl/src/core/lv_obj_style.c ****     LV_ASSERT_MALLOC(obj->styles);
 369              		.loc 1 476 17 view .LVU98
 370 004a E060     		str	r0, [r4, #12]
 477:Middlewares/lvgl/src/core/lv_obj_style.c **** 
 371              		.loc 1 477 5 is_stmt 1 view .LVU99
 477:Middlewares/lvgl/src/core/lv_obj_style.c **** 
 372              		.loc 1 477 5 view .LVU100
 373 004c B0B1     		cbz	r0, .L28
 477:Middlewares/lvgl/src/core/lv_obj_style.c **** 
 374              		.loc 1 477 5 discriminator 2 view .LVU101
 477:Middlewares/lvgl/src/core/lv_obj_style.c **** 
 375              		.loc 1 477 34 discriminator 2 view .LVU102
 479:Middlewares/lvgl/src/core/lv_obj_style.c ****         /*Copy only normal styles (not local and transition).
 376              		.loc 1 479 5 discriminator 2 view .LVU103
 479:Middlewares/lvgl/src/core/lv_obj_style.c ****         /*Copy only normal styles (not local and transition).
 377              		.loc 1 479 16 is_stmt 0 discriminator 2 view .LVU104
 378 004e 668C     		ldrh	r6, [r4, #34]
 379 0050 C6F3C506 		ubfx	r6, r6, #3, #6
 479:Middlewares/lvgl/src/core/lv_obj_style.c ****         /*Copy only normal styles (not local and transition).
 380              		.loc 1 479 28 discriminator 2 view .LVU105
 381 0054 013E     		subs	r6, r6, #1
 382              	.LVL40:
 383              	.L29:
 479:Middlewares/lvgl/src/core/lv_obj_style.c ****         /*Copy only normal styles (not local and transition).
 384              		.loc 1 479 33 is_stmt 1 discriminator 1 view .LVU106
 479:Middlewares/lvgl/src/core/lv_obj_style.c ****         /*Copy only normal styles (not local and transition).
 385              		.loc 1 479 5 is_stmt 0 discriminator 1 view .LVU107
 386 0056 96B1     		cbz	r6, .L30
 482:Middlewares/lvgl/src/core/lv_obj_style.c ****         obj->styles[i] = obj->styles[i - 1];
ARM GAS  /tmp/cc7kjK8u.s 			page 21


 387              		.loc 1 482 9 is_stmt 1 view .LVU108
 482:Middlewares/lvgl/src/core/lv_obj_style.c ****         obj->styles[i] = obj->styles[i - 1];
 388              		.loc 1 482 15 is_stmt 0 view .LVU109
 389 0058 E268     		ldr	r2, [r4, #12]
 482:Middlewares/lvgl/src/core/lv_obj_style.c ****         obj->styles[i] = obj->styles[i - 1];
 390              		.loc 1 482 23 view .LVU110
 391 005a 06F10053 		add	r3, r6, #536870912
 392 005e 013B     		subs	r3, r3, #1
 393 0060 02EBC303 		add	r3, r2, r3, lsl #3
 482:Middlewares/lvgl/src/core/lv_obj_style.c ****         obj->styles[i] = obj->styles[i - 1];
 394              		.loc 1 482 40 view .LVU111
 395 0064 D979     		ldrb	r1, [r3, #7]	@ zero_extendqisi2
 482:Middlewares/lvgl/src/core/lv_obj_style.c ****         obj->styles[i] = obj->styles[i - 1];
 396              		.loc 1 482 11 view .LVU112
 397 0066 11F0030F 		tst	r1, #3
 398 006a 08D1     		bne	.L30
 483:Middlewares/lvgl/src/core/lv_obj_style.c ****     }
 399              		.loc 1 483 9 is_stmt 1 discriminator 2 view .LVU113
 483:Middlewares/lvgl/src/core/lv_obj_style.c ****     }
 400              		.loc 1 483 20 is_stmt 0 discriminator 2 view .LVU114
 401 006c 02EBC602 		add	r2, r2, r6, lsl #3
 483:Middlewares/lvgl/src/core/lv_obj_style.c ****     }
 402              		.loc 1 483 24 discriminator 2 view .LVU115
 403 0070 93E80300 		ldm	r3, {r0, r1}
 404 0074 82E80300 		stm	r2, {r0, r1}
 479:Middlewares/lvgl/src/core/lv_obj_style.c ****         /*Copy only normal styles (not local and transition).
 405              		.loc 1 479 41 is_stmt 1 discriminator 2 view .LVU116
 479:Middlewares/lvgl/src/core/lv_obj_style.c ****         /*Copy only normal styles (not local and transition).
 406              		.loc 1 479 42 is_stmt 0 discriminator 2 view .LVU117
 407 0078 013E     		subs	r6, r6, #1
 408              	.LVL41:
 479:Middlewares/lvgl/src/core/lv_obj_style.c ****         /*Copy only normal styles (not local and transition).
 409              		.loc 1 479 42 discriminator 2 view .LVU118
 410 007a ECE7     		b	.L29
 411              	.LVL42:
 412              	.L28:
 477:Middlewares/lvgl/src/core/lv_obj_style.c **** 
 413              		.loc 1 477 5 is_stmt 1 discriminator 1 view .LVU119
 477:Middlewares/lvgl/src/core/lv_obj_style.c **** 
 414              		.loc 1 477 5 discriminator 1 view .LVU120
 477:Middlewares/lvgl/src/core/lv_obj_style.c **** 
 415              		.loc 1 477 5 discriminator 1 view .LVU121
 477:Middlewares/lvgl/src/core/lv_obj_style.c **** 
 416              		.loc 1 477 5 discriminator 1 view .LVU122
 417 007c FEE7     		b	.L28
 418              	.LVL43:
 419              	.L30:
 486:Middlewares/lvgl/src/core/lv_obj_style.c ****     obj->styles[i].style = lv_mem_alloc(sizeof(lv_style_t));
 420              		.loc 1 486 5 view .LVU123
 486:Middlewares/lvgl/src/core/lv_obj_style.c ****     obj->styles[i].style = lv_mem_alloc(sizeof(lv_style_t));
 421              		.loc 1 486 22 is_stmt 0 view .LVU124
 422 007e E068     		ldr	r0, [r4, #12]
 486:Middlewares/lvgl/src/core/lv_obj_style.c ****     obj->styles[i].style = lv_mem_alloc(sizeof(lv_style_t));
 423              		.loc 1 486 30 view .LVU125
 424 0080 F700     		lsls	r7, r6, #3
 486:Middlewares/lvgl/src/core/lv_obj_style.c ****     obj->styles[i].style = lv_mem_alloc(sizeof(lv_style_t));
 425              		.loc 1 486 5 view .LVU126
ARM GAS  /tmp/cc7kjK8u.s 			page 22


 426 0082 0821     		movs	r1, #8
 427 0084 00EBC600 		add	r0, r0, r6, lsl #3
 428 0088 FFF7FEFF 		bl	lv_memset_00
 429              	.LVL44:
 487:Middlewares/lvgl/src/core/lv_obj_style.c ****     lv_style_init(obj->styles[i].style);
 430              		.loc 1 487 5 is_stmt 1 view .LVU127
 487:Middlewares/lvgl/src/core/lv_obj_style.c ****     lv_style_init(obj->styles[i].style);
 431              		.loc 1 487 8 is_stmt 0 view .LVU128
 432 008c D4F80C80 		ldr	r8, [r4, #12]
 487:Middlewares/lvgl/src/core/lv_obj_style.c ****     lv_style_init(obj->styles[i].style);
 433              		.loc 1 487 28 view .LVU129
 434 0090 0820     		movs	r0, #8
 435 0092 FFF7FEFF 		bl	lv_mem_alloc
 436              	.LVL45:
 487:Middlewares/lvgl/src/core/lv_obj_style.c ****     lv_style_init(obj->styles[i].style);
 437              		.loc 1 487 26 view .LVU130
 438 0096 48F83600 		str	r0, [r8, r6, lsl #3]
 488:Middlewares/lvgl/src/core/lv_obj_style.c ****     obj->styles[i].is_local = 1;
 439              		.loc 1 488 5 is_stmt 1 view .LVU131
 488:Middlewares/lvgl/src/core/lv_obj_style.c ****     obj->styles[i].is_local = 1;
 440              		.loc 1 488 22 is_stmt 0 view .LVU132
 441 009a E368     		ldr	r3, [r4, #12]
 488:Middlewares/lvgl/src/core/lv_obj_style.c ****     obj->styles[i].is_local = 1;
 442              		.loc 1 488 5 view .LVU133
 443 009c 53F83600 		ldr	r0, [r3, r6, lsl #3]
 444 00a0 FFF7FEFF 		bl	lv_style_init
 445              	.LVL46:
 489:Middlewares/lvgl/src/core/lv_obj_style.c ****     obj->styles[i].selector = selector;
 446              		.loc 1 489 5 is_stmt 1 view .LVU134
 489:Middlewares/lvgl/src/core/lv_obj_style.c ****     obj->styles[i].selector = selector;
 447              		.loc 1 489 8 is_stmt 0 view .LVU135
 448 00a4 E368     		ldr	r3, [r4, #12]
 489:Middlewares/lvgl/src/core/lv_obj_style.c ****     obj->styles[i].selector = selector;
 449              		.loc 1 489 16 view .LVU136
 450 00a6 3B44     		add	r3, r3, r7
 489:Middlewares/lvgl/src/core/lv_obj_style.c ****     obj->styles[i].selector = selector;
 451              		.loc 1 489 29 view .LVU137
 452 00a8 DA79     		ldrb	r2, [r3, #7]	@ zero_extendqisi2
 453 00aa 42F00102 		orr	r2, r2, #1
 454 00ae DA71     		strb	r2, [r3, #7]
 490:Middlewares/lvgl/src/core/lv_obj_style.c ****     return obj->styles[i].style;
 455              		.loc 1 490 5 is_stmt 1 view .LVU138
 490:Middlewares/lvgl/src/core/lv_obj_style.c ****     return obj->styles[i].style;
 456              		.loc 1 490 8 is_stmt 0 view .LVU139
 457 00b0 E368     		ldr	r3, [r4, #12]
 490:Middlewares/lvgl/src/core/lv_obj_style.c ****     return obj->styles[i].style;
 458              		.loc 1 490 16 view .LVU140
 459 00b2 3B44     		add	r3, r3, r7
 490:Middlewares/lvgl/src/core/lv_obj_style.c ****     return obj->styles[i].style;
 460              		.loc 1 490 29 view .LVU141
 461 00b4 5A68     		ldr	r2, [r3, #4]
 462 00b6 65F31702 		bfi	r2, r5, #0, #24
 463              	.LVL47:
 490:Middlewares/lvgl/src/core/lv_obj_style.c ****     return obj->styles[i].style;
 464              		.loc 1 490 29 view .LVU142
 465 00ba 5A60     		str	r2, [r3, #4]
 491:Middlewares/lvgl/src/core/lv_obj_style.c **** }
ARM GAS  /tmp/cc7kjK8u.s 			page 23


 466              		.loc 1 491 5 is_stmt 1 view .LVU143
 491:Middlewares/lvgl/src/core/lv_obj_style.c **** }
 467              		.loc 1 491 15 is_stmt 0 view .LVU144
 468 00bc E368     		ldr	r3, [r4, #12]
 491:Middlewares/lvgl/src/core/lv_obj_style.c **** }
 469              		.loc 1 491 26 view .LVU145
 470 00be 53F83600 		ldr	r0, [r3, r6, lsl #3]
 471              	.LVL48:
 472              	.L22:
 492:Middlewares/lvgl/src/core/lv_obj_style.c **** 
 473              		.loc 1 492 1 view .LVU146
 474 00c2 BDE8F081 		pop	{r4, r5, r6, r7, r8, pc}
 492:Middlewares/lvgl/src/core/lv_obj_style.c **** 
 475              		.loc 1 492 1 view .LVU147
 476              		.cfi_endproc
 477              	.LFE169:
 479              		.section	.text.get_trans_style,"ax",%progbits
 480              		.align	1
 481              		.syntax unified
 482              		.thumb
 483              		.thumb_func
 485              	get_trans_style:
 486              	.LVL49:
 487              	.LFB170:
 503:Middlewares/lvgl/src/core/lv_obj_style.c ****     uint32_t i;
 488              		.loc 1 503 1 is_stmt 1 view -0
 489              		.cfi_startproc
 490              		@ args = 0, pretend = 0, frame = 0
 491              		@ frame_needed = 0, uses_anonymous_args = 0
 503:Middlewares/lvgl/src/core/lv_obj_style.c ****     uint32_t i;
 492              		.loc 1 503 1 is_stmt 0 view .LVU149
 493 0000 70B5     		push	{r4, r5, r6, lr}
 494              	.LCFI3:
 495              		.cfi_def_cfa_offset 16
 496              		.cfi_offset 4, -16
 497              		.cfi_offset 5, -12
 498              		.cfi_offset 6, -8
 499              		.cfi_offset 14, -4
 500 0002 0446     		mov	r4, r0
 501 0004 0D46     		mov	r5, r1
 504:Middlewares/lvgl/src/core/lv_obj_style.c ****     for(i = 0; i < obj->style_cnt; i++) {
 502              		.loc 1 504 5 is_stmt 1 view .LVU150
 505:Middlewares/lvgl/src/core/lv_obj_style.c ****         if(obj->styles[i].is_trans && obj->styles[i].selector == selector) break;
 503              		.loc 1 505 5 view .LVU151
 504              	.LVL50:
 505:Middlewares/lvgl/src/core/lv_obj_style.c ****         if(obj->styles[i].is_trans && obj->styles[i].selector == selector) break;
 505              		.loc 1 505 11 is_stmt 0 view .LVU152
 506 0006 0020     		movs	r0, #0
 507              	.LVL51:
 505:Middlewares/lvgl/src/core/lv_obj_style.c ****         if(obj->styles[i].is_trans && obj->styles[i].selector == selector) break;
 508              		.loc 1 505 5 view .LVU153
 509 0008 00E0     		b	.L35
 510              	.LVL52:
 511              	.L36:
 505:Middlewares/lvgl/src/core/lv_obj_style.c ****         if(obj->styles[i].is_trans && obj->styles[i].selector == selector) break;
 512              		.loc 1 505 36 is_stmt 1 discriminator 2 view .LVU154
 505:Middlewares/lvgl/src/core/lv_obj_style.c ****         if(obj->styles[i].is_trans && obj->styles[i].selector == selector) break;
ARM GAS  /tmp/cc7kjK8u.s 			page 24


 513              		.loc 1 505 37 is_stmt 0 discriminator 2 view .LVU155
 514 000a 0130     		adds	r0, r0, #1
 515              	.LVL53:
 516              	.L35:
 505:Middlewares/lvgl/src/core/lv_obj_style.c ****         if(obj->styles[i].is_trans && obj->styles[i].selector == selector) break;
 517              		.loc 1 505 16 is_stmt 1 discriminator 1 view .LVU156
 505:Middlewares/lvgl/src/core/lv_obj_style.c ****         if(obj->styles[i].is_trans && obj->styles[i].selector == selector) break;
 518              		.loc 1 505 23 is_stmt 0 discriminator 1 view .LVU157
 519 000c 628C     		ldrh	r2, [r4, #34]
 520 000e C2F3C502 		ubfx	r2, r2, #3, #6
 505:Middlewares/lvgl/src/core/lv_obj_style.c ****         if(obj->styles[i].is_trans && obj->styles[i].selector == selector) break;
 521              		.loc 1 505 5 discriminator 1 view .LVU158
 522 0012 8242     		cmp	r2, r0
 523 0014 0BD9     		bls	.L37
 506:Middlewares/lvgl/src/core/lv_obj_style.c ****     }
 524              		.loc 1 506 9 is_stmt 1 view .LVU159
 506:Middlewares/lvgl/src/core/lv_obj_style.c ****     }
 525              		.loc 1 506 15 is_stmt 0 view .LVU160
 526 0016 E368     		ldr	r3, [r4, #12]
 506:Middlewares/lvgl/src/core/lv_obj_style.c ****     }
 527              		.loc 1 506 23 view .LVU161
 528 0018 03EBC003 		add	r3, r3, r0, lsl #3
 506:Middlewares/lvgl/src/core/lv_obj_style.c ****     }
 529              		.loc 1 506 12 view .LVU162
 530 001c D979     		ldrb	r1, [r3, #7]	@ zero_extendqisi2
 506:Middlewares/lvgl/src/core/lv_obj_style.c ****     }
 531              		.loc 1 506 11 view .LVU163
 532 001e 11F0020F 		tst	r1, #2
 533 0022 F2D0     		beq	.L36
 506:Middlewares/lvgl/src/core/lv_obj_style.c ****     }
 534              		.loc 1 506 53 discriminator 1 view .LVU164
 535 0024 5B68     		ldr	r3, [r3, #4]
 536 0026 C3F31703 		ubfx	r3, r3, #0, #24
 506:Middlewares/lvgl/src/core/lv_obj_style.c ****     }
 537              		.loc 1 506 36 discriminator 1 view .LVU165
 538 002a AB42     		cmp	r3, r5
 539 002c EDD1     		bne	.L36
 540              	.L37:
 510:Middlewares/lvgl/src/core/lv_obj_style.c **** 
 541              		.loc 1 510 5 is_stmt 1 view .LVU166
 510:Middlewares/lvgl/src/core/lv_obj_style.c **** 
 542              		.loc 1 510 7 is_stmt 0 view .LVU167
 543 002e 8242     		cmp	r2, r0
 544 0030 03D0     		beq	.L39
 510:Middlewares/lvgl/src/core/lv_obj_style.c **** 
 545              		.loc 1 510 29 is_stmt 1 discriminator 1 view .LVU168
 510:Middlewares/lvgl/src/core/lv_obj_style.c **** 
 546              		.loc 1 510 40 is_stmt 0 discriminator 1 view .LVU169
 547 0032 E368     		ldr	r3, [r4, #12]
 510:Middlewares/lvgl/src/core/lv_obj_style.c **** 
 548              		.loc 1 510 36 discriminator 1 view .LVU170
 549 0034 03EBC000 		add	r0, r3, r0, lsl #3
 550              	.LVL54:
 551              	.L34:
 525:Middlewares/lvgl/src/core/lv_obj_style.c **** 
 552              		.loc 1 525 1 view .LVU171
 553 0038 70BD     		pop	{r4, r5, r6, pc}
ARM GAS  /tmp/cc7kjK8u.s 			page 25


 554              	.LVL55:
 555              	.L39:
 512:Middlewares/lvgl/src/core/lv_obj_style.c ****     obj->styles = lv_mem_realloc(obj->styles, obj->style_cnt * sizeof(_lv_obj_style_t));
 556              		.loc 1 512 5 is_stmt 1 view .LVU172
 512:Middlewares/lvgl/src/core/lv_obj_style.c ****     obj->styles = lv_mem_realloc(obj->styles, obj->style_cnt * sizeof(_lv_obj_style_t));
 557              		.loc 1 512 19 is_stmt 0 view .LVU173
 558 003a 0132     		adds	r2, r2, #1
 559 003c 02F03F02 		and	r2, r2, #63
 560 0040 638C     		ldrh	r3, [r4, #34]
 561 0042 62F3C803 		bfi	r3, r2, #3, #6
 562 0046 6384     		strh	r3, [r4, #34]	@ movhi
 513:Middlewares/lvgl/src/core/lv_obj_style.c **** 
 563              		.loc 1 513 5 is_stmt 1 view .LVU174
 513:Middlewares/lvgl/src/core/lv_obj_style.c **** 
 564              		.loc 1 513 19 is_stmt 0 view .LVU175
 565 0048 D100     		lsls	r1, r2, #3
 566 004a E068     		ldr	r0, [r4, #12]
 567              	.LVL56:
 513:Middlewares/lvgl/src/core/lv_obj_style.c **** 
 568              		.loc 1 513 19 view .LVU176
 569 004c FFF7FEFF 		bl	lv_mem_realloc
 570              	.LVL57:
 513:Middlewares/lvgl/src/core/lv_obj_style.c **** 
 571              		.loc 1 513 17 view .LVU177
 572 0050 E060     		str	r0, [r4, #12]
 515:Middlewares/lvgl/src/core/lv_obj_style.c ****         obj->styles[i] = obj->styles[i - 1];
 573              		.loc 1 515 5 is_stmt 1 view .LVU178
 515:Middlewares/lvgl/src/core/lv_obj_style.c ****         obj->styles[i] = obj->styles[i - 1];
 574              		.loc 1 515 16 is_stmt 0 view .LVU179
 575 0052 668C     		ldrh	r6, [r4, #34]
 576 0054 C6F3C506 		ubfx	r6, r6, #3, #6
 515:Middlewares/lvgl/src/core/lv_obj_style.c ****         obj->styles[i] = obj->styles[i - 1];
 577              		.loc 1 515 28 view .LVU180
 578 0058 013E     		subs	r6, r6, #1
 579              	.LVL58:
 515:Middlewares/lvgl/src/core/lv_obj_style.c ****         obj->styles[i] = obj->styles[i - 1];
 580              		.loc 1 515 5 view .LVU181
 581 005a 0CE0     		b	.L41
 582              	.L42:
 516:Middlewares/lvgl/src/core/lv_obj_style.c ****     }
 583              		.loc 1 516 9 is_stmt 1 discriminator 3 view .LVU182
 516:Middlewares/lvgl/src/core/lv_obj_style.c ****     }
 584              		.loc 1 516 29 is_stmt 0 discriminator 3 view .LVU183
 585 005c E268     		ldr	r2, [r4, #12]
 516:Middlewares/lvgl/src/core/lv_obj_style.c ****     }
 586              		.loc 1 516 37 discriminator 3 view .LVU184
 587 005e 06F10053 		add	r3, r6, #536870912
 588 0062 013B     		subs	r3, r3, #1
 589 0064 02EBC303 		add	r3, r2, r3, lsl #3
 516:Middlewares/lvgl/src/core/lv_obj_style.c ****     }
 590              		.loc 1 516 20 discriminator 3 view .LVU185
 591 0068 02EBC602 		add	r2, r2, r6, lsl #3
 516:Middlewares/lvgl/src/core/lv_obj_style.c ****     }
 592              		.loc 1 516 24 discriminator 3 view .LVU186
 593 006c 93E80300 		ldm	r3, {r0, r1}
 594 0070 82E80300 		stm	r2, {r0, r1}
 515:Middlewares/lvgl/src/core/lv_obj_style.c ****         obj->styles[i] = obj->styles[i - 1];
ARM GAS  /tmp/cc7kjK8u.s 			page 26


 595              		.loc 1 515 41 is_stmt 1 discriminator 3 view .LVU187
 515:Middlewares/lvgl/src/core/lv_obj_style.c ****         obj->styles[i] = obj->styles[i - 1];
 596              		.loc 1 515 42 is_stmt 0 discriminator 3 view .LVU188
 597 0074 013E     		subs	r6, r6, #1
 598              	.LVL59:
 599              	.L41:
 515:Middlewares/lvgl/src/core/lv_obj_style.c ****         obj->styles[i] = obj->styles[i - 1];
 600              		.loc 1 515 33 is_stmt 1 discriminator 1 view .LVU189
 515:Middlewares/lvgl/src/core/lv_obj_style.c ****         obj->styles[i] = obj->styles[i - 1];
 601              		.loc 1 515 5 is_stmt 0 discriminator 1 view .LVU190
 602 0076 002E     		cmp	r6, #0
 603 0078 F0D1     		bne	.L42
 519:Middlewares/lvgl/src/core/lv_obj_style.c ****     obj->styles[0].style = lv_mem_alloc(sizeof(lv_style_t));
 604              		.loc 1 519 5 is_stmt 1 view .LVU191
 605 007a 0821     		movs	r1, #8
 606 007c E068     		ldr	r0, [r4, #12]
 607 007e FFF7FEFF 		bl	lv_memset_00
 608              	.LVL60:
 520:Middlewares/lvgl/src/core/lv_obj_style.c ****     lv_style_init(obj->styles[0].style);
 609              		.loc 1 520 5 view .LVU192
 520:Middlewares/lvgl/src/core/lv_obj_style.c ****     lv_style_init(obj->styles[0].style);
 610              		.loc 1 520 8 is_stmt 0 view .LVU193
 611 0082 E668     		ldr	r6, [r4, #12]
 612              	.LVL61:
 520:Middlewares/lvgl/src/core/lv_obj_style.c ****     lv_style_init(obj->styles[0].style);
 613              		.loc 1 520 28 view .LVU194
 614 0084 0820     		movs	r0, #8
 615 0086 FFF7FEFF 		bl	lv_mem_alloc
 616              	.LVL62:
 520:Middlewares/lvgl/src/core/lv_obj_style.c ****     lv_style_init(obj->styles[0].style);
 617              		.loc 1 520 26 view .LVU195
 618 008a 3060     		str	r0, [r6]
 521:Middlewares/lvgl/src/core/lv_obj_style.c ****     obj->styles[0].is_trans = 1;
 619              		.loc 1 521 5 is_stmt 1 view .LVU196
 521:Middlewares/lvgl/src/core/lv_obj_style.c ****     obj->styles[0].is_trans = 1;
 620              		.loc 1 521 22 is_stmt 0 view .LVU197
 621 008c E368     		ldr	r3, [r4, #12]
 521:Middlewares/lvgl/src/core/lv_obj_style.c ****     obj->styles[0].is_trans = 1;
 622              		.loc 1 521 5 view .LVU198
 623 008e 1868     		ldr	r0, [r3]
 624 0090 FFF7FEFF 		bl	lv_style_init
 625              	.LVL63:
 522:Middlewares/lvgl/src/core/lv_obj_style.c ****     obj->styles[0].selector = selector;
 626              		.loc 1 522 5 is_stmt 1 view .LVU199
 522:Middlewares/lvgl/src/core/lv_obj_style.c ****     obj->styles[0].selector = selector;
 627              		.loc 1 522 8 is_stmt 0 view .LVU200
 628 0094 E268     		ldr	r2, [r4, #12]
 522:Middlewares/lvgl/src/core/lv_obj_style.c ****     obj->styles[0].selector = selector;
 629              		.loc 1 522 29 view .LVU201
 630 0096 D379     		ldrb	r3, [r2, #7]	@ zero_extendqisi2
 631 0098 43F00203 		orr	r3, r3, #2
 632 009c D371     		strb	r3, [r2, #7]
 523:Middlewares/lvgl/src/core/lv_obj_style.c ****     return &obj->styles[0];
 633              		.loc 1 523 5 is_stmt 1 view .LVU202
 523:Middlewares/lvgl/src/core/lv_obj_style.c ****     return &obj->styles[0];
 634              		.loc 1 523 8 is_stmt 0 view .LVU203
 635 009e E368     		ldr	r3, [r4, #12]
ARM GAS  /tmp/cc7kjK8u.s 			page 27


 523:Middlewares/lvgl/src/core/lv_obj_style.c ****     return &obj->styles[0];
 636              		.loc 1 523 29 view .LVU204
 637 00a0 5A68     		ldr	r2, [r3, #4]
 638 00a2 65F31702 		bfi	r2, r5, #0, #24
 639              	.LVL64:
 523:Middlewares/lvgl/src/core/lv_obj_style.c ****     return &obj->styles[0];
 640              		.loc 1 523 29 view .LVU205
 641 00a6 5A60     		str	r2, [r3, #4]
 524:Middlewares/lvgl/src/core/lv_obj_style.c **** }
 642              		.loc 1 524 5 is_stmt 1 view .LVU206
 524:Middlewares/lvgl/src/core/lv_obj_style.c **** }
 643              		.loc 1 524 12 is_stmt 0 view .LVU207
 644 00a8 E068     		ldr	r0, [r4, #12]
 645 00aa C5E7     		b	.L34
 646              		.cfi_endproc
 647              	.LFE170:
 649              		.section	.text.fade_anim_cb,"ax",%progbits
 650              		.align	1
 651              		.syntax unified
 652              		.thumb
 653              		.thumb_func
 655              	fade_anim_cb:
 656              	.LVL65:
 657              	.LFB179:
 681:Middlewares/lvgl/src/core/lv_obj_style.c **** 
 682:Middlewares/lvgl/src/core/lv_obj_style.c **** static void trans_anim_cb(void * _tr, int32_t v)
 683:Middlewares/lvgl/src/core/lv_obj_style.c **** {
 684:Middlewares/lvgl/src/core/lv_obj_style.c ****     trans_t * tr = _tr;
 685:Middlewares/lvgl/src/core/lv_obj_style.c ****     lv_obj_t * obj = tr->obj;
 686:Middlewares/lvgl/src/core/lv_obj_style.c **** 
 687:Middlewares/lvgl/src/core/lv_obj_style.c ****     uint32_t i;
 688:Middlewares/lvgl/src/core/lv_obj_style.c ****     for(i = 0; i < obj->style_cnt; i++) {
 689:Middlewares/lvgl/src/core/lv_obj_style.c ****         if(obj->styles[i].is_trans == 0 || obj->styles[i].selector != tr->selector) continue;
 690:Middlewares/lvgl/src/core/lv_obj_style.c **** 
 691:Middlewares/lvgl/src/core/lv_obj_style.c ****         lv_style_value_t value_final;
 692:Middlewares/lvgl/src/core/lv_obj_style.c ****         switch (tr->prop) {
 693:Middlewares/lvgl/src/core/lv_obj_style.c **** 
 694:Middlewares/lvgl/src/core/lv_obj_style.c ****             case LV_STYLE_BORDER_SIDE:
 695:Middlewares/lvgl/src/core/lv_obj_style.c ****             case LV_STYLE_BORDER_POST:
 696:Middlewares/lvgl/src/core/lv_obj_style.c ****             case LV_STYLE_BLEND_MODE:
 697:Middlewares/lvgl/src/core/lv_obj_style.c ****                 if(v < 255) value_final.num = tr->start_value.num;
 698:Middlewares/lvgl/src/core/lv_obj_style.c ****                 else value_final.num = tr->end_value.num;
 699:Middlewares/lvgl/src/core/lv_obj_style.c ****                 break;
 700:Middlewares/lvgl/src/core/lv_obj_style.c ****             case LV_STYLE_TRANSITION:
 701:Middlewares/lvgl/src/core/lv_obj_style.c ****             case LV_STYLE_TEXT_FONT:
 702:Middlewares/lvgl/src/core/lv_obj_style.c ****                 if(v < 255) value_final.ptr = tr->start_value.ptr;
 703:Middlewares/lvgl/src/core/lv_obj_style.c ****                 else value_final.ptr = tr->end_value.ptr;
 704:Middlewares/lvgl/src/core/lv_obj_style.c ****                 break;
 705:Middlewares/lvgl/src/core/lv_obj_style.c ****             case LV_STYLE_COLOR_FILTER_DSC:
 706:Middlewares/lvgl/src/core/lv_obj_style.c ****                 if(tr->start_value.ptr == NULL) value_final.ptr = tr->end_value.ptr;
 707:Middlewares/lvgl/src/core/lv_obj_style.c ****                 else if(tr->end_value.ptr == NULL) value_final.ptr = tr->start_value.ptr;
 708:Middlewares/lvgl/src/core/lv_obj_style.c ****                 else if(v < 128) value_final.ptr = tr->start_value.ptr;
 709:Middlewares/lvgl/src/core/lv_obj_style.c ****                 else value_final.ptr = tr->end_value.ptr;
 710:Middlewares/lvgl/src/core/lv_obj_style.c ****                 break;
 711:Middlewares/lvgl/src/core/lv_obj_style.c ****             case LV_STYLE_BG_COLOR:
 712:Middlewares/lvgl/src/core/lv_obj_style.c ****             case LV_STYLE_BORDER_COLOR:
 713:Middlewares/lvgl/src/core/lv_obj_style.c ****             case LV_STYLE_TEXT_COLOR:
ARM GAS  /tmp/cc7kjK8u.s 			page 28


 714:Middlewares/lvgl/src/core/lv_obj_style.c ****             case LV_STYLE_SHADOW_COLOR:
 715:Middlewares/lvgl/src/core/lv_obj_style.c ****             case LV_STYLE_OUTLINE_COLOR:
 716:Middlewares/lvgl/src/core/lv_obj_style.c ****             case LV_STYLE_IMG_RECOLOR:
 717:Middlewares/lvgl/src/core/lv_obj_style.c ****                 if(v <= 0) value_final.color = tr->start_value.color;
 718:Middlewares/lvgl/src/core/lv_obj_style.c ****                 else if(v >= 255) value_final.color = tr->end_value.color;
 719:Middlewares/lvgl/src/core/lv_obj_style.c ****                 else value_final.color = lv_color_mix(tr->end_value.color, tr->start_value.color, v
 720:Middlewares/lvgl/src/core/lv_obj_style.c ****                 break;
 721:Middlewares/lvgl/src/core/lv_obj_style.c **** 
 722:Middlewares/lvgl/src/core/lv_obj_style.c ****             default:
 723:Middlewares/lvgl/src/core/lv_obj_style.c ****                 if(v == 0) value_final.num = tr->start_value.num;
 724:Middlewares/lvgl/src/core/lv_obj_style.c ****                 else if(v == 255) value_final.num = tr->end_value.num;
 725:Middlewares/lvgl/src/core/lv_obj_style.c ****                 else value_final.num = tr->start_value.num + ((int32_t)((int32_t)(tr->end_value.num
 726:Middlewares/lvgl/src/core/lv_obj_style.c ****                 break;
 727:Middlewares/lvgl/src/core/lv_obj_style.c ****         }
 728:Middlewares/lvgl/src/core/lv_obj_style.c **** 
 729:Middlewares/lvgl/src/core/lv_obj_style.c ****         lv_style_value_t old_value;
 730:Middlewares/lvgl/src/core/lv_obj_style.c ****         bool refr = true;
 731:Middlewares/lvgl/src/core/lv_obj_style.c ****         if(lv_style_get_prop(obj->styles[i].style, tr->prop, &old_value)) {
 732:Middlewares/lvgl/src/core/lv_obj_style.c ****             if(value_final.ptr == old_value.ptr && value_final.color.full == old_value.color.full &
 733:Middlewares/lvgl/src/core/lv_obj_style.c ****                 refr = false;
 734:Middlewares/lvgl/src/core/lv_obj_style.c ****             }
 735:Middlewares/lvgl/src/core/lv_obj_style.c ****         }
 736:Middlewares/lvgl/src/core/lv_obj_style.c ****         lv_style_set_prop(obj->styles[i].style, tr->prop, value_final);
 737:Middlewares/lvgl/src/core/lv_obj_style.c ****         if (refr) lv_obj_refresh_style(tr->obj, tr->selector, tr->prop);
 738:Middlewares/lvgl/src/core/lv_obj_style.c ****         break;
 739:Middlewares/lvgl/src/core/lv_obj_style.c **** 
 740:Middlewares/lvgl/src/core/lv_obj_style.c ****     }
 741:Middlewares/lvgl/src/core/lv_obj_style.c **** 
 742:Middlewares/lvgl/src/core/lv_obj_style.c **** }
 743:Middlewares/lvgl/src/core/lv_obj_style.c **** 
 744:Middlewares/lvgl/src/core/lv_obj_style.c **** static void trans_anim_start_cb(lv_anim_t * a)
 745:Middlewares/lvgl/src/core/lv_obj_style.c **** {
 746:Middlewares/lvgl/src/core/lv_obj_style.c ****     trans_t * tr = a->var;
 747:Middlewares/lvgl/src/core/lv_obj_style.c **** 
 748:Middlewares/lvgl/src/core/lv_obj_style.c ****     lv_part_t part = lv_obj_style_get_selector_part(tr->selector);
 749:Middlewares/lvgl/src/core/lv_obj_style.c ****     tr->start_value = lv_obj_get_style_prop(tr->obj, part, tr->prop);
 750:Middlewares/lvgl/src/core/lv_obj_style.c **** 
 751:Middlewares/lvgl/src/core/lv_obj_style.c ****     /*Init prop to an invalid values to be sure `trans_del` won't delete this added `tr`*/
 752:Middlewares/lvgl/src/core/lv_obj_style.c ****     lv_style_prop_t prop_tmp = tr->prop;
 753:Middlewares/lvgl/src/core/lv_obj_style.c ****     tr->prop = LV_STYLE_PROP_INV;
 754:Middlewares/lvgl/src/core/lv_obj_style.c **** 
 755:Middlewares/lvgl/src/core/lv_obj_style.c ****     /*Delete the related transitions if any*/
 756:Middlewares/lvgl/src/core/lv_obj_style.c ****     trans_del(tr->obj, part, prop_tmp, tr);
 757:Middlewares/lvgl/src/core/lv_obj_style.c **** 
 758:Middlewares/lvgl/src/core/lv_obj_style.c ****     tr->prop = prop_tmp;
 759:Middlewares/lvgl/src/core/lv_obj_style.c **** 
 760:Middlewares/lvgl/src/core/lv_obj_style.c ****     _lv_obj_style_t * style_trans = get_trans_style(tr->obj, tr->selector);
 761:Middlewares/lvgl/src/core/lv_obj_style.c ****     lv_style_set_prop(style_trans->style, tr->prop, tr->start_value);   /*Be sure `trans_style` has
 762:Middlewares/lvgl/src/core/lv_obj_style.c **** 
 763:Middlewares/lvgl/src/core/lv_obj_style.c **** }
 764:Middlewares/lvgl/src/core/lv_obj_style.c **** 
 765:Middlewares/lvgl/src/core/lv_obj_style.c **** static void trans_anim_ready_cb(lv_anim_t * a)
 766:Middlewares/lvgl/src/core/lv_obj_style.c **** {
 767:Middlewares/lvgl/src/core/lv_obj_style.c ****     trans_t * tr = a->var;
 768:Middlewares/lvgl/src/core/lv_obj_style.c ****     lv_obj_t * obj = tr->obj;
 769:Middlewares/lvgl/src/core/lv_obj_style.c ****     lv_style_prop_t prop = tr->prop;
 770:Middlewares/lvgl/src/core/lv_obj_style.c **** 
ARM GAS  /tmp/cc7kjK8u.s 			page 29


 771:Middlewares/lvgl/src/core/lv_obj_style.c ****     /*Remove the transitioned property from trans. style
 772:Middlewares/lvgl/src/core/lv_obj_style.c ****      *if there no more transitions for this property
 773:Middlewares/lvgl/src/core/lv_obj_style.c ****      *It allows changing it by normal styles*/
 774:Middlewares/lvgl/src/core/lv_obj_style.c ****     bool running = false;
 775:Middlewares/lvgl/src/core/lv_obj_style.c ****     trans_t * tr_i;
 776:Middlewares/lvgl/src/core/lv_obj_style.c ****     _LV_LL_READ(&LV_GC_ROOT(_lv_obj_style_trans_ll), tr_i) {
 777:Middlewares/lvgl/src/core/lv_obj_style.c ****         if(tr_i != tr && tr_i->obj == tr->obj && tr_i->selector == tr->selector && tr_i->prop == tr
 778:Middlewares/lvgl/src/core/lv_obj_style.c ****             running = true;
 779:Middlewares/lvgl/src/core/lv_obj_style.c ****             break;
 780:Middlewares/lvgl/src/core/lv_obj_style.c ****         }
 781:Middlewares/lvgl/src/core/lv_obj_style.c ****     }
 782:Middlewares/lvgl/src/core/lv_obj_style.c **** 
 783:Middlewares/lvgl/src/core/lv_obj_style.c ****     if(!running) {
 784:Middlewares/lvgl/src/core/lv_obj_style.c ****         uint32_t i;
 785:Middlewares/lvgl/src/core/lv_obj_style.c ****         for(i = 0; i < obj->style_cnt; i++) {
 786:Middlewares/lvgl/src/core/lv_obj_style.c ****             if(obj->styles[i].is_trans && obj->styles[i].selector == tr->selector) {
 787:Middlewares/lvgl/src/core/lv_obj_style.c ****                 _lv_ll_remove(&LV_GC_ROOT(_lv_obj_style_trans_ll), tr);
 788:Middlewares/lvgl/src/core/lv_obj_style.c ****                 lv_mem_free(tr);
 789:Middlewares/lvgl/src/core/lv_obj_style.c **** 
 790:Middlewares/lvgl/src/core/lv_obj_style.c ****                 _lv_obj_style_t * obj_style = &obj->styles[i];
 791:Middlewares/lvgl/src/core/lv_obj_style.c ****                 lv_style_remove_prop(obj_style->style, prop);
 792:Middlewares/lvgl/src/core/lv_obj_style.c **** 
 793:Middlewares/lvgl/src/core/lv_obj_style.c ****                 if(lv_style_is_empty(obj->styles[i].style)) {
 794:Middlewares/lvgl/src/core/lv_obj_style.c ****                     lv_obj_remove_style(obj, obj_style->style, obj_style->selector);
 795:Middlewares/lvgl/src/core/lv_obj_style.c **** 
 796:Middlewares/lvgl/src/core/lv_obj_style.c ****                 }
 797:Middlewares/lvgl/src/core/lv_obj_style.c ****                 break;
 798:Middlewares/lvgl/src/core/lv_obj_style.c ****             }
 799:Middlewares/lvgl/src/core/lv_obj_style.c ****         }
 800:Middlewares/lvgl/src/core/lv_obj_style.c ****     }
 801:Middlewares/lvgl/src/core/lv_obj_style.c **** }
 802:Middlewares/lvgl/src/core/lv_obj_style.c **** 
 803:Middlewares/lvgl/src/core/lv_obj_style.c **** static void fade_anim_cb(void * obj, int32_t v)
 804:Middlewares/lvgl/src/core/lv_obj_style.c **** {
 658              		.loc 1 804 1 is_stmt 1 view -0
 659              		.cfi_startproc
 660              		@ args = 0, pretend = 0, frame = 0
 661              		@ frame_needed = 0, uses_anonymous_args = 0
 662              		.loc 1 804 1 is_stmt 0 view .LVU209
 663 0000 08B5     		push	{r3, lr}
 664              	.LCFI4:
 665              		.cfi_def_cfa_offset 8
 666              		.cfi_offset 3, -8
 667              		.cfi_offset 14, -4
 805:Middlewares/lvgl/src/core/lv_obj_style.c ****     lv_obj_set_style_opa(obj, v, 0);
 668              		.loc 1 805 5 is_stmt 1 view .LVU210
 669 0002 0022     		movs	r2, #0
 670 0004 C9B2     		uxtb	r1, r1
 671              	.LVL66:
 672              		.loc 1 805 5 is_stmt 0 view .LVU211
 673 0006 FFF7FEFF 		bl	lv_obj_set_style_opa
 674              	.LVL67:
 806:Middlewares/lvgl/src/core/lv_obj_style.c **** }
 675              		.loc 1 806 1 view .LVU212
 676 000a 08BD     		pop	{r3, pc}
 677              		.cfi_endproc
 678              	.LFE179:
ARM GAS  /tmp/cc7kjK8u.s 			page 30


 680              		.section	.text._lv_obj_style_init,"ax",%progbits
 681              		.align	1
 682              		.global	_lv_obj_style_init
 683              		.syntax unified
 684              		.thumb
 685              		.thumb_func
 687              	_lv_obj_style_init:
 688              	.LFB153:
  72:Middlewares/lvgl/src/core/lv_obj_style.c ****     _lv_ll_init(&LV_GC_ROOT(_lv_obj_style_trans_ll), sizeof(trans_t));
 689              		.loc 1 72 1 is_stmt 1 view -0
 690              		.cfi_startproc
 691              		@ args = 0, pretend = 0, frame = 0
 692              		@ frame_needed = 0, uses_anonymous_args = 0
 693 0000 08B5     		push	{r3, lr}
 694              	.LCFI5:
 695              		.cfi_def_cfa_offset 8
 696              		.cfi_offset 3, -8
 697              		.cfi_offset 14, -4
  73:Middlewares/lvgl/src/core/lv_obj_style.c **** }
 698              		.loc 1 73 5 view .LVU214
 699 0002 1421     		movs	r1, #20
 700 0004 0148     		ldr	r0, .L48
 701 0006 FFF7FEFF 		bl	_lv_ll_init
 702              	.LVL68:
  74:Middlewares/lvgl/src/core/lv_obj_style.c **** 
 703              		.loc 1 74 1 is_stmt 0 view .LVU215
 704 000a 08BD     		pop	{r3, pc}
 705              	.L49:
 706              		.align	2
 707              	.L48:
 708 000c 00000000 		.word	_lv_obj_style_trans_ll
 709              		.cfi_endproc
 710              	.LFE153:
 712              		.section	.text.lv_obj_enable_style_refresh,"ax",%progbits
 713              		.align	1
 714              		.global	lv_obj_enable_style_refresh
 715              		.syntax unified
 716              		.thumb
 717              		.thumb_func
 719              	lv_obj_enable_style_refresh:
 720              	.LVL69:
 721              	.LFB158:
 202:Middlewares/lvgl/src/core/lv_obj_style.c ****     style_refr = en;
 722              		.loc 1 202 1 is_stmt 1 view -0
 723              		.cfi_startproc
 724              		@ args = 0, pretend = 0, frame = 0
 725              		@ frame_needed = 0, uses_anonymous_args = 0
 726              		@ link register save eliminated.
 203:Middlewares/lvgl/src/core/lv_obj_style.c **** }
 727              		.loc 1 203 5 view .LVU217
 203:Middlewares/lvgl/src/core/lv_obj_style.c **** }
 728              		.loc 1 203 16 is_stmt 0 view .LVU218
 729 0000 014B     		ldr	r3, .L51
 730 0002 1870     		strb	r0, [r3]
 204:Middlewares/lvgl/src/core/lv_obj_style.c **** 
 731              		.loc 1 204 1 view .LVU219
 732 0004 7047     		bx	lr
ARM GAS  /tmp/cc7kjK8u.s 			page 31


 733              	.L52:
 734 0006 00BF     		.align	2
 735              	.L51:
 736 0008 00000000 		.word	.LANCHOR0
 737              		.cfi_endproc
 738              	.LFE158:
 740              		.section	.text.lv_obj_get_local_style_prop,"ax",%progbits
 741              		.align	1
 742              		.global	lv_obj_get_local_style_prop
 743              		.syntax unified
 744              		.thumb
 745              		.thumb_func
 747              	lv_obj_get_local_style_prop:
 748              	.LVL70:
 749              	.LFB161:
 260:Middlewares/lvgl/src/core/lv_obj_style.c ****     uint32_t i;
 750              		.loc 1 260 1 is_stmt 1 view -0
 751              		.cfi_startproc
 752              		@ args = 0, pretend = 0, frame = 0
 753              		@ frame_needed = 0, uses_anonymous_args = 0
 260:Middlewares/lvgl/src/core/lv_obj_style.c ****     uint32_t i;
 754              		.loc 1 260 1 is_stmt 0 view .LVU221
 755 0000 10B5     		push	{r4, lr}
 756              	.LCFI6:
 757              		.cfi_def_cfa_offset 8
 758              		.cfi_offset 4, -8
 759              		.cfi_offset 14, -4
 261:Middlewares/lvgl/src/core/lv_obj_style.c ****     for(i = 0; i < obj->style_cnt; i++) {
 760              		.loc 1 261 5 is_stmt 1 view .LVU222
 262:Middlewares/lvgl/src/core/lv_obj_style.c ****         if(obj->styles[i].is_local &&
 761              		.loc 1 262 5 view .LVU223
 762              	.LVL71:
 262:Middlewares/lvgl/src/core/lv_obj_style.c ****         if(obj->styles[i].is_local &&
 763              		.loc 1 262 11 is_stmt 0 view .LVU224
 764 0002 4FF0000E 		mov	lr, #0
 262:Middlewares/lvgl/src/core/lv_obj_style.c ****         if(obj->styles[i].is_local &&
 765              		.loc 1 262 5 view .LVU225
 766 0006 01E0     		b	.L54
 767              	.LVL72:
 768              	.L55:
 262:Middlewares/lvgl/src/core/lv_obj_style.c ****         if(obj->styles[i].is_local &&
 769              		.loc 1 262 36 is_stmt 1 discriminator 2 view .LVU226
 262:Middlewares/lvgl/src/core/lv_obj_style.c ****         if(obj->styles[i].is_local &&
 770              		.loc 1 262 37 is_stmt 0 discriminator 2 view .LVU227
 771 0008 0EF1010E 		add	lr, lr, #1
 772              	.LVL73:
 773              	.L54:
 262:Middlewares/lvgl/src/core/lv_obj_style.c ****         if(obj->styles[i].is_local &&
 774              		.loc 1 262 16 is_stmt 1 discriminator 1 view .LVU228
 262:Middlewares/lvgl/src/core/lv_obj_style.c ****         if(obj->styles[i].is_local &&
 775              		.loc 1 262 23 is_stmt 0 discriminator 1 view .LVU229
 776 000c B0F822C0 		ldrh	ip, [r0, #34]
 777 0010 CCF3C50C 		ubfx	ip, ip, #3, #6
 262:Middlewares/lvgl/src/core/lv_obj_style.c ****         if(obj->styles[i].is_local &&
 778              		.loc 1 262 5 discriminator 1 view .LVU230
 779 0014 F445     		cmp	ip, lr
 780 0016 12D9     		bls	.L59
ARM GAS  /tmp/cc7kjK8u.s 			page 32


 263:Middlewares/lvgl/src/core/lv_obj_style.c ****            obj->styles[i].selector ==  selector)
 781              		.loc 1 263 9 is_stmt 1 view .LVU231
 263:Middlewares/lvgl/src/core/lv_obj_style.c ****            obj->styles[i].selector ==  selector)
 782              		.loc 1 263 23 is_stmt 0 view .LVU232
 783 0018 C468     		ldr	r4, [r0, #12]
 784 001a 04EBCE0C 		add	ip, r4, lr, lsl #3
 263:Middlewares/lvgl/src/core/lv_obj_style.c ****            obj->styles[i].selector ==  selector)
 785              		.loc 1 263 12 view .LVU233
 786 001e 9CF80740 		ldrb	r4, [ip, #7]	@ zero_extendqisi2
 263:Middlewares/lvgl/src/core/lv_obj_style.c ****            obj->styles[i].selector ==  selector)
 787              		.loc 1 263 11 view .LVU234
 788 0022 14F0010F 		tst	r4, #1
 789 0026 EFD0     		beq	.L55
 264:Middlewares/lvgl/src/core/lv_obj_style.c ****         {
 790              		.loc 1 264 26 discriminator 1 view .LVU235
 791 0028 DCF80440 		ldr	r4, [ip, #4]
 792 002c C4F31704 		ubfx	r4, r4, #0, #24
 263:Middlewares/lvgl/src/core/lv_obj_style.c ****            obj->styles[i].selector ==  selector)
 793              		.loc 1 263 36 discriminator 1 view .LVU236
 794 0030 9C42     		cmp	r4, r3
 795 0032 E9D1     		bne	.L55
 266:Middlewares/lvgl/src/core/lv_obj_style.c ****         }
 796              		.loc 1 266 13 is_stmt 1 view .LVU237
 266:Middlewares/lvgl/src/core/lv_obj_style.c ****         }
 797              		.loc 1 266 20 is_stmt 0 view .LVU238
 798 0034 DCF80000 		ldr	r0, [ip]
 799              	.LVL74:
 266:Middlewares/lvgl/src/core/lv_obj_style.c ****         }
 800              		.loc 1 266 20 view .LVU239
 801 0038 FFF7FEFF 		bl	lv_style_get_prop
 802              	.LVL75:
 266:Middlewares/lvgl/src/core/lv_obj_style.c ****         }
 803              		.loc 1 266 20 view .LVU240
 804 003c 00E0     		b	.L56
 805              	.LVL76:
 806              	.L59:
 270:Middlewares/lvgl/src/core/lv_obj_style.c **** }
 807              		.loc 1 270 12 view .LVU241
 808 003e 0020     		movs	r0, #0
 809              	.LVL77:
 810              	.L56:
 271:Middlewares/lvgl/src/core/lv_obj_style.c **** 
 811              		.loc 1 271 1 view .LVU242
 812 0040 10BD     		pop	{r4, pc}
 813              		.cfi_endproc
 814              	.LFE161:
 816              		.section	.text.lv_obj_remove_local_style_prop,"ax",%progbits
 817              		.align	1
 818              		.global	lv_obj_remove_local_style_prop
 819              		.syntax unified
 820              		.thumb
 821              		.thumb_func
 823              	lv_obj_remove_local_style_prop:
 824              	.LVL78:
 825              	.LFB162:
 274:Middlewares/lvgl/src/core/lv_obj_style.c ****     LV_ASSERT_OBJ(obj, MY_CLASS);
 826              		.loc 1 274 1 is_stmt 1 view -0
ARM GAS  /tmp/cc7kjK8u.s 			page 33


 827              		.cfi_startproc
 828              		@ args = 0, pretend = 0, frame = 0
 829              		@ frame_needed = 0, uses_anonymous_args = 0
 274:Middlewares/lvgl/src/core/lv_obj_style.c ****     LV_ASSERT_OBJ(obj, MY_CLASS);
 830              		.loc 1 274 1 is_stmt 0 view .LVU244
 831 0000 10B5     		push	{r4, lr}
 832              	.LCFI7:
 833              		.cfi_def_cfa_offset 8
 834              		.cfi_offset 4, -8
 835              		.cfi_offset 14, -4
 275:Middlewares/lvgl/src/core/lv_obj_style.c **** 
 836              		.loc 1 275 5 is_stmt 1 view .LVU245
 275:Middlewares/lvgl/src/core/lv_obj_style.c **** 
 837              		.loc 1 275 5 view .LVU246
 275:Middlewares/lvgl/src/core/lv_obj_style.c **** 
 838              		.loc 1 275 5 view .LVU247
 277:Middlewares/lvgl/src/core/lv_obj_style.c ****     /*Find the style*/
 839              		.loc 1 277 5 view .LVU248
 279:Middlewares/lvgl/src/core/lv_obj_style.c ****         if(obj->styles[i].is_local &&
 840              		.loc 1 279 5 view .LVU249
 841              	.LVL79:
 279:Middlewares/lvgl/src/core/lv_obj_style.c ****         if(obj->styles[i].is_local &&
 842              		.loc 1 279 11 is_stmt 0 view .LVU250
 843 0002 4FF0000E 		mov	lr, #0
 279:Middlewares/lvgl/src/core/lv_obj_style.c ****         if(obj->styles[i].is_local &&
 844              		.loc 1 279 5 view .LVU251
 845 0006 01E0     		b	.L61
 846              	.LVL80:
 847              	.L62:
 279:Middlewares/lvgl/src/core/lv_obj_style.c ****         if(obj->styles[i].is_local &&
 848              		.loc 1 279 36 is_stmt 1 discriminator 2 view .LVU252
 279:Middlewares/lvgl/src/core/lv_obj_style.c ****         if(obj->styles[i].is_local &&
 849              		.loc 1 279 37 is_stmt 0 discriminator 2 view .LVU253
 850 0008 0EF1010E 		add	lr, lr, #1
 851              	.LVL81:
 852              	.L61:
 279:Middlewares/lvgl/src/core/lv_obj_style.c ****         if(obj->styles[i].is_local &&
 853              		.loc 1 279 16 is_stmt 1 discriminator 1 view .LVU254
 279:Middlewares/lvgl/src/core/lv_obj_style.c ****         if(obj->styles[i].is_local &&
 854              		.loc 1 279 23 is_stmt 0 discriminator 1 view .LVU255
 855 000c B0F822C0 		ldrh	ip, [r0, #34]
 856 0010 CCF3C50C 		ubfx	ip, ip, #3, #6
 279:Middlewares/lvgl/src/core/lv_obj_style.c ****         if(obj->styles[i].is_local &&
 857              		.loc 1 279 5 discriminator 1 view .LVU256
 858 0014 F445     		cmp	ip, lr
 859 0016 0BD9     		bls	.L63
 280:Middlewares/lvgl/src/core/lv_obj_style.c ****            obj->styles[i].selector == selector) {
 860              		.loc 1 280 9 is_stmt 1 view .LVU257
 280:Middlewares/lvgl/src/core/lv_obj_style.c ****            obj->styles[i].selector == selector) {
 861              		.loc 1 280 15 is_stmt 0 view .LVU258
 862 0018 C368     		ldr	r3, [r0, #12]
 280:Middlewares/lvgl/src/core/lv_obj_style.c ****            obj->styles[i].selector == selector) {
 863              		.loc 1 280 23 view .LVU259
 864 001a 03EBCE03 		add	r3, r3, lr, lsl #3
 280:Middlewares/lvgl/src/core/lv_obj_style.c ****            obj->styles[i].selector == selector) {
 865              		.loc 1 280 12 view .LVU260
 866 001e DC79     		ldrb	r4, [r3, #7]	@ zero_extendqisi2
ARM GAS  /tmp/cc7kjK8u.s 			page 34


 280:Middlewares/lvgl/src/core/lv_obj_style.c ****            obj->styles[i].selector == selector) {
 867              		.loc 1 280 11 view .LVU261
 868 0020 14F0010F 		tst	r4, #1
 869 0024 F0D0     		beq	.L62
 281:Middlewares/lvgl/src/core/lv_obj_style.c ****             break;
 870              		.loc 1 281 26 discriminator 1 view .LVU262
 871 0026 5B68     		ldr	r3, [r3, #4]
 872 0028 C3F31703 		ubfx	r3, r3, #0, #24
 280:Middlewares/lvgl/src/core/lv_obj_style.c ****            obj->styles[i].selector == selector) {
 873              		.loc 1 280 36 discriminator 1 view .LVU263
 874 002c 9342     		cmp	r3, r2
 875 002e EBD1     		bne	.L62
 876              	.L63:
 287:Middlewares/lvgl/src/core/lv_obj_style.c **** 
 877              		.loc 1 287 5 is_stmt 1 view .LVU264
 287:Middlewares/lvgl/src/core/lv_obj_style.c **** 
 878              		.loc 1 287 7 is_stmt 0 view .LVU265
 879 0030 F445     		cmp	ip, lr
 880 0032 05D0     		beq	.L66
 289:Middlewares/lvgl/src/core/lv_obj_style.c **** }
 881              		.loc 1 289 5 is_stmt 1 view .LVU266
 289:Middlewares/lvgl/src/core/lv_obj_style.c **** }
 882              		.loc 1 289 36 is_stmt 0 view .LVU267
 883 0034 C368     		ldr	r3, [r0, #12]
 289:Middlewares/lvgl/src/core/lv_obj_style.c **** }
 884              		.loc 1 289 12 view .LVU268
 885 0036 53F83E00 		ldr	r0, [r3, lr, lsl #3]
 886              	.LVL82:
 289:Middlewares/lvgl/src/core/lv_obj_style.c **** }
 887              		.loc 1 289 12 view .LVU269
 888 003a FFF7FEFF 		bl	lv_style_remove_prop
 889              	.LVL83:
 890              	.L65:
 290:Middlewares/lvgl/src/core/lv_obj_style.c **** 
 891              		.loc 1 290 1 view .LVU270
 892 003e 10BD     		pop	{r4, pc}
 893              	.LVL84:
 894              	.L66:
 287:Middlewares/lvgl/src/core/lv_obj_style.c **** 
 895              		.loc 1 287 36 view .LVU271
 896 0040 0020     		movs	r0, #0
 897              	.LVL85:
 287:Middlewares/lvgl/src/core/lv_obj_style.c **** 
 898              		.loc 1 287 36 view .LVU272
 899 0042 FCE7     		b	.L65
 900              		.cfi_endproc
 901              	.LFE162:
 903              		.section	.text.fade_in_anim_ready,"ax",%progbits
 904              		.align	1
 905              		.syntax unified
 906              		.thumb
 907              		.thumb_func
 909              	fade_in_anim_ready:
 910              	.LVL86:
 911              	.LFB180:
 807:Middlewares/lvgl/src/core/lv_obj_style.c **** 
 808:Middlewares/lvgl/src/core/lv_obj_style.c **** static void fade_in_anim_ready(lv_anim_t * a)
ARM GAS  /tmp/cc7kjK8u.s 			page 35


 809:Middlewares/lvgl/src/core/lv_obj_style.c **** {
 912              		.loc 1 809 1 is_stmt 1 view -0
 913              		.cfi_startproc
 914              		@ args = 0, pretend = 0, frame = 0
 915              		@ frame_needed = 0, uses_anonymous_args = 0
 916              		.loc 1 809 1 is_stmt 0 view .LVU274
 917 0000 08B5     		push	{r3, lr}
 918              	.LCFI8:
 919              		.cfi_def_cfa_offset 8
 920              		.cfi_offset 3, -8
 921              		.cfi_offset 14, -4
 810:Middlewares/lvgl/src/core/lv_obj_style.c ****     lv_obj_remove_local_style_prop(a->var, LV_STYLE_OPA, 0);
 922              		.loc 1 810 5 is_stmt 1 view .LVU275
 923 0002 0022     		movs	r2, #0
 924 0004 40F26241 		movw	r1, #1122
 925 0008 0068     		ldr	r0, [r0]
 926              	.LVL87:
 927              		.loc 1 810 5 is_stmt 0 view .LVU276
 928 000a FFF7FEFF 		bl	lv_obj_remove_local_style_prop
 929              	.LVL88:
 811:Middlewares/lvgl/src/core/lv_obj_style.c **** }
 930              		.loc 1 811 1 view .LVU277
 931 000e 08BD     		pop	{r3, pc}
 932              		.cfi_endproc
 933              	.LFE180:
 935              		.section	.text.lv_obj_fade_in,"ax",%progbits
 936              		.align	1
 937              		.global	lv_obj_fade_in
 938              		.syntax unified
 939              		.thumb
 940              		.thumb_func
 942              	lv_obj_fade_in:
 943              	.LVL89:
 944              	.LFB165:
 418:Middlewares/lvgl/src/core/lv_obj_style.c ****     lv_anim_t a;
 945              		.loc 1 418 1 is_stmt 1 view -0
 946              		.cfi_startproc
 947              		@ args = 0, pretend = 0, frame = 72
 948              		@ frame_needed = 0, uses_anonymous_args = 0
 418:Middlewares/lvgl/src/core/lv_obj_style.c ****     lv_anim_t a;
 949              		.loc 1 418 1 is_stmt 0 view .LVU279
 950 0000 70B5     		push	{r4, r5, r6, lr}
 951              	.LCFI9:
 952              		.cfi_def_cfa_offset 16
 953              		.cfi_offset 4, -16
 954              		.cfi_offset 5, -12
 955              		.cfi_offset 6, -8
 956              		.cfi_offset 14, -4
 957 0002 92B0     		sub	sp, sp, #72
 958              	.LCFI10:
 959              		.cfi_def_cfa_offset 88
 960 0004 0646     		mov	r6, r0
 961 0006 0D46     		mov	r5, r1
 962 0008 1446     		mov	r4, r2
 419:Middlewares/lvgl/src/core/lv_obj_style.c ****     lv_anim_init(&a);
 963              		.loc 1 419 5 is_stmt 1 view .LVU280
 420:Middlewares/lvgl/src/core/lv_obj_style.c ****     lv_anim_set_var(&a, obj);
ARM GAS  /tmp/cc7kjK8u.s 			page 36


 964              		.loc 1 420 5 view .LVU281
 965 000a 01A8     		add	r0, sp, #4
 966              	.LVL90:
 420:Middlewares/lvgl/src/core/lv_obj_style.c ****     lv_anim_set_var(&a, obj);
 967              		.loc 1 420 5 is_stmt 0 view .LVU282
 968 000c FFF7FEFF 		bl	lv_anim_init
 969              	.LVL91:
 421:Middlewares/lvgl/src/core/lv_obj_style.c ****     lv_anim_set_values(&a, LV_OPA_TRANSP, LV_OPA_COVER);
 970              		.loc 1 421 5 is_stmt 1 view .LVU283
 971              	.LBB51:
 972              	.LBI51:
 973              		.file 2 "Middlewares/lvgl/src/core/../misc/lv_anim.h"
   1:Middlewares/lvgl/src/core/../misc/lv_anim.h **** /**
   2:Middlewares/lvgl/src/core/../misc/lv_anim.h ****  * @file lv_anim.h
   3:Middlewares/lvgl/src/core/../misc/lv_anim.h ****  *
   4:Middlewares/lvgl/src/core/../misc/lv_anim.h ****  */
   5:Middlewares/lvgl/src/core/../misc/lv_anim.h **** 
   6:Middlewares/lvgl/src/core/../misc/lv_anim.h **** #ifndef LV_ANIM_H
   7:Middlewares/lvgl/src/core/../misc/lv_anim.h **** #define LV_ANIM_H
   8:Middlewares/lvgl/src/core/../misc/lv_anim.h **** 
   9:Middlewares/lvgl/src/core/../misc/lv_anim.h **** #ifdef __cplusplus
  10:Middlewares/lvgl/src/core/../misc/lv_anim.h **** extern "C" {
  11:Middlewares/lvgl/src/core/../misc/lv_anim.h **** #endif
  12:Middlewares/lvgl/src/core/../misc/lv_anim.h **** 
  13:Middlewares/lvgl/src/core/../misc/lv_anim.h **** /*********************
  14:Middlewares/lvgl/src/core/../misc/lv_anim.h ****  *      INCLUDES
  15:Middlewares/lvgl/src/core/../misc/lv_anim.h ****  *********************/
  16:Middlewares/lvgl/src/core/../misc/lv_anim.h **** #include "../lv_conf_internal.h"
  17:Middlewares/lvgl/src/core/../misc/lv_anim.h **** 
  18:Middlewares/lvgl/src/core/../misc/lv_anim.h **** #include <stdint.h>
  19:Middlewares/lvgl/src/core/../misc/lv_anim.h **** #include <stdbool.h>
  20:Middlewares/lvgl/src/core/../misc/lv_anim.h **** #include <string.h>
  21:Middlewares/lvgl/src/core/../misc/lv_anim.h **** 
  22:Middlewares/lvgl/src/core/../misc/lv_anim.h **** /*********************
  23:Middlewares/lvgl/src/core/../misc/lv_anim.h ****  *      DEFINES
  24:Middlewares/lvgl/src/core/../misc/lv_anim.h ****  *********************/
  25:Middlewares/lvgl/src/core/../misc/lv_anim.h **** 
  26:Middlewares/lvgl/src/core/../misc/lv_anim.h **** /**********************
  27:Middlewares/lvgl/src/core/../misc/lv_anim.h ****  *      TYPEDEFS
  28:Middlewares/lvgl/src/core/../misc/lv_anim.h ****  **********************/
  29:Middlewares/lvgl/src/core/../misc/lv_anim.h **** 
  30:Middlewares/lvgl/src/core/../misc/lv_anim.h **** /** Can be used to indicate if animations are enabled or disabled in a case*/
  31:Middlewares/lvgl/src/core/../misc/lv_anim.h **** typedef enum {
  32:Middlewares/lvgl/src/core/../misc/lv_anim.h ****     LV_ANIM_OFF,
  33:Middlewares/lvgl/src/core/../misc/lv_anim.h ****     LV_ANIM_ON,
  34:Middlewares/lvgl/src/core/../misc/lv_anim.h **** }lv_anim_enable_t;
  35:Middlewares/lvgl/src/core/../misc/lv_anim.h **** 
  36:Middlewares/lvgl/src/core/../misc/lv_anim.h **** #define LV_ANIM_REPEAT_INFINITE      0xFFFF
  37:Middlewares/lvgl/src/core/../misc/lv_anim.h **** LV_EXPORT_CONST_INT(LV_ANIM_REPEAT_INFINITE);
  38:Middlewares/lvgl/src/core/../misc/lv_anim.h **** 
  39:Middlewares/lvgl/src/core/../misc/lv_anim.h **** struct _lv_anim_t;
  40:Middlewares/lvgl/src/core/../misc/lv_anim.h **** 
  41:Middlewares/lvgl/src/core/../misc/lv_anim.h **** /** Get the current value during an animation*/
  42:Middlewares/lvgl/src/core/../misc/lv_anim.h **** typedef int32_t (*lv_anim_path_cb_t)(const struct _lv_anim_t *);
  43:Middlewares/lvgl/src/core/../misc/lv_anim.h **** 
  44:Middlewares/lvgl/src/core/../misc/lv_anim.h **** /** Generic prototype of "animator" functions.
  45:Middlewares/lvgl/src/core/../misc/lv_anim.h ****  * First parameter is the variable to animate.
ARM GAS  /tmp/cc7kjK8u.s 			page 37


  46:Middlewares/lvgl/src/core/../misc/lv_anim.h ****  * Second parameter is the value to set.
  47:Middlewares/lvgl/src/core/../misc/lv_anim.h ****  * Compatible with `lv_xxx_set_yyy(obj, value)` functions
  48:Middlewares/lvgl/src/core/../misc/lv_anim.h ****  * The `x` in `_xcb_t` means its not a fully generic prototype because
  49:Middlewares/lvgl/src/core/../misc/lv_anim.h ****  * it doesn't receive `lv_anim_t *` as its first argument*/
  50:Middlewares/lvgl/src/core/../misc/lv_anim.h **** typedef void (*lv_anim_exec_xcb_t)(void *, int32_t);
  51:Middlewares/lvgl/src/core/../misc/lv_anim.h **** 
  52:Middlewares/lvgl/src/core/../misc/lv_anim.h **** /** Same as `lv_anim_exec_xcb_t` but receives `lv_anim_t *` as the first parameter.
  53:Middlewares/lvgl/src/core/../misc/lv_anim.h ****  * It's more consistent but less convenient. Might be used by binding generator functions.*/
  54:Middlewares/lvgl/src/core/../misc/lv_anim.h **** typedef void (*lv_anim_custom_exec_cb_t)(struct _lv_anim_t *, int32_t);
  55:Middlewares/lvgl/src/core/../misc/lv_anim.h **** 
  56:Middlewares/lvgl/src/core/../misc/lv_anim.h **** /** Callback to call when the animation is ready*/
  57:Middlewares/lvgl/src/core/../misc/lv_anim.h **** typedef void (*lv_anim_ready_cb_t)(struct _lv_anim_t *);
  58:Middlewares/lvgl/src/core/../misc/lv_anim.h **** 
  59:Middlewares/lvgl/src/core/../misc/lv_anim.h **** /** Callback to call when the animation really stars (considering `delay`)*/
  60:Middlewares/lvgl/src/core/../misc/lv_anim.h **** typedef void (*lv_anim_start_cb_t)(struct _lv_anim_t *);
  61:Middlewares/lvgl/src/core/../misc/lv_anim.h **** 
  62:Middlewares/lvgl/src/core/../misc/lv_anim.h **** /** Callback used when the animation values are relative to get the current value*/
  63:Middlewares/lvgl/src/core/../misc/lv_anim.h **** typedef int32_t (*lv_anim_get_value_cb_t)(struct _lv_anim_t *);
  64:Middlewares/lvgl/src/core/../misc/lv_anim.h **** 
  65:Middlewares/lvgl/src/core/../misc/lv_anim.h **** /** Describes an animation*/
  66:Middlewares/lvgl/src/core/../misc/lv_anim.h **** typedef struct _lv_anim_t {
  67:Middlewares/lvgl/src/core/../misc/lv_anim.h ****     void * var;                          /**<Variable to animate*/
  68:Middlewares/lvgl/src/core/../misc/lv_anim.h ****     lv_anim_exec_xcb_t exec_cb;          /**< Function to execute to animate*/
  69:Middlewares/lvgl/src/core/../misc/lv_anim.h ****     lv_anim_start_cb_t start_cb;         /**< Call it when the animation is starts (considering `de
  70:Middlewares/lvgl/src/core/../misc/lv_anim.h ****     lv_anim_ready_cb_t ready_cb;         /**< Call it when the animation is ready*/
  71:Middlewares/lvgl/src/core/../misc/lv_anim.h ****     lv_anim_get_value_cb_t get_value_cb; /**< Get the current value in relative mode*/
  72:Middlewares/lvgl/src/core/../misc/lv_anim.h **** #if LV_USE_USER_DATA
  73:Middlewares/lvgl/src/core/../misc/lv_anim.h ****     void * user_data; /**< Custom user data*/
  74:Middlewares/lvgl/src/core/../misc/lv_anim.h **** #endif
  75:Middlewares/lvgl/src/core/../misc/lv_anim.h ****     lv_anim_path_cb_t path_cb;         /**< Describe the path (curve) of animations*/
  76:Middlewares/lvgl/src/core/../misc/lv_anim.h ****     int32_t start_value;               /**< Start value*/
  77:Middlewares/lvgl/src/core/../misc/lv_anim.h ****     int32_t current_value;             /**< Current value*/
  78:Middlewares/lvgl/src/core/../misc/lv_anim.h ****     int32_t end_value;                 /**< End value*/
  79:Middlewares/lvgl/src/core/../misc/lv_anim.h ****     int32_t time;                /**< Animation time in ms*/
  80:Middlewares/lvgl/src/core/../misc/lv_anim.h ****     int32_t act_time;            /**< Current time in animation. Set to negative to make delay.*/
  81:Middlewares/lvgl/src/core/../misc/lv_anim.h ****     uint32_t playback_delay;     /**< Wait before play back*/
  82:Middlewares/lvgl/src/core/../misc/lv_anim.h ****     uint32_t playback_time;      /**< Duration of playback animation*/
  83:Middlewares/lvgl/src/core/../misc/lv_anim.h ****     uint32_t repeat_delay;       /**< Wait before repeat*/
  84:Middlewares/lvgl/src/core/../misc/lv_anim.h ****     uint16_t repeat_cnt;         /**< Repeat count for the animation*/
  85:Middlewares/lvgl/src/core/../misc/lv_anim.h ****     uint8_t early_apply  : 1;    /**< 1: Apply start value immediately even is there is `delay`*/
  86:Middlewares/lvgl/src/core/../misc/lv_anim.h **** 
  87:Middlewares/lvgl/src/core/../misc/lv_anim.h ****     /*Animation system use these - user shouldn't set*/
  88:Middlewares/lvgl/src/core/../misc/lv_anim.h ****     uint8_t playback_now : 1; /**< Play back is in progress*/
  89:Middlewares/lvgl/src/core/../misc/lv_anim.h ****     uint8_t run_round : 1;    /**< Indicates the animation has run in this round*/
  90:Middlewares/lvgl/src/core/../misc/lv_anim.h ****     uint8_t start_cb_called : 1;    /**< Indicates that the `start_cb` was already called*/
  91:Middlewares/lvgl/src/core/../misc/lv_anim.h ****     uint32_t time_orig;
  92:Middlewares/lvgl/src/core/../misc/lv_anim.h **** } lv_anim_t;
  93:Middlewares/lvgl/src/core/../misc/lv_anim.h **** 
  94:Middlewares/lvgl/src/core/../misc/lv_anim.h **** /**********************
  95:Middlewares/lvgl/src/core/../misc/lv_anim.h ****  * GLOBAL PROTOTYPES
  96:Middlewares/lvgl/src/core/../misc/lv_anim.h ****  **********************/
  97:Middlewares/lvgl/src/core/../misc/lv_anim.h **** 
  98:Middlewares/lvgl/src/core/../misc/lv_anim.h **** /**
  99:Middlewares/lvgl/src/core/../misc/lv_anim.h ****  * Init. the animation module
 100:Middlewares/lvgl/src/core/../misc/lv_anim.h ****  */
 101:Middlewares/lvgl/src/core/../misc/lv_anim.h **** void _lv_anim_core_init(void);
 102:Middlewares/lvgl/src/core/../misc/lv_anim.h **** 
ARM GAS  /tmp/cc7kjK8u.s 			page 38


 103:Middlewares/lvgl/src/core/../misc/lv_anim.h **** /**
 104:Middlewares/lvgl/src/core/../misc/lv_anim.h ****  * Initialize an animation variable.
 105:Middlewares/lvgl/src/core/../misc/lv_anim.h ****  * E.g.:
 106:Middlewares/lvgl/src/core/../misc/lv_anim.h ****  * lv_anim_t a;
 107:Middlewares/lvgl/src/core/../misc/lv_anim.h ****  * lv_anim_init(&a);
 108:Middlewares/lvgl/src/core/../misc/lv_anim.h ****  * lv_anim_set_...(&a);
 109:Middlewares/lvgl/src/core/../misc/lv_anim.h ****  * lv_anim_start(&a);
 110:Middlewares/lvgl/src/core/../misc/lv_anim.h ****  * @param a     pointer to an `lv_anim_t` variable to initialize
 111:Middlewares/lvgl/src/core/../misc/lv_anim.h ****  */
 112:Middlewares/lvgl/src/core/../misc/lv_anim.h **** void lv_anim_init(lv_anim_t * a);
 113:Middlewares/lvgl/src/core/../misc/lv_anim.h **** 
 114:Middlewares/lvgl/src/core/../misc/lv_anim.h **** /**
 115:Middlewares/lvgl/src/core/../misc/lv_anim.h ****  * Set a variable to animate
 116:Middlewares/lvgl/src/core/../misc/lv_anim.h ****  * @param a     pointer to an initialized `lv_anim_t` variable
 117:Middlewares/lvgl/src/core/../misc/lv_anim.h ****  * @param var   pointer to a variable to animate
 118:Middlewares/lvgl/src/core/../misc/lv_anim.h ****  */
 119:Middlewares/lvgl/src/core/../misc/lv_anim.h **** static inline void lv_anim_set_var(lv_anim_t * a, void * var)
 974              		.loc 2 119 20 view .LVU284
 975              	.LBB52:
 120:Middlewares/lvgl/src/core/../misc/lv_anim.h **** {
 121:Middlewares/lvgl/src/core/../misc/lv_anim.h ****     a->var = var;
 976              		.loc 2 121 5 view .LVU285
 977              		.loc 2 121 12 is_stmt 0 view .LVU286
 978 0010 0196     		str	r6, [sp, #4]
 979              	.LVL92:
 980              		.loc 2 121 12 view .LVU287
 981              	.LBE52:
 982              	.LBE51:
 422:Middlewares/lvgl/src/core/lv_obj_style.c ****     lv_anim_set_exec_cb(&a, fade_anim_cb);
 983              		.loc 1 422 5 is_stmt 1 view .LVU288
 984              	.LBB53:
 985              	.LBI53:
 122:Middlewares/lvgl/src/core/../misc/lv_anim.h **** }
 123:Middlewares/lvgl/src/core/../misc/lv_anim.h **** 
 124:Middlewares/lvgl/src/core/../misc/lv_anim.h **** /**
 125:Middlewares/lvgl/src/core/../misc/lv_anim.h ****  * Set a function to animate `var`
 126:Middlewares/lvgl/src/core/../misc/lv_anim.h ****  * @param a         pointer to an initialized `lv_anim_t` variable
 127:Middlewares/lvgl/src/core/../misc/lv_anim.h ****  * @param exec_cb   a function to execute during animation
 128:Middlewares/lvgl/src/core/../misc/lv_anim.h ****  *                  LVGL's built-in functions can be used.
 129:Middlewares/lvgl/src/core/../misc/lv_anim.h ****  *                  E.g. lv_obj_set_x
 130:Middlewares/lvgl/src/core/../misc/lv_anim.h ****  */
 131:Middlewares/lvgl/src/core/../misc/lv_anim.h **** static inline void lv_anim_set_exec_cb(lv_anim_t * a, lv_anim_exec_xcb_t exec_cb)
 132:Middlewares/lvgl/src/core/../misc/lv_anim.h **** {
 133:Middlewares/lvgl/src/core/../misc/lv_anim.h ****     a->exec_cb = exec_cb;
 134:Middlewares/lvgl/src/core/../misc/lv_anim.h **** }
 135:Middlewares/lvgl/src/core/../misc/lv_anim.h **** 
 136:Middlewares/lvgl/src/core/../misc/lv_anim.h **** /**
 137:Middlewares/lvgl/src/core/../misc/lv_anim.h ****  * Set the duration of an animation
 138:Middlewares/lvgl/src/core/../misc/lv_anim.h ****  * @param a         pointer to an initialized `lv_anim_t` variable
 139:Middlewares/lvgl/src/core/../misc/lv_anim.h ****  * @param duration  duration of the animation in milliseconds
 140:Middlewares/lvgl/src/core/../misc/lv_anim.h ****  */
 141:Middlewares/lvgl/src/core/../misc/lv_anim.h **** static inline void lv_anim_set_time(lv_anim_t * a, uint32_t duration)
 142:Middlewares/lvgl/src/core/../misc/lv_anim.h **** {
 143:Middlewares/lvgl/src/core/../misc/lv_anim.h ****     a->time = duration;
 144:Middlewares/lvgl/src/core/../misc/lv_anim.h **** }
 145:Middlewares/lvgl/src/core/../misc/lv_anim.h **** 
 146:Middlewares/lvgl/src/core/../misc/lv_anim.h **** /**
ARM GAS  /tmp/cc7kjK8u.s 			page 39


 147:Middlewares/lvgl/src/core/../misc/lv_anim.h ****  * Set a delay before starting the animation
 148:Middlewares/lvgl/src/core/../misc/lv_anim.h ****  * @param a         pointer to an initialized `lv_anim_t` variable
 149:Middlewares/lvgl/src/core/../misc/lv_anim.h ****  * @param delay     delay before the animation in milliseconds
 150:Middlewares/lvgl/src/core/../misc/lv_anim.h ****  */
 151:Middlewares/lvgl/src/core/../misc/lv_anim.h **** static inline void lv_anim_set_delay(lv_anim_t * a, uint32_t delay)
 152:Middlewares/lvgl/src/core/../misc/lv_anim.h **** {
 153:Middlewares/lvgl/src/core/../misc/lv_anim.h ****     a->act_time = -(int32_t)(delay);
 154:Middlewares/lvgl/src/core/../misc/lv_anim.h **** }
 155:Middlewares/lvgl/src/core/../misc/lv_anim.h **** 
 156:Middlewares/lvgl/src/core/../misc/lv_anim.h **** /**
 157:Middlewares/lvgl/src/core/../misc/lv_anim.h ****  * Set the start and end values of an animation
 158:Middlewares/lvgl/src/core/../misc/lv_anim.h ****  * @param a         pointer to an initialized `lv_anim_t` variable
 159:Middlewares/lvgl/src/core/../misc/lv_anim.h ****  * @param start     the start value
 160:Middlewares/lvgl/src/core/../misc/lv_anim.h ****  * @param end       the end value
 161:Middlewares/lvgl/src/core/../misc/lv_anim.h ****  */
 162:Middlewares/lvgl/src/core/../misc/lv_anim.h **** static inline void lv_anim_set_values(lv_anim_t * a, int32_t start, int32_t end)
 986              		.loc 2 162 20 view .LVU289
 987              	.LBB54:
 163:Middlewares/lvgl/src/core/../misc/lv_anim.h **** {
 164:Middlewares/lvgl/src/core/../misc/lv_anim.h ****     a->start_value = start;
 988              		.loc 2 164 5 view .LVU290
 989              		.loc 2 164 20 is_stmt 0 view .LVU291
 990 0012 0023     		movs	r3, #0
 991 0014 0893     		str	r3, [sp, #32]
 165:Middlewares/lvgl/src/core/../misc/lv_anim.h ****     a->current_value = start;
 992              		.loc 2 165 5 is_stmt 1 view .LVU292
 993              		.loc 2 165 22 is_stmt 0 view .LVU293
 994 0016 0993     		str	r3, [sp, #36]
 166:Middlewares/lvgl/src/core/../misc/lv_anim.h ****     a->end_value = end;
 995              		.loc 2 166 5 is_stmt 1 view .LVU294
 996              		.loc 2 166 18 is_stmt 0 view .LVU295
 997 0018 FF23     		movs	r3, #255
 998 001a 0A93     		str	r3, [sp, #40]
 999              	.LVL93:
 1000              		.loc 2 166 18 view .LVU296
 1001              	.LBE54:
 1002              	.LBE53:
 423:Middlewares/lvgl/src/core/lv_obj_style.c ****     lv_anim_set_ready_cb(&a, fade_in_anim_ready);
 1003              		.loc 1 423 5 is_stmt 1 view .LVU297
 1004              	.LBB55:
 1005              	.LBI55:
 131:Middlewares/lvgl/src/core/../misc/lv_anim.h **** {
 1006              		.loc 2 131 20 view .LVU298
 1007              	.LBB56:
 133:Middlewares/lvgl/src/core/../misc/lv_anim.h **** }
 1008              		.loc 2 133 5 view .LVU299
 133:Middlewares/lvgl/src/core/../misc/lv_anim.h **** }
 1009              		.loc 2 133 16 is_stmt 0 view .LVU300
 1010 001c 054B     		ldr	r3, .L72
 1011 001e 0293     		str	r3, [sp, #8]
 1012              	.LVL94:
 133:Middlewares/lvgl/src/core/../misc/lv_anim.h **** }
 1013              		.loc 2 133 16 view .LVU301
 1014              	.LBE56:
 1015              	.LBE55:
 424:Middlewares/lvgl/src/core/lv_obj_style.c ****     lv_anim_set_time(&a, time);
 1016              		.loc 1 424 5 is_stmt 1 view .LVU302
ARM GAS  /tmp/cc7kjK8u.s 			page 40


 1017              	.LBB57:
 1018              	.LBI57:
 167:Middlewares/lvgl/src/core/../misc/lv_anim.h **** }
 168:Middlewares/lvgl/src/core/../misc/lv_anim.h **** 
 169:Middlewares/lvgl/src/core/../misc/lv_anim.h **** /**
 170:Middlewares/lvgl/src/core/../misc/lv_anim.h ****  * Similar to `lv_anim_set_exec_cb` but `lv_anim_custom_exec_cb_t` receives
 171:Middlewares/lvgl/src/core/../misc/lv_anim.h ****  * `lv_anim_t * ` as its first parameter instead of `void *`.
 172:Middlewares/lvgl/src/core/../misc/lv_anim.h ****  * This function might be used when LVGL is binded to other languages because
 173:Middlewares/lvgl/src/core/../misc/lv_anim.h ****  * it's more consistent to have `lv_anim_t *` as first parameter.
 174:Middlewares/lvgl/src/core/../misc/lv_anim.h ****  * The variable to animate can be stored in the animation's `user_sata`
 175:Middlewares/lvgl/src/core/../misc/lv_anim.h ****  * @param a         pointer to an initialized `lv_anim_t` variable
 176:Middlewares/lvgl/src/core/../misc/lv_anim.h ****  * @param exec_cb   a function to execute.
 177:Middlewares/lvgl/src/core/../misc/lv_anim.h ****  */
 178:Middlewares/lvgl/src/core/../misc/lv_anim.h **** static inline void lv_anim_set_custom_exec_cb(lv_anim_t * a, lv_anim_custom_exec_cb_t exec_cb)
 179:Middlewares/lvgl/src/core/../misc/lv_anim.h **** {
 180:Middlewares/lvgl/src/core/../misc/lv_anim.h ****     a->var     = a;
 181:Middlewares/lvgl/src/core/../misc/lv_anim.h ****     a->exec_cb = (lv_anim_exec_xcb_t)exec_cb;
 182:Middlewares/lvgl/src/core/../misc/lv_anim.h **** }
 183:Middlewares/lvgl/src/core/../misc/lv_anim.h **** 
 184:Middlewares/lvgl/src/core/../misc/lv_anim.h **** /**
 185:Middlewares/lvgl/src/core/../misc/lv_anim.h ****  * Set the path (curve) of the animation.
 186:Middlewares/lvgl/src/core/../misc/lv_anim.h ****  * @param a         pointer to an initialized `lv_anim_t` variable
 187:Middlewares/lvgl/src/core/../misc/lv_anim.h ****  * @param path_cb a function the get the current value of the animation.
 188:Middlewares/lvgl/src/core/../misc/lv_anim.h ****  */
 189:Middlewares/lvgl/src/core/../misc/lv_anim.h **** static inline void lv_anim_set_path_cb(lv_anim_t * a, lv_anim_path_cb_t path_cb)
 190:Middlewares/lvgl/src/core/../misc/lv_anim.h **** {
 191:Middlewares/lvgl/src/core/../misc/lv_anim.h ****     a->path_cb = path_cb;
 192:Middlewares/lvgl/src/core/../misc/lv_anim.h **** }
 193:Middlewares/lvgl/src/core/../misc/lv_anim.h **** 
 194:Middlewares/lvgl/src/core/../misc/lv_anim.h **** /**
 195:Middlewares/lvgl/src/core/../misc/lv_anim.h ****  * Set a function call when the animation really starts (considering `delay`)
 196:Middlewares/lvgl/src/core/../misc/lv_anim.h ****  * @param a         pointer to an initialized `lv_anim_t` variable
 197:Middlewares/lvgl/src/core/../misc/lv_anim.h ****  * @param start_cb  a function call when the animation starts
 198:Middlewares/lvgl/src/core/../misc/lv_anim.h ****  */
 199:Middlewares/lvgl/src/core/../misc/lv_anim.h **** static inline void lv_anim_set_start_cb(lv_anim_t * a, lv_anim_ready_cb_t start_cb)
 200:Middlewares/lvgl/src/core/../misc/lv_anim.h **** {
 201:Middlewares/lvgl/src/core/../misc/lv_anim.h ****     a->start_cb = start_cb;
 202:Middlewares/lvgl/src/core/../misc/lv_anim.h **** }
 203:Middlewares/lvgl/src/core/../misc/lv_anim.h **** 
 204:Middlewares/lvgl/src/core/../misc/lv_anim.h **** /**
 205:Middlewares/lvgl/src/core/../misc/lv_anim.h ****  * Set a function to use the current value of the variable and make start and end value
 206:Middlewares/lvgl/src/core/../misc/lv_anim.h ****  * relative the the returned current value.
 207:Middlewares/lvgl/src/core/../misc/lv_anim.h ****  * @param a             pointer to an initialized `lv_anim_t` variable
 208:Middlewares/lvgl/src/core/../misc/lv_anim.h ****  * @param get_value_cb  a function call when the animation starts
 209:Middlewares/lvgl/src/core/../misc/lv_anim.h ****  */
 210:Middlewares/lvgl/src/core/../misc/lv_anim.h **** static inline void lv_anim_set_get_value_cb(lv_anim_t * a, lv_anim_get_value_cb_t get_value_cb)
 211:Middlewares/lvgl/src/core/../misc/lv_anim.h **** {
 212:Middlewares/lvgl/src/core/../misc/lv_anim.h ****     a->get_value_cb = get_value_cb;
 213:Middlewares/lvgl/src/core/../misc/lv_anim.h **** }
 214:Middlewares/lvgl/src/core/../misc/lv_anim.h **** 
 215:Middlewares/lvgl/src/core/../misc/lv_anim.h **** /**
 216:Middlewares/lvgl/src/core/../misc/lv_anim.h ****  * Set a function call when the animation is ready
 217:Middlewares/lvgl/src/core/../misc/lv_anim.h ****  * @param a         pointer to an initialized `lv_anim_t` variable
 218:Middlewares/lvgl/src/core/../misc/lv_anim.h ****  * @param ready_cb  a function call when the animation is ready
 219:Middlewares/lvgl/src/core/../misc/lv_anim.h ****  */
 220:Middlewares/lvgl/src/core/../misc/lv_anim.h **** static inline void lv_anim_set_ready_cb(lv_anim_t * a, lv_anim_ready_cb_t ready_cb)
 1019              		.loc 2 220 20 view .LVU303
ARM GAS  /tmp/cc7kjK8u.s 			page 41


 1020              	.LBB58:
 221:Middlewares/lvgl/src/core/../misc/lv_anim.h **** {
 222:Middlewares/lvgl/src/core/../misc/lv_anim.h ****     a->ready_cb = ready_cb;
 1021              		.loc 2 222 5 view .LVU304
 1022              		.loc 2 222 17 is_stmt 0 view .LVU305
 1023 0020 054B     		ldr	r3, .L72+4
 1024 0022 0493     		str	r3, [sp, #16]
 1025              	.LVL95:
 1026              		.loc 2 222 17 view .LVU306
 1027              	.LBE58:
 1028              	.LBE57:
 425:Middlewares/lvgl/src/core/lv_obj_style.c ****     lv_anim_set_delay(&a, delay);
 1029              		.loc 1 425 5 is_stmt 1 view .LVU307
 1030              	.LBB59:
 1031              	.LBI59:
 141:Middlewares/lvgl/src/core/../misc/lv_anim.h **** {
 1032              		.loc 2 141 20 view .LVU308
 1033              	.LBB60:
 143:Middlewares/lvgl/src/core/../misc/lv_anim.h **** }
 1034              		.loc 2 143 5 view .LVU309
 143:Middlewares/lvgl/src/core/../misc/lv_anim.h **** }
 1035              		.loc 2 143 13 is_stmt 0 view .LVU310
 1036 0024 0B95     		str	r5, [sp, #44]
 1037              	.LVL96:
 143:Middlewares/lvgl/src/core/../misc/lv_anim.h **** }
 1038              		.loc 2 143 13 view .LVU311
 1039              	.LBE60:
 1040              	.LBE59:
 426:Middlewares/lvgl/src/core/lv_obj_style.c ****     lv_anim_start(&a);
 1041              		.loc 1 426 5 is_stmt 1 view .LVU312
 1042              	.LBB61:
 1043              	.LBI61:
 151:Middlewares/lvgl/src/core/../misc/lv_anim.h **** {
 1044              		.loc 2 151 20 view .LVU313
 1045              	.LBB62:
 153:Middlewares/lvgl/src/core/../misc/lv_anim.h **** }
 1046              		.loc 2 153 5 view .LVU314
 153:Middlewares/lvgl/src/core/../misc/lv_anim.h **** }
 1047              		.loc 2 153 19 is_stmt 0 view .LVU315
 1048 0026 6442     		rsbs	r4, r4, #0
 1049              	.LVL97:
 153:Middlewares/lvgl/src/core/../misc/lv_anim.h **** }
 1050              		.loc 2 153 17 view .LVU316
 1051 0028 0C94     		str	r4, [sp, #48]
 1052              	.LVL98:
 153:Middlewares/lvgl/src/core/../misc/lv_anim.h **** }
 1053              		.loc 2 153 17 view .LVU317
 1054              	.LBE62:
 1055              	.LBE61:
 427:Middlewares/lvgl/src/core/lv_obj_style.c **** }
 1056              		.loc 1 427 5 is_stmt 1 view .LVU318
 1057 002a 01A8     		add	r0, sp, #4
 1058 002c FFF7FEFF 		bl	lv_anim_start
 1059              	.LVL99:
 428:Middlewares/lvgl/src/core/lv_obj_style.c **** 
 1060              		.loc 1 428 1 is_stmt 0 view .LVU319
 1061 0030 12B0     		add	sp, sp, #72
ARM GAS  /tmp/cc7kjK8u.s 			page 42


 1062              	.LCFI11:
 1063              		.cfi_def_cfa_offset 16
 1064              		@ sp needed
 1065 0032 70BD     		pop	{r4, r5, r6, pc}
 1066              	.LVL100:
 1067              	.L73:
 428:Middlewares/lvgl/src/core/lv_obj_style.c **** 
 1068              		.loc 1 428 1 view .LVU320
 1069              		.align	2
 1070              	.L72:
 1071 0034 00000000 		.word	fade_anim_cb
 1072 0038 00000000 		.word	fade_in_anim_ready
 1073              		.cfi_endproc
 1074              	.LFE165:
 1076              		.section	.text.lv_obj_fade_out,"ax",%progbits
 1077              		.align	1
 1078              		.global	lv_obj_fade_out
 1079              		.syntax unified
 1080              		.thumb
 1081              		.thumb_func
 1083              	lv_obj_fade_out:
 1084              	.LVL101:
 1085              	.LFB166:
 431:Middlewares/lvgl/src/core/lv_obj_style.c ****     lv_anim_t a;
 1086              		.loc 1 431 1 is_stmt 1 view -0
 1087              		.cfi_startproc
 1088              		@ args = 0, pretend = 0, frame = 72
 1089              		@ frame_needed = 0, uses_anonymous_args = 0
 431:Middlewares/lvgl/src/core/lv_obj_style.c ****     lv_anim_t a;
 1090              		.loc 1 431 1 is_stmt 0 view .LVU322
 1091 0000 70B5     		push	{r4, r5, r6, lr}
 1092              	.LCFI12:
 1093              		.cfi_def_cfa_offset 16
 1094              		.cfi_offset 4, -16
 1095              		.cfi_offset 5, -12
 1096              		.cfi_offset 6, -8
 1097              		.cfi_offset 14, -4
 1098 0002 92B0     		sub	sp, sp, #72
 1099              	.LCFI13:
 1100              		.cfi_def_cfa_offset 88
 1101 0004 0646     		mov	r6, r0
 1102 0006 0D46     		mov	r5, r1
 1103 0008 1446     		mov	r4, r2
 432:Middlewares/lvgl/src/core/lv_obj_style.c ****     lv_anim_init(&a);
 1104              		.loc 1 432 5 is_stmt 1 view .LVU323
 433:Middlewares/lvgl/src/core/lv_obj_style.c ****     lv_anim_set_var(&a, obj);
 1105              		.loc 1 433 5 view .LVU324
 1106 000a 01A8     		add	r0, sp, #4
 1107              	.LVL102:
 433:Middlewares/lvgl/src/core/lv_obj_style.c ****     lv_anim_set_var(&a, obj);
 1108              		.loc 1 433 5 is_stmt 0 view .LVU325
 1109 000c FFF7FEFF 		bl	lv_anim_init
 1110              	.LVL103:
 434:Middlewares/lvgl/src/core/lv_obj_style.c ****     lv_anim_set_values(&a, LV_OPA_COVER, LV_OPA_TRANSP);
 1111              		.loc 1 434 5 is_stmt 1 view .LVU326
 1112              	.LBB63:
 1113              	.LBI63:
ARM GAS  /tmp/cc7kjK8u.s 			page 43


 119:Middlewares/lvgl/src/core/../misc/lv_anim.h **** {
 1114              		.loc 2 119 20 view .LVU327
 1115              	.LBB64:
 121:Middlewares/lvgl/src/core/../misc/lv_anim.h **** }
 1116              		.loc 2 121 5 view .LVU328
 121:Middlewares/lvgl/src/core/../misc/lv_anim.h **** }
 1117              		.loc 2 121 12 is_stmt 0 view .LVU329
 1118 0010 0196     		str	r6, [sp, #4]
 1119              	.LVL104:
 121:Middlewares/lvgl/src/core/../misc/lv_anim.h **** }
 1120              		.loc 2 121 12 view .LVU330
 1121              	.LBE64:
 1122              	.LBE63:
 435:Middlewares/lvgl/src/core/lv_obj_style.c ****     lv_anim_set_exec_cb(&a, fade_anim_cb);
 1123              		.loc 1 435 5 is_stmt 1 view .LVU331
 1124              	.LBB65:
 1125              	.LBI65:
 162:Middlewares/lvgl/src/core/../misc/lv_anim.h **** {
 1126              		.loc 2 162 20 view .LVU332
 1127              	.LBB66:
 164:Middlewares/lvgl/src/core/../misc/lv_anim.h ****     a->current_value = start;
 1128              		.loc 2 164 5 view .LVU333
 164:Middlewares/lvgl/src/core/../misc/lv_anim.h ****     a->current_value = start;
 1129              		.loc 2 164 20 is_stmt 0 view .LVU334
 1130 0012 FF23     		movs	r3, #255
 1131 0014 0893     		str	r3, [sp, #32]
 165:Middlewares/lvgl/src/core/../misc/lv_anim.h ****     a->end_value = end;
 1132              		.loc 2 165 5 is_stmt 1 view .LVU335
 165:Middlewares/lvgl/src/core/../misc/lv_anim.h ****     a->end_value = end;
 1133              		.loc 2 165 22 is_stmt 0 view .LVU336
 1134 0016 0993     		str	r3, [sp, #36]
 166:Middlewares/lvgl/src/core/../misc/lv_anim.h **** }
 1135              		.loc 2 166 5 is_stmt 1 view .LVU337
 166:Middlewares/lvgl/src/core/../misc/lv_anim.h **** }
 1136              		.loc 2 166 18 is_stmt 0 view .LVU338
 1137 0018 0023     		movs	r3, #0
 1138 001a 0A93     		str	r3, [sp, #40]
 1139              	.LVL105:
 166:Middlewares/lvgl/src/core/../misc/lv_anim.h **** }
 1140              		.loc 2 166 18 view .LVU339
 1141              	.LBE66:
 1142              	.LBE65:
 436:Middlewares/lvgl/src/core/lv_obj_style.c ****     lv_anim_set_time(&a, time);
 1143              		.loc 1 436 5 is_stmt 1 view .LVU340
 1144              	.LBB67:
 1145              	.LBI67:
 131:Middlewares/lvgl/src/core/../misc/lv_anim.h **** {
 1146              		.loc 2 131 20 view .LVU341
 1147              	.LBB68:
 133:Middlewares/lvgl/src/core/../misc/lv_anim.h **** }
 1148              		.loc 2 133 5 view .LVU342
 133:Middlewares/lvgl/src/core/../misc/lv_anim.h **** }
 1149              		.loc 2 133 16 is_stmt 0 view .LVU343
 1150 001c 044B     		ldr	r3, .L76
 1151 001e 0293     		str	r3, [sp, #8]
 1152              	.LVL106:
 133:Middlewares/lvgl/src/core/../misc/lv_anim.h **** }
ARM GAS  /tmp/cc7kjK8u.s 			page 44


 1153              		.loc 2 133 16 view .LVU344
 1154              	.LBE68:
 1155              	.LBE67:
 437:Middlewares/lvgl/src/core/lv_obj_style.c ****     lv_anim_set_delay(&a, delay);
 1156              		.loc 1 437 5 is_stmt 1 view .LVU345
 1157              	.LBB69:
 1158              	.LBI69:
 141:Middlewares/lvgl/src/core/../misc/lv_anim.h **** {
 1159              		.loc 2 141 20 view .LVU346
 1160              	.LBB70:
 143:Middlewares/lvgl/src/core/../misc/lv_anim.h **** }
 1161              		.loc 2 143 5 view .LVU347
 143:Middlewares/lvgl/src/core/../misc/lv_anim.h **** }
 1162              		.loc 2 143 13 is_stmt 0 view .LVU348
 1163 0020 0B95     		str	r5, [sp, #44]
 1164              	.LVL107:
 143:Middlewares/lvgl/src/core/../misc/lv_anim.h **** }
 1165              		.loc 2 143 13 view .LVU349
 1166              	.LBE70:
 1167              	.LBE69:
 438:Middlewares/lvgl/src/core/lv_obj_style.c ****     lv_anim_start(&a);
 1168              		.loc 1 438 5 is_stmt 1 view .LVU350
 1169              	.LBB71:
 1170              	.LBI71:
 151:Middlewares/lvgl/src/core/../misc/lv_anim.h **** {
 1171              		.loc 2 151 20 view .LVU351
 1172              	.LBB72:
 153:Middlewares/lvgl/src/core/../misc/lv_anim.h **** }
 1173              		.loc 2 153 5 view .LVU352
 153:Middlewares/lvgl/src/core/../misc/lv_anim.h **** }
 1174              		.loc 2 153 19 is_stmt 0 view .LVU353
 1175 0022 6442     		rsbs	r4, r4, #0
 1176              	.LVL108:
 153:Middlewares/lvgl/src/core/../misc/lv_anim.h **** }
 1177              		.loc 2 153 17 view .LVU354
 1178 0024 0C94     		str	r4, [sp, #48]
 1179              	.LVL109:
 153:Middlewares/lvgl/src/core/../misc/lv_anim.h **** }
 1180              		.loc 2 153 17 view .LVU355
 1181              	.LBE72:
 1182              	.LBE71:
 439:Middlewares/lvgl/src/core/lv_obj_style.c **** }
 1183              		.loc 1 439 5 is_stmt 1 view .LVU356
 1184 0026 01A8     		add	r0, sp, #4
 1185 0028 FFF7FEFF 		bl	lv_anim_start
 1186              	.LVL110:
 440:Middlewares/lvgl/src/core/lv_obj_style.c **** 
 1187              		.loc 1 440 1 is_stmt 0 view .LVU357
 1188 002c 12B0     		add	sp, sp, #72
 1189              	.LCFI14:
 1190              		.cfi_def_cfa_offset 16
 1191              		@ sp needed
 1192 002e 70BD     		pop	{r4, r5, r6, pc}
 1193              	.LVL111:
 1194              	.L77:
 440:Middlewares/lvgl/src/core/lv_obj_style.c **** 
 1195              		.loc 1 440 1 view .LVU358
ARM GAS  /tmp/cc7kjK8u.s 			page 45


 1196              		.align	2
 1197              	.L76:
 1198 0030 00000000 		.word	fade_anim_cb
 1199              		.cfi_endproc
 1200              	.LFE166:
 1202              		.section	.text.lv_obj_style_get_selector_state,"ax",%progbits
 1203              		.align	1
 1204              		.global	lv_obj_style_get_selector_state
 1205              		.syntax unified
 1206              		.thumb
 1207              		.thumb_func
 1209              	lv_obj_style_get_selector_state:
 1210              	.LVL112:
 1211              	.LFB167:
 443:Middlewares/lvgl/src/core/lv_obj_style.c ****     return selector & 0xFFFF;
 1212              		.loc 1 443 1 is_stmt 1 view -0
 1213              		.cfi_startproc
 1214              		@ args = 0, pretend = 0, frame = 0
 1215              		@ frame_needed = 0, uses_anonymous_args = 0
 1216              		@ link register save eliminated.
 444:Middlewares/lvgl/src/core/lv_obj_style.c **** }
 1217              		.loc 1 444 5 view .LVU360
 445:Middlewares/lvgl/src/core/lv_obj_style.c **** 
 1218              		.loc 1 445 1 is_stmt 0 view .LVU361
 1219 0000 80B2     		uxth	r0, r0
 1220              	.LVL113:
 445:Middlewares/lvgl/src/core/lv_obj_style.c **** 
 1221              		.loc 1 445 1 view .LVU362
 1222 0002 7047     		bx	lr
 1223              		.cfi_endproc
 1224              	.LFE167:
 1226              		.section	.text.lv_obj_style_get_selector_part,"ax",%progbits
 1227              		.align	1
 1228              		.global	lv_obj_style_get_selector_part
 1229              		.syntax unified
 1230              		.thumb
 1231              		.thumb_func
 1233              	lv_obj_style_get_selector_part:
 1234              	.LVL114:
 1235              	.LFB168:
 448:Middlewares/lvgl/src/core/lv_obj_style.c ****     return selector & 0xFF0000;
 1236              		.loc 1 448 1 is_stmt 1 view -0
 1237              		.cfi_startproc
 1238              		@ args = 0, pretend = 0, frame = 0
 1239              		@ frame_needed = 0, uses_anonymous_args = 0
 1240              		@ link register save eliminated.
 449:Middlewares/lvgl/src/core/lv_obj_style.c **** }
 1241              		.loc 1 449 5 view .LVU364
 450:Middlewares/lvgl/src/core/lv_obj_style.c **** 
 1242              		.loc 1 450 1 is_stmt 0 view .LVU365
 1243 0000 00F47F00 		and	r0, r0, #16711680
 1244              	.LVL115:
 450:Middlewares/lvgl/src/core/lv_obj_style.c **** 
 1245              		.loc 1 450 1 view .LVU366
 1246 0004 7047     		bx	lr
 1247              		.cfi_endproc
 1248              	.LFE168:
ARM GAS  /tmp/cc7kjK8u.s 			page 46


 1250              		.section	.text.lv_obj_refresh_style,"ax",%progbits
 1251              		.align	1
 1252              		.global	lv_obj_refresh_style
 1253              		.syntax unified
 1254              		.thumb
 1255              		.thumb_func
 1257              	lv_obj_refresh_style:
 1258              	.LVL116:
 1259              	.LFB157:
 169:Middlewares/lvgl/src/core/lv_obj_style.c ****     LV_ASSERT_OBJ(obj, MY_CLASS);
 1260              		.loc 1 169 1 is_stmt 1 view -0
 1261              		.cfi_startproc
 1262              		@ args = 0, pretend = 0, frame = 0
 1263              		@ frame_needed = 0, uses_anonymous_args = 0
 170:Middlewares/lvgl/src/core/lv_obj_style.c **** 
 1264              		.loc 1 170 5 view .LVU368
 170:Middlewares/lvgl/src/core/lv_obj_style.c **** 
 1265              		.loc 1 170 5 view .LVU369
 170:Middlewares/lvgl/src/core/lv_obj_style.c **** 
 1266              		.loc 1 170 5 view .LVU370
 172:Middlewares/lvgl/src/core/lv_obj_style.c **** 
 1267              		.loc 1 172 5 view .LVU371
 172:Middlewares/lvgl/src/core/lv_obj_style.c **** 
 1268              		.loc 1 172 8 is_stmt 0 view .LVU372
 1269 0000 284B     		ldr	r3, .L97
 1270 0002 1B78     		ldrb	r3, [r3]	@ zero_extendqisi2
 172:Middlewares/lvgl/src/core/lv_obj_style.c **** 
 1271              		.loc 1 172 7 view .LVU373
 1272 0004 03B9     		cbnz	r3, .L95
 1273 0006 7047     		bx	lr
 1274              	.L95:
 169:Middlewares/lvgl/src/core/lv_obj_style.c ****     LV_ASSERT_OBJ(obj, MY_CLASS);
 1275              		.loc 1 169 1 view .LVU374
 1276 0008 70B5     		push	{r4, r5, r6, lr}
 1277              	.LCFI15:
 1278              		.cfi_def_cfa_offset 16
 1279              		.cfi_offset 4, -16
 1280              		.cfi_offset 5, -12
 1281              		.cfi_offset 6, -8
 1282              		.cfi_offset 14, -4
 1283 000a 0646     		mov	r6, r0
 1284 000c 0D46     		mov	r5, r1
 1285 000e 1446     		mov	r4, r2
 174:Middlewares/lvgl/src/core/lv_obj_style.c **** 
 1286              		.loc 1 174 5 is_stmt 1 view .LVU375
 1287 0010 FFF7FEFF 		bl	lv_obj_invalidate
 1288              	.LVL117:
 176:Middlewares/lvgl/src/core/lv_obj_style.c **** 
 1289              		.loc 1 176 5 view .LVU376
 176:Middlewares/lvgl/src/core/lv_obj_style.c **** 
 1290              		.loc 1 176 22 is_stmt 0 view .LVU377
 1291 0014 2846     		mov	r0, r5
 1292 0016 FFF7FEFF 		bl	lv_obj_style_get_selector_part
 1293              	.LVL118:
 1294 001a 0546     		mov	r5, r0
 1295              	.LVL119:
 178:Middlewares/lvgl/src/core/lv_obj_style.c ****         lv_event_send(obj, LV_EVENT_STYLE_CHANGED, NULL);
ARM GAS  /tmp/cc7kjK8u.s 			page 47


 1296              		.loc 1 178 5 is_stmt 1 view .LVU378
 178:Middlewares/lvgl/src/core/lv_obj_style.c ****         lv_event_send(obj, LV_EVENT_STYLE_CHANGED, NULL);
 1297              		.loc 1 178 7 is_stmt 0 view .LVU379
 1298 001c B0F5702F 		cmp	r0, #983040
 1299 0020 00D0     		beq	.L82
 178:Middlewares/lvgl/src/core/lv_obj_style.c ****         lv_event_send(obj, LV_EVENT_STYLE_CHANGED, NULL);
 1300              		.loc 1 178 29 discriminator 2 view .LVU380
 1301 0022 70B9     		cbnz	r0, .L83
 1302              	.L82:
 178:Middlewares/lvgl/src/core/lv_obj_style.c ****         lv_event_send(obj, LV_EVENT_STYLE_CHANGED, NULL);
 1303              		.loc 1 178 54 discriminator 3 view .LVU381
 1304 0024 4FF6FF73 		movw	r3, #65535
 1305 0028 9C42     		cmp	r4, r3
 1306 002a 02D0     		beq	.L84
 178:Middlewares/lvgl/src/core/lv_obj_style.c ****         lv_event_send(obj, LV_EVENT_STYLE_CHANGED, NULL);
 1307              		.loc 1 178 84 discriminator 4 view .LVU382
 1308 002c 14F4805F 		tst	r4, #4096
 1309 0030 07D0     		beq	.L83
 1310              	.L84:
 179:Middlewares/lvgl/src/core/lv_obj_style.c ****         lv_obj_mark_layout_as_dirty(obj);
 1311              		.loc 1 179 9 is_stmt 1 view .LVU383
 1312 0032 0022     		movs	r2, #0
 1313 0034 2421     		movs	r1, #36
 1314 0036 3046     		mov	r0, r6
 1315              	.LVL120:
 179:Middlewares/lvgl/src/core/lv_obj_style.c ****         lv_obj_mark_layout_as_dirty(obj);
 1316              		.loc 1 179 9 is_stmt 0 view .LVU384
 1317 0038 FFF7FEFF 		bl	lv_event_send
 1318              	.LVL121:
 180:Middlewares/lvgl/src/core/lv_obj_style.c ****     }
 1319              		.loc 1 180 9 is_stmt 1 view .LVU385
 1320 003c 3046     		mov	r0, r6
 1321 003e FFF7FEFF 		bl	lv_obj_mark_layout_as_dirty
 1322              	.LVL122:
 1323              	.L83:
 182:Middlewares/lvgl/src/core/lv_obj_style.c ****         lv_obj_t * parent = lv_obj_get_parent(obj);
 1324              		.loc 1 182 5 view .LVU386
 182:Middlewares/lvgl/src/core/lv_obj_style.c ****         lv_obj_t * parent = lv_obj_get_parent(obj);
 1325              		.loc 1 182 7 is_stmt 0 view .LVU387
 1326 0042 B5F5702F 		cmp	r5, #983040
 1327 0046 00D0     		beq	.L85
 182:Middlewares/lvgl/src/core/lv_obj_style.c ****         lv_obj_t * parent = lv_obj_get_parent(obj);
 1328              		.loc 1 182 29 discriminator 2 view .LVU388
 1329 0048 65B9     		cbnz	r5, .L86
 1330              	.L85:
 182:Middlewares/lvgl/src/core/lv_obj_style.c ****         lv_obj_t * parent = lv_obj_get_parent(obj);
 1331              		.loc 1 182 54 discriminator 3 view .LVU389
 1332 004a 4FF6FF73 		movw	r3, #65535
 1333 004e 9C42     		cmp	r4, r3
 1334 0050 02D0     		beq	.L87
 182:Middlewares/lvgl/src/core/lv_obj_style.c ****         lv_obj_t * parent = lv_obj_get_parent(obj);
 1335              		.loc 1 182 84 discriminator 4 view .LVU390
 1336 0052 14F4005F 		tst	r4, #8192
 1337 0056 05D0     		beq	.L86
 1338              	.L87:
 1339              	.LBB73:
 183:Middlewares/lvgl/src/core/lv_obj_style.c ****         if(parent) lv_obj_mark_layout_as_dirty(parent);
ARM GAS  /tmp/cc7kjK8u.s 			page 48


 1340              		.loc 1 183 9 is_stmt 1 view .LVU391
 183:Middlewares/lvgl/src/core/lv_obj_style.c ****         if(parent) lv_obj_mark_layout_as_dirty(parent);
 1341              		.loc 1 183 29 is_stmt 0 view .LVU392
 1342 0058 3046     		mov	r0, r6
 1343 005a FFF7FEFF 		bl	lv_obj_get_parent
 1344              	.LVL123:
 184:Middlewares/lvgl/src/core/lv_obj_style.c ****     }
 1345              		.loc 1 184 9 is_stmt 1 view .LVU393
 184:Middlewares/lvgl/src/core/lv_obj_style.c ****     }
 1346              		.loc 1 184 11 is_stmt 0 view .LVU394
 1347 005e 08B1     		cbz	r0, .L86
 184:Middlewares/lvgl/src/core/lv_obj_style.c ****     }
 1348              		.loc 1 184 20 is_stmt 1 discriminator 1 view .LVU395
 1349 0060 FFF7FEFF 		bl	lv_obj_mark_layout_as_dirty
 1350              	.LVL124:
 1351              	.L86:
 184:Middlewares/lvgl/src/core/lv_obj_style.c ****     }
 1352              		.loc 1 184 20 is_stmt 0 discriminator 1 view .LVU396
 1353              	.LBE73:
 187:Middlewares/lvgl/src/core/lv_obj_style.c ****         lv_obj_refresh_ext_draw_size(obj);
 1354              		.loc 1 187 5 is_stmt 1 view .LVU397
 187:Middlewares/lvgl/src/core/lv_obj_style.c ****         lv_obj_refresh_ext_draw_size(obj);
 1355              		.loc 1 187 7 is_stmt 0 view .LVU398
 1356 0064 4FF6FF73 		movw	r3, #65535
 1357 0068 9C42     		cmp	r4, r3
 1358 006a 02D0     		beq	.L88
 187:Middlewares/lvgl/src/core/lv_obj_style.c ****         lv_obj_refresh_ext_draw_size(obj);
 1359              		.loc 1 187 34 discriminator 1 view .LVU399
 1360 006c 14F4006F 		tst	r4, #2048
 1361 0070 02D0     		beq	.L89
 1362              	.L88:
 188:Middlewares/lvgl/src/core/lv_obj_style.c ****     }
 1363              		.loc 1 188 9 is_stmt 1 view .LVU400
 1364 0072 3046     		mov	r0, r6
 1365 0074 FFF7FEFF 		bl	lv_obj_refresh_ext_draw_size
 1366              	.LVL125:
 1367              	.L89:
 190:Middlewares/lvgl/src/core/lv_obj_style.c **** 
 1368              		.loc 1 190 5 view .LVU401
 1369 0078 3046     		mov	r0, r6
 1370 007a FFF7FEFF 		bl	lv_obj_invalidate
 1371              	.LVL126:
 192:Middlewares/lvgl/src/core/lv_obj_style.c ****       ((prop & LV_STYLE_PROP_INHERIT) && ((prop & LV_STYLE_PROP_EXT_DRAW) || (prop & LV_STYLE_PROP_
 1372              		.loc 1 192 5 view .LVU402
 192:Middlewares/lvgl/src/core/lv_obj_style.c ****       ((prop & LV_STYLE_PROP_INHERIT) && ((prop & LV_STYLE_PROP_EXT_DRAW) || (prop & LV_STYLE_PROP_
 1373              		.loc 1 192 7 is_stmt 0 view .LVU403
 1374 007e 4FF6FF73 		movw	r3, #65535
 1375 0082 9C42     		cmp	r4, r3
 1376 0084 05D0     		beq	.L90
 192:Middlewares/lvgl/src/core/lv_obj_style.c ****       ((prop & LV_STYLE_PROP_INHERIT) && ((prop & LV_STYLE_PROP_EXT_DRAW) || (prop & LV_STYLE_PROP_
 1377              		.loc 1 192 34 discriminator 1 view .LVU404
 1378 0086 14F4806F 		tst	r4, #1024
 1379 008a 05D0     		beq	.L80
 193:Middlewares/lvgl/src/core/lv_obj_style.c ****     {
 1380              		.loc 1 193 39 view .LVU405
 1381 008c 14F4C05F 		tst	r4, #6144
 1382 0090 02D0     		beq	.L80
ARM GAS  /tmp/cc7kjK8u.s 			page 49


 1383              	.L90:
 195:Middlewares/lvgl/src/core/lv_obj_style.c ****             refresh_children_style(obj);
 1384              		.loc 1 195 9 is_stmt 1 view .LVU406
 195:Middlewares/lvgl/src/core/lv_obj_style.c ****             refresh_children_style(obj);
 1385              		.loc 1 195 11 is_stmt 0 view .LVU407
 1386 0092 B5F5803F 		cmp	r5, #65536
 1387 0096 00D1     		bne	.L96
 1388              	.L80:
 199:Middlewares/lvgl/src/core/lv_obj_style.c **** 
 1389              		.loc 1 199 1 view .LVU408
 1390 0098 70BD     		pop	{r4, r5, r6, pc}
 1391              	.LVL127:
 1392              	.L96:
 196:Middlewares/lvgl/src/core/lv_obj_style.c ****         }
 1393              		.loc 1 196 13 is_stmt 1 view .LVU409
 1394 009a 3046     		mov	r0, r6
 1395 009c FFF7FEFF 		bl	refresh_children_style
 1396              	.LVL128:
 1397 00a0 FAE7     		b	.L80
 1398              	.L98:
 1399 00a2 00BF     		.align	2
 1400              	.L97:
 1401 00a4 00000000 		.word	.LANCHOR0
 1402              		.cfi_endproc
 1403              	.LFE157:
 1405              		.section	.text.lv_obj_add_style,"ax",%progbits
 1406              		.align	1
 1407              		.global	lv_obj_add_style
 1408              		.syntax unified
 1409              		.thumb
 1410              		.thumb_func
 1412              	lv_obj_add_style:
 1413              	.LVL129:
 1414              	.LFB154:
  77:Middlewares/lvgl/src/core/lv_obj_style.c ****     trans_del(obj, selector, LV_STYLE_PROP_ANY, NULL);
 1415              		.loc 1 77 1 view -0
 1416              		.cfi_startproc
 1417              		@ args = 0, pretend = 0, frame = 0
 1418              		@ frame_needed = 0, uses_anonymous_args = 0
  77:Middlewares/lvgl/src/core/lv_obj_style.c ****     trans_del(obj, selector, LV_STYLE_PROP_ANY, NULL);
 1419              		.loc 1 77 1 is_stmt 0 view .LVU411
 1420 0000 2DE9F041 		push	{r4, r5, r6, r7, r8, lr}
 1421              	.LCFI16:
 1422              		.cfi_def_cfa_offset 24
 1423              		.cfi_offset 4, -24
 1424              		.cfi_offset 5, -20
 1425              		.cfi_offset 6, -16
 1426              		.cfi_offset 7, -12
 1427              		.cfi_offset 8, -8
 1428              		.cfi_offset 14, -4
 1429 0004 0546     		mov	r5, r0
 1430 0006 8846     		mov	r8, r1
 1431 0008 1746     		mov	r7, r2
  78:Middlewares/lvgl/src/core/lv_obj_style.c **** 
 1432              		.loc 1 78 5 is_stmt 1 view .LVU412
 1433 000a 0023     		movs	r3, #0
 1434 000c 4FF6FF72 		movw	r2, #65535
ARM GAS  /tmp/cc7kjK8u.s 			page 50


 1435              	.LVL130:
  78:Middlewares/lvgl/src/core/lv_obj_style.c **** 
 1436              		.loc 1 78 5 is_stmt 0 view .LVU413
 1437 0010 3946     		mov	r1, r7
 1438              	.LVL131:
  78:Middlewares/lvgl/src/core/lv_obj_style.c **** 
 1439              		.loc 1 78 5 view .LVU414
 1440 0012 FFF7FEFF 		bl	trans_del
 1441              	.LVL132:
  80:Middlewares/lvgl/src/core/lv_obj_style.c ****     /*Go after the transition and local styles*/
 1442              		.loc 1 80 5 is_stmt 1 view .LVU415
  82:Middlewares/lvgl/src/core/lv_obj_style.c ****         if(obj->styles[i].is_trans) continue;
 1443              		.loc 1 82 5 view .LVU416
  82:Middlewares/lvgl/src/core/lv_obj_style.c ****         if(obj->styles[i].is_trans) continue;
 1444              		.loc 1 82 11 is_stmt 0 view .LVU417
 1445 0016 0026     		movs	r6, #0
  82:Middlewares/lvgl/src/core/lv_obj_style.c ****         if(obj->styles[i].is_trans) continue;
 1446              		.loc 1 82 5 view .LVU418
 1447 0018 00E0     		b	.L100
 1448              	.LVL133:
 1449              	.L101:
  82:Middlewares/lvgl/src/core/lv_obj_style.c ****         if(obj->styles[i].is_trans) continue;
 1450              		.loc 1 82 36 is_stmt 1 discriminator 2 view .LVU419
  82:Middlewares/lvgl/src/core/lv_obj_style.c ****         if(obj->styles[i].is_trans) continue;
 1451              		.loc 1 82 37 is_stmt 0 discriminator 2 view .LVU420
 1452 001a 0136     		adds	r6, r6, #1
 1453              	.LVL134:
 1454              	.L100:
  82:Middlewares/lvgl/src/core/lv_obj_style.c ****         if(obj->styles[i].is_trans) continue;
 1455              		.loc 1 82 16 is_stmt 1 discriminator 1 view .LVU421
  82:Middlewares/lvgl/src/core/lv_obj_style.c ****         if(obj->styles[i].is_trans) continue;
 1456              		.loc 1 82 23 is_stmt 0 discriminator 1 view .LVU422
 1457 001c 698C     		ldrh	r1, [r5, #34]
 1458 001e C1F3C501 		ubfx	r1, r1, #3, #6
  82:Middlewares/lvgl/src/core/lv_obj_style.c ****         if(obj->styles[i].is_trans) continue;
 1459              		.loc 1 82 5 discriminator 1 view .LVU423
 1460 0022 B142     		cmp	r1, r6
 1461 0024 09D9     		bls	.L102
  83:Middlewares/lvgl/src/core/lv_obj_style.c ****         if(obj->styles[i].is_local) continue;
 1462              		.loc 1 83 9 is_stmt 1 view .LVU424
  83:Middlewares/lvgl/src/core/lv_obj_style.c ****         if(obj->styles[i].is_local) continue;
 1463              		.loc 1 83 15 is_stmt 0 view .LVU425
 1464 0026 EB68     		ldr	r3, [r5, #12]
  83:Middlewares/lvgl/src/core/lv_obj_style.c ****         if(obj->styles[i].is_local) continue;
 1465              		.loc 1 83 23 view .LVU426
 1466 0028 03EBC603 		add	r3, r3, r6, lsl #3
  83:Middlewares/lvgl/src/core/lv_obj_style.c ****         if(obj->styles[i].is_local) continue;
 1467              		.loc 1 83 12 view .LVU427
 1468 002c DB79     		ldrb	r3, [r3, #7]	@ zero_extendqisi2
  83:Middlewares/lvgl/src/core/lv_obj_style.c ****         if(obj->styles[i].is_local) continue;
 1469              		.loc 1 83 11 view .LVU428
 1470 002e 13F0020F 		tst	r3, #2
 1471 0032 F2D1     		bne	.L101
  84:Middlewares/lvgl/src/core/lv_obj_style.c ****         break;
 1472              		.loc 1 84 9 is_stmt 1 view .LVU429
  84:Middlewares/lvgl/src/core/lv_obj_style.c ****         break;
 1473              		.loc 1 84 11 is_stmt 0 view .LVU430
ARM GAS  /tmp/cc7kjK8u.s 			page 51


 1474 0034 13F0010F 		tst	r3, #1
 1475 0038 EFD1     		bne	.L101
 1476              	.L102:
  91:Middlewares/lvgl/src/core/lv_obj_style.c ****     obj->styles = lv_mem_realloc(obj->styles, obj->style_cnt * sizeof(_lv_obj_style_t));
 1477              		.loc 1 91 5 is_stmt 1 view .LVU431
  91:Middlewares/lvgl/src/core/lv_obj_style.c ****     obj->styles = lv_mem_realloc(obj->styles, obj->style_cnt * sizeof(_lv_obj_style_t));
 1478              		.loc 1 91 19 is_stmt 0 view .LVU432
 1479 003a 0131     		adds	r1, r1, #1
 1480 003c 01F03F01 		and	r1, r1, #63
 1481 0040 6B8C     		ldrh	r3, [r5, #34]
 1482 0042 61F3C803 		bfi	r3, r1, #3, #6
 1483 0046 6B84     		strh	r3, [r5, #34]	@ movhi
  92:Middlewares/lvgl/src/core/lv_obj_style.c **** 
 1484              		.loc 1 92 5 is_stmt 1 view .LVU433
  92:Middlewares/lvgl/src/core/lv_obj_style.c **** 
 1485              		.loc 1 92 19 is_stmt 0 view .LVU434
 1486 0048 C900     		lsls	r1, r1, #3
 1487 004a E868     		ldr	r0, [r5, #12]
 1488 004c FFF7FEFF 		bl	lv_mem_realloc
 1489              	.LVL135:
  92:Middlewares/lvgl/src/core/lv_obj_style.c **** 
 1490              		.loc 1 92 17 view .LVU435
 1491 0050 E860     		str	r0, [r5, #12]
  94:Middlewares/lvgl/src/core/lv_obj_style.c ****     for(j = obj->style_cnt - 1; j > i ; j--) {
 1492              		.loc 1 94 5 is_stmt 1 view .LVU436
  95:Middlewares/lvgl/src/core/lv_obj_style.c ****         obj->styles[j] = obj->styles[j - 1];
 1493              		.loc 1 95 5 view .LVU437
  95:Middlewares/lvgl/src/core/lv_obj_style.c ****         obj->styles[j] = obj->styles[j - 1];
 1494              		.loc 1 95 16 is_stmt 0 view .LVU438
 1495 0052 6A8C     		ldrh	r2, [r5, #34]
 1496 0054 C2F3C502 		ubfx	r2, r2, #3, #6
  95:Middlewares/lvgl/src/core/lv_obj_style.c ****         obj->styles[j] = obj->styles[j - 1];
 1497              		.loc 1 95 28 view .LVU439
 1498 0058 013A     		subs	r2, r2, #1
 1499              	.LVL136:
  95:Middlewares/lvgl/src/core/lv_obj_style.c ****         obj->styles[j] = obj->styles[j - 1];
 1500              		.loc 1 95 5 view .LVU440
 1501 005a 0CE0     		b	.L104
 1502              	.L105:
  96:Middlewares/lvgl/src/core/lv_obj_style.c ****     }
 1503              		.loc 1 96 9 is_stmt 1 discriminator 3 view .LVU441
  96:Middlewares/lvgl/src/core/lv_obj_style.c ****     }
 1504              		.loc 1 96 29 is_stmt 0 discriminator 3 view .LVU442
 1505 005c EC68     		ldr	r4, [r5, #12]
  96:Middlewares/lvgl/src/core/lv_obj_style.c ****     }
 1506              		.loc 1 96 37 discriminator 3 view .LVU443
 1507 005e 02F10053 		add	r3, r2, #536870912
 1508 0062 013B     		subs	r3, r3, #1
 1509 0064 04EBC303 		add	r3, r4, r3, lsl #3
  96:Middlewares/lvgl/src/core/lv_obj_style.c ****     }
 1510              		.loc 1 96 20 discriminator 3 view .LVU444
 1511 0068 04EBC20C 		add	ip, r4, r2, lsl #3
  96:Middlewares/lvgl/src/core/lv_obj_style.c ****     }
 1512              		.loc 1 96 24 discriminator 3 view .LVU445
 1513 006c 93E80300 		ldm	r3, {r0, r1}
 1514 0070 8CE80300 		stm	ip, {r0, r1}
  95:Middlewares/lvgl/src/core/lv_obj_style.c ****         obj->styles[j] = obj->styles[j - 1];
ARM GAS  /tmp/cc7kjK8u.s 			page 52


 1515              		.loc 1 95 41 is_stmt 1 discriminator 3 view .LVU446
  95:Middlewares/lvgl/src/core/lv_obj_style.c ****         obj->styles[j] = obj->styles[j - 1];
 1516              		.loc 1 95 42 is_stmt 0 discriminator 3 view .LVU447
 1517 0074 013A     		subs	r2, r2, #1
 1518              	.LVL137:
 1519              	.L104:
  95:Middlewares/lvgl/src/core/lv_obj_style.c ****         obj->styles[j] = obj->styles[j - 1];
 1520              		.loc 1 95 33 is_stmt 1 discriminator 1 view .LVU448
  95:Middlewares/lvgl/src/core/lv_obj_style.c ****         obj->styles[j] = obj->styles[j - 1];
 1521              		.loc 1 95 5 is_stmt 0 discriminator 1 view .LVU449
 1522 0076 9642     		cmp	r6, r2
 1523 0078 F0D3     		bcc	.L105
  99:Middlewares/lvgl/src/core/lv_obj_style.c ****     obj->styles[i].style = style;
 1524              		.loc 1 99 5 is_stmt 1 view .LVU450
  99:Middlewares/lvgl/src/core/lv_obj_style.c ****     obj->styles[i].style = style;
 1525              		.loc 1 99 22 is_stmt 0 view .LVU451
 1526 007a E868     		ldr	r0, [r5, #12]
  99:Middlewares/lvgl/src/core/lv_obj_style.c ****     obj->styles[i].style = style;
 1527              		.loc 1 99 30 view .LVU452
 1528 007c F400     		lsls	r4, r6, #3
  99:Middlewares/lvgl/src/core/lv_obj_style.c ****     obj->styles[i].style = style;
 1529              		.loc 1 99 5 view .LVU453
 1530 007e 0821     		movs	r1, #8
 1531 0080 00EBC600 		add	r0, r0, r6, lsl #3
 1532 0084 FFF7FEFF 		bl	lv_memset_00
 1533              	.LVL138:
 100:Middlewares/lvgl/src/core/lv_obj_style.c ****     obj->styles[i].selector = selector;
 1534              		.loc 1 100 5 is_stmt 1 view .LVU454
 100:Middlewares/lvgl/src/core/lv_obj_style.c ****     obj->styles[i].selector = selector;
 1535              		.loc 1 100 8 is_stmt 0 view .LVU455
 1536 0088 EB68     		ldr	r3, [r5, #12]
 100:Middlewares/lvgl/src/core/lv_obj_style.c ****     obj->styles[i].selector = selector;
 1537              		.loc 1 100 26 view .LVU456
 1538 008a 43F83680 		str	r8, [r3, r6, lsl #3]
 101:Middlewares/lvgl/src/core/lv_obj_style.c **** 
 1539              		.loc 1 101 5 is_stmt 1 view .LVU457
 101:Middlewares/lvgl/src/core/lv_obj_style.c **** 
 1540              		.loc 1 101 8 is_stmt 0 view .LVU458
 1541 008e EB68     		ldr	r3, [r5, #12]
 101:Middlewares/lvgl/src/core/lv_obj_style.c **** 
 1542              		.loc 1 101 16 view .LVU459
 1543 0090 2344     		add	r3, r3, r4
 101:Middlewares/lvgl/src/core/lv_obj_style.c **** 
 1544              		.loc 1 101 29 view .LVU460
 1545 0092 5A68     		ldr	r2, [r3, #4]
 1546 0094 67F31702 		bfi	r2, r7, #0, #24
 1547              	.LVL139:
 101:Middlewares/lvgl/src/core/lv_obj_style.c **** 
 1548              		.loc 1 101 29 view .LVU461
 1549 0098 5A60     		str	r2, [r3, #4]
 103:Middlewares/lvgl/src/core/lv_obj_style.c **** }
 1550              		.loc 1 103 5 is_stmt 1 view .LVU462
 1551 009a 4FF6FF72 		movw	r2, #65535
 1552 009e 3946     		mov	r1, r7
 1553 00a0 2846     		mov	r0, r5
 1554 00a2 FFF7FEFF 		bl	lv_obj_refresh_style
 1555              	.LVL140:
ARM GAS  /tmp/cc7kjK8u.s 			page 53


 104:Middlewares/lvgl/src/core/lv_obj_style.c **** 
 1556              		.loc 1 104 1 is_stmt 0 view .LVU463
 1557 00a6 BDE8F081 		pop	{r4, r5, r6, r7, r8, pc}
 104:Middlewares/lvgl/src/core/lv_obj_style.c **** 
 1558              		.loc 1 104 1 view .LVU464
 1559              		.cfi_endproc
 1560              	.LFE154:
 1562              		.section	.text.report_style_change_core,"ax",%progbits
 1563              		.align	1
 1564              		.syntax unified
 1565              		.thumb
 1566              		.thumb_func
 1568              	report_style_change_core:
 1569              	.LVL141:
 1570              	.LFB173:
 607:Middlewares/lvgl/src/core/lv_obj_style.c ****     uint32_t i;
 1571              		.loc 1 607 1 is_stmt 1 view -0
 1572              		.cfi_startproc
 1573              		@ args = 0, pretend = 0, frame = 0
 1574              		@ frame_needed = 0, uses_anonymous_args = 0
 607:Middlewares/lvgl/src/core/lv_obj_style.c ****     uint32_t i;
 1575              		.loc 1 607 1 is_stmt 0 view .LVU466
 1576 0000 F8B5     		push	{r3, r4, r5, r6, r7, lr}
 1577              	.LCFI17:
 1578              		.cfi_def_cfa_offset 24
 1579              		.cfi_offset 3, -24
 1580              		.cfi_offset 4, -20
 1581              		.cfi_offset 5, -16
 1582              		.cfi_offset 6, -12
 1583              		.cfi_offset 7, -8
 1584              		.cfi_offset 14, -4
 1585 0002 0546     		mov	r5, r0
 1586 0004 0C46     		mov	r4, r1
 608:Middlewares/lvgl/src/core/lv_obj_style.c ****     for(i = 0; i < obj->style_cnt; i++) {
 1587              		.loc 1 608 5 is_stmt 1 view .LVU467
 609:Middlewares/lvgl/src/core/lv_obj_style.c ****         if(style == NULL || obj->styles[i].style == style) {
 1588              		.loc 1 609 5 view .LVU468
 1589              	.LVL142:
 609:Middlewares/lvgl/src/core/lv_obj_style.c ****         if(style == NULL || obj->styles[i].style == style) {
 1590              		.loc 1 609 11 is_stmt 0 view .LVU469
 1591 0006 0022     		movs	r2, #0
 609:Middlewares/lvgl/src/core/lv_obj_style.c ****         if(style == NULL || obj->styles[i].style == style) {
 1592              		.loc 1 609 5 view .LVU470
 1593 0008 00E0     		b	.L108
 1594              	.LVL143:
 1595              	.L110:
 609:Middlewares/lvgl/src/core/lv_obj_style.c ****         if(style == NULL || obj->styles[i].style == style) {
 1596              		.loc 1 609 36 is_stmt 1 discriminator 2 view .LVU471
 609:Middlewares/lvgl/src/core/lv_obj_style.c ****         if(style == NULL || obj->styles[i].style == style) {
 1597              		.loc 1 609 37 is_stmt 0 discriminator 2 view .LVU472
 1598 000a 0132     		adds	r2, r2, #1
 1599              	.LVL144:
 1600              	.L108:
 609:Middlewares/lvgl/src/core/lv_obj_style.c ****         if(style == NULL || obj->styles[i].style == style) {
 1601              		.loc 1 609 16 is_stmt 1 discriminator 1 view .LVU473
 609:Middlewares/lvgl/src/core/lv_obj_style.c ****         if(style == NULL || obj->styles[i].style == style) {
 1602              		.loc 1 609 23 is_stmt 0 discriminator 1 view .LVU474
ARM GAS  /tmp/cc7kjK8u.s 			page 54


 1603 000c 638C     		ldrh	r3, [r4, #34]
 1604 000e C3F3C503 		ubfx	r3, r3, #3, #6
 609:Middlewares/lvgl/src/core/lv_obj_style.c ****         if(style == NULL || obj->styles[i].style == style) {
 1605              		.loc 1 609 5 discriminator 1 view .LVU475
 1606 0012 9342     		cmp	r3, r2
 1607 0014 0CD9     		bls	.L111
 610:Middlewares/lvgl/src/core/lv_obj_style.c ****             lv_obj_refresh_style(obj, LV_PART_ANY, LV_STYLE_PROP_ANY);
 1608              		.loc 1 610 9 is_stmt 1 view .LVU476
 610:Middlewares/lvgl/src/core/lv_obj_style.c ****             lv_obj_refresh_style(obj, LV_PART_ANY, LV_STYLE_PROP_ANY);
 1609              		.loc 1 610 11 is_stmt 0 view .LVU477
 1610 0016 25B1     		cbz	r5, .L109
 610:Middlewares/lvgl/src/core/lv_obj_style.c ****             lv_obj_refresh_style(obj, LV_PART_ANY, LV_STYLE_PROP_ANY);
 1611              		.loc 1 610 32 discriminator 1 view .LVU478
 1612 0018 E368     		ldr	r3, [r4, #12]
 610:Middlewares/lvgl/src/core/lv_obj_style.c ****             lv_obj_refresh_style(obj, LV_PART_ANY, LV_STYLE_PROP_ANY);
 1613              		.loc 1 610 43 discriminator 1 view .LVU479
 1614 001a 53F83230 		ldr	r3, [r3, r2, lsl #3]
 610:Middlewares/lvgl/src/core/lv_obj_style.c ****             lv_obj_refresh_style(obj, LV_PART_ANY, LV_STYLE_PROP_ANY);
 1615              		.loc 1 610 26 discriminator 1 view .LVU480
 1616 001e AB42     		cmp	r3, r5
 1617 0020 F3D1     		bne	.L110
 1618              	.L109:
 611:Middlewares/lvgl/src/core/lv_obj_style.c ****             break;
 1619              		.loc 1 611 13 is_stmt 1 view .LVU481
 1620 0022 4FF6FF72 		movw	r2, #65535
 1621              	.LVL145:
 611:Middlewares/lvgl/src/core/lv_obj_style.c ****             break;
 1622              		.loc 1 611 13 is_stmt 0 view .LVU482
 1623 0026 4FF47021 		mov	r1, #983040
 1624              	.LVL146:
 611:Middlewares/lvgl/src/core/lv_obj_style.c ****             break;
 1625              		.loc 1 611 13 view .LVU483
 1626 002a 2046     		mov	r0, r4
 1627              	.LVL147:
 611:Middlewares/lvgl/src/core/lv_obj_style.c ****             break;
 1628              		.loc 1 611 13 view .LVU484
 1629 002c FFF7FEFF 		bl	lv_obj_refresh_style
 1630              	.LVL148:
 612:Middlewares/lvgl/src/core/lv_obj_style.c ****         }
 1631              		.loc 1 612 13 is_stmt 1 view .LVU485
 1632              	.L111:
 616:Middlewares/lvgl/src/core/lv_obj_style.c ****     for(i = 0; i < child_cnt; i++) {
 1633              		.loc 1 616 5 view .LVU486
 616:Middlewares/lvgl/src/core/lv_obj_style.c ****     for(i = 0; i < child_cnt; i++) {
 1634              		.loc 1 616 26 is_stmt 0 view .LVU487
 1635 0030 2046     		mov	r0, r4
 1636 0032 FFF7FEFF 		bl	lv_obj_get_child_cnt
 1637              	.LVL149:
 1638 0036 0746     		mov	r7, r0
 1639              	.LVL150:
 617:Middlewares/lvgl/src/core/lv_obj_style.c ****         report_style_change_core(style, lv_obj_get_child(obj, i));
 1640              		.loc 1 617 5 is_stmt 1 view .LVU488
 617:Middlewares/lvgl/src/core/lv_obj_style.c ****         report_style_change_core(style, lv_obj_get_child(obj, i));
 1641              		.loc 1 617 11 is_stmt 0 view .LVU489
 1642 0038 0026     		movs	r6, #0
 617:Middlewares/lvgl/src/core/lv_obj_style.c ****         report_style_change_core(style, lv_obj_get_child(obj, i));
 1643              		.loc 1 617 5 view .LVU490
ARM GAS  /tmp/cc7kjK8u.s 			page 55


 1644 003a 08E0     		b	.L113
 1645              	.LVL151:
 1646              	.L114:
 618:Middlewares/lvgl/src/core/lv_obj_style.c ****     }
 1647              		.loc 1 618 9 is_stmt 1 discriminator 3 view .LVU491
 618:Middlewares/lvgl/src/core/lv_obj_style.c ****     }
 1648              		.loc 1 618 41 is_stmt 0 discriminator 3 view .LVU492
 1649 003c 3146     		mov	r1, r6
 1650 003e 2046     		mov	r0, r4
 1651 0040 FFF7FEFF 		bl	lv_obj_get_child
 1652              	.LVL152:
 1653 0044 0146     		mov	r1, r0
 618:Middlewares/lvgl/src/core/lv_obj_style.c ****     }
 1654              		.loc 1 618 9 discriminator 3 view .LVU493
 1655 0046 2846     		mov	r0, r5
 1656 0048 FFF7DAFF 		bl	report_style_change_core
 1657              	.LVL153:
 617:Middlewares/lvgl/src/core/lv_obj_style.c ****         report_style_change_core(style, lv_obj_get_child(obj, i));
 1658              		.loc 1 617 31 is_stmt 1 discriminator 3 view .LVU494
 617:Middlewares/lvgl/src/core/lv_obj_style.c ****         report_style_change_core(style, lv_obj_get_child(obj, i));
 1659              		.loc 1 617 32 is_stmt 0 discriminator 3 view .LVU495
 1660 004c 0136     		adds	r6, r6, #1
 1661              	.LVL154:
 1662              	.L113:
 617:Middlewares/lvgl/src/core/lv_obj_style.c ****         report_style_change_core(style, lv_obj_get_child(obj, i));
 1663              		.loc 1 617 16 is_stmt 1 discriminator 1 view .LVU496
 617:Middlewares/lvgl/src/core/lv_obj_style.c ****         report_style_change_core(style, lv_obj_get_child(obj, i));
 1664              		.loc 1 617 5 is_stmt 0 discriminator 1 view .LVU497
 1665 004e BE42     		cmp	r6, r7
 1666 0050 F4D3     		bcc	.L114
 620:Middlewares/lvgl/src/core/lv_obj_style.c **** 
 1667              		.loc 1 620 1 view .LVU498
 1668 0052 F8BD     		pop	{r3, r4, r5, r6, r7, pc}
 620:Middlewares/lvgl/src/core/lv_obj_style.c **** 
 1669              		.loc 1 620 1 view .LVU499
 1670              		.cfi_endproc
 1671              	.LFE173:
 1673              		.section	.text.lv_obj_report_style_change,"ax",%progbits
 1674              		.align	1
 1675              		.global	lv_obj_report_style_change
 1676              		.syntax unified
 1677              		.thumb
 1678              		.thumb_func
 1680              	lv_obj_report_style_change:
 1681              	.LVL155:
 1682              	.LFB156:
 155:Middlewares/lvgl/src/core/lv_obj_style.c ****     if(!style_refr) return;
 1683              		.loc 1 155 1 is_stmt 1 view -0
 1684              		.cfi_startproc
 1685              		@ args = 0, pretend = 0, frame = 0
 1686              		@ frame_needed = 0, uses_anonymous_args = 0
 156:Middlewares/lvgl/src/core/lv_obj_style.c ****     lv_disp_t * d = lv_disp_get_next(NULL);
 1687              		.loc 1 156 5 view .LVU501
 156:Middlewares/lvgl/src/core/lv_obj_style.c ****     lv_disp_t * d = lv_disp_get_next(NULL);
 1688              		.loc 1 156 8 is_stmt 0 view .LVU502
 1689 0000 0E4B     		ldr	r3, .L128
 1690 0002 1B78     		ldrb	r3, [r3]	@ zero_extendqisi2
ARM GAS  /tmp/cc7kjK8u.s 			page 56


 156:Middlewares/lvgl/src/core/lv_obj_style.c ****     lv_disp_t * d = lv_disp_get_next(NULL);
 1691              		.loc 1 156 7 view .LVU503
 1692 0004 03B9     		cbnz	r3, .L126
 1693 0006 7047     		bx	lr
 1694              	.L126:
 155:Middlewares/lvgl/src/core/lv_obj_style.c ****     if(!style_refr) return;
 1695              		.loc 1 155 1 view .LVU504
 1696 0008 70B5     		push	{r4, r5, r6, lr}
 1697              	.LCFI18:
 1698              		.cfi_def_cfa_offset 16
 1699              		.cfi_offset 4, -16
 1700              		.cfi_offset 5, -12
 1701              		.cfi_offset 6, -8
 1702              		.cfi_offset 14, -4
 1703 000a 0646     		mov	r6, r0
 157:Middlewares/lvgl/src/core/lv_obj_style.c **** 
 1704              		.loc 1 157 5 is_stmt 1 view .LVU505
 157:Middlewares/lvgl/src/core/lv_obj_style.c **** 
 1705              		.loc 1 157 21 is_stmt 0 view .LVU506
 1706 000c 0020     		movs	r0, #0
 1707              	.LVL156:
 157:Middlewares/lvgl/src/core/lv_obj_style.c **** 
 1708              		.loc 1 157 21 view .LVU507
 1709 000e FFF7FEFF 		bl	lv_disp_get_next
 1710              	.LVL157:
 1711 0012 0546     		mov	r5, r0
 1712              	.LVL158:
 159:Middlewares/lvgl/src/core/lv_obj_style.c ****         uint32_t i;
 1713              		.loc 1 159 5 is_stmt 1 view .LVU508
 159:Middlewares/lvgl/src/core/lv_obj_style.c ****         uint32_t i;
 1714              		.loc 1 159 10 is_stmt 0 view .LVU509
 1715 0014 0DE0     		b	.L118
 1716              	.LVL159:
 1717              	.L119:
 1718              	.LBB74:
 162:Middlewares/lvgl/src/core/lv_obj_style.c ****         }
 1719              		.loc 1 162 13 is_stmt 1 discriminator 3 view .LVU510
 162:Middlewares/lvgl/src/core/lv_obj_style.c ****         }
 1720              		.loc 1 162 46 is_stmt 0 discriminator 3 view .LVU511
 1721 0016 EB68     		ldr	r3, [r5, #12]
 162:Middlewares/lvgl/src/core/lv_obj_style.c ****         }
 1722              		.loc 1 162 13 discriminator 3 view .LVU512
 1723 0018 53F82410 		ldr	r1, [r3, r4, lsl #2]
 1724 001c 3046     		mov	r0, r6
 1725 001e FFF7FEFF 		bl	report_style_change_core
 1726              	.LVL160:
 161:Middlewares/lvgl/src/core/lv_obj_style.c ****             report_style_change_core(style, d->screens[i]);
 1727              		.loc 1 161 39 is_stmt 1 discriminator 3 view .LVU513
 161:Middlewares/lvgl/src/core/lv_obj_style.c ****             report_style_change_core(style, d->screens[i]);
 1728              		.loc 1 161 40 is_stmt 0 discriminator 3 view .LVU514
 1729 0022 0134     		adds	r4, r4, #1
 1730              	.LVL161:
 1731              	.L120:
 161:Middlewares/lvgl/src/core/lv_obj_style.c ****             report_style_change_core(style, d->screens[i]);
 1732              		.loc 1 161 20 is_stmt 1 discriminator 1 view .LVU515
 161:Middlewares/lvgl/src/core/lv_obj_style.c ****             report_style_change_core(style, d->screens[i]);
 1733              		.loc 1 161 25 is_stmt 0 discriminator 1 view .LVU516
ARM GAS  /tmp/cc7kjK8u.s 			page 57


 1734 0024 6B6A     		ldr	r3, [r5, #36]
 161:Middlewares/lvgl/src/core/lv_obj_style.c ****             report_style_change_core(style, d->screens[i]);
 1735              		.loc 1 161 9 discriminator 1 view .LVU517
 1736 0026 A342     		cmp	r3, r4
 1737 0028 F5D8     		bhi	.L119
 164:Middlewares/lvgl/src/core/lv_obj_style.c ****     }
 1738              		.loc 1 164 9 is_stmt 1 view .LVU518
 164:Middlewares/lvgl/src/core/lv_obj_style.c ****     }
 1739              		.loc 1 164 13 is_stmt 0 view .LVU519
 1740 002a 2846     		mov	r0, r5
 1741 002c FFF7FEFF 		bl	lv_disp_get_next
 1742              	.LVL162:
 1743 0030 0546     		mov	r5, r0
 1744              	.LVL163:
 1745              	.L118:
 164:Middlewares/lvgl/src/core/lv_obj_style.c ****     }
 1746              		.loc 1 164 13 view .LVU520
 1747              	.LBE74:
 159:Middlewares/lvgl/src/core/lv_obj_style.c ****         uint32_t i;
 1748              		.loc 1 159 10 is_stmt 1 view .LVU521
 1749 0032 0DB1     		cbz	r5, .L127
 1750              	.LBB75:
 161:Middlewares/lvgl/src/core/lv_obj_style.c ****             report_style_change_core(style, d->screens[i]);
 1751              		.loc 1 161 15 is_stmt 0 view .LVU522
 1752 0034 0024     		movs	r4, #0
 1753 0036 F5E7     		b	.L120
 1754              	.L127:
 1755              	.LBE75:
 166:Middlewares/lvgl/src/core/lv_obj_style.c **** 
 1756              		.loc 1 166 1 view .LVU523
 1757 0038 70BD     		pop	{r4, r5, r6, pc}
 1758              	.LVL164:
 1759              	.L129:
 166:Middlewares/lvgl/src/core/lv_obj_style.c **** 
 1760              		.loc 1 166 1 view .LVU524
 1761 003a 00BF     		.align	2
 1762              	.L128:
 1763 003c 00000000 		.word	.LANCHOR0
 1764              		.cfi_endproc
 1765              	.LFE156:
 1767              		.section	.text.lv_obj_set_local_style_prop,"ax",%progbits
 1768              		.align	1
 1769              		.global	lv_obj_set_local_style_prop
 1770              		.syntax unified
 1771              		.thumb
 1772              		.thumb_func
 1774              	lv_obj_set_local_style_prop:
 1775              	.LVL165:
 1776              	.LFB160:
 252:Middlewares/lvgl/src/core/lv_obj_style.c ****     lv_style_t * style = get_local_style(obj, selector);
 1777              		.loc 1 252 1 is_stmt 1 view -0
 1778              		.cfi_startproc
 1779              		@ args = 0, pretend = 0, frame = 0
 1780              		@ frame_needed = 0, uses_anonymous_args = 0
 252:Middlewares/lvgl/src/core/lv_obj_style.c ****     lv_style_t * style = get_local_style(obj, selector);
 1781              		.loc 1 252 1 is_stmt 0 view .LVU526
 1782 0000 F8B5     		push	{r3, r4, r5, r6, r7, lr}
ARM GAS  /tmp/cc7kjK8u.s 			page 58


 1783              	.LCFI19:
 1784              		.cfi_def_cfa_offset 24
 1785              		.cfi_offset 3, -24
 1786              		.cfi_offset 4, -20
 1787              		.cfi_offset 5, -16
 1788              		.cfi_offset 6, -12
 1789              		.cfi_offset 7, -8
 1790              		.cfi_offset 14, -4
 1791 0002 0646     		mov	r6, r0
 1792 0004 0D46     		mov	r5, r1
 1793 0006 1746     		mov	r7, r2
 1794              	.LVL166:
 252:Middlewares/lvgl/src/core/lv_obj_style.c ****     lv_style_t * style = get_local_style(obj, selector);
 1795              		.loc 1 252 1 view .LVU527
 1796 0008 1C46     		mov	r4, r3
 253:Middlewares/lvgl/src/core/lv_obj_style.c ****     lv_style_set_prop(style, prop, value);
 1797              		.loc 1 253 5 is_stmt 1 view .LVU528
 253:Middlewares/lvgl/src/core/lv_obj_style.c ****     lv_style_set_prop(style, prop, value);
 1798              		.loc 1 253 26 is_stmt 0 view .LVU529
 1799 000a 1946     		mov	r1, r3
 1800              	.LVL167:
 253:Middlewares/lvgl/src/core/lv_obj_style.c ****     lv_style_set_prop(style, prop, value);
 1801              		.loc 1 253 26 view .LVU530
 1802 000c FFF7FEFF 		bl	get_local_style
 1803              	.LVL168:
 254:Middlewares/lvgl/src/core/lv_obj_style.c ****     lv_obj_refresh_style(obj, selector, prop);
 1804              		.loc 1 254 5 is_stmt 1 view .LVU531
 254:Middlewares/lvgl/src/core/lv_obj_style.c ****     lv_obj_refresh_style(obj, selector, prop);
 1805              		.loc 1 254 5 is_stmt 0 view .LVU532
 1806 0010 3A46     		mov	r2, r7
 1807 0012 2946     		mov	r1, r5
 1808 0014 FFF7FEFF 		bl	lv_style_set_prop
 1809              	.LVL169:
 255:Middlewares/lvgl/src/core/lv_obj_style.c **** }
 1810              		.loc 1 255 5 is_stmt 1 view .LVU533
 1811 0018 2A46     		mov	r2, r5
 1812 001a 2146     		mov	r1, r4
 1813 001c 3046     		mov	r0, r6
 1814 001e FFF7FEFF 		bl	lv_obj_refresh_style
 1815              	.LVL170:
 256:Middlewares/lvgl/src/core/lv_obj_style.c **** 
 1816              		.loc 1 256 1 is_stmt 0 view .LVU534
 1817 0022 F8BD     		pop	{r3, r4, r5, r6, r7, pc}
 256:Middlewares/lvgl/src/core/lv_obj_style.c **** 
 1818              		.loc 1 256 1 view .LVU535
 1819              		.cfi_endproc
 1820              	.LFE160:
 1822              		.section	.text.trans_anim_cb,"ax",%progbits
 1823              		.align	1
 1824              		.syntax unified
 1825              		.thumb
 1826              		.thumb_func
 1828              	trans_anim_cb:
 1829              	.LVL171:
 1830              	.LFB176:
 683:Middlewares/lvgl/src/core/lv_obj_style.c ****     trans_t * tr = _tr;
 1831              		.loc 1 683 1 is_stmt 1 view -0
ARM GAS  /tmp/cc7kjK8u.s 			page 59


 1832              		.cfi_startproc
 1833              		@ args = 0, pretend = 0, frame = 8
 1834              		@ frame_needed = 0, uses_anonymous_args = 0
 683:Middlewares/lvgl/src/core/lv_obj_style.c ****     trans_t * tr = _tr;
 1835              		.loc 1 683 1 is_stmt 0 view .LVU537
 1836 0000 2DE9F043 		push	{r4, r5, r6, r7, r8, r9, lr}
 1837              	.LCFI20:
 1838              		.cfi_def_cfa_offset 28
 1839              		.cfi_offset 4, -28
 1840              		.cfi_offset 5, -24
 1841              		.cfi_offset 6, -20
 1842              		.cfi_offset 7, -16
 1843              		.cfi_offset 8, -12
 1844              		.cfi_offset 9, -8
 1845              		.cfi_offset 14, -4
 1846 0004 83B0     		sub	sp, sp, #12
 1847              	.LCFI21:
 1848              		.cfi_def_cfa_offset 40
 1849 0006 0446     		mov	r4, r0
 1850 0008 0F46     		mov	r7, r1
 684:Middlewares/lvgl/src/core/lv_obj_style.c ****     lv_obj_t * obj = tr->obj;
 1851              		.loc 1 684 5 is_stmt 1 view .LVU538
 1852              	.LVL172:
 685:Middlewares/lvgl/src/core/lv_obj_style.c **** 
 1853              		.loc 1 685 5 view .LVU539
 685:Middlewares/lvgl/src/core/lv_obj_style.c **** 
 1854              		.loc 1 685 16 is_stmt 0 view .LVU540
 1855 000a 0568     		ldr	r5, [r0]
 1856              	.LVL173:
 687:Middlewares/lvgl/src/core/lv_obj_style.c ****     for(i = 0; i < obj->style_cnt; i++) {
 1857              		.loc 1 687 5 is_stmt 1 view .LVU541
 688:Middlewares/lvgl/src/core/lv_obj_style.c ****         if(obj->styles[i].is_trans == 0 || obj->styles[i].selector != tr->selector) continue;
 1858              		.loc 1 688 5 view .LVU542
 688:Middlewares/lvgl/src/core/lv_obj_style.c ****         if(obj->styles[i].is_trans == 0 || obj->styles[i].selector != tr->selector) continue;
 1859              		.loc 1 688 11 is_stmt 0 view .LVU543
 1860 000c 0022     		movs	r2, #0
 688:Middlewares/lvgl/src/core/lv_obj_style.c ****         if(obj->styles[i].is_trans == 0 || obj->styles[i].selector != tr->selector) continue;
 1861              		.loc 1 688 5 view .LVU544
 1862 000e 00E0     		b	.L133
 1863              	.LVL174:
 1864              	.L134:
 1865              	.LBB79:
 689:Middlewares/lvgl/src/core/lv_obj_style.c **** 
 1866              		.loc 1 689 85 is_stmt 1 discriminator 3 view .LVU545
 1867              	.LBE79:
 688:Middlewares/lvgl/src/core/lv_obj_style.c ****         if(obj->styles[i].is_trans == 0 || obj->styles[i].selector != tr->selector) continue;
 1868              		.loc 1 688 36 discriminator 3 view .LVU546
 688:Middlewares/lvgl/src/core/lv_obj_style.c ****         if(obj->styles[i].is_trans == 0 || obj->styles[i].selector != tr->selector) continue;
 1869              		.loc 1 688 37 is_stmt 0 discriminator 3 view .LVU547
 1870 0010 0132     		adds	r2, r2, #1
 1871              	.LVL175:
 1872              	.L133:
 688:Middlewares/lvgl/src/core/lv_obj_style.c ****         if(obj->styles[i].is_trans == 0 || obj->styles[i].selector != tr->selector) continue;
 1873              		.loc 1 688 16 is_stmt 1 discriminator 1 view .LVU548
 688:Middlewares/lvgl/src/core/lv_obj_style.c ****         if(obj->styles[i].is_trans == 0 || obj->styles[i].selector != tr->selector) continue;
 1874              		.loc 1 688 23 is_stmt 0 discriminator 1 view .LVU549
 1875 0012 6B8C     		ldrh	r3, [r5, #34]
ARM GAS  /tmp/cc7kjK8u.s 			page 60


 1876 0014 C3F3C503 		ubfx	r3, r3, #3, #6
 688:Middlewares/lvgl/src/core/lv_obj_style.c ****         if(obj->styles[i].is_trans == 0 || obj->styles[i].selector != tr->selector) continue;
 1877              		.loc 1 688 5 discriminator 1 view .LVU550
 1878 0018 9342     		cmp	r3, r2
 1879 001a 40F2D980 		bls	.L132
 1880              	.LBB82:
 689:Middlewares/lvgl/src/core/lv_obj_style.c **** 
 1881              		.loc 1 689 9 is_stmt 1 view .LVU551
 689:Middlewares/lvgl/src/core/lv_obj_style.c **** 
 1882              		.loc 1 689 15 is_stmt 0 view .LVU552
 1883 001e EB68     		ldr	r3, [r5, #12]
 689:Middlewares/lvgl/src/core/lv_obj_style.c **** 
 1884              		.loc 1 689 23 view .LVU553
 1885 0020 D600     		lsls	r6, r2, #3
 1886 0022 03EBC203 		add	r3, r3, r2, lsl #3
 689:Middlewares/lvgl/src/core/lv_obj_style.c **** 
 1887              		.loc 1 689 36 view .LVU554
 1888 0026 D879     		ldrb	r0, [r3, #7]	@ zero_extendqisi2
 689:Middlewares/lvgl/src/core/lv_obj_style.c **** 
 1889              		.loc 1 689 11 view .LVU555
 1890 0028 10F0020F 		tst	r0, #2
 1891 002c F0D0     		beq	.L134
 689:Middlewares/lvgl/src/core/lv_obj_style.c **** 
 1892              		.loc 1 689 58 discriminator 2 view .LVU556
 1893 002e 5868     		ldr	r0, [r3, #4]
 1894 0030 C0F31700 		ubfx	r0, r0, #0, #24
 689:Middlewares/lvgl/src/core/lv_obj_style.c **** 
 1895              		.loc 1 689 73 discriminator 2 view .LVU557
 1896 0034 A168     		ldr	r1, [r4, #8]
 689:Middlewares/lvgl/src/core/lv_obj_style.c **** 
 1897              		.loc 1 689 41 discriminator 2 view .LVU558
 1898 0036 8842     		cmp	r0, r1
 1899 0038 EAD1     		bne	.L134
 691:Middlewares/lvgl/src/core/lv_obj_style.c ****         switch (tr->prop) {
 1900              		.loc 1 691 9 is_stmt 1 view .LVU559
 692:Middlewares/lvgl/src/core/lv_obj_style.c **** 
 1901              		.loc 1 692 9 view .LVU560
 692:Middlewares/lvgl/src/core/lv_obj_style.c **** 
 1902              		.loc 1 692 19 is_stmt 0 view .LVU561
 1903 003a A188     		ldrh	r1, [r4, #4]
 692:Middlewares/lvgl/src/core/lv_obj_style.c **** 
 1904              		.loc 1 692 9 view .LVU562
 1905 003c 6829     		cmp	r1, #104
 1906 003e 2ED8     		bhi	.L136
 1907 0040 2029     		cmp	r1, #32
 1908 0042 C0F0A780 		bcc	.L137
 1909 0046 A1F12002 		sub	r2, r1, #32
 1910              	.LVL176:
 692:Middlewares/lvgl/src/core/lv_obj_style.c **** 
 1911              		.loc 1 692 9 view .LVU563
 1912 004a 482A     		cmp	r2, #72
 1913 004c 00F2A280 		bhi	.L137
 1914 0050 DFE802F0 		tbb	[pc, r2]
 1915              	.L139:
 1916 0054 52       		.byte	(.L142-.L139)/2
 1917 0055 A0       		.byte	(.L137-.L139)/2
 1918 0056 A0       		.byte	(.L137-.L139)/2
ARM GAS  /tmp/cc7kjK8u.s 			page 61


 1919 0057 A0       		.byte	(.L137-.L139)/2
 1920 0058 A0       		.byte	(.L137-.L139)/2
 1921 0059 A0       		.byte	(.L137-.L139)/2
 1922 005a A0       		.byte	(.L137-.L139)/2
 1923 005b A0       		.byte	(.L137-.L139)/2
 1924 005c A0       		.byte	(.L137-.L139)/2
 1925 005d A0       		.byte	(.L137-.L139)/2
 1926 005e A0       		.byte	(.L137-.L139)/2
 1927 005f A0       		.byte	(.L137-.L139)/2
 1928 0060 A0       		.byte	(.L137-.L139)/2
 1929 0061 A0       		.byte	(.L137-.L139)/2
 1930 0062 A0       		.byte	(.L137-.L139)/2
 1931 0063 A0       		.byte	(.L137-.L139)/2
 1932 0064 52       		.byte	(.L142-.L139)/2
 1933 0065 A0       		.byte	(.L137-.L139)/2
 1934 0066 A0       		.byte	(.L137-.L139)/2
 1935 0067 31       		.byte	(.L138-.L139)/2
 1936 0068 31       		.byte	(.L138-.L139)/2
 1937 0069 A0       		.byte	(.L137-.L139)/2
 1938 006a A0       		.byte	(.L137-.L139)/2
 1939 006b A0       		.byte	(.L137-.L139)/2
 1940 006c A0       		.byte	(.L137-.L139)/2
 1941 006d A0       		.byte	(.L137-.L139)/2
 1942 006e A0       		.byte	(.L137-.L139)/2
 1943 006f 52       		.byte	(.L142-.L139)/2
 1944 0070 A0       		.byte	(.L137-.L139)/2
 1945 0071 A0       		.byte	(.L137-.L139)/2
 1946 0072 A0       		.byte	(.L137-.L139)/2
 1947 0073 A0       		.byte	(.L137-.L139)/2
 1948 0074 A0       		.byte	(.L137-.L139)/2
 1949 0075 A0       		.byte	(.L137-.L139)/2
 1950 0076 A0       		.byte	(.L137-.L139)/2
 1951 0077 A0       		.byte	(.L137-.L139)/2
 1952 0078 52       		.byte	(.L142-.L139)/2
 1953 0079 A0       		.byte	(.L137-.L139)/2
 1954 007a A0       		.byte	(.L137-.L139)/2
 1955 007b 52       		.byte	(.L142-.L139)/2
 1956 007c A0       		.byte	(.L137-.L139)/2
 1957 007d A0       		.byte	(.L137-.L139)/2
 1958 007e A0       		.byte	(.L137-.L139)/2
 1959 007f A0       		.byte	(.L137-.L139)/2
 1960 0080 A0       		.byte	(.L137-.L139)/2
 1961 0081 A0       		.byte	(.L137-.L139)/2
 1962 0082 A0       		.byte	(.L137-.L139)/2
 1963 0083 A0       		.byte	(.L137-.L139)/2
 1964 0084 A0       		.byte	(.L137-.L139)/2
 1965 0085 A0       		.byte	(.L137-.L139)/2
 1966 0086 A0       		.byte	(.L137-.L139)/2
 1967 0087 A0       		.byte	(.L137-.L139)/2
 1968 0088 A0       		.byte	(.L137-.L139)/2
 1969 0089 A0       		.byte	(.L137-.L139)/2
 1970 008a A0       		.byte	(.L137-.L139)/2
 1971 008b A0       		.byte	(.L137-.L139)/2
 1972 008c A0       		.byte	(.L137-.L139)/2
 1973 008d A0       		.byte	(.L137-.L139)/2
 1974 008e A0       		.byte	(.L137-.L139)/2
 1975 008f A0       		.byte	(.L137-.L139)/2
ARM GAS  /tmp/cc7kjK8u.s 			page 62


 1976 0090 A0       		.byte	(.L137-.L139)/2
 1977 0091 A0       		.byte	(.L137-.L139)/2
 1978 0092 A0       		.byte	(.L137-.L139)/2
 1979 0093 A0       		.byte	(.L137-.L139)/2
 1980 0094 A0       		.byte	(.L137-.L139)/2
 1981 0095 A0       		.byte	(.L137-.L139)/2
 1982 0096 A0       		.byte	(.L137-.L139)/2
 1983 0097 44       		.byte	(.L141-.L139)/2
 1984 0098 A0       		.byte	(.L137-.L139)/2
 1985 0099 A0       		.byte	(.L137-.L139)/2
 1986 009a A0       		.byte	(.L137-.L139)/2
 1987 009b 2D       		.byte	(.L140-.L139)/2
 1988 009c 31       		.byte	(.L138-.L139)/2
 1989              	.LVL177:
 1990 009d 00       		.p2align 1
 1991              	.L136:
 692:Middlewares/lvgl/src/core/lv_obj_style.c **** 
 1992              		.loc 1 692 9 view .LVU564
 1993 009e 40F25742 		movw	r2, #1111
 1994              	.LVL178:
 692:Middlewares/lvgl/src/core/lv_obj_style.c **** 
 1995              		.loc 1 692 9 view .LVU565
 1996 00a2 9142     		cmp	r1, r2
 1997 00a4 28D0     		beq	.L142
 1998 00a6 41F25942 		movw	r2, #5209
 1999 00aa 9142     		cmp	r1, r2
 2000 00ac 72D1     		bne	.L137
 2001              	.L140:
 702:Middlewares/lvgl/src/core/lv_obj_style.c ****                 else value_final.ptr = tr->end_value.ptr;
 2002              		.loc 1 702 17 is_stmt 1 view .LVU566
 702:Middlewares/lvgl/src/core/lv_obj_style.c ****                 else value_final.ptr = tr->end_value.ptr;
 2003              		.loc 1 702 19 is_stmt 0 view .LVU567
 2004 00ae FE2F     		cmp	r7, #254
 2005 00b0 12DC     		bgt	.L145
 702:Middlewares/lvgl/src/core/lv_obj_style.c ****                 else value_final.ptr = tr->end_value.ptr;
 2006              		.loc 1 702 29 is_stmt 1 discriminator 1 view .LVU568
 702:Middlewares/lvgl/src/core/lv_obj_style.c ****                 else value_final.ptr = tr->end_value.ptr;
 2007              		.loc 1 702 62 is_stmt 0 discriminator 1 view .LVU569
 2008 00b2 E768     		ldr	r7, [r4, #12]
 2009              	.LVL179:
 702:Middlewares/lvgl/src/core/lv_obj_style.c ****                 else value_final.ptr = tr->end_value.ptr;
 2010              		.loc 1 702 62 discriminator 1 view .LVU570
 2011 00b4 02E0     		b	.L144
 2012              	.LVL180:
 2013              	.L138:
 697:Middlewares/lvgl/src/core/lv_obj_style.c ****                 else value_final.num = tr->end_value.num;
 2014              		.loc 1 697 17 is_stmt 1 view .LVU571
 697:Middlewares/lvgl/src/core/lv_obj_style.c ****                 else value_final.num = tr->end_value.num;
 2015              		.loc 1 697 19 is_stmt 0 view .LVU572
 2016 00b6 FE2F     		cmp	r7, #254
 2017 00b8 0CDC     		bgt	.L143
 697:Middlewares/lvgl/src/core/lv_obj_style.c ****                 else value_final.num = tr->end_value.num;
 2018              		.loc 1 697 29 is_stmt 1 discriminator 1 view .LVU573
 697:Middlewares/lvgl/src/core/lv_obj_style.c ****                 else value_final.num = tr->end_value.num;
 2019              		.loc 1 697 62 is_stmt 0 discriminator 1 view .LVU574
 2020 00ba E768     		ldr	r7, [r4, #12]
 2021              	.LVL181:
ARM GAS  /tmp/cc7kjK8u.s 			page 63


 2022              	.L144:
 729:Middlewares/lvgl/src/core/lv_obj_style.c ****         bool refr = true;
 2023              		.loc 1 729 9 is_stmt 1 view .LVU575
 730:Middlewares/lvgl/src/core/lv_obj_style.c ****         if(lv_style_get_prop(obj->styles[i].style, tr->prop, &old_value)) {
 2024              		.loc 1 730 9 view .LVU576
 731:Middlewares/lvgl/src/core/lv_obj_style.c ****             if(value_final.ptr == old_value.ptr && value_final.color.full == old_value.color.full &
 2025              		.loc 1 731 9 view .LVU577
 731:Middlewares/lvgl/src/core/lv_obj_style.c ****             if(value_final.ptr == old_value.ptr && value_final.color.full == old_value.color.full &
 2026              		.loc 1 731 12 is_stmt 0 view .LVU578
 2027 00bc 01AA     		add	r2, sp, #4
 2028 00be 1868     		ldr	r0, [r3]
 2029 00c0 FFF7FEFF 		bl	lv_style_get_prop
 2030              	.LVL182:
 731:Middlewares/lvgl/src/core/lv_obj_style.c ****             if(value_final.ptr == old_value.ptr && value_final.color.full == old_value.color.full &
 2031              		.loc 1 731 11 view .LVU579
 2032 00c4 0028     		cmp	r0, #0
 2033 00c6 78D0     		beq	.L157
 732:Middlewares/lvgl/src/core/lv_obj_style.c ****                 refr = false;
 2034              		.loc 1 732 13 is_stmt 1 view .LVU580
 732:Middlewares/lvgl/src/core/lv_obj_style.c ****                 refr = false;
 2035              		.loc 1 732 44 is_stmt 0 view .LVU581
 2036 00c8 019B     		ldr	r3, [sp, #4]
 732:Middlewares/lvgl/src/core/lv_obj_style.c ****                 refr = false;
 2037              		.loc 1 732 15 view .LVU582
 2038 00ca 9F42     		cmp	r7, r3
 2039 00cc 71D0     		beq	.L161
 730:Middlewares/lvgl/src/core/lv_obj_style.c ****         if(lv_style_get_prop(obj->styles[i].style, tr->prop, &old_value)) {
 2040              		.loc 1 730 14 view .LVU583
 2041 00ce 4FF00108 		mov	r8, #1
 2042 00d2 74E0     		b	.L153
 2043              	.LVL183:
 2044              	.L143:
 698:Middlewares/lvgl/src/core/lv_obj_style.c ****                 break;
 2045              		.loc 1 698 22 is_stmt 1 view .LVU584
 698:Middlewares/lvgl/src/core/lv_obj_style.c ****                 break;
 2046              		.loc 1 698 53 is_stmt 0 view .LVU585
 2047 00d4 2769     		ldr	r7, [r4, #16]
 2048              	.LVL184:
 698:Middlewares/lvgl/src/core/lv_obj_style.c ****                 break;
 2049              		.loc 1 698 53 view .LVU586
 2050 00d6 F1E7     		b	.L144
 2051              	.LVL185:
 2052              	.L145:
 703:Middlewares/lvgl/src/core/lv_obj_style.c ****                 break;
 2053              		.loc 1 703 22 is_stmt 1 view .LVU587
 703:Middlewares/lvgl/src/core/lv_obj_style.c ****                 break;
 2054              		.loc 1 703 53 is_stmt 0 view .LVU588
 2055 00d8 2769     		ldr	r7, [r4, #16]
 2056              	.LVL186:
 703:Middlewares/lvgl/src/core/lv_obj_style.c ****                 break;
 2057              		.loc 1 703 53 view .LVU589
 2058 00da EFE7     		b	.L144
 2059              	.LVL187:
 2060              	.L141:
 706:Middlewares/lvgl/src/core/lv_obj_style.c ****                 else if(tr->end_value.ptr == NULL) value_final.ptr = tr->start_value.ptr;
 2061              		.loc 1 706 17 is_stmt 1 view .LVU590
 706:Middlewares/lvgl/src/core/lv_obj_style.c ****                 else if(tr->end_value.ptr == NULL) value_final.ptr = tr->start_value.ptr;
ARM GAS  /tmp/cc7kjK8u.s 			page 64


 2062              		.loc 1 706 35 is_stmt 0 view .LVU591
 2063 00dc E268     		ldr	r2, [r4, #12]
 706:Middlewares/lvgl/src/core/lv_obj_style.c ****                 else if(tr->end_value.ptr == NULL) value_final.ptr = tr->start_value.ptr;
 2064              		.loc 1 706 19 view .LVU592
 2065 00de 2AB1     		cbz	r2, .L162
 707:Middlewares/lvgl/src/core/lv_obj_style.c ****                 else if(v < 128) value_final.ptr = tr->start_value.ptr;
 2066              		.loc 1 707 22 is_stmt 1 view .LVU593
 707:Middlewares/lvgl/src/core/lv_obj_style.c ****                 else if(v < 128) value_final.ptr = tr->start_value.ptr;
 2067              		.loc 1 707 38 is_stmt 0 view .LVU594
 2068 00e0 2069     		ldr	r0, [r4, #16]
 707:Middlewares/lvgl/src/core/lv_obj_style.c ****                 else if(v < 128) value_final.ptr = tr->start_value.ptr;
 2069              		.loc 1 707 24 view .LVU595
 2070 00e2 28B1     		cbz	r0, .L163
 708:Middlewares/lvgl/src/core/lv_obj_style.c ****                 else value_final.ptr = tr->end_value.ptr;
 2071              		.loc 1 708 22 is_stmt 1 view .LVU596
 708:Middlewares/lvgl/src/core/lv_obj_style.c ****                 else value_final.ptr = tr->end_value.ptr;
 2072              		.loc 1 708 24 is_stmt 0 view .LVU597
 2073 00e4 7F2F     		cmp	r7, #127
 2074 00e6 05DC     		bgt	.L148
 708:Middlewares/lvgl/src/core/lv_obj_style.c ****                 else value_final.ptr = tr->end_value.ptr;
 2075              		.loc 1 708 34 is_stmt 1 discriminator 1 view .LVU598
 708:Middlewares/lvgl/src/core/lv_obj_style.c ****                 else value_final.ptr = tr->end_value.ptr;
 2076              		.loc 1 708 50 is_stmt 0 discriminator 1 view .LVU599
 2077 00e8 1746     		mov	r7, r2
 2078              	.LVL188:
 708:Middlewares/lvgl/src/core/lv_obj_style.c ****                 else value_final.ptr = tr->end_value.ptr;
 2079              		.loc 1 708 50 discriminator 1 view .LVU600
 2080 00ea E7E7     		b	.L144
 2081              	.LVL189:
 2082              	.L162:
 706:Middlewares/lvgl/src/core/lv_obj_style.c ****                 else if(tr->end_value.ptr == NULL) value_final.ptr = tr->start_value.ptr;
 2083              		.loc 1 706 49 is_stmt 1 discriminator 1 view .LVU601
 706:Middlewares/lvgl/src/core/lv_obj_style.c ****                 else if(tr->end_value.ptr == NULL) value_final.ptr = tr->start_value.ptr;
 2084              		.loc 1 706 80 is_stmt 0 discriminator 1 view .LVU602
 2085 00ec 2769     		ldr	r7, [r4, #16]
 2086              	.LVL190:
 706:Middlewares/lvgl/src/core/lv_obj_style.c ****                 else if(tr->end_value.ptr == NULL) value_final.ptr = tr->start_value.ptr;
 2087              		.loc 1 706 80 discriminator 1 view .LVU603
 2088 00ee E5E7     		b	.L144
 2089              	.LVL191:
 2090              	.L163:
 707:Middlewares/lvgl/src/core/lv_obj_style.c ****                 else if(v < 128) value_final.ptr = tr->start_value.ptr;
 2091              		.loc 1 707 52 is_stmt 1 discriminator 1 view .LVU604
 707:Middlewares/lvgl/src/core/lv_obj_style.c ****                 else if(v < 128) value_final.ptr = tr->start_value.ptr;
 2092              		.loc 1 707 68 is_stmt 0 discriminator 1 view .LVU605
 2093 00f0 1746     		mov	r7, r2
 2094              	.LVL192:
 707:Middlewares/lvgl/src/core/lv_obj_style.c ****                 else if(v < 128) value_final.ptr = tr->start_value.ptr;
 2095              		.loc 1 707 68 discriminator 1 view .LVU606
 2096 00f2 E3E7     		b	.L144
 2097              	.LVL193:
 2098              	.L148:
 709:Middlewares/lvgl/src/core/lv_obj_style.c ****                 break;
 2099              		.loc 1 709 22 is_stmt 1 view .LVU607
 709:Middlewares/lvgl/src/core/lv_obj_style.c ****                 break;
 2100              		.loc 1 709 38 is_stmt 0 view .LVU608
 2101 00f4 0746     		mov	r7, r0
ARM GAS  /tmp/cc7kjK8u.s 			page 65


 2102              	.LVL194:
 709:Middlewares/lvgl/src/core/lv_obj_style.c ****                 break;
 2103              		.loc 1 709 38 view .LVU609
 2104 00f6 E1E7     		b	.L144
 2105              	.LVL195:
 2106              	.L142:
 717:Middlewares/lvgl/src/core/lv_obj_style.c ****                 else if(v >= 255) value_final.color = tr->end_value.color;
 2107              		.loc 1 717 17 is_stmt 1 view .LVU610
 717:Middlewares/lvgl/src/core/lv_obj_style.c ****                 else if(v >= 255) value_final.color = tr->end_value.color;
 2108              		.loc 1 717 19 is_stmt 0 view .LVU611
 2109 00f8 002F     		cmp	r7, #0
 2110 00fa 06DD     		ble	.L164
 718:Middlewares/lvgl/src/core/lv_obj_style.c ****                 else value_final.color = lv_color_mix(tr->end_value.color, tr->start_value.color, v
 2111              		.loc 1 718 22 is_stmt 1 view .LVU612
 718:Middlewares/lvgl/src/core/lv_obj_style.c ****                 else value_final.color = lv_color_mix(tr->end_value.color, tr->start_value.color, v
 2112              		.loc 1 718 24 is_stmt 0 view .LVU613
 2113 00fc FE2F     		cmp	r7, #254
 2114 00fe 09DD     		ble	.L150
 718:Middlewares/lvgl/src/core/lv_obj_style.c ****                 else value_final.color = lv_color_mix(tr->end_value.color, tr->start_value.color, v
 2115              		.loc 1 718 35 is_stmt 1 discriminator 1 view .LVU614
 718:Middlewares/lvgl/src/core/lv_obj_style.c ****                 else value_final.color = lv_color_mix(tr->end_value.color, tr->start_value.color, v
 2116              		.loc 1 718 53 is_stmt 0 discriminator 1 view .LVU615
 2117 0100 228A     		ldrh	r2, [r4, #16]
 2118 0102 0027     		movs	r7, #0
 2119              	.LVL196:
 718:Middlewares/lvgl/src/core/lv_obj_style.c ****                 else value_final.color = lv_color_mix(tr->end_value.color, tr->start_value.color, v
 2120              		.loc 1 718 53 discriminator 1 view .LVU616
 2121 0104 62F30F07 		bfi	r7, r2, #0, #16
 2122              	.LVL197:
 718:Middlewares/lvgl/src/core/lv_obj_style.c ****                 else value_final.color = lv_color_mix(tr->end_value.color, tr->start_value.color, v
 2123              		.loc 1 718 53 discriminator 1 view .LVU617
 2124 0108 D8E7     		b	.L144
 2125              	.LVL198:
 2126              	.L164:
 717:Middlewares/lvgl/src/core/lv_obj_style.c ****                 else if(v >= 255) value_final.color = tr->end_value.color;
 2127              		.loc 1 717 28 is_stmt 1 discriminator 1 view .LVU618
 717:Middlewares/lvgl/src/core/lv_obj_style.c ****                 else if(v >= 255) value_final.color = tr->end_value.color;
 2128              		.loc 1 717 46 is_stmt 0 discriminator 1 view .LVU619
 2129 010a A289     		ldrh	r2, [r4, #12]
 2130 010c 0027     		movs	r7, #0
 2131              	.LVL199:
 717:Middlewares/lvgl/src/core/lv_obj_style.c ****                 else if(v >= 255) value_final.color = tr->end_value.color;
 2132              		.loc 1 717 46 discriminator 1 view .LVU620
 2133 010e 62F30F07 		bfi	r7, r2, #0, #16
 2134              	.LVL200:
 717:Middlewares/lvgl/src/core/lv_obj_style.c ****                 else if(v >= 255) value_final.color = tr->end_value.color;
 2135              		.loc 1 717 46 discriminator 1 view .LVU621
 2136 0112 D3E7     		b	.L144
 2137              	.LVL201:
 2138              	.L150:
 719:Middlewares/lvgl/src/core/lv_obj_style.c ****                 break;
 2139              		.loc 1 719 22 is_stmt 1 view .LVU622
 719:Middlewares/lvgl/src/core/lv_obj_style.c ****                 break;
 2140              		.loc 1 719 42 is_stmt 0 view .LVU623
 2141 0114 FFB2     		uxtb	r7, r7
 2142              	.LVL202:
 719:Middlewares/lvgl/src/core/lv_obj_style.c ****                 break;
ARM GAS  /tmp/cc7kjK8u.s 			page 66


 2143              		.loc 1 719 42 view .LVU624
 2144 0116 B4F810E0 		ldrh	lr, [r4, #16]
 2145 011a B4F80C80 		ldrh	r8, [r4, #12]
 2146              	.LVL203:
 2147              	.LBB80:
 2148              	.LBI80:
 2149              		.file 3 "Middlewares/lvgl/src/core/../misc/lv_color.h"
   1:Middlewares/lvgl/src/core/../misc/lv_color.h **** /**
   2:Middlewares/lvgl/src/core/../misc/lv_color.h ****  * @file lv_color.h
   3:Middlewares/lvgl/src/core/../misc/lv_color.h ****  *
   4:Middlewares/lvgl/src/core/../misc/lv_color.h ****  */
   5:Middlewares/lvgl/src/core/../misc/lv_color.h **** 
   6:Middlewares/lvgl/src/core/../misc/lv_color.h **** #ifndef LV_COLOR_H
   7:Middlewares/lvgl/src/core/../misc/lv_color.h **** #define LV_COLOR_H
   8:Middlewares/lvgl/src/core/../misc/lv_color.h **** 
   9:Middlewares/lvgl/src/core/../misc/lv_color.h **** #ifdef __cplusplus
  10:Middlewares/lvgl/src/core/../misc/lv_color.h **** extern "C" {
  11:Middlewares/lvgl/src/core/../misc/lv_color.h **** #endif
  12:Middlewares/lvgl/src/core/../misc/lv_color.h **** 
  13:Middlewares/lvgl/src/core/../misc/lv_color.h **** /*********************
  14:Middlewares/lvgl/src/core/../misc/lv_color.h ****  *      INCLUDES
  15:Middlewares/lvgl/src/core/../misc/lv_color.h ****  *********************/
  16:Middlewares/lvgl/src/core/../misc/lv_color.h **** #include "../lv_conf_internal.h"
  17:Middlewares/lvgl/src/core/../misc/lv_color.h **** #include "lv_math.h"
  18:Middlewares/lvgl/src/core/../misc/lv_color.h **** #include "lv_types.h"
  19:Middlewares/lvgl/src/core/../misc/lv_color.h **** 
  20:Middlewares/lvgl/src/core/../misc/lv_color.h **** /*Error checking*/
  21:Middlewares/lvgl/src/core/../misc/lv_color.h **** #if LV_COLOR_DEPTH == 24
  22:Middlewares/lvgl/src/core/../misc/lv_color.h **** #error "LV_COLOR_DEPTH 24 is deprecated. Use LV_COLOR_DEPTH 32 instead (lv_conf.h)"
  23:Middlewares/lvgl/src/core/../misc/lv_color.h **** #endif
  24:Middlewares/lvgl/src/core/../misc/lv_color.h **** 
  25:Middlewares/lvgl/src/core/../misc/lv_color.h **** #if LV_COLOR_DEPTH != 32 && LV_COLOR_SCREEN_TRANSP != 0
  26:Middlewares/lvgl/src/core/../misc/lv_color.h **** #error "LV_COLOR_SCREEN_TRANSP requires LV_COLOR_DEPTH == 32. Set it in lv_conf.h"
  27:Middlewares/lvgl/src/core/../misc/lv_color.h **** #endif
  28:Middlewares/lvgl/src/core/../misc/lv_color.h **** 
  29:Middlewares/lvgl/src/core/../misc/lv_color.h **** #if LV_COLOR_DEPTH != 16 && LV_COLOR_16_SWAP != 0
  30:Middlewares/lvgl/src/core/../misc/lv_color.h **** #error "LV_COLOR_16_SWAP requires LV_COLOR_DEPTH == 16. Set it in lv_conf.h"
  31:Middlewares/lvgl/src/core/../misc/lv_color.h **** #endif
  32:Middlewares/lvgl/src/core/../misc/lv_color.h **** 
  33:Middlewares/lvgl/src/core/../misc/lv_color.h **** #include <stdint.h>
  34:Middlewares/lvgl/src/core/../misc/lv_color.h **** 
  35:Middlewares/lvgl/src/core/../misc/lv_color.h **** /*********************
  36:Middlewares/lvgl/src/core/../misc/lv_color.h ****  *      DEFINES
  37:Middlewares/lvgl/src/core/../misc/lv_color.h ****  *********************/
  38:Middlewares/lvgl/src/core/../misc/lv_color.h **** 
  39:Middlewares/lvgl/src/core/../misc/lv_color.h **** /**
  40:Middlewares/lvgl/src/core/../misc/lv_color.h ****  * Opacity percentages.
  41:Middlewares/lvgl/src/core/../misc/lv_color.h ****  */
  42:Middlewares/lvgl/src/core/../misc/lv_color.h **** enum {
  43:Middlewares/lvgl/src/core/../misc/lv_color.h ****     LV_OPA_TRANSP = 0,
  44:Middlewares/lvgl/src/core/../misc/lv_color.h ****     LV_OPA_0      = 0,
  45:Middlewares/lvgl/src/core/../misc/lv_color.h ****     LV_OPA_10     = 25,
  46:Middlewares/lvgl/src/core/../misc/lv_color.h ****     LV_OPA_20     = 51,
  47:Middlewares/lvgl/src/core/../misc/lv_color.h ****     LV_OPA_30     = 76,
  48:Middlewares/lvgl/src/core/../misc/lv_color.h ****     LV_OPA_40     = 102,
  49:Middlewares/lvgl/src/core/../misc/lv_color.h ****     LV_OPA_50     = 127,
  50:Middlewares/lvgl/src/core/../misc/lv_color.h ****     LV_OPA_60     = 153,
ARM GAS  /tmp/cc7kjK8u.s 			page 67


  51:Middlewares/lvgl/src/core/../misc/lv_color.h ****     LV_OPA_70     = 178,
  52:Middlewares/lvgl/src/core/../misc/lv_color.h ****     LV_OPA_80     = 204,
  53:Middlewares/lvgl/src/core/../misc/lv_color.h ****     LV_OPA_90     = 229,
  54:Middlewares/lvgl/src/core/../misc/lv_color.h ****     LV_OPA_100    = 255,
  55:Middlewares/lvgl/src/core/../misc/lv_color.h ****     LV_OPA_COVER  = 255,
  56:Middlewares/lvgl/src/core/../misc/lv_color.h **** };
  57:Middlewares/lvgl/src/core/../misc/lv_color.h **** 
  58:Middlewares/lvgl/src/core/../misc/lv_color.h **** #define LV_OPA_MIN 2    /*Opacities below this will be transparent*/
  59:Middlewares/lvgl/src/core/../misc/lv_color.h **** #define LV_OPA_MAX 253  /*Opacities above this will fully cover*/
  60:Middlewares/lvgl/src/core/../misc/lv_color.h **** 
  61:Middlewares/lvgl/src/core/../misc/lv_color.h **** #if LV_COLOR_DEPTH == 1
  62:Middlewares/lvgl/src/core/../misc/lv_color.h **** #define LV_COLOR_SIZE 8
  63:Middlewares/lvgl/src/core/../misc/lv_color.h **** #elif LV_COLOR_DEPTH == 8
  64:Middlewares/lvgl/src/core/../misc/lv_color.h **** #define LV_COLOR_SIZE 8
  65:Middlewares/lvgl/src/core/../misc/lv_color.h **** #elif LV_COLOR_DEPTH == 16
  66:Middlewares/lvgl/src/core/../misc/lv_color.h **** #define LV_COLOR_SIZE 16
  67:Middlewares/lvgl/src/core/../misc/lv_color.h **** #elif LV_COLOR_DEPTH == 32
  68:Middlewares/lvgl/src/core/../misc/lv_color.h **** #define LV_COLOR_SIZE 32
  69:Middlewares/lvgl/src/core/../misc/lv_color.h **** #else
  70:Middlewares/lvgl/src/core/../misc/lv_color.h **** #error "Invalid LV_COLOR_DEPTH in lv_conf.h! Set it to 1, 8, 16 or 32!"
  71:Middlewares/lvgl/src/core/../misc/lv_color.h **** #endif
  72:Middlewares/lvgl/src/core/../misc/lv_color.h **** 
  73:Middlewares/lvgl/src/core/../misc/lv_color.h **** /**
  74:Middlewares/lvgl/src/core/../misc/lv_color.h ****  * Adjust color mix functions rounding.
  75:Middlewares/lvgl/src/core/../misc/lv_color.h ****  * GPUs might calculate color mix (blending) differently.
  76:Middlewares/lvgl/src/core/../misc/lv_color.h ****  * Should be in range of 0..254
  77:Middlewares/lvgl/src/core/../misc/lv_color.h ****  * 0: no adjustment, get the integer part of the result (round down)
  78:Middlewares/lvgl/src/core/../misc/lv_color.h ****  * 64: round up from x.75
  79:Middlewares/lvgl/src/core/../misc/lv_color.h ****  * 128: round up from half
  80:Middlewares/lvgl/src/core/../misc/lv_color.h ****  * 192: round up from x.25
  81:Middlewares/lvgl/src/core/../misc/lv_color.h ****  * 254: round up*/
  82:Middlewares/lvgl/src/core/../misc/lv_color.h **** #ifndef LV_COLOR_MIX_ROUND_OFS
  83:Middlewares/lvgl/src/core/../misc/lv_color.h **** #if LV_COLOR_DEPTH == 32
  84:Middlewares/lvgl/src/core/../misc/lv_color.h **** #define LV_COLOR_MIX_ROUND_OFS 0
  85:Middlewares/lvgl/src/core/../misc/lv_color.h **** #else
  86:Middlewares/lvgl/src/core/../misc/lv_color.h **** #define LV_COLOR_MIX_ROUND_OFS 128
  87:Middlewares/lvgl/src/core/../misc/lv_color.h **** #endif
  88:Middlewares/lvgl/src/core/../misc/lv_color.h **** #endif
  89:Middlewares/lvgl/src/core/../misc/lv_color.h **** 
  90:Middlewares/lvgl/src/core/../misc/lv_color.h **** #if defined(__cplusplus) && !defined(_LV_COLOR_HAS_MODERN_CPP)
  91:Middlewares/lvgl/src/core/../misc/lv_color.h **** /**
  92:Middlewares/lvgl/src/core/../misc/lv_color.h **** * MSVC compiler's definition of the __cplusplus indicating 199711L regardless to C++ standard versi
  93:Middlewares/lvgl/src/core/../misc/lv_color.h **** * see https://devblogs.microsoft.com/cppblog/msvc-now-correctly-reports-cplusplus
  94:Middlewares/lvgl/src/core/../misc/lv_color.h **** * so we use _MSC_VER macro instead of __cplusplus
  95:Middlewares/lvgl/src/core/../misc/lv_color.h **** */
  96:Middlewares/lvgl/src/core/../misc/lv_color.h **** #ifdef _MSC_VER
  97:Middlewares/lvgl/src/core/../misc/lv_color.h **** #if _MSC_VER >= 1900 /*Visual Studio 2015*/
  98:Middlewares/lvgl/src/core/../misc/lv_color.h **** #define _LV_COLOR_HAS_MODERN_CPP 1
  99:Middlewares/lvgl/src/core/../misc/lv_color.h **** #endif
 100:Middlewares/lvgl/src/core/../misc/lv_color.h **** #else
 101:Middlewares/lvgl/src/core/../misc/lv_color.h **** #if __cplusplus >= 201103L
 102:Middlewares/lvgl/src/core/../misc/lv_color.h **** #define _LV_COLOR_HAS_MODERN_CPP 1
 103:Middlewares/lvgl/src/core/../misc/lv_color.h **** #endif
 104:Middlewares/lvgl/src/core/../misc/lv_color.h **** #endif
 105:Middlewares/lvgl/src/core/../misc/lv_color.h **** #endif /*__cplusplus*/
 106:Middlewares/lvgl/src/core/../misc/lv_color.h **** 
 107:Middlewares/lvgl/src/core/../misc/lv_color.h **** #ifndef _LV_COLOR_HAS_MODERN_CPP
ARM GAS  /tmp/cc7kjK8u.s 			page 68


 108:Middlewares/lvgl/src/core/../misc/lv_color.h **** #define _LV_COLOR_HAS_MODERN_CPP 0
 109:Middlewares/lvgl/src/core/../misc/lv_color.h **** #endif
 110:Middlewares/lvgl/src/core/../misc/lv_color.h **** 
 111:Middlewares/lvgl/src/core/../misc/lv_color.h **** #if _LV_COLOR_HAS_MODERN_CPP
 112:Middlewares/lvgl/src/core/../misc/lv_color.h **** /*Fix msvc compiler error C4576 inside C++ code*/
 113:Middlewares/lvgl/src/core/../misc/lv_color.h **** #define _LV_COLOR_MAKE_TYPE_HELPER lv_color_t
 114:Middlewares/lvgl/src/core/../misc/lv_color.h **** #else
 115:Middlewares/lvgl/src/core/../misc/lv_color.h **** #define _LV_COLOR_MAKE_TYPE_HELPER (lv_color_t)
 116:Middlewares/lvgl/src/core/../misc/lv_color.h **** #endif
 117:Middlewares/lvgl/src/core/../misc/lv_color.h **** 
 118:Middlewares/lvgl/src/core/../misc/lv_color.h **** /*---------------------------------------
 119:Middlewares/lvgl/src/core/../misc/lv_color.h ****  * Macros for all existing color depths
 120:Middlewares/lvgl/src/core/../misc/lv_color.h ****  * to set/get values of the color channels
 121:Middlewares/lvgl/src/core/../misc/lv_color.h ****  *------------------------------------------*/
 122:Middlewares/lvgl/src/core/../misc/lv_color.h **** # define LV_COLOR_SET_R1(c, v) (c).ch.red = (uint8_t)((v) & 0x1)
 123:Middlewares/lvgl/src/core/../misc/lv_color.h **** # define LV_COLOR_SET_G1(c, v) (c).ch.green = (uint8_t)((v) & 0x1)
 124:Middlewares/lvgl/src/core/../misc/lv_color.h **** # define LV_COLOR_SET_B1(c, v) (c).ch.blue = (uint8_t)((v) & 0x1)
 125:Middlewares/lvgl/src/core/../misc/lv_color.h **** # define LV_COLOR_SET_A1(c, v) do {} while(0)
 126:Middlewares/lvgl/src/core/../misc/lv_color.h **** 
 127:Middlewares/lvgl/src/core/../misc/lv_color.h **** # define LV_COLOR_GET_R1(c) (c).ch.red
 128:Middlewares/lvgl/src/core/../misc/lv_color.h **** # define LV_COLOR_GET_G1(c) (c).ch.green
 129:Middlewares/lvgl/src/core/../misc/lv_color.h **** # define LV_COLOR_GET_B1(c) (c).ch.blue
 130:Middlewares/lvgl/src/core/../misc/lv_color.h **** # define LV_COLOR_GET_A1(c) 0xFF
 131:Middlewares/lvgl/src/core/../misc/lv_color.h **** 
 132:Middlewares/lvgl/src/core/../misc/lv_color.h **** # define _LV_COLOR_ZERO_INITIALIZER1 {0x00}
 133:Middlewares/lvgl/src/core/../misc/lv_color.h **** # define LV_COLOR_MAKE1(r8, g8, b8)  {(uint8_t)((b8 >> 7) | (g8 >> 7) | (r8 >> 7))}
 134:Middlewares/lvgl/src/core/../misc/lv_color.h **** 
 135:Middlewares/lvgl/src/core/../misc/lv_color.h **** # define LV_COLOR_SET_R8(c, v) (c).ch.red = (uint8_t)((v) & 0x7U)
 136:Middlewares/lvgl/src/core/../misc/lv_color.h **** # define LV_COLOR_SET_G8(c, v) (c).ch.green = (uint8_t)((v) & 0x7U)
 137:Middlewares/lvgl/src/core/../misc/lv_color.h **** # define LV_COLOR_SET_B8(c, v) (c).ch.blue = (uint8_t)((v) & 0x3U)
 138:Middlewares/lvgl/src/core/../misc/lv_color.h **** # define LV_COLOR_SET_A8(c, v) do {} while(0)
 139:Middlewares/lvgl/src/core/../misc/lv_color.h **** 
 140:Middlewares/lvgl/src/core/../misc/lv_color.h **** # define LV_COLOR_GET_R8(c) (c).ch.red
 141:Middlewares/lvgl/src/core/../misc/lv_color.h **** # define LV_COLOR_GET_G8(c) (c).ch.green
 142:Middlewares/lvgl/src/core/../misc/lv_color.h **** # define LV_COLOR_GET_B8(c) (c).ch.blue
 143:Middlewares/lvgl/src/core/../misc/lv_color.h **** # define LV_COLOR_GET_A8(c) 0xFF
 144:Middlewares/lvgl/src/core/../misc/lv_color.h **** 
 145:Middlewares/lvgl/src/core/../misc/lv_color.h **** # define _LV_COLOR_ZERO_INITIALIZER8 _LV_COLOR_MAKE_TYPE_HELPER {{0x00, 0x00, 0x00}}
 146:Middlewares/lvgl/src/core/../misc/lv_color.h **** # define LV_COLOR_MAKE8(r8, g8, b8) _LV_COLOR_MAKE_TYPE_HELPER  {{(uint8_t)((b8 >> 6) & 0x3U), (uin
 147:Middlewares/lvgl/src/core/../misc/lv_color.h **** 
 148:Middlewares/lvgl/src/core/../misc/lv_color.h **** # define LV_COLOR_SET_R16(c, v) (c).ch.red = (uint8_t)((v) & 0x1FU)
 149:Middlewares/lvgl/src/core/../misc/lv_color.h **** #if LV_COLOR_16_SWAP == 0
 150:Middlewares/lvgl/src/core/../misc/lv_color.h **** # define LV_COLOR_SET_G16(c, v) (c).ch.green = (uint8_t)((v) & 0x3FU)
 151:Middlewares/lvgl/src/core/../misc/lv_color.h **** #else
 152:Middlewares/lvgl/src/core/../misc/lv_color.h **** # define LV_COLOR_SET_G16(c, v) {(c).ch.green_h = (uint8_t)(((v) >> 3) & 0x7); (c).ch.green_l = (ui
 153:Middlewares/lvgl/src/core/../misc/lv_color.h **** #endif
 154:Middlewares/lvgl/src/core/../misc/lv_color.h **** # define LV_COLOR_SET_B16(c, v) (c).ch.blue = (uint8_t)((v) & 0x1FU)
 155:Middlewares/lvgl/src/core/../misc/lv_color.h **** # define LV_COLOR_SET_A16(c, v) do {} while(0)
 156:Middlewares/lvgl/src/core/../misc/lv_color.h **** 
 157:Middlewares/lvgl/src/core/../misc/lv_color.h **** # define LV_COLOR_GET_R16(c) (c).ch.red
 158:Middlewares/lvgl/src/core/../misc/lv_color.h **** #if LV_COLOR_16_SWAP == 0
 159:Middlewares/lvgl/src/core/../misc/lv_color.h **** # define LV_COLOR_GET_G16(c) (c).ch.green
 160:Middlewares/lvgl/src/core/../misc/lv_color.h **** #else
 161:Middlewares/lvgl/src/core/../misc/lv_color.h **** # define LV_COLOR_GET_G16(c) (((c).ch.green_h << 3) + (c).ch.green_l)
 162:Middlewares/lvgl/src/core/../misc/lv_color.h **** #endif
 163:Middlewares/lvgl/src/core/../misc/lv_color.h **** # define LV_COLOR_GET_B16(c) (c).ch.blue
 164:Middlewares/lvgl/src/core/../misc/lv_color.h **** # define LV_COLOR_GET_A16(c) 0xFF
ARM GAS  /tmp/cc7kjK8u.s 			page 69


 165:Middlewares/lvgl/src/core/../misc/lv_color.h **** 
 166:Middlewares/lvgl/src/core/../misc/lv_color.h **** #if LV_COLOR_16_SWAP == 0
 167:Middlewares/lvgl/src/core/../misc/lv_color.h **** # define _LV_COLOR_ZERO_INITIALIZER16  {{0x00, 0x00, 0x00}}
 168:Middlewares/lvgl/src/core/../misc/lv_color.h **** # define LV_COLOR_MAKE16(r8, g8, b8) {{(uint8_t)((b8 >> 3) & 0x1FU), (uint8_t)((g8 >> 2) & 0x3FU), 
 169:Middlewares/lvgl/src/core/../misc/lv_color.h **** #else
 170:Middlewares/lvgl/src/core/../misc/lv_color.h **** # define _LV_COLOR_ZERO_INITIALIZER16 {{0x00, 0x00, 0x00, 0x00}}
 171:Middlewares/lvgl/src/core/../misc/lv_color.h **** # define LV_COLOR_MAKE16(r8, g8, b8) {{(uint8_t)((g8 >> 5) & 0x7U), (uint8_t)((r8 >> 3) & 0x1FU), (
 172:Middlewares/lvgl/src/core/../misc/lv_color.h **** #endif
 173:Middlewares/lvgl/src/core/../misc/lv_color.h **** 
 174:Middlewares/lvgl/src/core/../misc/lv_color.h **** # define LV_COLOR_SET_R32(c, v) (c).ch.red = (uint8_t)((v) & 0xFF)
 175:Middlewares/lvgl/src/core/../misc/lv_color.h **** # define LV_COLOR_SET_G32(c, v) (c).ch.green = (uint8_t)((v) & 0xFF)
 176:Middlewares/lvgl/src/core/../misc/lv_color.h **** # define LV_COLOR_SET_B32(c, v) (c).ch.blue = (uint8_t)((v) & 0xFF)
 177:Middlewares/lvgl/src/core/../misc/lv_color.h **** # define LV_COLOR_SET_A32(c, v) (c).ch.alpha = (uint8_t)((v) & 0xFF)
 178:Middlewares/lvgl/src/core/../misc/lv_color.h **** 
 179:Middlewares/lvgl/src/core/../misc/lv_color.h **** # define LV_COLOR_GET_R32(c) (c).ch.red
 180:Middlewares/lvgl/src/core/../misc/lv_color.h **** # define LV_COLOR_GET_G32(c) (c).ch.green
 181:Middlewares/lvgl/src/core/../misc/lv_color.h **** # define LV_COLOR_GET_B32(c) (c).ch.blue
 182:Middlewares/lvgl/src/core/../misc/lv_color.h **** # define LV_COLOR_GET_A32(c) (c).ch.alpha
 183:Middlewares/lvgl/src/core/../misc/lv_color.h **** 
 184:Middlewares/lvgl/src/core/../misc/lv_color.h **** # define _LV_COLOR_ZERO_INITIALIZER32  {{0x00, 0x00, 0x00, 0x00}}
 185:Middlewares/lvgl/src/core/../misc/lv_color.h **** # define LV_COLOR_MAKE32(r8, g8, b8) {{b8, g8, r8, 0xff}} /*Fix 0xff alpha*/
 186:Middlewares/lvgl/src/core/../misc/lv_color.h **** 
 187:Middlewares/lvgl/src/core/../misc/lv_color.h **** /*---------------------------------------
 188:Middlewares/lvgl/src/core/../misc/lv_color.h ****  * Macros for the current color depth
 189:Middlewares/lvgl/src/core/../misc/lv_color.h ****  * to set/get values of the color channels
 190:Middlewares/lvgl/src/core/../misc/lv_color.h ****  *------------------------------------------*/
 191:Middlewares/lvgl/src/core/../misc/lv_color.h **** #define LV_COLOR_SET_R(c, v) LV_CONCAT(LV_COLOR_SET_R, LV_COLOR_DEPTH)(c, v)
 192:Middlewares/lvgl/src/core/../misc/lv_color.h **** #define LV_COLOR_SET_G(c, v) LV_CONCAT(LV_COLOR_SET_G, LV_COLOR_DEPTH)(c, v)
 193:Middlewares/lvgl/src/core/../misc/lv_color.h **** #define LV_COLOR_SET_B(c, v) LV_CONCAT(LV_COLOR_SET_B, LV_COLOR_DEPTH)(c, v)
 194:Middlewares/lvgl/src/core/../misc/lv_color.h **** #define LV_COLOR_SET_A(c, v) LV_CONCAT(LV_COLOR_SET_A, LV_COLOR_DEPTH)(c, v)
 195:Middlewares/lvgl/src/core/../misc/lv_color.h **** 
 196:Middlewares/lvgl/src/core/../misc/lv_color.h **** #define LV_COLOR_GET_R(c) LV_CONCAT(LV_COLOR_GET_R, LV_COLOR_DEPTH)(c)
 197:Middlewares/lvgl/src/core/../misc/lv_color.h **** #define LV_COLOR_GET_G(c) LV_CONCAT(LV_COLOR_GET_G, LV_COLOR_DEPTH)(c)
 198:Middlewares/lvgl/src/core/../misc/lv_color.h **** #define LV_COLOR_GET_B(c) LV_CONCAT(LV_COLOR_GET_B, LV_COLOR_DEPTH)(c)
 199:Middlewares/lvgl/src/core/../misc/lv_color.h **** #define LV_COLOR_GET_A(c) LV_CONCAT(LV_COLOR_GET_A, LV_COLOR_DEPTH)(c)
 200:Middlewares/lvgl/src/core/../misc/lv_color.h **** 
 201:Middlewares/lvgl/src/core/../misc/lv_color.h **** #define _LV_COLOR_ZERO_INITIALIZER LV_CONCAT(_LV_COLOR_ZERO_INITIALIZER, LV_COLOR_DEPTH)
 202:Middlewares/lvgl/src/core/../misc/lv_color.h **** #define LV_COLOR_MAKE(r8, g8, b8) LV_CONCAT(LV_COLOR_MAKE, LV_COLOR_DEPTH)(r8, g8, b8)
 203:Middlewares/lvgl/src/core/../misc/lv_color.h **** 
 204:Middlewares/lvgl/src/core/../misc/lv_color.h **** #define LV_UDIV255(x) ((uint32_t)((uint32_t) (x) * 0x8081) >> 0x17)
 205:Middlewares/lvgl/src/core/../misc/lv_color.h **** 
 206:Middlewares/lvgl/src/core/../misc/lv_color.h **** /**********************
 207:Middlewares/lvgl/src/core/../misc/lv_color.h ****  *      TYPEDEFS
 208:Middlewares/lvgl/src/core/../misc/lv_color.h ****  **********************/
 209:Middlewares/lvgl/src/core/../misc/lv_color.h **** 
 210:Middlewares/lvgl/src/core/../misc/lv_color.h **** typedef union {
 211:Middlewares/lvgl/src/core/../misc/lv_color.h ****     uint8_t full; /*must be declared first to set all bits of byte via initializer list*/
 212:Middlewares/lvgl/src/core/../misc/lv_color.h ****     union {
 213:Middlewares/lvgl/src/core/../misc/lv_color.h ****         uint8_t blue : 1;
 214:Middlewares/lvgl/src/core/../misc/lv_color.h ****         uint8_t green : 1;
 215:Middlewares/lvgl/src/core/../misc/lv_color.h ****         uint8_t red : 1;
 216:Middlewares/lvgl/src/core/../misc/lv_color.h ****     } ch;
 217:Middlewares/lvgl/src/core/../misc/lv_color.h **** } lv_color1_t;
 218:Middlewares/lvgl/src/core/../misc/lv_color.h **** 
 219:Middlewares/lvgl/src/core/../misc/lv_color.h **** typedef union {
 220:Middlewares/lvgl/src/core/../misc/lv_color.h ****     struct {
 221:Middlewares/lvgl/src/core/../misc/lv_color.h ****         uint8_t blue : 2;
ARM GAS  /tmp/cc7kjK8u.s 			page 70


 222:Middlewares/lvgl/src/core/../misc/lv_color.h ****         uint8_t green : 3;
 223:Middlewares/lvgl/src/core/../misc/lv_color.h ****         uint8_t red : 3;
 224:Middlewares/lvgl/src/core/../misc/lv_color.h ****     } ch;
 225:Middlewares/lvgl/src/core/../misc/lv_color.h ****     uint8_t full;
 226:Middlewares/lvgl/src/core/../misc/lv_color.h **** } lv_color8_t;
 227:Middlewares/lvgl/src/core/../misc/lv_color.h **** 
 228:Middlewares/lvgl/src/core/../misc/lv_color.h **** typedef union {
 229:Middlewares/lvgl/src/core/../misc/lv_color.h ****     struct {
 230:Middlewares/lvgl/src/core/../misc/lv_color.h **** #if LV_COLOR_16_SWAP == 0
 231:Middlewares/lvgl/src/core/../misc/lv_color.h ****         uint16_t blue : 5;
 232:Middlewares/lvgl/src/core/../misc/lv_color.h ****         uint16_t green : 6;
 233:Middlewares/lvgl/src/core/../misc/lv_color.h ****         uint16_t red : 5;
 234:Middlewares/lvgl/src/core/../misc/lv_color.h **** #else
 235:Middlewares/lvgl/src/core/../misc/lv_color.h ****         uint16_t green_h : 3;
 236:Middlewares/lvgl/src/core/../misc/lv_color.h ****         uint16_t red : 5;
 237:Middlewares/lvgl/src/core/../misc/lv_color.h ****         uint16_t blue : 5;
 238:Middlewares/lvgl/src/core/../misc/lv_color.h ****         uint16_t green_l : 3;
 239:Middlewares/lvgl/src/core/../misc/lv_color.h **** #endif
 240:Middlewares/lvgl/src/core/../misc/lv_color.h ****     } ch;
 241:Middlewares/lvgl/src/core/../misc/lv_color.h ****     uint16_t full;
 242:Middlewares/lvgl/src/core/../misc/lv_color.h **** } lv_color16_t;
 243:Middlewares/lvgl/src/core/../misc/lv_color.h **** 
 244:Middlewares/lvgl/src/core/../misc/lv_color.h **** typedef union {
 245:Middlewares/lvgl/src/core/../misc/lv_color.h ****     struct {
 246:Middlewares/lvgl/src/core/../misc/lv_color.h ****         uint8_t blue;
 247:Middlewares/lvgl/src/core/../misc/lv_color.h ****         uint8_t green;
 248:Middlewares/lvgl/src/core/../misc/lv_color.h ****         uint8_t red;
 249:Middlewares/lvgl/src/core/../misc/lv_color.h ****         uint8_t alpha;
 250:Middlewares/lvgl/src/core/../misc/lv_color.h ****     } ch;
 251:Middlewares/lvgl/src/core/../misc/lv_color.h ****     uint32_t full;
 252:Middlewares/lvgl/src/core/../misc/lv_color.h **** } lv_color32_t;
 253:Middlewares/lvgl/src/core/../misc/lv_color.h **** 
