ARM GAS  /tmp/ccCUlDzD.s 			page 1


   1              		.cpu cortex-m4
   2              		.arch armv7e-m
   3              		.fpu fpv4-sp-d16
   4              		.eabi_attribute 27, 1
   5              		.eabi_attribute 28, 1
   6              		.eabi_attribute 20, 1
   7              		.eabi_attribute 21, 1
   8              		.eabi_attribute 23, 3
   9              		.eabi_attribute 24, 1
  10              		.eabi_attribute 25, 1
  11              		.eabi_attribute 26, 1
  12              		.eabi_attribute 30, 1
  13              		.eabi_attribute 34, 1
  14              		.eabi_attribute 18, 4
  15              		.file	"lv_win.c"
  16              		.text
  17              	.Ltext0:
  18              		.cfi_sections	.debug_frame
  19              		.section	.text.lv_win_constructor,"ax",%progbits
  20              		.align	1
  21              		.syntax unified
  22              		.thumb
  23              		.thumb_func
  25              	lv_win_constructor:
  26              	.LVL0:
  27              	.LFB189:
  28              		.file 1 "Middlewares/lvgl/src/extra/widgets/win/lv_win.c"
   1:Middlewares/lvgl/src/extra/widgets/win/lv_win.c **** /**
   2:Middlewares/lvgl/src/extra/widgets/win/lv_win.c ****  * @file lv_win.c
   3:Middlewares/lvgl/src/extra/widgets/win/lv_win.c ****  *
   4:Middlewares/lvgl/src/extra/widgets/win/lv_win.c ****  */
   5:Middlewares/lvgl/src/extra/widgets/win/lv_win.c **** 
   6:Middlewares/lvgl/src/extra/widgets/win/lv_win.c **** /*********************
   7:Middlewares/lvgl/src/extra/widgets/win/lv_win.c ****  *      INCLUDES
   8:Middlewares/lvgl/src/extra/widgets/win/lv_win.c ****  *********************/
   9:Middlewares/lvgl/src/extra/widgets/win/lv_win.c **** #include "lv_win.h"
  10:Middlewares/lvgl/src/extra/widgets/win/lv_win.c **** #if LV_USE_WIN
  11:Middlewares/lvgl/src/extra/widgets/win/lv_win.c **** 
  12:Middlewares/lvgl/src/extra/widgets/win/lv_win.c **** 
  13:Middlewares/lvgl/src/extra/widgets/win/lv_win.c **** /*********************
  14:Middlewares/lvgl/src/extra/widgets/win/lv_win.c ****  *      DEFINES
  15:Middlewares/lvgl/src/extra/widgets/win/lv_win.c ****  *********************/
  16:Middlewares/lvgl/src/extra/widgets/win/lv_win.c **** 
  17:Middlewares/lvgl/src/extra/widgets/win/lv_win.c **** /**********************
  18:Middlewares/lvgl/src/extra/widgets/win/lv_win.c ****  *      TYPEDEFS
  19:Middlewares/lvgl/src/extra/widgets/win/lv_win.c ****  **********************/
  20:Middlewares/lvgl/src/extra/widgets/win/lv_win.c **** 
  21:Middlewares/lvgl/src/extra/widgets/win/lv_win.c **** /**********************
  22:Middlewares/lvgl/src/extra/widgets/win/lv_win.c ****  *  STATIC PROTOTYPES
  23:Middlewares/lvgl/src/extra/widgets/win/lv_win.c ****  **********************/
  24:Middlewares/lvgl/src/extra/widgets/win/lv_win.c **** static void lv_win_constructor(const lv_obj_class_t * class_p, lv_obj_t * obj);
  25:Middlewares/lvgl/src/extra/widgets/win/lv_win.c **** 
  26:Middlewares/lvgl/src/extra/widgets/win/lv_win.c **** /**********************
  27:Middlewares/lvgl/src/extra/widgets/win/lv_win.c ****  *  STATIC VARIABLES
  28:Middlewares/lvgl/src/extra/widgets/win/lv_win.c ****  **********************/
  29:Middlewares/lvgl/src/extra/widgets/win/lv_win.c **** const lv_obj_class_t lv_win_class = {
  30:Middlewares/lvgl/src/extra/widgets/win/lv_win.c ****         .constructor_cb = lv_win_constructor,
ARM GAS  /tmp/ccCUlDzD.s 			page 2


  31:Middlewares/lvgl/src/extra/widgets/win/lv_win.c ****         .width_def = LV_PCT(100),
  32:Middlewares/lvgl/src/extra/widgets/win/lv_win.c ****         .height_def = LV_PCT(100),
  33:Middlewares/lvgl/src/extra/widgets/win/lv_win.c ****         .base_class = &lv_obj_class,
  34:Middlewares/lvgl/src/extra/widgets/win/lv_win.c ****         .instance_size = sizeof(lv_win_t)
  35:Middlewares/lvgl/src/extra/widgets/win/lv_win.c **** };
  36:Middlewares/lvgl/src/extra/widgets/win/lv_win.c **** static lv_coord_t create_header_height;
  37:Middlewares/lvgl/src/extra/widgets/win/lv_win.c **** /**********************
  38:Middlewares/lvgl/src/extra/widgets/win/lv_win.c ****  *      MACROS
  39:Middlewares/lvgl/src/extra/widgets/win/lv_win.c ****  **********************/
  40:Middlewares/lvgl/src/extra/widgets/win/lv_win.c **** 
  41:Middlewares/lvgl/src/extra/widgets/win/lv_win.c **** /**********************
  42:Middlewares/lvgl/src/extra/widgets/win/lv_win.c ****  *   GLOBAL FUNCTIONS
  43:Middlewares/lvgl/src/extra/widgets/win/lv_win.c ****  **********************/
  44:Middlewares/lvgl/src/extra/widgets/win/lv_win.c **** 
  45:Middlewares/lvgl/src/extra/widgets/win/lv_win.c **** lv_obj_t * lv_win_create(lv_obj_t * parent, lv_coord_t header_height)
  46:Middlewares/lvgl/src/extra/widgets/win/lv_win.c **** {
  47:Middlewares/lvgl/src/extra/widgets/win/lv_win.c ****     LV_LOG_INFO("begin")
  48:Middlewares/lvgl/src/extra/widgets/win/lv_win.c ****     create_header_height = header_height;
  49:Middlewares/lvgl/src/extra/widgets/win/lv_win.c **** 
  50:Middlewares/lvgl/src/extra/widgets/win/lv_win.c ****     lv_obj_t * obj = lv_obj_class_create_obj(&lv_win_class, parent);
  51:Middlewares/lvgl/src/extra/widgets/win/lv_win.c ****     lv_obj_class_init_obj(obj);
  52:Middlewares/lvgl/src/extra/widgets/win/lv_win.c ****     return obj;
  53:Middlewares/lvgl/src/extra/widgets/win/lv_win.c **** }
  54:Middlewares/lvgl/src/extra/widgets/win/lv_win.c **** 
  55:Middlewares/lvgl/src/extra/widgets/win/lv_win.c **** lv_obj_t * lv_win_add_title(lv_obj_t * win, const char * txt)
  56:Middlewares/lvgl/src/extra/widgets/win/lv_win.c **** {
  57:Middlewares/lvgl/src/extra/widgets/win/lv_win.c ****     lv_obj_t * header = lv_win_get_header(win);
  58:Middlewares/lvgl/src/extra/widgets/win/lv_win.c ****     lv_obj_t * title = lv_label_create(header);
  59:Middlewares/lvgl/src/extra/widgets/win/lv_win.c ****     lv_label_set_long_mode(title, LV_LABEL_LONG_DOT);
  60:Middlewares/lvgl/src/extra/widgets/win/lv_win.c ****     lv_label_set_text(title, txt);
  61:Middlewares/lvgl/src/extra/widgets/win/lv_win.c ****     lv_obj_set_flex_grow(title, 1);
  62:Middlewares/lvgl/src/extra/widgets/win/lv_win.c ****     return title;
  63:Middlewares/lvgl/src/extra/widgets/win/lv_win.c **** }
  64:Middlewares/lvgl/src/extra/widgets/win/lv_win.c **** 
  65:Middlewares/lvgl/src/extra/widgets/win/lv_win.c **** lv_obj_t * lv_win_add_btn(lv_obj_t * win, const void * icon, lv_coord_t btn_w)
  66:Middlewares/lvgl/src/extra/widgets/win/lv_win.c **** {
  67:Middlewares/lvgl/src/extra/widgets/win/lv_win.c ****     lv_obj_t * header = lv_win_get_header(win);
  68:Middlewares/lvgl/src/extra/widgets/win/lv_win.c ****     lv_obj_t * btn = lv_btn_create(header);
  69:Middlewares/lvgl/src/extra/widgets/win/lv_win.c ****     lv_obj_set_size(btn, btn_w, LV_PCT(100));
  70:Middlewares/lvgl/src/extra/widgets/win/lv_win.c **** 
  71:Middlewares/lvgl/src/extra/widgets/win/lv_win.c ****     lv_obj_t * img = lv_img_create(btn);
  72:Middlewares/lvgl/src/extra/widgets/win/lv_win.c ****     lv_img_set_src(img, icon);
  73:Middlewares/lvgl/src/extra/widgets/win/lv_win.c ****     lv_obj_align(img, LV_ALIGN_CENTER, 0, 0);
  74:Middlewares/lvgl/src/extra/widgets/win/lv_win.c **** 
  75:Middlewares/lvgl/src/extra/widgets/win/lv_win.c ****     return btn;
  76:Middlewares/lvgl/src/extra/widgets/win/lv_win.c **** }
  77:Middlewares/lvgl/src/extra/widgets/win/lv_win.c **** 
  78:Middlewares/lvgl/src/extra/widgets/win/lv_win.c **** lv_obj_t * lv_win_get_header(lv_obj_t * win)
  79:Middlewares/lvgl/src/extra/widgets/win/lv_win.c **** {
  80:Middlewares/lvgl/src/extra/widgets/win/lv_win.c ****     return lv_obj_get_child(win, 0);
  81:Middlewares/lvgl/src/extra/widgets/win/lv_win.c **** }
  82:Middlewares/lvgl/src/extra/widgets/win/lv_win.c **** 
  83:Middlewares/lvgl/src/extra/widgets/win/lv_win.c **** lv_obj_t * lv_win_get_content(lv_obj_t * win)
  84:Middlewares/lvgl/src/extra/widgets/win/lv_win.c **** {
  85:Middlewares/lvgl/src/extra/widgets/win/lv_win.c ****     return lv_obj_get_child(win, 1);
  86:Middlewares/lvgl/src/extra/widgets/win/lv_win.c **** }
  87:Middlewares/lvgl/src/extra/widgets/win/lv_win.c **** 
ARM GAS  /tmp/ccCUlDzD.s 			page 3


  88:Middlewares/lvgl/src/extra/widgets/win/lv_win.c **** /**********************
  89:Middlewares/lvgl/src/extra/widgets/win/lv_win.c ****  *   STATIC FUNCTIONS
  90:Middlewares/lvgl/src/extra/widgets/win/lv_win.c ****  **********************/
  91:Middlewares/lvgl/src/extra/widgets/win/lv_win.c **** 
  92:Middlewares/lvgl/src/extra/widgets/win/lv_win.c **** static void lv_win_constructor(const lv_obj_class_t * class_p, lv_obj_t * obj)
  93:Middlewares/lvgl/src/extra/widgets/win/lv_win.c **** {
  29              		.loc 1 93 1 view -0
  30              		.cfi_startproc
  31              		@ args = 0, pretend = 0, frame = 0
  32              		@ frame_needed = 0, uses_anonymous_args = 0
  33              		.loc 1 93 1 is_stmt 0 view .LVU1
  34 0000 70B5     		push	{r4, r5, r6, lr}
  35              	.LCFI0:
  36              		.cfi_def_cfa_offset 16
  37              		.cfi_offset 4, -16
  38              		.cfi_offset 5, -12
  39              		.cfi_offset 6, -8
  40              		.cfi_offset 14, -4
  41 0002 0C46     		mov	r4, r1
  94:Middlewares/lvgl/src/extra/widgets/win/lv_win.c ****     LV_UNUSED(class_p);
  42              		.loc 1 94 5 is_stmt 1 view .LVU2
  95:Middlewares/lvgl/src/extra/widgets/win/lv_win.c ****     lv_obj_t * parent = lv_obj_get_parent(obj);
  43              		.loc 1 95 5 view .LVU3
  44              		.loc 1 95 25 is_stmt 0 view .LVU4
  45 0004 0846     		mov	r0, r1
  46              	.LVL1:
  47              		.loc 1 95 25 view .LVU5
  48 0006 FFF7FEFF 		bl	lv_obj_get_parent
  49              	.LVL2:
  50              		.loc 1 95 25 view .LVU6
  51 000a 0646     		mov	r6, r0
  52              	.LVL3:
  96:Middlewares/lvgl/src/extra/widgets/win/lv_win.c ****     lv_obj_set_size(obj, lv_obj_get_width(parent), lv_obj_get_height(parent));
  53              		.loc 1 96 5 is_stmt 1 view .LVU7
  54 000c FFF7FEFF 		bl	lv_obj_get_width
  55              	.LVL4:
  56              		.loc 1 96 5 is_stmt 0 view .LVU8
  57 0010 0546     		mov	r5, r0
  58 0012 3046     		mov	r0, r6
  59 0014 FFF7FEFF 		bl	lv_obj_get_height
  60              	.LVL5:
  61 0018 0246     		mov	r2, r0
  62 001a 2946     		mov	r1, r5
  63 001c 2046     		mov	r0, r4
  64 001e FFF7FEFF 		bl	lv_obj_set_size
  65              	.LVL6:
  97:Middlewares/lvgl/src/extra/widgets/win/lv_win.c ****     lv_obj_set_flex_flow(obj, LV_FLEX_FLOW_COLUMN);
  66              		.loc 1 97 5 is_stmt 1 view .LVU9
  67 0022 0121     		movs	r1, #1
  68 0024 2046     		mov	r0, r4
  69 0026 FFF7FEFF 		bl	lv_obj_set_flex_flow
  70              	.LVL7:
  98:Middlewares/lvgl/src/extra/widgets/win/lv_win.c **** 
  99:Middlewares/lvgl/src/extra/widgets/win/lv_win.c ****     lv_obj_t * header = lv_obj_create(obj);
  71              		.loc 1 99 5 view .LVU10
  72              		.loc 1 99 25 is_stmt 0 view .LVU11
  73 002a 2046     		mov	r0, r4
ARM GAS  /tmp/ccCUlDzD.s 			page 4


  74 002c FFF7FEFF 		bl	lv_obj_create
  75              	.LVL8:
  76 0030 0546     		mov	r5, r0
  77              	.LVL9:
 100:Middlewares/lvgl/src/extra/widgets/win/lv_win.c ****     lv_obj_set_size(header, LV_PCT(100), create_header_height);
  78              		.loc 1 100 5 is_stmt 1 view .LVU12
  79 0032 0F4B     		ldr	r3, .L3
  80 0034 B3F90020 		ldrsh	r2, [r3]
  81 0038 42F26401 		movw	r1, #8292
  82 003c FFF7FEFF 		bl	lv_obj_set_size
  83              	.LVL10:
 101:Middlewares/lvgl/src/extra/widgets/win/lv_win.c ****     lv_obj_set_flex_flow(header, LV_FLEX_FLOW_ROW);
  84              		.loc 1 101 5 view .LVU13
  85 0040 0021     		movs	r1, #0
  86 0042 2846     		mov	r0, r5
  87 0044 FFF7FEFF 		bl	lv_obj_set_flex_flow
  88              	.LVL11:
 102:Middlewares/lvgl/src/extra/widgets/win/lv_win.c ****     lv_obj_set_flex_align(header, LV_FLEX_ALIGN_START, LV_FLEX_ALIGN_CENTER, LV_FLEX_ALIGN_CENTER);
  89              		.loc 1 102 5 view .LVU14
  90 0048 0223     		movs	r3, #2
  91 004a 1A46     		mov	r2, r3
  92 004c 0021     		movs	r1, #0
  93 004e 2846     		mov	r0, r5
  94 0050 FFF7FEFF 		bl	lv_obj_set_flex_align
  95              	.LVL12:
 103:Middlewares/lvgl/src/extra/widgets/win/lv_win.c **** 
 104:Middlewares/lvgl/src/extra/widgets/win/lv_win.c ****     lv_obj_t * cont = lv_obj_create(obj);
  96              		.loc 1 104 5 view .LVU15
  97              		.loc 1 104 23 is_stmt 0 view .LVU16
  98 0054 2046     		mov	r0, r4
  99 0056 FFF7FEFF 		bl	lv_obj_create
 100              	.LVL13:
 101 005a 0446     		mov	r4, r0
 102              	.LVL14:
 105:Middlewares/lvgl/src/extra/widgets/win/lv_win.c ****     lv_obj_set_flex_grow(cont, 1);
 103              		.loc 1 105 5 is_stmt 1 view .LVU17
 104 005c 0121     		movs	r1, #1
 105 005e FFF7FEFF 		bl	lv_obj_set_flex_grow
 106              	.LVL15:
 106:Middlewares/lvgl/src/extra/widgets/win/lv_win.c ****     lv_obj_set_width(cont, LV_PCT(100));
 107              		.loc 1 106 5 view .LVU18
 108 0062 42F26401 		movw	r1, #8292
 109 0066 2046     		mov	r0, r4
 110 0068 FFF7FEFF 		bl	lv_obj_set_width
 111              	.LVL16:
 107:Middlewares/lvgl/src/extra/widgets/win/lv_win.c **** }
 112              		.loc 1 107 1 is_stmt 0 view .LVU19
 113 006c 70BD     		pop	{r4, r5, r6, pc}
 114              	.LVL17:
 115              	.L4:
 116              		.loc 1 107 1 view .LVU20
 117 006e 00BF     		.align	2
 118              	.L3:
 119 0070 00000000 		.word	.LANCHOR0
 120              		.cfi_endproc
 121              	.LFE189:
 123              		.section	.text.lv_win_create,"ax",%progbits
ARM GAS  /tmp/ccCUlDzD.s 			page 5


 124              		.align	1
 125              		.global	lv_win_create
 126              		.syntax unified
 127              		.thumb
 128              		.thumb_func
 130              	lv_win_create:
 131              	.LVL18:
 132              	.LFB184:
  46:Middlewares/lvgl/src/extra/widgets/win/lv_win.c ****     LV_LOG_INFO("begin")
 133              		.loc 1 46 1 is_stmt 1 view -0
 134              		.cfi_startproc
 135              		@ args = 0, pretend = 0, frame = 0
 136              		@ frame_needed = 0, uses_anonymous_args = 0
  46:Middlewares/lvgl/src/extra/widgets/win/lv_win.c ****     LV_LOG_INFO("begin")
 137              		.loc 1 46 1 is_stmt 0 view .LVU22
 138 0000 10B5     		push	{r4, lr}
 139              	.LCFI1:
 140              		.cfi_def_cfa_offset 8
 141              		.cfi_offset 4, -8
 142              		.cfi_offset 14, -4
  48:Middlewares/lvgl/src/extra/widgets/win/lv_win.c **** 
 143              		.loc 1 48 5 is_stmt 1 view .LVU23
  48:Middlewares/lvgl/src/extra/widgets/win/lv_win.c **** 
 144              		.loc 1 48 26 is_stmt 0 view .LVU24
 145 0002 054B     		ldr	r3, .L7
 146 0004 1980     		strh	r1, [r3]	@ movhi
  50:Middlewares/lvgl/src/extra/widgets/win/lv_win.c ****     lv_obj_class_init_obj(obj);
 147              		.loc 1 50 5 is_stmt 1 view .LVU25
  50:Middlewares/lvgl/src/extra/widgets/win/lv_win.c ****     lv_obj_class_init_obj(obj);
 148              		.loc 1 50 22 is_stmt 0 view .LVU26
 149 0006 0146     		mov	r1, r0
 150              	.LVL19:
  50:Middlewares/lvgl/src/extra/widgets/win/lv_win.c ****     lv_obj_class_init_obj(obj);
 151              		.loc 1 50 22 view .LVU27
 152 0008 0448     		ldr	r0, .L7+4
 153              	.LVL20:
  50:Middlewares/lvgl/src/extra/widgets/win/lv_win.c ****     lv_obj_class_init_obj(obj);
 154              		.loc 1 50 22 view .LVU28
 155 000a FFF7FEFF 		bl	lv_obj_class_create_obj
 156              	.LVL21:
  50:Middlewares/lvgl/src/extra/widgets/win/lv_win.c ****     lv_obj_class_init_obj(obj);
 157              		.loc 1 50 22 view .LVU29
 158 000e 0446     		mov	r4, r0
 159              	.LVL22:
  51:Middlewares/lvgl/src/extra/widgets/win/lv_win.c ****     return obj;
 160              		.loc 1 51 5 is_stmt 1 view .LVU30
 161 0010 FFF7FEFF 		bl	lv_obj_class_init_obj
 162              	.LVL23:
  52:Middlewares/lvgl/src/extra/widgets/win/lv_win.c **** }
 163              		.loc 1 52 5 view .LVU31
  53:Middlewares/lvgl/src/extra/widgets/win/lv_win.c **** 
 164              		.loc 1 53 1 is_stmt 0 view .LVU32
 165 0014 2046     		mov	r0, r4
 166 0016 10BD     		pop	{r4, pc}
 167              	.LVL24:
 168              	.L8:
  53:Middlewares/lvgl/src/extra/widgets/win/lv_win.c **** 
ARM GAS  /tmp/ccCUlDzD.s 			page 6


 169              		.loc 1 53 1 view .LVU33
 170              		.align	2
 171              	.L7:
 172 0018 00000000 		.word	.LANCHOR0
 173 001c 00000000 		.word	.LANCHOR1
 174              		.cfi_endproc
 175              	.LFE184:
 177              		.section	.text.lv_win_get_header,"ax",%progbits
 178              		.align	1
 179              		.global	lv_win_get_header
 180              		.syntax unified
 181              		.thumb
 182              		.thumb_func
 184              	lv_win_get_header:
 185              	.LVL25:
 186              	.LFB187:
  79:Middlewares/lvgl/src/extra/widgets/win/lv_win.c ****     return lv_obj_get_child(win, 0);
 187              		.loc 1 79 1 is_stmt 1 view -0
 188              		.cfi_startproc
 189              		@ args = 0, pretend = 0, frame = 0
 190              		@ frame_needed = 0, uses_anonymous_args = 0
  79:Middlewares/lvgl/src/extra/widgets/win/lv_win.c ****     return lv_obj_get_child(win, 0);
 191              		.loc 1 79 1 is_stmt 0 view .LVU35
 192 0000 08B5     		push	{r3, lr}
 193              	.LCFI2:
 194              		.cfi_def_cfa_offset 8
 195              		.cfi_offset 3, -8
 196              		.cfi_offset 14, -4
  80:Middlewares/lvgl/src/extra/widgets/win/lv_win.c **** }
 197              		.loc 1 80 5 is_stmt 1 view .LVU36
  80:Middlewares/lvgl/src/extra/widgets/win/lv_win.c **** }
 198              		.loc 1 80 12 is_stmt 0 view .LVU37
 199 0002 0021     		movs	r1, #0
 200 0004 FFF7FEFF 		bl	lv_obj_get_child
 201              	.LVL26:
  81:Middlewares/lvgl/src/extra/widgets/win/lv_win.c **** 
 202              		.loc 1 81 1 view .LVU38
 203 0008 08BD     		pop	{r3, pc}
 204              		.cfi_endproc
 205              	.LFE187:
 207              		.section	.text.lv_win_add_title,"ax",%progbits
 208              		.align	1
 209              		.global	lv_win_add_title
 210              		.syntax unified
 211              		.thumb
 212              		.thumb_func
 214              	lv_win_add_title:
 215              	.LVL27:
 216              	.LFB185:
  56:Middlewares/lvgl/src/extra/widgets/win/lv_win.c ****     lv_obj_t * header = lv_win_get_header(win);
 217              		.loc 1 56 1 is_stmt 1 view -0
 218              		.cfi_startproc
 219              		@ args = 0, pretend = 0, frame = 0
 220              		@ frame_needed = 0, uses_anonymous_args = 0
  56:Middlewares/lvgl/src/extra/widgets/win/lv_win.c ****     lv_obj_t * header = lv_win_get_header(win);
 221              		.loc 1 56 1 is_stmt 0 view .LVU40
 222 0000 38B5     		push	{r3, r4, r5, lr}
ARM GAS  /tmp/ccCUlDzD.s 			page 7


 223              	.LCFI3:
 224              		.cfi_def_cfa_offset 16
 225              		.cfi_offset 3, -16
 226              		.cfi_offset 4, -12
 227              		.cfi_offset 5, -8
 228              		.cfi_offset 14, -4
 229 0002 0D46     		mov	r5, r1
  57:Middlewares/lvgl/src/extra/widgets/win/lv_win.c ****     lv_obj_t * title = lv_label_create(header);
 230              		.loc 1 57 5 is_stmt 1 view .LVU41
  57:Middlewares/lvgl/src/extra/widgets/win/lv_win.c ****     lv_obj_t * title = lv_label_create(header);
 231              		.loc 1 57 25 is_stmt 0 view .LVU42
 232 0004 FFF7FEFF 		bl	lv_win_get_header
 233              	.LVL28:
  58:Middlewares/lvgl/src/extra/widgets/win/lv_win.c ****     lv_label_set_long_mode(title, LV_LABEL_LONG_DOT);
 234              		.loc 1 58 5 is_stmt 1 view .LVU43
  58:Middlewares/lvgl/src/extra/widgets/win/lv_win.c ****     lv_label_set_long_mode(title, LV_LABEL_LONG_DOT);
 235              		.loc 1 58 24 is_stmt 0 view .LVU44
 236 0008 FFF7FEFF 		bl	lv_label_create
 237              	.LVL29:
  58:Middlewares/lvgl/src/extra/widgets/win/lv_win.c ****     lv_label_set_long_mode(title, LV_LABEL_LONG_DOT);
 238              		.loc 1 58 24 view .LVU45
 239 000c 0446     		mov	r4, r0
 240              	.LVL30:
  59:Middlewares/lvgl/src/extra/widgets/win/lv_win.c ****     lv_label_set_text(title, txt);
 241              		.loc 1 59 5 is_stmt 1 view .LVU46
 242 000e 0121     		movs	r1, #1
 243 0010 FFF7FEFF 		bl	lv_label_set_long_mode
 244              	.LVL31:
  60:Middlewares/lvgl/src/extra/widgets/win/lv_win.c ****     lv_obj_set_flex_grow(title, 1);
 245              		.loc 1 60 5 view .LVU47
 246 0014 2946     		mov	r1, r5
 247 0016 2046     		mov	r0, r4
 248 0018 FFF7FEFF 		bl	lv_label_set_text
 249              	.LVL32:
  61:Middlewares/lvgl/src/extra/widgets/win/lv_win.c ****     return title;
 250              		.loc 1 61 5 view .LVU48
 251 001c 0121     		movs	r1, #1
 252 001e 2046     		mov	r0, r4
 253 0020 FFF7FEFF 		bl	lv_obj_set_flex_grow
 254              	.LVL33:
  62:Middlewares/lvgl/src/extra/widgets/win/lv_win.c **** }
 255              		.loc 1 62 5 view .LVU49
  63:Middlewares/lvgl/src/extra/widgets/win/lv_win.c **** 
 256              		.loc 1 63 1 is_stmt 0 view .LVU50
 257 0024 2046     		mov	r0, r4
 258 0026 38BD     		pop	{r3, r4, r5, pc}
  63:Middlewares/lvgl/src/extra/widgets/win/lv_win.c **** 
 259              		.loc 1 63 1 view .LVU51
 260              		.cfi_endproc
 261              	.LFE185:
 263              		.section	.text.lv_win_add_btn,"ax",%progbits
 264              		.align	1
 265              		.global	lv_win_add_btn
 266              		.syntax unified
 267              		.thumb
 268              		.thumb_func
 270              	lv_win_add_btn:
ARM GAS  /tmp/ccCUlDzD.s 			page 8


 271              	.LVL34:
 272              	.LFB186:
  66:Middlewares/lvgl/src/extra/widgets/win/lv_win.c ****     lv_obj_t * header = lv_win_get_header(win);
 273              		.loc 1 66 1 is_stmt 1 view -0
 274              		.cfi_startproc
 275              		@ args = 0, pretend = 0, frame = 0
 276              		@ frame_needed = 0, uses_anonymous_args = 0
  66:Middlewares/lvgl/src/extra/widgets/win/lv_win.c ****     lv_obj_t * header = lv_win_get_header(win);
 277              		.loc 1 66 1 is_stmt 0 view .LVU53
 278 0000 70B5     		push	{r4, r5, r6, lr}
 279              	.LCFI4:
 280              		.cfi_def_cfa_offset 16
 281              		.cfi_offset 4, -16
 282              		.cfi_offset 5, -12
 283              		.cfi_offset 6, -8
 284              		.cfi_offset 14, -4
 285 0002 0E46     		mov	r6, r1
 286 0004 1546     		mov	r5, r2
  67:Middlewares/lvgl/src/extra/widgets/win/lv_win.c ****     lv_obj_t * btn = lv_btn_create(header);
 287              		.loc 1 67 5 is_stmt 1 view .LVU54
  67:Middlewares/lvgl/src/extra/widgets/win/lv_win.c ****     lv_obj_t * btn = lv_btn_create(header);
 288              		.loc 1 67 25 is_stmt 0 view .LVU55
 289 0006 FFF7FEFF 		bl	lv_win_get_header
 290              	.LVL35:
  68:Middlewares/lvgl/src/extra/widgets/win/lv_win.c ****     lv_obj_set_size(btn, btn_w, LV_PCT(100));
 291              		.loc 1 68 5 is_stmt 1 view .LVU56
  68:Middlewares/lvgl/src/extra/widgets/win/lv_win.c ****     lv_obj_set_size(btn, btn_w, LV_PCT(100));
 292              		.loc 1 68 22 is_stmt 0 view .LVU57
 293 000a FFF7FEFF 		bl	lv_btn_create
 294              	.LVL36:
  68:Middlewares/lvgl/src/extra/widgets/win/lv_win.c ****     lv_obj_set_size(btn, btn_w, LV_PCT(100));
 295              		.loc 1 68 22 view .LVU58
 296 000e 0446     		mov	r4, r0
 297              	.LVL37:
  69:Middlewares/lvgl/src/extra/widgets/win/lv_win.c **** 
 298              		.loc 1 69 5 is_stmt 1 view .LVU59
 299 0010 42F26402 		movw	r2, #8292
 300 0014 2946     		mov	r1, r5
 301 0016 FFF7FEFF 		bl	lv_obj_set_size
 302              	.LVL38:
  71:Middlewares/lvgl/src/extra/widgets/win/lv_win.c ****     lv_img_set_src(img, icon);
 303              		.loc 1 71 5 view .LVU60
  71:Middlewares/lvgl/src/extra/widgets/win/lv_win.c ****     lv_img_set_src(img, icon);
 304              		.loc 1 71 22 is_stmt 0 view .LVU61
 305 001a 2046     		mov	r0, r4
 306 001c FFF7FEFF 		bl	lv_img_create
 307              	.LVL39:
 308 0020 0546     		mov	r5, r0
 309              	.LVL40:
  72:Middlewares/lvgl/src/extra/widgets/win/lv_win.c ****     lv_obj_align(img, LV_ALIGN_CENTER, 0, 0);
 310              		.loc 1 72 5 is_stmt 1 view .LVU62
 311 0022 3146     		mov	r1, r6
 312 0024 FFF7FEFF 		bl	lv_img_set_src
 313              	.LVL41:
  73:Middlewares/lvgl/src/extra/widgets/win/lv_win.c **** 
 314              		.loc 1 73 5 view .LVU63
 315 0028 0023     		movs	r3, #0
ARM GAS  /tmp/ccCUlDzD.s 			page 9


 316 002a 1A46     		mov	r2, r3
 317 002c 0921     		movs	r1, #9
 318 002e 2846     		mov	r0, r5
 319 0030 FFF7FEFF 		bl	lv_obj_align
 320              	.LVL42:
  75:Middlewares/lvgl/src/extra/widgets/win/lv_win.c **** }
 321              		.loc 1 75 5 view .LVU64
  76:Middlewares/lvgl/src/extra/widgets/win/lv_win.c **** 
 322              		.loc 1 76 1 is_stmt 0 view .LVU65
 323 0034 2046     		mov	r0, r4
 324 0036 70BD     		pop	{r4, r5, r6, pc}
  76:Middlewares/lvgl/src/extra/widgets/win/lv_win.c **** 
 325              		.loc 1 76 1 view .LVU66
 326              		.cfi_endproc
 327              	.LFE186:
 329              		.section	.text.lv_win_get_content,"ax",%progbits
 330              		.align	1
 331              		.global	lv_win_get_content
 332              		.syntax unified
 333              		.thumb
 334              		.thumb_func
 336              	lv_win_get_content:
 337              	.LVL43:
 338              	.LFB188:
  84:Middlewares/lvgl/src/extra/widgets/win/lv_win.c ****     return lv_obj_get_child(win, 1);
 339              		.loc 1 84 1 is_stmt 1 view -0
 340              		.cfi_startproc
 341              		@ args = 0, pretend = 0, frame = 0
 342              		@ frame_needed = 0, uses_anonymous_args = 0
  84:Middlewares/lvgl/src/extra/widgets/win/lv_win.c ****     return lv_obj_get_child(win, 1);
 343              		.loc 1 84 1 is_stmt 0 view .LVU68
 344 0000 08B5     		push	{r3, lr}
 345              	.LCFI5:
 346              		.cfi_def_cfa_offset 8
 347              		.cfi_offset 3, -8
 348              		.cfi_offset 14, -4
  85:Middlewares/lvgl/src/extra/widgets/win/lv_win.c **** }
 349              		.loc 1 85 5 is_stmt 1 view .LVU69
  85:Middlewares/lvgl/src/extra/widgets/win/lv_win.c **** }
 350              		.loc 1 85 12 is_stmt 0 view .LVU70
 351 0002 0121     		movs	r1, #1
 352 0004 FFF7FEFF 		bl	lv_obj_get_child
 353              	.LVL44:
  86:Middlewares/lvgl/src/extra/widgets/win/lv_win.c **** 
 354              		.loc 1 86 1 view .LVU71
 355 0008 08BD     		pop	{r3, pc}
 356              		.cfi_endproc
 357              	.LFE188:
 359              		.global	lv_win_class
 360              		.section	.bss.create_header_height,"aw",%nobits
 361              		.align	1
 362              		.set	.LANCHOR0,. + 0
 365              	create_header_height:
 366 0000 0000     		.space	2
 367              		.section	.rodata.lv_win_class,"a"
 368              		.align	2
 369              		.set	.LANCHOR1,. + 0
ARM GAS  /tmp/ccCUlDzD.s 			page 10


 372              	lv_win_class:
 373 0000 00000000 		.word	lv_obj_class
 374 0004 00000000 		.word	lv_win_constructor
 375 0008 00000000 		.space	12
 375      00000000 
 375      00000000 
 376 0014 6420     		.short	8292
 377 0016 6420     		.short	8292
 378 0018 40       		.byte	64
 379 0019 02       		.byte	2
 380 001a 00       		.byte	0
 381 001b 00       		.space	1
 382              		.text
 383              	.Letext0:
 384              		.file 2 "/home/akinya/gcc-arm-none-eabi/arm-none-eabi/include/machine/_default_types.h"
 385              		.file 3 "/home/akinya/gcc-arm-none-eabi/arm-none-eabi/include/sys/_stdint.h"
 386              		.file 4 "Middlewares/lvgl/src/extra/widgets/win/../../../../src/misc/lv_ll.h"
 387              		.file 5 "Middlewares/lvgl/src/extra/widgets/win/../../../../src/hal/../misc/lv_color.h"
 388              		.file 6 "Middlewares/lvgl/src/extra/widgets/win/../../../../src/hal/../misc/lv_area.h"
 389              		.file 7 "Middlewares/lvgl/src/extra/widgets/win/../../../../src/core/lv_obj.h"
 390              		.file 8 "Middlewares/lvgl/src/extra/widgets/win/../../../../src/core/lv_group.h"
 391              		.file 9 "Middlewares/lvgl/src/extra/widgets/win/../../../../src/core/../misc/lv_style.h"
 392              		.file 10 "Middlewares/lvgl/src/extra/widgets/win/../../../../src/core/lv_obj_scroll.h"
 393              		.file 11 "Middlewares/lvgl/src/extra/widgets/win/../../../../src/core/lv_obj_style.h"
 394              		.file 12 "Middlewares/lvgl/src/extra/widgets/win/../../../../src/core/lv_obj_class.h"
 395              		.file 13 "Middlewares/lvgl/src/extra/widgets/win/../../../../src/core/lv_event.h"
 396              		.file 14 "Middlewares/lvgl/src/extra/widgets/win/../../../../src/widgets/lv_label.h"
 397              		.file 15 "Middlewares/lvgl/src/extra/widgets/win/../../../../src/widgets/lv_bar.h"
 398              		.file 16 "Middlewares/lvgl/src/extra/widgets/win/../../../../src/extra/widgets/list/../../layouts/
 399              		.file 17 "Middlewares/lvgl/src/extra/widgets/win/../../../../src/extra/widgets/imgbtn/lv_imgbtn.h"
 400              		.file 18 "Middlewares/lvgl/src/extra/widgets/win/lv_win.h"
 401              		.file 19 "Middlewares/lvgl/src/extra/widgets/win/../../../../src/core/lv_obj_tree.h"
 402              		.file 20 "Middlewares/lvgl/src/extra/widgets/win/../../../../src/core/lv_obj_pos.h"
 403              		.file 21 "Middlewares/lvgl/src/extra/widgets/win/../../../../src/widgets/lv_btn.h"
 404              		.file 22 "Middlewares/lvgl/src/extra/widgets/win/../../../../src/widgets/lv_img.h"
ARM GAS  /tmp/ccCUlDzD.s 			page 11

