ARM GAS  /tmp/ccxQ11Ky.s 			page 1


   1              		.cpu cortex-m3
   2              		.eabi_attribute 20, 1
   3              		.eabi_attribute 21, 1
   4              		.eabi_attribute 23, 3
   5              		.eabi_attribute 24, 1
   6              		.eabi_attribute 25, 1
   7              		.eabi_attribute 26, 1
   8              		.eabi_attribute 30, 1
   9              		.eabi_attribute 34, 1
  10              		.eabi_attribute 18, 4
  11              		.file	"dac.c"
  12              		.text
  13              	.Ltext0:
  14              		.cfi_sections	.debug_frame
  15              		.section	.text.MX_DAC_Init,"ax",%progbits
  16              		.align	1
  17              		.global	MX_DAC_Init
  18              		.arch armv7-m
  19              		.syntax unified
  20              		.thumb
  21              		.thumb_func
  22              		.fpu softvfp
  24              	MX_DAC_Init:
  25              	.LFB65:
  26              		.file 1 "Core/Src/dac.c"
   1:Core/Src/dac.c **** /**
   2:Core/Src/dac.c ****   ******************************************************************************
   3:Core/Src/dac.c ****   * @file    dac.c
   4:Core/Src/dac.c ****   * @brief   This file provides code for the configuration
   5:Core/Src/dac.c ****   *          of the DAC instances.
   6:Core/Src/dac.c ****   ******************************************************************************
   7:Core/Src/dac.c ****   * @attention
   8:Core/Src/dac.c ****   *
   9:Core/Src/dac.c ****   * <h2><center>&copy; Copyright (c) 2021 STMicroelectronics.
  10:Core/Src/dac.c ****   * All rights reserved.</center></h2>
  11:Core/Src/dac.c ****   *
  12:Core/Src/dac.c ****   * This software component is licensed by ST under BSD 3-Clause license,
  13:Core/Src/dac.c ****   * the "License"; You may not use this file except in compliance with the
  14:Core/Src/dac.c ****   * License. You may obtain a copy of the License at:
  15:Core/Src/dac.c ****   *                        opensource.org/licenses/BSD-3-Clause
  16:Core/Src/dac.c ****   *
  17:Core/Src/dac.c ****   ******************************************************************************
  18:Core/Src/dac.c ****   */
  19:Core/Src/dac.c **** 
  20:Core/Src/dac.c **** /* Includes ------------------------------------------------------------------*/
  21:Core/Src/dac.c **** #include "dac.h"
  22:Core/Src/dac.c **** 
  23:Core/Src/dac.c **** /* USER CODE BEGIN 0 */
  24:Core/Src/dac.c **** 
  25:Core/Src/dac.c **** /* USER CODE END 0 */
  26:Core/Src/dac.c **** 
  27:Core/Src/dac.c **** DAC_HandleTypeDef hdac;
  28:Core/Src/dac.c **** 
  29:Core/Src/dac.c **** /* DAC init function */
  30:Core/Src/dac.c **** void MX_DAC_Init(void)
  31:Core/Src/dac.c **** {
  27              		.loc 1 31 1 view -0
ARM GAS  /tmp/ccxQ11Ky.s 			page 2


  28              		.cfi_startproc
  29              		@ args = 0, pretend = 0, frame = 8
  30              		@ frame_needed = 0, uses_anonymous_args = 0
  31 0000 00B5     		push	{lr}
  32              	.LCFI0:
  33              		.cfi_def_cfa_offset 4
  34              		.cfi_offset 14, -4
  35 0002 83B0     		sub	sp, sp, #12
  36              	.LCFI1:
  37              		.cfi_def_cfa_offset 16
  32:Core/Src/dac.c **** 
  33:Core/Src/dac.c ****   /* USER CODE BEGIN DAC_Init 0 */
  34:Core/Src/dac.c **** 
  35:Core/Src/dac.c ****   /* USER CODE END DAC_Init 0 */
  36:Core/Src/dac.c **** 
  37:Core/Src/dac.c ****   DAC_ChannelConfTypeDef sConfig = {0};
  38              		.loc 1 37 3 view .LVU1
  39              		.loc 1 37 26 is_stmt 0 view .LVU2
  40 0004 0023     		movs	r3, #0
  41 0006 0093     		str	r3, [sp]
  42 0008 0193     		str	r3, [sp, #4]
  38:Core/Src/dac.c **** 
  39:Core/Src/dac.c ****   /* USER CODE BEGIN DAC_Init 1 */
  40:Core/Src/dac.c **** 
  41:Core/Src/dac.c ****   /* USER CODE END DAC_Init 1 */
  42:Core/Src/dac.c ****   /** DAC Initialization
  43:Core/Src/dac.c ****   */
  44:Core/Src/dac.c ****   hdac.Instance = DAC;
  43              		.loc 1 44 3 is_stmt 1 view .LVU3
  44              		.loc 1 44 17 is_stmt 0 view .LVU4
  45 000a 0C48     		ldr	r0, .L7
  46 000c 0C4B     		ldr	r3, .L7+4
  47 000e 0360     		str	r3, [r0]
  45:Core/Src/dac.c ****   if (HAL_DAC_Init(&hdac) != HAL_OK)
  48              		.loc 1 45 3 is_stmt 1 view .LVU5
  49              		.loc 1 45 7 is_stmt 0 view .LVU6
  50 0010 FFF7FEFF 		bl	HAL_DAC_Init
  51              	.LVL0:
  52              		.loc 1 45 6 view .LVU7
  53 0014 58B9     		cbnz	r0, .L5
  54              	.L2:
  46:Core/Src/dac.c ****   {
  47:Core/Src/dac.c ****     Error_Handler();
  48:Core/Src/dac.c ****   }
  49:Core/Src/dac.c ****   /** DAC channel OUT1 config
  50:Core/Src/dac.c ****   */
  51:Core/Src/dac.c ****   sConfig.DAC_Trigger = DAC_TRIGGER_SOFTWARE;
  55              		.loc 1 51 3 is_stmt 1 view .LVU8
  56              		.loc 1 51 23 is_stmt 0 view .LVU9
  57 0016 3C23     		movs	r3, #60
  58 0018 0093     		str	r3, [sp]
  52:Core/Src/dac.c ****   sConfig.DAC_OutputBuffer = DAC_OUTPUTBUFFER_ENABLE;
  59              		.loc 1 52 3 is_stmt 1 view .LVU10
  60              		.loc 1 52 28 is_stmt 0 view .LVU11
  61 001a 0022     		movs	r2, #0
  62 001c 0192     		str	r2, [sp, #4]
  53:Core/Src/dac.c ****   if (HAL_DAC_ConfigChannel(&hdac, &sConfig, DAC_CHANNEL_1) != HAL_OK)
ARM GAS  /tmp/ccxQ11Ky.s 			page 3


  63              		.loc 1 53 3 is_stmt 1 view .LVU12
  64              		.loc 1 53 7 is_stmt 0 view .LVU13
  65 001e 6946     		mov	r1, sp
  66 0020 0648     		ldr	r0, .L7
  67 0022 FFF7FEFF 		bl	HAL_DAC_ConfigChannel
  68              	.LVL1:
  69              		.loc 1 53 6 view .LVU14
  70 0026 28B9     		cbnz	r0, .L6
  71              	.L1:
  54:Core/Src/dac.c ****   {
  55:Core/Src/dac.c ****     Error_Handler();
  56:Core/Src/dac.c ****   }
  57:Core/Src/dac.c ****   /* USER CODE BEGIN DAC_Init 2 */
  58:Core/Src/dac.c **** 
  59:Core/Src/dac.c ****   /* USER CODE END DAC_Init 2 */
  60:Core/Src/dac.c **** 
  61:Core/Src/dac.c **** }
  72              		.loc 1 61 1 view .LVU15
  73 0028 03B0     		add	sp, sp, #12
  74              	.LCFI2:
  75              		.cfi_remember_state
  76              		.cfi_def_cfa_offset 4
  77              		@ sp needed
  78 002a 5DF804FB 		ldr	pc, [sp], #4
  79              	.L5:
  80              	.LCFI3:
  81              		.cfi_restore_state
  47:Core/Src/dac.c ****   }
  82              		.loc 1 47 5 is_stmt 1 view .LVU16
  83 002e FFF7FEFF 		bl	Error_Handler
  84              	.LVL2:
  85 0032 F0E7     		b	.L2
  86              	.L6:
  55:Core/Src/dac.c ****   }
  87              		.loc 1 55 5 view .LVU17
  88 0034 FFF7FEFF 		bl	Error_Handler
  89              	.LVL3:
  90              		.loc 1 61 1 is_stmt 0 view .LVU18
  91 0038 F6E7     		b	.L1
  92              	.L8:
  93 003a 00BF     		.align	2
  94              	.L7:
  95 003c 00000000 		.word	.LANCHOR0
  96 0040 00740040 		.word	1073771520
  97              		.cfi_endproc
  98              	.LFE65:
 100              		.section	.text.HAL_DAC_MspInit,"ax",%progbits
 101              		.align	1
 102              		.global	HAL_DAC_MspInit
 103              		.syntax unified
 104              		.thumb
 105              		.thumb_func
 106              		.fpu softvfp
 108              	HAL_DAC_MspInit:
 109              	.LVL4:
 110              	.LFB66:
  62:Core/Src/dac.c **** 
ARM GAS  /tmp/ccxQ11Ky.s 			page 4


  63:Core/Src/dac.c **** void HAL_DAC_MspInit(DAC_HandleTypeDef* dacHandle)
  64:Core/Src/dac.c **** {
 111              		.loc 1 64 1 is_stmt 1 view -0
 112              		.cfi_startproc
 113              		@ args = 0, pretend = 0, frame = 24
 114              		@ frame_needed = 0, uses_anonymous_args = 0
 115              		.loc 1 64 1 is_stmt 0 view .LVU20
 116 0000 00B5     		push	{lr}
 117              	.LCFI4:
 118              		.cfi_def_cfa_offset 4
 119              		.cfi_offset 14, -4
 120 0002 87B0     		sub	sp, sp, #28
 121              	.LCFI5:
 122              		.cfi_def_cfa_offset 32
  65:Core/Src/dac.c **** 
  66:Core/Src/dac.c ****   GPIO_InitTypeDef GPIO_InitStruct = {0};
 123              		.loc 1 66 3 is_stmt 1 view .LVU21
 124              		.loc 1 66 20 is_stmt 0 view .LVU22
 125 0004 0023     		movs	r3, #0
 126 0006 0293     		str	r3, [sp, #8]
 127 0008 0393     		str	r3, [sp, #12]
 128 000a 0493     		str	r3, [sp, #16]
 129 000c 0593     		str	r3, [sp, #20]
  67:Core/Src/dac.c ****   if(dacHandle->Instance==DAC)
 130              		.loc 1 67 3 is_stmt 1 view .LVU23
 131              		.loc 1 67 15 is_stmt 0 view .LVU24
 132 000e 0268     		ldr	r2, [r0]
 133              		.loc 1 67 5 view .LVU25
 134 0010 114B     		ldr	r3, .L13
 135 0012 9A42     		cmp	r2, r3
 136 0014 02D0     		beq	.L12
 137              	.LVL5:
 138              	.L9:
  68:Core/Src/dac.c ****   {
  69:Core/Src/dac.c ****   /* USER CODE BEGIN DAC_MspInit 0 */
  70:Core/Src/dac.c **** 
  71:Core/Src/dac.c ****   /* USER CODE END DAC_MspInit 0 */
  72:Core/Src/dac.c ****     /* DAC clock enable */
  73:Core/Src/dac.c ****     __HAL_RCC_DAC_CLK_ENABLE();
  74:Core/Src/dac.c **** 
  75:Core/Src/dac.c ****     __HAL_RCC_GPIOA_CLK_ENABLE();
  76:Core/Src/dac.c ****     /**DAC GPIO Configuration
  77:Core/Src/dac.c ****     PA4     ------> DAC_OUT1
  78:Core/Src/dac.c ****     */
  79:Core/Src/dac.c ****     GPIO_InitStruct.Pin = GPIO_PIN_4;
  80:Core/Src/dac.c ****     GPIO_InitStruct.Mode = GPIO_MODE_ANALOG;
  81:Core/Src/dac.c ****     HAL_GPIO_Init(GPIOA, &GPIO_InitStruct);
  82:Core/Src/dac.c **** 
  83:Core/Src/dac.c ****   /* USER CODE BEGIN DAC_MspInit 1 */
  84:Core/Src/dac.c **** 
  85:Core/Src/dac.c ****   /* USER CODE END DAC_MspInit 1 */
  86:Core/Src/dac.c ****   }
  87:Core/Src/dac.c **** }
 139              		.loc 1 87 1 view .LVU26
 140 0016 07B0     		add	sp, sp, #28
 141              	.LCFI6:
 142              		.cfi_remember_state
ARM GAS  /tmp/ccxQ11Ky.s 			page 5


 143              		.cfi_def_cfa_offset 4
 144              		@ sp needed
 145 0018 5DF804FB 		ldr	pc, [sp], #4
 146              	.LVL6:
 147              	.L12:
 148              	.LCFI7:
 149              		.cfi_restore_state
  73:Core/Src/dac.c **** 
 150              		.loc 1 73 5 is_stmt 1 view .LVU27
 151              	.LBB2:
  73:Core/Src/dac.c **** 
 152              		.loc 1 73 5 view .LVU28
  73:Core/Src/dac.c **** 
 153              		.loc 1 73 5 view .LVU29
 154 001c 03F5CE33 		add	r3, r3, #105472
 155 0020 DA69     		ldr	r2, [r3, #28]
 156 0022 42F00052 		orr	r2, r2, #536870912
 157 0026 DA61     		str	r2, [r3, #28]
  73:Core/Src/dac.c **** 
 158              		.loc 1 73 5 view .LVU30
 159 0028 DA69     		ldr	r2, [r3, #28]
 160 002a 02F00052 		and	r2, r2, #536870912
 161 002e 0092     		str	r2, [sp]
  73:Core/Src/dac.c **** 
 162              		.loc 1 73 5 view .LVU31
 163 0030 009A     		ldr	r2, [sp]
 164              	.LBE2:
  73:Core/Src/dac.c **** 
 165              		.loc 1 73 5 view .LVU32
  75:Core/Src/dac.c ****     /**DAC GPIO Configuration
 166              		.loc 1 75 5 view .LVU33
 167              	.LBB3:
  75:Core/Src/dac.c ****     /**DAC GPIO Configuration
 168              		.loc 1 75 5 view .LVU34
  75:Core/Src/dac.c ****     /**DAC GPIO Configuration
 169              		.loc 1 75 5 view .LVU35
 170 0032 9A69     		ldr	r2, [r3, #24]
 171 0034 42F00402 		orr	r2, r2, #4
 172 0038 9A61     		str	r2, [r3, #24]
  75:Core/Src/dac.c ****     /**DAC GPIO Configuration
 173              		.loc 1 75 5 view .LVU36
 174 003a 9B69     		ldr	r3, [r3, #24]
 175 003c 03F00403 		and	r3, r3, #4
 176 0040 0193     		str	r3, [sp, #4]
  75:Core/Src/dac.c ****     /**DAC GPIO Configuration
 177              		.loc 1 75 5 view .LVU37
 178 0042 019B     		ldr	r3, [sp, #4]
 179              	.LBE3:
  75:Core/Src/dac.c ****     /**DAC GPIO Configuration
 180              		.loc 1 75 5 view .LVU38
  79:Core/Src/dac.c ****     GPIO_InitStruct.Mode = GPIO_MODE_ANALOG;
 181              		.loc 1 79 5 view .LVU39
  79:Core/Src/dac.c ****     GPIO_InitStruct.Mode = GPIO_MODE_ANALOG;
 182              		.loc 1 79 25 is_stmt 0 view .LVU40
 183 0044 1023     		movs	r3, #16
 184 0046 0293     		str	r3, [sp, #8]
  80:Core/Src/dac.c ****     HAL_GPIO_Init(GPIOA, &GPIO_InitStruct);
ARM GAS  /tmp/ccxQ11Ky.s 			page 6


 185              		.loc 1 80 5 is_stmt 1 view .LVU41
  80:Core/Src/dac.c ****     HAL_GPIO_Init(GPIOA, &GPIO_InitStruct);
 186              		.loc 1 80 26 is_stmt 0 view .LVU42
 187 0048 0323     		movs	r3, #3
 188 004a 0393     		str	r3, [sp, #12]
  81:Core/Src/dac.c **** 
 189              		.loc 1 81 5 is_stmt 1 view .LVU43
 190 004c 02A9     		add	r1, sp, #8
 191 004e 0348     		ldr	r0, .L13+4
 192              	.LVL7:
  81:Core/Src/dac.c **** 
 193              		.loc 1 81 5 is_stmt 0 view .LVU44
 194 0050 FFF7FEFF 		bl	HAL_GPIO_Init
 195              	.LVL8:
 196              		.loc 1 87 1 view .LVU45
 197 0054 DFE7     		b	.L9
 198              	.L14:
 199 0056 00BF     		.align	2
 200              	.L13:
 201 0058 00740040 		.word	1073771520
 202 005c 00080140 		.word	1073809408
 203              		.cfi_endproc
 204              	.LFE66:
 206              		.section	.text.HAL_DAC_MspDeInit,"ax",%progbits
 207              		.align	1
 208              		.global	HAL_DAC_MspDeInit
 209              		.syntax unified
 210              		.thumb
 211              		.thumb_func
 212              		.fpu softvfp
 214              	HAL_DAC_MspDeInit:
 215              	.LVL9:
 216              	.LFB67:
  88:Core/Src/dac.c **** 
  89:Core/Src/dac.c **** void HAL_DAC_MspDeInit(DAC_HandleTypeDef* dacHandle)
  90:Core/Src/dac.c **** {
 217              		.loc 1 90 1 is_stmt 1 view -0
 218              		.cfi_startproc
 219              		@ args = 0, pretend = 0, frame = 0
 220              		@ frame_needed = 0, uses_anonymous_args = 0
 221              		.loc 1 90 1 is_stmt 0 view .LVU47
 222 0000 08B5     		push	{r3, lr}
 223              	.LCFI8:
 224              		.cfi_def_cfa_offset 8
 225              		.cfi_offset 3, -8
 226              		.cfi_offset 14, -4
  91:Core/Src/dac.c **** 
  92:Core/Src/dac.c ****   if(dacHandle->Instance==DAC)
 227              		.loc 1 92 3 is_stmt 1 view .LVU48
 228              		.loc 1 92 15 is_stmt 0 view .LVU49
 229 0002 0268     		ldr	r2, [r0]
 230              		.loc 1 92 5 view .LVU50
 231 0004 064B     		ldr	r3, .L19
 232 0006 9A42     		cmp	r2, r3
 233 0008 00D0     		beq	.L18
 234              	.LVL10:
 235              	.L15:
ARM GAS  /tmp/ccxQ11Ky.s 			page 7


  93:Core/Src/dac.c ****   {
  94:Core/Src/dac.c ****   /* USER CODE BEGIN DAC_MspDeInit 0 */
  95:Core/Src/dac.c **** 
  96:Core/Src/dac.c ****   /* USER CODE END DAC_MspDeInit 0 */
  97:Core/Src/dac.c ****     /* Peripheral clock disable */
  98:Core/Src/dac.c ****     __HAL_RCC_DAC_CLK_DISABLE();
  99:Core/Src/dac.c **** 
 100:Core/Src/dac.c ****     /**DAC GPIO Configuration
 101:Core/Src/dac.c ****     PA4     ------> DAC_OUT1
 102:Core/Src/dac.c ****     */
 103:Core/Src/dac.c ****     HAL_GPIO_DeInit(GPIOA, GPIO_PIN_4);
 104:Core/Src/dac.c **** 
 105:Core/Src/dac.c ****   /* USER CODE BEGIN DAC_MspDeInit 1 */
 106:Core/Src/dac.c **** 
 107:Core/Src/dac.c ****   /* USER CODE END DAC_MspDeInit 1 */
 108:Core/Src/dac.c ****   }
 109:Core/Src/dac.c **** }
 236              		.loc 1 109 1 view .LVU51
 237 000a 08BD     		pop	{r3, pc}
 238              	.LVL11:
 239              	.L18:
  98:Core/Src/dac.c **** 
 240              		.loc 1 98 5 is_stmt 1 view .LVU52
 241 000c 054A     		ldr	r2, .L19+4
 242 000e D369     		ldr	r3, [r2, #28]
 243 0010 23F00053 		bic	r3, r3, #536870912
 244 0014 D361     		str	r3, [r2, #28]
 103:Core/Src/dac.c **** 
 245              		.loc 1 103 5 view .LVU53
 246 0016 1021     		movs	r1, #16
 247 0018 0348     		ldr	r0, .L19+8
 248              	.LVL12:
 103:Core/Src/dac.c **** 
 249              		.loc 1 103 5 is_stmt 0 view .LVU54
 250 001a FFF7FEFF 		bl	HAL_GPIO_DeInit
 251              	.LVL13:
 252              		.loc 1 109 1 view .LVU55
 253 001e F4E7     		b	.L15
 254              	.L20:
 255              		.align	2
 256              	.L19:
 257 0020 00740040 		.word	1073771520
 258 0024 00100240 		.word	1073876992
 259 0028 00080140 		.word	1073809408
 260              		.cfi_endproc
 261              	.LFE67:
 263              		.global	hdac
 264              		.section	.bss.hdac,"aw",%nobits
 265              		.align	2
 266              		.set	.LANCHOR0,. + 0
 269              	hdac:
 270 0000 00000000 		.space	20
 270      00000000 
 270      00000000 
 270      00000000 
 270      00000000 
 271              		.text
ARM GAS  /tmp/ccxQ11Ky.s 			page 8


 272              	.Letext0:
 273              		.file 2 "/home/akinya/gcc-arm-none-eabi/arm-none-eabi/include/machine/_default_types.h"
 274              		.file 3 "/home/akinya/gcc-arm-none-eabi/arm-none-eabi/include/sys/_stdint.h"
 275              		.file 4 "Drivers/CMSIS/Device/ST/STM32F1xx/Include/stm32f103xe.h"
 276              		.file 5 "Drivers/STM32F1xx_HAL_Driver/Inc/stm32f1xx_hal_def.h"
 277              		.file 6 "Drivers/STM32F1xx_HAL_Driver/Inc/stm32f1xx_hal_gpio.h"
 278              		.file 7 "Drivers/STM32F1xx_HAL_Driver/Inc/stm32f1xx_hal_dma.h"
 279              		.file 8 "Drivers/STM32F1xx_HAL_Driver/Inc/stm32f1xx_hal_dac.h"
 280              		.file 9 "Core/Inc/main.h"
 281              		.file 10 "Core/Inc/dac.h"
ARM GAS  /tmp/ccxQ11Ky.s 			page 9

