ARM GAS  /tmp/ccnMQJLR.s 			page 1


   1              		.cpu cortex-m3
   2              		.eabi_attribute 20, 1
   3              		.eabi_attribute 21, 1
   4              		.eabi_attribute 23, 3
   5              		.eabi_attribute 24, 1
   6              		.eabi_attribute 25, 1
   7              		.eabi_attribute 26, 1
   8              		.eabi_attribute 30, 1
   9              		.eabi_attribute 34, 1
  10              		.eabi_attribute 18, 4
  11              		.file	"lv_btnmatrix.c"
  12              		.text
  13              	.Ltext0:
  14              		.cfi_sections	.debug_frame
  15              		.section	.text.get_button_width,"ax",%progbits
  16              		.align	1
  17              		.arch armv7-m
  18              		.syntax unified
  19              		.thumb
  20              		.thumb_func
  21              		.fpu softvfp
  23              	get_button_width:
  24              	.LVL0:
  25              	.LFB167:
  26              		.file 1 "Middlewares/lvgl/src/widgets/lv_btnmatrix.c"
   1:Middlewares/lvgl/src/widgets/lv_btnmatrix.c **** /**
   2:Middlewares/lvgl/src/widgets/lv_btnmatrix.c ****  * @file lv_btnmatrix.c
   3:Middlewares/lvgl/src/widgets/lv_btnmatrix.c ****  *
   4:Middlewares/lvgl/src/widgets/lv_btnmatrix.c ****  */
   5:Middlewares/lvgl/src/widgets/lv_btnmatrix.c **** 
   6:Middlewares/lvgl/src/widgets/lv_btnmatrix.c **** /*********************
   7:Middlewares/lvgl/src/widgets/lv_btnmatrix.c ****  *      INCLUDES
   8:Middlewares/lvgl/src/widgets/lv_btnmatrix.c ****  *********************/
   9:Middlewares/lvgl/src/widgets/lv_btnmatrix.c **** #include "lv_btnmatrix.h"
  10:Middlewares/lvgl/src/widgets/lv_btnmatrix.c **** #if LV_USE_BTNMATRIX != 0
  11:Middlewares/lvgl/src/widgets/lv_btnmatrix.c **** 
  12:Middlewares/lvgl/src/widgets/lv_btnmatrix.c **** #include "../misc/lv_assert.h"
  13:Middlewares/lvgl/src/widgets/lv_btnmatrix.c **** #include "../core/lv_indev.h"
  14:Middlewares/lvgl/src/widgets/lv_btnmatrix.c **** #include "../core/lv_group.h"
  15:Middlewares/lvgl/src/widgets/lv_btnmatrix.c **** #include "../draw/lv_draw.h"
  16:Middlewares/lvgl/src/widgets/lv_btnmatrix.c **** #include "../core/lv_refr.h"
  17:Middlewares/lvgl/src/widgets/lv_btnmatrix.c **** #include "../misc/lv_txt.h"
  18:Middlewares/lvgl/src/widgets/lv_btnmatrix.c **** #include "../misc/lv_txt_ap.h"
  19:Middlewares/lvgl/src/widgets/lv_btnmatrix.c **** 
  20:Middlewares/lvgl/src/widgets/lv_btnmatrix.c **** /*********************
  21:Middlewares/lvgl/src/widgets/lv_btnmatrix.c ****  *      DEFINES
  22:Middlewares/lvgl/src/widgets/lv_btnmatrix.c ****  *********************/
  23:Middlewares/lvgl/src/widgets/lv_btnmatrix.c **** #define MY_CLASS &lv_btnmatrix_class
  24:Middlewares/lvgl/src/widgets/lv_btnmatrix.c **** 
  25:Middlewares/lvgl/src/widgets/lv_btnmatrix.c **** #define BTN_EXTRA_CLICK_AREA_MAX (LV_DPI_DEF / 10)
  26:Middlewares/lvgl/src/widgets/lv_btnmatrix.c **** #define LV_BTNMATRIX_WIDTH_MASK 0x0007
  27:Middlewares/lvgl/src/widgets/lv_btnmatrix.c **** 
  28:Middlewares/lvgl/src/widgets/lv_btnmatrix.c **** /**********************
  29:Middlewares/lvgl/src/widgets/lv_btnmatrix.c ****  *      TYPEDEFS
  30:Middlewares/lvgl/src/widgets/lv_btnmatrix.c ****  **********************/
  31:Middlewares/lvgl/src/widgets/lv_btnmatrix.c **** 
  32:Middlewares/lvgl/src/widgets/lv_btnmatrix.c **** /**********************
ARM GAS  /tmp/ccnMQJLR.s 			page 2


  33:Middlewares/lvgl/src/widgets/lv_btnmatrix.c ****  *  STATIC PROTOTYPES
  34:Middlewares/lvgl/src/widgets/lv_btnmatrix.c ****  **********************/
  35:Middlewares/lvgl/src/widgets/lv_btnmatrix.c **** static void lv_btnmatrix_constructor(const lv_obj_class_t * class_p, lv_obj_t * obj);
  36:Middlewares/lvgl/src/widgets/lv_btnmatrix.c **** static void lv_btnmatrix_destructor(const lv_obj_class_t * class_p, lv_obj_t * obj);
  37:Middlewares/lvgl/src/widgets/lv_btnmatrix.c **** static void lv_btnmatrix_event(const lv_obj_class_t * class_p, lv_event_t * e);
  38:Middlewares/lvgl/src/widgets/lv_btnmatrix.c **** static void draw_main(lv_event_t * e);
  39:Middlewares/lvgl/src/widgets/lv_btnmatrix.c **** 
  40:Middlewares/lvgl/src/widgets/lv_btnmatrix.c **** static uint8_t get_button_width(lv_btnmatrix_ctrl_t ctrl_bits);
  41:Middlewares/lvgl/src/widgets/lv_btnmatrix.c **** static bool button_is_hidden(lv_btnmatrix_ctrl_t ctrl_bits);
  42:Middlewares/lvgl/src/widgets/lv_btnmatrix.c **** static bool button_is_checked(lv_btnmatrix_ctrl_t ctrl_bits);
  43:Middlewares/lvgl/src/widgets/lv_btnmatrix.c **** static bool button_is_repeat_disabled(lv_btnmatrix_ctrl_t ctrl_bits);
  44:Middlewares/lvgl/src/widgets/lv_btnmatrix.c **** static bool button_is_inactive(lv_btnmatrix_ctrl_t ctrl_bits);
  45:Middlewares/lvgl/src/widgets/lv_btnmatrix.c **** static bool button_is_click_trig(lv_btnmatrix_ctrl_t ctrl_bits);
  46:Middlewares/lvgl/src/widgets/lv_btnmatrix.c **** static bool button_is_checkable(lv_btnmatrix_ctrl_t ctrl_bits);
  47:Middlewares/lvgl/src/widgets/lv_btnmatrix.c **** static bool button_is_recolor(lv_btnmatrix_ctrl_t ctrl_bits);
  48:Middlewares/lvgl/src/widgets/lv_btnmatrix.c **** static bool button_get_checked(lv_btnmatrix_ctrl_t ctrl_bits);
  49:Middlewares/lvgl/src/widgets/lv_btnmatrix.c **** static bool button_is_recolor(lv_btnmatrix_ctrl_t ctrl_bits);
  50:Middlewares/lvgl/src/widgets/lv_btnmatrix.c **** static uint16_t get_button_from_point(lv_obj_t * obj, lv_point_t * p);
  51:Middlewares/lvgl/src/widgets/lv_btnmatrix.c **** static void allocate_btn_areas_and_controls(const lv_obj_t * obj, const char ** map);
  52:Middlewares/lvgl/src/widgets/lv_btnmatrix.c **** static void invalidate_button_area(const lv_obj_t * obj, uint16_t btn_idx);
  53:Middlewares/lvgl/src/widgets/lv_btnmatrix.c **** static void make_one_button_checked(lv_obj_t * obj, uint16_t btn_idx);
  54:Middlewares/lvgl/src/widgets/lv_btnmatrix.c **** 
  55:Middlewares/lvgl/src/widgets/lv_btnmatrix.c **** /**********************
  56:Middlewares/lvgl/src/widgets/lv_btnmatrix.c ****  *  STATIC VARIABLES
  57:Middlewares/lvgl/src/widgets/lv_btnmatrix.c ****  **********************/
  58:Middlewares/lvgl/src/widgets/lv_btnmatrix.c **** static const char * lv_btnmatrix_def_map[] = {"Btn1", "Btn2", "Btn3", "\n", "Btn4", "Btn5", ""};
  59:Middlewares/lvgl/src/widgets/lv_btnmatrix.c **** 
  60:Middlewares/lvgl/src/widgets/lv_btnmatrix.c **** const lv_obj_class_t lv_btnmatrix_class = {
  61:Middlewares/lvgl/src/widgets/lv_btnmatrix.c ****         .constructor_cb = lv_btnmatrix_constructor,
  62:Middlewares/lvgl/src/widgets/lv_btnmatrix.c ****         .destructor_cb = lv_btnmatrix_destructor,
  63:Middlewares/lvgl/src/widgets/lv_btnmatrix.c ****         .event_cb = lv_btnmatrix_event,
  64:Middlewares/lvgl/src/widgets/lv_btnmatrix.c ****         .width_def = LV_DPI_DEF * 2,
  65:Middlewares/lvgl/src/widgets/lv_btnmatrix.c ****         .height_def = LV_DPI_DEF,
  66:Middlewares/lvgl/src/widgets/lv_btnmatrix.c ****         .instance_size = sizeof(lv_btnmatrix_t),
  67:Middlewares/lvgl/src/widgets/lv_btnmatrix.c ****         .editable = LV_OBJ_CLASS_EDITABLE_TRUE,
  68:Middlewares/lvgl/src/widgets/lv_btnmatrix.c ****         .group_def = LV_OBJ_CLASS_GROUP_DEF_TRUE,
  69:Middlewares/lvgl/src/widgets/lv_btnmatrix.c ****         .base_class = &lv_obj_class
  70:Middlewares/lvgl/src/widgets/lv_btnmatrix.c ****     };
  71:Middlewares/lvgl/src/widgets/lv_btnmatrix.c **** 
  72:Middlewares/lvgl/src/widgets/lv_btnmatrix.c **** /**********************
  73:Middlewares/lvgl/src/widgets/lv_btnmatrix.c ****  *      MACROS
  74:Middlewares/lvgl/src/widgets/lv_btnmatrix.c ****  **********************/
  75:Middlewares/lvgl/src/widgets/lv_btnmatrix.c **** 
  76:Middlewares/lvgl/src/widgets/lv_btnmatrix.c **** /**********************
  77:Middlewares/lvgl/src/widgets/lv_btnmatrix.c ****  *   GLOBAL FUNCTIONS
  78:Middlewares/lvgl/src/widgets/lv_btnmatrix.c ****  **********************/
  79:Middlewares/lvgl/src/widgets/lv_btnmatrix.c **** 
  80:Middlewares/lvgl/src/widgets/lv_btnmatrix.c **** lv_obj_t * lv_btnmatrix_create(lv_obj_t * parent)
  81:Middlewares/lvgl/src/widgets/lv_btnmatrix.c **** {
  82:Middlewares/lvgl/src/widgets/lv_btnmatrix.c ****     LV_LOG_INFO("begin")
  83:Middlewares/lvgl/src/widgets/lv_btnmatrix.c ****     lv_obj_t * obj = lv_obj_class_create_obj(MY_CLASS, parent);
  84:Middlewares/lvgl/src/widgets/lv_btnmatrix.c ****     lv_obj_class_init_obj(obj);
  85:Middlewares/lvgl/src/widgets/lv_btnmatrix.c ****     return obj;
  86:Middlewares/lvgl/src/widgets/lv_btnmatrix.c **** }
  87:Middlewares/lvgl/src/widgets/lv_btnmatrix.c **** 
  88:Middlewares/lvgl/src/widgets/lv_btnmatrix.c **** /*=====================
  89:Middlewares/lvgl/src/widgets/lv_btnmatrix.c ****  * Setter functions
ARM GAS  /tmp/ccnMQJLR.s 			page 3


  90:Middlewares/lvgl/src/widgets/lv_btnmatrix.c ****  *====================*/
  91:Middlewares/lvgl/src/widgets/lv_btnmatrix.c **** 
  92:Middlewares/lvgl/src/widgets/lv_btnmatrix.c **** void lv_btnmatrix_set_map(lv_obj_t * obj, const char * map[])
  93:Middlewares/lvgl/src/widgets/lv_btnmatrix.c **** {
  94:Middlewares/lvgl/src/widgets/lv_btnmatrix.c ****     LV_ASSERT_OBJ(obj, MY_CLASS);
  95:Middlewares/lvgl/src/widgets/lv_btnmatrix.c ****     if(map == NULL) return;
  96:Middlewares/lvgl/src/widgets/lv_btnmatrix.c **** 
  97:Middlewares/lvgl/src/widgets/lv_btnmatrix.c ****     lv_btnmatrix_t * btnm = (lv_btnmatrix_t *)obj;;
  98:Middlewares/lvgl/src/widgets/lv_btnmatrix.c **** 
  99:Middlewares/lvgl/src/widgets/lv_btnmatrix.c ****     /*Analyze the map and create the required number of buttons*/
 100:Middlewares/lvgl/src/widgets/lv_btnmatrix.c ****     allocate_btn_areas_and_controls(obj, map);
 101:Middlewares/lvgl/src/widgets/lv_btnmatrix.c ****     btnm->map_p = map;
 102:Middlewares/lvgl/src/widgets/lv_btnmatrix.c **** 
 103:Middlewares/lvgl/src/widgets/lv_btnmatrix.c ****     lv_base_dir_t base_dir = lv_obj_get_style_base_dir(obj, LV_PART_MAIN);
 104:Middlewares/lvgl/src/widgets/lv_btnmatrix.c **** 
 105:Middlewares/lvgl/src/widgets/lv_btnmatrix.c ****     /*Set size and positions of the buttons*/
 106:Middlewares/lvgl/src/widgets/lv_btnmatrix.c ****     lv_coord_t pleft = lv_obj_get_style_pad_left(obj, LV_PART_MAIN);
 107:Middlewares/lvgl/src/widgets/lv_btnmatrix.c ****     lv_coord_t ptop = lv_obj_get_style_pad_top(obj, LV_PART_MAIN);
 108:Middlewares/lvgl/src/widgets/lv_btnmatrix.c ****     lv_coord_t prow = lv_obj_get_style_pad_row(obj, LV_PART_MAIN);
 109:Middlewares/lvgl/src/widgets/lv_btnmatrix.c ****     lv_coord_t pcol = lv_obj_get_style_pad_column(obj, LV_PART_MAIN);
 110:Middlewares/lvgl/src/widgets/lv_btnmatrix.c **** 
 111:Middlewares/lvgl/src/widgets/lv_btnmatrix.c ****     lv_coord_t max_w            = lv_obj_get_content_width(obj);
 112:Middlewares/lvgl/src/widgets/lv_btnmatrix.c ****     lv_coord_t max_h            = lv_obj_get_content_height(obj);
 113:Middlewares/lvgl/src/widgets/lv_btnmatrix.c **** 
 114:Middlewares/lvgl/src/widgets/lv_btnmatrix.c ****     /*Count the lines to calculate button height*/
 115:Middlewares/lvgl/src/widgets/lv_btnmatrix.c ****     uint8_t row_cnt = 1;
 116:Middlewares/lvgl/src/widgets/lv_btnmatrix.c ****     uint32_t i;
 117:Middlewares/lvgl/src/widgets/lv_btnmatrix.c ****     for(i = 0; map[i] && map[i][0] != '\0'; i++) {
 118:Middlewares/lvgl/src/widgets/lv_btnmatrix.c ****         if(strcmp(map[i], "\n") == 0) row_cnt++;
 119:Middlewares/lvgl/src/widgets/lv_btnmatrix.c ****     }
 120:Middlewares/lvgl/src/widgets/lv_btnmatrix.c **** 
 121:Middlewares/lvgl/src/widgets/lv_btnmatrix.c ****     /*Calculate the position of each row*/
 122:Middlewares/lvgl/src/widgets/lv_btnmatrix.c ****     lv_coord_t max_h_no_gap = max_h - (prow * (row_cnt - 1));
 123:Middlewares/lvgl/src/widgets/lv_btnmatrix.c **** 
 124:Middlewares/lvgl/src/widgets/lv_btnmatrix.c ****     /*Count the units and the buttons in a line
 125:Middlewares/lvgl/src/widgets/lv_btnmatrix.c ****      *(A button can be 1,2,3... unit wide)*/
 126:Middlewares/lvgl/src/widgets/lv_btnmatrix.c ****     uint32_t txt_tot_i = 0; /*Act. index in the str map*/
 127:Middlewares/lvgl/src/widgets/lv_btnmatrix.c ****     uint32_t btn_tot_i = 0; /*Act. index of button areas*/
 128:Middlewares/lvgl/src/widgets/lv_btnmatrix.c ****     const char ** map_row = map;
 129:Middlewares/lvgl/src/widgets/lv_btnmatrix.c **** 
 130:Middlewares/lvgl/src/widgets/lv_btnmatrix.c ****     /*Count the units and the buttons in a line*/
 131:Middlewares/lvgl/src/widgets/lv_btnmatrix.c ****     uint32_t row;
 132:Middlewares/lvgl/src/widgets/lv_btnmatrix.c ****     for(row = 0; row < row_cnt; row++) {
 133:Middlewares/lvgl/src/widgets/lv_btnmatrix.c ****         uint16_t unit_cnt = 0;           /*Number of units in a row*/
 134:Middlewares/lvgl/src/widgets/lv_btnmatrix.c ****         uint16_t btn_cnt = 0;            /*Number of buttons in a row*/
 135:Middlewares/lvgl/src/widgets/lv_btnmatrix.c ****         /*Count the buttons and units in this row*/
 136:Middlewares/lvgl/src/widgets/lv_btnmatrix.c ****         while(map_row[btn_cnt] && strcmp(map_row[btn_cnt], "\n") != 0 && map_row[btn_cnt][0] != '\0
 137:Middlewares/lvgl/src/widgets/lv_btnmatrix.c ****             unit_cnt += get_button_width(btnm->ctrl_bits[btn_tot_i + btn_cnt]);
 138:Middlewares/lvgl/src/widgets/lv_btnmatrix.c ****             btn_cnt++;
 139:Middlewares/lvgl/src/widgets/lv_btnmatrix.c ****         }
 140:Middlewares/lvgl/src/widgets/lv_btnmatrix.c **** 
 141:Middlewares/lvgl/src/widgets/lv_btnmatrix.c ****         /*Only deal with the non empty lines*/
 142:Middlewares/lvgl/src/widgets/lv_btnmatrix.c ****         if(btn_cnt == 0) {
 143:Middlewares/lvgl/src/widgets/lv_btnmatrix.c ****             map_row = &map_row[btn_cnt + 1];       /*Set the map to the next row*/
 144:Middlewares/lvgl/src/widgets/lv_btnmatrix.c ****             continue;
 145:Middlewares/lvgl/src/widgets/lv_btnmatrix.c ****         }
 146:Middlewares/lvgl/src/widgets/lv_btnmatrix.c **** 
ARM GAS  /tmp/ccnMQJLR.s 			page 4


 147:Middlewares/lvgl/src/widgets/lv_btnmatrix.c ****         lv_coord_t row_y1 = ptop + (max_h_no_gap * row) / row_cnt + row * prow;
 148:Middlewares/lvgl/src/widgets/lv_btnmatrix.c ****         lv_coord_t row_y2 = ptop + (max_h_no_gap * (row + 1)) / row_cnt + row * prow - 1;
 149:Middlewares/lvgl/src/widgets/lv_btnmatrix.c **** 
 150:Middlewares/lvgl/src/widgets/lv_btnmatrix.c ****         /*Set the button size and positions*/
 151:Middlewares/lvgl/src/widgets/lv_btnmatrix.c ****         lv_coord_t max_w_no_gap = max_w - (pcol * (btn_cnt - 1));
 152:Middlewares/lvgl/src/widgets/lv_btnmatrix.c ****         if(max_w_no_gap < 0) max_w_no_gap = 0;
 153:Middlewares/lvgl/src/widgets/lv_btnmatrix.c **** 
 154:Middlewares/lvgl/src/widgets/lv_btnmatrix.c ****         uint32_t row_unit_cnt = 0;  /*The current unit position in the row*/
 155:Middlewares/lvgl/src/widgets/lv_btnmatrix.c ****         uint32_t btn;
 156:Middlewares/lvgl/src/widgets/lv_btnmatrix.c ****         for(btn = 0; btn < btn_cnt; btn++, btn_tot_i++, txt_tot_i++) {
 157:Middlewares/lvgl/src/widgets/lv_btnmatrix.c ****             uint32_t btn_u = get_button_width(btnm->ctrl_bits[btn_tot_i]);
 158:Middlewares/lvgl/src/widgets/lv_btnmatrix.c **** 
 159:Middlewares/lvgl/src/widgets/lv_btnmatrix.c ****             lv_coord_t btn_x1 = (max_w_no_gap * row_unit_cnt) / unit_cnt + btn * pcol;
 160:Middlewares/lvgl/src/widgets/lv_btnmatrix.c ****             lv_coord_t btn_x2 = (max_w_no_gap * (row_unit_cnt + btn_u)) / unit_cnt + btn * pcol - 1
 161:Middlewares/lvgl/src/widgets/lv_btnmatrix.c **** 
 162:Middlewares/lvgl/src/widgets/lv_btnmatrix.c ****             /*If RTL start from the right*/
 163:Middlewares/lvgl/src/widgets/lv_btnmatrix.c ****             if(base_dir == LV_BASE_DIR_RTL) {
 164:Middlewares/lvgl/src/widgets/lv_btnmatrix.c ****                 lv_coord_t tmp = btn_x1;
 165:Middlewares/lvgl/src/widgets/lv_btnmatrix.c ****                 btn_x1 = btn_x2;
 166:Middlewares/lvgl/src/widgets/lv_btnmatrix.c ****                 btn_x2 = tmp;
 167:Middlewares/lvgl/src/widgets/lv_btnmatrix.c **** 
 168:Middlewares/lvgl/src/widgets/lv_btnmatrix.c ****                 btn_x1 = max_w - btn_x1;
 169:Middlewares/lvgl/src/widgets/lv_btnmatrix.c ****                 btn_x2 = max_w - btn_x2;
 170:Middlewares/lvgl/src/widgets/lv_btnmatrix.c ****             }
 171:Middlewares/lvgl/src/widgets/lv_btnmatrix.c **** 
 172:Middlewares/lvgl/src/widgets/lv_btnmatrix.c ****             btn_x1 += pleft;
 173:Middlewares/lvgl/src/widgets/lv_btnmatrix.c ****             btn_x2 += pleft;
 174:Middlewares/lvgl/src/widgets/lv_btnmatrix.c **** 
 175:Middlewares/lvgl/src/widgets/lv_btnmatrix.c ****             lv_area_set(&btnm->button_areas[btn_tot_i], btn_x1, row_y1, btn_x2, row_y2);
 176:Middlewares/lvgl/src/widgets/lv_btnmatrix.c **** 
 177:Middlewares/lvgl/src/widgets/lv_btnmatrix.c ****             row_unit_cnt += btn_u;
 178:Middlewares/lvgl/src/widgets/lv_btnmatrix.c ****         }
 179:Middlewares/lvgl/src/widgets/lv_btnmatrix.c **** 
 180:Middlewares/lvgl/src/widgets/lv_btnmatrix.c ****         map_row = &map_row[btn_cnt + 1];       /*Set the map to the next line*/
 181:Middlewares/lvgl/src/widgets/lv_btnmatrix.c ****     }
 182:Middlewares/lvgl/src/widgets/lv_btnmatrix.c **** 
 183:Middlewares/lvgl/src/widgets/lv_btnmatrix.c ****     lv_obj_invalidate(obj);
 184:Middlewares/lvgl/src/widgets/lv_btnmatrix.c **** }
 185:Middlewares/lvgl/src/widgets/lv_btnmatrix.c **** 
 186:Middlewares/lvgl/src/widgets/lv_btnmatrix.c **** void lv_btnmatrix_set_ctrl_map(lv_obj_t * obj, const lv_btnmatrix_ctrl_t ctrl_map[])
 187:Middlewares/lvgl/src/widgets/lv_btnmatrix.c **** {
 188:Middlewares/lvgl/src/widgets/lv_btnmatrix.c ****     LV_ASSERT_OBJ(obj, MY_CLASS);
 189:Middlewares/lvgl/src/widgets/lv_btnmatrix.c **** 
 190:Middlewares/lvgl/src/widgets/lv_btnmatrix.c ****     lv_btnmatrix_t * btnm = (lv_btnmatrix_t *)obj;
 191:Middlewares/lvgl/src/widgets/lv_btnmatrix.c ****     lv_memcpy(btnm->ctrl_bits, ctrl_map, sizeof(lv_btnmatrix_ctrl_t) * btnm->btn_cnt);
 192:Middlewares/lvgl/src/widgets/lv_btnmatrix.c **** 
 193:Middlewares/lvgl/src/widgets/lv_btnmatrix.c ****     lv_btnmatrix_set_map(obj, btnm->map_p);
 194:Middlewares/lvgl/src/widgets/lv_btnmatrix.c **** }
 195:Middlewares/lvgl/src/widgets/lv_btnmatrix.c **** 
 196:Middlewares/lvgl/src/widgets/lv_btnmatrix.c **** void lv_btnmatrix_set_selected_btn(lv_obj_t * obj, uint16_t btn_id)
 197:Middlewares/lvgl/src/widgets/lv_btnmatrix.c **** {
 198:Middlewares/lvgl/src/widgets/lv_btnmatrix.c ****     LV_ASSERT_OBJ(obj, MY_CLASS);
 199:Middlewares/lvgl/src/widgets/lv_btnmatrix.c **** 
 200:Middlewares/lvgl/src/widgets/lv_btnmatrix.c ****     lv_btnmatrix_t * btnm = (lv_btnmatrix_t *)obj;
 201:Middlewares/lvgl/src/widgets/lv_btnmatrix.c **** 
 202:Middlewares/lvgl/src/widgets/lv_btnmatrix.c ****     if(btn_id >= btnm->btn_cnt && btn_id != LV_BTNMATRIX_BTN_NONE) return;
 203:Middlewares/lvgl/src/widgets/lv_btnmatrix.c **** 
ARM GAS  /tmp/ccnMQJLR.s 			page 5


 204:Middlewares/lvgl/src/widgets/lv_btnmatrix.c ****     invalidate_button_area(obj, btnm->btn_id_sel);
 205:Middlewares/lvgl/src/widgets/lv_btnmatrix.c ****     btnm->btn_id_sel = btn_id;
 206:Middlewares/lvgl/src/widgets/lv_btnmatrix.c ****     invalidate_button_area(obj, btn_id);
 207:Middlewares/lvgl/src/widgets/lv_btnmatrix.c **** }
 208:Middlewares/lvgl/src/widgets/lv_btnmatrix.c **** 
 209:Middlewares/lvgl/src/widgets/lv_btnmatrix.c **** void lv_btnmatrix_set_btn_ctrl(lv_obj_t * obj, uint16_t btn_id, lv_btnmatrix_ctrl_t ctrl)
 210:Middlewares/lvgl/src/widgets/lv_btnmatrix.c **** {
 211:Middlewares/lvgl/src/widgets/lv_btnmatrix.c ****     LV_ASSERT_OBJ(obj, MY_CLASS);
 212:Middlewares/lvgl/src/widgets/lv_btnmatrix.c **** 
 213:Middlewares/lvgl/src/widgets/lv_btnmatrix.c ****     lv_btnmatrix_t * btnm = (lv_btnmatrix_t *)obj;;
 214:Middlewares/lvgl/src/widgets/lv_btnmatrix.c **** 
 215:Middlewares/lvgl/src/widgets/lv_btnmatrix.c ****     if(btn_id >= btnm->btn_cnt) return;
 216:Middlewares/lvgl/src/widgets/lv_btnmatrix.c **** 
 217:Middlewares/lvgl/src/widgets/lv_btnmatrix.c ****     if(btnm->one_check && (ctrl & LV_BTNMATRIX_CTRL_CHECKED)) {
 218:Middlewares/lvgl/src/widgets/lv_btnmatrix.c ****         lv_btnmatrix_clear_btn_ctrl_all(obj, LV_BTNMATRIX_CTRL_CHECKED);
 219:Middlewares/lvgl/src/widgets/lv_btnmatrix.c ****     }
 220:Middlewares/lvgl/src/widgets/lv_btnmatrix.c **** 
 221:Middlewares/lvgl/src/widgets/lv_btnmatrix.c ****     btnm->ctrl_bits[btn_id] |= ctrl;
 222:Middlewares/lvgl/src/widgets/lv_btnmatrix.c ****     invalidate_button_area(obj, btn_id);
 223:Middlewares/lvgl/src/widgets/lv_btnmatrix.c **** }
 224:Middlewares/lvgl/src/widgets/lv_btnmatrix.c **** 
 225:Middlewares/lvgl/src/widgets/lv_btnmatrix.c **** void lv_btnmatrix_clear_btn_ctrl(const lv_obj_t * obj, uint16_t btn_id, lv_btnmatrix_ctrl_t ctrl)
 226:Middlewares/lvgl/src/widgets/lv_btnmatrix.c **** {
 227:Middlewares/lvgl/src/widgets/lv_btnmatrix.c ****     LV_ASSERT_OBJ(obj, MY_CLASS);
 228:Middlewares/lvgl/src/widgets/lv_btnmatrix.c **** 
 229:Middlewares/lvgl/src/widgets/lv_btnmatrix.c ****     lv_btnmatrix_t * btnm = (lv_btnmatrix_t *)obj;;
 230:Middlewares/lvgl/src/widgets/lv_btnmatrix.c **** 
 231:Middlewares/lvgl/src/widgets/lv_btnmatrix.c ****     if(btn_id >= btnm->btn_cnt) return;
 232:Middlewares/lvgl/src/widgets/lv_btnmatrix.c **** 
 233:Middlewares/lvgl/src/widgets/lv_btnmatrix.c ****     btnm->ctrl_bits[btn_id] &= (~ctrl);
 234:Middlewares/lvgl/src/widgets/lv_btnmatrix.c ****     invalidate_button_area(obj, btn_id);
 235:Middlewares/lvgl/src/widgets/lv_btnmatrix.c **** }
 236:Middlewares/lvgl/src/widgets/lv_btnmatrix.c **** 
 237:Middlewares/lvgl/src/widgets/lv_btnmatrix.c **** void lv_btnmatrix_set_btn_ctrl_all(lv_obj_t * obj, lv_btnmatrix_ctrl_t ctrl)
 238:Middlewares/lvgl/src/widgets/lv_btnmatrix.c **** {
 239:Middlewares/lvgl/src/widgets/lv_btnmatrix.c ****     LV_ASSERT_OBJ(obj, MY_CLASS);
 240:Middlewares/lvgl/src/widgets/lv_btnmatrix.c **** 
 241:Middlewares/lvgl/src/widgets/lv_btnmatrix.c ****     lv_btnmatrix_t * btnm = (lv_btnmatrix_t *)obj;;
 242:Middlewares/lvgl/src/widgets/lv_btnmatrix.c ****     uint16_t i;
 243:Middlewares/lvgl/src/widgets/lv_btnmatrix.c ****     for(i = 0; i < btnm->btn_cnt; i++) {
 244:Middlewares/lvgl/src/widgets/lv_btnmatrix.c ****         lv_btnmatrix_set_btn_ctrl(obj, i, ctrl);
 245:Middlewares/lvgl/src/widgets/lv_btnmatrix.c ****     }
 246:Middlewares/lvgl/src/widgets/lv_btnmatrix.c **** }
 247:Middlewares/lvgl/src/widgets/lv_btnmatrix.c **** 
 248:Middlewares/lvgl/src/widgets/lv_btnmatrix.c **** void lv_btnmatrix_clear_btn_ctrl_all(lv_obj_t * obj, lv_btnmatrix_ctrl_t ctrl)
 249:Middlewares/lvgl/src/widgets/lv_btnmatrix.c **** {
 250:Middlewares/lvgl/src/widgets/lv_btnmatrix.c ****     LV_ASSERT_OBJ(obj, MY_CLASS);
 251:Middlewares/lvgl/src/widgets/lv_btnmatrix.c **** 
 252:Middlewares/lvgl/src/widgets/lv_btnmatrix.c ****     lv_btnmatrix_t * btnm = (lv_btnmatrix_t *)obj;;
 253:Middlewares/lvgl/src/widgets/lv_btnmatrix.c ****     uint16_t i;
 254:Middlewares/lvgl/src/widgets/lv_btnmatrix.c ****     for(i = 0; i < btnm->btn_cnt; i++) {
 255:Middlewares/lvgl/src/widgets/lv_btnmatrix.c ****         lv_btnmatrix_clear_btn_ctrl(obj, i, ctrl);
 256:Middlewares/lvgl/src/widgets/lv_btnmatrix.c ****     }
 257:Middlewares/lvgl/src/widgets/lv_btnmatrix.c **** }
 258:Middlewares/lvgl/src/widgets/lv_btnmatrix.c **** 
 259:Middlewares/lvgl/src/widgets/lv_btnmatrix.c **** void lv_btnmatrix_set_btn_width(lv_obj_t * obj, uint16_t btn_id, uint8_t width)
 260:Middlewares/lvgl/src/widgets/lv_btnmatrix.c **** {
ARM GAS  /tmp/ccnMQJLR.s 			page 6


 261:Middlewares/lvgl/src/widgets/lv_btnmatrix.c ****     LV_ASSERT_OBJ(obj, MY_CLASS);
 262:Middlewares/lvgl/src/widgets/lv_btnmatrix.c **** 
 263:Middlewares/lvgl/src/widgets/lv_btnmatrix.c ****     lv_btnmatrix_t * btnm = (lv_btnmatrix_t *)obj;;
 264:Middlewares/lvgl/src/widgets/lv_btnmatrix.c ****     if(btn_id >= btnm->btn_cnt) return;
 265:Middlewares/lvgl/src/widgets/lv_btnmatrix.c ****     btnm->ctrl_bits[btn_id] &= (~LV_BTNMATRIX_WIDTH_MASK);
 266:Middlewares/lvgl/src/widgets/lv_btnmatrix.c ****     btnm->ctrl_bits[btn_id] |= (LV_BTNMATRIX_WIDTH_MASK & width);
 267:Middlewares/lvgl/src/widgets/lv_btnmatrix.c **** 
 268:Middlewares/lvgl/src/widgets/lv_btnmatrix.c ****     lv_btnmatrix_set_map(obj, btnm->map_p);
 269:Middlewares/lvgl/src/widgets/lv_btnmatrix.c **** }
 270:Middlewares/lvgl/src/widgets/lv_btnmatrix.c **** 
 271:Middlewares/lvgl/src/widgets/lv_btnmatrix.c **** void lv_btnmatrix_set_one_checked(lv_obj_t * obj, bool en)
 272:Middlewares/lvgl/src/widgets/lv_btnmatrix.c **** {
 273:Middlewares/lvgl/src/widgets/lv_btnmatrix.c ****     LV_ASSERT_OBJ(obj, MY_CLASS);
 274:Middlewares/lvgl/src/widgets/lv_btnmatrix.c **** 
 275:Middlewares/lvgl/src/widgets/lv_btnmatrix.c ****     lv_btnmatrix_t * btnm = (lv_btnmatrix_t *)obj;;
 276:Middlewares/lvgl/src/widgets/lv_btnmatrix.c ****     btnm->one_check     = en;
 277:Middlewares/lvgl/src/widgets/lv_btnmatrix.c **** 
 278:Middlewares/lvgl/src/widgets/lv_btnmatrix.c ****     /*If more than one button is toggled only the first one should be*/
 279:Middlewares/lvgl/src/widgets/lv_btnmatrix.c ****     make_one_button_checked(obj, 0);
 280:Middlewares/lvgl/src/widgets/lv_btnmatrix.c **** }
 281:Middlewares/lvgl/src/widgets/lv_btnmatrix.c **** 
 282:Middlewares/lvgl/src/widgets/lv_btnmatrix.c **** /*=====================
 283:Middlewares/lvgl/src/widgets/lv_btnmatrix.c ****  * Getter functions
 284:Middlewares/lvgl/src/widgets/lv_btnmatrix.c ****  *====================*/
 285:Middlewares/lvgl/src/widgets/lv_btnmatrix.c **** 
 286:Middlewares/lvgl/src/widgets/lv_btnmatrix.c **** const char ** lv_btnmatrix_get_map(const lv_obj_t * obj)
 287:Middlewares/lvgl/src/widgets/lv_btnmatrix.c **** {
 288:Middlewares/lvgl/src/widgets/lv_btnmatrix.c ****     LV_ASSERT_OBJ(obj, MY_CLASS);
 289:Middlewares/lvgl/src/widgets/lv_btnmatrix.c **** 
 290:Middlewares/lvgl/src/widgets/lv_btnmatrix.c ****     lv_btnmatrix_t * btnm = (lv_btnmatrix_t *)obj;;
 291:Middlewares/lvgl/src/widgets/lv_btnmatrix.c ****     return btnm->map_p;
 292:Middlewares/lvgl/src/widgets/lv_btnmatrix.c **** }
 293:Middlewares/lvgl/src/widgets/lv_btnmatrix.c **** 
 294:Middlewares/lvgl/src/widgets/lv_btnmatrix.c **** uint16_t lv_btnmatrix_get_selected_btn(const lv_obj_t * obj)
 295:Middlewares/lvgl/src/widgets/lv_btnmatrix.c **** {
 296:Middlewares/lvgl/src/widgets/lv_btnmatrix.c ****     LV_ASSERT_OBJ(obj, MY_CLASS);
 297:Middlewares/lvgl/src/widgets/lv_btnmatrix.c **** 
 298:Middlewares/lvgl/src/widgets/lv_btnmatrix.c ****     lv_btnmatrix_t * btnm = (lv_btnmatrix_t *)obj;;
 299:Middlewares/lvgl/src/widgets/lv_btnmatrix.c ****     return btnm->btn_id_sel;
 300:Middlewares/lvgl/src/widgets/lv_btnmatrix.c **** }
 301:Middlewares/lvgl/src/widgets/lv_btnmatrix.c **** 
 302:Middlewares/lvgl/src/widgets/lv_btnmatrix.c **** const char * lv_btnmatrix_get_btn_text(const lv_obj_t * obj, uint16_t btn_id)
 303:Middlewares/lvgl/src/widgets/lv_btnmatrix.c **** {
 304:Middlewares/lvgl/src/widgets/lv_btnmatrix.c ****     LV_ASSERT_OBJ(obj, MY_CLASS);
 305:Middlewares/lvgl/src/widgets/lv_btnmatrix.c **** 
 306:Middlewares/lvgl/src/widgets/lv_btnmatrix.c ****     if(btn_id == LV_BTNMATRIX_BTN_NONE) return NULL;
 307:Middlewares/lvgl/src/widgets/lv_btnmatrix.c **** 
 308:Middlewares/lvgl/src/widgets/lv_btnmatrix.c ****     lv_btnmatrix_t * btnm = (lv_btnmatrix_t *)obj;
 309:Middlewares/lvgl/src/widgets/lv_btnmatrix.c ****     if(btn_id > btnm->btn_cnt) return NULL;
 310:Middlewares/lvgl/src/widgets/lv_btnmatrix.c **** 
 311:Middlewares/lvgl/src/widgets/lv_btnmatrix.c ****     uint16_t txt_i = 0;
 312:Middlewares/lvgl/src/widgets/lv_btnmatrix.c ****     uint16_t btn_i = 0;
 313:Middlewares/lvgl/src/widgets/lv_btnmatrix.c **** 
 314:Middlewares/lvgl/src/widgets/lv_btnmatrix.c ****     /*Search the text of btnm->btn_pr the buttons text in the map
 315:Middlewares/lvgl/src/widgets/lv_btnmatrix.c ****      *Skip "\n"-s*/
 316:Middlewares/lvgl/src/widgets/lv_btnmatrix.c ****     while(btn_i != btn_id) {
 317:Middlewares/lvgl/src/widgets/lv_btnmatrix.c ****         btn_i++;
ARM GAS  /tmp/ccnMQJLR.s 			page 7


 318:Middlewares/lvgl/src/widgets/lv_btnmatrix.c ****         txt_i++;
 319:Middlewares/lvgl/src/widgets/lv_btnmatrix.c ****         if(strcmp(btnm->map_p[txt_i], "\n") == 0) txt_i++;
 320:Middlewares/lvgl/src/widgets/lv_btnmatrix.c ****     }
 321:Middlewares/lvgl/src/widgets/lv_btnmatrix.c **** 
 322:Middlewares/lvgl/src/widgets/lv_btnmatrix.c ****     if(btn_i == btnm->btn_cnt) return NULL;
 323:Middlewares/lvgl/src/widgets/lv_btnmatrix.c **** 
 324:Middlewares/lvgl/src/widgets/lv_btnmatrix.c ****     return btnm->map_p[txt_i];
 325:Middlewares/lvgl/src/widgets/lv_btnmatrix.c **** }
 326:Middlewares/lvgl/src/widgets/lv_btnmatrix.c **** 
 327:Middlewares/lvgl/src/widgets/lv_btnmatrix.c **** bool lv_btnmatrix_has_btn_ctrl(lv_obj_t * obj, uint16_t btn_id, lv_btnmatrix_ctrl_t ctrl)
 328:Middlewares/lvgl/src/widgets/lv_btnmatrix.c **** {
 329:Middlewares/lvgl/src/widgets/lv_btnmatrix.c ****     LV_ASSERT_OBJ(obj, MY_CLASS);
 330:Middlewares/lvgl/src/widgets/lv_btnmatrix.c **** 
 331:Middlewares/lvgl/src/widgets/lv_btnmatrix.c ****     lv_btnmatrix_t * btnm = (lv_btnmatrix_t *)obj;;
 332:Middlewares/lvgl/src/widgets/lv_btnmatrix.c ****     if(btn_id >= btnm->btn_cnt) return false;
 333:Middlewares/lvgl/src/widgets/lv_btnmatrix.c **** 
 334:Middlewares/lvgl/src/widgets/lv_btnmatrix.c ****     return (btnm->ctrl_bits[btn_id] & ctrl) ? true : false;
 335:Middlewares/lvgl/src/widgets/lv_btnmatrix.c **** }
 336:Middlewares/lvgl/src/widgets/lv_btnmatrix.c **** 
 337:Middlewares/lvgl/src/widgets/lv_btnmatrix.c **** bool lv_btnmatrix_get_one_checked(const lv_obj_t * obj)
 338:Middlewares/lvgl/src/widgets/lv_btnmatrix.c **** {
 339:Middlewares/lvgl/src/widgets/lv_btnmatrix.c ****     LV_ASSERT_OBJ(obj, MY_CLASS);
 340:Middlewares/lvgl/src/widgets/lv_btnmatrix.c **** 
 341:Middlewares/lvgl/src/widgets/lv_btnmatrix.c ****     lv_btnmatrix_t * btnm = (lv_btnmatrix_t *)obj;;
 342:Middlewares/lvgl/src/widgets/lv_btnmatrix.c **** 
 343:Middlewares/lvgl/src/widgets/lv_btnmatrix.c ****     return btnm->one_check;
 344:Middlewares/lvgl/src/widgets/lv_btnmatrix.c **** }
 345:Middlewares/lvgl/src/widgets/lv_btnmatrix.c **** 
 346:Middlewares/lvgl/src/widgets/lv_btnmatrix.c **** /**********************
 347:Middlewares/lvgl/src/widgets/lv_btnmatrix.c ****  *   STATIC FUNCTIONS
 348:Middlewares/lvgl/src/widgets/lv_btnmatrix.c ****  **********************/
 349:Middlewares/lvgl/src/widgets/lv_btnmatrix.c **** 
 350:Middlewares/lvgl/src/widgets/lv_btnmatrix.c **** static void lv_btnmatrix_constructor(const lv_obj_class_t * class_p, lv_obj_t * obj)
 351:Middlewares/lvgl/src/widgets/lv_btnmatrix.c **** {
 352:Middlewares/lvgl/src/widgets/lv_btnmatrix.c ****     LV_UNUSED(class_p);
 353:Middlewares/lvgl/src/widgets/lv_btnmatrix.c ****     LV_TRACE_OBJ_CREATE("begin");
 354:Middlewares/lvgl/src/widgets/lv_btnmatrix.c ****     lv_btnmatrix_t * btnm = (lv_btnmatrix_t *)obj;
 355:Middlewares/lvgl/src/widgets/lv_btnmatrix.c ****     btnm->btn_cnt        = 0;
 356:Middlewares/lvgl/src/widgets/lv_btnmatrix.c ****     btnm->btn_id_sel     = LV_BTNMATRIX_BTN_NONE;
 357:Middlewares/lvgl/src/widgets/lv_btnmatrix.c ****     btnm->button_areas   = NULL;
 358:Middlewares/lvgl/src/widgets/lv_btnmatrix.c ****     btnm->ctrl_bits      = NULL;
 359:Middlewares/lvgl/src/widgets/lv_btnmatrix.c ****     btnm->map_p          = NULL;
 360:Middlewares/lvgl/src/widgets/lv_btnmatrix.c ****     btnm->one_check      = 0;
 361:Middlewares/lvgl/src/widgets/lv_btnmatrix.c **** 
 362:Middlewares/lvgl/src/widgets/lv_btnmatrix.c ****     lv_btnmatrix_set_map(obj, lv_btnmatrix_def_map);
 363:Middlewares/lvgl/src/widgets/lv_btnmatrix.c **** 
 364:Middlewares/lvgl/src/widgets/lv_btnmatrix.c ****     LV_TRACE_OBJ_CREATE("finshed");
 365:Middlewares/lvgl/src/widgets/lv_btnmatrix.c **** }
 366:Middlewares/lvgl/src/widgets/lv_btnmatrix.c **** 
 367:Middlewares/lvgl/src/widgets/lv_btnmatrix.c **** static void lv_btnmatrix_destructor(const lv_obj_class_t * class_p, lv_obj_t * obj)
 368:Middlewares/lvgl/src/widgets/lv_btnmatrix.c **** {
 369:Middlewares/lvgl/src/widgets/lv_btnmatrix.c ****     LV_TRACE_OBJ_CREATE("begin");
 370:Middlewares/lvgl/src/widgets/lv_btnmatrix.c ****     LV_UNUSED(class_p);
 371:Middlewares/lvgl/src/widgets/lv_btnmatrix.c ****     lv_btnmatrix_t * btnm = (lv_btnmatrix_t *)obj;
 372:Middlewares/lvgl/src/widgets/lv_btnmatrix.c ****     lv_mem_free(btnm->button_areas);
 373:Middlewares/lvgl/src/widgets/lv_btnmatrix.c ****     lv_mem_free(btnm->ctrl_bits);
 374:Middlewares/lvgl/src/widgets/lv_btnmatrix.c ****     btnm->button_areas = NULL;
ARM GAS  /tmp/ccnMQJLR.s 			page 8


 375:Middlewares/lvgl/src/widgets/lv_btnmatrix.c ****     btnm->ctrl_bits = NULL;
 376:Middlewares/lvgl/src/widgets/lv_btnmatrix.c ****     LV_TRACE_OBJ_CREATE("finshed");
 377:Middlewares/lvgl/src/widgets/lv_btnmatrix.c **** }
 378:Middlewares/lvgl/src/widgets/lv_btnmatrix.c **** 
 379:Middlewares/lvgl/src/widgets/lv_btnmatrix.c **** static void lv_btnmatrix_event(const lv_obj_class_t * class_p, lv_event_t * e)
 380:Middlewares/lvgl/src/widgets/lv_btnmatrix.c **** {
 381:Middlewares/lvgl/src/widgets/lv_btnmatrix.c ****     LV_UNUSED(class_p);
 382:Middlewares/lvgl/src/widgets/lv_btnmatrix.c **** 
 383:Middlewares/lvgl/src/widgets/lv_btnmatrix.c ****     lv_res_t res;
 384:Middlewares/lvgl/src/widgets/lv_btnmatrix.c **** 
 385:Middlewares/lvgl/src/widgets/lv_btnmatrix.c ****     /*Call the ancestor's event handler*/
 386:Middlewares/lvgl/src/widgets/lv_btnmatrix.c ****     res = lv_obj_event_base(MY_CLASS, e);
 387:Middlewares/lvgl/src/widgets/lv_btnmatrix.c ****     if(res != LV_RES_OK) return;
 388:Middlewares/lvgl/src/widgets/lv_btnmatrix.c **** 
 389:Middlewares/lvgl/src/widgets/lv_btnmatrix.c ****     lv_event_code_t code = lv_event_get_code(e);
 390:Middlewares/lvgl/src/widgets/lv_btnmatrix.c ****     lv_obj_t * obj = lv_event_get_target(e);
 391:Middlewares/lvgl/src/widgets/lv_btnmatrix.c ****     lv_btnmatrix_t * btnm = (lv_btnmatrix_t *)obj;
 392:Middlewares/lvgl/src/widgets/lv_btnmatrix.c ****     lv_point_t p;
 393:Middlewares/lvgl/src/widgets/lv_btnmatrix.c **** 
 394:Middlewares/lvgl/src/widgets/lv_btnmatrix.c ****     if(code == LV_EVENT_STYLE_CHANGED) {
 395:Middlewares/lvgl/src/widgets/lv_btnmatrix.c ****         lv_btnmatrix_set_map(obj, btnm->map_p);
 396:Middlewares/lvgl/src/widgets/lv_btnmatrix.c ****     }
 397:Middlewares/lvgl/src/widgets/lv_btnmatrix.c ****     else if(code == LV_EVENT_SIZE_CHANGED) {
 398:Middlewares/lvgl/src/widgets/lv_btnmatrix.c ****         lv_btnmatrix_set_map(obj, btnm->map_p);
 399:Middlewares/lvgl/src/widgets/lv_btnmatrix.c ****     }
 400:Middlewares/lvgl/src/widgets/lv_btnmatrix.c ****     else if(code == LV_EVENT_PRESSED) {
 401:Middlewares/lvgl/src/widgets/lv_btnmatrix.c ****         void * param = lv_event_get_param(e);
 402:Middlewares/lvgl/src/widgets/lv_btnmatrix.c ****         invalidate_button_area(obj, btnm->btn_id_sel);
 403:Middlewares/lvgl/src/widgets/lv_btnmatrix.c **** 
 404:Middlewares/lvgl/src/widgets/lv_btnmatrix.c ****         lv_indev_type_t indev_type = lv_indev_get_type(lv_indev_get_act());
 405:Middlewares/lvgl/src/widgets/lv_btnmatrix.c ****         if(indev_type == LV_INDEV_TYPE_POINTER || indev_type == LV_INDEV_TYPE_BUTTON) {
 406:Middlewares/lvgl/src/widgets/lv_btnmatrix.c ****             uint16_t btn_pr;
 407:Middlewares/lvgl/src/widgets/lv_btnmatrix.c ****             /*Search the pressed area*/
 408:Middlewares/lvgl/src/widgets/lv_btnmatrix.c ****             lv_indev_get_point(param, &p);
 409:Middlewares/lvgl/src/widgets/lv_btnmatrix.c ****             btn_pr = get_button_from_point(obj, &p);
 410:Middlewares/lvgl/src/widgets/lv_btnmatrix.c ****             /*Handle the case where there is no button there*/
 411:Middlewares/lvgl/src/widgets/lv_btnmatrix.c ****             if(btn_pr != LV_BTNMATRIX_BTN_NONE) {
 412:Middlewares/lvgl/src/widgets/lv_btnmatrix.c ****                 if(button_is_inactive(btnm->ctrl_bits[btn_pr]) == false &&
 413:Middlewares/lvgl/src/widgets/lv_btnmatrix.c ****                    button_is_hidden(btnm->ctrl_bits[btn_pr]) == false) {
 414:Middlewares/lvgl/src/widgets/lv_btnmatrix.c ****                     btnm->btn_id_sel = btn_pr;
 415:Middlewares/lvgl/src/widgets/lv_btnmatrix.c ****                     invalidate_button_area(obj, btnm->btn_id_sel); /*Invalidate the new area*/
 416:Middlewares/lvgl/src/widgets/lv_btnmatrix.c ****                 }
 417:Middlewares/lvgl/src/widgets/lv_btnmatrix.c ****             }
 418:Middlewares/lvgl/src/widgets/lv_btnmatrix.c ****         }
 419:Middlewares/lvgl/src/widgets/lv_btnmatrix.c **** 
 420:Middlewares/lvgl/src/widgets/lv_btnmatrix.c ****         if(btnm->btn_id_sel != LV_BTNMATRIX_BTN_NONE) {
 421:Middlewares/lvgl/src/widgets/lv_btnmatrix.c ****             if(button_is_click_trig(btnm->ctrl_bits[btnm->btn_id_sel]) == false &&
 422:Middlewares/lvgl/src/widgets/lv_btnmatrix.c ****                button_is_inactive(btnm->ctrl_bits[btnm->btn_id_sel]) == false &&
 423:Middlewares/lvgl/src/widgets/lv_btnmatrix.c ****                button_is_hidden(btnm->ctrl_bits[btnm->btn_id_sel]) == false) {
 424:Middlewares/lvgl/src/widgets/lv_btnmatrix.c ****                 uint32_t b = btnm->btn_id_sel;
 425:Middlewares/lvgl/src/widgets/lv_btnmatrix.c ****                 res        = lv_event_send(obj, LV_EVENT_VALUE_CHANGED, &b);
 426:Middlewares/lvgl/src/widgets/lv_btnmatrix.c ****                 if(res != LV_RES_OK) return;
 427:Middlewares/lvgl/src/widgets/lv_btnmatrix.c ****             }
 428:Middlewares/lvgl/src/widgets/lv_btnmatrix.c ****         }
 429:Middlewares/lvgl/src/widgets/lv_btnmatrix.c ****     }
 430:Middlewares/lvgl/src/widgets/lv_btnmatrix.c ****     else if(code == LV_EVENT_PRESSING) {
 431:Middlewares/lvgl/src/widgets/lv_btnmatrix.c ****         void * param = lv_event_get_param(e);
ARM GAS  /tmp/ccnMQJLR.s 			page 9


 432:Middlewares/lvgl/src/widgets/lv_btnmatrix.c ****         uint16_t btn_pr = LV_BTNMATRIX_BTN_NONE;
 433:Middlewares/lvgl/src/widgets/lv_btnmatrix.c ****         /*Search the pressed area*/
 434:Middlewares/lvgl/src/widgets/lv_btnmatrix.c ****         lv_indev_t * indev = lv_indev_get_act();
 435:Middlewares/lvgl/src/widgets/lv_btnmatrix.c ****         lv_indev_type_t indev_type = lv_indev_get_type(indev);
 436:Middlewares/lvgl/src/widgets/lv_btnmatrix.c ****         if(indev_type == LV_INDEV_TYPE_ENCODER || indev_type == LV_INDEV_TYPE_KEYPAD) return;
 437:Middlewares/lvgl/src/widgets/lv_btnmatrix.c **** 
 438:Middlewares/lvgl/src/widgets/lv_btnmatrix.c ****         lv_indev_get_point(indev, &p);
 439:Middlewares/lvgl/src/widgets/lv_btnmatrix.c ****         btn_pr = get_button_from_point(obj, &p);
 440:Middlewares/lvgl/src/widgets/lv_btnmatrix.c ****         /*Invalidate to old and the new areas*/
 441:Middlewares/lvgl/src/widgets/lv_btnmatrix.c ****         if(btn_pr != btnm->btn_id_sel) {
 442:Middlewares/lvgl/src/widgets/lv_btnmatrix.c ****             if(btnm->btn_id_sel != LV_BTNMATRIX_BTN_NONE) {
 443:Middlewares/lvgl/src/widgets/lv_btnmatrix.c ****                 invalidate_button_area(obj, btnm->btn_id_sel);
 444:Middlewares/lvgl/src/widgets/lv_btnmatrix.c ****             }
 445:Middlewares/lvgl/src/widgets/lv_btnmatrix.c **** 
 446:Middlewares/lvgl/src/widgets/lv_btnmatrix.c ****             btnm->btn_id_sel = btn_pr;
 447:Middlewares/lvgl/src/widgets/lv_btnmatrix.c **** 
 448:Middlewares/lvgl/src/widgets/lv_btnmatrix.c ****             lv_indev_reset_long_press(param); /*Start the log press time again on the new button*/
 449:Middlewares/lvgl/src/widgets/lv_btnmatrix.c ****             if(btn_pr != LV_BTNMATRIX_BTN_NONE &&
 450:Middlewares/lvgl/src/widgets/lv_btnmatrix.c ****                button_is_inactive(btnm->ctrl_bits[btn_pr]) == false &&
 451:Middlewares/lvgl/src/widgets/lv_btnmatrix.c ****                button_is_hidden(btnm->ctrl_bits[btn_pr]) == false) {
 452:Middlewares/lvgl/src/widgets/lv_btnmatrix.c ****                 invalidate_button_area(obj, btn_pr);
 453:Middlewares/lvgl/src/widgets/lv_btnmatrix.c ****                 /*Send VALUE_CHANGED for the newly pressed button*/
 454:Middlewares/lvgl/src/widgets/lv_btnmatrix.c ****                 if(button_is_click_trig(btnm->ctrl_bits[btn_pr]) == false) {
 455:Middlewares/lvgl/src/widgets/lv_btnmatrix.c ****                     uint32_t b = btn_pr;
 456:Middlewares/lvgl/src/widgets/lv_btnmatrix.c ****                     res = lv_event_send(obj, LV_EVENT_VALUE_CHANGED, &b);
 457:Middlewares/lvgl/src/widgets/lv_btnmatrix.c ****                     if(res != LV_RES_OK) return;
 458:Middlewares/lvgl/src/widgets/lv_btnmatrix.c ****                 }
 459:Middlewares/lvgl/src/widgets/lv_btnmatrix.c ****             }
 460:Middlewares/lvgl/src/widgets/lv_btnmatrix.c ****         }
 461:Middlewares/lvgl/src/widgets/lv_btnmatrix.c ****     }
 462:Middlewares/lvgl/src/widgets/lv_btnmatrix.c ****     else if(code == LV_EVENT_RELEASED) {
 463:Middlewares/lvgl/src/widgets/lv_btnmatrix.c ****         if(btnm->btn_id_sel != LV_BTNMATRIX_BTN_NONE) {
 464:Middlewares/lvgl/src/widgets/lv_btnmatrix.c ****             /*Toggle the button if enabled*/
 465:Middlewares/lvgl/src/widgets/lv_btnmatrix.c ****             if(button_is_checkable(btnm->ctrl_bits[btnm->btn_id_sel]) &&
 466:Middlewares/lvgl/src/widgets/lv_btnmatrix.c ****                !button_is_inactive(btnm->ctrl_bits[btnm->btn_id_sel])) {
 467:Middlewares/lvgl/src/widgets/lv_btnmatrix.c ****                 if(button_get_checked(btnm->ctrl_bits[btnm->btn_id_sel]) && !btnm->one_check) {
 468:Middlewares/lvgl/src/widgets/lv_btnmatrix.c ****                     btnm->ctrl_bits[btnm->btn_id_sel] &= (~LV_BTNMATRIX_CTRL_CHECKED);
 469:Middlewares/lvgl/src/widgets/lv_btnmatrix.c ****                 }
 470:Middlewares/lvgl/src/widgets/lv_btnmatrix.c ****                 else {
 471:Middlewares/lvgl/src/widgets/lv_btnmatrix.c ****                     btnm->ctrl_bits[btnm->btn_id_sel] |= LV_BTNMATRIX_CTRL_CHECKED;
 472:Middlewares/lvgl/src/widgets/lv_btnmatrix.c ****                 }
 473:Middlewares/lvgl/src/widgets/lv_btnmatrix.c ****                 if(btnm->one_check) make_one_button_checked(obj, btnm->btn_id_sel);
 474:Middlewares/lvgl/src/widgets/lv_btnmatrix.c ****             }
 475:Middlewares/lvgl/src/widgets/lv_btnmatrix.c **** 
 476:Middlewares/lvgl/src/widgets/lv_btnmatrix.c **** 
 477:Middlewares/lvgl/src/widgets/lv_btnmatrix.c ****             if(button_is_click_trig(btnm->ctrl_bits[btnm->btn_id_sel]) == true &&
 478:Middlewares/lvgl/src/widgets/lv_btnmatrix.c ****                button_is_inactive(btnm->ctrl_bits[btnm->btn_id_sel]) == false &&
 479:Middlewares/lvgl/src/widgets/lv_btnmatrix.c ****                button_is_hidden(btnm->ctrl_bits[btnm->btn_id_sel]) == false) {
 480:Middlewares/lvgl/src/widgets/lv_btnmatrix.c ****                 uint32_t b = btnm->btn_id_sel;
 481:Middlewares/lvgl/src/widgets/lv_btnmatrix.c ****                 res        = lv_event_send(obj, LV_EVENT_VALUE_CHANGED, &b);
 482:Middlewares/lvgl/src/widgets/lv_btnmatrix.c ****                 if(res != LV_RES_OK) return;
 483:Middlewares/lvgl/src/widgets/lv_btnmatrix.c ****             }
 484:Middlewares/lvgl/src/widgets/lv_btnmatrix.c ****         }
 485:Middlewares/lvgl/src/widgets/lv_btnmatrix.c **** 
 486:Middlewares/lvgl/src/widgets/lv_btnmatrix.c ****         /*Invalidate to old pressed area*/;
 487:Middlewares/lvgl/src/widgets/lv_btnmatrix.c ****         invalidate_button_area(obj, btnm->btn_id_sel);
 488:Middlewares/lvgl/src/widgets/lv_btnmatrix.c **** 
ARM GAS  /tmp/ccnMQJLR.s 			page 10


 489:Middlewares/lvgl/src/widgets/lv_btnmatrix.c ****         lv_indev_type_t indev_type = lv_indev_get_type(lv_indev_get_act());
 490:Middlewares/lvgl/src/widgets/lv_btnmatrix.c ****         if(indev_type == LV_INDEV_TYPE_POINTER || indev_type == LV_INDEV_TYPE_BUTTON) {
 491:Middlewares/lvgl/src/widgets/lv_btnmatrix.c ****             btnm->btn_id_sel = LV_BTNMATRIX_BTN_NONE;
 492:Middlewares/lvgl/src/widgets/lv_btnmatrix.c ****         }
 493:Middlewares/lvgl/src/widgets/lv_btnmatrix.c ****     }
 494:Middlewares/lvgl/src/widgets/lv_btnmatrix.c ****     else if(code == LV_EVENT_LONG_PRESSED_REPEAT) {
 495:Middlewares/lvgl/src/widgets/lv_btnmatrix.c ****         if(btnm->btn_id_sel != LV_BTNMATRIX_BTN_NONE) {
 496:Middlewares/lvgl/src/widgets/lv_btnmatrix.c ****             if(button_is_repeat_disabled(btnm->ctrl_bits[btnm->btn_id_sel]) == false &&
 497:Middlewares/lvgl/src/widgets/lv_btnmatrix.c ****                button_is_inactive(btnm->ctrl_bits[btnm->btn_id_sel]) == false &&
 498:Middlewares/lvgl/src/widgets/lv_btnmatrix.c ****                button_is_hidden(btnm->ctrl_bits[btnm->btn_id_sel]) == false) {
 499:Middlewares/lvgl/src/widgets/lv_btnmatrix.c ****                 uint32_t b = btnm->btn_id_sel;
 500:Middlewares/lvgl/src/widgets/lv_btnmatrix.c ****                 res        = lv_event_send(obj, LV_EVENT_VALUE_CHANGED, &b);
 501:Middlewares/lvgl/src/widgets/lv_btnmatrix.c ****                 if(res != LV_RES_OK) return;
 502:Middlewares/lvgl/src/widgets/lv_btnmatrix.c ****             }
 503:Middlewares/lvgl/src/widgets/lv_btnmatrix.c ****         }
 504:Middlewares/lvgl/src/widgets/lv_btnmatrix.c ****     }
 505:Middlewares/lvgl/src/widgets/lv_btnmatrix.c ****     else if(code == LV_EVENT_PRESS_LOST) {
 506:Middlewares/lvgl/src/widgets/lv_btnmatrix.c ****         invalidate_button_area(obj, btnm->btn_id_sel);
 507:Middlewares/lvgl/src/widgets/lv_btnmatrix.c ****         btnm->btn_id_sel = LV_BTNMATRIX_BTN_NONE;
 508:Middlewares/lvgl/src/widgets/lv_btnmatrix.c ****     }
 509:Middlewares/lvgl/src/widgets/lv_btnmatrix.c ****     else if(code == LV_EVENT_FOCUSED) {
 510:Middlewares/lvgl/src/widgets/lv_btnmatrix.c ****         lv_indev_t * indev = lv_event_get_param(e);
 511:Middlewares/lvgl/src/widgets/lv_btnmatrix.c ****         lv_indev_type_t indev_type = lv_indev_get_type(indev);
 512:Middlewares/lvgl/src/widgets/lv_btnmatrix.c **** 
 513:Middlewares/lvgl/src/widgets/lv_btnmatrix.c ****         /*If not focused by an input device assume the last input device*/
 514:Middlewares/lvgl/src/widgets/lv_btnmatrix.c ****         if(indev == NULL) {
 515:Middlewares/lvgl/src/widgets/lv_btnmatrix.c ****             indev = lv_indev_get_next(NULL);
 516:Middlewares/lvgl/src/widgets/lv_btnmatrix.c ****             indev_type = lv_indev_get_type(indev);
 517:Middlewares/lvgl/src/widgets/lv_btnmatrix.c ****         }
 518:Middlewares/lvgl/src/widgets/lv_btnmatrix.c **** 
 519:Middlewares/lvgl/src/widgets/lv_btnmatrix.c ****         bool editing = lv_group_get_editing(lv_obj_get_group(obj));
 520:Middlewares/lvgl/src/widgets/lv_btnmatrix.c ****         /*Focus the first button if there is not selected button*/
 521:Middlewares/lvgl/src/widgets/lv_btnmatrix.c ****         if(btnm->btn_id_sel == LV_BTNMATRIX_BTN_NONE) {
 522:Middlewares/lvgl/src/widgets/lv_btnmatrix.c ****             if (indev_type == LV_INDEV_TYPE_KEYPAD || (indev_type == LV_INDEV_TYPE_ENCODER && editi
 523:Middlewares/lvgl/src/widgets/lv_btnmatrix.c ****                 uint32_t b = 0;
 524:Middlewares/lvgl/src/widgets/lv_btnmatrix.c ****                 if(btnm->one_check) {
 525:Middlewares/lvgl/src/widgets/lv_btnmatrix.c ****                     while(button_is_hidden(btnm->ctrl_bits[b]) || button_is_inactive(btnm->ctrl_bit
 526:Middlewares/lvgl/src/widgets/lv_btnmatrix.c ****                 } else {
 527:Middlewares/lvgl/src/widgets/lv_btnmatrix.c ****                     while(button_is_hidden(btnm->ctrl_bits[b]) || button_is_inactive(btnm->ctrl_bit
 528:Middlewares/lvgl/src/widgets/lv_btnmatrix.c ****                 }
 529:Middlewares/lvgl/src/widgets/lv_btnmatrix.c **** 
 530:Middlewares/lvgl/src/widgets/lv_btnmatrix.c ****                 btnm->btn_id_sel = b;
 531:Middlewares/lvgl/src/widgets/lv_btnmatrix.c ****             } else {
 532:Middlewares/lvgl/src/widgets/lv_btnmatrix.c ****                 btnm->btn_id_sel = LV_BTNMATRIX_BTN_NONE;
 533:Middlewares/lvgl/src/widgets/lv_btnmatrix.c ****             }
 534:Middlewares/lvgl/src/widgets/lv_btnmatrix.c ****         }
 535:Middlewares/lvgl/src/widgets/lv_btnmatrix.c ****     }
 536:Middlewares/lvgl/src/widgets/lv_btnmatrix.c ****     else if(code == LV_EVENT_DEFOCUSED || code == LV_EVENT_LEAVE) {
 537:Middlewares/lvgl/src/widgets/lv_btnmatrix.c ****         if(btnm->btn_id_sel != LV_BTNMATRIX_BTN_NONE) invalidate_button_area(obj, btnm->btn_id_sel)
 538:Middlewares/lvgl/src/widgets/lv_btnmatrix.c ****         btnm->btn_id_sel = LV_BTNMATRIX_BTN_NONE;
 539:Middlewares/lvgl/src/widgets/lv_btnmatrix.c ****     }
 540:Middlewares/lvgl/src/widgets/lv_btnmatrix.c ****     else if(code == LV_EVENT_KEY) {
 541:Middlewares/lvgl/src/widgets/lv_btnmatrix.c **** 
 542:Middlewares/lvgl/src/widgets/lv_btnmatrix.c ****         invalidate_button_area(obj, btnm->btn_id_sel);
 543:Middlewares/lvgl/src/widgets/lv_btnmatrix.c **** 
 544:Middlewares/lvgl/src/widgets/lv_btnmatrix.c ****         char c = *((char *)lv_event_get_param(e));
 545:Middlewares/lvgl/src/widgets/lv_btnmatrix.c ****         if(c == LV_KEY_RIGHT) {
ARM GAS  /tmp/ccnMQJLR.s 			page 11


 546:Middlewares/lvgl/src/widgets/lv_btnmatrix.c ****             if(btnm->btn_id_sel == LV_BTNMATRIX_BTN_NONE)  btnm->btn_id_sel = 0;
 547:Middlewares/lvgl/src/widgets/lv_btnmatrix.c ****             else btnm->btn_id_sel++;
 548:Middlewares/lvgl/src/widgets/lv_btnmatrix.c ****             if(btnm->btn_id_sel >= btnm->btn_cnt) btnm->btn_id_sel = 0;
 549:Middlewares/lvgl/src/widgets/lv_btnmatrix.c **** 
 550:Middlewares/lvgl/src/widgets/lv_btnmatrix.c ****             while(button_is_hidden(btnm->ctrl_bits[btnm->btn_id_sel]) || button_is_inactive(btnm->c
 551:Middlewares/lvgl/src/widgets/lv_btnmatrix.c ****                 btnm->btn_id_sel++;
 552:Middlewares/lvgl/src/widgets/lv_btnmatrix.c ****                 if(btnm->btn_id_sel >= btnm->btn_cnt) btnm->btn_id_sel = 0;
 553:Middlewares/lvgl/src/widgets/lv_btnmatrix.c ****             }
 554:Middlewares/lvgl/src/widgets/lv_btnmatrix.c ****         }
 555:Middlewares/lvgl/src/widgets/lv_btnmatrix.c ****         else if(c == LV_KEY_LEFT) {
 556:Middlewares/lvgl/src/widgets/lv_btnmatrix.c ****             if(btnm->btn_id_sel == LV_BTNMATRIX_BTN_NONE) btnm->btn_id_sel = 0;
 557:Middlewares/lvgl/src/widgets/lv_btnmatrix.c **** 
 558:Middlewares/lvgl/src/widgets/lv_btnmatrix.c ****             if(btnm->btn_id_sel == 0) btnm->btn_id_sel = btnm->btn_cnt - 1;
 559:Middlewares/lvgl/src/widgets/lv_btnmatrix.c ****             else if(btnm->btn_id_sel > 0) btnm->btn_id_sel--;
 560:Middlewares/lvgl/src/widgets/lv_btnmatrix.c **** 
 561:Middlewares/lvgl/src/widgets/lv_btnmatrix.c ****             while(button_is_hidden(btnm->ctrl_bits[btnm->btn_id_sel]) || button_is_inactive(btnm->c
 562:Middlewares/lvgl/src/widgets/lv_btnmatrix.c ****                 if(btnm->btn_id_sel > 0) btnm->btn_id_sel--;
 563:Middlewares/lvgl/src/widgets/lv_btnmatrix.c ****                 else btnm->btn_id_sel = btnm->btn_cnt - 1;
 564:Middlewares/lvgl/src/widgets/lv_btnmatrix.c ****             }
 565:Middlewares/lvgl/src/widgets/lv_btnmatrix.c ****         }
 566:Middlewares/lvgl/src/widgets/lv_btnmatrix.c ****         else if(c == LV_KEY_DOWN) {
 567:Middlewares/lvgl/src/widgets/lv_btnmatrix.c ****             lv_coord_t col_gap = lv_obj_get_style_pad_column(obj, LV_PART_MAIN);
 568:Middlewares/lvgl/src/widgets/lv_btnmatrix.c ****             /*Find the area below the the current*/
 569:Middlewares/lvgl/src/widgets/lv_btnmatrix.c ****             if(btnm->btn_id_sel == LV_BTNMATRIX_BTN_NONE) {
 570:Middlewares/lvgl/src/widgets/lv_btnmatrix.c ****                 btnm->btn_id_sel = 0;
 571:Middlewares/lvgl/src/widgets/lv_btnmatrix.c ****                 while(button_is_hidden(btnm->ctrl_bits[btnm->btn_id_sel]) || button_is_inactive(btn
 572:Middlewares/lvgl/src/widgets/lv_btnmatrix.c ****                     btnm->btn_id_sel++;
 573:Middlewares/lvgl/src/widgets/lv_btnmatrix.c ****                     if(btnm->btn_id_sel >= btnm->btn_cnt) btnm->btn_id_sel = 0;
 574:Middlewares/lvgl/src/widgets/lv_btnmatrix.c ****                 }
 575:Middlewares/lvgl/src/widgets/lv_btnmatrix.c ****             }
 576:Middlewares/lvgl/src/widgets/lv_btnmatrix.c ****             else {
 577:Middlewares/lvgl/src/widgets/lv_btnmatrix.c ****                 uint16_t area_below;
 578:Middlewares/lvgl/src/widgets/lv_btnmatrix.c ****                 lv_coord_t pr_center =
 579:Middlewares/lvgl/src/widgets/lv_btnmatrix.c ****                     btnm->button_areas[btnm->btn_id_sel].x1 + (lv_area_get_width(&btnm->button_area
 580:Middlewares/lvgl/src/widgets/lv_btnmatrix.c **** 
 581:Middlewares/lvgl/src/widgets/lv_btnmatrix.c ****                 for(area_below = btnm->btn_id_sel; area_below < btnm->btn_cnt; area_below++) {
 582:Middlewares/lvgl/src/widgets/lv_btnmatrix.c ****                     if(btnm->button_areas[area_below].y1 > btnm->button_areas[btnm->btn_id_sel].y1 
 583:Middlewares/lvgl/src/widgets/lv_btnmatrix.c ****                        pr_center >= btnm->button_areas[area_below].x1 &&
 584:Middlewares/lvgl/src/widgets/lv_btnmatrix.c ****                        pr_center <= btnm->button_areas[area_below].x2 + col_gap &&
 585:Middlewares/lvgl/src/widgets/lv_btnmatrix.c ****                        button_is_inactive(btnm->ctrl_bits[area_below]) == false &&
 586:Middlewares/lvgl/src/widgets/lv_btnmatrix.c ****                        button_is_hidden(btnm->ctrl_bits[area_below]) == false) {
 587:Middlewares/lvgl/src/widgets/lv_btnmatrix.c ****                         break;
 588:Middlewares/lvgl/src/widgets/lv_btnmatrix.c ****                     }
 589:Middlewares/lvgl/src/widgets/lv_btnmatrix.c ****                 }
 590:Middlewares/lvgl/src/widgets/lv_btnmatrix.c **** 
 591:Middlewares/lvgl/src/widgets/lv_btnmatrix.c ****                 if(area_below < btnm->btn_cnt) btnm->btn_id_sel = area_below;
 592:Middlewares/lvgl/src/widgets/lv_btnmatrix.c ****             }
 593:Middlewares/lvgl/src/widgets/lv_btnmatrix.c ****         }
 594:Middlewares/lvgl/src/widgets/lv_btnmatrix.c ****         else if(c == LV_KEY_UP) {
 595:Middlewares/lvgl/src/widgets/lv_btnmatrix.c ****             lv_coord_t col_gap = lv_obj_get_style_pad_column(obj, LV_PART_MAIN);
 596:Middlewares/lvgl/src/widgets/lv_btnmatrix.c ****             /*Find the area below the the current*/
 597:Middlewares/lvgl/src/widgets/lv_btnmatrix.c ****             if(btnm->btn_id_sel == LV_BTNMATRIX_BTN_NONE) {
 598:Middlewares/lvgl/src/widgets/lv_btnmatrix.c ****                 btnm->btn_id_sel = 0;
 599:Middlewares/lvgl/src/widgets/lv_btnmatrix.c ****                 while(button_is_hidden(btnm->ctrl_bits[btnm->btn_id_sel]) || button_is_inactive(btn
 600:Middlewares/lvgl/src/widgets/lv_btnmatrix.c ****                     btnm->btn_id_sel++;
 601:Middlewares/lvgl/src/widgets/lv_btnmatrix.c ****                     if(btnm->btn_id_sel >= btnm->btn_cnt) btnm->btn_id_sel = 0;
 602:Middlewares/lvgl/src/widgets/lv_btnmatrix.c ****                 }
ARM GAS  /tmp/ccnMQJLR.s 			page 12


 603:Middlewares/lvgl/src/widgets/lv_btnmatrix.c ****             }
 604:Middlewares/lvgl/src/widgets/lv_btnmatrix.c ****             else {
 605:Middlewares/lvgl/src/widgets/lv_btnmatrix.c ****                 int16_t area_above;
 606:Middlewares/lvgl/src/widgets/lv_btnmatrix.c ****                 lv_coord_t pr_center =
 607:Middlewares/lvgl/src/widgets/lv_btnmatrix.c ****                     btnm->button_areas[btnm->btn_id_sel].x1 + (lv_area_get_width(&btnm->button_area
 608:Middlewares/lvgl/src/widgets/lv_btnmatrix.c **** 
 609:Middlewares/lvgl/src/widgets/lv_btnmatrix.c ****                 for(area_above = btnm->btn_id_sel; area_above >= 0; area_above--) {
 610:Middlewares/lvgl/src/widgets/lv_btnmatrix.c ****                     if(btnm->button_areas[area_above].y1 < btnm->button_areas[btnm->btn_id_sel].y1 
 611:Middlewares/lvgl/src/widgets/lv_btnmatrix.c ****                        pr_center >= btnm->button_areas[area_above].x1 - col_gap &&
 612:Middlewares/lvgl/src/widgets/lv_btnmatrix.c ****                        pr_center <= btnm->button_areas[area_above].x2 &&
 613:Middlewares/lvgl/src/widgets/lv_btnmatrix.c ****                        button_is_inactive(btnm->ctrl_bits[area_above]) == false &&
 614:Middlewares/lvgl/src/widgets/lv_btnmatrix.c ****                        button_is_hidden(btnm->ctrl_bits[area_above]) == false) {
 615:Middlewares/lvgl/src/widgets/lv_btnmatrix.c ****                         break;
 616:Middlewares/lvgl/src/widgets/lv_btnmatrix.c ****                     }
 617:Middlewares/lvgl/src/widgets/lv_btnmatrix.c ****                 }
 618:Middlewares/lvgl/src/widgets/lv_btnmatrix.c ****                 if(area_above >= 0) btnm->btn_id_sel = area_above;
 619:Middlewares/lvgl/src/widgets/lv_btnmatrix.c ****             }
 620:Middlewares/lvgl/src/widgets/lv_btnmatrix.c ****         }
 621:Middlewares/lvgl/src/widgets/lv_btnmatrix.c **** 
 622:Middlewares/lvgl/src/widgets/lv_btnmatrix.c ****         invalidate_button_area(obj, btnm->btn_id_sel);
 623:Middlewares/lvgl/src/widgets/lv_btnmatrix.c ****     } else if(code == LV_EVENT_DRAW_MAIN) {
 624:Middlewares/lvgl/src/widgets/lv_btnmatrix.c ****         draw_main(e);
 625:Middlewares/lvgl/src/widgets/lv_btnmatrix.c ****     }
 626:Middlewares/lvgl/src/widgets/lv_btnmatrix.c **** 
 627:Middlewares/lvgl/src/widgets/lv_btnmatrix.c **** }
 628:Middlewares/lvgl/src/widgets/lv_btnmatrix.c **** 
 629:Middlewares/lvgl/src/widgets/lv_btnmatrix.c **** static void draw_main(lv_event_t * e)
 630:Middlewares/lvgl/src/widgets/lv_btnmatrix.c **** {
 631:Middlewares/lvgl/src/widgets/lv_btnmatrix.c ****     lv_obj_t * obj = lv_event_get_target(e);
 632:Middlewares/lvgl/src/widgets/lv_btnmatrix.c ****     lv_btnmatrix_t * btnm = (lv_btnmatrix_t *)obj;
 633:Middlewares/lvgl/src/widgets/lv_btnmatrix.c ****     if(btnm->btn_cnt == 0) return;
 634:Middlewares/lvgl/src/widgets/lv_btnmatrix.c **** 
 635:Middlewares/lvgl/src/widgets/lv_btnmatrix.c ****     const lv_area_t * clip_area = lv_event_get_param(e);
 636:Middlewares/lvgl/src/widgets/lv_btnmatrix.c ****     obj->skip_trans = 1;
 637:Middlewares/lvgl/src/widgets/lv_btnmatrix.c **** 
 638:Middlewares/lvgl/src/widgets/lv_btnmatrix.c ****     lv_area_t area_obj;
 639:Middlewares/lvgl/src/widgets/lv_btnmatrix.c ****     lv_obj_get_coords(obj, &area_obj);
 640:Middlewares/lvgl/src/widgets/lv_btnmatrix.c **** 
 641:Middlewares/lvgl/src/widgets/lv_btnmatrix.c ****     lv_area_t btn_area;
 642:Middlewares/lvgl/src/widgets/lv_btnmatrix.c **** 
 643:Middlewares/lvgl/src/widgets/lv_btnmatrix.c ****     uint16_t btn_i = 0;
 644:Middlewares/lvgl/src/widgets/lv_btnmatrix.c ****     uint16_t txt_i = 0;
 645:Middlewares/lvgl/src/widgets/lv_btnmatrix.c **** 
 646:Middlewares/lvgl/src/widgets/lv_btnmatrix.c ****     lv_draw_rect_dsc_t draw_rect_dsc_act;
 647:Middlewares/lvgl/src/widgets/lv_btnmatrix.c ****     lv_draw_label_dsc_t draw_label_dsc_act;
 648:Middlewares/lvgl/src/widgets/lv_btnmatrix.c **** 
 649:Middlewares/lvgl/src/widgets/lv_btnmatrix.c ****     lv_draw_rect_dsc_t draw_rect_dsc_def;
 650:Middlewares/lvgl/src/widgets/lv_btnmatrix.c ****     lv_draw_label_dsc_t draw_label_dsc_def;
 651:Middlewares/lvgl/src/widgets/lv_btnmatrix.c **** 
 652:Middlewares/lvgl/src/widgets/lv_btnmatrix.c **** 
 653:Middlewares/lvgl/src/widgets/lv_btnmatrix.c ****     lv_state_t state_ori = obj->state;
 654:Middlewares/lvgl/src/widgets/lv_btnmatrix.c ****     obj->state = LV_STATE_DEFAULT;
 655:Middlewares/lvgl/src/widgets/lv_btnmatrix.c ****     obj->skip_trans = 1;
 656:Middlewares/lvgl/src/widgets/lv_btnmatrix.c ****     lv_draw_rect_dsc_init(&draw_rect_dsc_def);
 657:Middlewares/lvgl/src/widgets/lv_btnmatrix.c ****     lv_draw_label_dsc_init(&draw_label_dsc_def);
 658:Middlewares/lvgl/src/widgets/lv_btnmatrix.c ****     lv_obj_init_draw_rect_dsc(obj, LV_PART_ITEMS, &draw_rect_dsc_def);
 659:Middlewares/lvgl/src/widgets/lv_btnmatrix.c ****     lv_obj_init_draw_label_dsc(obj, LV_PART_ITEMS, &draw_label_dsc_def);
ARM GAS  /tmp/ccnMQJLR.s 			page 13


 660:Middlewares/lvgl/src/widgets/lv_btnmatrix.c ****     obj->skip_trans = 0;
 661:Middlewares/lvgl/src/widgets/lv_btnmatrix.c ****     obj->state = state_ori;
 662:Middlewares/lvgl/src/widgets/lv_btnmatrix.c **** 
 663:Middlewares/lvgl/src/widgets/lv_btnmatrix.c ****     lv_coord_t ptop = lv_obj_get_style_pad_top(obj, LV_PART_MAIN);
 664:Middlewares/lvgl/src/widgets/lv_btnmatrix.c ****     lv_coord_t pbottom = lv_obj_get_style_pad_bottom(obj, LV_PART_MAIN);
 665:Middlewares/lvgl/src/widgets/lv_btnmatrix.c ****     lv_coord_t pleft = lv_obj_get_style_pad_left(obj, LV_PART_MAIN);
 666:Middlewares/lvgl/src/widgets/lv_btnmatrix.c ****     lv_coord_t pright = lv_obj_get_style_pad_right(obj, LV_PART_MAIN);
 667:Middlewares/lvgl/src/widgets/lv_btnmatrix.c **** 
 668:Middlewares/lvgl/src/widgets/lv_btnmatrix.c **** #if LV_USE_ARABIC_PERSIAN_CHARS
 669:Middlewares/lvgl/src/widgets/lv_btnmatrix.c ****     const size_t txt_ap_size = 256 ;
 670:Middlewares/lvgl/src/widgets/lv_btnmatrix.c ****     char * txt_ap = lv_mem_buf_get(txt_ap_size);
 671:Middlewares/lvgl/src/widgets/lv_btnmatrix.c **** #endif
 672:Middlewares/lvgl/src/widgets/lv_btnmatrix.c **** 
 673:Middlewares/lvgl/src/widgets/lv_btnmatrix.c ****     lv_obj_draw_part_dsc_t dsc;
 674:Middlewares/lvgl/src/widgets/lv_btnmatrix.c ****     lv_obj_draw_dsc_init(&dsc, clip_area);
 675:Middlewares/lvgl/src/widgets/lv_btnmatrix.c ****     dsc.part = LV_PART_ITEMS;
 676:Middlewares/lvgl/src/widgets/lv_btnmatrix.c ****     dsc.rect_dsc = &draw_rect_dsc_act;
 677:Middlewares/lvgl/src/widgets/lv_btnmatrix.c ****     dsc.label_dsc = &draw_label_dsc_act;
 678:Middlewares/lvgl/src/widgets/lv_btnmatrix.c **** 
 679:Middlewares/lvgl/src/widgets/lv_btnmatrix.c ****     for(btn_i = 0; btn_i < btnm->btn_cnt; btn_i++, txt_i++) {
 680:Middlewares/lvgl/src/widgets/lv_btnmatrix.c ****         /*Search the next valid text in the map*/
 681:Middlewares/lvgl/src/widgets/lv_btnmatrix.c ****         while(strcmp(btnm->map_p[txt_i], "\n") == 0) {
 682:Middlewares/lvgl/src/widgets/lv_btnmatrix.c ****             txt_i++;
 683:Middlewares/lvgl/src/widgets/lv_btnmatrix.c ****         }
 684:Middlewares/lvgl/src/widgets/lv_btnmatrix.c **** 
 685:Middlewares/lvgl/src/widgets/lv_btnmatrix.c ****         /*Skip hidden buttons*/
 686:Middlewares/lvgl/src/widgets/lv_btnmatrix.c ****         if(button_is_hidden(btnm->ctrl_bits[btn_i])) continue;
 687:Middlewares/lvgl/src/widgets/lv_btnmatrix.c **** 
 688:Middlewares/lvgl/src/widgets/lv_btnmatrix.c ****         /*Get the state of the button*/
 689:Middlewares/lvgl/src/widgets/lv_btnmatrix.c ****         lv_state_t btn_state = LV_STATE_DEFAULT;
 690:Middlewares/lvgl/src/widgets/lv_btnmatrix.c ****         if(button_get_checked(btnm->ctrl_bits[btn_i])) btn_state |= LV_STATE_CHECKED;
 691:Middlewares/lvgl/src/widgets/lv_btnmatrix.c ****         if(button_is_inactive(btnm->ctrl_bits[btn_i])) btn_state |= LV_STATE_DISABLED;
 692:Middlewares/lvgl/src/widgets/lv_btnmatrix.c ****         if(btn_i == btnm->btn_id_sel) {
 693:Middlewares/lvgl/src/widgets/lv_btnmatrix.c ****             if(state_ori & LV_STATE_PRESSED) btn_state |= LV_STATE_PRESSED;
 694:Middlewares/lvgl/src/widgets/lv_btnmatrix.c ****             if(state_ori & LV_STATE_FOCUSED) btn_state |= LV_STATE_FOCUSED;
 695:Middlewares/lvgl/src/widgets/lv_btnmatrix.c ****             if(state_ori & LV_STATE_FOCUS_KEY) btn_state |= LV_STATE_FOCUS_KEY;
 696:Middlewares/lvgl/src/widgets/lv_btnmatrix.c ****             if(state_ori & LV_STATE_EDITED) btn_state |= LV_STATE_EDITED;
 697:Middlewares/lvgl/src/widgets/lv_btnmatrix.c ****         }
 698:Middlewares/lvgl/src/widgets/lv_btnmatrix.c **** 
 699:Middlewares/lvgl/src/widgets/lv_btnmatrix.c ****         /*Get the button's area*/
 700:Middlewares/lvgl/src/widgets/lv_btnmatrix.c ****         lv_area_copy(&btn_area, &btnm->button_areas[btn_i]);
 701:Middlewares/lvgl/src/widgets/lv_btnmatrix.c ****         btn_area.x1 += area_obj.x1;
 702:Middlewares/lvgl/src/widgets/lv_btnmatrix.c ****         btn_area.y1 += area_obj.y1;
 703:Middlewares/lvgl/src/widgets/lv_btnmatrix.c ****         btn_area.x2 += area_obj.x1;
 704:Middlewares/lvgl/src/widgets/lv_btnmatrix.c ****         btn_area.y2 += area_obj.y1;
 705:Middlewares/lvgl/src/widgets/lv_btnmatrix.c **** 
 706:Middlewares/lvgl/src/widgets/lv_btnmatrix.c ****         /*Set up the draw descriptors*/
 707:Middlewares/lvgl/src/widgets/lv_btnmatrix.c ****         if(btn_state == LV_STATE_DEFAULT) {
 708:Middlewares/lvgl/src/widgets/lv_btnmatrix.c ****             lv_memcpy(&draw_rect_dsc_act, &draw_rect_dsc_def, sizeof(lv_draw_rect_dsc_t));
 709:Middlewares/lvgl/src/widgets/lv_btnmatrix.c ****             lv_memcpy(&draw_label_dsc_act, &draw_label_dsc_def, sizeof(lv_draw_label_dsc_t));
 710:Middlewares/lvgl/src/widgets/lv_btnmatrix.c ****         }
 711:Middlewares/lvgl/src/widgets/lv_btnmatrix.c ****         /*In other cases get the styles directly without caching them*/
 712:Middlewares/lvgl/src/widgets/lv_btnmatrix.c ****         else {
 713:Middlewares/lvgl/src/widgets/lv_btnmatrix.c ****             obj->state = btn_state;
 714:Middlewares/lvgl/src/widgets/lv_btnmatrix.c ****             obj->skip_trans = 1;
 715:Middlewares/lvgl/src/widgets/lv_btnmatrix.c ****             lv_draw_rect_dsc_init(&draw_rect_dsc_act);
 716:Middlewares/lvgl/src/widgets/lv_btnmatrix.c ****             lv_draw_label_dsc_init(&draw_label_dsc_act);
ARM GAS  /tmp/ccnMQJLR.s 			page 14


 717:Middlewares/lvgl/src/widgets/lv_btnmatrix.c ****             lv_obj_init_draw_rect_dsc(obj, LV_PART_ITEMS, &draw_rect_dsc_act);
 718:Middlewares/lvgl/src/widgets/lv_btnmatrix.c ****             lv_obj_init_draw_label_dsc(obj, LV_PART_ITEMS, &draw_label_dsc_act);
 719:Middlewares/lvgl/src/widgets/lv_btnmatrix.c ****             obj->state = state_ori;
 720:Middlewares/lvgl/src/widgets/lv_btnmatrix.c ****             obj->skip_trans = 0;
 721:Middlewares/lvgl/src/widgets/lv_btnmatrix.c ****         }
 722:Middlewares/lvgl/src/widgets/lv_btnmatrix.c **** 
 723:Middlewares/lvgl/src/widgets/lv_btnmatrix.c ****         bool recolor = button_is_recolor(btnm->ctrl_bits[btn_i]);
 724:Middlewares/lvgl/src/widgets/lv_btnmatrix.c ****         if(recolor) draw_label_dsc_act.flag |= LV_TEXT_FLAG_RECOLOR;
 725:Middlewares/lvgl/src/widgets/lv_btnmatrix.c ****         else draw_label_dsc_act.flag &= ~LV_TEXT_FLAG_RECOLOR;
 726:Middlewares/lvgl/src/widgets/lv_btnmatrix.c **** 
 727:Middlewares/lvgl/src/widgets/lv_btnmatrix.c **** 
 728:Middlewares/lvgl/src/widgets/lv_btnmatrix.c ****         dsc.draw_area = &btn_area;
 729:Middlewares/lvgl/src/widgets/lv_btnmatrix.c ****         dsc.id = btn_i;
 730:Middlewares/lvgl/src/widgets/lv_btnmatrix.c ****         lv_event_send(obj,LV_EVENT_DRAW_PART_BEGIN, &dsc);
 731:Middlewares/lvgl/src/widgets/lv_btnmatrix.c **** 
 732:Middlewares/lvgl/src/widgets/lv_btnmatrix.c ****         /*Remove borders on the edges if `LV_BORDER_SIDE_INTERNAL`*/
 733:Middlewares/lvgl/src/widgets/lv_btnmatrix.c ****         if(draw_rect_dsc_act.border_side & LV_BORDER_SIDE_INTERNAL) {
 734:Middlewares/lvgl/src/widgets/lv_btnmatrix.c ****             draw_rect_dsc_act.border_side = LV_BORDER_SIDE_FULL;
 735:Middlewares/lvgl/src/widgets/lv_btnmatrix.c ****             if(btn_area.x1 == obj->coords.x1 + pleft) draw_rect_dsc_act.border_side &= ~LV_BORDER_S
 736:Middlewares/lvgl/src/widgets/lv_btnmatrix.c ****             if(btn_area.x2 == obj->coords.x2 - pright) draw_rect_dsc_act.border_side &= ~LV_BORDER_
 737:Middlewares/lvgl/src/widgets/lv_btnmatrix.c ****             if(btn_area.y1 == obj->coords.y1 + ptop) draw_rect_dsc_act.border_side &= ~LV_BORDER_SI
 738:Middlewares/lvgl/src/widgets/lv_btnmatrix.c ****             if(btn_area.y2 == obj->coords.y2 - pbottom) draw_rect_dsc_act.border_side &= ~LV_BORDER
 739:Middlewares/lvgl/src/widgets/lv_btnmatrix.c ****         }
 740:Middlewares/lvgl/src/widgets/lv_btnmatrix.c **** 
 741:Middlewares/lvgl/src/widgets/lv_btnmatrix.c ****         /*Draw the background*/
 742:Middlewares/lvgl/src/widgets/lv_btnmatrix.c ****         lv_draw_rect(&btn_area, clip_area, &draw_rect_dsc_act);
 743:Middlewares/lvgl/src/widgets/lv_btnmatrix.c **** 
 744:Middlewares/lvgl/src/widgets/lv_btnmatrix.c ****         /*Calculate the size of the text*/
 745:Middlewares/lvgl/src/widgets/lv_btnmatrix.c ****         const lv_font_t * font = draw_label_dsc_act.font;
 746:Middlewares/lvgl/src/widgets/lv_btnmatrix.c ****         lv_coord_t letter_space = draw_label_dsc_act.letter_space;
 747:Middlewares/lvgl/src/widgets/lv_btnmatrix.c ****         lv_coord_t line_space = draw_label_dsc_act.line_space;
 748:Middlewares/lvgl/src/widgets/lv_btnmatrix.c ****         const char * txt = btnm->map_p[txt_i];
 749:Middlewares/lvgl/src/widgets/lv_btnmatrix.c **** 
 750:Middlewares/lvgl/src/widgets/lv_btnmatrix.c **** #if LV_USE_ARABIC_PERSIAN_CHARS
 751:Middlewares/lvgl/src/widgets/lv_btnmatrix.c ****         /*Get the size of the Arabic text and process it*/
 752:Middlewares/lvgl/src/widgets/lv_btnmatrix.c ****         size_t len_ap = _lv_txt_ap_calc_bytes_cnt(txt);
 753:Middlewares/lvgl/src/widgets/lv_btnmatrix.c ****         if(len_ap < txt_ap_size) {
 754:Middlewares/lvgl/src/widgets/lv_btnmatrix.c ****             _lv_txt_ap_proc(txt, txt_ap);
 755:Middlewares/lvgl/src/widgets/lv_btnmatrix.c ****             txt = txt_ap;
 756:Middlewares/lvgl/src/widgets/lv_btnmatrix.c ****         }
 757:Middlewares/lvgl/src/widgets/lv_btnmatrix.c **** #endif
 758:Middlewares/lvgl/src/widgets/lv_btnmatrix.c ****         lv_point_t txt_size;
 759:Middlewares/lvgl/src/widgets/lv_btnmatrix.c ****         lv_txt_get_size(&txt_size, txt, font, letter_space,
 760:Middlewares/lvgl/src/widgets/lv_btnmatrix.c ****                 line_space, lv_area_get_width(&area_obj), draw_label_dsc_act.flag);
 761:Middlewares/lvgl/src/widgets/lv_btnmatrix.c **** 
 762:Middlewares/lvgl/src/widgets/lv_btnmatrix.c ****         btn_area.x1 += (lv_area_get_width(&btn_area) - txt_size.x) / 2;
 763:Middlewares/lvgl/src/widgets/lv_btnmatrix.c ****         btn_area.y1 += (lv_area_get_height(&btn_area) - txt_size.y) / 2;
 764:Middlewares/lvgl/src/widgets/lv_btnmatrix.c ****         btn_area.x2 = btn_area.x1 + txt_size.x;
 765:Middlewares/lvgl/src/widgets/lv_btnmatrix.c ****         btn_area.y2 = btn_area.y1 + txt_size.y;
 766:Middlewares/lvgl/src/widgets/lv_btnmatrix.c **** 
 767:Middlewares/lvgl/src/widgets/lv_btnmatrix.c ****         /*Draw the text*/
 768:Middlewares/lvgl/src/widgets/lv_btnmatrix.c ****         lv_draw_label(&btn_area, clip_area, &draw_label_dsc_act, txt, NULL);
 769:Middlewares/lvgl/src/widgets/lv_btnmatrix.c **** 
 770:Middlewares/lvgl/src/widgets/lv_btnmatrix.c ****         lv_event_send(obj,LV_EVENT_DRAW_PART_END, &dsc);
 771:Middlewares/lvgl/src/widgets/lv_btnmatrix.c ****     }
 772:Middlewares/lvgl/src/widgets/lv_btnmatrix.c **** 
 773:Middlewares/lvgl/src/widgets/lv_btnmatrix.c ****     obj->skip_trans = 0;
ARM GAS  /tmp/ccnMQJLR.s 			page 15


 774:Middlewares/lvgl/src/widgets/lv_btnmatrix.c **** #if LV_USE_ARABIC_PERSIAN_CHARS
 775:Middlewares/lvgl/src/widgets/lv_btnmatrix.c ****     lv_mem_buf_release(txt_ap);
 776:Middlewares/lvgl/src/widgets/lv_btnmatrix.c **** #endif
 777:Middlewares/lvgl/src/widgets/lv_btnmatrix.c **** }
 778:Middlewares/lvgl/src/widgets/lv_btnmatrix.c **** /**
 779:Middlewares/lvgl/src/widgets/lv_btnmatrix.c ****  * Create the required number of buttons and control bytes according to a map
 780:Middlewares/lvgl/src/widgets/lv_btnmatrix.c ****  * @param obj pointer to button matrix object
 781:Middlewares/lvgl/src/widgets/lv_btnmatrix.c ****  * @param map_p pointer to a string array
 782:Middlewares/lvgl/src/widgets/lv_btnmatrix.c ****  */
 783:Middlewares/lvgl/src/widgets/lv_btnmatrix.c **** static void allocate_btn_areas_and_controls(const lv_obj_t * obj, const char ** map)
 784:Middlewares/lvgl/src/widgets/lv_btnmatrix.c **** {
 785:Middlewares/lvgl/src/widgets/lv_btnmatrix.c ****     /*Count the buttons in the map*/
 786:Middlewares/lvgl/src/widgets/lv_btnmatrix.c ****     uint16_t btn_cnt = 0;
 787:Middlewares/lvgl/src/widgets/lv_btnmatrix.c ****     uint16_t i       = 0;
 788:Middlewares/lvgl/src/widgets/lv_btnmatrix.c ****     while(map[i] && map[i][0] != '\0') {
 789:Middlewares/lvgl/src/widgets/lv_btnmatrix.c ****         if(strcmp(map[i], "\n") != 0) { /*Do not count line breaks*/
 790:Middlewares/lvgl/src/widgets/lv_btnmatrix.c ****             btn_cnt++;
 791:Middlewares/lvgl/src/widgets/lv_btnmatrix.c ****         }
 792:Middlewares/lvgl/src/widgets/lv_btnmatrix.c ****         i++;
 793:Middlewares/lvgl/src/widgets/lv_btnmatrix.c ****     }
 794:Middlewares/lvgl/src/widgets/lv_btnmatrix.c **** 
 795:Middlewares/lvgl/src/widgets/lv_btnmatrix.c ****     lv_btnmatrix_t * btnm = (lv_btnmatrix_t *)obj;;
 796:Middlewares/lvgl/src/widgets/lv_btnmatrix.c **** 
 797:Middlewares/lvgl/src/widgets/lv_btnmatrix.c ****     /*Do not allocate memory for the same amount of buttons*/
 798:Middlewares/lvgl/src/widgets/lv_btnmatrix.c ****     if(btn_cnt == btnm->btn_cnt) return;
 799:Middlewares/lvgl/src/widgets/lv_btnmatrix.c **** 
 800:Middlewares/lvgl/src/widgets/lv_btnmatrix.c ****     if(btnm->button_areas != NULL) {
 801:Middlewares/lvgl/src/widgets/lv_btnmatrix.c ****         lv_mem_free(btnm->button_areas);
 802:Middlewares/lvgl/src/widgets/lv_btnmatrix.c ****         btnm->button_areas = NULL;
 803:Middlewares/lvgl/src/widgets/lv_btnmatrix.c ****     }
 804:Middlewares/lvgl/src/widgets/lv_btnmatrix.c ****     if(btnm->ctrl_bits != NULL) {
 805:Middlewares/lvgl/src/widgets/lv_btnmatrix.c ****         lv_mem_free(btnm->ctrl_bits);
 806:Middlewares/lvgl/src/widgets/lv_btnmatrix.c ****         btnm->ctrl_bits = NULL;
 807:Middlewares/lvgl/src/widgets/lv_btnmatrix.c ****     }
 808:Middlewares/lvgl/src/widgets/lv_btnmatrix.c **** 
 809:Middlewares/lvgl/src/widgets/lv_btnmatrix.c ****     btnm->button_areas = lv_mem_alloc(sizeof(lv_area_t) * btn_cnt);
 810:Middlewares/lvgl/src/widgets/lv_btnmatrix.c ****     LV_ASSERT_MALLOC(btnm->button_areas);
 811:Middlewares/lvgl/src/widgets/lv_btnmatrix.c ****     btnm->ctrl_bits = lv_mem_alloc(sizeof(lv_btnmatrix_ctrl_t) * btn_cnt);
 812:Middlewares/lvgl/src/widgets/lv_btnmatrix.c ****     LV_ASSERT_MALLOC(btnm->ctrl_bits);
 813:Middlewares/lvgl/src/widgets/lv_btnmatrix.c ****     if(btnm->button_areas == NULL || btnm->ctrl_bits == NULL) btn_cnt = 0;
 814:Middlewares/lvgl/src/widgets/lv_btnmatrix.c **** 
 815:Middlewares/lvgl/src/widgets/lv_btnmatrix.c ****     lv_memset_00(btnm->ctrl_bits, sizeof(lv_btnmatrix_ctrl_t) * btn_cnt);
 816:Middlewares/lvgl/src/widgets/lv_btnmatrix.c **** 
 817:Middlewares/lvgl/src/widgets/lv_btnmatrix.c ****     btnm->btn_cnt = btn_cnt;
 818:Middlewares/lvgl/src/widgets/lv_btnmatrix.c **** }
 819:Middlewares/lvgl/src/widgets/lv_btnmatrix.c **** 
 820:Middlewares/lvgl/src/widgets/lv_btnmatrix.c **** /**
 821:Middlewares/lvgl/src/widgets/lv_btnmatrix.c ****  * Get the width of a button in units (default is 1).
 822:Middlewares/lvgl/src/widgets/lv_btnmatrix.c ****  * @param ctrl_bits least significant 3 bits used (1..7 valid values)
 823:Middlewares/lvgl/src/widgets/lv_btnmatrix.c ****  * @return the width of the button in units
 824:Middlewares/lvgl/src/widgets/lv_btnmatrix.c ****  */
 825:Middlewares/lvgl/src/widgets/lv_btnmatrix.c **** static uint8_t get_button_width(lv_btnmatrix_ctrl_t ctrl_bits)
 826:Middlewares/lvgl/src/widgets/lv_btnmatrix.c **** {
  27              		.loc 1 826 1 view -0
  28              		.cfi_startproc
  29              		@ args = 0, pretend = 0, frame = 0
  30              		@ frame_needed = 0, uses_anonymous_args = 0
ARM GAS  /tmp/ccnMQJLR.s 			page 16


  31              		@ link register save eliminated.
 827:Middlewares/lvgl/src/widgets/lv_btnmatrix.c ****     uint8_t w = ctrl_bits & LV_BTNMATRIX_WIDTH_MASK;
  32              		.loc 1 827 5 view .LVU1
 828:Middlewares/lvgl/src/widgets/lv_btnmatrix.c ****     return w != 0 ? w : 1;
  33              		.loc 1 828 5 view .LVU2
  34              		.loc 1 828 23 is_stmt 0 view .LVU3
  35 0000 10F00700 		ands	r0, r0, #7
  36              	.LVL1:
  37              		.loc 1 828 23 view .LVU4
  38 0004 00D1     		bne	.L2
  39 0006 0120     		movs	r0, #1
  40              	.L2:
 829:Middlewares/lvgl/src/widgets/lv_btnmatrix.c **** }
  41              		.loc 1 829 1 discriminator 4 view .LVU5
  42 0008 7047     		bx	lr
  43              		.cfi_endproc
  44              	.LFE167:
  46              		.section	.text.button_is_hidden,"ax",%progbits
  47              		.align	1
  48              		.syntax unified
  49              		.thumb
  50              		.thumb_func
  51              		.fpu softvfp
  53              	button_is_hidden:
  54              	.LVL2:
  55              	.LFB168:
 830:Middlewares/lvgl/src/widgets/lv_btnmatrix.c **** 
 831:Middlewares/lvgl/src/widgets/lv_btnmatrix.c **** static bool button_is_hidden(lv_btnmatrix_ctrl_t ctrl_bits)
 832:Middlewares/lvgl/src/widgets/lv_btnmatrix.c **** {
  56              		.loc 1 832 1 is_stmt 1 view -0
  57              		.cfi_startproc
  58              		@ args = 0, pretend = 0, frame = 0
  59              		@ frame_needed = 0, uses_anonymous_args = 0
  60              		@ link register save eliminated.
 833:Middlewares/lvgl/src/widgets/lv_btnmatrix.c ****     return (ctrl_bits & LV_BTNMATRIX_CTRL_HIDDEN) ? true : false;
  61              		.loc 1 833 5 view .LVU7
 834:Middlewares/lvgl/src/widgets/lv_btnmatrix.c **** }
  62              		.loc 1 834 1 is_stmt 0 view .LVU8
  63 0000 C0F3C000 		ubfx	r0, r0, #3, #1
  64              	.LVL3:
  65              		.loc 1 834 1 view .LVU9
  66 0004 7047     		bx	lr
  67              		.cfi_endproc
  68              	.LFE168:
  70              		.section	.text.button_is_checked,"ax",%progbits
  71              		.align	1
  72              		.syntax unified
  73              		.thumb
  74              		.thumb_func
  75              		.fpu softvfp
  77              	button_is_checked:
  78              	.LVL4:
  79              	.LFB169:
 835:Middlewares/lvgl/src/widgets/lv_btnmatrix.c **** 
 836:Middlewares/lvgl/src/widgets/lv_btnmatrix.c **** static bool button_is_checked(lv_btnmatrix_ctrl_t ctrl_bits)
 837:Middlewares/lvgl/src/widgets/lv_btnmatrix.c **** {
  80              		.loc 1 837 1 is_stmt 1 view -0
ARM GAS  /tmp/ccnMQJLR.s 			page 17


  81              		.cfi_startproc
  82              		@ args = 0, pretend = 0, frame = 0
  83              		@ frame_needed = 0, uses_anonymous_args = 0
  84              		@ link register save eliminated.
 838:Middlewares/lvgl/src/widgets/lv_btnmatrix.c ****     return (ctrl_bits & LV_BTNMATRIX_CTRL_CHECKED) ? true : false;
  85              		.loc 1 838 5 view .LVU11
 839:Middlewares/lvgl/src/widgets/lv_btnmatrix.c **** }
  86              		.loc 1 839 1 is_stmt 0 view .LVU12
  87 0000 C0F3C010 		ubfx	r0, r0, #7, #1
  88              	.LVL5:
  89              		.loc 1 839 1 view .LVU13
  90 0004 7047     		bx	lr
  91              		.cfi_endproc
  92              	.LFE169:
  94              		.section	.text.button_is_repeat_disabled,"ax",%progbits
  95              		.align	1
  96              		.syntax unified
  97              		.thumb
  98              		.thumb_func
  99              		.fpu softvfp
 101              	button_is_repeat_disabled:
 102              	.LVL6:
 103              	.LFB170:
 840:Middlewares/lvgl/src/widgets/lv_btnmatrix.c **** 
 841:Middlewares/lvgl/src/widgets/lv_btnmatrix.c **** static bool button_is_repeat_disabled(lv_btnmatrix_ctrl_t ctrl_bits)
 842:Middlewares/lvgl/src/widgets/lv_btnmatrix.c **** {
 104              		.loc 1 842 1 is_stmt 1 view -0
 105              		.cfi_startproc
 106              		@ args = 0, pretend = 0, frame = 0
 107              		@ frame_needed = 0, uses_anonymous_args = 0
 108              		@ link register save eliminated.
 843:Middlewares/lvgl/src/widgets/lv_btnmatrix.c ****     return (ctrl_bits & LV_BTNMATRIX_CTRL_NO_REPEAT) ? true : false;
 109              		.loc 1 843 5 view .LVU15
 844:Middlewares/lvgl/src/widgets/lv_btnmatrix.c **** }
 110              		.loc 1 844 1 is_stmt 0 view .LVU16
 111 0000 C0F30010 		ubfx	r0, r0, #4, #1
 112              	.LVL7:
 113              		.loc 1 844 1 view .LVU17
 114 0004 7047     		bx	lr
 115              		.cfi_endproc
 116              	.LFE170:
 118              		.section	.text.button_is_inactive,"ax",%progbits
 119              		.align	1
 120              		.syntax unified
 121              		.thumb
 122              		.thumb_func
 123              		.fpu softvfp
 125              	button_is_inactive:
 126              	.LVL8:
 127              	.LFB171:
 845:Middlewares/lvgl/src/widgets/lv_btnmatrix.c **** 
 846:Middlewares/lvgl/src/widgets/lv_btnmatrix.c **** static bool button_is_inactive(lv_btnmatrix_ctrl_t ctrl_bits)
 847:Middlewares/lvgl/src/widgets/lv_btnmatrix.c **** {
 128              		.loc 1 847 1 is_stmt 1 view -0
 129              		.cfi_startproc
 130              		@ args = 0, pretend = 0, frame = 0
 131              		@ frame_needed = 0, uses_anonymous_args = 0
ARM GAS  /tmp/ccnMQJLR.s 			page 18


 132              		@ link register save eliminated.
 848:Middlewares/lvgl/src/widgets/lv_btnmatrix.c ****     return (ctrl_bits & LV_BTNMATRIX_CTRL_DISABLED) ? true : false;
 133              		.loc 1 848 5 view .LVU19
 849:Middlewares/lvgl/src/widgets/lv_btnmatrix.c **** }
 134              		.loc 1 849 1 is_stmt 0 view .LVU20
 135 0000 C0F34010 		ubfx	r0, r0, #5, #1
 136              	.LVL9:
 137              		.loc 1 849 1 view .LVU21
 138 0004 7047     		bx	lr
 139              		.cfi_endproc
 140              	.LFE171:
 142              		.section	.text.button_is_click_trig,"ax",%progbits
 143              		.align	1
 144              		.syntax unified
 145              		.thumb
 146              		.thumb_func
 147              		.fpu softvfp
 149              	button_is_click_trig:
 150              	.LVL10:
 151              	.LFB172:
 850:Middlewares/lvgl/src/widgets/lv_btnmatrix.c **** 
 851:Middlewares/lvgl/src/widgets/lv_btnmatrix.c **** static bool button_is_click_trig(lv_btnmatrix_ctrl_t ctrl_bits)
 852:Middlewares/lvgl/src/widgets/lv_btnmatrix.c **** {
 152              		.loc 1 852 1 is_stmt 1 view -0
 153              		.cfi_startproc
 154              		@ args = 0, pretend = 0, frame = 0
 155              		@ frame_needed = 0, uses_anonymous_args = 0
 156              		@ link register save eliminated.
 853:Middlewares/lvgl/src/widgets/lv_btnmatrix.c ****     return (ctrl_bits & LV_BTNMATRIX_CTRL_CLICK_TRIG) ? true : false;
 157              		.loc 1 853 5 view .LVU23
 854:Middlewares/lvgl/src/widgets/lv_btnmatrix.c **** }
 158              		.loc 1 854 1 is_stmt 0 view .LVU24
 159 0000 C0F30020 		ubfx	r0, r0, #8, #1
 160              	.LVL11:
 161              		.loc 1 854 1 view .LVU25
 162 0004 7047     		bx	lr
 163              		.cfi_endproc
 164              	.LFE172:
 166              		.section	.text.button_is_checkable,"ax",%progbits
 167              		.align	1
 168              		.syntax unified
 169              		.thumb
 170              		.thumb_func
 171              		.fpu softvfp
 173              	button_is_checkable:
 174              	.LVL12:
 175              	.LFB173:
 855:Middlewares/lvgl/src/widgets/lv_btnmatrix.c **** 
 856:Middlewares/lvgl/src/widgets/lv_btnmatrix.c **** static bool button_is_checkable(lv_btnmatrix_ctrl_t ctrl_bits)
 857:Middlewares/lvgl/src/widgets/lv_btnmatrix.c **** {
 176              		.loc 1 857 1 is_stmt 1 view -0
 177              		.cfi_startproc
 178              		@ args = 0, pretend = 0, frame = 0
 179              		@ frame_needed = 0, uses_anonymous_args = 0
 180              		@ link register save eliminated.
 858:Middlewares/lvgl/src/widgets/lv_btnmatrix.c ****     return (ctrl_bits & LV_BTNMATRIX_CTRL_CHECKABLE) ? true : false;
 181              		.loc 1 858 5 view .LVU27
ARM GAS  /tmp/ccnMQJLR.s 			page 19


 859:Middlewares/lvgl/src/widgets/lv_btnmatrix.c **** }
 182              		.loc 1 859 1 is_stmt 0 view .LVU28
 183 0000 C0F38010 		ubfx	r0, r0, #6, #1
 184              	.LVL13:
 185              		.loc 1 859 1 view .LVU29
 186 0004 7047     		bx	lr
 187              		.cfi_endproc
 188              	.LFE173:
 190              		.section	.text.button_get_checked,"ax",%progbits
 191              		.align	1
 192              		.syntax unified
 193              		.thumb
 194              		.thumb_func
 195              		.fpu softvfp
 197              	button_get_checked:
 198              	.LVL14:
 199              	.LFB174:
 860:Middlewares/lvgl/src/widgets/lv_btnmatrix.c **** 
 861:Middlewares/lvgl/src/widgets/lv_btnmatrix.c **** static bool button_get_checked(lv_btnmatrix_ctrl_t ctrl_bits)
 862:Middlewares/lvgl/src/widgets/lv_btnmatrix.c **** {
 200              		.loc 1 862 1 is_stmt 1 view -0
 201              		.cfi_startproc
 202              		@ args = 0, pretend = 0, frame = 0
 203              		@ frame_needed = 0, uses_anonymous_args = 0
 204              		@ link register save eliminated.
 863:Middlewares/lvgl/src/widgets/lv_btnmatrix.c ****     return (ctrl_bits & LV_BTNMATRIX_CTRL_CHECKED) ? true : false;
 205              		.loc 1 863 5 view .LVU31
 864:Middlewares/lvgl/src/widgets/lv_btnmatrix.c **** }
 206              		.loc 1 864 1 is_stmt 0 view .LVU32
 207 0000 C0F3C010 		ubfx	r0, r0, #7, #1
 208              	.LVL15:
 209              		.loc 1 864 1 view .LVU33
 210 0004 7047     		bx	lr
 211              		.cfi_endproc
 212              	.LFE174:
 214              		.section	.text.button_is_recolor,"ax",%progbits
 215              		.align	1
 216              		.syntax unified
 217              		.thumb
 218              		.thumb_func
 219              		.fpu softvfp
 221              	button_is_recolor:
 222              	.LVL16:
 223              	.LFB175:
 865:Middlewares/lvgl/src/widgets/lv_btnmatrix.c **** 
 866:Middlewares/lvgl/src/widgets/lv_btnmatrix.c **** static bool button_is_recolor(lv_btnmatrix_ctrl_t ctrl_bits)
 867:Middlewares/lvgl/src/widgets/lv_btnmatrix.c **** {
 224              		.loc 1 867 1 is_stmt 1 view -0
 225              		.cfi_startproc
 226              		@ args = 0, pretend = 0, frame = 0
 227              		@ frame_needed = 0, uses_anonymous_args = 0
 228              		@ link register save eliminated.
 868:Middlewares/lvgl/src/widgets/lv_btnmatrix.c ****     return (ctrl_bits & LV_BTNMATRIX_CTRL_RECOLOR) ? true : false;
 229              		.loc 1 868 5 view .LVU35
 869:Middlewares/lvgl/src/widgets/lv_btnmatrix.c **** }
 230              		.loc 1 869 1 is_stmt 0 view .LVU36
 231 0000 C0F30030 		ubfx	r0, r0, #12, #1
ARM GAS  /tmp/ccnMQJLR.s 			page 20


 232              	.LVL17:
 233              		.loc 1 869 1 view .LVU37
 234 0004 7047     		bx	lr
 235              		.cfi_endproc
 236              	.LFE175:
 238              		.section	.text.get_button_from_point,"ax",%progbits
 239              		.align	1
 240              		.syntax unified
 241              		.thumb
 242              		.thumb_func
 243              		.fpu softvfp
 245              	get_button_from_point:
 246              	.LVL18:
 247              	.LFB176:
 870:Middlewares/lvgl/src/widgets/lv_btnmatrix.c **** /**
 871:Middlewares/lvgl/src/widgets/lv_btnmatrix.c ****  * Gives the button id of a button under a given point
 872:Middlewares/lvgl/src/widgets/lv_btnmatrix.c ****  * @param obj pointer to a button matrix object
 873:Middlewares/lvgl/src/widgets/lv_btnmatrix.c ****  * @param p a point with absolute coordinates
 874:Middlewares/lvgl/src/widgets/lv_btnmatrix.c ****  * @return the id of the button or LV_BTNMATRIX_BTN_NONE.
 875:Middlewares/lvgl/src/widgets/lv_btnmatrix.c ****  */
 876:Middlewares/lvgl/src/widgets/lv_btnmatrix.c **** static uint16_t get_button_from_point(lv_obj_t * obj, lv_point_t * p)
 877:Middlewares/lvgl/src/widgets/lv_btnmatrix.c **** {
 248              		.loc 1 877 1 is_stmt 1 view -0
 249              		.cfi_startproc
 250              		@ args = 0, pretend = 0, frame = 32
 251              		@ frame_needed = 0, uses_anonymous_args = 0
 252              		.loc 1 877 1 is_stmt 0 view .LVU39
 253 0000 2DE9F04F 		push	{r4, r5, r6, r7, r8, r9, r10, fp, lr}
 254              	.LCFI0:
 255              		.cfi_def_cfa_offset 36
 256              		.cfi_offset 4, -36
 257              		.cfi_offset 5, -32
 258              		.cfi_offset 6, -28
 259              		.cfi_offset 7, -24
 260              		.cfi_offset 8, -20
 261              		.cfi_offset 9, -16
 262              		.cfi_offset 10, -12
 263              		.cfi_offset 11, -8
 264              		.cfi_offset 14, -4
 265 0004 89B0     		sub	sp, sp, #36
 266              	.LCFI1:
 267              		.cfi_def_cfa_offset 72
 268 0006 0546     		mov	r5, r0
 269 0008 0391     		str	r1, [sp, #12]
 878:Middlewares/lvgl/src/widgets/lv_btnmatrix.c ****     lv_area_t obj_cords;
 270              		.loc 1 878 5 is_stmt 1 view .LVU40
 879:Middlewares/lvgl/src/widgets/lv_btnmatrix.c ****     lv_area_t btn_area;
 271              		.loc 1 879 5 view .LVU41
 880:Middlewares/lvgl/src/widgets/lv_btnmatrix.c ****     lv_btnmatrix_t * btnm = (lv_btnmatrix_t *)obj;;
 272              		.loc 1 880 5 view .LVU42
 273              	.LVL19:
 274              		.loc 1 880 51 view .LVU43
 881:Middlewares/lvgl/src/widgets/lv_btnmatrix.c ****     uint16_t i;
 275              		.loc 1 881 5 view .LVU44
 882:Middlewares/lvgl/src/widgets/lv_btnmatrix.c ****     lv_obj_get_coords(obj, &obj_cords);
 276              		.loc 1 882 5 view .LVU45
 277 000a 06A9     		add	r1, sp, #24
ARM GAS  /tmp/ccnMQJLR.s 			page 21


 278              	.LVL20:
 279              		.loc 1 882 5 is_stmt 0 view .LVU46
 280 000c FFF7FEFF 		bl	lv_obj_get_coords
 281              	.LVL21:
 883:Middlewares/lvgl/src/widgets/lv_btnmatrix.c **** 
 884:Middlewares/lvgl/src/widgets/lv_btnmatrix.c ****     lv_coord_t w = lv_obj_get_width(obj);
 282              		.loc 1 884 5 is_stmt 1 view .LVU47
 283              		.loc 1 884 20 is_stmt 0 view .LVU48
 284 0010 2846     		mov	r0, r5
 285 0012 FFF7FEFF 		bl	lv_obj_get_width
 286              	.LVL22:
 287 0016 0190     		str	r0, [sp, #4]
 288              	.LVL23:
 885:Middlewares/lvgl/src/widgets/lv_btnmatrix.c ****     lv_coord_t h = lv_obj_get_height(obj);
 289              		.loc 1 885 5 is_stmt 1 view .LVU49
 290              		.loc 1 885 20 is_stmt 0 view .LVU50
 291 0018 2846     		mov	r0, r5
 292 001a FFF7FEFF 		bl	lv_obj_get_height
 293              	.LVL24:
 294 001e 0290     		str	r0, [sp, #8]
 295              	.LVL25:
 886:Middlewares/lvgl/src/widgets/lv_btnmatrix.c ****     lv_coord_t pleft = lv_obj_get_style_pad_left(obj, LV_PART_MAIN);
 296              		.loc 1 886 5 is_stmt 1 view .LVU51
 297              	.LBB75:
 298              	.LBI75:
 299              		.file 2 "Middlewares/lvgl/src/widgets/../core/lv_obj_style_gen.h"
   1:Middlewares/lvgl/src/widgets/../core/lv_obj_style_gen.h **** static inline lv_coord_t lv_obj_get_style_width(const struct _lv_obj_t * obj, uint32_t part)
   2:Middlewares/lvgl/src/widgets/../core/lv_obj_style_gen.h **** {
   3:Middlewares/lvgl/src/widgets/../core/lv_obj_style_gen.h ****     lv_style_value_t v = lv_obj_get_style_prop(obj, part, LV_STYLE_WIDTH);
   4:Middlewares/lvgl/src/widgets/../core/lv_obj_style_gen.h ****     return (lv_coord_t)v.num;
   5:Middlewares/lvgl/src/widgets/../core/lv_obj_style_gen.h **** }
   6:Middlewares/lvgl/src/widgets/../core/lv_obj_style_gen.h **** 
   7:Middlewares/lvgl/src/widgets/../core/lv_obj_style_gen.h **** static inline lv_coord_t lv_obj_get_style_min_width(const struct _lv_obj_t * obj, uint32_t part)
   8:Middlewares/lvgl/src/widgets/../core/lv_obj_style_gen.h **** {
   9:Middlewares/lvgl/src/widgets/../core/lv_obj_style_gen.h ****     lv_style_value_t v = lv_obj_get_style_prop(obj, part, LV_STYLE_MIN_WIDTH);
  10:Middlewares/lvgl/src/widgets/../core/lv_obj_style_gen.h ****     return (lv_coord_t)v.num;
  11:Middlewares/lvgl/src/widgets/../core/lv_obj_style_gen.h **** }
  12:Middlewares/lvgl/src/widgets/../core/lv_obj_style_gen.h **** 
  13:Middlewares/lvgl/src/widgets/../core/lv_obj_style_gen.h **** static inline lv_coord_t lv_obj_get_style_max_width(const struct _lv_obj_t * obj, uint32_t part)
  14:Middlewares/lvgl/src/widgets/../core/lv_obj_style_gen.h **** {
  15:Middlewares/lvgl/src/widgets/../core/lv_obj_style_gen.h ****     lv_style_value_t v = lv_obj_get_style_prop(obj, part, LV_STYLE_MAX_WIDTH);
  16:Middlewares/lvgl/src/widgets/../core/lv_obj_style_gen.h ****     return (lv_coord_t)v.num;
  17:Middlewares/lvgl/src/widgets/../core/lv_obj_style_gen.h **** }
  18:Middlewares/lvgl/src/widgets/../core/lv_obj_style_gen.h **** 
  19:Middlewares/lvgl/src/widgets/../core/lv_obj_style_gen.h **** static inline lv_coord_t lv_obj_get_style_height(const struct _lv_obj_t * obj, uint32_t part)
  20:Middlewares/lvgl/src/widgets/../core/lv_obj_style_gen.h **** {
  21:Middlewares/lvgl/src/widgets/../core/lv_obj_style_gen.h ****     lv_style_value_t v = lv_obj_get_style_prop(obj, part, LV_STYLE_HEIGHT);
  22:Middlewares/lvgl/src/widgets/../core/lv_obj_style_gen.h ****     return (lv_coord_t)v.num;
  23:Middlewares/lvgl/src/widgets/../core/lv_obj_style_gen.h **** }
  24:Middlewares/lvgl/src/widgets/../core/lv_obj_style_gen.h **** 
  25:Middlewares/lvgl/src/widgets/../core/lv_obj_style_gen.h **** static inline lv_coord_t lv_obj_get_style_min_height(const struct _lv_obj_t * obj, uint32_t part)
  26:Middlewares/lvgl/src/widgets/../core/lv_obj_style_gen.h **** {
  27:Middlewares/lvgl/src/widgets/../core/lv_obj_style_gen.h ****     lv_style_value_t v = lv_obj_get_style_prop(obj, part, LV_STYLE_MIN_HEIGHT);
  28:Middlewares/lvgl/src/widgets/../core/lv_obj_style_gen.h ****     return (lv_coord_t)v.num;
  29:Middlewares/lvgl/src/widgets/../core/lv_obj_style_gen.h **** }
  30:Middlewares/lvgl/src/widgets/../core/lv_obj_style_gen.h **** 
  31:Middlewares/lvgl/src/widgets/../core/lv_obj_style_gen.h **** static inline lv_coord_t lv_obj_get_style_max_height(const struct _lv_obj_t * obj, uint32_t part)
ARM GAS  /tmp/ccnMQJLR.s 			page 22


  32:Middlewares/lvgl/src/widgets/../core/lv_obj_style_gen.h **** {
  33:Middlewares/lvgl/src/widgets/../core/lv_obj_style_gen.h ****     lv_style_value_t v = lv_obj_get_style_prop(obj, part, LV_STYLE_MAX_HEIGHT);
  34:Middlewares/lvgl/src/widgets/../core/lv_obj_style_gen.h ****     return (lv_coord_t)v.num;
  35:Middlewares/lvgl/src/widgets/../core/lv_obj_style_gen.h **** }
  36:Middlewares/lvgl/src/widgets/../core/lv_obj_style_gen.h **** 
  37:Middlewares/lvgl/src/widgets/../core/lv_obj_style_gen.h **** static inline lv_coord_t lv_obj_get_style_x(const struct _lv_obj_t * obj, uint32_t part)
  38:Middlewares/lvgl/src/widgets/../core/lv_obj_style_gen.h **** {
  39:Middlewares/lvgl/src/widgets/../core/lv_obj_style_gen.h ****     lv_style_value_t v = lv_obj_get_style_prop(obj, part, LV_STYLE_X);
  40:Middlewares/lvgl/src/widgets/../core/lv_obj_style_gen.h ****     return (lv_coord_t)v.num;
  41:Middlewares/lvgl/src/widgets/../core/lv_obj_style_gen.h **** }
  42:Middlewares/lvgl/src/widgets/../core/lv_obj_style_gen.h **** 
  43:Middlewares/lvgl/src/widgets/../core/lv_obj_style_gen.h **** static inline lv_coord_t lv_obj_get_style_y(const struct _lv_obj_t * obj, uint32_t part)
  44:Middlewares/lvgl/src/widgets/../core/lv_obj_style_gen.h **** {
  45:Middlewares/lvgl/src/widgets/../core/lv_obj_style_gen.h ****     lv_style_value_t v = lv_obj_get_style_prop(obj, part, LV_STYLE_Y);
  46:Middlewares/lvgl/src/widgets/../core/lv_obj_style_gen.h ****     return (lv_coord_t)v.num;
  47:Middlewares/lvgl/src/widgets/../core/lv_obj_style_gen.h **** }
  48:Middlewares/lvgl/src/widgets/../core/lv_obj_style_gen.h **** 
  49:Middlewares/lvgl/src/widgets/../core/lv_obj_style_gen.h **** static inline lv_align_t lv_obj_get_style_align(const struct _lv_obj_t * obj, uint32_t part)
  50:Middlewares/lvgl/src/widgets/../core/lv_obj_style_gen.h **** {
  51:Middlewares/lvgl/src/widgets/../core/lv_obj_style_gen.h ****     lv_style_value_t v = lv_obj_get_style_prop(obj, part, LV_STYLE_ALIGN);
  52:Middlewares/lvgl/src/widgets/../core/lv_obj_style_gen.h ****     return (lv_align_t)v.num;
  53:Middlewares/lvgl/src/widgets/../core/lv_obj_style_gen.h **** }
  54:Middlewares/lvgl/src/widgets/../core/lv_obj_style_gen.h **** 
  55:Middlewares/lvgl/src/widgets/../core/lv_obj_style_gen.h **** static inline lv_coord_t lv_obj_get_style_transform_width(const struct _lv_obj_t * obj, uint32_t pa
  56:Middlewares/lvgl/src/widgets/../core/lv_obj_style_gen.h **** {
  57:Middlewares/lvgl/src/widgets/../core/lv_obj_style_gen.h ****     lv_style_value_t v = lv_obj_get_style_prop(obj, part, LV_STYLE_TRANSFORM_WIDTH);
  58:Middlewares/lvgl/src/widgets/../core/lv_obj_style_gen.h ****     return (lv_coord_t)v.num;
  59:Middlewares/lvgl/src/widgets/../core/lv_obj_style_gen.h **** }
  60:Middlewares/lvgl/src/widgets/../core/lv_obj_style_gen.h **** 
  61:Middlewares/lvgl/src/widgets/../core/lv_obj_style_gen.h **** static inline lv_coord_t lv_obj_get_style_transform_height(const struct _lv_obj_t * obj, uint32_t p
  62:Middlewares/lvgl/src/widgets/../core/lv_obj_style_gen.h **** {
  63:Middlewares/lvgl/src/widgets/../core/lv_obj_style_gen.h ****     lv_style_value_t v = lv_obj_get_style_prop(obj, part, LV_STYLE_TRANSFORM_HEIGHT);
  64:Middlewares/lvgl/src/widgets/../core/lv_obj_style_gen.h ****     return (lv_coord_t)v.num;
  65:Middlewares/lvgl/src/widgets/../core/lv_obj_style_gen.h **** }
  66:Middlewares/lvgl/src/widgets/../core/lv_obj_style_gen.h **** 
  67:Middlewares/lvgl/src/widgets/../core/lv_obj_style_gen.h **** static inline lv_coord_t lv_obj_get_style_translate_x(const struct _lv_obj_t * obj, uint32_t part)
  68:Middlewares/lvgl/src/widgets/../core/lv_obj_style_gen.h **** {
  69:Middlewares/lvgl/src/widgets/../core/lv_obj_style_gen.h ****     lv_style_value_t v = lv_obj_get_style_prop(obj, part, LV_STYLE_TRANSLATE_X);
  70:Middlewares/lvgl/src/widgets/../core/lv_obj_style_gen.h ****     return (lv_coord_t)v.num;
  71:Middlewares/lvgl/src/widgets/../core/lv_obj_style_gen.h **** }
  72:Middlewares/lvgl/src/widgets/../core/lv_obj_style_gen.h **** 
  73:Middlewares/lvgl/src/widgets/../core/lv_obj_style_gen.h **** static inline lv_coord_t lv_obj_get_style_translate_y(const struct _lv_obj_t * obj, uint32_t part)
  74:Middlewares/lvgl/src/widgets/../core/lv_obj_style_gen.h **** {
  75:Middlewares/lvgl/src/widgets/../core/lv_obj_style_gen.h ****     lv_style_value_t v = lv_obj_get_style_prop(obj, part, LV_STYLE_TRANSLATE_Y);
  76:Middlewares/lvgl/src/widgets/../core/lv_obj_style_gen.h ****     return (lv_coord_t)v.num;
  77:Middlewares/lvgl/src/widgets/../core/lv_obj_style_gen.h **** }
  78:Middlewares/lvgl/src/widgets/../core/lv_obj_style_gen.h **** 
  79:Middlewares/lvgl/src/widgets/../core/lv_obj_style_gen.h **** static inline lv_coord_t lv_obj_get_style_transform_zoom(const struct _lv_obj_t * obj, uint32_t par
  80:Middlewares/lvgl/src/widgets/../core/lv_obj_style_gen.h **** {
  81:Middlewares/lvgl/src/widgets/../core/lv_obj_style_gen.h ****     lv_style_value_t v = lv_obj_get_style_prop(obj, part, LV_STYLE_TRANSFORM_ZOOM);
  82:Middlewares/lvgl/src/widgets/../core/lv_obj_style_gen.h ****     return (lv_coord_t)v.num;
  83:Middlewares/lvgl/src/widgets/../core/lv_obj_style_gen.h **** }
  84:Middlewares/lvgl/src/widgets/../core/lv_obj_style_gen.h **** 
  85:Middlewares/lvgl/src/widgets/../core/lv_obj_style_gen.h **** static inline lv_coord_t lv_obj_get_style_transform_angle(const struct _lv_obj_t * obj, uint32_t pa
  86:Middlewares/lvgl/src/widgets/../core/lv_obj_style_gen.h **** {
  87:Middlewares/lvgl/src/widgets/../core/lv_obj_style_gen.h ****     lv_style_value_t v = lv_obj_get_style_prop(obj, part, LV_STYLE_TRANSFORM_ANGLE);
  88:Middlewares/lvgl/src/widgets/../core/lv_obj_style_gen.h ****     return (lv_coord_t)v.num;
ARM GAS  /tmp/ccnMQJLR.s 			page 23


  89:Middlewares/lvgl/src/widgets/../core/lv_obj_style_gen.h **** }
  90:Middlewares/lvgl/src/widgets/../core/lv_obj_style_gen.h **** 
  91:Middlewares/lvgl/src/widgets/../core/lv_obj_style_gen.h **** static inline lv_coord_t lv_obj_get_style_pad_top(const struct _lv_obj_t * obj, uint32_t part)
  92:Middlewares/lvgl/src/widgets/../core/lv_obj_style_gen.h **** {
  93:Middlewares/lvgl/src/widgets/../core/lv_obj_style_gen.h ****     lv_style_value_t v = lv_obj_get_style_prop(obj, part, LV_STYLE_PAD_TOP);
  94:Middlewares/lvgl/src/widgets/../core/lv_obj_style_gen.h ****     return (lv_coord_t)v.num;
  95:Middlewares/lvgl/src/widgets/../core/lv_obj_style_gen.h **** }
  96:Middlewares/lvgl/src/widgets/../core/lv_obj_style_gen.h **** 
  97:Middlewares/lvgl/src/widgets/../core/lv_obj_style_gen.h **** static inline lv_coord_t lv_obj_get_style_pad_bottom(const struct _lv_obj_t * obj, uint32_t part)
  98:Middlewares/lvgl/src/widgets/../core/lv_obj_style_gen.h **** {
  99:Middlewares/lvgl/src/widgets/../core/lv_obj_style_gen.h ****     lv_style_value_t v = lv_obj_get_style_prop(obj, part, LV_STYLE_PAD_BOTTOM);
 100:Middlewares/lvgl/src/widgets/../core/lv_obj_style_gen.h ****     return (lv_coord_t)v.num;
 101:Middlewares/lvgl/src/widgets/../core/lv_obj_style_gen.h **** }
 102:Middlewares/lvgl/src/widgets/../core/lv_obj_style_gen.h **** 
 103:Middlewares/lvgl/src/widgets/../core/lv_obj_style_gen.h **** static inline lv_coord_t lv_obj_get_style_pad_left(const struct _lv_obj_t * obj, uint32_t part)
 300              		.loc 2 103 26 view .LVU52
 301              	.LBB76:
 104:Middlewares/lvgl/src/widgets/../core/lv_obj_style_gen.h **** {
 105:Middlewares/lvgl/src/widgets/../core/lv_obj_style_gen.h ****     lv_style_value_t v = lv_obj_get_style_prop(obj, part, LV_STYLE_PAD_LEFT);
 302              		.loc 2 105 5 view .LVU53
 303              		.loc 2 105 26 is_stmt 0 view .LVU54
 304 0020 41F21202 		movw	r2, #4114
 305 0024 0021     		movs	r1, #0
 306 0026 2846     		mov	r0, r5
 307 0028 FFF7FEFF 		bl	lv_obj_get_style_prop
 308              	.LVL26:
 106:Middlewares/lvgl/src/widgets/../core/lv_obj_style_gen.h ****     return (lv_coord_t)v.num;
 309              		.loc 2 106 5 is_stmt 1 view .LVU55
 310              		.loc 2 106 12 is_stmt 0 view .LVU56
 311 002c 0FFA80FB 		sxth	fp, r0
 312              	.LVL27:
 313              		.loc 2 106 12 view .LVU57
 314              	.LBE76:
 315              	.LBE75:
 887:Middlewares/lvgl/src/widgets/lv_btnmatrix.c ****     lv_coord_t pright = lv_obj_get_style_pad_right(obj, LV_PART_MAIN);
 316              		.loc 1 887 5 is_stmt 1 view .LVU58
 317              	.LBB77:
 318              	.LBI77:
 107:Middlewares/lvgl/src/widgets/../core/lv_obj_style_gen.h **** }
 108:Middlewares/lvgl/src/widgets/../core/lv_obj_style_gen.h **** 
 109:Middlewares/lvgl/src/widgets/../core/lv_obj_style_gen.h **** static inline lv_coord_t lv_obj_get_style_pad_right(const struct _lv_obj_t * obj, uint32_t part)
 319              		.loc 2 109 26 view .LVU59
 320              	.LBB78:
 110:Middlewares/lvgl/src/widgets/../core/lv_obj_style_gen.h **** {
 111:Middlewares/lvgl/src/widgets/../core/lv_obj_style_gen.h ****     lv_style_value_t v = lv_obj_get_style_prop(obj, part, LV_STYLE_PAD_RIGHT);
 321              		.loc 2 111 5 view .LVU60
 322              		.loc 2 111 26 is_stmt 0 view .LVU61
 323 0030 41F21302 		movw	r2, #4115
 324 0034 0021     		movs	r1, #0
 325 0036 2846     		mov	r0, r5
 326 0038 FFF7FEFF 		bl	lv_obj_get_style_prop
 327              	.LVL28:
 112:Middlewares/lvgl/src/widgets/../core/lv_obj_style_gen.h ****     return (lv_coord_t)v.num;
 328              		.loc 2 112 5 is_stmt 1 view .LVU62
 329              		.loc 2 112 12 is_stmt 0 view .LVU63
 330 003c 0FFA80F9 		sxth	r9, r0
 331              	.LVL29:
ARM GAS  /tmp/ccnMQJLR.s 			page 24


 332              		.loc 2 112 12 view .LVU64
 333              	.LBE78:
 334              	.LBE77:
 888:Middlewares/lvgl/src/widgets/lv_btnmatrix.c ****     lv_coord_t ptop = lv_obj_get_style_pad_top(obj, LV_PART_MAIN);
 335              		.loc 1 888 5 is_stmt 1 view .LVU65
 336              	.LBB79:
 337              	.LBI79:
  91:Middlewares/lvgl/src/widgets/../core/lv_obj_style_gen.h **** {
 338              		.loc 2 91 26 view .LVU66
 339              	.LBB80:
  93:Middlewares/lvgl/src/widgets/../core/lv_obj_style_gen.h ****     return (lv_coord_t)v.num;
 340              		.loc 2 93 5 view .LVU67
  93:Middlewares/lvgl/src/widgets/../core/lv_obj_style_gen.h ****     return (lv_coord_t)v.num;
 341              		.loc 2 93 26 is_stmt 0 view .LVU68
 342 0040 41F21002 		movw	r2, #4112
 343 0044 0021     		movs	r1, #0
 344 0046 2846     		mov	r0, r5
 345 0048 FFF7FEFF 		bl	lv_obj_get_style_prop
 346              	.LVL30:
  94:Middlewares/lvgl/src/widgets/../core/lv_obj_style_gen.h **** }
 347              		.loc 2 94 5 is_stmt 1 view .LVU69
  94:Middlewares/lvgl/src/widgets/../core/lv_obj_style_gen.h **** }
 348              		.loc 2 94 12 is_stmt 0 view .LVU70
 349 004c 0FFA80F8 		sxth	r8, r0
 350              	.LVL31:
  94:Middlewares/lvgl/src/widgets/../core/lv_obj_style_gen.h **** }
 351              		.loc 2 94 12 view .LVU71
 352              	.LBE80:
 353              	.LBE79:
 889:Middlewares/lvgl/src/widgets/lv_btnmatrix.c ****     lv_coord_t pbottom = lv_obj_get_style_pad_bottom(obj, LV_PART_MAIN);
 354              		.loc 1 889 5 is_stmt 1 view .LVU72
 355              	.LBB81:
 356              	.LBI81:
  97:Middlewares/lvgl/src/widgets/../core/lv_obj_style_gen.h **** {
 357              		.loc 2 97 26 view .LVU73
 358              	.LBB82:
  99:Middlewares/lvgl/src/widgets/../core/lv_obj_style_gen.h ****     return (lv_coord_t)v.num;
 359              		.loc 2 99 5 view .LVU74
  99:Middlewares/lvgl/src/widgets/../core/lv_obj_style_gen.h ****     return (lv_coord_t)v.num;
 360              		.loc 2 99 26 is_stmt 0 view .LVU75
 361 0050 41F21102 		movw	r2, #4113
 362 0054 0021     		movs	r1, #0
 363 0056 2846     		mov	r0, r5
 364 0058 FFF7FEFF 		bl	lv_obj_get_style_prop
 365              	.LVL32:
 100:Middlewares/lvgl/src/widgets/../core/lv_obj_style_gen.h **** }
 366              		.loc 2 100 5 is_stmt 1 view .LVU76
 100:Middlewares/lvgl/src/widgets/../core/lv_obj_style_gen.h **** }
 367              		.loc 2 100 12 is_stmt 0 view .LVU77
 368 005c 07B2     		sxth	r7, r0
 369              	.LVL33:
 100:Middlewares/lvgl/src/widgets/../core/lv_obj_style_gen.h **** }
 370              		.loc 2 100 12 view .LVU78
 371              	.LBE82:
 372              	.LBE81:
 890:Middlewares/lvgl/src/widgets/lv_btnmatrix.c ****     lv_coord_t prow = lv_obj_get_style_pad_row(obj, LV_PART_MAIN);
 373              		.loc 1 890 5 is_stmt 1 view .LVU79
ARM GAS  /tmp/ccnMQJLR.s 			page 25


 374              	.LBB83:
 375              	.LBI83:
 113:Middlewares/lvgl/src/widgets/../core/lv_obj_style_gen.h **** }
 114:Middlewares/lvgl/src/widgets/../core/lv_obj_style_gen.h **** 
 115:Middlewares/lvgl/src/widgets/../core/lv_obj_style_gen.h **** static inline lv_coord_t lv_obj_get_style_pad_row(const struct _lv_obj_t * obj, uint32_t part)
 376              		.loc 2 115 26 view .LVU80
 377              	.LBB84:
 116:Middlewares/lvgl/src/widgets/../core/lv_obj_style_gen.h **** {
 117:Middlewares/lvgl/src/widgets/../core/lv_obj_style_gen.h ****     lv_style_value_t v = lv_obj_get_style_prop(obj, part, LV_STYLE_PAD_ROW);
 378              		.loc 2 117 5 view .LVU81
 379              		.loc 2 117 26 is_stmt 0 view .LVU82
 380 005e 41F21402 		movw	r2, #4116
 381 0062 0021     		movs	r1, #0
 382 0064 2846     		mov	r0, r5
 383 0066 FFF7FEFF 		bl	lv_obj_get_style_prop
 384              	.LVL34:
 385 006a 0446     		mov	r4, r0
 386              	.LVL35:
 118:Middlewares/lvgl/src/widgets/../core/lv_obj_style_gen.h ****     return (lv_coord_t)v.num;
 387              		.loc 2 118 5 is_stmt 1 view .LVU83
 388              		.loc 2 118 12 is_stmt 0 view .LVU84
 389 006c 06B2     		sxth	r6, r0
 390              	.LVL36:
 391              		.loc 2 118 12 view .LVU85
 392              	.LBE84:
 393              	.LBE83:
 891:Middlewares/lvgl/src/widgets/lv_btnmatrix.c ****     lv_coord_t pcol = lv_obj_get_style_pad_column(obj, LV_PART_MAIN);
 394              		.loc 1 891 5 is_stmt 1 view .LVU86
 395              	.LBB85:
 396              	.LBI85:
 119:Middlewares/lvgl/src/widgets/../core/lv_obj_style_gen.h **** }
 120:Middlewares/lvgl/src/widgets/../core/lv_obj_style_gen.h **** 
 121:Middlewares/lvgl/src/widgets/../core/lv_obj_style_gen.h **** static inline lv_coord_t lv_obj_get_style_pad_column(const struct _lv_obj_t * obj, uint32_t part)
 397              		.loc 2 121 26 view .LVU87
 398              	.LBB86:
 122:Middlewares/lvgl/src/widgets/../core/lv_obj_style_gen.h **** {
 123:Middlewares/lvgl/src/widgets/../core/lv_obj_style_gen.h ****     lv_style_value_t v = lv_obj_get_style_prop(obj, part, LV_STYLE_PAD_COLUMN);
 399              		.loc 2 123 5 view .LVU88
 400              		.loc 2 123 26 is_stmt 0 view .LVU89
 401 006e 41F21502 		movw	r2, #4117
 402 0072 0021     		movs	r1, #0
 403 0074 2846     		mov	r0, r5
 404              		.loc 2 123 26 view .LVU90
 405 0076 FFF7FEFF 		bl	lv_obj_get_style_prop
 406              	.LVL37:
 124:Middlewares/lvgl/src/widgets/../core/lv_obj_style_gen.h ****     return (lv_coord_t)v.num;
 407              		.loc 2 124 5 is_stmt 1 view .LVU91
 408              		.loc 2 124 12 is_stmt 0 view .LVU92
 409 007a 03B2     		sxth	r3, r0
 410              	.LVL38:
 411              		.loc 2 124 12 view .LVU93
 412              	.LBE86:
 413              	.LBE85:
 892:Middlewares/lvgl/src/widgets/lv_btnmatrix.c **** 
 893:Middlewares/lvgl/src/widgets/lv_btnmatrix.c ****     /*Get the half gap. Button look larger with this value. (+1 for rounding error)*/
 894:Middlewares/lvgl/src/widgets/lv_btnmatrix.c ****     prow = (prow / 2) + 1 + (prow & 1);
 414              		.loc 1 894 5 is_stmt 1 view .LVU94
ARM GAS  /tmp/ccnMQJLR.s 			page 26


 415              		.loc 1 894 35 is_stmt 0 view .LVU95
 416 007c 04F00104 		and	r4, r4, #1
 417              	.LVL39:
 418              		.loc 1 894 27 view .LVU96
 419 0080 06EBD676 		add	r6, r6, r6, lsr #31
 420              	.LVL40:
 421              		.loc 1 894 27 view .LVU97
 422 0084 04EB6606 		add	r6, r4, r6, asr #1
 423 0088 0136     		adds	r6, r6, #1
 424              		.loc 1 894 10 view .LVU98
 425 008a 36B2     		sxth	r6, r6
 426              	.LVL41:
 895:Middlewares/lvgl/src/widgets/lv_btnmatrix.c ****     pcol = (pcol / 2) + 1 + (pcol & 1);
 427              		.loc 1 895 5 is_stmt 1 view .LVU99
 428              		.loc 1 895 35 is_stmt 0 view .LVU100
 429 008c 00F0010A 		and	r10, r0, #1
 430              		.loc 1 895 27 view .LVU101
 431 0090 C0F3C030 		ubfx	r0, r0, #15, #1
 432              		.loc 1 895 27 view .LVU102
 433 0094 0344     		add	r3, r3, r0
 434              	.LVL42:
 435              		.loc 1 895 27 view .LVU103
 436 0096 0AEB630A 		add	r10, r10, r3, asr #1
 437 009a 0AF1010A 		add	r10, r10, #1
 438              		.loc 1 895 10 view .LVU104
 439 009e 0FFA8AFA 		sxth	r10, r10
 440              	.LVL43:
 896:Middlewares/lvgl/src/widgets/lv_btnmatrix.c **** 
 897:Middlewares/lvgl/src/widgets/lv_btnmatrix.c ****     prow = LV_MIN(prow, BTN_EXTRA_CLICK_AREA_MAX);
 441              		.loc 1 897 5 is_stmt 1 view .LVU105
 442              		.loc 1 897 10 is_stmt 0 view .LVU106
 443 00a2 0D2E     		cmp	r6, #13
 444 00a4 A8BF     		it	ge
 445 00a6 0D26     		movge	r6, #13
 446              	.LVL44:
 898:Middlewares/lvgl/src/widgets/lv_btnmatrix.c ****     pcol = LV_MIN(pcol, BTN_EXTRA_CLICK_AREA_MAX);
 447              		.loc 1 898 5 is_stmt 1 view .LVU107
 448              		.loc 1 898 10 is_stmt 0 view .LVU108
 449 00a8 BAF10D0F 		cmp	r10, #13
 450 00ac A8BF     		it	ge
 451 00ae 4FF00D0A 		movge	r10, #13
 452              	.LVL45:
 899:Middlewares/lvgl/src/widgets/lv_btnmatrix.c ****     pright = LV_MIN(pright, BTN_EXTRA_CLICK_AREA_MAX);
 453              		.loc 1 899 5 is_stmt 1 view .LVU109
 454              		.loc 1 899 12 is_stmt 0 view .LVU110
 455 00b2 B9F10D0F 		cmp	r9, #13
 456 00b6 A8BF     		it	ge
 457 00b8 4FF00D09 		movge	r9, #13
 458              	.LVL46:
 900:Middlewares/lvgl/src/widgets/lv_btnmatrix.c ****     ptop = LV_MIN(ptop, BTN_EXTRA_CLICK_AREA_MAX);
 459              		.loc 1 900 5 is_stmt 1 view .LVU111
 460              		.loc 1 900 10 is_stmt 0 view .LVU112
 461 00bc B8F10D0F 		cmp	r8, #13
 462 00c0 A8BF     		it	ge
 463 00c2 4FF00D08 		movge	r8, #13
 464              	.LVL47:
 901:Middlewares/lvgl/src/widgets/lv_btnmatrix.c ****     pbottom = LV_MIN(pbottom, BTN_EXTRA_CLICK_AREA_MAX);
ARM GAS  /tmp/ccnMQJLR.s 			page 27


 465              		.loc 1 901 5 is_stmt 1 view .LVU113
 466              		.loc 1 901 13 is_stmt 0 view .LVU114
 467 00c6 0D2F     		cmp	r7, #13
 468 00c8 A8BF     		it	ge
 469 00ca 0D27     		movge	r7, #13
 470              	.LVL48:
 902:Middlewares/lvgl/src/widgets/lv_btnmatrix.c **** 
 903:Middlewares/lvgl/src/widgets/lv_btnmatrix.c ****     for(i = 0; i < btnm->btn_cnt; i++) {
 471              		.loc 1 903 5 is_stmt 1 view .LVU115
 472              		.loc 1 903 11 is_stmt 0 view .LVU116
 473 00cc 0024     		movs	r4, #0
 474              		.loc 1 903 5 view .LVU117
 475 00ce 28E0     		b	.L13
 476              	.LVL49:
 477              	.L14:
 904:Middlewares/lvgl/src/widgets/lv_btnmatrix.c ****         lv_area_copy(&btn_area, &btnm->button_areas[i]);
 905:Middlewares/lvgl/src/widgets/lv_btnmatrix.c ****         if(btn_area.x1 <= pleft) btn_area.x1 += obj_cords.x1 - LV_MIN(pleft, BTN_EXTRA_CLICK_AREA_M
 906:Middlewares/lvgl/src/widgets/lv_btnmatrix.c ****         else btn_area.x1 += obj_cords.x1 - pcol;
 478              		.loc 1 906 14 is_stmt 1 view .LVU118
 479              		.loc 1 906 38 is_stmt 0 view .LVU119
 480 00d0 BDF81830 		ldrh	r3, [sp, #24]
 481              		.loc 1 906 42 view .LVU120
 482 00d4 A3EB0A03 		sub	r3, r3, r10
 483 00d8 9BB2     		uxth	r3, r3
 484              		.loc 1 906 26 view .LVU121
 485 00da 9C44     		add	ip, ip, r3
 486 00dc ADF810C0 		strh	ip, [sp, #16]	@ movhi
 487 00e0 47E0     		b	.L15
 488              	.L16:
 907:Middlewares/lvgl/src/widgets/lv_btnmatrix.c **** 
 908:Middlewares/lvgl/src/widgets/lv_btnmatrix.c ****         if(btn_area.y1 <= ptop) btn_area.y1 += obj_cords.y1 - LV_MIN(ptop, BTN_EXTRA_CLICK_AREA_MAX
 909:Middlewares/lvgl/src/widgets/lv_btnmatrix.c ****         else btn_area.y1 += obj_cords.y1 - prow;
 489              		.loc 1 909 14 is_stmt 1 view .LVU122
 490              		.loc 1 909 38 is_stmt 0 view .LVU123
 491 00e2 BDF81A30 		ldrh	r3, [sp, #26]
 492              		.loc 1 909 42 view .LVU124
 493 00e6 9B1B     		subs	r3, r3, r6
 494 00e8 9BB2     		uxth	r3, r3
 495              		.loc 1 909 26 view .LVU125
 496 00ea 1844     		add	r0, r0, r3
 497 00ec ADF81200 		strh	r0, [sp, #18]	@ movhi
 498 00f0 51E0     		b	.L17
 499              	.L18:
 910:Middlewares/lvgl/src/widgets/lv_btnmatrix.c **** 
 911:Middlewares/lvgl/src/widgets/lv_btnmatrix.c ****         if(btn_area.x2 >= w - pright - 2) btn_area.x2 += obj_cords.x1 + LV_MIN(pright,
 912:Middlewares/lvgl/src/widgets/lv_btnmatrix.c ****                                                                                          BTN_EXTRA_
 913:Middlewares/lvgl/src/widgets/lv_btnmatrix.c ****         else btn_area.x2 += obj_cords.x1 + pcol;
 500              		.loc 1 913 14 is_stmt 1 view .LVU126
 501              		.loc 1 913 38 is_stmt 0 view .LVU127
 502 00f2 BDF81830 		ldrh	r3, [sp, #24]
 503              		.loc 1 913 42 view .LVU128
 504 00f6 5344     		add	r3, r3, r10
 505 00f8 9BB2     		uxth	r3, r3
 506              		.loc 1 913 26 view .LVU129
 507 00fa 1944     		add	r1, r1, r3
 508 00fc ADF81410 		strh	r1, [sp, #20]	@ movhi
 509 0100 5BE0     		b	.L19
ARM GAS  /tmp/ccnMQJLR.s 			page 28


 510              	.L20:
 914:Middlewares/lvgl/src/widgets/lv_btnmatrix.c **** 
 915:Middlewares/lvgl/src/widgets/lv_btnmatrix.c ****         if(btn_area.y2 >= h - pbottom - 2) btn_area.y2 += obj_cords.y1 + LV_MIN(pbottom,
 916:Middlewares/lvgl/src/widgets/lv_btnmatrix.c ****                                                                                           BTN_EXTRA
 917:Middlewares/lvgl/src/widgets/lv_btnmatrix.c ****         else btn_area.y2 += obj_cords.y1 + prow;
 511              		.loc 1 917 14 is_stmt 1 view .LVU130
 512              		.loc 1 917 38 is_stmt 0 view .LVU131
 513 0102 BDF81A30 		ldrh	r3, [sp, #26]
 514              		.loc 1 917 42 view .LVU132
 515 0106 3344     		add	r3, r3, r6
 516 0108 9BB2     		uxth	r3, r3
 517              		.loc 1 917 26 view .LVU133
 518 010a 1A44     		add	r2, r2, r3
 519 010c ADF81620 		strh	r2, [sp, #22]	@ movhi
 520              	.L21:
 918:Middlewares/lvgl/src/widgets/lv_btnmatrix.c **** 
 919:Middlewares/lvgl/src/widgets/lv_btnmatrix.c ****         if(_lv_area_is_point_on(&btn_area, p, 0) != false) {
 521              		.loc 1 919 9 is_stmt 1 view .LVU134
 522              		.loc 1 919 12 is_stmt 0 view .LVU135
 523 0110 0022     		movs	r2, #0
 524 0112 0399     		ldr	r1, [sp, #12]
 525 0114 04A8     		add	r0, sp, #16
 526 0116 FFF7FEFF 		bl	_lv_area_is_point_on
 527              	.LVL50:
 528              		.loc 1 919 11 view .LVU136
 529 011a 0028     		cmp	r0, #0
 530 011c 5FD1     		bne	.L22
 903:Middlewares/lvgl/src/widgets/lv_btnmatrix.c ****         lv_area_copy(&btn_area, &btnm->button_areas[i]);
 531              		.loc 1 903 35 is_stmt 1 discriminator 2 view .LVU137
 903:Middlewares/lvgl/src/widgets/lv_btnmatrix.c ****         lv_area_copy(&btn_area, &btnm->button_areas[i]);
 532              		.loc 1 903 36 is_stmt 0 discriminator 2 view .LVU138
 533 011e 0134     		adds	r4, r4, #1
 534              	.LVL51:
 903:Middlewares/lvgl/src/widgets/lv_btnmatrix.c ****         lv_area_copy(&btn_area, &btnm->button_areas[i]);
 535              		.loc 1 903 36 discriminator 2 view .LVU139
 536 0120 A4B2     		uxth	r4, r4
 537              	.LVL52:
 538              	.L13:
 903:Middlewares/lvgl/src/widgets/lv_btnmatrix.c ****         lv_area_copy(&btn_area, &btnm->button_areas[i]);
 539              		.loc 1 903 16 is_stmt 1 discriminator 1 view .LVU140
 903:Middlewares/lvgl/src/widgets/lv_btnmatrix.c ****         lv_area_copy(&btn_area, &btnm->button_areas[i]);
 540              		.loc 1 903 24 is_stmt 0 discriminator 1 view .LVU141
 541 0122 2B8E     		ldrh	r3, [r5, #48]
 903:Middlewares/lvgl/src/widgets/lv_btnmatrix.c ****         lv_area_copy(&btn_area, &btnm->button_areas[i]);
 542              		.loc 1 903 5 discriminator 1 view .LVU142
 543 0124 A342     		cmp	r3, r4
 544 0126 5AD9     		bls	.L22
 904:Middlewares/lvgl/src/widgets/lv_btnmatrix.c ****         if(btn_area.x1 <= pleft) btn_area.x1 += obj_cords.x1 - LV_MIN(pleft, BTN_EXTRA_CLICK_AREA_M
 545              		.loc 1 904 9 is_stmt 1 view .LVU143
 904:Middlewares/lvgl/src/widgets/lv_btnmatrix.c ****         if(btn_area.x1 <= pleft) btn_area.x1 += obj_cords.x1 - LV_MIN(pleft, BTN_EXTRA_CLICK_AREA_M
 546              		.loc 1 904 38 is_stmt 0 view .LVU144
 547 0128 AA6A     		ldr	r2, [r5, #40]
 904:Middlewares/lvgl/src/widgets/lv_btnmatrix.c ****         if(btn_area.x1 <= pleft) btn_area.x1 += obj_cords.x1 - LV_MIN(pleft, BTN_EXTRA_CLICK_AREA_M
 548              		.loc 1 904 33 view .LVU145
 549 012a 02EBC403 		add	r3, r2, r4, lsl #3
 550              	.LVL53:
 551              	.LBB87:
ARM GAS  /tmp/ccnMQJLR.s 			page 29


 552              	.LBI87:
 553              		.file 3 "Middlewares/lvgl/src/widgets/../core/../misc/../font/../misc/lv_area.h"
   1:Middlewares/lvgl/src/widgets/../core/../misc/../font/../misc/lv_area.h **** /**
   2:Middlewares/lvgl/src/widgets/../core/../misc/../font/../misc/lv_area.h ****  * @file lv_area.h
   3:Middlewares/lvgl/src/widgets/../core/../misc/../font/../misc/lv_area.h ****  *
   4:Middlewares/lvgl/src/widgets/../core/../misc/../font/../misc/lv_area.h ****  */
   5:Middlewares/lvgl/src/widgets/../core/../misc/../font/../misc/lv_area.h **** 
   6:Middlewares/lvgl/src/widgets/../core/../misc/../font/../misc/lv_area.h **** #ifndef LV_AREA_H
   7:Middlewares/lvgl/src/widgets/../core/../misc/../font/../misc/lv_area.h **** #define LV_AREA_H
   8:Middlewares/lvgl/src/widgets/../core/../misc/../font/../misc/lv_area.h **** 
   9:Middlewares/lvgl/src/widgets/../core/../misc/../font/../misc/lv_area.h **** #ifdef __cplusplus
  10:Middlewares/lvgl/src/widgets/../core/../misc/../font/../misc/lv_area.h **** extern "C" {
  11:Middlewares/lvgl/src/widgets/../core/../misc/../font/../misc/lv_area.h **** #endif
  12:Middlewares/lvgl/src/widgets/../core/../misc/../font/../misc/lv_area.h **** 
  13:Middlewares/lvgl/src/widgets/../core/../misc/../font/../misc/lv_area.h **** /*********************
  14:Middlewares/lvgl/src/widgets/../core/../misc/../font/../misc/lv_area.h ****  *      INCLUDES
  15:Middlewares/lvgl/src/widgets/../core/../misc/../font/../misc/lv_area.h ****  *********************/
  16:Middlewares/lvgl/src/widgets/../core/../misc/../font/../misc/lv_area.h **** #include "../lv_conf_internal.h"
  17:Middlewares/lvgl/src/widgets/../core/../misc/../font/../misc/lv_area.h **** #include <string.h>
  18:Middlewares/lvgl/src/widgets/../core/../misc/../font/../misc/lv_area.h **** #include <stdbool.h>
  19:Middlewares/lvgl/src/widgets/../core/../misc/../font/../misc/lv_area.h **** #include <stdint.h>
  20:Middlewares/lvgl/src/widgets/../core/../misc/../font/../misc/lv_area.h **** 
  21:Middlewares/lvgl/src/widgets/../core/../misc/../font/../misc/lv_area.h **** /*********************
  22:Middlewares/lvgl/src/widgets/../core/../misc/../font/../misc/lv_area.h ****  *      DEFINES
  23:Middlewares/lvgl/src/widgets/../core/../misc/../font/../misc/lv_area.h ****  *********************/
  24:Middlewares/lvgl/src/widgets/../core/../misc/../font/../misc/lv_area.h **** 
  25:Middlewares/lvgl/src/widgets/../core/../misc/../font/../misc/lv_area.h **** #define _LV_COORD_MAX_REDUCE    8192
  26:Middlewares/lvgl/src/widgets/../core/../misc/../font/../misc/lv_area.h **** 
  27:Middlewares/lvgl/src/widgets/../core/../misc/../font/../misc/lv_area.h **** #if LV_USE_LARGE_COORD
  28:Middlewares/lvgl/src/widgets/../core/../misc/../font/../misc/lv_area.h **** typedef int32_t lv_coord_t;
  29:Middlewares/lvgl/src/widgets/../core/../misc/../font/../misc/lv_area.h **** #else
  30:Middlewares/lvgl/src/widgets/../core/../misc/../font/../misc/lv_area.h **** typedef int16_t lv_coord_t;
  31:Middlewares/lvgl/src/widgets/../core/../misc/../font/../misc/lv_area.h **** #endif
  32:Middlewares/lvgl/src/widgets/../core/../misc/../font/../misc/lv_area.h **** 
  33:Middlewares/lvgl/src/widgets/../core/../misc/../font/../misc/lv_area.h **** /*To allow some special values in the end reduce the max value*/
  34:Middlewares/lvgl/src/widgets/../core/../misc/../font/../misc/lv_area.h **** #define LV_COORD_MAX ((lv_coord_t)((uint32_t)((uint32_t)1 << (8 * sizeof(lv_coord_t) - 1)) - _LV_CO
  35:Middlewares/lvgl/src/widgets/../core/../misc/../font/../misc/lv_area.h **** #define LV_COORD_MIN (-LV_COORD_MAX)
  36:Middlewares/lvgl/src/widgets/../core/../misc/../font/../misc/lv_area.h **** 
  37:Middlewares/lvgl/src/widgets/../core/../misc/../font/../misc/lv_area.h **** LV_EXPORT_CONST_INT(LV_COORD_MAX);
  38:Middlewares/lvgl/src/widgets/../core/../misc/../font/../misc/lv_area.h **** LV_EXPORT_CONST_INT(LV_COORD_MIN);
  39:Middlewares/lvgl/src/widgets/../core/../misc/../font/../misc/lv_area.h **** 
  40:Middlewares/lvgl/src/widgets/../core/../misc/../font/../misc/lv_area.h **** /**********************
  41:Middlewares/lvgl/src/widgets/../core/../misc/../font/../misc/lv_area.h ****  *      TYPEDEFS
  42:Middlewares/lvgl/src/widgets/../core/../misc/../font/../misc/lv_area.h ****  **********************/
  43:Middlewares/lvgl/src/widgets/../core/../misc/../font/../misc/lv_area.h **** 
  44:Middlewares/lvgl/src/widgets/../core/../misc/../font/../misc/lv_area.h **** /**
  45:Middlewares/lvgl/src/widgets/../core/../misc/../font/../misc/lv_area.h ****  * Represents a point on the screen.
  46:Middlewares/lvgl/src/widgets/../core/../misc/../font/../misc/lv_area.h ****  */
  47:Middlewares/lvgl/src/widgets/../core/../misc/../font/../misc/lv_area.h **** typedef struct {
  48:Middlewares/lvgl/src/widgets/../core/../misc/../font/../misc/lv_area.h ****     lv_coord_t x;
  49:Middlewares/lvgl/src/widgets/../core/../misc/../font/../misc/lv_area.h ****     lv_coord_t y;
  50:Middlewares/lvgl/src/widgets/../core/../misc/../font/../misc/lv_area.h **** } lv_point_t;
  51:Middlewares/lvgl/src/widgets/../core/../misc/../font/../misc/lv_area.h **** 
  52:Middlewares/lvgl/src/widgets/../core/../misc/../font/../misc/lv_area.h **** /** Represents an area of the screen.*/
  53:Middlewares/lvgl/src/widgets/../core/../misc/../font/../misc/lv_area.h **** typedef struct {
  54:Middlewares/lvgl/src/widgets/../core/../misc/../font/../misc/lv_area.h ****     lv_coord_t x1;
  55:Middlewares/lvgl/src/widgets/../core/../misc/../font/../misc/lv_area.h ****     lv_coord_t y1;
ARM GAS  /tmp/ccnMQJLR.s 			page 30


  56:Middlewares/lvgl/src/widgets/../core/../misc/../font/../misc/lv_area.h ****     lv_coord_t x2;
  57:Middlewares/lvgl/src/widgets/../core/../misc/../font/../misc/lv_area.h ****     lv_coord_t y2;
  58:Middlewares/lvgl/src/widgets/../core/../misc/../font/../misc/lv_area.h **** } lv_area_t;
  59:Middlewares/lvgl/src/widgets/../core/../misc/../font/../misc/lv_area.h **** 
  60:Middlewares/lvgl/src/widgets/../core/../misc/../font/../misc/lv_area.h **** /** Alignments*/
  61:Middlewares/lvgl/src/widgets/../core/../misc/../font/../misc/lv_area.h **** enum {
  62:Middlewares/lvgl/src/widgets/../core/../misc/../font/../misc/lv_area.h ****     LV_ALIGN_DEFAULT = 0,
  63:Middlewares/lvgl/src/widgets/../core/../misc/../font/../misc/lv_area.h ****     LV_ALIGN_TOP_LEFT,
  64:Middlewares/lvgl/src/widgets/../core/../misc/../font/../misc/lv_area.h ****     LV_ALIGN_TOP_MID,
  65:Middlewares/lvgl/src/widgets/../core/../misc/../font/../misc/lv_area.h ****     LV_ALIGN_TOP_RIGHT,
  66:Middlewares/lvgl/src/widgets/../core/../misc/../font/../misc/lv_area.h ****     LV_ALIGN_BOTTOM_LEFT,
  67:Middlewares/lvgl/src/widgets/../core/../misc/../font/../misc/lv_area.h ****     LV_ALIGN_BOTTOM_MID,
  68:Middlewares/lvgl/src/widgets/../core/../misc/../font/../misc/lv_area.h ****     LV_ALIGN_BOTTOM_RIGHT,
  69:Middlewares/lvgl/src/widgets/../core/../misc/../font/../misc/lv_area.h ****     LV_ALIGN_LEFT_MID,
  70:Middlewares/lvgl/src/widgets/../core/../misc/../font/../misc/lv_area.h ****     LV_ALIGN_RIGHT_MID,
  71:Middlewares/lvgl/src/widgets/../core/../misc/../font/../misc/lv_area.h ****     LV_ALIGN_CENTER,
  72:Middlewares/lvgl/src/widgets/../core/../misc/../font/../misc/lv_area.h **** 
  73:Middlewares/lvgl/src/widgets/../core/../misc/../font/../misc/lv_area.h ****     LV_ALIGN_OUT_TOP_LEFT,
  74:Middlewares/lvgl/src/widgets/../core/../misc/../font/../misc/lv_area.h ****     LV_ALIGN_OUT_TOP_MID,
  75:Middlewares/lvgl/src/widgets/../core/../misc/../font/../misc/lv_area.h ****     LV_ALIGN_OUT_TOP_RIGHT,
  76:Middlewares/lvgl/src/widgets/../core/../misc/../font/../misc/lv_area.h ****     LV_ALIGN_OUT_BOTTOM_LEFT,
  77:Middlewares/lvgl/src/widgets/../core/../misc/../font/../misc/lv_area.h ****     LV_ALIGN_OUT_BOTTOM_MID,
  78:Middlewares/lvgl/src/widgets/../core/../misc/../font/../misc/lv_area.h ****     LV_ALIGN_OUT_BOTTOM_RIGHT,
  79:Middlewares/lvgl/src/widgets/../core/../misc/../font/../misc/lv_area.h ****     LV_ALIGN_OUT_LEFT_TOP,
  80:Middlewares/lvgl/src/widgets/../core/../misc/../font/../misc/lv_area.h ****     LV_ALIGN_OUT_LEFT_MID,
  81:Middlewares/lvgl/src/widgets/../core/../misc/../font/../misc/lv_area.h ****     LV_ALIGN_OUT_LEFT_BOTTOM,
  82:Middlewares/lvgl/src/widgets/../core/../misc/../font/../misc/lv_area.h ****     LV_ALIGN_OUT_RIGHT_TOP,
  83:Middlewares/lvgl/src/widgets/../core/../misc/../font/../misc/lv_area.h ****     LV_ALIGN_OUT_RIGHT_MID,
  84:Middlewares/lvgl/src/widgets/../core/../misc/../font/../misc/lv_area.h ****     LV_ALIGN_OUT_RIGHT_BOTTOM,
  85:Middlewares/lvgl/src/widgets/../core/../misc/../font/../misc/lv_area.h **** };
  86:Middlewares/lvgl/src/widgets/../core/../misc/../font/../misc/lv_area.h **** typedef uint8_t lv_align_t;
  87:Middlewares/lvgl/src/widgets/../core/../misc/../font/../misc/lv_area.h **** 
  88:Middlewares/lvgl/src/widgets/../core/../misc/../font/../misc/lv_area.h **** enum {
  89:Middlewares/lvgl/src/widgets/../core/../misc/../font/../misc/lv_area.h ****     LV_DIR_NONE     = 0x00,
  90:Middlewares/lvgl/src/widgets/../core/../misc/../font/../misc/lv_area.h ****     LV_DIR_LEFT     = (1 << 0),
  91:Middlewares/lvgl/src/widgets/../core/../misc/../font/../misc/lv_area.h ****     LV_DIR_RIGHT    = (1 << 1),
  92:Middlewares/lvgl/src/widgets/../core/../misc/../font/../misc/lv_area.h ****     LV_DIR_TOP      = (1 << 2),
  93:Middlewares/lvgl/src/widgets/../core/../misc/../font/../misc/lv_area.h ****     LV_DIR_BOTTOM   = (1 << 3),
  94:Middlewares/lvgl/src/widgets/../core/../misc/../font/../misc/lv_area.h ****     LV_DIR_HOR      = LV_DIR_LEFT | LV_DIR_RIGHT,
  95:Middlewares/lvgl/src/widgets/../core/../misc/../font/../misc/lv_area.h ****     LV_DIR_VER      = LV_DIR_TOP | LV_DIR_BOTTOM,
  96:Middlewares/lvgl/src/widgets/../core/../misc/../font/../misc/lv_area.h ****     LV_DIR_ALL      = LV_DIR_HOR | LV_DIR_VER,
  97:Middlewares/lvgl/src/widgets/../core/../misc/../font/../misc/lv_area.h **** };
  98:Middlewares/lvgl/src/widgets/../core/../misc/../font/../misc/lv_area.h **** 
  99:Middlewares/lvgl/src/widgets/../core/../misc/../font/../misc/lv_area.h **** typedef uint8_t lv_dir_t;
 100:Middlewares/lvgl/src/widgets/../core/../misc/../font/../misc/lv_area.h **** 
 101:Middlewares/lvgl/src/widgets/../core/../misc/../font/../misc/lv_area.h **** /**********************
 102:Middlewares/lvgl/src/widgets/../core/../misc/../font/../misc/lv_area.h ****  * GLOBAL PROTOTYPES
 103:Middlewares/lvgl/src/widgets/../core/../misc/../font/../misc/lv_area.h ****  **********************/
 104:Middlewares/lvgl/src/widgets/../core/../misc/../font/../misc/lv_area.h **** 
 105:Middlewares/lvgl/src/widgets/../core/../misc/../font/../misc/lv_area.h **** /**
 106:Middlewares/lvgl/src/widgets/../core/../misc/../font/../misc/lv_area.h ****  * Initialize an area
 107:Middlewares/lvgl/src/widgets/../core/../misc/../font/../misc/lv_area.h ****  * @param area_p pointer to an area
 108:Middlewares/lvgl/src/widgets/../core/../misc/../font/../misc/lv_area.h ****  * @param x1 left coordinate of the area
 109:Middlewares/lvgl/src/widgets/../core/../misc/../font/../misc/lv_area.h ****  * @param y1 top coordinate of the area
 110:Middlewares/lvgl/src/widgets/../core/../misc/../font/../misc/lv_area.h ****  * @param x2 right coordinate of the area
 111:Middlewares/lvgl/src/widgets/../core/../misc/../font/../misc/lv_area.h ****  * @param y2 bottom coordinate of the area
 112:Middlewares/lvgl/src/widgets/../core/../misc/../font/../misc/lv_area.h ****  */
ARM GAS  /tmp/ccnMQJLR.s 			page 31


 113:Middlewares/lvgl/src/widgets/../core/../misc/../font/../misc/lv_area.h **** void lv_area_set(lv_area_t * area_p, lv_coord_t x1, lv_coord_t y1, lv_coord_t x2, lv_coord_t y2);
 114:Middlewares/lvgl/src/widgets/../core/../misc/../font/../misc/lv_area.h **** 
 115:Middlewares/lvgl/src/widgets/../core/../misc/../font/../misc/lv_area.h **** /**
 116:Middlewares/lvgl/src/widgets/../core/../misc/../font/../misc/lv_area.h ****  * Copy an area
 117:Middlewares/lvgl/src/widgets/../core/../misc/../font/../misc/lv_area.h ****  * @param dest pointer to the destination area
 118:Middlewares/lvgl/src/widgets/../core/../misc/../font/../misc/lv_area.h ****  * @param src pointer to the source area
 119:Middlewares/lvgl/src/widgets/../core/../misc/../font/../misc/lv_area.h ****  */
 120:Middlewares/lvgl/src/widgets/../core/../misc/../font/../misc/lv_area.h **** inline static void lv_area_copy(lv_area_t * dest, const lv_area_t * src)
 554              		.loc 3 120 20 is_stmt 1 view .LVU146
 555              	.LBB88:
 121:Middlewares/lvgl/src/widgets/../core/../misc/../font/../misc/lv_area.h **** {
 122:Middlewares/lvgl/src/widgets/../core/../misc/../font/../misc/lv_area.h ****     dest->x1 = src->x1;
 556              		.loc 3 122 5 view .LVU147
 557              		.loc 3 122 19 is_stmt 0 view .LVU148
 558 012e 32F934C0 		ldrsh	ip, [r2, r4, lsl #3]
 559              		.loc 3 122 14 view .LVU149
 560 0132 ADF810C0 		strh	ip, [sp, #16]	@ movhi
 123:Middlewares/lvgl/src/widgets/../core/../misc/../font/../misc/lv_area.h ****     dest->y1 = src->y1;
 561              		.loc 3 123 5 is_stmt 1 view .LVU150
 562              		.loc 3 123 19 is_stmt 0 view .LVU151
 563 0136 B3F90200 		ldrsh	r0, [r3, #2]
 564              		.loc 3 123 14 view .LVU152
 565 013a ADF81200 		strh	r0, [sp, #18]	@ movhi
 124:Middlewares/lvgl/src/widgets/../core/../misc/../font/../misc/lv_area.h ****     dest->x2 = src->x2;
 566              		.loc 3 124 5 is_stmt 1 view .LVU153
 567              		.loc 3 124 19 is_stmt 0 view .LVU154
 568 013e B3F90410 		ldrsh	r1, [r3, #4]
 569              		.loc 3 124 14 view .LVU155
 570 0142 ADF81410 		strh	r1, [sp, #20]	@ movhi
 125:Middlewares/lvgl/src/widgets/../core/../misc/../font/../misc/lv_area.h ****     dest->y2 = src->y2;
 571              		.loc 3 125 5 is_stmt 1 view .LVU156
 572              		.loc 3 125 19 is_stmt 0 view .LVU157
 573 0146 B3F90620 		ldrsh	r2, [r3, #6]
 574              		.loc 3 125 14 view .LVU158
 575 014a ADF81620 		strh	r2, [sp, #22]	@ movhi
 576              	.LVL54:
 577              		.loc 3 125 14 view .LVU159
 578              	.LBE88:
 579              	.LBE87:
 905:Middlewares/lvgl/src/widgets/lv_btnmatrix.c ****         else btn_area.x1 += obj_cords.x1 - pcol;
 580              		.loc 1 905 9 is_stmt 1 view .LVU160
 905:Middlewares/lvgl/src/widgets/lv_btnmatrix.c ****         else btn_area.x1 += obj_cords.x1 - pcol;
 581              		.loc 1 905 11 is_stmt 0 view .LVU161
 582 014e E345     		cmp	fp, ip
 583 0150 BEDB     		blt	.L14
 905:Middlewares/lvgl/src/widgets/lv_btnmatrix.c ****         else btn_area.x1 += obj_cords.x1 - pcol;
 584              		.loc 1 905 34 is_stmt 1 discriminator 1 view .LVU162
 905:Middlewares/lvgl/src/widgets/lv_btnmatrix.c ****         else btn_area.x1 += obj_cords.x1 - pcol;
 585              		.loc 1 905 58 is_stmt 0 discriminator 1 view .LVU163
 586 0152 BDF81830 		ldrh	r3, [sp, #24]
 905:Middlewares/lvgl/src/widgets/lv_btnmatrix.c ****         else btn_area.x1 += obj_cords.x1 - pcol;
 587              		.loc 1 905 64 discriminator 1 view .LVU164
 588 0156 DE46     		mov	lr, fp
 589 0158 BBF10D0F 		cmp	fp, #13
 590 015c A8BF     		it	ge
 591 015e 4FF00D0E 		movge	lr, #13
 592 0162 1FFA8EFE 		uxth	lr, lr
ARM GAS  /tmp/ccnMQJLR.s 			page 32


 905:Middlewares/lvgl/src/widgets/lv_btnmatrix.c ****         else btn_area.x1 += obj_cords.x1 - pcol;
 593              		.loc 1 905 62 discriminator 1 view .LVU165
 594 0166 A3EB0E03 		sub	r3, r3, lr
 595 016a 9BB2     		uxth	r3, r3
 905:Middlewares/lvgl/src/widgets/lv_btnmatrix.c ****         else btn_area.x1 += obj_cords.x1 - pcol;
 596              		.loc 1 905 46 discriminator 1 view .LVU166
 597 016c 9C44     		add	ip, ip, r3
 598 016e ADF810C0 		strh	ip, [sp, #16]	@ movhi
 599              	.L15:
 908:Middlewares/lvgl/src/widgets/lv_btnmatrix.c ****         else btn_area.y1 += obj_cords.y1 - prow;
 600              		.loc 1 908 9 is_stmt 1 view .LVU167
 908:Middlewares/lvgl/src/widgets/lv_btnmatrix.c ****         else btn_area.y1 += obj_cords.y1 - prow;
 601              		.loc 1 908 11 is_stmt 0 view .LVU168
 602 0172 8045     		cmp	r8, r0
 603 0174 B5DB     		blt	.L16
 908:Middlewares/lvgl/src/widgets/lv_btnmatrix.c ****         else btn_area.y1 += obj_cords.y1 - prow;
 604              		.loc 1 908 33 is_stmt 1 discriminator 1 view .LVU169
 908:Middlewares/lvgl/src/widgets/lv_btnmatrix.c ****         else btn_area.y1 += obj_cords.y1 - prow;
 605              		.loc 1 908 57 is_stmt 0 discriminator 1 view .LVU170
 606 0176 BDF81A30 		ldrh	r3, [sp, #26]
 908:Middlewares/lvgl/src/widgets/lv_btnmatrix.c ****         else btn_area.y1 += obj_cords.y1 - prow;
 607              		.loc 1 908 63 discriminator 1 view .LVU171
 608 017a C446     		mov	ip, r8
 609 017c B8F10D0F 		cmp	r8, #13
 610 0180 A8BF     		it	ge
 611 0182 4FF00D0C 		movge	ip, #13
 612 0186 1FFA8CFC 		uxth	ip, ip
 908:Middlewares/lvgl/src/widgets/lv_btnmatrix.c ****         else btn_area.y1 += obj_cords.y1 - prow;
 613              		.loc 1 908 61 discriminator 1 view .LVU172
 614 018a A3EB0C03 		sub	r3, r3, ip
 615 018e 9BB2     		uxth	r3, r3
 908:Middlewares/lvgl/src/widgets/lv_btnmatrix.c ****         else btn_area.y1 += obj_cords.y1 - prow;
 616              		.loc 1 908 45 discriminator 1 view .LVU173
 617 0190 1844     		add	r0, r0, r3
 618 0192 ADF81200 		strh	r0, [sp, #18]	@ movhi
 619              	.L17:
 911:Middlewares/lvgl/src/widgets/lv_btnmatrix.c ****                                                                                          BTN_EXTRA_
 620              		.loc 1 911 9 is_stmt 1 view .LVU174
 911:Middlewares/lvgl/src/widgets/lv_btnmatrix.c ****                                                                                          BTN_EXTRA_
 621              		.loc 1 911 29 is_stmt 0 view .LVU175
 622 0196 019B     		ldr	r3, [sp, #4]
 623 0198 A3EB0903 		sub	r3, r3, r9
 911:Middlewares/lvgl/src/widgets/lv_btnmatrix.c ****                                                                                          BTN_EXTRA_
 624              		.loc 1 911 38 view .LVU176
 625 019c 023B     		subs	r3, r3, #2
 911:Middlewares/lvgl/src/widgets/lv_btnmatrix.c ****                                                                                          BTN_EXTRA_
 626              		.loc 1 911 11 view .LVU177
 627 019e 9942     		cmp	r1, r3
 628 01a0 A7DB     		blt	.L18
 911:Middlewares/lvgl/src/widgets/lv_btnmatrix.c ****                                                                                          BTN_EXTRA_
 629              		.loc 1 911 43 is_stmt 1 discriminator 1 view .LVU178
 911:Middlewares/lvgl/src/widgets/lv_btnmatrix.c ****                                                                                          BTN_EXTRA_
 630              		.loc 1 911 67 is_stmt 0 discriminator 1 view .LVU179
 631 01a2 BDF81830 		ldrh	r3, [sp, #24]
 911:Middlewares/lvgl/src/widgets/lv_btnmatrix.c ****                                                                                          BTN_EXTRA_
 632              		.loc 1 911 73 discriminator 1 view .LVU180
 633 01a6 4846     		mov	r0, r9
ARM GAS  /tmp/ccnMQJLR.s 			page 33


 634 01a8 0D28     		cmp	r0, #13
 635 01aa A8BF     		it	ge
 636 01ac 0D20     		movge	r0, #13
 637 01ae 80B2     		uxth	r0, r0
 911:Middlewares/lvgl/src/widgets/lv_btnmatrix.c ****                                                                                          BTN_EXTRA_
 638              		.loc 1 911 71 discriminator 1 view .LVU181
 639 01b0 0344     		add	r3, r3, r0
 640 01b2 9BB2     		uxth	r3, r3
 911:Middlewares/lvgl/src/widgets/lv_btnmatrix.c ****                                                                                          BTN_EXTRA_
 641              		.loc 1 911 55 discriminator 1 view .LVU182
 642 01b4 1944     		add	r1, r1, r3
 643 01b6 ADF81410 		strh	r1, [sp, #20]	@ movhi
 644              	.L19:
 915:Middlewares/lvgl/src/widgets/lv_btnmatrix.c ****                                                                                           BTN_EXTRA
 645              		.loc 1 915 9 is_stmt 1 view .LVU183
 915:Middlewares/lvgl/src/widgets/lv_btnmatrix.c ****                                                                                           BTN_EXTRA
 646              		.loc 1 915 29 is_stmt 0 view .LVU184
 647 01ba 029B     		ldr	r3, [sp, #8]
 648 01bc DB1B     		subs	r3, r3, r7
 915:Middlewares/lvgl/src/widgets/lv_btnmatrix.c ****                                                                                           BTN_EXTRA
 649              		.loc 1 915 39 view .LVU185
 650 01be 023B     		subs	r3, r3, #2
 915:Middlewares/lvgl/src/widgets/lv_btnmatrix.c ****                                                                                           BTN_EXTRA
 651              		.loc 1 915 11 view .LVU186
 652 01c0 9A42     		cmp	r2, r3
 653 01c2 9EDB     		blt	.L20
 915:Middlewares/lvgl/src/widgets/lv_btnmatrix.c ****                                                                                           BTN_EXTRA
 654              		.loc 1 915 44 is_stmt 1 discriminator 1 view .LVU187
 915:Middlewares/lvgl/src/widgets/lv_btnmatrix.c ****                                                                                           BTN_EXTRA
 655              		.loc 1 915 68 is_stmt 0 discriminator 1 view .LVU188
 656 01c4 BDF81A30 		ldrh	r3, [sp, #26]
 915:Middlewares/lvgl/src/widgets/lv_btnmatrix.c ****                                                                                           BTN_EXTRA
 657              		.loc 1 915 74 discriminator 1 view .LVU189
 658 01c8 3946     		mov	r1, r7
 659 01ca 0D2F     		cmp	r7, #13
 660 01cc A8BF     		it	ge
 661 01ce 0D21     		movge	r1, #13
 662 01d0 89B2     		uxth	r1, r1
 915:Middlewares/lvgl/src/widgets/lv_btnmatrix.c ****                                                                                           BTN_EXTRA
 663              		.loc 1 915 72 discriminator 1 view .LVU190
 664 01d2 0B44     		add	r3, r3, r1
 665 01d4 9BB2     		uxth	r3, r3
 915:Middlewares/lvgl/src/widgets/lv_btnmatrix.c ****                                                                                           BTN_EXTRA
 666              		.loc 1 915 56 discriminator 1 view .LVU191
 667 01d6 1A44     		add	r2, r2, r3
 668 01d8 ADF81620 		strh	r2, [sp, #22]	@ movhi
 669 01dc 98E7     		b	.L21
 670              	.L22:
 920:Middlewares/lvgl/src/widgets/lv_btnmatrix.c ****             break;
 921:Middlewares/lvgl/src/widgets/lv_btnmatrix.c ****         }
 922:Middlewares/lvgl/src/widgets/lv_btnmatrix.c ****     }
 923:Middlewares/lvgl/src/widgets/lv_btnmatrix.c **** 
 924:Middlewares/lvgl/src/widgets/lv_btnmatrix.c ****     if(i == btnm->btn_cnt) i = LV_BTNMATRIX_BTN_NONE;
 671              		.loc 1 924 5 is_stmt 1 view .LVU192
 672              		.loc 1 924 17 is_stmt 0 view .LVU193
 673 01de 2B8E     		ldrh	r3, [r5, #48]
 674              		.loc 1 924 7 view .LVU194
ARM GAS  /tmp/ccnMQJLR.s 			page 34


 675 01e0 A342     		cmp	r3, r4
 676 01e2 03D0     		beq	.L27
 677              	.LVL55:
 678              	.L24:
 925:Middlewares/lvgl/src/widgets/lv_btnmatrix.c **** 
 926:Middlewares/lvgl/src/widgets/lv_btnmatrix.c ****     return i;
 679              		.loc 1 926 5 is_stmt 1 view .LVU195
 927:Middlewares/lvgl/src/widgets/lv_btnmatrix.c **** }
 680              		.loc 1 927 1 is_stmt 0 view .LVU196
 681 01e4 2046     		mov	r0, r4
 682 01e6 09B0     		add	sp, sp, #36
 683              	.LCFI2:
 684              		.cfi_remember_state
 685              		.cfi_def_cfa_offset 36
 686              		@ sp needed
 687 01e8 BDE8F08F 		pop	{r4, r5, r6, r7, r8, r9, r10, fp, pc}
 688              	.LVL56:
 689              	.L27:
 690              	.LCFI3:
 691              		.cfi_restore_state
 924:Middlewares/lvgl/src/widgets/lv_btnmatrix.c **** 
 692              		.loc 1 924 30 view .LVU197
 693 01ec 4FF6FF74 		movw	r4, #65535
 694              	.LVL57:
 924:Middlewares/lvgl/src/widgets/lv_btnmatrix.c **** 
 695              		.loc 1 924 30 view .LVU198
 696 01f0 F8E7     		b	.L24
 697              		.cfi_endproc
 698              	.LFE176:
 700              		.section	.text.invalidate_button_area,"ax",%progbits
 701              		.align	1
 702              		.syntax unified
 703              		.thumb
 704              		.thumb_func
 705              		.fpu softvfp
 707              	invalidate_button_area:
 708              	.LVL58:
 709              	.LFB177:
 928:Middlewares/lvgl/src/widgets/lv_btnmatrix.c **** 
 929:Middlewares/lvgl/src/widgets/lv_btnmatrix.c **** static void invalidate_button_area(const lv_obj_t * obj, uint16_t btn_idx)
 930:Middlewares/lvgl/src/widgets/lv_btnmatrix.c **** {
 710              		.loc 1 930 1 is_stmt 1 view -0
 711              		.cfi_startproc
 712              		@ args = 0, pretend = 0, frame = 16
 713              		@ frame_needed = 0, uses_anonymous_args = 0
 931:Middlewares/lvgl/src/widgets/lv_btnmatrix.c ****     if(btn_idx == LV_BTNMATRIX_BTN_NONE) return;
 714              		.loc 1 931 5 view .LVU200
 715              		.loc 1 931 7 is_stmt 0 view .LVU201
 716 0000 4FF6FF73 		movw	r3, #65535
 717 0004 9942     		cmp	r1, r3
 718 0006 61D0     		beq	.L32
 930:Middlewares/lvgl/src/widgets/lv_btnmatrix.c ****     if(btn_idx == LV_BTNMATRIX_BTN_NONE) return;
 719              		.loc 1 930 1 view .LVU202
 720 0008 70B5     		push	{r4, r5, r6, lr}
 721              	.LCFI4:
 722              		.cfi_def_cfa_offset 16
 723              		.cfi_offset 4, -16
ARM GAS  /tmp/ccnMQJLR.s 			page 35


 724              		.cfi_offset 5, -12
 725              		.cfi_offset 6, -8
 726              		.cfi_offset 14, -4
 727 000a 84B0     		sub	sp, sp, #16
 728              	.LCFI5:
 729              		.cfi_def_cfa_offset 32
 730 000c 0446     		mov	r4, r0
 932:Middlewares/lvgl/src/widgets/lv_btnmatrix.c **** 
 933:Middlewares/lvgl/src/widgets/lv_btnmatrix.c ****     lv_area_t btn_area;
 731              		.loc 1 933 5 is_stmt 1 view .LVU203
 934:Middlewares/lvgl/src/widgets/lv_btnmatrix.c ****     lv_area_t obj_area;
 732              		.loc 1 934 5 view .LVU204
 935:Middlewares/lvgl/src/widgets/lv_btnmatrix.c **** 
 936:Middlewares/lvgl/src/widgets/lv_btnmatrix.c ****     lv_btnmatrix_t * btnm = (lv_btnmatrix_t *)obj;;
 733              		.loc 1 936 5 view .LVU205
 734              	.LVL59:
 735              		.loc 1 936 51 view .LVU206
 937:Middlewares/lvgl/src/widgets/lv_btnmatrix.c ****     lv_area_copy(&btn_area, &btnm->button_areas[btn_idx]);
 736              		.loc 1 937 5 view .LVU207
 737              		.loc 1 937 34 is_stmt 0 view .LVU208
 738 000e 826A     		ldr	r2, [r0, #40]
 739              		.loc 1 937 29 view .LVU209
 740 0010 02EBC103 		add	r3, r2, r1, lsl #3
 741              	.LVL60:
 742              	.LBB89:
 743              	.LBI89:
 120:Middlewares/lvgl/src/widgets/../core/../misc/../font/../misc/lv_area.h **** {
 744              		.loc 3 120 20 is_stmt 1 view .LVU210
 745              	.LBB90:
 122:Middlewares/lvgl/src/widgets/../core/../misc/../font/../misc/lv_area.h ****     dest->y1 = src->y1;
 746              		.loc 3 122 5 view .LVU211
 122:Middlewares/lvgl/src/widgets/../core/../misc/../font/../misc/lv_area.h ****     dest->y1 = src->y1;
 747              		.loc 3 122 19 is_stmt 0 view .LVU212
 748 0014 32F93120 		ldrsh	r2, [r2, r1, lsl #3]
 122:Middlewares/lvgl/src/widgets/../core/../misc/../font/../misc/lv_area.h ****     dest->y1 = src->y1;
 749              		.loc 3 122 14 view .LVU213
 750 0018 ADF80820 		strh	r2, [sp, #8]	@ movhi
 123:Middlewares/lvgl/src/widgets/../core/../misc/../font/../misc/lv_area.h ****     dest->x2 = src->x2;
 751              		.loc 3 123 5 is_stmt 1 view .LVU214
 123:Middlewares/lvgl/src/widgets/../core/../misc/../font/../misc/lv_area.h ****     dest->x2 = src->x2;
 752              		.loc 3 123 19 is_stmt 0 view .LVU215
 753 001c B3F90220 		ldrsh	r2, [r3, #2]
 123:Middlewares/lvgl/src/widgets/../core/../misc/../font/../misc/lv_area.h ****     dest->x2 = src->x2;
 754              		.loc 3 123 14 view .LVU216
 755 0020 ADF80A20 		strh	r2, [sp, #10]	@ movhi
 124:Middlewares/lvgl/src/widgets/../core/../misc/../font/../misc/lv_area.h ****     dest->y2 = src->y2;
 756              		.loc 3 124 5 is_stmt 1 view .LVU217
 124:Middlewares/lvgl/src/widgets/../core/../misc/../font/../misc/lv_area.h ****     dest->y2 = src->y2;
 757              		.loc 3 124 19 is_stmt 0 view .LVU218
 758 0024 B3F90420 		ldrsh	r2, [r3, #4]
 124:Middlewares/lvgl/src/widgets/../core/../misc/../font/../misc/lv_area.h ****     dest->y2 = src->y2;
 759              		.loc 3 124 14 view .LVU219
 760 0028 ADF80C20 		strh	r2, [sp, #12]	@ movhi
 761              		.loc 3 125 5 is_stmt 1 view .LVU220
 762              		.loc 3 125 19 is_stmt 0 view .LVU221
 763 002c B3F90630 		ldrsh	r3, [r3, #6]
 764              	.LVL61:
ARM GAS  /tmp/ccnMQJLR.s 			page 36


 765              		.loc 3 125 14 view .LVU222
 766 0030 ADF80E30 		strh	r3, [sp, #14]	@ movhi
 767              	.LVL62:
 768              		.loc 3 125 14 view .LVU223
 769              	.LBE90:
 770              	.LBE89:
 938:Middlewares/lvgl/src/widgets/lv_btnmatrix.c ****     lv_obj_get_coords(obj, &obj_area);
 771              		.loc 1 938 5 is_stmt 1 view .LVU224
 772 0034 6946     		mov	r1, sp
 773              	.LVL63:
 774              		.loc 1 938 5 is_stmt 0 view .LVU225
 775 0036 FFF7FEFF 		bl	lv_obj_get_coords
 776              	.LVL64:
 939:Middlewares/lvgl/src/widgets/lv_btnmatrix.c **** 
 940:Middlewares/lvgl/src/widgets/lv_btnmatrix.c ****     /*The buttons might have outline and shadow so make the invalidation larger with the gaps betwe
 941:Middlewares/lvgl/src/widgets/lv_btnmatrix.c ****      *It assumes that the outline or shadow is smaller then the gaps*/
 942:Middlewares/lvgl/src/widgets/lv_btnmatrix.c ****     lv_coord_t row_gap = lv_obj_get_style_pad_row(obj, LV_PART_MAIN);
 777              		.loc 1 942 5 is_stmt 1 view .LVU226
 778              	.LBB91:
 779              	.LBI91:
 115:Middlewares/lvgl/src/widgets/../core/lv_obj_style_gen.h **** {
 780              		.loc 2 115 26 view .LVU227
 781              	.LBB92:
 117:Middlewares/lvgl/src/widgets/../core/lv_obj_style_gen.h ****     return (lv_coord_t)v.num;
 782              		.loc 2 117 5 view .LVU228
 117:Middlewares/lvgl/src/widgets/../core/lv_obj_style_gen.h ****     return (lv_coord_t)v.num;
 783              		.loc 2 117 26 is_stmt 0 view .LVU229
 784 003a 41F21402 		movw	r2, #4116
 785 003e 0021     		movs	r1, #0
 786 0040 2046     		mov	r0, r4
 787 0042 FFF7FEFF 		bl	lv_obj_get_style_prop
 788              	.LVL65:
 118:Middlewares/lvgl/src/widgets/../core/lv_obj_style_gen.h **** }
 789              		.loc 2 118 5 is_stmt 1 view .LVU230
 118:Middlewares/lvgl/src/widgets/../core/lv_obj_style_gen.h **** }
 790              		.loc 2 118 12 is_stmt 0 view .LVU231
 791 0046 05B2     		sxth	r5, r0
 792              	.LVL66:
 118:Middlewares/lvgl/src/widgets/../core/lv_obj_style_gen.h **** }
 793              		.loc 2 118 12 view .LVU232
 794              	.LBE92:
 795              	.LBE91:
 943:Middlewares/lvgl/src/widgets/lv_btnmatrix.c ****     lv_coord_t col_gap = lv_obj_get_style_pad_column(obj, LV_PART_MAIN);
 796              		.loc 1 943 5 is_stmt 1 view .LVU233
 797              	.LBB93:
 798              	.LBI93:
 121:Middlewares/lvgl/src/widgets/../core/lv_obj_style_gen.h **** {
 799              		.loc 2 121 26 view .LVU234
 800              	.LBB94:
 123:Middlewares/lvgl/src/widgets/../core/lv_obj_style_gen.h ****     return (lv_coord_t)v.num;
 801              		.loc 2 123 5 view .LVU235
 123:Middlewares/lvgl/src/widgets/../core/lv_obj_style_gen.h ****     return (lv_coord_t)v.num;
 802              		.loc 2 123 26 is_stmt 0 view .LVU236
 803 0048 41F21502 		movw	r2, #4117
 804 004c 0021     		movs	r1, #0
 805 004e 2046     		mov	r0, r4
 806 0050 FFF7FEFF 		bl	lv_obj_get_style_prop
ARM GAS  /tmp/ccnMQJLR.s 			page 37


 807              	.LVL67:
 808              		.loc 2 124 5 is_stmt 1 view .LVU237
 809              		.loc 2 124 12 is_stmt 0 view .LVU238
 810 0054 06B2     		sxth	r6, r0
 811              	.LVL68:
 812              		.loc 2 124 12 view .LVU239
 813              	.LBE94:
 814              	.LBE93:
 944:Middlewares/lvgl/src/widgets/lv_btnmatrix.c **** 
 945:Middlewares/lvgl/src/widgets/lv_btnmatrix.c ****     /*Be sure to have a minimal extra space if row/col_gap is small*/
 946:Middlewares/lvgl/src/widgets/lv_btnmatrix.c ****     lv_coord_t dpi = lv_disp_get_dpi(lv_obj_get_disp(obj));
 815              		.loc 1 946 5 is_stmt 1 view .LVU240
 816              		.loc 1 946 38 is_stmt 0 view .LVU241
 817 0056 2046     		mov	r0, r4
 818 0058 FFF7FEFF 		bl	lv_obj_get_disp
 819              	.LVL69:
 820              		.loc 1 946 22 view .LVU242
 821 005c FFF7FEFF 		bl	lv_disp_get_dpi
 822              	.LVL70:
 823 0060 0246     		mov	r2, r0
 824              	.LVL71:
 947:Middlewares/lvgl/src/widgets/lv_btnmatrix.c ****     row_gap = LV_MAX(row_gap, dpi / 10);
 825              		.loc 1 947 5 is_stmt 1 view .LVU243
 826              		.loc 1 947 15 is_stmt 0 view .LVU244
 827 0062 1B48     		ldr	r0, .L35
 828 0064 80FB0230 		smull	r3, r0, r0, r2
 829 0068 D317     		asrs	r3, r2, #31
 830 006a C3EBA003 		rsb	r3, r3, r0, asr #2
 831 006e 1BB2     		sxth	r3, r3
 832              		.loc 1 947 13 view .LVU245
 833 0070 9D42     		cmp	r5, r3
 834 0072 B8BF     		it	lt
 835 0074 1D46     		movlt	r5, r3
 836              	.LVL72:
 948:Middlewares/lvgl/src/widgets/lv_btnmatrix.c ****     col_gap = LV_MAX(col_gap, dpi / 10);
 837              		.loc 1 948 5 is_stmt 1 view .LVU246
 838              		.loc 1 948 13 is_stmt 0 view .LVU247
 839 0076 B342     		cmp	r3, r6
 840 0078 B8BF     		it	lt
 841 007a 3346     		movlt	r3, r6
 842              	.LVL73:
 949:Middlewares/lvgl/src/widgets/lv_btnmatrix.c **** 
 950:Middlewares/lvgl/src/widgets/lv_btnmatrix.c ****     /*Convert relative coordinates to absolute*/
 951:Middlewares/lvgl/src/widgets/lv_btnmatrix.c ****     btn_area.x1 += obj_area.x1 - row_gap;
 843              		.loc 1 951 5 is_stmt 1 view .LVU248
 844              		.loc 1 951 28 is_stmt 0 view .LVU249
 845 007c BDF80010 		ldrh	r1, [sp]
 846              		.loc 1 951 32 view .LVU250
 847 0080 A8B2     		uxth	r0, r5
 848 0082 0A1A     		subs	r2, r1, r0
 849              	.LVL74:
 850              		.loc 1 951 32 view .LVU251
 851 0084 92B2     		uxth	r2, r2
 852              		.loc 1 951 17 view .LVU252
 853 0086 BDF80850 		ldrh	r5, [sp, #8]
 854              	.LVL75:
 855              		.loc 1 951 17 view .LVU253
ARM GAS  /tmp/ccnMQJLR.s 			page 38


 856 008a 2A44     		add	r2, r2, r5
 857 008c ADF80820 		strh	r2, [sp, #8]	@ movhi
 952:Middlewares/lvgl/src/widgets/lv_btnmatrix.c ****     btn_area.y1 += obj_area.y1 - col_gap;
 858              		.loc 1 952 5 is_stmt 1 view .LVU254
 859              		.loc 1 952 28 is_stmt 0 view .LVU255
 860 0090 BDF80220 		ldrh	r2, [sp, #2]
 861              		.loc 1 952 32 view .LVU256
 862 0094 9BB2     		uxth	r3, r3
 863              		.loc 1 952 32 view .LVU257
 864 0096 D51A     		subs	r5, r2, r3
 865 0098 ADB2     		uxth	r5, r5
 866              		.loc 1 952 17 view .LVU258
 867 009a BDF80A60 		ldrh	r6, [sp, #10]
 868 009e 3544     		add	r5, r5, r6
 869 00a0 ADF80A50 		strh	r5, [sp, #10]	@ movhi
 953:Middlewares/lvgl/src/widgets/lv_btnmatrix.c ****     btn_area.x2 += obj_area.x1 + row_gap;
 870              		.loc 1 953 5 is_stmt 1 view .LVU259
 871              		.loc 1 953 32 is_stmt 0 view .LVU260
 872 00a4 0144     		add	r1, r1, r0
 873 00a6 89B2     		uxth	r1, r1
 874              		.loc 1 953 17 view .LVU261
 875 00a8 BDF80C00 		ldrh	r0, [sp, #12]
 876              	.LVL76:
 877              		.loc 1 953 17 view .LVU262
 878 00ac 0144     		add	r1, r1, r0
 879 00ae ADF80C10 		strh	r1, [sp, #12]	@ movhi
 954:Middlewares/lvgl/src/widgets/lv_btnmatrix.c ****     btn_area.y2 += obj_area.y1 + col_gap;
 880              		.loc 1 954 5 is_stmt 1 view .LVU263
 881              		.loc 1 954 32 is_stmt 0 view .LVU264
 882 00b2 1344     		add	r3, r3, r2
 883              	.LVL77:
 884              		.loc 1 954 32 view .LVU265
 885 00b4 9BB2     		uxth	r3, r3
 886              		.loc 1 954 17 view .LVU266
 887 00b6 BDF80E20 		ldrh	r2, [sp, #14]
 888 00ba 1344     		add	r3, r3, r2
 889 00bc ADF80E30 		strh	r3, [sp, #14]	@ movhi
 955:Middlewares/lvgl/src/widgets/lv_btnmatrix.c **** 
 956:Middlewares/lvgl/src/widgets/lv_btnmatrix.c ****     lv_obj_invalidate_area(obj, &btn_area);
 890              		.loc 1 956 5 is_stmt 1 view .LVU267
 891 00c0 02A9     		add	r1, sp, #8
 892 00c2 2046     		mov	r0, r4
 893 00c4 FFF7FEFF 		bl	lv_obj_invalidate_area
 894              	.LVL78:
 957:Middlewares/lvgl/src/widgets/lv_btnmatrix.c **** }
 895              		.loc 1 957 1 is_stmt 0 view .LVU268
 896 00c8 04B0     		add	sp, sp, #16
 897              	.LCFI6:
 898              		.cfi_def_cfa_offset 16
 899              		@ sp needed
 900 00ca 70BD     		pop	{r4, r5, r6, pc}
 901              	.LVL79:
 902              	.L32:
 903              	.LCFI7:
 904              		.cfi_def_cfa_offset 0
 905              		.cfi_restore 4
 906              		.cfi_restore 5
ARM GAS  /tmp/ccnMQJLR.s 			page 39


 907              		.cfi_restore 6
 908              		.cfi_restore 14
 909              		.loc 1 957 1 view .LVU269
 910 00cc 7047     		bx	lr
 911              	.L36:
 912 00ce 00BF     		.align	2
 913              	.L35:
 914 00d0 67666666 		.word	1717986919
 915              		.cfi_endproc
 916              	.LFE177:
 918              		.section	.rodata.draw_main.str1.4,"aMS",%progbits,1
 919              		.align	2
 920              	.LC0:
 921 0000 0A00     		.ascii	"\012\000"
 922              		.section	.text.draw_main,"ax",%progbits
 923              		.align	1
 924              		.syntax unified
 925              		.thumb
 926              		.thumb_func
 927              		.fpu softvfp
 929              	draw_main:
 930              	.LVL80:
 931              	.LFB165:
 630:Middlewares/lvgl/src/widgets/lv_btnmatrix.c ****     lv_obj_t * obj = lv_event_get_target(e);
 932              		.loc 1 630 1 is_stmt 1 view -0
 933              		.cfi_startproc
 934              		@ args = 0, pretend = 0, frame = 288
 935              		@ frame_needed = 0, uses_anonymous_args = 0
 630:Middlewares/lvgl/src/widgets/lv_btnmatrix.c ****     lv_obj_t * obj = lv_event_get_target(e);
 936              		.loc 1 630 1 is_stmt 0 view .LVU271
 937 0000 2DE9F04F 		push	{r4, r5, r6, r7, r8, r9, r10, fp, lr}
 938              	.LCFI8:
 939              		.cfi_def_cfa_offset 36
 940              		.cfi_offset 4, -36
 941              		.cfi_offset 5, -32
 942              		.cfi_offset 6, -28
 943              		.cfi_offset 7, -24
 944              		.cfi_offset 8, -20
 945              		.cfi_offset 9, -16
 946              		.cfi_offset 10, -12
 947              		.cfi_offset 11, -8
 948              		.cfi_offset 14, -4
 949 0004 CDB0     		sub	sp, sp, #308
 950              	.LCFI9:
 951              		.cfi_def_cfa_offset 344
 952 0006 0446     		mov	r4, r0
 631:Middlewares/lvgl/src/widgets/lv_btnmatrix.c ****     lv_btnmatrix_t * btnm = (lv_btnmatrix_t *)obj;
 953              		.loc 1 631 5 is_stmt 1 view .LVU272
 631:Middlewares/lvgl/src/widgets/lv_btnmatrix.c ****     lv_btnmatrix_t * btnm = (lv_btnmatrix_t *)obj;
 954              		.loc 1 631 22 is_stmt 0 view .LVU273
 955 0008 FFF7FEFF 		bl	lv_event_get_target
 956              	.LVL81:
 632:Middlewares/lvgl/src/widgets/lv_btnmatrix.c ****     if(btnm->btn_cnt == 0) return;
 957              		.loc 1 632 5 is_stmt 1 view .LVU274
 633:Middlewares/lvgl/src/widgets/lv_btnmatrix.c **** 
 958              		.loc 1 633 5 view .LVU275
 633:Middlewares/lvgl/src/widgets/lv_btnmatrix.c **** 
ARM GAS  /tmp/ccnMQJLR.s 			page 40


 959              		.loc 1 633 12 is_stmt 0 view .LVU276
 960 000c 038E     		ldrh	r3, [r0, #48]
 633:Middlewares/lvgl/src/widgets/lv_btnmatrix.c **** 
 961              		.loc 1 633 7 view .LVU277
 962 000e 13B9     		cbnz	r3, .L62
 963              	.LVL82:
 964              	.L37:
 777:Middlewares/lvgl/src/widgets/lv_btnmatrix.c **** /**
 965              		.loc 1 777 1 view .LVU278
 966 0010 4DB0     		add	sp, sp, #308
 967              	.LCFI10:
 968              		.cfi_remember_state
 969              		.cfi_def_cfa_offset 36
 970              		@ sp needed
 971 0012 BDE8F08F 		pop	{r4, r5, r6, r7, r8, r9, r10, fp, pc}
 972              	.LVL83:
 973              	.L62:
 974              	.LCFI11:
 975              		.cfi_restore_state
 777:Middlewares/lvgl/src/widgets/lv_btnmatrix.c **** /**
 976              		.loc 1 777 1 view .LVU279
 977 0016 0546     		mov	r5, r0
 635:Middlewares/lvgl/src/widgets/lv_btnmatrix.c ****     obj->skip_trans = 1;
 978              		.loc 1 635 5 is_stmt 1 view .LVU280
 635:Middlewares/lvgl/src/widgets/lv_btnmatrix.c ****     obj->skip_trans = 1;
 979              		.loc 1 635 35 is_stmt 0 view .LVU281
 980 0018 2046     		mov	r0, r4
 981              	.LVL84:
 635:Middlewares/lvgl/src/widgets/lv_btnmatrix.c ****     obj->skip_trans = 1;
 982              		.loc 1 635 35 view .LVU282
 983 001a FFF7FEFF 		bl	lv_event_get_param
 984              	.LVL85:
 985 001e 0746     		mov	r7, r0
 986 0020 0590     		str	r0, [sp, #20]
 987              	.LVL86:
 636:Middlewares/lvgl/src/widgets/lv_btnmatrix.c **** 
 988              		.loc 1 636 5 is_stmt 1 view .LVU283
 636:Middlewares/lvgl/src/widgets/lv_btnmatrix.c **** 
 989              		.loc 1 636 21 is_stmt 0 view .LVU284
 990 0022 95F82230 		ldrb	r3, [r5, #34]	@ zero_extendqisi2
 991 0026 43F00403 		orr	r3, r3, #4
 992 002a 85F82230 		strb	r3, [r5, #34]
 638:Middlewares/lvgl/src/widgets/lv_btnmatrix.c ****     lv_obj_get_coords(obj, &area_obj);
 993              		.loc 1 638 5 is_stmt 1 view .LVU285
 639:Middlewares/lvgl/src/widgets/lv_btnmatrix.c **** 
 994              		.loc 1 639 5 view .LVU286
 995 002e 4AA9     		add	r1, sp, #296
 996 0030 2846     		mov	r0, r5
 997              	.LVL87:
 639:Middlewares/lvgl/src/widgets/lv_btnmatrix.c **** 
 998              		.loc 1 639 5 is_stmt 0 view .LVU287
 999 0032 FFF7FEFF 		bl	lv_obj_get_coords
 1000              	.LVL88:
 641:Middlewares/lvgl/src/widgets/lv_btnmatrix.c **** 
 1001              		.loc 1 641 5 is_stmt 1 view .LVU288
 643:Middlewares/lvgl/src/widgets/lv_btnmatrix.c ****     uint16_t txt_i = 0;
 1002              		.loc 1 643 5 view .LVU289
ARM GAS  /tmp/ccnMQJLR.s 			page 41


 644:Middlewares/lvgl/src/widgets/lv_btnmatrix.c **** 
 1003              		.loc 1 644 5 view .LVU290
 646:Middlewares/lvgl/src/widgets/lv_btnmatrix.c ****     lv_draw_label_dsc_t draw_label_dsc_act;
 1004              		.loc 1 646 5 view .LVU291
 647:Middlewares/lvgl/src/widgets/lv_btnmatrix.c **** 
 1005              		.loc 1 647 5 view .LVU292
 649:Middlewares/lvgl/src/widgets/lv_btnmatrix.c ****     lv_draw_label_dsc_t draw_label_dsc_def;
 1006              		.loc 1 649 5 view .LVU293
 650:Middlewares/lvgl/src/widgets/lv_btnmatrix.c **** 
 1007              		.loc 1 650 5 view .LVU294
 653:Middlewares/lvgl/src/widgets/lv_btnmatrix.c ****     obj->state = LV_STATE_DEFAULT;
 1008              		.loc 1 653 5 view .LVU295
 653:Middlewares/lvgl/src/widgets/lv_btnmatrix.c ****     obj->state = LV_STATE_DEFAULT;
 1009              		.loc 1 653 16 is_stmt 0 view .LVU296
 1010 0036 2C8C     		ldrh	r4, [r5, #32]
 1011              	.LVL89:
 653:Middlewares/lvgl/src/widgets/lv_btnmatrix.c ****     obj->state = LV_STATE_DEFAULT;
 1012              		.loc 1 653 16 view .LVU297
 1013 0038 0494     		str	r4, [sp, #16]
 1014              	.LVL90:
 654:Middlewares/lvgl/src/widgets/lv_btnmatrix.c ****     obj->skip_trans = 1;
 1015              		.loc 1 654 5 is_stmt 1 view .LVU298
 654:Middlewares/lvgl/src/widgets/lv_btnmatrix.c ****     obj->skip_trans = 1;
 1016              		.loc 1 654 16 is_stmt 0 view .LVU299
 1017 003a 0026     		movs	r6, #0
 1018 003c 2E84     		strh	r6, [r5, #32]	@ movhi
 655:Middlewares/lvgl/src/widgets/lv_btnmatrix.c ****     lv_draw_rect_dsc_init(&draw_rect_dsc_def);
 1019              		.loc 1 655 5 is_stmt 1 view .LVU300
 655:Middlewares/lvgl/src/widgets/lv_btnmatrix.c ****     lv_draw_rect_dsc_init(&draw_rect_dsc_def);
 1020              		.loc 1 655 21 is_stmt 0 view .LVU301
 1021 003e 95F82230 		ldrb	r3, [r5, #34]	@ zero_extendqisi2
 1022 0042 43F00403 		orr	r3, r3, #4
 1023 0046 85F82230 		strb	r3, [r5, #34]
 656:Middlewares/lvgl/src/widgets/lv_btnmatrix.c ****     lv_draw_label_dsc_init(&draw_label_dsc_def);
 1024              		.loc 1 656 5 is_stmt 1 view .LVU302
 1025 004a 26A8     		add	r0, sp, #152
 1026 004c FFF7FEFF 		bl	lv_draw_rect_dsc_init
 1027              	.LVL91:
 657:Middlewares/lvgl/src/widgets/lv_btnmatrix.c ****     lv_obj_init_draw_rect_dsc(obj, LV_PART_ITEMS, &draw_rect_dsc_def);
 1028              		.loc 1 657 5 view .LVU303
 1029 0050 1EA8     		add	r0, sp, #120
 1030 0052 FFF7FEFF 		bl	lv_draw_label_dsc_init
 1031              	.LVL92:
 658:Middlewares/lvgl/src/widgets/lv_btnmatrix.c ****     lv_obj_init_draw_label_dsc(obj, LV_PART_ITEMS, &draw_label_dsc_def);
 1032              		.loc 1 658 5 view .LVU304
 1033 0056 26AA     		add	r2, sp, #152
 1034 0058 4FF4A021 		mov	r1, #327680
 1035 005c 2846     		mov	r0, r5
 1036 005e FFF7FEFF 		bl	lv_obj_init_draw_rect_dsc
 1037              	.LVL93:
 659:Middlewares/lvgl/src/widgets/lv_btnmatrix.c ****     obj->skip_trans = 0;
 1038              		.loc 1 659 5 view .LVU305
 1039 0062 1EAA     		add	r2, sp, #120
 1040 0064 4FF4A021 		mov	r1, #327680
 1041 0068 2846     		mov	r0, r5
 1042 006a FFF7FEFF 		bl	lv_obj_init_draw_label_dsc
 1043              	.LVL94:
ARM GAS  /tmp/ccnMQJLR.s 			page 42


 660:Middlewares/lvgl/src/widgets/lv_btnmatrix.c ****     obj->state = state_ori;
 1044              		.loc 1 660 5 view .LVU306
 660:Middlewares/lvgl/src/widgets/lv_btnmatrix.c ****     obj->state = state_ori;
 1045              		.loc 1 660 21 is_stmt 0 view .LVU307
 1046 006e 95F82230 		ldrb	r3, [r5, #34]	@ zero_extendqisi2
 1047 0072 66F38203 		bfi	r3, r6, #2, #1
 1048 0076 85F82230 		strb	r3, [r5, #34]
 661:Middlewares/lvgl/src/widgets/lv_btnmatrix.c **** 
 1049              		.loc 1 661 5 is_stmt 1 view .LVU308
 661:Middlewares/lvgl/src/widgets/lv_btnmatrix.c **** 
 1050              		.loc 1 661 16 is_stmt 0 view .LVU309
 1051 007a 2C84     		strh	r4, [r5, #32]	@ movhi
 663:Middlewares/lvgl/src/widgets/lv_btnmatrix.c ****     lv_coord_t pbottom = lv_obj_get_style_pad_bottom(obj, LV_PART_MAIN);
 1052              		.loc 1 663 5 is_stmt 1 view .LVU310
 1053              	.LVL95:
 1054              	.LBB95:
 1055              	.LBI95:
  91:Middlewares/lvgl/src/widgets/../core/lv_obj_style_gen.h **** {
 1056              		.loc 2 91 26 view .LVU311
 1057              	.LBB96:
  93:Middlewares/lvgl/src/widgets/../core/lv_obj_style_gen.h ****     return (lv_coord_t)v.num;
 1058              		.loc 2 93 5 view .LVU312
  93:Middlewares/lvgl/src/widgets/../core/lv_obj_style_gen.h ****     return (lv_coord_t)v.num;
 1059              		.loc 2 93 26 is_stmt 0 view .LVU313
 1060 007c 41F21002 		movw	r2, #4112
 1061 0080 3146     		mov	r1, r6
 1062 0082 2846     		mov	r0, r5
 1063 0084 FFF7FEFF 		bl	lv_obj_get_style_prop
 1064              	.LVL96:
  94:Middlewares/lvgl/src/widgets/../core/lv_obj_style_gen.h **** }
 1065              		.loc 2 94 5 is_stmt 1 view .LVU314
  94:Middlewares/lvgl/src/widgets/../core/lv_obj_style_gen.h **** }
 1066              		.loc 2 94 12 is_stmt 0 view .LVU315
 1067 0088 03B2     		sxth	r3, r0
 1068 008a 0993     		str	r3, [sp, #36]
 1069              	.LVL97:
  94:Middlewares/lvgl/src/widgets/../core/lv_obj_style_gen.h **** }
 1070              		.loc 2 94 12 view .LVU316
 1071              	.LBE96:
 1072              	.LBE95:
 664:Middlewares/lvgl/src/widgets/lv_btnmatrix.c ****     lv_coord_t pleft = lv_obj_get_style_pad_left(obj, LV_PART_MAIN);
 1073              		.loc 1 664 5 is_stmt 1 view .LVU317
 1074              	.LBB97:
 1075              	.LBI97:
  97:Middlewares/lvgl/src/widgets/../core/lv_obj_style_gen.h **** {
 1076              		.loc 2 97 26 view .LVU318
 1077              	.LBB98:
  99:Middlewares/lvgl/src/widgets/../core/lv_obj_style_gen.h ****     return (lv_coord_t)v.num;
 1078              		.loc 2 99 5 view .LVU319
  99:Middlewares/lvgl/src/widgets/../core/lv_obj_style_gen.h ****     return (lv_coord_t)v.num;
 1079              		.loc 2 99 26 is_stmt 0 view .LVU320
 1080 008c 41F21102 		movw	r2, #4113
 1081 0090 3146     		mov	r1, r6
 1082 0092 2846     		mov	r0, r5
 1083 0094 FFF7FEFF 		bl	lv_obj_get_style_prop
 1084              	.LVL98:
 100:Middlewares/lvgl/src/widgets/../core/lv_obj_style_gen.h **** }
ARM GAS  /tmp/ccnMQJLR.s 			page 43


 1085              		.loc 2 100 5 is_stmt 1 view .LVU321
 100:Middlewares/lvgl/src/widgets/../core/lv_obj_style_gen.h **** }
 1086              		.loc 2 100 12 is_stmt 0 view .LVU322
 1087 0098 03B2     		sxth	r3, r0
 1088 009a 0693     		str	r3, [sp, #24]
 1089              	.LVL99:
 100:Middlewares/lvgl/src/widgets/../core/lv_obj_style_gen.h **** }
 1090              		.loc 2 100 12 view .LVU323
 1091              	.LBE98:
 1092              	.LBE97:
 665:Middlewares/lvgl/src/widgets/lv_btnmatrix.c ****     lv_coord_t pright = lv_obj_get_style_pad_right(obj, LV_PART_MAIN);
 1093              		.loc 1 665 5 is_stmt 1 view .LVU324
 1094              	.LBB99:
 1095              	.LBI99:
 103:Middlewares/lvgl/src/widgets/../core/lv_obj_style_gen.h **** {
 1096              		.loc 2 103 26 view .LVU325
 1097              	.LBB100:
 105:Middlewares/lvgl/src/widgets/../core/lv_obj_style_gen.h ****     return (lv_coord_t)v.num;
 1098              		.loc 2 105 5 view .LVU326
 105:Middlewares/lvgl/src/widgets/../core/lv_obj_style_gen.h ****     return (lv_coord_t)v.num;
 1099              		.loc 2 105 26 is_stmt 0 view .LVU327
 1100 009c 41F21202 		movw	r2, #4114
 1101 00a0 3146     		mov	r1, r6
 1102 00a2 2846     		mov	r0, r5
 1103 00a4 FFF7FEFF 		bl	lv_obj_get_style_prop
 1104              	.LVL100:
 106:Middlewares/lvgl/src/widgets/../core/lv_obj_style_gen.h **** }
 1105              		.loc 2 106 5 is_stmt 1 view .LVU328
 106:Middlewares/lvgl/src/widgets/../core/lv_obj_style_gen.h **** }
 1106              		.loc 2 106 12 is_stmt 0 view .LVU329
 1107 00a8 03B2     		sxth	r3, r0
 1108 00aa 0793     		str	r3, [sp, #28]
 1109              	.LVL101:
 106:Middlewares/lvgl/src/widgets/../core/lv_obj_style_gen.h **** }
 1110              		.loc 2 106 12 view .LVU330
 1111              	.LBE100:
 1112              	.LBE99:
 666:Middlewares/lvgl/src/widgets/lv_btnmatrix.c **** 
 1113              		.loc 1 666 5 is_stmt 1 view .LVU331
 1114              	.LBB101:
 1115              	.LBI101:
 109:Middlewares/lvgl/src/widgets/../core/lv_obj_style_gen.h **** {
 1116              		.loc 2 109 26 view .LVU332
 1117              	.LBB102:
 111:Middlewares/lvgl/src/widgets/../core/lv_obj_style_gen.h ****     return (lv_coord_t)v.num;
 1118              		.loc 2 111 5 view .LVU333
 111:Middlewares/lvgl/src/widgets/../core/lv_obj_style_gen.h ****     return (lv_coord_t)v.num;
 1119              		.loc 2 111 26 is_stmt 0 view .LVU334
 1120 00ac 41F21302 		movw	r2, #4115
 1121 00b0 3146     		mov	r1, r6
 1122 00b2 2846     		mov	r0, r5
 1123 00b4 FFF7FEFF 		bl	lv_obj_get_style_prop
 1124              	.LVL102:
 112:Middlewares/lvgl/src/widgets/../core/lv_obj_style_gen.h **** }
 1125              		.loc 2 112 5 is_stmt 1 view .LVU335
 112:Middlewares/lvgl/src/widgets/../core/lv_obj_style_gen.h **** }
 1126              		.loc 2 112 12 is_stmt 0 view .LVU336
ARM GAS  /tmp/ccnMQJLR.s 			page 44


 1127 00b8 03B2     		sxth	r3, r0
 1128 00ba 0893     		str	r3, [sp, #32]
 1129              	.LVL103:
 112:Middlewares/lvgl/src/widgets/../core/lv_obj_style_gen.h **** }
 1130              		.loc 2 112 12 view .LVU337
 1131              	.LBE102:
 1132              	.LBE101:
 673:Middlewares/lvgl/src/widgets/lv_btnmatrix.c ****     lv_obj_draw_dsc_init(&dsc, clip_area);
 1133              		.loc 1 673 5 is_stmt 1 view .LVU338
 674:Middlewares/lvgl/src/widgets/lv_btnmatrix.c ****     dsc.part = LV_PART_ITEMS;
 1134              		.loc 1 674 5 view .LVU339
 1135 00bc 3946     		mov	r1, r7
 1136 00be 0CA8     		add	r0, sp, #48
 1137 00c0 FFF7FEFF 		bl	lv_obj_draw_dsc_init
 1138              	.LVL104:
 675:Middlewares/lvgl/src/widgets/lv_btnmatrix.c ****     dsc.rect_dsc = &draw_rect_dsc_act;
 1139              		.loc 1 675 5 view .LVU340
 675:Middlewares/lvgl/src/widgets/lv_btnmatrix.c ****     dsc.rect_dsc = &draw_rect_dsc_act;
 1140              		.loc 1 675 14 is_stmt 0 view .LVU341
 1141 00c4 4FF4A023 		mov	r3, #327680
 1142 00c8 1993     		str	r3, [sp, #100]
 676:Middlewares/lvgl/src/widgets/lv_btnmatrix.c ****     dsc.label_dsc = &draw_label_dsc_act;
 1143              		.loc 1 676 5 is_stmt 1 view .LVU342
 676:Middlewares/lvgl/src/widgets/lv_btnmatrix.c ****     dsc.label_dsc = &draw_label_dsc_act;
 1144              		.loc 1 676 18 is_stmt 0 view .LVU343
 1145 00ca 3BAB     		add	r3, sp, #236
 1146 00cc 0E93     		str	r3, [sp, #56]
 677:Middlewares/lvgl/src/widgets/lv_btnmatrix.c **** 
 1147              		.loc 1 677 5 is_stmt 1 view .LVU344
 677:Middlewares/lvgl/src/widgets/lv_btnmatrix.c **** 
 1148              		.loc 1 677 19 is_stmt 0 view .LVU345
 1149 00ce 33AB     		add	r3, sp, #204
 1150 00d0 0F93     		str	r3, [sp, #60]
 679:Middlewares/lvgl/src/widgets/lv_btnmatrix.c ****         /*Search the next valid text in the map*/
 1151              		.loc 1 679 5 is_stmt 1 view .LVU346
 644:Middlewares/lvgl/src/widgets/lv_btnmatrix.c **** 
 1152              		.loc 1 644 14 is_stmt 0 view .LVU347
 1153 00d2 3446     		mov	r4, r6
 1154              	.LVL105:
 679:Middlewares/lvgl/src/widgets/lv_btnmatrix.c ****         /*Search the next valid text in the map*/
 1155              		.loc 1 679 5 view .LVU348
 1156 00d4 FEE0     		b	.L40
 1157              	.LVL106:
 1158              	.L41:
 1159              	.LBB103:
 682:Middlewares/lvgl/src/widgets/lv_btnmatrix.c ****         }
 1160              		.loc 1 682 13 is_stmt 1 view .LVU349
 682:Middlewares/lvgl/src/widgets/lv_btnmatrix.c ****         }
 1161              		.loc 1 682 18 is_stmt 0 view .LVU350
 1162 00d6 0134     		adds	r4, r4, #1
 1163              	.LVL107:
 682:Middlewares/lvgl/src/widgets/lv_btnmatrix.c ****         }
 1164              		.loc 1 682 18 view .LVU351
 1165 00d8 A4B2     		uxth	r4, r4
 1166              	.LVL108:
 1167              	.L58:
 681:Middlewares/lvgl/src/widgets/lv_btnmatrix.c ****             txt_i++;
ARM GAS  /tmp/ccnMQJLR.s 			page 45


 1168              		.loc 1 681 14 is_stmt 1 view .LVU352
 681:Middlewares/lvgl/src/widgets/lv_btnmatrix.c ****             txt_i++;
 1169              		.loc 1 681 26 is_stmt 0 view .LVU353
 1170 00da 6B6A     		ldr	r3, [r5, #36]
 681:Middlewares/lvgl/src/widgets/lv_btnmatrix.c ****             txt_i++;
 1171              		.loc 1 681 33 view .LVU354
 1172 00dc A700     		lsls	r7, r4, #2
 681:Middlewares/lvgl/src/widgets/lv_btnmatrix.c ****             txt_i++;
 1173              		.loc 1 681 15 view .LVU355
 1174 00de BB49     		ldr	r1, .L68
 1175 00e0 53F82400 		ldr	r0, [r3, r4, lsl #2]
 1176 00e4 FFF7FEFF 		bl	strcmp
 1177              	.LVL109:
 681:Middlewares/lvgl/src/widgets/lv_btnmatrix.c ****             txt_i++;
 1178              		.loc 1 681 14 view .LVU356
 1179 00e8 0028     		cmp	r0, #0
 1180 00ea F4D0     		beq	.L41
 686:Middlewares/lvgl/src/widgets/lv_btnmatrix.c **** 
 1181              		.loc 1 686 9 is_stmt 1 view .LVU357
 686:Middlewares/lvgl/src/widgets/lv_btnmatrix.c **** 
 1182              		.loc 1 686 33 is_stmt 0 view .LVU358
 1183 00ec EB6A     		ldr	r3, [r5, #44]
 686:Middlewares/lvgl/src/widgets/lv_btnmatrix.c **** 
 1184              		.loc 1 686 44 view .LVU359
 1185 00ee B246     		mov	r10, r6
 1186 00f0 4FEA460B 		lsl	fp, r6, #1
 686:Middlewares/lvgl/src/widgets/lv_btnmatrix.c **** 
 1187              		.loc 1 686 12 view .LVU360
 1188 00f4 33F81680 		ldrh	r8, [r3, r6, lsl #1]
 1189 00f8 4046     		mov	r0, r8
 1190 00fa FFF7FEFF 		bl	button_is_hidden
 1191              	.LVL110:
 686:Middlewares/lvgl/src/widgets/lv_btnmatrix.c **** 
 1192              		.loc 1 686 11 view .LVU361
 1193 00fe 0028     		cmp	r0, #0
 1194 0100 40F0E480 		bne	.L43
 689:Middlewares/lvgl/src/widgets/lv_btnmatrix.c ****         if(button_get_checked(btnm->ctrl_bits[btn_i])) btn_state |= LV_STATE_CHECKED;
 1195              		.loc 1 689 9 is_stmt 1 view .LVU362
 1196              	.LVL111:
 690:Middlewares/lvgl/src/widgets/lv_btnmatrix.c ****         if(button_is_inactive(btnm->ctrl_bits[btn_i])) btn_state |= LV_STATE_DISABLED;
 1197              		.loc 1 690 9 view .LVU363
 690:Middlewares/lvgl/src/widgets/lv_btnmatrix.c ****         if(button_is_inactive(btnm->ctrl_bits[btn_i])) btn_state |= LV_STATE_DISABLED;
 1198              		.loc 1 690 12 is_stmt 0 view .LVU364
 1199 0104 4046     		mov	r0, r8
 1200 0106 FFF7FEFF 		bl	button_get_checked
 1201              	.LVL112:
 690:Middlewares/lvgl/src/widgets/lv_btnmatrix.c ****         if(button_is_inactive(btnm->ctrl_bits[btn_i])) btn_state |= LV_STATE_DISABLED;
 1202              		.loc 1 690 11 view .LVU365
 1203 010a 0028     		cmp	r0, #0
 1204 010c 40F0ED80 		bne	.L59
 689:Middlewares/lvgl/src/widgets/lv_btnmatrix.c ****         if(button_get_checked(btnm->ctrl_bits[btn_i])) btn_state |= LV_STATE_CHECKED;
 1205              		.loc 1 689 20 view .LVU366
 1206 0110 4FF00009 		mov	r9, #0
 1207              	.L44:
 1208              	.LVL113:
 691:Middlewares/lvgl/src/widgets/lv_btnmatrix.c ****         if(btn_i == btnm->btn_id_sel) {
 1209              		.loc 1 691 9 is_stmt 1 view .LVU367
ARM GAS  /tmp/ccnMQJLR.s 			page 46


 691:Middlewares/lvgl/src/widgets/lv_btnmatrix.c ****         if(btn_i == btnm->btn_id_sel) {
 1210              		.loc 1 691 12 is_stmt 0 view .LVU368
 1211 0114 4046     		mov	r0, r8
 1212 0116 FFF7FEFF 		bl	button_is_inactive
 1213              	.LVL114:
 691:Middlewares/lvgl/src/widgets/lv_btnmatrix.c ****         if(btn_i == btnm->btn_id_sel) {
 1214              		.loc 1 691 11 view .LVU369
 1215 011a 08B1     		cbz	r0, .L45
 691:Middlewares/lvgl/src/widgets/lv_btnmatrix.c ****         if(btn_i == btnm->btn_id_sel) {
 1216              		.loc 1 691 56 is_stmt 1 discriminator 1 view .LVU370
 691:Middlewares/lvgl/src/widgets/lv_btnmatrix.c ****         if(btn_i == btnm->btn_id_sel) {
 1217              		.loc 1 691 66 is_stmt 0 discriminator 1 view .LVU371
 1218 011c 49F08009 		orr	r9, r9, #128
 1219              	.LVL115:
 1220              	.L45:
 692:Middlewares/lvgl/src/widgets/lv_btnmatrix.c ****             if(state_ori & LV_STATE_PRESSED) btn_state |= LV_STATE_PRESSED;
 1221              		.loc 1 692 9 is_stmt 1 view .LVU372
 692:Middlewares/lvgl/src/widgets/lv_btnmatrix.c ****             if(state_ori & LV_STATE_PRESSED) btn_state |= LV_STATE_PRESSED;
 1222              		.loc 1 692 25 is_stmt 0 view .LVU373
 1223 0120 6B8E     		ldrh	r3, [r5, #50]
 692:Middlewares/lvgl/src/widgets/lv_btnmatrix.c ****             if(state_ori & LV_STATE_PRESSED) btn_state |= LV_STATE_PRESSED;
 1224              		.loc 1 692 11 view .LVU374
 1225 0122 B342     		cmp	r3, r6
 1226 0124 00F0E480 		beq	.L63
 1227              	.L46:
 700:Middlewares/lvgl/src/widgets/lv_btnmatrix.c ****         btn_area.x1 += area_obj.x1;
 1228              		.loc 1 700 9 is_stmt 1 view .LVU375
 700:Middlewares/lvgl/src/widgets/lv_btnmatrix.c ****         btn_area.x1 += area_obj.x1;
 1229              		.loc 1 700 38 is_stmt 0 view .LVU376
 1230 0128 AB6A     		ldr	r3, [r5, #40]
 700:Middlewares/lvgl/src/widgets/lv_btnmatrix.c ****         btn_area.x1 += area_obj.x1;
 1231              		.loc 1 700 33 view .LVU377
 1232 012a 03EBCA02 		add	r2, r3, r10, lsl #3
 1233              	.LVL116:
 1234              	.LBB104:
 1235              	.LBI104:
 120:Middlewares/lvgl/src/widgets/../core/../misc/../font/../misc/lv_area.h **** {
 1236              		.loc 3 120 20 is_stmt 1 view .LVU378
 1237              	.LBB105:
 122:Middlewares/lvgl/src/widgets/../core/../misc/../font/../misc/lv_area.h ****     dest->y1 = src->y1;
 1238              		.loc 3 122 5 view .LVU379
 122:Middlewares/lvgl/src/widgets/../core/../misc/../font/../misc/lv_area.h ****     dest->y1 = src->y1;
 1239              		.loc 3 122 19 is_stmt 0 view .LVU380
 1240 012e 33F93A30 		ldrsh	r3, [r3, r10, lsl #3]
 122:Middlewares/lvgl/src/widgets/../core/../misc/../font/../misc/lv_area.h ****     dest->y1 = src->y1;
 1241              		.loc 3 122 14 view .LVU381
 1242 0132 ADF82031 		strh	r3, [sp, #288]	@ movhi
 123:Middlewares/lvgl/src/widgets/../core/../misc/../font/../misc/lv_area.h ****     dest->x2 = src->x2;
 1243              		.loc 3 123 5 is_stmt 1 view .LVU382
 123:Middlewares/lvgl/src/widgets/../core/../misc/../font/../misc/lv_area.h ****     dest->x2 = src->x2;
 1244              		.loc 3 123 19 is_stmt 0 view .LVU383
 1245 0136 B2F90210 		ldrsh	r1, [r2, #2]
 123:Middlewares/lvgl/src/widgets/../core/../misc/../font/../misc/lv_area.h ****     dest->x2 = src->x2;
 1246              		.loc 3 123 14 view .LVU384
 1247 013a ADF82211 		strh	r1, [sp, #290]	@ movhi
 124:Middlewares/lvgl/src/widgets/../core/../misc/../font/../misc/lv_area.h ****     dest->y2 = src->y2;
 1248              		.loc 3 124 5 is_stmt 1 view .LVU385
ARM GAS  /tmp/ccnMQJLR.s 			page 47


 124:Middlewares/lvgl/src/widgets/../core/../misc/../font/../misc/lv_area.h ****     dest->y2 = src->y2;
 1249              		.loc 3 124 19 is_stmt 0 view .LVU386
 1250 013e B2F904C0 		ldrsh	ip, [r2, #4]
 124:Middlewares/lvgl/src/widgets/../core/../misc/../font/../misc/lv_area.h ****     dest->y2 = src->y2;
 1251              		.loc 3 124 14 view .LVU387
 1252 0142 ADF824C1 		strh	ip, [sp, #292]	@ movhi
 1253              		.loc 3 125 5 is_stmt 1 view .LVU388
 1254              		.loc 3 125 19 is_stmt 0 view .LVU389
 1255 0146 B2F90600 		ldrsh	r0, [r2, #6]
 1256              		.loc 3 125 14 view .LVU390
 1257 014a ADF82601 		strh	r0, [sp, #294]	@ movhi
 1258              	.LVL117:
 1259              		.loc 3 125 14 view .LVU391
 1260              	.LBE105:
 1261              	.LBE104:
 701:Middlewares/lvgl/src/widgets/lv_btnmatrix.c ****         btn_area.y1 += area_obj.y1;
 1262              		.loc 1 701 9 is_stmt 1 view .LVU392
 701:Middlewares/lvgl/src/widgets/lv_btnmatrix.c ****         btn_area.y1 += area_obj.y1;
 1263              		.loc 1 701 32 is_stmt 0 view .LVU393
 1264 014e BDF82821 		ldrh	r2, [sp, #296]
 701:Middlewares/lvgl/src/widgets/lv_btnmatrix.c ****         btn_area.y1 += area_obj.y1;
 1265              		.loc 1 701 21 view .LVU394
 1266 0152 1344     		add	r3, r3, r2
 1267 0154 ADF82031 		strh	r3, [sp, #288]	@ movhi
 702:Middlewares/lvgl/src/widgets/lv_btnmatrix.c ****         btn_area.x2 += area_obj.x1;
 1268              		.loc 1 702 9 is_stmt 1 view .LVU395
 702:Middlewares/lvgl/src/widgets/lv_btnmatrix.c ****         btn_area.x2 += area_obj.x1;
 1269              		.loc 1 702 32 is_stmt 0 view .LVU396
 1270 0158 BDF82A31 		ldrh	r3, [sp, #298]
 702:Middlewares/lvgl/src/widgets/lv_btnmatrix.c ****         btn_area.x2 += area_obj.x1;
 1271              		.loc 1 702 21 view .LVU397
 1272 015c 1944     		add	r1, r1, r3
 1273 015e ADF82211 		strh	r1, [sp, #290]	@ movhi
 703:Middlewares/lvgl/src/widgets/lv_btnmatrix.c ****         btn_area.y2 += area_obj.y1;
 1274              		.loc 1 703 9 is_stmt 1 view .LVU398
 703:Middlewares/lvgl/src/widgets/lv_btnmatrix.c ****         btn_area.y2 += area_obj.y1;
 1275              		.loc 1 703 21 is_stmt 0 view .LVU399
 1276 0162 6244     		add	r2, r2, ip
 1277 0164 ADF82421 		strh	r2, [sp, #292]	@ movhi
 704:Middlewares/lvgl/src/widgets/lv_btnmatrix.c **** 
 1278              		.loc 1 704 9 is_stmt 1 view .LVU400
 704:Middlewares/lvgl/src/widgets/lv_btnmatrix.c **** 
 1279              		.loc 1 704 21 is_stmt 0 view .LVU401
 1280 0168 0344     		add	r3, r3, r0
 1281 016a ADF82631 		strh	r3, [sp, #294]	@ movhi
 707:Middlewares/lvgl/src/widgets/lv_btnmatrix.c ****             lv_memcpy(&draw_rect_dsc_act, &draw_rect_dsc_def, sizeof(lv_draw_rect_dsc_t));
 1282              		.loc 1 707 9 is_stmt 1 view .LVU402
 707:Middlewares/lvgl/src/widgets/lv_btnmatrix.c ****             lv_memcpy(&draw_rect_dsc_act, &draw_rect_dsc_def, sizeof(lv_draw_rect_dsc_t));
 1283              		.loc 1 707 11 is_stmt 0 view .LVU403
 1284 016e B9F1000F 		cmp	r9, #0
 1285 0172 40F0D780 		bne	.L50
 708:Middlewares/lvgl/src/widgets/lv_btnmatrix.c ****             lv_memcpy(&draw_label_dsc_act, &draw_label_dsc_def, sizeof(lv_draw_label_dsc_t));
 1286              		.loc 1 708 13 is_stmt 1 view .LVU404
 1287 0176 3422     		movs	r2, #52
 1288 0178 26A9     		add	r1, sp, #152
 1289 017a 3BA8     		add	r0, sp, #236
 1290 017c FFF7FEFF 		bl	lv_memcpy
ARM GAS  /tmp/ccnMQJLR.s 			page 48


 1291              	.LVL118:
 709:Middlewares/lvgl/src/widgets/lv_btnmatrix.c ****         }
 1292              		.loc 1 709 13 view .LVU405
 1293 0180 2022     		movs	r2, #32
 1294 0182 1EA9     		add	r1, sp, #120
 1295 0184 33A8     		add	r0, sp, #204
 1296 0186 FFF7FEFF 		bl	lv_memcpy
 1297              	.LVL119:
 1298              	.L51:
 723:Middlewares/lvgl/src/widgets/lv_btnmatrix.c ****         if(recolor) draw_label_dsc_act.flag |= LV_TEXT_FLAG_RECOLOR;
 1299              		.loc 1 723 9 view .LVU406
 723:Middlewares/lvgl/src/widgets/lv_btnmatrix.c ****         if(recolor) draw_label_dsc_act.flag |= LV_TEXT_FLAG_RECOLOR;
 1300              		.loc 1 723 46 is_stmt 0 view .LVU407
 1301 018a EB6A     		ldr	r3, [r5, #44]
 723:Middlewares/lvgl/src/widgets/lv_btnmatrix.c ****         if(recolor) draw_label_dsc_act.flag |= LV_TEXT_FLAG_RECOLOR;
 1302              		.loc 1 723 24 view .LVU408
 1303 018c 33F80B00 		ldrh	r0, [r3, fp]
 1304 0190 FFF7FEFF 		bl	button_is_recolor
 1305              	.LVL120:
 724:Middlewares/lvgl/src/widgets/lv_btnmatrix.c ****         else draw_label_dsc_act.flag &= ~LV_TEXT_FLAG_RECOLOR;
 1306              		.loc 1 724 9 is_stmt 1 view .LVU409
 724:Middlewares/lvgl/src/widgets/lv_btnmatrix.c ****         else draw_label_dsc_act.flag &= ~LV_TEXT_FLAG_RECOLOR;
 1307              		.loc 1 724 11 is_stmt 0 view .LVU410
 1308 0194 0028     		cmp	r0, #0
 1309 0196 00F0E880 		beq	.L52
 724:Middlewares/lvgl/src/widgets/lv_btnmatrix.c ****         else draw_label_dsc_act.flag &= ~LV_TEXT_FLAG_RECOLOR;
 1310              		.loc 1 724 21 is_stmt 1 discriminator 1 view .LVU411
 724:Middlewares/lvgl/src/widgets/lv_btnmatrix.c ****         else draw_label_dsc_act.flag &= ~LV_TEXT_FLAG_RECOLOR;
 1311              		.loc 1 724 45 is_stmt 0 discriminator 1 view .LVU412
 1312 019a 9DF8E830 		ldrb	r3, [sp, #232]	@ zero_extendqisi2
 1313 019e 43F00103 		orr	r3, r3, #1
 1314 01a2 8DF8E830 		strb	r3, [sp, #232]
 1315              	.L53:
 728:Middlewares/lvgl/src/widgets/lv_btnmatrix.c ****         dsc.id = btn_i;
 1316              		.loc 1 728 9 is_stmt 1 view .LVU413
 728:Middlewares/lvgl/src/widgets/lv_btnmatrix.c ****         dsc.id = btn_i;
 1317              		.loc 1 728 23 is_stmt 0 view .LVU414
 1318 01a6 48AB     		add	r3, sp, #288
 1319 01a8 0D93     		str	r3, [sp, #52]
 729:Middlewares/lvgl/src/widgets/lv_btnmatrix.c ****         lv_event_send(obj,LV_EVENT_DRAW_PART_BEGIN, &dsc);
 1320              		.loc 1 729 9 is_stmt 1 view .LVU415
 729:Middlewares/lvgl/src/widgets/lv_btnmatrix.c ****         lv_event_send(obj,LV_EVENT_DRAW_PART_BEGIN, &dsc);
 1321              		.loc 1 729 16 is_stmt 0 view .LVU416
 1322 01aa CDF868A0 		str	r10, [sp, #104]
 730:Middlewares/lvgl/src/widgets/lv_btnmatrix.c **** 
 1323              		.loc 1 730 9 is_stmt 1 view .LVU417
 1324 01ae 0CAA     		add	r2, sp, #48
 1325 01b0 1A21     		movs	r1, #26
 1326 01b2 2846     		mov	r0, r5
 1327              	.LVL121:
 730:Middlewares/lvgl/src/widgets/lv_btnmatrix.c **** 
 1328              		.loc 1 730 9 is_stmt 0 view .LVU418
 1329 01b4 FFF7FEFF 		bl	lv_event_send
 1330              	.LVL122:
 733:Middlewares/lvgl/src/widgets/lv_btnmatrix.c ****             draw_rect_dsc_act.border_side = LV_BORDER_SIDE_FULL;
 1331              		.loc 1 733 9 is_stmt 1 view .LVU419
 733:Middlewares/lvgl/src/widgets/lv_btnmatrix.c ****             draw_rect_dsc_act.border_side = LV_BORDER_SIDE_FULL;
ARM GAS  /tmp/ccnMQJLR.s 			page 49


 1332              		.loc 1 733 29 is_stmt 0 view .LVU420
 1333 01b8 9DF80B31 		ldrb	r3, [sp, #267]	@ zero_extendqisi2
 733:Middlewares/lvgl/src/widgets/lv_btnmatrix.c ****             draw_rect_dsc_act.border_side = LV_BORDER_SIDE_FULL;
 1334              		.loc 1 733 11 view .LVU421
 1335 01bc 13F0200F 		tst	r3, #32
 1336 01c0 2AD0     		beq	.L54
 734:Middlewares/lvgl/src/widgets/lv_btnmatrix.c ****             if(btn_area.x1 == obj->coords.x1 + pleft) draw_rect_dsc_act.border_side &= ~LV_BORDER_S
 1337              		.loc 1 734 13 is_stmt 1 view .LVU422
 734:Middlewares/lvgl/src/widgets/lv_btnmatrix.c ****             if(btn_area.x1 == obj->coords.x1 + pleft) draw_rect_dsc_act.border_side &= ~LV_BORDER_S
 1338              		.loc 1 734 43 is_stmt 0 view .LVU423
 1339 01c2 9DF80B31 		ldrb	r3, [sp, #267]	@ zero_extendqisi2
 1340 01c6 0F22     		movs	r2, #15
 1341 01c8 62F34503 		bfi	r3, r2, #1, #5
 1342 01cc 8DF80B31 		strb	r3, [sp, #267]
 735:Middlewares/lvgl/src/widgets/lv_btnmatrix.c ****             if(btn_area.x2 == obj->coords.x2 - pright) draw_rect_dsc_act.border_side &= ~LV_BORDER_
 1343              		.loc 1 735 13 is_stmt 1 view .LVU424
 735:Middlewares/lvgl/src/widgets/lv_btnmatrix.c ****             if(btn_area.x2 == obj->coords.x2 - pright) draw_rect_dsc_act.border_side &= ~LV_BORDER_
 1344              		.loc 1 735 24 is_stmt 0 view .LVU425
 1345 01d0 BDF92021 		ldrsh	r2, [sp, #288]
 735:Middlewares/lvgl/src/widgets/lv_btnmatrix.c ****             if(btn_area.x2 == obj->coords.x2 - pright) draw_rect_dsc_act.border_side &= ~LV_BORDER_
 1346              		.loc 1 735 42 view .LVU426
 1347 01d4 B5F91430 		ldrsh	r3, [r5, #20]
 735:Middlewares/lvgl/src/widgets/lv_btnmatrix.c ****             if(btn_area.x2 == obj->coords.x2 - pright) draw_rect_dsc_act.border_side &= ~LV_BORDER_
 1348              		.loc 1 735 46 view .LVU427
 1349 01d8 0799     		ldr	r1, [sp, #28]
 1350 01da 0B44     		add	r3, r3, r1
 735:Middlewares/lvgl/src/widgets/lv_btnmatrix.c ****             if(btn_area.x2 == obj->coords.x2 - pright) draw_rect_dsc_act.border_side &= ~LV_BORDER_
 1351              		.loc 1 735 15 view .LVU428
 1352 01dc 9A42     		cmp	r2, r3
 1353 01de 00F0CB80 		beq	.L64
 1354              	.L55:
 736:Middlewares/lvgl/src/widgets/lv_btnmatrix.c ****             if(btn_area.y1 == obj->coords.y1 + ptop) draw_rect_dsc_act.border_side &= ~LV_BORDER_SI
 1355              		.loc 1 736 13 is_stmt 1 view .LVU429
 736:Middlewares/lvgl/src/widgets/lv_btnmatrix.c ****             if(btn_area.y1 == obj->coords.y1 + ptop) draw_rect_dsc_act.border_side &= ~LV_BORDER_SI
 1356              		.loc 1 736 24 is_stmt 0 view .LVU430
 1357 01e2 BDF92421 		ldrsh	r2, [sp, #292]
 736:Middlewares/lvgl/src/widgets/lv_btnmatrix.c ****             if(btn_area.y1 == obj->coords.y1 + ptop) draw_rect_dsc_act.border_side &= ~LV_BORDER_SI
 1358              		.loc 1 736 42 view .LVU431
 1359 01e6 B5F91830 		ldrsh	r3, [r5, #24]
 736:Middlewares/lvgl/src/widgets/lv_btnmatrix.c ****             if(btn_area.y1 == obj->coords.y1 + ptop) draw_rect_dsc_act.border_side &= ~LV_BORDER_SI
 1360              		.loc 1 736 46 view .LVU432
 1361 01ea 0899     		ldr	r1, [sp, #32]
 1362 01ec 5B1A     		subs	r3, r3, r1
 736:Middlewares/lvgl/src/widgets/lv_btnmatrix.c ****             if(btn_area.y1 == obj->coords.y1 + ptop) draw_rect_dsc_act.border_side &= ~LV_BORDER_SI
 1363              		.loc 1 736 15 view .LVU433
 1364 01ee 9A42     		cmp	r2, r3
 1365 01f0 00F0CA80 		beq	.L65
 1366              	.L56:
 737:Middlewares/lvgl/src/widgets/lv_btnmatrix.c ****             if(btn_area.y2 == obj->coords.y2 - pbottom) draw_rect_dsc_act.border_side &= ~LV_BORDER
 1367              		.loc 1 737 13 is_stmt 1 view .LVU434
 737:Middlewares/lvgl/src/widgets/lv_btnmatrix.c ****             if(btn_area.y2 == obj->coords.y2 - pbottom) draw_rect_dsc_act.border_side &= ~LV_BORDER
 1368              		.loc 1 737 24 is_stmt 0 view .LVU435
 1369 01f4 BDF92221 		ldrsh	r2, [sp, #290]
 737:Middlewares/lvgl/src/widgets/lv_btnmatrix.c ****             if(btn_area.y2 == obj->coords.y2 - pbottom) draw_rect_dsc_act.border_side &= ~LV_BORDER
 1370              		.loc 1 737 42 view .LVU436
 1371 01f8 B5F91630 		ldrsh	r3, [r5, #22]
 737:Middlewares/lvgl/src/widgets/lv_btnmatrix.c ****             if(btn_area.y2 == obj->coords.y2 - pbottom) draw_rect_dsc_act.border_side &= ~LV_BORDER
ARM GAS  /tmp/ccnMQJLR.s 			page 50


 1372              		.loc 1 737 46 view .LVU437
 1373 01fc 0999     		ldr	r1, [sp, #36]
 1374 01fe 0B44     		add	r3, r3, r1
 737:Middlewares/lvgl/src/widgets/lv_btnmatrix.c ****             if(btn_area.y2 == obj->coords.y2 - pbottom) draw_rect_dsc_act.border_side &= ~LV_BORDER
 1375              		.loc 1 737 15 view .LVU438
 1376 0200 9A42     		cmp	r2, r3
 1377 0202 00F0CC80 		beq	.L66
 1378              	.L57:
 738:Middlewares/lvgl/src/widgets/lv_btnmatrix.c ****         }
 1379              		.loc 1 738 13 is_stmt 1 view .LVU439
 738:Middlewares/lvgl/src/widgets/lv_btnmatrix.c ****         }
 1380              		.loc 1 738 24 is_stmt 0 view .LVU440
 1381 0206 BDF92621 		ldrsh	r2, [sp, #294]
 738:Middlewares/lvgl/src/widgets/lv_btnmatrix.c ****         }
 1382              		.loc 1 738 42 view .LVU441
 1383 020a B5F91A30 		ldrsh	r3, [r5, #26]
 738:Middlewares/lvgl/src/widgets/lv_btnmatrix.c ****         }
 1384              		.loc 1 738 46 view .LVU442
 1385 020e 0699     		ldr	r1, [sp, #24]
 1386 0210 5B1A     		subs	r3, r3, r1
 738:Middlewares/lvgl/src/widgets/lv_btnmatrix.c ****         }
 1387              		.loc 1 738 15 view .LVU443
 1388 0212 9A42     		cmp	r2, r3
 1389 0214 00F0CE80 		beq	.L67
 1390              	.L54:
 742:Middlewares/lvgl/src/widgets/lv_btnmatrix.c **** 
 1391              		.loc 1 742 9 is_stmt 1 view .LVU444
 1392 0218 3BAA     		add	r2, sp, #236
 1393 021a DDF81480 		ldr	r8, [sp, #20]
 1394 021e 4146     		mov	r1, r8
 1395 0220 48A8     		add	r0, sp, #288
 1396 0222 FFF7FEFF 		bl	lv_draw_rect
 1397              	.LVL123:
 745:Middlewares/lvgl/src/widgets/lv_btnmatrix.c ****         lv_coord_t letter_space = draw_label_dsc_act.letter_space;
 1398              		.loc 1 745 9 view .LVU445
 746:Middlewares/lvgl/src/widgets/lv_btnmatrix.c ****         lv_coord_t line_space = draw_label_dsc_act.line_space;
 1399              		.loc 1 746 9 view .LVU446
 747:Middlewares/lvgl/src/widgets/lv_btnmatrix.c ****         const char * txt = btnm->map_p[txt_i];
 1400              		.loc 1 747 9 view .LVU447
 747:Middlewares/lvgl/src/widgets/lv_btnmatrix.c ****         const char * txt = btnm->map_p[txt_i];
 1401              		.loc 1 747 20 is_stmt 0 view .LVU448
 1402 0226 BDF9DE20 		ldrsh	r2, [sp, #222]
 1403              	.LVL124:
 748:Middlewares/lvgl/src/widgets/lv_btnmatrix.c **** 
 1404              		.loc 1 748 9 is_stmt 1 view .LVU449
 748:Middlewares/lvgl/src/widgets/lv_btnmatrix.c **** 
 1405              		.loc 1 748 32 is_stmt 0 view .LVU450
 1406 022a 6B6A     		ldr	r3, [r5, #36]
 748:Middlewares/lvgl/src/widgets/lv_btnmatrix.c **** 
 1407              		.loc 1 748 22 view .LVU451
 1408 022c DF59     		ldr	r7, [r3, r7]
 1409              	.LVL125:
 758:Middlewares/lvgl/src/widgets/lv_btnmatrix.c ****         lv_txt_get_size(&txt_size, txt, font, letter_space,
 1410              		.loc 1 758 9 is_stmt 1 view .LVU452
 759:Middlewares/lvgl/src/widgets/lv_btnmatrix.c ****                 line_space, lv_area_get_width(&area_obj), draw_label_dsc_act.flag);
 1411              		.loc 1 759 9 view .LVU453
 1412              	.LBB106:
ARM GAS  /tmp/ccnMQJLR.s 			page 51


 1413              	.LBI106:
 126:Middlewares/lvgl/src/widgets/../core/../misc/../font/../misc/lv_area.h **** }
 127:Middlewares/lvgl/src/widgets/../core/../misc/../font/../misc/lv_area.h **** 
 128:Middlewares/lvgl/src/widgets/../core/../misc/../font/../misc/lv_area.h **** /**
 129:Middlewares/lvgl/src/widgets/../core/../misc/../font/../misc/lv_area.h ****  * Get the width of an area
 130:Middlewares/lvgl/src/widgets/../core/../misc/../font/../misc/lv_area.h ****  * @param area_p pointer to an area
 131:Middlewares/lvgl/src/widgets/../core/../misc/../font/../misc/lv_area.h ****  * @return the width of the area (if x1 == x2 -> width = 1)
 132:Middlewares/lvgl/src/widgets/../core/../misc/../font/../misc/lv_area.h ****  */
 133:Middlewares/lvgl/src/widgets/../core/../misc/../font/../misc/lv_area.h **** static inline lv_coord_t lv_area_get_width(const lv_area_t * area_p)
 1414              		.loc 3 133 26 view .LVU454
 1415              	.LBB107:
 134:Middlewares/lvgl/src/widgets/../core/../misc/../font/../misc/lv_area.h **** {
 135:Middlewares/lvgl/src/widgets/../core/../misc/../font/../misc/lv_area.h ****     return (lv_coord_t)(area_p->x2 - area_p->x1 + 1);
 1416              		.loc 3 135 5 view .LVU455
 1417              		.loc 3 135 31 is_stmt 0 view .LVU456
 1418 022e BDF82C31 		ldrh	r3, [sp, #300]
 1419              		.loc 3 135 44 view .LVU457
 1420 0232 BDF82811 		ldrh	r1, [sp, #296]
 1421              		.loc 3 135 36 view .LVU458
 1422 0236 5B1A     		subs	r3, r3, r1
 1423 0238 9BB2     		uxth	r3, r3
 1424              		.loc 3 135 49 view .LVU459
 1425 023a 0133     		adds	r3, r3, #1
 1426              		.loc 3 135 12 view .LVU460
 1427 023c 1BB2     		sxth	r3, r3
 1428              	.LVL126:
 1429              		.loc 3 135 12 view .LVU461
 1430              	.LBE107:
 1431              	.LBE106:
 759:Middlewares/lvgl/src/widgets/lv_btnmatrix.c ****                 line_space, lv_area_get_width(&area_obj), draw_label_dsc_act.flag);
 1432              		.loc 1 759 9 view .LVU462
 1433 023e 9DF8E810 		ldrb	r1, [sp, #232]	@ zero_extendqisi2
 1434 0242 0291     		str	r1, [sp, #8]
 1435 0244 0193     		str	r3, [sp, #4]
 1436 0246 0092     		str	r2, [sp]
 1437 0248 BDF9E030 		ldrsh	r3, [sp, #224]
 1438 024c 339A     		ldr	r2, [sp, #204]
 1439              	.LVL127:
 759:Middlewares/lvgl/src/widgets/lv_btnmatrix.c ****                 line_space, lv_area_get_width(&area_obj), draw_label_dsc_act.flag);
 1440              		.loc 1 759 9 view .LVU463
 1441 024e 3946     		mov	r1, r7
 1442 0250 0BA8     		add	r0, sp, #44
 1443 0252 FFF7FEFF 		bl	lv_txt_get_size
 1444              	.LVL128:
 762:Middlewares/lvgl/src/widgets/lv_btnmatrix.c ****         btn_area.y1 += (lv_area_get_height(&btn_area) - txt_size.y) / 2;
 1445              		.loc 1 762 9 is_stmt 1 view .LVU464
 1446              	.LBB108:
 1447              	.LBI108:
 133:Middlewares/lvgl/src/widgets/../core/../misc/../font/../misc/lv_area.h **** {
 1448              		.loc 3 133 26 view .LVU465
 1449              	.LBB109:
 1450              		.loc 3 135 5 view .LVU466
 1451              		.loc 3 135 31 is_stmt 0 view .LVU467
 1452 0256 BDF82431 		ldrh	r3, [sp, #292]
 1453              		.loc 3 135 44 view .LVU468
 1454 025a BDF82011 		ldrh	r1, [sp, #288]
 1455              		.loc 3 135 36 view .LVU469
ARM GAS  /tmp/ccnMQJLR.s 			page 52


 1456 025e 5B1A     		subs	r3, r3, r1
 1457 0260 9BB2     		uxth	r3, r3
 1458              		.loc 3 135 49 view .LVU470
 1459 0262 0133     		adds	r3, r3, #1
 1460              		.loc 3 135 12 view .LVU471
 1461 0264 1BB2     		sxth	r3, r3
 1462              	.LVL129:
 1463              		.loc 3 135 12 view .LVU472
 1464              	.LBE109:
 1465              	.LBE108:
 762:Middlewares/lvgl/src/widgets/lv_btnmatrix.c ****         btn_area.y1 += (lv_area_get_height(&btn_area) - txt_size.y) / 2;
 1466              		.loc 1 762 64 view .LVU473
 1467 0266 BDF92CC0 		ldrsh	ip, [sp, #44]
 762:Middlewares/lvgl/src/widgets/lv_btnmatrix.c ****         btn_area.y1 += (lv_area_get_height(&btn_area) - txt_size.y) / 2;
 1468              		.loc 1 762 54 view .LVU474
 1469 026a A3EB0C03 		sub	r3, r3, ip
 762:Middlewares/lvgl/src/widgets/lv_btnmatrix.c ****         btn_area.y1 += (lv_area_get_height(&btn_area) - txt_size.y) / 2;
 1470              		.loc 1 762 68 view .LVU475
 1471 026e 03EBD373 		add	r3, r3, r3, lsr #31
 762:Middlewares/lvgl/src/widgets/lv_btnmatrix.c ****         btn_area.y1 += (lv_area_get_height(&btn_area) - txt_size.y) / 2;
 1472              		.loc 1 762 21 view .LVU476
 1473 0272 01EB6301 		add	r1, r1, r3, asr #1
 1474 0276 89B2     		uxth	r1, r1
 1475 0278 ADF82011 		strh	r1, [sp, #288]	@ movhi
 763:Middlewares/lvgl/src/widgets/lv_btnmatrix.c ****         btn_area.x2 = btn_area.x1 + txt_size.x;
 1476              		.loc 1 763 9 is_stmt 1 view .LVU477
 1477              	.LVL130:
 1478              	.LBB110:
 1479              	.LBI110:
 136:Middlewares/lvgl/src/widgets/../core/../misc/../font/../misc/lv_area.h **** }
 137:Middlewares/lvgl/src/widgets/../core/../misc/../font/../misc/lv_area.h **** 
 138:Middlewares/lvgl/src/widgets/../core/../misc/../font/../misc/lv_area.h **** /**
 139:Middlewares/lvgl/src/widgets/../core/../misc/../font/../misc/lv_area.h ****  * Get the height of an area
 140:Middlewares/lvgl/src/widgets/../core/../misc/../font/../misc/lv_area.h ****  * @param area_p pointer to an area
 141:Middlewares/lvgl/src/widgets/../core/../misc/../font/../misc/lv_area.h ****  * @return the height of the area (if y1 == y2 -> height = 1)
 142:Middlewares/lvgl/src/widgets/../core/../misc/../font/../misc/lv_area.h ****  */
 143:Middlewares/lvgl/src/widgets/../core/../misc/../font/../misc/lv_area.h **** static inline lv_coord_t lv_area_get_height(const lv_area_t * area_p)
 1480              		.loc 3 143 26 view .LVU478
 1481              	.LBB111:
 144:Middlewares/lvgl/src/widgets/../core/../misc/../font/../misc/lv_area.h **** {
 145:Middlewares/lvgl/src/widgets/../core/../misc/../font/../misc/lv_area.h ****     return (lv_coord_t)(area_p->y2 - area_p->y1 + 1);
 1482              		.loc 3 145 5 view .LVU479
 1483              		.loc 3 145 31 is_stmt 0 view .LVU480
 1484 027c BDF82631 		ldrh	r3, [sp, #294]
 1485              		.loc 3 145 44 view .LVU481
 1486 0280 BDF82221 		ldrh	r2, [sp, #290]
 1487              		.loc 3 145 36 view .LVU482
 1488 0284 9B1A     		subs	r3, r3, r2
 1489 0286 9BB2     		uxth	r3, r3
 1490              		.loc 3 145 49 view .LVU483
 1491 0288 0133     		adds	r3, r3, #1
 1492              		.loc 3 145 12 view .LVU484
 1493 028a 1BB2     		sxth	r3, r3
 1494              	.LVL131:
 1495              		.loc 3 145 12 view .LVU485
 1496              	.LBE111:
 1497              	.LBE110:
ARM GAS  /tmp/ccnMQJLR.s 			page 53


 763:Middlewares/lvgl/src/widgets/lv_btnmatrix.c ****         btn_area.x2 = btn_area.x1 + txt_size.x;
 1498              		.loc 1 763 65 view .LVU486
 1499 028c BDF92E00 		ldrsh	r0, [sp, #46]
 763:Middlewares/lvgl/src/widgets/lv_btnmatrix.c ****         btn_area.x2 = btn_area.x1 + txt_size.x;
 1500              		.loc 1 763 55 view .LVU487
 1501 0290 1B1A     		subs	r3, r3, r0
 763:Middlewares/lvgl/src/widgets/lv_btnmatrix.c ****         btn_area.x2 = btn_area.x1 + txt_size.x;
 1502              		.loc 1 763 69 view .LVU488
 1503 0292 03EBD373 		add	r3, r3, r3, lsr #31
 763:Middlewares/lvgl/src/widgets/lv_btnmatrix.c ****         btn_area.x2 = btn_area.x1 + txt_size.x;
 1504              		.loc 1 763 21 view .LVU489
 1505 0296 02EB6303 		add	r3, r2, r3, asr #1
 1506 029a 9BB2     		uxth	r3, r3
 1507 029c ADF82231 		strh	r3, [sp, #290]	@ movhi
 764:Middlewares/lvgl/src/widgets/lv_btnmatrix.c ****         btn_area.y2 = btn_area.y1 + txt_size.y;
 1508              		.loc 1 764 9 is_stmt 1 view .LVU490
 764:Middlewares/lvgl/src/widgets/lv_btnmatrix.c ****         btn_area.y2 = btn_area.y1 + txt_size.y;
 1509              		.loc 1 764 45 is_stmt 0 view .LVU491
 1510 02a0 1FFA8CFC 		uxth	ip, ip
 764:Middlewares/lvgl/src/widgets/lv_btnmatrix.c ****         btn_area.y2 = btn_area.y1 + txt_size.y;
 1511              		.loc 1 764 35 view .LVU492
 1512 02a4 6144     		add	r1, r1, ip
 764:Middlewares/lvgl/src/widgets/lv_btnmatrix.c ****         btn_area.y2 = btn_area.y1 + txt_size.y;
 1513              		.loc 1 764 21 view .LVU493
 1514 02a6 ADF82411 		strh	r1, [sp, #292]	@ movhi
 765:Middlewares/lvgl/src/widgets/lv_btnmatrix.c **** 
 1515              		.loc 1 765 9 is_stmt 1 view .LVU494
 765:Middlewares/lvgl/src/widgets/lv_btnmatrix.c **** 
 1516              		.loc 1 765 45 is_stmt 0 view .LVU495
 1517 02aa 80B2     		uxth	r0, r0
 765:Middlewares/lvgl/src/widgets/lv_btnmatrix.c **** 
 1518              		.loc 1 765 35 view .LVU496
 1519 02ac 0344     		add	r3, r3, r0
 765:Middlewares/lvgl/src/widgets/lv_btnmatrix.c **** 
 1520              		.loc 1 765 21 view .LVU497
 1521 02ae ADF82631 		strh	r3, [sp, #294]	@ movhi
 768:Middlewares/lvgl/src/widgets/lv_btnmatrix.c **** 
 1522              		.loc 1 768 9 is_stmt 1 view .LVU498
 1523 02b2 0023     		movs	r3, #0
 1524 02b4 0093     		str	r3, [sp]
 1525 02b6 3B46     		mov	r3, r7
 1526 02b8 33AA     		add	r2, sp, #204
 1527 02ba 4146     		mov	r1, r8
 1528 02bc 48A8     		add	r0, sp, #288
 1529 02be FFF7FEFF 		bl	lv_draw_label
 1530              	.LVL132:
 770:Middlewares/lvgl/src/widgets/lv_btnmatrix.c ****     }
 1531              		.loc 1 770 9 view .LVU499
 1532 02c2 0CAA     		add	r2, sp, #48
 1533 02c4 1B21     		movs	r1, #27
 1534 02c6 2846     		mov	r0, r5
 1535 02c8 FFF7FEFF 		bl	lv_event_send
 1536              	.LVL133:
 1537              	.L43:
 770:Middlewares/lvgl/src/widgets/lv_btnmatrix.c ****     }
 1538              		.loc 1 770 9 is_stmt 0 view .LVU500
 1539              	.LBE103:
ARM GAS  /tmp/ccnMQJLR.s 			page 54


 679:Middlewares/lvgl/src/widgets/lv_btnmatrix.c ****         /*Search the next valid text in the map*/
 1540              		.loc 1 679 43 is_stmt 1 discriminator 2 view .LVU501
 679:Middlewares/lvgl/src/widgets/lv_btnmatrix.c ****         /*Search the next valid text in the map*/
 1541              		.loc 1 679 48 is_stmt 0 discriminator 2 view .LVU502
 1542 02cc 0136     		adds	r6, r6, #1
 1543              	.LVL134:
 679:Middlewares/lvgl/src/widgets/lv_btnmatrix.c ****         /*Search the next valid text in the map*/
 1544              		.loc 1 679 48 discriminator 2 view .LVU503
 1545 02ce B6B2     		uxth	r6, r6
 1546              	.LVL135:
 679:Middlewares/lvgl/src/widgets/lv_btnmatrix.c ****         /*Search the next valid text in the map*/
 1547              		.loc 1 679 57 discriminator 2 view .LVU504
 1548 02d0 0134     		adds	r4, r4, #1
 1549              	.LVL136:
 679:Middlewares/lvgl/src/widgets/lv_btnmatrix.c ****         /*Search the next valid text in the map*/
 1550              		.loc 1 679 57 discriminator 2 view .LVU505
 1551 02d2 A4B2     		uxth	r4, r4
 1552              	.LVL137:
 1553              	.L40:
 679:Middlewares/lvgl/src/widgets/lv_btnmatrix.c ****         /*Search the next valid text in the map*/
 1554              		.loc 1 679 20 is_stmt 1 discriminator 1 view .LVU506
 679:Middlewares/lvgl/src/widgets/lv_btnmatrix.c ****         /*Search the next valid text in the map*/
 1555              		.loc 1 679 32 is_stmt 0 discriminator 1 view .LVU507
 1556 02d4 2B8E     		ldrh	r3, [r5, #48]
 679:Middlewares/lvgl/src/widgets/lv_btnmatrix.c ****         /*Search the next valid text in the map*/
 1557              		.loc 1 679 5 discriminator 1 view .LVU508
 1558 02d6 B342     		cmp	r3, r6
 1559 02d8 3FF6FFAE 		bhi	.L58
 773:Middlewares/lvgl/src/widgets/lv_btnmatrix.c **** #if LV_USE_ARABIC_PERSIAN_CHARS
 1560              		.loc 1 773 5 is_stmt 1 view .LVU509
 773:Middlewares/lvgl/src/widgets/lv_btnmatrix.c **** #if LV_USE_ARABIC_PERSIAN_CHARS
 1561              		.loc 1 773 21 is_stmt 0 view .LVU510
 1562 02dc 95F82230 		ldrb	r3, [r5, #34]	@ zero_extendqisi2
 1563 02e0 6FF38203 		bfc	r3, #2, #1
 1564 02e4 85F82230 		strb	r3, [r5, #34]
 1565 02e8 92E6     		b	.L37
 1566              	.LVL138:
 1567              	.L59:
 1568              	.LBB112:
 690:Middlewares/lvgl/src/widgets/lv_btnmatrix.c ****         if(button_is_inactive(btnm->ctrl_bits[btn_i])) btn_state |= LV_STATE_DISABLED;
 1569              		.loc 1 690 66 view .LVU511
 1570 02ea 4FF00109 		mov	r9, #1
 1571 02ee 11E7     		b	.L44
 1572              	.LVL139:
 1573              	.L63:
 693:Middlewares/lvgl/src/widgets/lv_btnmatrix.c ****             if(state_ori & LV_STATE_FOCUSED) btn_state |= LV_STATE_FOCUSED;
 1574              		.loc 1 693 13 is_stmt 1 view .LVU512
 693:Middlewares/lvgl/src/widgets/lv_btnmatrix.c ****             if(state_ori & LV_STATE_FOCUSED) btn_state |= LV_STATE_FOCUSED;
 1575              		.loc 1 693 15 is_stmt 0 view .LVU513
 1576 02f0 049B     		ldr	r3, [sp, #16]
 1577 02f2 13F0200F 		tst	r3, #32
 1578 02f6 01D0     		beq	.L47
 693:Middlewares/lvgl/src/widgets/lv_btnmatrix.c ****             if(state_ori & LV_STATE_FOCUSED) btn_state |= LV_STATE_FOCUSED;
 1579              		.loc 1 693 46 is_stmt 1 discriminator 1 view .LVU514
 693:Middlewares/lvgl/src/widgets/lv_btnmatrix.c ****             if(state_ori & LV_STATE_FOCUSED) btn_state |= LV_STATE_FOCUSED;
 1580              		.loc 1 693 56 is_stmt 0 discriminator 1 view .LVU515
 1581 02f8 49F02009 		orr	r9, r9, #32
ARM GAS  /tmp/ccnMQJLR.s 			page 55


 1582              	.LVL140:
 1583              	.L47:
 694:Middlewares/lvgl/src/widgets/lv_btnmatrix.c ****             if(state_ori & LV_STATE_FOCUS_KEY) btn_state |= LV_STATE_FOCUS_KEY;
 1584              		.loc 1 694 13 is_stmt 1 view .LVU516
 694:Middlewares/lvgl/src/widgets/lv_btnmatrix.c ****             if(state_ori & LV_STATE_FOCUS_KEY) btn_state |= LV_STATE_FOCUS_KEY;
 1585              		.loc 1 694 15 is_stmt 0 view .LVU517
 1586 02fc 049B     		ldr	r3, [sp, #16]
 1587 02fe 13F0020F 		tst	r3, #2
 1588 0302 01D0     		beq	.L48
 694:Middlewares/lvgl/src/widgets/lv_btnmatrix.c ****             if(state_ori & LV_STATE_FOCUS_KEY) btn_state |= LV_STATE_FOCUS_KEY;
 1589              		.loc 1 694 46 is_stmt 1 discriminator 1 view .LVU518
 694:Middlewares/lvgl/src/widgets/lv_btnmatrix.c ****             if(state_ori & LV_STATE_FOCUS_KEY) btn_state |= LV_STATE_FOCUS_KEY;
 1590              		.loc 1 694 56 is_stmt 0 discriminator 1 view .LVU519
 1591 0304 49F00209 		orr	r9, r9, #2
 1592              	.LVL141:
 1593              	.L48:
 695:Middlewares/lvgl/src/widgets/lv_btnmatrix.c ****             if(state_ori & LV_STATE_EDITED) btn_state |= LV_STATE_EDITED;
 1594              		.loc 1 695 13 is_stmt 1 view .LVU520
 695:Middlewares/lvgl/src/widgets/lv_btnmatrix.c ****             if(state_ori & LV_STATE_EDITED) btn_state |= LV_STATE_EDITED;
 1595              		.loc 1 695 15 is_stmt 0 view .LVU521
 1596 0308 049B     		ldr	r3, [sp, #16]
 1597 030a 13F0040F 		tst	r3, #4
 1598 030e 01D0     		beq	.L49
 695:Middlewares/lvgl/src/widgets/lv_btnmatrix.c ****             if(state_ori & LV_STATE_EDITED) btn_state |= LV_STATE_EDITED;
 1599              		.loc 1 695 48 is_stmt 1 discriminator 1 view .LVU522
 695:Middlewares/lvgl/src/widgets/lv_btnmatrix.c ****             if(state_ori & LV_STATE_EDITED) btn_state |= LV_STATE_EDITED;
 1600              		.loc 1 695 58 is_stmt 0 discriminator 1 view .LVU523
 1601 0310 49F00409 		orr	r9, r9, #4
 1602              	.LVL142:
 1603              	.L49:
 696:Middlewares/lvgl/src/widgets/lv_btnmatrix.c ****         }
 1604              		.loc 1 696 13 is_stmt 1 view .LVU524
 696:Middlewares/lvgl/src/widgets/lv_btnmatrix.c ****         }
 1605              		.loc 1 696 15 is_stmt 0 view .LVU525
 1606 0314 049B     		ldr	r3, [sp, #16]
 1607 0316 13F0080F 		tst	r3, #8
 1608 031a 3FF405AF 		beq	.L46
 696:Middlewares/lvgl/src/widgets/lv_btnmatrix.c ****         }
 1609              		.loc 1 696 45 is_stmt 1 discriminator 1 view .LVU526
 696:Middlewares/lvgl/src/widgets/lv_btnmatrix.c ****         }
 1610              		.loc 1 696 55 is_stmt 0 discriminator 1 view .LVU527
 1611 031e 49F00809 		orr	r9, r9, #8
 1612              	.LVL143:
 696:Middlewares/lvgl/src/widgets/lv_btnmatrix.c ****         }
 1613              		.loc 1 696 55 discriminator 1 view .LVU528
 1614 0322 01E7     		b	.L46
 1615              	.L50:
 713:Middlewares/lvgl/src/widgets/lv_btnmatrix.c ****             obj->skip_trans = 1;
 1616              		.loc 1 713 13 is_stmt 1 view .LVU529
 713:Middlewares/lvgl/src/widgets/lv_btnmatrix.c ****             obj->skip_trans = 1;
 1617              		.loc 1 713 24 is_stmt 0 view .LVU530
 1618 0324 A5F82090 		strh	r9, [r5, #32]	@ movhi
 714:Middlewares/lvgl/src/widgets/lv_btnmatrix.c ****             lv_draw_rect_dsc_init(&draw_rect_dsc_act);
 1619              		.loc 1 714 13 is_stmt 1 view .LVU531
 714:Middlewares/lvgl/src/widgets/lv_btnmatrix.c ****             lv_draw_rect_dsc_init(&draw_rect_dsc_act);
 1620              		.loc 1 714 29 is_stmt 0 view .LVU532
 1621 0328 95F82230 		ldrb	r3, [r5, #34]	@ zero_extendqisi2
ARM GAS  /tmp/ccnMQJLR.s 			page 56


 1622 032c 43F00403 		orr	r3, r3, #4
 1623 0330 85F82230 		strb	r3, [r5, #34]
 715:Middlewares/lvgl/src/widgets/lv_btnmatrix.c ****             lv_draw_label_dsc_init(&draw_label_dsc_act);
 1624              		.loc 1 715 13 is_stmt 1 view .LVU533
 1625 0334 3BA8     		add	r0, sp, #236
 1626 0336 FFF7FEFF 		bl	lv_draw_rect_dsc_init
 1627              	.LVL144:
 716:Middlewares/lvgl/src/widgets/lv_btnmatrix.c ****             lv_obj_init_draw_rect_dsc(obj, LV_PART_ITEMS, &draw_rect_dsc_act);
 1628              		.loc 1 716 13 view .LVU534
 1629 033a 33A8     		add	r0, sp, #204
 1630 033c FFF7FEFF 		bl	lv_draw_label_dsc_init
 1631              	.LVL145:
 717:Middlewares/lvgl/src/widgets/lv_btnmatrix.c ****             lv_obj_init_draw_label_dsc(obj, LV_PART_ITEMS, &draw_label_dsc_act);
 1632              		.loc 1 717 13 view .LVU535
 1633 0340 3BAA     		add	r2, sp, #236
 1634 0342 4FF4A021 		mov	r1, #327680
 1635 0346 2846     		mov	r0, r5
 1636 0348 FFF7FEFF 		bl	lv_obj_init_draw_rect_dsc
 1637              	.LVL146:
 718:Middlewares/lvgl/src/widgets/lv_btnmatrix.c ****             obj->state = state_ori;
 1638              		.loc 1 718 13 view .LVU536
 1639 034c 33AA     		add	r2, sp, #204
 1640 034e 4FF4A021 		mov	r1, #327680
 1641 0352 2846     		mov	r0, r5
 1642 0354 FFF7FEFF 		bl	lv_obj_init_draw_label_dsc
 1643              	.LVL147:
 719:Middlewares/lvgl/src/widgets/lv_btnmatrix.c ****             obj->skip_trans = 0;
 1644              		.loc 1 719 13 view .LVU537
 719:Middlewares/lvgl/src/widgets/lv_btnmatrix.c ****             obj->skip_trans = 0;
 1645              		.loc 1 719 24 is_stmt 0 view .LVU538
 1646 0358 049B     		ldr	r3, [sp, #16]
 1647 035a 2B84     		strh	r3, [r5, #32]	@ movhi
 720:Middlewares/lvgl/src/widgets/lv_btnmatrix.c ****         }
 1648              		.loc 1 720 13 is_stmt 1 view .LVU539
 720:Middlewares/lvgl/src/widgets/lv_btnmatrix.c ****         }
 1649              		.loc 1 720 29 is_stmt 0 view .LVU540
 1650 035c 95F82230 		ldrb	r3, [r5, #34]	@ zero_extendqisi2
 1651 0360 6FF38203 		bfc	r3, #2, #1
 1652 0364 85F82230 		strb	r3, [r5, #34]
 1653 0368 0FE7     		b	.L51
 1654              	.LVL148:
 1655              	.L52:
 725:Middlewares/lvgl/src/widgets/lv_btnmatrix.c **** 
 1656              		.loc 1 725 14 is_stmt 1 view .LVU541
 725:Middlewares/lvgl/src/widgets/lv_btnmatrix.c **** 
 1657              		.loc 1 725 38 is_stmt 0 view .LVU542
 1658 036a 9DF8E830 		ldrb	r3, [sp, #232]	@ zero_extendqisi2
 1659 036e 23F00103 		bic	r3, r3, #1
 1660 0372 8DF8E830 		strb	r3, [sp, #232]
 1661 0376 16E7     		b	.L53
 1662              	.LVL149:
 1663              	.L64:
 735:Middlewares/lvgl/src/widgets/lv_btnmatrix.c ****             if(btn_area.x2 == obj->coords.x2 - pright) draw_rect_dsc_act.border_side &= ~LV_BORDER_
 1664              		.loc 1 735 55 is_stmt 1 discriminator 1 view .LVU543
 735:Middlewares/lvgl/src/widgets/lv_btnmatrix.c ****             if(btn_area.x2 == obj->coords.x2 - pright) draw_rect_dsc_act.border_side &= ~LV_BORDER_
 1665              		.loc 1 735 85 is_stmt 0 discriminator 1 view .LVU544
 1666 0378 9DF80B31 		ldrb	r3, [sp, #267]	@ zero_extendqisi2
ARM GAS  /tmp/ccnMQJLR.s 			page 57


 1667 037c 0B22     		movs	r2, #11
 1668 037e 62F34503 		bfi	r3, r2, #1, #5
 1669 0382 8DF80B31 		strb	r3, [sp, #267]
 1670 0386 2CE7     		b	.L55
 1671              	.L65:
 736:Middlewares/lvgl/src/widgets/lv_btnmatrix.c ****             if(btn_area.y1 == obj->coords.y1 + ptop) draw_rect_dsc_act.border_side &= ~LV_BORDER_SI
 1672              		.loc 1 736 56 is_stmt 1 discriminator 1 view .LVU545
 736:Middlewares/lvgl/src/widgets/lv_btnmatrix.c ****             if(btn_area.y1 == obj->coords.y1 + ptop) draw_rect_dsc_act.border_side &= ~LV_BORDER_SI
 1673              		.loc 1 736 86 is_stmt 0 discriminator 1 view .LVU546
 1674 0388 9DF80B31 		ldrb	r3, [sp, #267]	@ zero_extendqisi2
 1675 038c C3F34402 		ubfx	r2, r3, #1, #5
 1676 0390 02F01702 		and	r2, r2, #23
 1677 0394 62F34503 		bfi	r3, r2, #1, #5
 1678 0398 8DF80B31 		strb	r3, [sp, #267]
 1679 039c 2AE7     		b	.L56
 1680              	.L66:
 737:Middlewares/lvgl/src/widgets/lv_btnmatrix.c ****             if(btn_area.y2 == obj->coords.y2 - pbottom) draw_rect_dsc_act.border_side &= ~LV_BORDER
 1681              		.loc 1 737 54 is_stmt 1 discriminator 1 view .LVU547
 737:Middlewares/lvgl/src/widgets/lv_btnmatrix.c ****             if(btn_area.y2 == obj->coords.y2 - pbottom) draw_rect_dsc_act.border_side &= ~LV_BORDER
 1682              		.loc 1 737 84 is_stmt 0 discriminator 1 view .LVU548
 1683 039e 9DF80B31 		ldrb	r3, [sp, #267]	@ zero_extendqisi2
 1684 03a2 C3F34402 		ubfx	r2, r3, #1, #5
 1685 03a6 02F01D02 		and	r2, r2, #29
 1686 03aa 62F34503 		bfi	r3, r2, #1, #5
 1687 03ae 8DF80B31 		strb	r3, [sp, #267]
 1688 03b2 28E7     		b	.L57
 1689              	.L67:
 738:Middlewares/lvgl/src/widgets/lv_btnmatrix.c ****         }
 1690              		.loc 1 738 57 is_stmt 1 discriminator 1 view .LVU549
 738:Middlewares/lvgl/src/widgets/lv_btnmatrix.c ****         }
 1691              		.loc 1 738 87 is_stmt 0 discriminator 1 view .LVU550
 1692 03b4 9DF80B31 		ldrb	r3, [sp, #267]	@ zero_extendqisi2
 1693 03b8 C3F34402 		ubfx	r2, r3, #1, #5
 1694 03bc 02F01E02 		and	r2, r2, #30
 1695 03c0 62F34503 		bfi	r3, r2, #1, #5
 1696 03c4 8DF80B31 		strb	r3, [sp, #267]
 1697 03c8 26E7     		b	.L54
 1698              	.L69:
 1699 03ca 00BF     		.align	2
 1700              	.L68:
 1701 03cc 00000000 		.word	.LC0
 1702              	.LBE112:
 1703              		.cfi_endproc
 1704              	.LFE165:
 1706              		.section	.text.lv_btnmatrix_destructor,"ax",%progbits
 1707              		.align	1
 1708              		.syntax unified
 1709              		.thumb
 1710              		.thumb_func
 1711              		.fpu softvfp
 1713              	lv_btnmatrix_destructor:
 1714              	.LVL150:
 1715              	.LFB163:
 368:Middlewares/lvgl/src/widgets/lv_btnmatrix.c ****     LV_TRACE_OBJ_CREATE("begin");
 1716              		.loc 1 368 1 is_stmt 1 view -0
 1717              		.cfi_startproc
 1718              		@ args = 0, pretend = 0, frame = 0
ARM GAS  /tmp/ccnMQJLR.s 			page 58


 1719              		@ frame_needed = 0, uses_anonymous_args = 0
 368:Middlewares/lvgl/src/widgets/lv_btnmatrix.c ****     LV_TRACE_OBJ_CREATE("begin");
 1720              		.loc 1 368 1 is_stmt 0 view .LVU552
 1721 0000 10B5     		push	{r4, lr}
 1722              	.LCFI12:
 1723              		.cfi_def_cfa_offset 8
 1724              		.cfi_offset 4, -8
 1725              		.cfi_offset 14, -4
 1726 0002 0C46     		mov	r4, r1
 369:Middlewares/lvgl/src/widgets/lv_btnmatrix.c ****     LV_UNUSED(class_p);
 1727              		.loc 1 369 33 is_stmt 1 view .LVU553
 370:Middlewares/lvgl/src/widgets/lv_btnmatrix.c ****     lv_btnmatrix_t * btnm = (lv_btnmatrix_t *)obj;
 1728              		.loc 1 370 5 view .LVU554
 371:Middlewares/lvgl/src/widgets/lv_btnmatrix.c ****     lv_mem_free(btnm->button_areas);
 1729              		.loc 1 371 5 view .LVU555
 1730              	.LVL151:
 372:Middlewares/lvgl/src/widgets/lv_btnmatrix.c ****     lv_mem_free(btnm->ctrl_bits);
 1731              		.loc 1 372 5 view .LVU556
 1732 0004 886A     		ldr	r0, [r1, #40]
 1733              	.LVL152:
 372:Middlewares/lvgl/src/widgets/lv_btnmatrix.c ****     lv_mem_free(btnm->ctrl_bits);
 1734              		.loc 1 372 5 is_stmt 0 view .LVU557
 1735 0006 FFF7FEFF 		bl	lv_mem_free
 1736              	.LVL153:
 373:Middlewares/lvgl/src/widgets/lv_btnmatrix.c ****     btnm->button_areas = NULL;
 1737              		.loc 1 373 5 is_stmt 1 view .LVU558
 1738 000a E06A     		ldr	r0, [r4, #44]
 1739 000c FFF7FEFF 		bl	lv_mem_free
 1740              	.LVL154:
 374:Middlewares/lvgl/src/widgets/lv_btnmatrix.c ****     btnm->ctrl_bits = NULL;
 1741              		.loc 1 374 5 view .LVU559
 374:Middlewares/lvgl/src/widgets/lv_btnmatrix.c ****     btnm->ctrl_bits = NULL;
 1742              		.loc 1 374 24 is_stmt 0 view .LVU560
 1743 0010 0023     		movs	r3, #0
 1744 0012 A362     		str	r3, [r4, #40]
 375:Middlewares/lvgl/src/widgets/lv_btnmatrix.c ****     LV_TRACE_OBJ_CREATE("finshed");
 1745              		.loc 1 375 5 is_stmt 1 view .LVU561
 375:Middlewares/lvgl/src/widgets/lv_btnmatrix.c ****     LV_TRACE_OBJ_CREATE("finshed");
 1746              		.loc 1 375 21 is_stmt 0 view .LVU562
 1747 0014 E362     		str	r3, [r4, #44]
 376:Middlewares/lvgl/src/widgets/lv_btnmatrix.c **** }
 1748              		.loc 1 376 35 is_stmt 1 view .LVU563
 377:Middlewares/lvgl/src/widgets/lv_btnmatrix.c **** 
 1749              		.loc 1 377 1 is_stmt 0 view .LVU564
 1750 0016 10BD     		pop	{r4, pc}
 377:Middlewares/lvgl/src/widgets/lv_btnmatrix.c **** 
 1751              		.loc 1 377 1 view .LVU565
 1752              		.cfi_endproc
 1753              	.LFE163:
 1755              		.section	.text.allocate_btn_areas_and_controls,"ax",%progbits
 1756              		.align	1
 1757              		.syntax unified
 1758              		.thumb
 1759              		.thumb_func
 1760              		.fpu softvfp
 1762              	allocate_btn_areas_and_controls:
 1763              	.LVL155:
ARM GAS  /tmp/ccnMQJLR.s 			page 59


 1764              	.LFB166:
 784:Middlewares/lvgl/src/widgets/lv_btnmatrix.c ****     /*Count the buttons in the map*/
 1765              		.loc 1 784 1 is_stmt 1 view -0
 1766              		.cfi_startproc
 1767              		@ args = 0, pretend = 0, frame = 0
 1768              		@ frame_needed = 0, uses_anonymous_args = 0
 784:Middlewares/lvgl/src/widgets/lv_btnmatrix.c ****     /*Count the buttons in the map*/
 1769              		.loc 1 784 1 is_stmt 0 view .LVU567
 1770 0000 F8B5     		push	{r3, r4, r5, r6, r7, lr}
 1771              	.LCFI13:
 1772              		.cfi_def_cfa_offset 24
 1773              		.cfi_offset 3, -24
 1774              		.cfi_offset 4, -20
 1775              		.cfi_offset 5, -16
 1776              		.cfi_offset 6, -12
 1777              		.cfi_offset 7, -8
 1778              		.cfi_offset 14, -4
 1779 0002 0746     		mov	r7, r0
 1780 0004 0E46     		mov	r6, r1
 786:Middlewares/lvgl/src/widgets/lv_btnmatrix.c ****     uint16_t i       = 0;
 1781              		.loc 1 786 5 is_stmt 1 view .LVU568
 1782              	.LVL156:
 787:Middlewares/lvgl/src/widgets/lv_btnmatrix.c ****     while(map[i] && map[i][0] != '\0') {
 1783              		.loc 1 787 5 view .LVU569
 788:Middlewares/lvgl/src/widgets/lv_btnmatrix.c ****         if(strcmp(map[i], "\n") != 0) { /*Do not count line breaks*/
 1784              		.loc 1 788 5 view .LVU570
 787:Middlewares/lvgl/src/widgets/lv_btnmatrix.c ****     while(map[i] && map[i][0] != '\0') {
 1785              		.loc 1 787 14 is_stmt 0 view .LVU571
 1786 0006 0024     		movs	r4, #0
 786:Middlewares/lvgl/src/widgets/lv_btnmatrix.c ****     uint16_t i       = 0;
 1787              		.loc 1 786 14 view .LVU572
 1788 0008 2546     		mov	r5, r4
 788:Middlewares/lvgl/src/widgets/lv_btnmatrix.c ****         if(strcmp(map[i], "\n") != 0) { /*Do not count line breaks*/
 1789              		.loc 1 788 10 view .LVU573
 1790 000a 01E0     		b	.L73
 1791              	.LVL157:
 1792              	.L74:
 792:Middlewares/lvgl/src/widgets/lv_btnmatrix.c ****     }
 1793              		.loc 1 792 9 is_stmt 1 view .LVU574
 792:Middlewares/lvgl/src/widgets/lv_btnmatrix.c ****     }
 1794              		.loc 1 792 10 is_stmt 0 view .LVU575
 1795 000c 0134     		adds	r4, r4, #1
 1796              	.LVL158:
 792:Middlewares/lvgl/src/widgets/lv_btnmatrix.c ****     }
 1797              		.loc 1 792 10 view .LVU576
 1798 000e A4B2     		uxth	r4, r4
 1799              	.LVL159:
 1800              	.L73:
 788:Middlewares/lvgl/src/widgets/lv_btnmatrix.c ****         if(strcmp(map[i], "\n") != 0) { /*Do not count line breaks*/
 1801              		.loc 1 788 10 is_stmt 1 view .LVU577
 788:Middlewares/lvgl/src/widgets/lv_btnmatrix.c ****         if(strcmp(map[i], "\n") != 0) { /*Do not count line breaks*/
 1802              		.loc 1 788 14 is_stmt 0 view .LVU578
 1803 0010 56F82400 		ldr	r0, [r6, r4, lsl #2]
 788:Middlewares/lvgl/src/widgets/lv_btnmatrix.c ****         if(strcmp(map[i], "\n") != 0) { /*Do not count line breaks*/
 1804              		.loc 1 788 10 view .LVU579
 1805 0014 48B1     		cbz	r0, .L75
 788:Middlewares/lvgl/src/widgets/lv_btnmatrix.c ****         if(strcmp(map[i], "\n") != 0) { /*Do not count line breaks*/
ARM GAS  /tmp/ccnMQJLR.s 			page 60


 1806              		.loc 1 788 27 discriminator 1 view .LVU580
 1807 0016 0378     		ldrb	r3, [r0]	@ zero_extendqisi2
 788:Middlewares/lvgl/src/widgets/lv_btnmatrix.c ****         if(strcmp(map[i], "\n") != 0) { /*Do not count line breaks*/
 1808              		.loc 1 788 18 discriminator 1 view .LVU581
 1809 0018 3BB1     		cbz	r3, .L75
 789:Middlewares/lvgl/src/widgets/lv_btnmatrix.c ****             btn_cnt++;
 1810              		.loc 1 789 9 is_stmt 1 view .LVU582
 789:Middlewares/lvgl/src/widgets/lv_btnmatrix.c ****             btn_cnt++;
 1811              		.loc 1 789 12 is_stmt 0 view .LVU583
 1812 001a 1649     		ldr	r1, .L88
 1813 001c FFF7FEFF 		bl	strcmp
 1814              	.LVL160:
 789:Middlewares/lvgl/src/widgets/lv_btnmatrix.c ****             btn_cnt++;
 1815              		.loc 1 789 11 view .LVU584
 1816 0020 0028     		cmp	r0, #0
 1817 0022 F3D0     		beq	.L74
 790:Middlewares/lvgl/src/widgets/lv_btnmatrix.c ****         }
 1818              		.loc 1 790 13 is_stmt 1 view .LVU585
 790:Middlewares/lvgl/src/widgets/lv_btnmatrix.c ****         }
 1819              		.loc 1 790 20 is_stmt 0 view .LVU586
 1820 0024 0135     		adds	r5, r5, #1
 1821              	.LVL161:
 790:Middlewares/lvgl/src/widgets/lv_btnmatrix.c ****         }
 1822              		.loc 1 790 20 view .LVU587
 1823 0026 ADB2     		uxth	r5, r5
 1824              	.LVL162:
 790:Middlewares/lvgl/src/widgets/lv_btnmatrix.c ****         }
 1825              		.loc 1 790 20 view .LVU588
 1826 0028 F0E7     		b	.L74
 1827              	.L75:
 795:Middlewares/lvgl/src/widgets/lv_btnmatrix.c **** 
 1828              		.loc 1 795 5 is_stmt 1 view .LVU589
 1829              	.LVL163:
 795:Middlewares/lvgl/src/widgets/lv_btnmatrix.c **** 
 1830              		.loc 1 795 51 view .LVU590
 798:Middlewares/lvgl/src/widgets/lv_btnmatrix.c **** 
 1831              		.loc 1 798 5 view .LVU591
 798:Middlewares/lvgl/src/widgets/lv_btnmatrix.c **** 
 1832              		.loc 1 798 23 is_stmt 0 view .LVU592
 1833 002a 3B8E     		ldrh	r3, [r7, #48]
 798:Middlewares/lvgl/src/widgets/lv_btnmatrix.c **** 
 1834              		.loc 1 798 7 view .LVU593
 1835 002c AB42     		cmp	r3, r5
 1836 002e 1BD0     		beq	.L72
 800:Middlewares/lvgl/src/widgets/lv_btnmatrix.c ****         lv_mem_free(btnm->button_areas);
 1837              		.loc 1 800 5 is_stmt 1 view .LVU594
 800:Middlewares/lvgl/src/widgets/lv_btnmatrix.c ****         lv_mem_free(btnm->button_areas);
 1838              		.loc 1 800 12 is_stmt 0 view .LVU595
 1839 0030 B86A     		ldr	r0, [r7, #40]
 800:Middlewares/lvgl/src/widgets/lv_btnmatrix.c ****         lv_mem_free(btnm->button_areas);
 1840              		.loc 1 800 7 view .LVU596
 1841 0032 18B1     		cbz	r0, .L78
 801:Middlewares/lvgl/src/widgets/lv_btnmatrix.c ****         btnm->button_areas = NULL;
 1842              		.loc 1 801 9 is_stmt 1 view .LVU597
 1843 0034 FFF7FEFF 		bl	lv_mem_free
 1844              	.LVL164:
 802:Middlewares/lvgl/src/widgets/lv_btnmatrix.c ****     }
ARM GAS  /tmp/ccnMQJLR.s 			page 61


 1845              		.loc 1 802 9 view .LVU598
 802:Middlewares/lvgl/src/widgets/lv_btnmatrix.c ****     }
 1846              		.loc 1 802 28 is_stmt 0 view .LVU599
 1847 0038 0023     		movs	r3, #0
 1848 003a BB62     		str	r3, [r7, #40]
 1849              	.L78:
 804:Middlewares/lvgl/src/widgets/lv_btnmatrix.c ****         lv_mem_free(btnm->ctrl_bits);
 1850              		.loc 1 804 5 is_stmt 1 view .LVU600
 804:Middlewares/lvgl/src/widgets/lv_btnmatrix.c ****         lv_mem_free(btnm->ctrl_bits);
 1851              		.loc 1 804 12 is_stmt 0 view .LVU601
 1852 003c F86A     		ldr	r0, [r7, #44]
 804:Middlewares/lvgl/src/widgets/lv_btnmatrix.c ****         lv_mem_free(btnm->ctrl_bits);
 1853              		.loc 1 804 7 view .LVU602
 1854 003e 18B1     		cbz	r0, .L79
 805:Middlewares/lvgl/src/widgets/lv_btnmatrix.c ****         btnm->ctrl_bits = NULL;
 1855              		.loc 1 805 9 is_stmt 1 view .LVU603
 1856 0040 FFF7FEFF 		bl	lv_mem_free
 1857              	.LVL165:
 806:Middlewares/lvgl/src/widgets/lv_btnmatrix.c ****     }
 1858              		.loc 1 806 9 view .LVU604
 806:Middlewares/lvgl/src/widgets/lv_btnmatrix.c ****     }
 1859              		.loc 1 806 25 is_stmt 0 view .LVU605
 1860 0044 0023     		movs	r3, #0
 1861 0046 FB62     		str	r3, [r7, #44]
 1862              	.L79:
 809:Middlewares/lvgl/src/widgets/lv_btnmatrix.c ****     LV_ASSERT_MALLOC(btnm->button_areas);
 1863              		.loc 1 809 5 is_stmt 1 view .LVU606
 809:Middlewares/lvgl/src/widgets/lv_btnmatrix.c ****     LV_ASSERT_MALLOC(btnm->button_areas);
 1864              		.loc 1 809 26 is_stmt 0 view .LVU607
 1865 0048 E800     		lsls	r0, r5, #3
 1866 004a FFF7FEFF 		bl	lv_mem_alloc
 1867              	.LVL166:
 809:Middlewares/lvgl/src/widgets/lv_btnmatrix.c ****     LV_ASSERT_MALLOC(btnm->button_areas);
 1868              		.loc 1 809 24 view .LVU608
 1869 004e B862     		str	r0, [r7, #40]
 810:Middlewares/lvgl/src/widgets/lv_btnmatrix.c ****     btnm->ctrl_bits = lv_mem_alloc(sizeof(lv_btnmatrix_ctrl_t) * btn_cnt);
 1870              		.loc 1 810 5 is_stmt 1 view .LVU609
 810:Middlewares/lvgl/src/widgets/lv_btnmatrix.c ****     btnm->ctrl_bits = lv_mem_alloc(sizeof(lv_btnmatrix_ctrl_t) * btn_cnt);
 1871              		.loc 1 810 5 view .LVU610
 1872 0050 58B1     		cbz	r0, .L81
 810:Middlewares/lvgl/src/widgets/lv_btnmatrix.c ****     btnm->ctrl_bits = lv_mem_alloc(sizeof(lv_btnmatrix_ctrl_t) * btn_cnt);
 1873              		.loc 1 810 5 discriminator 2 view .LVU611
 810:Middlewares/lvgl/src/widgets/lv_btnmatrix.c ****     btnm->ctrl_bits = lv_mem_alloc(sizeof(lv_btnmatrix_ctrl_t) * btn_cnt);
 1874              		.loc 1 810 41 discriminator 2 view .LVU612
 811:Middlewares/lvgl/src/widgets/lv_btnmatrix.c ****     LV_ASSERT_MALLOC(btnm->ctrl_bits);
 1875              		.loc 1 811 5 discriminator 2 view .LVU613
 811:Middlewares/lvgl/src/widgets/lv_btnmatrix.c ****     LV_ASSERT_MALLOC(btnm->ctrl_bits);
 1876              		.loc 1 811 23 is_stmt 0 discriminator 2 view .LVU614
 1877 0052 6800     		lsls	r0, r5, #1
 1878 0054 FFF7FEFF 		bl	lv_mem_alloc
 1879              	.LVL167:
 811:Middlewares/lvgl/src/widgets/lv_btnmatrix.c ****     LV_ASSERT_MALLOC(btnm->ctrl_bits);
 1880              		.loc 1 811 21 discriminator 2 view .LVU615
 1881 0058 F862     		str	r0, [r7, #44]
 812:Middlewares/lvgl/src/widgets/lv_btnmatrix.c ****     if(btnm->button_areas == NULL || btnm->ctrl_bits == NULL) btn_cnt = 0;
 1882              		.loc 1 812 5 is_stmt 1 discriminator 2 view .LVU616
 812:Middlewares/lvgl/src/widgets/lv_btnmatrix.c ****     if(btnm->button_areas == NULL || btnm->ctrl_bits == NULL) btn_cnt = 0;
ARM GAS  /tmp/ccnMQJLR.s 			page 62


 1883              		.loc 1 812 5 discriminator 2 view .LVU617
 1884 005a 38B1     		cbz	r0, .L83
 812:Middlewares/lvgl/src/widgets/lv_btnmatrix.c ****     if(btnm->button_areas == NULL || btnm->ctrl_bits == NULL) btn_cnt = 0;
 1885              		.loc 1 812 5 discriminator 2 view .LVU618
 812:Middlewares/lvgl/src/widgets/lv_btnmatrix.c ****     if(btnm->button_areas == NULL || btnm->ctrl_bits == NULL) btn_cnt = 0;
 1886              		.loc 1 812 38 discriminator 2 view .LVU619
 813:Middlewares/lvgl/src/widgets/lv_btnmatrix.c **** 
 1887              		.loc 1 813 5 discriminator 2 view .LVU620
 813:Middlewares/lvgl/src/widgets/lv_btnmatrix.c **** 
 1888              		.loc 1 813 12 is_stmt 0 discriminator 2 view .LVU621
 1889 005c BB6A     		ldr	r3, [r7, #40]
 813:Middlewares/lvgl/src/widgets/lv_btnmatrix.c **** 
 1890              		.loc 1 813 7 discriminator 2 view .LVU622
 1891 005e 33B1     		cbz	r3, .L87
 1892              	.LVL168:
 1893              	.L84:
 815:Middlewares/lvgl/src/widgets/lv_btnmatrix.c **** 
 1894              		.loc 1 815 5 is_stmt 1 view .LVU623
 1895 0060 6900     		lsls	r1, r5, #1
 1896 0062 FFF7FEFF 		bl	lv_memset_00
 1897              	.LVL169:
 817:Middlewares/lvgl/src/widgets/lv_btnmatrix.c **** }
 1898              		.loc 1 817 5 view .LVU624
 817:Middlewares/lvgl/src/widgets/lv_btnmatrix.c **** }
 1899              		.loc 1 817 19 is_stmt 0 view .LVU625
 1900 0066 3D86     		strh	r5, [r7, #48]	@ movhi
 1901              	.L72:
 818:Middlewares/lvgl/src/widgets/lv_btnmatrix.c **** 
 1902              		.loc 1 818 1 view .LVU626
 1903 0068 F8BD     		pop	{r3, r4, r5, r6, r7, pc}
 1904              	.LVL170:
 1905              	.L81:
 810:Middlewares/lvgl/src/widgets/lv_btnmatrix.c ****     btnm->ctrl_bits = lv_mem_alloc(sizeof(lv_btnmatrix_ctrl_t) * btn_cnt);
 1906              		.loc 1 810 5 is_stmt 1 discriminator 1 view .LVU627
 810:Middlewares/lvgl/src/widgets/lv_btnmatrix.c ****     btnm->ctrl_bits = lv_mem_alloc(sizeof(lv_btnmatrix_ctrl_t) * btn_cnt);
 1907              		.loc 1 810 5 discriminator 1 view .LVU628
 810:Middlewares/lvgl/src/widgets/lv_btnmatrix.c ****     btnm->ctrl_bits = lv_mem_alloc(sizeof(lv_btnmatrix_ctrl_t) * btn_cnt);
 1908              		.loc 1 810 5 discriminator 1 view .LVU629
 810:Middlewares/lvgl/src/widgets/lv_btnmatrix.c ****     btnm->ctrl_bits = lv_mem_alloc(sizeof(lv_btnmatrix_ctrl_t) * btn_cnt);
 1909              		.loc 1 810 5 discriminator 1 view .LVU630
 1910 006a FEE7     		b	.L81
 1911              	.L83:
 812:Middlewares/lvgl/src/widgets/lv_btnmatrix.c ****     if(btnm->button_areas == NULL || btnm->ctrl_bits == NULL) btn_cnt = 0;
 1912              		.loc 1 812 5 discriminator 2 view .LVU631
 812:Middlewares/lvgl/src/widgets/lv_btnmatrix.c ****     if(btnm->button_areas == NULL || btnm->ctrl_bits == NULL) btn_cnt = 0;
 1913              		.loc 1 812 5 discriminator 2 view .LVU632
 812:Middlewares/lvgl/src/widgets/lv_btnmatrix.c ****     if(btnm->button_areas == NULL || btnm->ctrl_bits == NULL) btn_cnt = 0;
 1914              		.loc 1 812 5 discriminator 2 view .LVU633
 812:Middlewares/lvgl/src/widgets/lv_btnmatrix.c ****     if(btnm->button_areas == NULL || btnm->ctrl_bits == NULL) btn_cnt = 0;
 1915              		.loc 1 812 5 discriminator 2 view .LVU634
 1916 006c FEE7     		b	.L83
 1917              	.L87:
 813:Middlewares/lvgl/src/widgets/lv_btnmatrix.c **** 
 1918              		.loc 1 813 71 is_stmt 0 view .LVU635
 1919 006e 0025     		movs	r5, #0
 1920              	.LVL171:
 813:Middlewares/lvgl/src/widgets/lv_btnmatrix.c **** 
ARM GAS  /tmp/ccnMQJLR.s 			page 63


 1921              		.loc 1 813 71 view .LVU636
 1922 0070 F6E7     		b	.L84
 1923              	.L89:
 1924 0072 00BF     		.align	2
 1925              	.L88:
 1926 0074 00000000 		.word	.LC0
 1927              		.cfi_endproc
 1928              	.LFE166:
 1930              		.section	.text.lv_btnmatrix_create,"ax",%progbits
 1931              		.align	1
 1932              		.global	lv_btnmatrix_create
 1933              		.syntax unified
 1934              		.thumb
 1935              		.thumb_func
 1936              		.fpu softvfp
 1938              	lv_btnmatrix_create:
 1939              	.LVL172:
 1940              	.LFB147:
  81:Middlewares/lvgl/src/widgets/lv_btnmatrix.c ****     LV_LOG_INFO("begin")
 1941              		.loc 1 81 1 is_stmt 1 view -0
 1942              		.cfi_startproc
 1943              		@ args = 0, pretend = 0, frame = 0
 1944              		@ frame_needed = 0, uses_anonymous_args = 0
  81:Middlewares/lvgl/src/widgets/lv_btnmatrix.c ****     LV_LOG_INFO("begin")
 1945              		.loc 1 81 1 is_stmt 0 view .LVU638
 1946 0000 10B5     		push	{r4, lr}
 1947              	.LCFI14:
 1948              		.cfi_def_cfa_offset 8
 1949              		.cfi_offset 4, -8
 1950              		.cfi_offset 14, -4
 1951 0002 0146     		mov	r1, r0
  83:Middlewares/lvgl/src/widgets/lv_btnmatrix.c ****     lv_obj_class_init_obj(obj);
 1952              		.loc 1 83 5 is_stmt 1 view .LVU639
  83:Middlewares/lvgl/src/widgets/lv_btnmatrix.c ****     lv_obj_class_init_obj(obj);
 1953              		.loc 1 83 22 is_stmt 0 view .LVU640
 1954 0004 0348     		ldr	r0, .L92
 1955              	.LVL173:
  83:Middlewares/lvgl/src/widgets/lv_btnmatrix.c ****     lv_obj_class_init_obj(obj);
 1956              		.loc 1 83 22 view .LVU641
 1957 0006 FFF7FEFF 		bl	lv_obj_class_create_obj
 1958              	.LVL174:
  83:Middlewares/lvgl/src/widgets/lv_btnmatrix.c ****     lv_obj_class_init_obj(obj);
 1959              		.loc 1 83 22 view .LVU642
 1960 000a 0446     		mov	r4, r0
 1961              	.LVL175:
  84:Middlewares/lvgl/src/widgets/lv_btnmatrix.c ****     return obj;
 1962              		.loc 1 84 5 is_stmt 1 view .LVU643
 1963 000c FFF7FEFF 		bl	lv_obj_class_init_obj
 1964              	.LVL176:
  85:Middlewares/lvgl/src/widgets/lv_btnmatrix.c **** }
 1965              		.loc 1 85 5 view .LVU644
  86:Middlewares/lvgl/src/widgets/lv_btnmatrix.c **** 
 1966              		.loc 1 86 1 is_stmt 0 view .LVU645
 1967 0010 2046     		mov	r0, r4
 1968 0012 10BD     		pop	{r4, pc}
 1969              	.LVL177:
 1970              	.L93:
ARM GAS  /tmp/ccnMQJLR.s 			page 64


  86:Middlewares/lvgl/src/widgets/lv_btnmatrix.c **** 
 1971              		.loc 1 86 1 view .LVU646
 1972              		.align	2
 1973              	.L92:
 1974 0014 00000000 		.word	.LANCHOR0
 1975              		.cfi_endproc
 1976              	.LFE147:
 1978              		.section	.text.lv_btnmatrix_set_map,"ax",%progbits
 1979              		.align	1
 1980              		.global	lv_btnmatrix_set_map
 1981              		.syntax unified
 1982              		.thumb
 1983              		.thumb_func
 1984              		.fpu softvfp
 1986              	lv_btnmatrix_set_map:
 1987              	.LVL178:
 1988              	.LFB148:
  93:Middlewares/lvgl/src/widgets/lv_btnmatrix.c ****     LV_ASSERT_OBJ(obj, MY_CLASS);
 1989              		.loc 1 93 1 is_stmt 1 view -0
 1990              		.cfi_startproc
 1991              		@ args = 0, pretend = 0, frame = 56
 1992              		@ frame_needed = 0, uses_anonymous_args = 0
  94:Middlewares/lvgl/src/widgets/lv_btnmatrix.c ****     if(map == NULL) return;
 1993              		.loc 1 94 5 view .LVU648
  94:Middlewares/lvgl/src/widgets/lv_btnmatrix.c ****     if(map == NULL) return;
 1994              		.loc 1 94 5 view .LVU649
  94:Middlewares/lvgl/src/widgets/lv_btnmatrix.c ****     if(map == NULL) return;
 1995              		.loc 1 94 5 view .LVU650
  95:Middlewares/lvgl/src/widgets/lv_btnmatrix.c **** 
 1996              		.loc 1 95 5 view .LVU651
  95:Middlewares/lvgl/src/widgets/lv_btnmatrix.c **** 
 1997              		.loc 1 95 7 is_stmt 0 view .LVU652
 1998 0000 0029     		cmp	r1, #0
 1999 0002 00F0F080 		beq	.L113
  93:Middlewares/lvgl/src/widgets/lv_btnmatrix.c ****     LV_ASSERT_OBJ(obj, MY_CLASS);
 2000              		.loc 1 93 1 view .LVU653
 2001 0006 2DE9F04F 		push	{r4, r5, r6, r7, r8, r9, r10, fp, lr}
 2002              	.LCFI15:
 2003              		.cfi_def_cfa_offset 36
 2004              		.cfi_offset 4, -36
 2005              		.cfi_offset 5, -32
 2006              		.cfi_offset 6, -28
 2007              		.cfi_offset 7, -24
 2008              		.cfi_offset 8, -20
 2009              		.cfi_offset 9, -16
 2010              		.cfi_offset 10, -12
 2011              		.cfi_offset 11, -8
 2012              		.cfi_offset 14, -4
 2013 000a 91B0     		sub	sp, sp, #68
 2014              	.LCFI16:
 2015              		.cfi_def_cfa_offset 104
 2016 000c 8346     		mov	fp, r0
 2017 000e 8946     		mov	r9, r1
  97:Middlewares/lvgl/src/widgets/lv_btnmatrix.c **** 
 2018              		.loc 1 97 5 is_stmt 1 view .LVU654
 2019              	.LVL179:
  97:Middlewares/lvgl/src/widgets/lv_btnmatrix.c **** 
ARM GAS  /tmp/ccnMQJLR.s 			page 65


 2020              		.loc 1 97 51 view .LVU655
 100:Middlewares/lvgl/src/widgets/lv_btnmatrix.c ****     btnm->map_p = map;
 2021              		.loc 1 100 5 view .LVU656
 2022 0010 FFF7FEFF 		bl	allocate_btn_areas_and_controls
 2023              	.LVL180:
 101:Middlewares/lvgl/src/widgets/lv_btnmatrix.c **** 
 2024              		.loc 1 101 5 view .LVU657
 101:Middlewares/lvgl/src/widgets/lv_btnmatrix.c **** 
 2025              		.loc 1 101 17 is_stmt 0 view .LVU658
 2026 0014 CBF82490 		str	r9, [fp, #36]
 103:Middlewares/lvgl/src/widgets/lv_btnmatrix.c **** 
 2027              		.loc 1 103 5 is_stmt 1 view .LVU659
 2028              	.LVL181:
 2029              	.LBB113:
 2030              	.LBI113:
 125:Middlewares/lvgl/src/widgets/../core/lv_obj_style_gen.h **** }
 126:Middlewares/lvgl/src/widgets/../core/lv_obj_style_gen.h **** 
 127:Middlewares/lvgl/src/widgets/../core/lv_obj_style_gen.h **** static inline lv_coord_t lv_obj_get_style_radius(const struct _lv_obj_t * obj, uint32_t part)
 128:Middlewares/lvgl/src/widgets/../core/lv_obj_style_gen.h **** {
 129:Middlewares/lvgl/src/widgets/../core/lv_obj_style_gen.h ****     lv_style_value_t v = lv_obj_get_style_prop(obj, part, LV_STYLE_RADIUS);
 130:Middlewares/lvgl/src/widgets/../core/lv_obj_style_gen.h ****     return (lv_coord_t)v.num;
 131:Middlewares/lvgl/src/widgets/../core/lv_obj_style_gen.h **** }
 132:Middlewares/lvgl/src/widgets/../core/lv_obj_style_gen.h **** 
 133:Middlewares/lvgl/src/widgets/../core/lv_obj_style_gen.h **** static inline bool lv_obj_get_style_clip_corner(const struct _lv_obj_t * obj, uint32_t part)
 134:Middlewares/lvgl/src/widgets/../core/lv_obj_style_gen.h **** {
 135:Middlewares/lvgl/src/widgets/../core/lv_obj_style_gen.h ****     lv_style_value_t v = lv_obj_get_style_prop(obj, part, LV_STYLE_CLIP_CORNER);
 136:Middlewares/lvgl/src/widgets/../core/lv_obj_style_gen.h ****     return (bool)v.num;
 137:Middlewares/lvgl/src/widgets/../core/lv_obj_style_gen.h **** }
 138:Middlewares/lvgl/src/widgets/../core/lv_obj_style_gen.h **** 
 139:Middlewares/lvgl/src/widgets/../core/lv_obj_style_gen.h **** static inline lv_opa_t lv_obj_get_style_opa(const struct _lv_obj_t * obj, uint32_t part)
 140:Middlewares/lvgl/src/widgets/../core/lv_obj_style_gen.h **** {
 141:Middlewares/lvgl/src/widgets/../core/lv_obj_style_gen.h ****     lv_style_value_t v = lv_obj_get_style_prop(obj, part, LV_STYLE_OPA);
 142:Middlewares/lvgl/src/widgets/../core/lv_obj_style_gen.h ****     return (lv_opa_t)v.num;
 143:Middlewares/lvgl/src/widgets/../core/lv_obj_style_gen.h **** }
 144:Middlewares/lvgl/src/widgets/../core/lv_obj_style_gen.h **** 
 145:Middlewares/lvgl/src/widgets/../core/lv_obj_style_gen.h **** static inline const lv_color_filter_dsc_t * lv_obj_get_style_color_filter_dsc(const struct _lv_obj_
 146:Middlewares/lvgl/src/widgets/../core/lv_obj_style_gen.h **** {
 147:Middlewares/lvgl/src/widgets/../core/lv_obj_style_gen.h ****     lv_style_value_t v = lv_obj_get_style_prop(obj, part, LV_STYLE_COLOR_FILTER_DSC);
 148:Middlewares/lvgl/src/widgets/../core/lv_obj_style_gen.h ****     return (const lv_color_filter_dsc_t *)v.ptr;
 149:Middlewares/lvgl/src/widgets/../core/lv_obj_style_gen.h **** }
 150:Middlewares/lvgl/src/widgets/../core/lv_obj_style_gen.h **** 
 151:Middlewares/lvgl/src/widgets/../core/lv_obj_style_gen.h **** static inline lv_opa_t lv_obj_get_style_color_filter_opa(const struct _lv_obj_t * obj, uint32_t par
 152:Middlewares/lvgl/src/widgets/../core/lv_obj_style_gen.h **** {
 153:Middlewares/lvgl/src/widgets/../core/lv_obj_style_gen.h ****     lv_style_value_t v = lv_obj_get_style_prop(obj, part, LV_STYLE_COLOR_FILTER_OPA);
 154:Middlewares/lvgl/src/widgets/../core/lv_obj_style_gen.h ****     return (lv_opa_t)v.num;
 155:Middlewares/lvgl/src/widgets/../core/lv_obj_style_gen.h **** }
 156:Middlewares/lvgl/src/widgets/../core/lv_obj_style_gen.h **** 
 157:Middlewares/lvgl/src/widgets/../core/lv_obj_style_gen.h **** static inline uint32_t lv_obj_get_style_anim_time(const struct _lv_obj_t * obj, uint32_t part)
 158:Middlewares/lvgl/src/widgets/../core/lv_obj_style_gen.h **** {
 159:Middlewares/lvgl/src/widgets/../core/lv_obj_style_gen.h ****     lv_style_value_t v = lv_obj_get_style_prop(obj, part, LV_STYLE_ANIM_TIME);
 160:Middlewares/lvgl/src/widgets/../core/lv_obj_style_gen.h ****     return (uint32_t)v.num;
 161:Middlewares/lvgl/src/widgets/../core/lv_obj_style_gen.h **** }
 162:Middlewares/lvgl/src/widgets/../core/lv_obj_style_gen.h **** 
 163:Middlewares/lvgl/src/widgets/../core/lv_obj_style_gen.h **** static inline uint32_t lv_obj_get_style_anim_speed(const struct _lv_obj_t * obj, uint32_t part)
 164:Middlewares/lvgl/src/widgets/../core/lv_obj_style_gen.h **** {
 165:Middlewares/lvgl/src/widgets/../core/lv_obj_style_gen.h ****     lv_style_value_t v = lv_obj_get_style_prop(obj, part, LV_STYLE_ANIM_SPEED);
 166:Middlewares/lvgl/src/widgets/../core/lv_obj_style_gen.h ****     return (uint32_t)v.num;
ARM GAS  /tmp/ccnMQJLR.s 			page 66


 167:Middlewares/lvgl/src/widgets/../core/lv_obj_style_gen.h **** }
 168:Middlewares/lvgl/src/widgets/../core/lv_obj_style_gen.h **** 
 169:Middlewares/lvgl/src/widgets/../core/lv_obj_style_gen.h **** static inline const lv_style_transition_dsc_t * lv_obj_get_style_transition(const struct _lv_obj_t 
 170:Middlewares/lvgl/src/widgets/../core/lv_obj_style_gen.h **** {
 171:Middlewares/lvgl/src/widgets/../core/lv_obj_style_gen.h ****     lv_style_value_t v = lv_obj_get_style_prop(obj, part, LV_STYLE_TRANSITION);
 172:Middlewares/lvgl/src/widgets/../core/lv_obj_style_gen.h ****     return (const lv_style_transition_dsc_t *)v.ptr;
 173:Middlewares/lvgl/src/widgets/../core/lv_obj_style_gen.h **** }
 174:Middlewares/lvgl/src/widgets/../core/lv_obj_style_gen.h **** 
 175:Middlewares/lvgl/src/widgets/../core/lv_obj_style_gen.h **** static inline lv_blend_mode_t lv_obj_get_style_blend_mode(const struct _lv_obj_t * obj, uint32_t pa
 176:Middlewares/lvgl/src/widgets/../core/lv_obj_style_gen.h **** {
 177:Middlewares/lvgl/src/widgets/../core/lv_obj_style_gen.h ****     lv_style_value_t v = lv_obj_get_style_prop(obj, part, LV_STYLE_BLEND_MODE);
 178:Middlewares/lvgl/src/widgets/../core/lv_obj_style_gen.h ****     return (lv_blend_mode_t)v.num;
 179:Middlewares/lvgl/src/widgets/../core/lv_obj_style_gen.h **** }
 180:Middlewares/lvgl/src/widgets/../core/lv_obj_style_gen.h **** 
 181:Middlewares/lvgl/src/widgets/../core/lv_obj_style_gen.h **** static inline uint16_t lv_obj_get_style_layout(const struct _lv_obj_t * obj, uint32_t part)
 182:Middlewares/lvgl/src/widgets/../core/lv_obj_style_gen.h **** {
 183:Middlewares/lvgl/src/widgets/../core/lv_obj_style_gen.h ****     lv_style_value_t v = lv_obj_get_style_prop(obj, part, LV_STYLE_LAYOUT);
 184:Middlewares/lvgl/src/widgets/../core/lv_obj_style_gen.h ****     return (uint16_t)v.num;
 185:Middlewares/lvgl/src/widgets/../core/lv_obj_style_gen.h **** }
 186:Middlewares/lvgl/src/widgets/../core/lv_obj_style_gen.h **** 
 187:Middlewares/lvgl/src/widgets/../core/lv_obj_style_gen.h **** static inline lv_base_dir_t lv_obj_get_style_base_dir(const struct _lv_obj_t * obj, uint32_t part)
 2031              		.loc 2 187 29 view .LVU660
 2032              	.LBB114:
 188:Middlewares/lvgl/src/widgets/../core/lv_obj_style_gen.h **** {
 189:Middlewares/lvgl/src/widgets/../core/lv_obj_style_gen.h ****     lv_style_value_t v = lv_obj_get_style_prop(obj, part, LV_STYLE_BASE_DIR);
 2033              		.loc 2 189 5 view .LVU661
 2034              		.loc 2 189 26 is_stmt 0 view .LVU662
 2035 0018 41F26A42 		movw	r2, #5226
 2036 001c 0021     		movs	r1, #0
 2037 001e 5846     		mov	r0, fp
 2038 0020 FFF7FEFF 		bl	lv_obj_get_style_prop
 2039              	.LVL182:
 190:Middlewares/lvgl/src/widgets/../core/lv_obj_style_gen.h ****     return (lv_base_dir_t)v.num;
 2040              		.loc 2 190 5 is_stmt 1 view .LVU663
 2041              		.loc 2 190 12 is_stmt 0 view .LVU664
 2042 0024 C3B2     		uxtb	r3, r0
 2043 0026 0693     		str	r3, [sp, #24]
 2044              	.LVL183:
 2045              		.loc 2 190 12 view .LVU665
 2046              	.LBE114:
 2047              	.LBE113:
 106:Middlewares/lvgl/src/widgets/lv_btnmatrix.c ****     lv_coord_t ptop = lv_obj_get_style_pad_top(obj, LV_PART_MAIN);
 2048              		.loc 1 106 5 is_stmt 1 view .LVU666
 2049              	.LBB115:
 2050              	.LBI115:
 103:Middlewares/lvgl/src/widgets/../core/lv_obj_style_gen.h **** {
 2051              		.loc 2 103 26 view .LVU667
 2052              	.LBB116:
 105:Middlewares/lvgl/src/widgets/../core/lv_obj_style_gen.h ****     return (lv_coord_t)v.num;
 2053              		.loc 2 105 5 view .LVU668
 105:Middlewares/lvgl/src/widgets/../core/lv_obj_style_gen.h ****     return (lv_coord_t)v.num;
 2054              		.loc 2 105 26 is_stmt 0 view .LVU669
 2055 0028 41F21202 		movw	r2, #4114
 2056 002c 0021     		movs	r1, #0
 2057 002e 5846     		mov	r0, fp
 2058 0030 FFF7FEFF 		bl	lv_obj_get_style_prop
 2059              	.LVL184:
ARM GAS  /tmp/ccnMQJLR.s 			page 67


 2060 0034 0590     		str	r0, [sp, #20]
 106:Middlewares/lvgl/src/widgets/../core/lv_obj_style_gen.h **** }
 2061              		.loc 2 106 5 is_stmt 1 view .LVU670
 2062              	.LVL185:
 106:Middlewares/lvgl/src/widgets/../core/lv_obj_style_gen.h **** }
 2063              		.loc 2 106 5 is_stmt 0 view .LVU671
 2064              	.LBE116:
 2065              	.LBE115:
 107:Middlewares/lvgl/src/widgets/lv_btnmatrix.c ****     lv_coord_t prow = lv_obj_get_style_pad_row(obj, LV_PART_MAIN);
 2066              		.loc 1 107 5 is_stmt 1 view .LVU672
 2067              	.LBB117:
 2068              	.LBI117:
  91:Middlewares/lvgl/src/widgets/../core/lv_obj_style_gen.h **** {
 2069              		.loc 2 91 26 view .LVU673
 2070              	.LBB118:
  93:Middlewares/lvgl/src/widgets/../core/lv_obj_style_gen.h ****     return (lv_coord_t)v.num;
 2071              		.loc 2 93 5 view .LVU674
  93:Middlewares/lvgl/src/widgets/../core/lv_obj_style_gen.h ****     return (lv_coord_t)v.num;
 2072              		.loc 2 93 26 is_stmt 0 view .LVU675
 2073 0036 41F21002 		movw	r2, #4112
 2074 003a 0021     		movs	r1, #0
 2075 003c 5846     		mov	r0, fp
 2076 003e FFF7FEFF 		bl	lv_obj_get_style_prop
 2077              	.LVL186:
 2078 0042 0F90     		str	r0, [sp, #60]
  94:Middlewares/lvgl/src/widgets/../core/lv_obj_style_gen.h **** }
 2079              		.loc 2 94 5 is_stmt 1 view .LVU676
 2080              	.LVL187:
  94:Middlewares/lvgl/src/widgets/../core/lv_obj_style_gen.h **** }
 2081              		.loc 2 94 5 is_stmt 0 view .LVU677
 2082              	.LBE118:
 2083              	.LBE117:
 108:Middlewares/lvgl/src/widgets/lv_btnmatrix.c ****     lv_coord_t pcol = lv_obj_get_style_pad_column(obj, LV_PART_MAIN);
 2084              		.loc 1 108 5 is_stmt 1 view .LVU678
 2085              	.LBB119:
 2086              	.LBI119:
 115:Middlewares/lvgl/src/widgets/../core/lv_obj_style_gen.h **** {
 2087              		.loc 2 115 26 view .LVU679
 2088              	.LBB120:
 117:Middlewares/lvgl/src/widgets/../core/lv_obj_style_gen.h ****     return (lv_coord_t)v.num;
 2089              		.loc 2 117 5 view .LVU680
 117:Middlewares/lvgl/src/widgets/../core/lv_obj_style_gen.h ****     return (lv_coord_t)v.num;
 2090              		.loc 2 117 26 is_stmt 0 view .LVU681
 2091 0044 41F21402 		movw	r2, #4116
 2092 0048 0021     		movs	r1, #0
 2093 004a 5846     		mov	r0, fp
 2094 004c FFF7FEFF 		bl	lv_obj_get_style_prop
 2095              	.LVL188:
 2096 0050 0646     		mov	r6, r0
 118:Middlewares/lvgl/src/widgets/../core/lv_obj_style_gen.h **** }
 2097              		.loc 2 118 5 is_stmt 1 view .LVU682
 118:Middlewares/lvgl/src/widgets/../core/lv_obj_style_gen.h **** }
 2098              		.loc 2 118 12 is_stmt 0 view .LVU683
 2099 0052 03B2     		sxth	r3, r0
 2100 0054 0E93     		str	r3, [sp, #56]
 2101              	.LVL189:
 118:Middlewares/lvgl/src/widgets/../core/lv_obj_style_gen.h **** }
ARM GAS  /tmp/ccnMQJLR.s 			page 68


 2102              		.loc 2 118 12 view .LVU684
 2103              	.LBE120:
 2104              	.LBE119:
 109:Middlewares/lvgl/src/widgets/lv_btnmatrix.c **** 
 2105              		.loc 1 109 5 is_stmt 1 view .LVU685
 2106              	.LBB121:
 2107              	.LBI121:
 121:Middlewares/lvgl/src/widgets/../core/lv_obj_style_gen.h **** {
 2108              		.loc 2 121 26 view .LVU686
 2109              	.LBB122:
 123:Middlewares/lvgl/src/widgets/../core/lv_obj_style_gen.h ****     return (lv_coord_t)v.num;
 2110              		.loc 2 123 5 view .LVU687
 123:Middlewares/lvgl/src/widgets/../core/lv_obj_style_gen.h ****     return (lv_coord_t)v.num;
 2111              		.loc 2 123 26 is_stmt 0 view .LVU688
 2112 0056 41F21502 		movw	r2, #4117
 2113 005a 0021     		movs	r1, #0
 2114 005c 5846     		mov	r0, fp
 2115 005e FFF7FEFF 		bl	lv_obj_get_style_prop
 2116              	.LVL190:
 2117 0062 0D90     		str	r0, [sp, #52]
 124:Middlewares/lvgl/src/widgets/../core/lv_obj_style_gen.h **** }
 2118              		.loc 2 124 5 is_stmt 1 view .LVU689
 124:Middlewares/lvgl/src/widgets/../core/lv_obj_style_gen.h **** }
 2119              		.loc 2 124 12 is_stmt 0 view .LVU690
 2120 0064 03B2     		sxth	r3, r0
 2121 0066 0C93     		str	r3, [sp, #48]
 2122              	.LVL191:
 124:Middlewares/lvgl/src/widgets/../core/lv_obj_style_gen.h **** }
 2123              		.loc 2 124 12 view .LVU691
 2124              	.LBE122:
 2125              	.LBE121:
 111:Middlewares/lvgl/src/widgets/lv_btnmatrix.c ****     lv_coord_t max_h            = lv_obj_get_content_height(obj);
 2126              		.loc 1 111 5 is_stmt 1 view .LVU692
 111:Middlewares/lvgl/src/widgets/lv_btnmatrix.c ****     lv_coord_t max_h            = lv_obj_get_content_height(obj);
 2127              		.loc 1 111 35 is_stmt 0 view .LVU693
 2128 0068 5846     		mov	r0, fp
 2129 006a FFF7FEFF 		bl	lv_obj_get_content_width
 2130              	.LVL192:
 2131 006e 0A90     		str	r0, [sp, #40]
 2132              	.LVL193:
 112:Middlewares/lvgl/src/widgets/lv_btnmatrix.c **** 
 2133              		.loc 1 112 5 is_stmt 1 view .LVU694
 112:Middlewares/lvgl/src/widgets/lv_btnmatrix.c **** 
 2134              		.loc 1 112 35 is_stmt 0 view .LVU695
 2135 0070 5846     		mov	r0, fp
 2136 0072 FFF7FEFF 		bl	lv_obj_get_content_height
 2137              	.LVL194:
 2138 0076 0546     		mov	r5, r0
 2139              	.LVL195:
 115:Middlewares/lvgl/src/widgets/lv_btnmatrix.c ****     uint32_t i;
 2140              		.loc 1 115 5 is_stmt 1 view .LVU696
 116:Middlewares/lvgl/src/widgets/lv_btnmatrix.c ****     for(i = 0; map[i] && map[i][0] != '\0'; i++) {
 2141              		.loc 1 116 5 view .LVU697
 117:Middlewares/lvgl/src/widgets/lv_btnmatrix.c ****         if(strcmp(map[i], "\n") == 0) row_cnt++;
 2142              		.loc 1 117 5 view .LVU698
 117:Middlewares/lvgl/src/widgets/lv_btnmatrix.c ****         if(strcmp(map[i], "\n") == 0) row_cnt++;
 2143              		.loc 1 117 11 is_stmt 0 view .LVU699
ARM GAS  /tmp/ccnMQJLR.s 			page 69


 2144 0078 0024     		movs	r4, #0
 115:Middlewares/lvgl/src/widgets/lv_btnmatrix.c ****     uint32_t i;
 2145              		.loc 1 115 13 view .LVU700
 2146 007a 0123     		movs	r3, #1
 2147 007c 1F46     		mov	r7, r3
 117:Middlewares/lvgl/src/widgets/lv_btnmatrix.c ****         if(strcmp(map[i], "\n") == 0) row_cnt++;
 2148              		.loc 1 117 5 view .LVU701
 2149 007e 00E0     		b	.L96
 2150              	.LVL196:
 2151              	.L97:
 117:Middlewares/lvgl/src/widgets/lv_btnmatrix.c ****         if(strcmp(map[i], "\n") == 0) row_cnt++;
 2152              		.loc 1 117 45 is_stmt 1 discriminator 2 view .LVU702
 117:Middlewares/lvgl/src/widgets/lv_btnmatrix.c ****         if(strcmp(map[i], "\n") == 0) row_cnt++;
 2153              		.loc 1 117 46 is_stmt 0 discriminator 2 view .LVU703
 2154 0080 0134     		adds	r4, r4, #1
 2155              	.LVL197:
 2156              	.L96:
 117:Middlewares/lvgl/src/widgets/lv_btnmatrix.c ****         if(strcmp(map[i], "\n") == 0) row_cnt++;
 2157              		.loc 1 117 16 is_stmt 1 discriminator 1 view .LVU704
 117:Middlewares/lvgl/src/widgets/lv_btnmatrix.c ****         if(strcmp(map[i], "\n") == 0) row_cnt++;
 2158              		.loc 1 117 19 is_stmt 0 discriminator 1 view .LVU705
 2159 0082 59F82400 		ldr	r0, [r9, r4, lsl #2]
 117:Middlewares/lvgl/src/widgets/lv_btnmatrix.c ****         if(strcmp(map[i], "\n") == 0) row_cnt++;
 2160              		.loc 1 117 5 discriminator 1 view .LVU706
 2161 0086 48B1     		cbz	r0, .L98
 117:Middlewares/lvgl/src/widgets/lv_btnmatrix.c ****         if(strcmp(map[i], "\n") == 0) row_cnt++;
 2162              		.loc 1 117 32 discriminator 3 view .LVU707
 2163 0088 0378     		ldrb	r3, [r0]	@ zero_extendqisi2
 117:Middlewares/lvgl/src/widgets/lv_btnmatrix.c ****         if(strcmp(map[i], "\n") == 0) row_cnt++;
 2164              		.loc 1 117 23 discriminator 3 view .LVU708
 2165 008a 3BB1     		cbz	r3, .L98
 118:Middlewares/lvgl/src/widgets/lv_btnmatrix.c ****     }
 2166              		.loc 1 118 9 is_stmt 1 view .LVU709
 118:Middlewares/lvgl/src/widgets/lv_btnmatrix.c ****     }
 2167              		.loc 1 118 12 is_stmt 0 view .LVU710
 2168 008c 5649     		ldr	r1, .L119
 2169 008e FFF7FEFF 		bl	strcmp
 2170              	.LVL198:
 118:Middlewares/lvgl/src/widgets/lv_btnmatrix.c ****     }
 2171              		.loc 1 118 11 view .LVU711
 2172 0092 0028     		cmp	r0, #0
 2173 0094 F4D1     		bne	.L97
 118:Middlewares/lvgl/src/widgets/lv_btnmatrix.c ****     }
 2174              		.loc 1 118 39 is_stmt 1 discriminator 1 view .LVU712
 118:Middlewares/lvgl/src/widgets/lv_btnmatrix.c ****     }
 2175              		.loc 1 118 46 is_stmt 0 discriminator 1 view .LVU713
 2176 0096 0137     		adds	r7, r7, #1
 2177              	.LVL199:
 118:Middlewares/lvgl/src/widgets/lv_btnmatrix.c ****     }
 2178              		.loc 1 118 46 discriminator 1 view .LVU714
 2179 0098 FFB2     		uxtb	r7, r7
 2180              	.LVL200:
 118:Middlewares/lvgl/src/widgets/lv_btnmatrix.c ****     }
 2181              		.loc 1 118 46 discriminator 1 view .LVU715
 2182 009a F1E7     		b	.L97
 2183              	.L98:
 122:Middlewares/lvgl/src/widgets/lv_btnmatrix.c **** 
ARM GAS  /tmp/ccnMQJLR.s 			page 70


 2184              		.loc 1 122 56 view .LVU716
 2185 009c 0897     		str	r7, [sp, #32]
 122:Middlewares/lvgl/src/widgets/lv_btnmatrix.c **** 
 2186              		.loc 1 122 5 is_stmt 1 view .LVU717
 122:Middlewares/lvgl/src/widgets/lv_btnmatrix.c **** 
 2187              		.loc 1 122 56 is_stmt 0 view .LVU718
 2188 009e 7B1E     		subs	r3, r7, #1
 122:Middlewares/lvgl/src/widgets/lv_btnmatrix.c **** 
 2189              		.loc 1 122 37 view .LVU719
 2190 00a0 03FB1655 		mls	r5, r3, r6, r5
 2191              	.LVL201:
 122:Middlewares/lvgl/src/widgets/lv_btnmatrix.c **** 
 2192              		.loc 1 122 16 view .LVU720
 2193 00a4 2BB2     		sxth	r3, r5
 2194 00a6 0B93     		str	r3, [sp, #44]
 2195              	.LVL202:
 126:Middlewares/lvgl/src/widgets/lv_btnmatrix.c ****     uint32_t btn_tot_i = 0; /*Act. index of button areas*/
 2196              		.loc 1 126 5 is_stmt 1 view .LVU721
 127:Middlewares/lvgl/src/widgets/lv_btnmatrix.c ****     const char ** map_row = map;
 2197              		.loc 1 127 5 view .LVU722
 128:Middlewares/lvgl/src/widgets/lv_btnmatrix.c **** 
 2198              		.loc 1 128 5 view .LVU723
 131:Middlewares/lvgl/src/widgets/lv_btnmatrix.c ****     for(row = 0; row < row_cnt; row++) {
 2199              		.loc 1 131 5 view .LVU724
 132:Middlewares/lvgl/src/widgets/lv_btnmatrix.c ****         uint16_t unit_cnt = 0;           /*Number of units in a row*/
 2200              		.loc 1 132 5 view .LVU725
 132:Middlewares/lvgl/src/widgets/lv_btnmatrix.c ****         uint16_t unit_cnt = 0;           /*Number of units in a row*/
 2201              		.loc 1 132 13 is_stmt 0 view .LVU726
 2202 00a8 0023     		movs	r3, #0
 2203 00aa 0493     		str	r3, [sp, #16]
 127:Middlewares/lvgl/src/widgets/lv_btnmatrix.c ****     const char ** map_row = map;
 2204              		.loc 1 127 14 view .LVU727
 2205 00ac 9A46     		mov	r10, r3
 132:Middlewares/lvgl/src/widgets/lv_btnmatrix.c ****         uint16_t unit_cnt = 0;           /*Number of units in a row*/
 2206              		.loc 1 132 5 view .LVU728
 2207 00ae 1EE0     		b	.L100
 2208              	.LVL203:
 2209              	.L102:
 2210              	.LBB123:
 137:Middlewares/lvgl/src/widgets/lv_btnmatrix.c ****             btn_cnt++;
 2211              		.loc 1 137 13 is_stmt 1 view .LVU729
 137:Middlewares/lvgl/src/widgets/lv_btnmatrix.c ****             btn_cnt++;
 2212              		.loc 1 137 46 is_stmt 0 view .LVU730
 2213 00b0 DBF82C30 		ldr	r3, [fp, #44]
 137:Middlewares/lvgl/src/widgets/lv_btnmatrix.c ****             btn_cnt++;
 2214              		.loc 1 137 68 view .LVU731
 2215 00b4 5644     		add	r6, r6, r10
 137:Middlewares/lvgl/src/widgets/lv_btnmatrix.c ****             btn_cnt++;
 2216              		.loc 1 137 25 view .LVU732
 2217 00b6 33F81600 		ldrh	r0, [r3, r6, lsl #1]
 2218 00ba FFF7FEFF 		bl	get_button_width
 2219              	.LVL204:
 2220 00be 80B2     		uxth	r0, r0
 137:Middlewares/lvgl/src/widgets/lv_btnmatrix.c ****             btn_cnt++;
 2221              		.loc 1 137 22 view .LVU733
 2222 00c0 2044     		add	r0, r0, r4
 2223 00c2 84B2     		uxth	r4, r0
ARM GAS  /tmp/ccnMQJLR.s 			page 71


 2224              	.LVL205:
 138:Middlewares/lvgl/src/widgets/lv_btnmatrix.c ****         }
 2225              		.loc 1 138 13 is_stmt 1 view .LVU734
 138:Middlewares/lvgl/src/widgets/lv_btnmatrix.c ****         }
 2226              		.loc 1 138 20 is_stmt 0 view .LVU735
 2227 00c4 0135     		adds	r5, r5, #1
 2228              	.LVL206:
 138:Middlewares/lvgl/src/widgets/lv_btnmatrix.c ****         }
 2229              		.loc 1 138 20 view .LVU736
 2230 00c6 ADB2     		uxth	r5, r5
 2231              	.LVL207:
 2232              	.L109:
 136:Middlewares/lvgl/src/widgets/lv_btnmatrix.c ****             unit_cnt += get_button_width(btnm->ctrl_bits[btn_tot_i + btn_cnt]);
 2233              		.loc 1 136 14 is_stmt 1 view .LVU737
 136:Middlewares/lvgl/src/widgets/lv_btnmatrix.c ****             unit_cnt += get_button_width(btnm->ctrl_bits[btn_tot_i + btn_cnt]);
 2234              		.loc 1 136 22 is_stmt 0 view .LVU738
 2235 00c8 2E46     		mov	r6, r5
 2236 00ca 59F82570 		ldr	r7, [r9, r5, lsl #2]
 136:Middlewares/lvgl/src/widgets/lv_btnmatrix.c ****             unit_cnt += get_button_width(btnm->ctrl_bits[btn_tot_i + btn_cnt]);
 2237              		.loc 1 136 14 view .LVU739
 2238 00ce 3FB1     		cbz	r7, .L101
 136:Middlewares/lvgl/src/widgets/lv_btnmatrix.c ****             unit_cnt += get_button_width(btnm->ctrl_bits[btn_tot_i + btn_cnt]);
 2239              		.loc 1 136 35 discriminator 1 view .LVU740
 2240 00d0 4549     		ldr	r1, .L119
 2241 00d2 3846     		mov	r0, r7
 2242 00d4 FFF7FEFF 		bl	strcmp
 2243              	.LVL208:
 136:Middlewares/lvgl/src/widgets/lv_btnmatrix.c ****             unit_cnt += get_button_width(btnm->ctrl_bits[btn_tot_i + btn_cnt]);
 2244              		.loc 1 136 32 discriminator 1 view .LVU741
 2245 00d8 10B1     		cbz	r0, .L101
 136:Middlewares/lvgl/src/widgets/lv_btnmatrix.c ****             unit_cnt += get_button_width(btnm->ctrl_bits[btn_tot_i + btn_cnt]);
 2246              		.loc 1 136 90 discriminator 2 view .LVU742
 2247 00da 3B78     		ldrb	r3, [r7]	@ zero_extendqisi2
 136:Middlewares/lvgl/src/widgets/lv_btnmatrix.c ****             unit_cnt += get_button_width(btnm->ctrl_bits[btn_tot_i + btn_cnt]);
 2248              		.loc 1 136 71 discriminator 2 view .LVU743
 2249 00dc 002B     		cmp	r3, #0
 2250 00de E7D1     		bne	.L102
 2251              	.L101:
 142:Middlewares/lvgl/src/widgets/lv_btnmatrix.c ****             map_row = &map_row[btn_cnt + 1];       /*Set the map to the next row*/
 2252              		.loc 1 142 9 is_stmt 1 view .LVU744
 142:Middlewares/lvgl/src/widgets/lv_btnmatrix.c ****             map_row = &map_row[btn_cnt + 1];       /*Set the map to the next row*/
 2253              		.loc 1 142 11 is_stmt 0 view .LVU745
 2254 00e0 6DB9     		cbnz	r5, .L103
 143:Middlewares/lvgl/src/widgets/lv_btnmatrix.c ****             continue;
 2255              		.loc 1 143 13 is_stmt 1 view .LVU746
 143:Middlewares/lvgl/src/widgets/lv_btnmatrix.c ****             continue;
 2256              		.loc 1 143 31 is_stmt 0 view .LVU747
 2257 00e2 0136     		adds	r6, r6, #1
 143:Middlewares/lvgl/src/widgets/lv_btnmatrix.c ****             continue;
 2258              		.loc 1 143 21 view .LVU748
 2259 00e4 09EB8609 		add	r9, r9, r6, lsl #2
 2260              	.LVL209:
 144:Middlewares/lvgl/src/widgets/lv_btnmatrix.c ****         }
 2261              		.loc 1 144 13 is_stmt 1 view .LVU749
 2262              	.L104:
 144:Middlewares/lvgl/src/widgets/lv_btnmatrix.c ****         }
 2263              		.loc 1 144 13 is_stmt 0 view .LVU750
ARM GAS  /tmp/ccnMQJLR.s 			page 72


 2264              	.LBE123:
 132:Middlewares/lvgl/src/widgets/lv_btnmatrix.c ****         uint16_t unit_cnt = 0;           /*Number of units in a row*/
 2265              		.loc 1 132 33 is_stmt 1 discriminator 2 view .LVU751
 132:Middlewares/lvgl/src/widgets/lv_btnmatrix.c ****         uint16_t unit_cnt = 0;           /*Number of units in a row*/
 2266              		.loc 1 132 36 is_stmt 0 discriminator 2 view .LVU752
 2267 00e8 049B     		ldr	r3, [sp, #16]
 2268 00ea 0133     		adds	r3, r3, #1
 2269 00ec 0493     		str	r3, [sp, #16]
 2270              	.LVL210:
 2271              	.L100:
 132:Middlewares/lvgl/src/widgets/lv_btnmatrix.c ****         uint16_t unit_cnt = 0;           /*Number of units in a row*/
 2272              		.loc 1 132 18 is_stmt 1 discriminator 1 view .LVU753
 132:Middlewares/lvgl/src/widgets/lv_btnmatrix.c ****         uint16_t unit_cnt = 0;           /*Number of units in a row*/
 2273              		.loc 1 132 22 is_stmt 0 discriminator 1 view .LVU754
 2274 00ee 089B     		ldr	r3, [sp, #32]
 2275 00f0 9846     		mov	r8, r3
 132:Middlewares/lvgl/src/widgets/lv_btnmatrix.c ****         uint16_t unit_cnt = 0;           /*Number of units in a row*/
 2276              		.loc 1 132 5 discriminator 1 view .LVU755
 2277 00f2 049A     		ldr	r2, [sp, #16]
 2278 00f4 9342     		cmp	r3, r2
 2279 00f6 70D9     		bls	.L116
 2280              	.LBB127:
 134:Middlewares/lvgl/src/widgets/lv_btnmatrix.c ****         /*Count the buttons and units in this row*/
 2281              		.loc 1 134 18 view .LVU756
 2282 00f8 0025     		movs	r5, #0
 133:Middlewares/lvgl/src/widgets/lv_btnmatrix.c ****         uint16_t btn_cnt = 0;            /*Number of buttons in a row*/
 2283              		.loc 1 133 18 view .LVU757
 2284 00fa 2C46     		mov	r4, r5
 2285 00fc E4E7     		b	.L109
 2286              	.LVL211:
 2287              	.L103:
 147:Middlewares/lvgl/src/widgets/lv_btnmatrix.c ****         lv_coord_t row_y2 = ptop + (max_h_no_gap * (row + 1)) / row_cnt + row * prow - 1;
 2288              		.loc 1 147 9 is_stmt 1 view .LVU758
 147:Middlewares/lvgl/src/widgets/lv_btnmatrix.c ****         lv_coord_t row_y2 = ptop + (max_h_no_gap * (row + 1)) / row_cnt + row * prow - 1;
 2289              		.loc 1 147 50 is_stmt 0 view .LVU759
 2290 00fe 0B9F     		ldr	r7, [sp, #44]
 2291 0100 0498     		ldr	r0, [sp, #16]
 2292 0102 00FB07F2 		mul	r2, r0, r7
 147:Middlewares/lvgl/src/widgets/lv_btnmatrix.c ****         lv_coord_t row_y2 = ptop + (max_h_no_gap * (row + 1)) / row_cnt + row * prow - 1;
 2293              		.loc 1 147 57 view .LVU760
 2294 0106 B2FBF8F2 		udiv	r2, r2, r8
 147:Middlewares/lvgl/src/widgets/lv_btnmatrix.c ****         lv_coord_t row_y2 = ptop + (max_h_no_gap * (row + 1)) / row_cnt + row * prow - 1;
 2295              		.loc 1 147 34 view .LVU761
 2296 010a BDF83C10 		ldrh	r1, [sp, #60]
 2297 010e 0A44     		add	r2, r2, r1
 2298 0110 92B2     		uxth	r2, r2
 147:Middlewares/lvgl/src/widgets/lv_btnmatrix.c ****         lv_coord_t row_y2 = ptop + (max_h_no_gap * (row + 1)) / row_cnt + row * prow - 1;
 2299              		.loc 1 147 67 view .LVU762
 2300 0112 0E9B     		ldr	r3, [sp, #56]
 2301 0114 03FB00F3 		mul	r3, r3, r0
 2302 0118 9BB2     		uxth	r3, r3
 2303 011a 1A44     		add	r2, r2, r3
 147:Middlewares/lvgl/src/widgets/lv_btnmatrix.c ****         lv_coord_t row_y2 = ptop + (max_h_no_gap * (row + 1)) / row_cnt + row * prow - 1;
 2304              		.loc 1 147 20 view .LVU763
 2305 011c 12B2     		sxth	r2, r2
 2306 011e 0292     		str	r2, [sp, #8]
 2307              	.LVL212:
ARM GAS  /tmp/ccnMQJLR.s 			page 73


 148:Middlewares/lvgl/src/widgets/lv_btnmatrix.c **** 
 2308              		.loc 1 148 9 is_stmt 1 view .LVU764
 148:Middlewares/lvgl/src/widgets/lv_btnmatrix.c **** 
 2309              		.loc 1 148 50 is_stmt 0 view .LVU765
 2310 0120 00FB0772 		mla	r2, r0, r7, r7
 148:Middlewares/lvgl/src/widgets/lv_btnmatrix.c **** 
 2311              		.loc 1 148 63 view .LVU766
 2312 0124 B2FBF8F8 		udiv	r8, r2, r8
 148:Middlewares/lvgl/src/widgets/lv_btnmatrix.c **** 
 2313              		.loc 1 148 34 view .LVU767
 2314 0128 4144     		add	r1, r1, r8
 2315 012a 89B2     		uxth	r1, r1
 148:Middlewares/lvgl/src/widgets/lv_btnmatrix.c **** 
 2316              		.loc 1 148 73 view .LVU768
 2317 012c 0B44     		add	r3, r3, r1
 2318 012e 9BB2     		uxth	r3, r3
 148:Middlewares/lvgl/src/widgets/lv_btnmatrix.c **** 
 2319              		.loc 1 148 86 view .LVU769
 2320 0130 013B     		subs	r3, r3, #1
 148:Middlewares/lvgl/src/widgets/lv_btnmatrix.c **** 
 2321              		.loc 1 148 20 view .LVU770
 2322 0132 1BB2     		sxth	r3, r3
 2323 0134 0393     		str	r3, [sp, #12]
 2324              	.LVL213:
 151:Middlewares/lvgl/src/widgets/lv_btnmatrix.c ****         if(max_w_no_gap < 0) max_w_no_gap = 0;
 2325              		.loc 1 151 9 is_stmt 1 view .LVU771
 151:Middlewares/lvgl/src/widgets/lv_btnmatrix.c ****         if(max_w_no_gap < 0) max_w_no_gap = 0;
 2326              		.loc 1 151 41 is_stmt 0 view .LVU772
 2327 0136 BDF82830 		ldrh	r3, [sp, #40]
 2328 013a 0793     		str	r3, [sp, #28]
 2329 013c 013D     		subs	r5, r5, #1
 2330              	.LVL214:
 151:Middlewares/lvgl/src/widgets/lv_btnmatrix.c ****         if(max_w_no_gap < 0) max_w_no_gap = 0;
 2331              		.loc 1 151 41 view .LVU773
 2332 013e 0D9A     		ldr	r2, [sp, #52]
 2333 0140 05FB1235 		mls	r5, r5, r2, r3
 151:Middlewares/lvgl/src/widgets/lv_btnmatrix.c ****         if(max_w_no_gap < 0) max_w_no_gap = 0;
 2334              		.loc 1 151 20 view .LVU774
 2335 0144 2DB2     		sxth	r5, r5
 2336              	.LVL215:
 152:Middlewares/lvgl/src/widgets/lv_btnmatrix.c **** 
 2337              		.loc 1 152 9 is_stmt 1 view .LVU775
 152:Middlewares/lvgl/src/widgets/lv_btnmatrix.c **** 
 2338              		.loc 1 152 11 is_stmt 0 view .LVU776
 2339 0146 002D     		cmp	r5, #0
 2340 0148 06DB     		blt	.L117
 2341              	.LVL216:
 2342              	.L105:
 154:Middlewares/lvgl/src/widgets/lv_btnmatrix.c ****         uint32_t btn;
 2343              		.loc 1 154 9 is_stmt 1 view .LVU777
 155:Middlewares/lvgl/src/widgets/lv_btnmatrix.c ****         for(btn = 0; btn < btn_cnt; btn++, btn_tot_i++, txt_tot_i++) {
 2344              		.loc 1 155 9 view .LVU778
 156:Middlewares/lvgl/src/widgets/lv_btnmatrix.c ****             uint32_t btn_u = get_button_width(btnm->ctrl_bits[btn_tot_i]);
 2345              		.loc 1 156 9 view .LVU779
 156:Middlewares/lvgl/src/widgets/lv_btnmatrix.c ****             uint32_t btn_u = get_button_width(btnm->ctrl_bits[btn_tot_i]);
 2346              		.loc 1 156 17 is_stmt 0 view .LVU780
 2347 014a 0027     		movs	r7, #0
ARM GAS  /tmp/ccnMQJLR.s 			page 74


 154:Middlewares/lvgl/src/widgets/lv_btnmatrix.c ****         uint32_t btn;
 2348              		.loc 1 154 18 view .LVU781
 2349 014c B846     		mov	r8, r7
 2350 014e CDF82490 		str	r9, [sp, #36]
 2351 0152 DDF83090 		ldr	r9, [sp, #48]
 2352              	.LVL217:
 156:Middlewares/lvgl/src/widgets/lv_btnmatrix.c ****             uint32_t btn_u = get_button_width(btnm->ctrl_bits[btn_tot_i]);
 2353              		.loc 1 156 9 view .LVU782
 2354 0156 13E0     		b	.L106
 2355              	.LVL218:
 2356              	.L117:
 152:Middlewares/lvgl/src/widgets/lv_btnmatrix.c **** 
 2357              		.loc 1 152 43 view .LVU783
 2358 0158 0025     		movs	r5, #0
 2359              	.LVL219:
 152:Middlewares/lvgl/src/widgets/lv_btnmatrix.c **** 
 2360              		.loc 1 152 43 view .LVU784
 2361 015a F6E7     		b	.L105
 2362              	.LVL220:
 2363              	.L107:
 2364              	.LBB124:
 172:Middlewares/lvgl/src/widgets/lv_btnmatrix.c ****             btn_x2 += pleft;
 2365              		.loc 1 172 13 is_stmt 1 discriminator 2 view .LVU785
 172:Middlewares/lvgl/src/widgets/lv_btnmatrix.c ****             btn_x2 += pleft;
 2366              		.loc 1 172 20 is_stmt 0 discriminator 2 view .LVU786
 2367 015c BDF81420 		ldrh	r2, [sp, #20]
 2368 0160 1144     		add	r1, r1, r2
 2369              	.LVL221:
 173:Middlewares/lvgl/src/widgets/lv_btnmatrix.c **** 
 2370              		.loc 1 173 13 is_stmt 1 discriminator 2 view .LVU787
 173:Middlewares/lvgl/src/widgets/lv_btnmatrix.c **** 
 2371              		.loc 1 173 20 is_stmt 0 discriminator 2 view .LVU788
 2372 0162 1344     		add	r3, r3, r2
 2373              	.LVL222:
 175:Middlewares/lvgl/src/widgets/lv_btnmatrix.c **** 
 2374              		.loc 1 175 13 is_stmt 1 discriminator 2 view .LVU789
 175:Middlewares/lvgl/src/widgets/lv_btnmatrix.c **** 
 2375              		.loc 1 175 30 is_stmt 0 discriminator 2 view .LVU790
 2376 0164 DBF82800 		ldr	r0, [fp, #40]
 175:Middlewares/lvgl/src/widgets/lv_btnmatrix.c **** 
 2377              		.loc 1 175 13 discriminator 2 view .LVU791
 2378 0168 039A     		ldr	r2, [sp, #12]
 2379 016a 0092     		str	r2, [sp]
 2380 016c 1BB2     		sxth	r3, r3
 175:Middlewares/lvgl/src/widgets/lv_btnmatrix.c **** 
 2381              		.loc 1 175 13 discriminator 2 view .LVU792
 2382 016e 029A     		ldr	r2, [sp, #8]
 2383 0170 09B2     		sxth	r1, r1
 175:Middlewares/lvgl/src/widgets/lv_btnmatrix.c **** 
 2384              		.loc 1 175 13 discriminator 2 view .LVU793
 2385 0172 00EBCA00 		add	r0, r0, r10, lsl #3
 2386 0176 FFF7FEFF 		bl	lv_area_set
 2387              	.LVL223:
 177:Middlewares/lvgl/src/widgets/lv_btnmatrix.c ****         }
 2388              		.loc 1 177 13 is_stmt 1 discriminator 2 view .LVU794
 177:Middlewares/lvgl/src/widgets/lv_btnmatrix.c ****         }
 2389              		.loc 1 177 13 is_stmt 0 discriminator 2 view .LVU795
ARM GAS  /tmp/ccnMQJLR.s 			page 75


 2390              	.LBE124:
 156:Middlewares/lvgl/src/widgets/lv_btnmatrix.c ****             uint32_t btn_u = get_button_width(btnm->ctrl_bits[btn_tot_i]);
 2391              		.loc 1 156 37 is_stmt 1 discriminator 2 view .LVU796
 156:Middlewares/lvgl/src/widgets/lv_btnmatrix.c ****             uint32_t btn_u = get_button_width(btnm->ctrl_bits[btn_tot_i]);
 2392              		.loc 1 156 40 is_stmt 0 discriminator 2 view .LVU797
 2393 017a 0137     		adds	r7, r7, #1
 2394              	.LVL224:
 156:Middlewares/lvgl/src/widgets/lv_btnmatrix.c ****             uint32_t btn_u = get_button_width(btnm->ctrl_bits[btn_tot_i]);
 2395              		.loc 1 156 53 discriminator 2 view .LVU798
 2396 017c 0AF1010A 		add	r10, r10, #1
 2397              	.LVL225:
 2398              	.L106:
 156:Middlewares/lvgl/src/widgets/lv_btnmatrix.c ****             uint32_t btn_u = get_button_width(btnm->ctrl_bits[btn_tot_i]);
 2399              		.loc 1 156 22 is_stmt 1 discriminator 1 view .LVU799
 156:Middlewares/lvgl/src/widgets/lv_btnmatrix.c ****             uint32_t btn_u = get_button_width(btnm->ctrl_bits[btn_tot_i]);
 2400              		.loc 1 156 9 is_stmt 0 discriminator 1 view .LVU800
 2401 0180 BE42     		cmp	r6, r7
 2402 0182 24D9     		bls	.L118
 2403              	.LBB126:
 157:Middlewares/lvgl/src/widgets/lv_btnmatrix.c **** 
 2404              		.loc 1 157 13 is_stmt 1 view .LVU801
 157:Middlewares/lvgl/src/widgets/lv_btnmatrix.c **** 
 2405              		.loc 1 157 51 is_stmt 0 view .LVU802
 2406 0184 DBF82C30 		ldr	r3, [fp, #44]
 157:Middlewares/lvgl/src/widgets/lv_btnmatrix.c **** 
 2407              		.loc 1 157 30 view .LVU803
 2408 0188 33F81A00 		ldrh	r0, [r3, r10, lsl #1]
 2409 018c FFF7FEFF 		bl	get_button_width
 2410              	.LVL226:
 159:Middlewares/lvgl/src/widgets/lv_btnmatrix.c ****             lv_coord_t btn_x2 = (max_w_no_gap * (row_unit_cnt + btn_u)) / unit_cnt + btn * pcol - 1
 2411              		.loc 1 159 13 is_stmt 1 view .LVU804
 159:Middlewares/lvgl/src/widgets/lv_btnmatrix.c ****             lv_coord_t btn_x2 = (max_w_no_gap * (row_unit_cnt + btn_u)) / unit_cnt + btn * pcol - 1
 2412              		.loc 1 159 47 is_stmt 0 view .LVU805
 2413 0190 08FB05F1 		mul	r1, r8, r5
 159:Middlewares/lvgl/src/widgets/lv_btnmatrix.c ****             lv_coord_t btn_x2 = (max_w_no_gap * (row_unit_cnt + btn_u)) / unit_cnt + btn * pcol - 1
 2414              		.loc 1 159 63 view .LVU806
 2415 0194 B1FBF4F1 		udiv	r1, r1, r4
 159:Middlewares/lvgl/src/widgets/lv_btnmatrix.c ****             lv_coord_t btn_x2 = (max_w_no_gap * (row_unit_cnt + btn_u)) / unit_cnt + btn * pcol - 1
 2416              		.loc 1 159 74 view .LVU807
 2417 0198 09FB07F3 		mul	r3, r9, r7
 2418 019c 9BB2     		uxth	r3, r3
 2419 019e 1944     		add	r1, r1, r3
 2420 01a0 1FFA81FC 		uxth	ip, r1
 159:Middlewares/lvgl/src/widgets/lv_btnmatrix.c ****             lv_coord_t btn_x2 = (max_w_no_gap * (row_unit_cnt + btn_u)) / unit_cnt + btn * pcol - 1
 2421              		.loc 1 159 24 view .LVU808
 2422 01a4 09B2     		sxth	r1, r1
 2423              	.LVL227:
 160:Middlewares/lvgl/src/widgets/lv_btnmatrix.c **** 
 2424              		.loc 1 160 13 is_stmt 1 view .LVU809
 160:Middlewares/lvgl/src/widgets/lv_btnmatrix.c **** 
 2425              		.loc 1 160 63 is_stmt 0 view .LVU810
 2426 01a6 8044     		add	r8, r8, r0
 2427              	.LVL228:
 160:Middlewares/lvgl/src/widgets/lv_btnmatrix.c **** 
 2428              		.loc 1 160 47 view .LVU811
 2429 01a8 08FB05F0 		mul	r0, r8, r5
 2430              	.LVL229:
ARM GAS  /tmp/ccnMQJLR.s 			page 76


 160:Middlewares/lvgl/src/widgets/lv_btnmatrix.c **** 
 2431              		.loc 1 160 73 view .LVU812
 2432 01ac B0FBF4F0 		udiv	r0, r0, r4
 160:Middlewares/lvgl/src/widgets/lv_btnmatrix.c **** 
 2433              		.loc 1 160 84 view .LVU813
 2434 01b0 0344     		add	r3, r3, r0
 2435 01b2 9BB2     		uxth	r3, r3
 160:Middlewares/lvgl/src/widgets/lv_btnmatrix.c **** 
 2436              		.loc 1 160 97 view .LVU814
 2437 01b4 013B     		subs	r3, r3, #1
 2438 01b6 98B2     		uxth	r0, r3
 160:Middlewares/lvgl/src/widgets/lv_btnmatrix.c **** 
 2439              		.loc 1 160 24 view .LVU815
 2440 01b8 1BB2     		sxth	r3, r3
 2441              	.LVL230:
 163:Middlewares/lvgl/src/widgets/lv_btnmatrix.c ****                 lv_coord_t tmp = btn_x1;
 2442              		.loc 1 163 13 is_stmt 1 view .LVU816
 163:Middlewares/lvgl/src/widgets/lv_btnmatrix.c ****                 lv_coord_t tmp = btn_x1;
 2443              		.loc 1 163 15 is_stmt 0 view .LVU817
 2444 01ba 069A     		ldr	r2, [sp, #24]
 2445 01bc 012A     		cmp	r2, #1
 2446 01be CDD1     		bne	.L107
 2447              	.LBB125:
 164:Middlewares/lvgl/src/widgets/lv_btnmatrix.c ****                 btn_x1 = btn_x2;
 2448              		.loc 1 164 17 is_stmt 1 view .LVU818
 2449              	.LVL231:
 165:Middlewares/lvgl/src/widgets/lv_btnmatrix.c ****                 btn_x2 = tmp;
 2450              		.loc 1 165 17 view .LVU819
 166:Middlewares/lvgl/src/widgets/lv_btnmatrix.c **** 
 2451              		.loc 1 166 17 view .LVU820
 168:Middlewares/lvgl/src/widgets/lv_btnmatrix.c ****                 btn_x2 = max_w - btn_x2;
 2452              		.loc 1 168 17 view .LVU821
 168:Middlewares/lvgl/src/widgets/lv_btnmatrix.c ****                 btn_x2 = max_w - btn_x2;
 2453              		.loc 1 168 32 is_stmt 0 view .LVU822
 2454 01c0 079B     		ldr	r3, [sp, #28]
 2455 01c2 191A     		subs	r1, r3, r0
 2456              	.LVL232:
 168:Middlewares/lvgl/src/widgets/lv_btnmatrix.c ****                 btn_x2 = max_w - btn_x2;
 2457              		.loc 1 168 24 view .LVU823
 2458 01c4 09B2     		sxth	r1, r1
 2459              	.LVL233:
 169:Middlewares/lvgl/src/widgets/lv_btnmatrix.c ****             }
 2460              		.loc 1 169 17 is_stmt 1 view .LVU824
 169:Middlewares/lvgl/src/widgets/lv_btnmatrix.c ****             }
 2461              		.loc 1 169 32 is_stmt 0 view .LVU825
 2462 01c6 A3EB0C03 		sub	r3, r3, ip
 169:Middlewares/lvgl/src/widgets/lv_btnmatrix.c ****             }
 2463              		.loc 1 169 24 view .LVU826
 2464 01ca 1BB2     		sxth	r3, r3
 2465              	.LVL234:
 169:Middlewares/lvgl/src/widgets/lv_btnmatrix.c ****             }
 2466              		.loc 1 169 24 view .LVU827
 2467 01cc C6E7     		b	.L107
 2468              	.LVL235:
 2469              	.L118:
 169:Middlewares/lvgl/src/widgets/lv_btnmatrix.c ****             }
 2470              		.loc 1 169 24 view .LVU828
ARM GAS  /tmp/ccnMQJLR.s 			page 77


 2471              	.LBE125:
 2472              	.LBE126:
 180:Middlewares/lvgl/src/widgets/lv_btnmatrix.c ****     }
 2473              		.loc 1 180 27 view .LVU829
 2474 01ce DDF82490 		ldr	r9, [sp, #36]
 180:Middlewares/lvgl/src/widgets/lv_btnmatrix.c ****     }
 2475              		.loc 1 180 9 is_stmt 1 view .LVU830
 180:Middlewares/lvgl/src/widgets/lv_btnmatrix.c ****     }
 2476              		.loc 1 180 27 is_stmt 0 view .LVU831
 2477 01d2 0136     		adds	r6, r6, #1
 180:Middlewares/lvgl/src/widgets/lv_btnmatrix.c ****     }
 2478              		.loc 1 180 17 view .LVU832
 2479 01d4 09EB8609 		add	r9, r9, r6, lsl #2
 2480              	.LVL236:
 180:Middlewares/lvgl/src/widgets/lv_btnmatrix.c ****     }
 2481              		.loc 1 180 17 view .LVU833
 2482 01d8 86E7     		b	.L104
 2483              	.LVL237:
 2484              	.L116:
 180:Middlewares/lvgl/src/widgets/lv_btnmatrix.c ****     }
 2485              		.loc 1 180 17 view .LVU834
 2486              	.LBE127:
 183:Middlewares/lvgl/src/widgets/lv_btnmatrix.c **** }
 2487              		.loc 1 183 5 is_stmt 1 view .LVU835
 2488 01da 5846     		mov	r0, fp
 2489 01dc FFF7FEFF 		bl	lv_obj_invalidate
 2490              	.LVL238:
 184:Middlewares/lvgl/src/widgets/lv_btnmatrix.c **** 
 2491              		.loc 1 184 1 is_stmt 0 view .LVU836
 2492 01e0 11B0     		add	sp, sp, #68
 2493              	.LCFI17:
 2494              		.cfi_def_cfa_offset 36
 2495              		@ sp needed
 2496 01e2 BDE8F08F 		pop	{r4, r5, r6, r7, r8, r9, r10, fp, pc}
 2497              	.LVL239:
 2498              	.L113:
 2499              	.LCFI18:
 2500              		.cfi_def_cfa_offset 0
 2501              		.cfi_restore 4
 2502              		.cfi_restore 5
 2503              		.cfi_restore 6
 2504              		.cfi_restore 7
 2505              		.cfi_restore 8
 2506              		.cfi_restore 9
 2507              		.cfi_restore 10
 2508              		.cfi_restore 11
 2509              		.cfi_restore 14
 184:Middlewares/lvgl/src/widgets/lv_btnmatrix.c **** 
 2510              		.loc 1 184 1 view .LVU837
 2511 01e6 7047     		bx	lr
 2512              	.L120:
 2513              		.align	2
 2514              	.L119:
 2515 01e8 00000000 		.word	.LC0
 2516              		.cfi_endproc
 2517              	.LFE148:
 2519              		.section	.text.lv_btnmatrix_constructor,"ax",%progbits
ARM GAS  /tmp/ccnMQJLR.s 			page 78


 2520              		.align	1
 2521              		.syntax unified
 2522              		.thumb
 2523              		.thumb_func
 2524              		.fpu softvfp
 2526              	lv_btnmatrix_constructor:
 2527              	.LVL240:
 2528              	.LFB162:
 351:Middlewares/lvgl/src/widgets/lv_btnmatrix.c ****     LV_UNUSED(class_p);
 2529              		.loc 1 351 1 is_stmt 1 view -0
 2530              		.cfi_startproc
 2531              		@ args = 0, pretend = 0, frame = 0
 2532              		@ frame_needed = 0, uses_anonymous_args = 0
 351:Middlewares/lvgl/src/widgets/lv_btnmatrix.c ****     LV_UNUSED(class_p);
 2533              		.loc 1 351 1 is_stmt 0 view .LVU839
 2534 0000 08B5     		push	{r3, lr}
 2535              	.LCFI19:
 2536              		.cfi_def_cfa_offset 8
 2537              		.cfi_offset 3, -8
 2538              		.cfi_offset 14, -4
 2539 0002 0846     		mov	r0, r1
 2540              	.LVL241:
 352:Middlewares/lvgl/src/widgets/lv_btnmatrix.c ****     LV_TRACE_OBJ_CREATE("begin");
 2541              		.loc 1 352 5 is_stmt 1 view .LVU840
 353:Middlewares/lvgl/src/widgets/lv_btnmatrix.c ****     lv_btnmatrix_t * btnm = (lv_btnmatrix_t *)obj;
 2542              		.loc 1 353 33 view .LVU841
 354:Middlewares/lvgl/src/widgets/lv_btnmatrix.c ****     btnm->btn_cnt        = 0;
 2543              		.loc 1 354 5 view .LVU842
 355:Middlewares/lvgl/src/widgets/lv_btnmatrix.c ****     btnm->btn_id_sel     = LV_BTNMATRIX_BTN_NONE;
 2544              		.loc 1 355 5 view .LVU843
 355:Middlewares/lvgl/src/widgets/lv_btnmatrix.c ****     btnm->btn_id_sel     = LV_BTNMATRIX_BTN_NONE;
 2545              		.loc 1 355 26 is_stmt 0 view .LVU844
 2546 0004 0023     		movs	r3, #0
 2547 0006 0B86     		strh	r3, [r1, #48]	@ movhi
 356:Middlewares/lvgl/src/widgets/lv_btnmatrix.c ****     btnm->button_areas   = NULL;
 2548              		.loc 1 356 5 is_stmt 1 view .LVU845
 356:Middlewares/lvgl/src/widgets/lv_btnmatrix.c ****     btnm->button_areas   = NULL;
 2549              		.loc 1 356 26 is_stmt 0 view .LVU846
 2550 0008 4FF6FF72 		movw	r2, #65535
 2551 000c 4A86     		strh	r2, [r1, #50]	@ movhi
 357:Middlewares/lvgl/src/widgets/lv_btnmatrix.c ****     btnm->ctrl_bits      = NULL;
 2552              		.loc 1 357 5 is_stmt 1 view .LVU847
 357:Middlewares/lvgl/src/widgets/lv_btnmatrix.c ****     btnm->ctrl_bits      = NULL;
 2553              		.loc 1 357 26 is_stmt 0 view .LVU848
 2554 000e 8B62     		str	r3, [r1, #40]
 358:Middlewares/lvgl/src/widgets/lv_btnmatrix.c ****     btnm->map_p          = NULL;
 2555              		.loc 1 358 5 is_stmt 1 view .LVU849
 358:Middlewares/lvgl/src/widgets/lv_btnmatrix.c ****     btnm->map_p          = NULL;
 2556              		.loc 1 358 26 is_stmt 0 view .LVU850
 2557 0010 CB62     		str	r3, [r1, #44]
 359:Middlewares/lvgl/src/widgets/lv_btnmatrix.c ****     btnm->one_check      = 0;
 2558              		.loc 1 359 5 is_stmt 1 view .LVU851
 359:Middlewares/lvgl/src/widgets/lv_btnmatrix.c ****     btnm->one_check      = 0;
 2559              		.loc 1 359 26 is_stmt 0 view .LVU852
 2560 0012 4B62     		str	r3, [r1, #36]
 360:Middlewares/lvgl/src/widgets/lv_btnmatrix.c **** 
 2561              		.loc 1 360 5 is_stmt 1 view .LVU853
ARM GAS  /tmp/ccnMQJLR.s 			page 79


 360:Middlewares/lvgl/src/widgets/lv_btnmatrix.c **** 
 2562              		.loc 1 360 26 is_stmt 0 view .LVU854
 2563 0014 91F83420 		ldrb	r2, [r1, #52]	@ zero_extendqisi2
 2564 0018 63F30002 		bfi	r2, r3, #0, #1
 2565 001c 81F83420 		strb	r2, [r1, #52]
 362:Middlewares/lvgl/src/widgets/lv_btnmatrix.c **** 
 2566              		.loc 1 362 5 is_stmt 1 view .LVU855
 2567 0020 0149     		ldr	r1, .L123
 2568              	.LVL242:
 362:Middlewares/lvgl/src/widgets/lv_btnmatrix.c **** 
 2569              		.loc 1 362 5 is_stmt 0 view .LVU856
 2570 0022 FFF7FEFF 		bl	lv_btnmatrix_set_map
 2571              	.LVL243:
 364:Middlewares/lvgl/src/widgets/lv_btnmatrix.c **** }
 2572              		.loc 1 364 35 is_stmt 1 view .LVU857
 365:Middlewares/lvgl/src/widgets/lv_btnmatrix.c **** 
 2573              		.loc 1 365 1 is_stmt 0 view .LVU858
 2574 0026 08BD     		pop	{r3, pc}
 2575              	.L124:
 2576              		.align	2
 2577              	.L123:
 2578 0028 00000000 		.word	.LANCHOR1
 2579              		.cfi_endproc
 2580              	.LFE162:
 2582              		.section	.text.lv_btnmatrix_set_ctrl_map,"ax",%progbits
 2583              		.align	1
 2584              		.global	lv_btnmatrix_set_ctrl_map
 2585              		.syntax unified
 2586              		.thumb
 2587              		.thumb_func
 2588              		.fpu softvfp
 2590              	lv_btnmatrix_set_ctrl_map:
 2591              	.LVL244:
 2592              	.LFB149:
 187:Middlewares/lvgl/src/widgets/lv_btnmatrix.c ****     LV_ASSERT_OBJ(obj, MY_CLASS);
 2593              		.loc 1 187 1 is_stmt 1 view -0
 2594              		.cfi_startproc
 2595              		@ args = 0, pretend = 0, frame = 0
 2596              		@ frame_needed = 0, uses_anonymous_args = 0
 187:Middlewares/lvgl/src/widgets/lv_btnmatrix.c ****     LV_ASSERT_OBJ(obj, MY_CLASS);
 2597              		.loc 1 187 1 is_stmt 0 view .LVU860
 2598 0000 10B5     		push	{r4, lr}
 2599              	.LCFI20:
 2600              		.cfi_def_cfa_offset 8
 2601              		.cfi_offset 4, -8
 2602              		.cfi_offset 14, -4
 2603 0002 0446     		mov	r4, r0
 188:Middlewares/lvgl/src/widgets/lv_btnmatrix.c **** 
 2604              		.loc 1 188 5 is_stmt 1 view .LVU861
 188:Middlewares/lvgl/src/widgets/lv_btnmatrix.c **** 
 2605              		.loc 1 188 5 view .LVU862
 188:Middlewares/lvgl/src/widgets/lv_btnmatrix.c **** 
 2606              		.loc 1 188 5 view .LVU863
 190:Middlewares/lvgl/src/widgets/lv_btnmatrix.c ****     lv_memcpy(btnm->ctrl_bits, ctrl_map, sizeof(lv_btnmatrix_ctrl_t) * btnm->btn_cnt);
 2607              		.loc 1 190 5 view .LVU864
 2608              	.LVL245:
 191:Middlewares/lvgl/src/widgets/lv_btnmatrix.c **** 
ARM GAS  /tmp/ccnMQJLR.s 			page 80


 2609              		.loc 1 191 5 view .LVU865
 191:Middlewares/lvgl/src/widgets/lv_btnmatrix.c **** 
 2610              		.loc 1 191 76 is_stmt 0 view .LVU866
 2611 0004 028E     		ldrh	r2, [r0, #48]
 191:Middlewares/lvgl/src/widgets/lv_btnmatrix.c **** 
 2612              		.loc 1 191 5 view .LVU867
 2613 0006 5200     		lsls	r2, r2, #1
 2614 0008 C06A     		ldr	r0, [r0, #44]
 2615              	.LVL246:
 191:Middlewares/lvgl/src/widgets/lv_btnmatrix.c **** 
 2616              		.loc 1 191 5 view .LVU868
 2617 000a FFF7FEFF 		bl	lv_memcpy
 2618              	.LVL247:
 193:Middlewares/lvgl/src/widgets/lv_btnmatrix.c **** }
 2619              		.loc 1 193 5 is_stmt 1 view .LVU869
 2620 000e 616A     		ldr	r1, [r4, #36]
 2621 0010 2046     		mov	r0, r4
 2622 0012 FFF7FEFF 		bl	lv_btnmatrix_set_map
 2623              	.LVL248:
 194:Middlewares/lvgl/src/widgets/lv_btnmatrix.c **** 
 2624              		.loc 1 194 1 is_stmt 0 view .LVU870
 2625 0016 10BD     		pop	{r4, pc}
 194:Middlewares/lvgl/src/widgets/lv_btnmatrix.c **** 
 2626              		.loc 1 194 1 view .LVU871
 2627              		.cfi_endproc
 2628              	.LFE149:
 2630              		.section	.text.lv_btnmatrix_set_selected_btn,"ax",%progbits
 2631              		.align	1
 2632              		.global	lv_btnmatrix_set_selected_btn
 2633              		.syntax unified
 2634              		.thumb
 2635              		.thumb_func
 2636              		.fpu softvfp
 2638              	lv_btnmatrix_set_selected_btn:
 2639              	.LVL249:
 2640              	.LFB150:
 197:Middlewares/lvgl/src/widgets/lv_btnmatrix.c ****     LV_ASSERT_OBJ(obj, MY_CLASS);
 2641              		.loc 1 197 1 is_stmt 1 view -0
 2642              		.cfi_startproc
 2643              		@ args = 0, pretend = 0, frame = 0
 2644              		@ frame_needed = 0, uses_anonymous_args = 0
 197:Middlewares/lvgl/src/widgets/lv_btnmatrix.c ****     LV_ASSERT_OBJ(obj, MY_CLASS);
 2645              		.loc 1 197 1 is_stmt 0 view .LVU873
 2646 0000 38B5     		push	{r3, r4, r5, lr}
 2647              	.LCFI21:
 2648              		.cfi_def_cfa_offset 16
 2649              		.cfi_offset 3, -16
 2650              		.cfi_offset 4, -12
 2651              		.cfi_offset 5, -8
 2652              		.cfi_offset 14, -4
 2653 0002 0446     		mov	r4, r0
 2654 0004 0D46     		mov	r5, r1
 198:Middlewares/lvgl/src/widgets/lv_btnmatrix.c **** 
 2655              		.loc 1 198 5 is_stmt 1 view .LVU874
 198:Middlewares/lvgl/src/widgets/lv_btnmatrix.c **** 
 2656              		.loc 1 198 5 view .LVU875
 198:Middlewares/lvgl/src/widgets/lv_btnmatrix.c **** 
ARM GAS  /tmp/ccnMQJLR.s 			page 81


 2657              		.loc 1 198 5 view .LVU876
 200:Middlewares/lvgl/src/widgets/lv_btnmatrix.c **** 
 2658              		.loc 1 200 5 view .LVU877
 2659              	.LVL250:
 202:Middlewares/lvgl/src/widgets/lv_btnmatrix.c **** 
 2660              		.loc 1 202 5 view .LVU878
 202:Middlewares/lvgl/src/widgets/lv_btnmatrix.c **** 
 2661              		.loc 1 202 22 is_stmt 0 view .LVU879
 2662 0006 038E     		ldrh	r3, [r0, #48]
 202:Middlewares/lvgl/src/widgets/lv_btnmatrix.c **** 
 2663              		.loc 1 202 7 view .LVU880
 2664 0008 8B42     		cmp	r3, r1
 2665 000a 03D8     		bhi	.L128
 202:Middlewares/lvgl/src/widgets/lv_btnmatrix.c **** 
 2666              		.loc 1 202 32 discriminator 1 view .LVU881
 2667 000c 4FF6FF73 		movw	r3, #65535
 2668 0010 9942     		cmp	r1, r3
 2669 0012 08D1     		bne	.L127
 2670              	.L128:
 204:Middlewares/lvgl/src/widgets/lv_btnmatrix.c ****     btnm->btn_id_sel = btn_id;
 2671              		.loc 1 204 5 is_stmt 1 view .LVU882
 2672 0014 618E     		ldrh	r1, [r4, #50]
 2673              	.LVL251:
 204:Middlewares/lvgl/src/widgets/lv_btnmatrix.c ****     btnm->btn_id_sel = btn_id;
 2674              		.loc 1 204 5 is_stmt 0 view .LVU883
 2675 0016 2046     		mov	r0, r4
 2676              	.LVL252:
 204:Middlewares/lvgl/src/widgets/lv_btnmatrix.c ****     btnm->btn_id_sel = btn_id;
 2677              		.loc 1 204 5 view .LVU884
 2678 0018 FFF7FEFF 		bl	invalidate_button_area
 2679              	.LVL253:
 205:Middlewares/lvgl/src/widgets/lv_btnmatrix.c ****     invalidate_button_area(obj, btn_id);
 2680              		.loc 1 205 5 is_stmt 1 view .LVU885
 205:Middlewares/lvgl/src/widgets/lv_btnmatrix.c ****     invalidate_button_area(obj, btn_id);
 2681              		.loc 1 205 22 is_stmt 0 view .LVU886
 2682 001c 6586     		strh	r5, [r4, #50]	@ movhi
 206:Middlewares/lvgl/src/widgets/lv_btnmatrix.c **** }
 2683              		.loc 1 206 5 is_stmt 1 view .LVU887
 2684 001e 2946     		mov	r1, r5
 2685 0020 2046     		mov	r0, r4
 2686 0022 FFF7FEFF 		bl	invalidate_button_area
 2687              	.LVL254:
 2688              	.L127:
 207:Middlewares/lvgl/src/widgets/lv_btnmatrix.c **** 
 2689              		.loc 1 207 1 is_stmt 0 view .LVU888
 2690 0026 38BD     		pop	{r3, r4, r5, pc}
 207:Middlewares/lvgl/src/widgets/lv_btnmatrix.c **** 
 2691              		.loc 1 207 1 view .LVU889
 2692              		.cfi_endproc
 2693              	.LFE150:
 2695              		.section	.text.lv_btnmatrix_clear_btn_ctrl,"ax",%progbits
 2696              		.align	1
 2697              		.global	lv_btnmatrix_clear_btn_ctrl
 2698              		.syntax unified
 2699              		.thumb
 2700              		.thumb_func
 2701              		.fpu softvfp
ARM GAS  /tmp/ccnMQJLR.s 			page 82


 2703              	lv_btnmatrix_clear_btn_ctrl:
 2704              	.LVL255:
 2705              	.LFB152:
 226:Middlewares/lvgl/src/widgets/lv_btnmatrix.c ****     LV_ASSERT_OBJ(obj, MY_CLASS);
 2706              		.loc 1 226 1 is_stmt 1 view -0
 2707              		.cfi_startproc
 2708              		@ args = 0, pretend = 0, frame = 0
 2709              		@ frame_needed = 0, uses_anonymous_args = 0
 227:Middlewares/lvgl/src/widgets/lv_btnmatrix.c **** 
 2710              		.loc 1 227 5 view .LVU891
 227:Middlewares/lvgl/src/widgets/lv_btnmatrix.c **** 
 2711              		.loc 1 227 5 view .LVU892
 227:Middlewares/lvgl/src/widgets/lv_btnmatrix.c **** 
 2712              		.loc 1 227 5 view .LVU893
 229:Middlewares/lvgl/src/widgets/lv_btnmatrix.c **** 
 2713              		.loc 1 229 5 view .LVU894
 229:Middlewares/lvgl/src/widgets/lv_btnmatrix.c **** 
 2714              		.loc 1 229 51 view .LVU895
 231:Middlewares/lvgl/src/widgets/lv_btnmatrix.c **** 
 2715              		.loc 1 231 5 view .LVU896
 231:Middlewares/lvgl/src/widgets/lv_btnmatrix.c **** 
 2716              		.loc 1 231 22 is_stmt 0 view .LVU897
 2717 0000 038E     		ldrh	r3, [r0, #48]
 231:Middlewares/lvgl/src/widgets/lv_btnmatrix.c **** 
 2718              		.loc 1 231 7 view .LVU898
 2719 0002 8B42     		cmp	r3, r1
 2720 0004 00D8     		bhi	.L137
 2721 0006 7047     		bx	lr
 2722              	.L137:
 226:Middlewares/lvgl/src/widgets/lv_btnmatrix.c ****     LV_ASSERT_OBJ(obj, MY_CLASS);
 2723              		.loc 1 226 1 view .LVU899
 2724 0008 10B5     		push	{r4, lr}
 2725              	.LCFI22:
 2726              		.cfi_def_cfa_offset 8
 2727              		.cfi_offset 4, -8
 2728              		.cfi_offset 14, -4
 233:Middlewares/lvgl/src/widgets/lv_btnmatrix.c ****     invalidate_button_area(obj, btn_id);
 2729              		.loc 1 233 5 is_stmt 1 view .LVU900
 233:Middlewares/lvgl/src/widgets/lv_btnmatrix.c ****     invalidate_button_area(obj, btn_id);
 2730              		.loc 1 233 9 is_stmt 0 view .LVU901
 2731 000a C46A     		ldr	r4, [r0, #44]
 233:Middlewares/lvgl/src/widgets/lv_btnmatrix.c ****     invalidate_button_area(obj, btn_id);
 2732              		.loc 1 233 29 view .LVU902
 2733 000c 34F81130 		ldrh	r3, [r4, r1, lsl #1]
 2734 0010 23EA0202 		bic	r2, r3, r2
 2735              	.LVL256:
 233:Middlewares/lvgl/src/widgets/lv_btnmatrix.c ****     invalidate_button_area(obj, btn_id);
 2736              		.loc 1 233 29 view .LVU903
 2737 0014 24F81120 		strh	r2, [r4, r1, lsl #1]	@ movhi
 234:Middlewares/lvgl/src/widgets/lv_btnmatrix.c **** }
 2738              		.loc 1 234 5 is_stmt 1 view .LVU904
 2739 0018 FFF7FEFF 		bl	invalidate_button_area
 2740              	.LVL257:
 235:Middlewares/lvgl/src/widgets/lv_btnmatrix.c **** 
 2741              		.loc 1 235 1 is_stmt 0 view .LVU905
 2742 001c 10BD     		pop	{r4, pc}
 2743              		.cfi_endproc
ARM GAS  /tmp/ccnMQJLR.s 			page 83


 2744              	.LFE152:
 2746              		.section	.text.lv_btnmatrix_clear_btn_ctrl_all,"ax",%progbits
 2747              		.align	1
 2748              		.global	lv_btnmatrix_clear_btn_ctrl_all
 2749              		.syntax unified
 2750              		.thumb
 2751              		.thumb_func
 2752              		.fpu softvfp
 2754              	lv_btnmatrix_clear_btn_ctrl_all:
 2755              	.LVL258:
 2756              	.LFB154:
 249:Middlewares/lvgl/src/widgets/lv_btnmatrix.c ****     LV_ASSERT_OBJ(obj, MY_CLASS);
 2757              		.loc 1 249 1 is_stmt 1 view -0
 2758              		.cfi_startproc
 2759              		@ args = 0, pretend = 0, frame = 0
 2760              		@ frame_needed = 0, uses_anonymous_args = 0
 249:Middlewares/lvgl/src/widgets/lv_btnmatrix.c ****     LV_ASSERT_OBJ(obj, MY_CLASS);
 2761              		.loc 1 249 1 is_stmt 0 view .LVU907
 2762 0000 70B5     		push	{r4, r5, r6, lr}
 2763              	.LCFI23:
 2764              		.cfi_def_cfa_offset 16
 2765              		.cfi_offset 4, -16
 2766              		.cfi_offset 5, -12
 2767              		.cfi_offset 6, -8
 2768              		.cfi_offset 14, -4
 2769 0002 0546     		mov	r5, r0
 2770 0004 0E46     		mov	r6, r1
 250:Middlewares/lvgl/src/widgets/lv_btnmatrix.c **** 
 2771              		.loc 1 250 5 is_stmt 1 view .LVU908
 250:Middlewares/lvgl/src/widgets/lv_btnmatrix.c **** 
 2772              		.loc 1 250 5 view .LVU909
 250:Middlewares/lvgl/src/widgets/lv_btnmatrix.c **** 
 2773              		.loc 1 250 5 view .LVU910
 252:Middlewares/lvgl/src/widgets/lv_btnmatrix.c ****     uint16_t i;
 2774              		.loc 1 252 5 view .LVU911
 2775              	.LVL259:
 252:Middlewares/lvgl/src/widgets/lv_btnmatrix.c ****     uint16_t i;
 2776              		.loc 1 252 51 view .LVU912
 253:Middlewares/lvgl/src/widgets/lv_btnmatrix.c ****     for(i = 0; i < btnm->btn_cnt; i++) {
 2777              		.loc 1 253 5 view .LVU913
 254:Middlewares/lvgl/src/widgets/lv_btnmatrix.c ****         lv_btnmatrix_clear_btn_ctrl(obj, i, ctrl);
 2778              		.loc 1 254 5 view .LVU914
 254:Middlewares/lvgl/src/widgets/lv_btnmatrix.c ****         lv_btnmatrix_clear_btn_ctrl(obj, i, ctrl);
 2779              		.loc 1 254 11 is_stmt 0 view .LVU915
 2780 0006 0024     		movs	r4, #0
 254:Middlewares/lvgl/src/widgets/lv_btnmatrix.c ****         lv_btnmatrix_clear_btn_ctrl(obj, i, ctrl);
 2781              		.loc 1 254 5 view .LVU916
 2782 0008 06E0     		b	.L139
 2783              	.LVL260:
 2784              	.L140:
 255:Middlewares/lvgl/src/widgets/lv_btnmatrix.c ****     }
 2785              		.loc 1 255 9 is_stmt 1 discriminator 3 view .LVU917
 2786 000a 3246     		mov	r2, r6
 2787 000c 2146     		mov	r1, r4
 2788 000e 2846     		mov	r0, r5
 2789 0010 FFF7FEFF 		bl	lv_btnmatrix_clear_btn_ctrl
 2790              	.LVL261:
ARM GAS  /tmp/ccnMQJLR.s 			page 84


 254:Middlewares/lvgl/src/widgets/lv_btnmatrix.c ****         lv_btnmatrix_clear_btn_ctrl(obj, i, ctrl);
 2791              		.loc 1 254 35 discriminator 3 view .LVU918
 254:Middlewares/lvgl/src/widgets/lv_btnmatrix.c ****         lv_btnmatrix_clear_btn_ctrl(obj, i, ctrl);
 2792              		.loc 1 254 36 is_stmt 0 discriminator 3 view .LVU919
 2793 0014 0134     		adds	r4, r4, #1
 2794              	.LVL262:
 254:Middlewares/lvgl/src/widgets/lv_btnmatrix.c ****         lv_btnmatrix_clear_btn_ctrl(obj, i, ctrl);
 2795              		.loc 1 254 36 discriminator 3 view .LVU920
 2796 0016 A4B2     		uxth	r4, r4
 2797              	.LVL263:
 2798              	.L139:
 254:Middlewares/lvgl/src/widgets/lv_btnmatrix.c ****         lv_btnmatrix_clear_btn_ctrl(obj, i, ctrl);
 2799              		.loc 1 254 16 is_stmt 1 discriminator 1 view .LVU921
 254:Middlewares/lvgl/src/widgets/lv_btnmatrix.c ****         lv_btnmatrix_clear_btn_ctrl(obj, i, ctrl);
 2800              		.loc 1 254 24 is_stmt 0 discriminator 1 view .LVU922
 2801 0018 2B8E     		ldrh	r3, [r5, #48]
 254:Middlewares/lvgl/src/widgets/lv_btnmatrix.c ****         lv_btnmatrix_clear_btn_ctrl(obj, i, ctrl);
 2802              		.loc 1 254 5 discriminator 1 view .LVU923
 2803 001a A342     		cmp	r3, r4
 2804 001c F5D8     		bhi	.L140
 257:Middlewares/lvgl/src/widgets/lv_btnmatrix.c **** 
 2805              		.loc 1 257 1 view .LVU924
 2806 001e 70BD     		pop	{r4, r5, r6, pc}
 257:Middlewares/lvgl/src/widgets/lv_btnmatrix.c **** 
 2807              		.loc 1 257 1 view .LVU925
 2808              		.cfi_endproc
 2809              	.LFE154:
 2811              		.section	.text.lv_btnmatrix_set_btn_ctrl,"ax",%progbits
 2812              		.align	1
 2813              		.global	lv_btnmatrix_set_btn_ctrl
 2814              		.syntax unified
 2815              		.thumb
 2816              		.thumb_func
 2817              		.fpu softvfp
 2819              	lv_btnmatrix_set_btn_ctrl:
 2820              	.LVL264:
 2821              	.LFB151:
 210:Middlewares/lvgl/src/widgets/lv_btnmatrix.c ****     LV_ASSERT_OBJ(obj, MY_CLASS);
 2822              		.loc 1 210 1 is_stmt 1 view -0
 2823              		.cfi_startproc
 2824              		@ args = 0, pretend = 0, frame = 0
 2825              		@ frame_needed = 0, uses_anonymous_args = 0
 211:Middlewares/lvgl/src/widgets/lv_btnmatrix.c **** 
 2826              		.loc 1 211 5 view .LVU927
 211:Middlewares/lvgl/src/widgets/lv_btnmatrix.c **** 
 2827              		.loc 1 211 5 view .LVU928
 211:Middlewares/lvgl/src/widgets/lv_btnmatrix.c **** 
 2828              		.loc 1 211 5 view .LVU929
 213:Middlewares/lvgl/src/widgets/lv_btnmatrix.c **** 
 2829              		.loc 1 213 5 view .LVU930
 213:Middlewares/lvgl/src/widgets/lv_btnmatrix.c **** 
 2830              		.loc 1 213 51 view .LVU931
 215:Middlewares/lvgl/src/widgets/lv_btnmatrix.c **** 
 2831              		.loc 1 215 5 view .LVU932
 215:Middlewares/lvgl/src/widgets/lv_btnmatrix.c **** 
 2832              		.loc 1 215 22 is_stmt 0 view .LVU933
 2833 0000 038E     		ldrh	r3, [r0, #48]
ARM GAS  /tmp/ccnMQJLR.s 			page 85


 215:Middlewares/lvgl/src/widgets/lv_btnmatrix.c **** 
 2834              		.loc 1 215 7 view .LVU934
 2835 0002 8B42     		cmp	r3, r1
 2836 0004 1AD9     		bls	.L146
 210:Middlewares/lvgl/src/widgets/lv_btnmatrix.c ****     LV_ASSERT_OBJ(obj, MY_CLASS);
 2837              		.loc 1 210 1 view .LVU935
 2838 0006 70B5     		push	{r4, r5, r6, lr}
 2839              	.LCFI24:
 2840              		.cfi_def_cfa_offset 16
 2841              		.cfi_offset 4, -16
 2842              		.cfi_offset 5, -12
 2843              		.cfi_offset 6, -8
 2844              		.cfi_offset 14, -4
 2845 0008 0446     		mov	r4, r0
 2846 000a 0D46     		mov	r5, r1
 2847 000c 1646     		mov	r6, r2
 217:Middlewares/lvgl/src/widgets/lv_btnmatrix.c ****         lv_btnmatrix_clear_btn_ctrl_all(obj, LV_BTNMATRIX_CTRL_CHECKED);
 2848              		.loc 1 217 5 is_stmt 1 view .LVU936
 217:Middlewares/lvgl/src/widgets/lv_btnmatrix.c ****         lv_btnmatrix_clear_btn_ctrl_all(obj, LV_BTNMATRIX_CTRL_CHECKED);
 2849              		.loc 1 217 8 is_stmt 0 view .LVU937
 2850 000e 90F83430 		ldrb	r3, [r0, #52]	@ zero_extendqisi2
 217:Middlewares/lvgl/src/widgets/lv_btnmatrix.c ****         lv_btnmatrix_clear_btn_ctrl_all(obj, LV_BTNMATRIX_CTRL_CHECKED);
 2851              		.loc 1 217 7 view .LVU938
 2852 0012 13F0010F 		tst	r3, #1
 2853 0016 02D0     		beq	.L144
 217:Middlewares/lvgl/src/widgets/lv_btnmatrix.c ****         lv_btnmatrix_clear_btn_ctrl_all(obj, LV_BTNMATRIX_CTRL_CHECKED);
 2854              		.loc 1 217 24 discriminator 1 view .LVU939
 2855 0018 12F0800F 		tst	r2, #128
 2856 001c 0AD1     		bne	.L149
 2857              	.LVL265:
 2858              	.L144:
 221:Middlewares/lvgl/src/widgets/lv_btnmatrix.c ****     invalidate_button_area(obj, btn_id);
 2859              		.loc 1 221 5 is_stmt 1 view .LVU940
 221:Middlewares/lvgl/src/widgets/lv_btnmatrix.c ****     invalidate_button_area(obj, btn_id);
 2860              		.loc 1 221 9 is_stmt 0 view .LVU941
 2861 001e E36A     		ldr	r3, [r4, #44]
 221:Middlewares/lvgl/src/widgets/lv_btnmatrix.c ****     invalidate_button_area(obj, btn_id);
 2862              		.loc 1 221 29 view .LVU942
 2863 0020 33F81520 		ldrh	r2, [r3, r5, lsl #1]
 2864 0024 3243     		orrs	r2, r2, r6
 2865 0026 23F81520 		strh	r2, [r3, r5, lsl #1]	@ movhi
 222:Middlewares/lvgl/src/widgets/lv_btnmatrix.c **** }
 2866              		.loc 1 222 5 is_stmt 1 view .LVU943
 2867 002a 2946     		mov	r1, r5
 2868 002c 2046     		mov	r0, r4
 2869 002e FFF7FEFF 		bl	invalidate_button_area
 2870              	.LVL266:
 223:Middlewares/lvgl/src/widgets/lv_btnmatrix.c **** 
 2871              		.loc 1 223 1 is_stmt 0 view .LVU944
 2872 0032 70BD     		pop	{r4, r5, r6, pc}
 2873              	.LVL267:
 2874              	.L149:
 218:Middlewares/lvgl/src/widgets/lv_btnmatrix.c ****     }
 2875              		.loc 1 218 9 is_stmt 1 view .LVU945
 2876 0034 8021     		movs	r1, #128
 2877              	.LVL268:
 218:Middlewares/lvgl/src/widgets/lv_btnmatrix.c ****     }
ARM GAS  /tmp/ccnMQJLR.s 			page 86


 2878              		.loc 1 218 9 is_stmt 0 view .LVU946
 2879 0036 FFF7FEFF 		bl	lv_btnmatrix_clear_btn_ctrl_all
 2880              	.LVL269:
 218:Middlewares/lvgl/src/widgets/lv_btnmatrix.c ****     }
 2881              		.loc 1 218 9 view .LVU947
 2882 003a F0E7     		b	.L144
 2883              	.LVL270:
 2884              	.L146:
 2885              	.LCFI25:
 2886              		.cfi_def_cfa_offset 0
 2887              		.cfi_restore 4
 2888              		.cfi_restore 5
 2889              		.cfi_restore 6
 2890              		.cfi_restore 14
 218:Middlewares/lvgl/src/widgets/lv_btnmatrix.c ****     }
 2891              		.loc 1 218 9 view .LVU948
 2892 003c 7047     		bx	lr
 2893              		.cfi_endproc
 2894              	.LFE151:
 2896              		.section	.text.lv_btnmatrix_set_btn_ctrl_all,"ax",%progbits
 2897              		.align	1
 2898              		.global	lv_btnmatrix_set_btn_ctrl_all
 2899              		.syntax unified
 2900              		.thumb
 2901              		.thumb_func
 2902              		.fpu softvfp
 2904              	lv_btnmatrix_set_btn_ctrl_all:
 2905              	.LVL271:
 2906              	.LFB153:
 238:Middlewares/lvgl/src/widgets/lv_btnmatrix.c ****     LV_ASSERT_OBJ(obj, MY_CLASS);
 2907              		.loc 1 238 1 is_stmt 1 view -0
 2908              		.cfi_startproc
 2909              		@ args = 0, pretend = 0, frame = 0
 2910              		@ frame_needed = 0, uses_anonymous_args = 0
 238:Middlewares/lvgl/src/widgets/lv_btnmatrix.c ****     LV_ASSERT_OBJ(obj, MY_CLASS);
 2911              		.loc 1 238 1 is_stmt 0 view .LVU950
 2912 0000 70B5     		push	{r4, r5, r6, lr}
 2913              	.LCFI26:
 2914              		.cfi_def_cfa_offset 16
 2915              		.cfi_offset 4, -16
 2916              		.cfi_offset 5, -12
 2917              		.cfi_offset 6, -8
 2918              		.cfi_offset 14, -4
 2919 0002 0546     		mov	r5, r0
 2920 0004 0E46     		mov	r6, r1
 239:Middlewares/lvgl/src/widgets/lv_btnmatrix.c **** 
 2921              		.loc 1 239 5 is_stmt 1 view .LVU951
 239:Middlewares/lvgl/src/widgets/lv_btnmatrix.c **** 
 2922              		.loc 1 239 5 view .LVU952
 239:Middlewares/lvgl/src/widgets/lv_btnmatrix.c **** 
 2923              		.loc 1 239 5 view .LVU953
 241:Middlewares/lvgl/src/widgets/lv_btnmatrix.c ****     uint16_t i;
 2924              		.loc 1 241 5 view .LVU954
 2925              	.LVL272:
 241:Middlewares/lvgl/src/widgets/lv_btnmatrix.c ****     uint16_t i;
 2926              		.loc 1 241 51 view .LVU955
 242:Middlewares/lvgl/src/widgets/lv_btnmatrix.c ****     for(i = 0; i < btnm->btn_cnt; i++) {
ARM GAS  /tmp/ccnMQJLR.s 			page 87


 2927              		.loc 1 242 5 view .LVU956
 243:Middlewares/lvgl/src/widgets/lv_btnmatrix.c ****         lv_btnmatrix_set_btn_ctrl(obj, i, ctrl);
 2928              		.loc 1 243 5 view .LVU957
 243:Middlewares/lvgl/src/widgets/lv_btnmatrix.c ****         lv_btnmatrix_set_btn_ctrl(obj, i, ctrl);
 2929              		.loc 1 243 11 is_stmt 0 view .LVU958
 2930 0006 0024     		movs	r4, #0
 243:Middlewares/lvgl/src/widgets/lv_btnmatrix.c ****         lv_btnmatrix_set_btn_ctrl(obj, i, ctrl);
 2931              		.loc 1 243 5 view .LVU959
 2932 0008 06E0     		b	.L151
 2933              	.LVL273:
 2934              	.L152:
 244:Middlewares/lvgl/src/widgets/lv_btnmatrix.c ****     }
 2935              		.loc 1 244 9 is_stmt 1 discriminator 3 view .LVU960
 2936 000a 3246     		mov	r2, r6
 2937 000c 2146     		mov	r1, r4
 2938 000e 2846     		mov	r0, r5
 2939 0010 FFF7FEFF 		bl	lv_btnmatrix_set_btn_ctrl
 2940              	.LVL274:
 243:Middlewares/lvgl/src/widgets/lv_btnmatrix.c ****         lv_btnmatrix_set_btn_ctrl(obj, i, ctrl);
 2941              		.loc 1 243 35 discriminator 3 view .LVU961
 243:Middlewares/lvgl/src/widgets/lv_btnmatrix.c ****         lv_btnmatrix_set_btn_ctrl(obj, i, ctrl);
 2942              		.loc 1 243 36 is_stmt 0 discriminator 3 view .LVU962
 2943 0014 0134     		adds	r4, r4, #1
 2944              	.LVL275:
 243:Middlewares/lvgl/src/widgets/lv_btnmatrix.c ****         lv_btnmatrix_set_btn_ctrl(obj, i, ctrl);
 2945              		.loc 1 243 36 discriminator 3 view .LVU963
 2946 0016 A4B2     		uxth	r4, r4
 2947              	.LVL276:
 2948              	.L151:
 243:Middlewares/lvgl/src/widgets/lv_btnmatrix.c ****         lv_btnmatrix_set_btn_ctrl(obj, i, ctrl);
 2949              		.loc 1 243 16 is_stmt 1 discriminator 1 view .LVU964
 243:Middlewares/lvgl/src/widgets/lv_btnmatrix.c ****         lv_btnmatrix_set_btn_ctrl(obj, i, ctrl);
 2950              		.loc 1 243 24 is_stmt 0 discriminator 1 view .LVU965
 2951 0018 2B8E     		ldrh	r3, [r5, #48]
 243:Middlewares/lvgl/src/widgets/lv_btnmatrix.c ****         lv_btnmatrix_set_btn_ctrl(obj, i, ctrl);
 2952              		.loc 1 243 5 discriminator 1 view .LVU966
 2953 001a A342     		cmp	r3, r4
 2954 001c F5D8     		bhi	.L152
 246:Middlewares/lvgl/src/widgets/lv_btnmatrix.c **** 
 2955              		.loc 1 246 1 view .LVU967
 2956 001e 70BD     		pop	{r4, r5, r6, pc}
 246:Middlewares/lvgl/src/widgets/lv_btnmatrix.c **** 
 2957              		.loc 1 246 1 view .LVU968
 2958              		.cfi_endproc
 2959              	.LFE153:
 2961              		.section	.text.lv_btnmatrix_set_btn_width,"ax",%progbits
 2962              		.align	1
 2963              		.global	lv_btnmatrix_set_btn_width
 2964              		.syntax unified
 2965              		.thumb
 2966              		.thumb_func
 2967              		.fpu softvfp
 2969              	lv_btnmatrix_set_btn_width:
 2970              	.LVL277:
 2971              	.LFB155:
 260:Middlewares/lvgl/src/widgets/lv_btnmatrix.c ****     LV_ASSERT_OBJ(obj, MY_CLASS);
 2972              		.loc 1 260 1 is_stmt 1 view -0
ARM GAS  /tmp/ccnMQJLR.s 			page 88


 2973              		.cfi_startproc
 2974              		@ args = 0, pretend = 0, frame = 0
 2975              		@ frame_needed = 0, uses_anonymous_args = 0
 261:Middlewares/lvgl/src/widgets/lv_btnmatrix.c **** 
 2976              		.loc 1 261 5 view .LVU970
 261:Middlewares/lvgl/src/widgets/lv_btnmatrix.c **** 
 2977              		.loc 1 261 5 view .LVU971
 261:Middlewares/lvgl/src/widgets/lv_btnmatrix.c **** 
 2978              		.loc 1 261 5 view .LVU972
 263:Middlewares/lvgl/src/widgets/lv_btnmatrix.c ****     if(btn_id >= btnm->btn_cnt) return;
 2979              		.loc 1 263 5 view .LVU973
 263:Middlewares/lvgl/src/widgets/lv_btnmatrix.c ****     if(btn_id >= btnm->btn_cnt) return;
 2980              		.loc 1 263 51 view .LVU974
 264:Middlewares/lvgl/src/widgets/lv_btnmatrix.c ****     btnm->ctrl_bits[btn_id] &= (~LV_BTNMATRIX_WIDTH_MASK);
 2981              		.loc 1 264 5 view .LVU975
 264:Middlewares/lvgl/src/widgets/lv_btnmatrix.c ****     btnm->ctrl_bits[btn_id] &= (~LV_BTNMATRIX_WIDTH_MASK);
 2982              		.loc 1 264 22 is_stmt 0 view .LVU976
 2983 0000 038E     		ldrh	r3, [r0, #48]
 264:Middlewares/lvgl/src/widgets/lv_btnmatrix.c ****     btnm->ctrl_bits[btn_id] &= (~LV_BTNMATRIX_WIDTH_MASK);
 2984              		.loc 1 264 7 view .LVU977
 2985 0002 8B42     		cmp	r3, r1
 2986 0004 00D8     		bhi	.L160
 2987 0006 7047     		bx	lr
 2988              	.L160:
 260:Middlewares/lvgl/src/widgets/lv_btnmatrix.c ****     LV_ASSERT_OBJ(obj, MY_CLASS);
 2989              		.loc 1 260 1 view .LVU978
 2990 0008 10B5     		push	{r4, lr}
 2991              	.LCFI27:
 2992              		.cfi_def_cfa_offset 8
 2993              		.cfi_offset 4, -8
 2994              		.cfi_offset 14, -4
 265:Middlewares/lvgl/src/widgets/lv_btnmatrix.c ****     btnm->ctrl_bits[btn_id] |= (LV_BTNMATRIX_WIDTH_MASK & width);
 2995              		.loc 1 265 5 is_stmt 1 view .LVU979
 265:Middlewares/lvgl/src/widgets/lv_btnmatrix.c ****     btnm->ctrl_bits[btn_id] |= (LV_BTNMATRIX_WIDTH_MASK & width);
 2996              		.loc 1 265 9 is_stmt 0 view .LVU980
 2997 000a C46A     		ldr	r4, [r0, #44]
 265:Middlewares/lvgl/src/widgets/lv_btnmatrix.c ****     btnm->ctrl_bits[btn_id] |= (LV_BTNMATRIX_WIDTH_MASK & width);
 2998              		.loc 1 265 29 view .LVU981
 2999 000c 34F81130 		ldrh	r3, [r4, r1, lsl #1]
 3000 0010 23F00703 		bic	r3, r3, #7
 3001 0014 24F81130 		strh	r3, [r4, r1, lsl #1]	@ movhi
 266:Middlewares/lvgl/src/widgets/lv_btnmatrix.c **** 
 3002              		.loc 1 266 5 is_stmt 1 view .LVU982
 266:Middlewares/lvgl/src/widgets/lv_btnmatrix.c **** 
 3003              		.loc 1 266 9 is_stmt 0 view .LVU983
 3004 0018 C36A     		ldr	r3, [r0, #44]
 266:Middlewares/lvgl/src/widgets/lv_btnmatrix.c **** 
 3005              		.loc 1 266 57 view .LVU984
 3006 001a 02F00702 		and	r2, r2, #7
 3007              	.LVL278:
 266:Middlewares/lvgl/src/widgets/lv_btnmatrix.c **** 
 3008              		.loc 1 266 29 view .LVU985
 3009 001e 33F81140 		ldrh	r4, [r3, r1, lsl #1]
 3010 0022 2243     		orrs	r2, r2, r4
 3011 0024 23F81120 		strh	r2, [r3, r1, lsl #1]	@ movhi
 268:Middlewares/lvgl/src/widgets/lv_btnmatrix.c **** }
 3012              		.loc 1 268 5 is_stmt 1 view .LVU986
ARM GAS  /tmp/ccnMQJLR.s 			page 89


 3013 0028 416A     		ldr	r1, [r0, #36]
 3014              	.LVL279:
 268:Middlewares/lvgl/src/widgets/lv_btnmatrix.c **** }
 3015              		.loc 1 268 5 is_stmt 0 view .LVU987
 3016 002a FFF7FEFF 		bl	lv_btnmatrix_set_map
 3017              	.LVL280:
 269:Middlewares/lvgl/src/widgets/lv_btnmatrix.c **** 
 3018              		.loc 1 269 1 view .LVU988
 3019 002e 10BD     		pop	{r4, pc}
 3020              		.cfi_endproc
 3021              	.LFE155:
 3023              		.section	.text.lv_btnmatrix_get_map,"ax",%progbits
 3024              		.align	1
 3025              		.global	lv_btnmatrix_get_map
 3026              		.syntax unified
 3027              		.thumb
 3028              		.thumb_func
 3029              		.fpu softvfp
 3031              	lv_btnmatrix_get_map:
 3032              	.LVL281:
 3033              	.LFB157:
 287:Middlewares/lvgl/src/widgets/lv_btnmatrix.c ****     LV_ASSERT_OBJ(obj, MY_CLASS);
 3034              		.loc 1 287 1 is_stmt 1 view -0
 3035              		.cfi_startproc
 3036              		@ args = 0, pretend = 0, frame = 0
 3037              		@ frame_needed = 0, uses_anonymous_args = 0
 3038              		@ link register save eliminated.
 288:Middlewares/lvgl/src/widgets/lv_btnmatrix.c **** 
 3039              		.loc 1 288 5 view .LVU990
 288:Middlewares/lvgl/src/widgets/lv_btnmatrix.c **** 
 3040              		.loc 1 288 5 view .LVU991
 288:Middlewares/lvgl/src/widgets/lv_btnmatrix.c **** 
 3041              		.loc 1 288 5 view .LVU992
 290:Middlewares/lvgl/src/widgets/lv_btnmatrix.c ****     return btnm->map_p;
 3042              		.loc 1 290 5 view .LVU993
 290:Middlewares/lvgl/src/widgets/lv_btnmatrix.c ****     return btnm->map_p;
 3043              		.loc 1 290 51 view .LVU994
 291:Middlewares/lvgl/src/widgets/lv_btnmatrix.c **** }
 3044              		.loc 1 291 5 view .LVU995
 292:Middlewares/lvgl/src/widgets/lv_btnmatrix.c **** 
 3045              		.loc 1 292 1 is_stmt 0 view .LVU996
 3046 0000 406A     		ldr	r0, [r0, #36]
 3047              	.LVL282:
 292:Middlewares/lvgl/src/widgets/lv_btnmatrix.c **** 
 3048              		.loc 1 292 1 view .LVU997
 3049 0002 7047     		bx	lr
 3050              		.cfi_endproc
 3051              	.LFE157:
 3053              		.section	.text.lv_btnmatrix_get_selected_btn,"ax",%progbits
 3054              		.align	1
 3055              		.global	lv_btnmatrix_get_selected_btn
 3056              		.syntax unified
 3057              		.thumb
 3058              		.thumb_func
 3059              		.fpu softvfp
 3061              	lv_btnmatrix_get_selected_btn:
 3062              	.LVL283:
ARM GAS  /tmp/ccnMQJLR.s 			page 90


 3063              	.LFB158:
 295:Middlewares/lvgl/src/widgets/lv_btnmatrix.c ****     LV_ASSERT_OBJ(obj, MY_CLASS);
 3064              		.loc 1 295 1 is_stmt 1 view -0
 3065              		.cfi_startproc
 3066              		@ args = 0, pretend = 0, frame = 0
 3067              		@ frame_needed = 0, uses_anonymous_args = 0
 3068              		@ link register save eliminated.
 296:Middlewares/lvgl/src/widgets/lv_btnmatrix.c **** 
 3069              		.loc 1 296 5 view .LVU999
 296:Middlewares/lvgl/src/widgets/lv_btnmatrix.c **** 
 3070              		.loc 1 296 5 view .LVU1000
 296:Middlewares/lvgl/src/widgets/lv_btnmatrix.c **** 
 3071              		.loc 1 296 5 view .LVU1001
 298:Middlewares/lvgl/src/widgets/lv_btnmatrix.c ****     return btnm->btn_id_sel;
 3072              		.loc 1 298 5 view .LVU1002
 298:Middlewares/lvgl/src/widgets/lv_btnmatrix.c ****     return btnm->btn_id_sel;
 3073              		.loc 1 298 51 view .LVU1003
 299:Middlewares/lvgl/src/widgets/lv_btnmatrix.c **** }
 3074              		.loc 1 299 5 view .LVU1004
 300:Middlewares/lvgl/src/widgets/lv_btnmatrix.c **** 
 3075              		.loc 1 300 1 is_stmt 0 view .LVU1005
 3076 0000 408E     		ldrh	r0, [r0, #50]
 3077              	.LVL284:
 300:Middlewares/lvgl/src/widgets/lv_btnmatrix.c **** 
 3078              		.loc 1 300 1 view .LVU1006
 3079 0002 7047     		bx	lr
 3080              		.cfi_endproc
 3081              	.LFE158:
 3083              		.section	.text.lv_btnmatrix_get_btn_text,"ax",%progbits
 3084              		.align	1
 3085              		.global	lv_btnmatrix_get_btn_text
 3086              		.syntax unified
 3087              		.thumb
 3088              		.thumb_func
 3089              		.fpu softvfp
 3091              	lv_btnmatrix_get_btn_text:
 3092              	.LVL285:
 3093              	.LFB159:
 303:Middlewares/lvgl/src/widgets/lv_btnmatrix.c ****     LV_ASSERT_OBJ(obj, MY_CLASS);
 3094              		.loc 1 303 1 is_stmt 1 view -0
 3095              		.cfi_startproc
 3096              		@ args = 0, pretend = 0, frame = 0
 3097              		@ frame_needed = 0, uses_anonymous_args = 0
 303:Middlewares/lvgl/src/widgets/lv_btnmatrix.c ****     LV_ASSERT_OBJ(obj, MY_CLASS);
 3098              		.loc 1 303 1 is_stmt 0 view .LVU1008
 3099 0000 2DE9F843 		push	{r3, r4, r5, r6, r7, r8, r9, lr}
 3100              	.LCFI28:
 3101              		.cfi_def_cfa_offset 32
 3102              		.cfi_offset 3, -32
 3103              		.cfi_offset 4, -28
 3104              		.cfi_offset 5, -24
 3105              		.cfi_offset 6, -20
 3106              		.cfi_offset 7, -16
 3107              		.cfi_offset 8, -12
 3108              		.cfi_offset 9, -8
 3109              		.cfi_offset 14, -4
 304:Middlewares/lvgl/src/widgets/lv_btnmatrix.c **** 
ARM GAS  /tmp/ccnMQJLR.s 			page 91


 3110              		.loc 1 304 5 is_stmt 1 view .LVU1009
 304:Middlewares/lvgl/src/widgets/lv_btnmatrix.c **** 
 3111              		.loc 1 304 5 view .LVU1010
 304:Middlewares/lvgl/src/widgets/lv_btnmatrix.c **** 
 3112              		.loc 1 304 5 view .LVU1011
 306:Middlewares/lvgl/src/widgets/lv_btnmatrix.c **** 
 3113              		.loc 1 306 5 view .LVU1012
 306:Middlewares/lvgl/src/widgets/lv_btnmatrix.c **** 
 3114              		.loc 1 306 7 is_stmt 0 view .LVU1013
 3115 0004 4FF6FF73 		movw	r3, #65535
 3116 0008 9942     		cmp	r1, r3
 3117 000a 23D0     		beq	.L168
 3118 000c 8046     		mov	r8, r0
 3119 000e 0F46     		mov	r7, r1
 308:Middlewares/lvgl/src/widgets/lv_btnmatrix.c ****     if(btn_id > btnm->btn_cnt) return NULL;
 3120              		.loc 1 308 5 is_stmt 1 view .LVU1014
 3121              	.LVL286:
 309:Middlewares/lvgl/src/widgets/lv_btnmatrix.c **** 
 3122              		.loc 1 309 5 view .LVU1015
 309:Middlewares/lvgl/src/widgets/lv_btnmatrix.c **** 
 3123              		.loc 1 309 21 is_stmt 0 view .LVU1016
 3124 0010 B0F83090 		ldrh	r9, [r0, #48]
 309:Middlewares/lvgl/src/widgets/lv_btnmatrix.c **** 
 3125              		.loc 1 309 7 view .LVU1017
 3126 0014 8945     		cmp	r9, r1
 3127 0016 1FD3     		bcc	.L169
 312:Middlewares/lvgl/src/widgets/lv_btnmatrix.c **** 
 3128              		.loc 1 312 14 view .LVU1018
 3129 0018 0025     		movs	r5, #0
 311:Middlewares/lvgl/src/widgets/lv_btnmatrix.c ****     uint16_t btn_i = 0;
 3130              		.loc 1 311 14 view .LVU1019
 3131 001a 2E46     		mov	r6, r5
 3132 001c 00E0     		b	.L165
 3133              	.LVL287:
 3134              	.L166:
 303:Middlewares/lvgl/src/widgets/lv_btnmatrix.c ****     LV_ASSERT_OBJ(obj, MY_CLASS);
 3135              		.loc 1 303 1 view .LVU1020
 3136 001e 2646     		mov	r6, r4
 3137              	.LVL288:
 3138              	.L165:
 316:Middlewares/lvgl/src/widgets/lv_btnmatrix.c ****         btn_i++;
 3139              		.loc 1 316 10 is_stmt 1 view .LVU1021
 3140 0020 BD42     		cmp	r5, r7
 3141 0022 0FD0     		beq	.L172
 317:Middlewares/lvgl/src/widgets/lv_btnmatrix.c ****         txt_i++;
 3142              		.loc 1 317 9 view .LVU1022
 317:Middlewares/lvgl/src/widgets/lv_btnmatrix.c ****         txt_i++;
 3143              		.loc 1 317 14 is_stmt 0 view .LVU1023
 3144 0024 0135     		adds	r5, r5, #1
 3145              	.LVL289:
 317:Middlewares/lvgl/src/widgets/lv_btnmatrix.c ****         txt_i++;
 3146              		.loc 1 317 14 view .LVU1024
 3147 0026 ADB2     		uxth	r5, r5
 3148              	.LVL290:
 318:Middlewares/lvgl/src/widgets/lv_btnmatrix.c ****         if(strcmp(btnm->map_p[txt_i], "\n") == 0) txt_i++;
 3149              		.loc 1 318 9 is_stmt 1 view .LVU1025
 318:Middlewares/lvgl/src/widgets/lv_btnmatrix.c ****         if(strcmp(btnm->map_p[txt_i], "\n") == 0) txt_i++;
ARM GAS  /tmp/ccnMQJLR.s 			page 92


 3150              		.loc 1 318 14 is_stmt 0 view .LVU1026
 3151 0028 741C     		adds	r4, r6, #1
 3152 002a A4B2     		uxth	r4, r4
 3153              	.LVL291:
 319:Middlewares/lvgl/src/widgets/lv_btnmatrix.c ****     }
 3154              		.loc 1 319 9 is_stmt 1 view .LVU1027
 319:Middlewares/lvgl/src/widgets/lv_btnmatrix.c ****     }
 3155              		.loc 1 319 23 is_stmt 0 view .LVU1028
 3156 002c D8F82430 		ldr	r3, [r8, #36]
 319:Middlewares/lvgl/src/widgets/lv_btnmatrix.c ****     }
 3157              		.loc 1 319 12 view .LVU1029
 3158 0030 0B49     		ldr	r1, .L173
 3159 0032 53F82400 		ldr	r0, [r3, r4, lsl #2]
 3160 0036 FFF7FEFF 		bl	strcmp
 3161              	.LVL292:
 319:Middlewares/lvgl/src/widgets/lv_btnmatrix.c ****     }
 3162              		.loc 1 319 11 view .LVU1030
 3163 003a 0028     		cmp	r0, #0
 3164 003c EFD1     		bne	.L166
 319:Middlewares/lvgl/src/widgets/lv_btnmatrix.c ****     }
 3165              		.loc 1 319 51 is_stmt 1 discriminator 1 view .LVU1031
 319:Middlewares/lvgl/src/widgets/lv_btnmatrix.c ****     }
 3166              		.loc 1 319 56 is_stmt 0 discriminator 1 view .LVU1032
 3167 003e B41C     		adds	r4, r6, #2
 3168              	.LVL293:
 319:Middlewares/lvgl/src/widgets/lv_btnmatrix.c ****     }
 3169              		.loc 1 319 56 discriminator 1 view .LVU1033
 3170 0040 A4B2     		uxth	r4, r4
 3171              	.LVL294:
 319:Middlewares/lvgl/src/widgets/lv_btnmatrix.c ****     }
 3172              		.loc 1 319 56 discriminator 1 view .LVU1034
 3173 0042 ECE7     		b	.L166
 3174              	.LVL295:
 3175              	.L172:
 322:Middlewares/lvgl/src/widgets/lv_btnmatrix.c **** 
 3176              		.loc 1 322 5 is_stmt 1 view .LVU1035
 322:Middlewares/lvgl/src/widgets/lv_btnmatrix.c **** 
 3177              		.loc 1 322 7 is_stmt 0 view .LVU1036
 3178 0044 A945     		cmp	r9, r5
 3179 0046 09D0     		beq	.L170
 324:Middlewares/lvgl/src/widgets/lv_btnmatrix.c **** }
 3180              		.loc 1 324 5 is_stmt 1 view .LVU1037
 324:Middlewares/lvgl/src/widgets/lv_btnmatrix.c **** }
 3181              		.loc 1 324 16 is_stmt 0 view .LVU1038
 3182 0048 D8F82430 		ldr	r3, [r8, #36]
 324:Middlewares/lvgl/src/widgets/lv_btnmatrix.c **** }
 3183              		.loc 1 324 23 view .LVU1039
 3184 004c 53F82600 		ldr	r0, [r3, r6, lsl #2]
 3185              	.LVL296:
 3186              	.L163:
 325:Middlewares/lvgl/src/widgets/lv_btnmatrix.c **** 
 3187              		.loc 1 325 1 view .LVU1040
 3188 0050 BDE8F883 		pop	{r3, r4, r5, r6, r7, r8, r9, pc}
 3189              	.LVL297:
 3190              	.L168:
 306:Middlewares/lvgl/src/widgets/lv_btnmatrix.c **** 
 3191              		.loc 1 306 48 view .LVU1041
ARM GAS  /tmp/ccnMQJLR.s 			page 93


 3192 0054 0020     		movs	r0, #0
 3193              	.LVL298:
 306:Middlewares/lvgl/src/widgets/lv_btnmatrix.c **** 
 3194              		.loc 1 306 48 view .LVU1042
 3195 0056 FBE7     		b	.L163
 3196              	.LVL299:
 3197              	.L169:
 309:Middlewares/lvgl/src/widgets/lv_btnmatrix.c **** 
 3198              		.loc 1 309 39 view .LVU1043
 3199 0058 0020     		movs	r0, #0
 3200              	.LVL300:
 309:Middlewares/lvgl/src/widgets/lv_btnmatrix.c **** 
 3201              		.loc 1 309 39 view .LVU1044
 3202 005a F9E7     		b	.L163
 3203              	.LVL301:
 3204              	.L170:
 322:Middlewares/lvgl/src/widgets/lv_btnmatrix.c **** 
 3205              		.loc 1 322 39 view .LVU1045
 3206 005c 0020     		movs	r0, #0
 3207 005e F7E7     		b	.L163
 3208              	.L174:
 3209              		.align	2
 3210              	.L173:
 3211 0060 00000000 		.word	.LC0
 3212              		.cfi_endproc
 3213              	.LFE159:
 3215              		.section	.text.lv_btnmatrix_has_btn_ctrl,"ax",%progbits
 3216              		.align	1
 3217              		.global	lv_btnmatrix_has_btn_ctrl
 3218              		.syntax unified
 3219              		.thumb
 3220              		.thumb_func
 3221              		.fpu softvfp
 3223              	lv_btnmatrix_has_btn_ctrl:
 3224              	.LVL302:
 3225              	.LFB160:
 328:Middlewares/lvgl/src/widgets/lv_btnmatrix.c ****     LV_ASSERT_OBJ(obj, MY_CLASS);
 3226              		.loc 1 328 1 is_stmt 1 view -0
 3227              		.cfi_startproc
 3228              		@ args = 0, pretend = 0, frame = 0
 3229              		@ frame_needed = 0, uses_anonymous_args = 0
 3230              		@ link register save eliminated.
 329:Middlewares/lvgl/src/widgets/lv_btnmatrix.c **** 
 3231              		.loc 1 329 5 view .LVU1047
 329:Middlewares/lvgl/src/widgets/lv_btnmatrix.c **** 
 3232              		.loc 1 329 5 view .LVU1048
 329:Middlewares/lvgl/src/widgets/lv_btnmatrix.c **** 
 3233              		.loc 1 329 5 view .LVU1049
 331:Middlewares/lvgl/src/widgets/lv_btnmatrix.c ****     if(btn_id >= btnm->btn_cnt) return false;
 3234              		.loc 1 331 5 view .LVU1050
 331:Middlewares/lvgl/src/widgets/lv_btnmatrix.c ****     if(btn_id >= btnm->btn_cnt) return false;
 3235              		.loc 1 331 51 view .LVU1051
 332:Middlewares/lvgl/src/widgets/lv_btnmatrix.c **** 
 3236              		.loc 1 332 5 view .LVU1052
 332:Middlewares/lvgl/src/widgets/lv_btnmatrix.c **** 
 3237              		.loc 1 332 22 is_stmt 0 view .LVU1053
 3238 0000 038E     		ldrh	r3, [r0, #48]
ARM GAS  /tmp/ccnMQJLR.s 			page 94


 332:Middlewares/lvgl/src/widgets/lv_btnmatrix.c **** 
 3239              		.loc 1 332 7 view .LVU1054
 3240 0002 8B42     		cmp	r3, r1
 3241 0004 07D9     		bls	.L177
 334:Middlewares/lvgl/src/widgets/lv_btnmatrix.c **** }
 3242              		.loc 1 334 5 is_stmt 1 view .LVU1055
 334:Middlewares/lvgl/src/widgets/lv_btnmatrix.c **** }
 3243              		.loc 1 334 17 is_stmt 0 view .LVU1056
 3244 0006 C36A     		ldr	r3, [r0, #44]
 334:Middlewares/lvgl/src/widgets/lv_btnmatrix.c **** }
 3245              		.loc 1 334 28 view .LVU1057
 3246 0008 33F81130 		ldrh	r3, [r3, r1, lsl #1]
 334:Middlewares/lvgl/src/widgets/lv_btnmatrix.c **** }
 3247              		.loc 1 334 52 view .LVU1058
 3248 000c 1342     		tst	r3, r2
 3249 000e 14BF     		ite	ne
 3250 0010 0120     		movne	r0, #1
 3251              	.LVL303:
 334:Middlewares/lvgl/src/widgets/lv_btnmatrix.c **** }
 3252              		.loc 1 334 52 view .LVU1059
 3253 0012 0020     		moveq	r0, #0
 3254 0014 7047     		bx	lr
 3255              	.LVL304:
 3256              	.L177:
 332:Middlewares/lvgl/src/widgets/lv_btnmatrix.c **** 
 3257              		.loc 1 332 40 view .LVU1060
 3258 0016 0020     		movs	r0, #0
 3259              	.LVL305:
 335:Middlewares/lvgl/src/widgets/lv_btnmatrix.c **** 
 3260              		.loc 1 335 1 view .LVU1061
 3261 0018 7047     		bx	lr
 3262              		.cfi_endproc
 3263              	.LFE160:
 3265              		.section	.text.make_one_button_checked,"ax",%progbits
 3266              		.align	1
 3267              		.syntax unified
 3268              		.thumb
 3269              		.thumb_func
 3270              		.fpu softvfp
 3272              	make_one_button_checked:
 3273              	.LVL306:
 3274              	.LFB178:
 958:Middlewares/lvgl/src/widgets/lv_btnmatrix.c **** 
 959:Middlewares/lvgl/src/widgets/lv_btnmatrix.c **** /**
 960:Middlewares/lvgl/src/widgets/lv_btnmatrix.c ****  * Enforces a single button being toggled on the button matrix.
 961:Middlewares/lvgl/src/widgets/lv_btnmatrix.c ****  * It simply clears the toggle flag on other buttons.
 962:Middlewares/lvgl/src/widgets/lv_btnmatrix.c ****  * @param obj Button matrix object
 963:Middlewares/lvgl/src/widgets/lv_btnmatrix.c ****  * @param btn_idx Button that should remain toggled
 964:Middlewares/lvgl/src/widgets/lv_btnmatrix.c ****  */
 965:Middlewares/lvgl/src/widgets/lv_btnmatrix.c **** static void make_one_button_checked(lv_obj_t * obj, uint16_t btn_idx)
 966:Middlewares/lvgl/src/widgets/lv_btnmatrix.c **** {
 3275              		.loc 1 966 1 is_stmt 1 view -0
 3276              		.cfi_startproc
 3277              		@ args = 0, pretend = 0, frame = 0
 3278              		@ frame_needed = 0, uses_anonymous_args = 0
 3279              		.loc 1 966 1 is_stmt 0 view .LVU1063
 3280 0000 70B5     		push	{r4, r5, r6, lr}
ARM GAS  /tmp/ccnMQJLR.s 			page 95


 3281              	.LCFI29:
 3282              		.cfi_def_cfa_offset 16
 3283              		.cfi_offset 4, -16
 3284              		.cfi_offset 5, -12
 3285              		.cfi_offset 6, -8
 3286              		.cfi_offset 14, -4
 3287 0002 0446     		mov	r4, r0
 3288 0004 0E46     		mov	r6, r1
 967:Middlewares/lvgl/src/widgets/lv_btnmatrix.c ****     /*Save whether the button was toggled*/
 968:Middlewares/lvgl/src/widgets/lv_btnmatrix.c ****     bool was_toggled = lv_btnmatrix_has_btn_ctrl(obj, btn_idx, LV_BTNMATRIX_CTRL_CHECKED);
 3289              		.loc 1 968 5 is_stmt 1 view .LVU1064
 3290              		.loc 1 968 24 is_stmt 0 view .LVU1065
 3291 0006 8022     		movs	r2, #128
 3292 0008 FFF7FEFF 		bl	lv_btnmatrix_has_btn_ctrl
 3293              	.LVL307:
 3294              		.loc 1 968 24 view .LVU1066
 3295 000c 0546     		mov	r5, r0
 3296              	.LVL308:
 969:Middlewares/lvgl/src/widgets/lv_btnmatrix.c **** 
 970:Middlewares/lvgl/src/widgets/lv_btnmatrix.c ****     lv_btnmatrix_clear_btn_ctrl_all(obj, LV_BTNMATRIX_CTRL_CHECKED);
 3297              		.loc 1 970 5 is_stmt 1 view .LVU1067
 3298 000e 8021     		movs	r1, #128
 3299 0010 2046     		mov	r0, r4
 3300 0012 FFF7FEFF 		bl	lv_btnmatrix_clear_btn_ctrl_all
 3301              	.LVL309:
 971:Middlewares/lvgl/src/widgets/lv_btnmatrix.c **** 
 972:Middlewares/lvgl/src/widgets/lv_btnmatrix.c ****     if(was_toggled) lv_btnmatrix_set_btn_ctrl(obj, btn_idx, LV_BTNMATRIX_CTRL_CHECKED);
 3302              		.loc 1 972 5 view .LVU1068
 3303              		.loc 1 972 7 is_stmt 0 view .LVU1069
 3304 0016 05B9     		cbnz	r5, .L181
 3305              	.L178:
 973:Middlewares/lvgl/src/widgets/lv_btnmatrix.c **** }
 3306              		.loc 1 973 1 view .LVU1070
 3307 0018 70BD     		pop	{r4, r5, r6, pc}
 3308              	.LVL310:
 3309              	.L181:
 972:Middlewares/lvgl/src/widgets/lv_btnmatrix.c **** }
 3310              		.loc 1 972 21 is_stmt 1 discriminator 1 view .LVU1071
 3311 001a 8022     		movs	r2, #128
 3312 001c 3146     		mov	r1, r6
 3313 001e 2046     		mov	r0, r4
 3314 0020 FFF7FEFF 		bl	lv_btnmatrix_set_btn_ctrl
 3315              	.LVL311:
 3316              		.loc 1 973 1 is_stmt 0 discriminator 1 view .LVU1072
 3317 0024 F8E7     		b	.L178
 3318              		.cfi_endproc
 3319              	.LFE178:
 3321              		.section	.text.lv_btnmatrix_event,"ax",%progbits
 3322              		.align	1
 3323              		.syntax unified
 3324              		.thumb
 3325              		.thumb_func
 3326              		.fpu softvfp
 3328              	lv_btnmatrix_event:
 3329              	.LVL312:
 3330              	.LFB164:
 380:Middlewares/lvgl/src/widgets/lv_btnmatrix.c ****     LV_UNUSED(class_p);
ARM GAS  /tmp/ccnMQJLR.s 			page 96


 3331              		.loc 1 380 1 is_stmt 1 view -0
 3332              		.cfi_startproc
 3333              		@ args = 0, pretend = 0, frame = 8
 3334              		@ frame_needed = 0, uses_anonymous_args = 0
 380:Middlewares/lvgl/src/widgets/lv_btnmatrix.c ****     LV_UNUSED(class_p);
 3335              		.loc 1 380 1 is_stmt 0 view .LVU1074
 3336 0000 2DE9F04F 		push	{r4, r5, r6, r7, r8, r9, r10, fp, lr}
 3337              	.LCFI30:
 3338              		.cfi_def_cfa_offset 36
 3339              		.cfi_offset 4, -36
 3340              		.cfi_offset 5, -32
 3341              		.cfi_offset 6, -28
 3342              		.cfi_offset 7, -24
 3343              		.cfi_offset 8, -20
 3344              		.cfi_offset 9, -16
 3345              		.cfi_offset 10, -12
 3346              		.cfi_offset 11, -8
 3347              		.cfi_offset 14, -4
 3348 0004 83B0     		sub	sp, sp, #12
 3349              	.LCFI31:
 3350              		.cfi_def_cfa_offset 48
 3351 0006 0C46     		mov	r4, r1
 381:Middlewares/lvgl/src/widgets/lv_btnmatrix.c **** 
 3352              		.loc 1 381 5 is_stmt 1 view .LVU1075
 383:Middlewares/lvgl/src/widgets/lv_btnmatrix.c **** 
 3353              		.loc 1 383 5 view .LVU1076
 386:Middlewares/lvgl/src/widgets/lv_btnmatrix.c ****     if(res != LV_RES_OK) return;
 3354              		.loc 1 386 5 view .LVU1077
 386:Middlewares/lvgl/src/widgets/lv_btnmatrix.c ****     if(res != LV_RES_OK) return;
 3355              		.loc 1 386 11 is_stmt 0 view .LVU1078
 3356 0008 B948     		ldr	r0, .L279
 3357              	.LVL313:
 386:Middlewares/lvgl/src/widgets/lv_btnmatrix.c ****     if(res != LV_RES_OK) return;
 3358              		.loc 1 386 11 view .LVU1079
 3359 000a FFF7FEFF 		bl	lv_obj_event_base
 3360              	.LVL314:
 387:Middlewares/lvgl/src/widgets/lv_btnmatrix.c **** 
 3361              		.loc 1 387 5 is_stmt 1 view .LVU1080
 387:Middlewares/lvgl/src/widgets/lv_btnmatrix.c **** 
 3362              		.loc 1 387 7 is_stmt 0 view .LVU1081
 3363 000e 0128     		cmp	r0, #1
 3364 0010 02D0     		beq	.L252
 3365              	.LVL315:
 3366              	.L182:
 627:Middlewares/lvgl/src/widgets/lv_btnmatrix.c **** 
 3367              		.loc 1 627 1 view .LVU1082
 3368 0012 03B0     		add	sp, sp, #12
 3369              	.LCFI32:
 3370              		.cfi_remember_state
 3371              		.cfi_def_cfa_offset 36
 3372              		@ sp needed
 3373 0014 BDE8F08F 		pop	{r4, r5, r6, r7, r8, r9, r10, fp, pc}
 3374              	.LVL316:
 3375              	.L252:
 3376              	.LCFI33:
 3377              		.cfi_restore_state
 389:Middlewares/lvgl/src/widgets/lv_btnmatrix.c ****     lv_obj_t * obj = lv_event_get_target(e);
ARM GAS  /tmp/ccnMQJLR.s 			page 97


 3378              		.loc 1 389 5 is_stmt 1 view .LVU1083
 389:Middlewares/lvgl/src/widgets/lv_btnmatrix.c ****     lv_obj_t * obj = lv_event_get_target(e);
 3379              		.loc 1 389 28 is_stmt 0 view .LVU1084
 3380 0018 2046     		mov	r0, r4
 3381              	.LVL317:
 389:Middlewares/lvgl/src/widgets/lv_btnmatrix.c ****     lv_obj_t * obj = lv_event_get_target(e);
 3382              		.loc 1 389 28 view .LVU1085
 3383 001a FFF7FEFF 		bl	lv_event_get_code
 3384              	.LVL318:
 3385 001e 0546     		mov	r5, r0
 3386              	.LVL319:
 390:Middlewares/lvgl/src/widgets/lv_btnmatrix.c ****     lv_btnmatrix_t * btnm = (lv_btnmatrix_t *)obj;
 3387              		.loc 1 390 5 is_stmt 1 view .LVU1086
 390:Middlewares/lvgl/src/widgets/lv_btnmatrix.c ****     lv_btnmatrix_t * btnm = (lv_btnmatrix_t *)obj;
 3388              		.loc 1 390 22 is_stmt 0 view .LVU1087
 3389 0020 2046     		mov	r0, r4
 3390 0022 FFF7FEFF 		bl	lv_event_get_target
 3391              	.LVL320:
 3392 0026 0646     		mov	r6, r0
 3393              	.LVL321:
 391:Middlewares/lvgl/src/widgets/lv_btnmatrix.c ****     lv_point_t p;
 3394              		.loc 1 391 5 is_stmt 1 view .LVU1088
 392:Middlewares/lvgl/src/widgets/lv_btnmatrix.c **** 
 3395              		.loc 1 392 5 view .LVU1089
 394:Middlewares/lvgl/src/widgets/lv_btnmatrix.c ****         lv_btnmatrix_set_map(obj, btnm->map_p);
 3396              		.loc 1 394 5 view .LVU1090
 394:Middlewares/lvgl/src/widgets/lv_btnmatrix.c ****         lv_btnmatrix_set_map(obj, btnm->map_p);
 3397              		.loc 1 394 7 is_stmt 0 view .LVU1091
 3398 0028 242D     		cmp	r5, #36
 3399 002a 20D0     		beq	.L253
 397:Middlewares/lvgl/src/widgets/lv_btnmatrix.c ****         lv_btnmatrix_set_map(obj, btnm->map_p);
 3400              		.loc 1 397 10 is_stmt 1 view .LVU1092
 397:Middlewares/lvgl/src/widgets/lv_btnmatrix.c ****         lv_btnmatrix_set_map(obj, btnm->map_p);
 3401              		.loc 1 397 12 is_stmt 0 view .LVU1093
 3402 002c 232D     		cmp	r5, #35
 3403 002e 22D0     		beq	.L254
 400:Middlewares/lvgl/src/widgets/lv_btnmatrix.c ****         void * param = lv_event_get_param(e);
 3404              		.loc 1 400 10 is_stmt 1 view .LVU1094
 400:Middlewares/lvgl/src/widgets/lv_btnmatrix.c ****         void * param = lv_event_get_param(e);
 3405              		.loc 1 400 12 is_stmt 0 view .LVU1095
 3406 0030 012D     		cmp	r5, #1
 3407 0032 24D0     		beq	.L255
 430:Middlewares/lvgl/src/widgets/lv_btnmatrix.c ****         void * param = lv_event_get_param(e);
 3408              		.loc 1 430 10 is_stmt 1 view .LVU1096
 430:Middlewares/lvgl/src/widgets/lv_btnmatrix.c ****         void * param = lv_event_get_param(e);
 3409              		.loc 1 430 12 is_stmt 0 view .LVU1097
 3410 0034 022D     		cmp	r5, #2
 3411 0036 70D0     		beq	.L256
 462:Middlewares/lvgl/src/widgets/lv_btnmatrix.c ****         if(btnm->btn_id_sel != LV_BTNMATRIX_BTN_NONE) {
 3412              		.loc 1 462 10 is_stmt 1 view .LVU1098
 462:Middlewares/lvgl/src/widgets/lv_btnmatrix.c ****         if(btnm->btn_id_sel != LV_BTNMATRIX_BTN_NONE) {
 3413              		.loc 1 462 12 is_stmt 0 view .LVU1099
 3414 0038 082D     		cmp	r5, #8
 3415 003a 00F0BD80 		beq	.L257
 494:Middlewares/lvgl/src/widgets/lv_btnmatrix.c ****         if(btnm->btn_id_sel != LV_BTNMATRIX_BTN_NONE) {
 3416              		.loc 1 494 10 is_stmt 1 view .LVU1100
 494:Middlewares/lvgl/src/widgets/lv_btnmatrix.c ****         if(btnm->btn_id_sel != LV_BTNMATRIX_BTN_NONE) {
ARM GAS  /tmp/ccnMQJLR.s 			page 98


 3417              		.loc 1 494 12 is_stmt 0 view .LVU1101
 3418 003e 062D     		cmp	r5, #6
 3419 0040 00F01181 		beq	.L258
 505:Middlewares/lvgl/src/widgets/lv_btnmatrix.c ****         invalidate_button_area(obj, btnm->btn_id_sel);
 3420              		.loc 1 505 10 is_stmt 1 view .LVU1102
 505:Middlewares/lvgl/src/widgets/lv_btnmatrix.c ****         invalidate_button_area(obj, btnm->btn_id_sel);
 3421              		.loc 1 505 12 is_stmt 0 view .LVU1103
 3422 0044 032D     		cmp	r5, #3
 3423 0046 00F03081 		beq	.L259
 509:Middlewares/lvgl/src/widgets/lv_btnmatrix.c ****         lv_indev_t * indev = lv_event_get_param(e);
 3424              		.loc 1 509 10 is_stmt 1 view .LVU1104
 509:Middlewares/lvgl/src/widgets/lv_btnmatrix.c ****         lv_indev_t * indev = lv_event_get_param(e);
 3425              		.loc 1 509 12 is_stmt 0 view .LVU1105
 3426 004a 0E2D     		cmp	r5, #14
 3427 004c 00F03481 		beq	.L260
 536:Middlewares/lvgl/src/widgets/lv_btnmatrix.c ****         if(btnm->btn_id_sel != LV_BTNMATRIX_BTN_NONE) invalidate_button_area(obj, btnm->btn_id_sel)
 3428              		.loc 1 536 10 is_stmt 1 view .LVU1106
 536:Middlewares/lvgl/src/widgets/lv_btnmatrix.c ****         if(btnm->btn_id_sel != LV_BTNMATRIX_BTN_NONE) invalidate_button_area(obj, btnm->btn_id_sel)
 3429              		.loc 1 536 40 is_stmt 0 view .LVU1107
 3430 0050 A5F10F03 		sub	r3, r5, #15
 3431 0054 DBB2     		uxtb	r3, r3
 536:Middlewares/lvgl/src/widgets/lv_btnmatrix.c ****         if(btnm->btn_id_sel != LV_BTNMATRIX_BTN_NONE) invalidate_button_area(obj, btnm->btn_id_sel)
 3432              		.loc 1 536 12 view .LVU1108
 3433 0056 012B     		cmp	r3, #1
 3434 0058 40F28281 		bls	.L261
 540:Middlewares/lvgl/src/widgets/lv_btnmatrix.c **** 
 3435              		.loc 1 540 10 is_stmt 1 view .LVU1109
 540:Middlewares/lvgl/src/widgets/lv_btnmatrix.c **** 
 3436              		.loc 1 540 12 is_stmt 0 view .LVU1110
 3437 005c 0D2D     		cmp	r5, #13
 3438 005e 00F08B81 		beq	.L262
 623:Middlewares/lvgl/src/widgets/lv_btnmatrix.c ****         draw_main(e);
 3439              		.loc 1 623 12 is_stmt 1 view .LVU1111
 623:Middlewares/lvgl/src/widgets/lv_btnmatrix.c ****         draw_main(e);
 3440              		.loc 1 623 14 is_stmt 0 view .LVU1112
 3441 0062 152D     		cmp	r5, #21
 3442 0064 D5D1     		bne	.L182
 624:Middlewares/lvgl/src/widgets/lv_btnmatrix.c ****     }
 3443              		.loc 1 624 9 is_stmt 1 view .LVU1113
 3444 0066 2046     		mov	r0, r4
 3445              	.LVL322:
 624:Middlewares/lvgl/src/widgets/lv_btnmatrix.c ****     }
 3446              		.loc 1 624 9 is_stmt 0 view .LVU1114
 3447 0068 FFF7FEFF 		bl	draw_main
 3448              	.LVL323:
 3449 006c D1E7     		b	.L182
 3450              	.LVL324:
 3451              	.L253:
 395:Middlewares/lvgl/src/widgets/lv_btnmatrix.c ****     }
 3452              		.loc 1 395 9 is_stmt 1 view .LVU1115
 3453 006e 416A     		ldr	r1, [r0, #36]
 3454 0070 FFF7FEFF 		bl	lv_btnmatrix_set_map
 3455              	.LVL325:
 395:Middlewares/lvgl/src/widgets/lv_btnmatrix.c ****     }
 3456              		.loc 1 395 9 is_stmt 0 view .LVU1116
 3457 0074 CDE7     		b	.L182
 3458              	.LVL326:
ARM GAS  /tmp/ccnMQJLR.s 			page 99


 3459              	.L254:
 398:Middlewares/lvgl/src/widgets/lv_btnmatrix.c ****     }
 3460              		.loc 1 398 9 is_stmt 1 view .LVU1117
 3461 0076 416A     		ldr	r1, [r0, #36]
 3462 0078 FFF7FEFF 		bl	lv_btnmatrix_set_map
 3463              	.LVL327:
 398:Middlewares/lvgl/src/widgets/lv_btnmatrix.c ****     }
 3464              		.loc 1 398 9 is_stmt 0 view .LVU1118
 3465 007c C9E7     		b	.L182
 3466              	.LVL328:
 3467              	.L255:
 3468              	.LBB128:
 401:Middlewares/lvgl/src/widgets/lv_btnmatrix.c ****         invalidate_button_area(obj, btnm->btn_id_sel);
 3469              		.loc 1 401 9 is_stmt 1 view .LVU1119
 401:Middlewares/lvgl/src/widgets/lv_btnmatrix.c ****         invalidate_button_area(obj, btnm->btn_id_sel);
 3470              		.loc 1 401 24 is_stmt 0 view .LVU1120
 3471 007e 2046     		mov	r0, r4
 3472              	.LVL329:
 401:Middlewares/lvgl/src/widgets/lv_btnmatrix.c ****         invalidate_button_area(obj, btnm->btn_id_sel);
 3473              		.loc 1 401 24 view .LVU1121
 3474 0080 FFF7FEFF 		bl	lv_event_get_param
 3475              	.LVL330:
 3476 0084 0446     		mov	r4, r0
 3477              	.LVL331:
 402:Middlewares/lvgl/src/widgets/lv_btnmatrix.c **** 
 3478              		.loc 1 402 9 is_stmt 1 view .LVU1122
 3479 0086 718E     		ldrh	r1, [r6, #50]
 3480 0088 3046     		mov	r0, r6
 3481              	.LVL332:
 402:Middlewares/lvgl/src/widgets/lv_btnmatrix.c **** 
 3482              		.loc 1 402 9 is_stmt 0 view .LVU1123
 3483 008a FFF7FEFF 		bl	invalidate_button_area
 3484              	.LVL333:
 404:Middlewares/lvgl/src/widgets/lv_btnmatrix.c ****         if(indev_type == LV_INDEV_TYPE_POINTER || indev_type == LV_INDEV_TYPE_BUTTON) {
 3485              		.loc 1 404 9 is_stmt 1 view .LVU1124
 404:Middlewares/lvgl/src/widgets/lv_btnmatrix.c ****         if(indev_type == LV_INDEV_TYPE_POINTER || indev_type == LV_INDEV_TYPE_BUTTON) {
 3486              		.loc 1 404 56 is_stmt 0 view .LVU1125
 3487 008e FFF7FEFF 		bl	lv_indev_get_act
 3488              	.LVL334:
 404:Middlewares/lvgl/src/widgets/lv_btnmatrix.c ****         if(indev_type == LV_INDEV_TYPE_POINTER || indev_type == LV_INDEV_TYPE_BUTTON) {
 3489              		.loc 1 404 38 view .LVU1126
 3490 0092 FFF7FEFF 		bl	lv_indev_get_type
 3491              	.LVL335:
 405:Middlewares/lvgl/src/widgets/lv_btnmatrix.c ****             uint16_t btn_pr;
 3492              		.loc 1 405 9 is_stmt 1 view .LVU1127
 405:Middlewares/lvgl/src/widgets/lv_btnmatrix.c ****             uint16_t btn_pr;
 3493              		.loc 1 405 11 is_stmt 0 view .LVU1128
 3494 0096 0128     		cmp	r0, #1
 3495 0098 1FD0     		beq	.L188
 405:Middlewares/lvgl/src/widgets/lv_btnmatrix.c ****             uint16_t btn_pr;
 3496              		.loc 1 405 48 discriminator 1 view .LVU1129
 3497 009a 0328     		cmp	r0, #3
 3498 009c 1DD0     		beq	.L188
 3499              	.LVL336:
 3500              	.L189:
 420:Middlewares/lvgl/src/widgets/lv_btnmatrix.c ****             if(button_is_click_trig(btnm->ctrl_bits[btnm->btn_id_sel]) == false &&
 3501              		.loc 1 420 9 is_stmt 1 view .LVU1130
ARM GAS  /tmp/ccnMQJLR.s 			page 100


 420:Middlewares/lvgl/src/widgets/lv_btnmatrix.c ****             if(button_is_click_trig(btnm->ctrl_bits[btnm->btn_id_sel]) == false &&
 3502              		.loc 1 420 16 is_stmt 0 view .LVU1131
 3503 009e 748E     		ldrh	r4, [r6, #50]
 420:Middlewares/lvgl/src/widgets/lv_btnmatrix.c ****             if(button_is_click_trig(btnm->ctrl_bits[btnm->btn_id_sel]) == false &&
 3504              		.loc 1 420 11 view .LVU1132
 3505 00a0 4FF6FF73 		movw	r3, #65535
 3506 00a4 9C42     		cmp	r4, r3
 3507 00a6 B4D0     		beq	.L182
 421:Middlewares/lvgl/src/widgets/lv_btnmatrix.c ****                button_is_inactive(btnm->ctrl_bits[btnm->btn_id_sel]) == false &&
 3508              		.loc 1 421 13 is_stmt 1 view .LVU1133
 421:Middlewares/lvgl/src/widgets/lv_btnmatrix.c ****                button_is_inactive(btnm->ctrl_bits[btnm->btn_id_sel]) == false &&
 3509              		.loc 1 421 41 is_stmt 0 view .LVU1134
 3510 00a8 F36A     		ldr	r3, [r6, #44]
 421:Middlewares/lvgl/src/widgets/lv_btnmatrix.c ****                button_is_inactive(btnm->ctrl_bits[btnm->btn_id_sel]) == false &&
 3511              		.loc 1 421 16 view .LVU1135
 3512 00aa 33F81450 		ldrh	r5, [r3, r4, lsl #1]
 3513 00ae 2846     		mov	r0, r5
 3514 00b0 FFF7FEFF 		bl	button_is_click_trig
 3515              	.LVL337:
 421:Middlewares/lvgl/src/widgets/lv_btnmatrix.c ****                button_is_inactive(btnm->ctrl_bits[btnm->btn_id_sel]) == false &&
 3516              		.loc 1 421 15 view .LVU1136
 3517 00b4 0028     		cmp	r0, #0
 3518 00b6 ACD1     		bne	.L182
 422:Middlewares/lvgl/src/widgets/lv_btnmatrix.c ****                button_is_hidden(btnm->ctrl_bits[btnm->btn_id_sel]) == false) {
 3519              		.loc 1 422 16 discriminator 1 view .LVU1137
 3520 00b8 2846     		mov	r0, r5
 3521 00ba FFF7FEFF 		bl	button_is_inactive
 3522              	.LVL338:
 421:Middlewares/lvgl/src/widgets/lv_btnmatrix.c ****                button_is_inactive(btnm->ctrl_bits[btnm->btn_id_sel]) == false &&
 3523              		.loc 1 421 81 discriminator 1 view .LVU1138
 3524 00be 0028     		cmp	r0, #0
 3525 00c0 A7D1     		bne	.L182
 423:Middlewares/lvgl/src/widgets/lv_btnmatrix.c ****                 uint32_t b = btnm->btn_id_sel;
 3526              		.loc 1 423 16 view .LVU1139
 3527 00c2 2846     		mov	r0, r5
 3528 00c4 FFF7FEFF 		bl	button_is_hidden
 3529              	.LVL339:
 422:Middlewares/lvgl/src/widgets/lv_btnmatrix.c ****                button_is_hidden(btnm->ctrl_bits[btnm->btn_id_sel]) == false) {
 3530              		.loc 1 422 79 view .LVU1140
 3531 00c8 0028     		cmp	r0, #0
 3532 00ca A2D1     		bne	.L182
 3533              	.LBB129:
 424:Middlewares/lvgl/src/widgets/lv_btnmatrix.c ****                 res        = lv_event_send(obj, LV_EVENT_VALUE_CHANGED, &b);
 3534              		.loc 1 424 17 is_stmt 1 view .LVU1141
 424:Middlewares/lvgl/src/widgets/lv_btnmatrix.c ****                 res        = lv_event_send(obj, LV_EVENT_VALUE_CHANGED, &b);
 3535              		.loc 1 424 26 is_stmt 0 view .LVU1142
 3536 00cc 0094     		str	r4, [sp]
 425:Middlewares/lvgl/src/widgets/lv_btnmatrix.c ****                 if(res != LV_RES_OK) return;
 3537              		.loc 1 425 17 is_stmt 1 view .LVU1143
 425:Middlewares/lvgl/src/widgets/lv_btnmatrix.c ****                 if(res != LV_RES_OK) return;
 3538              		.loc 1 425 30 is_stmt 0 view .LVU1144
 3539 00ce 6A46     		mov	r2, sp
 3540 00d0 1C21     		movs	r1, #28
 3541 00d2 3046     		mov	r0, r6
 3542 00d4 FFF7FEFF 		bl	lv_event_send
 3543              	.LVL340:
 426:Middlewares/lvgl/src/widgets/lv_btnmatrix.c ****             }
ARM GAS  /tmp/ccnMQJLR.s 			page 101


 3544              		.loc 1 426 17 is_stmt 1 view .LVU1145
 3545 00d8 9BE7     		b	.L182
 3546              	.LVL341:
 3547              	.L188:
 426:Middlewares/lvgl/src/widgets/lv_btnmatrix.c ****             }
 3548              		.loc 1 426 17 is_stmt 0 view .LVU1146
 3549              	.LBE129:
 3550              	.LBB130:
 406:Middlewares/lvgl/src/widgets/lv_btnmatrix.c ****             /*Search the pressed area*/
 3551              		.loc 1 406 13 is_stmt 1 view .LVU1147
 408:Middlewares/lvgl/src/widgets/lv_btnmatrix.c ****             btn_pr = get_button_from_point(obj, &p);
 3552              		.loc 1 408 13 view .LVU1148
 3553 00da 01A9     		add	r1, sp, #4
 3554 00dc 2046     		mov	r0, r4
 3555              	.LVL342:
 408:Middlewares/lvgl/src/widgets/lv_btnmatrix.c ****             btn_pr = get_button_from_point(obj, &p);
 3556              		.loc 1 408 13 is_stmt 0 view .LVU1149
 3557 00de FFF7FEFF 		bl	lv_indev_get_point
 3558              	.LVL343:
 409:Middlewares/lvgl/src/widgets/lv_btnmatrix.c ****             /*Handle the case where there is no button there*/
 3559              		.loc 1 409 13 is_stmt 1 view .LVU1150
 409:Middlewares/lvgl/src/widgets/lv_btnmatrix.c ****             /*Handle the case where there is no button there*/
 3560              		.loc 1 409 22 is_stmt 0 view .LVU1151
 3561 00e2 01A9     		add	r1, sp, #4
 3562 00e4 3046     		mov	r0, r6
 3563 00e6 FFF7FEFF 		bl	get_button_from_point
 3564              	.LVL344:
 3565 00ea 0446     		mov	r4, r0
 3566              	.LVL345:
 411:Middlewares/lvgl/src/widgets/lv_btnmatrix.c ****                 if(button_is_inactive(btnm->ctrl_bits[btn_pr]) == false &&
 3567              		.loc 1 411 13 is_stmt 1 view .LVU1152
 411:Middlewares/lvgl/src/widgets/lv_btnmatrix.c ****                 if(button_is_inactive(btnm->ctrl_bits[btn_pr]) == false &&
 3568              		.loc 1 411 15 is_stmt 0 view .LVU1153
 3569 00ec 4FF6FF73 		movw	r3, #65535
 3570 00f0 9842     		cmp	r0, r3
 3571 00f2 D4D0     		beq	.L189
 412:Middlewares/lvgl/src/widgets/lv_btnmatrix.c ****                    button_is_hidden(btnm->ctrl_bits[btn_pr]) == false) {
 3572              		.loc 1 412 17 is_stmt 1 view .LVU1154
 412:Middlewares/lvgl/src/widgets/lv_btnmatrix.c ****                    button_is_hidden(btnm->ctrl_bits[btn_pr]) == false) {
 3573              		.loc 1 412 43 is_stmt 0 view .LVU1155
 3574 00f4 F36A     		ldr	r3, [r6, #44]
 412:Middlewares/lvgl/src/widgets/lv_btnmatrix.c ****                    button_is_hidden(btnm->ctrl_bits[btn_pr]) == false) {
 3575              		.loc 1 412 20 view .LVU1156
 3576 00f6 33F81050 		ldrh	r5, [r3, r0, lsl #1]
 3577              	.LVL346:
 412:Middlewares/lvgl/src/widgets/lv_btnmatrix.c ****                    button_is_hidden(btnm->ctrl_bits[btn_pr]) == false) {
 3578              		.loc 1 412 20 view .LVU1157
 3579 00fa 2846     		mov	r0, r5
 3580              	.LVL347:
 412:Middlewares/lvgl/src/widgets/lv_btnmatrix.c ****                    button_is_hidden(btnm->ctrl_bits[btn_pr]) == false) {
 3581              		.loc 1 412 20 view .LVU1158
 3582 00fc FFF7FEFF 		bl	button_is_inactive
 3583              	.LVL348:
 412:Middlewares/lvgl/src/widgets/lv_btnmatrix.c ****                    button_is_hidden(btnm->ctrl_bits[btn_pr]) == false) {
 3584              		.loc 1 412 19 view .LVU1159
 3585 0100 0028     		cmp	r0, #0
 3586 0102 CCD1     		bne	.L189
ARM GAS  /tmp/ccnMQJLR.s 			page 102


 413:Middlewares/lvgl/src/widgets/lv_btnmatrix.c ****                     btnm->btn_id_sel = btn_pr;
 3587              		.loc 1 413 20 discriminator 1 view .LVU1160
 3588 0104 2846     		mov	r0, r5
 3589 0106 FFF7FEFF 		bl	button_is_hidden
 3590              	.LVL349:
 412:Middlewares/lvgl/src/widgets/lv_btnmatrix.c ****                    button_is_hidden(btnm->ctrl_bits[btn_pr]) == false) {
 3591              		.loc 1 412 73 discriminator 1 view .LVU1161
 3592 010a 0028     		cmp	r0, #0
 3593 010c C7D1     		bne	.L189
 414:Middlewares/lvgl/src/widgets/lv_btnmatrix.c ****                     invalidate_button_area(obj, btnm->btn_id_sel); /*Invalidate the new area*/
 3594              		.loc 1 414 21 is_stmt 1 view .LVU1162
 414:Middlewares/lvgl/src/widgets/lv_btnmatrix.c ****                     invalidate_button_area(obj, btnm->btn_id_sel); /*Invalidate the new area*/
 3595              		.loc 1 414 38 is_stmt 0 view .LVU1163
 3596 010e 7486     		strh	r4, [r6, #50]	@ movhi
 415:Middlewares/lvgl/src/widgets/lv_btnmatrix.c ****                 }
 3597              		.loc 1 415 21 is_stmt 1 view .LVU1164
 3598 0110 2146     		mov	r1, r4
 3599 0112 3046     		mov	r0, r6
 3600 0114 FFF7FEFF 		bl	invalidate_button_area
 3601              	.LVL350:
 3602 0118 C1E7     		b	.L189
 3603              	.LVL351:
 3604              	.L256:
 415:Middlewares/lvgl/src/widgets/lv_btnmatrix.c ****                 }
 3605              		.loc 1 415 21 is_stmt 0 view .LVU1165
 3606              	.LBE130:
 3607              	.LBE128:
 3608              	.LBB131:
 431:Middlewares/lvgl/src/widgets/lv_btnmatrix.c ****         uint16_t btn_pr = LV_BTNMATRIX_BTN_NONE;
 3609              		.loc 1 431 9 is_stmt 1 view .LVU1166
 431:Middlewares/lvgl/src/widgets/lv_btnmatrix.c ****         uint16_t btn_pr = LV_BTNMATRIX_BTN_NONE;
 3610              		.loc 1 431 24 is_stmt 0 view .LVU1167
 3611 011a 2046     		mov	r0, r4
 3612              	.LVL352:
 431:Middlewares/lvgl/src/widgets/lv_btnmatrix.c ****         uint16_t btn_pr = LV_BTNMATRIX_BTN_NONE;
 3613              		.loc 1 431 24 view .LVU1168
 3614 011c FFF7FEFF 		bl	lv_event_get_param
 3615              	.LVL353:
 3616 0120 0546     		mov	r5, r0
 3617              	.LVL354:
 432:Middlewares/lvgl/src/widgets/lv_btnmatrix.c ****         /*Search the pressed area*/
 3618              		.loc 1 432 9 is_stmt 1 view .LVU1169
 434:Middlewares/lvgl/src/widgets/lv_btnmatrix.c ****         lv_indev_type_t indev_type = lv_indev_get_type(indev);
 3619              		.loc 1 434 9 view .LVU1170
 434:Middlewares/lvgl/src/widgets/lv_btnmatrix.c ****         lv_indev_type_t indev_type = lv_indev_get_type(indev);
 3620              		.loc 1 434 30 is_stmt 0 view .LVU1171
 3621 0122 FFF7FEFF 		bl	lv_indev_get_act
 3622              	.LVL355:
 434:Middlewares/lvgl/src/widgets/lv_btnmatrix.c ****         lv_indev_type_t indev_type = lv_indev_get_type(indev);
 3623              		.loc 1 434 30 view .LVU1172
 3624 0126 0446     		mov	r4, r0
 3625              	.LVL356:
 435:Middlewares/lvgl/src/widgets/lv_btnmatrix.c ****         if(indev_type == LV_INDEV_TYPE_ENCODER || indev_type == LV_INDEV_TYPE_KEYPAD) return;
 3626              		.loc 1 435 9 is_stmt 1 view .LVU1173
 435:Middlewares/lvgl/src/widgets/lv_btnmatrix.c ****         if(indev_type == LV_INDEV_TYPE_ENCODER || indev_type == LV_INDEV_TYPE_KEYPAD) return;
 3627              		.loc 1 435 38 is_stmt 0 view .LVU1174
 3628 0128 FFF7FEFF 		bl	lv_indev_get_type
ARM GAS  /tmp/ccnMQJLR.s 			page 103


 3629              	.LVL357:
 436:Middlewares/lvgl/src/widgets/lv_btnmatrix.c **** 
 3630              		.loc 1 436 9 is_stmt 1 view .LVU1175
 436:Middlewares/lvgl/src/widgets/lv_btnmatrix.c **** 
 3631              		.loc 1 436 11 is_stmt 0 view .LVU1176
 3632 012c 0428     		cmp	r0, #4
 3633 012e 3FF470AF 		beq	.L182
 436:Middlewares/lvgl/src/widgets/lv_btnmatrix.c **** 
 3634              		.loc 1 436 48 discriminator 2 view .LVU1177
 3635 0132 0228     		cmp	r0, #2
 3636 0134 3FF46DAF 		beq	.L182
 438:Middlewares/lvgl/src/widgets/lv_btnmatrix.c ****         btn_pr = get_button_from_point(obj, &p);
 3637              		.loc 1 438 9 is_stmt 1 view .LVU1178
 3638 0138 01A9     		add	r1, sp, #4
 3639 013a 2046     		mov	r0, r4
 3640              	.LVL358:
 438:Middlewares/lvgl/src/widgets/lv_btnmatrix.c ****         btn_pr = get_button_from_point(obj, &p);
 3641              		.loc 1 438 9 is_stmt 0 view .LVU1179
 3642 013c FFF7FEFF 		bl	lv_indev_get_point
 3643              	.LVL359:
 439:Middlewares/lvgl/src/widgets/lv_btnmatrix.c ****         /*Invalidate to old and the new areas*/
 3644              		.loc 1 439 9 is_stmt 1 view .LVU1180
 439:Middlewares/lvgl/src/widgets/lv_btnmatrix.c ****         /*Invalidate to old and the new areas*/
 3645              		.loc 1 439 18 is_stmt 0 view .LVU1181
 3646 0140 01A9     		add	r1, sp, #4
 3647 0142 3046     		mov	r0, r6
 3648 0144 FFF7FEFF 		bl	get_button_from_point
 3649              	.LVL360:
 3650 0148 0446     		mov	r4, r0
 3651              	.LVL361:
 441:Middlewares/lvgl/src/widgets/lv_btnmatrix.c ****             if(btnm->btn_id_sel != LV_BTNMATRIX_BTN_NONE) {
 3652              		.loc 1 441 9 is_stmt 1 view .LVU1182
 441:Middlewares/lvgl/src/widgets/lv_btnmatrix.c ****             if(btnm->btn_id_sel != LV_BTNMATRIX_BTN_NONE) {
 3653              		.loc 1 441 26 is_stmt 0 view .LVU1183
 3654 014a 718E     		ldrh	r1, [r6, #50]
 441:Middlewares/lvgl/src/widgets/lv_btnmatrix.c ****             if(btnm->btn_id_sel != LV_BTNMATRIX_BTN_NONE) {
 3655              		.loc 1 441 11 view .LVU1184
 3656 014c 8142     		cmp	r1, r0
 3657 014e 3FF460AF 		beq	.L182
 442:Middlewares/lvgl/src/widgets/lv_btnmatrix.c ****                 invalidate_button_area(obj, btnm->btn_id_sel);
 3658              		.loc 1 442 13 is_stmt 1 view .LVU1185
 442:Middlewares/lvgl/src/widgets/lv_btnmatrix.c ****                 invalidate_button_area(obj, btnm->btn_id_sel);
 3659              		.loc 1 442 15 is_stmt 0 view .LVU1186
 3660 0152 4FF6FF73 		movw	r3, #65535
 3661 0156 9942     		cmp	r1, r3
 3662 0158 2AD1     		bne	.L263
 3663              	.LVL362:
 3664              	.L192:
 446:Middlewares/lvgl/src/widgets/lv_btnmatrix.c **** 
 3665              		.loc 1 446 13 is_stmt 1 view .LVU1187
 446:Middlewares/lvgl/src/widgets/lv_btnmatrix.c **** 
 3666              		.loc 1 446 30 is_stmt 0 view .LVU1188
 3667 015a 7486     		strh	r4, [r6, #50]	@ movhi
 448:Middlewares/lvgl/src/widgets/lv_btnmatrix.c ****             if(btn_pr != LV_BTNMATRIX_BTN_NONE &&
 3668              		.loc 1 448 13 is_stmt 1 view .LVU1189
 3669 015c 2846     		mov	r0, r5
 3670 015e FFF7FEFF 		bl	lv_indev_reset_long_press
ARM GAS  /tmp/ccnMQJLR.s 			page 104


 3671              	.LVL363:
 449:Middlewares/lvgl/src/widgets/lv_btnmatrix.c ****                button_is_inactive(btnm->ctrl_bits[btn_pr]) == false &&
 3672              		.loc 1 449 13 view .LVU1190
 449:Middlewares/lvgl/src/widgets/lv_btnmatrix.c ****                button_is_inactive(btnm->ctrl_bits[btn_pr]) == false &&
 3673              		.loc 1 449 15 is_stmt 0 view .LVU1191
 3674 0162 4FF6FF73 		movw	r3, #65535
 3675 0166 9C42     		cmp	r4, r3
 3676 0168 3FF453AF 		beq	.L182
 450:Middlewares/lvgl/src/widgets/lv_btnmatrix.c ****                button_is_hidden(btnm->ctrl_bits[btn_pr]) == false) {
 3677              		.loc 1 450 39 discriminator 1 view .LVU1192
 3678 016c F36A     		ldr	r3, [r6, #44]
 450:Middlewares/lvgl/src/widgets/lv_btnmatrix.c ****                button_is_hidden(btnm->ctrl_bits[btn_pr]) == false) {
 3679              		.loc 1 450 16 discriminator 1 view .LVU1193
 3680 016e 33F81450 		ldrh	r5, [r3, r4, lsl #1]
 3681              	.LVL364:
 450:Middlewares/lvgl/src/widgets/lv_btnmatrix.c ****                button_is_hidden(btnm->ctrl_bits[btn_pr]) == false) {
 3682              		.loc 1 450 16 discriminator 1 view .LVU1194
 3683 0172 2846     		mov	r0, r5
 3684 0174 FFF7FEFF 		bl	button_is_inactive
 3685              	.LVL365:
 449:Middlewares/lvgl/src/widgets/lv_btnmatrix.c ****                button_is_inactive(btnm->ctrl_bits[btn_pr]) == false &&
 3686              		.loc 1 449 48 discriminator 1 view .LVU1195
 3687 0178 0028     		cmp	r0, #0
 3688 017a 7FF44AAF 		bne	.L182
 451:Middlewares/lvgl/src/widgets/lv_btnmatrix.c ****                 invalidate_button_area(obj, btn_pr);
 3689              		.loc 1 451 16 view .LVU1196
 3690 017e 2846     		mov	r0, r5
 3691 0180 FFF7FEFF 		bl	button_is_hidden
 3692              	.LVL366:
 450:Middlewares/lvgl/src/widgets/lv_btnmatrix.c ****                button_is_hidden(btnm->ctrl_bits[btn_pr]) == false) {
 3693              		.loc 1 450 69 view .LVU1197
 3694 0184 0028     		cmp	r0, #0
 3695 0186 7FF444AF 		bne	.L182
 452:Middlewares/lvgl/src/widgets/lv_btnmatrix.c ****                 /*Send VALUE_CHANGED for the newly pressed button*/
 3696              		.loc 1 452 17 is_stmt 1 view .LVU1198
 3697 018a 2146     		mov	r1, r4
 3698 018c 3046     		mov	r0, r6
 3699 018e FFF7FEFF 		bl	invalidate_button_area
 3700              	.LVL367:
 454:Middlewares/lvgl/src/widgets/lv_btnmatrix.c ****                     uint32_t b = btn_pr;
 3701              		.loc 1 454 17 view .LVU1199
 454:Middlewares/lvgl/src/widgets/lv_btnmatrix.c ****                     uint32_t b = btn_pr;
 3702              		.loc 1 454 45 is_stmt 0 view .LVU1200
 3703 0192 F36A     		ldr	r3, [r6, #44]
 454:Middlewares/lvgl/src/widgets/lv_btnmatrix.c ****                     uint32_t b = btn_pr;
 3704              		.loc 1 454 20 view .LVU1201
 3705 0194 33F81400 		ldrh	r0, [r3, r4, lsl #1]
 3706 0198 FFF7FEFF 		bl	button_is_click_trig
 3707              	.LVL368:
 454:Middlewares/lvgl/src/widgets/lv_btnmatrix.c ****                     uint32_t b = btn_pr;
 3708              		.loc 1 454 19 view .LVU1202
 3709 019c 0028     		cmp	r0, #0
 3710 019e 7FF438AF 		bne	.L182
 3711              	.LBB132:
 455:Middlewares/lvgl/src/widgets/lv_btnmatrix.c ****                     res = lv_event_send(obj, LV_EVENT_VALUE_CHANGED, &b);
 3712              		.loc 1 455 21 is_stmt 1 view .LVU1203
 455:Middlewares/lvgl/src/widgets/lv_btnmatrix.c ****                     res = lv_event_send(obj, LV_EVENT_VALUE_CHANGED, &b);
ARM GAS  /tmp/ccnMQJLR.s 			page 105


 3713              		.loc 1 455 30 is_stmt 0 view .LVU1204
 3714 01a2 0094     		str	r4, [sp]
 456:Middlewares/lvgl/src/widgets/lv_btnmatrix.c ****                     if(res != LV_RES_OK) return;
 3715              		.loc 1 456 21 is_stmt 1 view .LVU1205
 456:Middlewares/lvgl/src/widgets/lv_btnmatrix.c ****                     if(res != LV_RES_OK) return;
 3716              		.loc 1 456 27 is_stmt 0 view .LVU1206
 3717 01a4 6A46     		mov	r2, sp
 3718 01a6 1C21     		movs	r1, #28
 3719 01a8 3046     		mov	r0, r6
 3720 01aa FFF7FEFF 		bl	lv_event_send
 3721              	.LVL369:
 457:Middlewares/lvgl/src/widgets/lv_btnmatrix.c ****                 }
 3722              		.loc 1 457 21 is_stmt 1 view .LVU1207
 3723 01ae 30E7     		b	.L182
 3724              	.LVL370:
 3725              	.L263:
 457:Middlewares/lvgl/src/widgets/lv_btnmatrix.c ****                 }
 3726              		.loc 1 457 21 is_stmt 0 view .LVU1208
 3727              	.LBE132:
 443:Middlewares/lvgl/src/widgets/lv_btnmatrix.c ****             }
 3728              		.loc 1 443 17 is_stmt 1 view .LVU1209
 3729 01b0 3046     		mov	r0, r6
 3730              	.LVL371:
 443:Middlewares/lvgl/src/widgets/lv_btnmatrix.c ****             }
 3731              		.loc 1 443 17 is_stmt 0 view .LVU1210
 3732 01b2 FFF7FEFF 		bl	invalidate_button_area
 3733              	.LVL372:
 3734 01b6 D0E7     		b	.L192
 3735              	.LVL373:
 3736              	.L257:
 443:Middlewares/lvgl/src/widgets/lv_btnmatrix.c ****             }
 3737              		.loc 1 443 17 view .LVU1211
 3738              	.LBE131:
 3739              	.LBB133:
 463:Middlewares/lvgl/src/widgets/lv_btnmatrix.c ****             /*Toggle the button if enabled*/
 3740              		.loc 1 463 9 is_stmt 1 view .LVU1212
 463:Middlewares/lvgl/src/widgets/lv_btnmatrix.c ****             /*Toggle the button if enabled*/
 3741              		.loc 1 463 16 is_stmt 0 view .LVU1213
 3742 01b8 448E     		ldrh	r4, [r0, #50]
 3743              	.LVL374:
 463:Middlewares/lvgl/src/widgets/lv_btnmatrix.c ****             /*Toggle the button if enabled*/
 3744              		.loc 1 463 11 view .LVU1214
 3745 01ba 4FF6FF73 		movw	r3, #65535
 3746 01be 9C42     		cmp	r4, r3
 3747 01c0 31D0     		beq	.L195
 465:Middlewares/lvgl/src/widgets/lv_btnmatrix.c ****                !button_is_inactive(btnm->ctrl_bits[btnm->btn_id_sel])) {
 3748              		.loc 1 465 13 is_stmt 1 view .LVU1215
 465:Middlewares/lvgl/src/widgets/lv_btnmatrix.c ****                !button_is_inactive(btnm->ctrl_bits[btnm->btn_id_sel])) {
 3749              		.loc 1 465 40 is_stmt 0 view .LVU1216
 3750 01c2 C76A     		ldr	r7, [r0, #44]
 465:Middlewares/lvgl/src/widgets/lv_btnmatrix.c ****                !button_is_inactive(btnm->ctrl_bits[btnm->btn_id_sel])) {
 3751              		.loc 1 465 16 view .LVU1217
 3752 01c4 37F81450 		ldrh	r5, [r7, r4, lsl #1]
 3753              	.LVL375:
 465:Middlewares/lvgl/src/widgets/lv_btnmatrix.c ****                !button_is_inactive(btnm->ctrl_bits[btnm->btn_id_sel])) {
 3754              		.loc 1 465 16 view .LVU1218
 3755 01c8 2846     		mov	r0, r5
ARM GAS  /tmp/ccnMQJLR.s 			page 106


 3756              	.LVL376:
 465:Middlewares/lvgl/src/widgets/lv_btnmatrix.c ****                !button_is_inactive(btnm->ctrl_bits[btnm->btn_id_sel])) {
 3757              		.loc 1 465 16 view .LVU1219
 3758 01ca FFF7FEFF 		bl	button_is_checkable
 3759              	.LVL377:
 465:Middlewares/lvgl/src/widgets/lv_btnmatrix.c ****                !button_is_inactive(btnm->ctrl_bits[btnm->btn_id_sel])) {
 3760              		.loc 1 465 15 view .LVU1220
 3761 01ce D0B1     		cbz	r0, .L196
 466:Middlewares/lvgl/src/widgets/lv_btnmatrix.c ****                 if(button_get_checked(btnm->ctrl_bits[btnm->btn_id_sel]) && !btnm->one_check) {
 3762              		.loc 1 466 17 discriminator 1 view .LVU1221
 3763 01d0 2846     		mov	r0, r5
 3764 01d2 FFF7FEFF 		bl	button_is_inactive
 3765              	.LVL378:
 465:Middlewares/lvgl/src/widgets/lv_btnmatrix.c ****                !button_is_inactive(btnm->ctrl_bits[btnm->btn_id_sel])) {
 3766              		.loc 1 465 71 discriminator 1 view .LVU1222
 3767 01d6 B0B9     		cbnz	r0, .L196
 467:Middlewares/lvgl/src/widgets/lv_btnmatrix.c ****                     btnm->ctrl_bits[btnm->btn_id_sel] &= (~LV_BTNMATRIX_CTRL_CHECKED);
 3768              		.loc 1 467 17 is_stmt 1 view .LVU1223
 467:Middlewares/lvgl/src/widgets/lv_btnmatrix.c ****                     btnm->ctrl_bits[btnm->btn_id_sel] &= (~LV_BTNMATRIX_CTRL_CHECKED);
 3769              		.loc 1 467 20 is_stmt 0 view .LVU1224
 3770 01d8 2846     		mov	r0, r5
 3771 01da FFF7FEFF 		bl	button_get_checked
 3772              	.LVL379:
 467:Middlewares/lvgl/src/widgets/lv_btnmatrix.c ****                     btnm->ctrl_bits[btnm->btn_id_sel] &= (~LV_BTNMATRIX_CTRL_CHECKED);
 3773              		.loc 1 467 19 view .LVU1225
 3774 01de 48B1     		cbz	r0, .L197
 467:Middlewares/lvgl/src/widgets/lv_btnmatrix.c ****                     btnm->ctrl_bits[btnm->btn_id_sel] &= (~LV_BTNMATRIX_CTRL_CHECKED);
 3775              		.loc 1 467 77 discriminator 1 view .LVU1226
 3776 01e0 96F83430 		ldrb	r3, [r6, #52]	@ zero_extendqisi2
 467:Middlewares/lvgl/src/widgets/lv_btnmatrix.c ****                     btnm->ctrl_bits[btnm->btn_id_sel] &= (~LV_BTNMATRIX_CTRL_CHECKED);
 3777              		.loc 1 467 74 discriminator 1 view .LVU1227
 3778 01e4 13F0010F 		tst	r3, #1
 3779 01e8 04D1     		bne	.L197
 468:Middlewares/lvgl/src/widgets/lv_btnmatrix.c ****                 }
 3780              		.loc 1 468 21 is_stmt 1 view .LVU1228
 468:Middlewares/lvgl/src/widgets/lv_btnmatrix.c ****                 }
 3781              		.loc 1 468 55 is_stmt 0 view .LVU1229
 3782 01ea 25F08005 		bic	r5, r5, #128
 3783 01ee 27F81450 		strh	r5, [r7, r4, lsl #1]	@ movhi
 3784 01f2 03E0     		b	.L198
 3785              	.L197:
 471:Middlewares/lvgl/src/widgets/lv_btnmatrix.c ****                 }
 3786              		.loc 1 471 21 is_stmt 1 view .LVU1230
 471:Middlewares/lvgl/src/widgets/lv_btnmatrix.c ****                 }
 3787              		.loc 1 471 55 is_stmt 0 view .LVU1231
 3788 01f4 45F08005 		orr	r5, r5, #128
 3789 01f8 27F81450 		strh	r5, [r7, r4, lsl #1]	@ movhi
 3790              	.L198:
 473:Middlewares/lvgl/src/widgets/lv_btnmatrix.c ****             }
 3791              		.loc 1 473 17 is_stmt 1 view .LVU1232
 473:Middlewares/lvgl/src/widgets/lv_btnmatrix.c ****             }
 3792              		.loc 1 473 20 is_stmt 0 view .LVU1233
 3793 01fc 96F83430 		ldrb	r3, [r6, #52]	@ zero_extendqisi2
 473:Middlewares/lvgl/src/widgets/lv_btnmatrix.c ****             }
 3794              		.loc 1 473 19 view .LVU1234
 3795 0200 13F0010F 		tst	r3, #1
 3796 0204 20D1     		bne	.L264
ARM GAS  /tmp/ccnMQJLR.s 			page 107


 3797              	.L196:
 477:Middlewares/lvgl/src/widgets/lv_btnmatrix.c ****                button_is_inactive(btnm->ctrl_bits[btnm->btn_id_sel]) == false &&
 3798              		.loc 1 477 13 is_stmt 1 view .LVU1235
 477:Middlewares/lvgl/src/widgets/lv_btnmatrix.c ****                button_is_inactive(btnm->ctrl_bits[btnm->btn_id_sel]) == false &&
 3799              		.loc 1 477 41 is_stmt 0 view .LVU1236
 3800 0206 F36A     		ldr	r3, [r6, #44]
 477:Middlewares/lvgl/src/widgets/lv_btnmatrix.c ****                button_is_inactive(btnm->ctrl_bits[btnm->btn_id_sel]) == false &&
 3801              		.loc 1 477 57 view .LVU1237
 3802 0208 758E     		ldrh	r5, [r6, #50]
 477:Middlewares/lvgl/src/widgets/lv_btnmatrix.c ****                button_is_inactive(btnm->ctrl_bits[btnm->btn_id_sel]) == false &&
 3803              		.loc 1 477 16 view .LVU1238
 3804 020a 33F81540 		ldrh	r4, [r3, r5, lsl #1]
 3805 020e 2046     		mov	r0, r4
 3806 0210 FFF7FEFF 		bl	button_is_click_trig
 3807              	.LVL380:
 477:Middlewares/lvgl/src/widgets/lv_btnmatrix.c ****                button_is_inactive(btnm->ctrl_bits[btnm->btn_id_sel]) == false &&
 3808              		.loc 1 477 15 view .LVU1239
 3809 0214 38B1     		cbz	r0, .L195
 478:Middlewares/lvgl/src/widgets/lv_btnmatrix.c ****                button_is_hidden(btnm->ctrl_bits[btnm->btn_id_sel]) == false) {
 3810              		.loc 1 478 16 discriminator 1 view .LVU1240
 3811 0216 2046     		mov	r0, r4
 3812 0218 FFF7FEFF 		bl	button_is_inactive
 3813              	.LVL381:
 477:Middlewares/lvgl/src/widgets/lv_btnmatrix.c ****                button_is_inactive(btnm->ctrl_bits[btnm->btn_id_sel]) == false &&
 3814              		.loc 1 477 80 discriminator 1 view .LVU1241
 3815 021c 18B9     		cbnz	r0, .L195
 479:Middlewares/lvgl/src/widgets/lv_btnmatrix.c ****                 uint32_t b = btnm->btn_id_sel;
 3816              		.loc 1 479 16 view .LVU1242
 3817 021e 2046     		mov	r0, r4
 3818 0220 FFF7FEFF 		bl	button_is_hidden
 3819              	.LVL382:
 478:Middlewares/lvgl/src/widgets/lv_btnmatrix.c ****                button_is_hidden(btnm->ctrl_bits[btnm->btn_id_sel]) == false) {
 3820              		.loc 1 478 79 view .LVU1243
 3821 0224 A8B1     		cbz	r0, .L265
 3822              	.L195:
 486:Middlewares/lvgl/src/widgets/lv_btnmatrix.c ****         invalidate_button_area(obj, btnm->btn_id_sel);
 3823              		.loc 1 486 43 is_stmt 1 view .LVU1244
 487:Middlewares/lvgl/src/widgets/lv_btnmatrix.c **** 
 3824              		.loc 1 487 9 view .LVU1245
 3825 0226 718E     		ldrh	r1, [r6, #50]
 3826 0228 3046     		mov	r0, r6
 3827 022a FFF7FEFF 		bl	invalidate_button_area
 3828              	.LVL383:
 489:Middlewares/lvgl/src/widgets/lv_btnmatrix.c ****         if(indev_type == LV_INDEV_TYPE_POINTER || indev_type == LV_INDEV_TYPE_BUTTON) {
 3829              		.loc 1 489 9 view .LVU1246
 489:Middlewares/lvgl/src/widgets/lv_btnmatrix.c ****         if(indev_type == LV_INDEV_TYPE_POINTER || indev_type == LV_INDEV_TYPE_BUTTON) {
 3830              		.loc 1 489 56 is_stmt 0 view .LVU1247
 3831 022e FFF7FEFF 		bl	lv_indev_get_act
 3832              	.LVL384:
 489:Middlewares/lvgl/src/widgets/lv_btnmatrix.c ****         if(indev_type == LV_INDEV_TYPE_POINTER || indev_type == LV_INDEV_TYPE_BUTTON) {
 3833              		.loc 1 489 38 view .LVU1248
 3834 0232 FFF7FEFF 		bl	lv_indev_get_type
 3835              	.LVL385:
 490:Middlewares/lvgl/src/widgets/lv_btnmatrix.c ****             btnm->btn_id_sel = LV_BTNMATRIX_BTN_NONE;
 3836              		.loc 1 490 9 is_stmt 1 view .LVU1249
 490:Middlewares/lvgl/src/widgets/lv_btnmatrix.c ****             btnm->btn_id_sel = LV_BTNMATRIX_BTN_NONE;
 3837              		.loc 1 490 11 is_stmt 0 view .LVU1250
ARM GAS  /tmp/ccnMQJLR.s 			page 108


 3838 0236 0128     		cmp	r0, #1
 3839 0238 02D0     		beq	.L200
 490:Middlewares/lvgl/src/widgets/lv_btnmatrix.c ****             btnm->btn_id_sel = LV_BTNMATRIX_BTN_NONE;
 3840              		.loc 1 490 48 discriminator 1 view .LVU1251
 3841 023a 0328     		cmp	r0, #3
 3842 023c 7FF4E9AE 		bne	.L182
 3843              	.L200:
 491:Middlewares/lvgl/src/widgets/lv_btnmatrix.c ****         }
 3844              		.loc 1 491 13 is_stmt 1 view .LVU1252
 491:Middlewares/lvgl/src/widgets/lv_btnmatrix.c ****         }
 3845              		.loc 1 491 30 is_stmt 0 view .LVU1253
 3846 0240 4FF6FF73 		movw	r3, #65535
 3847 0244 7386     		strh	r3, [r6, #50]	@ movhi
 3848 0246 E4E6     		b	.L182
 3849              	.LVL386:
 3850              	.L264:
 473:Middlewares/lvgl/src/widgets/lv_btnmatrix.c ****             }
 3851              		.loc 1 473 37 is_stmt 1 discriminator 1 view .LVU1254
 3852 0248 718E     		ldrh	r1, [r6, #50]
 3853 024a 3046     		mov	r0, r6
 3854 024c FFF7FEFF 		bl	make_one_button_checked
 3855              	.LVL387:
 3856 0250 D9E7     		b	.L196
 3857              	.L265:
 3858              	.LBB134:
 480:Middlewares/lvgl/src/widgets/lv_btnmatrix.c ****                 res        = lv_event_send(obj, LV_EVENT_VALUE_CHANGED, &b);
 3859              		.loc 1 480 17 view .LVU1255
 480:Middlewares/lvgl/src/widgets/lv_btnmatrix.c ****                 res        = lv_event_send(obj, LV_EVENT_VALUE_CHANGED, &b);
 3860              		.loc 1 480 26 is_stmt 0 view .LVU1256
 3861 0252 0095     		str	r5, [sp]
 481:Middlewares/lvgl/src/widgets/lv_btnmatrix.c ****                 if(res != LV_RES_OK) return;
 3862              		.loc 1 481 17 is_stmt 1 view .LVU1257
 481:Middlewares/lvgl/src/widgets/lv_btnmatrix.c ****                 if(res != LV_RES_OK) return;
 3863              		.loc 1 481 30 is_stmt 0 view .LVU1258
 3864 0254 6A46     		mov	r2, sp
 3865 0256 1C21     		movs	r1, #28
 3866 0258 3046     		mov	r0, r6
 3867 025a FFF7FEFF 		bl	lv_event_send
 3868              	.LVL388:
 482:Middlewares/lvgl/src/widgets/lv_btnmatrix.c ****             }
 3869              		.loc 1 482 17 is_stmt 1 view .LVU1259
 482:Middlewares/lvgl/src/widgets/lv_btnmatrix.c ****             }
 3870              		.loc 1 482 19 is_stmt 0 view .LVU1260
 3871 025e 0128     		cmp	r0, #1
 3872 0260 7FF4D7AE 		bne	.L182
 3873 0264 DFE7     		b	.L195
 3874              	.LVL389:
 3875              	.L258:
 482:Middlewares/lvgl/src/widgets/lv_btnmatrix.c ****             }
 3876              		.loc 1 482 19 view .LVU1261
 3877              	.LBE134:
 3878              	.LBE133:
 495:Middlewares/lvgl/src/widgets/lv_btnmatrix.c ****             if(button_is_repeat_disabled(btnm->ctrl_bits[btnm->btn_id_sel]) == false &&
 3879              		.loc 1 495 9 is_stmt 1 view .LVU1262
 495:Middlewares/lvgl/src/widgets/lv_btnmatrix.c ****             if(button_is_repeat_disabled(btnm->ctrl_bits[btnm->btn_id_sel]) == false &&
 3880              		.loc 1 495 16 is_stmt 0 view .LVU1263
 3881 0266 448E     		ldrh	r4, [r0, #50]
ARM GAS  /tmp/ccnMQJLR.s 			page 109


 3882              	.LVL390:
 495:Middlewares/lvgl/src/widgets/lv_btnmatrix.c ****             if(button_is_repeat_disabled(btnm->ctrl_bits[btnm->btn_id_sel]) == false &&
 3883              		.loc 1 495 11 view .LVU1264
 3884 0268 4FF6FF73 		movw	r3, #65535
 3885 026c 9C42     		cmp	r4, r3
 3886 026e 3FF4D0AE 		beq	.L182
 496:Middlewares/lvgl/src/widgets/lv_btnmatrix.c ****                button_is_inactive(btnm->ctrl_bits[btnm->btn_id_sel]) == false &&
 3887              		.loc 1 496 13 is_stmt 1 view .LVU1265
 496:Middlewares/lvgl/src/widgets/lv_btnmatrix.c ****                button_is_inactive(btnm->ctrl_bits[btnm->btn_id_sel]) == false &&
 3888              		.loc 1 496 46 is_stmt 0 view .LVU1266
 3889 0272 C36A     		ldr	r3, [r0, #44]
 496:Middlewares/lvgl/src/widgets/lv_btnmatrix.c ****                button_is_inactive(btnm->ctrl_bits[btnm->btn_id_sel]) == false &&
 3890              		.loc 1 496 16 view .LVU1267
 3891 0274 33F81450 		ldrh	r5, [r3, r4, lsl #1]
 3892              	.LVL391:
 496:Middlewares/lvgl/src/widgets/lv_btnmatrix.c ****                button_is_inactive(btnm->ctrl_bits[btnm->btn_id_sel]) == false &&
 3893              		.loc 1 496 16 view .LVU1268
 3894 0278 2846     		mov	r0, r5
 3895              	.LVL392:
 496:Middlewares/lvgl/src/widgets/lv_btnmatrix.c ****                button_is_inactive(btnm->ctrl_bits[btnm->btn_id_sel]) == false &&
 3896              		.loc 1 496 16 view .LVU1269
 3897 027a FFF7FEFF 		bl	button_is_repeat_disabled
 3898              	.LVL393:
 496:Middlewares/lvgl/src/widgets/lv_btnmatrix.c ****                button_is_inactive(btnm->ctrl_bits[btnm->btn_id_sel]) == false &&
 3899              		.loc 1 496 15 view .LVU1270
 3900 027e 0028     		cmp	r0, #0
 3901 0280 7FF4C7AE 		bne	.L182
 497:Middlewares/lvgl/src/widgets/lv_btnmatrix.c ****                button_is_hidden(btnm->ctrl_bits[btnm->btn_id_sel]) == false) {
 3902              		.loc 1 497 16 discriminator 1 view .LVU1271
 3903 0284 2846     		mov	r0, r5
 3904 0286 FFF7FEFF 		bl	button_is_inactive
 3905              	.LVL394:
 496:Middlewares/lvgl/src/widgets/lv_btnmatrix.c ****                button_is_inactive(btnm->ctrl_bits[btnm->btn_id_sel]) == false &&
 3906              		.loc 1 496 86 discriminator 1 view .LVU1272
 3907 028a 0028     		cmp	r0, #0
 3908 028c 7FF4C1AE 		bne	.L182
 498:Middlewares/lvgl/src/widgets/lv_btnmatrix.c ****                 uint32_t b = btnm->btn_id_sel;
 3909              		.loc 1 498 16 view .LVU1273
 3910 0290 2846     		mov	r0, r5
 3911 0292 FFF7FEFF 		bl	button_is_hidden
 3912              	.LVL395:
 497:Middlewares/lvgl/src/widgets/lv_btnmatrix.c ****                button_is_hidden(btnm->ctrl_bits[btnm->btn_id_sel]) == false) {
 3913              		.loc 1 497 79 view .LVU1274
 3914 0296 0028     		cmp	r0, #0
 3915 0298 7FF4BBAE 		bne	.L182
 3916              	.LBB135:
 499:Middlewares/lvgl/src/widgets/lv_btnmatrix.c ****                 res        = lv_event_send(obj, LV_EVENT_VALUE_CHANGED, &b);
 3917              		.loc 1 499 17 is_stmt 1 view .LVU1275
 499:Middlewares/lvgl/src/widgets/lv_btnmatrix.c ****                 res        = lv_event_send(obj, LV_EVENT_VALUE_CHANGED, &b);
 3918              		.loc 1 499 26 is_stmt 0 view .LVU1276
 3919 029c 0094     		str	r4, [sp]
 500:Middlewares/lvgl/src/widgets/lv_btnmatrix.c ****                 if(res != LV_RES_OK) return;
 3920              		.loc 1 500 17 is_stmt 1 view .LVU1277
 500:Middlewares/lvgl/src/widgets/lv_btnmatrix.c ****                 if(res != LV_RES_OK) return;
 3921              		.loc 1 500 30 is_stmt 0 view .LVU1278
 3922 029e 6A46     		mov	r2, sp
 3923 02a0 1C21     		movs	r1, #28
ARM GAS  /tmp/ccnMQJLR.s 			page 110


 3924 02a2 3046     		mov	r0, r6
 3925 02a4 FFF7FEFF 		bl	lv_event_send
 3926              	.LVL396:
 501:Middlewares/lvgl/src/widgets/lv_btnmatrix.c ****             }
 3927              		.loc 1 501 17 is_stmt 1 view .LVU1279
 3928 02a8 B3E6     		b	.L182
 3929              	.LVL397:
 3930              	.L259:
 501:Middlewares/lvgl/src/widgets/lv_btnmatrix.c ****             }
 3931              		.loc 1 501 17 is_stmt 0 view .LVU1280
 3932              	.LBE135:
 506:Middlewares/lvgl/src/widgets/lv_btnmatrix.c ****         btnm->btn_id_sel = LV_BTNMATRIX_BTN_NONE;
 3933              		.loc 1 506 9 is_stmt 1 view .LVU1281
 3934 02aa 418E     		ldrh	r1, [r0, #50]
 3935 02ac FFF7FEFF 		bl	invalidate_button_area
 3936              	.LVL398:
 507:Middlewares/lvgl/src/widgets/lv_btnmatrix.c ****     }
 3937              		.loc 1 507 9 view .LVU1282
 507:Middlewares/lvgl/src/widgets/lv_btnmatrix.c ****     }
 3938              		.loc 1 507 26 is_stmt 0 view .LVU1283
 3939 02b0 4FF6FF73 		movw	r3, #65535
 3940 02b4 7386     		strh	r3, [r6, #50]	@ movhi
 3941 02b6 ACE6     		b	.L182
 3942              	.LVL399:
 3943              	.L260:
 3944              	.LBB136:
 510:Middlewares/lvgl/src/widgets/lv_btnmatrix.c ****         lv_indev_type_t indev_type = lv_indev_get_type(indev);
 3945              		.loc 1 510 9 is_stmt 1 view .LVU1284
 510:Middlewares/lvgl/src/widgets/lv_btnmatrix.c ****         lv_indev_type_t indev_type = lv_indev_get_type(indev);
 3946              		.loc 1 510 30 is_stmt 0 view .LVU1285
 3947 02b8 2046     		mov	r0, r4
 3948              	.LVL400:
 510:Middlewares/lvgl/src/widgets/lv_btnmatrix.c ****         lv_indev_type_t indev_type = lv_indev_get_type(indev);
 3949              		.loc 1 510 30 view .LVU1286
 3950 02ba FFF7FEFF 		bl	lv_event_get_param
 3951              	.LVL401:
 3952 02be 0446     		mov	r4, r0
 3953              	.LVL402:
 511:Middlewares/lvgl/src/widgets/lv_btnmatrix.c **** 
 3954              		.loc 1 511 9 is_stmt 1 view .LVU1287
 511:Middlewares/lvgl/src/widgets/lv_btnmatrix.c **** 
 3955              		.loc 1 511 38 is_stmt 0 view .LVU1288
 3956 02c0 FFF7FEFF 		bl	lv_indev_get_type
 3957              	.LVL403:
 511:Middlewares/lvgl/src/widgets/lv_btnmatrix.c **** 
 3958              		.loc 1 511 38 view .LVU1289
 3959 02c4 0546     		mov	r5, r0
 3960              	.LVL404:
 514:Middlewares/lvgl/src/widgets/lv_btnmatrix.c ****             indev = lv_indev_get_next(NULL);
 3961              		.loc 1 514 9 is_stmt 1 view .LVU1290
 514:Middlewares/lvgl/src/widgets/lv_btnmatrix.c ****             indev = lv_indev_get_next(NULL);
 3962              		.loc 1 514 11 is_stmt 0 view .LVU1291
 3963 02c6 ACB1     		cbz	r4, .L266
 3964              	.LVL405:
 3965              	.L205:
 519:Middlewares/lvgl/src/widgets/lv_btnmatrix.c ****         /*Focus the first button if there is not selected button*/
 3966              		.loc 1 519 9 is_stmt 1 view .LVU1292
ARM GAS  /tmp/ccnMQJLR.s 			page 111


 519:Middlewares/lvgl/src/widgets/lv_btnmatrix.c ****         /*Focus the first button if there is not selected button*/
 3967              		.loc 1 519 45 is_stmt 0 view .LVU1293
 3968 02c8 3046     		mov	r0, r6
 3969 02ca FFF7FEFF 		bl	lv_obj_get_group
 3970              	.LVL406:
 519:Middlewares/lvgl/src/widgets/lv_btnmatrix.c ****         /*Focus the first button if there is not selected button*/
 3971              		.loc 1 519 24 view .LVU1294
 3972 02ce FFF7FEFF 		bl	lv_group_get_editing
 3973              	.LVL407:
 521:Middlewares/lvgl/src/widgets/lv_btnmatrix.c ****             if (indev_type == LV_INDEV_TYPE_KEYPAD || (indev_type == LV_INDEV_TYPE_ENCODER && editi
 3974              		.loc 1 521 9 is_stmt 1 view .LVU1295
 521:Middlewares/lvgl/src/widgets/lv_btnmatrix.c ****             if (indev_type == LV_INDEV_TYPE_KEYPAD || (indev_type == LV_INDEV_TYPE_ENCODER && editi
 3975              		.loc 1 521 16 is_stmt 0 view .LVU1296
 3976 02d2 728E     		ldrh	r2, [r6, #50]
 521:Middlewares/lvgl/src/widgets/lv_btnmatrix.c ****             if (indev_type == LV_INDEV_TYPE_KEYPAD || (indev_type == LV_INDEV_TYPE_ENCODER && editi
 3977              		.loc 1 521 11 view .LVU1297
 3978 02d4 4FF6FF73 		movw	r3, #65535
 3979 02d8 9A42     		cmp	r2, r3
 3980 02da 7FF49AAE 		bne	.L182
 522:Middlewares/lvgl/src/widgets/lv_btnmatrix.c ****                 uint32_t b = 0;
 3981              		.loc 1 522 13 is_stmt 1 view .LVU1298
 522:Middlewares/lvgl/src/widgets/lv_btnmatrix.c ****                 uint32_t b = 0;
 3982              		.loc 1 522 16 is_stmt 0 view .LVU1299
 3983 02de 022D     		cmp	r5, #2
 3984 02e0 11D0     		beq	.L206
 522:Middlewares/lvgl/src/widgets/lv_btnmatrix.c ****                 uint32_t b = 0;
 3985              		.loc 1 522 52 discriminator 1 view .LVU1300
 3986 02e2 042D     		cmp	r5, #4
 3987 02e4 0DD0     		beq	.L267
 3988              	.L207:
 532:Middlewares/lvgl/src/widgets/lv_btnmatrix.c ****             }
 3989              		.loc 1 532 17 is_stmt 1 view .LVU1301
 532:Middlewares/lvgl/src/widgets/lv_btnmatrix.c ****             }
 3990              		.loc 1 532 34 is_stmt 0 view .LVU1302
 3991 02e6 4FF6FF73 		movw	r3, #65535
 3992 02ea 7386     		strh	r3, [r6, #50]	@ movhi
 3993 02ec 91E6     		b	.L182
 3994              	.L280:
 3995 02ee 00BF     		.align	2
 3996              	.L279:
 3997 02f0 00000000 		.word	.LANCHOR0
 3998              	.LVL408:
 3999              	.L266:
 515:Middlewares/lvgl/src/widgets/lv_btnmatrix.c ****             indev_type = lv_indev_get_type(indev);
 4000              		.loc 1 515 13 is_stmt 1 view .LVU1303
 515:Middlewares/lvgl/src/widgets/lv_btnmatrix.c ****             indev_type = lv_indev_get_type(indev);
 4001              		.loc 1 515 21 is_stmt 0 view .LVU1304
 4002 02f4 0020     		movs	r0, #0
 4003 02f6 FFF7FEFF 		bl	lv_indev_get_next
 4004              	.LVL409:
 516:Middlewares/lvgl/src/widgets/lv_btnmatrix.c ****         }
 4005              		.loc 1 516 13 is_stmt 1 view .LVU1305
 516:Middlewares/lvgl/src/widgets/lv_btnmatrix.c ****         }
 4006              		.loc 1 516 26 is_stmt 0 view .LVU1306
 4007 02fa FFF7FEFF 		bl	lv_indev_get_type
 4008              	.LVL410:
 516:Middlewares/lvgl/src/widgets/lv_btnmatrix.c ****         }
ARM GAS  /tmp/ccnMQJLR.s 			page 112


 4009              		.loc 1 516 26 view .LVU1307
 4010 02fe 0546     		mov	r5, r0
 4011              	.LVL411:
 516:Middlewares/lvgl/src/widgets/lv_btnmatrix.c ****         }
 4012              		.loc 1 516 26 view .LVU1308
 4013 0300 E2E7     		b	.L205
 4014              	.LVL412:
 4015              	.L267:
 522:Middlewares/lvgl/src/widgets/lv_btnmatrix.c ****                 uint32_t b = 0;
 4016              		.loc 1 522 92 discriminator 2 view .LVU1309
 4017 0302 0028     		cmp	r0, #0
 4018 0304 EFD0     		beq	.L207
 4019              	.L206:
 4020              	.LBB137:
 523:Middlewares/lvgl/src/widgets/lv_btnmatrix.c ****                 if(btnm->one_check) {
 4021              		.loc 1 523 17 is_stmt 1 view .LVU1310
 4022              	.LVL413:
 524:Middlewares/lvgl/src/widgets/lv_btnmatrix.c ****                     while(button_is_hidden(btnm->ctrl_bits[b]) || button_is_inactive(btnm->ctrl_bit
 4023              		.loc 1 524 17 view .LVU1311
 524:Middlewares/lvgl/src/widgets/lv_btnmatrix.c ****                     while(button_is_hidden(btnm->ctrl_bits[b]) || button_is_inactive(btnm->ctrl_bit
 4024              		.loc 1 524 20 is_stmt 0 view .LVU1312
 4025 0306 96F83430 		ldrb	r3, [r6, #52]	@ zero_extendqisi2
 524:Middlewares/lvgl/src/widgets/lv_btnmatrix.c ****                     while(button_is_hidden(btnm->ctrl_bits[b]) || button_is_inactive(btnm->ctrl_bit
 4026              		.loc 1 524 19 view .LVU1313
 4027 030a 13F0010F 		tst	r3, #1
 4028 030e 16D1     		bne	.L250
 523:Middlewares/lvgl/src/widgets/lv_btnmatrix.c ****                 if(btnm->one_check) {
 4029              		.loc 1 523 26 view .LVU1314
 4030 0310 0024     		movs	r4, #0
 4031 0312 17E0     		b	.L209
 4032              	.LVL414:
 4033              	.L210:
 525:Middlewares/lvgl/src/widgets/lv_btnmatrix.c ****                 } else {
 4034              		.loc 1 525 157 is_stmt 1 discriminator 6 view .LVU1315
 525:Middlewares/lvgl/src/widgets/lv_btnmatrix.c ****                 } else {
 4035              		.loc 1 525 158 is_stmt 0 discriminator 6 view .LVU1316
 4036 0314 0134     		adds	r4, r4, #1
 4037              	.LVL415:
 4038              	.L208:
 525:Middlewares/lvgl/src/widgets/lv_btnmatrix.c ****                 } else {
 4039              		.loc 1 525 26 is_stmt 1 discriminator 1 view .LVU1317
 525:Middlewares/lvgl/src/widgets/lv_btnmatrix.c ****                 } else {
 4040              		.loc 1 525 48 is_stmt 0 discriminator 1 view .LVU1318
 4041 0316 F36A     		ldr	r3, [r6, #44]
 525:Middlewares/lvgl/src/widgets/lv_btnmatrix.c ****                 } else {
 4042              		.loc 1 525 27 discriminator 1 view .LVU1319
 4043 0318 33F81450 		ldrh	r5, [r3, r4, lsl #1]
 4044 031c 2846     		mov	r0, r5
 4045 031e FFF7FEFF 		bl	button_is_hidden
 4046              	.LVL416:
 525:Middlewares/lvgl/src/widgets/lv_btnmatrix.c ****                 } else {
 4047              		.loc 1 525 26 discriminator 1 view .LVU1320
 4048 0322 0028     		cmp	r0, #0
 4049 0324 F6D1     		bne	.L210
 525:Middlewares/lvgl/src/widgets/lv_btnmatrix.c ****                 } else {
 4050              		.loc 1 525 67 discriminator 3 view .LVU1321
 4051 0326 2846     		mov	r0, r5
ARM GAS  /tmp/ccnMQJLR.s 			page 113


 4052 0328 FFF7FEFF 		bl	button_is_inactive
 4053              	.LVL417:
 525:Middlewares/lvgl/src/widgets/lv_btnmatrix.c ****                 } else {
 4054              		.loc 1 525 64 discriminator 3 view .LVU1322
 4055 032c 0028     		cmp	r0, #0
 4056 032e F1D1     		bne	.L210
 525:Middlewares/lvgl/src/widgets/lv_btnmatrix.c ****                 } else {
 4057              		.loc 1 525 109 discriminator 5 view .LVU1323
 4058 0330 2846     		mov	r0, r5
 4059 0332 FFF7FEFF 		bl	button_is_checked
 4060              	.LVL418:
 525:Middlewares/lvgl/src/widgets/lv_btnmatrix.c ****                 } else {
 4061              		.loc 1 525 106 discriminator 5 view .LVU1324
 4062 0336 0028     		cmp	r0, #0
 4063 0338 ECD0     		beq	.L210
 4064              	.L211:
 530:Middlewares/lvgl/src/widgets/lv_btnmatrix.c ****             } else {
 4065              		.loc 1 530 17 is_stmt 1 view .LVU1325
 530:Middlewares/lvgl/src/widgets/lv_btnmatrix.c ****             } else {
 4066              		.loc 1 530 34 is_stmt 0 view .LVU1326
 4067 033a 7486     		strh	r4, [r6, #50]	@ movhi
 4068              	.LBE137:
 522:Middlewares/lvgl/src/widgets/lv_btnmatrix.c ****                 uint32_t b = 0;
 4069              		.loc 1 522 105 view .LVU1327
 4070 033c 69E6     		b	.L182
 4071              	.LVL419:
 4072              	.L250:
 4073              	.LBB138:
 523:Middlewares/lvgl/src/widgets/lv_btnmatrix.c ****                 if(btnm->one_check) {
 4074              		.loc 1 523 26 view .LVU1328
 4075 033e 0024     		movs	r4, #0
 4076 0340 E9E7     		b	.L208
 4077              	.LVL420:
 4078              	.L212:
 527:Middlewares/lvgl/src/widgets/lv_btnmatrix.c ****                 }
 4079              		.loc 1 527 107 is_stmt 1 discriminator 4 view .LVU1329
 527:Middlewares/lvgl/src/widgets/lv_btnmatrix.c ****                 }
 4080              		.loc 1 527 108 is_stmt 0 discriminator 4 view .LVU1330
 4081 0342 0134     		adds	r4, r4, #1
 4082              	.LVL421:
 4083              	.L209:
 527:Middlewares/lvgl/src/widgets/lv_btnmatrix.c ****                 }
 4084              		.loc 1 527 26 is_stmt 1 discriminator 1 view .LVU1331
 527:Middlewares/lvgl/src/widgets/lv_btnmatrix.c ****                 }
 4085              		.loc 1 527 48 is_stmt 0 discriminator 1 view .LVU1332
 4086 0344 F36A     		ldr	r3, [r6, #44]
 527:Middlewares/lvgl/src/widgets/lv_btnmatrix.c ****                 }
 4087              		.loc 1 527 27 discriminator 1 view .LVU1333
 4088 0346 33F81450 		ldrh	r5, [r3, r4, lsl #1]
 4089 034a 2846     		mov	r0, r5
 4090 034c FFF7FEFF 		bl	button_is_hidden
 4091              	.LVL422:
 527:Middlewares/lvgl/src/widgets/lv_btnmatrix.c ****                 }
 4092              		.loc 1 527 26 discriminator 1 view .LVU1334
 4093 0350 0028     		cmp	r0, #0
 4094 0352 F6D1     		bne	.L212
 527:Middlewares/lvgl/src/widgets/lv_btnmatrix.c ****                 }
ARM GAS  /tmp/ccnMQJLR.s 			page 114


 4095              		.loc 1 527 67 discriminator 3 view .LVU1335
 4096 0354 2846     		mov	r0, r5
 4097 0356 FFF7FEFF 		bl	button_is_inactive
 4098              	.LVL423:
 527:Middlewares/lvgl/src/widgets/lv_btnmatrix.c ****                 }
 4099              		.loc 1 527 64 discriminator 3 view .LVU1336
 4100 035a 0028     		cmp	r0, #0
 4101 035c F1D1     		bne	.L212
 4102 035e ECE7     		b	.L211
 4103              	.LVL424:
 4104              	.L261:
 527:Middlewares/lvgl/src/widgets/lv_btnmatrix.c ****                 }
 4105              		.loc 1 527 64 discriminator 3 view .LVU1337
 4106              	.LBE138:
 4107              	.LBE136:
 537:Middlewares/lvgl/src/widgets/lv_btnmatrix.c ****         btnm->btn_id_sel = LV_BTNMATRIX_BTN_NONE;
 4108              		.loc 1 537 9 is_stmt 1 view .LVU1338
 537:Middlewares/lvgl/src/widgets/lv_btnmatrix.c ****         btnm->btn_id_sel = LV_BTNMATRIX_BTN_NONE;
 4109              		.loc 1 537 16 is_stmt 0 view .LVU1339
 4110 0360 418E     		ldrh	r1, [r0, #50]
 537:Middlewares/lvgl/src/widgets/lv_btnmatrix.c ****         btnm->btn_id_sel = LV_BTNMATRIX_BTN_NONE;
 4111              		.loc 1 537 11 view .LVU1340
 4112 0362 4FF6FF73 		movw	r3, #65535
 4113 0366 9942     		cmp	r1, r3
 4114 0368 03D1     		bne	.L268
 4115              	.LVL425:
 4116              	.L214:
 538:Middlewares/lvgl/src/widgets/lv_btnmatrix.c ****     }
 4117              		.loc 1 538 9 is_stmt 1 view .LVU1341
 538:Middlewares/lvgl/src/widgets/lv_btnmatrix.c ****     }
 4118              		.loc 1 538 26 is_stmt 0 view .LVU1342
 4119 036a 4FF6FF73 		movw	r3, #65535
 4120 036e 7386     		strh	r3, [r6, #50]	@ movhi
 4121 0370 4FE6     		b	.L182
 4122              	.LVL426:
 4123              	.L268:
 537:Middlewares/lvgl/src/widgets/lv_btnmatrix.c ****         btnm->btn_id_sel = LV_BTNMATRIX_BTN_NONE;
 4124              		.loc 1 537 55 is_stmt 1 discriminator 1 view .LVU1343
 4125 0372 FFF7FEFF 		bl	invalidate_button_area
 4126              	.LVL427:
 537:Middlewares/lvgl/src/widgets/lv_btnmatrix.c ****         btnm->btn_id_sel = LV_BTNMATRIX_BTN_NONE;
 4127              		.loc 1 537 55 is_stmt 0 discriminator 1 view .LVU1344
 4128 0376 F8E7     		b	.L214
 4129              	.LVL428:
 4130              	.L262:
 4131              	.LBB139:
 542:Middlewares/lvgl/src/widgets/lv_btnmatrix.c **** 
 4132              		.loc 1 542 9 is_stmt 1 view .LVU1345
 4133 0378 418E     		ldrh	r1, [r0, #50]
 4134 037a FFF7FEFF 		bl	invalidate_button_area
 4135              	.LVL429:
 544:Middlewares/lvgl/src/widgets/lv_btnmatrix.c ****         if(c == LV_KEY_RIGHT) {
 4136              		.loc 1 544 9 view .LVU1346
 544:Middlewares/lvgl/src/widgets/lv_btnmatrix.c ****         if(c == LV_KEY_RIGHT) {
 4137              		.loc 1 544 28 is_stmt 0 view .LVU1347
 4138 037e 2046     		mov	r0, r4
 4139 0380 FFF7FEFF 		bl	lv_event_get_param
ARM GAS  /tmp/ccnMQJLR.s 			page 115


 4140              	.LVL430:
 544:Middlewares/lvgl/src/widgets/lv_btnmatrix.c ****         if(c == LV_KEY_RIGHT) {
 4141              		.loc 1 544 14 view .LVU1348
 4142 0384 0378     		ldrb	r3, [r0]	@ zero_extendqisi2
 4143              	.LVL431:
 545:Middlewares/lvgl/src/widgets/lv_btnmatrix.c ****             if(btnm->btn_id_sel == LV_BTNMATRIX_BTN_NONE)  btnm->btn_id_sel = 0;
 4144              		.loc 1 545 9 is_stmt 1 view .LVU1349
 545:Middlewares/lvgl/src/widgets/lv_btnmatrix.c ****             if(btnm->btn_id_sel == LV_BTNMATRIX_BTN_NONE)  btnm->btn_id_sel = 0;
 4145              		.loc 1 545 11 is_stmt 0 view .LVU1350
 4146 0386 132B     		cmp	r3, #19
 4147 0388 23D0     		beq	.L269
 555:Middlewares/lvgl/src/widgets/lv_btnmatrix.c ****             if(btnm->btn_id_sel == LV_BTNMATRIX_BTN_NONE) btnm->btn_id_sel = 0;
 4148              		.loc 1 555 14 is_stmt 1 view .LVU1351
 555:Middlewares/lvgl/src/widgets/lv_btnmatrix.c ****             if(btnm->btn_id_sel == LV_BTNMATRIX_BTN_NONE) btnm->btn_id_sel = 0;
 4149              		.loc 1 555 16 is_stmt 0 view .LVU1352
 4150 038a 142B     		cmp	r3, #20
 4151 038c 4DD0     		beq	.L270
 566:Middlewares/lvgl/src/widgets/lv_btnmatrix.c ****             lv_coord_t col_gap = lv_obj_get_style_pad_column(obj, LV_PART_MAIN);
 4152              		.loc 1 566 14 is_stmt 1 view .LVU1353
 566:Middlewares/lvgl/src/widgets/lv_btnmatrix.c ****             lv_coord_t col_gap = lv_obj_get_style_pad_column(obj, LV_PART_MAIN);
 4153              		.loc 1 566 16 is_stmt 0 view .LVU1354
 4154 038e 122B     		cmp	r3, #18
 4155 0390 72D0     		beq	.L271
 594:Middlewares/lvgl/src/widgets/lv_btnmatrix.c ****             lv_coord_t col_gap = lv_obj_get_style_pad_column(obj, LV_PART_MAIN);
 4156              		.loc 1 594 14 is_stmt 1 view .LVU1355
 594:Middlewares/lvgl/src/widgets/lv_btnmatrix.c ****             lv_coord_t col_gap = lv_obj_get_style_pad_column(obj, LV_PART_MAIN);
 4157              		.loc 1 594 16 is_stmt 0 view .LVU1356
 4158 0392 112B     		cmp	r3, #17
 4159 0394 41D1     		bne	.L223
 4160              	.LBB140:
 595:Middlewares/lvgl/src/widgets/lv_btnmatrix.c ****             /*Find the area below the the current*/
 4161              		.loc 1 595 13 is_stmt 1 view .LVU1357
 4162              	.LVL432:
 4163              	.LBB141:
 4164              	.LBI141:
 121:Middlewares/lvgl/src/widgets/../core/lv_obj_style_gen.h **** {
 4165              		.loc 2 121 26 view .LVU1358
 4166              	.LBB142:
 123:Middlewares/lvgl/src/widgets/../core/lv_obj_style_gen.h ****     return (lv_coord_t)v.num;
 4167              		.loc 2 123 5 view .LVU1359
 123:Middlewares/lvgl/src/widgets/../core/lv_obj_style_gen.h ****     return (lv_coord_t)v.num;
 4168              		.loc 2 123 26 is_stmt 0 view .LVU1360
 4169 0396 41F21502 		movw	r2, #4117
 4170 039a 0021     		movs	r1, #0
 4171 039c 3046     		mov	r0, r6
 4172 039e FFF7FEFF 		bl	lv_obj_get_style_prop
 4173              	.LVL433:
 124:Middlewares/lvgl/src/widgets/../core/lv_obj_style_gen.h **** }
 4174              		.loc 2 124 5 is_stmt 1 view .LVU1361
 124:Middlewares/lvgl/src/widgets/../core/lv_obj_style_gen.h **** }
 4175              		.loc 2 124 12 is_stmt 0 view .LVU1362
 4176 03a2 0FFA80F8 		sxth	r8, r0
 4177              	.LVL434:
 124:Middlewares/lvgl/src/widgets/../core/lv_obj_style_gen.h **** }
 4178              		.loc 2 124 12 view .LVU1363
 4179              	.LBE142:
 4180              	.LBE141:
ARM GAS  /tmp/ccnMQJLR.s 			page 116


 597:Middlewares/lvgl/src/widgets/lv_btnmatrix.c ****                 btnm->btn_id_sel = 0;
 4181              		.loc 1 597 13 is_stmt 1 view .LVU1364
 597:Middlewares/lvgl/src/widgets/lv_btnmatrix.c ****                 btnm->btn_id_sel = 0;
 4182              		.loc 1 597 20 is_stmt 0 view .LVU1365
 4183 03a6 748E     		ldrh	r4, [r6, #50]
 4184              	.LVL435:
 597:Middlewares/lvgl/src/widgets/lv_btnmatrix.c ****                 btnm->btn_id_sel = 0;
 4185              		.loc 1 597 15 view .LVU1366
 4186 03a8 4FF6FF73 		movw	r3, #65535
 4187 03ac 9C42     		cmp	r4, r3
 4188 03ae 00F0C380 		beq	.L272
 4189              	.LBB143:
 605:Middlewares/lvgl/src/widgets/lv_btnmatrix.c ****                 lv_coord_t pr_center =
 4190              		.loc 1 605 17 is_stmt 1 view .LVU1367
 606:Middlewares/lvgl/src/widgets/lv_btnmatrix.c ****                     btnm->button_areas[btnm->btn_id_sel].x1 + (lv_area_get_width(&btnm->button_area
 4191              		.loc 1 606 17 view .LVU1368
 607:Middlewares/lvgl/src/widgets/lv_btnmatrix.c **** 
 4192              		.loc 1 607 25 is_stmt 0 view .LVU1369
 4193 03b2 B56A     		ldr	r5, [r6, #40]
 4194              	.LVL436:
 607:Middlewares/lvgl/src/widgets/lv_btnmatrix.c **** 
 4195              		.loc 1 607 39 view .LVU1370
 4196 03b4 05EBC407 		add	r7, r5, r4, lsl #3
 607:Middlewares/lvgl/src/widgets/lv_btnmatrix.c **** 
 4197              		.loc 1 607 57 view .LVU1371
 4198 03b8 35F83420 		ldrh	r2, [r5, r4, lsl #3]
 4199              	.LVL437:
 4200              	.LBB144:
 4201              	.LBI144:
 133:Middlewares/lvgl/src/widgets/../core/../misc/../font/../misc/lv_area.h **** {
 4202              		.loc 3 133 26 is_stmt 1 view .LVU1372
 4203              	.LBB145:
 135:Middlewares/lvgl/src/widgets/../core/../misc/../font/../misc/lv_area.h **** }
 4204              		.loc 3 135 5 view .LVU1373
 135:Middlewares/lvgl/src/widgets/../core/../misc/../font/../misc/lv_area.h **** }
 4205              		.loc 3 135 31 is_stmt 0 view .LVU1374
 4206 03bc BB88     		ldrh	r3, [r7, #4]
 135:Middlewares/lvgl/src/widgets/../core/../misc/../font/../misc/lv_area.h **** }
 4207              		.loc 3 135 36 view .LVU1375
 4208 03be 9B1A     		subs	r3, r3, r2
 4209 03c0 9BB2     		uxth	r3, r3
 135:Middlewares/lvgl/src/widgets/../core/../misc/../font/../misc/lv_area.h **** }
 4210              		.loc 3 135 49 view .LVU1376
 4211 03c2 0133     		adds	r3, r3, #1
 4212              	.LVL438:
 135:Middlewares/lvgl/src/widgets/../core/../misc/../font/../misc/lv_area.h **** }
 4213              		.loc 3 135 49 view .LVU1377
 4214              	.LBE145:
 4215              	.LBE144:
 607:Middlewares/lvgl/src/widgets/lv_btnmatrix.c **** 
 4216              		.loc 1 607 61 view .LVU1378
 4217 03c4 43F34E03 		sbfx	r3, r3, #1, #15
 4218 03c8 1344     		add	r3, r3, r2
 606:Middlewares/lvgl/src/widgets/lv_btnmatrix.c ****                     btnm->button_areas[btnm->btn_id_sel].x1 + (lv_area_get_width(&btnm->button_area
 4219              		.loc 1 606 28 view .LVU1379
 4220 03ca 0FFA83F9 		sxth	r9, r3
 4221              	.LVL439:
ARM GAS  /tmp/ccnMQJLR.s 			page 117


 609:Middlewares/lvgl/src/widgets/lv_btnmatrix.c ****                     if(btnm->button_areas[area_above].y1 < btnm->button_areas[btnm->btn_id_sel].y1 
 4222              		.loc 1 609 17 is_stmt 1 view .LVU1380
 609:Middlewares/lvgl/src/widgets/lv_btnmatrix.c ****                     if(btnm->button_areas[area_above].y1 < btnm->button_areas[btnm->btn_id_sel].y1 
 4223              		.loc 1 609 32 is_stmt 0 view .LVU1381
 4224 03ce 24B2     		sxth	r4, r4
 4225              	.LVL440:
 609:Middlewares/lvgl/src/widgets/lv_btnmatrix.c ****                     if(btnm->button_areas[area_above].y1 < btnm->button_areas[btnm->btn_id_sel].y1 
 4226              		.loc 1 609 17 view .LVU1382
 4227 03d0 CFE0     		b	.L245
 4228              	.LVL441:
 4229              	.L269:
 609:Middlewares/lvgl/src/widgets/lv_btnmatrix.c ****                     if(btnm->button_areas[area_above].y1 < btnm->button_areas[btnm->btn_id_sel].y1 
 4230              		.loc 1 609 17 view .LVU1383
 4231              	.LBE143:
 4232              	.LBE140:
 546:Middlewares/lvgl/src/widgets/lv_btnmatrix.c ****             else btnm->btn_id_sel++;
 4233              		.loc 1 546 13 is_stmt 1 view .LVU1384
 546:Middlewares/lvgl/src/widgets/lv_btnmatrix.c ****             else btnm->btn_id_sel++;
 4234              		.loc 1 546 20 is_stmt 0 view .LVU1385
 4235 03d2 738E     		ldrh	r3, [r6, #50]
 4236              	.LVL442:
 546:Middlewares/lvgl/src/widgets/lv_btnmatrix.c ****             else btnm->btn_id_sel++;
 4237              		.loc 1 546 15 view .LVU1386
 4238 03d4 4FF6FF72 		movw	r2, #65535
 4239 03d8 9342     		cmp	r3, r2
 4240 03da 08D0     		beq	.L273
 547:Middlewares/lvgl/src/widgets/lv_btnmatrix.c ****             if(btnm->btn_id_sel >= btnm->btn_cnt) btnm->btn_id_sel = 0;
 4241              		.loc 1 547 18 is_stmt 1 view .LVU1387
 547:Middlewares/lvgl/src/widgets/lv_btnmatrix.c ****             if(btnm->btn_id_sel >= btnm->btn_cnt) btnm->btn_id_sel = 0;
 4242              		.loc 1 547 34 is_stmt 0 view .LVU1388
 4243 03dc 0133     		adds	r3, r3, #1
 4244 03de 7386     		strh	r3, [r6, #50]	@ movhi
 4245              	.LVL443:
 4246              	.L218:
 548:Middlewares/lvgl/src/widgets/lv_btnmatrix.c **** 
 4247              		.loc 1 548 13 is_stmt 1 view .LVU1389
 548:Middlewares/lvgl/src/widgets/lv_btnmatrix.c **** 
 4248              		.loc 1 548 20 is_stmt 0 view .LVU1390
 4249 03e0 738E     		ldrh	r3, [r6, #50]
 548:Middlewares/lvgl/src/widgets/lv_btnmatrix.c **** 
 4250              		.loc 1 548 40 view .LVU1391
 4251 03e2 378E     		ldrh	r7, [r6, #48]
 548:Middlewares/lvgl/src/widgets/lv_btnmatrix.c **** 
 4252              		.loc 1 548 15 view .LVU1392
 4253 03e4 BB42     		cmp	r3, r7
 4254 03e6 0AD3     		bcc	.L220
 548:Middlewares/lvgl/src/widgets/lv_btnmatrix.c **** 
 4255              		.loc 1 548 51 is_stmt 1 discriminator 1 view .LVU1393
 548:Middlewares/lvgl/src/widgets/lv_btnmatrix.c **** 
 4256              		.loc 1 548 68 is_stmt 0 discriminator 1 view .LVU1394
 4257 03e8 0023     		movs	r3, #0
 4258 03ea 7386     		strh	r3, [r6, #50]	@ movhi
 4259 03ec 07E0     		b	.L220
 4260              	.LVL444:
 4261              	.L273:
 546:Middlewares/lvgl/src/widgets/lv_btnmatrix.c ****             else btnm->btn_id_sel++;
 4262              		.loc 1 546 60 is_stmt 1 discriminator 1 view .LVU1395
ARM GAS  /tmp/ccnMQJLR.s 			page 118


 546:Middlewares/lvgl/src/widgets/lv_btnmatrix.c ****             else btnm->btn_id_sel++;
 4263              		.loc 1 546 77 is_stmt 0 discriminator 1 view .LVU1396
 4264 03ee 0023     		movs	r3, #0
 4265 03f0 7386     		strh	r3, [r6, #50]	@ movhi
 4266              	.LVL445:
 546:Middlewares/lvgl/src/widgets/lv_btnmatrix.c ****             else btnm->btn_id_sel++;
 4267              		.loc 1 546 77 discriminator 1 view .LVU1397
 4268 03f2 F5E7     		b	.L218
 4269              	.LVL446:
 4270              	.L222:
 551:Middlewares/lvgl/src/widgets/lv_btnmatrix.c ****                 if(btnm->btn_id_sel >= btnm->btn_cnt) btnm->btn_id_sel = 0;
 4271              		.loc 1 551 17 is_stmt 1 view .LVU1398
 551:Middlewares/lvgl/src/widgets/lv_btnmatrix.c ****                 if(btnm->btn_id_sel >= btnm->btn_cnt) btnm->btn_id_sel = 0;
 4272              		.loc 1 551 33 is_stmt 0 view .LVU1399
 4273 03f4 0134     		adds	r4, r4, #1
 4274 03f6 A4B2     		uxth	r4, r4
 4275 03f8 7486     		strh	r4, [r6, #50]	@ movhi
 552:Middlewares/lvgl/src/widgets/lv_btnmatrix.c ****             }
 4276              		.loc 1 552 17 is_stmt 1 view .LVU1400
 552:Middlewares/lvgl/src/widgets/lv_btnmatrix.c ****             }
 4277              		.loc 1 552 19 is_stmt 0 view .LVU1401
 4278 03fa A742     		cmp	r7, r4
 4279 03fc 12D9     		bls	.L274
 4280              	.L220:
 550:Middlewares/lvgl/src/widgets/lv_btnmatrix.c ****                 btnm->btn_id_sel++;
 4281              		.loc 1 550 18 is_stmt 1 view .LVU1402
 550:Middlewares/lvgl/src/widgets/lv_btnmatrix.c ****                 btnm->btn_id_sel++;
 4282              		.loc 1 550 40 is_stmt 0 view .LVU1403
 4283 03fe F36A     		ldr	r3, [r6, #44]
 550:Middlewares/lvgl/src/widgets/lv_btnmatrix.c ****                 btnm->btn_id_sel++;
 4284              		.loc 1 550 56 view .LVU1404
 4285 0400 748E     		ldrh	r4, [r6, #50]
 550:Middlewares/lvgl/src/widgets/lv_btnmatrix.c ****                 btnm->btn_id_sel++;
 4286              		.loc 1 550 19 view .LVU1405
 4287 0402 33F81450 		ldrh	r5, [r3, r4, lsl #1]
 4288 0406 2846     		mov	r0, r5
 4289 0408 FFF7FEFF 		bl	button_is_hidden
 4290              	.LVL447:
 550:Middlewares/lvgl/src/widgets/lv_btnmatrix.c ****                 btnm->btn_id_sel++;
 4291              		.loc 1 550 18 view .LVU1406
 4292 040c 0028     		cmp	r0, #0
 4293 040e F1D1     		bne	.L222
 550:Middlewares/lvgl/src/widgets/lv_btnmatrix.c ****                 btnm->btn_id_sel++;
 4294              		.loc 1 550 74 discriminator 1 view .LVU1407
 4295 0410 2846     		mov	r0, r5
 4296 0412 FFF7FEFF 		bl	button_is_inactive
 4297              	.LVL448:
 550:Middlewares/lvgl/src/widgets/lv_btnmatrix.c ****                 btnm->btn_id_sel++;
 4298              		.loc 1 550 71 discriminator 1 view .LVU1408
 4299 0416 0028     		cmp	r0, #0
 4300 0418 ECD1     		bne	.L222
 4301              	.L223:
 622:Middlewares/lvgl/src/widgets/lv_btnmatrix.c ****     } else if(code == LV_EVENT_DRAW_MAIN) {
 4302              		.loc 1 622 9 is_stmt 1 view .LVU1409
 4303 041a 718E     		ldrh	r1, [r6, #50]
 4304 041c 3046     		mov	r0, r6
 4305 041e FFF7FEFF 		bl	invalidate_button_area
ARM GAS  /tmp/ccnMQJLR.s 			page 119


 4306              	.LVL449:
 4307              	.LBE139:
 4308 0422 F6E5     		b	.L182
 4309              	.L274:
 4310              	.LBB155:
 552:Middlewares/lvgl/src/widgets/lv_btnmatrix.c ****             }
 4311              		.loc 1 552 55 discriminator 1 view .LVU1410
 552:Middlewares/lvgl/src/widgets/lv_btnmatrix.c ****             }
 4312              		.loc 1 552 72 is_stmt 0 discriminator 1 view .LVU1411
 4313 0424 0023     		movs	r3, #0
 4314 0426 7386     		strh	r3, [r6, #50]	@ movhi
 4315 0428 E9E7     		b	.L220
 4316              	.LVL450:
 4317              	.L270:
 556:Middlewares/lvgl/src/widgets/lv_btnmatrix.c **** 
 4318              		.loc 1 556 13 is_stmt 1 view .LVU1412
 556:Middlewares/lvgl/src/widgets/lv_btnmatrix.c **** 
 4319              		.loc 1 556 20 is_stmt 0 view .LVU1413
 4320 042a 728E     		ldrh	r2, [r6, #50]
 556:Middlewares/lvgl/src/widgets/lv_btnmatrix.c **** 
 4321              		.loc 1 556 15 view .LVU1414
 4322 042c 4FF6FF73 		movw	r3, #65535
 4323              	.LVL451:
 556:Middlewares/lvgl/src/widgets/lv_btnmatrix.c **** 
 4324              		.loc 1 556 15 view .LVU1415
 4325 0430 9A42     		cmp	r2, r3
 4326 0432 05D0     		beq	.L275
 4327              	.LVL452:
 4328              	.L225:
 558:Middlewares/lvgl/src/widgets/lv_btnmatrix.c ****             else if(btnm->btn_id_sel > 0) btnm->btn_id_sel--;
 4329              		.loc 1 558 13 is_stmt 1 view .LVU1416
 558:Middlewares/lvgl/src/widgets/lv_btnmatrix.c ****             else if(btnm->btn_id_sel > 0) btnm->btn_id_sel--;
 4330              		.loc 1 558 20 is_stmt 0 view .LVU1417
 4331 0434 738E     		ldrh	r3, [r6, #50]
 558:Middlewares/lvgl/src/widgets/lv_btnmatrix.c ****             else if(btnm->btn_id_sel > 0) btnm->btn_id_sel--;
 4332              		.loc 1 558 15 view .LVU1418
 4333 0436 33B9     		cbnz	r3, .L226
 558:Middlewares/lvgl/src/widgets/lv_btnmatrix.c ****             else if(btnm->btn_id_sel > 0) btnm->btn_id_sel--;
 4334              		.loc 1 558 39 is_stmt 1 discriminator 1 view .LVU1419
 558:Middlewares/lvgl/src/widgets/lv_btnmatrix.c ****             else if(btnm->btn_id_sel > 0) btnm->btn_id_sel--;
 4335              		.loc 1 558 62 is_stmt 0 discriminator 1 view .LVU1420
 4336 0438 338E     		ldrh	r3, [r6, #48]
 558:Middlewares/lvgl/src/widgets/lv_btnmatrix.c ****             else if(btnm->btn_id_sel > 0) btnm->btn_id_sel--;
 4337              		.loc 1 558 72 discriminator 1 view .LVU1421
 4338 043a 013B     		subs	r3, r3, #1
 558:Middlewares/lvgl/src/widgets/lv_btnmatrix.c ****             else if(btnm->btn_id_sel > 0) btnm->btn_id_sel--;
 4339              		.loc 1 558 56 discriminator 1 view .LVU1422
 4340 043c 7386     		strh	r3, [r6, #50]	@ movhi
 4341 043e 08E0     		b	.L230
 4342              	.LVL453:
 4343              	.L275:
 556:Middlewares/lvgl/src/widgets/lv_btnmatrix.c **** 
 4344              		.loc 1 556 59 is_stmt 1 discriminator 1 view .LVU1423
 556:Middlewares/lvgl/src/widgets/lv_btnmatrix.c **** 
 4345              		.loc 1 556 76 is_stmt 0 discriminator 1 view .LVU1424
 4346 0440 0023     		movs	r3, #0
 4347 0442 7386     		strh	r3, [r6, #50]	@ movhi
ARM GAS  /tmp/ccnMQJLR.s 			page 120


 4348              	.LVL454:
 556:Middlewares/lvgl/src/widgets/lv_btnmatrix.c **** 
 4349              		.loc 1 556 76 discriminator 1 view .LVU1425
 4350 0444 F6E7     		b	.L225
 4351              	.L226:
 559:Middlewares/lvgl/src/widgets/lv_btnmatrix.c **** 
 4352              		.loc 1 559 18 is_stmt 1 discriminator 1 view .LVU1426
 559:Middlewares/lvgl/src/widgets/lv_btnmatrix.c **** 
 4353              		.loc 1 559 43 discriminator 1 view .LVU1427
 559:Middlewares/lvgl/src/widgets/lv_btnmatrix.c **** 
 4354              		.loc 1 559 59 is_stmt 0 discriminator 1 view .LVU1428
 4355 0446 013B     		subs	r3, r3, #1
 4356 0448 7386     		strh	r3, [r6, #50]	@ movhi
 4357 044a 02E0     		b	.L230
 4358              	.LVL455:
 4359              	.L231:
 562:Middlewares/lvgl/src/widgets/lv_btnmatrix.c ****                 else btnm->btn_id_sel = btnm->btn_cnt - 1;
 4360              		.loc 1 562 17 is_stmt 1 view .LVU1429
 562:Middlewares/lvgl/src/widgets/lv_btnmatrix.c ****                 else btnm->btn_id_sel = btnm->btn_cnt - 1;
 4361              		.loc 1 562 19 is_stmt 0 view .LVU1430
 4362 044c 84B1     		cbz	r4, .L228
 562:Middlewares/lvgl/src/widgets/lv_btnmatrix.c ****                 else btnm->btn_id_sel = btnm->btn_cnt - 1;
 4363              		.loc 1 562 42 is_stmt 1 discriminator 1 view .LVU1431
 562:Middlewares/lvgl/src/widgets/lv_btnmatrix.c ****                 else btnm->btn_id_sel = btnm->btn_cnt - 1;
 4364              		.loc 1 562 58 is_stmt 0 discriminator 1 view .LVU1432
 4365 044e 013C     		subs	r4, r4, #1
 4366 0450 7486     		strh	r4, [r6, #50]	@ movhi
 4367              	.L230:
 561:Middlewares/lvgl/src/widgets/lv_btnmatrix.c ****                 if(btnm->btn_id_sel > 0) btnm->btn_id_sel--;
 4368              		.loc 1 561 18 is_stmt 1 view .LVU1433
 561:Middlewares/lvgl/src/widgets/lv_btnmatrix.c ****                 if(btnm->btn_id_sel > 0) btnm->btn_id_sel--;
 4369              		.loc 1 561 40 is_stmt 0 view .LVU1434
 4370 0452 F36A     		ldr	r3, [r6, #44]
 561:Middlewares/lvgl/src/widgets/lv_btnmatrix.c ****                 if(btnm->btn_id_sel > 0) btnm->btn_id_sel--;
 4371              		.loc 1 561 56 view .LVU1435
 4372 0454 748E     		ldrh	r4, [r6, #50]
 561:Middlewares/lvgl/src/widgets/lv_btnmatrix.c ****                 if(btnm->btn_id_sel > 0) btnm->btn_id_sel--;
 4373              		.loc 1 561 19 view .LVU1436
 4374 0456 33F81450 		ldrh	r5, [r3, r4, lsl #1]
 4375 045a 2846     		mov	r0, r5
 4376 045c FFF7FEFF 		bl	button_is_hidden
 4377              	.LVL456:
 561:Middlewares/lvgl/src/widgets/lv_btnmatrix.c ****                 if(btnm->btn_id_sel > 0) btnm->btn_id_sel--;
 4378              		.loc 1 561 18 view .LVU1437
 4379 0460 0028     		cmp	r0, #0
 4380 0462 F3D1     		bne	.L231
 561:Middlewares/lvgl/src/widgets/lv_btnmatrix.c ****                 if(btnm->btn_id_sel > 0) btnm->btn_id_sel--;
 4381              		.loc 1 561 74 discriminator 1 view .LVU1438
 4382 0464 2846     		mov	r0, r5
 4383 0466 FFF7FEFF 		bl	button_is_inactive
 4384              	.LVL457:
 561:Middlewares/lvgl/src/widgets/lv_btnmatrix.c ****                 if(btnm->btn_id_sel > 0) btnm->btn_id_sel--;
 4385              		.loc 1 561 71 discriminator 1 view .LVU1439
 4386 046a 0028     		cmp	r0, #0
 4387 046c EED1     		bne	.L231
 4388 046e D4E7     		b	.L223
 4389              	.L228:
ARM GAS  /tmp/ccnMQJLR.s 			page 121


 563:Middlewares/lvgl/src/widgets/lv_btnmatrix.c ****             }
 4390              		.loc 1 563 22 is_stmt 1 view .LVU1440
 563:Middlewares/lvgl/src/widgets/lv_btnmatrix.c ****             }
 4391              		.loc 1 563 45 is_stmt 0 view .LVU1441
 4392 0470 338E     		ldrh	r3, [r6, #48]
 563:Middlewares/lvgl/src/widgets/lv_btnmatrix.c ****             }
 4393              		.loc 1 563 55 view .LVU1442
 4394 0472 013B     		subs	r3, r3, #1
 563:Middlewares/lvgl/src/widgets/lv_btnmatrix.c ****             }
 4395              		.loc 1 563 39 view .LVU1443
 4396 0474 7386     		strh	r3, [r6, #50]	@ movhi
 4397 0476 ECE7     		b	.L230
 4398              	.LVL458:
 4399              	.L271:
 4400              	.LBB147:
 567:Middlewares/lvgl/src/widgets/lv_btnmatrix.c ****             /*Find the area below the the current*/
 4401              		.loc 1 567 13 is_stmt 1 view .LVU1444
 4402              	.LBB148:
 4403              	.LBI148:
 121:Middlewares/lvgl/src/widgets/../core/lv_obj_style_gen.h **** {
 4404              		.loc 2 121 26 view .LVU1445
 4405              	.LBB149:
 123:Middlewares/lvgl/src/widgets/../core/lv_obj_style_gen.h ****     return (lv_coord_t)v.num;
 4406              		.loc 2 123 5 view .LVU1446
 123:Middlewares/lvgl/src/widgets/../core/lv_obj_style_gen.h ****     return (lv_coord_t)v.num;
 4407              		.loc 2 123 26 is_stmt 0 view .LVU1447
 4408 0478 41F21502 		movw	r2, #4117
 4409 047c 0021     		movs	r1, #0
 4410 047e 3046     		mov	r0, r6
 4411 0480 FFF7FEFF 		bl	lv_obj_get_style_prop
 4412              	.LVL459:
 124:Middlewares/lvgl/src/widgets/../core/lv_obj_style_gen.h **** }
 4413              		.loc 2 124 5 is_stmt 1 view .LVU1448
 124:Middlewares/lvgl/src/widgets/../core/lv_obj_style_gen.h **** }
 4414              		.loc 2 124 12 is_stmt 0 view .LVU1449
 4415 0484 0FFA80F8 		sxth	r8, r0
 4416              	.LVL460:
 124:Middlewares/lvgl/src/widgets/../core/lv_obj_style_gen.h **** }
 4417              		.loc 2 124 12 view .LVU1450
 4418              	.LBE149:
 4419              	.LBE148:
 569:Middlewares/lvgl/src/widgets/lv_btnmatrix.c ****                 btnm->btn_id_sel = 0;
 4420              		.loc 1 569 13 is_stmt 1 view .LVU1451
 569:Middlewares/lvgl/src/widgets/lv_btnmatrix.c ****                 btnm->btn_id_sel = 0;
 4421              		.loc 1 569 20 is_stmt 0 view .LVU1452
 4422 0488 748E     		ldrh	r4, [r6, #50]
 4423              	.LVL461:
 569:Middlewares/lvgl/src/widgets/lv_btnmatrix.c ****                 btnm->btn_id_sel = 0;
 4424              		.loc 1 569 15 view .LVU1453
 4425 048a 4FF6FF73 		movw	r3, #65535
 4426 048e 9C42     		cmp	r4, r3
 4427 0490 0ED0     		beq	.L276
 4428              	.LBB150:
 577:Middlewares/lvgl/src/widgets/lv_btnmatrix.c ****                 lv_coord_t pr_center =
 4429              		.loc 1 577 17 is_stmt 1 view .LVU1454
 578:Middlewares/lvgl/src/widgets/lv_btnmatrix.c ****                     btnm->button_areas[btnm->btn_id_sel].x1 + (lv_area_get_width(&btnm->button_area
 4430              		.loc 1 578 17 view .LVU1455
ARM GAS  /tmp/ccnMQJLR.s 			page 122


 579:Middlewares/lvgl/src/widgets/lv_btnmatrix.c **** 
 4431              		.loc 1 579 25 is_stmt 0 view .LVU1456
 4432 0492 B56A     		ldr	r5, [r6, #40]
 4433              	.LVL462:
 579:Middlewares/lvgl/src/widgets/lv_btnmatrix.c **** 
 4434              		.loc 1 579 39 view .LVU1457
 4435 0494 05EBC407 		add	r7, r5, r4, lsl #3
 579:Middlewares/lvgl/src/widgets/lv_btnmatrix.c **** 
 4436              		.loc 1 579 57 view .LVU1458
 4437 0498 35F83420 		ldrh	r2, [r5, r4, lsl #3]
 4438              	.LVL463:
 4439              	.LBB151:
 4440              	.LBI151:
 133:Middlewares/lvgl/src/widgets/../core/../misc/../font/../misc/lv_area.h **** {
 4441              		.loc 3 133 26 is_stmt 1 view .LVU1459
 4442              	.LBB152:
 135:Middlewares/lvgl/src/widgets/../core/../misc/../font/../misc/lv_area.h **** }
 4443              		.loc 3 135 5 view .LVU1460
 135:Middlewares/lvgl/src/widgets/../core/../misc/../font/../misc/lv_area.h **** }
 4444              		.loc 3 135 31 is_stmt 0 view .LVU1461
 4445 049c BB88     		ldrh	r3, [r7, #4]
 135:Middlewares/lvgl/src/widgets/../core/../misc/../font/../misc/lv_area.h **** }
 4446              		.loc 3 135 36 view .LVU1462
 4447 049e 9B1A     		subs	r3, r3, r2
 4448 04a0 9BB2     		uxth	r3, r3
 135:Middlewares/lvgl/src/widgets/../core/../misc/../font/../misc/lv_area.h **** }
 4449              		.loc 3 135 49 view .LVU1463
 4450 04a2 0133     		adds	r3, r3, #1
 4451              	.LVL464:
 135:Middlewares/lvgl/src/widgets/../core/../misc/../font/../misc/lv_area.h **** }
 4452              		.loc 3 135 49 view .LVU1464
 4453              	.LBE152:
 4454              	.LBE151:
 579:Middlewares/lvgl/src/widgets/lv_btnmatrix.c **** 
 4455              		.loc 1 579 61 view .LVU1465
 4456 04a4 43F34E03 		sbfx	r3, r3, #1, #15
 4457 04a8 1344     		add	r3, r3, r2
 578:Middlewares/lvgl/src/widgets/lv_btnmatrix.c ****                     btnm->button_areas[btnm->btn_id_sel].x1 + (lv_area_get_width(&btnm->button_area
 4458              		.loc 1 578 28 view .LVU1466
 4459 04aa 0FFA83FA 		sxth	r10, r3
 4460              	.LVL465:
 581:Middlewares/lvgl/src/widgets/lv_btnmatrix.c ****                     if(btnm->button_areas[area_below].y1 > btnm->button_areas[btnm->btn_id_sel].y1 
 4461              		.loc 1 581 17 is_stmt 1 view .LVU1467
 581:Middlewares/lvgl/src/widgets/lv_btnmatrix.c ****                     if(btnm->button_areas[area_below].y1 > btnm->button_areas[btnm->btn_id_sel].y1 
 4462              		.loc 1 581 17 is_stmt 0 view .LVU1468
 4463 04ae 1CE0     		b	.L237
 4464              	.LVL466:
 4465              	.L276:
 581:Middlewares/lvgl/src/widgets/lv_btnmatrix.c ****                     if(btnm->button_areas[area_below].y1 > btnm->button_areas[btnm->btn_id_sel].y1 
 4466              		.loc 1 581 17 view .LVU1469
 4467              	.LBE150:
 570:Middlewares/lvgl/src/widgets/lv_btnmatrix.c ****                 while(button_is_hidden(btnm->ctrl_bits[btnm->btn_id_sel]) || button_is_inactive(btn
 4468              		.loc 1 570 17 is_stmt 1 view .LVU1470
 570:Middlewares/lvgl/src/widgets/lv_btnmatrix.c ****                 while(button_is_hidden(btnm->ctrl_bits[btnm->btn_id_sel]) || button_is_inactive(btn
 4469              		.loc 1 570 34 is_stmt 0 view .LVU1471
 4470 04b0 0023     		movs	r3, #0
 4471 04b2 7386     		strh	r3, [r6, #50]	@ movhi
ARM GAS  /tmp/ccnMQJLR.s 			page 123


 571:Middlewares/lvgl/src/widgets/lv_btnmatrix.c ****                     btnm->btn_id_sel++;
 4472              		.loc 1 571 17 is_stmt 1 view .LVU1472
 571:Middlewares/lvgl/src/widgets/lv_btnmatrix.c ****                     btnm->btn_id_sel++;
 4473              		.loc 1 571 22 is_stmt 0 view .LVU1473
 4474 04b4 05E0     		b	.L235
 4475              	.LVL467:
 4476              	.L236:
 572:Middlewares/lvgl/src/widgets/lv_btnmatrix.c ****                     if(btnm->btn_id_sel >= btnm->btn_cnt) btnm->btn_id_sel = 0;
 4477              		.loc 1 572 21 is_stmt 1 view .LVU1474
 572:Middlewares/lvgl/src/widgets/lv_btnmatrix.c ****                     if(btnm->btn_id_sel >= btnm->btn_cnt) btnm->btn_id_sel = 0;
 4478              		.loc 1 572 37 is_stmt 0 view .LVU1475
 4479 04b6 631C     		adds	r3, r4, #1
 4480 04b8 9BB2     		uxth	r3, r3
 4481 04ba 7386     		strh	r3, [r6, #50]	@ movhi
 573:Middlewares/lvgl/src/widgets/lv_btnmatrix.c ****                 }
 4482              		.loc 1 573 21 is_stmt 1 view .LVU1476
 573:Middlewares/lvgl/src/widgets/lv_btnmatrix.c ****                 }
 4483              		.loc 1 573 48 is_stmt 0 view .LVU1477
 4484 04bc 328E     		ldrh	r2, [r6, #48]
 573:Middlewares/lvgl/src/widgets/lv_btnmatrix.c ****                 }
 4485              		.loc 1 573 23 view .LVU1478
 4486 04be 9342     		cmp	r3, r2
 4487 04c0 0ED2     		bcs	.L277
 4488              	.L235:
 571:Middlewares/lvgl/src/widgets/lv_btnmatrix.c ****                     btnm->btn_id_sel++;
 4489              		.loc 1 571 22 is_stmt 1 view .LVU1479
 571:Middlewares/lvgl/src/widgets/lv_btnmatrix.c ****                     btnm->btn_id_sel++;
 4490              		.loc 1 571 44 is_stmt 0 view .LVU1480
 4491 04c2 F36A     		ldr	r3, [r6, #44]
 571:Middlewares/lvgl/src/widgets/lv_btnmatrix.c ****                     btnm->btn_id_sel++;
 4492              		.loc 1 571 60 view .LVU1481
 4493 04c4 748E     		ldrh	r4, [r6, #50]
 571:Middlewares/lvgl/src/widgets/lv_btnmatrix.c ****                     btnm->btn_id_sel++;
 4494              		.loc 1 571 23 view .LVU1482
 4495 04c6 33F81450 		ldrh	r5, [r3, r4, lsl #1]
 4496 04ca 2846     		mov	r0, r5
 4497 04cc FFF7FEFF 		bl	button_is_hidden
 4498              	.LVL468:
 571:Middlewares/lvgl/src/widgets/lv_btnmatrix.c ****                     btnm->btn_id_sel++;
 4499              		.loc 1 571 22 view .LVU1483
 4500 04d0 0028     		cmp	r0, #0
 4501 04d2 F0D1     		bne	.L236
 571:Middlewares/lvgl/src/widgets/lv_btnmatrix.c ****                     btnm->btn_id_sel++;
 4502              		.loc 1 571 78 discriminator 1 view .LVU1484
 4503 04d4 2846     		mov	r0, r5
 4504 04d6 FFF7FEFF 		bl	button_is_inactive
 4505              	.LVL469:
 571:Middlewares/lvgl/src/widgets/lv_btnmatrix.c ****                     btnm->btn_id_sel++;
 4506              		.loc 1 571 75 discriminator 1 view .LVU1485
 4507 04da 0028     		cmp	r0, #0
 4508 04dc EBD1     		bne	.L236
 4509 04de 9CE7     		b	.L223
 4510              	.L277:
 573:Middlewares/lvgl/src/widgets/lv_btnmatrix.c ****                 }
 4511              		.loc 1 573 59 is_stmt 1 discriminator 1 view .LVU1486
 573:Middlewares/lvgl/src/widgets/lv_btnmatrix.c ****                 }
 4512              		.loc 1 573 76 is_stmt 0 discriminator 1 view .LVU1487
ARM GAS  /tmp/ccnMQJLR.s 			page 124


 4513 04e0 0023     		movs	r3, #0
 4514 04e2 7386     		strh	r3, [r6, #50]	@ movhi
 4515 04e4 EDE7     		b	.L235
 4516              	.LVL470:
 4517              	.L238:
 4518              	.LBB153:
 581:Middlewares/lvgl/src/widgets/lv_btnmatrix.c ****                     if(btnm->button_areas[area_below].y1 > btnm->button_areas[btnm->btn_id_sel].y1 
 4519              		.loc 1 581 80 is_stmt 1 discriminator 2 view .LVU1488
 581:Middlewares/lvgl/src/widgets/lv_btnmatrix.c ****                     if(btnm->button_areas[area_below].y1 > btnm->button_areas[btnm->btn_id_sel].y1 
 4520              		.loc 1 581 90 is_stmt 0 discriminator 2 view .LVU1489
 4521 04e6 0134     		adds	r4, r4, #1
 4522              	.LVL471:
 581:Middlewares/lvgl/src/widgets/lv_btnmatrix.c ****                     if(btnm->button_areas[area_below].y1 > btnm->button_areas[btnm->btn_id_sel].y1 
 4523              		.loc 1 581 90 discriminator 2 view .LVU1490
 4524 04e8 A4B2     		uxth	r4, r4
 4525              	.LVL472:
 4526              	.L237:
 581:Middlewares/lvgl/src/widgets/lv_btnmatrix.c ****                     if(btnm->button_areas[area_below].y1 > btnm->button_areas[btnm->btn_id_sel].y1 
 4527              		.loc 1 581 52 is_stmt 1 discriminator 1 view .LVU1491
 581:Middlewares/lvgl/src/widgets/lv_btnmatrix.c ****                     if(btnm->button_areas[area_below].y1 > btnm->button_areas[btnm->btn_id_sel].y1 
 4528              		.loc 1 581 69 is_stmt 0 discriminator 1 view .LVU1492
 4529 04ea B6F83090 		ldrh	r9, [r6, #48]
 581:Middlewares/lvgl/src/widgets/lv_btnmatrix.c ****                     if(btnm->button_areas[area_below].y1 > btnm->button_areas[btnm->btn_id_sel].y1 
 4530              		.loc 1 581 17 discriminator 1 view .LVU1493
 4531 04ee A145     		cmp	r9, r4
 4532 04f0 1DD9     		bls	.L239
 582:Middlewares/lvgl/src/widgets/lv_btnmatrix.c ****                        pr_center >= btnm->button_areas[area_below].x1 &&
 4533              		.loc 1 582 21 is_stmt 1 view .LVU1494
 582:Middlewares/lvgl/src/widgets/lv_btnmatrix.c ****                        pr_center >= btnm->button_areas[area_below].x1 &&
 4534              		.loc 1 582 42 is_stmt 0 view .LVU1495
 4535 04f2 05EBC403 		add	r3, r5, r4, lsl #3
 582:Middlewares/lvgl/src/widgets/lv_btnmatrix.c ****                        pr_center >= btnm->button_areas[area_below].x1 &&
 4536              		.loc 1 582 54 view .LVU1496
 4537 04f6 B3F90210 		ldrsh	r1, [r3, #2]
 582:Middlewares/lvgl/src/widgets/lv_btnmatrix.c ****                        pr_center >= btnm->button_areas[area_below].x1 &&
 4538              		.loc 1 582 96 view .LVU1497
 4539 04fa B7F90220 		ldrsh	r2, [r7, #2]
 582:Middlewares/lvgl/src/widgets/lv_btnmatrix.c ****                        pr_center >= btnm->button_areas[area_below].x1 &&
 4540              		.loc 1 582 23 view .LVU1498
 4541 04fe 9142     		cmp	r1, r2
 4542 0500 F1DD     		ble	.L238
 583:Middlewares/lvgl/src/widgets/lv_btnmatrix.c ****                        pr_center <= btnm->button_areas[area_below].x2 + col_gap &&
 4543              		.loc 1 583 67 discriminator 1 view .LVU1499
 4544 0502 35F93420 		ldrsh	r2, [r5, r4, lsl #3]
 582:Middlewares/lvgl/src/widgets/lv_btnmatrix.c ****                        pr_center >= btnm->button_areas[area_below].x1 &&
 4545              		.loc 1 582 100 discriminator 1 view .LVU1500
 4546 0506 5245     		cmp	r2, r10
 4547 0508 EDDC     		bgt	.L238
 584:Middlewares/lvgl/src/widgets/lv_btnmatrix.c ****                        button_is_inactive(btnm->ctrl_bits[area_below]) == false &&
 4548              		.loc 1 584 67 view .LVU1501
 4549 050a B3F90430 		ldrsh	r3, [r3, #4]
 584:Middlewares/lvgl/src/widgets/lv_btnmatrix.c ****                        button_is_inactive(btnm->ctrl_bits[area_below]) == false &&
 4550              		.loc 1 584 71 view .LVU1502
 4551 050e 4344     		add	r3, r3, r8
 583:Middlewares/lvgl/src/widgets/lv_btnmatrix.c ****                        pr_center <= btnm->button_areas[area_below].x2 + col_gap &&
 4552              		.loc 1 583 71 view .LVU1503
 4553 0510 9A45     		cmp	r10, r3
ARM GAS  /tmp/ccnMQJLR.s 			page 125


 4554 0512 E8DC     		bgt	.L238
 585:Middlewares/lvgl/src/widgets/lv_btnmatrix.c ****                        button_is_hidden(btnm->ctrl_bits[area_below]) == false) {
 4555              		.loc 1 585 47 view .LVU1504
 4556 0514 F36A     		ldr	r3, [r6, #44]
 585:Middlewares/lvgl/src/widgets/lv_btnmatrix.c ****                        button_is_hidden(btnm->ctrl_bits[area_below]) == false) {
 4557              		.loc 1 585 24 view .LVU1505
 4558 0516 33F814B0 		ldrh	fp, [r3, r4, lsl #1]
 4559 051a 5846     		mov	r0, fp
 4560 051c FFF7FEFF 		bl	button_is_inactive
 4561              	.LVL473:
 584:Middlewares/lvgl/src/widgets/lv_btnmatrix.c ****                        button_is_inactive(btnm->ctrl_bits[area_below]) == false &&
 4562              		.loc 1 584 81 view .LVU1506
 4563 0520 0028     		cmp	r0, #0
 4564 0522 E0D1     		bne	.L238
 586:Middlewares/lvgl/src/widgets/lv_btnmatrix.c ****                         break;
 4565              		.loc 1 586 24 view .LVU1507
 4566 0524 5846     		mov	r0, fp
 4567 0526 FFF7FEFF 		bl	button_is_hidden
 4568              	.LVL474:
 585:Middlewares/lvgl/src/widgets/lv_btnmatrix.c ****                        button_is_hidden(btnm->ctrl_bits[area_below]) == false) {
 4569              		.loc 1 585 81 view .LVU1508
 4570 052a 0028     		cmp	r0, #0
 4571 052c DBD1     		bne	.L238
 4572              	.L239:
 591:Middlewares/lvgl/src/widgets/lv_btnmatrix.c ****             }
 4573              		.loc 1 591 17 is_stmt 1 view .LVU1509
 591:Middlewares/lvgl/src/widgets/lv_btnmatrix.c ****             }
 4574              		.loc 1 591 19 is_stmt 0 view .LVU1510
 4575 052e A145     		cmp	r9, r4
 4576 0530 7FF673AF 		bls	.L223
 591:Middlewares/lvgl/src/widgets/lv_btnmatrix.c ****             }
 4577              		.loc 1 591 48 is_stmt 1 discriminator 1 view .LVU1511
 591:Middlewares/lvgl/src/widgets/lv_btnmatrix.c ****             }
 4578              		.loc 1 591 65 is_stmt 0 discriminator 1 view .LVU1512
 4579 0534 7486     		strh	r4, [r6, #50]	@ movhi
 4580 0536 70E7     		b	.L223
 4581              	.LVL475:
 4582              	.L272:
 591:Middlewares/lvgl/src/widgets/lv_btnmatrix.c ****             }
 4583              		.loc 1 591 65 discriminator 1 view .LVU1513
 4584              	.LBE153:
 4585              	.LBE147:
 4586              	.LBB154:
 598:Middlewares/lvgl/src/widgets/lv_btnmatrix.c ****                 while(button_is_hidden(btnm->ctrl_bits[btnm->btn_id_sel]) || button_is_inactive(btn
 4587              		.loc 1 598 17 is_stmt 1 view .LVU1514
 598:Middlewares/lvgl/src/widgets/lv_btnmatrix.c ****                 while(button_is_hidden(btnm->ctrl_bits[btnm->btn_id_sel]) || button_is_inactive(btn
 4588              		.loc 1 598 34 is_stmt 0 view .LVU1515
 4589 0538 0023     		movs	r3, #0
 4590 053a 7386     		strh	r3, [r6, #50]	@ movhi
 599:Middlewares/lvgl/src/widgets/lv_btnmatrix.c ****                     btnm->btn_id_sel++;
 4591              		.loc 1 599 17 is_stmt 1 view .LVU1516
 599:Middlewares/lvgl/src/widgets/lv_btnmatrix.c ****                     btnm->btn_id_sel++;
 4592              		.loc 1 599 22 is_stmt 0 view .LVU1517
 4593 053c 05E0     		b	.L243
 4594              	.LVL476:
 4595              	.L244:
 600:Middlewares/lvgl/src/widgets/lv_btnmatrix.c ****                     if(btnm->btn_id_sel >= btnm->btn_cnt) btnm->btn_id_sel = 0;
ARM GAS  /tmp/ccnMQJLR.s 			page 126


 4596              		.loc 1 600 21 is_stmt 1 view .LVU1518
 600:Middlewares/lvgl/src/widgets/lv_btnmatrix.c ****                     if(btnm->btn_id_sel >= btnm->btn_cnt) btnm->btn_id_sel = 0;
 4597              		.loc 1 600 37 is_stmt 0 view .LVU1519
 4598 053e 631C     		adds	r3, r4, #1
 4599 0540 9BB2     		uxth	r3, r3
 4600 0542 7386     		strh	r3, [r6, #50]	@ movhi
 601:Middlewares/lvgl/src/widgets/lv_btnmatrix.c ****                 }
 4601              		.loc 1 601 21 is_stmt 1 view .LVU1520
 601:Middlewares/lvgl/src/widgets/lv_btnmatrix.c ****                 }
 4602              		.loc 1 601 48 is_stmt 0 view .LVU1521
 4603 0544 328E     		ldrh	r2, [r6, #48]
 601:Middlewares/lvgl/src/widgets/lv_btnmatrix.c ****                 }
 4604              		.loc 1 601 23 view .LVU1522
 4605 0546 9342     		cmp	r3, r2
 4606 0548 0ED2     		bcs	.L278
 4607              	.L243:
 599:Middlewares/lvgl/src/widgets/lv_btnmatrix.c ****                     btnm->btn_id_sel++;
 4608              		.loc 1 599 22 is_stmt 1 view .LVU1523
 599:Middlewares/lvgl/src/widgets/lv_btnmatrix.c ****                     btnm->btn_id_sel++;
 4609              		.loc 1 599 44 is_stmt 0 view .LVU1524
 4610 054a F36A     		ldr	r3, [r6, #44]
 599:Middlewares/lvgl/src/widgets/lv_btnmatrix.c ****                     btnm->btn_id_sel++;
 4611              		.loc 1 599 60 view .LVU1525
 4612 054c 748E     		ldrh	r4, [r6, #50]
 599:Middlewares/lvgl/src/widgets/lv_btnmatrix.c ****                     btnm->btn_id_sel++;
 4613              		.loc 1 599 23 view .LVU1526
 4614 054e 33F81450 		ldrh	r5, [r3, r4, lsl #1]
 4615 0552 2846     		mov	r0, r5
 4616 0554 FFF7FEFF 		bl	button_is_hidden
 4617              	.LVL477:
 599:Middlewares/lvgl/src/widgets/lv_btnmatrix.c ****                     btnm->btn_id_sel++;
 4618              		.loc 1 599 22 view .LVU1527
 4619 0558 0028     		cmp	r0, #0
 4620 055a F0D1     		bne	.L244
 599:Middlewares/lvgl/src/widgets/lv_btnmatrix.c ****                     btnm->btn_id_sel++;
 4621              		.loc 1 599 78 discriminator 1 view .LVU1528
 4622 055c 2846     		mov	r0, r5
 4623 055e FFF7FEFF 		bl	button_is_inactive
 4624              	.LVL478:
 599:Middlewares/lvgl/src/widgets/lv_btnmatrix.c ****                     btnm->btn_id_sel++;
 4625              		.loc 1 599 75 discriminator 1 view .LVU1529
 4626 0562 0028     		cmp	r0, #0
 4627 0564 EBD1     		bne	.L244
 4628 0566 58E7     		b	.L223
 4629              	.L278:
 601:Middlewares/lvgl/src/widgets/lv_btnmatrix.c ****                 }
 4630              		.loc 1 601 59 is_stmt 1 discriminator 1 view .LVU1530
 601:Middlewares/lvgl/src/widgets/lv_btnmatrix.c ****                 }
 4631              		.loc 1 601 76 is_stmt 0 discriminator 1 view .LVU1531
 4632 0568 0023     		movs	r3, #0
 4633 056a 7386     		strh	r3, [r6, #50]	@ movhi
 4634 056c EDE7     		b	.L243
 4635              	.LVL479:
 4636              	.L246:
 4637              	.LBB146:
 609:Middlewares/lvgl/src/widgets/lv_btnmatrix.c ****                     if(btnm->button_areas[area_above].y1 < btnm->button_areas[btnm->btn_id_sel].y1 
 4638              		.loc 1 609 69 is_stmt 1 discriminator 2 view .LVU1532
ARM GAS  /tmp/ccnMQJLR.s 			page 127


 609:Middlewares/lvgl/src/widgets/lv_btnmatrix.c ****                     if(btnm->button_areas[area_above].y1 < btnm->button_areas[btnm->btn_id_sel].y1 
 4639              		.loc 1 609 79 is_stmt 0 discriminator 2 view .LVU1533
 4640 056e 013C     		subs	r4, r4, #1
 4641              	.LVL480:
 609:Middlewares/lvgl/src/widgets/lv_btnmatrix.c ****                     if(btnm->button_areas[area_above].y1 < btnm->button_areas[btnm->btn_id_sel].y1 
 4642              		.loc 1 609 79 discriminator 2 view .LVU1534
 4643 0570 24B2     		sxth	r4, r4
 4644              	.LVL481:
 4645              	.L245:
 609:Middlewares/lvgl/src/widgets/lv_btnmatrix.c ****                     if(btnm->button_areas[area_above].y1 < btnm->button_areas[btnm->btn_id_sel].y1 
 4646              		.loc 1 609 52 is_stmt 1 discriminator 1 view .LVU1535
 609:Middlewares/lvgl/src/widgets/lv_btnmatrix.c ****                     if(btnm->button_areas[area_above].y1 < btnm->button_areas[btnm->btn_id_sel].y1 
 4647              		.loc 1 609 17 is_stmt 0 discriminator 1 view .LVU1536
 4648 0572 002C     		cmp	r4, #0
 4649 0574 1EDB     		blt	.L247
 610:Middlewares/lvgl/src/widgets/lv_btnmatrix.c ****                        pr_center >= btnm->button_areas[area_above].x1 - col_gap &&
 4650              		.loc 1 610 21 is_stmt 1 view .LVU1537
 610:Middlewares/lvgl/src/widgets/lv_btnmatrix.c ****                        pr_center >= btnm->button_areas[area_above].x1 - col_gap &&
 4651              		.loc 1 610 42 is_stmt 0 view .LVU1538
 4652 0576 05EBC403 		add	r3, r5, r4, lsl #3
 610:Middlewares/lvgl/src/widgets/lv_btnmatrix.c ****                        pr_center >= btnm->button_areas[area_above].x1 - col_gap &&
 4653              		.loc 1 610 54 view .LVU1539
 4654 057a B3F90210 		ldrsh	r1, [r3, #2]
 610:Middlewares/lvgl/src/widgets/lv_btnmatrix.c ****                        pr_center >= btnm->button_areas[area_above].x1 - col_gap &&
 4655              		.loc 1 610 96 view .LVU1540
 4656 057e B7F90220 		ldrsh	r2, [r7, #2]
 610:Middlewares/lvgl/src/widgets/lv_btnmatrix.c ****                        pr_center >= btnm->button_areas[area_above].x1 - col_gap &&
 4657              		.loc 1 610 23 view .LVU1541
 4658 0582 9142     		cmp	r1, r2
 4659 0584 F3DA     		bge	.L246
 611:Middlewares/lvgl/src/widgets/lv_btnmatrix.c ****                        pr_center <= btnm->button_areas[area_above].x2 &&
 4660              		.loc 1 611 67 discriminator 1 view .LVU1542
 4661 0586 35F93420 		ldrsh	r2, [r5, r4, lsl #3]
 611:Middlewares/lvgl/src/widgets/lv_btnmatrix.c ****                        pr_center <= btnm->button_areas[area_above].x2 &&
 4662              		.loc 1 611 71 discriminator 1 view .LVU1543
 4663 058a A2EB0802 		sub	r2, r2, r8
 610:Middlewares/lvgl/src/widgets/lv_btnmatrix.c ****                        pr_center >= btnm->button_areas[area_above].x1 - col_gap &&
 4664              		.loc 1 610 100 discriminator 1 view .LVU1544
 4665 058e 9145     		cmp	r9, r2
 4666 0590 EDDB     		blt	.L246
 612:Middlewares/lvgl/src/widgets/lv_btnmatrix.c ****                        button_is_inactive(btnm->ctrl_bits[area_above]) == false &&
 4667              		.loc 1 612 67 view .LVU1545
 4668 0592 B3F90430 		ldrsh	r3, [r3, #4]
 611:Middlewares/lvgl/src/widgets/lv_btnmatrix.c ****                        pr_center <= btnm->button_areas[area_above].x2 &&
 4669              		.loc 1 611 81 view .LVU1546
 4670 0596 4B45     		cmp	r3, r9
 4671 0598 E9DB     		blt	.L246
 613:Middlewares/lvgl/src/widgets/lv_btnmatrix.c ****                        button_is_hidden(btnm->ctrl_bits[area_above]) == false) {
 4672              		.loc 1 613 47 view .LVU1547
 4673 059a F36A     		ldr	r3, [r6, #44]
 613:Middlewares/lvgl/src/widgets/lv_btnmatrix.c ****                        button_is_hidden(btnm->ctrl_bits[area_above]) == false) {
 4674              		.loc 1 613 24 view .LVU1548
 4675 059c 33F814A0 		ldrh	r10, [r3, r4, lsl #1]
 4676 05a0 5046     		mov	r0, r10
 4677 05a2 FFF7FEFF 		bl	button_is_inactive
 4678              	.LVL482:
 612:Middlewares/lvgl/src/widgets/lv_btnmatrix.c ****                        button_is_inactive(btnm->ctrl_bits[area_above]) == false &&
ARM GAS  /tmp/ccnMQJLR.s 			page 128


 4679              		.loc 1 612 71 view .LVU1549
 4680 05a6 0028     		cmp	r0, #0
 4681 05a8 E1D1     		bne	.L246
 614:Middlewares/lvgl/src/widgets/lv_btnmatrix.c ****                         break;
 4682              		.loc 1 614 24 view .LVU1550
 4683 05aa 5046     		mov	r0, r10
 4684 05ac FFF7FEFF 		bl	button_is_hidden
 4685              	.LVL483:
 613:Middlewares/lvgl/src/widgets/lv_btnmatrix.c ****                        button_is_hidden(btnm->ctrl_bits[area_above]) == false) {
 4686              		.loc 1 613 81 view .LVU1551
 4687 05b0 0028     		cmp	r0, #0
 4688 05b2 DCD1     		bne	.L246
 4689              	.L247:
 618:Middlewares/lvgl/src/widgets/lv_btnmatrix.c ****             }
 4690              		.loc 1 618 17 is_stmt 1 view .LVU1552
 618:Middlewares/lvgl/src/widgets/lv_btnmatrix.c ****             }
 4691              		.loc 1 618 19 is_stmt 0 view .LVU1553
 4692 05b4 002C     		cmp	r4, #0
 4693 05b6 FFF630AF 		blt	.L223
 618:Middlewares/lvgl/src/widgets/lv_btnmatrix.c ****             }
 4694              		.loc 1 618 37 is_stmt 1 discriminator 1 view .LVU1554
 618:Middlewares/lvgl/src/widgets/lv_btnmatrix.c ****             }
 4695              		.loc 1 618 54 is_stmt 0 discriminator 1 view .LVU1555
 4696 05ba 7486     		strh	r4, [r6, #50]	@ movhi
 4697 05bc 2DE7     		b	.L223
 4698              	.LBE146:
 4699              	.LBE154:
 4700              	.LBE155:
 4701              		.cfi_endproc
 4702              	.LFE164:
 4704 05be 00BF     		.section	.text.lv_btnmatrix_set_one_checked,"ax",%progbits
 4705              		.align	1
 4706              		.global	lv_btnmatrix_set_one_checked
 4707              		.syntax unified
 4708              		.thumb
 4709              		.thumb_func
 4710              		.fpu softvfp
 4712              	lv_btnmatrix_set_one_checked:
 4713              	.LVL484:
 4714              	.LFB156:
 272:Middlewares/lvgl/src/widgets/lv_btnmatrix.c ****     LV_ASSERT_OBJ(obj, MY_CLASS);
 4715              		.loc 1 272 1 is_stmt 1 view -0
 4716              		.cfi_startproc
 4717              		@ args = 0, pretend = 0, frame = 0
 4718              		@ frame_needed = 0, uses_anonymous_args = 0
 272:Middlewares/lvgl/src/widgets/lv_btnmatrix.c ****     LV_ASSERT_OBJ(obj, MY_CLASS);
 4719              		.loc 1 272 1 is_stmt 0 view .LVU1557
 4720 0000 08B5     		push	{r3, lr}
 4721              	.LCFI34:
 4722              		.cfi_def_cfa_offset 8
 4723              		.cfi_offset 3, -8
 4724              		.cfi_offset 14, -4
 273:Middlewares/lvgl/src/widgets/lv_btnmatrix.c **** 
 4725              		.loc 1 273 5 is_stmt 1 view .LVU1558
 273:Middlewares/lvgl/src/widgets/lv_btnmatrix.c **** 
 4726              		.loc 1 273 5 view .LVU1559
 273:Middlewares/lvgl/src/widgets/lv_btnmatrix.c **** 
ARM GAS  /tmp/ccnMQJLR.s 			page 129


 4727              		.loc 1 273 5 view .LVU1560
 275:Middlewares/lvgl/src/widgets/lv_btnmatrix.c ****     btnm->one_check     = en;
 4728              		.loc 1 275 5 view .LVU1561
 4729              	.LVL485:
 275:Middlewares/lvgl/src/widgets/lv_btnmatrix.c ****     btnm->one_check     = en;
 4730              		.loc 1 275 51 view .LVU1562
 276:Middlewares/lvgl/src/widgets/lv_btnmatrix.c **** 
 4731              		.loc 1 276 5 view .LVU1563
 276:Middlewares/lvgl/src/widgets/lv_btnmatrix.c **** 
 4732              		.loc 1 276 25 is_stmt 0 view .LVU1564
 4733 0002 90F83420 		ldrb	r2, [r0, #52]	@ zero_extendqisi2
 4734 0006 61F30002 		bfi	r2, r1, #0, #1
 4735 000a 80F83420 		strb	r2, [r0, #52]
 279:Middlewares/lvgl/src/widgets/lv_btnmatrix.c **** }
 4736              		.loc 1 279 5 is_stmt 1 view .LVU1565
 4737 000e 0021     		movs	r1, #0
 4738              	.LVL486:
 279:Middlewares/lvgl/src/widgets/lv_btnmatrix.c **** }
 4739              		.loc 1 279 5 is_stmt 0 view .LVU1566
 4740 0010 FFF7FEFF 		bl	make_one_button_checked
 4741              	.LVL487:
 280:Middlewares/lvgl/src/widgets/lv_btnmatrix.c **** 
 4742              		.loc 1 280 1 view .LVU1567
 4743 0014 08BD     		pop	{r3, pc}
 4744              		.cfi_endproc
 4745              	.LFE156:
 4747              		.section	.text.lv_btnmatrix_get_one_checked,"ax",%progbits
 4748              		.align	1
 4749              		.global	lv_btnmatrix_get_one_checked
 4750              		.syntax unified
 4751              		.thumb
 4752              		.thumb_func
 4753              		.fpu softvfp
 4755              	lv_btnmatrix_get_one_checked:
 4756              	.LVL488:
 4757              	.LFB161:
 338:Middlewares/lvgl/src/widgets/lv_btnmatrix.c ****     LV_ASSERT_OBJ(obj, MY_CLASS);
 4758              		.loc 1 338 1 is_stmt 1 view -0
 4759              		.cfi_startproc
 4760              		@ args = 0, pretend = 0, frame = 0
 4761              		@ frame_needed = 0, uses_anonymous_args = 0
 4762              		@ link register save eliminated.
 339:Middlewares/lvgl/src/widgets/lv_btnmatrix.c **** 
 4763              		.loc 1 339 5 view .LVU1569
 339:Middlewares/lvgl/src/widgets/lv_btnmatrix.c **** 
 4764              		.loc 1 339 5 view .LVU1570
 339:Middlewares/lvgl/src/widgets/lv_btnmatrix.c **** 
 4765              		.loc 1 339 5 view .LVU1571
 341:Middlewares/lvgl/src/widgets/lv_btnmatrix.c **** 
 4766              		.loc 1 341 5 view .LVU1572
 341:Middlewares/lvgl/src/widgets/lv_btnmatrix.c **** 
 4767              		.loc 1 341 51 view .LVU1573
 343:Middlewares/lvgl/src/widgets/lv_btnmatrix.c **** }
 4768              		.loc 1 343 5 view .LVU1574
 343:Middlewares/lvgl/src/widgets/lv_btnmatrix.c **** }
 4769              		.loc 1 343 16 is_stmt 0 view .LVU1575
 4770 0000 90F83400 		ldrb	r0, [r0, #52]	@ zero_extendqisi2
ARM GAS  /tmp/ccnMQJLR.s 			page 130


 4771              	.LVL489:
 344:Middlewares/lvgl/src/widgets/lv_btnmatrix.c **** 
 4772              		.loc 1 344 1 view .LVU1576
 4773 0004 00F00100 		and	r0, r0, #1
 4774 0008 7047     		bx	lr
 4775              		.cfi_endproc
 4776              	.LFE161:
 4778              		.global	lv_btnmatrix_class
 4779              		.section	.rodata.str1.4,"aMS",%progbits,1
 4780              		.align	2
 4781              	.LC1:
 4782 0000 42746E31 		.ascii	"Btn1\000"
 4782      00
 4783 0005 000000   		.align	2
 4784              	.LC2:
 4785 0008 42746E32 		.ascii	"Btn2\000"
 4785      00
 4786 000d 000000   		.align	2
 4787              	.LC3:
 4788 0010 42746E33 		.ascii	"Btn3\000"
 4788      00
 4789 0015 000000   		.align	2
 4790              	.LC4:
 4791 0018 42746E34 		.ascii	"Btn4\000"
 4791      00
 4792 001d 000000   		.align	2
 4793              	.LC5:
 4794 0020 42746E35 		.ascii	"Btn5\000"
 4794      00
 4795 0025 000000   		.align	2
 4796              	.LC6:
 4797 0028 00       		.ascii	"\000"
 4798              		.section	.data.lv_btnmatrix_def_map,"aw"
 4799              		.align	2
 4800              		.set	.LANCHOR1,. + 0
 4803              	lv_btnmatrix_def_map:
 4804 0000 00000000 		.word	.LC1
 4805 0004 08000000 		.word	.LC2
 4806 0008 10000000 		.word	.LC3
 4807 000c 00000000 		.word	.LC0
 4808 0010 18000000 		.word	.LC4
 4809 0014 20000000 		.word	.LC5
 4810 0018 28000000 		.word	.LC6
 4811              		.section	.rodata.lv_btnmatrix_class,"a"
 4812              		.align	2
 4813              		.set	.LANCHOR0,. + 0
 4816              	lv_btnmatrix_class:
 4817 0000 00000000 		.word	lv_obj_class
 4818 0004 00000000 		.word	lv_btnmatrix_constructor
 4819 0008 00000000 		.word	lv_btnmatrix_destructor
 4820 000c 00000000 		.space	4
 4821 0010 00000000 		.word	lv_btnmatrix_event
 4822 0014 0401     		.short	260
 4823 0016 8200     		.short	130
 4824 0018 85       		.byte	133
 4825 0019 03       		.byte	3
 4826 001a 00       		.byte	0
ARM GAS  /tmp/ccnMQJLR.s 			page 131


 4827 001b 00       		.space	1
 4828              		.text
 4829              	.Letext0:
 4830              		.file 4 "/home/akinya/gcc-arm-none-eabi/arm-none-eabi/include/machine/_default_types.h"
 4831              		.file 5 "/home/akinya/gcc-arm-none-eabi/arm-none-eabi/include/sys/_stdint.h"
 4832              		.file 6 "Middlewares/lvgl/src/widgets/../core/../misc/../font/lv_font.h"
 4833              		.file 7 "Middlewares/lvgl/src/widgets/../core/../misc/lv_types.h"
 4834              		.file 8 "Middlewares/lvgl/src/widgets/../core/../misc/lv_color.h"
 4835              		.file 9 "Middlewares/lvgl/src/widgets/../core/../misc/lv_txt.h"
 4836              		.file 10 "Middlewares/lvgl/src/widgets/../core/../misc/lv_bidi.h"
 4837              		.file 11 "Middlewares/lvgl/src/widgets/../core/../misc/lv_style.h"
 4838              		.file 12 "Middlewares/lvgl/src/widgets/../core/../hal/../misc/lv_ll.h"
 4839              		.file 13 "Middlewares/lvgl/src/widgets/../core/../hal/../misc/lv_timer.h"
 4840              		.file 14 "Middlewares/lvgl/src/widgets/../core/../hal/lv_hal_disp.h"
 4841              		.file 15 "Middlewares/lvgl/src/widgets/../core/lv_obj.h"
 4842              		.file 16 "Middlewares/lvgl/src/widgets/../core/../hal/lv_hal_indev.h"
 4843              		.file 17 "Middlewares/lvgl/src/widgets/../core/lv_group.h"
 4844              		.file 18 "Middlewares/lvgl/src/widgets/../core/lv_obj_scroll.h"
 4845              		.file 19 "Middlewares/lvgl/src/widgets/../core/lv_obj_style.h"
 4846              		.file 20 "Middlewares/lvgl/src/widgets/../core/../draw/lv_draw_rect.h"
 4847              		.file 21 "Middlewares/lvgl/src/widgets/../core/../draw/lv_draw_label.h"
 4848              		.file 22 "Middlewares/lvgl/src/widgets/../core/../draw/lv_draw_img.h"
 4849              		.file 23 "Middlewares/lvgl/src/widgets/../core/../draw/lv_draw_line.h"
 4850              		.file 24 "Middlewares/lvgl/src/widgets/../core/../draw/lv_draw_arc.h"
 4851              		.file 25 "Middlewares/lvgl/src/widgets/../core/lv_obj_draw.h"
 4852              		.file 26 "Middlewares/lvgl/src/widgets/../core/lv_obj_class.h"
 4853              		.file 27 "Middlewares/lvgl/src/widgets/../core/lv_event.h"
 4854              		.file 28 "Middlewares/lvgl/src/widgets/lv_btnmatrix.h"
 4855              		.file 29 "Middlewares/lvgl/src/widgets/../core/lv_obj_pos.h"
 4856              		.file 30 "Middlewares/lvgl/src/widgets/../core/lv_obj_tree.h"
 4857              		.file 31 "/home/akinya/gcc-arm-none-eabi/arm-none-eabi/include/string.h"
 4858              		.file 32 "Middlewares/lvgl/src/widgets/../core/../hal/../misc/lv_mem.h"
 4859              		.file 33 "Middlewares/lvgl/src/widgets/../core/lv_indev.h"
ARM GAS  /tmp/ccnMQJLR.s 			page 132


DEFINED SYMBOLS
                            *ABS*:0000000000000000 lv_btnmatrix.c
     /tmp/ccnMQJLR.s:16     .text.get_button_width:0000000000000000 $t
     /tmp/ccnMQJLR.s:23     .text.get_button_width:0000000000000000 get_button_width
     /tmp/ccnMQJLR.s:47     .text.button_is_hidden:0000000000000000 $t
     /tmp/ccnMQJLR.s:53     .text.button_is_hidden:0000000000000000 button_is_hidden
     /tmp/ccnMQJLR.s:71     .text.button_is_checked:0000000000000000 $t
     /tmp/ccnMQJLR.s:77     .text.button_is_checked:0000000000000000 button_is_checked
     /tmp/ccnMQJLR.s:95     .text.button_is_repeat_disabled:0000000000000000 $t
     /tmp/ccnMQJLR.s:101    .text.button_is_repeat_disabled:0000000000000000 button_is_repeat_disabled
     /tmp/ccnMQJLR.s:119    .text.button_is_inactive:0000000000000000 $t
     /tmp/ccnMQJLR.s:125    .text.button_is_inactive:0000000000000000 button_is_inactive
     /tmp/ccnMQJLR.s:143    .text.button_is_click_trig:0000000000000000 $t
     /tmp/ccnMQJLR.s:149    .text.button_is_click_trig:0000000000000000 button_is_click_trig
     /tmp/ccnMQJLR.s:167    .text.button_is_checkable:0000000000000000 $t
     /tmp/ccnMQJLR.s:173    .text.button_is_checkable:0000000000000000 button_is_checkable
     /tmp/ccnMQJLR.s:191    .text.button_get_checked:0000000000000000 $t
     /tmp/ccnMQJLR.s:197    .text.button_get_checked:0000000000000000 button_get_checked
     /tmp/ccnMQJLR.s:215    .text.button_is_recolor:0000000000000000 $t
     /tmp/ccnMQJLR.s:221    .text.button_is_recolor:0000000000000000 button_is_recolor
     /tmp/ccnMQJLR.s:239    .text.get_button_from_point:0000000000000000 $t
     /tmp/ccnMQJLR.s:245    .text.get_button_from_point:0000000000000000 get_button_from_point
     /tmp/ccnMQJLR.s:701    .text.invalidate_button_area:0000000000000000 $t
     /tmp/ccnMQJLR.s:707    .text.invalidate_button_area:0000000000000000 invalidate_button_area
     /tmp/ccnMQJLR.s:914    .text.invalidate_button_area:00000000000000d0 $d
     /tmp/ccnMQJLR.s:919    .rodata.draw_main.str1.4:0000000000000000 $d
     /tmp/ccnMQJLR.s:923    .text.draw_main:0000000000000000 $t
     /tmp/ccnMQJLR.s:929    .text.draw_main:0000000000000000 draw_main
     /tmp/ccnMQJLR.s:1701   .text.draw_main:00000000000003cc $d
     /tmp/ccnMQJLR.s:1707   .text.lv_btnmatrix_destructor:0000000000000000 $t
     /tmp/ccnMQJLR.s:1713   .text.lv_btnmatrix_destructor:0000000000000000 lv_btnmatrix_destructor
     /tmp/ccnMQJLR.s:1756   .text.allocate_btn_areas_and_controls:0000000000000000 $t
     /tmp/ccnMQJLR.s:1762   .text.allocate_btn_areas_and_controls:0000000000000000 allocate_btn_areas_and_controls
     /tmp/ccnMQJLR.s:1926   .text.allocate_btn_areas_and_controls:0000000000000074 $d
     /tmp/ccnMQJLR.s:1931   .text.lv_btnmatrix_create:0000000000000000 $t
     /tmp/ccnMQJLR.s:1938   .text.lv_btnmatrix_create:0000000000000000 lv_btnmatrix_create
     /tmp/ccnMQJLR.s:1974   .text.lv_btnmatrix_create:0000000000000014 $d
     /tmp/ccnMQJLR.s:1979   .text.lv_btnmatrix_set_map:0000000000000000 $t
     /tmp/ccnMQJLR.s:1986   .text.lv_btnmatrix_set_map:0000000000000000 lv_btnmatrix_set_map
     /tmp/ccnMQJLR.s:2515   .text.lv_btnmatrix_set_map:00000000000001e8 $d
     /tmp/ccnMQJLR.s:2520   .text.lv_btnmatrix_constructor:0000000000000000 $t
     /tmp/ccnMQJLR.s:2526   .text.lv_btnmatrix_constructor:0000000000000000 lv_btnmatrix_constructor
     /tmp/ccnMQJLR.s:2578   .text.lv_btnmatrix_constructor:0000000000000028 $d
     /tmp/ccnMQJLR.s:2583   .text.lv_btnmatrix_set_ctrl_map:0000000000000000 $t
     /tmp/ccnMQJLR.s:2590   .text.lv_btnmatrix_set_ctrl_map:0000000000000000 lv_btnmatrix_set_ctrl_map
     /tmp/ccnMQJLR.s:2631   .text.lv_btnmatrix_set_selected_btn:0000000000000000 $t
     /tmp/ccnMQJLR.s:2638   .text.lv_btnmatrix_set_selected_btn:0000000000000000 lv_btnmatrix_set_selected_btn
     /tmp/ccnMQJLR.s:2696   .text.lv_btnmatrix_clear_btn_ctrl:0000000000000000 $t
     /tmp/ccnMQJLR.s:2703   .text.lv_btnmatrix_clear_btn_ctrl:0000000000000000 lv_btnmatrix_clear_btn_ctrl
     /tmp/ccnMQJLR.s:2747   .text.lv_btnmatrix_clear_btn_ctrl_all:0000000000000000 $t
     /tmp/ccnMQJLR.s:2754   .text.lv_btnmatrix_clear_btn_ctrl_all:0000000000000000 lv_btnmatrix_clear_btn_ctrl_all
     /tmp/ccnMQJLR.s:2812   .text.lv_btnmatrix_set_btn_ctrl:0000000000000000 $t
     /tmp/ccnMQJLR.s:2819   .text.lv_btnmatrix_set_btn_ctrl:0000000000000000 lv_btnmatrix_set_btn_ctrl
     /tmp/ccnMQJLR.s:2897   .text.lv_btnmatrix_set_btn_ctrl_all:0000000000000000 $t
     /tmp/ccnMQJLR.s:2904   .text.lv_btnmatrix_set_btn_ctrl_all:0000000000000000 lv_btnmatrix_set_btn_ctrl_all
     /tmp/ccnMQJLR.s:2962   .text.lv_btnmatrix_set_btn_width:0000000000000000 $t
     /tmp/ccnMQJLR.s:2969   .text.lv_btnmatrix_set_btn_width:0000000000000000 lv_btnmatrix_set_btn_width
ARM GAS  /tmp/ccnMQJLR.s 			page 133


     /tmp/ccnMQJLR.s:3024   .text.lv_btnmatrix_get_map:0000000000000000 $t
     /tmp/ccnMQJLR.s:3031   .text.lv_btnmatrix_get_map:0000000000000000 lv_btnmatrix_get_map
     /tmp/ccnMQJLR.s:3054   .text.lv_btnmatrix_get_selected_btn:0000000000000000 $t
     /tmp/ccnMQJLR.s:3061   .text.lv_btnmatrix_get_selected_btn:0000000000000000 lv_btnmatrix_get_selected_btn
     /tmp/ccnMQJLR.s:3084   .text.lv_btnmatrix_get_btn_text:0000000000000000 $t
     /tmp/ccnMQJLR.s:3091   .text.lv_btnmatrix_get_btn_text:0000000000000000 lv_btnmatrix_get_btn_text
     /tmp/ccnMQJLR.s:3211   .text.lv_btnmatrix_get_btn_text:0000000000000060 $d
     /tmp/ccnMQJLR.s:3216   .text.lv_btnmatrix_has_btn_ctrl:0000000000000000 $t
     /tmp/ccnMQJLR.s:3223   .text.lv_btnmatrix_has_btn_ctrl:0000000000000000 lv_btnmatrix_has_btn_ctrl
     /tmp/ccnMQJLR.s:3266   .text.make_one_button_checked:0000000000000000 $t
     /tmp/ccnMQJLR.s:3272   .text.make_one_button_checked:0000000000000000 make_one_button_checked
     /tmp/ccnMQJLR.s:3322   .text.lv_btnmatrix_event:0000000000000000 $t
     /tmp/ccnMQJLR.s:3328   .text.lv_btnmatrix_event:0000000000000000 lv_btnmatrix_event
     /tmp/ccnMQJLR.s:3997   .text.lv_btnmatrix_event:00000000000002f0 $d
     /tmp/ccnMQJLR.s:4002   .text.lv_btnmatrix_event:00000000000002f4 $t
     /tmp/ccnMQJLR.s:4705   .text.lv_btnmatrix_set_one_checked:0000000000000000 $t
     /tmp/ccnMQJLR.s:4712   .text.lv_btnmatrix_set_one_checked:0000000000000000 lv_btnmatrix_set_one_checked
     /tmp/ccnMQJLR.s:4748   .text.lv_btnmatrix_get_one_checked:0000000000000000 $t
     /tmp/ccnMQJLR.s:4755   .text.lv_btnmatrix_get_one_checked:0000000000000000 lv_btnmatrix_get_one_checked
     /tmp/ccnMQJLR.s:4816   .rodata.lv_btnmatrix_class:0000000000000000 lv_btnmatrix_class
     /tmp/ccnMQJLR.s:4780   .rodata.str1.4:0000000000000000 $d
     /tmp/ccnMQJLR.s:4799   .data.lv_btnmatrix_def_map:0000000000000000 $d
     /tmp/ccnMQJLR.s:4803   .data.lv_btnmatrix_def_map:0000000000000000 lv_btnmatrix_def_map
     /tmp/ccnMQJLR.s:4812   .rodata.lv_btnmatrix_class:0000000000000000 $d

UNDEFINED SYMBOLS
lv_obj_get_coords
lv_obj_get_width
lv_obj_get_height
lv_obj_get_style_prop
_lv_area_is_point_on
lv_obj_get_disp
lv_disp_get_dpi
lv_obj_invalidate_area
lv_event_get_target
lv_event_get_param
lv_draw_rect_dsc_init
lv_draw_label_dsc_init
lv_obj_init_draw_rect_dsc
lv_obj_init_draw_label_dsc
lv_obj_draw_dsc_init
strcmp
lv_memcpy
lv_event_send
lv_draw_rect
lv_txt_get_size
lv_draw_label
lv_mem_free
lv_mem_alloc
lv_memset_00
lv_obj_class_create_obj
lv_obj_class_init_obj
lv_obj_get_content_width
lv_obj_get_content_height
lv_area_set
lv_obj_invalidate
lv_obj_event_base
ARM GAS  /tmp/ccnMQJLR.s 			page 134


lv_event_get_code
lv_indev_get_act
lv_indev_get_type
lv_indev_get_point
lv_indev_reset_long_press
lv_obj_get_group
lv_group_get_editing
lv_indev_get_next
lv_obj_class
