ARM GAS  /tmp/ccnMQJLR.s 			page 1


   1              		.cpu cortex-m3
   2              		.eabi_attribute 20, 1
   3              		.eabi_attribute 21, 1
   4              		.eabi_attribute 23, 3
   5              		.eabi_attribute 24, 1
   6              		.eabi_attribute 25, 1
   7              		.eabi_attribute 26, 1
   8              		.eabi_attribute 30, 1
   9              		.eabi_attribute 34, 1
  10              		.eabi_attribute 18, 4
  11              		.file	"lv_btnmatrix.c"
  12              		.text
  13              	.Ltext0:
  14              		.cfi_sections	.debug_frame
  15              		.section	.text.get_button_width,"ax",%progbits
  16              		.align	1
  17              		.arch armv7-m
  18              		.syntax unified
  19              		.thumb
  20              		.thumb_func
  21              		.fpu softvfp
  23              	get_button_width:
  24              	.LVL0:
  25              	.LFB167:
  26              		.file 1 "Middlewares/lvgl/src/widgets/lv_btnmatrix.c"
   1:Middlewares/lvgl/src/widgets/lv_btnmatrix.c **** /**
   2:Middlewares/lvgl/src/widgets/lv_btnmatrix.c ****  * @file lv_btnmatrix.c
   3:Middlewares/lvgl/src/widgets/lv_btnmatrix.c ****  *
   4:Middlewares/lvgl/src/widgets/lv_btnmatrix.c ****  */
   5:Middlewares/lvgl/src/widgets/lv_btnmatrix.c **** 
   6:Middlewares/lvgl/src/widgets/lv_btnmatrix.c **** /*********************
   7:Middlewares/lvgl/src/widgets/lv_btnmatrix.c ****  *      INCLUDES
   8:Middlewares/lvgl/src/widgets/lv_btnmatrix.c ****  *********************/
   9:Middlewares/lvgl/src/widgets/lv_btnmatrix.c **** #include "lv_btnmatrix.h"
  10:Middlewares/lvgl/src/widgets/lv_btnmatrix.c **** #if LV_USE_BTNMATRIX != 0
  11:Middlewares/lvgl/src/widgets/lv_btnmatrix.c **** 
  12:Middlewares/lvgl/src/widgets/lv_btnmatrix.c **** #include "../misc/lv_assert.h"
  13:Middlewares/lvgl/src/widgets/lv_btnmatrix.c **** #include "../core/lv_indev.h"
  14:Middlewares/lvgl/src/widgets/lv_btnmatrix.c **** #include "../core/lv_group.h"
  15:Middlewares/lvgl/src/widgets/lv_btnmatrix.c **** #include "../draw/lv_draw.h"
  16:Middlewares/lvgl/src/widgets/lv_btnmatrix.c **** #include "../core/lv_refr.h"
  17:Middlewares/lvgl/src/widgets/lv_btnmatrix.c **** #include "../misc/lv_txt.h"
  18:Middlewares/lvgl/src/widgets/lv_btnmatrix.c **** #include "../misc/lv_txt_ap.h"
  19:Middlewares/lvgl/src/widgets/lv_btnmatrix.c **** 
  20:Middlewares/lvgl/src/widgets/lv_btnmatrix.c **** /*********************
  21:Middlewares/lvgl/src/widgets/lv_btnmatrix.c ****  *      DEFINES
  22:Middlewares/lvgl/src/widgets/lv_btnmatrix.c ****  *********************/
  23:Middlewares/lvgl/src/widgets/lv_btnmatrix.c **** #define MY_CLASS &lv_btnmatrix_class
  24:Middlewares/lvgl/src/widgets/lv_btnmatrix.c **** 
  25:Middlewares/lvgl/src/widgets/lv_btnmatrix.c **** #define BTN_EXTRA_CLICK_AREA_MAX (LV_DPI_DEF / 10)
  26:Middlewares/lvgl/src/widgets/lv_btnmatrix.c **** #define LV_BTNMATRIX_WIDTH_MASK 0x0007
  27:Middlewares/lvgl/src/widgets/lv_btnmatrix.c **** 
  28:Middlewares/lvgl/src/widgets/lv_btnmatrix.c **** /**********************
  29:Middlewares/lvgl/src/widgets/lv_btnmatrix.c ****  *      TYPEDEFS
  30:Middlewares/lvgl/src/widgets/lv_btnmatrix.c ****  **********************/
  31:Middlewares/lvgl/src/widgets/lv_btnmatrix.c **** 
  32:Middlewares/lvgl/src/widgets/lv_btnmatrix.c **** /**********************
ARM GAS  /tmp/ccnMQJLR.s 			page 2


  33:Middlewares/lvgl/src/widgets/lv_btnmatrix.c ****  *  STATIC PROTOTYPES
  34:Middlewares/lvgl/src/widgets/lv_btnmatrix.c ****  **********************/
  35:Middlewares/lvgl/src/widgets/lv_btnmatrix.c **** static void lv_btnmatrix_constructor(const lv_obj_class_t * class_p, lv_obj_t * obj);
  36:Middlewares/lvgl/src/widgets/lv_btnmatrix.c **** static void lv_btnmatrix_destructor(const lv_obj_class_t * class_p, lv_obj_t * obj);
  37:Middlewares/lvgl/src/widgets/lv_btnmatrix.c **** static void lv_btnmatrix_event(const lv_obj_class_t * class_p, lv_event_t * e);
  38:Middlewares/lvgl/src/widgets/lv_btnmatrix.c **** static void draw_main(lv_event_t * e);
  39:Middlewares/lvgl/src/widgets/lv_btnmatrix.c **** 
  40:Middlewares/lvgl/src/widgets/lv_btnmatrix.c **** static uint8_t get_button_width(lv_btnmatrix_ctrl_t ctrl_bits);
  41:Middlewares/lvgl/src/widgets/lv_btnmatrix.c **** static bool button_is_hidden(lv_btnmatrix_ctrl_t ctrl_bits);
  42:Middlewares/lvgl/src/widgets/lv_btnmatrix.c **** static bool button_is_checked(lv_btnmatrix_ctrl_t ctrl_bits);
  43:Middlewares/lvgl/src/widgets/lv_btnmatrix.c **** static bool button_is_repeat_disabled(lv_btnmatrix_ctrl_t ctrl_bits);
  44:Middlewares/lvgl/src/widgets/lv_btnmatrix.c **** static bool button_is_inactive(lv_btnmatrix_ctrl_t ctrl_bits);
  45:Middlewares/lvgl/src/widgets/lv_btnmatrix.c **** static bool button_is_click_trig(lv_btnmatrix_ctrl_t ctrl_bits);
  46:Middlewares/lvgl/src/widgets/lv_btnmatrix.c **** static bool button_is_checkable(lv_btnmatrix_ctrl_t ctrl_bits);
  47:Middlewares/lvgl/src/widgets/lv_btnmatrix.c **** static bool button_is_recolor(lv_btnmatrix_ctrl_t ctrl_bits);
  48:Middlewares/lvgl/src/widgets/lv_btnmatrix.c **** static bool button_get_checked(lv_btnmatrix_ctrl_t ctrl_bits);
  49:Middlewares/lvgl/src/widgets/lv_btnmatrix.c **** static bool button_is_recolor(lv_btnmatrix_ctrl_t ctrl_bits);
  50:Middlewares/lvgl/src/widgets/lv_btnmatrix.c **** static uint16_t get_button_from_point(lv_obj_t * obj, lv_point_t * p);
  51:Middlewares/lvgl/src/widgets/lv_btnmatrix.c **** static void allocate_btn_areas_and_controls(const lv_obj_t * obj, const char ** map);
  52:Middlewares/lvgl/src/widgets/lv_btnmatrix.c **** static void invalidate_button_area(const lv_obj_t * obj, uint16_t btn_idx);
  53:Middlewares/lvgl/src/widgets/lv_btnmatrix.c **** static void make_one_button_checked(lv_obj_t * obj, uint16_t btn_idx);
  54:Middlewares/lvgl/src/widgets/lv_btnmatrix.c **** 
  55:Middlewares/lvgl/src/widgets/lv_btnmatrix.c **** /**********************
  56:Middlewares/lvgl/src/widgets/lv_btnmatrix.c ****  *  STATIC VARIABLES
  57:Middlewares/lvgl/src/widgets/lv_btnmatrix.c ****  **********************/
  58:Middlewares/lvgl/src/widgets/lv_btnmatrix.c **** static const char * lv_btnmatrix_def_map[] = {"Btn1", "Btn2", "Btn3", "\n", "Btn4", "Btn5", ""};
  59:Middlewares/lvgl/src/widgets/lv_btnmatrix.c **** 
  60:Middlewares/lvgl/src/widgets/lv_btnmatrix.c **** const lv_obj_class_t lv_btnmatrix_class = {
  61:Middlewares/lvgl/src/widgets/lv_btnmatrix.c ****         .constructor_cb = lv_btnmatrix_constructor,
  62:Middlewares/lvgl/src/widgets/lv_btnmatrix.c ****         .destructor_cb = lv_btnmatrix_destructor,
  63:Middlewares/lvgl/src/widgets/lv_btnmatrix.c ****         .event_cb = lv_btnmatrix_event,
  64:Middlewares/lvgl/src/widgets/lv_btnmatrix.c ****         .width_def = LV_DPI_DEF * 2,
  65:Middlewares/lvgl/src/widgets/lv_btnmatrix.c ****         .height_def = LV_DPI_DEF,
  66:Middlewares/lvgl/src/widgets/lv_btnmatrix.c ****         .instance_size = sizeof(lv_btnmatrix_t),
  67:Middlewares/lvgl/src/widgets/lv_btnmatrix.c ****         .editable = LV_OBJ_CLASS_EDITABLE_TRUE,
  68:Middlewares/lvgl/src/widgets/lv_btnmatrix.c ****         .group_def = LV_OBJ_CLASS_GROUP_DEF_TRUE,
  69:Middlewares/lvgl/src/widgets/lv_btnmatrix.c ****         .base_class = &lv_obj_class
  70:Middlewares/lvgl/src/widgets/lv_btnmatrix.c ****     };
  71:Middlewares/lvgl/src/widgets/lv_btnmatrix.c **** 
  72:Middlewares/lvgl/src/widgets/lv_btnmatrix.c **** /**********************
  73:Middlewares/lvgl/src/widgets/lv_btnmatrix.c ****  *      MACROS
  74:Middlewares/lvgl/src/widgets/lv_btnmatrix.c ****  **********************/
  75:Middlewares/lvgl/src/widgets/lv_btnmatrix.c **** 
  76:Middlewares/lvgl/src/widgets/lv_btnmatrix.c **** /**********************
  77:Middlewares/lvgl/src/widgets/lv_btnmatrix.c ****  *   GLOBAL FUNCTIONS
  78:Middlewares/lvgl/src/widgets/lv_btnmatrix.c ****  **********************/
  79:Middlewares/lvgl/src/widgets/lv_btnmatrix.c **** 
  80:Middlewares/lvgl/src/widgets/lv_btnmatrix.c **** lv_obj_t * lv_btnmatrix_create(lv_obj_t * parent)
  81:Middlewares/lvgl/src/widgets/lv_btnmatrix.c **** {
  82:Middlewares/lvgl/src/widgets/lv_btnmatrix.c ****     LV_LOG_INFO("begin")
  83:Middlewares/lvgl/src/widgets/lv_btnmatrix.c ****     lv_obj_t * obj = lv_obj_class_create_obj(MY_CLASS, parent);
  84:Middlewares/lvgl/src/widgets/lv_btnmatrix.c ****     lv_obj_class_init_obj(obj);
  85:Middlewares/lvgl/src/widgets/lv_btnmatrix.c ****     return obj;
  86:Middlewares/lvgl/src/widgets/lv_btnmatrix.c **** }
  87:Middlewares/lvgl/src/widgets/lv_btnmatrix.c **** 
  88:Middlewares/lvgl/src/widgets/lv_btnmatrix.c **** /*=====================
  89:Middlewares/lvgl/src/widgets/lv_btnmatrix.c ****  * Setter functions
ARM GAS  /tmp/ccnMQJLR.s 			page 3


  90:Middlewares/lvgl/src/widgets/lv_btnmatrix.c ****  *====================*/
  91:Middlewares/lvgl/src/widgets/lv_btnmatrix.c **** 
  92:Middlewares/lvgl/src/widgets/lv_btnmatrix.c **** void lv_btnmatrix_set_map(lv_obj_t * obj, const char * map[])
  93:Middlewares/lvgl/src/widgets/lv_btnmatrix.c **** {
  94:Middlewares/lvgl/src/widgets/lv_btnmatrix.c ****     LV_ASSERT_OBJ(obj, MY_CLASS);
  95:Middlewares/lvgl/src/widgets/lv_btnmatrix.c ****     if(map == NULL) return;
  96:Middlewares/lvgl/src/widgets/lv_btnmatrix.c **** 
  97:Middlewares/lvgl/src/widgets/lv_btnmatrix.c ****     lv_btnmatrix_t * btnm = (lv_btnmatrix_t *)obj;;
  98:Middlewares/lvgl/src/widgets/lv_btnmatrix.c **** 
  99:Middlewares/lvgl/src/widgets/lv_btnmatrix.c ****     /*Analyze the map and create the required number of buttons*/
 100:Middlewares/lvgl/src/widgets/lv_btnmatrix.c ****     allocate_btn_areas_and_controls(obj, map);
 101:Middlewares/lvgl/src/widgets/lv_btnmatrix.c ****     btnm->map_p = map;
 102:Middlewares/lvgl/src/widgets/lv_btnmatrix.c **** 
 103:Middlewares/lvgl/src/widgets/lv_btnmatrix.c ****     lv_base_dir_t base_dir = lv_obj_get_style_base_dir(obj, LV_PART_MAIN);
 104:Middlewares/lvgl/src/widgets/lv_btnmatrix.c **** 
 105:Middlewares/lvgl/src/widgets/lv_btnmatrix.c ****     /*Set size and positions of the buttons*/
 106:Middlewares/lvgl/src/widgets/lv_btnmatrix.c ****     lv_coord_t pleft = lv_obj_get_style_pad_left(obj, LV_PART_MAIN);
 107:Middlewares/lvgl/src/widgets/lv_btnmatrix.c ****     lv_coord_t ptop = lv_obj_get_style_pad_top(obj, LV_PART_MAIN);
 108:Middlewares/lvgl/src/widgets/lv_btnmatrix.c ****     lv_coord_t prow = lv_obj_get_style_pad_row(obj, LV_PART_MAIN);
 109:Middlewares/lvgl/src/widgets/lv_btnmatrix.c ****     lv_coord_t pcol = lv_obj_get_style_pad_column(obj, LV_PART_MAIN);
 110:Middlewares/lvgl/src/widgets/lv_btnmatrix.c **** 
 111:Middlewares/lvgl/src/widgets/lv_btnmatrix.c ****     lv_coord_t max_w            = lv_obj_get_content_width(obj);
 112:Middlewares/lvgl/src/widgets/lv_btnmatrix.c ****     lv_coord_t max_h            = lv_obj_get_content_height(obj);
 113:Middlewares/lvgl/src/widgets/lv_btnmatrix.c **** 
 114:Middlewares/lvgl/src/widgets/lv_btnmatrix.c ****     /*Count the lines to calculate button height*/
 115:Middlewares/lvgl/src/widgets/lv_btnmatrix.c ****     uint8_t row_cnt = 1;
 116:Middlewares/lvgl/src/widgets/lv_btnmatrix.c ****     uint32_t i;
 117:Middlewares/lvgl/src/widgets/lv_btnmatrix.c ****     for(i = 0; map[i] && map[i][0] != '\0'; i++) {
 118:Middlewares/lvgl/src/widgets/lv_btnmatrix.c ****         if(strcmp(map[i], "\n") == 0) row_cnt++;
 119:Middlewares/lvgl/src/widgets/lv_btnmatrix.c ****     }
 120:Middlewares/lvgl/src/widgets/lv_btnmatrix.c **** 
 121:Middlewares/lvgl/src/widgets/lv_btnmatrix.c ****     /*Calculate the position of each row*/
 122:Middlewares/lvgl/src/widgets/lv_btnmatrix.c ****     lv_coord_t max_h_no_gap = max_h - (prow * (row_cnt - 1));
 123:Middlewares/lvgl/src/widgets/lv_btnmatrix.c **** 
 124:Middlewares/lvgl/src/widgets/lv_btnmatrix.c ****     /*Count the units and the buttons in a line
 125:Middlewares/lvgl/src/widgets/lv_btnmatrix.c ****      *(A button can be 1,2,3... unit wide)*/
 126:Middlewares/lvgl/src/widgets/lv_btnmatrix.c ****     uint32_t txt_tot_i = 0; /*Act. index in the str map*/
 127:Middlewares/lvgl/src/widgets/lv_btnmatrix.c ****     uint32_t btn_tot_i = 0; /*Act. index of button areas*/
 128:Middlewares/lvgl/src/widgets/lv_btnmatrix.c ****     const char ** map_row = map;
 129:Middlewares/lvgl/src/widgets/lv_btnmatrix.c **** 
 130:Middlewares/lvgl/src/widgets/lv_btnmatrix.c ****     /*Count the units and the buttons in a line*/
 131:Middlewares/lvgl/src/widgets/lv_btnmatrix.c ****     uint32_t row;
 132:Middlewares/lvgl/src/widgets/lv_btnmatrix.c ****     for(row = 0; row < row_cnt; row++) {
 133:Middlewares/lvgl/src/widgets/lv_btnmatrix.c ****         uint16_t unit_cnt = 0;           /*Number of units in a row*/
 134:Middlewares/lvgl/src/widgets/lv_btnmatrix.c ****         uint16_t btn_cnt = 0;            /*Number of buttons in a row*/
 135:Middlewares/lvgl/src/widgets/lv_btnmatrix.c ****         /*Count the buttons and units in this row*/
 136:Middlewares/lvgl/src/widgets/lv_btnmatrix.c ****         while(map_row[btn_cnt] && strcmp(map_row[btn_cnt], "\n") != 0 && map_row[btn_cnt][0] != '\0
 137:Middlewares/lvgl/src/widgets/lv_btnmatrix.c ****             unit_cnt += get_button_width(btnm->ctrl_bits[btn_tot_i + btn_cnt]);
 138:Middlewares/lvgl/src/widgets/lv_btnmatrix.c ****             btn_cnt++;
 139:Middlewares/lvgl/src/widgets/lv_btnmatrix.c ****         }
 140:Middlewares/lvgl/src/widgets/lv_btnmatrix.c **** 
 141:Middlewares/lvgl/src/widgets/lv_btnmatrix.c ****         /*Only deal with the non empty lines*/
 142:Middlewares/lvgl/src/widgets/lv_btnmatrix.c ****         if(btn_cnt == 0) {
 143:Middlewares/lvgl/src/widgets/lv_btnmatrix.c ****             map_row = &map_row[btn_cnt + 1];       /*Set the map to the next row*/
 144:Middlewares/lvgl/src/widgets/lv_btnmatrix.c ****             continue;
 145:Middlewares/lvgl/src/widgets/lv_btnmatrix.c ****         }
 146:Middlewares/lvgl/src/widgets/lv_btnmatrix.c **** 
ARM GAS  /tmp/ccnMQJLR.s 			page 4


 147:Middlewares/lvgl/src/widgets/lv_btnmatrix.c ****         lv_coord_t row_y1 = ptop + (max_h_no_gap * row) / row_cnt + row * prow;
 148:Middlewares/lvgl/src/widgets/lv_btnmatrix.c ****         lv_coord_t row_y2 = ptop + (max_h_no_gap * (row + 1)) / row_cnt + row * prow - 1;
 149:Middlewares/lvgl/src/widgets/lv_btnmatrix.c **** 
 150:Middlewares/lvgl/src/widgets/lv_btnmatrix.c ****         /*Set the button size and positions*/
 151:Middlewares/lvgl/src/widgets/lv_btnmatrix.c ****         lv_coord_t max_w_no_gap = max_w - (pcol * (btn_cnt - 1));
 152:Middlewares/lvgl/src/widgets/lv_btnmatrix.c ****         if(max_w_no_gap < 0) max_w_no_gap = 0;
 153:Middlewares/lvgl/src/widgets/lv_btnmatrix.c **** 
 154:Middlewares/lvgl/src/widgets/lv_btnmatrix.c ****         uint32_t row_unit_cnt = 0;  /*The current unit position in the row*/
 155:Middlewares/lvgl/src/widgets/lv_btnmatrix.c ****         uint32_t btn;
 156:Middlewares/lvgl/src/widgets/lv_btnmatrix.c ****         for(btn = 0; btn < btn_cnt; btn++, btn_tot_i++, txt_tot_i++) {
 157:Middlewares/lvgl/src/widgets/lv_btnmatrix.c ****             uint32_t btn_u = get_button_width(btnm->ctrl_bits[btn_tot_i]);
 158:Middlewares/lvgl/src/widgets/lv_btnmatrix.c **** 
 159:Middlewares/lvgl/src/widgets/lv_btnmatrix.c ****             lv_coord_t btn_x1 = (max_w_no_gap * row_unit_cnt) / unit_cnt + btn * pcol;
 160:Middlewares/lvgl/src/widgets/lv_btnmatrix.c ****             lv_coord_t btn_x2 = (max_w_no_gap * (row_unit_cnt + btn_u)) / unit_cnt + btn * pcol - 1
 161:Middlewares/lvgl/src/widgets/lv_btnmatrix.c **** 
 162:Middlewares/lvgl/src/widgets/lv_btnmatrix.c ****             /*If RTL start from the right*/
 163:Middlewares/lvgl/src/widgets/lv_btnmatrix.c ****             if(base_dir == LV_BASE_DIR_RTL) {
 164:Middlewares/lvgl/src/widgets/lv_btnmatrix.c ****                 lv_coord_t tmp = btn_x1;
 165:Middlewares/lvgl/src/widgets/lv_btnmatrix.c ****                 btn_x1 = btn_x2;
 166:Middlewares/lvgl/src/widgets/lv_btnmatrix.c ****                 btn_x2 = tmp;
 167:Middlewares/lvgl/src/widgets/lv_btnmatrix.c **** 
 168:Middlewares/lvgl/src/widgets/lv_btnmatrix.c ****                 btn_x1 = max_w - btn_x1;
 169:Middlewares/lvgl/src/widgets/lv_btnmatrix.c ****                 btn_x2 = max_w - btn_x2;
 170:Middlewares/lvgl/src/widgets/lv_btnmatrix.c ****             }
 171:Middlewares/lvgl/src/widgets/lv_btnmatrix.c **** 
 172:Middlewares/lvgl/src/widgets/lv_btnmatrix.c ****             btn_x1 += pleft;
 173:Middlewares/lvgl/src/widgets/lv_btnmatrix.c ****             btn_x2 += pleft;
 174:Middlewares/lvgl/src/widgets/lv_btnmatrix.c **** 
 175:Middlewares/lvgl/src/widgets/lv_btnmatrix.c ****             lv_area_set(&btnm->button_areas[btn_tot_i], btn_x1, row_y1, btn_x2, row_y2);
 176:Middlewares/lvgl/src/widgets/lv_btnmatrix.c **** 
 177:Middlewares/lvgl/src/widgets/lv_btnmatrix.c ****             row_unit_cnt += btn_u;
 178:Middlewares/lvgl/src/widgets/lv_btnmatrix.c ****         }
 179:Middlewares/lvgl/src/widgets/lv_btnmatrix.c **** 
 180:Middlewares/lvgl/src/widgets/lv_btnmatrix.c ****         map_row = &map_row[btn_cnt + 1];       /*Set the map to the next line*/
 181:Middlewares/lvgl/src/widgets/lv_btnmatrix.c ****     }
 182:Middlewares/lvgl/src/widgets/lv_btnmatrix.c **** 
 183:Middlewares/lvgl/src/widgets/lv_btnmatrix.c ****     lv_obj_invalidate(obj);
 184:Middlewares/lvgl/src/widgets/lv_btnmatrix.c **** }
 185:Middlewares/lvgl/src/widgets/lv_btnmatrix.c **** 
 186:Middlewares/lvgl/src/widgets/lv_btnmatrix.c **** void lv_btnmatrix_set_ctrl_map(lv_obj_t * obj, const lv_btnmatrix_ctrl_t ctrl_map[])
 187:Middlewares/lvgl/src/widgets/lv_btnmatrix.c **** {
 188:Middlewares/lvgl/src/widgets/lv_btnmatrix.c ****     LV_ASSERT_OBJ(obj, MY_CLASS);
 189:Middlewares/lvgl/src/widgets/lv_btnmatrix.c **** 
 190:Middlewares/lvgl/src/widgets/lv_btnmatrix.c ****     lv_btnmatrix_t * btnm = (lv_btnmatrix_t *)obj;
 191:Middlewares/lvgl/src/widgets/lv_btnmatrix.c ****     lv_memcpy(btnm->ctrl_bits, ctrl_map, sizeof(lv_btnmatrix_ctrl_t) * btnm->btn_cnt);
 192:Middlewares/lvgl/src/widgets/lv_btnmatrix.c **** 
 193:Middlewares/lvgl/src/widgets/lv_btnmatrix.c ****     lv_btnmatrix_set_map(obj, btnm->map_p);
 194:Middlewares/lvgl/src/widgets/lv_btnmatrix.c **** }
 195:Middlewares/lvgl/src/widgets/lv_btnmatrix.c **** 
 196:Middlewares/lvgl/src/widgets/lv_btnmatrix.c **** void lv_btnmatrix_set_selected_btn(lv_obj_t * obj, uint16_t btn_id)
 197:Middlewares/lvgl/src/widgets/lv_btnmatrix.c **** {
 198:Middlewares/lvgl/src/widgets/lv_btnmatrix.c ****     LV_ASSERT_OBJ(obj, MY_CLASS);
 199:Middlewares/lvgl/src/widgets/lv_btnmatrix.c **** 
 200:Middlewares/lvgl/src/widgets/lv_btnmatrix.c ****     lv_btnmatrix_t * btnm = (lv_btnmatrix_t *)obj;
 201:Middlewares/lvgl/src/widgets/lv_btnmatrix.c **** 
 202:Middlewares/lvgl/src/widgets/lv_btnmatrix.c ****     if(btn_id >= btnm->btn_cnt && btn_id != LV_BTNMATRIX_BTN_NONE) return;
 203:Middlewares/lvgl/src/widgets/lv_btnmatrix.c **** 
ARM GAS  /tmp/ccnMQJLR.s 			page 5


 204:Middlewares/lvgl/src/widgets/lv_btnmatrix.c ****     invalidate_button_area(obj, btnm->btn_id_sel);
 205:Middlewares/lvgl/src/widgets/lv_btnmatrix.c ****     btnm->btn_id_sel = btn_id;
 206:Middlewares/lvgl/src/widgets/lv_btnmatrix.c ****     invalidate_button_area(obj, btn_id);
 207:Middlewares/lvgl/src/widgets/lv_btnmatrix.c **** }
 208:Middlewares/lvgl/src/widgets/lv_btnmatrix.c **** 
 209:Middlewares/lvgl/src/widgets/lv_btnmatrix.c **** void lv_btnmatrix_set_btn_ctrl(lv_obj_t * obj, uint16_t btn_id, lv_btnmatrix_ctrl_t ctrl)
 210:Middlewares/lvgl/src/widgets/lv_btnmatrix.c **** {
 211:Middlewares/lvgl/src/widgets/lv_btnmatrix.c ****     LV_ASSERT_OBJ(obj, MY_CLASS);
 212:Middlewares/lvgl/src/widgets/lv_btnmatrix.c **** 
 213:Middlewares/lvgl/src/widgets/lv_btnmatrix.c ****     lv_btnmatrix_t * btnm = (lv_btnmatrix_t *)obj;;
 214:Middlewares/lvgl/src/widgets/lv_btnmatrix.c **** 
 215:Middlewares/lvgl/src/widgets/lv_btnmatrix.c ****     if(btn_id >= btnm->btn_cnt) return;
 216:Middlewares/lvgl/src/widgets/lv_btnmatrix.c **** 
 217:Middlewares/lvgl/src/widgets/lv_btnmatrix.c ****     if(btnm->one_check && (ctrl & LV_BTNMATRIX_CTRL_CHECKED)) {
 218:Middlewares/lvgl/src/widgets/lv_btnmatrix.c ****         lv_btnmatrix_clear_btn_ctrl_all(obj, LV_BTNMATRIX_CTRL_CHECKED);
 219:Middlewares/lvgl/src/widgets/lv_btnmatrix.c ****     }
 220:Middlewares/lvgl/src/widgets/lv_btnmatrix.c **** 
 221:Middlewares/lvgl/src/widgets/lv_btnmatrix.c ****     btnm->ctrl_bits[btn_id] |= ctrl;
 222:Middlewares/lvgl/src/widgets/lv_btnmatrix.c ****     invalidate_button_area(obj, btn_id);
 223:Middlewares/lvgl/src/widgets/lv_btnmatrix.c **** }
 224:Middlewares/lvgl/src/widgets/lv_btnmatrix.c **** 
 225:Middlewares/lvgl/src/widgets/lv_btnmatrix.c **** void lv_btnmatrix_clear_btn_ctrl(const lv_obj_t * obj, uint16_t btn_id, lv_btnmatrix_ctrl_t ctrl)
 226:Middlewares/lvgl/src/widgets/lv_btnmatrix.c **** {
 227:Middlewares/lvgl/src/widgets/lv_btnmatrix.c ****     LV_ASSERT_OBJ(obj, MY_CLASS);
 228:Middlewares/lvgl/src/widgets/lv_btnmatrix.c **** 
 229:Middlewares/lvgl/src/widgets/lv_btnmatrix.c ****     lv_btnmatrix_t * btnm = (lv_btnmatrix_t *)obj;;
 230:Middlewares/lvgl/src/widgets/lv_btnmatrix.c **** 
 231:Middlewares/lvgl/src/widgets/lv_btnmatrix.c ****     if(btn_id >= btnm->btn_cnt) return;
 232:Middlewares/lvgl/src/widgets/lv_btnmatrix.c **** 
 233:Middlewares/lvgl/src/widgets/lv_btnmatrix.c ****     btnm->ctrl_bits[btn_id] &= (~ctrl);
 234:Middlewares/lvgl/src/widgets/lv_btnmatrix.c ****     invalidate_button_area(obj, btn_id);
 235:Middlewares/lvgl/src/widgets/lv_btnmatrix.c **** }
 236:Middlewares/lvgl/src/widgets/lv_btnmatrix.c **** 
 237:Middlewares/lvgl/src/widgets/lv_btnmatrix.c **** void lv_btnmatrix_set_btn_ctrl_all(lv_obj_t * obj, lv_btnmatrix_ctrl_t ctrl)
 238:Middlewares/lvgl/src/widgets/lv_btnmatrix.c **** {
 239:Middlewares/lvgl/src/widgets/lv_btnmatrix.c ****     LV_ASSERT_OBJ(obj, MY_CLASS);
 240:Middlewares/lvgl/src/widgets/lv_btnmatrix.c **** 
 241:Middlewares/lvgl/src/widgets/lv_btnmatrix.c ****     lv_btnmatrix_t * btnm = (lv_btnmatrix_t *)obj;;
 242:Middlewares/lvgl/src/widgets/lv_btnmatrix.c ****     uint16_t i;
 243:Middlewares/lvgl/src/widgets/lv_btnmatrix.c ****     for(i = 0; i < btnm->btn_cnt; i++) {
 244:Middlewares/lvgl/src/widgets/lv_btnmatrix.c ****         lv_btnmatrix_set_btn_ctrl(obj, i, ctrl);
 245:Middlewares/lvgl/src/widgets/lv_btnmatrix.c ****     }
 246:Middlewares/lvgl/src/widgets/lv_btnmatrix.c **** }
 247:Middlewares/lvgl/src/widgets/lv_btnmatrix.c **** 
 248:Middlewares/lvgl/src/widgets/lv_btnmatrix.c **** void lv_btnmatrix_clear_btn_ctrl_all(lv_obj_t * obj, lv_btnmatrix_ctrl_t ctrl)
 249:Middlewares/lvgl/src/widgets/lv_btnmatrix.c **** {
 250:Middlewares/lvgl/src/widgets/lv_btnmatrix.c ****     LV_ASSERT_OBJ(obj, MY_CLASS);
 251:Middlewares/lvgl/src/widgets/lv_btnmatrix.c **** 
 252:Middlewares/lvgl/src/widgets/lv_btnmatrix.c ****     lv_btnmatrix_t * btnm = (lv_btnmatrix_t *)obj;;
 253:Middlewares/lvgl/src/widgets/lv_btnmatrix.c ****     uint16_t i;
 254:Middlewares/lvgl/src/widgets/lv_btnmatrix.c ****     for(i = 0; i < btnm->btn_cnt; i++) {
 255:Middlewares/lvgl/src/widgets/lv_btnmatrix.c ****         lv_btnmatrix_clear_btn_ctrl(obj, i, ctrl);
 256:Middlewares/lvgl/src/widgets/lv_btnmatrix.c ****     }
 257:Middlewares/lvgl/src/widgets/lv_btnmatrix.c **** }
 258:Middlewares/lvgl/src/widgets/lv_btnmatrix.c **** 
 259:Middlewares/lvgl/src/widgets/lv_btnmatrix.c **** void lv_btnmatrix_set_btn_width(lv_obj_t * obj, uint16_t btn_id, uint8_t width)
 260:Middlewares/lvgl/src/widgets/lv_btnmatrix.c **** {
ARM GAS  /tmp/ccnMQJLR.s 			page 6


 261:Middlewares/lvgl/src/widgets/lv_btnmatrix.c ****     LV_ASSERT_OBJ(obj, MY_CLASS);
 262:Middlewares/lvgl/src/widgets/lv_btnmatrix.c **** 
 263:Middlewares/lvgl/src/widgets/lv_btnmatrix.c ****     lv_btnmatrix_t * btnm = (lv_btnmatrix_t *)obj;;
 264:Middlewares/lvgl/src/widgets/lv_btnmatrix.c ****     if(btn_id >= btnm->btn_cnt) return;
 265:Middlewares/lvgl/src/widgets/lv_btnmatrix.c ****     btnm->ctrl_bits[btn_id] &= (~LV_BTNMATRIX_WIDTH_MASK);
 266:Middlewares/lvgl/src/widgets/lv_btnmatrix.c ****     btnm->ctrl_bits[btn_id] |= (LV_BTNMATRIX_WIDTH_MASK & width);
 267:Middlewares/lvgl/src/widgets/lv_btnmatrix.c **** 
 268:Middlewares/lvgl/src/widgets/lv_btnmatrix.c ****     lv_btnmatrix_set_map(obj, btnm->map_p);
 269:Middlewares/lvgl/src/widgets/lv_btnmatrix.c **** }
 270:Middlewares/lvgl/src/widgets/lv_btnmatrix.c **** 
 271:Middlewares/lvgl/src/widgets/lv_btnmatrix.c **** void lv_btnmatrix_set_one_checked(lv_obj_t * obj, bool en)
 272:Middlewares/lvgl/src/widgets/lv_btnmatrix.c **** {
 273:Middlewares/lvgl/src/widgets/lv_btnmatrix.c ****     LV_ASSERT_OBJ(obj, MY_CLASS);
 274:Middlewares/lvgl/src/widgets/lv_btnmatrix.c **** 
 275:Middlewares/lvgl/src/widgets/lv_btnmatrix.c ****     lv_btnmatrix_t * btnm = (lv_btnmatrix_t *)obj;;
 276:Middlewares/lvgl/src/widgets/lv_btnmatrix.c ****     btnm->one_check     = en;
 277:Middlewares/lvgl/src/widgets/lv_btnmatrix.c **** 
 278:Middlewares/lvgl/src/widgets/lv_btnmatrix.c ****     /*If more than one button is toggled only the first one should be*/
 279:Middlewares/lvgl/src/widgets/lv_btnmatrix.c ****     make_one_button_checked(obj, 0);
 280:Middlewares/lvgl/src/widgets/lv_btnmatrix.c **** }
 281:Middlewares/lvgl/src/widgets/lv_btnmatrix.c **** 
 282:Middlewares/lvgl/src/widgets/lv_btnmatrix.c **** /*=====================
 283:Middlewares/lvgl/src/widgets/lv_btnmatrix.c ****  * Getter functions
 284:Middlewares/lvgl/src/widgets/lv_btnmatrix.c ****  *====================*/
 285:Middlewares/lvgl/src/widgets/lv_btnmatrix.c **** 
 286:Middlewares/lvgl/src/widgets/lv_btnmatrix.c **** const char ** lv_btnmatrix_get_map(const lv_obj_t * obj)
 287:Middlewares/lvgl/src/widgets/lv_btnmatrix.c **** {
 288:Middlewares/lvgl/src/widgets/lv_btnmatrix.c ****     LV_ASSERT_OBJ(obj, MY_CLASS);
 289:Middlewares/lvgl/src/widgets/lv_btnmatrix.c **** 
 290:Middlewares/lvgl/src/widgets/lv_btnmatrix.c ****     lv_btnmatrix_t * btnm = (lv_btnmatrix_t *)obj;;
 291:Middlewares/lvgl/src/widgets/lv_btnmatrix.c ****     return btnm->map_p;
 292:Middlewares/lvgl/src/widgets/lv_btnmatrix.c **** }
 293:Middlewares/lvgl/src/widgets/lv_btnmatrix.c **** 
 294:Middlewares/lvgl/src/widgets/lv_btnmatrix.c **** uint16_t lv_btnmatrix_get_selected_btn(const lv_obj_t * obj)
 295:Middlewares/lvgl/src/widgets/lv_btnmatrix.c **** {
 296:Middlewares/lvgl/src/widgets/lv_btnmatrix.c ****     LV_ASSERT_OBJ(obj, MY_CLASS);
 297:Middlewares/lvgl/src/widgets/lv_btnmatrix.c **** 
 298:Middlewares/lvgl/src/widgets/lv_btnmatrix.c ****     lv_btnmatrix_t * btnm = (lv_btnmatrix_t *)obj;;
 299:Middlewares/lvgl/src/widgets/lv_btnmatrix.c ****     return btnm->btn_id_sel;
 300:Middlewares/lvgl/src/widgets/lv_btnmatrix.c **** }
 301:Middlewares/lvgl/src/widgets/lv_btnmatrix.c **** 
 302:Middlewares/lvgl/src/widgets/lv_btnmatrix.c **** const char * lv_btnmatrix_get_btn_text(const lv_obj_t * obj, uint16_t btn_id)
 303:Middlewares/lvgl/src/widgets/lv_btnmatrix.c **** {
 304:Middlewares/lvgl/src/widgets/lv_btnmatrix.c ****     LV_ASSERT_OBJ(obj, MY_CLASS);
 305:Middlewares/lvgl/src/widgets/lv_btnmatrix.c **** 
 306:Middlewares/lvgl/src/widgets/lv_btnmatrix.c ****     if(btn_id == LV_BTNMATRIX_BTN_NONE) return NULL;
 307:Middlewares/lvgl/src/widgets/lv_btnmatrix.c **** 
 308:Middlewares/lvgl/src/widgets/lv_btnmatrix.c ****     lv_btnmatrix_t * btnm = (lv_btnmatrix_t *)obj;
 309:Middlewares/lvgl/src/widgets/lv_btnmatrix.c ****     if(btn_id > btnm->btn_cnt) return NULL;
 310:Middlewares/lvgl/src/widgets/lv_btnmatrix.c **** 
 311:Middlewares/lvgl/src/widgets/lv_btnmatrix.c ****     uint16_t txt_i = 0;
 312:Middlewares/lvgl/src/widgets/lv_btnmatrix.c ****     uint16_t btn_i = 0;
 313:Middlewares/lvgl/src/widgets/lv_btnmatrix.c **** 
 314:Middlewares/lvgl/src/widgets/lv_btnmatrix.c ****     /*Search the text of btnm->btn_pr the buttons text in the map
 315:Middlewares/lvgl/src/widgets/lv_btnmatrix.c ****      *Skip "\n"-s*/
 316:Middlewares/lvgl/src/widgets/lv_btnmatrix.c ****     while(btn_i != btn_id) {
 317:Middlewares/lvgl/src/widgets/lv_btnmatrix.c ****         btn_i++;
ARM GAS  /tmp/ccnMQJLR.s 			page 7


 318:Middlewares/lvgl/src/widgets/lv_btnmatrix.c ****         txt_i++;
 319:Middlewares/lvgl/src/widgets/lv_btnmatrix.c ****         if(strcmp(btnm->map_p[txt_i], "\n") == 0) txt_i++;
 320:Middlewares/lvgl/src/widgets/lv_btnmatrix.c ****     }
 321:Middlewares/lvgl/src/widgets/lv_btnmatrix.c **** 
 322:Middlewares/lvgl/src/widgets/lv_btnmatrix.c ****     if(btn_i == btnm->btn_cnt) return NULL;
 323:Middlewares/lvgl/src/widgets/lv_btnmatrix.c **** 
 324:Middlewares/lvgl/src/widgets/lv_btnmatrix.c ****     return btnm->map_p[txt_i];
 325:Middlewares/lvgl/src/widgets/lv_btnmatrix.c **** }
 326:Middlewares/lvgl/src/widgets/lv_btnmatrix.c **** 
 327:Middlewares/lvgl/src/widgets/lv_btnmatrix.c **** bool lv_btnmatrix_has_btn_ctrl(lv_obj_t * obj, uint16_t btn_id, lv_btnmatrix_ctrl_t ctrl)
 328:Middlewares/lvgl/src/widgets/lv_btnmatrix.c **** {
 329:Middlewares/lvgl/src/widgets/lv_btnmatrix.c ****     LV_ASSERT_OBJ(obj, MY_CLASS);
 330:Middlewares/lvgl/src/widgets/lv_btnmatrix.c **** 
 331:Middlewares/lvgl/src/widgets/lv_btnmatrix.c ****     lv_btnmatrix_t * btnm = (lv_btnmatrix_t *)obj;;
 332:Middlewares/lvgl/src/widgets/lv_btnmatrix.c ****     if(btn_id >= btnm->btn_cnt) return false;
 333:Middlewares/lvgl/src/widgets/lv_btnmatrix.c **** 
 334:Middlewares/lvgl/src/widgets/lv_btnmatrix.c ****     return (btnm->ctrl_bits[btn_id] & ctrl) ? true : false;
 335:Middlewares/lvgl/src/widgets/lv_btnmatrix.c **** }
 336:Middlewares/lvgl/src/widgets/lv_btnmatrix.c **** 
 337:Middlewares/lvgl/src/widgets/lv_btnmatrix.c **** bool lv_btnmatrix_get_one_checked(const lv_obj_t * obj)
 338:Middlewares/lvgl/src/widgets/lv_btnmatrix.c **** {
 339:Middlewares/lvgl/src/widgets/lv_btnmatrix.c ****     LV_ASSERT_OBJ(obj, MY_CLASS);
 340:Middlewares/lvgl/src/widgets/lv_btnmatrix.c **** 
 341:Middlewares/lvgl/src/widgets/lv_btnmatrix.c ****     lv_btnmatrix_t * btnm = (lv_btnmatrix_t *)obj;;
 342:Middlewares/lvgl/src/widgets/lv_btnmatrix.c **** 
 343:Middlewares/lvgl/src/widgets/lv_btnmatrix.c ****     return btnm->one_check;
 344:Middlewares/lvgl/src/widgets/lv_btnmatrix.c **** }
 345:Middlewares/lvgl/src/widgets/lv_btnmatrix.c **** 
 346:Middlewares/lvgl/src/widgets/lv_btnmatrix.c **** /**********************
 347:Middlewares/lvgl/src/widgets/lv_btnmatrix.c ****  *   STATIC FUNCTIONS
 348:Middlewares/lvgl/src/widgets/lv_btnmatrix.c ****  **********************/
 349:Middlewares/lvgl/src/widgets/lv_btnmatrix.c **** 
 350:Middlewares/lvgl/src/widgets/lv_btnmatrix.c **** static void lv_btnmatrix_constructor(const lv_obj_class_t * class_p, lv_obj_t * obj)
 351:Middlewares/lvgl/src/widgets/lv_btnmatrix.c **** {
 352:Middlewares/lvgl/src/widgets/lv_btnmatrix.c ****     LV_UNUSED(class_p);
 353:Middlewares/lvgl/src/widgets/lv_btnmatrix.c ****     LV_TRACE_OBJ_CREATE("begin");
 354:Middlewares/lvgl/src/widgets/lv_btnmatrix.c ****     lv_btnmatrix_t * btnm = (lv_btnmatrix_t *)obj;
 355:Middlewares/lvgl/src/widgets/lv_btnmatrix.c ****     btnm->btn_cnt        = 0;
 356:Middlewares/lvgl/src/widgets/lv_btnmatrix.c ****     btnm->btn_id_sel     = LV_BTNMATRIX_BTN_NONE;
 357:Middlewares/lvgl/src/widgets/lv_btnmatrix.c ****     btnm->button_areas   = NULL;
 358:Middlewares/lvgl/src/widgets/lv_btnmatrix.c ****     btnm->ctrl_bits      = NULL;
 359:Middlewares/lvgl/src/widgets/lv_btnmatrix.c ****     btnm->map_p          = NULL;
 360:Middlewares/lvgl/src/widgets/lv_btnmatrix.c ****     btnm->one_check      = 0;
 361:Middlewares/lvgl/src/widgets/lv_btnmatrix.c **** 
 362:Middlewares/lvgl/src/widgets/lv_btnmatrix.c ****     lv_btnmatrix_set_map(obj, lv_btnmatrix_def_map);
 363:Middlewares/lvgl/src/widgets/lv_btnmatrix.c **** 
 364:Middlewares/lvgl/src/widgets/lv_btnmatrix.c ****     LV_TRACE_OBJ_CREATE("finshed");
 365:Middlewares/lvgl/src/widgets/lv_btnmatrix.c **** }
 366:Middlewares/lvgl/src/widgets/lv_btnmatrix.c **** 
 367:Middlewares/lvgl/src/widgets/lv_btnmatrix.c **** static void lv_btnmatrix_destructor(const lv_obj_class_t * class_p, lv_obj_t * obj)
 368:Middlewares/lvgl/src/widgets/lv_btnmatrix.c **** {
 369:Middlewares/lvgl/src/widgets/lv_btnmatrix.c ****     LV_TRACE_OBJ_CREATE("begin");
 370:Middlewares/lvgl/src/widgets/lv_btnmatrix.c ****     LV_UNUSED(class_p);
 371:Middlewares/lvgl/src/widgets/lv_btnmatrix.c ****     lv_btnmatrix_t * btnm = (lv_btnmatrix_t *)obj;
 372:Middlewares/lvgl/src/widgets/lv_btnmatrix.c ****     lv_mem_free(btnm->button_areas);
 373:Middlewares/lvgl/src/widgets/lv_btnmatrix.c ****     lv_mem_free(btnm->ctrl_bits);
 374:Middlewares/lvgl/src/widgets/lv_btnmatrix.c ****     btnm->button_areas = NULL;
ARM GAS  /tmp/ccnMQJLR.s 			page 8


 375:Middlewares/lvgl/src/widgets/lv_btnmatrix.c ****     btnm->ctrl_bits = NULL;
 376:Middlewares/lvgl/src/widgets/lv_btnmatrix.c ****     LV_TRACE_OBJ_CREATE("finshed");
 377:Middlewares/lvgl/src/widgets/lv_btnmatrix.c **** }
 378:Middlewares/lvgl/src/widgets/lv_btnmatrix.c **** 
 379:Middlewares/lvgl/src/widgets/lv_btnmatrix.c **** static void lv_btnmatrix_event(const lv_obj_class_t * class_p, lv_event_t * e)
 380:Middlewares/lvgl/src/widgets/lv_btnmatrix.c **** {
 381:Middlewares/lvgl/src/widgets/lv_btnmatrix.c ****     LV_UNUSED(class_p);
 382:Middlewares/lvgl/src/widgets/lv_btnmatrix.c **** 
 383:Middlewares/lvgl/src/widgets/lv_btnmatrix.c ****     lv_res_t res;
 384:Middlewares/lvgl/src/widgets/lv_btnmatrix.c **** 
 385:Middlewares/lvgl/src/widgets/lv_btnmatrix.c ****     /*Call the ancestor's event handler*/
 386:Middlewares/lvgl/src/widgets/lv_btnmatrix.c ****     res = lv_obj_event_base(MY_CLASS, e);
 387:Middlewares/lvgl/src/widgets/lv_btnmatrix.c ****     if(res != LV_RES_OK) return;
 388:Middlewares/lvgl/src/widgets/lv_btnmatrix.c **** 
 389:Middlewares/lvgl/src/widgets/lv_btnmatrix.c ****     lv_event_code_t code = lv_event_get_code(e);
 390:Middlewares/lvgl/src/widgets/lv_btnmatrix.c ****     lv_obj_t * obj = lv_event_get_target(e);
 391:Middlewares/lvgl/src/widgets/lv_btnmatrix.c ****     lv_btnmatrix_t * btnm = (lv_btnmatrix_t *)obj;
 392:Middlewares/lvgl/src/widgets/lv_btnmatrix.c ****     lv_point_t p;
 393:Middlewares/lvgl/src/widgets/lv_btnmatrix.c **** 
 394:Middlewares/lvgl/src/widgets/lv_btnmatrix.c ****     if(code == LV_EVENT_STYLE_CHANGED) {
 395:Middlewares/lvgl/src/widgets/lv_btnmatrix.c ****         lv_btnmatrix_set_map(obj, btnm->map_p);
 396:Middlewares/lvgl/src/widgets/lv_btnmatrix.c ****     }
 397:Middlewares/lvgl/src/widgets/lv_btnmatrix.c ****     else if(code == LV_EVENT_SIZE_CHANGED) {
 398:Middlewares/lvgl/src/widgets/lv_btnmatrix.c ****         lv_btnmatrix_set_map(obj, btnm->map_p);
 399:Middlewares/lvgl/src/widgets/lv_btnmatrix.c ****     }
 400:Middlewares/lvgl/src/widgets/lv_btnmatrix.c ****     else if(code == LV_EVENT_PRESSED) {
 401:Middlewares/lvgl/src/widgets/lv_btnmatrix.c ****         void * param = lv_event_get_param(e);
 402:Middlewares/lvgl/src/widgets/lv_btnmatrix.c ****         invalidate_button_area(obj, btnm->btn_id_sel);
 403:Middlewares/lvgl/src/widgets/lv_btnmatrix.c **** 
 404:Middlewares/lvgl/src/widgets/lv_btnmatrix.c ****         lv_indev_type_t indev_type = lv_indev_get_type(lv_indev_get_act());
 405:Middlewares/lvgl/src/widgets/lv_btnmatrix.c ****         if(indev_type == LV_INDEV_TYPE_POINTER || indev_type == LV_INDEV_TYPE_BUTTON) {
 406:Middlewares/lvgl/src/widgets/lv_btnmatrix.c ****             uint16_t btn_pr;
 407:Middlewares/lvgl/src/widgets/lv_btnmatrix.c ****             /*Search the pressed area*/
 408:Middlewares/lvgl/src/widgets/lv_btnmatrix.c ****             lv_indev_get_point(param, &p);
 409:Middlewares/lvgl/src/widgets/lv_btnmatrix.c ****             btn_pr = get_button_from_point(obj, &p);
 410:Middlewares/lvgl/src/widgets/lv_btnmatrix.c ****             /*Handle the case where there is no button there*/
 411:Middlewares/lvgl/src/widgets/lv_btnmatrix.c ****             if(btn_pr != LV_BTNMATRIX_BTN_NONE) {
 412:Middlewares/lvgl/src/widgets/lv_btnmatrix.c ****                 if(button_is_inactive(btnm->ctrl_bits[btn_pr]) == false &&
 413:Middlewares/lvgl/src/widgets/lv_btnmatrix.c ****                    button_is_hidden(btnm->ctrl_bits[btn_pr]) == false) {
 414:Middlewares/lvgl/src/widgets/lv_btnmatrix.c ****                     btnm->btn_id_sel = btn_pr;
 415:Middlewares/lvgl/src/widgets/lv_btnmatrix.c ****                     invalidate_button_area(obj, btnm->btn_id_sel); /*Invalidate the new area*/
 416:Middlewares/lvgl/src/widgets/lv_btnmatrix.c ****                 }
 417:Middlewares/lvgl/src/widgets/lv_btnmatrix.c ****             }
 418:Middlewares/lvgl/src/widgets/lv_btnmatrix.c ****         }
 419:Middlewares/lvgl/src/widgets/lv_btnmatrix.c **** 
 420:Middlewares/lvgl/src/widgets/lv_btnmatrix.c ****         if(btnm->btn_id_sel != LV_BTNMATRIX_BTN_NONE) {
 421:Middlewares/lvgl/src/widgets/lv_btnmatrix.c ****             if(button_is_click_trig(btnm->ctrl_bits[btnm->btn_id_sel]) == false &&
 422:Middlewares/lvgl/src/widgets/lv_btnmatrix.c ****                button_is_inactive(btnm->ctrl_bits[btnm->btn_id_sel]) == false &&
 423:Middlewares/lvgl/src/widgets/lv_btnmatrix.c ****                button_is_hidden(btnm->ctrl_bits[btnm->btn_id_sel]) == false) {
 424:Middlewares/lvgl/src/widgets/lv_btnmatrix.c ****                 uint32_t b = btnm->btn_id_sel;
 425:Middlewares/lvgl/src/widgets/lv_btnmatrix.c ****                 res        = lv_event_send(obj, LV_EVENT_VALUE_CHANGED, &b);
 426:Middlewares/lvgl/src/widgets/lv_btnmatrix.c ****                 if(res != LV_RES_OK) return;
 427:Middlewares/lvgl/src/widgets/lv_btnmatrix.c ****             }
 428:Middlewares/lvgl/src/widgets/lv_btnmatrix.c ****         }
 429:Middlewares/lvgl/src/widgets/lv_btnmatrix.c ****     }
 430:Middlewares/lvgl/src/widgets/lv_btnmatrix.c ****     else if(code == LV_EVENT_PRESSING) {
 431:Middlewares/lvgl/src/widgets/lv_btnmatrix.c ****         void * param = lv_event_get_param(e);
ARM GAS  /tmp/ccnMQJLR.s 			page 9


 432:Middlewares/lvgl/src/widgets/lv_btnmatrix.c ****         uint16_t btn_pr = LV_BTNMATRIX_BTN_NONE;
 433:Middlewares/lvgl/src/widgets/lv_btnmatrix.c ****         /*Search the pressed area*/
 434:Middlewares/lvgl/src/widgets/lv_btnmatrix.c ****         lv_indev_t * indev = lv_indev_get_act();
 435:Middlewares/lvgl/src/widgets/lv_btnmatrix.c ****         lv_indev_type_t indev_type = lv_indev_get_type(indev);
 436:Middlewares/lvgl/src/widgets/lv_btnmatrix.c ****         if(indev_type == LV_INDEV_TYPE_ENCODER || indev_type == LV_INDEV_TYPE_KEYPAD) return;
 437:Middlewares/lvgl/src/widgets/lv_btnmatrix.c **** 
 438:Middlewares/lvgl/src/widgets/lv_btnmatrix.c ****         lv_indev_get_point(indev, &p);
 439:Middlewares/lvgl/src/widgets/lv_btnmatrix.c ****         btn_pr = get_button_from_point(obj, &p);
 440:Middlewares/lvgl/src/widgets/lv_btnmatrix.c ****         /*Invalidate to old and the new areas*/
 441:Middlewares/lvgl/src/widgets/lv_btnmatrix.c ****         if(btn_pr != btnm->btn_id_sel) {
 442:Middlewares/lvgl/src/widgets/lv_btnmatrix.c ****             if(btnm->btn_id_sel != LV_BTNMATRIX_BTN_NONE) {
 443:Middlewares/lvgl/src/widgets/lv_btnmatrix.c ****                 invalidate_button_area(obj, btnm->btn_id_sel);
 444:Middlewares/lvgl/src/widgets/lv_btnmatrix.c ****             }
 445:Middlewares/lvgl/src/widgets/lv_btnmatrix.c **** 
 446:Middlewares/lvgl/src/widgets/lv_btnmatrix.c ****             btnm->btn_id_sel = btn_pr;
 447:Middlewares/lvgl/src/widgets/lv_btnmatrix.c **** 
 448:Middlewares/lvgl/src/widgets/lv_btnmatrix.c ****             lv_indev_reset_long_press(param); /*Start the log press time again on the new button*/
 449:Middlewares/lvgl/src/widgets/lv_btnmatrix.c ****             if(btn_pr != LV_BTNMATRIX_BTN_NONE &&
 450:Middlewares/lvgl/src/widgets/lv_btnmatrix.c ****                button_is_inactive(btnm->ctrl_bits[btn_pr]) == false &&
 451:Middlewares/lvgl/src/widgets/lv_btnmatrix.c ****                button_is_hidden(btnm->ctrl_bits[btn_pr]) == false) {
 452:Middlewares/lvgl/src/widgets/lv_btnmatrix.c ****                 invalidate_button_area(obj, btn_pr);
 453:Middlewares/lvgl/src/widgets/lv_btnmatrix.c ****                 /*Send VALUE_CHANGED for the newly pressed button*/
 454:Middlewares/lvgl/src/widgets/lv_btnmatrix.c ****                 if(button_is_click_trig(btnm->ctrl_bits[btn_pr]) == false) {
 455:Middlewares/lvgl/src/widgets/lv_btnmatrix.c ****                     uint32_t b = btn_pr;
 456:Middlewares/lvgl/src/widgets/lv_btnmatrix.c ****                     res = lv_event_send(obj, LV_EVENT_VALUE_CHANGED, &b);
 457:Middlewares/lvgl/src/widgets/lv_btnmatrix.c ****                     if(res != LV_RES_OK) return;
 458:Middlewares/lvgl/src/widgets/lv_btnmatrix.c ****                 }
 459:Middlewares/lvgl/src/widgets/lv_btnmatrix.c ****             }
 460:Middlewares/lvgl/src/widgets/lv_btnmatrix.c ****         }
 461:Middlewares/lvgl/src/widgets/lv_btnmatrix.c ****     }
 462:Middlewares/lvgl/src/widgets/lv_btnmatrix.c ****     else if(code == LV_EVENT_RELEASED) {
 463:Middlewares/lvgl/src/widgets/lv_btnmatrix.c ****         if(btnm->btn_id_sel != LV_BTNMATRIX_BTN_NONE) {
 464:Middlewares/lvgl/src/widgets/lv_btnmatrix.c ****             /*Toggle the button if enabled*/
 465:Middlewares/lvgl/src/widgets/lv_btnmatrix.c ****             if(button_is_checkable(btnm->ctrl_bits[btnm->btn_id_sel]) &&
 466:Middlewares/lvgl/src/widgets/lv_btnmatrix.c ****                !button_is_inactive(btnm->ctrl_bits[btnm->btn_id_sel])) {
 467:Middlewares/lvgl/src/widgets/lv_btnmatrix.c ****                 if(button_get_checked(btnm->ctrl_bits[btnm->btn_id_sel]) && !btnm->one_check) {
 468:Middlewares/lvgl/src/widgets/lv_btnmatrix.c ****                     btnm->ctrl_bits[btnm->btn_id_sel] &= (~LV_BTNMATRIX_CTRL_CHECKED);
 469:Middlewares/lvgl/src/widgets/lv_btnmatrix.c ****                 }
 470:Middlewares/lvgl/src/widgets/lv_btnmatrix.c ****                 else {
 471:Middlewares/lvgl/src/widgets/lv_btnmatrix.c ****                     btnm->ctrl_bits[btnm->btn_id_sel] |= LV_BTNMATRIX_CTRL_CHECKED;
 472:Middlewares/lvgl/src/widgets/lv_btnmatrix.c ****                 }
 473:Middlewares/lvgl/src/widgets/lv_btnmatrix.c ****                 if(btnm->one_check) make_one_button_checked(obj, btnm->btn_id_sel);
 474:Middlewares/lvgl/src/widgets/lv_btnmatrix.c ****             }
 475:Middlewares/lvgl/src/widgets/lv_btnmatrix.c **** 
 476:Middlewares/lvgl/src/widgets/lv_btnmatrix.c **** 
 477:Middlewares/lvgl/src/widgets/lv_btnmatrix.c ****             if(button_is_click_trig(btnm->ctrl_bits[btnm->btn_id_sel]) == true &&
 478:Middlewares/lvgl/src/widgets/lv_btnmatrix.c ****                button_is_inactive(btnm->ctrl_bits[btnm->btn_id_sel]) == false &&
 479:Middlewares/lvgl/src/widgets/lv_btnmatrix.c ****                button_is_hidden(btnm->ctrl_bits[btnm->btn_id_sel]) == false) {
 480:Middlewares/lvgl/src/widgets/lv_btnmatrix.c ****                 uint32_t b = btnm->btn_id_sel;
 481:Middlewares/lvgl/src/widgets/lv_btnmatrix.c ****                 res        = lv_event_send(obj, LV_EVENT_VALUE_CHANGED, &b);
 482:Middlewares/lvgl/src/widgets/lv_btnmatrix.c ****                 if(res != LV_RES_OK) return;
 483:Middlewares/lvgl/src/widgets/lv_btnmatrix.c ****             }
 484:Middlewares/lvgl/src/widgets/lv_btnmatrix.c ****         }
 485:Middlewares/lvgl/src/widgets/lv_btnmatrix.c **** 
 486:Middlewares/lvgl/src/widgets/lv_btnmatrix.c ****         /*Invalidate to old pressed area*/;
 487:Middlewares/lvgl/src/widgets/lv_btnmatrix.c ****         invalidate_button_area(obj, btnm->btn_id_sel);
 488:Middlewares/lvgl/src/widgets/lv_btnmatrix.c **** 
ARM GAS  /tmp/ccnMQJLR.s 			page 10


 489:Middlewares/lvgl/src/widgets/lv_btnmatrix.c ****         lv_indev_type_t indev_type = lv_indev_get_type(lv_indev_get_act());
 490:Middlewares/lvgl/src/widgets/lv_btnmatrix.c ****         if(indev_type == LV_INDEV_TYPE_POINTER || indev_type == LV_INDEV_TYPE_BUTTON) {
 491:Middlewares/lvgl/src/widgets/lv_btnmatrix.c ****             btnm->btn_id_sel = LV_BTNMATRIX_BTN_NONE;
 492:Middlewares/lvgl/src/widgets/lv_btnmatrix.c ****         }
 493:Middlewares/lvgl/src/widgets/lv_btnmatrix.c ****     }
 494:Middlewares/lvgl/src/widgets/lv_btnmatrix.c ****     else if(code == LV_EVENT_LONG_PRESSED_REPEAT) {
 495:Middlewares/lvgl/src/widgets/lv_btnmatrix.c ****         if(btnm->btn_id_sel != LV_BTNMATRIX_BTN_NONE) {
 496:Middlewares/lvgl/src/widgets/lv_btnmatrix.c ****             if(button_is_repeat_disabled(btnm->ctrl_bits[btnm->btn_id_sel]) == false &&
 497:Middlewares/lvgl/src/widgets/lv_btnmatrix.c ****                button_is_inactive(btnm->ctrl_bits[btnm->btn_id_sel]) == false &&
 498:Middlewares/lvgl/src/widgets/lv_btnmatrix.c ****                button_is_hidden(btnm->ctrl_bits[btnm->btn_id_sel]) == false) {
 499:Middlewares/lvgl/src/widgets/lv_btnmatrix.c ****                 uint32_t b = btnm->btn_id_sel;
 500:Middlewares/lvgl/src/widgets/lv_btnmatrix.c ****                 res        = lv_event_send(obj, LV_EVENT_VALUE_CHANGED, &b);
 501:Middlewares/lvgl/src/widgets/lv_btnmatrix.c ****                 if(res != LV_RES_OK) return;
 502:Middlewares/lvgl/src/widgets/lv_btnmatrix.c ****             }
 503:Middlewares/lvgl/src/widgets/lv_btnmatrix.c ****         }
 504:Middlewares/lvgl/src/widgets/lv_btnmatrix.c ****     }
 505:Middlewares/lvgl/src/widgets/lv_btnmatrix.c ****     else if(code == LV_EVENT_PRESS_LOST) {
 506:Middlewares/lvgl/src/widgets/lv_btnmatrix.c ****         invalidate_button_area(obj, btnm->btn_id_sel);
 507:Middlewares/lvgl/src/widgets/lv_btnmatrix.c ****         btnm->btn_id_sel = LV_BTNMATRIX_BTN_NONE;
 508:Middlewares/lvgl/src/widgets/lv_btnmatrix.c ****     }
 509:Middlewares/lvgl/src/widgets/lv_btnmatrix.c ****     else if(code == LV_EVENT_FOCUSED) {
 510:Middlewares/lvgl/src/widgets/lv_btnmatrix.c ****         lv_indev_t * indev = lv_event_get_param(e);
 511:Middlewares/lvgl/src/widgets/lv_btnmatrix.c ****         lv_indev_type_t indev_type = lv_indev_get_type(indev);
 512:Middlewares/lvgl/src/widgets/lv_btnmatrix.c **** 
 513:Middlewares/lvgl/src/widgets/lv_btnmatrix.c ****         /*If not focused by an input device assume the last input device*/
 514:Middlewares/lvgl/src/widgets/lv_btnmatrix.c ****         if(indev == NULL) {
 515:Middlewares/lvgl/src/widgets/lv_btnmatrix.c ****             indev = lv_indev_get_next(NULL);
 516:Middlewares/lvgl/src/widgets/lv_btnmatrix.c ****             indev_type = lv_indev_get_type(indev);
 517:Middlewares/lvgl/src/widgets/lv_btnmatrix.c ****         }
 518:Middlewares/lvgl/src/widgets/lv_btnmatrix.c **** 
 519:Middlewares/lvgl/src/widgets/lv_btnmatrix.c ****         bool editing = lv_group_get_editing(lv_obj_get_group(obj));
 520:Middlewares/lvgl/src/widgets/lv_btnmatrix.c ****         /*Focus the first button if there is not selected button*/
 521:Middlewares/lvgl/src/widgets/lv_btnmatrix.c ****         if(btnm->btn_id_sel == LV_BTNMATRIX_BTN_NONE) {
 522:Middlewares/lvgl/src/widgets/lv_btnmatrix.c ****             if (indev_type == LV_INDEV_TYPE_KEYPAD || (indev_type == LV_INDEV_TYPE_ENCODER && editi
 523:Middlewares/lvgl/src/widgets/lv_btnmatrix.c ****                 uint32_t b = 0;
 524:Middlewares/lvgl/src/widgets/lv_btnmatrix.c ****                 if(btnm->one_check) {
 525:Middlewares/lvgl/src/widgets/lv_btnmatrix.c ****                     while(button_is_hidden(btnm->ctrl_bits[b]) || button_is_inactive(btnm->ctrl_bit
 526:Middlewares/lvgl/src/widgets/lv_btnmatrix.c ****                 } else {
 527:Middlewares/lvgl/src/widgets/lv_btnmatrix.c ****                     while(button_is_hidden(btnm->ctrl_bits[b]) || button_is_inactive(btnm->ctrl_bit
 528:Middlewares/lvgl/src/widgets/lv_btnmatrix.c ****                 }
 529:Middlewares/lvgl/src/widgets/lv_btnmatrix.c **** 
 530:Middlewares/lvgl/src/widgets/lv_btnmatrix.c ****                 btnm->btn_id_sel = b;
 531:Middlewares/lvgl/src/widgets/lv_btnmatrix.c ****             } else {
 532:Middlewares/lvgl/src/widgets/lv_btnmatrix.c ****                 btnm->btn_id_sel = LV_BTNMATRIX_BTN_NONE;
 533:Middlewares/lvgl/src/widgets/lv_btnmatrix.c ****             }
 534:Middlewares/lvgl/src/widgets/lv_btnmatrix.c ****         }
 535:Middlewares/lvgl/src/widgets/lv_btnmatrix.c ****     }
 536:Middlewares/lvgl/src/widgets/lv_btnmatrix.c ****     else if(code == LV_EVENT_DEFOCUSED || code == LV_EVENT_LEAVE) {
 537:Middlewares/lvgl/src/widgets/lv_btnmatrix.c ****         if(btnm->btn_id_sel != LV_BTNMATRIX_BTN_NONE) invalidate_button_area(obj, btnm->btn_id_sel)
 538:Middlewares/lvgl/src/widgets/lv_btnmatrix.c ****         btnm->btn_id_sel = LV_BTNMATRIX_BTN_NONE;
 539:Middlewares/lvgl/src/widgets/lv_btnmatrix.c ****     }
 540:Middlewares/lvgl/src/widgets/lv_btnmatrix.c ****     else if(code == LV_EVENT_KEY) {
 541:Middlewares/lvgl/src/widgets/lv_btnmatrix.c **** 
 542:Middlewares/lvgl/src/widgets/lv_btnmatrix.c ****         invalidate_button_area(obj, btnm->btn_id_sel);
 543:Middlewares/lvgl/src/widgets/lv_btnmatrix.c **** 
 544:Middlewares/lvgl/src/widgets/lv_btnmatrix.c ****         char c = *((char *)lv_event_get_param(e));
 545:Middlewares/lvgl/src/widgets/lv_btnmatrix.c ****         if(c == LV_KEY_RIGHT) {
ARM GAS  /tmp/ccnMQJLR.s 			page 11


 546:Middlewares/lvgl/src/widgets/lv_btnmatrix.c ****             if(btnm->btn_id_sel == LV_BTNMATRIX_BTN_NONE)  btnm->btn_id_sel = 0;
 547:Middlewares/lvgl/src/widgets/lv_btnmatrix.c ****             else btnm->btn_id_sel++;
 548:Middlewares/lvgl/src/widgets/lv_btnmatrix.c ****             if(btnm->btn_id_sel >= btnm->btn_cnt) btnm->btn_id_sel = 0;
 549:Middlewares/lvgl/src/widgets/lv_btnmatrix.c **** 
 550:Middlewares/lvgl/src/widgets/lv_btnmatrix.c ****             while(button_is_hidden(btnm->ctrl_bits[btnm->btn_id_sel]) || button_is_inactive(btnm->c
 551:Middlewares/lvgl/src/widgets/lv_btnmatrix.c ****                 btnm->btn_id_sel++;
 552:Middlewares/lvgl/src/widgets/lv_btnmatrix.c ****                 if(btnm->btn_id_sel >= btnm->btn_cnt) btnm->btn_id_sel = 0;
 553:Middlewares/lvgl/src/widgets/lv_btnmatrix.c ****             }
 554:Middlewares/lvgl/src/widgets/lv_btnmatrix.c ****         }
 555:Middlewares/lvgl/src/widgets/lv_btnmatrix.c ****         else if(c == LV_KEY_LEFT) {
 556:Middlewares/lvgl/src/widgets/lv_btnmatrix.c ****             if(btnm->btn_id_sel == LV_BTNMATRIX_BTN_NONE) btnm->btn_id_sel = 0;
 557:Middlewares/lvgl/src/widgets/lv_btnmatrix.c **** 
 558:Middlewares/lvgl/src/widgets/lv_btnmatrix.c ****             if(btnm->btn_id_sel == 0) btnm->btn_id_sel = btnm->btn_cnt - 1;
 559:Middlewares/lvgl/src/widgets/lv_btnmatrix.c ****             else if(btnm->btn_id_sel > 0) btnm->btn_id_sel--;
 560:Middlewares/lvgl/src/widgets/lv_btnmatrix.c **** 
 561:Middlewares/lvgl/src/widgets/lv_btnmatrix.c ****             while(button_is_hidden(btnm->ctrl_bits[btnm->btn_id_sel]) || button_is_inactive(btnm->c
 562:Middlewares/lvgl/src/widgets/lv_btnmatrix.c ****                 if(btnm->btn_id_sel > 0) btnm->btn_id_sel--;
 563:Middlewares/lvgl/src/widgets/lv_btnmatrix.c ****                 else btnm->btn_id_sel = btnm->btn_cnt - 1;
 564:Middlewares/lvgl/src/widgets/lv_btnmatrix.c ****             }
 565:Middlewares/lvgl/src/widgets/lv_btnmatrix.c ****         }
 566:Middlewares/lvgl/src/widgets/lv_btnmatrix.c ****         else if(c == LV_KEY_DOWN) {
 567:Middlewares/lvgl/src/widgets/lv_btnmatrix.c ****             lv_coord_t col_gap = lv_obj_get_style_pad_column(obj, LV_PART_MAIN);
 568:Middlewares/lvgl/src/widgets/lv_btnmatrix.c ****             /*Find the area below the the current*/
 569:Middlewares/lvgl/src/widgets/lv_btnmatrix.c ****             if(btnm->btn_id_sel == LV_BTNMATRIX_BTN_NONE) {
 570:Middlewares/lvgl/src/widgets/lv_btnmatrix.c ****                 btnm->btn_id_sel = 0;
 571:Middlewares/lvgl/src/widgets/lv_btnmatrix.c ****                 while(button_is_hidden(btnm->ctrl_bits[btnm->btn_id_sel]) || button_is_inactive(btn
 572:Middlewares/lvgl/src/widgets/lv_btnmatrix.c ****                     btnm->btn_id_sel++;
 573:Middlewares/lvgl/src/widgets/lv_btnmatrix.c ****                     if(btnm->btn_id_sel >= btnm->btn_cnt) btnm->btn_id_sel = 0;
 574:Middlewares/lvgl/src/widgets/lv_btnmatrix.c ****                 }
 575:Middlewares/lvgl/src/widgets/lv_btnmatrix.c ****             }
 576:Middlewares/lvgl/src/widgets/lv_btnmatrix.c ****             else {
 577:Middlewares/lvgl/src/widgets/lv_btnmatrix.c ****                 uint16_t area_below;
 578:Middlewares/lvgl/src/widgets/lv_btnmatrix.c ****                 lv_coord_t pr_center =
 579:Middlewares/lvgl/src/widgets/lv_btnmatrix.c ****                     btnm->button_areas[btnm->btn_id_sel].x1 + (lv_area_get_width(&btnm->button_area
 580:Middlewares/lvgl/src/widgets/lv_btnmatrix.c **** 
 581:Middlewares/lvgl/src/widgets/lv_btnmatrix.c ****                 for(area_below = btnm->btn_id_sel; area_below < btnm->btn_cnt; area_below++) {
 582:Middlewares/lvgl/src/widgets/lv_btnmatrix.c ****                     if(btnm->button_areas[area_below].y1 > btnm->button_areas[btnm->btn_id_sel].y1 
 583:Middlewares/lvgl/src/widgets/lv_btnmatrix.c ****                        pr_center >= btnm->button_areas[area_below].x1 &&
 584:Middlewares/lvgl/src/widgets/lv_btnmatrix.c ****                        pr_center <= btnm->button_areas[area_below].x2 + col_gap &&
 585:Middlewares/lvgl/src/widgets/lv_btnmatrix.c ****                        button_is_inactive(btnm->ctrl_bits[area_below]) == false &&
 586:Middlewares/lvgl/src/widgets/lv_btnmatrix.c ****                        button_is_hidden(btnm->ctrl_bits[area_below]) == false) {
 587:Middlewares/lvgl/src/widgets/lv_btnmatrix.c ****                         break;
 588:Middlewares/lvgl/src/widgets/lv_btnmatrix.c ****                     }
 589:Middlewares/lvgl/src/widgets/lv_btnmatrix.c ****                 }
 590:Middlewares/lvgl/src/widgets/lv_btnmatrix.c **** 
 591:Middlewares/lvgl/src/widgets/lv_btnmatrix.c ****                 if(area_below < btnm->btn_cnt) btnm->btn_id_sel = area_below;
 592:Middlewares/lvgl/src/widgets/lv_btnmatrix.c ****             }
 593:Middlewares/lvgl/src/widgets/lv_btnmatrix.c ****         }
 594:Middlewares/lvgl/src/widgets/lv_btnmatrix.c ****         else if(c == LV_KEY_UP) {
 595:Middlewares/lvgl/src/widgets/lv_btnmatrix.c ****             lv_coord_t col_gap = lv_obj_get_style_pad_column(obj, LV_PART_MAIN);
 596:Middlewares/lvgl/src/widgets/lv_btnmatrix.c ****             /*Find the area below the the current*/
 597:Middlewares/lvgl/src/widgets/lv_btnmatrix.c ****             if(btnm->btn_id_sel == LV_BTNMATRIX_BTN_NONE) {
 598:Middlewares/lvgl/src/widgets/lv_btnmatrix.c ****                 btnm->btn_id_sel = 0;
 599:Middlewares/lvgl/src/widgets/lv_btnmatrix.c ****                 while(button_is_hidden(btnm->ctrl_bits[btnm->btn_id_sel]) || button_is_inactive(btn
 600:Middlewares/lvgl/src/widgets/lv_btnmatrix.c ****                     btnm->btn_id_sel++;
 601:Middlewares/lvgl/src/widgets/lv_btnmatrix.c ****                     if(btnm->btn_id_sel >= btnm->btn_cnt) btnm->btn_id_sel = 0;
 602:Middlewares/lvgl/src/widgets/lv_btnmatrix.c ****                 }
ARM GAS  /tmp/ccnMQJLR.s 			page 12


 603:Middlewares/lvgl/src/widgets/lv_btnmatrix.c ****             }
 604:Middlewares/lvgl/src/widgets/lv_btnmatrix.c ****             else {
 605:Middlewares/lvgl/src/widgets/lv_btnmatrix.c ****                 int16_t area_above;
 606:Middlewares/lvgl/src/widgets/lv_btnmatrix.c ****                 lv_coord_t pr_center =
 607:Middlewares/lvgl/src/widgets/lv_btnmatrix.c ****                     btnm->button_areas[btnm->btn_id_sel].x1 + (lv_area_get_width(&btnm->button_area
 608:Middlewares/lvgl/src/widgets/lv_btnmatrix.c **** 
 609:Middlewares/lvgl/src/widgets/lv_btnmatrix.c ****                 for(area_above = btnm->btn_id_sel; area_above >= 0; area_above--) {
 610:Middlewares/lvgl/src/widgets/lv_btnmatrix.c ****                     if(btnm->button_areas[area_above].y1 < btnm->button_areas[btnm->btn_id_sel].y1 
 611:Middlewares/lvgl/src/widgets/lv_btnmatrix.c ****                        pr_center >= btnm->button_areas[area_above].x1 - col_gap &&
 612:Middlewares/lvgl/src/widgets/lv_btnmatrix.c ****                        pr_center <= btnm->button_areas[area_above].x2 &&
 613:Middlewares/lvgl/src/widgets/lv_btnmatrix.c ****                        button_is_inactive(btnm->ctrl_bits[area_above]) == false &&
 614:Middlewares/lvgl/src/widgets/lv_btnmatrix.c ****                        button_is_hidden(btnm->ctrl_bits[area_above]) == false) {
 615:Middlewares/lvgl/src/widgets/lv_btnmatrix.c ****                         break;
 616:Middlewares/lvgl/src/widgets/lv_btnmatrix.c ****                     }
 617:Middlewares/lvgl/src/widgets/lv_btnmatrix.c ****                 }
 618:Middlewares/lvgl/src/widgets/lv_btnmatrix.c ****                 if(area_above >= 0) btnm->btn_id_sel = area_above;
 619:Middlewares/lvgl/src/widgets/lv_btnmatrix.c ****             }
 620:Middlewares/lvgl/src/widgets/lv_btnmatrix.c ****         }
 621:Middlewares/lvgl/src/widgets/lv_btnmatrix.c **** 
 622:Middlewares/lvgl/src/widgets/lv_btnmatrix.c ****         invalidate_button_area(obj, btnm->btn_id_sel);
 623:Middlewares/lvgl/src/widgets/lv_btnmatrix.c ****     } else if(code == LV_EVENT_DRAW_MAIN) {
 624:Middlewares/lvgl/src/widgets/lv_btnmatrix.c ****         draw_main(e);
 625:Middlewares/lvgl/src/widgets/lv_btnmatrix.c ****     }
 626:Middlewares/lvgl/src/widgets/lv_btnmatrix.c **** 
 627:Middlewares/lvgl/src/widgets/lv_btnmatrix.c **** }
 628:Middlewares/lvgl/src/widgets/lv_btnmatrix.c **** 
 629:Middlewares/lvgl/src/widgets/lv_btnmatrix.c **** static void draw_main(lv_event_t * e)
 630:Middlewares/lvgl/src/widgets/lv_btnmatrix.c **** {
 631:Middlewares/lvgl/src/widgets/lv_btnmatrix.c ****     lv_obj_t * obj = lv_event_get_target(e);
 632:Middlewares/lvgl/src/widgets/lv_btnmatrix.c ****     lv_btnmatrix_t * btnm = (lv_btnmatrix_t *)obj;
 633:Middlewares/lvgl/src/widgets/lv_btnmatrix.c ****     if(btnm->btn_cnt == 0) return;
 634:Middlewares/lvgl/src/widgets/lv_btnmatrix.c **** 
 635:Middlewares/lvgl/src/widgets/lv_btnmatrix.c ****     const lv_area_t * clip_area = lv_event_get_param(e);
 636:Middlewares/lvgl/src/widgets/lv_btnmatrix.c ****     obj->skip_trans = 1;
 637:Middlewares/lvgl/src/widgets/lv_btnmatrix.c **** 
 638:Middlewares/lvgl/src/widgets/lv_btnmatrix.c ****     lv_area_t area_obj;
 639:Middlewares/lvgl/src/widgets/lv_btnmatrix.c ****     lv_obj_get_coords(obj, &area_obj);
 640:Middlewares/lvgl/src/widgets/lv_btnmatrix.c **** 
 641:Middlewares/lvgl/src/widgets/lv_btnmatrix.c ****     lv_area_t btn_area;
 642:Middlewares/lvgl/src/widgets/lv_btnmatrix.c **** 
 643:Middlewares/lvgl/src/widgets/lv_btnmatrix.c ****     uint16_t btn_i = 0;
 644:Middlewares/lvgl/src/widgets/lv_btnmatrix.c ****     uint16_t txt_i = 0;
 645:Middlewares/lvgl/src/widgets/lv_btnmatrix.c **** 
 646:Middlewares/lvgl/src/widgets/lv_btnmatrix.c ****     lv_draw_rect_dsc_t draw_rect_dsc_act;
 647:Middlewares/lvgl/src/widgets/lv_btnmatrix.c ****     lv_draw_label_dsc_t draw_label_dsc_act;
 648:Middlewares/lvgl/src/widgets/lv_btnmatrix.c **** 
 649:Middlewares/lvgl/src/widgets/lv_btnmatrix.c ****     lv_draw_rect_dsc_t draw_rect_dsc_def;
 650:Middlewares/lvgl/src/widgets/lv_btnmatrix.c ****     lv_draw_label_dsc_t draw_label_dsc_def;
 651:Middlewares/lvgl/src/widgets/lv_btnmatrix.c **** 
 652:Middlewares/lvgl/src/widgets/lv_btnmatrix.c **** 
 653:Middlewares/lvgl/src/widgets/lv_btnmatrix.c ****     lv_state_t state_ori = obj->state;
 654:Middlewares/lvgl/src/widgets/lv_btnmatrix.c ****     obj->state = LV_STATE_DEFAULT;
 655:Middlewares/lvgl/src/widgets/lv_btnmatrix.c ****     obj->skip_trans = 1;
 656:Middlewares/lvgl/src/widgets/lv_btnmatrix.c ****     lv_draw_rect_dsc_init(&draw_rect_dsc_def);
 657:Middlewares/lvgl/src/widgets/lv_btnmatrix.c ****     lv_draw_label_dsc_init(&draw_label_dsc_def);
 658:Middlewares/lvgl/src/widgets/lv_btnmatrix.c ****     lv_obj_init_draw_rect_dsc(obj, LV_PART_ITEMS, &draw_rect_dsc_def);
 659:Middlewares/lvgl/src/widgets/lv_btnmatrix.c ****     lv_obj_init_draw_label_dsc(obj, LV_PART_ITEMS, &draw_label_dsc_def);
ARM GAS  /tmp/ccnMQJLR.s 			page 13


 660:Middlewares/lvgl/src/widgets/lv_btnmatrix.c ****     obj->skip_trans = 0;
 661:Middlewares/lvgl/src/widgets/lv_btnmatrix.c ****     obj->state = state_ori;
 662:Middlewares/lvgl/src/widgets/lv_btnmatrix.c **** 
 663:Middlewares/lvgl/src/widgets/lv_btnmatrix.c ****     lv_coord_t ptop = lv_obj_get_style_pad_top(obj, LV_PART_MAIN);
 664:Middlewares/lvgl/src/widgets/lv_btnmatrix.c ****     lv_coord_t pbottom = lv_obj_get_style_pad_bottom(obj, LV_PART_MAIN);
 665:Middlewares/lvgl/src/widgets/lv_btnmatrix.c ****     lv_coord_t pleft = lv_obj_get_style_pad_left(obj, LV_PART_MAIN);
 666:Middlewares/lvgl/src/widgets/lv_btnmatrix.c ****     lv_coord_t pright = lv_obj_get_style_pad_right(obj, LV_PART_MAIN);
 667:Middlewares/lvgl/src/widgets/lv_btnmatrix.c **** 
 668:Middlewares/lvgl/src/widgets/lv_btnmatrix.c **** #if LV_USE_ARABIC_PERSIAN_CHARS
 669:Middlewares/lvgl/src/widgets/lv_btnmatrix.c ****     const size_t txt_ap_size = 256 ;
 670:Middlewares/lvgl/src/widgets/lv_btnmatrix.c ****     char * txt_ap = lv_mem_buf_get(txt_ap_size);
 671:Middlewares/lvgl/src/widgets/lv_btnmatrix.c **** #endif
 672:Middlewares/lvgl/src/widgets/lv_btnmatrix.c **** 
 673:Middlewares/lvgl/src/widgets/lv_btnmatrix.c ****     lv_obj_draw_part_dsc_t dsc;
 674:Middlewares/lvgl/src/widgets/lv_btnmatrix.c ****     lv_obj_draw_dsc_init(&dsc, clip_area);
 675:Middlewares/lvgl/src/widgets/lv_btnmatrix.c ****     dsc.part = LV_PART_ITEMS;
 676:Middlewares/lvgl/src/widgets/lv_btnmatrix.c ****     dsc.rect_dsc = &draw_rect_dsc_act;
 677:Middlewares/lvgl/src/widgets/lv_btnmatrix.c ****     dsc.label_dsc = &draw_label_dsc_act;
 678:Middlewares/lvgl/src/widgets/lv_btnmatrix.c **** 
 679:Middlewares/lvgl/src/widgets/lv_btnmatrix.c ****     for(btn_i = 0; btn_i < btnm->btn_cnt; btn_i++, txt_i++) {
 680:Middlewares/lvgl/src/widgets/lv_btnmatrix.c ****         /*Search the next valid text in the map*/
 681:Middlewares/lvgl/src/widgets/lv_btnmatrix.c ****         while(strcmp(btnm->map_p[txt_i], "\n") == 0) {
 682:Middlewares/lvgl/src/widgets/lv_btnmatrix.c ****             txt_i++;
 683:Middlewares/lvgl/src/widgets/lv_btnmatrix.c ****         }
 684:Middlewares/lvgl/src/widgets/lv_btnmatrix.c **** 
 685:Middlewares/lvgl/src/widgets/lv_btnmatrix.c ****         /*Skip hidden buttons*/
 686:Middlewares/lvgl/src/widgets/lv_btnmatrix.c ****         if(button_is_hidden(btnm->ctrl_bits[btn_i])) continue;
 687:Middlewares/lvgl/src/widgets/lv_btnmatrix.c **** 
 688:Middlewares/lvgl/src/widgets/lv_btnmatrix.c ****         /*Get the state of the button*/
 689:Middlewares/lvgl/src/widgets/lv_btnmatrix.c ****         lv_state_t btn_state = LV_STATE_DEFAULT;
 690:Middlewares/lvgl/src/widgets/lv_btnmatrix.c ****         if(button_get_checked(btnm->ctrl_bits[btn_i])) btn_state |= LV_STATE_CHECKED;
 691:Middlewares/lvgl/src/widgets/lv_btnmatrix.c ****         if(button_is_inactive(btnm->ctrl_bits[btn_i])) btn_state |= LV_STATE_DISABLED;
 692:Middlewares/lvgl/src/widgets/lv_btnmatrix.c ****         if(btn_i == btnm->btn_id_sel) {
 693:Middlewares/lvgl/src/widgets/lv_btnmatrix.c ****             if(state_ori & LV_STATE_PRESSED) btn_state |= LV_STATE_PRESSED;
 694:Middlewares/lvgl/src/widgets/lv_btnmatrix.c ****             if(state_ori & LV_STATE_FOCUSED) btn_state |= LV_STATE_FOCUSED;
 695:Middlewares/lvgl/src/widgets/lv_btnmatrix.c ****             if(state_ori & LV_STATE_FOCUS_KEY) btn_state |= LV_STATE_FOCUS_KEY;
 696:Middlewares/lvgl/src/widgets/lv_btnmatrix.c ****             if(state_ori & LV_STATE_EDITED) btn_state |= LV_STATE_EDITED;
 697:Middlewares/lvgl/src/widgets/lv_btnmatrix.c ****         }
 698:Middlewares/lvgl/src/widgets/lv_btnmatrix.c **** 
 699:Middlewares/lvgl/src/widgets/lv_btnmatrix.c ****         /*Get the button's area*/
 700:Middlewares/lvgl/src/widgets/lv_btnmatrix.c ****         lv_area_copy(&btn_area, &btnm->button_areas[btn_i]);
 701:Middlewares/lvgl/src/widgets/lv_btnmatrix.c ****         btn_area.x1 += area_obj.x1;
 702:Middlewares/lvgl/src/widgets/lv_btnmatrix.c ****         btn_area.y1 += area_obj.y1;
 703:Middlewares/lvgl/src/widgets/lv_btnmatrix.c ****         btn_area.x2 += area_obj.x1;
 704:Middlewares/lvgl/src/widgets/lv_btnmatrix.c ****         btn_area.y2 += area_obj.y1;
 705:Middlewares/lvgl/src/widgets/lv_btnmatrix.c **** 
 706:Middlewares/lvgl/src/widgets/lv_btnmatrix.c ****         /*Set up the draw descriptors*/
 707:Middlewares/lvgl/src/widgets/lv_btnmatrix.c ****         if(btn_state == LV_STATE_DEFAULT) {
 708:Middlewares/lvgl/src/widgets/lv_btnmatrix.c ****             lv_memcpy(&draw_rect_dsc_act, &draw_rect_dsc_def, sizeof(lv_draw_rect_dsc_t));
 709:Middlewares/lvgl/src/widgets/lv_btnmatrix.c ****             lv_memcpy(&draw_label_dsc_act, &draw_label_dsc_def, sizeof(lv_draw_label_dsc_t));
 710:Middlewares/lvgl/src/widgets/lv_btnmatrix.c ****         }
 711:Middlewares/lvgl/src/widgets/lv_btnmatrix.c ****         /*In other cases get the styles directly without caching them*/
 712:Middlewares/lvgl/src/widgets/lv_btnmatrix.c ****         else {
 713:Middlewares/lvgl/src/widgets/lv_btnmatrix.c ****             obj->state = btn_state;
 714:Middlewares/lvgl/src/widgets/lv_btnmatrix.c ****             obj->skip_trans = 1;
 715:Middlewares/lvgl/src/widgets/lv_btnmatrix.c ****             lv_draw_rect_dsc_init(&draw_rect_dsc_act);
 716:Middlewares/lvgl/src/widgets/lv_btnmatrix.c ****             lv_draw_label_dsc_init(&draw_label_dsc_act);
ARM GAS  /tmp/ccnMQJLR.s 			page 14


 717:Middlewares/lvgl/src/widgets/lv_btnmatrix.c ****             lv_obj_init_draw_rect_dsc(obj, LV_PART_ITEMS, &draw_rect_dsc_act);
 718:Middlewares/lvgl/src/widgets/lv_btnmatrix.c ****             lv_obj_init_draw_label_dsc(obj, LV_PART_ITEMS, &draw_label_dsc_act);
 719:Middlewares/lvgl/src/widgets/lv_btnmatrix.c ****             obj->state = state_ori;
 720:Middlewares/lvgl/src/widgets/lv_btnmatrix.c ****             obj->skip_trans = 0;
 721:Middlewares/lvgl/src/widgets/lv_btnmatrix.c ****         }
 722:Middlewares/lvgl/src/widgets/lv_btnmatrix.c **** 
 723:Middlewares/lvgl/src/widgets/lv_btnmatrix.c ****         bool recolor = button_is_recolor(btnm->ctrl_bits[btn_i]);
 724:Middlewares/lvgl/src/widgets/lv_btnmatrix.c ****         if(recolor) draw_label_dsc_act.flag |= LV_TEXT_FLAG_RECOLOR;
 725:Middlewares/lvgl/src/widgets/lv_btnmatrix.c ****         else draw_label_dsc_act.flag &= ~LV_TEXT_FLAG_RECOLOR;
 726:Middlewares/lvgl/src/widgets/lv_btnmatrix.c **** 
 727:Middlewares/lvgl/src/widgets/lv_btnmatrix.c **** 
 728:Middlewares/lvgl/src/widgets/lv_btnmatrix.c ****         dsc.draw_area = &btn_area;
 729:Middlewares/lvgl/src/widgets/lv_btnmatrix.c ****         dsc.id = btn_i;
 730:Middlewares/lvgl/src/widgets/lv_btnmatrix.c ****         lv_event_send(obj,LV_EVENT_DRAW_PART_BEGIN, &dsc);
 731:Middlewares/lvgl/src/widgets/lv_btnmatrix.c **** 
 732:Middlewares/lvgl/src/widgets/lv_btnmatrix.c ****         /*Remove borders on the edges if `LV_BORDER_SIDE_INTERNAL`*/
 733:Middlewares/lvgl/src/widgets/lv_btnmatrix.c ****         if(draw_rect_dsc_act.border_side & LV_BORDER_SIDE_INTERNAL) {
 734:Middlewares/lvgl/src/widgets/lv_btnmatrix.c ****             draw_rect_dsc_act.border_side = LV_BORDER_SIDE_FULL;
 735:Middlewares/lvgl/src/widgets/lv_btnmatrix.c ****             if(btn_area.x1 == obj->coords.x1 + pleft) draw_rect_dsc_act.border_side &= ~LV_BORDER_S
 736:Middlewares/lvgl/src/widgets/lv_btnmatrix.c ****             if(btn_area.x2 == obj->coords.x2 - pright) draw_rect_dsc_act.border_side &= ~LV_BORDER_
 737:Middlewares/lvgl/src/widgets/lv_btnmatrix.c ****             if(btn_area.y1 == obj->coords.y1 + ptop) draw_rect_dsc_act.border_side &= ~LV_BORDER_SI
 738:Middlewares/lvgl/src/widgets/lv_btnmatrix.c ****             if(btn_area.y2 == obj->coords.y2 - pbottom) draw_rect_dsc_act.border_side &= ~LV_BORDER
 739:Middlewares/lvgl/src/widgets/lv_btnmatrix.c ****         }
 740:Middlewares/lvgl/src/widgets/lv_btnmatrix.c **** 
 741:Middlewares/lvgl/src/widgets/lv_btnmatrix.c ****         /*Draw the background*/
 742:Middlewares/lvgl/src/widgets/lv_btnmatrix.c ****         lv_draw_rect(&btn_area, clip_area, &draw_rect_dsc_act);
 743:Middlewares/lvgl/src/widgets/lv_btnmatrix.c **** 
 744:Middlewares/lvgl/src/widgets/lv_btnmatrix.c ****         /*Calculate the size of the text*/
 745:Middlewares/lvgl/src/widgets/lv_btnmatrix.c ****         const lv_font_t * font = draw_label_dsc_act.font;
 746:Middlewares/lvgl/src/widgets/lv_btnmatrix.c ****         lv_coord_t letter_space = draw_label_dsc_act.letter_space;
 747:Middlewares/lvgl/src/widgets/lv_btnmatrix.c ****         lv_coord_t line_space = draw_label_dsc_act.line_space;
 748:Middlewares/lvgl/src/widgets/lv_btnmatrix.c ****         const char * txt = btnm->map_p[txt_i];
 749:Middlewares/lvgl/src/widgets/lv_btnmatrix.c **** 
 750:Middlewares/lvgl/src/widgets/lv_btnmatrix.c **** #if LV_USE_ARABIC_PERSIAN_CHARS
 751:Middlewares/lvgl/src/widgets/lv_btnmatrix.c ****         /*Get the size of the Arabic text and process it*/
 752:Middlewares/lvgl/src/widgets/lv_btnmatrix.c ****         size_t len_ap = _lv_txt_ap_calc_bytes_cnt(txt);
 753:Middlewares/lvgl/src/widgets/lv_btnmatrix.c ****         if(len_ap < txt_ap_size) {
 754:Middlewares/lvgl/src/widgets/lv_btnmatrix.c ****             _lv_txt_ap_proc(txt, txt_ap);
 755:Middlewares/lvgl/src/widgets/lv_btnmatrix.c ****             txt = txt_ap;
 756:Middlewares/lvgl/src/widgets/lv_btnmatrix.c ****         }
 757:Middlewares/lvgl/src/widgets/lv_btnmatrix.c **** #endif
 758:Middlewares/lvgl/src/widgets/lv_btnmatrix.c ****         lv_point_t txt_size;
 759:Middlewares/lvgl/src/widgets/lv_btnmatrix.c ****         lv_txt_get_size(&txt_size, txt, font, letter_space,
 760:Middlewares/lvgl/src/widgets/lv_btnmatrix.c ****                 line_space, lv_area_get_width(&area_obj), draw_label_dsc_act.flag);
 761:Middlewares/lvgl/src/widgets/lv_btnmatrix.c **** 
 762:Middlewares/lvgl/src/widgets/lv_btnmatrix.c ****         btn_area.x1 += (lv_area_get_width(&btn_area) - txt_size.x) / 2;
 763:Middlewares/lvgl/src/widgets/lv_btnmatrix.c ****         btn_area.y1 += (lv_area_get_height(&btn_area) - txt_size.y) / 2;
 764:Middlewares/lvgl/src/widgets/lv_btnmatrix.c ****         btn_area.x2 = btn_area.x1 + txt_size.x;
 765:Middlewares/lvgl/src/widgets/lv_btnmatrix.c ****         btn_area.y2 = btn_area.y1 + txt_size.y;
 766:Middlewares/lvgl/src/widgets/lv_btnmatrix.c **** 
 767:Middlewares/lvgl/src/widgets/lv_btnmatrix.c ****         /*Draw the text*/
 768:Middlewares/lvgl/src/widgets/lv_btnmatrix.c ****         lv_draw_label(&btn_area, clip_area, &draw_label_dsc_act, txt, NULL);
 769:Middlewares/lvgl/src/widgets/lv_btnmatrix.c **** 
 770:Middlewares/lvgl/src/widgets/lv_btnmatrix.c ****         lv_event_send(obj,LV_EVENT_DRAW_PART_END, &dsc);
 771:Middlewares/lvgl/src/widgets/lv_btnmatrix.c ****     }
 772:Middlewares/lvgl/src/widgets/lv_btnmatrix.c **** 
 773:Middlewares/lvgl/src/widgets/lv_btnmatrix.c ****     obj->skip_trans = 0;
ARM GAS  /tmp/ccnMQJLR.s 			page 15


 774:Middlewares/lvgl/src/widgets/lv_btnmatrix.c **** #if LV_USE_ARABIC_PERSIAN_CHARS
 775:Middlewares/lvgl/src/widgets/lv_btnmatrix.c ****     lv_mem_buf_release(txt_ap);
 776:Middlewares/lvgl/src/widgets/lv_btnmatrix.c **** #endif
 777:Middlewares/lvgl/src/widgets/lv_btnmatrix.c **** }
 778:Middlewares/lvgl/src/widgets/lv_btnmatrix.c **** /**
 779:Middlewares/lvgl/src/widgets/lv_btnmatrix.c ****  * Create the required number of buttons and control bytes according to a map
 780:Middlewares/lvgl/src/widgets/lv_btnmatrix.c ****  * @param obj pointer to button matrix object
 781:Middlewares/lvgl/src/widgets/lv_btnmatrix.c ****  * @param map_p pointer to a string array
 782:Middlewares/lvgl/src/widgets/lv_btnmatrix.c ****  */
 783:Middlewares/lvgl/src/widgets/lv_btnmatrix.c **** static void allocate_btn_areas_and_controls(const lv_obj_t * obj, const char ** map)
 784:Middlewares/lvgl/src/widgets/lv_btnmatrix.c **** {
 785:Middlewares/lvgl/src/widgets/lv_btnmatrix.c ****     /*Count the buttons in the map*/
 786:Middlewares/lvgl/src/widgets/lv_btnmatrix.c ****     uint16_t btn_cnt = 0;
 787:Middlewares/lvgl/src/widgets/lv_btnmatrix.c ****     uint16_t i       = 0;
 788:Middlewares/lvgl/src/widgets/lv_btnmatrix.c ****     while(map[i] && map[i][0] != '\0') {
 789:Middlewares/lvgl/src/widgets/lv_btnmatrix.c ****         if(strcmp(map[i], "\n") != 0) { /*Do not count line breaks*/
 790:Middlewares/lvgl/src/widgets/lv_btnmatrix.c ****             btn_cnt++;
 791:Middlewares/lvgl/src/widgets/lv_btnmatrix.c ****         }
 792:Middlewares/lvgl/src/widgets/lv_btnmatrix.c ****         i++;
 793:Middlewares/lvgl/src/widgets/lv_btnmatrix.c ****     }
 794:Middlewares/lvgl/src/widgets/lv_btnmatrix.c **** 
 795:Middlewares/lvgl/src/widgets/lv_btnmatrix.c ****     lv_btnmatrix_t * btnm = (lv_btnmatrix_t *)obj;;
 796:Middlewares/lvgl/src/widgets/lv_btnmatrix.c **** 
 797:Middlewares/lvgl/src/widgets/lv_btnmatrix.c ****     /*Do not allocate memory for the same amount of buttons*/
 798:Middlewares/lvgl/src/widgets/lv_btnmatrix.c ****     if(btn_cnt == btnm->btn_cnt) return;
 799:Middlewares/lvgl/src/widgets/lv_btnmatrix.c **** 
 800:Middlewares/lvgl/src/widgets/lv_btnmatrix.c ****     if(btnm->button_areas != NULL) {
 801:Middlewares/lvgl/src/widgets/lv_btnmatrix.c ****         lv_mem_free(btnm->button_areas);
 802:Middlewares/lvgl/src/widgets/lv_btnmatrix.c ****         btnm->button_areas = NULL;
 803:Middlewares/lvgl/src/widgets/lv_btnmatrix.c ****     }
 804:Middlewares/lvgl/src/widgets/lv_btnmatrix.c ****     if(btnm->ctrl_bits != NULL) {
 805:Middlewares/lvgl/src/widgets/lv_btnmatrix.c ****         lv_mem_free(btnm->ctrl_bits);
 806:Middlewares/lvgl/src/widgets/lv_btnmatrix.c ****         btnm->ctrl_bits = NULL;
 807:Middlewares/lvgl/src/widgets/lv_btnmatrix.c ****     }
 808:Middlewares/lvgl/src/widgets/lv_btnmatrix.c **** 
 809:Middlewares/lvgl/src/widgets/lv_btnmatrix.c ****     btnm->button_areas = lv_mem_alloc(sizeof(lv_area_t) * btn_cnt);
 810:Middlewares/lvgl/src/widgets/lv_btnmatrix.c ****     LV_ASSERT_MALLOC(btnm->button_areas);
 811:Middlewares/lvgl/src/widgets/lv_btnmatrix.c ****     btnm->ctrl_bits = lv_mem_alloc(sizeof(lv_btnmatrix_ctrl_t) * btn_cnt);
 812:Middlewares/lvgl/src/widgets/lv_btnmatrix.c ****     LV_ASSERT_MALLOC(btnm->ctrl_bits);
 813:Middlewares/lvgl/src/widgets/lv_btnmatrix.c ****     if(btnm->button_areas == NULL || btnm->ctrl_bits == NULL) btn_cnt = 0;
 814:Middlewares/lvgl/src/widgets/lv_btnmatrix.c **** 
 815:Middlewares/lvgl/src/widgets/lv_btnmatrix.c ****     lv_memset_00(btnm->ctrl_bits, sizeof(lv_btnmatrix_ctrl_t) * btn_cnt);
 816:Middlewares/lvgl/src/widgets/lv_btnmatrix.c **** 
 817:Middlewares/lvgl/src/widgets/lv_btnmatrix.c ****     btnm->btn_cnt = btn_cnt;
 818:Middlewares/lvgl/src/widgets/lv_btnmatrix.c **** }
 819:Middlewares/lvgl/src/widgets/lv_btnmatrix.c **** 
 820:Middlewares/lvgl/src/widgets/lv_btnmatrix.c **** /**
 821:Middlewares/lvgl/src/widgets/lv_btnmatrix.c ****  * Get the width of a button in units (default is 1).
 822:Middlewares/lvgl/src/widgets/lv_btnmatrix.c ****  * @param ctrl_bits least significant 3 bits used (1..7 valid values)
 823:Middlewares/lvgl/src/widgets/lv_btnmatrix.c ****  * @return the width of the button in units
 824:Middlewares/lvgl/src/widgets/lv_btnmatrix.c ****  */
 825:Middlewares/lvgl/src/widgets/lv_btnmatrix.c **** static uint8_t get_button_width(lv_btnmatrix_ctrl_t ctrl_bits)
 826:Middlewares/lvgl/src/widgets/lv_btnmatrix.c **** {
  27              		.loc 1 826 1 view -0
  28              		.cfi_startproc
  29              		@ args = 0, pretend = 0, frame = 0
  30              		@ frame_needed = 0, uses_anonymous_args = 0
ARM GAS  /tmp/ccnMQJLR.s 			page 16


  31              		@ link register save eliminated.
 827:Middlewares/lvgl/src/widgets/lv_btnmatrix.c ****     uint8_t w = ctrl_bits & LV_BTNMATRIX_WIDTH_MASK;
  32              		.loc 1 827 5 view .LVU1
 828:Middlewares/lvgl/src/widgets/lv_btnmatrix.c ****     return w != 0 ? w : 1;
  33              		.loc 1 828 5 view .LVU2
  34              		.loc 1 828 23 is_stmt 0 view .LVU3
  35 0000 10F00700 		ands	r0, r0, #7
  36              	.LVL1:
  37              		.loc 1 828 23 view .LVU4
  38 0004 00D1     		bne	.L2
  39 0006 0120     		movs	r0, #1
  40              	.L2:
 829:Middlewares/lvgl/src/widgets/lv_btnmatrix.c **** }
  41              		.loc 1 829 1 discriminator 4 view .LVU5
  42 0008 7047     		bx	lr
  43              		.cfi_endproc
  44              	.LFE167:
  46              		.section	.text.button_is_hidden,"ax",%progbits
  47              		.align	1
  48              		.syntax unified
  49              		.thumb
  50              		.thumb_func
  51              		.fpu softvfp
  53              	button_is_hidden:
  54              	.LVL2:
  55              	.LFB168:
 830:Middlewares/lvgl/src/widgets/lv_btnmatrix.c **** 
 831:Middlewares/lvgl/src/widgets/lv_btnmatrix.c **** static bool button_is_hidden(lv_btnmatrix_ctrl_t ctrl_bits)
 832:Middlewares/lvgl/src/widgets/lv_btnmatrix.c **** {
  56              		.loc 1 832 1 is_stmt 1 view -0
  57              		.cfi_startproc
  58              		@ args = 0, pretend = 0, frame = 0
  59              		@ frame_needed = 0, uses_anonymous_args = 0
  60              		@ link register save eliminated.
 833:Middlewares/lvgl/src/widgets/lv_btnmatrix.c ****     return (ctrl_bits & LV_BTNMATRIX_CTRL_HIDDEN) ? true : false;
  61              		.loc 1 833 5 view .LVU7
 834:Middlewares/lvgl/src/widgets/lv_btnmatrix.c **** }
  62              		.loc 1 834 1 is_stmt 0 view .LVU8
  63 0000 C0F3C000 		ubfx	r0, r0, #3, #1
  64              	.LVL3:
  65              		.loc 1 834 1 view .LVU9
  66 0004 7047     		bx	lr
  67              		.cfi_endproc
  68              	.LFE168:
  70              		.section	.text.button_is_checked,"ax",%progbits
  71              		.align	1
  72              		.syntax unified
  73              		.thumb
  74              		.thumb_func
  75              		.fpu softvfp
  77              	button_is_checked:
  78              	.LVL4:
  79              	.LFB169:
 835:Middlewares/lvgl/src/widgets/lv_btnmatrix.c **** 
 836:Middlewares/lvgl/src/widgets/lv_btnmatrix.c **** static bool button_is_checked(lv_btnmatrix_ctrl_t ctrl_bits)
 837:Middlewares/lvgl/src/widgets/lv_btnmatrix.c **** {
  80              		.loc 1 837 1 is_stmt 1 view -0
ARM GAS  /tmp/ccnMQJLR.s 			page 17


  81              		.cfi_startproc
  82              		@ args = 0, pretend = 0, frame = 0
  83              		@ frame_needed = 0, uses_anonymous_args = 0
  84              		@ link register save eliminated.
 838:Middlewares/lvgl/src/widgets/lv_btnmatrix.c ****     return (ctrl_bits & LV_BTNMATRIX_CTRL_CHECKED) ? true : false;
  85              		.loc 1 838 5 view .LVU11
 839:Middlewares/lvgl/src/widgets/lv_btnmatrix.c **** }
  86              		.loc 1 839 1 is_stmt 0 view .LVU12
  87 0000 C0F3C010 		ubfx	r0, r0, #7, #1
  88              	.LVL5:
  89              		.loc 1 839 1 view .LVU13
  90 0004 7047     		bx	lr
  91              		.cfi_endproc
  92              	.LFE169:
  94              		.section	.text.button_is_repeat_disabled,"ax",%progbits
  95              		.align	1
  96              		.syntax unified
  97              		.thumb
  98              		.thumb_func
  99              		.fpu softvfp
 101              	button_is_repeat_disabled:
 102              	.LVL6:
 103              	.LFB170:
 840:Middlewares/lvgl/src/widgets/lv_btnmatrix.c **** 
 841:Middlewares/lvgl/src/widgets/lv_btnmatrix.c **** static bool button_is_repeat_disabled(lv_btnmatrix_ctrl_t ctrl_bits)
 842:Middlewares/lvgl/src/widgets/lv_btnmatrix.c **** {
 104              		.loc 1 842 1 is_stmt 1 view -0
 105              		.cfi_startproc
 106              		@ args = 0, pretend = 0, frame = 0
 107              		@ frame_needed = 0, uses_anonymous_args = 0
 108              		@ link register save eliminated.
 843:Middlewares/lvgl/src/widgets/lv_btnmatrix.c ****     return (ctrl_bits & LV_BTNMATRIX_CTRL_NO_REPEAT) ? true : false;
 109              		.loc 1 843 5 view .LVU15
 844:Middlewares/lvgl/src/widgets/lv_btnmatrix.c **** }
 110              		.loc 1 844 1 is_stmt 0 view .LVU16
 111 0000 C0F30010 		ubfx	r0, r0, #4, #1
 112              	.LVL7:
 113              		.loc 1 844 1 view .LVU17
 114 0004 7047     		bx	lr
 115              		.cfi_endproc
 116              	.LFE170:
 118              		.section	.text.button_is_inactive,"ax",%progbits
 119              		.align	1
 120              		.syntax unified
 121              		.thumb
 122              		.thumb_func
 123              		.fpu softvfp
 125              	button_is_inactive:
 126              	.LVL8:
 127              	.LFB171:
 845:Middlewares/lvgl/src/widgets/lv_btnmatrix.c **** 
 846:Middlewares/lvgl/src/widgets/lv_btnmatrix.c **** static bool button_is_inactive(lv_btnmatrix_ctrl_t ctrl_bits)
 847:Middlewares/lvgl/src/widgets/lv_btnmatrix.c **** {
 128              		.loc 1 847 1 is_stmt 1 view -0
 129              		.cfi_startproc
 130              		@ args = 0, pretend = 0, frame = 0
 131              		@ frame_needed = 0, uses_anonymous_args = 0
ARM GAS  /tmp/ccnMQJLR.s 			page 18


 132              		@ link register save eliminated.
 848:Middlewares/lvgl/src/widgets/lv_btnmatrix.c ****     return (ctrl_bits & LV_BTNMATRIX_CTRL_DISABLED) ? true : false;
 133              		.loc 1 848 5 view .LVU19
 849:Middlewares/lvgl/src/widgets/lv_btnmatrix.c **** }
 134              		.loc 1 849 1 is_stmt 0 view .LVU20
 135 0000 C0F34010 		ubfx	r0, r0, #5, #1
 136              	.LVL9:
 137              		.loc 1 849 1 view .LVU21
 138 0004 7047     		bx	lr
 139              		.cfi_endproc
 140              	.LFE171:
 142              		.section	.text.button_is_click_trig,"ax",%progbits
 143              		.align	1
 144              		.syntax unified
 145              		.thumb
 146              		.thumb_func
 147              		.fpu softvfp
 149              	button_is_click_trig:
 150              	.LVL10:
 151              	.LFB172:
 850:Middlewares/lvgl/src/widgets/lv_btnmatrix.c **** 
 851:Middlewares/lvgl/src/widgets/lv_btnmatrix.c **** static bool button_is_click_trig(lv_btnmatrix_ctrl_t ctrl_bits)
 852:Middlewares/lvgl/src/widgets/lv_btnmatrix.c **** {
 152              		.loc 1 852 1 is_stmt 1 view -0
 153              		.cfi_startproc
 154              		@ args = 0, pretend = 0, frame = 0
 155              		@ frame_needed = 0, uses_anonymous_args = 0
 156              		@ link register save eliminated.
 853:Middlewares/lvgl/src/widgets/lv_btnmatrix.c ****     return (ctrl_bits & LV_BTNMATRIX_CTRL_CLICK_TRIG) ? true : false;
 157              		.loc 1 853 5 view .LVU23
 854:Middlewares/lvgl/src/widgets/lv_btnmatrix.c **** }
 158              		.loc 1 854 1 is_stmt 0 view .LVU24
 159 0000 C0F30020 		ubfx	r0, r0, #8, #1
 160              	.LVL11:
 161              		.loc 1 854 1 view .LVU25
 162 0004 7047     		bx	lr
 163              		.cfi_endproc
 164              	.LFE172:
 166              		.section	.text.button_is_checkable,"ax",%progbits
 167              		.align	1
 168              		.syntax unified
 169              		.thumb
 170              		.thumb_func
 171              		.fpu softvfp
 173              	button_is_checkable:
 174              	.LVL12:
 175              	.LFB173:
 855:Middlewares/lvgl/src/widgets/lv_btnmatrix.c **** 
 856:Middlewares/lvgl/src/widgets/lv_btnmatrix.c **** static bool button_is_checkable(lv_btnmatrix_ctrl_t ctrl_bits)
 857:Middlewares/lvgl/src/widgets/lv_btnmatrix.c **** {
 176              		.loc 1 857 1 is_stmt 1 view -0
 177              		.cfi_startproc
 178              		@ args = 0, pretend = 0, frame = 0
 179              		@ frame_needed = 0, uses_anonymous_args = 0
 180              		@ link register save eliminated.
 858:Middlewares/lvgl/src/widgets/lv_btnmatrix.c ****     return (ctrl_bits & LV_BTNMATRIX_CTRL_CHECKABLE) ? true : false;
 181              		.loc 1 858 5 view .LVU27
ARM GAS  /tmp/ccnMQJLR.s 			page 19


 859:Middlewares/lvgl/src/widgets/lv_btnmatrix.c **** }
 182              		.loc 1 859 1 is_stmt 0 view .LVU28
 183 0000 C0F38010 		ubfx	r0, r0, #6, #1
 184              	.LVL13:
 185              		.loc 1 859 1 view .LVU29
 186 0004 7047     		bx	lr
 187              		.cfi_endproc
 188              	.LFE173:
 190              		.section	.text.button_get_checked,"ax",%progbits
 191              		.align	1
 192              		.syntax unified
 193              		.thumb
 194              		.thumb_func
 195              		.fpu softvfp
 197              	button_get_checked:
 198              	.LVL14:
 199              	.LFB174:
 860:Middlewares/lvgl/src/widgets/lv_btnmatrix.c **** 
 861:Middlewares/lvgl/src/widgets/lv_btnmatrix.c **** static bool button_get_checked(lv_btnmatrix_ctrl_t ctrl_bits)
 862:Middlewares/lvgl/src/widgets/lv_btnmatrix.c **** {
 200              		.loc 1 862 1 is_stmt 1 view -0
 201              		.cfi_startproc
 202              		@ args = 0, pretend = 0, frame = 0
 203              		@ frame_needed = 0, uses_anonymous_args = 0
 204              		@ link register save eliminated.
 863:Middlewares/lvgl/src/widgets/lv_btnmatrix.c ****     return (ctrl_bits & LV_BTNMATRIX_CTRL_CHECKED) ? true : false;
 205              		.loc 1 863 5 view .LVU31
 864:Middlewares/lvgl/src/widgets/lv_btnmatrix.c **** }
 206              		.loc 1 864 1 is_stmt 0 view .LVU32
 207 0000 C0F3C010 		ubfx	r0, r0, #7, #1
 208              	.LVL15:
 209              		.loc 1 864 1 view .LVU33
 210 0004 7047     		bx	lr
 211              		.cfi_endproc
 212              	.LFE174:
 214              		.section	.text.button_is_recolor,"ax",%progbits
 215              		.align	1
 216              		.syntax unified
 217              		.thumb
 218              		.thumb_func
 219              		.fpu softvfp
 221              	button_is_recolor:
 222              	.LVL16:
 223              	.LFB175:
 865:Middlewares/lvgl/src/widgets/lv_btnmatrix.c **** 
 866:Middlewares/lvgl/src/widgets/lv_btnmatrix.c **** static bool button_is_recolor(lv_btnmatrix_ctrl_t ctrl_bits)
 867:Middlewares/lvgl/src/widgets/lv_btnmatrix.c **** {
 224              		.loc 1 867 1 is_stmt 1 view -0
 225              		.cfi_startproc
 226              		@ args = 0, pretend = 0, frame = 0
 227              		@ frame_needed = 0, uses_anonymous_args = 0
 228              		@ link register save eliminated.
 868:Middlewares/lvgl/src/widgets/lv_btnmatrix.c ****     return (ctrl_bits & LV_BTNMATRIX_CTRL_RECOLOR) ? true : false;
 229              		.loc 1 868 5 view .LVU35
 869:Middlewares/lvgl/src/widgets/lv_btnmatrix.c **** }
 230              		.loc 1 869 1 is_stmt 0 view .LVU36
 231 0000 C0F30030 		ubfx	r0, r0, #12, #1
ARM GAS  /tmp/ccnMQJLR.s 			page 20


 232              	.LVL17:
 233              		.loc 1 869 1 view .LVU37
 234 0004 7047     		bx	lr
 235              		.cfi_endproc
 236              	.LFE175:
 238              		.section	.text.get_button_from_point,"ax",%progbits
 239              		.align	1
 240              		.syntax unified
 241              		.thumb
 242              		.thumb_func
 243              		.fpu softvfp
 245              	get_button_from_point:
 246              	.LVL18:
 247              	.LFB176:
 870:Middlewares/lvgl/src/widgets/lv_btnmatrix.c **** /**
 871:Middlewares/lvgl/src/widgets/lv_btnmatrix.c ****  * Gives the button id of a button under a given point
 872:Middlewares/lvgl/src/widgets/lv_btnmatrix.c ****  * @param obj pointer to a button matrix object
 873:Middlewares/lvgl/src/widgets/lv_btnmatrix.c ****  * @param p a point with absolute coordinates
 874:Middlewares/lvgl/src/widgets/lv_btnmatrix.c ****  * @return the id of the button or LV_BTNMATRIX_BTN_NONE.
 875:Middlewares/lvgl/src/widgets/lv_btnmatrix.c ****  */
 876:Middlewares/lvgl/src/widgets/lv_btnmatrix.c **** static uint16_t get_button_from_point(lv_obj_t * obj, lv_point_t * p)
 877:Middlewares/lvgl/src/widgets/lv_btnmatrix.c **** {
 248              		.loc 1 877 1 is_stmt 1 view -0
 249              		.cfi_startproc
 250              		@ args = 0, pretend = 0, frame = 32
 251              		@ frame_needed = 0, uses_anonymous_args = 0
 252              		.loc 1 877 1 is_stmt 0 view .LVU39
 253 0000 2DE9F04F 		push	{r4, r5, r6, r7, r8, r9, r10, fp, lr}
 254              	.LCFI0:
 255              		.cfi_def_cfa_offset 36
 256              		.cfi_offset 4, -36
 257              		.cfi_offset 5, -32
 258              		.cfi_offset 6, -28
 259              		.cfi_offset 7, -24
 260              		.cfi_offset 8, -20
 261              		.cfi_offset 9, -16
 262              		.cfi_offset 10, -12
 263              		.cfi_offset 11, -8
 264              		.cfi_offset 14, -4
 265 0004 89B0     		sub	sp, sp, #36
 266              	.LCFI1:
 267              		.cfi_def_cfa_offset 72
 268 0006 0546     		mov	r5, r0
 269 0008 0391     		str	r1, [sp, #12]
 878:Middlewares/lvgl/src/widgets/lv_btnmatrix.c ****     lv_area_t obj_cords;
 270              		.loc 1 878 5 is_stmt 1 view .LVU40
 879:Middlewares/lvgl/src/widgets/lv_btnmatrix.c ****     lv_area_t btn_area;
 271              		.loc 1 879 5 view .LVU41
 880:Middlewares/lvgl/src/widgets/lv_btnmatrix.c ****     lv_btnmatrix_t * btnm = (lv_btnmatrix_t *)obj;;
 272              		.loc 1 880 5 view .LVU42
 273              	.LVL19:
 274              		.loc 1 880 51 view .LVU43
 881:Middlewares/lvgl/src/widgets/lv_btnmatrix.c ****     uint16_t i;
 275              		.loc 1 881 5 view .LVU44
 882:Middlewares/lvgl/src/widgets/lv_btnmatrix.c ****     lv_obj_get_coords(obj, &obj_cords);
 276              		.loc 1 882 5 view .LVU45
 277 000a 06A9     		add	r1, sp, #24
ARM GAS  /tmp/ccnMQJLR.s 			page 21


 278              	.LVL20:
 279              		.loc 1 882 5 is_stmt 0 view .LVU46
 280 000c FFF7FEFF 		bl	lv_obj_get_coords
 281              	.LVL21:
 883:Middlewares/lvgl/src/widgets/lv_btnmatrix.c **** 
 884:Middlewares/lvgl/src/widgets/lv_btnmatrix.c ****     lv_coord_t w = lv_obj_get_width(obj);
 282              		.loc 1 884 5 is_stmt 1 view .LVU47
 283              		.loc 1 884 20 is_stmt 0 view .LVU48
 284 0010 2846     		mov	r0, r5
 285 0012 FFF7FEFF 		bl	lv_obj_get_width
 286              	.LVL22:
 287 0016 0190     		str	r0, [sp, #4]
 288              	.LVL23:
 885:Middlewares/lvgl/src/widgets/lv_btnmatrix.c ****     lv_coord_t h = lv_obj_get_height(obj);
 289              		.loc 1 885 5 is_stmt 1 view .LVU49
 290              		.loc 1 885 20 is_stmt 0 view .LVU50
 291 0018 2846     		mov	r0, r5
 292 001a FFF7FEFF 		bl	lv_obj_get_height
 293              	.LVL24:
 294 001e 0290     		str	r0, [sp, #8]
 295              	.LVL25:
 886:Middlewares/lvgl/src/widgets/lv_btnmatrix.c ****     lv_coord_t pleft = lv_obj_get_style_pad_left(obj, LV_PART_MAIN);
 296              		.loc 1 886 5 is_stmt 1 view .LVU51
 297              	.LBB75:
 298              	.LBI75:
 299              		.file 2 "Middlewares/lvgl/src/widgets/../core/lv_obj_style_gen.h"
   1:Middlewares/lvgl/src/widgets/../core/lv_obj_style_gen.h **** static inline lv_coord_t lv_obj_get_style_width(const struct _lv_obj_t * obj, uint32_t part)
   2:Middlewares/lvgl/src/widgets/../core/lv_obj_style_gen.h **** {
   3:Middlewares/lvgl/src/widgets/../core/lv_obj_style_gen.h ****     lv_style_value_t v = lv_obj_get_style_prop(obj, part, LV_STYLE_WIDTH);
   4:Middlewares/lvgl/src/widgets/../core/lv_obj_style_gen.h ****     return (lv_coord_t)v.num;
   5:Middlewares/lvgl/src/widgets/../core/lv_obj_style_gen.h **** }
   6:Middlewares/lvgl/src/widgets/../core/lv_obj_style_gen.h **** 
   7:Middlewares/lvgl/src/widgets/../core/lv_obj_style_gen.h **** static inline lv_coord_t lv_obj_get_style_min_width(const struct _lv_obj_t * obj, uint32_t part)
   8:Middlewares/lvgl/src/widgets/../core/lv_obj_style_gen.h **** {
   9:Middlewares/lvgl/src/widgets/../core/lv_obj_style_gen.h ****     lv_style_value_t v = lv_obj_get_style_prop(obj, part, LV_STYLE_MIN_WIDTH);
  10:Middlewares/lvgl/src/widgets/../core/lv_obj_style_gen.h ****     return (lv_coord_t)v.num;
  11:Middlewares/lvgl/src/widgets/../core/lv_obj_style_gen.h **** }
  12:Middlewares/lvgl/src/widgets/../core/lv_obj_style_gen.h **** 
  13:Middlewares/lvgl/src/widgets/../core/lv_obj_style_gen.h **** static inline lv_coord_t lv_obj_get_style_max_width(const struct _lv_obj_t * obj, uint32_t part)
  14:Middlewares/lvgl/src/widgets/../core/lv_obj_style_gen.h **** {
  15:Middlewares/lvgl/src/widgets/../core/lv_obj_style_gen.h ****     lv_style_value_t v = lv_obj_get_style_prop(obj, part, LV_STYLE_MAX_WIDTH);
  16:Middlewares/lvgl/src/widgets/../core/lv_obj_style_gen.h ****     return (lv_coord_t)v.num;
  17:Middlewares/lvgl/src/widgets/../core/lv_obj_style_gen.h **** }
  18:Middlewares/lvgl/src/widgets/../core/lv_obj_style_gen.h **** 
  19:Middlewares/lvgl/src/widgets/../core/lv_obj_style_gen.h **** static inline lv_coord_t lv_obj_get_style_height(const struct _lv_obj_t * obj, uint32_t part)
  20:Middlewares/lvgl/src/widgets/../core/lv_obj_style_gen.h **** {
  21:Middlewares/lvgl/src/widgets/../core/lv_obj_style_gen.h ****     lv_style_value_t v = lv_obj_get_style_prop(obj, part, LV_STYLE_HEIGHT);
  22:Middlewares/lvgl/src/widgets/../core/lv_obj_style_gen.h ****     return (lv_coord_t)v.num;
  23:Middlewares/lvgl/src/widgets/../core/lv_obj_style_gen.h **** }
  24:Middlewares/lvgl/src/widgets/../core/lv_obj_style_gen.h **** 
  25:Middlewares/lvgl/src/widgets/../core/lv_obj_style_gen.h **** static inline lv_coord_t lv_obj_get_style_min_height(const struct _lv_obj_t * obj, uint32_t part)
  26:Middlewares/lvgl/src/widgets/../core/lv_obj_style_gen.h **** {
  27:Middlewares/lvgl/src/widgets/../core/lv_obj_style_gen.h ****     lv_style_value_t v = lv_obj_get_style_prop(obj, part, LV_STYLE_MIN_HEIGHT);
  28:Middlewares/lvgl/src/widgets/../core/lv_obj_style_gen.h ****     return (lv_coord_t)v.num;
  29:Middlewares/lvgl/src/widgets/../core/lv_obj_style_gen.h **** }
  30:Middlewares/lvgl/src/widgets/../core/lv_obj_style_gen.h **** 
  31:Middlewares/lvgl/src/widgets/../core/lv_obj_style_gen.h **** static inline lv_coord_t lv_obj_get_style_max_height(const struct _lv_obj_t * obj, uint32_t part)
ARM GAS  /tmp/ccnMQJLR.s 			page 22


  32:Middlewares/lvgl/src/widgets/../core/lv_obj_style_gen.h **** {
  33:Middlewares/lvgl/src/widgets/../core/lv_obj_style_gen.h ****     lv_style_value_t v = lv_obj_get_style_prop(obj, part, LV_STYLE_MAX_HEIGHT);
  34:Middlewares/lvgl/src/widgets/../core/lv_obj_style_gen.h ****     return (lv_coord_t)v.num;
  35:Middlewares/lvgl/src/widgets/../core/lv_obj_style_gen.h **** }
  36:Middlewares/lvgl/src/widgets/../core/lv_obj_style_gen.h **** 
  37:Middlewares/lvgl/src/widgets/../core/lv_obj_style_gen.h **** static inline lv_coord_t lv_obj_get_style_x(const struct _lv_obj_t * obj, uint32_t part)
  38:Middlewares/lvgl/src/widgets/../core/lv_obj_style_gen.h **** {
  39:Middlewares/lvgl/src/widgets/../core/lv_obj_style_gen.h ****     lv_style_value_t v = lv_obj_get_style_prop(obj, part, LV_STYLE_X);
  40:Middlewares/lvgl/src/widgets/../core/lv_obj_style_gen.h ****     return (lv_coord_t)v.num;
  41:Middlewares/lvgl/src/widgets/../core/lv_obj_style_gen.h **** }
  42:Middlewares/lvgl/src/widgets/../core/lv_obj_style_gen.h **** 
  43:Middlewares/lvgl/src/widgets/../core/lv_obj_style_gen.h **** static inline lv_coord_t lv_obj_get_style_y(const struct _lv_obj_t * obj, uint32_t part)
  44:Middlewares/lvgl/src/widgets/../core/lv_obj_style_gen.h **** {
  45:Middlewares/lvgl/src/widgets/../core/lv_obj_style_gen.h ****     lv_style_value_t v = lv_obj_get_style_prop(obj, part, LV_STYLE_Y);
  46:Middlewares/lvgl/src/widgets/../core/lv_obj_style_gen.h ****     return (lv_coord_t)v.num;
  47:Middlewares/lvgl/src/widgets/../core/lv_obj_style_gen.h **** }
  48:Middlewares/lvgl/src/widgets/../core/lv_obj_style_gen.h **** 
  49:Middlewares/lvgl/src/widgets/../core/lv_obj_style_gen.h **** static inline lv_align_t lv_obj_get_style_align(const struct _lv_obj_t * obj, uint32_t part)
  50:Middlewares/lvgl/src/widgets/../core/lv_obj_style_gen.h **** {
  51:Middlewares/lvgl/src/widgets/../core/lv_obj_style_gen.h ****     lv_style_value_t v = lv_obj_get_style_prop(obj, part, LV_STYLE_ALIGN);
  52:Middlewares/lvgl/src/widgets/../core/lv_obj_style_gen.h ****     return (lv_align_t)v.num;
  53:Middlewares/lvgl/src/widgets/../core/lv_obj_style_gen.h **** }
  54:Middlewares/lvgl/src/widgets/../core/lv_obj_style_gen.h **** 
  55:Middlewares/lvgl/src/widgets/../core/lv_obj_style_gen.h **** static inline lv_coord_t lv_obj_get_style_transform_width(const struct _lv_obj_t * obj, uint32_t pa
  56:Middlewares/lvgl/src/widgets/../core/lv_obj_style_gen.h **** {
  57:Middlewares/lvgl/src/widgets/../core/lv_obj_style_gen.h ****     lv_style_value_t v = lv_obj_get_style_prop(obj, part, LV_STYLE_TRANSFORM_WIDTH);
  58:Middlewares/lvgl/src/widgets/../core/lv_obj_style_gen.h ****     return (lv_coord_t)v.num;
  59:Middlewares/lvgl/src/widgets/../core/lv_obj_style_gen.h **** }
  60:Middlewares/lvgl/src/widgets/../core/lv_obj_style_gen.h **** 
  61:Middlewares/lvgl/src/widgets/../core/lv_obj_style_gen.h **** static inline lv_coord_t lv_obj_get_style_transform_height(const struct _lv_obj_t * obj, uint32_t p
  62:Middlewares/lvgl/src/widgets/../core/lv_obj_style_gen.h **** {
  63:Middlewares/lvgl/src/widgets/../core/lv_obj_style_gen.h ****     lv_style_value_t v = lv_obj_get_style_prop(obj, part, LV_STYLE_TRANSFORM_HEIGHT);
  64:Middlewares/lvgl/src/widgets/../core/lv_obj_style_gen.h ****     return (lv_coord_t)v.num;
  65:Middlewares/lvgl/src/widgets/../core/lv_obj_style_gen.h **** }
  66:Middlewares/lvgl/src/widgets/../core/lv_obj_style_gen.h **** 
  67:Middlewares/lvgl/src/widgets/../core/lv_obj_style_gen.h **** static inline lv_coord_t lv_obj_get_style_translate_x(const struct _lv_obj_t * obj, uint32_t part)
  68:Middlewares/lvgl/src/widgets/../core/lv_obj_style_gen.h **** {
  69:Middlewares/lvgl/src/widgets/../core/lv_obj_style_gen.h ****     lv_style_value_t v = lv_obj_get_style_prop(obj, part, LV_STYLE_TRANSLATE_X);
  70:Middlewares/lvgl/src/widgets/../core/lv_obj_style_gen.h ****     return (lv_coord_t)v.num;
  71:Middlewares/lvgl/src/widgets/../core/lv_obj_style_gen.h **** }
  72:Middlewares/lvgl/src/widgets/../core/lv_obj_style_gen.h **** 
  73:Middlewares/lvgl/src/widgets/../core/lv_obj_style_gen.h **** static inline lv_coord_t lv_obj_get_style_translate_y(const struct _lv_obj_t * obj, uint32_t part)
  74:Middlewares/lvgl/src/widgets/../core/lv_obj_style_gen.h **** {
  75:Middlewares/lvgl/src/widgets/../core/lv_obj_style_gen.h ****     lv_style_value_t v = lv_obj_get_style_prop(obj, part, LV_STYLE_TRANSLATE_Y);
  76:Middlewares/lvgl/src/widgets/../core/lv_obj_style_gen.h ****     return (lv_coord_t)v.num;
  77:Middlewares/lvgl/src/widgets/../core/lv_obj_style_gen.h **** }
  78:Middlewares/lvgl/src/widgets/../core/lv_obj_style_gen.h **** 
  79:Middlewares/lvgl/src/widgets/../core/lv_obj_style_gen.h **** static inline lv_coord_t lv_obj_get_style_transform_zoom(const struct _lv_obj_t * obj, uint32_t par
  80:Middlewares/lvgl/src/widgets/../core/lv_obj_style_gen.h **** {
  81:Middlewares/lvgl/src/widgets/../core/lv_obj_style_gen.h ****     lv_style_value_t v = lv_obj_get_style_prop(obj, part, LV_STYLE_TRANSFORM_ZOOM);
  82:Middlewares/lvgl/src/widgets/../core/lv_obj_style_gen.h ****     return (lv_coord_t)v.num;
  83:Middlewares/lvgl/src/widgets/../core/lv_obj_style_gen.h **** }
  84:Middlewares/lvgl/src/widgets/../core/lv_obj_style_gen.h **** 
  85:Middlewares/lvgl/src/widgets/../core/lv_obj_style_gen.h **** static inline lv_coord_t lv_obj_get_style_transform_angle(const struct _lv_obj_t * obj, uint32_t pa
  86:Middlewares/lvgl/src/widgets/../core/lv_obj_style_gen.h **** {
  87:Middlewares/lvgl/src/widgets/../core/lv_obj_style_gen.h ****     lv_style_value_t v = lv_obj_get_style_prop(obj, part, LV_STYLE_TRANSFORM_ANGLE);
  88:Middlewares/lvgl/src/widgets/../core/lv_obj_style_gen.h ****     return (lv_coord_t)v.num;
ARM GAS  /tmp/ccnMQJLR.s 			page 23


  89:Middlewares/lvgl/src/widgets/../core/lv_obj_style_gen.h **** }
  90:Middlewares/lvgl/src/widgets/../core/lv_obj_style_gen.h **** 
  91:Middlewares/lvgl/src/widgets/../core/lv_obj_style_gen.h **** static inline lv_coord_t lv_obj_get_style_pad_top(const struct _lv_obj_t * obj, uint32_t part)
  92:Middlewares/lvgl/src/widgets/../core/lv_obj_style_gen.h **** {
  93:Middlewares/lvgl/src/widgets/../core/lv_obj_style_gen.h ****     lv_style_value_t v = lv_obj_get_style_prop(obj, part, LV_STYLE_PAD_TOP);
  94:Middlewares/lvgl/src/widgets/../core/lv_obj_style_gen.h ****     return (lv_coord_t)v.num;
  95:Middlewares/lvgl/src/widgets/../core/lv_obj_style_gen.h **** }
  96:Middlewares/lvgl/src/widgets/../core/lv_obj_style_gen.h **** 
  97:Middlewares/lvgl/src/widgets/../core/lv_obj_style_gen.h **** static inline lv_coord_t lv_obj_get_style_pad_bottom(const struct _lv_obj_t * obj, uint32_t part)
  98:Middlewares/lvgl/src/widgets/../core/lv_obj_style_gen.h **** {
  99:Middlewares/lvgl/src/widgets/../core/lv_obj_style_gen.h ****     lv_style_value_t v = lv_obj_get_style_prop(obj, part, LV_STYLE_PAD_BOTTOM);
 100:Middlewares/lvgl/src/widgets/../core/lv_obj_style_gen.h ****     return (lv_coord_t)v.num;
 101:Middlewares/lvgl/src/widgets/../core/lv_obj_style_gen.h **** }
 102:Middlewares/lvgl/src/widgets/../core/lv_obj_style_gen.h **** 
 103:Middlewares/lvgl/src/widgets/../core/lv_obj_style_gen.h **** static inline lv_coord_t lv_obj_get_style_pad_left(const struct _lv_obj_t * obj, uint32_t part)
 300              		.loc 2 103 26 view .LVU52
 301              	.LBB76:
 104:Middlewares/lvgl/src/widgets/../core/lv_obj_style_gen.h **** {
 105:Middlewares/lvgl/src/widgets/../core/lv_obj_style_gen.h ****     lv_style_value_t v = lv_obj_get_style_prop(obj, part, LV_STYLE_PAD_LEFT);
 302              		.loc 2 105 5 view .LVU53
 303              		.loc 2 105 26 is_stmt 0 view .LVU54
 304 0020 41F21202 		movw	r2, #4114
 305 0024 0021     		movs	r1, #0
 306 0026 2846     		mov	r0, r5
 307 0028 FFF7FEFF 		bl	lv_obj_get_style_prop
 308              	.LVL26:
 106:Middlewares/lvgl/src/widgets/../core/lv_obj_style_gen.h ****     return (lv_coord_t)v.num;
 309              		.loc 2 106 5 is_stmt 1 view .LVU55
 310              		.loc 2 106 12 is_stmt 0 view .LVU56
 311 002c 0FFA80FB 		sxth	fp, r0
 312              	.LVL27:
 313              		.loc 2 106 12 view .LVU57
 314              	.LBE76:
 315              	.LBE75:
 887:Middlewares/lvgl/src/widgets/lv_btnmatrix.c ****     lv_coord_t pright = lv_obj_get_style_pad_right(obj, LV_PART_MAIN);
 316              		.loc 1 887 5 is_stmt 1 view .LVU58
 317              	.LBB77:
 318              	.LBI77:
 107:Middlewares/lvgl/src/widgets/../core/lv_obj_style_gen.h **** }
 108:Middlewares/lvgl/src/widgets/../core/lv_obj_style_gen.h **** 
 109:Middlewares/lvgl/src/widgets/../core/lv_obj_style_gen.h **** static inline lv_coord_t lv_obj_get_style_pad_right(const struct _lv_obj_t * obj, uint32_t part)
 319              		.loc 2 109 26 view .LVU59
 320              	.LBB78:
 110:Middlewares/lvgl/src/widgets/../core/lv_obj_style_gen.h **** {
 111:Middlewares/lvgl/src/widgets/../core/lv_obj_style_gen.h ****     lv_style_value_t v = lv_obj_get_style_prop(obj, part, LV_STYLE_PAD_RIGHT);
 321              		.loc 2 111 5 view .LVU60
 322              		.loc 2 111 26 is_stmt 0 view .LVU61
 323 0030 41F21302 		movw	r2, #4115
 324 0034 0021     		movs	r1, #0
 325 0036 2846     		mov	r0, r5
 326 0038 FFF7FEFF 		bl	lv_obj_get_style_prop
 327              	.LVL28:
 112:Middlewares/lvgl/src/widgets/../core/lv_obj_style_gen.h ****     return (lv_coord_t)v.num;
 328              		.loc 2 112 5 is_stmt 1 view .LVU62
 329              		.loc 2 112 12 is_stmt 0 view .LVU63
 330 003c 0FFA80F9 		sxth	r9, r0
 331              	.LVL29:
ARM GAS  /tmp/ccnMQJLR.s 			page 24


 332              		.loc 2 112 12 view .LVU64
 333              	.LBE78:
 334              	.LBE77:
 888:Middlewares/lvgl/src/widgets/lv_btnmatrix.c ****     lv_coord_t ptop = lv_obj_get_style_pad_top(obj, LV_PART_MAIN);
 335              		.loc 1 888 5 is_stmt 1 view .LVU65
 336              	.LBB79:
 337              	.LBI79:
  91:Middlewares/lvgl/src/widgets/../core/lv_obj_style_gen.h **** {
 338              		.loc 2 91 26 view .LVU66
 339              	.LBB80:
  93:Middlewares/lvgl/src/widgets/../core/lv_obj_style_gen.h ****     return (lv_coord_t)v.num;
 340              		.loc 2 93 5 view .LVU67
  93:Middlewares/lvgl/src/widgets/../core/lv_obj_style_gen.h ****     return (lv_coord_t)v.num;
 341              		.loc 2 93 26 is_stmt 0 view .LVU68
 342 0040 41F21002 		movw	r2, #4112
 343 0044 0021     		movs	r1, #0
 344 0046 2846     		mov	r0, r5
 345 0048 FFF7FEFF 		bl	lv_obj_get_style_prop
 346              	.LVL30:
  94:Middlewares/lvgl/src/widgets/../core/lv_obj_style_gen.h **** }
 347              		.loc 2 94 5 is_stmt 1 view .LVU69
  94:Middlewares/lvgl/src/widgets/../core/lv_obj_style_gen.h **** }
 348              		.loc 2 94 12 is_stmt 0 view .LVU70
 349 004c 0FFA80F8 		sxth	r8, r0
 350              	.LVL31:
  94:Middlewares/lvgl/src/widgets/../core/lv_obj_style_gen.h **** }
 351              		.loc 2 94 12 view .LVU71
 352              	.LBE80:
 353              	.LBE79:
 889:Middlewares/lvgl/src/widgets/lv_btnmatrix.c ****     lv_coord_t pbottom = lv_obj_get_style_pad_bottom(obj, LV_PART_MAIN);
 354              		.loc 1 889 5 is_stmt 1 view .LVU72
 355              	.LBB81:
 356              	.LBI81:
  97:Middlewares/lvgl/src/widgets/../core/lv_obj_style_gen.h **** {
 357              		.loc 2 97 26 view .LVU73
 358              	.LBB82:
  99:Middlewares/lvgl/src/widgets/../core/lv_obj_style_gen.h ****     return (lv_coord_t)v.num;
 359              		.loc 2 99 5 view .LVU74
  99:Middlewares/lvgl/src/widgets/../core/lv_obj_style_gen.h ****     return (lv_coord_t)v.num;
 360              		.loc 2 99 26 is_stmt 0 view .LVU75
 361 0050 41F21102 		movw	r2, #4113
 362 0054 0021     		movs	r1, #0
 363 0056 2846     		mov	r0, r5
 364 0058 FFF7FEFF 		bl	lv_obj_get_style_prop
 365              	.LVL32:
 100:Middlewares/lvgl/src/widgets/../core/lv_obj_style_gen.h **** }
 366              		.loc 2 100 5 is_stmt 1 view .LVU76
 100:Middlewares/lvgl/src/widgets/../core/lv_obj_style_gen.h **** }
 367              		.loc 2 100 12 is_stmt 0 view .LVU77
 368 005c 07B2     		sxth	r7, r0
 369              	.LVL33:
 100:Middlewares/lvgl/src/widgets/../core/lv_obj_style_gen.h **** }
 370              		.loc 2 100 12 view .LVU78
 371              	.LBE82:
 372              	.LBE81:
 890:Middlewares/lvgl/src/widgets/lv_btnmatrix.c ****     lv_coord_t prow = lv_obj_get_style_pad_row(obj, LV_PART_MAIN);
 373              		.loc 1 890 5 is_stmt 1 view .LVU79
ARM GAS  /tmp/ccnMQJLR.s 			page 25


 374              	.LBB83:
 375              	.LBI83:
 113:Middlewares/lvgl/src/widgets/../core/lv_obj_style_gen.h **** }
 114:Middlewares/lvgl/src/widgets/../core/lv_obj_style_gen.h **** 
 115:Middlewares/lvgl/src/widgets/../core/lv_obj_style_gen.h **** static inline lv_coord_t lv_obj_get_style_pad_row(const struct _lv_obj_t * obj, uint32_t part)
 376              		.loc 2 115 26 view .LVU80
 377              	.LBB84:
 116:Middlewares/lvgl/src/widgets/../core/lv_obj_style_gen.h **** {
 117:Middlewares/lvgl/src/widgets/../core/lv_obj_style_gen.h ****     lv_style_value_t v = lv_obj_get_style_prop(obj, part, LV_STYLE_PAD_ROW);
 378              		.loc 2 117 5 view .LVU81
 379              		.loc 2 117 26 is_stmt 0 view .LVU82
 380 005e 41F21402 		movw	r2, #4116
 381 0062 0021     		movs	r1, #0
 382 0064 2846     		mov	r0, r5
 383 0066 FFF7FEFF 		bl	lv_obj_get_style_prop
 384              	.LVL34:
 385 006a 0446     		mov	r4, r0
 386              	.LVL35:
 118:Middlewares/lvgl/src/widgets/../core/lv_obj_style_gen.h ****     return (lv_coord_t)v.num;
 387              		.loc 2 118 5 is_stmt 1 view .LVU83
 388              		.loc 2 118 12 is_stmt 0 view .LVU84
 389 006c 06B2     		sxth	r6, r0
 390              	.LVL36:
 391              		.loc 2 118 12 view .LVU85
 392              	.LBE84:
 393              	.LBE83:
 891:Middlewares/lvgl/src/widgets/lv_btnmatrix.c ****     lv_coord_t pcol = lv_obj_get_style_pad_column(obj, LV_PART_MAIN);
 394              		.loc 1 891 5 is_stmt 1 view .LVU86
 395              	.LBB85:
 396              	.LBI85:
 119:Middlewares/lvgl/src/widgets/../core/lv_obj_style_gen.h **** }
 120:Middlewares/lvgl/src/widgets/../core/lv_obj_style_gen.h **** 
 121:Middlewares/lvgl/src/widgets/../core/lv_obj_style_gen.h **** static inline lv_coord_t lv_obj_get_style_pad_column(const struct _lv_obj_t * obj, uint32_t part)
 397              		.loc 2 121 26 view .LVU87
 398              	.LBB86:
 122:Middlewares/lvgl/src/widgets/../core/lv_obj_style_gen.h **** {
 123:Middlewares/lvgl/src/widgets/../core/lv_obj_style_gen.h ****     lv_style_value_t v = lv_obj_get_style_prop(obj, part, LV_STYLE_PAD_COLUMN);
 399              		.loc 2 123 5 view .LVU88
 400              		.loc 2 123 26 is_stmt 0 view .LVU89
 401 006e 41F21502 		movw	r2, #4117
 402 0072 0021     		movs	r1, #0
 403 0074 2846     		mov	r0, r5
 404              		.loc 2 123 26 view .LVU90
 405 0076 FFF7FEFF 		bl	lv_obj_get_style_prop
 406              	.LVL37:
 124:Middlewares/lvgl/src/widgets/../core/lv_obj_style_gen.h ****     return (lv_coord_t)v.num;
 407              		.loc 2 124 5 is_stmt 1 view .LVU91
 408              		.loc 2 124 12 is_stmt 0 view .LVU92
 409 007a 03B2     		sxth	r3, r0
 410              	.LVL38:
 411              		.loc 2 124 12 view .LVU93
 412              	.LBE86:
 413              	.LBE85:
 892:Middlewares/lvgl/src/widgets/lv_btnmatrix.c **** 
 893:Middlewares/lvgl/src/widgets/lv_btnmatrix.c ****     /*Get the half gap. Button look larger with this value. (+1 for rounding error)*/
 894:Middlewares/lvgl/src/widgets/lv_btnmatrix.c ****     prow = (prow / 2) + 1 + (prow & 1);
 414              		.loc 1 894 5 is_stmt 1 view .LVU94
ARM GAS  /tmp/ccnMQJLR.s 			page 26


 415              		.loc 1 894 35 is_stmt 0 view .LVU95
 416 007c 04F00104 		and	r4, r4, #1
 417              	.LVL39:
 418              		.loc 1 894 27 view .LVU96
 419 0080 06EBD676 		add	r6, r6, r6, lsr #31
 420              	.LVL40:
 421              		.loc 1 894 27 view .LVU97
 422 0084 04EB6606 		add	r6, r4, r6, asr #1
 423 0088 0136     		adds	r6, r6, #1
 424              		.loc 1 894 10 view .LVU98
 425 008a 36B2     		sxth	r6, r6
 426              	.LVL41:
 895:Middlewares/lvgl/src/widgets/lv_btnmatrix.c ****     pcol = (pcol / 2) + 1 + (pcol & 1);
 427              		.loc 1 895 5 is_stmt 1 view .LVU99
 428              		.loc 1 895 35 is_stmt 0 view .LVU100
 429 008c 00F0010A 		and	r10, r0, #1
 430              		.loc 1 895 27 view .LVU101
 431 0090 C0F3C030 		ubfx	r0, r0, #15, #1
 432              		.loc 1 895 27 view .LVU102
 433 0094 0344     		add	r3, r3, r0
 434              	.LVL42:
 435              		.loc 1 895 27 view .LVU103
 436 0096 0AEB630A 		add	r10, r10, r3, asr #1
 437 009a 0AF1010A 		add	r10, r10, #1
 438              		.loc 1 895 10 view .LVU104
 439 009e 0FFA8AFA 		sxth	r10, r10
 440              	.LVL43:
 896:Middlewares/lvgl/src/widgets/lv_btnmatrix.c **** 
 897:Middlewares/lvgl/src/widgets/lv_btnmatrix.c ****     prow = LV_MIN(prow, BTN_EXTRA_CLICK_AREA_MAX);
 441              		.loc 1 897 5 is_stmt 1 view .LVU105
 442              		.loc 1 897 10 is_stmt 0 view .LVU106
 443 00a2 0D2E     		cmp	r6, #13
 444 00a4 A8BF     		it	ge
 445 00a6 0D26     		movge	r6, #13
 446              	.LVL44:
 898:Middlewares/lvgl/src/widgets/lv_btnmatrix.c ****     pcol = LV_MIN(pcol, BTN_EXTRA_CLICK_AREA_MAX);
 447              		.loc 1 898 5 is_stmt 1 view .LVU107
 448              		.loc 1 898 10 is_stmt 0 view .LVU108
 449 00a8 BAF10D0F 		cmp	r10, #13
 450 00ac A8BF     		it	ge
 451 00ae 4FF00D0A 		movge	r10, #13
 452              	.LVL45:
 899:Middlewares/lvgl/src/widgets/lv_btnmatrix.c ****     pright = LV_MIN(pright, BTN_EXTRA_CLICK_AREA_MAX);
 453              		.loc 1 899 5 is_stmt 1 view .LVU109
 454              		.loc 1 899 12 is_stmt 0 view .LVU110
 455 00b2 B9F10D0F 		cmp	r9, #13
 456 00b6 A8BF     		it	ge
 457 00b8 4FF00D09 		movge	r9, #13
 458              	.LVL46:
 900:Middlewares/lvgl/src/widgets/lv_btnmatrix.c ****     ptop = LV_MIN(ptop, BTN_EXTRA_CLICK_AREA_MAX);
 459              		.loc 1 900 5 is_stmt 1 view .LVU111
 460              		.loc 1 900 10 is_stmt 0 view .LVU112
 461 00bc B8F10D0F 		cmp	r8, #13
 462 00c0 A8BF     		it	ge
 463 00c2 4FF00D08 		movge	r8, #13
 464              	.LVL47:
 901:Middlewares/lvgl/src/widgets/lv_btnmatrix.c ****     pbottom = LV_MIN(pbottom, BTN_EXTRA_CLICK_AREA_MAX);
ARM GAS  /tmp/ccnMQJLR.s 			page 27


 465              		.loc 1 901 5 is_stmt 1 view .LVU113
 466              		.loc 1 901 13 is_stmt 0 view .LVU114
 467 00c6 0D2F     		cmp	r7, #13
 468 00c8 A8BF     		it	ge
 469 00ca 0D27     		movge	r7, #13
 470              	.LVL48:
 902:Middlewares/lvgl/src/widgets/lv_btnmatrix.c **** 
 903:Middlewares/lvgl/src/widgets/lv_btnmatrix.c ****     for(i = 0; i < btnm->btn_cnt; i++) {
 471              		.loc 1 903 5 is_stmt 1 view .LVU115
 472              		.loc 1 903 11 is_stmt 0 view .LVU116
 473 00cc 0024     		movs	r4, #0
 474              		.loc 1 903 5 view .LVU117
 475 00ce 28E0     		b	.L13
 476              	.LVL49:
 477              	.L14:
 904:Middlewares/lvgl/src/widgets/lv_btnmatrix.c ****         lv_area_copy(&btn_area, &btnm->button_areas[i]);
 905:Middlewares/lvgl/src/widgets/lv_btnmatrix.c ****         if(btn_area.x1 <= pleft) btn_area.x1 += obj_cords.x1 - LV_MIN(pleft, BTN_EXTRA_CLICK_AREA_M
 906:Middlewares/lvgl/src/widgets/lv_btnmatrix.c ****         else btn_area.x1 += obj_cords.x1 - pcol;
 478              		.loc 1 906 14 is_stmt 1 view .LVU118
 479              		.loc 1 906 38 is_stmt 0 view .LVU119
 480 00d0 BDF81830 		ldrh	r3, [sp, #24]
 481              		.loc 1 906 42 view .LVU120
 482 00d4 A3EB0A03 		sub	r3, r3, r10
 483 00d8 9BB2     		uxth	r3, r3
 484              		.loc 1 906 26 view .LVU121
 485 00da 9C44     		add	ip, ip, r3
 486 00dc ADF810C0 		strh	ip, [sp, #16]	@ movhi
 487 00e0 47E0     		b	.L15
 488              	.L16:
 907:Middlewares/lvgl/src/widgets/lv_btnmatrix.c **** 
 908:Middlewares/lvgl/src/widgets/lv_btnmatrix.c ****         if(btn_area.y1 <= ptop) btn_area.y1 += obj_cords.y1 - LV_MIN(ptop, BTN_EXTRA_CLICK_AREA_MAX
 909:Middlewares/lvgl/src/widgets/lv_btnmatrix.c ****         else btn_area.y1 += obj_cords.y1 - prow;
 489              		.loc 1 909 14 is_stmt 1 view .LVU122
 490              		.loc 1 909 38 is_stmt 0 view .LVU123
 491 00e2 BDF81A30 		ldrh	r3, [sp, #26]
 492              		.loc 1 909 42 view .LVU124
 493 00e6 9B1B     		subs	r3, r3, r6
 494 00e8 9BB2     		uxth	r3, r3
 495              		.loc 1 909 26 view .LVU125
 496 00ea 1844     		add	r0, r0, r3
 497 00ec ADF81200 		strh	r0, [sp, #18]	@ movhi
 498 00f0 51E0     		b	.L17
 499              	.L18:
 910:Middlewares/lvgl/src/widgets/lv_btnmatrix.c **** 
 911:Middlewares/lvgl/src/widgets/lv_btnmatrix.c ****         if(btn_area.x2 >= w - pright - 2) btn_area.x2 += obj_cords.x1 + LV_MIN(pright,
 912:Middlewares/lvgl/src/widgets/lv_btnmatrix.c ****                                                                                          BTN_EXTRA_
 913:Middlewares/lvgl/src/widgets/lv_btnmatrix.c ****         else btn_area.x2 += obj_cords.x1 + pcol;
 500              		.loc 1 913 14 is_stmt 1 view .LVU126
 501              		.loc 1 913 38 is_stmt 0 view .LVU127
 502 00f2 BDF81830 		ldrh	r3, [sp, #24]
 503              		.loc 1 913 42 view .LVU128
 504 00f6 5344     		add	r3, r3, r10
 505 00f8 9BB2     		uxth	r3, r3
 506              		.loc 1 913 26 view .LVU129
 507 00fa 1944     		add	r1, r1, r3
 508 00fc ADF81410 		strh	r1, [sp, #20]	@ movhi
 509 0100 5BE0     		b	.L19
ARM GAS  /tmp/ccnMQJLR.s 			page 28


 510              	.L20:
 914:Middlewares/lvgl/src/widgets/lv_btnmatrix.c **** 
 915:Middlewares/lvgl/src/widgets/lv_btnmatrix.c ****         if(btn_area.y2 >= h - pbottom - 2) btn_area.y2 += obj_cords.y1 + LV_MIN(pbottom,
 916:Middlewares/lvgl/src/widgets/lv_btnmatrix.c ****                                                                                           BTN_EXTRA
 917:Middlewares/lvgl/src/widgets/lv_btnmatrix.c ****         else btn_area.y2 += obj_cords.y1 + prow;
 511              		.loc 1 917 14 is_stmt 1 view .LVU130
 512              		.loc 1 917 38 is_stmt 0 view .LVU131
 513 0102 BDF81A30 		ldrh	r3, [sp, #26]
 514              		.loc 1 917 42 view .LVU132
 515 0106 3344     		add	r3, r3, r6
 516 0108 9BB2     		uxth	r3, r3
 517              		.loc 1 917 26 view .LVU133
 518 010a 1A44     		add	r2, r2, r3
 519 010c ADF81620 		strh	r2, [sp, #22]	@ movhi
 520              	.L21:
 918:Middlewares/lvgl/src/widgets/lv_btnmatrix.c **** 
 919:Middlewares/lvgl/src/widgets/lv_btnmatrix.c ****         if(_lv_area_is_point_on(&btn_area, p, 0) != false) {
 521              		.loc 1 919 9 is_stmt 1 view .LVU134
 522              		.loc 1 919 12 is_stmt 0 view .LVU135
 523 0110 0022     		movs	r2, #0
 524 0112 0399     		ldr	r1, [sp, #12]
 525 0114 04A8     		add	r0, sp, #16
 526 0116 FFF7FEFF 		bl	_lv_area_is_point_on
 527              	.LVL50:
 528              		.loc 1 919 11 view .LVU136
 529 011a 0028     		cmp	r0, #0
 530 011c 5FD1     		bne	.L22
 903:Middlewares/lvgl/src/widgets/lv_btnmatrix.c ****         lv_area_copy(&btn_area, &btnm->button_areas[i]);
 531              		.loc 1 903 35 is_stmt 1 discriminator 2 view .LVU137
 903:Middlewares/lvgl/src/widgets/lv_btnmatrix.c ****         lv_area_copy(&btn_area, &btnm->button_areas[i]);
 532              		.loc 1 903 36 is_stmt 0 discriminator 2 view .LVU138
 533 011e 0134     		adds	r4, r4, #1
 534              	.LVL51:
 903:Middlewares/lvgl/src/widgets/lv_btnmatrix.c ****         lv_area_copy(&btn_area, &btnm->button_areas[i]);
 535              		.loc 1 903 36 discriminator 2 view .LVU139
 536 0120 A4B2     		uxth	r4, r4
 537              	.LVL52:
 538              	.L13:
 903:Middlewares/lvgl/src/widgets/lv_btnmatrix.c ****         lv_area_copy(&btn_area, &btnm->button_areas[i]);
 539              		.loc 1 903 16 is_stmt 1 discriminator 1 view .LVU140
 903:Middlewares/lvgl/src/widgets/lv_btnmatrix.c ****         lv_area_copy(&btn_area, &btnm->button_areas[i]);
 540              		.loc 1 903 24 is_stmt 0 discriminator 1 view .LVU141
 541 0122 2B8E     		ldrh	r3, [r5, #48]
 903:Middlewares/lvgl/src/widgets/lv_btnmatrix.c ****         lv_area_copy(&btn_area, &btnm->button_areas[i]);
 542              		.loc 1 903 5 discriminator 1 view .LVU142
 543 0124 A342     		cmp	r3, r4
 544 0126 5AD9     		bls	.L22
 904:Middlewares/lvgl/src/widgets/lv_btnmatrix.c ****         if(btn_area.x1 <= pleft) btn_area.x1 += obj_cords.x1 - LV_MIN(pleft, BTN_EXTRA_CLICK_AREA_M
 545              		.loc 1 904 9 is_stmt 1 view .LVU143
 904:Middlewares/lvgl/src/widgets/lv_btnmatrix.c ****         if(btn_area.x1 <= pleft) btn_area.x1 += obj_cords.x1 - LV_MIN(pleft, BTN_EXTRA_CLICK_AREA_M
 546              		.loc 1 904 38 is_stmt 0 view .LVU144
 547 0128 AA6A     		ldr	r2, [r5, #40]
 904:Middlewares/lvgl/src/widgets/lv_btnmatrix.c ****         if(btn_area.x1 <= pleft) btn_area.x1 += obj_cords.x1 - LV_MIN(pleft, BTN_EXTRA_CLICK_AREA_M
 548              		.loc 1 904 33 view .LVU145
 549 012a 02EBC403 		add	r3, r2, r4, lsl #3
 550              	.LVL53:
 551              	.LBB87:
ARM GAS  /tmp/ccnMQJLR.s 			page 29


 552              	.LBI87:
 553              		.file 3 "Middlewares/lvgl/src/widgets/../core/../misc/../font/../misc/lv_area.h"
   1:Middlewares/lvgl/src/widgets/../core/../misc/../font/../misc/lv_area.h **** /**
   2:Middlewares/lvgl/src/widgets/../core/../misc/../font/../misc/lv_area.h ****  * @file lv_area.h
   3:Middlewares/lvgl/src/widgets/../core/../misc/../font/../misc/lv_area.h ****  *
   4:Middlewares/lvgl/src/widgets/../core/../misc/../font/../misc/lv_area.h ****  */
   5:Middlewares/lvgl/src/widgets/../core/../misc/../font/../misc/lv_area.h **** 
   6:Middlewares/lvgl/src/widgets/../core/../misc/../font/../misc/lv_area.h **** #ifndef LV_AREA_H
   7:Middlewares/lvgl/src/widgets/../core/../misc/../font/../misc/lv_area.h **** #define LV_AREA_H
   8:Middlewares/lvgl/src/widgets/../core/../misc/../font/../misc/lv_area.h **** 
   9:Middlewares/lvgl/src/widgets/../core/../misc/../font/../misc/lv_area.h **** #ifdef __cplusplus
  10:Middlewares/lvgl/src/widgets/../core/../misc/../font/../misc/lv_area.h **** extern "C" {
  11:Middlewares/lvgl/src/widgets/../core/../misc/../font/../misc/lv_area.h **** #endif
  12:Middlewares/lvgl/src/widgets/../core/../misc/../font/../misc/lv_area.h **** 
  13:Middlewares/lvgl/src/widgets/../core/../misc/../font/../misc/lv_area.h **** /*********************
  14:Middlewares/lvgl/src/widgets/../core/../misc/../font/../misc/lv_area.h ****  *      INCLUDES
  15:Middlewares/lvgl/src/widgets/../core/../misc/../font/../misc/lv_area.h ****  *********************/
  16:Middlewares/lvgl/src/widgets/../core/../misc/../font/../misc/lv_area.h **** #include "../lv_conf_internal.h"
  17:Middlewares/lvgl/src/widgets/../core/../misc/../font/../misc/lv_area.h **** #include <string.h>
  18:Middlewares/lvgl/src/widgets/../core/../misc/../font/../misc/lv_area.h **** #include <stdbool.h>
  19:Middlewares/lvgl/src/widgets/../core/../misc/../font/../misc/lv_area.h **** #include <stdint.h>
  20:Middlewares/lvgl/src/widgets/../core/../misc/../font/../misc/lv_area.h **** 
  21:Middlewares/lvgl/src/widgets/../core/../misc/../font/../misc/lv_area.h **** /*********************
  22:Middlewares/lvgl/src/widgets/../core/../misc/../font/../misc/lv_area.h ****  *      DEFINES
  23:Middlewares/lvgl/src/widgets/../core/../misc/../font/../misc/lv_area.h ****  *********************/
  24:Middlewares/lvgl/src/widgets/../core/../misc/../font/../misc/lv_area.h **** 
  25:Middlewares/lvgl/src/widgets/../core/../misc/../font/../misc/lv_area.h **** #define _LV_COORD_MAX_REDUCE    8192
  26:Middlewares/lvgl/src/widgets/../core/../misc/../font/../misc/lv_area.h **** 
  27:Middlewares/lvgl/src/widgets/../core/../misc/../font/../misc/lv_area.h **** #if LV_USE_LARGE_COORD
  28:Middlewares/lvgl/src/widgets/../core/../misc/../font/../misc/lv_area.h **** typedef int32_t lv_coord_t;
  29:Middlewares/lvgl/src/widgets/../core/../misc/../font/../misc/lv_area.h **** #else
  30:Middlewares/lvgl/src/widgets/../core/../misc/../font/../misc/lv_area.h **** typedef int16_t lv_coord_t;
  31:Middlewares/lvgl/src/widgets/../core/../misc/../font/../misc/lv_area.h **** #endif
  32:Middlewares/lvgl/src/widgets/../core/../misc/../font/../misc/lv_area.h **** 
  33:Middlewares/lvgl/src/widgets/../core/../misc/../font/../misc/lv_area.h **** /*To allow some special values in the end reduce the max value*/
  34:Middlewares/lvgl/src/widgets/../core/../misc/../font/../misc/lv_area.h **** #define LV_COORD_MAX ((lv_coord_t)((uint32_t)((uint32_t)1 << (8 * sizeof(lv_coord_t) - 1)) - _LV_CO
  35:Middlewares/lvgl/src/widgets/../core/../misc/../font/../misc/lv_area.h **** #define LV_COORD_MIN (-LV_COORD_MAX)
  36:Middlewares/lvgl/src/widgets/../core/../misc/../font/../misc/lv_area.h **** 
  37:Middlewares/lvgl/src/widgets/../core/../misc/../font/../misc/lv_area.h **** LV_EXPORT_CONST_INT(LV_COORD_MAX);
  38:Middlewares/lvgl/src/widgets/../core/../misc/../font/../misc/lv_area.h **** LV_EXPORT_CONST_INT(LV_COORD_MIN);
  39:Middlewares/lvgl/src/widgets/../core/../misc/../font/../misc/lv_area.h **** 
  40:Middlewares/lvgl/src/widgets/../core/../misc/../font/../misc/lv_area.h **** /**********************
  41:Middlewares/lvgl/src/widgets/../core/../misc/../font/../misc/lv_area.h ****  *      TYPEDEFS
  42:Middlewares/lvgl/src/widgets/../core/../misc/../font/../misc/lv_area.h ****  **********************/
  43:Middlewares/lvgl/src/widgets/../core/../misc/../font/../misc/lv_area.h **** 
  44:Middlewares/lvgl/src/widgets/../core/../misc/../font/../misc/lv_area.h **** /**
  45:Middlewares/lvgl/src/widgets/../core/../misc/../font/../misc/lv_area.h ****  * Represents a point on the screen.
  46:Middlewares/lvgl/src/widgets/../core/../misc/../font/../misc/lv_area.h ****  */
  47:Middlewares/lvgl/src/widgets/../core/../misc/../font/../misc/lv_area.h **** typedef struct {
  48:Middlewares/lvgl/src/widgets/../core/../misc/../font/../misc/lv_area.h ****     lv_coord_t x;
  49:Middlewares/lvgl/src/widgets/../core/../misc/../font/../misc/lv_area.h ****     lv_coord_t y;
  50:Middlewares/lvgl/src/widgets/../core/../misc/../font/../misc/lv_area.h **** } lv_point_t;
  51:Middlewares/lvgl/src/widgets/../core/../misc/../font/../misc/lv_area.h **** 
  52:Middlewares/lvgl/src/widgets/../core/../misc/../font/../misc/lv_area.h **** /** Represents an area of the screen.*/
  53:Middlewares/lvgl/src/widgets/../core/../misc/../font/../misc/lv_area.h **** typedef struct {
  54:Middlewares/lvgl/src/widgets/../core/../misc/../font/../misc/lv_area.h ****     lv_coord_t x1;
  55:Middlewares/lvgl/src/widgets/../core/../misc/../font/../misc/lv_area.h ****     lv_coord_t y1;
ARM GAS  /tmp/ccnMQJLR.s 			page 30


  56:Middlewares/lvgl/src/widgets/../core/../misc/../font/../misc/lv_area.h ****     lv_coord_t x2;
  57:Middlewares/lvgl/src/widgets/../core/../misc/../font/../misc/lv_area.h ****     lv_coord_t y2;
  58:Middlewares/lvgl/src/widgets/../core/../misc/../font/../misc/lv_area.h **** } lv_area_t;
  59:Middlewares/lvgl/src/widgets/../core/../misc/../font/../misc/lv_area.h **** 
  60:Middlewares/lvgl/src/widgets/../core/../misc/../font/../misc/lv_area.h **** /** Alignments*/
  61:Middlewares/lvgl/src/widgets/../core/../misc/../font/../misc/lv_area.h **** enum {
  62:Middlewares/lvgl/src/widgets/../core/../misc/../font/../misc/lv_area.h ****     LV_ALIGN_DEFAULT = 0,
  63:Middlewares/lvgl/src/widgets/../core/../misc/../font/../misc/lv_area.h ****     LV_ALIGN_TOP_LEFT,
  64:Middlewares/lvgl/src/widgets/../core/../misc/../font/../misc/lv_area.h ****     LV_ALIGN_TOP_MID,
  65:Middlewares/lvgl/src/widgets/../core/../misc/../font/../misc/lv_area.h ****     LV_ALIGN_TOP_RIGHT,
  66:Middlewares/lvgl/src/widgets/../core/../misc/../font/../misc/lv_area.h ****     LV_ALIGN_BOTTOM_LEFT,
  67:Middlewares/lvgl/src/widgets/../core/../misc/../font/../misc/lv_area.h ****     LV_ALIGN_BOTTOM_MID,
  68:Middlewares/lvgl/src/widgets/../core/../misc/../font/../misc/lv_area.h ****     LV_ALIGN_BOTTOM_RIGHT,
  69:Middlewares/lvgl/src/widgets/../core/../misc/../font/../misc/lv_area.h ****     LV_ALIGN_LEFT_MID,
  70:Middlewares/lvgl/src/widgets/../core/../misc/../font/../misc/lv_area.h ****     LV_ALIGN_RIGHT_MID,
  71:Middlewares/lvgl/src/widgets/../core/../misc/../font/../misc/lv_area.h ****     LV_ALIGN_CENTER,
  72:Middlewares/lvgl/src/widgets/../core/../misc/../font/../misc/lv_area.h **** 
  73:Middlewares/lvgl/src/widgets/../core/../misc/../font/../misc/lv_area.h ****     LV_ALIGN_OUT_TOP_LEFT,
  74:Middlewares/lvgl/src/widgets/../core/../misc/../font/../misc/lv_area.h ****     LV_ALIGN_OUT_TOP_MID,
  75:Middlewares/lvgl/src/widgets/../core/../misc/../font/../misc/lv_area.h ****     LV_ALIGN_OUT_TOP_RIGHT,
  76:Middlewares/lvgl/src/widgets/../core/../misc/../font/../misc/lv_area.h ****     LV_ALIGN_OUT_BOTTOM_LEFT,
  77:Middlewares/lvgl/src/widgets/../core/../misc/../font/../misc/lv_area.h ****     LV_ALIGN_OUT_BOTTOM_MID,
  78:Middlewares/lvgl/src/widgets/../core/../misc/../font/../misc/lv_area.h ****     LV_ALIGN_OUT_BOTTOM_RIGHT,
  79:Middlewares/lvgl/src/widgets/../core/../misc/../font/../misc/lv_area.h ****     LV_ALIGN_OUT_LEFT_TOP,
  80:Middlewares/lvgl/src/widgets/../core/../misc/../font/../misc/lv_area.h ****     LV_ALIGN_OUT_LEFT_MID,
  81:Middlewares/lvgl/src/widgets/../core/../misc/../font/../misc/lv_area.h ****     LV_ALIGN_OUT_LEFT_BOTTOM,
  82:Middlewares/lvgl/src/widgets/../core/../misc/../font/../misc/lv_area.h ****     LV_ALIGN_OUT_RIGHT_TOP,
  83:Middlewares/lvgl/src/widgets/../core/../misc/../font/../misc/lv_area.h ****     LV_ALIGN_OUT_RIGHT_MID,
  84:Middlewares/lvgl/src/widgets/../core/../misc/../font/../misc/lv_area.h ****     LV_ALIGN_OUT_RIGHT_BOTTOM,
  85:Middlewares/lvgl/src/widgets/../core/../misc/../font/../misc/lv_area.h **** };
  86:Middlewares/lvgl/src/widgets/../core/../misc/../font/../misc/lv_area.h **** typedef uint8_t lv_align_t;
  87:Middlewares/lvgl/src/widgets/../core/../misc/../font/../misc/lv_area.h **** 
  88:Middlewares/lvgl/src/widgets/../core/../misc/../font/../misc/lv_area.h **** enum {
  89:Middlewares/lvgl/src/widgets/../core/../misc/../font/../misc/lv_area.h ****     LV_DIR_NONE     = 0x00,
  90:Middlewares/lvgl/src/widgets/../core/../misc/../font/../misc/lv_area.h ****     LV_DIR_LEFT     = (1 << 0),
  91:Middlewares/lvgl/src/widgets/../core/../misc/../font/../misc/lv_area.h ****     LV_DIR_RIGHT    = (1 << 1),
  92:Middlewares/lvgl/src/widgets/../core/../misc/../font/../misc/lv_area.h ****     LV_DIR_TOP      = (1 << 2),
  93:Middlewares/lvgl/src/widgets/../core/../misc/../font/../misc/lv_area.h ****     LV_DIR_BOTTOM   = (1 << 3),
  94:Middlewares/lvgl/src/widgets/../core/../misc/../font/../misc/lv_area.h ****     LV_DIR_HOR      = LV_DIR_LEFT | LV_DIR_RIGHT,
  95:Middlewares/lvgl/src/widgets/../core/../misc/../font/../misc/lv_area.h ****     LV_DIR_VER      = LV_DIR_TOP | LV_DIR_BOTTOM,
  96:Middlewares/lvgl/src/widgets/../core/../misc/../font/../misc/lv_area.h ****     LV_DIR_ALL      = LV_DIR_HOR | LV_DIR_VER,
  97:Middlewares/lvgl/src/widgets/../core/../misc/../font/../misc/lv_area.h **** };
  98:Middlewares/lvgl/src/widgets/../core/../misc/../font/../misc/lv_area.h **** 
  99:Middlewares/lvgl/src/widgets/../core/../misc/../font/../misc/lv_area.h **** typedef uint8_t lv_dir_t;
 100:Middlewares/lvgl/src/widgets/../core/../misc/../font/../misc/lv_area.h **** 
 101:Middlewares/lvgl/src/widgets/../core/../misc/../font/../misc/lv_area.h **** /**********************
 102:Middlewares/lvgl/src/widgets/../core/../misc/../font/../misc/lv_area.h ****  * GLOBAL PROTOTYPES
 103:Middlewares/lvgl/src/widgets/../core/../misc/../font/../misc/lv_area.h ****  **********************/
 104:Middlewares/lvgl/src/widgets/../core/../misc/../font/../misc/lv_area.h **** 
 105:Middlewares/lvgl/src/widgets/../core/../misc/../font/../misc/lv_area.h **** /**
 106:Middlewares/lvgl/src/widgets/../core/../misc/../font/../misc/lv_area.h ****  * Initialize an area
 107:Middlewares/lvgl/src/widgets/../core/../misc/../font/../misc/lv_area.h ****  * @param area_p pointer to an area
 108:Middlewares/lvgl/src/widgets/../core/../misc/../font/../misc/lv_area.h ****  * @param x1 left coordinate of the area
 109:Middlewares/lvgl/src/widgets/../core/../misc/../font/../misc/lv_area.h ****  * @param y1 top coordinate of the area
 110:Middlewares/lvgl/src/widgets/../core/../misc/../font/../misc/lv_area.h ****  * @param x2 right coordinate of the area
 111:Middlewares/lvgl/src/widgets/../core/../misc/../font/../misc/lv_area.h ****  * @param y2 bottom coordinate of the area
 112:Middlewares/lvgl/src/widgets/../core/../misc/../font/../misc/lv_area.h ****  */
ARM GAS  /tmp/ccnMQJLR.s 			page 31


 113:Middlewares/lvgl/src/widgets/../core/../misc/../font/../misc/lv_area.h **** void lv_area_set(lv_area_t * area_p, lv_coord_t x1, lv_coord_t y1, lv_coord_t x2, lv_coord_t y2);
 114:Middlewares/lvgl/src/widgets/../core/../misc/../font/../misc/lv_area.h **** 
 115:Middlewares/lvgl/src/widgets/../core/../misc/../font/../misc/lv_area.h **** /**
 116:Middlewares/lvgl/src/widgets/../core/../misc/../font/../misc/lv_area.h ****  * Copy an area
 117:Middlewares/lvgl/src/widgets/../core/../misc/../font/../misc/lv_area.h ****  * @param dest pointer to the destination area
 118:Middlewares/lvgl/src/widgets/../core/../misc/../font/../misc/lv_area.h ****  * @param src pointer to the source area
 119:Middlewares/lvgl/src/widgets/../core/../misc/../font/../misc/lv_area.h ****  */
 120:Middlewares/lvgl/src/widgets/../core/../misc/../font/../misc/lv_area.h **** inline static void lv_area_copy(lv_area_t * dest, const lv_area_t * src)
 554              		.loc 3 120 20 is_stmt 1 view .LVU146
 555              	.LBB88:
 121:Middlewares/lvgl/src/widgets/../core/../misc/../font/../misc/lv_area.h **** {
 122:Middlewares/lvgl/src/widgets/../core/../misc/../font/../misc/lv_area.h ****     dest->x1 = src->x1;
 556              		.loc 3 122 5 view .LVU147
 557              		.loc 3 122 19 is_stmt 0 view .LVU148
 558 012e 32F934C0 		ldrsh	ip, [r2, r4, lsl #3]
 559              		.loc 3 122 14 view .LVU149
 560 0132 ADF810C0 		strh	ip, [sp, #16]	@ movhi
 123:Middlewares/lvgl/src/widgets/../core/../misc/../font/../misc/lv_area.h ****     dest->y1 = src->y1;
 561              		.loc 3 123 5 is_stmt 1 view .LVU150
 562              		.loc 3 123 19 is_stmt 0 view .LVU151
 563 0136 B3F90200 		ldrsh	r0, [r3, #2]
 564              		.loc 3 123 14 view .LVU152
 565 013a ADF81200 		strh	r0, [sp, #18]	@ movhi
 124:Middlewares/lvgl/src/widgets/../core/../misc/../font/../misc/lv_area.h ****     dest->x2 = src->x2;
 566              		.loc 3 124 5 is_stmt 1 view .LVU153
 567              		.loc 3 124 19 is_stmt 0 view .LVU154
 568 013e B3F90410 		ldrsh	r1, [r3, #4]
 569              		.loc 3 124 14 view .LVU155
 570 0142 ADF81410 		strh	r1, [sp, #20]	@ movhi
 125:Middlewares/lvgl/src/widgets/../core/../misc/../font/../misc/lv_area.h ****     dest->y2 = src->y2;
 571              		.loc 3 125 5 is_stmt 1 view .LVU156
 572              		.loc 3 125 19 is_stmt 0 view .LVU157
 573 0146 B3F90620 		ldrsh	r2, [r3, #6]
 574              		.loc 3 125 14 view .LVU158
 575 014a ADF81620 		strh	r2, [sp, #22]	@ movhi
 576              	.LVL54:
 577              		.loc 3 125 14 view .LVU159
 578              	.LBE88:
 579              	.LBE87:
 905:Middlewares/lvgl/src/widgets/lv_btnmatrix.c ****         else btn_area.x1 += obj_cords.x1 - pcol;
 580              		.loc 1 905 9 is_stmt 1 view .LVU160
 905:Middlewares/lvgl/src/widgets/lv_btnmatrix.c ****         else btn_area.x1 += obj_cords.x1 - pcol;
 581              		.loc 1 905 11 is_stmt 0 view .LVU161
 582 014e E345     		cmp	fp, ip
 583 0150 BEDB     		blt	.L14
 905:Middlewares/lvgl/src/widgets/lv_btnmatrix.c ****         else btn_area.x1 += obj_cords.x1 - pcol;
 584              		.loc 1 905 34 is_stmt 1 discriminator 1 view .LVU162
 905:Middlewares/lvgl/src/widgets/lv_btnmatrix.c ****         else btn_area.x1 += obj_cords.x1 - pcol;
 585              		.loc 1 905 58 is_stmt 0 discriminator 1 view .LVU163
 586 0152 BDF81830 		ldrh	r3, [sp, #24]
 905:Middlewares/lvgl/src/widgets/lv_btnmatrix.c ****         else btn_area.x1 += obj_cords.x1 - pcol;
 587              		.loc 1 905 64 discriminator 1 view .LVU164
 588 0156 DE46     		mov	lr, fp
 589 0158 BBF10D0F 		cmp	fp, #13
 590 015c A8BF     		it	ge
 591 015e 4FF00D0E 		movge	lr, #13
 592 0162 1FFA8EFE 		uxth	lr, lr
ARM GAS  /tmp/ccnMQJLR.s 			page 32


 905:Middlewares/lvgl/src/widgets/lv_btnmatrix.c ****         else btn_area.x1 += obj_cords.x1 - pcol;
 593              		.loc 1 905 62 discriminator 1 view .LVU165
 594 0166 A3EB0E03 		sub	r3, r3, lr
 595 016a 9BB2     		uxth	r3, r3
 905:Middlewares/lvgl/src/widgets/lv_btnmatrix.c ****         else btn_area.x1 += obj_cords.x1 - pcol;
 596              		.loc 1 905 46 discriminator 1 view .LVU166
 597 016c 9C44     		add	ip, ip, r3
 598 016e ADF810C0 		strh	ip, [sp, #16]	@ movhi
 599              	.L15:
 908:Middlewares/lvgl/src/widgets/lv_btnmatrix.c ****         else btn_area.y1 += obj_cords.y1 - prow;
 600              		.loc 1 908 9 is_stmt 1 view .LVU167
 908:Middlewares/lvgl/src/widgets/lv_btnmatrix.c ****         else btn_area.y1 += obj_cords.y1 - prow;
 601              		.loc 1 908 11 is_stmt 0 view .LVU168
 602 0172 8045     		cmp	r8, r0
 603 0174 B5DB     		blt	.L16
 908:Middlewares/lvgl/src/widgets/lv_btnmatrix.c ****         else btn_area.y1 += obj_cords.y1 - prow;
 604              		.loc 1 908 33 is_stmt 1 discriminator 1 view .LVU169
 908:Middlewares/lvgl/src/widgets/lv_btnmatrix.c ****         else btn_area.y1 += obj_cords.y1 - prow;
 605              		.loc 1 908 57 is_stmt 0 discriminator 1 view .LVU170
 606 0176 BDF81A30 		ldrh	r3, [sp, #26]
 908:Middlewares/lvgl/src/widgets/lv_btnmatrix.c ****         else btn_area.y1 += obj_cords.y1 - prow;
 607              		.loc 1 908 63 discriminator 1 view .LVU171
 608 017a C446     		mov	ip, r8
 609 017c B8F10D0F 		cmp	r8, #13
 610 0180 A8BF     		it	ge
 611 0182 4FF00D0C 		movge	ip, #13
 612 0186 1FFA8CFC 		uxth	ip, ip
 908:Middlewares/lvgl/src/widgets/lv_btnmatrix.c ****         else btn_area.y1 += obj_cords.y1 - prow;
 613              		.loc 1 908 61 discriminator 1 view .LVU172
 614 018a A3EB0C03 		sub	r3, r3, ip
 615 018e 9BB2     		uxth	r3, r3
 908:Middlewares/lvgl/src/widgets/lv_btnmatrix.c ****         else btn_area.y1 += obj_cords.y1 - prow;
 616              		.loc 1 908 45 discriminator 1 view .LVU173
 617 0190 1844     		add	r0, r0, r3
 618 0192 ADF81200 		strh	r0, [sp, #18]	@ movhi
 619              	.L17:
 911:Middlewares/lvgl/src/widgets/lv_btnmatrix.c ****                                                                                          BTN_EXTRA_
 620              		.loc 1 911 9 is_stmt 1 view .LVU174
 911:Middlewares/lvgl/src/widgets/lv_btnmatrix.c ****                                                                                          BTN_EXTRA_
 621              		.loc 1 911 29 is_stmt 0 view .LVU175
 622 0196 019B     		ldr	r3, [sp, #4]
 623 0198 A3EB0903 		sub	r3, r3, r9
 911:Middlewares/lvgl/src/widgets/lv_btnmatrix.c ****                                                                                          BTN_EXTRA_
 624              		.loc 1 911 38 view .LVU176
 625 019c 023B     		subs	r3, r3, #2
 911:Middlewares/lvgl/src/widgets/lv_btnmatrix.c ****                                                                                          BTN_EXTRA_
 626              		.loc 1 911 11 view .LVU177
 627 019e 9942     		cmp	r1, r3
 628 01a0 A7DB     		blt	.L18
 911:Middlewares/lvgl/src/widgets/lv_btnmatrix.c ****                                                                                          BTN_EXTRA_
 629              		.loc 1 911 43 is_stmt 1 discriminator 1 view .LVU178
 911:Middlewares/lvgl/src/widgets/lv_btnmatrix.c ****                                                                                          BTN_EXTRA_
 630              		.loc 1 911 67 is_stmt 0 discriminator 1 view .LVU179
 631 01a2 BDF81830 		ldrh	r3, [sp, #24]
 911:Middlewares/lvgl/src/widgets/lv_btnmatrix.c ****                                                                                          BTN_EXTRA_
 632              		.loc 1 911 73 discriminator 1 view .LVU180
 633 01a6 4846     		mov	r0, r9
ARM GAS  /tmp/ccnMQJLR.s 			page 33


 634 01a8 0D28     		cmp	r0, #13
 635 01aa A8BF     		it	ge
 636 01ac 0D20     		movge	r0, #13
 637 01ae 80B2     		uxth	r0, r0
 911:Middlewares/lvgl/src/widgets/lv_btnmatrix.c ****                                                                                          BTN_EXTRA_
 638              		.loc 1 911 71 discriminator 1 view .LVU181
 639 01b0 0344     		add	r3, r3, r0
 640 01b2 9BB2     		uxth	r3, r3
 911:Middlewares/lvgl/src/widgets/lv_btnmatrix.c ****                                                                                          BTN_EXTRA_
 641              		.loc 1 911 55 discriminator 1 view .LVU182
 642 01b4 1944     		add	r1, r1, r3
 643 01b6 ADF81410 		strh	r1, [sp, #20]	@ movhi
 644              	.L19:
 915:Middlewares/lvgl/src/widgets/lv_btnmatrix.c ****                                                                                           BTN_EXTRA
 645              		.loc 1 915 9 is_stmt 1 view .LVU183
 915:Middlewares/lvgl/src/widgets/lv_btnmatrix.c ****                                                                                           BTN_EXTRA
 646              		.loc 1 915 29 is_stmt 0 view .LVU184
 647 01ba 029B     		ldr	r3, [sp, #8]
 648 01bc DB1B     		subs	r3, r3, r7
 915:Middlewares/lvgl/src/widgets/lv_btnmatrix.c ****                                                                                           BTN_EXTRA
 649              		.loc 1 915 39 view .LVU185
 650 01be 023B     		subs	r3, r3, #2
 915:Middlewares/lvgl/src/widgets/lv_btnmatrix.c ****                                                                                           BTN_EXTRA
 651              		.loc 1 915 11 view .LVU186
 652 01c0 9A42     		cmp	r2, r3
 653 01c2 9EDB     		blt	.L20
 915:Middlewares/lvgl/src/widgets/lv_btnmatrix.c ****                                                                                           BTN_EXTRA
 654              		.loc 1 915 44 is_stmt 1 discriminator 1 view .LVU187
 915:Middlewares/lvgl/src/widgets/lv_btnmatrix.c ****                                                                                           BTN_EXTRA
 655              		.loc 1 915 68 is_stmt 0 discriminator 1 view .LVU188
 656 01c4 BDF81A30 		ldrh	r3, [sp, #26]
 915:Middlewares/lvgl/src/widgets/lv_btnmatrix.c ****                                                                                           BTN_EXTRA
 657              		.loc 1 915 74 discriminator 1 view .LVU189
 658 01c8 3946     		mov	r1, r7
 659 01ca 0D2F     		cmp	r7, #13
 660 01cc A8BF     		it	ge
 661 01ce 0D21     		movge	r1, #13
 662 01d0 89B2     		uxth	r1, r1
 915:Middlewares/lvgl/src/widgets/lv_btnmatrix.c ****                                                                                           BTN_EXTRA
 663              		.loc 1 915 72 discriminator 1 view .LVU190
 664 01d2 0B44     		add	r3, r3, r1
 665 01d4 9BB2     		uxth	r3, r3
 915:Middlewares/lvgl/src/widgets/lv_btnmatrix.c ****                                                                                           BTN_EXTRA
 666              		.loc 1 915 56 discriminator 1 view .LVU191
 667 01d6 1A44     		add	r2, r2, r3
 668 01d8 ADF81620 		strh	r2, [sp, #22]	@ movhi
 669 01dc 98E7     		b	.L21
 670              	.L22:
 920:Middlewares/lvgl/src/widgets/lv_btnmatrix.c ****             break;
 921:Middlewares/lvgl/src/widgets/lv_btnmatrix.c ****         }
 922:Middlewares/lvgl/src/widgets/lv_btnmatrix.c ****     }
 923:Middlewares/lvgl/src/widgets/lv_btnmatrix.c **** 
 924:Middlewares/lvgl/src/widgets/lv_btnmatrix.c ****     if(i == btnm->btn_cnt) i = LV_BTNMATRIX_BTN_NONE;
 671              		.loc 1 924 5 is_stmt 1 view .LVU192
 672              		.loc 1 924 17 is_stmt 0 view .LVU193
 673 01de 2B8E     		ldrh	r3, [r5, #48]
 674              		.loc 1 924 7 view .LVU194
ARM GAS  /tmp/ccnMQJLR.s 			page 34


 675 01e0 A342     		cmp	r3, r4
 676 01e2 03D0     		beq	.L27
 677              	.LVL55:
 678              	.L24:
 925:Middlewares/lvgl/src/widgets/lv_btnmatrix.c **** 
 926:Middlewares/lvgl/src/widgets/lv_btnmatrix.c ****     return i;
 679              		.loc 1 926 5 is_stmt 1 view .LVU195
 927:Middlewares/lvgl/src/widgets/lv_btnmatrix.c **** }
 680              		.loc 1 927 1 is_stmt 0 view .LVU196
 681 01e4 2046     		mov	r0, r4
 682 01e6 09B0     		add	sp, sp, #36
 683              	.LCFI2:
 684              		.cfi_remember_state
 685              		.cfi_def_cfa_offset 36
 686              		@ sp needed
 687 01e8 BDE8F08F 		pop	{r4, r5, r6, r7, r8, r9, r10, fp, pc}
 688              	.LVL56:
 689              	.L27:
 690              	.LCFI3:
 691              		.cfi_restore_state
 924:Middlewares/lvgl/src/widgets/lv_btnmatrix.c **** 
 692              		.loc 1 924 30 view .LVU197
 693 01ec 4FF6FF74 		movw	r4, #65535
 694              	.LVL57:
 924:Middlewares/lvgl/src/widgets/lv_btnmatrix.c **** 
 695              		.loc 1 924 30 view .LVU198
 696 01f0 F8E7     		b	.L24
 697              		.cfi_endproc
 698              	.LFE176:
 700              		.section	.text.invalidate_button_area,"ax",%progbits
 701              		.align	1
 702              		.syntax unified
 703              		.thumb
 704              		.thumb_func
 705              		.fpu softvfp
 707              	invalidate_button_area:
 708              	.LVL58:
 709              	.LFB177:
 928:Middlewares/lvgl/src/widgets/lv_btnmatrix.c **** 
 929:Middlewares/lvgl/src/widgets/lv_btnmatrix.c **** static void invalidate_button_area(const lv_obj_t * obj, uint16_t btn_idx)
 930:Middlewares/lvgl/src/widgets/lv_btnmatrix.c **** {
 710              		.loc 1 930 1 is_stmt 1 view -0
 711              		.cfi_startproc
 712              		@ args = 0, pretend = 0, frame = 16
 713              		@ frame_needed = 0, uses_anonymous_args = 0
 931:Middlewares/lvgl/src/widgets/lv_btnmatrix.c ****     if(btn_idx == LV_BTNMATRIX_BTN_NONE) return;
 714              		.loc 1 931 5 view .LVU200
 715              		.loc 1 931 7 is_stmt 0 view .LVU201
 716 0000 4FF6FF73 		movw	r3, #65535
 717 0004 9942     		cmp	r1, r3
 718 0006 61D0     		beq	.L32
 930:Middlewares/lvgl/src/widgets/lv_btnmatrix.c ****     if(btn_idx == LV_BTNMATRIX_BTN_NONE) return;
 719              		.loc 1 930 1 view .LVU202
 720 0008 70B5     		push	{r4, r5, r6, lr}
 721              	.LCFI4:
 722              		.cfi_def_cfa_offset 16
 723              		.cfi_offset 4, -16
ARM GAS  /tmp/ccnMQJLR.s 			page 35


 724              		.cfi_offset 5, -12
 725              		.cfi_offset 6, -8
 726              		.cfi_offset 14, -4
 727 000a 84B0     		sub	sp, sp, #16
 728              	.LCFI5:
 729              		.cfi_def_cfa_offset 32
 730 000c 0446     		mov	r4, r0
 932:Middlewares/lvgl/src/widgets/lv_btnmatrix.c **** 
 933:Middlewares/lvgl/src/widgets/lv_btnmatrix.c ****     lv_area_t btn_area;
 731              		.loc 1 933 5 is_stmt 1 view .LVU203
 934:Middlewares/lvgl/src/widgets/lv_btnmatrix.c ****     lv_area_t obj_area;
 732              		.loc 1 934 5 view .LVU204
 935:Middlewares/lvgl/src/widgets/lv_btnmatrix.c **** 
 936:Middlewares/lvgl/src/widgets/lv_btnmatrix.c ****     lv_btnmatrix_t * btnm = (lv_btnmatrix_t *)obj;;
 733              		.loc 1 936 5 view .LVU205
 734              	.LVL59:
 735              		.loc 1 936 51 view .LVU206
 937:Middlewares/lvgl/src/widgets/lv_btnmatrix.c ****     lv_area_copy(&btn_area, &btnm->button_areas[btn_idx]);
 736              		.loc 1 937 5 view .LVU207
 737              		.loc 1 937 34 is_stmt 0 view .LVU208
 738 000e 826A     		ldr	r2, [r0, #40]
 739              		.loc 1 937 29 view .LVU209
 740 0010 02EBC103 		add	r3, r2, r1, lsl #3
 741              	.LVL60:
 742              	.LBB89:
 743              	.LBI89:
 120:Middlewares/lvgl/src/widgets/../core/../misc/../font/../misc/lv_area.h **** {
 744              		.loc 3 120 20 is_stmt 1 view .LVU210
 745              	.LBB90:
 122:Middlewares/lvgl/src/widgets/../core/../misc/../font/../misc/lv_area.h ****     dest->y1 = src->y1;
 746              		.loc 3 122 5 view .LVU211
 122:Middlewares/lvgl/src/widgets/../core/../misc/../font/../misc/lv_area.h ****     dest->y1 = src->y1;
 747              		.loc 3 122 19 is_stmt 0 view .LVU212
 748 0014 32F93120 		ldrsh	r2, [r2, r1, lsl #3]
 122:Middlewares/lvgl/src/widgets/../core/../misc/../font/../misc/lv_area.h ****     dest->y1 = src->y1;
 749              		.loc 3 122 14 view .LVU213
 750 0018 ADF80820 		strh	r2, [sp, #8]	@ movhi
 123:Middlewares/lvgl/src/widgets/../core/../misc/../font/../misc/lv_area.h ****     dest->x2 = src->x2;
 751              		.loc 3 123 5 is_stmt 1 view .LVU214
 123:Middlewares/lvgl/src/widgets/../core/../misc/../font/../misc/lv_area.h ****     dest->x2 = src->x2;
 752              		.loc 3 123 19 is_stmt 0 view .LVU215
 753 001c B3F90220 		ldrsh	r2, [r3, #2]
 123:Middlewares/lvgl/src/widgets/../core/../misc/../font/../misc/lv_area.h ****     dest->x2 = src->x2;
 754              		.loc 3 123 14 view .LVU216
 755 0020 ADF80A20 		strh	r2, [sp, #10]	@ movhi
 124:Middlewares/lvgl/src/widgets/../core/../misc/../font/../misc/lv_area.h ****     dest->y2 = src->y2;
 756              		.loc 3 124 5 is_stmt 1 view .LVU217
 124:Middlewares/lvgl/src/widgets/../core/../misc/../font/../misc/lv_area.h ****     dest->y2 = src->y2;
 757              		.loc 3 124 19 is_stmt 0 view .LVU218
 758 0024 B3F90420 		ldrsh	r2, [r3, #4]
 124:Middlewares/lvgl/src/widgets/../core/../misc/../font/../misc/lv_area.h ****     dest->y2 = src->y2;
 759              		.loc 3 124 14 view .LVU219
 760 0028 ADF80C20 		strh	r2, [sp, #12]	@ movhi
 761              		.loc 3 125 5 is_stmt 1 view .LVU220
 762              		.loc 3 125 19 is_stmt 0 view .LVU221
 763 002c B3F90630 		ldrsh	r3, [r3, #6]
 764              	.LVL61:
ARM GAS  /tmp/ccnMQJLR.s 			page 36


 765              		.loc 3 125 14 view .LVU222
 766 0030 ADF80E30 		strh	r3, [sp, #14]	@ movhi
 767              	.LVL62:
 768              		.loc 3 125 14 view .LVU223
 769              	.LBE90:
 770              	.LBE89:
 938:Middlewares/lvgl/src/widgets/lv_btnmatrix.c ****     lv_obj_get_coords(obj, &obj_area);
 771              		.loc 1 938 5 is_stmt 1 view .LVU224
 772 0034 6946     		mov	r1, sp
 773              	.LVL63:
 774              		.loc 1 938 5 is_stmt 0 view .LVU225
 775 0036 FFF7FEFF 		bl	lv_obj_get_coords
 776              	.LVL64:
 939:Middlewares/lvgl/src/widgets/lv_btnmatrix.c **** 
 940:Middlewares/lvgl/src/widgets/lv_btnmatrix.c ****     /*The buttons might have outline and shadow so make the invalidation larger with the gaps betwe
 941:Middlewares/lvgl/src/widgets/lv_btnmatrix.c ****      *It assumes that the outline or shadow is smaller then the gaps*/
 942:Middlewares/lvgl/src/widgets/lv_btnmatrix.c ****     lv_coord_t row_gap = lv_obj_get_style_pad_row(obj, LV_PART_MAIN);
 777              		.loc 1 942 5 is_stmt 1 view .LVU226
 778              	.LBB91:
 779              	.LBI91:
 115:Middlewares/lvgl/src/widgets/../core/lv_obj_style_gen.h **** {
 780              		.loc 2 115 26 view .LVU227
 781              	.LBB92:
 117:Middlewares/lvgl/src/widgets/../core/lv_obj_style_gen.h ****     return (lv_coord_t)v.num;
 782              		.loc 2 117 5 view .LVU228
 117:Middlewares/lvgl/src/widgets/../core/lv_obj_style_gen.h ****     return (lv_coord_t)v.num;
 783              		.loc 2 117 26 is_stmt 0 view .LVU229
 784 003a 41F21402 		movw	r2, #4116
 785 003e 0021     		movs	r1, #0
 786 0040 2046     		mov	r0, r4
 787 0042 FFF7FEFF 		bl	lv_obj_get_style_prop
 788              	.LVL65:
 118:Middlewares/lvgl/src/widgets/../core/lv_obj_style_gen.h **** }
 789              		.loc 2 118 5 is_stmt 1 view .LVU230
 118:Middlewares/lvgl/src/widgets/../core/lv_obj_style_gen.h **** }
 790              		.loc 2 118 12 is_stmt 0 view .LVU231
 791 0046 05B2     		sxth	r5, r0
 792              	.LVL66:
 118:Middlewares/lvgl/src/widgets/../core/lv_obj_style_gen.h **** }
 793              		.loc 2 118 12 view .LVU232
 794              	.LBE92:
 795              	.LBE91:
 943:Middlewares/lvgl/src/widgets/lv_btnmatrix.c ****     lv_coord_t col_gap = lv_obj_get_style_pad_column(obj, LV_PART_MAIN);
 796              		.loc 1 943 5 is_stmt 1 view .LVU233
 797              	.LBB93:
 798              	.LBI93:
 121:Middlewares/lvgl/src/widgets/../core/lv_obj_style_gen.h **** {
 799              		.loc 2 121 26 view .LVU234
 800              	.LBB94:
 123:Middlewares/lvgl/src/widgets/../core/lv_obj_style_gen.h ****     return (lv_coord_t)v.num;
 801              		.loc 2 123 5 view .LVU235
 123:Middlewares/lvgl/src/widgets/../core/lv_obj_style_gen.h ****     return (lv_coord_t)v.num;
 802              		.loc 2 123 26 is_stmt 0 view .LVU236
 803 0048 41F21502 		movw	r2, #4117
 804 004c 0021     		movs	r1, #0
 805 004e 2046     		mov	r0, r4
 806 0050 FFF7FEFF 		bl	lv_obj_get_style_prop
ARM GAS  /tmp/ccnMQJLR.s 			page 37


 807              	.LVL67:
 808              		.loc 2 124 5 is_stmt 1 view .LVU237
 809              		.loc 2 124 12 is_stmt 0 view .LVU238
 810 0054 06B2     		sxth	r6, r0
 811              	.LVL68:
 812              		.loc 2 124 12 view .LVU239
 813              	.LBE94:
 814              	.LBE93:
 944:Middlewares/lvgl/src/widgets/lv_btnmatrix.c **** 
 945:Middlewares/lvgl/src/widgets/lv_btnmatrix.c ****     /*Be sure to have a minimal extra space if row/col_gap is small*/
 946:Middlewares/lvgl/src/widgets/lv_btnmatrix.c ****     lv_coord_t dpi = lv_disp_get_dpi(lv_obj_get_disp(obj));
 815              		.loc 1 946 5 is_stmt 1 view .LVU240
 816              		.loc 1 946 38 is_stmt 0 view .LVU241
 817 0056 2046     		mov	r0, r4
 818 0058 FFF7FEFF 		bl	lv_obj_get_disp
 819              	.LVL69:
 820              		.loc 1 946 22 view .LVU242
 821 005c FFF7FEFF 		bl	lv_disp_get_dpi
 822              	.LVL70:
 823 0060 0246     		mov	r2, r0
 824              	.LVL71:
 947:Middlewares/lvgl/src/widgets/lv_btnmatrix.c ****     row_gap = LV_MAX(row_gap, dpi / 10);
 825              		.loc 1 947 5 is_stmt 1 view .LVU243
 826              		.loc 1 947 15 is_stmt 0 view .LVU244
 827 0062 1B48     		ldr	r0, .L35
 828 0064 80FB0230 		smull	r3, r0, r0, r2
 829 0068 D317     		asrs	r3, r2, #31
 830 006a C3EBA003 		rsb	r3, r3, r0, asr #2
 831 006e 1BB2     		sxth	r3, r3
 832              		.loc 1 947 13 view .LVU245
 833 0070 9D42     		cmp	r5, r3
 834 0072 B8BF     		it	lt
 835 0074 1D46     		movlt	r5, r3
 836              	.LVL72:
 948:Middlewares/lvgl/src/widgets/lv_btnmatrix.c ****     col_gap = LV_MAX(col_gap, dpi / 10);
 837              		.loc 1 948 5 is_stmt 1 view .LVU246
 838              		.loc 1 948 13 is_stmt 0 view .LVU247
 839 0076 B342     		cmp	r3, r6
 840 0078 B8BF     		it	lt
 841 007a 3346     		movlt	r3, r6
 842              	.LVL73:
 949:Middlewares/lvgl/src/widgets/lv_btnmatrix.c **** 
 950:Middlewares/lvgl/src/widgets/lv_btnmatrix.c ****     /*Convert relative coordinates to absolute*/
 951:Middlewares/lvgl/src/widgets/lv_btnmatrix.c ****     btn_area.x1 += obj_area.x1 - row_gap;
 843              		.loc 1 951 5 is_stmt 1 view .LVU248
 844              		.loc 1 951 28 is_stmt 0 view .LVU249
 845 007c BDF80010 		ldrh	r1, [sp]
 846              		.loc 1 951 32 view .LVU250
 847 0080 A8B2     		uxth	r0, r5
 848 0082 0A1A     		subs	r2, r1, r0
 849              	.LVL74:
 850              		.loc 1 951 32 view .LVU251
 851 0084 92B2     		uxth	r2, r2
 852              		.loc 1 951 17 view .LVU252
 853 0086 BDF80850 		ldrh	r5, [sp, #8]
 854              	.LVL75:
 855              		.loc 1 951 17 view .LVU253
ARM GAS  /tmp/ccnMQJLR.s 			page 38


 856 008a 2A44     		add	r2, r2, r5
 857 008c ADF80820 		strh	r2, [sp, #8]	@ movhi
 952:Middlewares/lvgl/src/widgets/lv_btnmatrix.c ****     btn_area.y1 += obj_area.y1 - col_gap;
 858              		.loc 1 952 5 is_stmt 1 view .LVU254
 859              		.loc 1 952 28 is_stmt 0 view .LVU255
 860 0090 BDF80220 		ldrh	r2, [sp, #2]
 861              		.loc 1 952 32 view .LVU256
 862 0094 9BB2     		uxth	r3, r3
 863              		.loc 1 952 32 view .LVU257
 864 0096 D51A     		subs	r5, r2, r3
 865 0098 ADB2     		uxth	r5, r5
 866              		.loc 1 952 17 view .LVU258
 867 009a BDF80A60 		ldrh	r6, [sp, #10]
 868 009e 3544     		add	r5, r5, r6
 869 00a0 ADF80A50 		strh	r5, [sp, #10]	@ movhi
 953:Middlewares/lvgl/src/widgets/lv_btnmatrix.c ****     btn_area.x2 += obj_area.x1 + row_gap;
 870              		.loc 1 953 5 is_stmt 1 view .LVU259
 871              		.loc 1 953 32 is_stmt 0 view .LVU260
 872 00a4 0144     		add	r1, r1, r0
 873 00a6 89B2     		uxth	r1, r1
 874              		.loc 1 953 17 view .LVU261
 875 00a8 BDF80C00 		ldrh	r0, [sp, #12]
 876              	.LVL76:
 877              		.loc 1 953 17 view .LVU262
 878 00ac 0144     		add	r1, r1, r0
 879 00ae ADF80C10 		strh	r1, [sp, #12]	@ movhi
 954:Middlewares/lvgl/src/widgets/lv_btnmatrix.c ****     btn_area.y2 += obj_area.y1 + col_gap;
 880              		.loc 1 954 5 is_stmt 1 view .LVU263
 881              		.loc 1 954 32 is_stmt 0 view .LVU264
 882 00b2 1344     		add	r3, r3, r2
 883              	.LVL77:
 884              		.loc 1 954 32 view .LVU265
 885 00b4 9BB2     		uxth	r3, r3
 886              		.loc 1 954 17 view .LVU266
 887 00b6 BDF80E20 		ldrh	r2, [sp, #14]
 888 00ba 1344     		add	r3, r3, r2
 889 00bc ADF80E30 		strh	r3, [sp, #14]	@ movhi
 955:Middlewares/lvgl/src/widgets/lv_btnmatrix.c **** 
 956:Middlewares/lvgl/src/widgets/lv_btnmatrix.c ****     lv_obj_invalidate_area(obj, &btn_area);
 890              		.loc 1 956 5 is_stmt 1 view .LVU267
 891 00c0 02A9     		add	r1, sp, #8
 892 00c2 2046     		mov	r0, r4
 893 00c4 FFF7FEFF 		bl	lv_obj_invalidate_area
 894              	.LVL78:
 957:Middlewares/lvgl/src/widgets/lv_btnmatrix.c **** }
 895              		.loc 1 957 1 is_stmt 0 view .LVU268
 896 00c8 04B0     		add	sp, sp, #16
 897              	.LCFI6:
 898              		.cfi_def_cfa_offset 16
 899              		@ sp needed
 900 00ca 70BD     		pop	{r4, r5, r6, pc}
 901              	.LVL79:
 902              	.L32:
 903              	.LCFI7:
 904              		.cfi_def_cfa_offset 0
 905              		.cfi_restore 4
 906              		.cfi_restore 5
ARM GAS  /tmp/ccnMQJLR.s 			page 39


 907              		.cfi_restore 6
 908              		.cfi_restore 14
 909              		.loc 1 957 1 view .LVU269
 910 00cc 7047     		bx	lr
 911              	.L36:
 912 00ce 00BF     		.align	2
 913              	.L35:
 914 00d0 67666666 		.word	1717986919
 915              		.cfi_endproc
 916              	.LFE177:
 918              		.section	.rodata.draw_main.str1.4,"aMS",%progbits,1
 919              		.align	2
 920              	.LC0:
 921 0000 0A00     		.ascii	"\012\000"
 922              		.section	.text.draw_main,"ax",%progbits
 923              		.align	1
 924              		.syntax unified
 925              		.thumb
 926              		.thumb_func
 927              		.fpu softvfp
 929              	draw_main:
 930              	.LVL80:
 931              	.LFB165:
 630:Middlewares/lvgl/src/widgets/lv_btnmatrix.c ****     lv_obj_t * obj = lv_event_get_target(e);
 932              		.loc 1 630 1 is_stmt 1 view -0
 933              		.cfi_startproc
 934              		@ args = 0, pretend = 0, frame = 288
 935              		@ frame_needed = 0, uses_anonymous_args = 0
 630:Middlewares/lvgl/src/widgets/lv_btnmatrix.c ****     lv_obj_t * obj = lv_event_get_target(e);
 936              		.loc 1 630 1 is_stmt 0 view .LVU271
 937 0000 2DE9F04F 		push	{r4, r5, r6, r7, r8, r9, r10, fp, lr}
 938              	.LCFI8:
 939              		.cfi_def_cfa_offset 36
 940              		.cfi_offset 4, -36
 941              		.cfi_offset 5, -32
 942              		.cfi_offset 6, -28
 943              		.cfi_offset 7, -24
 944              		.cfi_offset 8, -20
 945              		.cfi_offset 9, -16
 946              		.cfi_offset 10, -12
 947              		.cfi_offset 11, -8
 948              		.cfi_offset 14, -4
 949 0004 CDB0     		sub	sp, sp, #308
 950              	.LCFI9:
 951              		.cfi_def_cfa_offset 344
 952 0006 0446     		mov	r4, r0
 631:Middlewares/lvgl/src/widgets/lv_btnmatrix.c ****     lv_btnmatrix_t * btnm = (lv_btnmatrix_t *)obj;
 953              		.loc 1 631 5 is_stmt 1 view .LVU272
 631:Middlewares/lvgl/src/widgets/lv_btnmatrix.c ****     lv_btnmatrix_t * btnm = (lv_btnmatrix_t *)obj;
 954              		.loc 1 631 22 is_stmt 0 view .LVU273
 955 0008 FFF7FEFF 		bl	lv_event_get_target
 956              	.LVL81:
 632:Middlewares/lvgl/src/widgets/lv_btnmatrix.c ****     if(btnm->btn_cnt == 0) return;
 957              		.loc 1 632 5 is_stmt 1 view .LVU274
 633:Middlewares/lvgl/src/widgets/lv_btnmatrix.c **** 
 958              		.loc 1 633 5 view .LVU275
 633:Middlewares/lvgl/src/widgets/lv_btnmatrix.c **** 
ARM GAS  /tmp/ccnMQJLR.s 			page 40


 959              		.loc 1 633 12 is_stmt 0 view .LVU276
 960 000c 038E     		ldrh	r3, [r0, #48]
 633:Middlewares/lvgl/src/widgets/lv_btnmatrix.c **** 
 961              		.loc 1 633 7 view .LVU277
 962 000e 13B9     		cbnz	r3, .L62
 963              	.LVL82:
 964              	.L37:
 777:Middlewares/lvgl/src/widgets/lv_btnmatrix.c **** /**
 965              		.loc 1 777 1 view .LVU278
 966 0010 4DB0     		add	sp, sp, #308
 967              	.LCFI10:
 968              		.cfi_remember_state
 969              		.cfi_def_cfa_offset 36
 970              		@ sp needed
 971 0012 BDE8F08F 		pop	{r4, r5, r6, r7, r8, r9, r10, fp, pc}
 972              	.LVL83:
 973              	.L62:
 974              	.LCFI11:
 975              		.cfi_restore_state
 777:Middlewares/lvgl/src/widgets/lv_btnmatrix.c **** /**
 976              		.loc 1 777 1 view .LVU279
 977 0016 0546     		mov	r5, r0
 635:Middlewares/lvgl/src/widgets/lv_btnmatrix.c ****     obj->skip_trans = 1;
 978              		.loc 1 635 5 is_stmt 1 view .LVU280
 635:Middlewares/lvgl/src/widgets/lv_btnmatrix.c ****     obj->skip_trans = 1;
 979              		.loc 1 635 35 is_stmt 0 view .LVU281
 980 0018 2046     		mov	r0, r4
 981              	.LVL84:
 635:Middlewares/lvgl/src/widgets/lv_btnmatrix.c ****     obj->skip_trans = 1;
 982              		.loc 1 635 35 view .LVU282
 983 001a FFF7FEFF 		bl	lv_event_get_param
 984              	.LVL85:
 985 001e 0746     		mov	r7, r0
 986 0020 0590     		str	r0, [sp, #20]
 987              	.LVL86:
 636:Middlewares/lvgl/src/widgets/lv_btnmatrix.c **** 
 988              		.loc 1 636 5 is_stmt 1 view .LVU283
 636:Middlewares/lvgl/src/widgets/lv_btnmatrix.c **** 
 989              		.loc 1 636 21 is_stmt 0 view .LVU284
 990 0022 95F82230 		ldrb	r3, [r5, #34]	@ zero_extendqisi2
 991 0026 43F00403 		orr	r3, r3, #4
 992 002a 85F82230 		strb	r3, [r5, #34]
 638:Middlewares/lvgl/src/widgets/lv_btnmatrix.c ****     lv_obj_get_coords(obj, &area_obj);
 993              		.loc 1 638 5 is_stmt 1 view .LVU285
 639:Middlewares/lvgl/src/widgets/lv_btnmatrix.c **** 
 994              		.loc 1 639 5 view .LVU286
 995 002e 4AA9     		add	r1, sp, #296
 996 0030 2846     		mov	r0, r5
 997              	.LVL87:
 639:Middlewares/lvgl/src/widgets/lv_btnmatrix.c **** 
 998              		.loc 1 639 5 is_stmt 0 view .LVU287
 999 0032 FFF7FEFF 		bl	lv_obj_get_coords
 1000              	.LVL88:
 641:Middlewares/lvgl/src/widgets/lv_btnmatrix.c **** 
 1001              		.loc 1 641 5 is_stmt 1 view .LVU288
 643:Middlewares/lvgl/src/widgets/lv_btnmatrix.c ****     uint16_t txt_i = 0;
 1002              		.loc 1 643 5 view .LVU289
ARM GAS  /tmp/ccnMQJLR.s 			page 41


 644:Middlewares/lvgl/src/widgets/lv_btnmatrix.c **** 
 1003              		.loc 1 644 5 view .LVU290
 646:Middlewares/lvgl/src/widgets/lv_btnmatrix.c ****     lv_draw_label_dsc_t draw_label_dsc_act;
 1004              		.loc 1 646 5 view .LVU291
 647:Middlewares/lvgl/src/widgets/lv_btnmatrix.c **** 
 1005              		.loc 1 647 5 view .LVU292
 649:Middlewares/lvgl/src/widgets/lv_btnmatrix.c ****     lv_draw_label_dsc_t draw_label_dsc_def;
 1006              		.loc 1 649 5 view .LVU293
 650:Middlewares/lvgl/src/widgets/lv_btnmatrix.c **** 
 1007              		.loc 1 650 5 view .LVU294
 653:Middlewares/lvgl/src/widgets/lv_btnmatrix.c ****     obj->state = LV_STATE_DEFAULT;
 1008              		.loc 1 653 5 view .LVU295
 653:Middlewares/lvgl/src/widgets/lv_btnmatrix.c ****     obj->state = LV_STATE_DEFAULT;
 1009              		.loc 1 653 16 is_stmt 0 view .LVU296
 1010 0036 2C8C     		ldrh	r4, [r5, #32]
 1011              	.LVL89:
 653:Middlewares/lvgl/src/widgets/lv_btnmatrix.c ****     obj->state = LV_STATE_DEFAULT;
 1012              		.loc 1 653 16 view .LVU297
 1013 0038 0494     		str	r4, [sp, #16]
 1014              	.LVL90:
 654:Middlewares/lvgl/src/widgets/lv_btnmatrix.c ****     obj->skip_trans = 1;
 1015              		.loc 1 654 5 is_stmt 1 view .LVU298
 654:Middlewares/lvgl/src/widgets/lv_btnmatrix.c ****     obj->skip_trans = 1;
 1016              		.loc 1 654 16 is_stmt 0 view .LVU299
 1017 003a 0026     		movs	r6, #0
 1018 003c 2E84     		strh	r6, [r5, #32]	@ movhi
 655:Middlewares/lvgl/src/widgets/lv_btnmatrix.c ****     lv_draw_rect_dsc_init(&draw_rect_dsc_def);
 1019              		.loc 1 655 5 is_stmt 1 view .LVU300
 655:Middlewares/lvgl/src/widgets/lv_btnmatrix.c ****     lv_draw_rect_dsc_init(&draw_rect_dsc_def);
 1020              		.loc 1 655 21 is_stmt 0 view .LVU301
 1021 003e 95F82230 		ldrb	r3, [r5, #34]	@ zero_extendqisi2
 1022 0042 43F00403 		orr	r3, r3, #4
 1023 0046 85F82230 		strb	r3, [r5, #34]
 656:Middlewares/lvgl/src/widgets/lv_btnmatrix.c ****     lv_draw_label_dsc_init(&draw_label_dsc_def);
 1024              		.loc 1 656 5 is_stmt 1 view .LVU302
 1025 004a 26A8     		add	r0, sp, #152
 1026 004c FFF7FEFF 		bl	lv_draw_rect_dsc_init
 1027              	.LVL91:
 657:Middlewares/lvgl/src/widgets/lv_btnmatrix.c ****     lv_obj_init_draw_rect_dsc(obj, LV_PART_ITEMS, &draw_rect_dsc_def);
 1028              		.loc 1 657 5 view .LVU303
 1029 0050 1EA8     		add	r0, sp, #120
 1030 0052 FFF7FEFF 		bl	lv_draw_label_dsc_init
 1031              	.LVL92:
 658:Middlewares/lvgl/src/widgets/lv_btnmatrix.c ****     lv_obj_init_draw_label_dsc(obj, LV_PART_ITEMS, &draw_label_dsc_def);
 1032              		.loc 1 658 5 view .LVU304
 1033 0056 26AA     		add	r2, sp, #152
 1034 0058 4FF4A021 		mov	r1, #327680
 1035 005c 2846     		mov	r0, r5
 1036 005e FFF7FEFF 		bl	lv_obj_init_draw_rect_dsc
 1037              	.LVL93:
 659:Middlewares/lvgl/src/widgets/lv_btnmatrix.c ****     obj->skip_trans = 0;
 1038              		.loc 1 659 5 view .LVU305
 1039 0062 1EAA     		add	r2, sp, #120
 1040 0064 4FF4A021 		mov	r1, #327680
 1041 0068 2846     		mov	r0, r5
 1042 006a FFF7FEFF 		bl	lv_obj_init_draw_label_dsc
 1043              	.LVL94:
ARM GAS  /tmp/ccnMQJLR.s 			page 42


 660:Middlewares/lvgl/src/widgets/lv_btnmatrix.c ****     obj->state = state_ori;
 1044              		.loc 1 660 5 view .LVU306
 660:Middlewares/lvgl/src/widgets/lv_btnmatrix.c ****     obj->state = state_ori;
 1045              		.loc 1 660 21 is_stmt 0 view .LVU307
 1046 006e 95F82230 		ldrb	r3, [r5, #34]	@ zero_extendqisi2
 1047 0072 66F38203 		bfi	r3, r6, #2, #1
 1048 0076 85F82230 		strb	r3, [r5, #34]
 661:Middlewares/lvgl/src/widgets/lv_btnmatrix.c **** 
 1049              		.loc 1 661 5 is_stmt 1 view .LVU308
 661:Middlewares/lvgl/src/widgets/lv_btnmatrix.c **** 
 1050              		.loc 1 661 16 is_stmt 0 view .LVU309
 1051 007a 2C84     		strh	r4, [r5, #32]	@ movhi
 663:Middlewares/lvgl/src/widgets/lv_btnmatrix.c ****     lv_coord_t pbottom = lv_obj_get_style_pad_bottom(obj, LV_PART_MAIN);
 1052              		.loc 1 663 5 is_stmt 1 view .LVU310
 1053              	.LVL95:
 1054              	.LBB95:
 1055              	.LBI95:
  91:Middlewares/lvgl/src/widgets/../core/lv_obj_style_gen.h **** {
 1056              		.loc 2 91 26 view .LVU311
 1057              	.LBB96:
  93:Middlewares/lvgl/src/widgets/../core/lv_obj_style_gen.h ****     return (lv_coord_t)v.num;
 1058              		.loc 2 93 5 view .LVU312
  93:Middlewares/lvgl/src/widgets/../core/lv_obj_style_gen.h ****     return (lv_coord_t)v.num;
 1059              		.loc 2 93 26 is_stmt 0 view .LVU313
 1060 007c 41F21002 		movw	r2, #4112
 1061 0080 3146     		mov	r1, r6
 1062 0082 2846     		mov	r0, r5
 1063 0084 FFF7FEFF 		bl	lv_obj_get_style_prop
 1064              	.LVL96:
  94:Middlewares/lvgl/src/widgets/../core/lv_obj_style_gen.h **** }
 1065              		.loc 2 94 5 is_stmt 1 view .LVU314
  94:Middlewares/lvgl/src/widgets/../core/lv_obj_style_gen.h **** }
 1066              		.loc 2 94 12 is_stmt 0 view .LVU315
 1067 0088 03B2     		sxth	r3, r0
 1068 008a 0993     		str	r3, [sp, #36]
 1069              	.LVL97:
  94:Middlewares/lvgl/src/widgets/../core/lv_obj_style_gen.h **** }
 1070              		.loc 2 94 12 view .LVU316
 1071              	.LBE96:
 1072              	.LBE95:
 664:Middlewares/lvgl/src/widgets/lv_btnmatrix.c ****     lv_coord_t pleft = lv_obj_get_style_pad_left(obj, LV_PART_MAIN);
 1073              		.loc 1 664 5 is_stmt 1 view .LVU317
 1074              	.LBB97:
 1075              	.LBI97:
  97:Middlewares/lvgl/src/widgets/../core/lv_obj_style_gen.h **** {
 1076              		.loc 2 97 26 view .LVU318
 1077              	.LBB98:
  99:Middlewares/lvgl/src/widgets/../core/lv_obj_style_gen.h ****     return (lv_coord_t)v.num;
 1078              		.loc 2 99 5 view .LVU319
  99:Middlewares/lvgl/src/widgets/../core/lv_obj_style_gen.h ****     return (lv_coord_t)v.num;
 1079              		.loc 2 99 26 is_stmt 0 view .LVU320
 1080 008c 41F21102 		movw	r2, #4113
 1081 0090 3146     		mov	r1, r6
 1082 0092 2846     		mov	r0, r5
 1083 0094 FFF7FEFF 		bl	lv_obj_get_style_prop
 1084              	.LVL98:
 100:Middlewares/lvgl/src/widgets/../core/lv_obj_style_gen.h **** }
ARM GAS  /tmp/ccnMQJLR.s 			page 43


 1085              		.loc 2 100 5 is_stmt 1 view .LVU321
 100:Middlewares/lvgl/src/widgets/../core/lv_obj_style_gen.h **** }
 1086              		.loc 2 100 12 is_stmt 0 view .LVU322
 1087 0098 03B2     		sxth	r3, r0
 1088 009a 0693     		str	r3, [sp, #24]
 1089              	.LVL99:
 100:Middlewares/lvgl/src/widgets/../core/lv_obj_style_gen.h **** }
 1090              		.loc 2 100 12 view .LVU323
 1091              	.LBE98:
 1092              	.LBE97:
 665:Middlewares/lvgl/src/widgets/lv_btnmatrix.c ****     lv_coord_t pright = lv_obj_get_style_pad_right(obj, LV_PART_MAIN);
 1093              		.loc 1 665 5 is_stmt 1 view .LVU324
 1094              	.LBB99:
 1095              	.LBI99:
 103:Middlewares/lvgl/src/widgets/../core/lv_obj_style_gen.h **** {
 1096              		.loc 2 103 26 view .LVU325
 1097              	.LBB100:
 105:Middlewares/lvgl/src/widgets/../core/lv_obj_style_gen.h ****     return (lv_coord_t)v.num;
 1098              		.loc 2 105 5 view .LVU326
 105:Middlewares/lvgl/src/widgets/../core/lv_obj_style_gen.h ****     return (lv_coord_t)v.num;
 1099              		.loc 2 105 26 is_stmt 0 view .LVU327
 1100 009c 41F21202 		movw	r2, #4114
 1101 00a0 3146     		mov	r1, r6
 1102 00a2 2846     		mov	r0, r5
 1103 00a4 FFF7FEFF 		bl	lv_obj_get_style_prop
 1104              	.LVL100:
 106:Middlewares/lvgl/src/widgets/../core/lv_obj_style_gen.h **** }
 1105              		.loc 2 106 5 is_stmt 1 view .LVU328
 106:Middlewares/lvgl/src/widgets/../core/lv_obj_style_gen.h **** }
 1106              		.loc 2 106 12 is_stmt 0 view .LVU329
 1107 00a8 03B2     		sxth	r3, r0
 1108 00aa 0793     		str	r3, [sp, #28]
 1109              	.LVL101:
 106:Middlewares/lvgl/src/widgets/../core/lv_obj_style_gen.h **** }
 1110              		.loc 2 106 12 view .LVU330
 1111              	.LBE100:
 1112              	.LBE99:
 666:Middlewares/lvgl/src/widgets/lv_btnmatrix.c **** 
 1113              		.loc 1 666 5 is_stmt 1 view .LVU331
 1114              	.LBB101:
 1115              	.LBI101:
 109:Middlewares/lvgl/src/widgets/../core/lv_obj_style_gen.h **** {
 1116              		.loc 2 109 26 view .LVU332
 1117              	.LBB102:
 111:Middlewares/lvgl/src/widgets/../core/lv_obj_style_gen.h ****     return (lv_coord_t)v.num;
 1118              		.loc 2 111 5 view .LVU333
 111:Middlewares/lvgl/src/widgets/../core/lv_obj_style_gen.h ****     return (lv_coord_t)v.num;
 1119              		.loc 2 111 26 is_stmt 0 view .LVU334
 1120 00ac 41F21302 		movw	r2, #4115
 1121 00b0 3146     		mov	r1, r6
 1122 00b2 2846     		mov	r0, r5
 1123 00b4 FFF7FEFF 		bl	lv_obj_get_style_prop
 1124              	.LVL102:
 112:Middlewares/lvgl/src/widgets/../core/lv_obj_style_gen.h **** }
 1125              		.loc 2 112 5 is_stmt 1 view .LVU335
 112:Middlewares/lvgl/src/widgets/../core/lv_obj_style_gen.h **** }
 1126              		.loc 2 112 12 is_stmt 0 view .LVU336
ARM GAS  /tmp/ccnMQJLR.s 			page 44


 1127 00b8 03B2     		sxth	r3, r0
 1128 00ba 0893     		str	r3, [sp, #32]
 1129              	.LVL103:
 112:Middlewares/lvgl/src/widgets/../core/lv_obj_style_gen.h **** }
 1130              		.loc 2 112 12 view .LVU337
 1131              	.LBE102:
 1132              	.LBE101:
 673:Middlewares/lvgl/src/widgets/lv_btnmatrix.c ****     lv_obj_draw_dsc_init(&dsc, clip_area);
 1133              		.loc 1 673 5 is_stmt 1 view .LVU338
 674:Middlewares/lvgl/src/widgets/lv_btnmatrix.c ****     dsc.part = LV_PART_ITEMS;
 1134              		.loc 1 674 5 view .LVU339
 1135 00bc 3946     		mov	r1, r7
 1136 00be 0CA8     		add	r0, sp, #48
 1137 00c0 FFF7FEFF 		bl	lv_obj_draw_dsc_init
 1138              	.LVL104:
 675:Middlewares/lvgl/src/widgets/lv_btnmatrix.c ****     dsc.rect_dsc = &draw_rect_dsc_act;
 1139              		.loc 1 675 5 view .LVU340
 675:Middlewares/lvgl/src/widgets/lv_btnmatrix.c ****     dsc.rect_dsc = &draw_rect_dsc_act;
 1140              		.loc 1 675 14 is_stmt 0 view .LVU341
 1141 00c4 4FF4A023 		mov	r3, #327680
 1142 00c8 1993     		str	r3, [sp, #100]
 676:Middlewares/lvgl/src/widgets/lv_btnmatrix.c ****     dsc.label_dsc = &draw_label_dsc_act;
 1143              		.loc 1 676 5 is_stmt 1 view .LVU342
 676:Middlewares/lvgl/src/widgets/lv_btnmatrix.c ****     dsc.label_dsc = &draw_label_dsc_act;
 1144              		.loc 1 676 18 is_stmt 0 view .LVU343
 1145 00ca 3BAB     		add	r3, sp, #236
 1146 00cc 0E93     		str	r3, [sp, #56]
 677:Middlewares/lvgl/src/widgets/lv_btnmatrix.c **** 
 1147              		.loc 1 677 5 is_stmt 1 view .LVU344
 677:Middlewares/lvgl/src/widgets/lv_btnmatrix.c **** 
 1148              		.loc 1 677 19 is_stmt 0 view .LVU345
 1149 00ce 33AB     		add	r3, sp, #204
 1150 00d0 0F93     		str	r3, [sp, #60]
 679:Middlewares/lvgl/src/widgets/lv_btnmatrix.c ****         /*Search the next valid text in the map*/
 1151              		.loc 1 679 5 is_stmt 1 view .LVU346
 644:Middlewares/lvgl/src/widgets/lv_btnmatrix.c **** 
 1152              		.loc 1 644 14 is_stmt 0 view .LVU347
 1153 00d2 3446     		mov	r4, r6
 1154              	.LVL105:
 679:Middlewares/lvgl/src/widgets/lv_btnmatrix.c ****         /*Search the next valid text in the map*/
 1155              		.loc 1 679 5 view .LVU348
 1156 00d4 FEE0     		b	.L40
 1157              	.LVL106:
 1158              	.L41:
 1159              	.LBB103:
 682:Middlewares/lvgl/src/widgets/lv_btnmatrix.c ****         }
 1160              		.loc 1 682 13 is_stmt 1 view .LVU349
 682:Middlewares/lvgl/src/widgets/lv_btnmatrix.c ****         }
 1161              		.loc 1 682 18 is_stmt 0 view .LVU350
 1162 00d6 0134     		adds	r4, r4, #1
 1163              	.LVL107:
 682:Middlewares/lvgl/src/widgets/lv_btnmatrix.c ****         }
 1164              		.loc 1 682 18 view .LVU351
 1165 00d8 A4B2     		uxth	r4, r4
 1166              	.LVL108:
 1167              	.L58:
 681:Middlewares/lvgl/src/widgets/lv_btnmatrix.c ****             txt_i++;
ARM GAS  /tmp/ccnMQJLR.s 			page 45


 1168              		.loc 1 681 14 is_stmt 1 view .LVU352
 681:Middlewares/lvgl/src/widgets/lv_btnmatrix.c ****             txt_i++;
 1169              		.loc 1 681 26 is_stmt 0 view .LVU353
 1170 00da 6B6A     		ldr	r3, [r5, #36]
 681:Middlewares/lvgl/src/widgets/lv_btnmatrix.c ****             txt_i++;
 1171              		.loc 1 681 33 view .LVU354
 1172 00dc A700     		lsls	r7, r4, #2
 681:Middlewares/lvgl/src/widgets/lv_btnmatrix.c ****             txt_i++;
 1173              		.loc 1 681 15 view .LVU355
 1174 00de BB49     		ldr	r1, .L68
 1175 00e0 53F82400 		ldr	r0, [r3, r4, lsl #2]
 1176 00e4 FFF7FEFF 		bl	strcmp
 1177              	.LVL109:
 681:Middlewares/lvgl/src/widgets/lv_btnmatrix.c ****             txt_i++;
 1178              		.loc 1 681 14 view .LVU356
 1179 00e8 0028     		cmp	r0, #0
 1180 00ea F4D0     		beq	.L41
 686:Middlewares/lvgl/src/widgets/lv_btnmatrix.c **** 
 1181              		.loc 1 686 9 is_stmt 1 view .LVU357
 686:Middlewares/lvgl/src/widgets/lv_btnmatrix.c **** 
 1182              		.loc 1 686 33 is_stmt 0 view .LVU358
 1183 00ec EB6A     		ldr	r3, [r5, #44]
 686:Middlewares/lvgl/src/widgets/lv_btnmatrix.c **** 
 1184              		.loc 1 686 44 view .LVU359
 1185 00ee B246     		mov	r10, r6
 1186 00f0 4FEA460B 		lsl	fp, r6, #1
 686:Middlewares/lvgl/src/widgets/lv_btnmatrix.c **** 
 1187              		.loc 1 686 12 view .LVU360
 1188 00f4 33F81680 		ldrh	r8, [r3, r6, lsl #1]
 1189 00f8 4046     		mov	r0, r8
 1190 00fa FFF7FEFF 		bl	button_is_hidden
 1191              	.LVL110:
 686:Middlewares/lvgl/src/widgets/lv_btnmatrix.c **** 
 1192              		.loc 1 686 11 view .LVU361
 1193 00fe 0028     		cmp	r0, #0
 1194 0100 40F0E480 		bne	.L43
 689:Middlewares/lvgl/src/widgets/lv_btnmatrix.c ****         if(button_get_checked(btnm->ctrl_bits[btn_i])) btn_state |= LV_STATE_CHECKED;
 1195              		.loc 1 689 9 is_stmt 1 view .LVU362
 1196              	.LVL111:
 690:Middlewares/lvgl/src/widgets/lv_btnmatrix.c ****         if(button_is_inactive(btnm->ctrl_bits[btn_i])) btn_state |= LV_STATE_DISABLED;
 1197              		.loc 1 690 9 view .LVU363
 690:Middlewares/lvgl/src/widgets/lv_btnmatrix.c ****         if(button_is_inactive(btnm->ctrl_bits[btn_i])) btn_state |= LV_STATE_DISABLED;
 1198              		.loc 1 690 12 is_stmt 0 view .LVU364
 1199 0104 4046     		mov	r0, r8
 1200 0106 FFF7FEFF 		bl	button_get_checked
 1201              	.LVL112:
 690:Middlewares/lvgl/src/widgets/lv_btnmatrix.c ****         if(button_is_inactive(btnm->ctrl_bits[btn_i])) btn_state |= LV_STATE_DISABLED;
 1202              		.loc 1 690 11 view .LVU365
 1203 010a 0028     		cmp	r0, #0
 1204 010c 40F0ED80 		bne	.L59
 689:Middlewares/lvgl/src/widgets/lv_btnmatrix.c ****         if(button_get_checked(btnm->ctrl_bits[btn_i])) btn_state |= LV_STATE_CHECKED;
 1205              		.loc 1 689 20 view .LVU366
 1206 0110 4FF00009 		mov	r9, #0
 1207              	.L44:
 1208              	.LVL113:
 691:Middlewares/lvgl/src/widgets/lv_btnmatrix.c ****         if(btn_i == btnm->btn_id_sel) {
 1209              		.loc 1 691 9 is_stmt 1 view .LVU367
ARM GAS  /tmp/ccnMQJLR.s 			page 46


 691:Middlewares/lvgl/src/widgets/lv_btnmatrix.c ****         if(btn_i == btnm->btn_id_sel) {
 1210              		.loc 1 691 12 is_stmt 0 view .LVU368
 1211 0114 4046     		mov	r0, r8
 1212 0116 FFF7FEFF 		bl	button_is_inactive
 1213              	.LVL114:
 691:Middlewares/lvgl/src/widgets/lv_btnmatrix.c ****         if(btn_i == btnm->btn_id_sel) {
 1214              		.loc 1 691 11 view .LVU369
 1215 011a 08B1     		cbz	r0, .L45
 691:Middlewares/lvgl/src/widgets/lv_btnmatrix.c ****         if(btn_i == btnm->btn_id_sel) {
 1216              		.loc 1 691 56 is_stmt 1 discriminator 1 view .LVU370
 691:Middlewares/lvgl/src/widgets/lv_btnmatrix.c ****         if(btn_i == btnm->btn_id_sel) {
 1217              		.loc 1 691 66 is_stmt 0 discriminator 1 view .LVU371
 1218 011c 49F08009 		orr	r9, r9, #128
 1219              	.LVL115:
 1220              	.L45:
 692:Middlewares/lvgl/src/widgets/lv_btnmatrix.c ****             if(state_ori & LV_STATE_PRESSED) btn_state |= LV_STATE_PRESSED;
 1221              		.loc 1 692 9 is_stmt 1 view .LVU372
 692:Middlewares/lvgl/src/widgets/lv_btnmatrix.c ****             if(state_ori & LV_STATE_PRESSED) btn_state |= LV_STATE_PRESSED;
 1222              		.loc 1 692 25 is_stmt 0 view .LVU373
 1223 0120 6B8E     		ldrh	r3, [r5, #50]
 692:Middlewares/lvgl/src/widgets/lv_btnmatrix.c ****             if(state_ori & LV_STATE_PRESSED) btn_state |= LV_STATE_PRESSED;
 1224              		.loc 1 692 11 view .LVU374
 1225 0122 B342     		cmp	r3, r6
 1226 0124 00F0E480 		beq	.L63
 1227              	.L46:
 700:Middlewares/lvgl/src/widgets/lv_btnmatrix.c ****         btn_area.x1 += area_obj.x1;
 1228              		.loc 1 700 9 is_stmt 1 view .LVU375
 700:Middlewares/lvgl/src/widgets/lv_btnmatrix.c ****         btn_area.x1 += area_obj.x1;
 1229              		.loc 1 700 38 is_stmt 0 view .LVU376
 1230 0128 AB6A     		ldr	r3, [r5, #40]
 700:Middlewares/lvgl/src/widgets/lv_btnmatrix.c ****         btn_area.x1 += area_obj.x1;
 1231              		.loc 1 700 33 view .LVU377
 1232 012a 03EBCA02 		add	r2, r3, r10, lsl #3
 1233              	.LVL116:
 1234              	.LBB104:
 1235              	.LBI104:
 120:Middlewares/lvgl/src/widgets/../core/../misc/../font/../misc/lv_area.h **** {
 1236              		.loc 3 120 20 is_stmt 1 view .LVU378
 1237              	.LBB105:
 122:Middlewares/lvgl/src/widgets/../core/../misc/../font/../misc/lv_area.h ****     dest->y1 = src->y1;
 1238              		.loc 3 122 5 view .LVU379
 122:Middlewares/lvgl/src/widgets/../core/../misc/../font/../misc/lv_area.h ****     dest->y1 = src->y1;
 1239              		.loc 3 122 19 is_stmt 0 view .LVU380
 1240 012e 33F93A30 		ldrsh	r3, [r3, r10, lsl #3]
 122:Middlewares/lvgl/src/widgets/../core/../misc/../font/../misc/lv_area.h ****     dest->y1 = src->y1;
 1241              		.loc 3 122 14 view .LVU381
 1242 0132 ADF82031 		strh	r3, [sp, #288]	@ movhi
 123:Middlewares/lvgl/src/widgets/../core/../misc/../font/../misc/lv_area.h ****     dest->x2 = src->x2;
 1243              		.loc 3 123 5 is_stmt 1 view .LVU382
 123:Middlewares/lvgl/src/widgets/../core/../misc/../font/../misc/lv_area.h ****     dest->x2 = src->x2;
 1244              		.loc 3 123 19 is_stmt 0 view .LVU383
 1245 0136 B2F90210 		ldrsh	r1, [r2, #2]
 123:Middlewares/lvgl/src/widgets/../core/../misc/../font/../misc/lv_area.h ****     dest->x2 = src->x2;
 1246              		.loc 3 123 14 view .LVU384
 1247 013a ADF82211 		strh	r1, [sp, #290]	@ movhi
 124:Middlewares/lvgl/src/widgets/../core/../misc/../font/../misc/lv_area.h ****     dest->y2 = src->y2;
 1248              		.loc 3 124 5 is_stmt 1 view .LVU385
ARM GAS  /tmp/ccnMQJLR.s 			page 47


 124:Middlewares/lvgl/src/widgets/../core/../misc/../font/../misc/lv_area.h ****     dest->y2 = src->y2;
 1249              		.loc 3 124 19 is_stmt 0 view .LVU386
 1250 013e B2F904C0 		ldrsh	ip, [r2, #4]
 124:Middlewares/lvgl/src/widgets/../core/../misc/../font/../misc/lv_area.h ****     dest->y2 = src->y2;
 1251              		.loc 3 124 14 view .LVU387
 1252 0142 ADF824C1 		strh	ip, [sp, #292]	@ movhi
 1253              		.loc 3 125 5 is_stmt 1 view .LVU388
 1254              		.loc 3 125 19 is_stmt 0 view .LVU389
 1255 0146 B2F90600 		ldrsh	r0, [r2, #6]
 1256              		.loc 3 125 14 view .LVU390
 1257 014a ADF82601 		strh	r0, [sp, #294]	@ movhi
 1258              	.LVL117:
 1259              		.loc 3 125 14 view .LVU391
 1260              	.LBE105:
 1261              	.LBE104:
 701:Middlewares/lvgl/src/widgets/lv_btnmatrix.c ****         btn_area.y1 += area_obj.y1;
 1262              		.loc 1 701 9 is_stmt 1 view .LVU392
 701:Middlewares/lvgl/src/widgets/lv_btnmatrix.c ****         btn_area.y1 += area_obj.y1;
 1263              		.loc 1 701 32 is_stmt 0 view .LVU393
 1264 014e BDF82821 		ldrh	r2, [sp, #296]
 701:Middlewares/lvgl/src/widgets/lv_btnmatrix.c ****         btn_area.y1 += area_obj.y1;
 1265              		.loc 1 701 21 view .LVU394
 1266 0152 1344     		add	r3, r3, r2
 1267 0154 ADF82031 		strh	r3, [sp, #288]	@ movhi
 702:Middlewares/lvgl/src/widgets/lv_btnmatrix.c ****         btn_area.x2 += area_obj.x1;
 1268              		.loc 1 702 9 is_stmt 1 view .LVU395
 702:Middlewares/lvgl/src/widgets/lv_btnmatrix.c ****         btn_area.x2 += area_obj.x1;
 1269              		.loc 1 702 32 is_stmt 0 view .LVU396
 1270 0158 BDF82A31 		ldrh	r3, [sp, #298]
 702:Middlewares/lvgl/src/widgets/lv_btnmatrix.c ****         btn_area.x2 += area_obj.x1;
 1271              		.loc 1 702 21 view .LVU397
 1272 015c 1944     		add	r1, r1, r3
 1273 015e ADF82211 		strh	r1, [sp, #290]	@ movhi
 703:Middlewares/lvgl/src/widgets/lv_btnmatrix.c ****         btn_area.y2 += area_obj.y1;
 1274              		.loc 1 703 9 is_stmt 1 view .LVU398
 703:Middlewares/lvgl/src/widgets/lv_btnmatrix.c ****         btn_area.y2 += area_obj.y1;
 1275              		.loc 1 703 21 is_stmt 0 view .LVU399
 1276 0162 6244     		add	r2, r2, ip
 1277 0164 ADF82421 		strh	r2, [sp, #292]	@ movhi
 704:Middlewares/lvgl/src/widgets/lv_btnmatrix.c **** 
 1278              		.loc 1 704 9 is_stmt 1 view .LVU400
 704:Middlewares/lvgl/src/widgets/lv_btnmatrix.c **** 
 1279              		.loc 1 704 21 is_stmt 0 view .LVU401
 1280 0168 0344     		add	r3, r3, r0
 1281 016a ADF82631 		strh	r3, [sp, #294]	@ movhi
 707:Middlewares/lvgl/src/widgets/lv_btnmatrix.c ****             lv_memcpy(&draw_rect_dsc_act, &draw_rect_dsc_def, sizeof(lv_draw_rect_dsc_t));
 1282              		.loc 1 707 9 is_stmt 1 view .LVU402
 707:Middlewares/lvgl/src/widgets/lv_btnmatrix.c ****             lv_memcpy(&draw_rect_dsc_act, &draw_rect_dsc_def, sizeof(lv_draw_rect_dsc_t));
 1283              		.loc 1 707 11 is_stmt 0 view .LVU403
 1284 016e B9F1000F 		cmp	r9, #0
 1285 0172 40F0D780 		bne	.L50
 708:Middlewares/lvgl/src/widgets/lv_btnmatrix.c ****             lv_memcpy(&draw_label_dsc_act, &draw_label_dsc_def, sizeof(lv_draw_label_dsc_t));
 1286              		.loc 1 708 13 is_stmt 1 view .LVU404
 1287 0176 3422     		movs	r2, #52
 1288 0178 26A9     		add	r1, sp, #152
 1289 017a 3BA8     		add	r0, sp, #236
 1290 017c FFF7FEFF 		bl	lv_memcpy
ARM GAS  /tmp/ccnMQJLR.s 			page 48


 1291              	.LVL118:
 709:Middlewares/lvgl/src/widgets/lv_btnmatrix.c ****         }
 1292              		.loc 1 709 13 view .LVU405
 1293 0180 2022     		movs	r2, #32
 1294 0182 1EA9     		add	r1, sp, #120
 1295 0184 33A8     		add	r0, sp, #204
 1296 0186 FFF7FEFF 		bl	lv_memcpy
 1297              	.LVL119:
 1298              	.L51:
 723:Middlewares/lvgl/src/widgets/lv_btnmatrix.c ****         if(recolor) draw_label_dsc_act.flag |= LV_TEXT_FLAG_RECOLOR;
 1299              		.loc 1 723 9 view .LVU406
 723:Middlewares/lvgl/src/widgets/lv_btnmatrix.c ****         if(recolor) draw_label_dsc_act.flag |= LV_TEXT_FLAG_RECOLOR;
 1300              		.loc 1 723 46 is_stmt 0 view .LVU407
 1301 018a EB6A     		ldr	r3, [r5, #44]
 723:Middlewares/lvgl/src/widgets/lv_btnmatrix.c ****         if(recolor) draw_label_dsc_act.flag |= LV_TEXT_FLAG_RECOLOR;
 1302              		.loc 1 723 24 view .LVU408
 1303 018c 33F80B00 		ldrh	r0, [r3, fp]
 1304 0190 FFF7FEFF 		bl	button_is_recolor
 1305              	.LVL120:
 724:Middlewares/lvgl/src/widgets/lv_btnmatrix.c ****         else draw_label_dsc_act.flag &= ~LV_TEXT_FLAG_RECOLOR;
 1306              		.loc 1 724 9 is_stmt 1 view .LVU409
 724:Middlewares/lvgl/src/widgets/lv_btnmatrix.c ****         else draw_label_dsc_act.flag &= ~LV_TEXT_FLAG_RECOLOR;
 1307              		.loc 1 724 11 is_stmt 0 view .LVU410
 1308 0194 0028     		cmp	r0, #0
 1309 0196 00F0E880 		beq	.L52
 724:Middlewares/lvgl/src/widgets/lv_btnmatrix.c ****         else draw_label_dsc_act.flag &= ~LV_TEXT_FLAG_RECOLOR;
 1310              		.loc 1 724 21 is_stmt 1 discriminator 1 view .LVU411
 724:Middlewares/lvgl/src/widgets/lv_btnmatrix.c ****         else draw_label_dsc_act.flag &= ~LV_TEXT_FLAG_RECOLOR;
 1311              		.loc 1 724 45 is_stmt 0 discriminator 1 view .LVU412
 1312 019a 9DF8E830 		ldrb	r3, [sp, #232]	@ zero_extendqisi2
 1313 019e 43F00103 		orr	r3, r3, #1
 1314 01a2 8DF8E830 		strb	r3, [sp, #232]
 1315              	.L53:
 728:Middlewares/lvgl/src/widgets/lv_btnmatrix.c ****         dsc.id = btn_i;
 1316              		.loc 1 728 9 is_stmt 1 view .LVU413
 728:Middlewares/lvgl/src/widgets/lv_btnmatrix.c ****         dsc.id = btn_i;
 1317              		.loc 1 728 23 is_stmt 0 view .LVU414
 1318 01a6 48AB     		add	r3, sp, #288
 1319 01a8 0D93     		str	r3, [sp, #52]
 729:Middlewares/lvgl/src/widgets/lv_btnmatrix.c ****         lv_event_send(obj,LV_EVENT_DRAW_PART_BEGIN, &dsc);
 1320              		.loc 1 729 9 is_stmt 1 view .LVU415
 729:Middlewares/lvgl/src/widgets/lv_btnmatrix.c ****         lv_event_send(obj,LV_EVENT_DRAW_PART_BEGIN, &dsc);
 1321              		.loc 1 729 16 is_stmt 0 view .LVU416
 1322 01aa CDF868A0 		str	r10, [sp, #104]
 730:Middlewares/lvgl/src/widgets/lv_btnmatrix.c **** 
 1323              		.loc 1 730 9 is_stmt 1 view .LVU417
 1324 01ae 0CAA     		add	r2, sp, #48
 1325 01b0 1A21     		movs	r1, #26
 1326 01b2 2846     		mov	r0, r5
 1327              	.LVL121:
 730:Middlewares/lvgl/src/widgets/lv_btnmatrix.c **** 
 1328              		.loc 1 730 9 is_stmt 0 view .LVU418
 1329 01b4 FFF7FEFF 		bl	lv_event_send
 1330              	.LVL122:
 733:Middlewares/lvgl/src/widgets/lv_btnmatrix.c ****             draw_rect_dsc_act.border_side = LV_BORDER_SIDE_FULL;
 1331              		.loc 1 733 9 is_stmt 1 view .LVU419
 733:Middlewares/lvgl/src/widgets/lv_btnmatrix.c ****             draw_rect_dsc_act.border_side = LV_BORDER_SIDE_FULL;
ARM GAS  /tmp/ccnMQJLR.s 			page 49


 1332              		.loc 1 733 29 is_stmt 0 view .LVU420
 1333 01b8 9DF80B31 		ldrb	r3, [sp, #267]	@ zero_extendqisi2
 733:Middlewares/lvgl/src/widgets/lv_btnmatrix.c ****             draw_rect_dsc_act.border_side = LV_BORDER_SIDE_FULL;
 1334              		.loc 1 733 11 view .LVU421
 1335 01bc 13F0200F 		tst	r3, #32
 1336 01c0 2AD0     		beq	.L54
 734:Middlewares/lvgl/src/widgets/lv_btnmatrix.c ****             if(btn_area.x1 == obj->coords.x1 + pleft) draw_rect_dsc_act.border_side &= ~LV_BORDER_S
 1337              		.loc 1 734 13 is_stmt 1 view .LVU422
 734:Middlewares/lvgl/src/widgets/lv_btnmatrix.c ****             if(btn_area.x1 == obj->coords.x1 + pleft) draw_rect_dsc_act.border_side &= ~LV_BORDER_S
 1338              		.loc 1 734 43 is_stmt 0 view .LVU423
 1339 01c2 9DF80B31 		ldrb	r3, [sp, #267]	@ zero_extendqisi2
 1340 01c6 0F22     		movs	r2, #15
 1341 01c8 62F34503 		bfi	r3, r2, #1, #5
 1342 01cc 8DF80B31 		strb	r3, [sp, #267]
 735:Middlewares/lvgl/src/widgets/lv_btnmatrix.c ****             if(btn_area.x2 == obj->coords.x2 - pright) draw_rect_dsc_act.border_side &= ~LV_BORDER_
 1343              		.loc 1 735 13 is_stmt 1 view .LVU424
 735:Middlewares/lvgl/src/widgets/lv_btnmatrix.c ****             if(btn_area.x2 == obj->coords.x2 - pright) draw_rect_dsc_act.border_side &= ~LV_BORDER_
 1344              		.loc 1 735 24 is_stmt 0 view .LVU425
 1345 01d0 BDF92021 		ldrsh	r2, [sp, #288]
 735:Middlewares/lvgl/src/widgets/lv_btnmatrix.c ****             if(btn_area.x2 == obj->coords.x2 - pright) draw_rect_dsc_act.border_side &= ~LV_BORDER_
 1346              		.loc 1 735 42 view .LVU426
 1347 01d4 B5F91430 		ldrsh	r3, [r5, #20]
 735:Middlewares/lvgl/src/widgets/lv_btnmatrix.c ****             if(btn_area.x2 == obj->coords.x2 - pright) draw_rect_dsc_act.border_side &= ~LV_BORDER_
 1348              		.loc 1 735 46 view .LVU427
 1349 01d8 0799     		ldr	r1, [sp, #28]
 1350 01da 0B44     		add	r3, r3, r1
 735:Middlewares/lvgl/src/widgets/lv_btnmatrix.c ****             if(btn_area.x2 == obj->coords.x2 - pright) draw_rect_dsc_act.border_side &= ~LV_BORDER_
 1351              		.loc 1 735 15 view .LVU428
 1352 01dc 9A42     		cmp	r2, r3
 1353 01de 00F0CB80 		beq	.L64
 1354              	.L55:
 736:Middlewares/lvgl/src/widgets/lv_btnmatrix.c ****             if(btn_area.y1 == obj->coords.y1 + ptop) draw_rect_dsc_act.border_side &= ~LV_BORDER_SI
 1355              		.loc 1 736 13 is_stmt 1 view .LVU429
 736:Middlewares/lvgl/src/widgets/lv_btnmatrix.c ****             if(btn_area.y1 == obj->coords.y1 + ptop) draw_rect_dsc_act.border_side &= ~LV_BORDER_SI
 1356              		.loc 1 736 24 is_stmt 0 view .LVU430
 1357 01e2 BDF92421 		ldrsh	r2, [sp, #292]
 736:Middlewares/lvgl/src/widgets/lv_btnmatrix.c ****             if(btn_area.y1 == obj->coords.y1 + ptop) draw_rect_dsc_act.border_side &= ~LV_BORDER_SI
 1358              		.loc 1 736 42 view .LVU431
 1359 01e6 B5F91830 		ldrsh	r3, [r5, #24]
 736:Middlewares/lvgl/src/widgets/lv_btnmatrix.c ****             if(btn_area.y1 == obj->coords.y1 + ptop) draw_rect_dsc_act.border_side &= ~LV_BORDER_SI
 1360              		.loc 1 736 46 view .LVU432
 1361 01ea 0899     		ldr	r1, [sp, #32]
 1362 01ec 5B1A     		subs	r3, r3, r1
 736:Middlewares/lvgl/src/widgets/lv_btnmatrix.c ****             if(btn_area.y1 == obj->coords.y1 + ptop) draw_rect_dsc_act.border_side &= ~LV_BORDER_SI
 1363              		.loc 1 736 15 view .LVU433
 1364 01ee 9A42     		cmp	r2, r3
 1365 01f0 00F0CA80 		beq	.L65
 1366              	.L56:
 737:Middlewares/lvgl/src/widgets/lv_btnmatrix.c ****             if(btn_area.y2 == obj->coords.y2 - pbottom) draw_rect_dsc_act.border_side &= ~LV_BORDER
 1367              		.loc 1 737 13 is_stmt 1 view .LVU434
 737:Middlewares/lvgl/src/widgets/lv_btnmatrix.c ****             if(btn_area.y2 == obj->coords.y2 - pbottom) draw_rect_dsc_act.border_side &= ~LV_BORDER
 1368              		.loc 1 737 24 is_stmt 0 view .LVU435
 1369 01f4 BDF92221 		ldrsh	r2, [sp, #290]
 737:Middlewares/lvgl/src/widgets/lv_btnmatrix.c ****             if(btn_area.y2 == obj->coords.y2 - pbottom) draw_rect_dsc_act.border_side &= ~LV_BORDER
 1370              		.loc 1 737 42 view .LVU436
 1371 01f8 B5F91630 		ldrsh	r3, [r5, #22]
 737:Middlewares/lvgl/src/widgets/lv_btnmatrix.c ****             if(btn_area.y2 == obj->coords.y2 - pbottom) draw_rect_dsc_act.border_side &= ~LV_BORDER
ARM GAS  /tmp/ccnMQJLR.s 			page 50


 1372              		.loc 1 737 46 view .LVU437
 1373 01fc 0999     		ldr	r1, [sp, #36]
 1374 01fe 0B44     		add	r3, r3, r1
 737:Middlewares/lvgl/src/widgets/lv_btnmatrix.c ****             if(btn_area.y2 == obj->coords.y2 - pbottom) draw_rect_dsc_act.border_side &= ~LV_BORDER
 1375              		.loc 1 737 15 view .LVU438
 1376 0200 9A42     		cmp	r2, r3
 1377 0202 00F0CC80 		beq	.L66
 1378              	.L57:
 738:Middlewares/lvgl/src/widgets/lv_btnmatrix.c ****         }
 1379              		.loc 1 738 13 is_stmt 1 view .LVU439
 738:Middlewares/lvgl/src/widgets/lv_btnmatrix.c ****         }
 1380              		.loc 1 738 24 is_stmt 0 view .LVU440
 1381 0206 BDF92621 		ldrsh	r2, [sp, #294]
 738:Middlewares/lvgl/src/widgets/lv_btnmatrix.c ****         }
 1382              		.loc 1 738 42 view .LVU441
 1383 020a B5F91A30 		ldrsh	r3, [r5, #26]
 738:Middlewares/lvgl/src/widgets/lv_btnmatrix.c ****         }
 1384              		.loc 1 738 46 view .LVU442
 1385 020e 0699     		ldr	r1, [sp, #24]
 1386 0210 5B1A     		subs	r3, r3, r1
 738:Middlewares/lvgl/src/widgets/lv_btnmatrix.c ****         }
 1387              		.loc 1 738 15 view .LVU443
 1388 0212 9A42     		cmp	r2, r3
 1389 0214 00F0CE80 		beq	.L67
 1390              	.L54:
 742:Middlewares/lvgl/src/widgets/lv_btnmatrix.c **** 
 1391              		.loc 1 742 9 is_stmt 1 view .LVU444
 1392 0218 3BAA     		add	r2, sp, #236
 1393 021a DDF81480 		ldr	r8, [sp, #20]
 1394 021e 4146     		mov	r1, r8
 1395 0220 48A8     		add	r0, sp, #288
 1396 0222 FFF7FEFF 		bl	lv_draw_rect
 1397              	.LVL123:
 745:Middlewares/lvgl/src/widgets/lv_btnmatrix.c ****         lv_coord_t letter_space = draw_label_dsc_act.letter_space;
 1398              		.loc 1 745 9 view .LVU445
 746:Middlewares/lvgl/src/widgets/lv_btnmatrix.c ****         lv_coord_t line_space = draw_label_dsc_act.line_space;
 1399              		.loc 1 746 9 view .LVU446
 747:Middlewares/lvgl/src/widgets/lv_btnmatrix.c ****         const char * txt = btnm->map_p[txt_i];
 1400              		.loc 1 747 9 view .LVU447
 747:Middlewares/lvgl/src/widgets/lv_btnmatrix.c ****         const char * txt = btnm->map_p[txt_i];
 1401              		.loc 1 747 20 is_stmt 0 view .LVU448
 1402 0226 BDF9DE20 		ldrsh	r2, [sp, #222]
 1403              	.LVL124:
 748:Middlewares/lvgl/src/widgets/lv_btnmatrix.c **** 
 1404              		.loc 1 748 9 is_stmt 1 view .LVU449
 748:Middlewares/lvgl/src/widgets/lv_btnmatrix.c **** 
 1405              		.loc 1 748 32 is_stmt 0 view .LVU450
 1406 022a 6B6A     		ldr	r3, [r5, #36]
 748:Middlewares/lvgl/src/widgets/lv_btnmatrix.c **** 
 1407              		.loc 1 748 22 view .LVU451
 1408 022c DF59     		ldr	r7, [r3, r7]
 1409              	.LVL125:
 758:Middlewares/lvgl/src/widgets/lv_btnmatrix.c ****         lv_txt_get_size(&txt_size, txt, font, letter_space,
 1410              		.loc 1 758 9 is_stmt 1 view .LVU452
 759:Middlewares/lvgl/src/widgets/lv_btnmatrix.c ****                 line_space, lv_area_get_width(&area_obj), draw_label_dsc_act.flag);
 1411              		.loc 1 759 9 view .LVU453
 1412              	.LBB106:
ARM GAS  /tmp/ccnMQJLR.s 			page 51


 1413              	.LBI106:
 126:Middlewares/lvgl/src/widgets/../core/../misc/../font/../misc/lv_area.h **** }
 127:Middlewares/lvgl/src/widgets/../core/../misc/../font/../misc/lv_area.h **** 
 128:Middlewares/lvgl/src/widgets/../core/../misc/../font/../misc/lv_area.h **** /**
 129:Middlewares/lvgl/src/widgets/../core/../misc/../font/../misc/lv_area.h ****  * Get the width of an area
 130:Middlewares/lvgl/src/widgets/../core/../misc/../font/../misc/lv_area.h ****  * @param area_p pointer to an area
 131:Middlewares/lvgl/src/widgets/../core/../misc/../font/../misc/lv_area.h ****  * @return the width of the area (if x1 == x2 -> width = 1)
 132:Middlewares/lvgl/src/widgets/../core/../misc/../font/../misc/lv_area.h ****  */
 133:Middlewares/lvgl/src/widgets/../core/../misc/../font/../misc/lv_area.h **** static inline lv_coord_t lv_area_get_width(const lv_area_t * area_p)
 1414              		.loc 3 133 26 view .LVU454
 1415              	.LBB107:
 134:Middlewares/lvgl/src/widgets/../core/../misc/../font/../misc/lv_area.h **** {
 135:Middlewares/lvgl/src/widgets/../core/../misc/../font/../misc/lv_area.h ****     return (lv_coord_t)(area_p->x2 - area_p->x1 + 1);
 1416              		.loc 3 135 5 view .LVU455
 1417              		.loc 3 135 31 is_stmt 0 view .LVU456
 1418 022e BDF82C31 		ldrh	r3, [sp, #300]
 1419              		.loc 3 135 44 view .LVU457
 1420 0232 BDF82811 		ldrh	r1, [sp, #296]
 1421              		.loc 3 135 36 view .LVU458
 1422 0236 5B1A     		subs	r3, r3, r1
 1423 0238 9BB2     		uxth	r3, r3
 1424              		.loc 3 135 49 view .LVU459
 1425 023a 0133     		adds	r3, r3, #1
 1426              		.loc 3 135 12 view .LVU460
 1427 023c 1BB2     		sxth	r3, r3
 1428              	.LVL126:
 1429              		.loc 3 135 12 view .LVU461
 1430              	.LBE107:
 1431              	.LBE106:
 759:Middlewares/lvgl/src/widgets/lv_btnmatrix.c ****                 line_space, lv_area_get_width(&area_obj), draw_label_dsc_act.flag);
 1432              		.loc 1 759 9 view .LVU462
 1433 023e 9DF8E810 		ldrb	r1, [sp, #232]	@ zero_extendqisi2
 1434 0242 0291     		str	r1, [sp, #8]
 1435 0244 0193     		str	r3, [sp, #4]
 1436 0246 0092     		str	r2, [sp]
 1437 0248 BDF9E030 		ldrsh	r3, [sp, #224]
 1438 024c 339A     		ldr	r2, [sp, #204]
 1439              	.LVL127:
 759:Middlewares/lvgl/src/widgets/lv_btnmatrix.c ****                 line_space, lv_area_get_width(&area_obj), draw_label_dsc_act.flag);
 1440              		.loc 1 759 9 view .LVU463
 1441 024e 3946     		mov	r1, r7
 1442 0250 0BA8     		add	r0, sp, #44
 1443 0252 FFF7FEFF 		bl	lv_txt_get_size
 1444              	.LVL128:
 762:Middlewares/lvgl/src/widgets/lv_btnmatrix.c ****         btn_area.y1 += (lv_area_get_height(&btn_area) - txt_size.y) / 2;
 1445              		.loc 1 762 9 is_stmt 1 view .LVU464
 1446              	.LBB108:
 1447              	.LBI108:
 133:Middlewares/lvgl/src/widgets/../core/../misc/../font/../misc/lv_area.h **** {
 1448              		.loc 3 133 26 view .LVU465
 1449              	.LBB109:
 1450              		.loc 3 135 5 view .LVU466
 1451              		.loc 3 135 31 is_stmt 0 view .LVU467
 1452 0256 BDF82431 		ldrh	r3, [sp, #292]
 1453              		.loc 3 135 44 view .LVU468
 1454 025a BDF82011 		ldrh	r1, [sp, #288]
 1455              		.loc 3 135 36 view .LVU469
ARM GAS  /tmp/ccnMQJLR.s 			page 52


 1456 025e 5B1A     		subs	r3, r3, r1
 1457 0260 9BB2     		uxth	r3, r3
 1458              		.loc 3 135 49 view .LVU470
 1459 0262 0133     		adds	r3, r3, #1
 1460              		.loc 3 135 12 view .LVU471
 1461 0264 1BB2     		sxth	r3, r3
 1462              	.LVL129:
 1463              		.loc 3 135 12 view .LVU472
 1464              	.LBE109:
 1465              	.LBE108:
 762:Middlewares/lvgl/src/widgets/lv_btnmatrix.c ****         btn_area.y1 += (lv_area_get_height(&btn_area) - txt_size.y) / 2;
 1466              		.loc 1 762 64 view .LVU473
 1467 0266 BDF92CC0 		ldrsh	ip, [sp, #44]
 762:Middlewares/lvgl/src/widgets/lv_btnmatrix.c ****         btn_area.y1 += (lv_area_get_height(&btn_area) - txt_size.y) / 2;
 1468              		.loc 1 762 54 view .LVU474
 1469 026a A3EB0C03 		sub	r3, r3, ip
 762:Middlewares/lvgl/src/widgets/lv_btnmatrix.c ****         btn_area.y1 += (lv_area_get_height(&btn_area) - txt_size.y) / 2;
 1470              		.loc 1 762 68 view .LVU475
 1471 026e 03EBD373 		add	r3, r3, r3, lsr #31
 762:Middlewares/lvgl/src/widgets/lv_btnmatrix.c ****         btn_area.y1 += (lv_area_get_height(&btn_area) - txt_size.y) / 2;
 1472              		.loc 1 762 21 view .LVU476
 1473 0272 01EB6301 		add	r1, r1, r3, asr #1
 1474 0276 89B2     		uxth	r1, r1
 1475 0278 ADF82011 		strh	r1, [sp, #288]	@ movhi
 763:Middlewares/lvgl/src/widgets/lv_btnmatrix.c ****         btn_area.x2 = btn_area.x1 + txt_size.x;
 1476              		.loc 1 763 9 is_stmt 1 view .LVU477
 1477              	.LVL130:
 1478              	.LBB110:
 1479              	.LBI110:
 136:Middlewares/lvgl/src/widgets/../core/../misc/../font/../misc/lv_area.h **** }
 137:Middlewares/lvgl/src/widgets/../core/../misc/../font/../misc/lv_area.h **** 
 138:Middlewares/lvgl/src/widgets/../core/../misc/../font/../misc/lv_area.h **** /**
 139:Middlewares/lvgl/src/widgets/../core/../misc/../font/../misc/lv_area.h ****  * Get the height of an area
 140:Middlewares/lvgl/src/widgets/../core/../misc/../font/../misc/lv_area.h ****  * @param area_p pointer to an area
 141:Middlewares/lvgl/src/widgets/../core/../misc/../font/../misc/lv_area.h ****  * @return the height of the area (if y1 == y2 -> height = 1)
 142:Middlewares/lvgl/src/widgets/../core/../misc/../font/../misc/lv_area.h ****  */
 143:Middlewares/lvgl/src/widgets/../core/../misc/../font/../misc/lv_area.h **** static inline lv_coord_t lv_area_get_height(const lv_area_t * area_p)
 1480              		.loc 3 143 26 view .LVU478
 1481              	.LBB111:
 144:Middlewares/lvgl/src/widgets/../core/../misc/../font/../misc/lv_area.h **** {
 145:Middlewares/lvgl/src/widgets/../core/../misc/../font/../misc/lv_area.h ****     return (lv_coord_t)(area_p->y2 - area_p->y1 + 1);
 1482              		.loc 3 145 5 view .LVU479
 1483              		.loc 3 145 31 is_stmt 0 view .LVU480
 1484 027c BDF82631 		ldrh	r3, [sp, #294]
 1485              		.loc 3 145 44 view .LVU481
 1486 0280 BDF82221 		ldrh	r2, [sp, #290]
 1487              		.loc 3 145 36 view .LVU482
 1488 0284 9B1A     		subs	r3, r3, r2
 1489 0286 9BB2     		uxth	r3, r3
 1490              		.loc 3 145 49 view .LVU483
 1491 0288 0133     		adds	r3, r3, #1
 1492              		.loc 3 145 12 view .LVU484
 1493 028a 1BB2     		sxth	r3, r3
 1494              	.LVL131:
 1495              		.loc 3 145 12 view .LVU485
 1496              	.LBE111:
 1497              	.LBE110:
ARM GAS  /tmp/ccnMQJLR.s 			page 53


 763:Middlewares/lvgl/src/widgets/lv_btnmatrix.c ****         btn_area.x2 = btn_area.x1 + txt_size.x;
 1498              		.loc 1 763 65 view .LVU486
 1499 028c BDF92E00 		ldrsh	r0, [sp, #46]
 763:Middlewares/lvgl/src/widgets/lv_btnmatrix.c ****         btn_area.x2 = btn_area.x1 + txt_size.x;
 1500              		.loc 1 763 55 view .LVU487
 1501 0290 1B1A     		subs	r3, r3, r0
 763:Middlewares/lvgl/src/widgets/lv_btnmatrix.c ****         btn_area.x2 = btn_area.x1 + txt_size.x;
 1502              		.loc 1 763 69 view .LVU488
 1503 0292 03EBD373 		add	r3, r3, r3, lsr #31
 763:Middlewares/lvgl/src/widgets/lv_btnmatrix.c ****         btn_area.x2 = btn_area.x1 + txt_size.x;
 1504              		.loc 1 763 21 view .LVU489
 1505 0296 02EB6303 		add	r3, r2, r3, asr #1
 1506 029a 9BB2     		uxth	r3, r3
 1507 029c ADF82231 		strh	r3, [sp, #290]	@ movhi
 764:Middlewares/lvgl/src/widgets/lv_btnmatrix.c ****         btn_area.y2 = btn_area.y1 + txt_size.y;
 1508              		.loc 1 764 9 is_stmt 1 view .LVU490
 764:Middlewares/lvgl/src/widgets/lv_btnmatrix.c ****         btn_area.y2 = btn_area.y1 + txt_size.y;
 1509              		.loc 1 764 45 is_stmt 0 view .LVU491
 1510 02a0 1FFA8CFC 		uxth	ip, ip
 764:Middlewares/lvgl/src/widgets/lv_btnmatrix.c ****         btn_area.y2 = btn_area.y1 + txt_size.y;
 1511              		.loc 1 764 35 view .LVU492
 1512 02a4 6144     		add	r1, r1, ip
 764:Middlewares/lvgl/src/widgets/lv_btnmatrix.c ****         btn_area.y2 = btn_area.y1 + txt_size.y;
 1513              		.loc 1 764 21 view .LVU493
 1514 02a6 ADF82411 		strh	r1, [sp, #292]	@ movhi
 765:Middlewares/lvgl/src/widgets/lv_btnmatrix.c **** 
 1515              		.loc 1 765 9 is_stmt 1 view .LVU494
 765:Middlewares/lvgl/src/widgets/lv_btnmatrix.c **** 
 1516              		.loc 1 765 45 is_stmt 0 view .LVU495
 1517 02aa 80B2     		uxth	r0, r0
 765:Middlewares/lvgl/src/widgets/lv_btnmatrix.c **** 
 1518              		.loc 1 765 35 view .LVU496
 1519 02ac 0344     		add	r3, r3, r0
 765:Middlewares/lvgl/src/widgets/lv_btnmatrix.c **** 
 1520              		.loc 1 765 21 view .LVU497
 1521 02ae ADF82631 		strh	r3, [sp, #294]	@ movhi
 768:Middlewares/lvgl/src/widgets/lv_btnmatrix.c **** 
 1522              		.loc 1 768 9 is_stmt 1 view .LVU498
 1523 02b2 0023     		movs	r3, #0
 1524 02b4 0093     		str	r3, [sp]
 1525 02b6 3B46     		mov	r3, r7
 1526 02b8 33AA     		add	r2, sp, #204
 1527 02ba 4146     		mov	r1, r8
 1528 02bc 48A8     		add	r0, sp, #288
 1529 02be FFF7FEFF 		bl	lv_draw_label
 1530              	.LVL132:
 770:Middlewares/lvgl/src/widgets/lv_btnmatrix.c ****     }
 1531              		.loc 1 770 9 view .LVU499
 1532 02c2 0CAA     		add	r2, sp, #48
 1533 02c4 1B21     		movs	r1, #27
 1534 02c6 2846     		mov	r0, r5
 1535 02c8 FFF7FEFF 		bl	lv_event_send
 1536              	.LVL133:
 1537              	.L43:
 770:Middlewares/lvgl/src/widgets/lv_btnmatrix.c ****     }
 1538              		.loc 1 770 9 is_stmt 0 view .LVU500
 1539              	.LBE103:
ARM GAS  /tmp/ccnMQJLR.s 			page 54


 679:Middlewares/lvgl/src/widgets/lv_btnmatrix.c ****         /*Search the next valid text in the map*/
 1540              		.loc 1 679 43 is_stmt 1 discriminator 2 view .LVU501
 679:Middlewares/lvgl/src/widgets/lv_btnmatrix.c ****         /*Search the next valid text in the map*/
 1541              		.loc 1 679 48 is_stmt 0 discriminator 2 view .LVU502
 1542 02cc 0136     		adds	r6, r6, #1
 1543              	.LVL134:
 679:Middlewares/lvgl/src/widgets/lv_btnmatrix.c ****         /*Search the next valid text in the map*/
 1544              		.loc 1 679 48 discriminator 2 view .LVU503
 1545 02ce B6B2     		uxth	r6, r6
 1546              	.LVL135:
 679:Middlewares/lvgl/src/widgets/lv_btnmatrix.c ****         /*Search the next valid text in the map*/
 1547              		.loc 1 679 57 discriminator 2 view .LVU504
 1548 02d0 0134     		adds	r4, r4, #1
 1549              	.LVL136:
 679:Middlewares/lvgl/src/widgets/lv_btnmatrix.c ****         /*Search the next valid text in the map*/
 1550              		.loc 1 679 57 discriminator 2 view .LVU505
 1551 02d2 A4B2     		uxth	r4, r4
 1552              	.LVL137:
 1553              	.L40:
 679:Middlewares/lvgl/src/widgets/lv_btnmatrix.c ****         /*Search the next valid text in the map*/
 1554              		.loc 1 679 20 is_stmt 1 discriminator 1 view .LVU506
 679:Middlewares/lvgl/src/widgets/lv_btnmatrix.c ****         /*Search the next valid text in the map*/
 1555              		.loc 1 679 32 is_stmt 0 discriminator 1 view .LVU507
 1556 02d4 2B8E     		ldrh	r3, [r5, #48]
 679:Middlewares/lvgl/src/widgets/lv_btnmatrix.c ****         /*Search the next valid text in the map*/
 1557              		.loc 1 679 5 discriminator 1 view .LVU508
 1558 02d6 B342     		cmp	r3, r6
 1559 02d8 3FF6FFAE 		bhi	.L58
 773:Middlewares/lvgl/src/widgets/lv_btnmatrix.c **** #if LV_USE_ARABIC_PERSIAN_CHARS
 1560              		.loc 1 773 5 is_stmt 1 view .LVU509
 773:Middlewares/lvgl/src/widgets/lv_btnmatrix.c **** #if LV_USE_ARABIC_PERSIAN_CHARS
 1561              		.loc 1 773 21 is_stmt 0 view .LVU510
 1562 02dc 95F82230 		ldrb	r3, [r5, #34]	@ zero_extendqisi2
 1563 02e0 6FF38203 		bfc	r3, #2, #1
 1564 02e4 85F82230 		strb	r3, [r5, #34]
 1565 02e8 92E6     		b	.L37
 1566              	.LVL138:
 1567              	.L59:
 1568              	.LBB112:
 690:Middlewares/lvgl/src/widgets/lv_btnmatrix.c ****         if(button_is_inactive(btnm->ctrl_bits[btn_i])) btn_state |= LV_STATE_DISABLED;
 1569              		.loc 1 690 66 view .LVU511
 1570 02ea 4FF00109 		mov	r9, #1
 1571 02ee 11E7     		b	.L44
 1572              	.LVL139:
 1573              	.L63:
 693:Middlewares/lvgl/src/widgets/lv_btnmatrix.c ****             if(state_ori & LV_STATE_FOCUSED) btn_state |= LV_STATE_FOCUSED;
 1574              		.loc 1 693 13 is_stmt 1 view .LVU512
 693:Middlewares/lvgl/src/widgets/lv_btnmatrix.c ****             if(state_ori & LV_STATE_FOCUSED) btn_state |= LV_STATE_FOCUSED;
 1575              		.loc 1 693 15 is_stmt 0 view .LVU513
 1576 02f0 049B     		ldr	r3, [sp, #16]
 1577 02f2 13F0200F 		tst	r3, #32
 1578 02f6 01D0     		beq	.L47
 693:Middlewares/lvgl/src/widgets/lv_btnmatrix.c ****             if(state_ori & LV_STATE_FOCUSED) btn_state |= LV_STATE_FOCUSED;
 1579              		.loc 1 693 46 is_stmt 1 discriminator 1 view .LVU514
 693:Middlewares/lvgl/src/widgets/lv_btnmatrix.c ****             if(state_ori & LV_STATE_FOCUSED) btn_state |= LV_STATE_FOCUSED;
 1580              		.loc 1 693 56 is_stmt 0 discriminator 1 view .LVU515
 1581 02f8 49F02009 		orr	r9, r9, #32
ARM GAS  /tmp/ccnMQJLR.s 			page 55


 1582              	.LVL140:
 1583              	.L47:
 694:Middlewares/lvgl/src/widgets/lv_btnmatrix.c ****             if(state_ori & LV_STATE_FOCUS_KEY) btn_state |= LV_STATE_FOCUS_KEY;
 1584              		.loc 1 694 13 is_stmt 1 view .LVU516
 694:Middlewares/lvgl/src/widgets/lv_btnmatrix.c ****             if(state_ori & LV_STATE_FOCUS_KEY) btn_state |= LV_STATE_FOCUS_KEY;
 1585              		.loc 1 694 15 is_stmt 0 view .LVU517
 1586 02fc 049B     		ldr	r3, [sp, #16]
 1587 02fe 13F0020F 		tst	r3, #2
 1588 0302 01D0     		beq	.L48
 694:Middlewares/lvgl/src/widgets/lv_btnmatrix.c ****             if(state_ori & LV_STATE_FOCUS_KEY) btn_state |= LV_STATE_FOCUS_KEY;
 1589              		.loc 1 694 46 is_stmt 1 discriminator 1 view .LVU518
 694:Middlewares/lvgl/src/widgets/lv_btnmatrix.c ****             if(state_ori & LV_STATE_FOCUS_KEY) btn_state |= LV_STATE_FOCUS_KEY;
 1590              		.loc 1 694 56 is_stmt 0 discriminator 1 view .LVU519
 1591 0304 49F00209 		orr	r9, r9, #2
 1592              	.LVL141:
 1593              	.L48:
 695:Middlewares/lvgl/src/widgets/lv_btnmatrix.c ****             if(state_ori & LV_STATE_EDITED) btn_state |= LV_STATE_EDITED;
 1594              		.loc 1 695 13 is_stmt 1 view .LVU520
 695:Middlewares/lvgl/src/widgets/lv_btnmatrix.c ****             if(state_ori & LV_STATE_EDITED) btn_state |= LV_STATE_EDITED;
 1595              		.loc 1 695 15 is_stmt 0 view .LVU521
 1596 0308 049B     		ldr	r3, [sp, #16]
 1597 030a 13F0040F 		tst	r3, #4
 1598 030e 01D0     		beq	.L49
 695:Middlewares/lvgl/src/widgets/lv_btnmatrix.c ****             if(state_ori & LV_STATE_EDITED) btn_state |= LV_STATE_EDITED;
 1599              		.loc 1 695 48 is_stmt 1 discriminator 1 view .LVU522
 695:Middlewares/lvgl/src/widgets/lv_btnmatrix.c ****             if(state_ori & LV_STATE_EDITED) btn_state |= LV_STATE_EDITED;
 1600              		.loc 1 695 58 is_stmt 0 discriminator 1 view .LVU523
 1601 0310 49F00409 		orr	r9, r9, #4
 1602              	.LVL142:
 1603              	.L49:
 696:Middlewares/lvgl/src/widgets/lv_btnmatrix.c ****         }
 1604              		.loc 1 696 13 is_stmt 1 view .LVU524
 696:Middlewares/lvgl/src/widgets/lv_btnmatrix.c ****         }
 1605              		.loc 1 696 15 is_stmt 0 view .LVU525
 1606 0314 049B     		ldr	r3, [sp, #16]
 1607 0316 13F0080F 		tst	r3, #8
 1608 031a 3FF405AF 		beq	.L46
 696:Middlewares/lvgl/src/widgets/lv_btnmatrix.c ****         }
 1609              		.loc 1 696 45 is_stmt 1 discriminator 1 view .LVU526
 696:Middlewares/lvgl/src/widgets/lv_btnmatrix.c ****         }
 1610              		.loc 1 696 55 is_stmt 0 discriminator 1 view .LVU527
 1611 031e 49F00809 		orr	r9, r9, #8
 1612              	.LVL143:
 696:Middlewares/lvgl/src/widgets/lv_btnmatrix.c ****         }
 1613              		.loc 1 696 55 discriminator 1 view .LVU528
 1614 0322 01E7     		b	.L46
 1615              	.L50:
 713:Middlewares/lvgl/src/widgets/lv_btnmatrix.c ****             obj->skip_trans = 1;
 1616              		.loc 1 713 13 is_stmt 1 view .LVU529
 713:Middlewares/lvgl/src/widgets/lv_btnmatrix.c ****             obj->skip_trans = 1;
 1617              		.loc 1 713 24 is_stmt 0 view .LVU530
 1618 0324 A5F82090 		strh	r9, [r5, #32]	@ movhi
 714:Middlewares/lvgl/src/widgets/lv_btnmatrix.c ****             lv_draw_rect_dsc_init(&draw_rect_dsc_act);
 1619              		.loc 1 714 13 is_stmt 1 view .LVU531
 714:Middlewares/lvgl/src/widgets/lv_btnmatrix.c ****             lv_draw_rect_dsc_init(&draw_rect_dsc_act);
 1620              		.loc 1 714 29 is_stmt 0 view .LVU532
 1621 0328 95F82230 		ldrb	r3, [r5, #34]	@ zero_extendqisi2
ARM GAS  /tmp/ccnMQJLR.s 			page 56


 1622 032c 43F00403 		orr	r3, r3, #4
 1623 0330 85F82230 		strb	r3, [r5, #34]
 715:Middlewares/lvgl/src/widgets/lv_btnmatrix.c ****             lv_draw_label_dsc_init(&draw_label_dsc_act);
 1624              		.loc 1 715 13 is_stmt 1 view .LVU533
 1625 0334 3BA8     		add	r0, sp, #236
 1626 0336 FFF7FEFF 		bl	lv_draw_rect_dsc_init
 1627              	.LVL144:
 716:Middlewares/lvgl/src/widgets/lv_btnmatrix.c ****             lv_obj_init_draw_rect_dsc(obj, LV_PART_ITEMS, &draw_rect_dsc_act);
 1628              		.loc 1 716 13 view .LVU534
 1629 033a 33A8     		add	r0, sp, #204
 1630 033c FFF7FEFF 		bl	lv_draw_label_dsc_init
 1631              	.LVL145:
 717:Middlewares/lvgl/src/widgets/lv_btnmatrix.c ****             lv_obj_init_draw_label_dsc(obj, LV_PART_ITEMS, &draw_label_dsc_act);
 1632              		.loc 1 717 13 view .LVU535
 1633 0340 3BAA     		add	r2, sp, #236
 1634 0342 4FF4A021 		mov	r1, #327680
 1635 0346 2846     		mov	r0, r5
 1636 0348 FFF7FEFF 		bl	lv_obj_init_draw_rect_dsc
 1637              	.LVL146:
 718:Middlewares/lvgl/src/widgets/lv_btnmatrix.c ****             obj->state = state_ori;
 1638              		.loc 1 718 13 view .LVU536
 1639 034c 33AA     		add	r2, sp, #204
 1640 034e 4FF4A021 		mov	r1, #327680
 1641 0352 2846     		mov	r0, r5
 1642 0354 FFF7FEFF 		bl	lv_obj_init_draw_label_dsc
 1643              	.LVL147:
 719:Middlewares/lvgl/src/widgets/lv_btnmatrix.c ****             obj->skip_trans = 0;
 1644              		.loc 1 719 13 view .LVU537
 719:Middlewares/lvgl/src/widgets/lv_btnmatrix.c ****             obj->skip_trans = 0;
 1645              		.loc 1 719 24 is_stmt 0 view .LVU538
 1646 0358 049B     		ldr	r3, [sp, #16]
 1647 035a 2B84     		strh	r3, [r5, #32]	@ movhi
 720:Middlewares/lvgl/src/widgets/lv_btnmatrix.c ****         }
 1648              		.loc 1 720 13 is_stmt 1 view .LVU539
 720:Middlewares/lvgl/src/widgets/lv_btnmatrix.c ****         }
 1649              		.loc 1 720 29 is_stmt 0 view .LVU540
 1650 035c 95F82230 		ldrb	r3, [r5, #34]	@ zero_extendqisi2
 1651 0360 6FF38203 		bfc	r3, #2, #1
 1652 0364 85F82230 		strb	r3, [r5, #34]
 1653 0368 0FE7     		b	.L51
 1654              	.LVL148:
 1655              	.L52:
 725:Middlewares/lvgl/src/widgets/lv_btnmatrix.c **** 
 1656              		.loc 1 725 14 is_stmt 1 view .LVU541
 725:Middlewares/lvgl/src/widgets/lv_btnmatrix.c **** 
 1657              		.loc 1 725 38 is_stmt 0 view .LVU542
 1658 036a 9DF8E830 		ldrb	r3, [sp, #232]	@ zero_extendqisi2
 1659 036e 23F00103 		bic	r3, r3, #1
 1660 0372 8DF8E830 		strb	r3, [sp, #232]
 1661 0376 16E7     		b	.L53
 1662              	.LVL149:
 1663              	.L64:
 735:Middlewares/lvgl/src/widgets/lv_btnmatrix.c ****             if(btn_area.x2 == obj->coords.x2 - pright) draw_rect_dsc_act.border_side &= ~LV_BORDER_
 1664              		.loc 1 735 55 is_stmt 1 discriminator 1 view .LVU543
 735:Middlewares/lvgl/src/widgets/lv_btnmatrix.c ****             if(btn_area.x2 == obj->coords.x2 - pright) draw_rect_dsc_act.border_side &= ~LV_BORDER_
 1665              		.loc 1 735 85 is_stmt 0 discriminator 1 view .LVU544
 1666 0378 9DF80B31 		ldrb	r3, [sp, #267]	@ zero_extendqisi2
ARM GAS  /tmp/ccnMQJLR.s 			page 57


 1667 037c 0B22     		movs	r2, #11
 1668 037e 62F34503 		bfi	r3, r2, #1, #5
 1669 0382 8DF80B31 		strb	r3, [sp, #267]
 1670 0386 2CE7     		b	.L55
 1671              	.L65:
 736:Middlewares/lvgl/src/widgets/lv_btnmatrix.c ****             if(btn_area.y1 == obj->coords.y1 + ptop) draw_rect_dsc_act.border_side &= ~LV_BORDER_SI
 1672              		.loc 1 736 56 is_stmt 1 discriminator 1 view .LVU545
 736:Middlewares/lvgl/src/widgets/lv_btnmatrix.c ****             if(btn_area.y1 == obj->coords.y1 + ptop) draw_rect_dsc_act.border_side &= ~LV_BORDER_SI
 1673              		.loc 1 736 86 is_stmt 0 discriminator 1 view .LVU546
 1674 0388 9DF80B31 		ldrb	r3, [sp, #267]	@ zero_extendqisi2
 1675 038c C3F34402 		ubfx	r2, r3, #1, #5
 1676 0390 02F01702 		and	r2, r2, #23
 1677 0394 62F34503 		bfi	r3, r2, #1, #5
 1678 0398 8DF80B31 		strb	r3, [sp, #267]
 1679 039c 2AE7     		b	.L56
 1680              	.L66:
 737:Middlewares/lvgl/src/widgets/lv_btnmatrix.c ****             if(btn_area.y2 == obj->coords.y2 - pbottom) draw_rect_dsc_act.border_side &= ~LV_BORDER
 1681              		.loc 1 737 54 is_stmt 1 discriminator 1 view .LVU547
 737:Middlewares/lvgl/src/widgets/lv_btnmatrix.c ****             if(btn_area.y2 == obj->coords.y2 - pbottom) draw_rect_dsc_act.border_side &= ~LV_BORDER
 1682              		.loc 1 737 84 is_stmt 0 discriminator 1 view .LVU548
 1683 039e 9DF80B31 		ldrb	r3, [sp, #267]	@ zero_extendqisi2
 1684 03a2 C3F34402 		ubfx	r2, r3, #1, #5
 1685 03a6 02F01D02 		and	r2, r2, #29
 1686 03aa 62F34503 		bfi	r3, r2, #1, #5
 1687 03ae 8DF80B31 		strb	r3, [sp, #267]
 1688 03b2 28E7     		b	.L57
 1689              	.L67:
 738:Middlewares/lvgl/src/widgets/lv_btnmatrix.c ****         }
 1690              		.loc 1 738 57 is_stmt 1 discriminator 1 view .LVU549
 738:Middlewares/lvgl/src/widgets/lv_btnmatrix.c ****         }
 1691              		.loc 1 738 87 is_stmt 0 discriminator 1 view .LVU550
 1692 03b4 9DF80B31 		ldrb	r3, [sp, #267]	@ zero_extendqisi2
 1693 03b8 C3F34402 		ubfx	r2, r3, #1, #5
 1694 03bc 02F01E02 		and	r2, r2, #30
 1695 03c0 62F34503 		bfi	r3, r2, #1, #5
 1696 03c4 8DF80B31 		strb	r3, [sp, #267]
 1697 03c8 26E7     		b	.L54
 1698              	.L69:
 1699 03ca 00BF     		.align	2
 1700              	.L68:
 1701 03cc 00000000 		.word	.LC0
 1702              	.LBE112:
 1703              		.cfi_endproc
 1704              	.LFE165:
 1706              		.section	.text.lv_btnmatrix_destructor,"ax",%progbits
 1707              		.align	1
 1708              		.syntax unified
 1709              		.thumb
 1710              		.thumb_func
 1711              		.fpu softvfp
 1713              	lv_btnmatrix_destructor:
 1714              	.LVL150:
 1715              	.LFB163:
 368:Middlewares/lvgl/src/widgets/lv_btnmatrix.c ****     LV_TRACE_OBJ_CREATE("begin");
 1716              		.loc 1 368 1 is_stmt 1 view -0
 1717              		.cfi_startproc
 1718              		@ args = 0, pretend = 0, frame = 0
ARM GAS  /tmp/ccnMQJLR.s 			page 58


 1719              		@ frame_needed = 0, uses_anonymous_args = 0
 368:Middlewares/lvgl/src/widgets/lv_btnmatrix.c ****     LV_TRACE_OBJ_CREATE("begin");
 1720              		.loc 1 368 1 is_stmt 0 view .LVU552
 1721 0000 10B5     		push	{r4, lr}
 1722              	.LCFI12:
 1723              		.cfi_def_cfa_offset 8
 1724              		.cfi_offset 4, -8
 1725              		.cfi_offset 14, -4
 1726 0002 0C46     		mov	r4, r1
 369:Middlewares/lvgl/src/widgets/lv_btnmatrix.c ****     LV_UNUSED(class_p);
 1727              		.loc 1 369 33 is_stmt 1 view .LVU553
 370:Middlewares/lvgl/src/widgets/lv_btnmatrix.c ****     lv_btnmatrix_t * btnm = (lv_btnmatrix_t *)obj;
 1728              		.loc 1 370 5 view .LVU554
 371:Middlewares/lvgl/src/widgets/lv_btnmatrix.c ****     lv_mem_free(btnm->button_areas);
 1729              		.loc 1 371 5 view .LVU555
 1730              	.LVL151:
 372:Middlewares/lvgl/src/widgets/lv_btnmatrix.c ****     lv_mem_free(btnm->ctrl_bits);
 1731              		.loc 1 372 5 view .LVU556
 1732 0004 886A     		ldr	r0, [r1, #40]
 1733              	.LVL152:
 372:Middlewares/lvgl/src/widgets/lv_btnmatrix.c ****     lv_mem_free(btnm->ctrl_bits);
 1734              		.loc 1 372 5 is_stmt 0 view .LVU557
 1735 0006 FFF7FEFF 		bl	lv_mem_free
 1736              	.LVL153:
 373:Middlewares/lvgl/src/widgets/lv_btnmatrix.c ****     btnm->button_areas = NULL;
 1737              		.loc 1 373 5 is_stmt 1 view .LVU558
 1738 000a E06A     		ldr	r0, [r4, #44]
 1739 000c FFF7FEFF 		bl	lv_mem_free
 1740              	.LVL154:
 374:Middlewares/lvgl/src/widgets/lv_btnmatrix.c ****     btnm->ctrl_bits = NULL;
 1741              		.loc 1 374 5 view .LVU559
 374:Middlewares/lvgl/src/widgets/lv_btnmatrix.c ****     btnm->ctrl_bits = NULL;
 1742              		.loc 1 374 24 is_stmt 0 view .LVU560
 1743 0010 0023     		movs	r3, #0
 1744 0012 A362     		str	r3, [r4, #40]
 375:Middlewares/lvgl/src/widgets/lv_btnmatrix.c ****     LV_TRACE_OBJ_CREATE("finshed");
 1745              		.loc 1 375 5 is_stmt 1 view .LVU561
 375:Middlewares/lvgl/src/widgets/lv_btnmatrix.c ****     LV_TRACE_OBJ_CREATE("finshed");
 1746              		.loc 1 375 21 is_stmt 0 view .LVU562
 1747 0014 E362     		str	r3, [r4, #44]
 376:Middlewares/lvgl/src/widgets/lv_btnmatrix.c **** }
 1748              		.loc 1 376 35 is_stmt 1 view .LVU563
 377:Middlewares/lvgl/src/widgets/lv_btnmatrix.c **** 
 1749              		.loc 1 377 1 is_stmt 0 view .LVU564
 1750 0016 10BD     		pop	{r4, pc}
 377:Middlewares/lvgl/src/widgets/lv_btnmatrix.c **** 
 1751              		.loc 1 377 1 view .LVU565
 1752              		.cfi_endproc
 1753              	.LFE163:
 1755              		.section	.text.allocate_btn_areas_and_controls,"ax",%progbits
 1756              		.align	1
 1757              		.syntax unified
 1758              		.thumb
 1759              		.thumb_func
 1760              		.fpu softvfp
 1762              	allocate_btn_areas_and_controls:
 1763              	.LVL155:
ARM GAS  /tmp/ccnMQJLR.s 			page 59


 1764              	.LFB166:
 784:Middlewares/lvgl/src/widgets/lv_btnmatrix.c ****     /*Count the buttons in the map*/
 1765              		.loc 1 784 1 is_stmt 1 view -0
 1766              		.cfi_startproc
 1767              		@ args = 0, pretend = 0, frame = 0
 1768              		@ frame_needed = 0, uses_anonymous_args = 0
 784:Middlewares/lvgl/src/widgets/lv_btnmatrix.c ****     /*Count the buttons in the map*/
 1769              		.loc 1 784 1 is_stmt 0 view .LVU567
 1770 0000 F8B5     		push	{r3, r4, r5, r6, r7, lr}
 1771              	.LCFI13:
 1772              		.cfi_def_cfa_offset 24
 1773              		.cfi_offset 3, -24
 1774              		.cfi_offset 4, -20
 1775              		.cfi_offset 5, -16
 1776              		.cfi_offset 6, -12
 1777              		.cfi_offset 7, -8
 1778              		.cfi_offset 14, -4
 1779 0002 0746     		mov	r7, r0
 1780 0004 0E46     		mov	r6, r1
 786:Middlewares/lvgl/src/widgets/lv_btnmatrix.c ****     uint16_t i       = 0;
 1781              		.loc 1 786 5 is_stmt 1 view .LVU568
 1782              	.LVL156:
 787:Middlewares/lvgl/src/widgets/lv_btnmatrix.c ****     while(map[i] && map[i][0] != '\0') {
 1783              		.loc 1 787 5 view .LVU569
 788:Middlewares/lvgl/src/widgets/lv_btnmatrix.c ****         if(strcmp(map[i], "\n") != 0) { /*Do not count line breaks*/
 1784              		.loc 1 788 5 view .LVU570
 787:Middlewares/lvgl/src/widgets/lv_btnmatrix.c ****     while(map[i] && map[i][0] != '\0') {
 1785              		.loc 1 787 14 is_stmt 0 view .LVU571
 1786 0006 0024     		movs	r4, #0
 786:Middlewares/lvgl/src/widgets/lv_btnmatrix.c ****     uint16_t i       = 0;
 1787              		.loc 1 786 14 view .LVU572
 1788 0008 2546     		mov	r5, r4
 788:Middlewares/lvgl/src/widgets/lv_btnmatrix.c ****         if(strcmp(map[i], "\n") != 0) { /*Do not count line breaks*/
 1789              		.loc 1 788 10 view .LVU573
 1790 000a 01E0     		b	.L73
 1791              	.LVL157:
 1792              	.L74:
 792:Middlewares/lvgl/src/widgets/lv_btnmatrix.c ****     }
 1793              		.loc 1 792 9 is_stmt 1 view .LVU574
 792:Middlewares/lvgl/src/widgets/lv_btnmatrix.c ****     }
 1794              		.loc 1 792 10 is_stmt 0 view .LVU575
 1795 000c 0134     		adds	r4, r4, #1
 1796              	.LVL158:
 792:Middlewares/lvgl/src/widgets/lv_btnmatrix.c ****     }
 1797              		.loc 1 792 10 view .LVU576
 1798 000e A4B2     		uxth	r4, r4
 1799              	.LVL159:
 1800              	.L73:
 788:Middlewares/lvgl/src/widgets/lv_btnmatrix.c ****         if(strcmp(map[i], "\n") != 0) { /*Do not count line breaks*/
 1801              		.loc 1 788 10 is_stmt 1 view .LVU577
 788:Middlewares/lvgl/src/widgets/lv_btnmatrix.c ****         if(strcmp(map[i], "\n") != 0) { /*Do not count line breaks*/
 1802              		.loc 1 788 14 is_stmt 0 view .LVU578
 1803 0010 56F82400 		ldr	r0, [r6, r4, lsl #2]
 788:Middlewares/lvgl/src/widgets/lv_btnmatrix.c ****         if(strcmp(map[i], "\n") != 0) { /*Do not count line breaks*/
 1804              		.loc 1 788 10 view .LVU579
 1805 0014 48B1     		cbz	r0, .L75
 788:Middlewares/lvgl/src/widgets/lv_btnmatrix.c ****         if(strcmp(map[i], "\n") != 0) { /*Do not count line breaks*/
ARM GAS  /tmp/ccnMQJLR.s 			page 60


 1806              		.loc 1 788 27 discriminator 1 view .LVU580
 1807 0016 0378     		ldrb	r3, [r0]	@ zero_extendqisi2
 788:Middlewares/lvgl/src/widgets/lv_btnmatrix.c ****         if(strcmp(map[i], "\n") != 0) { /*Do not count line breaks*/
 1808              		.loc 1 788 18 discriminator 1 view .LVU581
 1809 0018 3BB1     		cbz	r3, .L75
 789:Middlewares/lvgl/src/widgets/lv_btnmatrix.c ****             btn_cnt++;
 1810              		.loc 1 789 9 is_stmt 1 view .LVU582
 789:Middlewares/lvgl/src/widgets/lv_btnmatrix.c ****             btn_cnt++;
 1811              		.loc 1 789 12 is_stmt 0 view .LVU583
 1812 001a 1649     		ldr	r1, .L88
 1813 001c FFF7FEFF 		bl	strcmp
 1814              	.LVL160:
 789:Middlewares/lvgl/src/widgets/lv_btnmatrix.c ****             btn_cnt++;
 1815              		.loc 1 789 11 view .LVU584
 1816 0020 0028     		cmp	r0, #0
 1817 0022 F3D0     		beq	.L74
 790:Middlewares/lvgl/src/widgets/lv_btnmatrix.c ****         }
 1818              		.loc 1 790 13 is_stmt 1 view .LVU585
 790:Middlewares/lvgl/src/widgets/lv_btnmatrix.c ****         }
 1819              		.loc 1 790 20 is_stmt 0 view .LVU586
 1820 0024 0135     		adds	r5, r5, #1
 1821              	.LVL161:
 790:Middlewares/lvgl/src/widgets/lv_btnmatrix.c ****         }
 1822              		.loc 1 790 20 view .LVU587
 1823 0026 ADB2     		uxth	r5, r5
 1824              	.LVL162:
 790:Middlewares/lvgl/src/widgets/lv_btnmatrix.c ****         }
 1825              		.loc 1 790 20 view .LVU588
 1826 0028 F0E7     		b	.L74
 1827              	.L75:
 795:Middlewares/lvgl/src/widgets/lv_btnmatrix.c **** 
 1828              		.loc 1 795 5 is_stmt 1 view .LVU589
 1829              	.LVL163:
 795:Middlewares/lvgl/src/widgets/lv_btnmatrix.c **** 
 1830              		.loc 1 795 51 view .LVU590
 798:Middlewares/lvgl/src/widgets/lv_btnmatrix.c **** 
 1831              		.loc 1 798 5 view .LVU591
 798:Middlewares/lvgl/src/widgets/lv_btnmatrix.c **** 
 1832              		.loc 1 798 23 is_stmt 0 view .LVU592
 1833 002a 3B8E     		ldrh	r3, [r7, #48]
 798:Middlewares/lvgl/src/widgets/lv_btnmatrix.c **** 
 1834              		.loc 1 798 7 view .LVU593
 1835 002c AB42     		cmp	r3, r5
 1836 002e 1BD0     		beq	.L72
 800:Middlewares/lvgl/src/widgets/lv_btnmatrix.c ****         lv_mem_free(btnm->button_areas);
 1837              		.loc 1 800 5 is_stmt 1 view .LVU594
 800:Middlewares/lvgl/src/widgets/lv_btnmatrix.c ****         lv_mem_free(btnm->button_areas);
 1838              		.loc 1 800 12 is_stmt 0 view .LVU595
 1839 0030 B86A     		ldr	r0, [r7, #40]
 800:Middlewares/lvgl/src/widgets/lv_btnmatrix.c ****         lv_mem_free(btnm->button_areas);
 1840              		.loc 1 800 7 view .LVU596
 1841 0032 18B1     		cbz	r0, .L78
 801:Middlewares/lvgl/src/widgets/lv_btnmatrix.c ****         btnm->button_areas = NULL;
 1842              		.loc 1 801 9 is_stmt 1 view .LVU597
 1843 0034 FFF7FEFF 		bl	lv_mem_free
 1844              	.LVL164:
 802:Middlewares/lvgl/src/widgets/lv_btnmatrix.c ****     }
ARM GAS  /tmp/ccnMQJLR.s 			page 61


 1845              		.loc 1 802 9 view .LVU598
 802:Middlewares/lvgl/src/widgets/lv_btnmatrix.c ****     }
 1846              		.loc 1 802 28 is_stmt 0 view .LVU599
 1847 0038 0023     		movs	r3, #0
 1848 003a BB62     		str	r3, [r7, #40]
 1849              	.L78:
 804:Middlewares/lvgl/src/widgets/lv_btnmatrix.c ****         lv_mem_free(btnm->ctrl_bits);
 1850              		.loc 1 804 5 is_stmt 1 view .LVU600
 804:Middlewares/lvgl/src/widgets/lv_btnmatrix.c ****         lv_mem_free(btnm->ctrl_bits);
 1851              		.loc 1 804 12 is_stmt 0 view .LVU601
 1852 003c F86A     		ldr	r0, [r7, #44]
 804:Middlewares/lvgl/src/widgets/lv_btnmatrix.c ****         lv_mem_free(btnm->ctrl_bits);
 1853              		.loc 1 804 7 view .LVU602
 1854 003e 18B1     		cbz	r0, .L79
 805:Middlewares/lvgl/src/widgets/lv_btnmatrix.c ****         btnm->ctrl_bits = NULL;
 1855              		.loc 1 805 9 is_stmt 1 view .LVU603
 1856 0040 FFF7FEFF 		bl	lv_mem_free
 1857              	.LVL165:
 806:Middlewares/lvgl/src/widgets/lv_btnmatrix.c ****     }
 1858              		.loc 1 806 9 view .LVU604
 806:Middlewares/lvgl/src/widgets/lv_btnmatrix.c ****     }
 1859              		.loc 1 806 25 is_stmt 0 view .LVU605
 1860 0044 0023     		movs	r3, #0
 1861 0046 FB62     		str	r3, [r7, #44]
 1862              	.L79:
 809:Middlewares/lvgl/src/widgets/lv_btnmatrix.c ****     LV_ASSERT_MALLOC(btnm->button_areas);
 1863              		.loc 1 809 5 is_stmt 1 view .LVU606
 809:Middlewares/lvgl/src/widgets/lv_btnmatrix.c ****     LV_ASSERT_MALLOC(btnm->button_areas);
 1864              		.loc 1 809 26 is_stmt 0 view .LVU607
 1865 0048 E800     		lsls	r0, r5, #3
 1866 004a FFF7FEFF 		bl	lv_mem_alloc
 1867              	.LVL166:
 809:Middlewares/lvgl/src/widgets/lv_btnmatrix.c ****     LV_ASSERT_MALLOC(btnm->button_areas);
 1868              		.loc 1 809 24 view .LVU608
 1869 004e B862     		str	r0, [r7, #40]
 810:Middlewares/lvgl/src/widgets/lv_btnmatrix.c ****     btnm->ctrl_bits = lv_mem_alloc(sizeof(lv_btnmatrix_ctrl_t) * btn_cnt);
 1870              		.loc 1 810 5 is_stmt 1 view .LVU609
 810:Middlewares/lvgl/src/widgets/lv_btnmatrix.c ****     btnm->ctrl_bits = lv_mem_alloc(sizeof(lv_btnmatrix_ctrl_t) * btn_cnt);
 1871              		.loc 1 810 5 view .LVU610
 1872 0050 58B1     		cbz	r0, .L81
 810:Middlewares/lvgl/src/widgets/lv_btnmatrix.c ****     btnm->ctrl_bits = lv_mem_alloc(sizeof(lv_btnmatrix_ctrl_t) * btn_cnt);
 1873              		.loc 1 810 5 discriminator 2 view .LVU611
 810:Middlewares/lvgl/src/widgets/lv_btnmatrix.c ****     btnm->ctrl_bits = lv_mem_alloc(sizeof(lv_btnmatrix_ctrl_t) * btn_cnt);
 1874              		.loc 1 810 41 discriminator 2 view .LVU612
 811:Middlewares/lvgl/src/widgets/lv_btnmatrix.c ****     LV_ASSERT_MALLOC(btnm->ctrl_bits);
 1875              		.loc 1 811 5 discriminator 2 view .LVU613
 811:Middlewares/lvgl/src/widgets/lv_btnmatrix.c ****     LV_ASSERT_MALLOC(btnm->ctrl_bits);
 1876              		.loc 1 811 23 is_stmt 0 discriminator 2 view .LVU614
 1877 0052 6800     		lsls	r0, r5, #1
 1878 0054 FFF7FEFF 		bl	lv_mem_alloc
 1879              	.LVL167:
 811:Middlewares/lvgl/src/widgets/lv_btnmatrix.c ****     LV_ASSERT_MALLOC(btnm->ctrl_bits);
 1880              		.loc 1 811 21 discriminator 2 view .LVU615
 1881 0058 F862     		str	r0, [r7, #44]
 812:Middlewares/lvgl/src/widgets/lv_btnmatrix.c ****     if(btnm->button_areas == NULL || btnm->ctrl_bits == NULL) btn_cnt = 0;
 1882              		.loc 1 812 5 is_stmt 1 discriminator 2 view .LVU616
 812:Middlewares/lvgl/src/widgets/lv_btnmatrix.c ****     if(btnm->button_areas == NULL || btnm->ctrl_bits == NULL) btn_cnt = 0;
ARM GAS  /tmp/ccnMQJLR.s 			page 62


 1883              		.loc 1 812 5 discriminator 2 view .LVU617
 1884 005a 38B1     		cbz	r0, .L83
 812:Middlewares/lvgl/src/widgets/lv_btnmatrix.c ****     if(btnm->button_areas == NULL || btnm->ctrl_bits == NULL) btn_cnt = 0;
 1885              		.loc 1 812 5 discriminator 2 view .LVU618
 812:Middlewares/lvgl/src/widgets/lv_btnmatrix.c ****     if(btnm->button_areas == NULL || btnm->ctrl_bits == NULL) btn_cnt = 0;
 1886              		.loc 1 812 38 discriminator 2 view .LVU619
 813:Middlewares/lvgl/src/widgets/lv_btnmatrix.c **** 
 1887              		.loc 1 813 5 discriminator 2 view .LVU620
 813:Middlewares/lvgl/src/widgets/lv_btnmatrix.c **** 
 1888              		.loc 1 813 12 is_stmt 0 discriminator 2 view .LVU621
 1889 005c BB6A     		ldr	r3, [r7, #40]
 813:Middlewares/lvgl/src/widgets/lv_btnmatrix.c **** 
 1890              		.loc 1 813 7 discriminator 2 view .LVU622
 1891 005e 33B1     		cbz	r3, .L87
 1892              	.LVL168:
 1893              	.L84:
 815:Middlewares/lvgl/src/widgets/lv_btnmatrix.c **** 
 1894              		.loc 1 815 5 is_stmt 1 view .LVU623
 1895 0060 6900     		lsls	r1, r5, #1
 1896 0062 FFF7FEFF 		bl	lv_memset_00
 1897              	.LVL169:
 817:Middlewares/lvgl/src/widgets/lv_btnmatrix.c **** }
 1898              		.loc 1 817 5 view .LVU624
 817:Middlewares/lvgl/src/widgets/lv_btnmatrix.c **** }
 1899              		.loc 1 817 19 is_stmt 0 view .LVU625
 1900 0066 3D86     		strh	r5, [r7, #48]	@ movhi
 1901              	.L72:
 818:Middlewares/lvgl/src/widgets/lv_btnmatrix.c **** 
 1902              		.loc 1 818 1 view .LVU626
 1903 0068 F8BD     		pop	{r3, r4, r5, r6, r7, pc}
 1904              	.LVL170:
 1905              	.L81:
 810:Middlewares/lvgl/src/widgets/lv_btnmatrix.c ****     btnm->ctrl_bits = lv_mem_alloc(sizeof(lv_btnmatrix_ctrl_t) * btn_cnt);
 1906              		.loc 1 810 5 is_stmt 1 discriminator 1 view .LVU627
 810:Middlewares/lvgl/src/widgets/lv_btnmatrix.c ****     btnm->ctrl_bits = lv_mem_alloc(sizeof(lv_btnmatrix_ctrl_t) * btn_cnt);
 1907              		.loc 1 810 5 discriminator 1 view .LVU628
 810:Middlewares/lvgl/src/widgets/lv_btnmatrix.c ****     btnm->ctrl_bits = lv_mem_alloc(sizeof(lv_btnmatrix_ctrl_t) * btn_cnt);
 1908              		.loc 1 810 5 discriminator 1 view .LVU629
 810:Middlewares/lvgl/src/widgets/lv_btnmatrix.c ****     btnm->ctrl_bits = lv_mem_alloc(sizeof(lv_btnmatrix_ctrl_t) * btn_cnt);
 1909              		.loc 1 810 5 discriminator 1 view .LVU630
 1910 006a FEE7     		b	.L81
 1911              	.L83:
 812:Middlewares/lvgl/src/widgets/lv_btnmatrix.c ****     if(btnm->button_areas == NULL || btnm->ctrl_bits == NULL) btn_cnt = 0;
 1912              		.loc 1 812 5 discriminator 2 view .LVU631
 812:Middlewares/lvgl/src/widgets/lv_btnmatrix.c ****     if(btnm->button_areas == NULL || btnm->ctrl_bits == NULL) btn_cnt = 0;
 1913              		.loc 1 812 5 discriminator 2 view .LVU632
 812:Middlewares/lvgl/src/widgets/lv_btnmatrix.c ****     if(btnm->button_areas == NULL || btnm->ctrl_bits == NULL) btn_cnt = 0;
 1914              		.loc 1 812 5 discriminator 2 view .LVU633
 812:Middlewares/lvgl/src/widgets/lv_btnmatrix.c ****     if(btnm->button_areas == NULL || btnm->ctrl_bits == NULL) btn_cnt = 0;
 1915              		.loc 1 812 5 discriminator 2 view .LVU634
 1916 006c FEE7     		b	.L83
 1917              	.L87:
 813:Middlewares/lvgl/src/widgets/lv_btnmatrix.c **** 
 1918              		.loc 1 813 71 is_stmt 0 view .LVU635
 1919 006e 0025     		movs	r5, #0
 1920              	.LVL171:
 813:Middlewares/lvgl/src/widgets/lv_btnmatrix.c **** 
ARM GAS  /tmp/ccnMQJLR.s 			page 63


 1921              		.loc 1 813 71 view .LVU636
 1922 0070 F6E7     		b	.L84
 1923              	.L89:
 1924 0072 00BF     		.align	2
 1925              	.L88:
 1926 0074 00000000 		.word	.LC0
 1927              		.cfi_endproc
 1928              	.LFE166:
 1930              		.section	.text.lv_btnmatrix_create,"ax",%progbits
 1931              		.align	1
 1932              		.global	lv_btnmatrix_create
 1933              		.syntax unified
 1934              		.thumb
 1935              		.thumb_func
 1936              		.fpu softvfp
 1938              	lv_btnmatrix_create:
 1939              	.LVL172:
 1940              	.LFB147:
  81:Middlewares/lvgl/src/widgets/lv_btnmatrix.c ****     LV_LOG_INFO("begin")
 1941              		.loc 1 81 1 is_stmt 1 view -0
 1942              		.cfi_startproc
 1943              		@ args = 0, pretend = 0, frame = 0
 1944              		@ frame_needed = 0, uses_anonymous_args = 0
  81:Middlewares/lvgl/src/widgets/lv_btnmatrix.c ****     LV_LOG_INFO("begin")
 1945              		.loc 1 81 1 is_stmt 0 view .LVU638
 1946 0000 10B5     		push	{r4, lr}
 1947              	.LCFI14:
 1948              		.cfi_def_cfa_offset 8
 1949              		.cfi_offset 4, -8
 1950              		.cfi_offset 14, -4
 1951 0002 0146     		mov	r1, r0
  83:Middlewares/lvgl/src/widgets/lv_btnmatrix.c ****     lv_obj_class_init_obj(obj);
 1952              		.loc 1 83 5 is_stmt 1 view .LVU639
  83:Middlewares/lvgl/src/widgets/lv_btnmatrix.c ****     lv_obj_class_init_obj(obj);
 1953              		.loc 1 83 22 is_stmt 0 view .LVU640
 1954 0004 0348     		ldr	r0, .L92
 1955              	.LVL173:
  83:Middlewares/lvgl/src/widgets/lv_btnmatrix.c ****     lv_obj_class_init_obj(obj);
 1956              		.loc 1 83 22 view .LVU641
 1957 0006 FFF7FEFF 		bl	lv_obj_class_create_obj
 1958              	.LVL174:
  83:Middlewares/lvgl/src/widgets/lv_btnmatrix.c ****     lv_obj_class_init_obj(obj);
 1959              		.loc 1 83 22 view .LVU642
 1960 000a 0446     		mov	r4, r0
 1961              	.LVL175:
  84:Middlewares/lvgl/src/widgets/lv_btnmatrix.c ****     return obj;
 1962              		.loc 1 84 5 is_stmt 1 view .LVU643
 1963 000c FFF7FEFF 		bl	lv_obj_class_init_obj
 1964              	.LVL176:
  85:Middlewares/lvgl/src/widgets/lv_btnmatrix.c **** }
 1965              		.loc 1 85 5 view .LVU644
  86:Middlewares/lvgl/src/widgets/lv_btnmatrix.c **** 
 1966              		.loc 1 86 1 is_stmt 0 view .LVU645
 1967 0010 2046     		mov	r0, r4
 1968 0012 10BD     		pop	{r4, pc}
 1969              	.LVL177:
 1970              	.L93:
ARM GAS  /tmp/ccnMQJLR.s 			page 64


  86:Middlewares/lvgl/src/widgets/lv_btnmatrix.c **** 
 1971              		.loc 1 86 1 view .LVU646
 1972              		.align	2
 1973              	.L92:
 1974 0014 00000000 		.word	.LANCHOR0
 1975              		.cfi_endproc
 1976              	.LFE147:
 1978              		.section	.text.lv_btnmatrix_set_map,"ax",%progbits
 1979              		.align	1
 1980              		.global	lv_btnmatrix_set_map
 1981              		.syntax unified
 1982              		.thumb
 1983              		.thumb_func
 1984              		.fpu softvfp
 1986              	lv_btnmatrix_set_map:
 1987              	.LVL178:
 1988              	.LFB148:
  93:Middlewares/lvgl/src/widgets/lv_btnmatrix.c ****     LV_ASSERT_OBJ(obj, MY_CLASS);
 1989              		.loc 1 93 1 is_stmt 1 view -0
 1990              		.cfi_startproc
 1991              		@ args = 0, pretend = 0, frame = 56
 1992              		@ frame_needed = 0, uses_anonymous_args = 0
  94:Middlewares/lvgl/src/widgets/lv_btnmatrix.c ****     if(map == NULL) return;
 1993              		.loc 1 94 5 view .LVU648
  94:Middlewares/lvgl/src/widgets/lv_btnmatrix.c ****     if(map == NULL) return;
 1994              		.loc 1 94 5 view .LVU649
  94:Middlewares/lvgl/src/widgets/lv_btnmatrix.c ****     if(map == NULL) return;
 1995              		.loc 1 94 5 view .LVU650
  95:Middlewares/lvgl/src/widgets/lv_btnmatrix.c **** 
 1996              		.loc 1 95 5 view .LVU651
  95:Middlewares/lvgl/src/widgets/lv_btnmatrix.c **** 
 1997              		.loc 1 95 7 is_stmt 0 view .LVU652
 1998 0000 0029     		cmp	r1, #0
 1999 0002 00F0F080 		beq	.L113
  93:Middlewares/lvgl/src/widgets/lv_btnmatrix.c ****     LV_ASSERT_OBJ(obj, MY_CLASS);
 2000              		.loc 1 93 1 view .LVU653
 2001 0006 2DE9F04F 		push	{r4, r5, r6, r7, r8, r9, r10, fp, lr}
 2002              	.LCFI15:
 2003              		.cfi_def_cfa_offset 36
 2004              		.cfi_offset 4, -36
 2005              		.cfi_offset 5, -32
 2006              		.cfi_offset 6, -28
 2007              		.cfi_offset 7, -24
 2008              		.cfi_offset 8, -20
 2009              		.cfi_offset 9, -16
 2010              		.cfi_offset 10, -12
 2011              		.cfi_offset 11, -8
 2012              		.cfi_offset 14, -4
 2013 000a 91B0     		sub	sp, sp, #68
 2014              	.LCFI16:
 2015              		.cfi_def_cfa_offset 104
 2016 000c 8346     		mov	fp, r0
 2017 000e 8946     		mov	r9, r1
  97:Middlewares/lvgl/src/widgets/lv_btnmatrix.c **** 
 2018              		.loc 1 97 5 is_stmt 1 view .LVU654
 2019              	.LVL179:
  97:Middlewares/lvgl/src/widgets/lv_btnmatrix.c **** 
ARM GAS  /tmp/ccnMQJLR.s 			page 65


 2020              		.loc 1 97 51 view .LVU655
 100:Middlewares/lvgl/src/widgets/lv_btnmatrix.c ****     btnm->map_p = map;
 2021              		.loc 1 100 5 view .LVU656
 2022 0010 FFF7FEFF 		bl	allocate_btn_areas_and_controls
 2023              	.LVL180:
 101:Middlewares/lvgl/src/widgets/lv_btnmatrix.c **** 
 2024              		.loc 1 101 5 view .LVU657
 101:Middlewares/lvgl/src/widgets/lv_btnmatrix.c **** 
 2025              		.loc 1 101 17 is_stmt 0 view .LVU658
 2026 0014 CBF82490 		str	r9, [fp, #36]
 103:Middlewares/lvgl/src/widgets/lv_btnmatrix.c **** 
 2027              		.loc 1 103 5 is_stmt 1 view .LVU659
 2028              	.LVL181:
 2029              	.LBB113:
 2030              	.LBI113:
 125:Middlewares/lvgl/src/widgets/../core/lv_obj_style_gen.h **** }
 126:Middlewares/lvgl/src/widgets/../core/lv_obj_style_gen.h **** 
 127:Middlewares/lvgl/src/widgets/../core/lv_obj_style_gen.h **** static inline lv_coord_t lv_obj_get_style_radius(const struct _lv_obj_t * obj, uint32_t part)
 128:Middlewares/lvgl/src/widgets/../core/lv_obj_style_gen.h **** {
 129:Middlewares/lvgl/src/widgets/../core/lv_obj_style_gen.h ****     lv_style_value_t v = lv_obj_get_style_prop(obj, part, LV_STYLE_RADIUS);
 130:Middlewares/lvgl/src/widgets/../core/lv_obj_style_gen.h ****     return (lv_coord_t)v.num;
 131:Middlewares/lvgl/src/widgets/../core/lv_obj_style_gen.h **** }
 132:Middlewares/lvgl/src/widgets/../core/lv_obj_style_gen.h **** 
 133:Middlewares/lvgl/src/widgets/../core/lv_obj_style_gen.h **** static inline bool lv_obj_get_style_clip_corner(const struct _lv_obj_t * obj, uint32_t part)
 134:Middlewares/lvgl/src/widgets/../core/lv_obj_style_gen.h **** {
 135:Middlewares/lvgl/src/widgets/../core/lv_obj_style_gen.h ****     lv_style_value_t v = lv_obj_get_style_prop(obj, part, LV_STYLE_CLIP_CORNER);
 136:Middlewares/lvgl/src/widgets/../core/lv_obj_style_gen.h ****     return (bool)v.num;
 137:Middlewares/lvgl/src/widgets/../core/lv_obj_style_gen.h **** }
 138:Middlewares/lvgl/src/widgets/../core/lv_obj_style_gen.h **** 
 139:Middlewares/lvgl/src/widgets/../core/lv_obj_style_gen.h **** static inline lv_opa_t lv_obj_get_style_opa(const struct _lv_obj_t * obj, uint32_t part)
 140:Middlewares/lvgl/src/widgets/../core/lv_obj_style_gen.h **** {
 141:Middlewares/lvgl/src/widgets/../core/lv_obj_style_gen.h ****     lv_style_value_t v = lv_obj_get_style_prop(obj, part, LV_STYLE_OPA);
 142:Middlewares/lvgl/src/widgets/../core/lv_obj_style_gen.h ****     return (lv_opa_t)v.num;
 143:Middlewares/lvgl/src/widgets/../core/lv_obj_style_gen.h **** }
 144:Middlewares/lvgl/src/widgets/../core/lv_obj_style_gen.h **** 
 145:Middlewares/lvgl/src/widgets/../core/lv_obj_style_gen.h **** static inline const lv_color_filter_dsc_t * lv_obj_get_style_color_filter_dsc(const struct _lv_obj_
 146:Middlewares/lvgl/src/widgets/../core/lv_obj_style_gen.h **** {
 147:Middlewares/lvgl/src/widgets/../core/lv_obj_style_gen.h ****     lv_style_value_t v = lv_obj_get_style_prop(obj, part, LV_STYLE_COLOR_FILTER_DSC);
 148:Middlewares/lvgl/src/widgets/../core/lv_obj_style_gen.h ****     return (const lv_color_filter_dsc_t *)v.ptr;
 149:Middlewares/lvgl/src/widgets/../core/lv_obj_style_gen.h **** }
 150:Middlewares/lvgl/src/widgets/../core/lv_obj_style_gen.h **** 
 151:Middlewares/lvgl/src/widgets/../core/lv_obj_style_gen.h **** static inline lv_opa_t lv_obj_get_style_color_filter_opa(const struct _lv_obj_t * obj, uint32_t par
 152:Middlewares/lvgl/src/widgets/../core/lv_obj_style_gen.h **** {
 153:Middlewares/lvgl/src/widgets/../core/lv_obj_style_gen.h ****     lv_style_value_t v = lv_obj_get_style_prop(obj, part, LV_STYLE_COLOR_FILTER_OPA);
 154:Middlewares/lvgl/src/widgets/../core/lv_obj_style_gen.h ****     return (lv_opa_t)v.num;
 155:Middlewares/lvgl/src/widgets/../core/lv_obj_style_gen.h **** }
 156:Middlewares/lvgl/src/widgets/../core/lv_obj_style_gen.h **** 
 157:Middlewares/lvgl/src/widgets/../core/lv_obj_style_gen.h **** static inline uint32_t lv_obj_get_style_anim_time(const struct _lv_obj_t * obj, uint32_t part)
 158:Middlewares/lvgl/src/widgets/../core/lv_obj_style_gen.h **** {
 159:Middlewares/lvgl/src/widgets/../core/lv_obj_style_gen.h ****     lv_style_value_t v = lv_obj_get_style_prop(obj, part, LV_STYLE_ANIM_TIME);
 160:Middlewares/lvgl/src/widgets/../core/lv_obj_style_gen.h ****     return (uint32_t)v.num;
 161:Middlewares/lvgl/src/widgets/../core/lv_obj_style_gen.h **** }
 162:Middlewares/lvgl/src/widgets/../core/lv_obj_style_gen.h **** 
 163:Middlewares/lvgl/src/widgets/../core/lv_obj_style_gen.h **** static inline uint32_t lv_obj_get_style_anim_speed(const struct _lv_obj_t * obj, uint32_t part)
 164:Middlewares/lvgl/src/widgets/../core/lv_obj_style_gen.h **** {
 165:Middlewares/lvgl/src/widgets/../core/lv_obj_style_gen.h ****     lv_style_value_t v = lv_obj_get_style_prop(obj, part, LV_STYLE_ANIM_SPEED);
 166:Middlewares/lvgl/src/widgets/../core/lv_obj_style_gen.h ****     return (uint32_t)v.num;
ARM GAS  /tmp/ccnMQJLR.s 			page 66


 167:Middlewares/lvgl/src/widgets/../core/lv_obj_style_gen.h **** }
 168:Middlewares/lvgl/src/widgets/../core/lv_obj_style_gen.h **** 
 169:Middlewares/lvgl/src/widgets/../core/lv_obj_style_gen.h **** static inline const lv_style_transition_dsc_t * lv_obj_get_style_transition(const struct _lv_obj_t 
 170:Middlewares/lvgl/src/widgets/../core/lv_obj_style_gen.h **** {
 171:Middlewares/lvgl/src/widgets/../core/lv_obj_style_gen.h ****     lv_style_value_t v = lv_obj_get_style_prop(obj, part, LV_STYLE_TRANSITION);
 172:Middlewares/lvgl/src/widgets/../core/lv_obj_style_gen.h ****     return (const lv_style_transition_dsc_t *)v.ptr;
 173:Middlewares/lvgl/src/widgets/../core/lv_obj_style_gen.h **** }
 174:Middlewares/lvgl/src/widgets/../core/lv_obj_style_gen.h **** 
 175:Middlewares/lvgl/src/widgets/../core/lv_obj_style_gen.h **** static inline lv_blend_mode_t lv_obj_get_style_blend_mode(const struct _lv_obj_t * obj, uint32_t pa
 176:Middlewares/lvgl/src/widgets/../core/lv_obj_style_gen.h **** {
 177:Middlewares/lvgl/src/widgets/../core/lv_obj_style_gen.h ****     lv_style_value_t v = lv_obj_get_style_prop(obj, part, LV_STYLE_BLEND_MODE);
 178:Middlewares/lvgl/src/widgets/../core/lv_obj_style_gen.h ****     return (lv_blend_mode_t)v.num;
 179:Middlewares/lvgl/src/widgets/../core/lv_obj_style_gen.h **** }
 180:Middlewares/lvgl/src/widgets/../core/lv_obj_style_gen.h **** 
 181:Middlewares/lvgl/src/widgets/../core/lv_obj_style_gen.h **** static inline uint16_t lv_obj_get_style_layout(const struct _lv_obj_t * obj, uint32_t part)
 182:Middlewares/lvgl/src/widgets/../core/lv_obj_style_gen.h **** {
 183:Middlewares/lvgl/src/widgets/../core/lv_obj_style_gen.h ****     lv_style_value_t v = lv_obj_get_style_prop(obj, part, LV_STYLE_LAYOUT);
 184:Middlewares/lvgl/src/widgets/../core/lv_obj_style_gen.h ****     return (uint16_t)v.num;
 185:Middlewares/lvgl/src/widgets/../core/lv_obj_style_gen.h **** }
 186:Middlewares/lvgl/src/widgets/../core/lv_obj_style_gen.h **** 
 187:Middlewares/lvgl/src/widgets/../core/lv_obj_style_gen.h **** static inline lv_base_dir_t lv_obj_get_style_base_dir(const struct _lv_obj_t * obj, uint32_t part)
 2031              		.loc 2 187 29 view .LVU660
 2032              	.LBB114:
 188:Middlewares/lvgl/src/widgets/../core/lv_obj_style_gen.h **** {
 189:Middlewares/lvgl/src/widgets/../core/lv_obj_style_gen.h ****     lv_style_value_t v = lv_obj_get_style_prop(obj, part, LV_STYLE_BASE_DIR);
 2033              		.loc 2 189 5 view .LVU661
 2034              		.loc 2 189 26 is_stmt 0 view .LVU662
 2035 0018 41F26A42 		movw	r2, #5226
 2036 001c 0021     		movs	r1, #0
 2037 001e 5846     		mov	r0, fp
 2038 0020 FFF7FEFF 		bl	lv_obj_get_style_prop
 2039              	.LVL182:
 190:Middlewares/lvgl/src/widgets/../core/lv_obj_style_gen.h ****     return (lv_base_dir_t)v.num;
 2040              		.loc 2 190 5 is_stmt 1 view .LVU663
 2041              		.loc 2 190 12 is_stmt 0 view .LVU664
 2042 0024 C3B2     		uxtb	r3, r0
 2043 0026 0693     		str	r3, [sp, #24]
 2044              	.LVL183:
 2045              		.loc 2 190 12 view .LVU665
 2046              	.LBE114:
 2047              	.LBE113:
 106:Middlewares/lvgl/src/widgets/lv_btnmatrix.c ****     lv_coord_t ptop = lv_obj_get_style_pad_top(obj, LV_PART_MAIN);
 2048              		.loc 1 106 5 is_stmt 1 view .LVU666
 2049              	.LBB115:
 2050              	.LBI115:
 103:Middlewares/lvgl/src/widgets/../core/lv_obj_style_gen.h **** {
 2051              		.loc 2 103 26 view .LVU667
 2052              	.LBB116:
