ARM GAS  /tmp/ccwyVXLY.s 			page 1


   1              		.cpu cortex-m3
   2              		.eabi_attribute 20, 1
   3              		.eabi_attribute 21, 1
   4              		.eabi_attribute 23, 3
   5              		.eabi_attribute 24, 1
   6              		.eabi_attribute 25, 1
   7              		.eabi_attribute 26, 1
   8              		.eabi_attribute 30, 1
   9              		.eabi_attribute 34, 1
  10              		.eabi_attribute 18, 4
  11              		.file	"lv_draw_blend.c"
  12              		.text
  13              	.Ltext0:
  14              		.cfi_sections	.debug_frame
  15              		.section	.text.map_blended,"ax",%progbits
  16              		.align	1
  17              		.arch armv7-m
  18              		.syntax unified
  19              		.thumb
  20              		.thumb_func
  21              		.fpu softvfp
  23              	map_blended:
  24              	.LVL0:
  25              	.LFB154:
  26              		.file 1 "Middlewares/lvgl/src/draw/lv_draw_blend.c"
   1:Middlewares/lvgl/src/draw/lv_draw_blend.c **** /**
   2:Middlewares/lvgl/src/draw/lv_draw_blend.c ****  * @file lv_draw_blend.c
   3:Middlewares/lvgl/src/draw/lv_draw_blend.c ****  *
   4:Middlewares/lvgl/src/draw/lv_draw_blend.c ****  */
   5:Middlewares/lvgl/src/draw/lv_draw_blend.c **** 
   6:Middlewares/lvgl/src/draw/lv_draw_blend.c **** /*********************
   7:Middlewares/lvgl/src/draw/lv_draw_blend.c ****  *      INCLUDES
   8:Middlewares/lvgl/src/draw/lv_draw_blend.c ****  *********************/
   9:Middlewares/lvgl/src/draw/lv_draw_blend.c **** #include "lv_draw_blend.h"
  10:Middlewares/lvgl/src/draw/lv_draw_blend.c **** #include "lv_img_decoder.h"
  11:Middlewares/lvgl/src/draw/lv_draw_blend.c **** #include "../misc/lv_math.h"
  12:Middlewares/lvgl/src/draw/lv_draw_blend.c **** #include "../hal/lv_hal_disp.h"
  13:Middlewares/lvgl/src/draw/lv_draw_blend.c **** #include "../core/lv_refr.h"
  14:Middlewares/lvgl/src/draw/lv_draw_blend.c **** 
  15:Middlewares/lvgl/src/draw/lv_draw_blend.c **** #if LV_USE_GPU_NXP_PXP
  16:Middlewares/lvgl/src/draw/lv_draw_blend.c ****     #include "../gpu/lv_gpu_nxp_pxp.h"
  17:Middlewares/lvgl/src/draw/lv_draw_blend.c **** #elif LV_USE_GPU_NXP_VG_LITE
  18:Middlewares/lvgl/src/draw/lv_draw_blend.c ****     #include "../gpu/lv_gpu_nxp_vglite.h"
  19:Middlewares/lvgl/src/draw/lv_draw_blend.c **** #elif LV_USE_GPU_STM32_DMA2D
  20:Middlewares/lvgl/src/draw/lv_draw_blend.c ****     #include "../gpu/lv_gpu_stm32_dma2d.h"
  21:Middlewares/lvgl/src/draw/lv_draw_blend.c **** #endif
  22:Middlewares/lvgl/src/draw/lv_draw_blend.c **** 
  23:Middlewares/lvgl/src/draw/lv_draw_blend.c **** /*********************
  24:Middlewares/lvgl/src/draw/lv_draw_blend.c ****  *      DEFINES
  25:Middlewares/lvgl/src/draw/lv_draw_blend.c ****  *********************/
  26:Middlewares/lvgl/src/draw/lv_draw_blend.c **** #define GPU_SIZE_LIMIT      240
  27:Middlewares/lvgl/src/draw/lv_draw_blend.c **** 
  28:Middlewares/lvgl/src/draw/lv_draw_blend.c **** /**********************
  29:Middlewares/lvgl/src/draw/lv_draw_blend.c ****  *      TYPEDEFS
  30:Middlewares/lvgl/src/draw/lv_draw_blend.c ****  **********************/
  31:Middlewares/lvgl/src/draw/lv_draw_blend.c **** 
  32:Middlewares/lvgl/src/draw/lv_draw_blend.c **** /**********************
ARM GAS  /tmp/ccwyVXLY.s 			page 2


  33:Middlewares/lvgl/src/draw/lv_draw_blend.c ****  *  STATIC PROTOTYPES
  34:Middlewares/lvgl/src/draw/lv_draw_blend.c ****  **********************/
  35:Middlewares/lvgl/src/draw/lv_draw_blend.c **** 
  36:Middlewares/lvgl/src/draw/lv_draw_blend.c **** static void fill_set_px(const lv_area_t * disp_area, lv_color_t * disp_buf,  const lv_area_t * draw
  37:Middlewares/lvgl/src/draw/lv_draw_blend.c ****                         lv_color_t color, lv_opa_t opa,
  38:Middlewares/lvgl/src/draw/lv_draw_blend.c ****                         const lv_opa_t * mask, lv_draw_mask_res_t mask_res);
  39:Middlewares/lvgl/src/draw/lv_draw_blend.c **** 
  40:Middlewares/lvgl/src/draw/lv_draw_blend.c **** LV_ATTRIBUTE_FAST_MEM static void fill_normal(const lv_area_t * disp_area, lv_color_t * disp_buf,
  41:Middlewares/lvgl/src/draw/lv_draw_blend.c ****                                               const lv_area_t * draw_area,
  42:Middlewares/lvgl/src/draw/lv_draw_blend.c ****                                               lv_color_t color, lv_opa_t opa,
  43:Middlewares/lvgl/src/draw/lv_draw_blend.c ****                                               const lv_opa_t * mask, lv_draw_mask_res_t mask_res);
  44:Middlewares/lvgl/src/draw/lv_draw_blend.c **** 
  45:Middlewares/lvgl/src/draw/lv_draw_blend.c **** #if LV_DRAW_COMPLEX
  46:Middlewares/lvgl/src/draw/lv_draw_blend.c **** static void fill_blended(const lv_area_t * disp_area, lv_color_t * disp_buf,  const lv_area_t * dra
  47:Middlewares/lvgl/src/draw/lv_draw_blend.c ****                          lv_color_t color, lv_opa_t opa,
  48:Middlewares/lvgl/src/draw/lv_draw_blend.c ****                          const lv_opa_t * mask, lv_draw_mask_res_t mask_res, lv_blend_mode_t mode);
  49:Middlewares/lvgl/src/draw/lv_draw_blend.c **** #endif
  50:Middlewares/lvgl/src/draw/lv_draw_blend.c **** 
  51:Middlewares/lvgl/src/draw/lv_draw_blend.c **** static void map_set_px(const lv_area_t * disp_area, lv_color_t * disp_buf,  const lv_area_t * draw_
  52:Middlewares/lvgl/src/draw/lv_draw_blend.c ****                        const lv_area_t * map_area, const lv_color_t * map_buf, lv_opa_t opa,
  53:Middlewares/lvgl/src/draw/lv_draw_blend.c ****                        const lv_opa_t * mask, lv_draw_mask_res_t mask_res);
  54:Middlewares/lvgl/src/draw/lv_draw_blend.c **** 
  55:Middlewares/lvgl/src/draw/lv_draw_blend.c **** LV_ATTRIBUTE_FAST_MEM static void map_normal(const lv_area_t * disp_area, lv_color_t * disp_buf,
  56:Middlewares/lvgl/src/draw/lv_draw_blend.c ****                                              const lv_area_t * draw_area,
  57:Middlewares/lvgl/src/draw/lv_draw_blend.c ****                                              const lv_area_t * map_area, const lv_color_t * map_buf
  58:Middlewares/lvgl/src/draw/lv_draw_blend.c ****                                              const lv_opa_t * mask, lv_draw_mask_res_t mask_res);
  59:Middlewares/lvgl/src/draw/lv_draw_blend.c **** 
  60:Middlewares/lvgl/src/draw/lv_draw_blend.c **** #if LV_DRAW_COMPLEX
  61:Middlewares/lvgl/src/draw/lv_draw_blend.c **** static void map_blended(const lv_area_t * disp_area, lv_color_t * disp_buf,  const lv_area_t * draw
  62:Middlewares/lvgl/src/draw/lv_draw_blend.c ****                         const lv_area_t * map_area, const lv_color_t * map_buf, lv_opa_t opa,
  63:Middlewares/lvgl/src/draw/lv_draw_blend.c ****                         const lv_opa_t * mask, lv_draw_mask_res_t mask_res, lv_blend_mode_t mode);
  64:Middlewares/lvgl/src/draw/lv_draw_blend.c **** 
  65:Middlewares/lvgl/src/draw/lv_draw_blend.c **** static inline lv_color_t color_blend_true_color_additive(lv_color_t fg, lv_color_t bg, lv_opa_t opa
  66:Middlewares/lvgl/src/draw/lv_draw_blend.c **** static inline lv_color_t color_blend_true_color_subtractive(lv_color_t fg, lv_color_t bg, lv_opa_t 
  67:Middlewares/lvgl/src/draw/lv_draw_blend.c **** #endif
  68:Middlewares/lvgl/src/draw/lv_draw_blend.c **** 
  69:Middlewares/lvgl/src/draw/lv_draw_blend.c **** /**********************
  70:Middlewares/lvgl/src/draw/lv_draw_blend.c ****  *  STATIC VARIABLES
  71:Middlewares/lvgl/src/draw/lv_draw_blend.c ****  **********************/
  72:Middlewares/lvgl/src/draw/lv_draw_blend.c **** 
  73:Middlewares/lvgl/src/draw/lv_draw_blend.c **** /**********************
  74:Middlewares/lvgl/src/draw/lv_draw_blend.c ****  *      MACROS
  75:Middlewares/lvgl/src/draw/lv_draw_blend.c ****  **********************/
  76:Middlewares/lvgl/src/draw/lv_draw_blend.c **** 
  77:Middlewares/lvgl/src/draw/lv_draw_blend.c **** #define FILL_NORMAL_MASK_PX(out_x,  color)                                                         
  78:Middlewares/lvgl/src/draw/lv_draw_blend.c ****     if(*mask_tmp_x) {          \
  79:Middlewares/lvgl/src/draw/lv_draw_blend.c ****         if(*mask_tmp_x == LV_OPA_COVER) disp_buf_first[out_x] = color;                             
  80:Middlewares/lvgl/src/draw/lv_draw_blend.c ****         else disp_buf_first[out_x] = lv_color_mix(color, disp_buf_first[out_x], *mask_tmp_x);      
  81:Middlewares/lvgl/src/draw/lv_draw_blend.c ****     }                                                                                              
  82:Middlewares/lvgl/src/draw/lv_draw_blend.c ****     mask_tmp_x++;
  83:Middlewares/lvgl/src/draw/lv_draw_blend.c **** 
  84:Middlewares/lvgl/src/draw/lv_draw_blend.c **** #define FILL_NORMAL_MASK_PX_SCR_TRANSP(out_x,  color)                                              
  85:Middlewares/lvgl/src/draw/lv_draw_blend.c ****     if(*mask_tmp_x) {          \
  86:Middlewares/lvgl/src/draw/lv_draw_blend.c ****         if(*mask_tmp_x == LV_OPA_COVER) disp_buf_first[out_x] = color;                             
  87:Middlewares/lvgl/src/draw/lv_draw_blend.c ****         else if(disp->driver->screen_transp) lv_color_mix_with_alpha(disp_buf_first[out_x], disp_bu
  88:Middlewares/lvgl/src/draw/lv_draw_blend.c ****                                                                         color, *mask_tmp_x, &disp_b
  89:Middlewares/lvgl/src/draw/lv_draw_blend.c ****         else disp_buf_first[out_x] = lv_color_mix(color, disp_buf_first[out_x], *mask_tmp_x);      
ARM GAS  /tmp/ccwyVXLY.s 			page 3


  90:Middlewares/lvgl/src/draw/lv_draw_blend.c ****     }                                                                                              
  91:Middlewares/lvgl/src/draw/lv_draw_blend.c ****     mask_tmp_x++;
  92:Middlewares/lvgl/src/draw/lv_draw_blend.c **** 
  93:Middlewares/lvgl/src/draw/lv_draw_blend.c **** #define MAP_NORMAL_MASK_PX(x)                                                          \
  94:Middlewares/lvgl/src/draw/lv_draw_blend.c ****     if(*mask_tmp_x) {          \
  95:Middlewares/lvgl/src/draw/lv_draw_blend.c ****         if(*mask_tmp_x == LV_OPA_COVER) disp_buf_first[x] = map_buf_first[x];                      
  96:Middlewares/lvgl/src/draw/lv_draw_blend.c ****         else disp_buf_first[x] = lv_color_mix(map_buf_first[x], disp_buf_first[x], *mask_tmp_x);   
  97:Middlewares/lvgl/src/draw/lv_draw_blend.c ****     }                                                                                              
  98:Middlewares/lvgl/src/draw/lv_draw_blend.c ****     mask_tmp_x++;
  99:Middlewares/lvgl/src/draw/lv_draw_blend.c **** 
 100:Middlewares/lvgl/src/draw/lv_draw_blend.c **** #define MAP_NORMAL_MASK_PX_SCR_TRANSP(x)                        \
 101:Middlewares/lvgl/src/draw/lv_draw_blend.c ****     if(*mask_tmp_x) {          \
 102:Middlewares/lvgl/src/draw/lv_draw_blend.c ****         if(*mask_tmp_x == LV_OPA_COVER) disp_buf_first[x] = map_buf_first[x];                      
 103:Middlewares/lvgl/src/draw/lv_draw_blend.c ****         else if(disp->driver->screen_transp) lv_color_mix_with_alpha(disp_buf_first[x], disp_buf_fi
 104:Middlewares/lvgl/src/draw/lv_draw_blend.c ****                                                                         map_buf_first[x], *mask_tmp
 105:Middlewares/lvgl/src/draw/lv_draw_blend.c ****         else disp_buf_first[x] = lv_color_mix(map_buf_first[x], disp_buf_first[x], *mask_tmp_x);   
 106:Middlewares/lvgl/src/draw/lv_draw_blend.c ****     }                                                                                              
 107:Middlewares/lvgl/src/draw/lv_draw_blend.c ****     mask_tmp_x++;
 108:Middlewares/lvgl/src/draw/lv_draw_blend.c **** 
 109:Middlewares/lvgl/src/draw/lv_draw_blend.c **** /**********************
 110:Middlewares/lvgl/src/draw/lv_draw_blend.c ****  *   GLOBAL FUNCTIONS
 111:Middlewares/lvgl/src/draw/lv_draw_blend.c ****  **********************/
 112:Middlewares/lvgl/src/draw/lv_draw_blend.c **** 
 113:Middlewares/lvgl/src/draw/lv_draw_blend.c **** /**
 114:Middlewares/lvgl/src/draw/lv_draw_blend.c ****  * Fill and area in the display buffer.
 115:Middlewares/lvgl/src/draw/lv_draw_blend.c ****  * @param clip_area clip the fill to this area  (absolute coordinates)
 116:Middlewares/lvgl/src/draw/lv_draw_blend.c ****  * @param fill_area fill this area  (absolute coordinates) (should be clipped)
 117:Middlewares/lvgl/src/draw/lv_draw_blend.c ****  * @param color fill color
 118:Middlewares/lvgl/src/draw/lv_draw_blend.c ****  * @param mask a mask to apply on the fill (uint8_t array with 0x00..0xff values).
 119:Middlewares/lvgl/src/draw/lv_draw_blend.c ****  *             Relative to fill area but its width is truncated to clip area.
 120:Middlewares/lvgl/src/draw/lv_draw_blend.c ****  * @param mask_res LV_MASK_RES_COVER: the mask has only 0xff values (no mask),
 121:Middlewares/lvgl/src/draw/lv_draw_blend.c ****  *                 LV_MASK_RES_TRANSP: the mask has only 0x00 values (full transparent),
 122:Middlewares/lvgl/src/draw/lv_draw_blend.c ****  *                 LV_MASK_RES_CHANGED: the mask has mixed values
 123:Middlewares/lvgl/src/draw/lv_draw_blend.c ****  * @param opa overall opacity in 0x00..0xff range
 124:Middlewares/lvgl/src/draw/lv_draw_blend.c ****  * @param mode blend mode from `lv_blend_mode_t`
 125:Middlewares/lvgl/src/draw/lv_draw_blend.c ****  */
 126:Middlewares/lvgl/src/draw/lv_draw_blend.c **** LV_ATTRIBUTE_FAST_MEM void _lv_blend_fill(const lv_area_t * clip_area, const lv_area_t * fill_area,
 127:Middlewares/lvgl/src/draw/lv_draw_blend.c ****                                           lv_color_t color, lv_opa_t * mask, lv_draw_mask_res_t mas
 128:Middlewares/lvgl/src/draw/lv_draw_blend.c ****                                           lv_blend_mode_t mode)
 129:Middlewares/lvgl/src/draw/lv_draw_blend.c **** {
 130:Middlewares/lvgl/src/draw/lv_draw_blend.c ****     /*Do not draw transparent things*/
 131:Middlewares/lvgl/src/draw/lv_draw_blend.c ****     if(opa < LV_OPA_MIN) return;
 132:Middlewares/lvgl/src/draw/lv_draw_blend.c ****     if(mask_res == LV_DRAW_MASK_RES_TRANSP) return;
 133:Middlewares/lvgl/src/draw/lv_draw_blend.c **** 
 134:Middlewares/lvgl/src/draw/lv_draw_blend.c ****     lv_disp_t * disp = _lv_refr_get_disp_refreshing();
 135:Middlewares/lvgl/src/draw/lv_draw_blend.c ****     lv_disp_draw_buf_t * draw_buf = lv_disp_get_draw_buf(disp);
 136:Middlewares/lvgl/src/draw/lv_draw_blend.c ****     const lv_area_t * disp_area = &draw_buf->area;
 137:Middlewares/lvgl/src/draw/lv_draw_blend.c ****     lv_color_t * disp_buf = draw_buf->buf_act;
 138:Middlewares/lvgl/src/draw/lv_draw_blend.c **** 
 139:Middlewares/lvgl/src/draw/lv_draw_blend.c ****     if(disp->driver->gpu_wait_cb) disp->driver->gpu_wait_cb(disp->driver);
 140:Middlewares/lvgl/src/draw/lv_draw_blend.c **** 
 141:Middlewares/lvgl/src/draw/lv_draw_blend.c ****     /*Get clipped fill area which is the real draw area.
 142:Middlewares/lvgl/src/draw/lv_draw_blend.c ****      *It is always the same or inside `fill_area`*/
 143:Middlewares/lvgl/src/draw/lv_draw_blend.c ****     lv_area_t draw_area;
 144:Middlewares/lvgl/src/draw/lv_draw_blend.c ****     bool is_common;
 145:Middlewares/lvgl/src/draw/lv_draw_blend.c ****     is_common = _lv_area_intersect(&draw_area, clip_area, fill_area);
 146:Middlewares/lvgl/src/draw/lv_draw_blend.c ****     if(!is_common) return;
ARM GAS  /tmp/ccwyVXLY.s 			page 4


 147:Middlewares/lvgl/src/draw/lv_draw_blend.c **** 
 148:Middlewares/lvgl/src/draw/lv_draw_blend.c ****     /*Now `draw_area` has absolute coordinates.
 149:Middlewares/lvgl/src/draw/lv_draw_blend.c ****      *Make it relative to `disp_area` to simplify draw to `disp_buf`*/
 150:Middlewares/lvgl/src/draw/lv_draw_blend.c ****     draw_area.x1 -= disp_area->x1;
 151:Middlewares/lvgl/src/draw/lv_draw_blend.c ****     draw_area.y1 -= disp_area->y1;
 152:Middlewares/lvgl/src/draw/lv_draw_blend.c ****     draw_area.x2 -= disp_area->x1;
 153:Middlewares/lvgl/src/draw/lv_draw_blend.c ****     draw_area.y2 -= disp_area->y1;
 154:Middlewares/lvgl/src/draw/lv_draw_blend.c **** 
 155:Middlewares/lvgl/src/draw/lv_draw_blend.c ****     /*Round the values in the mask if anti-aliasing is disabled*/
 156:Middlewares/lvgl/src/draw/lv_draw_blend.c ****     if(mask && disp->driver->antialiasing == 0 && mask) {
 157:Middlewares/lvgl/src/draw/lv_draw_blend.c ****         int32_t mask_w = lv_area_get_width(&draw_area);
 158:Middlewares/lvgl/src/draw/lv_draw_blend.c ****         int32_t i;
 159:Middlewares/lvgl/src/draw/lv_draw_blend.c ****         for(i = 0; i < mask_w; i++)  mask[i] = mask[i] > 128 ? LV_OPA_COVER : LV_OPA_TRANSP;
 160:Middlewares/lvgl/src/draw/lv_draw_blend.c ****     }
 161:Middlewares/lvgl/src/draw/lv_draw_blend.c **** 
 162:Middlewares/lvgl/src/draw/lv_draw_blend.c ****     if(disp->driver->set_px_cb) {
 163:Middlewares/lvgl/src/draw/lv_draw_blend.c ****         fill_set_px(disp_area, disp_buf, &draw_area, color, opa, mask, mask_res);
 164:Middlewares/lvgl/src/draw/lv_draw_blend.c ****     }
 165:Middlewares/lvgl/src/draw/lv_draw_blend.c ****     else if(mode == LV_BLEND_MODE_NORMAL) {
 166:Middlewares/lvgl/src/draw/lv_draw_blend.c ****         fill_normal(disp_area, disp_buf, &draw_area, color, opa, mask, mask_res);
 167:Middlewares/lvgl/src/draw/lv_draw_blend.c ****     }
 168:Middlewares/lvgl/src/draw/lv_draw_blend.c **** #if LV_DRAW_COMPLEX
 169:Middlewares/lvgl/src/draw/lv_draw_blend.c ****     else {
 170:Middlewares/lvgl/src/draw/lv_draw_blend.c ****         fill_blended(disp_area, disp_buf, &draw_area, color, opa, mask, mask_res, mode);
 171:Middlewares/lvgl/src/draw/lv_draw_blend.c ****     }
 172:Middlewares/lvgl/src/draw/lv_draw_blend.c **** #endif
 173:Middlewares/lvgl/src/draw/lv_draw_blend.c **** }
 174:Middlewares/lvgl/src/draw/lv_draw_blend.c **** 
 175:Middlewares/lvgl/src/draw/lv_draw_blend.c **** /**
 176:Middlewares/lvgl/src/draw/lv_draw_blend.c ****  * Copy a map (image) to a display buffer.
 177:Middlewares/lvgl/src/draw/lv_draw_blend.c ****  * @param clip_area clip the map to this area (absolute coordinates)
 178:Middlewares/lvgl/src/draw/lv_draw_blend.c ****  * @param map_area area of the image  (absolute coordinates)
 179:Middlewares/lvgl/src/draw/lv_draw_blend.c ****  * @param map_buf a pixels of the map (image)
 180:Middlewares/lvgl/src/draw/lv_draw_blend.c ****  * @param mask a mask to apply on every pixel (uint8_t array with 0x00..0xff values).
 181:Middlewares/lvgl/src/draw/lv_draw_blend.c ****  *                Relative to map area but its width is truncated to clip area.
 182:Middlewares/lvgl/src/draw/lv_draw_blend.c ****  * @param mask_res LV_MASK_RES_COVER: the mask has only 0xff values (no mask),
 183:Middlewares/lvgl/src/draw/lv_draw_blend.c ****  *                 LV_MASK_RES_TRANSP: the mask has only 0x00 values (full transparent),
 184:Middlewares/lvgl/src/draw/lv_draw_blend.c ****  *                 LV_MASK_RES_CHANGED: the mask has mixed values
 185:Middlewares/lvgl/src/draw/lv_draw_blend.c ****  * @param opa  overall opacity in 0x00..0xff range
 186:Middlewares/lvgl/src/draw/lv_draw_blend.c ****  * @param mode blend mode from `lv_blend_mode_t`
 187:Middlewares/lvgl/src/draw/lv_draw_blend.c ****  */
 188:Middlewares/lvgl/src/draw/lv_draw_blend.c **** LV_ATTRIBUTE_FAST_MEM void _lv_blend_map(const lv_area_t * clip_area, const lv_area_t * map_area,
 189:Middlewares/lvgl/src/draw/lv_draw_blend.c ****                                          const lv_color_t * map_buf,
 190:Middlewares/lvgl/src/draw/lv_draw_blend.c ****                                          lv_opa_t * mask, lv_draw_mask_res_t mask_res,
 191:Middlewares/lvgl/src/draw/lv_draw_blend.c ****                                          lv_opa_t opa, lv_blend_mode_t mode)
 192:Middlewares/lvgl/src/draw/lv_draw_blend.c **** {
 193:Middlewares/lvgl/src/draw/lv_draw_blend.c ****     /*Do not draw transparent things*/
 194:Middlewares/lvgl/src/draw/lv_draw_blend.c ****     if(opa < LV_OPA_MIN) return;
 195:Middlewares/lvgl/src/draw/lv_draw_blend.c ****     if(mask_res == LV_DRAW_MASK_RES_TRANSP) return;
 196:Middlewares/lvgl/src/draw/lv_draw_blend.c **** 
 197:Middlewares/lvgl/src/draw/lv_draw_blend.c ****     /*Get clipped fill area which is the real draw area.
 198:Middlewares/lvgl/src/draw/lv_draw_blend.c ****      *It is always the same or inside `fill_area`*/
 199:Middlewares/lvgl/src/draw/lv_draw_blend.c ****     lv_area_t draw_area;
 200:Middlewares/lvgl/src/draw/lv_draw_blend.c ****     bool is_common;
 201:Middlewares/lvgl/src/draw/lv_draw_blend.c ****     is_common = _lv_area_intersect(&draw_area, clip_area, map_area);
 202:Middlewares/lvgl/src/draw/lv_draw_blend.c ****     if(!is_common) return;
 203:Middlewares/lvgl/src/draw/lv_draw_blend.c **** 
ARM GAS  /tmp/ccwyVXLY.s 			page 5


 204:Middlewares/lvgl/src/draw/lv_draw_blend.c ****     lv_disp_t * disp = _lv_refr_get_disp_refreshing();
 205:Middlewares/lvgl/src/draw/lv_draw_blend.c ****     lv_disp_draw_buf_t * draw_buf = lv_disp_get_draw_buf(disp);
 206:Middlewares/lvgl/src/draw/lv_draw_blend.c ****     const lv_area_t * disp_area = &draw_buf->area;
 207:Middlewares/lvgl/src/draw/lv_draw_blend.c ****     lv_color_t * disp_buf = draw_buf->buf_act;
 208:Middlewares/lvgl/src/draw/lv_draw_blend.c **** 
 209:Middlewares/lvgl/src/draw/lv_draw_blend.c ****     if(disp->driver->gpu_wait_cb) disp->driver->gpu_wait_cb(disp->driver);
 210:Middlewares/lvgl/src/draw/lv_draw_blend.c **** 
 211:Middlewares/lvgl/src/draw/lv_draw_blend.c ****     /*Now `draw_area` has absolute coordinates.
 212:Middlewares/lvgl/src/draw/lv_draw_blend.c ****      *Make it relative to `disp_area` to simplify draw to `disp_buf`*/
 213:Middlewares/lvgl/src/draw/lv_draw_blend.c ****     draw_area.x1 -= disp_area->x1;
 214:Middlewares/lvgl/src/draw/lv_draw_blend.c ****     draw_area.y1 -= disp_area->y1;
 215:Middlewares/lvgl/src/draw/lv_draw_blend.c ****     draw_area.x2 -= disp_area->x1;
 216:Middlewares/lvgl/src/draw/lv_draw_blend.c ****     draw_area.y2 -= disp_area->y1;
 217:Middlewares/lvgl/src/draw/lv_draw_blend.c **** 
 218:Middlewares/lvgl/src/draw/lv_draw_blend.c ****     /*Round the values in the mask if anti-aliasing is disabled*/
 219:Middlewares/lvgl/src/draw/lv_draw_blend.c ****     if(mask && disp->driver->antialiasing == 0)
 220:Middlewares/lvgl/src/draw/lv_draw_blend.c ****     {
 221:Middlewares/lvgl/src/draw/lv_draw_blend.c ****         int32_t mask_w = lv_area_get_width(&draw_area);
 222:Middlewares/lvgl/src/draw/lv_draw_blend.c ****         int32_t i;
 223:Middlewares/lvgl/src/draw/lv_draw_blend.c ****         for(i = 0; i < mask_w; i++)  mask[i] = mask[i] > 128 ? LV_OPA_COVER : LV_OPA_TRANSP;
 224:Middlewares/lvgl/src/draw/lv_draw_blend.c ****     }
 225:Middlewares/lvgl/src/draw/lv_draw_blend.c ****     if(disp->driver->set_px_cb) {
 226:Middlewares/lvgl/src/draw/lv_draw_blend.c ****         map_set_px(disp_area, disp_buf, &draw_area, map_area, map_buf, opa, mask, mask_res);
 227:Middlewares/lvgl/src/draw/lv_draw_blend.c ****     }
 228:Middlewares/lvgl/src/draw/lv_draw_blend.c ****     else if(mode == LV_BLEND_MODE_NORMAL) {
 229:Middlewares/lvgl/src/draw/lv_draw_blend.c ****         map_normal(disp_area, disp_buf, &draw_area, map_area, map_buf, opa, mask, mask_res);
 230:Middlewares/lvgl/src/draw/lv_draw_blend.c ****     }
 231:Middlewares/lvgl/src/draw/lv_draw_blend.c **** #if LV_DRAW_COMPLEX
 232:Middlewares/lvgl/src/draw/lv_draw_blend.c ****     else {
 233:Middlewares/lvgl/src/draw/lv_draw_blend.c ****         map_blended(disp_area, disp_buf, &draw_area, map_area, map_buf, opa, mask, mask_res, mode);
 234:Middlewares/lvgl/src/draw/lv_draw_blend.c ****     }
 235:Middlewares/lvgl/src/draw/lv_draw_blend.c **** #endif
 236:Middlewares/lvgl/src/draw/lv_draw_blend.c **** }
 237:Middlewares/lvgl/src/draw/lv_draw_blend.c **** 
 238:Middlewares/lvgl/src/draw/lv_draw_blend.c **** /**********************
 239:Middlewares/lvgl/src/draw/lv_draw_blend.c ****  *   STATIC FUNCTIONS
 240:Middlewares/lvgl/src/draw/lv_draw_blend.c ****  **********************/
 241:Middlewares/lvgl/src/draw/lv_draw_blend.c **** 
 242:Middlewares/lvgl/src/draw/lv_draw_blend.c **** static void fill_set_px(const lv_area_t * disp_area, lv_color_t * disp_buf,  const lv_area_t * draw
 243:Middlewares/lvgl/src/draw/lv_draw_blend.c ****                         lv_color_t color, lv_opa_t opa,
 244:Middlewares/lvgl/src/draw/lv_draw_blend.c ****                         const lv_opa_t * mask, lv_draw_mask_res_t mask_res)
 245:Middlewares/lvgl/src/draw/lv_draw_blend.c **** {
 246:Middlewares/lvgl/src/draw/lv_draw_blend.c **** 
 247:Middlewares/lvgl/src/draw/lv_draw_blend.c ****     lv_disp_t * disp = _lv_refr_get_disp_refreshing();
 248:Middlewares/lvgl/src/draw/lv_draw_blend.c **** 
 249:Middlewares/lvgl/src/draw/lv_draw_blend.c ****     /*Get the width of the `disp_area` it will be used to go to the next line*/
 250:Middlewares/lvgl/src/draw/lv_draw_blend.c ****     int32_t disp_w = lv_area_get_width(disp_area);
 251:Middlewares/lvgl/src/draw/lv_draw_blend.c **** 
 252:Middlewares/lvgl/src/draw/lv_draw_blend.c ****     int32_t x;
 253:Middlewares/lvgl/src/draw/lv_draw_blend.c ****     int32_t y;
 254:Middlewares/lvgl/src/draw/lv_draw_blend.c **** 
 255:Middlewares/lvgl/src/draw/lv_draw_blend.c ****     if(mask_res == LV_DRAW_MASK_RES_FULL_COVER) {
 256:Middlewares/lvgl/src/draw/lv_draw_blend.c ****         for(y = draw_area->y1; y <= draw_area->y2; y++) {
 257:Middlewares/lvgl/src/draw/lv_draw_blend.c ****             for(x = draw_area->x1; x <= draw_area->x2; x++) {
 258:Middlewares/lvgl/src/draw/lv_draw_blend.c ****                 disp->driver->set_px_cb(disp->driver, (void *)disp_buf, disp_w, x, y, color, opa);
 259:Middlewares/lvgl/src/draw/lv_draw_blend.c ****             }
 260:Middlewares/lvgl/src/draw/lv_draw_blend.c ****         }
ARM GAS  /tmp/ccwyVXLY.s 			page 6


 261:Middlewares/lvgl/src/draw/lv_draw_blend.c ****     }
 262:Middlewares/lvgl/src/draw/lv_draw_blend.c ****     else {
 263:Middlewares/lvgl/src/draw/lv_draw_blend.c ****         /*The mask is relative to the clipped area.
 264:Middlewares/lvgl/src/draw/lv_draw_blend.c ****          *In the cycles below mask will be indexed from `draw_area.x1`
 265:Middlewares/lvgl/src/draw/lv_draw_blend.c ****          *but it corresponds to zero index. So prepare `mask_tmp` accordingly.*/
 266:Middlewares/lvgl/src/draw/lv_draw_blend.c ****         const lv_opa_t * mask_tmp = mask - draw_area->x1;
 267:Middlewares/lvgl/src/draw/lv_draw_blend.c **** 
 268:Middlewares/lvgl/src/draw/lv_draw_blend.c ****         /*Get the width of the `draw_area` it will be used to go to the next line of the mask*/
 269:Middlewares/lvgl/src/draw/lv_draw_blend.c ****         int32_t draw_area_w = lv_area_get_width(draw_area);
 270:Middlewares/lvgl/src/draw/lv_draw_blend.c **** 
 271:Middlewares/lvgl/src/draw/lv_draw_blend.c ****         for(y = draw_area->y1; y <= draw_area->y2; y++) {
 272:Middlewares/lvgl/src/draw/lv_draw_blend.c ****             for(x = draw_area->x1; x <= draw_area->x2; x++) {
 273:Middlewares/lvgl/src/draw/lv_draw_blend.c ****                 if(mask_tmp[x]) {
 274:Middlewares/lvgl/src/draw/lv_draw_blend.c ****                     disp->driver->set_px_cb(disp->driver, (void *)disp_buf, disp_w, x, y, color,
 275:Middlewares/lvgl/src/draw/lv_draw_blend.c ****                                            (uint32_t)((uint32_t)opa * mask_tmp[x]) >> 8);
 276:Middlewares/lvgl/src/draw/lv_draw_blend.c ****                 }
 277:Middlewares/lvgl/src/draw/lv_draw_blend.c ****             }
 278:Middlewares/lvgl/src/draw/lv_draw_blend.c ****             mask_tmp += draw_area_w;
 279:Middlewares/lvgl/src/draw/lv_draw_blend.c ****         }
 280:Middlewares/lvgl/src/draw/lv_draw_blend.c ****     }
 281:Middlewares/lvgl/src/draw/lv_draw_blend.c **** }
 282:Middlewares/lvgl/src/draw/lv_draw_blend.c **** 
 283:Middlewares/lvgl/src/draw/lv_draw_blend.c **** /**
 284:Middlewares/lvgl/src/draw/lv_draw_blend.c ****  * Fill an area with a color
 285:Middlewares/lvgl/src/draw/lv_draw_blend.c ****  * @param disp_area the current display area (destination area)
 286:Middlewares/lvgl/src/draw/lv_draw_blend.c ****  * @param disp_buf destination buffer
 287:Middlewares/lvgl/src/draw/lv_draw_blend.c ****  * @param draw_area fill this area (relative to `disp_area`)
 288:Middlewares/lvgl/src/draw/lv_draw_blend.c ****  * @param color fill color
 289:Middlewares/lvgl/src/draw/lv_draw_blend.c ****  * @param opa overall opacity in 0x00..0xff range
 290:Middlewares/lvgl/src/draw/lv_draw_blend.c ****  * @param mask a mask to apply on every pixel (uint8_t array with 0x00..0xff values).
 291:Middlewares/lvgl/src/draw/lv_draw_blend.c ****  *                It fits into draw_area.
 292:Middlewares/lvgl/src/draw/lv_draw_blend.c ****  * @param mask_res LV_MASK_RES_COVER: the mask has only 0xff values (no mask),
 293:Middlewares/lvgl/src/draw/lv_draw_blend.c ****  *                 LV_MASK_RES_TRANSP: the mask has only 0x00 values (full transparent),
 294:Middlewares/lvgl/src/draw/lv_draw_blend.c ****  *                 LV_MASK_RES_CHANGED: the mask has mixed values
 295:Middlewares/lvgl/src/draw/lv_draw_blend.c ****  */
 296:Middlewares/lvgl/src/draw/lv_draw_blend.c **** LV_ATTRIBUTE_FAST_MEM static void fill_normal(const lv_area_t * disp_area, lv_color_t * disp_buf,
 297:Middlewares/lvgl/src/draw/lv_draw_blend.c ****                                               const lv_area_t * draw_area,
 298:Middlewares/lvgl/src/draw/lv_draw_blend.c ****                                               lv_color_t color, lv_opa_t opa,
 299:Middlewares/lvgl/src/draw/lv_draw_blend.c ****                                               const lv_opa_t * mask, lv_draw_mask_res_t mask_res)
 300:Middlewares/lvgl/src/draw/lv_draw_blend.c **** {
 301:Middlewares/lvgl/src/draw/lv_draw_blend.c **** 
 302:Middlewares/lvgl/src/draw/lv_draw_blend.c ****     lv_disp_t * disp = _lv_refr_get_disp_refreshing();
 303:Middlewares/lvgl/src/draw/lv_draw_blend.c **** 
 304:Middlewares/lvgl/src/draw/lv_draw_blend.c ****     /*Get the width of the `disp_area` it will be used to go to the next line*/
 305:Middlewares/lvgl/src/draw/lv_draw_blend.c ****     int32_t disp_w = lv_area_get_width(disp_area);
 306:Middlewares/lvgl/src/draw/lv_draw_blend.c **** 
 307:Middlewares/lvgl/src/draw/lv_draw_blend.c ****     int32_t draw_area_w = lv_area_get_width(draw_area);
 308:Middlewares/lvgl/src/draw/lv_draw_blend.c ****     int32_t draw_area_h = lv_area_get_height(draw_area);
 309:Middlewares/lvgl/src/draw/lv_draw_blend.c **** 
 310:Middlewares/lvgl/src/draw/lv_draw_blend.c ****     /*Create a temp. disp_buf which always point to the first pixel of the destination area*/
 311:Middlewares/lvgl/src/draw/lv_draw_blend.c ****     lv_color_t * disp_buf_first = disp_buf + disp_w * draw_area->y1 + draw_area->x1;
 312:Middlewares/lvgl/src/draw/lv_draw_blend.c **** 
 313:Middlewares/lvgl/src/draw/lv_draw_blend.c ****     int32_t x;
 314:Middlewares/lvgl/src/draw/lv_draw_blend.c ****     int32_t y;
 315:Middlewares/lvgl/src/draw/lv_draw_blend.c **** 
 316:Middlewares/lvgl/src/draw/lv_draw_blend.c ****     /*Simple fill (maybe with opacity), no masking*/
 317:Middlewares/lvgl/src/draw/lv_draw_blend.c ****     if(mask_res == LV_DRAW_MASK_RES_FULL_COVER) {
ARM GAS  /tmp/ccwyVXLY.s 			page 7


 318:Middlewares/lvgl/src/draw/lv_draw_blend.c ****         if(opa > LV_OPA_MAX) {
 319:Middlewares/lvgl/src/draw/lv_draw_blend.c **** #if LV_USE_GPU_NXP_PXP
 320:Middlewares/lvgl/src/draw/lv_draw_blend.c ****             if(lv_area_get_size(draw_area) >= LV_GPU_NXP_PXP_FILL_SIZE_LIMIT) {
 321:Middlewares/lvgl/src/draw/lv_draw_blend.c ****                 lv_gpu_nxp_pxp_fill(disp_buf, disp_w, draw_area, color, opa);
 322:Middlewares/lvgl/src/draw/lv_draw_blend.c ****                 return;
 323:Middlewares/lvgl/src/draw/lv_draw_blend.c ****             }
 324:Middlewares/lvgl/src/draw/lv_draw_blend.c **** #elif LV_USE_GPU_NXP_VG_LITE
 325:Middlewares/lvgl/src/draw/lv_draw_blend.c ****             if(lv_area_get_size(draw_area) >= LV_GPU_NXP_VG_LITE_FILL_SIZE_LIMIT) {
 326:Middlewares/lvgl/src/draw/lv_draw_blend.c ****                 if(lv_gpu_nxp_vglite_fill(disp_buf, disp_w, lv_area_get_height(disp_area), draw_are
 327:Middlewares/lvgl/src/draw/lv_draw_blend.c ****                     return;
 328:Middlewares/lvgl/src/draw/lv_draw_blend.c ****                 }
 329:Middlewares/lvgl/src/draw/lv_draw_blend.c ****                 /*Fall down to SW render in case of error*/
 330:Middlewares/lvgl/src/draw/lv_draw_blend.c ****             }
 331:Middlewares/lvgl/src/draw/lv_draw_blend.c **** #elif LV_USE_GPU_STM32_DMA2D
 332:Middlewares/lvgl/src/draw/lv_draw_blend.c ****             if(lv_area_get_size(draw_area) >= 240) {
 333:Middlewares/lvgl/src/draw/lv_draw_blend.c ****                 lv_gpu_stm32_dma2d_fill(disp_buf_first, disp_w, color, draw_area_w, draw_area_h);
 334:Middlewares/lvgl/src/draw/lv_draw_blend.c ****                 return;
 335:Middlewares/lvgl/src/draw/lv_draw_blend.c ****             }
 336:Middlewares/lvgl/src/draw/lv_draw_blend.c **** #endif
 337:Middlewares/lvgl/src/draw/lv_draw_blend.c **** 
 338:Middlewares/lvgl/src/draw/lv_draw_blend.c ****             if(disp->driver->gpu_fill_cb && lv_area_get_size(draw_area) > GPU_SIZE_LIMIT) {
 339:Middlewares/lvgl/src/draw/lv_draw_blend.c ****                 disp->driver->gpu_fill_cb(disp->driver, disp_buf, disp_w, draw_area, color);
 340:Middlewares/lvgl/src/draw/lv_draw_blend.c ****                 return;
 341:Middlewares/lvgl/src/draw/lv_draw_blend.c ****             }
 342:Middlewares/lvgl/src/draw/lv_draw_blend.c **** 
 343:Middlewares/lvgl/src/draw/lv_draw_blend.c ****             /*Software rendering*/
 344:Middlewares/lvgl/src/draw/lv_draw_blend.c ****             for(y = 0; y < draw_area_h; y++) {
 345:Middlewares/lvgl/src/draw/lv_draw_blend.c ****                 lv_color_fill(disp_buf_first, color, draw_area_w);
 346:Middlewares/lvgl/src/draw/lv_draw_blend.c ****                 disp_buf_first += disp_w;
 347:Middlewares/lvgl/src/draw/lv_draw_blend.c ****             }
 348:Middlewares/lvgl/src/draw/lv_draw_blend.c ****         }
 349:Middlewares/lvgl/src/draw/lv_draw_blend.c ****         /*No mask with opacity*/
 350:Middlewares/lvgl/src/draw/lv_draw_blend.c ****         else {
 351:Middlewares/lvgl/src/draw/lv_draw_blend.c **** #if LV_USE_GPU_NXP_PXP
 352:Middlewares/lvgl/src/draw/lv_draw_blend.c ****             if(lv_area_get_size(draw_area) >= LV_GPU_NXP_PXP_FILL_OPA_SIZE_LIMIT) {
 353:Middlewares/lvgl/src/draw/lv_draw_blend.c ****                 lv_gpu_nxp_pxp_fill(disp_buf, disp_w, draw_area, color, opa);
 354:Middlewares/lvgl/src/draw/lv_draw_blend.c ****                 return;
 355:Middlewares/lvgl/src/draw/lv_draw_blend.c ****             }
 356:Middlewares/lvgl/src/draw/lv_draw_blend.c **** #elif LV_USE_GPU_NXP_VG_LITE
 357:Middlewares/lvgl/src/draw/lv_draw_blend.c ****             if(lv_area_get_size(draw_area) >= LV_GPU_NXP_VG_LITE_FILL_OPA_SIZE_LIMIT) {
 358:Middlewares/lvgl/src/draw/lv_draw_blend.c ****                 if(lv_gpu_nxp_vglite_fill(disp_buf, disp_w, lv_area_get_height(disp_area), draw_are
 359:Middlewares/lvgl/src/draw/lv_draw_blend.c ****                     return;
 360:Middlewares/lvgl/src/draw/lv_draw_blend.c ****                 }
 361:Middlewares/lvgl/src/draw/lv_draw_blend.c ****                 /*Fall down to SW render in case of error*/
 362:Middlewares/lvgl/src/draw/lv_draw_blend.c ****             }
 363:Middlewares/lvgl/src/draw/lv_draw_blend.c **** #endif
 364:Middlewares/lvgl/src/draw/lv_draw_blend.c ****             lv_color_t last_dest_color = lv_color_black();
 365:Middlewares/lvgl/src/draw/lv_draw_blend.c ****             lv_color_t last_res_color = lv_color_mix(color, last_dest_color, opa);
 366:Middlewares/lvgl/src/draw/lv_draw_blend.c **** 
 367:Middlewares/lvgl/src/draw/lv_draw_blend.c ****             uint16_t color_premult[3];
 368:Middlewares/lvgl/src/draw/lv_draw_blend.c ****             lv_color_premult(color, opa, color_premult);
 369:Middlewares/lvgl/src/draw/lv_draw_blend.c ****             lv_opa_t opa_inv = 255 - opa;
 370:Middlewares/lvgl/src/draw/lv_draw_blend.c **** 
 371:Middlewares/lvgl/src/draw/lv_draw_blend.c ****             for(y = 0; y < draw_area_h; y++) {
 372:Middlewares/lvgl/src/draw/lv_draw_blend.c ****                 for(x = 0; x < draw_area_w; x++) {
 373:Middlewares/lvgl/src/draw/lv_draw_blend.c ****                     if(last_dest_color.full != disp_buf_first[x].full) {
 374:Middlewares/lvgl/src/draw/lv_draw_blend.c ****                         last_dest_color = disp_buf_first[x];
ARM GAS  /tmp/ccwyVXLY.s 			page 8


 375:Middlewares/lvgl/src/draw/lv_draw_blend.c **** 
 376:Middlewares/lvgl/src/draw/lv_draw_blend.c **** #if LV_COLOR_SCREEN_TRANSP
 377:Middlewares/lvgl/src/draw/lv_draw_blend.c ****                         if(disp->driver->screen_transp) {
 378:Middlewares/lvgl/src/draw/lv_draw_blend.c ****                             lv_color_mix_with_alpha(disp_buf_first[x], disp_buf_first[x].ch.alpha, 
 379:Middlewares/lvgl/src/draw/lv_draw_blend.c ****                                                     &last_res_color.ch.alpha);
 380:Middlewares/lvgl/src/draw/lv_draw_blend.c ****                         }
 381:Middlewares/lvgl/src/draw/lv_draw_blend.c ****                         else
 382:Middlewares/lvgl/src/draw/lv_draw_blend.c **** #endif
 383:Middlewares/lvgl/src/draw/lv_draw_blend.c ****                         {
 384:Middlewares/lvgl/src/draw/lv_draw_blend.c ****                             last_res_color = lv_color_mix_premult(color_premult, disp_buf_first[x],
 385:Middlewares/lvgl/src/draw/lv_draw_blend.c ****                         }
 386:Middlewares/lvgl/src/draw/lv_draw_blend.c ****                     }
 387:Middlewares/lvgl/src/draw/lv_draw_blend.c ****                     disp_buf_first[x] = last_res_color;
 388:Middlewares/lvgl/src/draw/lv_draw_blend.c ****                 }
 389:Middlewares/lvgl/src/draw/lv_draw_blend.c ****                 disp_buf_first += disp_w;
 390:Middlewares/lvgl/src/draw/lv_draw_blend.c ****             }
 391:Middlewares/lvgl/src/draw/lv_draw_blend.c ****         }
 392:Middlewares/lvgl/src/draw/lv_draw_blend.c ****     }
 393:Middlewares/lvgl/src/draw/lv_draw_blend.c ****     /*Masked*/
 394:Middlewares/lvgl/src/draw/lv_draw_blend.c ****     else {
 395:Middlewares/lvgl/src/draw/lv_draw_blend.c ****         /*Buffer the result color to avoid recalculating the same color*/
 396:Middlewares/lvgl/src/draw/lv_draw_blend.c ****         lv_color_t last_dest_color;
 397:Middlewares/lvgl/src/draw/lv_draw_blend.c ****         lv_color_t last_res_color;
 398:Middlewares/lvgl/src/draw/lv_draw_blend.c ****         lv_opa_t last_mask = LV_OPA_TRANSP;
 399:Middlewares/lvgl/src/draw/lv_draw_blend.c ****         last_dest_color.full = disp_buf_first[0].full;
 400:Middlewares/lvgl/src/draw/lv_draw_blend.c ****         last_res_color.full = disp_buf_first[0].full;
 401:Middlewares/lvgl/src/draw/lv_draw_blend.c **** 
 402:Middlewares/lvgl/src/draw/lv_draw_blend.c ****         int32_t x_end4 = draw_area_w - 4;
 403:Middlewares/lvgl/src/draw/lv_draw_blend.c **** 
 404:Middlewares/lvgl/src/draw/lv_draw_blend.c ****         /*Only the mask matters*/
 405:Middlewares/lvgl/src/draw/lv_draw_blend.c ****         if(opa > LV_OPA_MAX) {
 406:Middlewares/lvgl/src/draw/lv_draw_blend.c ****             for(y = 0; y < draw_area_h; y++) {
 407:Middlewares/lvgl/src/draw/lv_draw_blend.c ****                 const lv_opa_t * mask_tmp_x = mask;
 408:Middlewares/lvgl/src/draw/lv_draw_blend.c **** #if 0
 409:Middlewares/lvgl/src/draw/lv_draw_blend.c ****                 for(x = 0; x < draw_area_w; x++) {
 410:Middlewares/lvgl/src/draw/lv_draw_blend.c **** #if LV_COLOR_SCREEN_TRANSP
 411:Middlewares/lvgl/src/draw/lv_draw_blend.c ****                     FILL_NORMAL_MASK_PX_SCR_TRANSP(x, color)
 412:Middlewares/lvgl/src/draw/lv_draw_blend.c **** #else
 413:Middlewares/lvgl/src/draw/lv_draw_blend.c ****                     FILL_NORMAL_MASK_PX(x, color)
 414:Middlewares/lvgl/src/draw/lv_draw_blend.c **** #endif
 415:Middlewares/lvgl/src/draw/lv_draw_blend.c ****                 }
 416:Middlewares/lvgl/src/draw/lv_draw_blend.c **** #else
 417:Middlewares/lvgl/src/draw/lv_draw_blend.c ****                 for(x = 0; x < draw_area_w && ((lv_uintptr_t)mask_tmp_x & 0x3); x++) {
 418:Middlewares/lvgl/src/draw/lv_draw_blend.c **** #if LV_COLOR_SCREEN_TRANSP
 419:Middlewares/lvgl/src/draw/lv_draw_blend.c ****                     FILL_NORMAL_MASK_PX_SCR_TRANSP(x, color)
 420:Middlewares/lvgl/src/draw/lv_draw_blend.c **** #else
 421:Middlewares/lvgl/src/draw/lv_draw_blend.c ****                     FILL_NORMAL_MASK_PX(x, color)
 422:Middlewares/lvgl/src/draw/lv_draw_blend.c **** #endif
 423:Middlewares/lvgl/src/draw/lv_draw_blend.c ****                 }
 424:Middlewares/lvgl/src/draw/lv_draw_blend.c **** 
 425:Middlewares/lvgl/src/draw/lv_draw_blend.c ****                 uint32_t * mask32 = (uint32_t *)mask_tmp_x;
 426:Middlewares/lvgl/src/draw/lv_draw_blend.c ****                 for(; x <= x_end4; x += 4) {
 427:Middlewares/lvgl/src/draw/lv_draw_blend.c ****                     if(*mask32) {
 428:Middlewares/lvgl/src/draw/lv_draw_blend.c ****                         if((*mask32) == 0xFFFFFFFF) {
 429:Middlewares/lvgl/src/draw/lv_draw_blend.c ****                             disp_buf_first[x] = color;
 430:Middlewares/lvgl/src/draw/lv_draw_blend.c ****                             disp_buf_first[x + 1] = color;
 431:Middlewares/lvgl/src/draw/lv_draw_blend.c ****                             disp_buf_first[x + 2] = color;
ARM GAS  /tmp/ccwyVXLY.s 			page 9


 432:Middlewares/lvgl/src/draw/lv_draw_blend.c ****                             disp_buf_first[x + 3] = color;
 433:Middlewares/lvgl/src/draw/lv_draw_blend.c ****                         }
 434:Middlewares/lvgl/src/draw/lv_draw_blend.c ****                         else {
 435:Middlewares/lvgl/src/draw/lv_draw_blend.c ****                             mask_tmp_x = (const lv_opa_t *)mask32;
 436:Middlewares/lvgl/src/draw/lv_draw_blend.c **** #if LV_COLOR_SCREEN_TRANSP
 437:Middlewares/lvgl/src/draw/lv_draw_blend.c ****                             FILL_NORMAL_MASK_PX_SCR_TRANSP(x, color)
 438:Middlewares/lvgl/src/draw/lv_draw_blend.c ****                             FILL_NORMAL_MASK_PX_SCR_TRANSP(x + 1, color)
 439:Middlewares/lvgl/src/draw/lv_draw_blend.c ****                             FILL_NORMAL_MASK_PX_SCR_TRANSP(x + 2, color)
 440:Middlewares/lvgl/src/draw/lv_draw_blend.c ****                             FILL_NORMAL_MASK_PX_SCR_TRANSP(x + 3, color)
 441:Middlewares/lvgl/src/draw/lv_draw_blend.c **** #else
 442:Middlewares/lvgl/src/draw/lv_draw_blend.c ****                             FILL_NORMAL_MASK_PX(x, color)
 443:Middlewares/lvgl/src/draw/lv_draw_blend.c ****                             FILL_NORMAL_MASK_PX(x + 1, color)
 444:Middlewares/lvgl/src/draw/lv_draw_blend.c ****                             FILL_NORMAL_MASK_PX(x + 2, color)
 445:Middlewares/lvgl/src/draw/lv_draw_blend.c ****                             FILL_NORMAL_MASK_PX(x + 3, color)
 446:Middlewares/lvgl/src/draw/lv_draw_blend.c **** #endif
 447:Middlewares/lvgl/src/draw/lv_draw_blend.c ****                         }
 448:Middlewares/lvgl/src/draw/lv_draw_blend.c ****                     }
 449:Middlewares/lvgl/src/draw/lv_draw_blend.c ****                     mask32++;
 450:Middlewares/lvgl/src/draw/lv_draw_blend.c ****                 }
 451:Middlewares/lvgl/src/draw/lv_draw_blend.c **** 
 452:Middlewares/lvgl/src/draw/lv_draw_blend.c ****                 mask_tmp_x = (const lv_opa_t *)mask32;
 453:Middlewares/lvgl/src/draw/lv_draw_blend.c ****                 for(; x < draw_area_w ; x++) {
 454:Middlewares/lvgl/src/draw/lv_draw_blend.c **** #if LV_COLOR_SCREEN_TRANSP
 455:Middlewares/lvgl/src/draw/lv_draw_blend.c ****                     FILL_NORMAL_MASK_PX_SCR_TRANSP(x, color)
 456:Middlewares/lvgl/src/draw/lv_draw_blend.c **** #else
 457:Middlewares/lvgl/src/draw/lv_draw_blend.c ****                     FILL_NORMAL_MASK_PX(x, color)
 458:Middlewares/lvgl/src/draw/lv_draw_blend.c **** #endif
 459:Middlewares/lvgl/src/draw/lv_draw_blend.c ****                 }
 460:Middlewares/lvgl/src/draw/lv_draw_blend.c **** #endif
 461:Middlewares/lvgl/src/draw/lv_draw_blend.c ****                 disp_buf_first += disp_w;
 462:Middlewares/lvgl/src/draw/lv_draw_blend.c ****                 mask += draw_area_w;
 463:Middlewares/lvgl/src/draw/lv_draw_blend.c ****             }
 464:Middlewares/lvgl/src/draw/lv_draw_blend.c ****         }
 465:Middlewares/lvgl/src/draw/lv_draw_blend.c ****         /*Handle opa and mask values too*/
 466:Middlewares/lvgl/src/draw/lv_draw_blend.c ****         else {
 467:Middlewares/lvgl/src/draw/lv_draw_blend.c ****             lv_opa_t opa_tmp = LV_OPA_TRANSP;
 468:Middlewares/lvgl/src/draw/lv_draw_blend.c ****             for(y = draw_area->y1; y <= draw_area->y2; y++) {
 469:Middlewares/lvgl/src/draw/lv_draw_blend.c ****                 const lv_opa_t * mask_tmp_x = mask;
 470:Middlewares/lvgl/src/draw/lv_draw_blend.c ****                 for(x = 0; x < draw_area_w; x++) {
 471:Middlewares/lvgl/src/draw/lv_draw_blend.c ****                     if(*mask_tmp_x) {
 472:Middlewares/lvgl/src/draw/lv_draw_blend.c ****                         if(*mask_tmp_x != last_mask) opa_tmp = *mask_tmp_x == LV_OPA_COVER ? opa :
 473:Middlewares/lvgl/src/draw/lv_draw_blend.c ****                                                                    (uint32_t)((uint32_t)(*mask_tmp_
 474:Middlewares/lvgl/src/draw/lv_draw_blend.c ****                         if(*mask_tmp_x != last_mask || last_dest_color.full != disp_buf_first[x].fu
 475:Middlewares/lvgl/src/draw/lv_draw_blend.c **** #if LV_COLOR_SCREEN_TRANSP
 476:Middlewares/lvgl/src/draw/lv_draw_blend.c ****                             if(disp->driver->screen_transp) {
 477:Middlewares/lvgl/src/draw/lv_draw_blend.c ****                                 lv_color_mix_with_alpha(disp_buf_first[x], disp_buf_first[x].ch.alp
 478:Middlewares/lvgl/src/draw/lv_draw_blend.c ****                                                         &last_res_color.ch.alpha);
 479:Middlewares/lvgl/src/draw/lv_draw_blend.c ****                             }
 480:Middlewares/lvgl/src/draw/lv_draw_blend.c ****                             else
 481:Middlewares/lvgl/src/draw/lv_draw_blend.c **** #endif
 482:Middlewares/lvgl/src/draw/lv_draw_blend.c ****                             {
 483:Middlewares/lvgl/src/draw/lv_draw_blend.c ****                                 if(opa_tmp == LV_OPA_COVER) last_res_color = color;
 484:Middlewares/lvgl/src/draw/lv_draw_blend.c ****                                 else last_res_color = lv_color_mix(color, disp_buf_first[x], opa_tm
 485:Middlewares/lvgl/src/draw/lv_draw_blend.c ****                             }
 486:Middlewares/lvgl/src/draw/lv_draw_blend.c ****                             last_mask = *mask_tmp_x;
 487:Middlewares/lvgl/src/draw/lv_draw_blend.c ****                             last_dest_color.full = disp_buf_first[x].full;
 488:Middlewares/lvgl/src/draw/lv_draw_blend.c ****                         }
ARM GAS  /tmp/ccwyVXLY.s 			page 10


 489:Middlewares/lvgl/src/draw/lv_draw_blend.c ****                         disp_buf_first[x] = last_res_color;
 490:Middlewares/lvgl/src/draw/lv_draw_blend.c ****                     }
 491:Middlewares/lvgl/src/draw/lv_draw_blend.c ****                     mask_tmp_x++;
 492:Middlewares/lvgl/src/draw/lv_draw_blend.c ****                 }
 493:Middlewares/lvgl/src/draw/lv_draw_blend.c ****                 disp_buf_first += disp_w;
 494:Middlewares/lvgl/src/draw/lv_draw_blend.c ****                 mask += draw_area_w;
 495:Middlewares/lvgl/src/draw/lv_draw_blend.c ****             }
 496:Middlewares/lvgl/src/draw/lv_draw_blend.c ****         }
 497:Middlewares/lvgl/src/draw/lv_draw_blend.c ****     }
 498:Middlewares/lvgl/src/draw/lv_draw_blend.c **** }
 499:Middlewares/lvgl/src/draw/lv_draw_blend.c **** 
 500:Middlewares/lvgl/src/draw/lv_draw_blend.c **** #if LV_DRAW_COMPLEX
 501:Middlewares/lvgl/src/draw/lv_draw_blend.c **** /**
 502:Middlewares/lvgl/src/draw/lv_draw_blend.c ****  * Fill an area with a color but apply blending algorithms
 503:Middlewares/lvgl/src/draw/lv_draw_blend.c ****  * @param disp_area the current display area (destination area)
 504:Middlewares/lvgl/src/draw/lv_draw_blend.c ****  * @param disp_buf destination buffer
 505:Middlewares/lvgl/src/draw/lv_draw_blend.c ****  * @param draw_area fill this area (relative to `disp_area`)
 506:Middlewares/lvgl/src/draw/lv_draw_blend.c ****  * @param color fill color
 507:Middlewares/lvgl/src/draw/lv_draw_blend.c ****  * @param opa overall opacity in 0x00..0xff range
 508:Middlewares/lvgl/src/draw/lv_draw_blend.c ****  * @param mask a mask to apply on every pixel (uint8_t array with 0x00..0xff values).
 509:Middlewares/lvgl/src/draw/lv_draw_blend.c ****  *                It fits into draw_area.
 510:Middlewares/lvgl/src/draw/lv_draw_blend.c ****  * @param mask_res LV_MASK_RES_COVER: the mask has only 0xff values (no mask),
 511:Middlewares/lvgl/src/draw/lv_draw_blend.c ****  *                 LV_MASK_RES_TRANSP: the mask has only 0x00 values (full transparent),
 512:Middlewares/lvgl/src/draw/lv_draw_blend.c ****  *                 LV_MASK_RES_CHANGED: the mask has mixed values
 513:Middlewares/lvgl/src/draw/lv_draw_blend.c ****  * @param mode blend mode from `lv_blend_mode_t`
 514:Middlewares/lvgl/src/draw/lv_draw_blend.c ****  */
 515:Middlewares/lvgl/src/draw/lv_draw_blend.c **** static void fill_blended(const lv_area_t * disp_area, lv_color_t * disp_buf,  const lv_area_t * dra
 516:Middlewares/lvgl/src/draw/lv_draw_blend.c ****                          lv_color_t color, lv_opa_t opa,
 517:Middlewares/lvgl/src/draw/lv_draw_blend.c ****                          const lv_opa_t * mask, lv_draw_mask_res_t mask_res, lv_blend_mode_t mode)
 518:Middlewares/lvgl/src/draw/lv_draw_blend.c **** {
 519:Middlewares/lvgl/src/draw/lv_draw_blend.c ****     /*Get the width of the `disp_area` it will be used to go to the next line*/
 520:Middlewares/lvgl/src/draw/lv_draw_blend.c ****     int32_t disp_w = lv_area_get_width(disp_area);
 521:Middlewares/lvgl/src/draw/lv_draw_blend.c **** 
 522:Middlewares/lvgl/src/draw/lv_draw_blend.c ****     /*Create a temp. disp_buf which always point to current line to draw*/
 523:Middlewares/lvgl/src/draw/lv_draw_blend.c ****     lv_color_t * disp_buf_tmp = disp_buf + disp_w * draw_area->y1;
 524:Middlewares/lvgl/src/draw/lv_draw_blend.c **** 
 525:Middlewares/lvgl/src/draw/lv_draw_blend.c ****     lv_color_t (*blend_fp)(lv_color_t, lv_color_t, lv_opa_t);
 526:Middlewares/lvgl/src/draw/lv_draw_blend.c ****     switch(mode) {
 527:Middlewares/lvgl/src/draw/lv_draw_blend.c ****         case LV_BLEND_MODE_ADDITIVE:
 528:Middlewares/lvgl/src/draw/lv_draw_blend.c ****             blend_fp = color_blend_true_color_additive;
 529:Middlewares/lvgl/src/draw/lv_draw_blend.c ****             break;
 530:Middlewares/lvgl/src/draw/lv_draw_blend.c ****         case LV_BLEND_MODE_SUBTRACTIVE:
 531:Middlewares/lvgl/src/draw/lv_draw_blend.c ****             blend_fp = color_blend_true_color_subtractive;
 532:Middlewares/lvgl/src/draw/lv_draw_blend.c ****             break;
 533:Middlewares/lvgl/src/draw/lv_draw_blend.c ****         default:
 534:Middlewares/lvgl/src/draw/lv_draw_blend.c ****             LV_LOG_WARN("fill_blended: unsupported blend mode");
 535:Middlewares/lvgl/src/draw/lv_draw_blend.c ****             return;
 536:Middlewares/lvgl/src/draw/lv_draw_blend.c ****     }
 537:Middlewares/lvgl/src/draw/lv_draw_blend.c **** 
 538:Middlewares/lvgl/src/draw/lv_draw_blend.c ****     int32_t x;
 539:Middlewares/lvgl/src/draw/lv_draw_blend.c ****     int32_t y;
 540:Middlewares/lvgl/src/draw/lv_draw_blend.c **** 
 541:Middlewares/lvgl/src/draw/lv_draw_blend.c ****     /*Simple fill (maybe with opacity), no masking*/
 542:Middlewares/lvgl/src/draw/lv_draw_blend.c ****     if(mask_res == LV_DRAW_MASK_RES_FULL_COVER) {
 543:Middlewares/lvgl/src/draw/lv_draw_blend.c ****         lv_color_t last_dest_color = lv_color_black();
 544:Middlewares/lvgl/src/draw/lv_draw_blend.c ****         lv_color_t last_res_color = lv_color_mix(color, last_dest_color, opa);
 545:Middlewares/lvgl/src/draw/lv_draw_blend.c ****         for(y = draw_area->y1; y <= draw_area->y2; y++) {
ARM GAS  /tmp/ccwyVXLY.s 			page 11


 546:Middlewares/lvgl/src/draw/lv_draw_blend.c ****             for(x = draw_area->x1; x <= draw_area->x2; x++) {
 547:Middlewares/lvgl/src/draw/lv_draw_blend.c ****                 if(last_dest_color.full != disp_buf_tmp[x].full) {
 548:Middlewares/lvgl/src/draw/lv_draw_blend.c ****                     last_dest_color = disp_buf_tmp[x];
 549:Middlewares/lvgl/src/draw/lv_draw_blend.c ****                     last_res_color = blend_fp(color, disp_buf_tmp[x], opa);
 550:Middlewares/lvgl/src/draw/lv_draw_blend.c ****                 }
 551:Middlewares/lvgl/src/draw/lv_draw_blend.c ****                 disp_buf_tmp[x] = last_res_color;
 552:Middlewares/lvgl/src/draw/lv_draw_blend.c ****             }
 553:Middlewares/lvgl/src/draw/lv_draw_blend.c ****             disp_buf_tmp += disp_w;
 554:Middlewares/lvgl/src/draw/lv_draw_blend.c ****         }
 555:Middlewares/lvgl/src/draw/lv_draw_blend.c ****     }
 556:Middlewares/lvgl/src/draw/lv_draw_blend.c ****     /*Masked*/
 557:Middlewares/lvgl/src/draw/lv_draw_blend.c ****     else {
 558:Middlewares/lvgl/src/draw/lv_draw_blend.c ****         /*Get the width of the `draw_area` it will be used to go to the next line of the mask*/
 559:Middlewares/lvgl/src/draw/lv_draw_blend.c ****         int32_t draw_area_w = lv_area_get_width(draw_area);
 560:Middlewares/lvgl/src/draw/lv_draw_blend.c **** 
 561:Middlewares/lvgl/src/draw/lv_draw_blend.c ****         /*The mask is relative to the clipped area.
 562:Middlewares/lvgl/src/draw/lv_draw_blend.c ****          *In the cycles below mask will be indexed from `draw_area.x1`
 563:Middlewares/lvgl/src/draw/lv_draw_blend.c ****          *but it corresponds to zero index. So prepare `mask_tmp` accordingly.*/
 564:Middlewares/lvgl/src/draw/lv_draw_blend.c ****         const lv_opa_t * mask_tmp = mask - draw_area->x1;
 565:Middlewares/lvgl/src/draw/lv_draw_blend.c **** 
 566:Middlewares/lvgl/src/draw/lv_draw_blend.c ****         /*Buffer the result color to avoid recalculating the same color*/
 567:Middlewares/lvgl/src/draw/lv_draw_blend.c ****         lv_color_t last_dest_color;
 568:Middlewares/lvgl/src/draw/lv_draw_blend.c ****         lv_color_t last_res_color;
 569:Middlewares/lvgl/src/draw/lv_draw_blend.c ****         lv_opa_t last_mask = LV_OPA_TRANSP;
 570:Middlewares/lvgl/src/draw/lv_draw_blend.c ****         last_dest_color.full = disp_buf_tmp[0].full;
 571:Middlewares/lvgl/src/draw/lv_draw_blend.c ****         last_res_color.full = disp_buf_tmp[0].full;
 572:Middlewares/lvgl/src/draw/lv_draw_blend.c **** 
 573:Middlewares/lvgl/src/draw/lv_draw_blend.c ****         for(y = draw_area->y1; y <= draw_area->y2; y++) {
 574:Middlewares/lvgl/src/draw/lv_draw_blend.c ****             for(x = draw_area->x1; x <= draw_area->x2; x++) {
 575:Middlewares/lvgl/src/draw/lv_draw_blend.c ****                 if(mask_tmp[x] == 0) continue;
 576:Middlewares/lvgl/src/draw/lv_draw_blend.c ****                 if(mask_tmp[x] != last_mask || last_dest_color.full != disp_buf_tmp[x].full) {
 577:Middlewares/lvgl/src/draw/lv_draw_blend.c ****                     lv_opa_t opa_tmp = mask_tmp[x] >= LV_OPA_MAX ? opa : (uint32_t)((uint32_t)mask_
 578:Middlewares/lvgl/src/draw/lv_draw_blend.c **** 
 579:Middlewares/lvgl/src/draw/lv_draw_blend.c ****                     last_res_color = blend_fp(color, disp_buf_tmp[x], opa_tmp);
 580:Middlewares/lvgl/src/draw/lv_draw_blend.c ****                     last_mask = mask_tmp[x];
 581:Middlewares/lvgl/src/draw/lv_draw_blend.c ****                     last_dest_color.full = disp_buf_tmp[x].full;
 582:Middlewares/lvgl/src/draw/lv_draw_blend.c ****                 }
 583:Middlewares/lvgl/src/draw/lv_draw_blend.c ****                 disp_buf_tmp[x] = last_res_color;
 584:Middlewares/lvgl/src/draw/lv_draw_blend.c ****             }
 585:Middlewares/lvgl/src/draw/lv_draw_blend.c ****             disp_buf_tmp += disp_w;
 586:Middlewares/lvgl/src/draw/lv_draw_blend.c ****             mask_tmp += draw_area_w;
 587:Middlewares/lvgl/src/draw/lv_draw_blend.c ****         }
 588:Middlewares/lvgl/src/draw/lv_draw_blend.c ****     }
 589:Middlewares/lvgl/src/draw/lv_draw_blend.c **** }
 590:Middlewares/lvgl/src/draw/lv_draw_blend.c **** #endif
 591:Middlewares/lvgl/src/draw/lv_draw_blend.c **** 
 592:Middlewares/lvgl/src/draw/lv_draw_blend.c **** static void map_set_px(const lv_area_t * disp_area, lv_color_t * disp_buf,  const lv_area_t * draw_
 593:Middlewares/lvgl/src/draw/lv_draw_blend.c ****                        const lv_area_t * map_area, const lv_color_t * map_buf, lv_opa_t opa,
 594:Middlewares/lvgl/src/draw/lv_draw_blend.c ****                        const lv_opa_t * mask, lv_draw_mask_res_t mask_res)
 595:Middlewares/lvgl/src/draw/lv_draw_blend.c **** 
 596:Middlewares/lvgl/src/draw/lv_draw_blend.c **** {
 597:Middlewares/lvgl/src/draw/lv_draw_blend.c ****     lv_disp_t * disp = _lv_refr_get_disp_refreshing();
 598:Middlewares/lvgl/src/draw/lv_draw_blend.c **** 
 599:Middlewares/lvgl/src/draw/lv_draw_blend.c ****     /*Get the width of the `disp_area` it will be used to go to the next line*/
 600:Middlewares/lvgl/src/draw/lv_draw_blend.c ****     int32_t disp_w = lv_area_get_width(disp_area);
 601:Middlewares/lvgl/src/draw/lv_draw_blend.c **** 
 602:Middlewares/lvgl/src/draw/lv_draw_blend.c ****     /*Get the width of the `draw_area` it will be used to go to the next line of the mask*/
ARM GAS  /tmp/ccwyVXLY.s 			page 12


 603:Middlewares/lvgl/src/draw/lv_draw_blend.c ****     int32_t draw_area_w = lv_area_get_width(draw_area);
 604:Middlewares/lvgl/src/draw/lv_draw_blend.c **** 
 605:Middlewares/lvgl/src/draw/lv_draw_blend.c ****     /*Get the width of the `mask_area` it will be used to go to the next line*/
 606:Middlewares/lvgl/src/draw/lv_draw_blend.c ****     int32_t map_w = lv_area_get_width(map_area);
 607:Middlewares/lvgl/src/draw/lv_draw_blend.c **** 
 608:Middlewares/lvgl/src/draw/lv_draw_blend.c ****     /*Create a temp. map_buf which always point to current line to draw*/
 609:Middlewares/lvgl/src/draw/lv_draw_blend.c ****     const lv_color_t * map_buf_tmp = map_buf + map_w * (draw_area->y1 - (map_area->y1 - disp_area->
 610:Middlewares/lvgl/src/draw/lv_draw_blend.c **** 
 611:Middlewares/lvgl/src/draw/lv_draw_blend.c ****     map_buf_tmp += (draw_area->x1 - (map_area->x1 - disp_area->x1));
 612:Middlewares/lvgl/src/draw/lv_draw_blend.c ****     map_buf_tmp -= draw_area->x1;
 613:Middlewares/lvgl/src/draw/lv_draw_blend.c ****     int32_t x;
 614:Middlewares/lvgl/src/draw/lv_draw_blend.c ****     int32_t y;
 615:Middlewares/lvgl/src/draw/lv_draw_blend.c **** 
 616:Middlewares/lvgl/src/draw/lv_draw_blend.c ****     if(mask_res == LV_DRAW_MASK_RES_FULL_COVER) {
 617:Middlewares/lvgl/src/draw/lv_draw_blend.c ****         for(y = draw_area->y1; y <= draw_area->y2; y++) {
 618:Middlewares/lvgl/src/draw/lv_draw_blend.c ****             for(x = draw_area->x1; x <= draw_area->x2; x++) {
 619:Middlewares/lvgl/src/draw/lv_draw_blend.c ****                 disp->driver->set_px_cb(disp->driver, (void *)disp_buf, disp_w, x, y, map_buf_tmp[x
 620:Middlewares/lvgl/src/draw/lv_draw_blend.c ****             }
 621:Middlewares/lvgl/src/draw/lv_draw_blend.c ****             map_buf_tmp += map_w;
 622:Middlewares/lvgl/src/draw/lv_draw_blend.c ****         }
 623:Middlewares/lvgl/src/draw/lv_draw_blend.c ****     }
 624:Middlewares/lvgl/src/draw/lv_draw_blend.c ****     else {
 625:Middlewares/lvgl/src/draw/lv_draw_blend.c ****         /*The mask is relative to the clipped area.
 626:Middlewares/lvgl/src/draw/lv_draw_blend.c ****          *In the cycles below mask will be indexed from `draw_area.x1`
 627:Middlewares/lvgl/src/draw/lv_draw_blend.c ****          *but it corresponds to zero index. So prepare `mask_tmp` accordingly.*/
 628:Middlewares/lvgl/src/draw/lv_draw_blend.c ****         const lv_opa_t * mask_tmp = mask - draw_area->x1;
 629:Middlewares/lvgl/src/draw/lv_draw_blend.c **** 
 630:Middlewares/lvgl/src/draw/lv_draw_blend.c ****         for(y = draw_area->y1; y <= draw_area->y2; y++) {
 631:Middlewares/lvgl/src/draw/lv_draw_blend.c ****             for(x = draw_area->x1; x <= draw_area->x2; x++) {
 632:Middlewares/lvgl/src/draw/lv_draw_blend.c ****                 if(mask_tmp[x]) {
 633:Middlewares/lvgl/src/draw/lv_draw_blend.c ****                     disp->driver->set_px_cb(disp->driver, (void *)disp_buf, disp_w, x, y, map_buf_t
 634:Middlewares/lvgl/src/draw/lv_draw_blend.c ****                                            (uint32_t)((uint32_t)opa * mask_tmp[x]) >> 8);
 635:Middlewares/lvgl/src/draw/lv_draw_blend.c ****                 }
 636:Middlewares/lvgl/src/draw/lv_draw_blend.c ****             }
 637:Middlewares/lvgl/src/draw/lv_draw_blend.c ****             mask_tmp += draw_area_w;
 638:Middlewares/lvgl/src/draw/lv_draw_blend.c ****             map_buf_tmp += map_w;
 639:Middlewares/lvgl/src/draw/lv_draw_blend.c ****         }
 640:Middlewares/lvgl/src/draw/lv_draw_blend.c ****     }
 641:Middlewares/lvgl/src/draw/lv_draw_blend.c **** }
 642:Middlewares/lvgl/src/draw/lv_draw_blend.c **** 
 643:Middlewares/lvgl/src/draw/lv_draw_blend.c **** /**
 644:Middlewares/lvgl/src/draw/lv_draw_blend.c ****  * Copy an image to an area
 645:Middlewares/lvgl/src/draw/lv_draw_blend.c ****  * @param disp_area the current display area (destination area)
 646:Middlewares/lvgl/src/draw/lv_draw_blend.c ****  * @param disp_buf destination buffer
 647:Middlewares/lvgl/src/draw/lv_draw_blend.c ****  * @param map_area coordinates of the map (image) to copy. (absolute coordinates)
 648:Middlewares/lvgl/src/draw/lv_draw_blend.c ****  * @param map_buf the pixel of the image
 649:Middlewares/lvgl/src/draw/lv_draw_blend.c ****  * @param opa overall opacity in 0x00..0xff range
 650:Middlewares/lvgl/src/draw/lv_draw_blend.c ****  * @param mask a mask to apply on every pixel (uint8_t array with 0x00..0xff values).
 651:Middlewares/lvgl/src/draw/lv_draw_blend.c ****  *                It fits into draw_area.
 652:Middlewares/lvgl/src/draw/lv_draw_blend.c ****  * @param mask_res LV_MASK_RES_COVER: the mask has only 0xff values (no mask),
 653:Middlewares/lvgl/src/draw/lv_draw_blend.c ****  *                 LV_MASK_RES_TRANSP: the mask has only 0x00 values (full transparent),
 654:Middlewares/lvgl/src/draw/lv_draw_blend.c ****  *                 LV_MASK_RES_CHANGED: the mask has mixed values
 655:Middlewares/lvgl/src/draw/lv_draw_blend.c ****  */
 656:Middlewares/lvgl/src/draw/lv_draw_blend.c **** LV_ATTRIBUTE_FAST_MEM static void map_normal(const lv_area_t * disp_area, lv_color_t * disp_buf,
 657:Middlewares/lvgl/src/draw/lv_draw_blend.c ****                                              const lv_area_t * draw_area,
 658:Middlewares/lvgl/src/draw/lv_draw_blend.c ****                                              const lv_area_t * map_area, const lv_color_t * map_buf
 659:Middlewares/lvgl/src/draw/lv_draw_blend.c ****                                              const lv_opa_t * mask, lv_draw_mask_res_t mask_res)
ARM GAS  /tmp/ccwyVXLY.s 			page 13


 660:Middlewares/lvgl/src/draw/lv_draw_blend.c **** {
 661:Middlewares/lvgl/src/draw/lv_draw_blend.c **** 
 662:Middlewares/lvgl/src/draw/lv_draw_blend.c ****     /*Get the width of the `disp_area` it will be used to go to the next line*/
 663:Middlewares/lvgl/src/draw/lv_draw_blend.c ****     int32_t disp_w = lv_area_get_width(disp_area);
 664:Middlewares/lvgl/src/draw/lv_draw_blend.c **** 
 665:Middlewares/lvgl/src/draw/lv_draw_blend.c ****     int32_t draw_area_w = lv_area_get_width(draw_area);
 666:Middlewares/lvgl/src/draw/lv_draw_blend.c ****     int32_t draw_area_h = lv_area_get_height(draw_area);
 667:Middlewares/lvgl/src/draw/lv_draw_blend.c **** 
 668:Middlewares/lvgl/src/draw/lv_draw_blend.c ****     /*Get the width of the `mask_area` it will be used to go to the next line*/
 669:Middlewares/lvgl/src/draw/lv_draw_blend.c ****     int32_t map_w = lv_area_get_width(map_area);
 670:Middlewares/lvgl/src/draw/lv_draw_blend.c **** 
 671:Middlewares/lvgl/src/draw/lv_draw_blend.c ****     /*Create a temp. disp_buf which always point to first pixel to draw*/
 672:Middlewares/lvgl/src/draw/lv_draw_blend.c ****     lv_color_t * disp_buf_first = disp_buf + disp_w * draw_area->y1 + draw_area->x1;
 673:Middlewares/lvgl/src/draw/lv_draw_blend.c **** 
 674:Middlewares/lvgl/src/draw/lv_draw_blend.c ****     /*Create a temp. map_buf which always point to first pixel to draw from the map*/
 675:Middlewares/lvgl/src/draw/lv_draw_blend.c ****     const lv_color_t * map_buf_first = map_buf + map_w * (draw_area->y1 - (map_area->y1 - disp_area
 676:Middlewares/lvgl/src/draw/lv_draw_blend.c ****     map_buf_first += (draw_area->x1 - (map_area->x1 - disp_area->x1));
 677:Middlewares/lvgl/src/draw/lv_draw_blend.c **** 
 678:Middlewares/lvgl/src/draw/lv_draw_blend.c **** #if LV_COLOR_SCREEN_TRANSP
 679:Middlewares/lvgl/src/draw/lv_draw_blend.c ****     lv_disp_t * disp = _lv_refr_get_disp_refreshing();
 680:Middlewares/lvgl/src/draw/lv_draw_blend.c **** #endif
 681:Middlewares/lvgl/src/draw/lv_draw_blend.c **** 
 682:Middlewares/lvgl/src/draw/lv_draw_blend.c ****     int32_t x;
 683:Middlewares/lvgl/src/draw/lv_draw_blend.c ****     int32_t y;
 684:Middlewares/lvgl/src/draw/lv_draw_blend.c **** 
 685:Middlewares/lvgl/src/draw/lv_draw_blend.c ****     /*Simple fill (maybe with opacity), no masking*/
 686:Middlewares/lvgl/src/draw/lv_draw_blend.c ****     if(mask_res == LV_DRAW_MASK_RES_FULL_COVER) {
 687:Middlewares/lvgl/src/draw/lv_draw_blend.c ****         if(opa > LV_OPA_MAX) {
 688:Middlewares/lvgl/src/draw/lv_draw_blend.c **** #if LV_USE_GPU_NXP_PXP
 689:Middlewares/lvgl/src/draw/lv_draw_blend.c ****             if(lv_area_get_size(draw_area) >= LV_GPU_NXP_PXP_BLIT_SIZE_LIMIT) {
 690:Middlewares/lvgl/src/draw/lv_draw_blend.c ****                 lv_gpu_nxp_pxp_blit(disp_buf_first, disp_w, map_buf_first, map_w, draw_area_w, draw
 691:Middlewares/lvgl/src/draw/lv_draw_blend.c ****                 return;
 692:Middlewares/lvgl/src/draw/lv_draw_blend.c ****             }
 693:Middlewares/lvgl/src/draw/lv_draw_blend.c **** #elif (LV_USE_GPU_NXP_VG_LITE)
 694:Middlewares/lvgl/src/draw/lv_draw_blend.c ****             if(lv_area_get_size(draw_area) >= LV_GPU_NXP_VG_LITE_BLIT_SIZE_LIMIT) {
 695:Middlewares/lvgl/src/draw/lv_draw_blend.c **** 
 696:Middlewares/lvgl/src/draw/lv_draw_blend.c ****                 lv_gpu_nxp_vglite_blit_info_t blit;
 697:Middlewares/lvgl/src/draw/lv_draw_blend.c **** 
 698:Middlewares/lvgl/src/draw/lv_draw_blend.c ****                 blit.src = map_buf;
 699:Middlewares/lvgl/src/draw/lv_draw_blend.c ****                 blit.src_width = draw_area_w;
 700:Middlewares/lvgl/src/draw/lv_draw_blend.c ****                 blit.src_height = draw_area_h;
 701:Middlewares/lvgl/src/draw/lv_draw_blend.c ****                 blit.src_stride = lv_area_get_width(map_area) * sizeof(lv_color_t);
 702:Middlewares/lvgl/src/draw/lv_draw_blend.c ****                 blit.src_area.x1 = (draw_area->x1 - (map_area->x1 - disp_area->x1));
 703:Middlewares/lvgl/src/draw/lv_draw_blend.c ****                 blit.src_area.y1 = (draw_area->y1 - (map_area->y1 - disp_area->y1));
 704:Middlewares/lvgl/src/draw/lv_draw_blend.c ****                 blit.src_area.x2 = blit.src_area.x1 + draw_area_w - 1;
 705:Middlewares/lvgl/src/draw/lv_draw_blend.c ****                 blit.src_area.y2 = blit.src_area.y1 + draw_area_h - 1;
 706:Middlewares/lvgl/src/draw/lv_draw_blend.c **** 
 707:Middlewares/lvgl/src/draw/lv_draw_blend.c ****                 blit.dst = disp_buf;
 708:Middlewares/lvgl/src/draw/lv_draw_blend.c ****                 blit.dst_width = lv_area_get_width(disp_area);
 709:Middlewares/lvgl/src/draw/lv_draw_blend.c ****                 blit.dst_height = lv_area_get_height(disp_area);
 710:Middlewares/lvgl/src/draw/lv_draw_blend.c ****                 blit.dst_stride = lv_area_get_width(disp_area) * sizeof(lv_color_t);
 711:Middlewares/lvgl/src/draw/lv_draw_blend.c ****                 blit.dst_area.x1 = draw_area->x1;
 712:Middlewares/lvgl/src/draw/lv_draw_blend.c ****                 blit.dst_area.y1 = draw_area->y1;
 713:Middlewares/lvgl/src/draw/lv_draw_blend.c ****                 blit.dst_area.x2 = blit.dst_area.x1 + draw_area_w - 1;
 714:Middlewares/lvgl/src/draw/lv_draw_blend.c ****                 blit.dst_area.y2 = blit.dst_area.y1 + draw_area_h - 1;
 715:Middlewares/lvgl/src/draw/lv_draw_blend.c **** 
 716:Middlewares/lvgl/src/draw/lv_draw_blend.c ****                 blit.opa = opa;
ARM GAS  /tmp/ccwyVXLY.s 			page 14


 717:Middlewares/lvgl/src/draw/lv_draw_blend.c **** 
 718:Middlewares/lvgl/src/draw/lv_draw_blend.c ****                 if(lv_gpu_nxp_vglite_blit(&blit) == LV_RES_OK) {
 719:Middlewares/lvgl/src/draw/lv_draw_blend.c ****                     return;
 720:Middlewares/lvgl/src/draw/lv_draw_blend.c ****                 }
 721:Middlewares/lvgl/src/draw/lv_draw_blend.c ****                 /*Fall down to SW render in case of error*/
 722:Middlewares/lvgl/src/draw/lv_draw_blend.c ****             }
 723:Middlewares/lvgl/src/draw/lv_draw_blend.c **** #elif LV_USE_GPU_STM32_DMA2D
 724:Middlewares/lvgl/src/draw/lv_draw_blend.c ****             if(lv_area_get_size(draw_area) >= 240) {
 725:Middlewares/lvgl/src/draw/lv_draw_blend.c ****                 lv_gpu_stm32_dma2d_copy(disp_buf_first, disp_w, map_buf_first, map_w, draw_area_w, 
 726:Middlewares/lvgl/src/draw/lv_draw_blend.c ****                 return;
 727:Middlewares/lvgl/src/draw/lv_draw_blend.c ****             }
 728:Middlewares/lvgl/src/draw/lv_draw_blend.c **** #endif
 729:Middlewares/lvgl/src/draw/lv_draw_blend.c **** 
 730:Middlewares/lvgl/src/draw/lv_draw_blend.c ****             /*Software rendering*/
 731:Middlewares/lvgl/src/draw/lv_draw_blend.c ****             for(y = 0; y < draw_area_h; y++) {
 732:Middlewares/lvgl/src/draw/lv_draw_blend.c ****                 lv_memcpy(disp_buf_first, map_buf_first, draw_area_w * sizeof(lv_color_t));
 733:Middlewares/lvgl/src/draw/lv_draw_blend.c ****                 disp_buf_first += disp_w;
 734:Middlewares/lvgl/src/draw/lv_draw_blend.c ****                 map_buf_first += map_w;
 735:Middlewares/lvgl/src/draw/lv_draw_blend.c ****             }
 736:Middlewares/lvgl/src/draw/lv_draw_blend.c ****         }
 737:Middlewares/lvgl/src/draw/lv_draw_blend.c ****         else {
 738:Middlewares/lvgl/src/draw/lv_draw_blend.c **** #if LV_USE_GPU_NXP_PXP
 739:Middlewares/lvgl/src/draw/lv_draw_blend.c ****             if(lv_area_get_size(draw_area) >= LV_GPU_NXP_PXP_BLIT_OPA_SIZE_LIMIT) {
 740:Middlewares/lvgl/src/draw/lv_draw_blend.c ****                 lv_gpu_nxp_pxp_blit(disp_buf_first, disp_w, map_buf_first, map_w, draw_area_w, draw
 741:Middlewares/lvgl/src/draw/lv_draw_blend.c ****                 return;
 742:Middlewares/lvgl/src/draw/lv_draw_blend.c ****             }
 743:Middlewares/lvgl/src/draw/lv_draw_blend.c **** #elif (LV_USE_GPU_NXP_VG_LITE)
 744:Middlewares/lvgl/src/draw/lv_draw_blend.c ****             if(lv_area_get_size(draw_area) >= LV_GPU_NXP_VG_LITE_BLIT_OPA_SIZE_LIMIT) {
 745:Middlewares/lvgl/src/draw/lv_draw_blend.c **** 
 746:Middlewares/lvgl/src/draw/lv_draw_blend.c ****                 lv_gpu_nxp_vglite_blit_info_t blit;
 747:Middlewares/lvgl/src/draw/lv_draw_blend.c **** 
 748:Middlewares/lvgl/src/draw/lv_draw_blend.c ****                 blit.src = map_buf;
 749:Middlewares/lvgl/src/draw/lv_draw_blend.c ****                 blit.src_width = lv_area_get_width(map_area);
 750:Middlewares/lvgl/src/draw/lv_draw_blend.c ****                 blit.src_height = lv_area_get_height(map_area);
 751:Middlewares/lvgl/src/draw/lv_draw_blend.c ****                 blit.src_stride = lv_area_get_width(map_area) * sizeof(lv_color_t);
 752:Middlewares/lvgl/src/draw/lv_draw_blend.c ****                 blit.src_area.x1 = (draw_area->x1 - (map_area->x1 - disp_area->x1));
 753:Middlewares/lvgl/src/draw/lv_draw_blend.c ****                 blit.src_area.y1 = (draw_area->y1 - (map_area->y1 - disp_area->y1));
 754:Middlewares/lvgl/src/draw/lv_draw_blend.c ****                 blit.src_area.x2 = blit.src_area.x1 + draw_area_w - 1;
 755:Middlewares/lvgl/src/draw/lv_draw_blend.c ****                 blit.src_area.y2 = blit.src_area.y1 + draw_area_h - 1;
 756:Middlewares/lvgl/src/draw/lv_draw_blend.c **** 
 757:Middlewares/lvgl/src/draw/lv_draw_blend.c ****                 blit.dst = disp_buf;
 758:Middlewares/lvgl/src/draw/lv_draw_blend.c ****                 blit.dst_width = lv_area_get_width(disp_area);
 759:Middlewares/lvgl/src/draw/lv_draw_blend.c ****                 blit.dst_height = lv_area_get_height(disp_area);
 760:Middlewares/lvgl/src/draw/lv_draw_blend.c ****                 blit.dst_stride = lv_area_get_width(disp_area) * sizeof(lv_color_t);
 761:Middlewares/lvgl/src/draw/lv_draw_blend.c ****                 blit.dst_area.x1 = draw_area->x1;
 762:Middlewares/lvgl/src/draw/lv_draw_blend.c ****                 blit.dst_area.y1 = draw_area->y1;
 763:Middlewares/lvgl/src/draw/lv_draw_blend.c ****                 blit.dst_area.x2 = blit.dst_area.x1 + draw_area_w - 1;
 764:Middlewares/lvgl/src/draw/lv_draw_blend.c ****                 blit.dst_area.y2 = blit.dst_area.y1 + draw_area_h - 1;
 765:Middlewares/lvgl/src/draw/lv_draw_blend.c **** 
 766:Middlewares/lvgl/src/draw/lv_draw_blend.c ****                 blit.opa = opa;
 767:Middlewares/lvgl/src/draw/lv_draw_blend.c **** 
 768:Middlewares/lvgl/src/draw/lv_draw_blend.c ****                 if(lv_gpu_nxp_vglite_blit(&blit) == LV_RES_OK) {
 769:Middlewares/lvgl/src/draw/lv_draw_blend.c ****                     return;
 770:Middlewares/lvgl/src/draw/lv_draw_blend.c ****                 }
 771:Middlewares/lvgl/src/draw/lv_draw_blend.c ****                 /*Fall down to SW render in case of error*/
 772:Middlewares/lvgl/src/draw/lv_draw_blend.c ****             }
 773:Middlewares/lvgl/src/draw/lv_draw_blend.c **** #elif LV_USE_GPU_STM32_DMA2D
ARM GAS  /tmp/ccwyVXLY.s 			page 15


 774:Middlewares/lvgl/src/draw/lv_draw_blend.c ****             if(lv_area_get_size(draw_area) >= 240) {
 775:Middlewares/lvgl/src/draw/lv_draw_blend.c ****                 lv_gpu_stm32_dma2d_blend(disp_buf_first, disp_w, map_buf_first, opa, map_w, draw_ar
 776:Middlewares/lvgl/src/draw/lv_draw_blend.c ****                 return;
 777:Middlewares/lvgl/src/draw/lv_draw_blend.c ****             }
 778:Middlewares/lvgl/src/draw/lv_draw_blend.c **** #endif
 779:Middlewares/lvgl/src/draw/lv_draw_blend.c **** 
 780:Middlewares/lvgl/src/draw/lv_draw_blend.c ****             /*Software rendering*/
 781:Middlewares/lvgl/src/draw/lv_draw_blend.c **** 
 782:Middlewares/lvgl/src/draw/lv_draw_blend.c ****             for(y = 0; y < draw_area_h; y++) {
 783:Middlewares/lvgl/src/draw/lv_draw_blend.c ****                 for(x = 0; x < draw_area_w; x++) {
 784:Middlewares/lvgl/src/draw/lv_draw_blend.c **** #if LV_COLOR_SCREEN_TRANSP
 785:Middlewares/lvgl/src/draw/lv_draw_blend.c ****                     if(disp->driver->screen_transp) {
 786:Middlewares/lvgl/src/draw/lv_draw_blend.c ****                         lv_color_mix_with_alpha(disp_buf_first[x], disp_buf_first[x].ch.alpha, map_
 787:Middlewares/lvgl/src/draw/lv_draw_blend.c ****                                                 &disp_buf_first[x].ch.alpha);
 788:Middlewares/lvgl/src/draw/lv_draw_blend.c ****                     }
 789:Middlewares/lvgl/src/draw/lv_draw_blend.c ****                     else
 790:Middlewares/lvgl/src/draw/lv_draw_blend.c **** #endif
 791:Middlewares/lvgl/src/draw/lv_draw_blend.c ****                     {
 792:Middlewares/lvgl/src/draw/lv_draw_blend.c ****                         disp_buf_first[x] = lv_color_mix(map_buf_first[x], disp_buf_first[x], opa);
 793:Middlewares/lvgl/src/draw/lv_draw_blend.c ****                     }
 794:Middlewares/lvgl/src/draw/lv_draw_blend.c ****                 }
 795:Middlewares/lvgl/src/draw/lv_draw_blend.c ****                 disp_buf_first += disp_w;
 796:Middlewares/lvgl/src/draw/lv_draw_blend.c ****                 map_buf_first += map_w;
 797:Middlewares/lvgl/src/draw/lv_draw_blend.c ****             }
 798:Middlewares/lvgl/src/draw/lv_draw_blend.c ****         }
 799:Middlewares/lvgl/src/draw/lv_draw_blend.c ****     }
 800:Middlewares/lvgl/src/draw/lv_draw_blend.c ****     /*Masked*/
 801:Middlewares/lvgl/src/draw/lv_draw_blend.c ****     else {
 802:Middlewares/lvgl/src/draw/lv_draw_blend.c ****         /*Only the mask matters*/
 803:Middlewares/lvgl/src/draw/lv_draw_blend.c ****         if(opa > LV_OPA_MAX) {
 804:Middlewares/lvgl/src/draw/lv_draw_blend.c ****             /*Go to the first pixel of the row*/
 805:Middlewares/lvgl/src/draw/lv_draw_blend.c **** 
 806:Middlewares/lvgl/src/draw/lv_draw_blend.c ****             int32_t x_end4 = draw_area_w - 4;
 807:Middlewares/lvgl/src/draw/lv_draw_blend.c **** 
 808:Middlewares/lvgl/src/draw/lv_draw_blend.c ****             for(y = 0; y < draw_area_h; y++) {
 809:Middlewares/lvgl/src/draw/lv_draw_blend.c ****                 const lv_opa_t * mask_tmp_x = mask;
 810:Middlewares/lvgl/src/draw/lv_draw_blend.c **** #if 0
 811:Middlewares/lvgl/src/draw/lv_draw_blend.c ****                 for(x = 0; x < draw_area_w; x++) {
 812:Middlewares/lvgl/src/draw/lv_draw_blend.c ****                     MAP_NORMAL_MASK_PX(x);
 813:Middlewares/lvgl/src/draw/lv_draw_blend.c ****                 }
 814:Middlewares/lvgl/src/draw/lv_draw_blend.c **** #else
 815:Middlewares/lvgl/src/draw/lv_draw_blend.c ****                 for(x = 0; x < draw_area_w && ((lv_uintptr_t)mask_tmp_x & 0x3); x++) {
 816:Middlewares/lvgl/src/draw/lv_draw_blend.c **** #if LV_COLOR_SCREEN_TRANSP
 817:Middlewares/lvgl/src/draw/lv_draw_blend.c ****                     MAP_NORMAL_MASK_PX_SCR_TRANSP(x)
 818:Middlewares/lvgl/src/draw/lv_draw_blend.c **** #else
 819:Middlewares/lvgl/src/draw/lv_draw_blend.c ****                     MAP_NORMAL_MASK_PX(x)
 820:Middlewares/lvgl/src/draw/lv_draw_blend.c **** #endif
 821:Middlewares/lvgl/src/draw/lv_draw_blend.c ****                 }
 822:Middlewares/lvgl/src/draw/lv_draw_blend.c **** 
 823:Middlewares/lvgl/src/draw/lv_draw_blend.c ****                 uint32_t * mask32 = (uint32_t *)mask_tmp_x;
 824:Middlewares/lvgl/src/draw/lv_draw_blend.c ****                 for(; x < x_end4; x += 4) {
 825:Middlewares/lvgl/src/draw/lv_draw_blend.c ****                     if(*mask32) {
 826:Middlewares/lvgl/src/draw/lv_draw_blend.c ****                         if((*mask32) == 0xFFFFFFFF) {
 827:Middlewares/lvgl/src/draw/lv_draw_blend.c ****                             disp_buf_first[x] = map_buf_first[x];
 828:Middlewares/lvgl/src/draw/lv_draw_blend.c ****                             disp_buf_first[x + 1] = map_buf_first[x + 1];
 829:Middlewares/lvgl/src/draw/lv_draw_blend.c ****                             disp_buf_first[x + 2] = map_buf_first[x + 2];
 830:Middlewares/lvgl/src/draw/lv_draw_blend.c ****                             disp_buf_first[x + 3] = map_buf_first[x + 3];
ARM GAS  /tmp/ccwyVXLY.s 			page 16


 831:Middlewares/lvgl/src/draw/lv_draw_blend.c ****                         }
 832:Middlewares/lvgl/src/draw/lv_draw_blend.c ****                         else {
 833:Middlewares/lvgl/src/draw/lv_draw_blend.c ****                             mask_tmp_x = (const lv_opa_t *)mask32;
 834:Middlewares/lvgl/src/draw/lv_draw_blend.c **** #if LV_COLOR_SCREEN_TRANSP
 835:Middlewares/lvgl/src/draw/lv_draw_blend.c ****                             MAP_NORMAL_MASK_PX_SCR_TRANSP(x)
 836:Middlewares/lvgl/src/draw/lv_draw_blend.c ****                             MAP_NORMAL_MASK_PX_SCR_TRANSP(x + 1)
 837:Middlewares/lvgl/src/draw/lv_draw_blend.c ****                             MAP_NORMAL_MASK_PX_SCR_TRANSP(x + 2)
 838:Middlewares/lvgl/src/draw/lv_draw_blend.c ****                             MAP_NORMAL_MASK_PX_SCR_TRANSP(x + 3)
 839:Middlewares/lvgl/src/draw/lv_draw_blend.c **** #else
 840:Middlewares/lvgl/src/draw/lv_draw_blend.c ****                             MAP_NORMAL_MASK_PX(x)
 841:Middlewares/lvgl/src/draw/lv_draw_blend.c ****                             MAP_NORMAL_MASK_PX(x + 1)
 842:Middlewares/lvgl/src/draw/lv_draw_blend.c ****                             MAP_NORMAL_MASK_PX(x + 2)
 843:Middlewares/lvgl/src/draw/lv_draw_blend.c ****                             MAP_NORMAL_MASK_PX(x + 3)
 844:Middlewares/lvgl/src/draw/lv_draw_blend.c **** #endif
 845:Middlewares/lvgl/src/draw/lv_draw_blend.c ****                         }
 846:Middlewares/lvgl/src/draw/lv_draw_blend.c ****                     }
 847:Middlewares/lvgl/src/draw/lv_draw_blend.c ****                     mask32++;
 848:Middlewares/lvgl/src/draw/lv_draw_blend.c ****                 }
 849:Middlewares/lvgl/src/draw/lv_draw_blend.c **** 
 850:Middlewares/lvgl/src/draw/lv_draw_blend.c ****                 mask_tmp_x = (const lv_opa_t *)mask32;
 851:Middlewares/lvgl/src/draw/lv_draw_blend.c ****                 for(; x < draw_area_w ; x++) {
 852:Middlewares/lvgl/src/draw/lv_draw_blend.c **** #if LV_COLOR_SCREEN_TRANSP
 853:Middlewares/lvgl/src/draw/lv_draw_blend.c ****                     MAP_NORMAL_MASK_PX_SCR_TRANSP(x)
 854:Middlewares/lvgl/src/draw/lv_draw_blend.c **** #else
 855:Middlewares/lvgl/src/draw/lv_draw_blend.c ****                     MAP_NORMAL_MASK_PX(x)
 856:Middlewares/lvgl/src/draw/lv_draw_blend.c **** #endif
 857:Middlewares/lvgl/src/draw/lv_draw_blend.c ****                 }
 858:Middlewares/lvgl/src/draw/lv_draw_blend.c **** #endif
 859:Middlewares/lvgl/src/draw/lv_draw_blend.c ****                 disp_buf_first += disp_w;
 860:Middlewares/lvgl/src/draw/lv_draw_blend.c ****                 mask += draw_area_w;
 861:Middlewares/lvgl/src/draw/lv_draw_blend.c ****                 map_buf_first += map_w;
 862:Middlewares/lvgl/src/draw/lv_draw_blend.c ****             }
 863:Middlewares/lvgl/src/draw/lv_draw_blend.c ****         }
 864:Middlewares/lvgl/src/draw/lv_draw_blend.c ****         /*Handle opa and mask values too*/
 865:Middlewares/lvgl/src/draw/lv_draw_blend.c ****         else {
 866:Middlewares/lvgl/src/draw/lv_draw_blend.c ****             for(y = 0; y < draw_area_h; y++) {
 867:Middlewares/lvgl/src/draw/lv_draw_blend.c ****                 for(x = 0; x < draw_area_w; x++) {
 868:Middlewares/lvgl/src/draw/lv_draw_blend.c ****                     if(mask[x]) {
 869:Middlewares/lvgl/src/draw/lv_draw_blend.c ****                         lv_opa_t opa_tmp = mask[x] >= LV_OPA_MAX ? opa : ((opa * mask[x]) >> 8);
 870:Middlewares/lvgl/src/draw/lv_draw_blend.c **** #if LV_COLOR_SCREEN_TRANSP
 871:Middlewares/lvgl/src/draw/lv_draw_blend.c ****                         if(disp->driver->screen_transp) {
 872:Middlewares/lvgl/src/draw/lv_draw_blend.c ****                             lv_color_mix_with_alpha(disp_buf_first[x], disp_buf_first[x].ch.alpha, 
 873:Middlewares/lvgl/src/draw/lv_draw_blend.c ****                                                     &disp_buf_first[x].ch.alpha);
 874:Middlewares/lvgl/src/draw/lv_draw_blend.c ****                         }
 875:Middlewares/lvgl/src/draw/lv_draw_blend.c ****                         else
 876:Middlewares/lvgl/src/draw/lv_draw_blend.c **** #endif
 877:Middlewares/lvgl/src/draw/lv_draw_blend.c ****                         {
 878:Middlewares/lvgl/src/draw/lv_draw_blend.c ****                             disp_buf_first[x] = lv_color_mix(map_buf_first[x], disp_buf_first[x], o
 879:Middlewares/lvgl/src/draw/lv_draw_blend.c ****                         }
 880:Middlewares/lvgl/src/draw/lv_draw_blend.c ****                     }
 881:Middlewares/lvgl/src/draw/lv_draw_blend.c ****                 }
 882:Middlewares/lvgl/src/draw/lv_draw_blend.c ****                 disp_buf_first += disp_w;
 883:Middlewares/lvgl/src/draw/lv_draw_blend.c ****                 mask += draw_area_w;
 884:Middlewares/lvgl/src/draw/lv_draw_blend.c ****                 map_buf_first += map_w;
 885:Middlewares/lvgl/src/draw/lv_draw_blend.c ****             }
 886:Middlewares/lvgl/src/draw/lv_draw_blend.c ****         }
 887:Middlewares/lvgl/src/draw/lv_draw_blend.c ****     }
ARM GAS  /tmp/ccwyVXLY.s 			page 17


 888:Middlewares/lvgl/src/draw/lv_draw_blend.c **** }
 889:Middlewares/lvgl/src/draw/lv_draw_blend.c **** #if LV_DRAW_COMPLEX
 890:Middlewares/lvgl/src/draw/lv_draw_blend.c **** static void map_blended(const lv_area_t * disp_area, lv_color_t * disp_buf,  const lv_area_t * draw
 891:Middlewares/lvgl/src/draw/lv_draw_blend.c ****                         const lv_area_t * map_area, const lv_color_t * map_buf, lv_opa_t opa,
 892:Middlewares/lvgl/src/draw/lv_draw_blend.c ****                         const lv_opa_t * mask, lv_draw_mask_res_t mask_res, lv_blend_mode_t mode)
 893:Middlewares/lvgl/src/draw/lv_draw_blend.c **** {
  27              		.loc 1 893 1 view -0
  28              		.cfi_startproc
  29              		@ args = 20, pretend = 0, frame = 16
  30              		@ frame_needed = 0, uses_anonymous_args = 0
  31              		.loc 1 893 1 is_stmt 0 view .LVU1
  32 0000 2DE9F04F 		push	{r4, r5, r6, r7, r8, r9, r10, fp, lr}
  33              	.LCFI0:
  34              		.cfi_def_cfa_offset 36
  35              		.cfi_offset 4, -36
  36              		.cfi_offset 5, -32
  37              		.cfi_offset 6, -28
  38              		.cfi_offset 7, -24
  39              		.cfi_offset 8, -20
  40              		.cfi_offset 9, -16
  41              		.cfi_offset 10, -12
  42              		.cfi_offset 11, -8
  43              		.cfi_offset 14, -4
  44 0004 85B0     		sub	sp, sp, #20
  45              	.LCFI1:
  46              		.cfi_def_cfa_offset 56
  47 0006 1746     		mov	r7, r2
  48 0008 9DF83CA0 		ldrb	r10, [sp, #60]	@ zero_extendqisi2
  49 000c 9DF848E0 		ldrb	lr, [sp, #72]	@ zero_extendqisi2
 894:Middlewares/lvgl/src/draw/lv_draw_blend.c **** 
 895:Middlewares/lvgl/src/draw/lv_draw_blend.c ****     /*Get the width of the `disp_area` it will be used to go to the next line*/
 896:Middlewares/lvgl/src/draw/lv_draw_blend.c ****     int32_t disp_w = lv_area_get_width(disp_area);
  50              		.loc 1 896 5 is_stmt 1 view .LVU2
  51              	.LVL1:
  52              	.LBB69:
  53              	.LBI69:
  54              		.file 2 "Middlewares/lvgl/src/draw/../misc/lv_area.h"
   1:Middlewares/lvgl/src/draw/../misc/lv_area.h **** /**
   2:Middlewares/lvgl/src/draw/../misc/lv_area.h ****  * @file lv_area.h
   3:Middlewares/lvgl/src/draw/../misc/lv_area.h ****  *
   4:Middlewares/lvgl/src/draw/../misc/lv_area.h ****  */
   5:Middlewares/lvgl/src/draw/../misc/lv_area.h **** 
   6:Middlewares/lvgl/src/draw/../misc/lv_area.h **** #ifndef LV_AREA_H
   7:Middlewares/lvgl/src/draw/../misc/lv_area.h **** #define LV_AREA_H
   8:Middlewares/lvgl/src/draw/../misc/lv_area.h **** 
   9:Middlewares/lvgl/src/draw/../misc/lv_area.h **** #ifdef __cplusplus
  10:Middlewares/lvgl/src/draw/../misc/lv_area.h **** extern "C" {
  11:Middlewares/lvgl/src/draw/../misc/lv_area.h **** #endif
  12:Middlewares/lvgl/src/draw/../misc/lv_area.h **** 
  13:Middlewares/lvgl/src/draw/../misc/lv_area.h **** /*********************
  14:Middlewares/lvgl/src/draw/../misc/lv_area.h ****  *      INCLUDES
  15:Middlewares/lvgl/src/draw/../misc/lv_area.h ****  *********************/
  16:Middlewares/lvgl/src/draw/../misc/lv_area.h **** #include "../lv_conf_internal.h"
  17:Middlewares/lvgl/src/draw/../misc/lv_area.h **** #include <string.h>
  18:Middlewares/lvgl/src/draw/../misc/lv_area.h **** #include <stdbool.h>
  19:Middlewares/lvgl/src/draw/../misc/lv_area.h **** #include <stdint.h>
  20:Middlewares/lvgl/src/draw/../misc/lv_area.h **** 
ARM GAS  /tmp/ccwyVXLY.s 			page 18


  21:Middlewares/lvgl/src/draw/../misc/lv_area.h **** /*********************
  22:Middlewares/lvgl/src/draw/../misc/lv_area.h ****  *      DEFINES
  23:Middlewares/lvgl/src/draw/../misc/lv_area.h ****  *********************/
  24:Middlewares/lvgl/src/draw/../misc/lv_area.h **** 
  25:Middlewares/lvgl/src/draw/../misc/lv_area.h **** #define _LV_COORD_MAX_REDUCE    8192
  26:Middlewares/lvgl/src/draw/../misc/lv_area.h **** 
  27:Middlewares/lvgl/src/draw/../misc/lv_area.h **** #if LV_USE_LARGE_COORD
  28:Middlewares/lvgl/src/draw/../misc/lv_area.h **** typedef int32_t lv_coord_t;
  29:Middlewares/lvgl/src/draw/../misc/lv_area.h **** #else
  30:Middlewares/lvgl/src/draw/../misc/lv_area.h **** typedef int16_t lv_coord_t;
  31:Middlewares/lvgl/src/draw/../misc/lv_area.h **** #endif
  32:Middlewares/lvgl/src/draw/../misc/lv_area.h **** 
  33:Middlewares/lvgl/src/draw/../misc/lv_area.h **** /*To allow some special values in the end reduce the max value*/
  34:Middlewares/lvgl/src/draw/../misc/lv_area.h **** #define LV_COORD_MAX ((lv_coord_t)((uint32_t)((uint32_t)1 << (8 * sizeof(lv_coord_t) - 1)) - _LV_CO
  35:Middlewares/lvgl/src/draw/../misc/lv_area.h **** #define LV_COORD_MIN (-LV_COORD_MAX)
  36:Middlewares/lvgl/src/draw/../misc/lv_area.h **** 
  37:Middlewares/lvgl/src/draw/../misc/lv_area.h **** LV_EXPORT_CONST_INT(LV_COORD_MAX);
  38:Middlewares/lvgl/src/draw/../misc/lv_area.h **** LV_EXPORT_CONST_INT(LV_COORD_MIN);
  39:Middlewares/lvgl/src/draw/../misc/lv_area.h **** 
  40:Middlewares/lvgl/src/draw/../misc/lv_area.h **** /**********************
  41:Middlewares/lvgl/src/draw/../misc/lv_area.h ****  *      TYPEDEFS
  42:Middlewares/lvgl/src/draw/../misc/lv_area.h ****  **********************/
  43:Middlewares/lvgl/src/draw/../misc/lv_area.h **** 
  44:Middlewares/lvgl/src/draw/../misc/lv_area.h **** /**
  45:Middlewares/lvgl/src/draw/../misc/lv_area.h ****  * Represents a point on the screen.
  46:Middlewares/lvgl/src/draw/../misc/lv_area.h ****  */
  47:Middlewares/lvgl/src/draw/../misc/lv_area.h **** typedef struct {
  48:Middlewares/lvgl/src/draw/../misc/lv_area.h ****     lv_coord_t x;
  49:Middlewares/lvgl/src/draw/../misc/lv_area.h ****     lv_coord_t y;
  50:Middlewares/lvgl/src/draw/../misc/lv_area.h **** } lv_point_t;
  51:Middlewares/lvgl/src/draw/../misc/lv_area.h **** 
  52:Middlewares/lvgl/src/draw/../misc/lv_area.h **** /** Represents an area of the screen.*/
  53:Middlewares/lvgl/src/draw/../misc/lv_area.h **** typedef struct {
  54:Middlewares/lvgl/src/draw/../misc/lv_area.h ****     lv_coord_t x1;
  55:Middlewares/lvgl/src/draw/../misc/lv_area.h ****     lv_coord_t y1;
  56:Middlewares/lvgl/src/draw/../misc/lv_area.h ****     lv_coord_t x2;
  57:Middlewares/lvgl/src/draw/../misc/lv_area.h ****     lv_coord_t y2;
  58:Middlewares/lvgl/src/draw/../misc/lv_area.h **** } lv_area_t;
  59:Middlewares/lvgl/src/draw/../misc/lv_area.h **** 
  60:Middlewares/lvgl/src/draw/../misc/lv_area.h **** /** Alignments*/
  61:Middlewares/lvgl/src/draw/../misc/lv_area.h **** enum {
  62:Middlewares/lvgl/src/draw/../misc/lv_area.h ****     LV_ALIGN_DEFAULT = 0,
  63:Middlewares/lvgl/src/draw/../misc/lv_area.h ****     LV_ALIGN_TOP_LEFT,
  64:Middlewares/lvgl/src/draw/../misc/lv_area.h ****     LV_ALIGN_TOP_MID,
  65:Middlewares/lvgl/src/draw/../misc/lv_area.h ****     LV_ALIGN_TOP_RIGHT,
  66:Middlewares/lvgl/src/draw/../misc/lv_area.h ****     LV_ALIGN_BOTTOM_LEFT,
  67:Middlewares/lvgl/src/draw/../misc/lv_area.h ****     LV_ALIGN_BOTTOM_MID,
  68:Middlewares/lvgl/src/draw/../misc/lv_area.h ****     LV_ALIGN_BOTTOM_RIGHT,
  69:Middlewares/lvgl/src/draw/../misc/lv_area.h ****     LV_ALIGN_LEFT_MID,
  70:Middlewares/lvgl/src/draw/../misc/lv_area.h ****     LV_ALIGN_RIGHT_MID,
  71:Middlewares/lvgl/src/draw/../misc/lv_area.h ****     LV_ALIGN_CENTER,
  72:Middlewares/lvgl/src/draw/../misc/lv_area.h **** 
  73:Middlewares/lvgl/src/draw/../misc/lv_area.h ****     LV_ALIGN_OUT_TOP_LEFT,
  74:Middlewares/lvgl/src/draw/../misc/lv_area.h ****     LV_ALIGN_OUT_TOP_MID,
  75:Middlewares/lvgl/src/draw/../misc/lv_area.h ****     LV_ALIGN_OUT_TOP_RIGHT,
  76:Middlewares/lvgl/src/draw/../misc/lv_area.h ****     LV_ALIGN_OUT_BOTTOM_LEFT,
  77:Middlewares/lvgl/src/draw/../misc/lv_area.h ****     LV_ALIGN_OUT_BOTTOM_MID,
ARM GAS  /tmp/ccwyVXLY.s 			page 19


  78:Middlewares/lvgl/src/draw/../misc/lv_area.h ****     LV_ALIGN_OUT_BOTTOM_RIGHT,
  79:Middlewares/lvgl/src/draw/../misc/lv_area.h ****     LV_ALIGN_OUT_LEFT_TOP,
  80:Middlewares/lvgl/src/draw/../misc/lv_area.h ****     LV_ALIGN_OUT_LEFT_MID,
  81:Middlewares/lvgl/src/draw/../misc/lv_area.h ****     LV_ALIGN_OUT_LEFT_BOTTOM,
  82:Middlewares/lvgl/src/draw/../misc/lv_area.h ****     LV_ALIGN_OUT_RIGHT_TOP,
  83:Middlewares/lvgl/src/draw/../misc/lv_area.h ****     LV_ALIGN_OUT_RIGHT_MID,
  84:Middlewares/lvgl/src/draw/../misc/lv_area.h ****     LV_ALIGN_OUT_RIGHT_BOTTOM,
  85:Middlewares/lvgl/src/draw/../misc/lv_area.h **** };
  86:Middlewares/lvgl/src/draw/../misc/lv_area.h **** typedef uint8_t lv_align_t;
  87:Middlewares/lvgl/src/draw/../misc/lv_area.h **** 
  88:Middlewares/lvgl/src/draw/../misc/lv_area.h **** enum {
  89:Middlewares/lvgl/src/draw/../misc/lv_area.h ****     LV_DIR_NONE     = 0x00,
  90:Middlewares/lvgl/src/draw/../misc/lv_area.h ****     LV_DIR_LEFT     = (1 << 0),
  91:Middlewares/lvgl/src/draw/../misc/lv_area.h ****     LV_DIR_RIGHT    = (1 << 1),
  92:Middlewares/lvgl/src/draw/../misc/lv_area.h ****     LV_DIR_TOP      = (1 << 2),
  93:Middlewares/lvgl/src/draw/../misc/lv_area.h ****     LV_DIR_BOTTOM   = (1 << 3),
  94:Middlewares/lvgl/src/draw/../misc/lv_area.h ****     LV_DIR_HOR      = LV_DIR_LEFT | LV_DIR_RIGHT,
  95:Middlewares/lvgl/src/draw/../misc/lv_area.h ****     LV_DIR_VER      = LV_DIR_TOP | LV_DIR_BOTTOM,
  96:Middlewares/lvgl/src/draw/../misc/lv_area.h ****     LV_DIR_ALL      = LV_DIR_HOR | LV_DIR_VER,
  97:Middlewares/lvgl/src/draw/../misc/lv_area.h **** };
  98:Middlewares/lvgl/src/draw/../misc/lv_area.h **** 
  99:Middlewares/lvgl/src/draw/../misc/lv_area.h **** typedef uint8_t lv_dir_t;
 100:Middlewares/lvgl/src/draw/../misc/lv_area.h **** 
 101:Middlewares/lvgl/src/draw/../misc/lv_area.h **** /**********************
 102:Middlewares/lvgl/src/draw/../misc/lv_area.h ****  * GLOBAL PROTOTYPES
 103:Middlewares/lvgl/src/draw/../misc/lv_area.h ****  **********************/
 104:Middlewares/lvgl/src/draw/../misc/lv_area.h **** 
 105:Middlewares/lvgl/src/draw/../misc/lv_area.h **** /**
 106:Middlewares/lvgl/src/draw/../misc/lv_area.h ****  * Initialize an area
 107:Middlewares/lvgl/src/draw/../misc/lv_area.h ****  * @param area_p pointer to an area
 108:Middlewares/lvgl/src/draw/../misc/lv_area.h ****  * @param x1 left coordinate of the area
 109:Middlewares/lvgl/src/draw/../misc/lv_area.h ****  * @param y1 top coordinate of the area
 110:Middlewares/lvgl/src/draw/../misc/lv_area.h ****  * @param x2 right coordinate of the area
 111:Middlewares/lvgl/src/draw/../misc/lv_area.h ****  * @param y2 bottom coordinate of the area
 112:Middlewares/lvgl/src/draw/../misc/lv_area.h ****  */
 113:Middlewares/lvgl/src/draw/../misc/lv_area.h **** void lv_area_set(lv_area_t * area_p, lv_coord_t x1, lv_coord_t y1, lv_coord_t x2, lv_coord_t y2);
 114:Middlewares/lvgl/src/draw/../misc/lv_area.h **** 
 115:Middlewares/lvgl/src/draw/../misc/lv_area.h **** /**
 116:Middlewares/lvgl/src/draw/../misc/lv_area.h ****  * Copy an area
 117:Middlewares/lvgl/src/draw/../misc/lv_area.h ****  * @param dest pointer to the destination area
 118:Middlewares/lvgl/src/draw/../misc/lv_area.h ****  * @param src pointer to the source area
 119:Middlewares/lvgl/src/draw/../misc/lv_area.h ****  */
 120:Middlewares/lvgl/src/draw/../misc/lv_area.h **** inline static void lv_area_copy(lv_area_t * dest, const lv_area_t * src)
 121:Middlewares/lvgl/src/draw/../misc/lv_area.h **** {
 122:Middlewares/lvgl/src/draw/../misc/lv_area.h ****     dest->x1 = src->x1;
 123:Middlewares/lvgl/src/draw/../misc/lv_area.h ****     dest->y1 = src->y1;
 124:Middlewares/lvgl/src/draw/../misc/lv_area.h ****     dest->x2 = src->x2;
 125:Middlewares/lvgl/src/draw/../misc/lv_area.h ****     dest->y2 = src->y2;
 126:Middlewares/lvgl/src/draw/../misc/lv_area.h **** }
 127:Middlewares/lvgl/src/draw/../misc/lv_area.h **** 
 128:Middlewares/lvgl/src/draw/../misc/lv_area.h **** /**
 129:Middlewares/lvgl/src/draw/../misc/lv_area.h ****  * Get the width of an area
 130:Middlewares/lvgl/src/draw/../misc/lv_area.h ****  * @param area_p pointer to an area
 131:Middlewares/lvgl/src/draw/../misc/lv_area.h ****  * @return the width of the area (if x1 == x2 -> width = 1)
 132:Middlewares/lvgl/src/draw/../misc/lv_area.h ****  */
 133:Middlewares/lvgl/src/draw/../misc/lv_area.h **** static inline lv_coord_t lv_area_get_width(const lv_area_t * area_p)
  55              		.loc 2 133 26 view .LVU3
ARM GAS  /tmp/ccwyVXLY.s 			page 20


  56              	.LBB70:
 134:Middlewares/lvgl/src/draw/../misc/lv_area.h **** {
 135:Middlewares/lvgl/src/draw/../misc/lv_area.h ****     return (lv_coord_t)(area_p->x2 - area_p->x1 + 1);
  57              		.loc 2 135 5 view .LVU4
  58              		.loc 2 135 31 is_stmt 0 view .LVU5
  59 0010 8288     		ldrh	r2, [r0, #4]
  60              	.LVL2:
  61              		.loc 2 135 44 view .LVU6
  62 0012 B0F90040 		ldrsh	r4, [r0]
  63 0016 A5B2     		uxth	r5, r4
  64              		.loc 2 135 36 view .LVU7
  65 0018 521B     		subs	r2, r2, r5
  66 001a 92B2     		uxth	r2, r2
  67              		.loc 2 135 49 view .LVU8
  68 001c 0132     		adds	r2, r2, #1
  69              		.loc 2 135 12 view .LVU9
  70 001e 0FFA82F8 		sxth	r8, r2
  71 0022 CDF80880 		str	r8, [sp, #8]
  72              	.LVL3:
  73              		.loc 2 135 12 view .LVU10
  74              	.LBE70:
  75              	.LBE69:
 897:Middlewares/lvgl/src/draw/lv_draw_blend.c **** 
 898:Middlewares/lvgl/src/draw/lv_draw_blend.c ****     /*Get the width of the `draw_area` it will be used to go to the next line of the mask*/
 899:Middlewares/lvgl/src/draw/lv_draw_blend.c ****     int32_t draw_area_w = lv_area_get_width(draw_area);
  76              		.loc 1 899 5 is_stmt 1 view .LVU11
  77              	.LBB71:
  78              	.LBI71:
 133:Middlewares/lvgl/src/draw/../misc/lv_area.h **** {
  79              		.loc 2 133 26 view .LVU12
  80              	.LBB72:
  81              		.loc 2 135 5 view .LVU13
  82              		.loc 2 135 31 is_stmt 0 view .LVU14
  83 0026 BD88     		ldrh	r5, [r7, #4]
  84              		.loc 2 135 44 view .LVU15
  85 0028 B7F90020 		ldrsh	r2, [r7]
  86 002c 96B2     		uxth	r6, r2
  87              		.loc 2 135 36 view .LVU16
  88 002e AD1B     		subs	r5, r5, r6
  89 0030 ADB2     		uxth	r5, r5
  90              		.loc 2 135 49 view .LVU17
  91 0032 0135     		adds	r5, r5, #1
  92              		.loc 2 135 12 view .LVU18
  93 0034 2DB2     		sxth	r5, r5
  94 0036 0395     		str	r5, [sp, #12]
  95              	.LVL4:
  96              		.loc 2 135 12 view .LVU19
  97              	.LBE72:
  98              	.LBE71:
 900:Middlewares/lvgl/src/draw/lv_draw_blend.c **** 
 901:Middlewares/lvgl/src/draw/lv_draw_blend.c ****     /*Get the width of the `mask_area` it will be used to go to the next line*/
 902:Middlewares/lvgl/src/draw/lv_draw_blend.c ****     int32_t map_w = lv_area_get_width(map_area);
  99              		.loc 1 902 5 is_stmt 1 view .LVU20
 100              	.LBB73:
 101              	.LBI73:
 133:Middlewares/lvgl/src/draw/../misc/lv_area.h **** {
 102              		.loc 2 133 26 view .LVU21
ARM GAS  /tmp/ccwyVXLY.s 			page 21


 103              	.LBB74:
 104              		.loc 2 135 5 view .LVU22
 105              		.loc 2 135 31 is_stmt 0 view .LVU23
 106 0038 9D88     		ldrh	r5, [r3, #4]
 107              		.loc 2 135 44 view .LVU24
 108 003a B3F900C0 		ldrsh	ip, [r3]
 109 003e 1FFA8CF6 		uxth	r6, ip
 110              		.loc 2 135 36 view .LVU25
 111 0042 AD1B     		subs	r5, r5, r6
 112 0044 ADB2     		uxth	r5, r5
 113              		.loc 2 135 49 view .LVU26
 114 0046 0135     		adds	r5, r5, #1
 115              		.loc 2 135 12 view .LVU27
 116 0048 2EB2     		sxth	r6, r5
 117 004a 0196     		str	r6, [sp, #4]
 118              	.LVL5:
 119              		.loc 2 135 12 view .LVU28
 120              	.LBE74:
 121              	.LBE73:
 903:Middlewares/lvgl/src/draw/lv_draw_blend.c **** 
 904:Middlewares/lvgl/src/draw/lv_draw_blend.c ****     /*Create a temp. disp_buf which always point to current line to draw*/
 905:Middlewares/lvgl/src/draw/lv_draw_blend.c ****     lv_color_t * disp_buf_tmp = disp_buf + disp_w * draw_area->y1;
 122              		.loc 1 905 5 is_stmt 1 view .LVU29
 123              		.loc 1 905 62 is_stmt 0 view .LVU30
 124 004c B7F902B0 		ldrsh	fp, [r7, #2]
 125              		.loc 1 905 51 view .LVU31
 126 0050 08FB0BF8 		mul	r8, r8, fp
 127              	.LVL6:
 128              		.loc 1 905 18 view .LVU32
 129 0054 01EB4808 		add	r8, r1, r8, lsl #1
 130              	.LVL7:
 906:Middlewares/lvgl/src/draw/lv_draw_blend.c **** 
 907:Middlewares/lvgl/src/draw/lv_draw_blend.c ****     /*Create a temp. map_buf which always point to current line to draw*/
 908:Middlewares/lvgl/src/draw/lv_draw_blend.c ****     const lv_color_t * map_buf_tmp = map_buf + map_w * (draw_area->y1 - (map_area->y1 - disp_area->
 131              		.loc 1 908 5 is_stmt 1 view .LVU33
 132              		.loc 1 908 82 is_stmt 0 view .LVU34
 133 0058 B3F90250 		ldrsh	r5, [r3, #2]
 134              		.loc 1 908 98 view .LVU35
 135 005c B0F90230 		ldrsh	r3, [r0, #2]
 136              	.LVL8:
 137              		.loc 1 908 87 view .LVU36
 138 0060 ED1A     		subs	r5, r5, r3
 139              		.loc 1 908 71 view .LVU37
 140 0062 ABEB0505 		sub	r5, fp, r5
 141              		.loc 1 908 54 view .LVU38
 142 0066 06FB05F5 		mul	r5, r6, r5
 143              		.loc 1 908 24 view .LVU39
 144 006a 0E9E     		ldr	r6, [sp, #56]
 145              	.LVL9:
 146              		.loc 1 908 24 view .LVU40
 147 006c 06EB4505 		add	r5, r6, r5, lsl #1
 148              	.LVL10:
 909:Middlewares/lvgl/src/draw/lv_draw_blend.c **** 
 910:Middlewares/lvgl/src/draw/lv_draw_blend.c ****     lv_color_t (*blend_fp)(lv_color_t, lv_color_t, lv_opa_t);
 149              		.loc 1 910 5 is_stmt 1 view .LVU41
 911:Middlewares/lvgl/src/draw/lv_draw_blend.c ****     switch(mode) {
 150              		.loc 1 911 5 view .LVU42
ARM GAS  /tmp/ccwyVXLY.s 			page 22


 151 0070 BEF1010F 		cmp	lr, #1
 152 0074 0ED0     		beq	.L16
 153 0076 BEF1020F 		cmp	lr, #2
 154 007a 65D1     		bne	.L1
 912:Middlewares/lvgl/src/draw/lv_draw_blend.c ****         case LV_BLEND_MODE_ADDITIVE:
 913:Middlewares/lvgl/src/draw/lv_draw_blend.c ****             blend_fp = color_blend_true_color_additive;
 914:Middlewares/lvgl/src/draw/lv_draw_blend.c ****             break;
 915:Middlewares/lvgl/src/draw/lv_draw_blend.c ****         case LV_BLEND_MODE_SUBTRACTIVE:
 916:Middlewares/lvgl/src/draw/lv_draw_blend.c ****             blend_fp = color_blend_true_color_subtractive;
 155              		.loc 1 916 22 is_stmt 0 view .LVU43
 156 007c 344B     		ldr	r3, .L22
 157 007e 0093     		str	r3, [sp]
 158              	.L2:
 159              	.LVL11:
 917:Middlewares/lvgl/src/draw/lv_draw_blend.c ****             break;
 918:Middlewares/lvgl/src/draw/lv_draw_blend.c ****         default:
 919:Middlewares/lvgl/src/draw/lv_draw_blend.c ****             LV_LOG_WARN("fill_blended: unsupported blend mode");
 920:Middlewares/lvgl/src/draw/lv_draw_blend.c ****             return;
 921:Middlewares/lvgl/src/draw/lv_draw_blend.c ****     }
 922:Middlewares/lvgl/src/draw/lv_draw_blend.c **** 
 923:Middlewares/lvgl/src/draw/lv_draw_blend.c ****     int32_t x;
 160              		.loc 1 923 5 is_stmt 1 view .LVU44
 924:Middlewares/lvgl/src/draw/lv_draw_blend.c ****     int32_t y;
 161              		.loc 1 924 5 view .LVU45
 925:Middlewares/lvgl/src/draw/lv_draw_blend.c **** 
 926:Middlewares/lvgl/src/draw/lv_draw_blend.c ****     /*Simple fill (maybe with opacity), no masking*/
 927:Middlewares/lvgl/src/draw/lv_draw_blend.c ****     if(mask_res == LV_DRAW_MASK_RES_FULL_COVER) {
 162              		.loc 1 927 5 view .LVU46
 163              		.loc 1 927 7 is_stmt 0 view .LVU47
 164 0080 9DF84430 		ldrb	r3, [sp, #68]	@ zero_extendqisi2
 165 0084 012B     		cmp	r3, #1
 166 0086 08D0     		beq	.L19
 167              	.LBB75:
 928:Middlewares/lvgl/src/draw/lv_draw_blend.c ****         /*Go to the first px of the row*/
 929:Middlewares/lvgl/src/draw/lv_draw_blend.c ****         map_buf_tmp += (draw_area->x1 - (map_area->x1 - disp_area->x1));
 930:Middlewares/lvgl/src/draw/lv_draw_blend.c **** 
 931:Middlewares/lvgl/src/draw/lv_draw_blend.c ****         /*The map will be indexed from `draw_area->x1` so compensate it.*/
 932:Middlewares/lvgl/src/draw/lv_draw_blend.c ****         map_buf_tmp -= draw_area->x1;
 933:Middlewares/lvgl/src/draw/lv_draw_blend.c **** 
 934:Middlewares/lvgl/src/draw/lv_draw_blend.c ****         for(y = draw_area->y1; y <= draw_area->y2; y++) {
 935:Middlewares/lvgl/src/draw/lv_draw_blend.c ****             for(x = draw_area->x1; x <= draw_area->x2; x++) {
 936:Middlewares/lvgl/src/draw/lv_draw_blend.c **** #if LV_COLOR_DEPTH == 32
 937:Middlewares/lvgl/src/draw/lv_draw_blend.c ****                 if(map_buf_tmp[x].full != 0xff000000) {
 938:Middlewares/lvgl/src/draw/lv_draw_blend.c **** #else
 939:Middlewares/lvgl/src/draw/lv_draw_blend.c ****                 if(map_buf_tmp[x].full != 0) {
 940:Middlewares/lvgl/src/draw/lv_draw_blend.c **** #endif
 941:Middlewares/lvgl/src/draw/lv_draw_blend.c ****                     disp_buf_tmp[x] = blend_fp(map_buf_tmp[x], disp_buf_tmp[x], opa);
 942:Middlewares/lvgl/src/draw/lv_draw_blend.c ****                 }
 943:Middlewares/lvgl/src/draw/lv_draw_blend.c ****             }
 944:Middlewares/lvgl/src/draw/lv_draw_blend.c ****             disp_buf_tmp += disp_w;
 945:Middlewares/lvgl/src/draw/lv_draw_blend.c ****             map_buf_tmp += map_w;
 946:Middlewares/lvgl/src/draw/lv_draw_blend.c ****         }
 947:Middlewares/lvgl/src/draw/lv_draw_blend.c ****     }
 948:Middlewares/lvgl/src/draw/lv_draw_blend.c ****     /*Masked*/
 949:Middlewares/lvgl/src/draw/lv_draw_blend.c ****     else {
 950:Middlewares/lvgl/src/draw/lv_draw_blend.c ****         /*The mask is relative to the clipped area.
 951:Middlewares/lvgl/src/draw/lv_draw_blend.c ****          *In the cycles below mask will be indexed from `draw_area.x1`
ARM GAS  /tmp/ccwyVXLY.s 			page 23


 952:Middlewares/lvgl/src/draw/lv_draw_blend.c ****          *but it corresponds to zero index. So prepare `mask_tmp` accordingly.*/
 953:Middlewares/lvgl/src/draw/lv_draw_blend.c ****         const lv_opa_t * mask_tmp = mask - draw_area->x1;
 168              		.loc 1 953 9 is_stmt 1 view .LVU48
 169              		.loc 1 953 26 is_stmt 0 view .LVU49
 170 0088 109B     		ldr	r3, [sp, #64]
 171 008a A3EB0209 		sub	r9, r3, r2
 172              	.LVL12:
 954:Middlewares/lvgl/src/draw/lv_draw_blend.c **** 
 955:Middlewares/lvgl/src/draw/lv_draw_blend.c ****         map_buf_tmp -= draw_area->x1;
 173              		.loc 1 955 9 is_stmt 1 view .LVU50
 174              		.loc 1 955 21 is_stmt 0 view .LVU51
 175 008e A5EB4206 		sub	r6, r5, r2, lsl #1
 176              	.LVL13:
 956:Middlewares/lvgl/src/draw/lv_draw_blend.c ****         for(y = draw_area->y1; y <= draw_area->y2; y++) {
 177              		.loc 1 956 9 is_stmt 1 view .LVU52
 178              		.loc 1 956 9 is_stmt 0 view .LVU53
 179 0092 52E0     		b	.L10
 180              	.LVL14:
 181              	.L16:
 182              		.loc 1 956 9 view .LVU54
 183              	.LBE75:
 911:Middlewares/lvgl/src/draw/lv_draw_blend.c ****         case LV_BLEND_MODE_ADDITIVE:
 184              		.loc 1 911 5 view .LVU55
 185 0094 2F4B     		ldr	r3, .L22+4
 186 0096 0093     		str	r3, [sp]
 187 0098 F2E7     		b	.L2
 188              	.LVL15:
 189              	.L19:
 929:Middlewares/lvgl/src/draw/lv_draw_blend.c **** 
 190              		.loc 1 929 9 is_stmt 1 view .LVU56
 932:Middlewares/lvgl/src/draw/lv_draw_blend.c **** 
 191              		.loc 1 932 9 view .LVU57
 932:Middlewares/lvgl/src/draw/lv_draw_blend.c **** 
 192              		.loc 1 932 21 is_stmt 0 view .LVU58
 193 009a A4EB0C04 		sub	r4, r4, ip
 194 009e 05EB4405 		add	r5, r5, r4, lsl #1
 195              	.LVL16:
 934:Middlewares/lvgl/src/draw/lv_draw_blend.c ****             for(x = draw_area->x1; x <= draw_area->x2; x++) {
 196              		.loc 1 934 9 is_stmt 1 view .LVU59
 934:Middlewares/lvgl/src/draw/lv_draw_blend.c ****             for(x = draw_area->x1; x <= draw_area->x2; x++) {
 197              		.loc 1 934 9 is_stmt 0 view .LVU60
 198 00a2 009E     		ldr	r6, [sp]
 199 00a4 DDF80890 		ldr	r9, [sp, #8]
 200 00a8 18E0     		b	.L5
 201              	.LVL17:
 202              	.L7:
 935:Middlewares/lvgl/src/draw/lv_draw_blend.c **** #if LV_COLOR_DEPTH == 32
 203              		.loc 1 935 56 is_stmt 1 discriminator 2 view .LVU61
 935:Middlewares/lvgl/src/draw/lv_draw_blend.c **** #if LV_COLOR_DEPTH == 32
 204              		.loc 1 935 57 is_stmt 0 discriminator 2 view .LVU62
 205 00aa 0134     		adds	r4, r4, #1
 206              	.LVL18:
 207              	.L6:
 935:Middlewares/lvgl/src/draw/lv_draw_blend.c **** #if LV_COLOR_DEPTH == 32
 208              		.loc 1 935 36 is_stmt 1 discriminator 1 view .LVU63
 935:Middlewares/lvgl/src/draw/lv_draw_blend.c **** #if LV_COLOR_DEPTH == 32
 209              		.loc 1 935 50 is_stmt 0 discriminator 1 view .LVU64
ARM GAS  /tmp/ccwyVXLY.s 			page 24


 210 00ac B7F90430 		ldrsh	r3, [r7, #4]
 935:Middlewares/lvgl/src/draw/lv_draw_blend.c **** #if LV_COLOR_DEPTH == 32
 211              		.loc 1 935 13 discriminator 1 view .LVU65
 212 00b0 A342     		cmp	r3, r4
 213 00b2 0CDB     		blt	.L20
 939:Middlewares/lvgl/src/draw/lv_draw_blend.c **** #endif
 214              		.loc 1 939 17 is_stmt 1 view .LVU66
 939:Middlewares/lvgl/src/draw/lv_draw_blend.c **** #endif
 215              		.loc 1 939 34 is_stmt 0 view .LVU67
 216 00b4 35F81430 		ldrh	r3, [r5, r4, lsl #1]
 939:Middlewares/lvgl/src/draw/lv_draw_blend.c **** #endif
 217              		.loc 1 939 19 view .LVU68
 218 00b8 002B     		cmp	r3, #0
 219 00ba F6D0     		beq	.L7
 941:Middlewares/lvgl/src/draw/lv_draw_blend.c ****                 }
 220              		.loc 1 941 21 is_stmt 1 view .LVU69
 941:Middlewares/lvgl/src/draw/lv_draw_blend.c ****                 }
 221              		.loc 1 941 39 is_stmt 0 view .LVU70
 222 00bc 5246     		mov	r2, r10
 223 00be 38F81410 		ldrh	r1, [r8, r4, lsl #1]
 224 00c2 35F81400 		ldrh	r0, [r5, r4, lsl #1]
 225 00c6 B047     		blx	r6
 226              	.LVL19:
 227 00c8 28F81400 		strh	r0, [r8, r4, lsl #1]	@ movhi
 228 00cc EDE7     		b	.L7
 229              	.L20:
 944:Middlewares/lvgl/src/draw/lv_draw_blend.c ****             map_buf_tmp += map_w;
 230              		.loc 1 944 13 is_stmt 1 discriminator 2 view .LVU71
 944:Middlewares/lvgl/src/draw/lv_draw_blend.c ****             map_buf_tmp += map_w;
 231              		.loc 1 944 26 is_stmt 0 discriminator 2 view .LVU72
 232 00ce 08EB4908 		add	r8, r8, r9, lsl #1
 233              	.LVL20:
 945:Middlewares/lvgl/src/draw/lv_draw_blend.c ****         }
 234              		.loc 1 945 13 is_stmt 1 discriminator 2 view .LVU73
 945:Middlewares/lvgl/src/draw/lv_draw_blend.c ****         }
 235              		.loc 1 945 25 is_stmt 0 discriminator 2 view .LVU74
 236 00d2 019B     		ldr	r3, [sp, #4]
 237 00d4 05EB4305 		add	r5, r5, r3, lsl #1
 238              	.LVL21:
 934:Middlewares/lvgl/src/draw/lv_draw_blend.c ****             for(x = draw_area->x1; x <= draw_area->x2; x++) {
 239              		.loc 1 934 52 is_stmt 1 discriminator 2 view .LVU75
 934:Middlewares/lvgl/src/draw/lv_draw_blend.c ****             for(x = draw_area->x1; x <= draw_area->x2; x++) {
 240              		.loc 1 934 53 is_stmt 0 discriminator 2 view .LVU76
 241 00d8 0BF1010B 		add	fp, fp, #1
 242              	.LVL22:
 243              	.L5:
 934:Middlewares/lvgl/src/draw/lv_draw_blend.c ****             for(x = draw_area->x1; x <= draw_area->x2; x++) {
 244              		.loc 1 934 32 is_stmt 1 discriminator 1 view .LVU77
 934:Middlewares/lvgl/src/draw/lv_draw_blend.c ****             for(x = draw_area->x1; x <= draw_area->x2; x++) {
 245              		.loc 1 934 46 is_stmt 0 discriminator 1 view .LVU78
 246 00dc B7F90630 		ldrsh	r3, [r7, #6]
 934:Middlewares/lvgl/src/draw/lv_draw_blend.c ****             for(x = draw_area->x1; x <= draw_area->x2; x++) {
 247              		.loc 1 934 9 discriminator 1 view .LVU79
 248 00e0 5B45     		cmp	r3, fp
 249 00e2 31DB     		blt	.L1
 935:Middlewares/lvgl/src/draw/lv_draw_blend.c **** #if LV_COLOR_DEPTH == 32
 250              		.loc 1 935 13 is_stmt 1 view .LVU80
ARM GAS  /tmp/ccwyVXLY.s 			page 25


 935:Middlewares/lvgl/src/draw/lv_draw_blend.c **** #if LV_COLOR_DEPTH == 32
 251              		.loc 1 935 30 is_stmt 0 view .LVU81
 252 00e4 B7F90040 		ldrsh	r4, [r7]
 253              	.LVL23:
 935:Middlewares/lvgl/src/draw/lv_draw_blend.c **** #if LV_COLOR_DEPTH == 32
 254              		.loc 1 935 13 view .LVU82
 255 00e8 E0E7     		b	.L6
 256              	.LVL24:
 257              	.L17:
 258              	.LBB78:
 259              	.LBB76:
 957:Middlewares/lvgl/src/draw/lv_draw_blend.c ****             for(x = draw_area->x1; x <= draw_area->x2; x++) {
 958:Middlewares/lvgl/src/draw/lv_draw_blend.c ****                 if(mask_tmp[x] == 0) continue;
 959:Middlewares/lvgl/src/draw/lv_draw_blend.c ****                 lv_opa_t opa_tmp = mask_tmp[x] >= LV_OPA_MAX ? opa : ((opa * mask_tmp[x]) >> 8);
 260              		.loc 1 959 26 view .LVU83
 261 00ea 5246     		mov	r2, r10
 262 00ec 0EE0     		b	.L13
 263              	.L12:
 264              		.loc 1 959 26 view .LVU84
 265              	.LBE76:
 957:Middlewares/lvgl/src/draw/lv_draw_blend.c ****             for(x = draw_area->x1; x <= draw_area->x2; x++) {
 266              		.loc 1 957 56 is_stmt 1 discriminator 2 view .LVU85
 957:Middlewares/lvgl/src/draw/lv_draw_blend.c ****             for(x = draw_area->x1; x <= draw_area->x2; x++) {
 267              		.loc 1 957 57 is_stmt 0 discriminator 2 view .LVU86
 268 00ee 0134     		adds	r4, r4, #1
 269              	.LVL25:
 270              	.L11:
 957:Middlewares/lvgl/src/draw/lv_draw_blend.c ****             for(x = draw_area->x1; x <= draw_area->x2; x++) {
 271              		.loc 1 957 36 is_stmt 1 discriminator 1 view .LVU87
 957:Middlewares/lvgl/src/draw/lv_draw_blend.c ****             for(x = draw_area->x1; x <= draw_area->x2; x++) {
 272              		.loc 1 957 50 is_stmt 0 discriminator 1 view .LVU88
 273 00f0 B7F90430 		ldrsh	r3, [r7, #4]
 957:Middlewares/lvgl/src/draw/lv_draw_blend.c ****             for(x = draw_area->x1; x <= draw_area->x2; x++) {
 274              		.loc 1 957 13 discriminator 1 view .LVU89
 275 00f4 A342     		cmp	r3, r4
 276 00f6 16DB     		blt	.L21
 277              	.LBB77:
 958:Middlewares/lvgl/src/draw/lv_draw_blend.c ****                 lv_opa_t opa_tmp = mask_tmp[x] >= LV_OPA_MAX ? opa : ((opa * mask_tmp[x]) >> 8);
 278              		.loc 1 958 17 is_stmt 1 view .LVU90
 958:Middlewares/lvgl/src/draw/lv_draw_blend.c ****                 lv_opa_t opa_tmp = mask_tmp[x] >= LV_OPA_MAX ? opa : ((opa * mask_tmp[x]) >> 8);
 279              		.loc 1 958 28 is_stmt 0 view .LVU91
 280 00f8 2546     		mov	r5, r4
 281 00fa 19F80420 		ldrb	r2, [r9, r4]	@ zero_extendqisi2
 958:Middlewares/lvgl/src/draw/lv_draw_blend.c ****                 lv_opa_t opa_tmp = mask_tmp[x] >= LV_OPA_MAX ? opa : ((opa * mask_tmp[x]) >> 8);
 282              		.loc 1 958 19 view .LVU92
 283 00fe 002A     		cmp	r2, #0
 284 0100 F5D0     		beq	.L12
 285              		.loc 1 959 17 is_stmt 1 view .LVU93
 286              		.loc 1 959 26 is_stmt 0 view .LVU94
 287 0102 FC2A     		cmp	r2, #252
 288 0104 F1D8     		bhi	.L17
 289              		.loc 1 959 76 discriminator 1 view .LVU95
 290 0106 02FB0AF2 		mul	r2, r2, r10
 291              		.loc 1 959 26 discriminator 1 view .LVU96
 292 010a 120A     		lsrs	r2, r2, #8
 293              	.L13:
 294              	.LVL26:
ARM GAS  /tmp/ccwyVXLY.s 			page 26


 960:Middlewares/lvgl/src/draw/lv_draw_blend.c **** #if LV_COLOR_DEPTH == 32
 961:Middlewares/lvgl/src/draw/lv_draw_blend.c ****                 if(map_buf_tmp[x].full != 0xff000000) {
 962:Middlewares/lvgl/src/draw/lv_draw_blend.c **** #else
 963:Middlewares/lvgl/src/draw/lv_draw_blend.c ****                 if(map_buf_tmp[x].full != 0) {
 295              		.loc 1 963 17 is_stmt 1 discriminator 4 view .LVU97
 296              		.loc 1 963 34 is_stmt 0 discriminator 4 view .LVU98
 297 010c 36F81530 		ldrh	r3, [r6, r5, lsl #1]
 298              		.loc 1 963 19 discriminator 4 view .LVU99
 299 0110 002B     		cmp	r3, #0
 300 0112 ECD0     		beq	.L12
 964:Middlewares/lvgl/src/draw/lv_draw_blend.c **** #endif
 965:Middlewares/lvgl/src/draw/lv_draw_blend.c ****                     disp_buf_tmp[x] = blend_fp(map_buf_tmp[x], disp_buf_tmp[x], opa_tmp);
 301              		.loc 1 965 21 is_stmt 1 view .LVU100
 302              		.loc 1 965 39 is_stmt 0 view .LVU101
 303 0114 38F81510 		ldrh	r1, [r8, r5, lsl #1]
 304 0118 36F81500 		ldrh	r0, [r6, r5, lsl #1]
 305 011c 009B     		ldr	r3, [sp]
 306 011e 9847     		blx	r3
 307              	.LVL27:
 308              		.loc 1 965 39 view .LVU102
 309 0120 28F81500 		strh	r0, [r8, r5, lsl #1]	@ movhi
 310 0124 E3E7     		b	.L12
 311              	.L21:
 312              		.loc 1 965 39 view .LVU103
 313              	.LBE77:
 966:Middlewares/lvgl/src/draw/lv_draw_blend.c ****                 }
 967:Middlewares/lvgl/src/draw/lv_draw_blend.c **** 
 968:Middlewares/lvgl/src/draw/lv_draw_blend.c ****             }
 969:Middlewares/lvgl/src/draw/lv_draw_blend.c ****             disp_buf_tmp += disp_w;
 314              		.loc 1 969 13 is_stmt 1 discriminator 2 view .LVU104
 315              		.loc 1 969 26 is_stmt 0 discriminator 2 view .LVU105
 316 0126 029B     		ldr	r3, [sp, #8]
 317 0128 08EB4308 		add	r8, r8, r3, lsl #1
 318              	.LVL28:
 970:Middlewares/lvgl/src/draw/lv_draw_blend.c ****             mask_tmp += draw_area_w;
 319              		.loc 1 970 13 is_stmt 1 discriminator 2 view .LVU106
 320              		.loc 1 970 22 is_stmt 0 discriminator 2 view .LVU107
 321 012c 039B     		ldr	r3, [sp, #12]
 322 012e 9944     		add	r9, r9, r3
 323              	.LVL29:
 971:Middlewares/lvgl/src/draw/lv_draw_blend.c ****             map_buf_tmp += map_w;
 324              		.loc 1 971 13 is_stmt 1 discriminator 2 view .LVU108
 325              		.loc 1 971 25 is_stmt 0 discriminator 2 view .LVU109
 326 0130 019B     		ldr	r3, [sp, #4]
 327 0132 06EB4306 		add	r6, r6, r3, lsl #1
 328              	.LVL30:
 956:Middlewares/lvgl/src/draw/lv_draw_blend.c ****             for(x = draw_area->x1; x <= draw_area->x2; x++) {
 329              		.loc 1 956 52 is_stmt 1 discriminator 2 view .LVU110
 956:Middlewares/lvgl/src/draw/lv_draw_blend.c ****             for(x = draw_area->x1; x <= draw_area->x2; x++) {
 330              		.loc 1 956 53 is_stmt 0 discriminator 2 view .LVU111
 331 0136 0BF1010B 		add	fp, fp, #1
 332              	.LVL31:
 333              	.L10:
 956:Middlewares/lvgl/src/draw/lv_draw_blend.c ****             for(x = draw_area->x1; x <= draw_area->x2; x++) {
 334              		.loc 1 956 32 is_stmt 1 discriminator 1 view .LVU112
 956:Middlewares/lvgl/src/draw/lv_draw_blend.c ****             for(x = draw_area->x1; x <= draw_area->x2; x++) {
 335              		.loc 1 956 46 is_stmt 0 discriminator 1 view .LVU113
ARM GAS  /tmp/ccwyVXLY.s 			page 27


 336 013a B7F90630 		ldrsh	r3, [r7, #6]
 956:Middlewares/lvgl/src/draw/lv_draw_blend.c ****             for(x = draw_area->x1; x <= draw_area->x2; x++) {
 337              		.loc 1 956 9 discriminator 1 view .LVU114
 338 013e 5B45     		cmp	r3, fp
 339 0140 02DB     		blt	.L1
 957:Middlewares/lvgl/src/draw/lv_draw_blend.c ****                 if(mask_tmp[x] == 0) continue;
 340              		.loc 1 957 13 is_stmt 1 view .LVU115
 957:Middlewares/lvgl/src/draw/lv_draw_blend.c ****                 if(mask_tmp[x] == 0) continue;
 341              		.loc 1 957 30 is_stmt 0 view .LVU116
 342 0142 B7F90040 		ldrsh	r4, [r7]
 343              	.LVL32:
 957:Middlewares/lvgl/src/draw/lv_draw_blend.c ****                 if(mask_tmp[x] == 0) continue;
 344              		.loc 1 957 13 view .LVU117
 345 0146 D3E7     		b	.L11
 346              	.LVL33:
 347              	.L1:
 957:Middlewares/lvgl/src/draw/lv_draw_blend.c ****                 if(mask_tmp[x] == 0) continue;
 348              		.loc 1 957 13 view .LVU118
 349              	.LBE78:
 972:Middlewares/lvgl/src/draw/lv_draw_blend.c ****         }
 973:Middlewares/lvgl/src/draw/lv_draw_blend.c ****     }
 974:Middlewares/lvgl/src/draw/lv_draw_blend.c **** }
 350              		.loc 1 974 1 view .LVU119
 351 0148 05B0     		add	sp, sp, #20
 352              	.LCFI2:
 353              		.cfi_def_cfa_offset 36
 354              		@ sp needed
 355 014a BDE8F08F 		pop	{r4, r5, r6, r7, r8, r9, r10, fp, pc}
 356              	.LVL34:
 357              	.L23:
 358              		.loc 1 974 1 view .LVU120
 359 014e 00BF     		.align	2
 360              	.L22:
 361 0150 00000000 		.word	color_blend_true_color_subtractive
 362 0154 00000000 		.word	color_blend_true_color_additive
 363              		.cfi_endproc
 364              	.LFE154:
 366              		.section	.text.fill_set_px,"ax",%progbits
 367              		.align	1
 368              		.syntax unified
 369              		.thumb
 370              		.thumb_func
 371              		.fpu softvfp
 373              	fill_set_px:
 374              	.LVL35:
 375              	.LFB149:
 245:Middlewares/lvgl/src/draw/lv_draw_blend.c **** 
 376              		.loc 1 245 1 is_stmt 1 view -0
 377              		.cfi_startproc
 378              		@ args = 12, pretend = 0, frame = 16
 379              		@ frame_needed = 0, uses_anonymous_args = 0
 245:Middlewares/lvgl/src/draw/lv_draw_blend.c **** 
 380              		.loc 1 245 1 is_stmt 0 view .LVU122
 381 0000 2DE9F04F 		push	{r4, r5, r6, r7, r8, r9, r10, fp, lr}
 382              	.LCFI3:
 383              		.cfi_def_cfa_offset 36
 384              		.cfi_offset 4, -36
ARM GAS  /tmp/ccwyVXLY.s 			page 28


 385              		.cfi_offset 5, -32
 386              		.cfi_offset 6, -28
 387              		.cfi_offset 7, -24
 388              		.cfi_offset 8, -20
 389              		.cfi_offset 9, -16
 390              		.cfi_offset 10, -12
 391              		.cfi_offset 11, -8
 392              		.cfi_offset 14, -4
 393 0004 89B0     		sub	sp, sp, #36
 394              	.LCFI4:
 395              		.cfi_def_cfa_offset 72
 396 0006 0446     		mov	r4, r0
 397 0008 0691     		str	r1, [sp, #24]
 398 000a 1546     		mov	r5, r2
 399 000c 9946     		mov	r9, r3	@ movhi
 400              	.LVL36:
 245:Middlewares/lvgl/src/draw/lv_draw_blend.c **** 
 401              		.loc 1 245 1 view .LVU123
 402 000e 9DF848A0 		ldrb	r10, [sp, #72]	@ zero_extendqisi2
 247:Middlewares/lvgl/src/draw/lv_draw_blend.c **** 
 403              		.loc 1 247 5 is_stmt 1 view .LVU124
 247:Middlewares/lvgl/src/draw/lv_draw_blend.c **** 
 404              		.loc 1 247 24 is_stmt 0 view .LVU125
 405 0012 FFF7FEFF 		bl	_lv_refr_get_disp_refreshing
 406              	.LVL37:
 247:Middlewares/lvgl/src/draw/lv_draw_blend.c **** 
 407              		.loc 1 247 24 view .LVU126
 408 0016 8046     		mov	r8, r0
 409              	.LVL38:
 250:Middlewares/lvgl/src/draw/lv_draw_blend.c **** 
 410              		.loc 1 250 5 is_stmt 1 view .LVU127
 411              	.LBB79:
 412              	.LBI79:
 133:Middlewares/lvgl/src/draw/../misc/lv_area.h **** {
 413              		.loc 2 133 26 view .LVU128
 414              	.LBB80:
 415              		.loc 2 135 5 view .LVU129
 416              		.loc 2 135 31 is_stmt 0 view .LVU130
 417 0018 A788     		ldrh	r7, [r4, #4]
 418              		.loc 2 135 44 view .LVU131
 419 001a 2388     		ldrh	r3, [r4]
 420              		.loc 2 135 36 view .LVU132
 421 001c FF1A     		subs	r7, r7, r3
 422 001e BFB2     		uxth	r7, r7
 423              		.loc 2 135 49 view .LVU133
 424 0020 0137     		adds	r7, r7, #1
 425              		.loc 2 135 12 view .LVU134
 426 0022 3FB2     		sxth	r7, r7
 427              	.LVL39:
 428              		.loc 2 135 12 view .LVU135
 429              	.LBE80:
 430              	.LBE79:
 252:Middlewares/lvgl/src/draw/lv_draw_blend.c ****     int32_t y;
 431              		.loc 1 252 5 is_stmt 1 view .LVU136
 253:Middlewares/lvgl/src/draw/lv_draw_blend.c **** 
 432              		.loc 1 253 5 view .LVU137
 255:Middlewares/lvgl/src/draw/lv_draw_blend.c ****         for(y = draw_area->y1; y <= draw_area->y2; y++) {
ARM GAS  /tmp/ccwyVXLY.s 			page 29


 433              		.loc 1 255 5 view .LVU138
 255:Middlewares/lvgl/src/draw/lv_draw_blend.c ****         for(y = draw_area->y1; y <= draw_area->y2; y++) {
 434              		.loc 1 255 7 is_stmt 0 view .LVU139
 435 0024 9DF85030 		ldrb	r3, [sp, #80]	@ zero_extendqisi2
 436 0028 012B     		cmp	r3, #1
 437 002a 0FD0     		beq	.L37
 438              	.LBB81:
 266:Middlewares/lvgl/src/draw/lv_draw_blend.c **** 
 439              		.loc 1 266 9 is_stmt 1 view .LVU140
 266:Middlewares/lvgl/src/draw/lv_draw_blend.c **** 
 440              		.loc 1 266 53 is_stmt 0 view .LVU141
 441 002c B5F90020 		ldrsh	r2, [r5]
 266:Middlewares/lvgl/src/draw/lv_draw_blend.c **** 
 442              		.loc 1 266 26 view .LVU142
 443 0030 139E     		ldr	r6, [sp, #76]
 444 0032 B61A     		subs	r6, r6, r2
 445              	.LVL40:
 269:Middlewares/lvgl/src/draw/lv_draw_blend.c **** 
 446              		.loc 1 269 9 is_stmt 1 view .LVU143
 447              	.LBB82:
 448              	.LBI82:
 133:Middlewares/lvgl/src/draw/../misc/lv_area.h **** {
 449              		.loc 2 133 26 view .LVU144
 450              	.LBB83:
 451              		.loc 2 135 5 view .LVU145
 452              		.loc 2 135 31 is_stmt 0 view .LVU146
 453 0034 AB88     		ldrh	r3, [r5, #4]
 454              		.loc 2 135 44 view .LVU147
 455 0036 92B2     		uxth	r2, r2
 456              		.loc 2 135 36 view .LVU148
 457 0038 9B1A     		subs	r3, r3, r2
 458 003a 9BB2     		uxth	r3, r3
 459              		.loc 2 135 49 view .LVU149
 460 003c 0133     		adds	r3, r3, #1
 461              		.loc 2 135 12 view .LVU150
 462 003e 1BB2     		sxth	r3, r3
 463 0040 0793     		str	r3, [sp, #28]
 464              	.LVL41:
 465              		.loc 2 135 12 view .LVU151
 466              	.LBE83:
 467              	.LBE82:
 271:Middlewares/lvgl/src/draw/lv_draw_blend.c ****             for(x = draw_area->x1; x <= draw_area->x2; x++) {
 468              		.loc 1 271 9 is_stmt 1 view .LVU152
 271:Middlewares/lvgl/src/draw/lv_draw_blend.c ****             for(x = draw_area->x1; x <= draw_area->x2; x++) {
 469              		.loc 1 271 26 is_stmt 0 view .LVU153
 470 0042 B5F90230 		ldrsh	r3, [r5, #2]
 471              	.LVL42:
 271:Middlewares/lvgl/src/draw/lv_draw_blend.c ****             for(x = draw_area->x1; x <= draw_area->x2; x++) {
 472              		.loc 1 271 26 view .LVU154
 473 0046 9B46     		mov	fp, r3
 474 0048 0597     		str	r7, [sp, #20]
 271:Middlewares/lvgl/src/draw/lv_draw_blend.c ****             for(x = draw_area->x1; x <= draw_area->x2; x++) {
 475              		.loc 1 271 9 view .LVU155
 476 004a 41E0     		b	.L31
 477              	.LVL43:
 478              	.L37:
 271:Middlewares/lvgl/src/draw/lv_draw_blend.c ****             for(x = draw_area->x1; x <= draw_area->x2; x++) {
ARM GAS  /tmp/ccwyVXLY.s 			page 30


 479              		.loc 1 271 9 view .LVU156
 480              	.LBE81:
 256:Middlewares/lvgl/src/draw/lv_draw_blend.c ****             for(x = draw_area->x1; x <= draw_area->x2; x++) {
 481              		.loc 1 256 9 is_stmt 1 view .LVU157
 256:Middlewares/lvgl/src/draw/lv_draw_blend.c ****             for(x = draw_area->x1; x <= draw_area->x2; x++) {
 482              		.loc 1 256 26 is_stmt 0 view .LVU158
 483 004c B5F902B0 		ldrsh	fp, [r5, #2]
 484              	.LVL44:
 256:Middlewares/lvgl/src/draw/lv_draw_blend.c ****             for(x = draw_area->x1; x <= draw_area->x2; x++) {
 485              		.loc 1 256 26 view .LVU159
 486 0050 CDF814B0 		str	fp, [sp, #20]
 487 0054 DDF818B0 		ldr	fp, [sp, #24]
 488              	.LVL45:
 256:Middlewares/lvgl/src/draw/lv_draw_blend.c ****             for(x = draw_area->x1; x <= draw_area->x2; x++) {
 489              		.loc 1 256 9 view .LVU160
 490 0058 15E0     		b	.L26
 491              	.LVL46:
 492              	.L28:
 258:Middlewares/lvgl/src/draw/lv_draw_blend.c ****             }
 493              		.loc 1 258 17 is_stmt 1 discriminator 3 view .LVU161
 258:Middlewares/lvgl/src/draw/lv_draw_blend.c ****             }
 494              		.loc 1 258 21 is_stmt 0 discriminator 3 view .LVU162
 495 005a D8F80000 		ldr	r0, [r8]
 258:Middlewares/lvgl/src/draw/lv_draw_blend.c ****             }
 496              		.loc 1 258 29 discriminator 3 view .LVU163
 497 005e 4669     		ldr	r6, [r0, #20]
 258:Middlewares/lvgl/src/draw/lv_draw_blend.c ****             }
 498              		.loc 1 258 17 discriminator 3 view .LVU164
 499 0060 CDF808A0 		str	r10, [sp, #8]
 500 0064 ADF80490 		strh	r9, [sp, #4]	@ movhi
 501 0068 BDF91430 		ldrsh	r3, [sp, #20]
 502 006c 0093     		str	r3, [sp]
 503 006e 23B2     		sxth	r3, r4
 504 0070 3A46     		mov	r2, r7
 505 0072 5946     		mov	r1, fp
 506 0074 B047     		blx	r6
 507              	.LVL47:
 257:Middlewares/lvgl/src/draw/lv_draw_blend.c ****                 disp->driver->set_px_cb(disp->driver, (void *)disp_buf, disp_w, x, y, color, opa);
 508              		.loc 1 257 56 is_stmt 1 discriminator 3 view .LVU165
 257:Middlewares/lvgl/src/draw/lv_draw_blend.c ****                 disp->driver->set_px_cb(disp->driver, (void *)disp_buf, disp_w, x, y, color, opa);
 509              		.loc 1 257 57 is_stmt 0 discriminator 3 view .LVU166
 510 0076 0134     		adds	r4, r4, #1
 511              	.LVL48:
 512              	.L27:
 257:Middlewares/lvgl/src/draw/lv_draw_blend.c ****                 disp->driver->set_px_cb(disp->driver, (void *)disp_buf, disp_w, x, y, color, opa);
 513              		.loc 1 257 36 is_stmt 1 discriminator 1 view .LVU167
 257:Middlewares/lvgl/src/draw/lv_draw_blend.c ****                 disp->driver->set_px_cb(disp->driver, (void *)disp_buf, disp_w, x, y, color, opa);
 514              		.loc 1 257 50 is_stmt 0 discriminator 1 view .LVU168
 515 0078 B5F90430 		ldrsh	r3, [r5, #4]
 257:Middlewares/lvgl/src/draw/lv_draw_blend.c ****                 disp->driver->set_px_cb(disp->driver, (void *)disp_buf, disp_w, x, y, color, opa);
 516              		.loc 1 257 13 discriminator 1 view .LVU169
 517 007c A342     		cmp	r3, r4
 518 007e ECDA     		bge	.L28
 256:Middlewares/lvgl/src/draw/lv_draw_blend.c ****             for(x = draw_area->x1; x <= draw_area->x2; x++) {
 519              		.loc 1 256 52 is_stmt 1 discriminator 2 view .LVU170
 256:Middlewares/lvgl/src/draw/lv_draw_blend.c ****             for(x = draw_area->x1; x <= draw_area->x2; x++) {
 520              		.loc 1 256 53 is_stmt 0 discriminator 2 view .LVU171
ARM GAS  /tmp/ccwyVXLY.s 			page 31


 521 0080 059B     		ldr	r3, [sp, #20]
 522 0082 0133     		adds	r3, r3, #1
 523 0084 0593     		str	r3, [sp, #20]
 524              	.LVL49:
 525              	.L26:
 256:Middlewares/lvgl/src/draw/lv_draw_blend.c ****             for(x = draw_area->x1; x <= draw_area->x2; x++) {
 526              		.loc 1 256 32 is_stmt 1 discriminator 1 view .LVU172
 256:Middlewares/lvgl/src/draw/lv_draw_blend.c ****             for(x = draw_area->x1; x <= draw_area->x2; x++) {
 527              		.loc 1 256 46 is_stmt 0 discriminator 1 view .LVU173
 528 0086 B5F90630 		ldrsh	r3, [r5, #6]
 256:Middlewares/lvgl/src/draw/lv_draw_blend.c ****             for(x = draw_area->x1; x <= draw_area->x2; x++) {
 529              		.loc 1 256 9 discriminator 1 view .LVU174
 530 008a 059A     		ldr	r2, [sp, #20]
 531 008c 9342     		cmp	r3, r2
 532 008e 26DB     		blt	.L24
 257:Middlewares/lvgl/src/draw/lv_draw_blend.c ****                 disp->driver->set_px_cb(disp->driver, (void *)disp_buf, disp_w, x, y, color, opa);
 533              		.loc 1 257 13 is_stmt 1 view .LVU175
 257:Middlewares/lvgl/src/draw/lv_draw_blend.c ****                 disp->driver->set_px_cb(disp->driver, (void *)disp_buf, disp_w, x, y, color, opa);
 534              		.loc 1 257 30 is_stmt 0 view .LVU176
 535 0090 B5F90040 		ldrsh	r4, [r5]
 536              	.LVL50:
 257:Middlewares/lvgl/src/draw/lv_draw_blend.c ****                 disp->driver->set_px_cb(disp->driver, (void *)disp_buf, disp_w, x, y, color, opa);
 537              		.loc 1 257 13 view .LVU177
 538 0094 F0E7     		b	.L27
 539              	.LVL51:
 540              	.L33:
 541              	.LBB84:
 272:Middlewares/lvgl/src/draw/lv_draw_blend.c ****                 if(mask_tmp[x]) {
 542              		.loc 1 272 56 is_stmt 1 discriminator 2 view .LVU178
 272:Middlewares/lvgl/src/draw/lv_draw_blend.c ****                 if(mask_tmp[x]) {
 543              		.loc 1 272 57 is_stmt 0 discriminator 2 view .LVU179
 544 0096 0134     		adds	r4, r4, #1
 545              	.LVL52:
 546              	.L32:
 272:Middlewares/lvgl/src/draw/lv_draw_blend.c ****                 if(mask_tmp[x]) {
 547              		.loc 1 272 36 is_stmt 1 discriminator 1 view .LVU180
 272:Middlewares/lvgl/src/draw/lv_draw_blend.c ****                 if(mask_tmp[x]) {
 548              		.loc 1 272 50 is_stmt 0 discriminator 1 view .LVU181
 549 0098 B5F90430 		ldrsh	r3, [r5, #4]
 272:Middlewares/lvgl/src/draw/lv_draw_blend.c ****                 if(mask_tmp[x]) {
 550              		.loc 1 272 13 discriminator 1 view .LVU182
 551 009c A342     		cmp	r3, r4
 552 009e 13DB     		blt	.L38
 273:Middlewares/lvgl/src/draw/lv_draw_blend.c ****                     disp->driver->set_px_cb(disp->driver, (void *)disp_buf, disp_w, x, y, color,
 553              		.loc 1 273 17 is_stmt 1 view .LVU183
 273:Middlewares/lvgl/src/draw/lv_draw_blend.c ****                     disp->driver->set_px_cb(disp->driver, (void *)disp_buf, disp_w, x, y, color,
 554              		.loc 1 273 28 is_stmt 0 view .LVU184
 555 00a0 335D     		ldrb	r3, [r6, r4]	@ zero_extendqisi2
 273:Middlewares/lvgl/src/draw/lv_draw_blend.c ****                     disp->driver->set_px_cb(disp->driver, (void *)disp_buf, disp_w, x, y, color,
 556              		.loc 1 273 19 view .LVU185
 557 00a2 002B     		cmp	r3, #0
 558 00a4 F7D0     		beq	.L33
 274:Middlewares/lvgl/src/draw/lv_draw_blend.c ****                                            (uint32_t)((uint32_t)opa * mask_tmp[x]) >> 8);
 559              		.loc 1 274 21 is_stmt 1 view .LVU186
 274:Middlewares/lvgl/src/draw/lv_draw_blend.c ****                                            (uint32_t)((uint32_t)opa * mask_tmp[x]) >> 8);
 560              		.loc 1 274 25 is_stmt 0 view .LVU187
 561 00a6 D8F80000 		ldr	r0, [r8]
ARM GAS  /tmp/ccwyVXLY.s 			page 32


 274:Middlewares/lvgl/src/draw/lv_draw_blend.c ****                                            (uint32_t)((uint32_t)opa * mask_tmp[x]) >> 8);
 562              		.loc 1 274 33 view .LVU188
 563 00aa 4769     		ldr	r7, [r0, #20]
 275:Middlewares/lvgl/src/draw/lv_draw_blend.c ****                 }
 564              		.loc 1 275 44 view .LVU189
 565 00ac 03FB0AF3 		mul	r3, r3, r10
 274:Middlewares/lvgl/src/draw/lv_draw_blend.c ****                                            (uint32_t)((uint32_t)opa * mask_tmp[x]) >> 8);
 566              		.loc 1 274 21 view .LVU190
 567 00b0 1B0A     		lsrs	r3, r3, #8
 568 00b2 0293     		str	r3, [sp, #8]
 569 00b4 ADF80490 		strh	r9, [sp, #4]	@ movhi
 570 00b8 0FFA8BF3 		sxth	r3, fp
 571 00bc 0093     		str	r3, [sp]
 572 00be 23B2     		sxth	r3, r4
 573 00c0 059A     		ldr	r2, [sp, #20]
 574 00c2 0699     		ldr	r1, [sp, #24]
 575 00c4 B847     		blx	r7
 576              	.LVL53:
 577 00c6 E6E7     		b	.L33
 578              	.L38:
 278:Middlewares/lvgl/src/draw/lv_draw_blend.c ****         }
 579              		.loc 1 278 13 is_stmt 1 discriminator 2 view .LVU191
 278:Middlewares/lvgl/src/draw/lv_draw_blend.c ****         }
 580              		.loc 1 278 22 is_stmt 0 discriminator 2 view .LVU192
 581 00c8 079B     		ldr	r3, [sp, #28]
 582 00ca 1E44     		add	r6, r6, r3
 583              	.LVL54:
 271:Middlewares/lvgl/src/draw/lv_draw_blend.c ****             for(x = draw_area->x1; x <= draw_area->x2; x++) {
 584              		.loc 1 271 52 is_stmt 1 discriminator 2 view .LVU193
 271:Middlewares/lvgl/src/draw/lv_draw_blend.c ****             for(x = draw_area->x1; x <= draw_area->x2; x++) {
 585              		.loc 1 271 53 is_stmt 0 discriminator 2 view .LVU194
 586 00cc 0BF1010B 		add	fp, fp, #1
 587              	.LVL55:
 588              	.L31:
 271:Middlewares/lvgl/src/draw/lv_draw_blend.c ****             for(x = draw_area->x1; x <= draw_area->x2; x++) {
 589              		.loc 1 271 32 is_stmt 1 discriminator 1 view .LVU195
 271:Middlewares/lvgl/src/draw/lv_draw_blend.c ****             for(x = draw_area->x1; x <= draw_area->x2; x++) {
 590              		.loc 1 271 46 is_stmt 0 discriminator 1 view .LVU196
 591 00d0 B5F90630 		ldrsh	r3, [r5, #6]
 271:Middlewares/lvgl/src/draw/lv_draw_blend.c ****             for(x = draw_area->x1; x <= draw_area->x2; x++) {
 592              		.loc 1 271 9 discriminator 1 view .LVU197
 593 00d4 5B45     		cmp	r3, fp
 594 00d6 02DB     		blt	.L24
 272:Middlewares/lvgl/src/draw/lv_draw_blend.c ****                 if(mask_tmp[x]) {
 595              		.loc 1 272 13 is_stmt 1 view .LVU198
 272:Middlewares/lvgl/src/draw/lv_draw_blend.c ****                 if(mask_tmp[x]) {
 596              		.loc 1 272 30 is_stmt 0 view .LVU199
 597 00d8 B5F90040 		ldrsh	r4, [r5]
 598              	.LVL56:
 272:Middlewares/lvgl/src/draw/lv_draw_blend.c ****                 if(mask_tmp[x]) {
 599              		.loc 1 272 13 view .LVU200
 600 00dc DCE7     		b	.L32
 601              	.LVL57:
 602              	.L24:
 272:Middlewares/lvgl/src/draw/lv_draw_blend.c ****                 if(mask_tmp[x]) {
 603              		.loc 1 272 13 view .LVU201
 604              	.LBE84:
ARM GAS  /tmp/ccwyVXLY.s 			page 33


 281:Middlewares/lvgl/src/draw/lv_draw_blend.c **** 
 605              		.loc 1 281 1 view .LVU202
 606 00de 09B0     		add	sp, sp, #36
 607              	.LCFI5:
 608              		.cfi_def_cfa_offset 36
 609              		@ sp needed
 610 00e0 BDE8F08F 		pop	{r4, r5, r6, r7, r8, r9, r10, fp, pc}
 281:Middlewares/lvgl/src/draw/lv_draw_blend.c **** 
 611              		.loc 1 281 1 view .LVU203
 612              		.cfi_endproc
 613              	.LFE149:
 615              		.section	.text.map_set_px,"ax",%progbits
 616              		.align	1
 617              		.syntax unified
 618              		.thumb
 619              		.thumb_func
 620              		.fpu softvfp
 622              	map_set_px:
 623              	.LVL58:
 624              	.LFB152:
 596:Middlewares/lvgl/src/draw/lv_draw_blend.c ****     lv_disp_t * disp = _lv_refr_get_disp_refreshing();
 625              		.loc 1 596 1 is_stmt 1 view -0
 626              		.cfi_startproc
 627              		@ args = 16, pretend = 0, frame = 24
 628              		@ frame_needed = 0, uses_anonymous_args = 0
 596:Middlewares/lvgl/src/draw/lv_draw_blend.c ****     lv_disp_t * disp = _lv_refr_get_disp_refreshing();
 629              		.loc 1 596 1 is_stmt 0 view .LVU205
 630 0000 2DE9F04F 		push	{r4, r5, r6, r7, r8, r9, r10, fp, lr}
 631              	.LCFI6:
 632              		.cfi_def_cfa_offset 36
 633              		.cfi_offset 4, -36
 634              		.cfi_offset 5, -32
 635              		.cfi_offset 6, -28
 636              		.cfi_offset 7, -24
 637              		.cfi_offset 8, -20
 638              		.cfi_offset 9, -16
 639              		.cfi_offset 10, -12
 640              		.cfi_offset 11, -8
 641              		.cfi_offset 14, -4
 642 0004 8BB0     		sub	sp, sp, #44
 643              	.LCFI7:
 644              		.cfi_def_cfa_offset 80
 645 0006 0446     		mov	r4, r0
 646 0008 0691     		str	r1, [sp, #24]
 647 000a 1546     		mov	r5, r2
 648 000c 1E46     		mov	r6, r3
 649 000e 9DF854A0 		ldrb	r10, [sp, #84]	@ zero_extendqisi2
 597:Middlewares/lvgl/src/draw/lv_draw_blend.c **** 
 650              		.loc 1 597 5 is_stmt 1 view .LVU206
 597:Middlewares/lvgl/src/draw/lv_draw_blend.c **** 
 651              		.loc 1 597 24 is_stmt 0 view .LVU207
 652 0012 FFF7FEFF 		bl	_lv_refr_get_disp_refreshing
 653              	.LVL59:
 597:Middlewares/lvgl/src/draw/lv_draw_blend.c **** 
 654              		.loc 1 597 24 view .LVU208
 655 0016 8146     		mov	r9, r0
 656              	.LVL60:
ARM GAS  /tmp/ccwyVXLY.s 			page 34


 600:Middlewares/lvgl/src/draw/lv_draw_blend.c **** 
 657              		.loc 1 600 5 is_stmt 1 view .LVU209
 658              	.LBB85:
 659              	.LBI85:
 133:Middlewares/lvgl/src/draw/../misc/lv_area.h **** {
 660              		.loc 2 133 26 view .LVU210
 661              	.LBB86:
 662              		.loc 2 135 5 view .LVU211
 663              		.loc 2 135 31 is_stmt 0 view .LVU212
 664 0018 B4F80480 		ldrh	r8, [r4, #4]
 665              		.loc 2 135 44 view .LVU213
 666 001c B4F90000 		ldrsh	r0, [r4]
 667              	.LVL61:
 668              		.loc 2 135 44 view .LVU214
 669 0020 83B2     		uxth	r3, r0
 670              		.loc 2 135 36 view .LVU215
 671 0022 A8EB0308 		sub	r8, r8, r3
 672 0026 1FFA88F8 		uxth	r8, r8
 673              		.loc 2 135 49 view .LVU216
 674 002a 08F10108 		add	r8, r8, #1
 675              		.loc 2 135 12 view .LVU217
 676 002e 0FFA88F8 		sxth	r8, r8
 677              	.LVL62:
 678              		.loc 2 135 12 view .LVU218
 679              	.LBE86:
 680              	.LBE85:
 603:Middlewares/lvgl/src/draw/lv_draw_blend.c **** 
 681              		.loc 1 603 5 is_stmt 1 view .LVU219
 682              	.LBB87:
 683              	.LBI87:
 133:Middlewares/lvgl/src/draw/../misc/lv_area.h **** {
 684              		.loc 2 133 26 view .LVU220
 685              	.LBB88:
 686              		.loc 2 135 5 view .LVU221
 687              		.loc 2 135 31 is_stmt 0 view .LVU222
 688 0032 AB88     		ldrh	r3, [r5, #4]
 689              		.loc 2 135 44 view .LVU223
 690 0034 B5F90020 		ldrsh	r2, [r5]
 691 0038 91B2     		uxth	r1, r2
 692              		.loc 2 135 36 view .LVU224
 693 003a 5B1A     		subs	r3, r3, r1
 694 003c 9BB2     		uxth	r3, r3
 695              		.loc 2 135 49 view .LVU225
 696 003e 0133     		adds	r3, r3, #1
 697              		.loc 2 135 12 view .LVU226
 698 0040 1BB2     		sxth	r3, r3
 699 0042 0993     		str	r3, [sp, #36]
 700              	.LVL63:
 701              		.loc 2 135 12 view .LVU227
 702              	.LBE88:
 703              	.LBE87:
 606:Middlewares/lvgl/src/draw/lv_draw_blend.c **** 
 704              		.loc 1 606 5 is_stmt 1 view .LVU228
 705              	.LBB89:
 706              	.LBI89:
 133:Middlewares/lvgl/src/draw/../misc/lv_area.h **** {
 707              		.loc 2 133 26 view .LVU229
ARM GAS  /tmp/ccwyVXLY.s 			page 35


 708              	.LBB90:
 709              		.loc 2 135 5 view .LVU230
 710              		.loc 2 135 31 is_stmt 0 view .LVU231
 711 0044 B188     		ldrh	r1, [r6, #4]
 712              		.loc 2 135 44 view .LVU232
 713 0046 B6F90030 		ldrsh	r3, [r6]
 714 004a 9FB2     		uxth	r7, r3
 715              		.loc 2 135 36 view .LVU233
 716 004c C91B     		subs	r1, r1, r7
 717 004e 89B2     		uxth	r1, r1
 718              		.loc 2 135 49 view .LVU234
 719 0050 0131     		adds	r1, r1, #1
 720              		.loc 2 135 12 view .LVU235
 721 0052 0FB2     		sxth	r7, r1
 722 0054 0897     		str	r7, [sp, #32]
 723              	.LVL64:
 724              		.loc 2 135 12 view .LVU236
 725              	.LBE90:
 726              	.LBE89:
 609:Middlewares/lvgl/src/draw/lv_draw_blend.c **** 
 727              		.loc 1 609 5 is_stmt 1 view .LVU237
 609:Middlewares/lvgl/src/draw/lv_draw_blend.c **** 
 728              		.loc 1 609 66 is_stmt 0 view .LVU238
 729 0056 B5F902C0 		ldrsh	ip, [r5, #2]
 730 005a CDF814C0 		str	ip, [sp, #20]
 609:Middlewares/lvgl/src/draw/lv_draw_blend.c **** 
 731              		.loc 1 609 82 view .LVU239
 732 005e B6F90260 		ldrsh	r6, [r6, #2]
 733              	.LVL65:
 609:Middlewares/lvgl/src/draw/lv_draw_blend.c **** 
 734              		.loc 1 609 98 view .LVU240
 735 0062 B4F90210 		ldrsh	r1, [r4, #2]
 609:Middlewares/lvgl/src/draw/lv_draw_blend.c **** 
 736              		.loc 1 609 87 view .LVU241
 737 0066 761A     		subs	r6, r6, r1
 609:Middlewares/lvgl/src/draw/lv_draw_blend.c **** 
 738              		.loc 1 609 71 view .LVU242
 739 0068 6146     		mov	r1, ip
 740 006a 8E1B     		subs	r6, r1, r6
 741              	.LVL66:
 611:Middlewares/lvgl/src/draw/lv_draw_blend.c ****     map_buf_tmp -= draw_area->x1;
 742              		.loc 1 611 5 is_stmt 1 view .LVU243
 611:Middlewares/lvgl/src/draw/lv_draw_blend.c ****     map_buf_tmp -= draw_area->x1;
 743              		.loc 1 611 51 is_stmt 0 view .LVU244
 744 006c 1B1A     		subs	r3, r3, r0
 611:Middlewares/lvgl/src/draw/lv_draw_blend.c ****     map_buf_tmp -= draw_area->x1;
 745              		.loc 1 611 35 view .LVU245
 746 006e D31A     		subs	r3, r2, r3
 747              	.LVL67:
 612:Middlewares/lvgl/src/draw/lv_draw_blend.c ****     int32_t x;
 748              		.loc 1 612 5 is_stmt 1 view .LVU246
 612:Middlewares/lvgl/src/draw/lv_draw_blend.c ****     int32_t x;
 749              		.loc 1 612 17 is_stmt 0 view .LVU247
 750 0070 07FB0636 		mla	r6, r7, r6, r3
 751              	.LVL68:
 612:Middlewares/lvgl/src/draw/lv_draw_blend.c ****     int32_t x;
 752              		.loc 1 612 17 view .LVU248
ARM GAS  /tmp/ccwyVXLY.s 			page 36


 753 0074 B31A     		subs	r3, r6, r2
 754              	.LVL69:
 612:Middlewares/lvgl/src/draw/lv_draw_blend.c ****     int32_t x;
 755              		.loc 1 612 17 view .LVU249
 756 0076 149E     		ldr	r6, [sp, #80]
 757 0078 06EB4306 		add	r6, r6, r3, lsl #1
 758              	.LVL70:
 613:Middlewares/lvgl/src/draw/lv_draw_blend.c ****     int32_t y;
 759              		.loc 1 613 5 is_stmt 1 view .LVU250
 614:Middlewares/lvgl/src/draw/lv_draw_blend.c **** 
 760              		.loc 1 614 5 view .LVU251
 616:Middlewares/lvgl/src/draw/lv_draw_blend.c ****         for(y = draw_area->y1; y <= draw_area->y2; y++) {
 761              		.loc 1 616 5 view .LVU252
 616:Middlewares/lvgl/src/draw/lv_draw_blend.c ****         for(y = draw_area->y1; y <= draw_area->y2; y++) {
 762              		.loc 1 616 7 is_stmt 0 view .LVU253
 763 007c 9DF85C30 		ldrb	r3, [sp, #92]	@ zero_extendqisi2
 764 0080 012B     		cmp	r3, #1
 765 0082 07D0     		beq	.L53
 766              	.LBB91:
 628:Middlewares/lvgl/src/draw/lv_draw_blend.c **** 
 767              		.loc 1 628 9 is_stmt 1 view .LVU254
 628:Middlewares/lvgl/src/draw/lv_draw_blend.c **** 
 768              		.loc 1 628 26 is_stmt 0 view .LVU255
 769 0084 169F     		ldr	r7, [sp, #88]
 770              	.LVL71:
 628:Middlewares/lvgl/src/draw/lv_draw_blend.c **** 
 771              		.loc 1 628 26 view .LVU256
 772 0086 BF1A     		subs	r7, r7, r2
 773              	.LVL72:
 630:Middlewares/lvgl/src/draw/lv_draw_blend.c ****             for(x = draw_area->x1; x <= draw_area->x2; x++) {
 774              		.loc 1 630 9 is_stmt 1 view .LVU257
 630:Middlewares/lvgl/src/draw/lv_draw_blend.c ****             for(x = draw_area->x1; x <= draw_area->x2; x++) {
 775              		.loc 1 630 9 is_stmt 0 view .LVU258
 776 0088 B346     		mov	fp, r6
 777 008a CDF81C80 		str	r8, [sp, #28]
 778 008e DDF81480 		ldr	r8, [sp, #20]
 779              	.LVL73:
 630:Middlewares/lvgl/src/draw/lv_draw_blend.c ****             for(x = draw_area->x1; x <= draw_area->x2; x++) {
 780              		.loc 1 630 9 view .LVU259
 781 0092 47E0     		b	.L46
 782              	.LVL74:
 783              	.L53:
 630:Middlewares/lvgl/src/draw/lv_draw_blend.c ****             for(x = draw_area->x1; x <= draw_area->x2; x++) {
 784              		.loc 1 630 9 view .LVU260
 785 0094 DDF818B0 		ldr	fp, [sp, #24]
 786              	.LBE91:
 787 0098 1AE0     		b	.L40
 788              	.LVL75:
 789              	.L43:
 619:Middlewares/lvgl/src/draw/lv_draw_blend.c ****             }
 790              		.loc 1 619 17 is_stmt 1 discriminator 3 view .LVU261
 619:Middlewares/lvgl/src/draw/lv_draw_blend.c ****             }
 791              		.loc 1 619 21 is_stmt 0 discriminator 3 view .LVU262
 792 009a D9F80000 		ldr	r0, [r9]
 619:Middlewares/lvgl/src/draw/lv_draw_blend.c ****             }
 793              		.loc 1 619 29 discriminator 3 view .LVU263
 794 009e 4769     		ldr	r7, [r0, #20]
ARM GAS  /tmp/ccwyVXLY.s 			page 37


 619:Middlewares/lvgl/src/draw/lv_draw_blend.c ****             }
 795              		.loc 1 619 17 discriminator 3 view .LVU264
 796 00a0 CDF808A0 		str	r10, [sp, #8]
 797 00a4 36F81430 		ldrh	r3, [r6, r4, lsl #1]
 798 00a8 ADF80430 		strh	r3, [sp, #4]	@ movhi
 799 00ac BDF91430 		ldrsh	r3, [sp, #20]
 800 00b0 0093     		str	r3, [sp]
 801 00b2 23B2     		sxth	r3, r4
 802 00b4 4246     		mov	r2, r8
 803 00b6 5946     		mov	r1, fp
 804 00b8 B847     		blx	r7
 805              	.LVL76:
 618:Middlewares/lvgl/src/draw/lv_draw_blend.c ****                 disp->driver->set_px_cb(disp->driver, (void *)disp_buf, disp_w, x, y, map_buf_tmp[x
 806              		.loc 1 618 56 is_stmt 1 discriminator 3 view .LVU265
 618:Middlewares/lvgl/src/draw/lv_draw_blend.c ****                 disp->driver->set_px_cb(disp->driver, (void *)disp_buf, disp_w, x, y, map_buf_tmp[x
 807              		.loc 1 618 57 is_stmt 0 discriminator 3 view .LVU266
 808 00ba 0134     		adds	r4, r4, #1
 809              	.LVL77:
 810              	.L42:
 618:Middlewares/lvgl/src/draw/lv_draw_blend.c ****                 disp->driver->set_px_cb(disp->driver, (void *)disp_buf, disp_w, x, y, map_buf_tmp[x
 811              		.loc 1 618 36 is_stmt 1 discriminator 1 view .LVU267
 618:Middlewares/lvgl/src/draw/lv_draw_blend.c ****                 disp->driver->set_px_cb(disp->driver, (void *)disp_buf, disp_w, x, y, map_buf_tmp[x
 812              		.loc 1 618 50 is_stmt 0 discriminator 1 view .LVU268
 813 00bc B5F90430 		ldrsh	r3, [r5, #4]
 618:Middlewares/lvgl/src/draw/lv_draw_blend.c ****                 disp->driver->set_px_cb(disp->driver, (void *)disp_buf, disp_w, x, y, map_buf_tmp[x
 814              		.loc 1 618 13 discriminator 1 view .LVU269
 815 00c0 A342     		cmp	r3, r4
 816 00c2 EADA     		bge	.L43
 621:Middlewares/lvgl/src/draw/lv_draw_blend.c ****         }
 817              		.loc 1 621 13 is_stmt 1 discriminator 2 view .LVU270
 621:Middlewares/lvgl/src/draw/lv_draw_blend.c ****         }
 818              		.loc 1 621 25 is_stmt 0 discriminator 2 view .LVU271
 819 00c4 089B     		ldr	r3, [sp, #32]
 820 00c6 06EB4306 		add	r6, r6, r3, lsl #1
 821              	.LVL78:
 617:Middlewares/lvgl/src/draw/lv_draw_blend.c ****             for(x = draw_area->x1; x <= draw_area->x2; x++) {
 822              		.loc 1 617 52 is_stmt 1 discriminator 2 view .LVU272
 617:Middlewares/lvgl/src/draw/lv_draw_blend.c ****             for(x = draw_area->x1; x <= draw_area->x2; x++) {
 823              		.loc 1 617 53 is_stmt 0 discriminator 2 view .LVU273
 824 00ca 059B     		ldr	r3, [sp, #20]
 825 00cc 0133     		adds	r3, r3, #1
 826 00ce 0593     		str	r3, [sp, #20]
 827              	.LVL79:
 828              	.L40:
 617:Middlewares/lvgl/src/draw/lv_draw_blend.c ****             for(x = draw_area->x1; x <= draw_area->x2; x++) {
 829              		.loc 1 617 32 is_stmt 1 discriminator 1 view .LVU274
 617:Middlewares/lvgl/src/draw/lv_draw_blend.c ****             for(x = draw_area->x1; x <= draw_area->x2; x++) {
 830              		.loc 1 617 46 is_stmt 0 discriminator 1 view .LVU275
 831 00d0 B5F90630 		ldrsh	r3, [r5, #6]
 617:Middlewares/lvgl/src/draw/lv_draw_blend.c ****             for(x = draw_area->x1; x <= draw_area->x2; x++) {
 832              		.loc 1 617 9 discriminator 1 view .LVU276
 833 00d4 059A     		ldr	r2, [sp, #20]
 834 00d6 9342     		cmp	r3, r2
 835 00d8 2BDB     		blt	.L39
 618:Middlewares/lvgl/src/draw/lv_draw_blend.c ****                 disp->driver->set_px_cb(disp->driver, (void *)disp_buf, disp_w, x, y, map_buf_tmp[x
 836              		.loc 1 618 13 is_stmt 1 view .LVU277
 618:Middlewares/lvgl/src/draw/lv_draw_blend.c ****                 disp->driver->set_px_cb(disp->driver, (void *)disp_buf, disp_w, x, y, map_buf_tmp[x
ARM GAS  /tmp/ccwyVXLY.s 			page 38


 837              		.loc 1 618 30 is_stmt 0 view .LVU278
 838 00da B5F90040 		ldrsh	r4, [r5]
 839              	.LVL80:
 618:Middlewares/lvgl/src/draw/lv_draw_blend.c ****                 disp->driver->set_px_cb(disp->driver, (void *)disp_buf, disp_w, x, y, map_buf_tmp[x
 840              		.loc 1 618 13 view .LVU279
 841 00de EDE7     		b	.L42
 842              	.LVL81:
 843              	.L48:
 844              	.LBB92:
 631:Middlewares/lvgl/src/draw/lv_draw_blend.c ****                 if(mask_tmp[x]) {
 845              		.loc 1 631 56 is_stmt 1 discriminator 2 view .LVU280
 631:Middlewares/lvgl/src/draw/lv_draw_blend.c ****                 if(mask_tmp[x]) {
 846              		.loc 1 631 57 is_stmt 0 discriminator 2 view .LVU281
 847 00e0 0134     		adds	r4, r4, #1
 848              	.LVL82:
 849              	.L47:
 631:Middlewares/lvgl/src/draw/lv_draw_blend.c ****                 if(mask_tmp[x]) {
 850              		.loc 1 631 36 is_stmt 1 discriminator 1 view .LVU282
 631:Middlewares/lvgl/src/draw/lv_draw_blend.c ****                 if(mask_tmp[x]) {
 851              		.loc 1 631 50 is_stmt 0 discriminator 1 view .LVU283
 852 00e2 B5F90430 		ldrsh	r3, [r5, #4]
 631:Middlewares/lvgl/src/draw/lv_draw_blend.c ****                 if(mask_tmp[x]) {
 853              		.loc 1 631 13 discriminator 1 view .LVU284
 854 00e6 A342     		cmp	r3, r4
 855 00e8 15DB     		blt	.L54
 632:Middlewares/lvgl/src/draw/lv_draw_blend.c ****                     disp->driver->set_px_cb(disp->driver, (void *)disp_buf, disp_w, x, y, map_buf_t
 856              		.loc 1 632 17 is_stmt 1 view .LVU285
 632:Middlewares/lvgl/src/draw/lv_draw_blend.c ****                     disp->driver->set_px_cb(disp->driver, (void *)disp_buf, disp_w, x, y, map_buf_t
 857              		.loc 1 632 28 is_stmt 0 view .LVU286
 858 00ea 3B5D     		ldrb	r3, [r7, r4]	@ zero_extendqisi2
 632:Middlewares/lvgl/src/draw/lv_draw_blend.c ****                     disp->driver->set_px_cb(disp->driver, (void *)disp_buf, disp_w, x, y, map_buf_t
 859              		.loc 1 632 19 view .LVU287
 860 00ec 002B     		cmp	r3, #0
 861 00ee F7D0     		beq	.L48
 633:Middlewares/lvgl/src/draw/lv_draw_blend.c ****                                            (uint32_t)((uint32_t)opa * mask_tmp[x]) >> 8);
 862              		.loc 1 633 21 is_stmt 1 view .LVU288
 633:Middlewares/lvgl/src/draw/lv_draw_blend.c ****                                            (uint32_t)((uint32_t)opa * mask_tmp[x]) >> 8);
 863              		.loc 1 633 25 is_stmt 0 view .LVU289
 864 00f0 D9F80000 		ldr	r0, [r9]
 633:Middlewares/lvgl/src/draw/lv_draw_blend.c ****                                            (uint32_t)((uint32_t)opa * mask_tmp[x]) >> 8);
 865              		.loc 1 633 33 view .LVU290
 866 00f4 4669     		ldr	r6, [r0, #20]
 634:Middlewares/lvgl/src/draw/lv_draw_blend.c ****                 }
 867              		.loc 1 634 44 view .LVU291
 868 00f6 03FB0AF3 		mul	r3, r3, r10
 633:Middlewares/lvgl/src/draw/lv_draw_blend.c ****                                            (uint32_t)((uint32_t)opa * mask_tmp[x]) >> 8);
 869              		.loc 1 633 21 view .LVU292
 870 00fa 1B0A     		lsrs	r3, r3, #8
 871 00fc 0293     		str	r3, [sp, #8]
 872 00fe 3BF81430 		ldrh	r3, [fp, r4, lsl #1]
 873 0102 ADF80430 		strh	r3, [sp, #4]	@ movhi
 874 0106 0FFA88F3 		sxth	r3, r8
 875 010a 0093     		str	r3, [sp]
 876 010c 23B2     		sxth	r3, r4
 877 010e 079A     		ldr	r2, [sp, #28]
 878 0110 0699     		ldr	r1, [sp, #24]
 879 0112 B047     		blx	r6
ARM GAS  /tmp/ccwyVXLY.s 			page 39


 880              	.LVL83:
 881 0114 E4E7     		b	.L48
 882              	.L54:
 637:Middlewares/lvgl/src/draw/lv_draw_blend.c ****             map_buf_tmp += map_w;
 883              		.loc 1 637 13 is_stmt 1 discriminator 2 view .LVU293
 637:Middlewares/lvgl/src/draw/lv_draw_blend.c ****             map_buf_tmp += map_w;
 884              		.loc 1 637 22 is_stmt 0 discriminator 2 view .LVU294
 885 0116 099B     		ldr	r3, [sp, #36]
 886 0118 1F44     		add	r7, r7, r3
 887              	.LVL84:
 638:Middlewares/lvgl/src/draw/lv_draw_blend.c ****         }
 888              		.loc 1 638 13 is_stmt 1 discriminator 2 view .LVU295
 638:Middlewares/lvgl/src/draw/lv_draw_blend.c ****         }
 889              		.loc 1 638 25 is_stmt 0 discriminator 2 view .LVU296
 890 011a 089B     		ldr	r3, [sp, #32]
 891 011c 0BEB430B 		add	fp, fp, r3, lsl #1
 892              	.LVL85:
 630:Middlewares/lvgl/src/draw/lv_draw_blend.c ****             for(x = draw_area->x1; x <= draw_area->x2; x++) {
 893              		.loc 1 630 52 is_stmt 1 discriminator 2 view .LVU297
 630:Middlewares/lvgl/src/draw/lv_draw_blend.c ****             for(x = draw_area->x1; x <= draw_area->x2; x++) {
 894              		.loc 1 630 53 is_stmt 0 discriminator 2 view .LVU298
 895 0120 08F10108 		add	r8, r8, #1
 896              	.LVL86:
 897              	.L46:
 630:Middlewares/lvgl/src/draw/lv_draw_blend.c ****             for(x = draw_area->x1; x <= draw_area->x2; x++) {
 898              		.loc 1 630 32 is_stmt 1 discriminator 1 view .LVU299
 630:Middlewares/lvgl/src/draw/lv_draw_blend.c ****             for(x = draw_area->x1; x <= draw_area->x2; x++) {
 899              		.loc 1 630 46 is_stmt 0 discriminator 1 view .LVU300
 900 0124 B5F90630 		ldrsh	r3, [r5, #6]
 630:Middlewares/lvgl/src/draw/lv_draw_blend.c ****             for(x = draw_area->x1; x <= draw_area->x2; x++) {
 901              		.loc 1 630 9 discriminator 1 view .LVU301
 902 0128 4345     		cmp	r3, r8
 903 012a 02DB     		blt	.L39
 631:Middlewares/lvgl/src/draw/lv_draw_blend.c ****                 if(mask_tmp[x]) {
 904              		.loc 1 631 13 is_stmt 1 view .LVU302
 631:Middlewares/lvgl/src/draw/lv_draw_blend.c ****                 if(mask_tmp[x]) {
 905              		.loc 1 631 30 is_stmt 0 view .LVU303
 906 012c B5F90040 		ldrsh	r4, [r5]
 907              	.LVL87:
 631:Middlewares/lvgl/src/draw/lv_draw_blend.c ****                 if(mask_tmp[x]) {
 908              		.loc 1 631 13 view .LVU304
 909 0130 D7E7     		b	.L47
 910              	.LVL88:
 911              	.L39:
 631:Middlewares/lvgl/src/draw/lv_draw_blend.c ****                 if(mask_tmp[x]) {
 912              		.loc 1 631 13 view .LVU305
 913              	.LBE92:
 641:Middlewares/lvgl/src/draw/lv_draw_blend.c **** 
 914              		.loc 1 641 1 view .LVU306
 915 0132 0BB0     		add	sp, sp, #44
 916              	.LCFI8:
 917              		.cfi_def_cfa_offset 36
 918              		@ sp needed
 919 0134 BDE8F08F 		pop	{r4, r5, r6, r7, r8, r9, r10, fp, pc}
 641:Middlewares/lvgl/src/draw/lv_draw_blend.c **** 
 920              		.loc 1 641 1 view .LVU307
 921              		.cfi_endproc
ARM GAS  /tmp/ccwyVXLY.s 			page 40


 922              	.LFE152:
 924              		.section	.text.color_blend_true_color_additive,"ax",%progbits
 925              		.align	1
 926              		.syntax unified
 927              		.thumb
 928              		.thumb_func
 929              		.fpu softvfp
 931              	color_blend_true_color_additive:
 932              	.LVL89:
 933              	.LFB155:
 975:Middlewares/lvgl/src/draw/lv_draw_blend.c **** 
 976:Middlewares/lvgl/src/draw/lv_draw_blend.c **** static inline lv_color_t color_blend_true_color_additive(lv_color_t fg, lv_color_t bg, lv_opa_t opa
 977:Middlewares/lvgl/src/draw/lv_draw_blend.c **** {
 934              		.loc 1 977 1 is_stmt 1 view -0
 935              		.cfi_startproc
 936              		@ args = 0, pretend = 0, frame = 0
 937              		@ frame_needed = 0, uses_anonymous_args = 0
 978:Middlewares/lvgl/src/draw/lv_draw_blend.c ****     uint32_t tmp;
 938              		.loc 1 978 5 view .LVU309
 979:Middlewares/lvgl/src/draw/lv_draw_blend.c **** #if LV_COLOR_DEPTH == 1
 980:Middlewares/lvgl/src/draw/lv_draw_blend.c ****     tmp = bg.full + fg.full;
 981:Middlewares/lvgl/src/draw/lv_draw_blend.c ****     fg.full = LV_MIN(tmp, 1);
 982:Middlewares/lvgl/src/draw/lv_draw_blend.c **** #else
 983:Middlewares/lvgl/src/draw/lv_draw_blend.c ****     tmp = bg.ch.red + fg.ch.red;
 939              		.loc 1 983 5 view .LVU310
 940              		.loc 1 983 16 is_stmt 0 view .LVU311
 941 0000 C1F3C423 		ubfx	r3, r1, #11, #5
 942              		.loc 1 983 28 view .LVU312
 943 0004 C0F3C42C 		ubfx	ip, r0, #11, #5
 944              		.loc 1 983 21 view .LVU313
 945 0008 6344     		add	r3, r3, ip
 946              	.LVL90:
 984:Middlewares/lvgl/src/draw/lv_draw_blend.c **** #if LV_COLOR_DEPTH == 8
 985:Middlewares/lvgl/src/draw/lv_draw_blend.c ****     fg.ch.red = LV_MIN(tmp, 7);
 986:Middlewares/lvgl/src/draw/lv_draw_blend.c **** #elif LV_COLOR_DEPTH == 16
 987:Middlewares/lvgl/src/draw/lv_draw_blend.c ****     fg.ch.red = LV_MIN(tmp, 31);
 947              		.loc 1 987 5 is_stmt 1 view .LVU314
 948              		.loc 1 987 17 is_stmt 0 view .LVU315
 949 000a 1F2B     		cmp	r3, #31
 950 000c 28BF     		it	cs
 951 000e 1F23     		movcs	r3, #31
 952              	.LVL91:
 953              		.loc 1 987 15 view .LVU316
 954 0010 63F3CF20 		bfi	r0, r3, #11, #5
 988:Middlewares/lvgl/src/draw/lv_draw_blend.c **** #elif LV_COLOR_DEPTH == 32
 989:Middlewares/lvgl/src/draw/lv_draw_blend.c ****     fg.ch.red = LV_MIN(tmp, 255);
 990:Middlewares/lvgl/src/draw/lv_draw_blend.c **** #endif
 991:Middlewares/lvgl/src/draw/lv_draw_blend.c **** 
 992:Middlewares/lvgl/src/draw/lv_draw_blend.c **** #if LV_COLOR_DEPTH == 8
 993:Middlewares/lvgl/src/draw/lv_draw_blend.c ****     tmp = bg.ch.green + fg.ch.green;
 994:Middlewares/lvgl/src/draw/lv_draw_blend.c ****     fg.ch.green = LV_MIN(tmp, 7);
 995:Middlewares/lvgl/src/draw/lv_draw_blend.c **** #elif LV_COLOR_DEPTH == 16
 996:Middlewares/lvgl/src/draw/lv_draw_blend.c **** #if LV_COLOR_16_SWAP == 0
 997:Middlewares/lvgl/src/draw/lv_draw_blend.c ****     tmp = bg.ch.green + fg.ch.green;
 955              		.loc 1 997 5 is_stmt 1 view .LVU317
 956              		.loc 1 997 16 is_stmt 0 view .LVU318
 957 0014 C1F34513 		ubfx	r3, r1, #5, #6
ARM GAS  /tmp/ccwyVXLY.s 			page 41


 958              		.loc 1 997 30 view .LVU319
 959 0018 C0F3451C 		ubfx	ip, r0, #5, #6
 960              	.LVL92:
 961              		.loc 1 997 23 view .LVU320
 962 001c 6344     		add	r3, r3, ip
 963              	.LVL93:
 998:Middlewares/lvgl/src/draw/lv_draw_blend.c ****     fg.ch.green = LV_MIN(tmp, 63);
 964              		.loc 1 998 5 is_stmt 1 view .LVU321
 965              		.loc 1 998 19 is_stmt 0 view .LVU322
 966 001e 3F2B     		cmp	r3, #63
 967 0020 28BF     		it	cs
 968 0022 3F23     		movcs	r3, #63
 969              	.LVL94:
 970              		.loc 1 998 17 view .LVU323
 971 0024 63F34A10 		bfi	r0, r3, #5, #6
 999:Middlewares/lvgl/src/draw/lv_draw_blend.c **** #else
1000:Middlewares/lvgl/src/draw/lv_draw_blend.c ****     tmp = (bg.ch.green_h << 3) + bg.ch.green_l + (fg.ch.green_h << 3) + fg.ch.green_l;
1001:Middlewares/lvgl/src/draw/lv_draw_blend.c ****     tmp = LV_MIN(tmp, 63);
1002:Middlewares/lvgl/src/draw/lv_draw_blend.c ****     fg.ch.green_h = tmp >> 3;
1003:Middlewares/lvgl/src/draw/lv_draw_blend.c ****     fg.ch.green_l = tmp & 0x7;
1004:Middlewares/lvgl/src/draw/lv_draw_blend.c **** #endif
1005:Middlewares/lvgl/src/draw/lv_draw_blend.c **** 
1006:Middlewares/lvgl/src/draw/lv_draw_blend.c **** #elif LV_COLOR_DEPTH == 32
1007:Middlewares/lvgl/src/draw/lv_draw_blend.c ****     tmp = bg.ch.green + fg.ch.green;
1008:Middlewares/lvgl/src/draw/lv_draw_blend.c ****     fg.ch.green = LV_MIN(tmp, 255);
1009:Middlewares/lvgl/src/draw/lv_draw_blend.c **** #endif
1010:Middlewares/lvgl/src/draw/lv_draw_blend.c **** 
1011:Middlewares/lvgl/src/draw/lv_draw_blend.c ****     tmp = bg.ch.blue + fg.ch.blue;
 972              		.loc 1 1011 5 is_stmt 1 view .LVU324
 973              		.loc 1 1011 16 is_stmt 0 view .LVU325
 974 0028 01F01F03 		and	r3, r1, #31
 975              		.loc 1 1011 29 view .LVU326
 976 002c 00F01F0C 		and	ip, r0, #31
 977              	.LVL95:
 978              		.loc 1 1011 22 view .LVU327
 979 0030 6344     		add	r3, r3, ip
 980              	.LVL96:
1012:Middlewares/lvgl/src/draw/lv_draw_blend.c **** #if LV_COLOR_DEPTH == 8
1013:Middlewares/lvgl/src/draw/lv_draw_blend.c ****     fg.ch.blue = LV_MIN(tmp, 4);
1014:Middlewares/lvgl/src/draw/lv_draw_blend.c **** #elif LV_COLOR_DEPTH == 16
1015:Middlewares/lvgl/src/draw/lv_draw_blend.c ****     fg.ch.blue = LV_MIN(tmp, 31);
 981              		.loc 1 1015 5 is_stmt 1 view .LVU328
 982              		.loc 1 1015 18 is_stmt 0 view .LVU329
 983 0032 1F2B     		cmp	r3, #31
 984 0034 28BF     		it	cs
 985 0036 1F23     		movcs	r3, #31
 986              	.LVL97:
 987              		.loc 1 1015 16 view .LVU330
 988 0038 63F30400 		bfi	r0, r3, #0, #5
1016:Middlewares/lvgl/src/draw/lv_draw_blend.c **** #elif LV_COLOR_DEPTH == 32
1017:Middlewares/lvgl/src/draw/lv_draw_blend.c ****     fg.ch.blue = LV_MIN(tmp, 255);
1018:Middlewares/lvgl/src/draw/lv_draw_blend.c **** #endif
1019:Middlewares/lvgl/src/draw/lv_draw_blend.c **** #endif
1020:Middlewares/lvgl/src/draw/lv_draw_blend.c **** 
1021:Middlewares/lvgl/src/draw/lv_draw_blend.c ****     if(opa == LV_OPA_COVER) return fg;
 989              		.loc 1 1021 5 is_stmt 1 view .LVU331
 990              		.loc 1 1021 7 is_stmt 0 view .LVU332
ARM GAS  /tmp/ccwyVXLY.s 			page 42


 991 003c FF2A     		cmp	r2, #255
 992 003e 3BD0     		beq	.L59
 977:Middlewares/lvgl/src/draw/lv_draw_blend.c ****     uint32_t tmp;
 993              		.loc 1 977 1 view .LVU333
 994 0040 10B5     		push	{r4, lr}
 995              	.LCFI9:
 996              		.cfi_def_cfa_offset 8
 997              		.cfi_offset 4, -8
 998              		.cfi_offset 14, -4
1022:Middlewares/lvgl/src/draw/lv_draw_blend.c **** 
1023:Middlewares/lvgl/src/draw/lv_draw_blend.c ****     return lv_color_mix(fg, bg, opa);
 999              		.loc 1 1023 5 is_stmt 1 view .LVU334
 1000              	.LVL98:
 1001              	.LBB95:
 1002              	.LBI95:
 1003              		.file 3 "Middlewares/lvgl/src/draw/../misc/lv_color.h"
   1:Middlewares/lvgl/src/draw/../misc/lv_color.h **** /**
   2:Middlewares/lvgl/src/draw/../misc/lv_color.h ****  * @file lv_color.h
   3:Middlewares/lvgl/src/draw/../misc/lv_color.h ****  *
   4:Middlewares/lvgl/src/draw/../misc/lv_color.h ****  */
   5:Middlewares/lvgl/src/draw/../misc/lv_color.h **** 
   6:Middlewares/lvgl/src/draw/../misc/lv_color.h **** #ifndef LV_COLOR_H
   7:Middlewares/lvgl/src/draw/../misc/lv_color.h **** #define LV_COLOR_H
   8:Middlewares/lvgl/src/draw/../misc/lv_color.h **** 
   9:Middlewares/lvgl/src/draw/../misc/lv_color.h **** #ifdef __cplusplus
  10:Middlewares/lvgl/src/draw/../misc/lv_color.h **** extern "C" {
  11:Middlewares/lvgl/src/draw/../misc/lv_color.h **** #endif
  12:Middlewares/lvgl/src/draw/../misc/lv_color.h **** 
  13:Middlewares/lvgl/src/draw/../misc/lv_color.h **** /*********************
  14:Middlewares/lvgl/src/draw/../misc/lv_color.h ****  *      INCLUDES
  15:Middlewares/lvgl/src/draw/../misc/lv_color.h ****  *********************/
  16:Middlewares/lvgl/src/draw/../misc/lv_color.h **** #include "../lv_conf_internal.h"
  17:Middlewares/lvgl/src/draw/../misc/lv_color.h **** #include "lv_math.h"
  18:Middlewares/lvgl/src/draw/../misc/lv_color.h **** #include "lv_types.h"
  19:Middlewares/lvgl/src/draw/../misc/lv_color.h **** 
  20:Middlewares/lvgl/src/draw/../misc/lv_color.h **** /*Error checking*/
  21:Middlewares/lvgl/src/draw/../misc/lv_color.h **** #if LV_COLOR_DEPTH == 24
  22:Middlewares/lvgl/src/draw/../misc/lv_color.h **** #error "LV_COLOR_DEPTH 24 is deprecated. Use LV_COLOR_DEPTH 32 instead (lv_conf.h)"
  23:Middlewares/lvgl/src/draw/../misc/lv_color.h **** #endif
  24:Middlewares/lvgl/src/draw/../misc/lv_color.h **** 
  25:Middlewares/lvgl/src/draw/../misc/lv_color.h **** #if LV_COLOR_DEPTH != 32 && LV_COLOR_SCREEN_TRANSP != 0
  26:Middlewares/lvgl/src/draw/../misc/lv_color.h **** #error "LV_COLOR_SCREEN_TRANSP requires LV_COLOR_DEPTH == 32. Set it in lv_conf.h"
  27:Middlewares/lvgl/src/draw/../misc/lv_color.h **** #endif
  28:Middlewares/lvgl/src/draw/../misc/lv_color.h **** 
  29:Middlewares/lvgl/src/draw/../misc/lv_color.h **** #if LV_COLOR_DEPTH != 16 && LV_COLOR_16_SWAP != 0
  30:Middlewares/lvgl/src/draw/../misc/lv_color.h **** #error "LV_COLOR_16_SWAP requires LV_COLOR_DEPTH == 16. Set it in lv_conf.h"
  31:Middlewares/lvgl/src/draw/../misc/lv_color.h **** #endif
  32:Middlewares/lvgl/src/draw/../misc/lv_color.h **** 
  33:Middlewares/lvgl/src/draw/../misc/lv_color.h **** #include <stdint.h>
  34:Middlewares/lvgl/src/draw/../misc/lv_color.h **** 
  35:Middlewares/lvgl/src/draw/../misc/lv_color.h **** /*********************
  36:Middlewares/lvgl/src/draw/../misc/lv_color.h ****  *      DEFINES
  37:Middlewares/lvgl/src/draw/../misc/lv_color.h ****  *********************/
  38:Middlewares/lvgl/src/draw/../misc/lv_color.h **** 
  39:Middlewares/lvgl/src/draw/../misc/lv_color.h **** /**
  40:Middlewares/lvgl/src/draw/../misc/lv_color.h ****  * Opacity percentages.
  41:Middlewares/lvgl/src/draw/../misc/lv_color.h ****  */
ARM GAS  /tmp/ccwyVXLY.s 			page 43


  42:Middlewares/lvgl/src/draw/../misc/lv_color.h **** enum {
  43:Middlewares/lvgl/src/draw/../misc/lv_color.h ****     LV_OPA_TRANSP = 0,
  44:Middlewares/lvgl/src/draw/../misc/lv_color.h ****     LV_OPA_0      = 0,
  45:Middlewares/lvgl/src/draw/../misc/lv_color.h ****     LV_OPA_10     = 25,
  46:Middlewares/lvgl/src/draw/../misc/lv_color.h ****     LV_OPA_20     = 51,
  47:Middlewares/lvgl/src/draw/../misc/lv_color.h ****     LV_OPA_30     = 76,
  48:Middlewares/lvgl/src/draw/../misc/lv_color.h ****     LV_OPA_40     = 102,
  49:Middlewares/lvgl/src/draw/../misc/lv_color.h ****     LV_OPA_50     = 127,
  50:Middlewares/lvgl/src/draw/../misc/lv_color.h ****     LV_OPA_60     = 153,
  51:Middlewares/lvgl/src/draw/../misc/lv_color.h ****     LV_OPA_70     = 178,
  52:Middlewares/lvgl/src/draw/../misc/lv_color.h ****     LV_OPA_80     = 204,
  53:Middlewares/lvgl/src/draw/../misc/lv_color.h ****     LV_OPA_90     = 229,
  54:Middlewares/lvgl/src/draw/../misc/lv_color.h ****     LV_OPA_100    = 255,
  55:Middlewares/lvgl/src/draw/../misc/lv_color.h ****     LV_OPA_COVER  = 255,
  56:Middlewares/lvgl/src/draw/../misc/lv_color.h **** };
  57:Middlewares/lvgl/src/draw/../misc/lv_color.h **** 
  58:Middlewares/lvgl/src/draw/../misc/lv_color.h **** #define LV_OPA_MIN 2    /*Opacities below this will be transparent*/
  59:Middlewares/lvgl/src/draw/../misc/lv_color.h **** #define LV_OPA_MAX 253  /*Opacities above this will fully cover*/
  60:Middlewares/lvgl/src/draw/../misc/lv_color.h **** 
  61:Middlewares/lvgl/src/draw/../misc/lv_color.h **** #if LV_COLOR_DEPTH == 1
  62:Middlewares/lvgl/src/draw/../misc/lv_color.h **** #define LV_COLOR_SIZE 8
  63:Middlewares/lvgl/src/draw/../misc/lv_color.h **** #elif LV_COLOR_DEPTH == 8
  64:Middlewares/lvgl/src/draw/../misc/lv_color.h **** #define LV_COLOR_SIZE 8
  65:Middlewares/lvgl/src/draw/../misc/lv_color.h **** #elif LV_COLOR_DEPTH == 16
  66:Middlewares/lvgl/src/draw/../misc/lv_color.h **** #define LV_COLOR_SIZE 16
  67:Middlewares/lvgl/src/draw/../misc/lv_color.h **** #elif LV_COLOR_DEPTH == 32
  68:Middlewares/lvgl/src/draw/../misc/lv_color.h **** #define LV_COLOR_SIZE 32
  69:Middlewares/lvgl/src/draw/../misc/lv_color.h **** #else
  70:Middlewares/lvgl/src/draw/../misc/lv_color.h **** #error "Invalid LV_COLOR_DEPTH in lv_conf.h! Set it to 1, 8, 16 or 32!"
  71:Middlewares/lvgl/src/draw/../misc/lv_color.h **** #endif
  72:Middlewares/lvgl/src/draw/../misc/lv_color.h **** 
  73:Middlewares/lvgl/src/draw/../misc/lv_color.h **** /**
  74:Middlewares/lvgl/src/draw/../misc/lv_color.h ****  * Adjust color mix functions rounding.
  75:Middlewares/lvgl/src/draw/../misc/lv_color.h ****  * GPUs might calculate color mix (blending) differently.
  76:Middlewares/lvgl/src/draw/../misc/lv_color.h ****  * Should be in range of 0..254
  77:Middlewares/lvgl/src/draw/../misc/lv_color.h ****  * 0: no adjustment, get the integer part of the result (round down)
  78:Middlewares/lvgl/src/draw/../misc/lv_color.h ****  * 64: round up from x.75
  79:Middlewares/lvgl/src/draw/../misc/lv_color.h ****  * 128: round up from half
  80:Middlewares/lvgl/src/draw/../misc/lv_color.h ****  * 192: round up from x.25
  81:Middlewares/lvgl/src/draw/../misc/lv_color.h ****  * 254: round up*/
  82:Middlewares/lvgl/src/draw/../misc/lv_color.h **** #ifndef LV_COLOR_MIX_ROUND_OFS
  83:Middlewares/lvgl/src/draw/../misc/lv_color.h **** #if LV_COLOR_DEPTH == 32
  84:Middlewares/lvgl/src/draw/../misc/lv_color.h **** #define LV_COLOR_MIX_ROUND_OFS 0
  85:Middlewares/lvgl/src/draw/../misc/lv_color.h **** #else
  86:Middlewares/lvgl/src/draw/../misc/lv_color.h **** #define LV_COLOR_MIX_ROUND_OFS 128
  87:Middlewares/lvgl/src/draw/../misc/lv_color.h **** #endif
  88:Middlewares/lvgl/src/draw/../misc/lv_color.h **** #endif
  89:Middlewares/lvgl/src/draw/../misc/lv_color.h **** 
  90:Middlewares/lvgl/src/draw/../misc/lv_color.h **** #if defined(__cplusplus) && !defined(_LV_COLOR_HAS_MODERN_CPP)
  91:Middlewares/lvgl/src/draw/../misc/lv_color.h **** /**
  92:Middlewares/lvgl/src/draw/../misc/lv_color.h **** * MSVC compiler's definition of the __cplusplus indicating 199711L regardless to C++ standard versi
  93:Middlewares/lvgl/src/draw/../misc/lv_color.h **** * see https://devblogs.microsoft.com/cppblog/msvc-now-correctly-reports-cplusplus
  94:Middlewares/lvgl/src/draw/../misc/lv_color.h **** * so we use _MSC_VER macro instead of __cplusplus
  95:Middlewares/lvgl/src/draw/../misc/lv_color.h **** */
  96:Middlewares/lvgl/src/draw/../misc/lv_color.h **** #ifdef _MSC_VER
  97:Middlewares/lvgl/src/draw/../misc/lv_color.h **** #if _MSC_VER >= 1900 /*Visual Studio 2015*/
  98:Middlewares/lvgl/src/draw/../misc/lv_color.h **** #define _LV_COLOR_HAS_MODERN_CPP 1
ARM GAS  /tmp/ccwyVXLY.s 			page 44


  99:Middlewares/lvgl/src/draw/../misc/lv_color.h **** #endif
 100:Middlewares/lvgl/src/draw/../misc/lv_color.h **** #else
 101:Middlewares/lvgl/src/draw/../misc/lv_color.h **** #if __cplusplus >= 201103L
 102:Middlewares/lvgl/src/draw/../misc/lv_color.h **** #define _LV_COLOR_HAS_MODERN_CPP 1
 103:Middlewares/lvgl/src/draw/../misc/lv_color.h **** #endif
 104:Middlewares/lvgl/src/draw/../misc/lv_color.h **** #endif
 105:Middlewares/lvgl/src/draw/../misc/lv_color.h **** #endif /*__cplusplus*/
 106:Middlewares/lvgl/src/draw/../misc/lv_color.h **** 
 107:Middlewares/lvgl/src/draw/../misc/lv_color.h **** #ifndef _LV_COLOR_HAS_MODERN_CPP
 108:Middlewares/lvgl/src/draw/../misc/lv_color.h **** #define _LV_COLOR_HAS_MODERN_CPP 0
 109:Middlewares/lvgl/src/draw/../misc/lv_color.h **** #endif
 110:Middlewares/lvgl/src/draw/../misc/lv_color.h **** 
 111:Middlewares/lvgl/src/draw/../misc/lv_color.h **** #if _LV_COLOR_HAS_MODERN_CPP
 112:Middlewares/lvgl/src/draw/../misc/lv_color.h **** /*Fix msvc compiler error C4576 inside C++ code*/
 113:Middlewares/lvgl/src/draw/../misc/lv_color.h **** #define _LV_COLOR_MAKE_TYPE_HELPER lv_color_t
 114:Middlewares/lvgl/src/draw/../misc/lv_color.h **** #else
 115:Middlewares/lvgl/src/draw/../misc/lv_color.h **** #define _LV_COLOR_MAKE_TYPE_HELPER (lv_color_t)
 116:Middlewares/lvgl/src/draw/../misc/lv_color.h **** #endif
 117:Middlewares/lvgl/src/draw/../misc/lv_color.h **** 
 118:Middlewares/lvgl/src/draw/../misc/lv_color.h **** /*---------------------------------------
 119:Middlewares/lvgl/src/draw/../misc/lv_color.h ****  * Macros for all existing color depths
 120:Middlewares/lvgl/src/draw/../misc/lv_color.h ****  * to set/get values of the color channels
 121:Middlewares/lvgl/src/draw/../misc/lv_color.h ****  *------------------------------------------*/
 122:Middlewares/lvgl/src/draw/../misc/lv_color.h **** # define LV_COLOR_SET_R1(c, v) (c).ch.red = (uint8_t)((v) & 0x1)
 123:Middlewares/lvgl/src/draw/../misc/lv_color.h **** # define LV_COLOR_SET_G1(c, v) (c).ch.green = (uint8_t)((v) & 0x1)
 124:Middlewares/lvgl/src/draw/../misc/lv_color.h **** # define LV_COLOR_SET_B1(c, v) (c).ch.blue = (uint8_t)((v) & 0x1)
 125:Middlewares/lvgl/src/draw/../misc/lv_color.h **** # define LV_COLOR_SET_A1(c, v) do {} while(0)
 126:Middlewares/lvgl/src/draw/../misc/lv_color.h **** 
 127:Middlewares/lvgl/src/draw/../misc/lv_color.h **** # define LV_COLOR_GET_R1(c) (c).ch.red
 128:Middlewares/lvgl/src/draw/../misc/lv_color.h **** # define LV_COLOR_GET_G1(c) (c).ch.green
 129:Middlewares/lvgl/src/draw/../misc/lv_color.h **** # define LV_COLOR_GET_B1(c) (c).ch.blue
 130:Middlewares/lvgl/src/draw/../misc/lv_color.h **** # define LV_COLOR_GET_A1(c) 0xFF
 131:Middlewares/lvgl/src/draw/../misc/lv_color.h **** 
 132:Middlewares/lvgl/src/draw/../misc/lv_color.h **** # define _LV_COLOR_ZERO_INITIALIZER1 {0x00}
 133:Middlewares/lvgl/src/draw/../misc/lv_color.h **** # define LV_COLOR_MAKE1(r8, g8, b8)  {(uint8_t)((b8 >> 7) | (g8 >> 7) | (r8 >> 7))}
 134:Middlewares/lvgl/src/draw/../misc/lv_color.h **** 
 135:Middlewares/lvgl/src/draw/../misc/lv_color.h **** # define LV_COLOR_SET_R8(c, v) (c).ch.red = (uint8_t)((v) & 0x7U)
 136:Middlewares/lvgl/src/draw/../misc/lv_color.h **** # define LV_COLOR_SET_G8(c, v) (c).ch.green = (uint8_t)((v) & 0x7U)
 137:Middlewares/lvgl/src/draw/../misc/lv_color.h **** # define LV_COLOR_SET_B8(c, v) (c).ch.blue = (uint8_t)((v) & 0x3U)
 138:Middlewares/lvgl/src/draw/../misc/lv_color.h **** # define LV_COLOR_SET_A8(c, v) do {} while(0)
 139:Middlewares/lvgl/src/draw/../misc/lv_color.h **** 
 140:Middlewares/lvgl/src/draw/../misc/lv_color.h **** # define LV_COLOR_GET_R8(c) (c).ch.red
 141:Middlewares/lvgl/src/draw/../misc/lv_color.h **** # define LV_COLOR_GET_G8(c) (c).ch.green
 142:Middlewares/lvgl/src/draw/../misc/lv_color.h **** # define LV_COLOR_GET_B8(c) (c).ch.blue
 143:Middlewares/lvgl/src/draw/../misc/lv_color.h **** # define LV_COLOR_GET_A8(c) 0xFF
 144:Middlewares/lvgl/src/draw/../misc/lv_color.h **** 
 145:Middlewares/lvgl/src/draw/../misc/lv_color.h **** # define _LV_COLOR_ZERO_INITIALIZER8 _LV_COLOR_MAKE_TYPE_HELPER {{0x00, 0x00, 0x00}}
 146:Middlewares/lvgl/src/draw/../misc/lv_color.h **** # define LV_COLOR_MAKE8(r8, g8, b8) _LV_COLOR_MAKE_TYPE_HELPER  {{(uint8_t)((b8 >> 6) & 0x3U), (uin
 147:Middlewares/lvgl/src/draw/../misc/lv_color.h **** 
 148:Middlewares/lvgl/src/draw/../misc/lv_color.h **** # define LV_COLOR_SET_R16(c, v) (c).ch.red = (uint8_t)((v) & 0x1FU)
 149:Middlewares/lvgl/src/draw/../misc/lv_color.h **** #if LV_COLOR_16_SWAP == 0
 150:Middlewares/lvgl/src/draw/../misc/lv_color.h **** # define LV_COLOR_SET_G16(c, v) (c).ch.green = (uint8_t)((v) & 0x3FU)
 151:Middlewares/lvgl/src/draw/../misc/lv_color.h **** #else
 152:Middlewares/lvgl/src/draw/../misc/lv_color.h **** # define LV_COLOR_SET_G16(c, v) {(c).ch.green_h = (uint8_t)(((v) >> 3) & 0x7); (c).ch.green_l = (ui
 153:Middlewares/lvgl/src/draw/../misc/lv_color.h **** #endif
 154:Middlewares/lvgl/src/draw/../misc/lv_color.h **** # define LV_COLOR_SET_B16(c, v) (c).ch.blue = (uint8_t)((v) & 0x1FU)
 155:Middlewares/lvgl/src/draw/../misc/lv_color.h **** # define LV_COLOR_SET_A16(c, v) do {} while(0)
ARM GAS  /tmp/ccwyVXLY.s 			page 45


 156:Middlewares/lvgl/src/draw/../misc/lv_color.h **** 
 157:Middlewares/lvgl/src/draw/../misc/lv_color.h **** # define LV_COLOR_GET_R16(c) (c).ch.red
 158:Middlewares/lvgl/src/draw/../misc/lv_color.h **** #if LV_COLOR_16_SWAP == 0
 159:Middlewares/lvgl/src/draw/../misc/lv_color.h **** # define LV_COLOR_GET_G16(c) (c).ch.green
 160:Middlewares/lvgl/src/draw/../misc/lv_color.h **** #else
 161:Middlewares/lvgl/src/draw/../misc/lv_color.h **** # define LV_COLOR_GET_G16(c) (((c).ch.green_h << 3) + (c).ch.green_l)
 162:Middlewares/lvgl/src/draw/../misc/lv_color.h **** #endif
 163:Middlewares/lvgl/src/draw/../misc/lv_color.h **** # define LV_COLOR_GET_B16(c) (c).ch.blue
 164:Middlewares/lvgl/src/draw/../misc/lv_color.h **** # define LV_COLOR_GET_A16(c) 0xFF
 165:Middlewares/lvgl/src/draw/../misc/lv_color.h **** 
 166:Middlewares/lvgl/src/draw/../misc/lv_color.h **** #if LV_COLOR_16_SWAP == 0
 167:Middlewares/lvgl/src/draw/../misc/lv_color.h **** # define _LV_COLOR_ZERO_INITIALIZER16  {{0x00, 0x00, 0x00}}
 168:Middlewares/lvgl/src/draw/../misc/lv_color.h **** # define LV_COLOR_MAKE16(r8, g8, b8) {{(uint8_t)((b8 >> 3) & 0x1FU), (uint8_t)((g8 >> 2) & 0x3FU), 
 169:Middlewares/lvgl/src/draw/../misc/lv_color.h **** #else
 170:Middlewares/lvgl/src/draw/../misc/lv_color.h **** # define _LV_COLOR_ZERO_INITIALIZER16 {{0x00, 0x00, 0x00, 0x00}}
 171:Middlewares/lvgl/src/draw/../misc/lv_color.h **** # define LV_COLOR_MAKE16(r8, g8, b8) {{(uint8_t)((g8 >> 5) & 0x7U), (uint8_t)((r8 >> 3) & 0x1FU), (
 172:Middlewares/lvgl/src/draw/../misc/lv_color.h **** #endif
 173:Middlewares/lvgl/src/draw/../misc/lv_color.h **** 
 174:Middlewares/lvgl/src/draw/../misc/lv_color.h **** # define LV_COLOR_SET_R32(c, v) (c).ch.red = (uint8_t)((v) & 0xFF)
 175:Middlewares/lvgl/src/draw/../misc/lv_color.h **** # define LV_COLOR_SET_G32(c, v) (c).ch.green = (uint8_t)((v) & 0xFF)
 176:Middlewares/lvgl/src/draw/../misc/lv_color.h **** # define LV_COLOR_SET_B32(c, v) (c).ch.blue = (uint8_t)((v) & 0xFF)
 177:Middlewares/lvgl/src/draw/../misc/lv_color.h **** # define LV_COLOR_SET_A32(c, v) (c).ch.alpha = (uint8_t)((v) & 0xFF)
 178:Middlewares/lvgl/src/draw/../misc/lv_color.h **** 
 179:Middlewares/lvgl/src/draw/../misc/lv_color.h **** # define LV_COLOR_GET_R32(c) (c).ch.red
 180:Middlewares/lvgl/src/draw/../misc/lv_color.h **** # define LV_COLOR_GET_G32(c) (c).ch.green
 181:Middlewares/lvgl/src/draw/../misc/lv_color.h **** # define LV_COLOR_GET_B32(c) (c).ch.blue
 182:Middlewares/lvgl/src/draw/../misc/lv_color.h **** # define LV_COLOR_GET_A32(c) (c).ch.alpha
 183:Middlewares/lvgl/src/draw/../misc/lv_color.h **** 
 184:Middlewares/lvgl/src/draw/../misc/lv_color.h **** # define _LV_COLOR_ZERO_INITIALIZER32  {{0x00, 0x00, 0x00, 0x00}}
 185:Middlewares/lvgl/src/draw/../misc/lv_color.h **** # define LV_COLOR_MAKE32(r8, g8, b8) {{b8, g8, r8, 0xff}} /*Fix 0xff alpha*/
 186:Middlewares/lvgl/src/draw/../misc/lv_color.h **** 
 187:Middlewares/lvgl/src/draw/../misc/lv_color.h **** /*---------------------------------------
 188:Middlewares/lvgl/src/draw/../misc/lv_color.h ****  * Macros for the current color depth
 189:Middlewares/lvgl/src/draw/../misc/lv_color.h ****  * to set/get values of the color channels
 190:Middlewares/lvgl/src/draw/../misc/lv_color.h ****  *------------------------------------------*/
 191:Middlewares/lvgl/src/draw/../misc/lv_color.h **** #define LV_COLOR_SET_R(c, v) LV_CONCAT(LV_COLOR_SET_R, LV_COLOR_DEPTH)(c, v)
 192:Middlewares/lvgl/src/draw/../misc/lv_color.h **** #define LV_COLOR_SET_G(c, v) LV_CONCAT(LV_COLOR_SET_G, LV_COLOR_DEPTH)(c, v)
 193:Middlewares/lvgl/src/draw/../misc/lv_color.h **** #define LV_COLOR_SET_B(c, v) LV_CONCAT(LV_COLOR_SET_B, LV_COLOR_DEPTH)(c, v)
 194:Middlewares/lvgl/src/draw/../misc/lv_color.h **** #define LV_COLOR_SET_A(c, v) LV_CONCAT(LV_COLOR_SET_A, LV_COLOR_DEPTH)(c, v)
 195:Middlewares/lvgl/src/draw/../misc/lv_color.h **** 
 196:Middlewares/lvgl/src/draw/../misc/lv_color.h **** #define LV_COLOR_GET_R(c) LV_CONCAT(LV_COLOR_GET_R, LV_COLOR_DEPTH)(c)
 197:Middlewares/lvgl/src/draw/../misc/lv_color.h **** #define LV_COLOR_GET_G(c) LV_CONCAT(LV_COLOR_GET_G, LV_COLOR_DEPTH)(c)
 198:Middlewares/lvgl/src/draw/../misc/lv_color.h **** #define LV_COLOR_GET_B(c) LV_CONCAT(LV_COLOR_GET_B, LV_COLOR_DEPTH)(c)
 199:Middlewares/lvgl/src/draw/../misc/lv_color.h **** #define LV_COLOR_GET_A(c) LV_CONCAT(LV_COLOR_GET_A, LV_COLOR_DEPTH)(c)
 200:Middlewares/lvgl/src/draw/../misc/lv_color.h **** 
 201:Middlewares/lvgl/src/draw/../misc/lv_color.h **** #define _LV_COLOR_ZERO_INITIALIZER LV_CONCAT(_LV_COLOR_ZERO_INITIALIZER, LV_COLOR_DEPTH)
 202:Middlewares/lvgl/src/draw/../misc/lv_color.h **** #define LV_COLOR_MAKE(r8, g8, b8) LV_CONCAT(LV_COLOR_MAKE, LV_COLOR_DEPTH)(r8, g8, b8)
 203:Middlewares/lvgl/src/draw/../misc/lv_color.h **** 
 204:Middlewares/lvgl/src/draw/../misc/lv_color.h **** #define LV_UDIV255(x) ((uint32_t)((uint32_t) (x) * 0x8081) >> 0x17)
 205:Middlewares/lvgl/src/draw/../misc/lv_color.h **** 
 206:Middlewares/lvgl/src/draw/../misc/lv_color.h **** /**********************
 207:Middlewares/lvgl/src/draw/../misc/lv_color.h ****  *      TYPEDEFS
 208:Middlewares/lvgl/src/draw/../misc/lv_color.h ****  **********************/
 209:Middlewares/lvgl/src/draw/../misc/lv_color.h **** 
 210:Middlewares/lvgl/src/draw/../misc/lv_color.h **** typedef union {
 211:Middlewares/lvgl/src/draw/../misc/lv_color.h ****     uint8_t full; /*must be declared first to set all bits of byte via initializer list*/
 212:Middlewares/lvgl/src/draw/../misc/lv_color.h ****     union {
ARM GAS  /tmp/ccwyVXLY.s 			page 46


 213:Middlewares/lvgl/src/draw/../misc/lv_color.h ****         uint8_t blue : 1;
 214:Middlewares/lvgl/src/draw/../misc/lv_color.h ****         uint8_t green : 1;
 215:Middlewares/lvgl/src/draw/../misc/lv_color.h ****         uint8_t red : 1;
 216:Middlewares/lvgl/src/draw/../misc/lv_color.h ****     } ch;
 217:Middlewares/lvgl/src/draw/../misc/lv_color.h **** } lv_color1_t;
 218:Middlewares/lvgl/src/draw/../misc/lv_color.h **** 
 219:Middlewares/lvgl/src/draw/../misc/lv_color.h **** typedef union {
 220:Middlewares/lvgl/src/draw/../misc/lv_color.h ****     struct {
 221:Middlewares/lvgl/src/draw/../misc/lv_color.h ****         uint8_t blue : 2;
 222:Middlewares/lvgl/src/draw/../misc/lv_color.h ****         uint8_t green : 3;
 223:Middlewares/lvgl/src/draw/../misc/lv_color.h ****         uint8_t red : 3;
 224:Middlewares/lvgl/src/draw/../misc/lv_color.h ****     } ch;
 225:Middlewares/lvgl/src/draw/../misc/lv_color.h ****     uint8_t full;
 226:Middlewares/lvgl/src/draw/../misc/lv_color.h **** } lv_color8_t;
 227:Middlewares/lvgl/src/draw/../misc/lv_color.h **** 
 228:Middlewares/lvgl/src/draw/../misc/lv_color.h **** typedef union {
 229:Middlewares/lvgl/src/draw/../misc/lv_color.h ****     struct {
 230:Middlewares/lvgl/src/draw/../misc/lv_color.h **** #if LV_COLOR_16_SWAP == 0
 231:Middlewares/lvgl/src/draw/../misc/lv_color.h ****         uint16_t blue : 5;
 232:Middlewares/lvgl/src/draw/../misc/lv_color.h ****         uint16_t green : 6;
 233:Middlewares/lvgl/src/draw/../misc/lv_color.h ****         uint16_t red : 5;
 234:Middlewares/lvgl/src/draw/../misc/lv_color.h **** #else
 235:Middlewares/lvgl/src/draw/../misc/lv_color.h ****         uint16_t green_h : 3;
 236:Middlewares/lvgl/src/draw/../misc/lv_color.h ****         uint16_t red : 5;
 237:Middlewares/lvgl/src/draw/../misc/lv_color.h ****         uint16_t blue : 5;
 238:Middlewares/lvgl/src/draw/../misc/lv_color.h ****         uint16_t green_l : 3;
 239:Middlewares/lvgl/src/draw/../misc/lv_color.h **** #endif
 240:Middlewares/lvgl/src/draw/../misc/lv_color.h ****     } ch;
 241:Middlewares/lvgl/src/draw/../misc/lv_color.h ****     uint16_t full;
 242:Middlewares/lvgl/src/draw/../misc/lv_color.h **** } lv_color16_t;
 243:Middlewares/lvgl/src/draw/../misc/lv_color.h **** 
 244:Middlewares/lvgl/src/draw/../misc/lv_color.h **** typedef union {
 245:Middlewares/lvgl/src/draw/../misc/lv_color.h ****     struct {
 246:Middlewares/lvgl/src/draw/../misc/lv_color.h ****         uint8_t blue;
 247:Middlewares/lvgl/src/draw/../misc/lv_color.h ****         uint8_t green;
 248:Middlewares/lvgl/src/draw/../misc/lv_color.h ****         uint8_t red;
 249:Middlewares/lvgl/src/draw/../misc/lv_color.h ****         uint8_t alpha;
 250:Middlewares/lvgl/src/draw/../misc/lv_color.h ****     } ch;
 251:Middlewares/lvgl/src/draw/../misc/lv_color.h ****     uint32_t full;
 252:Middlewares/lvgl/src/draw/../misc/lv_color.h **** } lv_color32_t;
 253:Middlewares/lvgl/src/draw/../misc/lv_color.h **** 
 254:Middlewares/lvgl/src/draw/../misc/lv_color.h **** typedef LV_CONCAT3(uint, LV_COLOR_SIZE, _t) lv_color_int_t;
 255:Middlewares/lvgl/src/draw/../misc/lv_color.h **** typedef LV_CONCAT3(lv_color, LV_COLOR_DEPTH, _t) lv_color_t;
 256:Middlewares/lvgl/src/draw/../misc/lv_color.h **** 
 257:Middlewares/lvgl/src/draw/../misc/lv_color.h **** typedef struct {
 258:Middlewares/lvgl/src/draw/../misc/lv_color.h ****     uint16_t h;
 259:Middlewares/lvgl/src/draw/../misc/lv_color.h ****     uint8_t s;
 260:Middlewares/lvgl/src/draw/../misc/lv_color.h ****     uint8_t v;
 261:Middlewares/lvgl/src/draw/../misc/lv_color.h **** } lv_color_hsv_t;
 262:Middlewares/lvgl/src/draw/../misc/lv_color.h **** 
 263:Middlewares/lvgl/src/draw/../misc/lv_color.h **** //! @cond Doxygen_Suppress
 264:Middlewares/lvgl/src/draw/../misc/lv_color.h **** /*No idea where the guard is required but else throws warnings in the docs*/
 265:Middlewares/lvgl/src/draw/../misc/lv_color.h **** typedef uint8_t lv_opa_t;
 266:Middlewares/lvgl/src/draw/../misc/lv_color.h **** //! @endcond
 267:Middlewares/lvgl/src/draw/../misc/lv_color.h **** 
 268:Middlewares/lvgl/src/draw/../misc/lv_color.h **** struct _lv_color_filter_dsc_t;
 269:Middlewares/lvgl/src/draw/../misc/lv_color.h **** 
ARM GAS  /tmp/ccwyVXLY.s 			page 47


 270:Middlewares/lvgl/src/draw/../misc/lv_color.h **** typedef lv_color_t (*lv_color_filter_cb_t)(const struct _lv_color_filter_dsc_t *, lv_color_t, lv_op
 271:Middlewares/lvgl/src/draw/../misc/lv_color.h **** 
 272:Middlewares/lvgl/src/draw/../misc/lv_color.h **** typedef struct _lv_color_filter_dsc_t {
 273:Middlewares/lvgl/src/draw/../misc/lv_color.h ****     lv_color_filter_cb_t filter_cb;
 274:Middlewares/lvgl/src/draw/../misc/lv_color.h ****     void * user_data;
 275:Middlewares/lvgl/src/draw/../misc/lv_color.h **** }lv_color_filter_dsc_t;
 276:Middlewares/lvgl/src/draw/../misc/lv_color.h **** 
 277:Middlewares/lvgl/src/draw/../misc/lv_color.h **** 
 278:Middlewares/lvgl/src/draw/../misc/lv_color.h **** typedef enum {
 279:Middlewares/lvgl/src/draw/../misc/lv_color.h ****     LV_PALETTE_RED,
 280:Middlewares/lvgl/src/draw/../misc/lv_color.h ****     LV_PALETTE_PINK,
 281:Middlewares/lvgl/src/draw/../misc/lv_color.h ****     LV_PALETTE_PURPLE,
 282:Middlewares/lvgl/src/draw/../misc/lv_color.h ****     LV_PALETTE_DEEP_PURPLE,
 283:Middlewares/lvgl/src/draw/../misc/lv_color.h ****     LV_PALETTE_INDIGO,
 284:Middlewares/lvgl/src/draw/../misc/lv_color.h ****     LV_PALETTE_BLUE,
 285:Middlewares/lvgl/src/draw/../misc/lv_color.h ****     LV_PALETTE_LIGHT_BLUE,
 286:Middlewares/lvgl/src/draw/../misc/lv_color.h ****     LV_PALETTE_CYAN,
 287:Middlewares/lvgl/src/draw/../misc/lv_color.h ****     LV_PALETTE_TEAL,
 288:Middlewares/lvgl/src/draw/../misc/lv_color.h ****     LV_PALETTE_GREEN,
 289:Middlewares/lvgl/src/draw/../misc/lv_color.h ****     LV_PALETTE_LIGHT_GREEN,
 290:Middlewares/lvgl/src/draw/../misc/lv_color.h ****     LV_PALETTE_LIME,
 291:Middlewares/lvgl/src/draw/../misc/lv_color.h ****     LV_PALETTE_YELLOW,
 292:Middlewares/lvgl/src/draw/../misc/lv_color.h ****     LV_PALETTE_AMBER,
 293:Middlewares/lvgl/src/draw/../misc/lv_color.h ****     LV_PALETTE_ORANGE,
 294:Middlewares/lvgl/src/draw/../misc/lv_color.h ****     LV_PALETTE_DEEP_ORANGE,
 295:Middlewares/lvgl/src/draw/../misc/lv_color.h ****     LV_PALETTE_BROWN,
 296:Middlewares/lvgl/src/draw/../misc/lv_color.h ****     LV_PALETTE_BLUE_GREY,
 297:Middlewares/lvgl/src/draw/../misc/lv_color.h ****     LV_PALETTE_GREY,
 298:Middlewares/lvgl/src/draw/../misc/lv_color.h ****     _LV_PALETTE_LAST,
 299:Middlewares/lvgl/src/draw/../misc/lv_color.h ****     LV_PALETTE_NONE = 0xff,
 300:Middlewares/lvgl/src/draw/../misc/lv_color.h **** }lv_palette_t;
 301:Middlewares/lvgl/src/draw/../misc/lv_color.h **** 
 302:Middlewares/lvgl/src/draw/../misc/lv_color.h **** /**********************
 303:Middlewares/lvgl/src/draw/../misc/lv_color.h ****  * GLOBAL PROTOTYPES
 304:Middlewares/lvgl/src/draw/../misc/lv_color.h ****  **********************/
 305:Middlewares/lvgl/src/draw/../misc/lv_color.h **** 
 306:Middlewares/lvgl/src/draw/../misc/lv_color.h **** /*In color conversations:
 307:Middlewares/lvgl/src/draw/../misc/lv_color.h ****  * - When converting to bigger color type the LSB weight of 1 LSB is calculated
 308:Middlewares/lvgl/src/draw/../misc/lv_color.h ****  *   E.g. 16 bit Red has 5 bits
 309:Middlewares/lvgl/src/draw/../misc/lv_color.h ****  *         8 bit Red has 3 bits
 310:Middlewares/lvgl/src/draw/../misc/lv_color.h ****  *        ----------------------
 311:Middlewares/lvgl/src/draw/../misc/lv_color.h ****  *        8 bit red LSB = (2^5 - 1) / (2^3 - 1) = 31 / 7 = 4
 312:Middlewares/lvgl/src/draw/../misc/lv_color.h ****  *
 313:Middlewares/lvgl/src/draw/../misc/lv_color.h ****  * - When calculating to smaller color type simply shift out the LSBs
 314:Middlewares/lvgl/src/draw/../misc/lv_color.h ****  *   E.g.  8 bit Red has 3 bits
 315:Middlewares/lvgl/src/draw/../misc/lv_color.h ****  *        16 bit Red has 5 bits
 316:Middlewares/lvgl/src/draw/../misc/lv_color.h ****  *        ----------------------
 317:Middlewares/lvgl/src/draw/../misc/lv_color.h ****  *         Shift right with 5 - 3 = 2
 318:Middlewares/lvgl/src/draw/../misc/lv_color.h ****  */
 319:Middlewares/lvgl/src/draw/../misc/lv_color.h **** static inline uint8_t lv_color_to1(lv_color_t color)
 320:Middlewares/lvgl/src/draw/../misc/lv_color.h **** {
 321:Middlewares/lvgl/src/draw/../misc/lv_color.h **** #if LV_COLOR_DEPTH == 1
 322:Middlewares/lvgl/src/draw/../misc/lv_color.h ****     return color.full;
 323:Middlewares/lvgl/src/draw/../misc/lv_color.h **** #elif LV_COLOR_DEPTH == 8
 324:Middlewares/lvgl/src/draw/../misc/lv_color.h ****     if((LV_COLOR_GET_R(color) & 0x4) || (LV_COLOR_GET_G(color) & 0x4) || (LV_COLOR_GET_B(color) & 0
 325:Middlewares/lvgl/src/draw/../misc/lv_color.h ****         return 1;
 326:Middlewares/lvgl/src/draw/../misc/lv_color.h ****     }
ARM GAS  /tmp/ccwyVXLY.s 			page 48


 327:Middlewares/lvgl/src/draw/../misc/lv_color.h ****     else {
 328:Middlewares/lvgl/src/draw/../misc/lv_color.h ****         return 0;
 329:Middlewares/lvgl/src/draw/../misc/lv_color.h ****     }
 330:Middlewares/lvgl/src/draw/../misc/lv_color.h **** #elif LV_COLOR_DEPTH == 16
 331:Middlewares/lvgl/src/draw/../misc/lv_color.h ****     if((LV_COLOR_GET_R(color) & 0x10) || (LV_COLOR_GET_G(color) & 0x20) || (LV_COLOR_GET_B(color) &
 332:Middlewares/lvgl/src/draw/../misc/lv_color.h ****         return 1;
 333:Middlewares/lvgl/src/draw/../misc/lv_color.h ****     }
 334:Middlewares/lvgl/src/draw/../misc/lv_color.h ****     else {
 335:Middlewares/lvgl/src/draw/../misc/lv_color.h ****         return 0;
 336:Middlewares/lvgl/src/draw/../misc/lv_color.h ****     }
 337:Middlewares/lvgl/src/draw/../misc/lv_color.h **** #elif LV_COLOR_DEPTH == 32
 338:Middlewares/lvgl/src/draw/../misc/lv_color.h ****     if((LV_COLOR_GET_R(color) & 0x80) || (LV_COLOR_GET_G(color) & 0x80) || (LV_COLOR_GET_B(color) &
 339:Middlewares/lvgl/src/draw/../misc/lv_color.h ****         return 1;
 340:Middlewares/lvgl/src/draw/../misc/lv_color.h ****     }
 341:Middlewares/lvgl/src/draw/../misc/lv_color.h ****     else {
 342:Middlewares/lvgl/src/draw/../misc/lv_color.h ****         return 0;
 343:Middlewares/lvgl/src/draw/../misc/lv_color.h ****     }
 344:Middlewares/lvgl/src/draw/../misc/lv_color.h **** #endif
 345:Middlewares/lvgl/src/draw/../misc/lv_color.h **** }
 346:Middlewares/lvgl/src/draw/../misc/lv_color.h **** 
 347:Middlewares/lvgl/src/draw/../misc/lv_color.h **** static inline uint8_t lv_color_to8(lv_color_t color)
 348:Middlewares/lvgl/src/draw/../misc/lv_color.h **** {
 349:Middlewares/lvgl/src/draw/../misc/lv_color.h **** #if LV_COLOR_DEPTH == 1
 350:Middlewares/lvgl/src/draw/../misc/lv_color.h ****     if(color.full == 0)
 351:Middlewares/lvgl/src/draw/../misc/lv_color.h ****         return 0;
 352:Middlewares/lvgl/src/draw/../misc/lv_color.h ****     else
 353:Middlewares/lvgl/src/draw/../misc/lv_color.h ****         return 0xFF;
 354:Middlewares/lvgl/src/draw/../misc/lv_color.h **** #elif LV_COLOR_DEPTH == 8
 355:Middlewares/lvgl/src/draw/../misc/lv_color.h ****     return color.full;
 356:Middlewares/lvgl/src/draw/../misc/lv_color.h **** #elif LV_COLOR_DEPTH == 16
 357:Middlewares/lvgl/src/draw/../misc/lv_color.h ****     lv_color8_t ret;
 358:Middlewares/lvgl/src/draw/../misc/lv_color.h ****     LV_COLOR_SET_R8(ret, LV_COLOR_GET_R(color) >> 2); /*5 - 3  = 2*/
 359:Middlewares/lvgl/src/draw/../misc/lv_color.h ****     LV_COLOR_SET_G8(ret, LV_COLOR_GET_G(color) >> 3); /*6 - 3  = 3*/
 360:Middlewares/lvgl/src/draw/../misc/lv_color.h ****     LV_COLOR_SET_B8(ret, LV_COLOR_GET_B(color) >> 3); /*5 - 2  = 3*/
 361:Middlewares/lvgl/src/draw/../misc/lv_color.h ****     return ret.full;
 362:Middlewares/lvgl/src/draw/../misc/lv_color.h **** #elif LV_COLOR_DEPTH == 32
 363:Middlewares/lvgl/src/draw/../misc/lv_color.h ****     lv_color8_t ret;
 364:Middlewares/lvgl/src/draw/../misc/lv_color.h ****     LV_COLOR_SET_R8(ret, LV_COLOR_GET_R(color) >> 5); /*8 - 3  = 5*/
 365:Middlewares/lvgl/src/draw/../misc/lv_color.h ****     LV_COLOR_SET_G8(ret, LV_COLOR_GET_G(color) >> 5); /*8 - 3  = 5*/
 366:Middlewares/lvgl/src/draw/../misc/lv_color.h ****     LV_COLOR_SET_B8(ret, LV_COLOR_GET_B(color) >> 6); /*8 - 2  = 6*/
 367:Middlewares/lvgl/src/draw/../misc/lv_color.h ****     return ret.full;
 368:Middlewares/lvgl/src/draw/../misc/lv_color.h **** #endif
 369:Middlewares/lvgl/src/draw/../misc/lv_color.h **** }
 370:Middlewares/lvgl/src/draw/../misc/lv_color.h **** 
 371:Middlewares/lvgl/src/draw/../misc/lv_color.h **** static inline uint16_t lv_color_to16(lv_color_t color)
 372:Middlewares/lvgl/src/draw/../misc/lv_color.h **** {
 373:Middlewares/lvgl/src/draw/../misc/lv_color.h **** #if LV_COLOR_DEPTH == 1
 374:Middlewares/lvgl/src/draw/../misc/lv_color.h ****     if(color.full == 0)
 375:Middlewares/lvgl/src/draw/../misc/lv_color.h ****         return 0;
 376:Middlewares/lvgl/src/draw/../misc/lv_color.h ****     else
 377:Middlewares/lvgl/src/draw/../misc/lv_color.h ****         return 0xFFFF;
 378:Middlewares/lvgl/src/draw/../misc/lv_color.h **** #elif LV_COLOR_DEPTH == 8
 379:Middlewares/lvgl/src/draw/../misc/lv_color.h ****     lv_color16_t ret;
 380:Middlewares/lvgl/src/draw/../misc/lv_color.h ****     LV_COLOR_SET_R16(ret, LV_COLOR_GET_R(color) * 4);  /*(2^5 - 1)/(2^3 - 1) = 31/7 = 4*/
 381:Middlewares/lvgl/src/draw/../misc/lv_color.h ****     LV_COLOR_SET_G16(ret, LV_COLOR_GET_G(color) * 9);  /*(2^6 - 1)/(2^3 - 1) = 63/7 = 9*/
 382:Middlewares/lvgl/src/draw/../misc/lv_color.h ****     LV_COLOR_SET_B16(ret, LV_COLOR_GET_B(color) * 10); /*(2^5 - 1)/(2^2 - 1) = 31/3 = 10*/
 383:Middlewares/lvgl/src/draw/../misc/lv_color.h ****     return ret.full;
ARM GAS  /tmp/ccwyVXLY.s 			page 49


 384:Middlewares/lvgl/src/draw/../misc/lv_color.h **** #elif LV_COLOR_DEPTH == 16
 385:Middlewares/lvgl/src/draw/../misc/lv_color.h ****     return color.full;
 386:Middlewares/lvgl/src/draw/../misc/lv_color.h **** #elif LV_COLOR_DEPTH == 32
 387:Middlewares/lvgl/src/draw/../misc/lv_color.h ****     lv_color16_t ret;
 388:Middlewares/lvgl/src/draw/../misc/lv_color.h ****     LV_COLOR_SET_R16(ret, LV_COLOR_GET_R(color) >> 3); /*8 - 5  = 3*/
 389:Middlewares/lvgl/src/draw/../misc/lv_color.h ****     LV_COLOR_SET_G16(ret, LV_COLOR_GET_G(color) >> 2); /*8 - 6  = 2*/
 390:Middlewares/lvgl/src/draw/../misc/lv_color.h ****     LV_COLOR_SET_B16(ret, LV_COLOR_GET_B(color) >> 3); /*8 - 5  = 3*/
 391:Middlewares/lvgl/src/draw/../misc/lv_color.h ****     return ret.full;
 392:Middlewares/lvgl/src/draw/../misc/lv_color.h **** #endif
 393:Middlewares/lvgl/src/draw/../misc/lv_color.h **** }
 394:Middlewares/lvgl/src/draw/../misc/lv_color.h **** 
 395:Middlewares/lvgl/src/draw/../misc/lv_color.h **** static inline uint32_t lv_color_to32(lv_color_t color)
 396:Middlewares/lvgl/src/draw/../misc/lv_color.h **** {
 397:Middlewares/lvgl/src/draw/../misc/lv_color.h **** #if LV_COLOR_DEPTH == 1
 398:Middlewares/lvgl/src/draw/../misc/lv_color.h ****     if(color.full == 0)
 399:Middlewares/lvgl/src/draw/../misc/lv_color.h ****         return 0xFF000000;
 400:Middlewares/lvgl/src/draw/../misc/lv_color.h ****     else
 401:Middlewares/lvgl/src/draw/../misc/lv_color.h ****         return 0xFFFFFFFF;
 402:Middlewares/lvgl/src/draw/../misc/lv_color.h **** #elif LV_COLOR_DEPTH == 8
 403:Middlewares/lvgl/src/draw/../misc/lv_color.h ****     lv_color32_t ret;
 404:Middlewares/lvgl/src/draw/../misc/lv_color.h ****     LV_COLOR_SET_R32(ret, LV_COLOR_GET_R(color) * 36); /*(2^8 - 1)/(2^3 - 1) = 255/7 = 36*/
 405:Middlewares/lvgl/src/draw/../misc/lv_color.h ****     LV_COLOR_SET_G32(ret, LV_COLOR_GET_G(color) * 36); /*(2^8 - 1)/(2^3 - 1) = 255/7 = 36*/
 406:Middlewares/lvgl/src/draw/../misc/lv_color.h ****     LV_COLOR_SET_B32(ret, LV_COLOR_GET_B(color) * 85); /*(2^8 - 1)/(2^2 - 1) = 255/3 = 85*/
 407:Middlewares/lvgl/src/draw/../misc/lv_color.h ****     LV_COLOR_SET_A32(ret, 0xFF);
 408:Middlewares/lvgl/src/draw/../misc/lv_color.h ****     return ret.full;
 409:Middlewares/lvgl/src/draw/../misc/lv_color.h **** #elif LV_COLOR_DEPTH == 16
 410:Middlewares/lvgl/src/draw/../misc/lv_color.h ****     /**
 411:Middlewares/lvgl/src/draw/../misc/lv_color.h ****      * The floating point math for conversion is:
 412:Middlewares/lvgl/src/draw/../misc/lv_color.h ****      *  valueto = valuefrom * ( (2^bitsto - 1) / (float)(2^bitsfrom - 1) )
 413:Middlewares/lvgl/src/draw/../misc/lv_color.h ****      * The faster integer math for conversion is:
 414:Middlewares/lvgl/src/draw/../misc/lv_color.h ****      *  valueto = ( valuefrom * multiplier + adder ) >> divisor
 415:Middlewares/lvgl/src/draw/../misc/lv_color.h ****      *   multiplier = FLOOR( ( (2^bitsto - 1) << divisor ) / (float)(2^bitsfrom - 1) )
 416:Middlewares/lvgl/src/draw/../misc/lv_color.h ****      *
 417:Middlewares/lvgl/src/draw/../misc/lv_color.h ****      * Find the first divisor where ( adder >> divisor ) <= 0
 418:Middlewares/lvgl/src/draw/../misc/lv_color.h ****      *
 419:Middlewares/lvgl/src/draw/../misc/lv_color.h ****      * 5-bit to 8-bit: ( 31 * multiplier + adder ) >> divisor = 255
 420:Middlewares/lvgl/src/draw/../misc/lv_color.h ****      * divisor  multiplier  adder  min (0)  max (31)
 421:Middlewares/lvgl/src/draw/../misc/lv_color.h ****      *       0           8      7        7       255
 422:Middlewares/lvgl/src/draw/../misc/lv_color.h ****      *       1          16     14        7       255
 423:Middlewares/lvgl/src/draw/../misc/lv_color.h ****      *       2          32     28        7       255
 424:Middlewares/lvgl/src/draw/../misc/lv_color.h ****      *       3          65     25        3       255
 425:Middlewares/lvgl/src/draw/../misc/lv_color.h ****      *       4         131     19        1       255
 426:Middlewares/lvgl/src/draw/../misc/lv_color.h ****      *       5         263      7        0       255
 427:Middlewares/lvgl/src/draw/../misc/lv_color.h ****      *
 428:Middlewares/lvgl/src/draw/../misc/lv_color.h ****      * 6-bit to 8-bit: 255 = ( 63 * multiplier + adder ) >> divisor
 429:Middlewares/lvgl/src/draw/../misc/lv_color.h ****      * divisor  multiplier  adder  min (0)  max (63)
 430:Middlewares/lvgl/src/draw/../misc/lv_color.h ****      *       0           4      3        3       255
 431:Middlewares/lvgl/src/draw/../misc/lv_color.h ****      *       1           8      6        3       255
 432:Middlewares/lvgl/src/draw/../misc/lv_color.h ****      *       2          16     12        3       255
 433:Middlewares/lvgl/src/draw/../misc/lv_color.h ****      *       3          32     24        3       255
 434:Middlewares/lvgl/src/draw/../misc/lv_color.h ****      *       4          64     48        3       255
 435:Middlewares/lvgl/src/draw/../misc/lv_color.h ****      *       5         129     33        1       255
 436:Middlewares/lvgl/src/draw/../misc/lv_color.h ****      *       6         259      3        0       255
 437:Middlewares/lvgl/src/draw/../misc/lv_color.h ****      */
 438:Middlewares/lvgl/src/draw/../misc/lv_color.h **** 
 439:Middlewares/lvgl/src/draw/../misc/lv_color.h ****     lv_color32_t ret;
 440:Middlewares/lvgl/src/draw/../misc/lv_color.h ****     LV_COLOR_SET_R32(ret, (LV_COLOR_GET_R(color) * 263 + 7) >> 5);
ARM GAS  /tmp/ccwyVXLY.s 			page 50


 441:Middlewares/lvgl/src/draw/../misc/lv_color.h ****     LV_COLOR_SET_G32(ret, (LV_COLOR_GET_G(color) * 259 + 3) >> 6);
 442:Middlewares/lvgl/src/draw/../misc/lv_color.h ****     LV_COLOR_SET_B32(ret, (LV_COLOR_GET_B(color) * 263 + 7) >> 5);
 443:Middlewares/lvgl/src/draw/../misc/lv_color.h ****     LV_COLOR_SET_A32(ret, 0xFF);
 444:Middlewares/lvgl/src/draw/../misc/lv_color.h ****     return ret.full;
 445:Middlewares/lvgl/src/draw/../misc/lv_color.h **** #elif LV_COLOR_DEPTH == 32
 446:Middlewares/lvgl/src/draw/../misc/lv_color.h ****     return color.full;
 447:Middlewares/lvgl/src/draw/../misc/lv_color.h **** #endif
 448:Middlewares/lvgl/src/draw/../misc/lv_color.h **** }
 449:Middlewares/lvgl/src/draw/../misc/lv_color.h **** 
 450:Middlewares/lvgl/src/draw/../misc/lv_color.h **** //! @cond Doxygen_Suppress
 451:Middlewares/lvgl/src/draw/../misc/lv_color.h **** 
 452:Middlewares/lvgl/src/draw/../misc/lv_color.h **** /**
 453:Middlewares/lvgl/src/draw/../misc/lv_color.h ****  * Mix two colors with a given ratio.
 454:Middlewares/lvgl/src/draw/../misc/lv_color.h ****  * @param c1 the first color to mix (usually the foreground)
 455:Middlewares/lvgl/src/draw/../misc/lv_color.h ****  * @param c2 the second color to mix (usually the background)
 456:Middlewares/lvgl/src/draw/../misc/lv_color.h ****  * @param mix The ratio of the colors. 0: full `c2`, 255: full `c1`, 127: half `c1` and half`c2`
 457:Middlewares/lvgl/src/draw/../misc/lv_color.h ****  * @return the mixed color
 458:Middlewares/lvgl/src/draw/../misc/lv_color.h ****  */
 459:Middlewares/lvgl/src/draw/../misc/lv_color.h **** LV_ATTRIBUTE_FAST_MEM static inline lv_color_t lv_color_mix(lv_color_t c1, lv_color_t c2, uint8_t m
 1004              		.loc 3 459 48 view .LVU335
 1005              	.LBB96:
 460:Middlewares/lvgl/src/draw/../misc/lv_color.h **** {
 461:Middlewares/lvgl/src/draw/../misc/lv_color.h ****     lv_color_t ret;
 1006              		.loc 3 461 5 view .LVU336
 462:Middlewares/lvgl/src/draw/../misc/lv_color.h **** #if LV_COLOR_DEPTH != 1
 463:Middlewares/lvgl/src/draw/../misc/lv_color.h ****     /*LV_COLOR_DEPTH == 8, 16 or 32*/
 464:Middlewares/lvgl/src/draw/../misc/lv_color.h ****     LV_COLOR_SET_R(ret, LV_UDIV255((uint16_t) LV_COLOR_GET_R(c1) * mix + LV_COLOR_GET_R(c2) *
 1007              		.loc 3 464 5 view .LVU337
 1008 0042 C0F3C424 		ubfx	r4, r0, #11, #5
 1009 0046 C1F3C42C 		ubfx	ip, r1, #11, #5
 1010              	.LVL99:
 1011              		.loc 3 464 5 is_stmt 0 view .LVU338
 1012 004a C2F1FF03 		rsb	r3, r2, #255
 1013 004e 03FB0CFC 		mul	ip, r3, ip
 1014 0052 02FB04CC 		mla	ip, r2, r4, ip
 1015 0056 0CF1800C 		add	ip, ip, #128
 1016 005a 0CEB0C24 		add	r4, ip, ip, lsl #8
 1017 005e 0CEBC41C 		add	ip, ip, r4, lsl #7
 1018 0062 CCF3C45C 		ubfx	ip, ip, #23, #5
 1019 0066 4FF0000E 		mov	lr, #0	@ movhi
 1020              	.LVL100:
 1021              		.loc 3 464 5 view .LVU339
 1022 006a 6CF3CF2E 		bfi	lr, ip, #11, #5
 1023              	.LVL101:
 465:Middlewares/lvgl/src/draw/../misc/lv_color.h ****                                         (255 - mix) + LV_COLOR_MIX_ROUND_OFS));
 466:Middlewares/lvgl/src/draw/../misc/lv_color.h ****     LV_COLOR_SET_G(ret, LV_UDIV255((uint16_t) LV_COLOR_GET_G(c1) * mix + LV_COLOR_GET_G(c2) *
 1024              		.loc 3 466 5 is_stmt 1 view .LVU340
 1025 006e C0F34514 		ubfx	r4, r0, #5, #6
 1026 0072 C1F3451C 		ubfx	ip, r1, #5, #6
 1027 0076 0CFB03FC 		mul	ip, ip, r3
 1028 007a 04FB02CC 		mla	ip, r4, r2, ip
 1029 007e 0CF1800C 		add	ip, ip, #128
 1030 0082 0CEB0C24 		add	r4, ip, ip, lsl #8
 1031 0086 0CEBC41C 		add	ip, ip, r4, lsl #7
 1032 008a CCF3C55C 		ubfx	ip, ip, #23, #6
 1033 008e 6CF34A1E 		bfi	lr, ip, #5, #6
 467:Middlewares/lvgl/src/draw/../misc/lv_color.h ****                                         (255 - mix) + LV_COLOR_MIX_ROUND_OFS));
ARM GAS  /tmp/ccwyVXLY.s 			page 51


 468:Middlewares/lvgl/src/draw/../misc/lv_color.h ****     LV_COLOR_SET_B(ret, LV_UDIV255((uint16_t) LV_COLOR_GET_B(c1) * mix + LV_COLOR_GET_B(c2) *
 1034              		.loc 3 468 5 view .LVU341
 1035 0092 00F01F0C 		and	ip, r0, #31
 1036 0096 01F01F01 		and	r1, r1, #31
 1037              	.LVL102:
 1038              		.loc 3 468 5 is_stmt 0 view .LVU342
 1039 009a 01FB03F3 		mul	r3, r1, r3
 1040 009e 0CFB0232 		mla	r2, ip, r2, r3
 1041              	.LVL103:
 1042              		.loc 3 468 5 view .LVU343
 1043 00a2 8032     		adds	r2, r2, #128
 1044 00a4 02EB0220 		add	r0, r2, r2, lsl #8
 1045              	.LVL104:
 1046              		.loc 3 468 5 view .LVU344
 1047 00a8 02EBC012 		add	r2, r2, r0, lsl #7
 1048 00ac C2F3C452 		ubfx	r2, r2, #23, #5
 1049 00b0 62F3040E 		bfi	lr, r2, #0, #5
 469:Middlewares/lvgl/src/draw/../misc/lv_color.h ****                                         (255 - mix) + LV_COLOR_MIX_ROUND_OFS));
 470:Middlewares/lvgl/src/draw/../misc/lv_color.h ****     LV_COLOR_SET_A(ret, 0xFF);
 1050              		.loc 3 470 5 is_stmt 1 view .LVU345
 1051              		.loc 3 470 5 view .LVU346
 1052              		.loc 3 470 5 view .LVU347
 471:Middlewares/lvgl/src/draw/../misc/lv_color.h **** #else
 472:Middlewares/lvgl/src/draw/../misc/lv_color.h ****     /*LV_COLOR_DEPTH == 1*/
 473:Middlewares/lvgl/src/draw/../misc/lv_color.h ****     ret.full = mix > LV_OPA_50 ? c1.full : c2.full;
 474:Middlewares/lvgl/src/draw/../misc/lv_color.h **** #endif
 475:Middlewares/lvgl/src/draw/../misc/lv_color.h **** 
 476:Middlewares/lvgl/src/draw/../misc/lv_color.h ****     return ret;
 1053              		.loc 3 476 5 view .LVU348
 1054 00b4 7046     		mov	r0, lr	@ movhi
 1055              	.LVL105:
 1056              		.loc 3 476 5 is_stmt 0 view .LVU349
 1057              	.LBE96:
 1058              	.LBE95:
1024:Middlewares/lvgl/src/draw/lv_draw_blend.c **** }
 1059              		.loc 1 1024 1 view .LVU350
 1060 00b6 10BD     		pop	{r4, pc}
 1061              	.LVL106:
 1062              	.L59:
 1063              	.LCFI10:
 1064              		.cfi_def_cfa_offset 0
 1065              		.cfi_restore 4
 1066              		.cfi_restore 14
 1067              	.LVL107:
 1068              		.loc 1 1024 1 view .LVU351
 1069 00b8 7047     		bx	lr
 1070              		.cfi_endproc
 1071              	.LFE155:
 1073              		.section	.text.color_blend_true_color_subtractive,"ax",%progbits
 1074              		.align	1
 1075              		.syntax unified
 1076              		.thumb
 1077              		.thumb_func
 1078              		.fpu softvfp
 1080              	color_blend_true_color_subtractive:
 1081              	.LVL108:
 1082              	.LFB156:
ARM GAS  /tmp/ccwyVXLY.s 			page 52


1025:Middlewares/lvgl/src/draw/lv_draw_blend.c **** 
1026:Middlewares/lvgl/src/draw/lv_draw_blend.c **** static inline lv_color_t color_blend_true_color_subtractive(lv_color_t fg, lv_color_t bg, lv_opa_t 
1027:Middlewares/lvgl/src/draw/lv_draw_blend.c **** {
 1083              		.loc 1 1027 1 is_stmt 1 view -0
 1084              		.cfi_startproc
 1085              		@ args = 0, pretend = 0, frame = 0
 1086              		@ frame_needed = 0, uses_anonymous_args = 0
1028:Middlewares/lvgl/src/draw/lv_draw_blend.c **** 
1029:Middlewares/lvgl/src/draw/lv_draw_blend.c ****     if(opa <= LV_OPA_MIN) return bg;
 1087              		.loc 1 1029 5 view .LVU353
 1088              		.loc 1 1029 7 is_stmt 0 view .LVU354
 1089 0000 022A     		cmp	r2, #2
 1090 0002 5BD9     		bls	.L70
1030:Middlewares/lvgl/src/draw/lv_draw_blend.c **** 
1031:Middlewares/lvgl/src/draw/lv_draw_blend.c ****     int32_t tmp;
 1091              		.loc 1 1031 5 is_stmt 1 view .LVU355
1032:Middlewares/lvgl/src/draw/lv_draw_blend.c ****     tmp = bg.ch.red - fg.ch.red;
 1092              		.loc 1 1032 5 view .LVU356
 1093              		.loc 1 1032 16 is_stmt 0 view .LVU357
 1094 0004 C1F3C423 		ubfx	r3, r1, #11, #5
 1095              		.loc 1 1032 28 view .LVU358
 1096 0008 C0F3C42C 		ubfx	ip, r0, #11, #5
 1097              		.loc 1 1032 9 view .LVU359
 1098 000c A3EB0C03 		sub	r3, r3, ip
 1099              	.LVL109:
1033:Middlewares/lvgl/src/draw/lv_draw_blend.c ****     fg.ch.red = LV_MAX(tmp, 0);
 1100              		.loc 1 1033 5 is_stmt 1 view .LVU360
 1101              		.loc 1 1033 17 is_stmt 0 view .LVU361
 1102 0010 23EAE373 		bic	r3, r3, r3, asr #31
 1103              	.LVL110:
 1104              		.loc 1 1033 15 view .LVU362
 1105 0014 63F3CF20 		bfi	r0, r3, #11, #5
1034:Middlewares/lvgl/src/draw/lv_draw_blend.c **** 
1035:Middlewares/lvgl/src/draw/lv_draw_blend.c **** #if LV_COLOR_16_SWAP == 0
1036:Middlewares/lvgl/src/draw/lv_draw_blend.c ****     tmp = bg.ch.green - fg.ch.green;
 1106              		.loc 1 1036 5 is_stmt 1 view .LVU363
 1107              		.loc 1 1036 16 is_stmt 0 view .LVU364
 1108 0018 C1F34513 		ubfx	r3, r1, #5, #6
 1109              		.loc 1 1036 30 view .LVU365
 1110 001c C0F3451C 		ubfx	ip, r0, #5, #6
 1111              	.LVL111:
 1112              		.loc 1 1036 9 view .LVU366
 1113 0020 A3EB0C03 		sub	r3, r3, ip
 1114              	.LVL112:
1037:Middlewares/lvgl/src/draw/lv_draw_blend.c ****     fg.ch.green = LV_MAX(tmp, 0);
 1115              		.loc 1 1037 5 is_stmt 1 view .LVU367
 1116              		.loc 1 1037 19 is_stmt 0 view .LVU368
 1117 0024 23EAE373 		bic	r3, r3, r3, asr #31
 1118              	.LVL113:
 1119              		.loc 1 1037 17 view .LVU369
 1120 0028 63F34A10 		bfi	r0, r3, #5, #6
1038:Middlewares/lvgl/src/draw/lv_draw_blend.c **** #else
1039:Middlewares/lvgl/src/draw/lv_draw_blend.c ****     tmp = (bg.ch.green_h << 3) + bg.ch.green_l + (fg.ch.green_h << 3) + fg.ch.green_l;
1040:Middlewares/lvgl/src/draw/lv_draw_blend.c ****     tmp = LV_MAX(tmp, 0);
1041:Middlewares/lvgl/src/draw/lv_draw_blend.c ****     fg.ch.green_h = tmp >> 3;
1042:Middlewares/lvgl/src/draw/lv_draw_blend.c ****     fg.ch.green_l = tmp & 0x7;
1043:Middlewares/lvgl/src/draw/lv_draw_blend.c **** #endif
ARM GAS  /tmp/ccwyVXLY.s 			page 53


1044:Middlewares/lvgl/src/draw/lv_draw_blend.c **** 
1045:Middlewares/lvgl/src/draw/lv_draw_blend.c ****     tmp = bg.ch.blue - fg.ch.blue;
 1121              		.loc 1 1045 5 is_stmt 1 view .LVU370
 1122              		.loc 1 1045 16 is_stmt 0 view .LVU371
 1123 002c 01F01F03 		and	r3, r1, #31
 1124              		.loc 1 1045 29 view .LVU372
 1125 0030 00F01F0C 		and	ip, r0, #31
 1126              	.LVL114:
 1127              		.loc 1 1045 9 view .LVU373
 1128 0034 A3EB0C03 		sub	r3, r3, ip
 1129              	.LVL115:
1046:Middlewares/lvgl/src/draw/lv_draw_blend.c ****     fg.ch.blue = LV_MAX(tmp, 0);
 1130              		.loc 1 1046 5 is_stmt 1 view .LVU374
 1131              		.loc 1 1046 18 is_stmt 0 view .LVU375
 1132 0038 23EAE373 		bic	r3, r3, r3, asr #31
 1133              	.LVL116:
 1134              		.loc 1 1046 16 view .LVU376
 1135 003c 63F30400 		bfi	r0, r3, #0, #5
1047:Middlewares/lvgl/src/draw/lv_draw_blend.c **** 
1048:Middlewares/lvgl/src/draw/lv_draw_blend.c ****     if(opa == LV_OPA_COVER) return fg;
 1136              		.loc 1 1048 5 is_stmt 1 view .LVU377
 1137              		.loc 1 1048 7 is_stmt 0 view .LVU378
 1138 0040 FF2A     		cmp	r2, #255
 1139 0042 3DD0     		beq	.L67
1027:Middlewares/lvgl/src/draw/lv_draw_blend.c **** 
 1140              		.loc 1 1027 1 view .LVU379
 1141 0044 10B5     		push	{r4, lr}
 1142              	.LCFI11:
 1143              		.cfi_def_cfa_offset 8
 1144              		.cfi_offset 4, -8
 1145              		.cfi_offset 14, -4
1049:Middlewares/lvgl/src/draw/lv_draw_blend.c **** 
1050:Middlewares/lvgl/src/draw/lv_draw_blend.c ****     return lv_color_mix(fg, bg, opa);
 1146              		.loc 1 1050 5 is_stmt 1 view .LVU380
 1147              	.LVL117:
 1148              	.LBB99:
 1149              	.LBI99:
 459:Middlewares/lvgl/src/draw/../misc/lv_color.h **** {
 1150              		.loc 3 459 48 view .LVU381
 1151              	.LBB100:
 461:Middlewares/lvgl/src/draw/../misc/lv_color.h **** #if LV_COLOR_DEPTH != 1
 1152              		.loc 3 461 5 view .LVU382
 464:Middlewares/lvgl/src/draw/../misc/lv_color.h ****                                         (255 - mix) + LV_COLOR_MIX_ROUND_OFS));
 1153              		.loc 3 464 5 view .LVU383
 1154 0046 C0F3C424 		ubfx	r4, r0, #11, #5
 1155 004a C1F3C42C 		ubfx	ip, r1, #11, #5
 1156              	.LVL118:
 464:Middlewares/lvgl/src/draw/../misc/lv_color.h ****                                         (255 - mix) + LV_COLOR_MIX_ROUND_OFS));
 1157              		.loc 3 464 5 is_stmt 0 view .LVU384
 1158 004e C2F1FF03 		rsb	r3, r2, #255
 1159 0052 03FB0CFC 		mul	ip, r3, ip
 1160 0056 02FB04CC 		mla	ip, r2, r4, ip
 1161 005a 0CF1800C 		add	ip, ip, #128
 1162 005e 0CEB0C24 		add	r4, ip, ip, lsl #8
 1163 0062 0CEBC41C 		add	ip, ip, r4, lsl #7
 1164 0066 CCF3C45C 		ubfx	ip, ip, #23, #5
 1165 006a 4FF0000E 		mov	lr, #0	@ movhi
ARM GAS  /tmp/ccwyVXLY.s 			page 54


 1166              	.LVL119:
 464:Middlewares/lvgl/src/draw/../misc/lv_color.h ****                                         (255 - mix) + LV_COLOR_MIX_ROUND_OFS));
 1167              		.loc 3 464 5 view .LVU385
 1168 006e 6CF3CF2E 		bfi	lr, ip, #11, #5
 1169              	.LVL120:
 466:Middlewares/lvgl/src/draw/../misc/lv_color.h ****                                         (255 - mix) + LV_COLOR_MIX_ROUND_OFS));
 1170              		.loc 3 466 5 is_stmt 1 view .LVU386
 1171 0072 C0F34514 		ubfx	r4, r0, #5, #6
 1172 0076 C1F3451C 		ubfx	ip, r1, #5, #6
 1173 007a 0CFB03FC 		mul	ip, ip, r3
 1174 007e 04FB02CC 		mla	ip, r4, r2, ip
 1175 0082 0CF1800C 		add	ip, ip, #128
 1176 0086 0CEB0C24 		add	r4, ip, ip, lsl #8
 1177 008a 0CEBC41C 		add	ip, ip, r4, lsl #7
 1178 008e CCF3C55C 		ubfx	ip, ip, #23, #6
 1179 0092 6CF34A1E 		bfi	lr, ip, #5, #6
 468:Middlewares/lvgl/src/draw/../misc/lv_color.h ****                                         (255 - mix) + LV_COLOR_MIX_ROUND_OFS));
 1180              		.loc 3 468 5 view .LVU387
 1181 0096 00F01F0C 		and	ip, r0, #31
 1182 009a 01F01F01 		and	r1, r1, #31
 1183              	.LVL121:
 468:Middlewares/lvgl/src/draw/../misc/lv_color.h ****                                         (255 - mix) + LV_COLOR_MIX_ROUND_OFS));
 1184              		.loc 3 468 5 is_stmt 0 view .LVU388
 1185 009e 01FB03F3 		mul	r3, r1, r3
 1186 00a2 0CFB0232 		mla	r2, ip, r2, r3
 1187              	.LVL122:
 468:Middlewares/lvgl/src/draw/../misc/lv_color.h ****                                         (255 - mix) + LV_COLOR_MIX_ROUND_OFS));
 1188              		.loc 3 468 5 view .LVU389
 1189 00a6 8032     		adds	r2, r2, #128
 1190 00a8 02EB0220 		add	r0, r2, r2, lsl #8
 1191              	.LVL123:
 468:Middlewares/lvgl/src/draw/../misc/lv_color.h ****                                         (255 - mix) + LV_COLOR_MIX_ROUND_OFS));
 1192              		.loc 3 468 5 view .LVU390
 1193 00ac 02EBC012 		add	r2, r2, r0, lsl #7
 1194 00b0 C2F3C452 		ubfx	r2, r2, #23, #5
 1195 00b4 62F3040E 		bfi	lr, r2, #0, #5
 470:Middlewares/lvgl/src/draw/../misc/lv_color.h **** #else
 1196              		.loc 3 470 5 is_stmt 1 view .LVU391
 470:Middlewares/lvgl/src/draw/../misc/lv_color.h **** #else
 1197              		.loc 3 470 5 view .LVU392
 470:Middlewares/lvgl/src/draw/../misc/lv_color.h **** #else
 1198              		.loc 3 470 5 view .LVU393
 1199              		.loc 3 476 5 view .LVU394
 1200 00b8 7046     		mov	r0, lr	@ movhi
 1201              	.LVL124:
 1202              		.loc 3 476 5 is_stmt 0 view .LVU395
 1203              	.LBE100:
 1204              	.LBE99:
1051:Middlewares/lvgl/src/draw/lv_draw_blend.c **** }
 1205              		.loc 1 1051 1 view .LVU396
 1206 00ba 10BD     		pop	{r4, pc}
 1207              	.LVL125:
 1208              	.L70:
 1209              	.LCFI12:
 1210              		.cfi_def_cfa_offset 0
 1211              		.cfi_restore 4
 1212              		.cfi_restore 14
ARM GAS  /tmp/ccwyVXLY.s 			page 55


1029:Middlewares/lvgl/src/draw/lv_draw_blend.c **** 
 1213              		.loc 1 1029 27 is_stmt 1 discriminator 1 view .LVU397
1029:Middlewares/lvgl/src/draw/lv_draw_blend.c **** 
 1214              		.loc 1 1029 34 is_stmt 0 discriminator 1 view .LVU398
 1215 00bc 0846     		mov	r0, r1	@ movhi
 1216              	.LVL126:
1029:Middlewares/lvgl/src/draw/lv_draw_blend.c **** 
 1217              		.loc 1 1029 34 discriminator 1 view .LVU399
 1218 00be 7047     		bx	lr
 1219              	.LVL127:
 1220              	.L67:
 1221              	.LVL128:
 1222              		.loc 1 1051 1 view .LVU400
 1223 00c0 7047     		bx	lr
 1224              		.cfi_endproc
 1225              	.LFE156:
 1227              		.section	.text.map_normal,"ax",%progbits
 1228              		.align	1
 1229              		.syntax unified
 1230              		.thumb
 1231              		.thumb_func
 1232              		.fpu softvfp
 1234              	map_normal:
 1235              	.LVL129:
 1236              	.LFB153:
 660:Middlewares/lvgl/src/draw/lv_draw_blend.c **** 
 1237              		.loc 1 660 1 is_stmt 1 view -0
 1238              		.cfi_startproc
 1239              		@ args = 16, pretend = 0, frame = 40
 1240              		@ frame_needed = 0, uses_anonymous_args = 0
 660:Middlewares/lvgl/src/draw/lv_draw_blend.c **** 
 1241              		.loc 1 660 1 is_stmt 0 view .LVU402
 1242 0000 2DE9F04F 		push	{r4, r5, r6, r7, r8, r9, r10, fp, lr}
 1243              	.LCFI13:
 1244              		.cfi_def_cfa_offset 36
 1245              		.cfi_offset 4, -36
 1246              		.cfi_offset 5, -32
 1247              		.cfi_offset 6, -28
 1248              		.cfi_offset 7, -24
 1249              		.cfi_offset 8, -20
 1250              		.cfi_offset 9, -16
 1251              		.cfi_offset 10, -12
 1252              		.cfi_offset 11, -8
 1253              		.cfi_offset 14, -4
 1254 0004 8BB0     		sub	sp, sp, #44
 1255              	.LCFI14:
 1256              		.cfi_def_cfa_offset 80
 1257 0006 0291     		str	r1, [sp, #8]
 1258 0008 9DF85480 		ldrb	r8, [sp, #84]	@ zero_extendqisi2
 663:Middlewares/lvgl/src/draw/lv_draw_blend.c **** 
 1259              		.loc 1 663 5 is_stmt 1 view .LVU403
 1260              	.LVL130:
 1261              	.LBB128:
 1262              	.LBI128:
 133:Middlewares/lvgl/src/draw/../misc/lv_area.h **** {
 1263              		.loc 2 133 26 view .LVU404
 1264              	.LBB129:
ARM GAS  /tmp/ccwyVXLY.s 			page 56


 1265              		.loc 2 135 5 view .LVU405
 1266              		.loc 2 135 31 is_stmt 0 view .LVU406
 1267 000c 8188     		ldrh	r1, [r0, #4]
 1268              	.LVL131:
 1269              		.loc 2 135 44 view .LVU407
 1270 000e B0F90040 		ldrsh	r4, [r0]
 1271 0012 0094     		str	r4, [sp]
 1272 0014 BDF80040 		ldrh	r4, [sp]
 1273              		.loc 2 135 36 view .LVU408
 1274 0018 091B     		subs	r1, r1, r4
 1275 001a 89B2     		uxth	r1, r1
 1276              		.loc 2 135 49 view .LVU409
 1277 001c 0131     		adds	r1, r1, #1
 1278              		.loc 2 135 12 view .LVU410
 1279 001e 0DB2     		sxth	r5, r1
 1280 0020 0495     		str	r5, [sp, #16]
 1281              	.LVL132:
 1282              		.loc 2 135 12 view .LVU411
 1283              	.LBE129:
 1284              	.LBE128:
 665:Middlewares/lvgl/src/draw/lv_draw_blend.c ****     int32_t draw_area_h = lv_area_get_height(draw_area);
 1285              		.loc 1 665 5 is_stmt 1 view .LVU412
 1286              	.LBB130:
 1287              	.LBI130:
 133:Middlewares/lvgl/src/draw/../misc/lv_area.h **** {
 1288              		.loc 2 133 26 view .LVU413
 1289              	.LBB131:
 1290              		.loc 2 135 5 view .LVU414
 1291              		.loc 2 135 31 is_stmt 0 view .LVU415
 1292 0022 9188     		ldrh	r1, [r2, #4]
 1293              		.loc 2 135 44 view .LVU416
 1294 0024 B2F90060 		ldrsh	r6, [r2]
 1295 0028 B4B2     		uxth	r4, r6
 1296              		.loc 2 135 36 view .LVU417
 1297 002a 0D1B     		subs	r5, r1, r4
 1298              	.LVL133:
 1299              		.loc 2 135 36 view .LVU418
 1300 002c ADB2     		uxth	r5, r5
 1301              		.loc 2 135 49 view .LVU419
 1302 002e 0135     		adds	r5, r5, #1
 1303              		.loc 2 135 12 view .LVU420
 1304 0030 2DB2     		sxth	r5, r5
 1305              	.LVL134:
 1306              		.loc 2 135 12 view .LVU421
 1307              	.LBE131:
 1308              	.LBE130:
 666:Middlewares/lvgl/src/draw/lv_draw_blend.c **** 
 1309              		.loc 1 666 5 is_stmt 1 view .LVU422
 1310              	.LBB132:
 1311              	.LBI132:
 136:Middlewares/lvgl/src/draw/../misc/lv_area.h **** }
 137:Middlewares/lvgl/src/draw/../misc/lv_area.h **** 
 138:Middlewares/lvgl/src/draw/../misc/lv_area.h **** /**
 139:Middlewares/lvgl/src/draw/../misc/lv_area.h ****  * Get the height of an area
 140:Middlewares/lvgl/src/draw/../misc/lv_area.h ****  * @param area_p pointer to an area
 141:Middlewares/lvgl/src/draw/../misc/lv_area.h ****  * @return the height of the area (if y1 == y2 -> height = 1)
 142:Middlewares/lvgl/src/draw/../misc/lv_area.h ****  */
ARM GAS  /tmp/ccwyVXLY.s 			page 57


 143:Middlewares/lvgl/src/draw/../misc/lv_area.h **** static inline lv_coord_t lv_area_get_height(const lv_area_t * area_p)
 1312              		.loc 2 143 26 view .LVU423
 1313              	.LBB133:
 144:Middlewares/lvgl/src/draw/../misc/lv_area.h **** {
 145:Middlewares/lvgl/src/draw/../misc/lv_area.h ****     return (lv_coord_t)(area_p->y2 - area_p->y1 + 1);
 1314              		.loc 2 145 5 view .LVU424
 1315              		.loc 2 145 31 is_stmt 0 view .LVU425
 1316 0032 D188     		ldrh	r1, [r2, #6]
 1317              		.loc 2 145 44 view .LVU426
 1318 0034 B2F902B0 		ldrsh	fp, [r2, #2]
 1319 0038 1FFA8BF2 		uxth	r2, fp
 1320              	.LVL135:
 1321              		.loc 2 145 36 view .LVU427
 1322 003c 8A1A     		subs	r2, r1, r2
 1323 003e 92B2     		uxth	r2, r2
 1324              		.loc 2 145 49 view .LVU428
 1325 0040 0132     		adds	r2, r2, #1
 1326              		.loc 2 145 12 view .LVU429
 1327 0042 0FFA82FA 		sxth	r10, r2
 1328 0046 CDF814A0 		str	r10, [sp, #20]
 1329              	.LVL136:
 1330              		.loc 2 145 12 view .LVU430
 1331              	.LBE133:
 1332              	.LBE132:
 669:Middlewares/lvgl/src/draw/lv_draw_blend.c **** 
 1333              		.loc 1 669 5 is_stmt 1 view .LVU431
 1334              	.LBB134:
 1335              	.LBI134:
 133:Middlewares/lvgl/src/draw/../misc/lv_area.h **** {
 1336              		.loc 2 133 26 view .LVU432
 1337              	.LBB135:
 135:Middlewares/lvgl/src/draw/../misc/lv_area.h **** }
 1338              		.loc 2 135 5 view .LVU433
 135:Middlewares/lvgl/src/draw/../misc/lv_area.h **** }
 1339              		.loc 2 135 31 is_stmt 0 view .LVU434
 1340 004a 9A88     		ldrh	r2, [r3, #4]
 135:Middlewares/lvgl/src/draw/../misc/lv_area.h **** }
 1341              		.loc 2 135 44 view .LVU435
 1342 004c B3F900A0 		ldrsh	r10, [r3]
 1343              	.LVL137:
 135:Middlewares/lvgl/src/draw/../misc/lv_area.h **** }
 1344              		.loc 2 135 44 view .LVU436
 1345 0050 1FFA8AF1 		uxth	r1, r10
 135:Middlewares/lvgl/src/draw/../misc/lv_area.h **** }
 1346              		.loc 2 135 36 view .LVU437
 1347 0054 521A     		subs	r2, r2, r1
 1348 0056 92B2     		uxth	r2, r2
 135:Middlewares/lvgl/src/draw/../misc/lv_area.h **** }
 1349              		.loc 2 135 49 view .LVU438
 1350 0058 0132     		adds	r2, r2, #1
 135:Middlewares/lvgl/src/draw/../misc/lv_area.h **** }
 1351              		.loc 2 135 12 view .LVU439
 1352 005a 11B2     		sxth	r1, r2
 1353 005c 0391     		str	r1, [sp, #12]
 1354              	.LVL138:
 135:Middlewares/lvgl/src/draw/../misc/lv_area.h **** }
 1355              		.loc 2 135 12 view .LVU440
ARM GAS  /tmp/ccwyVXLY.s 			page 58


 1356              	.LBE135:
 1357              	.LBE134:
 672:Middlewares/lvgl/src/draw/lv_draw_blend.c **** 
 1358              		.loc 1 672 5 is_stmt 1 view .LVU441
 672:Middlewares/lvgl/src/draw/lv_draw_blend.c **** 
 1359              		.loc 1 672 69 is_stmt 0 view .LVU442
 1360 005e 049A     		ldr	r2, [sp, #16]
 1361 0060 02FB0B64 		mla	r4, r2, fp, r6
 672:Middlewares/lvgl/src/draw/lv_draw_blend.c **** 
 1362              		.loc 1 672 18 view .LVU443
 1363 0064 029A     		ldr	r2, [sp, #8]
 1364 0066 02EB4404 		add	r4, r2, r4, lsl #1
 1365              	.LVL139:
 675:Middlewares/lvgl/src/draw/lv_draw_blend.c ****     map_buf_first += (draw_area->x1 - (map_area->x1 - disp_area->x1));
 1366              		.loc 1 675 5 is_stmt 1 view .LVU444
 675:Middlewares/lvgl/src/draw/lv_draw_blend.c ****     map_buf_first += (draw_area->x1 - (map_area->x1 - disp_area->x1));
 1367              		.loc 1 675 84 is_stmt 0 view .LVU445
 1368 006a B3F90230 		ldrsh	r3, [r3, #2]
 1369              	.LVL140:
 675:Middlewares/lvgl/src/draw/lv_draw_blend.c ****     map_buf_first += (draw_area->x1 - (map_area->x1 - disp_area->x1));
 1370              		.loc 1 675 100 view .LVU446
 1371 006e B0F90220 		ldrsh	r2, [r0, #2]
 675:Middlewares/lvgl/src/draw/lv_draw_blend.c ****     map_buf_first += (draw_area->x1 - (map_area->x1 - disp_area->x1));
 1372              		.loc 1 675 89 view .LVU447
 1373 0072 9B1A     		subs	r3, r3, r2
 675:Middlewares/lvgl/src/draw/lv_draw_blend.c ****     map_buf_first += (draw_area->x1 - (map_area->x1 - disp_area->x1));
 1374              		.loc 1 675 73 view .LVU448
 1375 0074 ABEB0303 		sub	r3, fp, r3
 1376              	.LVL141:
 676:Middlewares/lvgl/src/draw/lv_draw_blend.c **** 
 1377              		.loc 1 676 5 is_stmt 1 view .LVU449
 676:Middlewares/lvgl/src/draw/lv_draw_blend.c **** 
 1378              		.loc 1 676 53 is_stmt 0 view .LVU450
 1379 0078 009A     		ldr	r2, [sp]
 1380 007a AAEB020A 		sub	r10, r10, r2
 676:Middlewares/lvgl/src/draw/lv_draw_blend.c **** 
 1381              		.loc 1 676 37 view .LVU451
 1382 007e A6EB0A06 		sub	r6, r6, r10
 676:Middlewares/lvgl/src/draw/lv_draw_blend.c **** 
 1383              		.loc 1 676 19 view .LVU452
 1384 0082 01FB0363 		mla	r3, r1, r3, r6
 1385              	.LVL142:
 676:Middlewares/lvgl/src/draw/lv_draw_blend.c **** 
 1386              		.loc 1 676 19 view .LVU453
 1387 0086 149E     		ldr	r6, [sp, #80]
 1388 0088 06EB4306 		add	r6, r6, r3, lsl #1
 1389              	.LVL143:
 682:Middlewares/lvgl/src/draw/lv_draw_blend.c ****     int32_t y;
 1390              		.loc 1 682 5 is_stmt 1 view .LVU454
 683:Middlewares/lvgl/src/draw/lv_draw_blend.c **** 
 1391              		.loc 1 683 5 view .LVU455
 686:Middlewares/lvgl/src/draw/lv_draw_blend.c ****         if(opa > LV_OPA_MAX) {
 1392              		.loc 1 686 5 view .LVU456
 686:Middlewares/lvgl/src/draw/lv_draw_blend.c ****         if(opa > LV_OPA_MAX) {
 1393              		.loc 1 686 7 is_stmt 0 view .LVU457
 1394 008c 9DF85C30 		ldrb	r3, [sp, #92]	@ zero_extendqisi2
 1395 0090 012B     		cmp	r3, #1
ARM GAS  /tmp/ccwyVXLY.s 			page 59


 1396 0092 08D0     		beq	.L113
 803:Middlewares/lvgl/src/draw/lv_draw_blend.c ****             /*Go to the first pixel of the row*/
 1397              		.loc 1 803 9 is_stmt 1 view .LVU458
 803:Middlewares/lvgl/src/draw/lv_draw_blend.c ****             /*Go to the first pixel of the row*/
 1398              		.loc 1 803 11 is_stmt 0 view .LVU459
 1399 0094 B8F1FD0F 		cmp	r8, #253
 1400 0098 40F2EC82 		bls	.L107
 1401              	.LBB136:
 806:Middlewares/lvgl/src/draw/lv_draw_blend.c **** 
 1402              		.loc 1 806 13 is_stmt 1 view .LVU460
 806:Middlewares/lvgl/src/draw/lv_draw_blend.c **** 
 1403              		.loc 1 806 21 is_stmt 0 view .LVU461
 1404 009c 2B1F     		subs	r3, r5, #4
 1405 009e 0093     		str	r3, [sp]
 1406              	.LVL144:
 808:Middlewares/lvgl/src/draw/lv_draw_blend.c ****                 const lv_opa_t * mask_tmp_x = mask;
 1407              		.loc 1 808 13 is_stmt 1 view .LVU462
 808:Middlewares/lvgl/src/draw/lv_draw_blend.c ****                 const lv_opa_t * mask_tmp_x = mask;
 1408              		.loc 1 808 19 is_stmt 0 view .LVU463
 1409 00a0 0023     		movs	r3, #0
 1410              	.LVL145:
 808:Middlewares/lvgl/src/draw/lv_draw_blend.c ****                 const lv_opa_t * mask_tmp_x = mask;
 1411              		.loc 1 808 19 view .LVU464
 1412 00a2 0293     		str	r3, [sp, #8]
 1413              	.LVL146:
 808:Middlewares/lvgl/src/draw/lv_draw_blend.c ****                 const lv_opa_t * mask_tmp_x = mask;
 1414              		.loc 1 808 13 view .LVU465
 1415 00a4 84E2     		b	.L80
 1416              	.LVL147:
 1417              	.L113:
 808:Middlewares/lvgl/src/draw/lv_draw_blend.c ****                 const lv_opa_t * mask_tmp_x = mask;
 1418              		.loc 1 808 13 view .LVU466
 1419              	.LBE136:
 687:Middlewares/lvgl/src/draw/lv_draw_blend.c **** #if LV_USE_GPU_NXP_PXP
 1420              		.loc 1 687 9 is_stmt 1 view .LVU467
 687:Middlewares/lvgl/src/draw/lv_draw_blend.c **** #if LV_USE_GPU_NXP_PXP
 1421              		.loc 1 687 11 is_stmt 0 view .LVU468
 1422 00a6 B8F1FD0F 		cmp	r8, #253
 1423 00aa 15D8     		bhi	.L105
 782:Middlewares/lvgl/src/draw/lv_draw_blend.c ****                 for(x = 0; x < draw_area_w; x++) {
 1424              		.loc 1 782 19 view .LVU469
 1425 00ac 4FF0000C 		mov	ip, #0
 1426 00b0 DDF814E0 		ldr	lr, [sp, #20]
 1427 00b4 DDF810A0 		ldr	r10, [sp, #16]
 1428 00b8 5BE0     		b	.L74
 1429              	.LVL148:
 1430              	.L75:
 732:Middlewares/lvgl/src/draw/lv_draw_blend.c ****                 disp_buf_first += disp_w;
 1431              		.loc 1 732 17 is_stmt 1 discriminator 3 view .LVU470
 1432 00ba 6A00     		lsls	r2, r5, #1
 1433 00bc 3146     		mov	r1, r6
 1434 00be 2046     		mov	r0, r4
 1435 00c0 FFF7FEFF 		bl	lv_memcpy
 1436              	.LVL149:
 733:Middlewares/lvgl/src/draw/lv_draw_blend.c ****                 map_buf_first += map_w;
 1437              		.loc 1 733 17 discriminator 3 view .LVU471
 733:Middlewares/lvgl/src/draw/lv_draw_blend.c ****                 map_buf_first += map_w;
ARM GAS  /tmp/ccwyVXLY.s 			page 60


 1438              		.loc 1 733 32 is_stmt 0 discriminator 3 view .LVU472
 1439 00c4 04EB4A04 		add	r4, r4, r10, lsl #1
 1440              	.LVL150:
 734:Middlewares/lvgl/src/draw/lv_draw_blend.c ****             }
 1441              		.loc 1 734 17 is_stmt 1 discriminator 3 view .LVU473
 734:Middlewares/lvgl/src/draw/lv_draw_blend.c ****             }
 1442              		.loc 1 734 31 is_stmt 0 discriminator 3 view .LVU474
 1443 00c8 06EB4906 		add	r6, r6, r9, lsl #1
 1444              	.LVL151:
 731:Middlewares/lvgl/src/draw/lv_draw_blend.c ****                 lv_memcpy(disp_buf_first, map_buf_first, draw_area_w * sizeof(lv_color_t));
 1445              		.loc 1 731 41 is_stmt 1 discriminator 3 view .LVU475
 731:Middlewares/lvgl/src/draw/lv_draw_blend.c ****                 lv_memcpy(disp_buf_first, map_buf_first, draw_area_w * sizeof(lv_color_t));
 1446              		.loc 1 731 42 is_stmt 0 discriminator 3 view .LVU476
 1447 00cc 0137     		adds	r7, r7, #1
 1448              	.LVL152:
 1449              	.L73:
 731:Middlewares/lvgl/src/draw/lv_draw_blend.c ****                 lv_memcpy(disp_buf_first, map_buf_first, draw_area_w * sizeof(lv_color_t));
 1450              		.loc 1 731 24 is_stmt 1 discriminator 1 view .LVU477
 731:Middlewares/lvgl/src/draw/lv_draw_blend.c ****                 lv_memcpy(disp_buf_first, map_buf_first, draw_area_w * sizeof(lv_color_t));
 1451              		.loc 1 731 13 is_stmt 0 discriminator 1 view .LVU478
 1452 00ce 4745     		cmp	r7, r8
 1453 00d0 F3DB     		blt	.L75
 1454              	.LVL153:
 1455              	.L71:
 888:Middlewares/lvgl/src/draw/lv_draw_blend.c **** #if LV_DRAW_COMPLEX
 1456              		.loc 1 888 1 view .LVU479
 1457 00d2 0BB0     		add	sp, sp, #44
 1458              	.LCFI15:
 1459              		.cfi_remember_state
 1460              		.cfi_def_cfa_offset 36
 1461              		@ sp needed
 1462 00d4 BDE8F08F 		pop	{r4, r5, r6, r7, r8, r9, r10, fp, pc}
 1463              	.LVL154:
 1464              	.L105:
 1465              	.LCFI16:
 1466              		.cfi_restore_state
 731:Middlewares/lvgl/src/draw/lv_draw_blend.c ****                 lv_memcpy(disp_buf_first, map_buf_first, draw_area_w * sizeof(lv_color_t));
 1467              		.loc 1 731 19 view .LVU480
 1468 00d8 0027     		movs	r7, #0
 1469 00da DDF81480 		ldr	r8, [sp, #20]
 1470 00de DDF80C90 		ldr	r9, [sp, #12]
 1471 00e2 DDF810A0 		ldr	r10, [sp, #16]
 1472 00e6 F2E7     		b	.L73
 1473              	.LVL155:
 1474              	.L77:
 792:Middlewares/lvgl/src/draw/lv_draw_blend.c ****                     }
 1475              		.loc 1 792 25 is_stmt 1 discriminator 3 view .LVU481
 1476 00e8 36F81170 		ldrh	r7, [r6, r1, lsl #1]
 1477 00ec 34F811B0 		ldrh	fp, [r4, r1, lsl #1]
 1478              	.LVL156:
 1479              	.LBB151:
 1480              	.LBI151:
 459:Middlewares/lvgl/src/draw/../misc/lv_color.h **** {
 1481              		.loc 3 459 48 discriminator 3 view .LVU482
 1482              	.LBB152:
 461:Middlewares/lvgl/src/draw/../misc/lv_color.h **** #if LV_COLOR_DEPTH != 1
 1483              		.loc 3 461 5 discriminator 3 view .LVU483
ARM GAS  /tmp/ccwyVXLY.s 			page 61


 464:Middlewares/lvgl/src/draw/../misc/lv_color.h ****                                         (255 - mix) + LV_COLOR_MIX_ROUND_OFS));
 1484              		.loc 3 464 5 discriminator 3 view .LVU484
 464:Middlewares/lvgl/src/draw/../misc/lv_color.h ****                                         (255 - mix) + LV_COLOR_MIX_ROUND_OFS));
 1485              		.loc 3 464 5 is_stmt 0 discriminator 3 view .LVU485
 1486 00f0 C7F3C420 		ubfx	r0, r7, #11, #5
 1487              	.LVL157:
 464:Middlewares/lvgl/src/draw/../misc/lv_color.h ****                                         (255 - mix) + LV_COLOR_MIX_ROUND_OFS));
 1488              		.loc 3 464 5 discriminator 3 view .LVU486
 1489 00f4 CBF3C423 		ubfx	r3, fp, #11, #5
 1490 00f8 C8F1FF02 		rsb	r2, r8, #255
 1491 00fc 02FB03F3 		mul	r3, r2, r3
 1492 0100 08FB0033 		mla	r3, r8, r0, r3
 1493 0104 8033     		adds	r3, r3, #128
 1494 0106 03EB0320 		add	r0, r3, r3, lsl #8
 1495 010a 03EBC013 		add	r3, r3, r0, lsl #7
 1496 010e C3F3C453 		ubfx	r3, r3, #23, #5
 1497 0112 63F3CF29 		bfi	r9, r3, #11, #5
 466:Middlewares/lvgl/src/draw/../misc/lv_color.h ****                                         (255 - mix) + LV_COLOR_MIX_ROUND_OFS));
 1498              		.loc 3 466 5 is_stmt 1 discriminator 3 view .LVU487
 1499 0116 C7F34513 		ubfx	r3, r7, #5, #6
 1500 011a CBF34510 		ubfx	r0, fp, #5, #6
 1501 011e 02FB00F0 		mul	r0, r2, r0
 1502 0122 03FB0800 		mla	r0, r3, r8, r0
 1503 0126 8030     		adds	r0, r0, #128
 1504 0128 00EB0023 		add	r3, r0, r0, lsl #8
 1505 012c 00EBC310 		add	r0, r0, r3, lsl #7
 1506 0130 C0F3C550 		ubfx	r0, r0, #23, #6
 1507 0134 60F34A19 		bfi	r9, r0, #5, #6
 468:Middlewares/lvgl/src/draw/../misc/lv_color.h ****                                         (255 - mix) + LV_COLOR_MIX_ROUND_OFS));
 1508              		.loc 3 468 5 discriminator 3 view .LVU488
 1509 0138 07F01F07 		and	r7, r7, #31
 1510              	.LVL158:
 468:Middlewares/lvgl/src/draw/../misc/lv_color.h ****                                         (255 - mix) + LV_COLOR_MIX_ROUND_OFS));
 1511              		.loc 3 468 5 is_stmt 0 discriminator 3 view .LVU489
 1512 013c 0BF01F03 		and	r3, fp, #31
 1513 0140 02FB03F3 		mul	r3, r2, r3
 1514 0144 07FB0833 		mla	r3, r7, r8, r3
 1515 0148 8033     		adds	r3, r3, #128
 1516 014a 03EB0322 		add	r2, r3, r3, lsl #8
 1517 014e 03EBC213 		add	r3, r3, r2, lsl #7
 1518 0152 C3F3C453 		ubfx	r3, r3, #23, #5
 1519 0156 63F30409 		bfi	r9, r3, #0, #5
 470:Middlewares/lvgl/src/draw/../misc/lv_color.h **** #else
 1520              		.loc 3 470 5 is_stmt 1 discriminator 3 view .LVU490
 470:Middlewares/lvgl/src/draw/../misc/lv_color.h **** #else
 1521              		.loc 3 470 5 discriminator 3 view .LVU491
 470:Middlewares/lvgl/src/draw/../misc/lv_color.h **** #else
 1522              		.loc 3 470 5 discriminator 3 view .LVU492
 1523              		.loc 3 476 5 discriminator 3 view .LVU493
 1524              	.LVL159:
 1525              		.loc 3 476 5 is_stmt 0 discriminator 3 view .LVU494
 1526              	.LBE152:
 1527              	.LBE151:
 792:Middlewares/lvgl/src/draw/lv_draw_blend.c ****                     }
 1528              		.loc 1 792 45 discriminator 3 view .LVU495
 1529 015a 24F81190 		strh	r9, [r4, r1, lsl #1]	@ movhi
 783:Middlewares/lvgl/src/draw/lv_draw_blend.c **** #if LV_COLOR_SCREEN_TRANSP
ARM GAS  /tmp/ccwyVXLY.s 			page 62


 1530              		.loc 1 783 45 is_stmt 1 discriminator 3 view .LVU496
 783:Middlewares/lvgl/src/draw/lv_draw_blend.c **** #if LV_COLOR_SCREEN_TRANSP
 1531              		.loc 1 783 46 is_stmt 0 discriminator 3 view .LVU497
 1532 015e 0131     		adds	r1, r1, #1
 1533              	.LVL160:
 1534              	.L78:
 783:Middlewares/lvgl/src/draw/lv_draw_blend.c **** #if LV_COLOR_SCREEN_TRANSP
 1535              		.loc 1 783 28 is_stmt 1 discriminator 1 view .LVU498
 783:Middlewares/lvgl/src/draw/lv_draw_blend.c **** #if LV_COLOR_SCREEN_TRANSP
 1536              		.loc 1 783 17 is_stmt 0 discriminator 1 view .LVU499
 1537 0160 A942     		cmp	r1, r5
 1538 0162 C1DB     		blt	.L77
 795:Middlewares/lvgl/src/draw/lv_draw_blend.c ****                 map_buf_first += map_w;
 1539              		.loc 1 795 17 is_stmt 1 discriminator 2 view .LVU500
 795:Middlewares/lvgl/src/draw/lv_draw_blend.c ****                 map_buf_first += map_w;
 1540              		.loc 1 795 32 is_stmt 0 discriminator 2 view .LVU501
 1541 0164 04EB4A04 		add	r4, r4, r10, lsl #1
 1542              	.LVL161:
 796:Middlewares/lvgl/src/draw/lv_draw_blend.c ****             }
 1543              		.loc 1 796 17 is_stmt 1 discriminator 2 view .LVU502
 796:Middlewares/lvgl/src/draw/lv_draw_blend.c ****             }
 1544              		.loc 1 796 31 is_stmt 0 discriminator 2 view .LVU503
 1545 0168 039B     		ldr	r3, [sp, #12]
 1546 016a 06EB4306 		add	r6, r6, r3, lsl #1
 1547              	.LVL162:
 782:Middlewares/lvgl/src/draw/lv_draw_blend.c ****                 for(x = 0; x < draw_area_w; x++) {
 1548              		.loc 1 782 41 is_stmt 1 discriminator 2 view .LVU504
 782:Middlewares/lvgl/src/draw/lv_draw_blend.c ****                 for(x = 0; x < draw_area_w; x++) {
 1549              		.loc 1 782 42 is_stmt 0 discriminator 2 view .LVU505
 1550 016e 0CF1010C 		add	ip, ip, #1
 1551              	.LVL163:
 1552              	.L74:
 782:Middlewares/lvgl/src/draw/lv_draw_blend.c ****                 for(x = 0; x < draw_area_w; x++) {
 1553              		.loc 1 782 24 is_stmt 1 discriminator 1 view .LVU506
 782:Middlewares/lvgl/src/draw/lv_draw_blend.c ****                 for(x = 0; x < draw_area_w; x++) {
 1554              		.loc 1 782 13 is_stmt 0 discriminator 1 view .LVU507
 1555 0172 F445     		cmp	ip, lr
 1556 0174 ADDA     		bge	.L71
 783:Middlewares/lvgl/src/draw/lv_draw_blend.c **** #if LV_COLOR_SCREEN_TRANSP
 1557              		.loc 1 783 23 view .LVU508
 1558 0176 0021     		movs	r1, #0
 1559 0178 F2E7     		b	.L78
 1560              	.LVL164:
 1561              	.L82:
 1562              	.LBB153:
 1563              	.LBB137:
 819:Middlewares/lvgl/src/draw/lv_draw_blend.c **** #endif
 1564              		.loc 1 819 21 is_stmt 1 discriminator 4 view .LVU509
 1565 017a 36F81390 		ldrh	r9, [r6, r3, lsl #1]
 1566 017e 34F813A0 		ldrh	r10, [r4, r3, lsl #1]
 1567              	.LVL165:
 1568              	.LBB138:
 1569              	.LBI138:
 459:Middlewares/lvgl/src/draw/../misc/lv_color.h **** {
 1570              		.loc 3 459 48 discriminator 4 view .LVU510
 1571              	.LBB139:
 461:Middlewares/lvgl/src/draw/../misc/lv_color.h **** #if LV_COLOR_DEPTH != 1
ARM GAS  /tmp/ccwyVXLY.s 			page 63


 1572              		.loc 3 461 5 discriminator 4 view .LVU511
 464:Middlewares/lvgl/src/draw/../misc/lv_color.h ****                                         (255 - mix) + LV_COLOR_MIX_ROUND_OFS));
 1573              		.loc 3 464 5 discriminator 4 view .LVU512
 464:Middlewares/lvgl/src/draw/../misc/lv_color.h ****                                         (255 - mix) + LV_COLOR_MIX_ROUND_OFS));
 1574              		.loc 3 464 5 is_stmt 0 discriminator 4 view .LVU513
 1575 0182 C9F3C42E 		ubfx	lr, r9, #11, #5
 1576              	.LVL166:
 464:Middlewares/lvgl/src/draw/../misc/lv_color.h ****                                         (255 - mix) + LV_COLOR_MIX_ROUND_OFS));
 1577              		.loc 3 464 5 discriminator 4 view .LVU514
 1578 0186 CAF3C421 		ubfx	r1, r10, #11, #5
 1579 018a C8F1FF00 		rsb	r0, r8, #255
 1580 018e 00FB01F1 		mul	r1, r0, r1
 1581 0192 08FB0E11 		mla	r1, r8, lr, r1
 1582 0196 8031     		adds	r1, r1, #128
 1583 0198 01EB012E 		add	lr, r1, r1, lsl #8
 1584 019c 01EBCE11 		add	r1, r1, lr, lsl #7
 1585 01a0 C1F3C451 		ubfx	r1, r1, #23, #5
 1586 01a4 61F3CF27 		bfi	r7, r1, #11, #5
 466:Middlewares/lvgl/src/draw/../misc/lv_color.h ****                                         (255 - mix) + LV_COLOR_MIX_ROUND_OFS));
 1587              		.loc 3 466 5 is_stmt 1 discriminator 4 view .LVU515
 1588 01a8 C9F34511 		ubfx	r1, r9, #5, #6
 1589 01ac CAF3451E 		ubfx	lr, r10, #5, #6
 1590 01b0 0EFB00FE 		mul	lr, lr, r0
 1591 01b4 01FB08EE 		mla	lr, r1, r8, lr
 1592 01b8 0EF1800E 		add	lr, lr, #128
 1593 01bc 0EEB0E21 		add	r1, lr, lr, lsl #8
 1594 01c0 0EEBC11E 		add	lr, lr, r1, lsl #7
 1595 01c4 CEF3C55E 		ubfx	lr, lr, #23, #6
 1596 01c8 6EF34A17 		bfi	r7, lr, #5, #6
 468:Middlewares/lvgl/src/draw/../misc/lv_color.h ****                                         (255 - mix) + LV_COLOR_MIX_ROUND_OFS));
 1597              		.loc 3 468 5 discriminator 4 view .LVU516
 1598 01cc 09F01F09 		and	r9, r9, #31
 1599              	.LVL167:
 468:Middlewares/lvgl/src/draw/../misc/lv_color.h ****                                         (255 - mix) + LV_COLOR_MIX_ROUND_OFS));
 1600              		.loc 3 468 5 is_stmt 0 discriminator 4 view .LVU517
 1601 01d0 0AF01F01 		and	r1, r10, #31
 1602 01d4 00FB01F1 		mul	r1, r0, r1
 1603 01d8 09FB0811 		mla	r1, r9, r8, r1
 1604 01dc 8031     		adds	r1, r1, #128
 1605 01de 01EB0120 		add	r0, r1, r1, lsl #8
 1606 01e2 01EBC011 		add	r1, r1, r0, lsl #7
 1607 01e6 C1F3C451 		ubfx	r1, r1, #23, #5
 1608 01ea 61F30407 		bfi	r7, r1, #0, #5
 470:Middlewares/lvgl/src/draw/../misc/lv_color.h **** #else
 1609              		.loc 3 470 5 is_stmt 1 discriminator 4 view .LVU518
 470:Middlewares/lvgl/src/draw/../misc/lv_color.h **** #else
 1610              		.loc 3 470 5 discriminator 4 view .LVU519
 470:Middlewares/lvgl/src/draw/../misc/lv_color.h **** #else
 1611              		.loc 3 470 5 discriminator 4 view .LVU520
 1612              		.loc 3 476 5 discriminator 4 view .LVU521
 1613              	.LVL168:
 1614              		.loc 3 476 5 is_stmt 0 discriminator 4 view .LVU522
 1615              	.LBE139:
 1616              	.LBE138:
 819:Middlewares/lvgl/src/draw/lv_draw_blend.c **** #endif
 1617              		.loc 1 819 21 discriminator 4 view .LVU523
 1618 01ee 24F81370 		strh	r7, [r4, r3, lsl #1]	@ movhi
ARM GAS  /tmp/ccwyVXLY.s 			page 64


 1619              	.LVL169:
 1620              	.L81:
 819:Middlewares/lvgl/src/draw/lv_draw_blend.c **** #endif
 1621              		.loc 1 819 21 is_stmt 1 discriminator 6 view .LVU524
 1622 01f2 0132     		adds	r2, r2, #1
 1623              	.LVL170:
 815:Middlewares/lvgl/src/draw/lv_draw_blend.c **** #if LV_COLOR_SCREEN_TRANSP
 1624              		.loc 1 815 81 discriminator 6 view .LVU525
 815:Middlewares/lvgl/src/draw/lv_draw_blend.c **** #if LV_COLOR_SCREEN_TRANSP
 1625              		.loc 1 815 82 is_stmt 0 discriminator 6 view .LVU526
 1626 01f4 0133     		adds	r3, r3, #1
 1627              	.LVL171:
 1628              	.L100:
 815:Middlewares/lvgl/src/draw/lv_draw_blend.c **** #if LV_COLOR_SCREEN_TRANSP
 1629              		.loc 1 815 28 is_stmt 1 discriminator 2 view .LVU527
 815:Middlewares/lvgl/src/draw/lv_draw_blend.c **** #if LV_COLOR_SCREEN_TRANSP
 1630              		.loc 1 815 17 is_stmt 0 discriminator 2 view .LVU528
 1631 01f6 AB42     		cmp	r3, r5
 1632 01f8 80F26981 		bge	.L111
 815:Middlewares/lvgl/src/draw/lv_draw_blend.c **** #if LV_COLOR_SCREEN_TRANSP
 1633              		.loc 1 815 44 discriminator 3 view .LVU529
 1634 01fc 12F0030F 		tst	r2, #3
 1635 0200 0CD0     		beq	.L114
 819:Middlewares/lvgl/src/draw/lv_draw_blend.c **** #endif
 1636              		.loc 1 819 21 is_stmt 1 view .LVU530
 1637 0202 92F80080 		ldrb	r8, [r2]	@ zero_extendqisi2
 1638              	.LVL172:
 819:Middlewares/lvgl/src/draw/lv_draw_blend.c **** #endif
 1639              		.loc 1 819 21 is_stmt 0 view .LVU531
 1640 0206 B8F1000F 		cmp	r8, #0
 1641 020a F2D0     		beq	.L81
 819:Middlewares/lvgl/src/draw/lv_draw_blend.c **** #endif
 1642              		.loc 1 819 21 is_stmt 1 discriminator 1 view .LVU532
 1643 020c B8F1FF0F 		cmp	r8, #255
 1644 0210 B3D1     		bne	.L82
 819:Middlewares/lvgl/src/draw/lv_draw_blend.c **** #endif
 1645              		.loc 1 819 21 discriminator 3 view .LVU533
 1646 0212 36F81310 		ldrh	r1, [r6, r3, lsl #1]
 1647 0216 24F81310 		strh	r1, [r4, r3, lsl #1]	@ movhi
 1648 021a EAE7     		b	.L81
