ARM GAS  /tmp/ccRJmor0.s 			page 1


   1              		.cpu cortex-m3
   2              		.eabi_attribute 20, 1
   3              		.eabi_attribute 21, 1
   4              		.eabi_attribute 23, 3
   5              		.eabi_attribute 24, 1
   6              		.eabi_attribute 25, 1
   7              		.eabi_attribute 26, 1
   8              		.eabi_attribute 30, 1
   9              		.eabi_attribute 34, 1
  10              		.eabi_attribute 18, 4
  11              		.file	"lv_example_btn_3.c"
  12              		.text
  13              	.Ltext0:
  14              		.cfi_sections	.debug_frame
  15              		.section	.rodata.lv_example_btn_3.str1.4,"aMS",%progbits,1
  16              		.align	2
  17              	.LC0:
  18 0000 47756D00 		.ascii	"Gum\000"
  19              		.section	.text.lv_example_btn_3,"ax",%progbits
  20              		.align	1
  21              		.global	lv_example_btn_3
  22              		.arch armv7-m
  23              		.syntax unified
  24              		.thumb
  25              		.thumb_func
  26              		.fpu softvfp
  28              	lv_example_btn_3:
  29              	.LFB184:
  30              		.file 1 "Middlewares/lvgl/examples/widgets/btn/lv_example_btn_3.c"
   1:Middlewares/lvgl/examples/widgets/btn/lv_example_btn_3.c **** #include "../../lv_examples.h"
   2:Middlewares/lvgl/examples/widgets/btn/lv_example_btn_3.c **** #if LV_BUILD_EXAMPLES && LV_USE_BTN
   3:Middlewares/lvgl/examples/widgets/btn/lv_example_btn_3.c **** 
   4:Middlewares/lvgl/examples/widgets/btn/lv_example_btn_3.c **** /**
   5:Middlewares/lvgl/examples/widgets/btn/lv_example_btn_3.c ****  * Create a style transition on a button to act like a gum when clicked
   6:Middlewares/lvgl/examples/widgets/btn/lv_example_btn_3.c ****  */
   7:Middlewares/lvgl/examples/widgets/btn/lv_example_btn_3.c **** void lv_example_btn_3(void)
   8:Middlewares/lvgl/examples/widgets/btn/lv_example_btn_3.c **** {
  31              		.loc 1 8 1 view -0
  32              		.cfi_startproc
  33              		@ args = 0, pretend = 0, frame = 0
  34              		@ frame_needed = 0, uses_anonymous_args = 0
  35 0000 F0B5     		push	{r4, r5, r6, r7, lr}
  36              	.LCFI0:
  37              		.cfi_def_cfa_offset 20
  38              		.cfi_offset 4, -20
  39              		.cfi_offset 5, -16
  40              		.cfi_offset 6, -12
  41              		.cfi_offset 7, -8
  42              		.cfi_offset 14, -4
  43 0002 83B0     		sub	sp, sp, #12
  44              	.LCFI1:
  45              		.cfi_def_cfa_offset 32
   9:Middlewares/lvgl/examples/widgets/btn/lv_example_btn_3.c ****     /*Properties to transition*/
  10:Middlewares/lvgl/examples/widgets/btn/lv_example_btn_3.c ****     static lv_style_prop_t props[] = {
  46              		.loc 1 10 5 view .LVU1
  11:Middlewares/lvgl/examples/widgets/btn/lv_example_btn_3.c ****             LV_STYLE_TRANSFORM_WIDTH, LV_STYLE_TRANSFORM_HEIGHT, LV_STYLE_TEXT_LETTER_SPACE, 0
  12:Middlewares/lvgl/examples/widgets/btn/lv_example_btn_3.c ****     };
ARM GAS  /tmp/ccRJmor0.s 			page 2


  13:Middlewares/lvgl/examples/widgets/btn/lv_example_btn_3.c **** 
  14:Middlewares/lvgl/examples/widgets/btn/lv_example_btn_3.c ****     /*Transition descriptor when going back to the default state.
  15:Middlewares/lvgl/examples/widgets/btn/lv_example_btn_3.c ****      *Add some delay to be sure the press transition is visible even if the press was very short*/
  16:Middlewares/lvgl/examples/widgets/btn/lv_example_btn_3.c ****     static lv_style_transition_dsc_t transition_dsc_def;
  47              		.loc 1 16 5 view .LVU2
  17:Middlewares/lvgl/examples/widgets/btn/lv_example_btn_3.c ****     lv_style_transition_dsc_init(&transition_dsc_def, props, lv_anim_path_overshoot, 250, 100, NULL
  48              		.loc 1 17 5 view .LVU3
  49 0004 284F     		ldr	r7, .L3
  50 0006 294C     		ldr	r4, .L3+4
  51 0008 0026     		movs	r6, #0
  52 000a 0196     		str	r6, [sp, #4]
  53 000c 6423     		movs	r3, #100
  54 000e 0093     		str	r3, [sp]
  55 0010 FA23     		movs	r3, #250
  56 0012 274A     		ldr	r2, .L3+8
  57 0014 3946     		mov	r1, r7
  58 0016 2046     		mov	r0, r4
  59 0018 FFF7FEFF 		bl	lv_style_transition_dsc_init
  60              	.LVL0:
  18:Middlewares/lvgl/examples/widgets/btn/lv_example_btn_3.c **** 
  19:Middlewares/lvgl/examples/widgets/btn/lv_example_btn_3.c ****     /*Transition descriptor when going to pressed state.
  20:Middlewares/lvgl/examples/widgets/btn/lv_example_btn_3.c ****      *No delay, go to presses state immediately*/
  21:Middlewares/lvgl/examples/widgets/btn/lv_example_btn_3.c ****     static lv_style_transition_dsc_t transition_dsc_pr;
  61              		.loc 1 21 5 view .LVU4
  22:Middlewares/lvgl/examples/widgets/btn/lv_example_btn_3.c ****     lv_style_transition_dsc_init(&transition_dsc_pr, props, lv_anim_path_ease_in_out, 250, 0, NULL)
  62              		.loc 1 22 5 view .LVU5
  63 001c 254D     		ldr	r5, .L3+12
  64 001e 0196     		str	r6, [sp, #4]
  65 0020 0096     		str	r6, [sp]
  66 0022 FA23     		movs	r3, #250
  67 0024 244A     		ldr	r2, .L3+16
  68 0026 3946     		mov	r1, r7
  69 0028 2846     		mov	r0, r5
  70 002a FFF7FEFF 		bl	lv_style_transition_dsc_init
  71              	.LVL1:
  23:Middlewares/lvgl/examples/widgets/btn/lv_example_btn_3.c **** 
  24:Middlewares/lvgl/examples/widgets/btn/lv_example_btn_3.c ****     /*Add only the new transition to he default state*/
  25:Middlewares/lvgl/examples/widgets/btn/lv_example_btn_3.c ****     static lv_style_t style_def;
  72              		.loc 1 25 5 view .LVU6
  26:Middlewares/lvgl/examples/widgets/btn/lv_example_btn_3.c ****     lv_style_init(&style_def);
  73              		.loc 1 26 5 view .LVU7
  74 002e 234F     		ldr	r7, .L3+20
  75 0030 3846     		mov	r0, r7
  76 0032 FFF7FEFF 		bl	lv_style_init
  77              	.LVL2:
  27:Middlewares/lvgl/examples/widgets/btn/lv_example_btn_3.c ****     lv_style_set_transition(&style_def, &transition_dsc_def);
  78              		.loc 1 27 5 view .LVU8
  79 0036 2146     		mov	r1, r4
  80 0038 3846     		mov	r0, r7
  81 003a FFF7FEFF 		bl	lv_style_set_transition
  82              	.LVL3:
  28:Middlewares/lvgl/examples/widgets/btn/lv_example_btn_3.c **** 
  29:Middlewares/lvgl/examples/widgets/btn/lv_example_btn_3.c ****     /*Add the transition and some transformation to the presses state.*/
  30:Middlewares/lvgl/examples/widgets/btn/lv_example_btn_3.c ****     static lv_style_t style_pr;
  83              		.loc 1 30 5 view .LVU9
  31:Middlewares/lvgl/examples/widgets/btn/lv_example_btn_3.c ****     lv_style_init(&style_pr);
  84              		.loc 1 31 5 view .LVU10
ARM GAS  /tmp/ccRJmor0.s 			page 3


  85 003e 204C     		ldr	r4, .L3+24
  86 0040 2046     		mov	r0, r4
  87 0042 FFF7FEFF 		bl	lv_style_init
  88              	.LVL4:
  32:Middlewares/lvgl/examples/widgets/btn/lv_example_btn_3.c ****     lv_style_set_transform_width(&style_pr, 10);
  89              		.loc 1 32 5 view .LVU11
  90 0046 0A21     		movs	r1, #10
  91 0048 2046     		mov	r0, r4
  92 004a FFF7FEFF 		bl	lv_style_set_transform_width
  93              	.LVL5:
  33:Middlewares/lvgl/examples/widgets/btn/lv_example_btn_3.c ****     lv_style_set_transform_height(&style_pr, -10);
  94              		.loc 1 33 5 view .LVU12
  95 004e 6FF00901 		mvn	r1, #9
  96 0052 2046     		mov	r0, r4
  97 0054 FFF7FEFF 		bl	lv_style_set_transform_height
  98              	.LVL6:
  34:Middlewares/lvgl/examples/widgets/btn/lv_example_btn_3.c ****     lv_style_set_text_letter_space(&style_pr, 10);
  99              		.loc 1 34 5 view .LVU13
 100 0058 0A21     		movs	r1, #10
 101 005a 2046     		mov	r0, r4
 102 005c FFF7FEFF 		bl	lv_style_set_text_letter_space
 103              	.LVL7:
  35:Middlewares/lvgl/examples/widgets/btn/lv_example_btn_3.c ****     lv_style_set_transition(&style_pr, &transition_dsc_pr);
 104              		.loc 1 35 5 view .LVU14
 105 0060 2946     		mov	r1, r5
 106 0062 2046     		mov	r0, r4
 107 0064 FFF7FEFF 		bl	lv_style_set_transition
 108              	.LVL8:
  36:Middlewares/lvgl/examples/widgets/btn/lv_example_btn_3.c **** 
  37:Middlewares/lvgl/examples/widgets/btn/lv_example_btn_3.c ****     lv_obj_t * btn1 = lv_btn_create(lv_scr_act());
 109              		.loc 1 37 5 view .LVU15
 110              	.LBB4:
 111              	.LBI4:
 112              		.file 2 "Middlewares/lvgl/examples/widgets/btn/../../../src/core/lv_disp.h"
   1:Middlewares/lvgl/examples/widgets/btn/../../../src/core/lv_disp.h **** /**
   2:Middlewares/lvgl/examples/widgets/btn/../../../src/core/lv_disp.h ****  * @file lv_disp.h
   3:Middlewares/lvgl/examples/widgets/btn/../../../src/core/lv_disp.h ****  *
   4:Middlewares/lvgl/examples/widgets/btn/../../../src/core/lv_disp.h ****  */
   5:Middlewares/lvgl/examples/widgets/btn/../../../src/core/lv_disp.h **** 
   6:Middlewares/lvgl/examples/widgets/btn/../../../src/core/lv_disp.h **** #ifndef LV_DISP_H
   7:Middlewares/lvgl/examples/widgets/btn/../../../src/core/lv_disp.h **** #define LV_DISP_H
   8:Middlewares/lvgl/examples/widgets/btn/../../../src/core/lv_disp.h **** 
   9:Middlewares/lvgl/examples/widgets/btn/../../../src/core/lv_disp.h **** #ifdef __cplusplus
  10:Middlewares/lvgl/examples/widgets/btn/../../../src/core/lv_disp.h **** extern "C" {
  11:Middlewares/lvgl/examples/widgets/btn/../../../src/core/lv_disp.h **** #endif
  12:Middlewares/lvgl/examples/widgets/btn/../../../src/core/lv_disp.h **** 
  13:Middlewares/lvgl/examples/widgets/btn/../../../src/core/lv_disp.h **** /*********************
  14:Middlewares/lvgl/examples/widgets/btn/../../../src/core/lv_disp.h ****  *      INCLUDES
  15:Middlewares/lvgl/examples/widgets/btn/../../../src/core/lv_disp.h ****  *********************/
  16:Middlewares/lvgl/examples/widgets/btn/../../../src/core/lv_disp.h **** #include "../hal/lv_hal.h"
  17:Middlewares/lvgl/examples/widgets/btn/../../../src/core/lv_disp.h **** #include "lv_obj.h"
  18:Middlewares/lvgl/examples/widgets/btn/../../../src/core/lv_disp.h **** #include "lv_theme.h"
  19:Middlewares/lvgl/examples/widgets/btn/../../../src/core/lv_disp.h **** 
  20:Middlewares/lvgl/examples/widgets/btn/../../../src/core/lv_disp.h **** /*********************
  21:Middlewares/lvgl/examples/widgets/btn/../../../src/core/lv_disp.h ****  *      DEFINES
  22:Middlewares/lvgl/examples/widgets/btn/../../../src/core/lv_disp.h ****  *********************/
  23:Middlewares/lvgl/examples/widgets/btn/../../../src/core/lv_disp.h **** 
ARM GAS  /tmp/ccRJmor0.s 			page 4


  24:Middlewares/lvgl/examples/widgets/btn/../../../src/core/lv_disp.h **** /**********************
  25:Middlewares/lvgl/examples/widgets/btn/../../../src/core/lv_disp.h ****  *      TYPEDEFS
  26:Middlewares/lvgl/examples/widgets/btn/../../../src/core/lv_disp.h ****  **********************/
  27:Middlewares/lvgl/examples/widgets/btn/../../../src/core/lv_disp.h **** 
  28:Middlewares/lvgl/examples/widgets/btn/../../../src/core/lv_disp.h **** typedef enum {
  29:Middlewares/lvgl/examples/widgets/btn/../../../src/core/lv_disp.h ****     LV_SCR_LOAD_ANIM_NONE,
  30:Middlewares/lvgl/examples/widgets/btn/../../../src/core/lv_disp.h ****     LV_SCR_LOAD_ANIM_OVER_LEFT,
  31:Middlewares/lvgl/examples/widgets/btn/../../../src/core/lv_disp.h ****     LV_SCR_LOAD_ANIM_OVER_RIGHT,
  32:Middlewares/lvgl/examples/widgets/btn/../../../src/core/lv_disp.h ****     LV_SCR_LOAD_ANIM_OVER_TOP,
  33:Middlewares/lvgl/examples/widgets/btn/../../../src/core/lv_disp.h ****     LV_SCR_LOAD_ANIM_OVER_BOTTOM,
  34:Middlewares/lvgl/examples/widgets/btn/../../../src/core/lv_disp.h ****     LV_SCR_LOAD_ANIM_MOVE_LEFT,
  35:Middlewares/lvgl/examples/widgets/btn/../../../src/core/lv_disp.h ****     LV_SCR_LOAD_ANIM_MOVE_RIGHT,
  36:Middlewares/lvgl/examples/widgets/btn/../../../src/core/lv_disp.h ****     LV_SCR_LOAD_ANIM_MOVE_TOP,
  37:Middlewares/lvgl/examples/widgets/btn/../../../src/core/lv_disp.h ****     LV_SCR_LOAD_ANIM_MOVE_BOTTOM,
  38:Middlewares/lvgl/examples/widgets/btn/../../../src/core/lv_disp.h ****     LV_SCR_LOAD_ANIM_FADE_ON,
  39:Middlewares/lvgl/examples/widgets/btn/../../../src/core/lv_disp.h **** } lv_scr_load_anim_t;
  40:Middlewares/lvgl/examples/widgets/btn/../../../src/core/lv_disp.h **** 
  41:Middlewares/lvgl/examples/widgets/btn/../../../src/core/lv_disp.h **** /**********************
  42:Middlewares/lvgl/examples/widgets/btn/../../../src/core/lv_disp.h ****  * GLOBAL PROTOTYPES
  43:Middlewares/lvgl/examples/widgets/btn/../../../src/core/lv_disp.h ****  **********************/
  44:Middlewares/lvgl/examples/widgets/btn/../../../src/core/lv_disp.h **** 
  45:Middlewares/lvgl/examples/widgets/btn/../../../src/core/lv_disp.h **** /**
  46:Middlewares/lvgl/examples/widgets/btn/../../../src/core/lv_disp.h ****  * Return with a pointer to the active screen
  47:Middlewares/lvgl/examples/widgets/btn/../../../src/core/lv_disp.h ****  * @param disp pointer to display which active screen should be get. (NULL to use the default
  48:Middlewares/lvgl/examples/widgets/btn/../../../src/core/lv_disp.h ****  * screen)
  49:Middlewares/lvgl/examples/widgets/btn/../../../src/core/lv_disp.h ****  * @return pointer to the active screen object (loaded by 'lv_scr_load()')
  50:Middlewares/lvgl/examples/widgets/btn/../../../src/core/lv_disp.h ****  */
  51:Middlewares/lvgl/examples/widgets/btn/../../../src/core/lv_disp.h **** lv_obj_t * lv_disp_get_scr_act(lv_disp_t * disp);
  52:Middlewares/lvgl/examples/widgets/btn/../../../src/core/lv_disp.h **** 
  53:Middlewares/lvgl/examples/widgets/btn/../../../src/core/lv_disp.h **** /**
  54:Middlewares/lvgl/examples/widgets/btn/../../../src/core/lv_disp.h ****  * Return with a pointer to the previous screen. Only used during screen transitions.
  55:Middlewares/lvgl/examples/widgets/btn/../../../src/core/lv_disp.h ****  * @param disp pointer to display which previous screen should be get. (NULL to use the default
  56:Middlewares/lvgl/examples/widgets/btn/../../../src/core/lv_disp.h ****  * screen)
  57:Middlewares/lvgl/examples/widgets/btn/../../../src/core/lv_disp.h ****  * @return pointer to the previous screen object or NULL if not used now
  58:Middlewares/lvgl/examples/widgets/btn/../../../src/core/lv_disp.h ****  */
  59:Middlewares/lvgl/examples/widgets/btn/../../../src/core/lv_disp.h **** lv_obj_t * lv_disp_get_scr_prev(lv_disp_t * disp);
  60:Middlewares/lvgl/examples/widgets/btn/../../../src/core/lv_disp.h **** 
  61:Middlewares/lvgl/examples/widgets/btn/../../../src/core/lv_disp.h **** /**
  62:Middlewares/lvgl/examples/widgets/btn/../../../src/core/lv_disp.h ****  * Make a screen active
  63:Middlewares/lvgl/examples/widgets/btn/../../../src/core/lv_disp.h ****  * @param scr pointer to a screen
  64:Middlewares/lvgl/examples/widgets/btn/../../../src/core/lv_disp.h ****  */
  65:Middlewares/lvgl/examples/widgets/btn/../../../src/core/lv_disp.h **** void lv_disp_load_scr(lv_obj_t * scr);
  66:Middlewares/lvgl/examples/widgets/btn/../../../src/core/lv_disp.h **** 
  67:Middlewares/lvgl/examples/widgets/btn/../../../src/core/lv_disp.h **** /**
  68:Middlewares/lvgl/examples/widgets/btn/../../../src/core/lv_disp.h ****  * Return with the top layer. (Same on every screen and it is above the normal screen layer)
  69:Middlewares/lvgl/examples/widgets/btn/../../../src/core/lv_disp.h ****  * @param disp pointer to display which top layer should be get. (NULL to use the default screen)
  70:Middlewares/lvgl/examples/widgets/btn/../../../src/core/lv_disp.h ****  * @return pointer to the top layer object  (transparent screen sized lv_obj)
  71:Middlewares/lvgl/examples/widgets/btn/../../../src/core/lv_disp.h ****  */
  72:Middlewares/lvgl/examples/widgets/btn/../../../src/core/lv_disp.h **** lv_obj_t * lv_disp_get_layer_top(lv_disp_t * disp);
  73:Middlewares/lvgl/examples/widgets/btn/../../../src/core/lv_disp.h **** 
  74:Middlewares/lvgl/examples/widgets/btn/../../../src/core/lv_disp.h **** /**
  75:Middlewares/lvgl/examples/widgets/btn/../../../src/core/lv_disp.h ****  * Return with the sys. layer. (Same on every screen and it is above the normal screen and the top
  76:Middlewares/lvgl/examples/widgets/btn/../../../src/core/lv_disp.h ****  * layer)
  77:Middlewares/lvgl/examples/widgets/btn/../../../src/core/lv_disp.h ****  * @param disp pointer to display which sys. layer  should be get. (NULL to use the default screen)
  78:Middlewares/lvgl/examples/widgets/btn/../../../src/core/lv_disp.h ****  * @return pointer to the sys layer object  (transparent screen sized lv_obj)
  79:Middlewares/lvgl/examples/widgets/btn/../../../src/core/lv_disp.h ****  */
  80:Middlewares/lvgl/examples/widgets/btn/../../../src/core/lv_disp.h **** lv_obj_t * lv_disp_get_layer_sys(lv_disp_t * disp);
ARM GAS  /tmp/ccRJmor0.s 			page 5


  81:Middlewares/lvgl/examples/widgets/btn/../../../src/core/lv_disp.h **** 
  82:Middlewares/lvgl/examples/widgets/btn/../../../src/core/lv_disp.h **** /**
  83:Middlewares/lvgl/examples/widgets/btn/../../../src/core/lv_disp.h ****  * Get the theme of a display
  84:Middlewares/lvgl/examples/widgets/btn/../../../src/core/lv_disp.h ****  * @param disp pointer to a display
  85:Middlewares/lvgl/examples/widgets/btn/../../../src/core/lv_disp.h ****  * @return the display's theme (can be NULL)
  86:Middlewares/lvgl/examples/widgets/btn/../../../src/core/lv_disp.h ****  */
  87:Middlewares/lvgl/examples/widgets/btn/../../../src/core/lv_disp.h **** void lv_disp_set_theme(lv_disp_t * disp, lv_theme_t * th);
  88:Middlewares/lvgl/examples/widgets/btn/../../../src/core/lv_disp.h **** 
  89:Middlewares/lvgl/examples/widgets/btn/../../../src/core/lv_disp.h **** /**
  90:Middlewares/lvgl/examples/widgets/btn/../../../src/core/lv_disp.h ****  * Get the theme of a display
  91:Middlewares/lvgl/examples/widgets/btn/../../../src/core/lv_disp.h ****  * @param disp pointer to a display
  92:Middlewares/lvgl/examples/widgets/btn/../../../src/core/lv_disp.h ****  * @return the display's theme (can be NULL)
  93:Middlewares/lvgl/examples/widgets/btn/../../../src/core/lv_disp.h ****  */
  94:Middlewares/lvgl/examples/widgets/btn/../../../src/core/lv_disp.h **** lv_theme_t * lv_disp_get_theme(lv_disp_t * disp);
  95:Middlewares/lvgl/examples/widgets/btn/../../../src/core/lv_disp.h **** 
  96:Middlewares/lvgl/examples/widgets/btn/../../../src/core/lv_disp.h **** /**
  97:Middlewares/lvgl/examples/widgets/btn/../../../src/core/lv_disp.h ****  * Set the background color of a display
  98:Middlewares/lvgl/examples/widgets/btn/../../../src/core/lv_disp.h ****  * @param disp pointer to a display
  99:Middlewares/lvgl/examples/widgets/btn/../../../src/core/lv_disp.h ****  * @param color color of the background
 100:Middlewares/lvgl/examples/widgets/btn/../../../src/core/lv_disp.h ****  */
 101:Middlewares/lvgl/examples/widgets/btn/../../../src/core/lv_disp.h **** void lv_disp_set_bg_color(lv_disp_t * disp, lv_color_t color);
 102:Middlewares/lvgl/examples/widgets/btn/../../../src/core/lv_disp.h **** 
 103:Middlewares/lvgl/examples/widgets/btn/../../../src/core/lv_disp.h **** /**
 104:Middlewares/lvgl/examples/widgets/btn/../../../src/core/lv_disp.h ****  * Set the background image of a display
 105:Middlewares/lvgl/examples/widgets/btn/../../../src/core/lv_disp.h ****  * @param disp pointer to a display
 106:Middlewares/lvgl/examples/widgets/btn/../../../src/core/lv_disp.h ****  * @param img_src path to file or pointer to an `lv_img_dsc_t` variable
 107:Middlewares/lvgl/examples/widgets/btn/../../../src/core/lv_disp.h ****  */
 108:Middlewares/lvgl/examples/widgets/btn/../../../src/core/lv_disp.h **** void lv_disp_set_bg_image(lv_disp_t * disp, const void  * img_src);
 109:Middlewares/lvgl/examples/widgets/btn/../../../src/core/lv_disp.h **** 
 110:Middlewares/lvgl/examples/widgets/btn/../../../src/core/lv_disp.h **** /**
 111:Middlewares/lvgl/examples/widgets/btn/../../../src/core/lv_disp.h ****  * Opacity of the background
 112:Middlewares/lvgl/examples/widgets/btn/../../../src/core/lv_disp.h ****  * @param disp pointer to a display
 113:Middlewares/lvgl/examples/widgets/btn/../../../src/core/lv_disp.h ****  * @param opa opacity (0..255)
 114:Middlewares/lvgl/examples/widgets/btn/../../../src/core/lv_disp.h ****  */
 115:Middlewares/lvgl/examples/widgets/btn/../../../src/core/lv_disp.h **** void lv_disp_set_bg_opa(lv_disp_t * disp, lv_opa_t opa);
 116:Middlewares/lvgl/examples/widgets/btn/../../../src/core/lv_disp.h **** 
 117:Middlewares/lvgl/examples/widgets/btn/../../../src/core/lv_disp.h **** /**
 118:Middlewares/lvgl/examples/widgets/btn/../../../src/core/lv_disp.h ****  * Switch screen with animation
 119:Middlewares/lvgl/examples/widgets/btn/../../../src/core/lv_disp.h ****  * @param scr pointer to the new screen to load
 120:Middlewares/lvgl/examples/widgets/btn/../../../src/core/lv_disp.h ****  * @param anim_type type of the animation from `lv_scr_load_anim_t`. E.g.  `LV_SCR_LOAD_ANIM_MOVE_L
 121:Middlewares/lvgl/examples/widgets/btn/../../../src/core/lv_disp.h ****  * @param time time of the animation
 122:Middlewares/lvgl/examples/widgets/btn/../../../src/core/lv_disp.h ****  * @param delay delay before the transition
 123:Middlewares/lvgl/examples/widgets/btn/../../../src/core/lv_disp.h ****  * @param auto_del true: automatically delete the old screen
 124:Middlewares/lvgl/examples/widgets/btn/../../../src/core/lv_disp.h ****  */
 125:Middlewares/lvgl/examples/widgets/btn/../../../src/core/lv_disp.h **** void lv_scr_load_anim(lv_obj_t * scr, lv_scr_load_anim_t anim_type, uint32_t time, uint32_t delay, 
 126:Middlewares/lvgl/examples/widgets/btn/../../../src/core/lv_disp.h **** 
 127:Middlewares/lvgl/examples/widgets/btn/../../../src/core/lv_disp.h **** /**
 128:Middlewares/lvgl/examples/widgets/btn/../../../src/core/lv_disp.h ****  * Get elapsed time since last user activity on a display (e.g. click)
 129:Middlewares/lvgl/examples/widgets/btn/../../../src/core/lv_disp.h ****  * @param disp pointer to an display (NULL to get the overall smallest inactivity)
 130:Middlewares/lvgl/examples/widgets/btn/../../../src/core/lv_disp.h ****  * @return elapsed ticks (milliseconds) since the last activity
 131:Middlewares/lvgl/examples/widgets/btn/../../../src/core/lv_disp.h ****  */
 132:Middlewares/lvgl/examples/widgets/btn/../../../src/core/lv_disp.h **** uint32_t lv_disp_get_inactive_time(const lv_disp_t * disp);
 133:Middlewares/lvgl/examples/widgets/btn/../../../src/core/lv_disp.h **** 
 134:Middlewares/lvgl/examples/widgets/btn/../../../src/core/lv_disp.h **** /**
 135:Middlewares/lvgl/examples/widgets/btn/../../../src/core/lv_disp.h ****  * Manually trigger an activity on a display
 136:Middlewares/lvgl/examples/widgets/btn/../../../src/core/lv_disp.h ****  * @param disp pointer to an display (NULL to use the default display)
 137:Middlewares/lvgl/examples/widgets/btn/../../../src/core/lv_disp.h ****  */
ARM GAS  /tmp/ccRJmor0.s 			page 6


 138:Middlewares/lvgl/examples/widgets/btn/../../../src/core/lv_disp.h **** void lv_disp_trig_activity(lv_disp_t * disp);
 139:Middlewares/lvgl/examples/widgets/btn/../../../src/core/lv_disp.h **** 
 140:Middlewares/lvgl/examples/widgets/btn/../../../src/core/lv_disp.h **** /**
 141:Middlewares/lvgl/examples/widgets/btn/../../../src/core/lv_disp.h ****  * Clean any CPU cache that is related to the display.
 142:Middlewares/lvgl/examples/widgets/btn/../../../src/core/lv_disp.h ****  * @param disp pointer to an display (NULL to use the default display)
 143:Middlewares/lvgl/examples/widgets/btn/../../../src/core/lv_disp.h ****  */
 144:Middlewares/lvgl/examples/widgets/btn/../../../src/core/lv_disp.h **** void lv_disp_clean_dcache(lv_disp_t * disp);
 145:Middlewares/lvgl/examples/widgets/btn/../../../src/core/lv_disp.h **** 
 146:Middlewares/lvgl/examples/widgets/btn/../../../src/core/lv_disp.h **** /**
 147:Middlewares/lvgl/examples/widgets/btn/../../../src/core/lv_disp.h ****  * Get a pointer to the screen refresher timer to
 148:Middlewares/lvgl/examples/widgets/btn/../../../src/core/lv_disp.h ****  * modify its parameters with `lv_timer_...` functions.
 149:Middlewares/lvgl/examples/widgets/btn/../../../src/core/lv_disp.h ****  * @param disp pointer to a display
 150:Middlewares/lvgl/examples/widgets/btn/../../../src/core/lv_disp.h ****  * @return pointer to the display refresher timer. (NULL on error)
 151:Middlewares/lvgl/examples/widgets/btn/../../../src/core/lv_disp.h ****  */
 152:Middlewares/lvgl/examples/widgets/btn/../../../src/core/lv_disp.h **** lv_timer_t * _lv_disp_get_refr_timer(lv_disp_t * disp);
 153:Middlewares/lvgl/examples/widgets/btn/../../../src/core/lv_disp.h **** 
 154:Middlewares/lvgl/examples/widgets/btn/../../../src/core/lv_disp.h **** /*------------------------------------------------
 155:Middlewares/lvgl/examples/widgets/btn/../../../src/core/lv_disp.h ****  * To improve backward compatibility
 156:Middlewares/lvgl/examples/widgets/btn/../../../src/core/lv_disp.h ****  * Recommended only if you have one display
 157:Middlewares/lvgl/examples/widgets/btn/../../../src/core/lv_disp.h ****  *------------------------------------------------*/
 158:Middlewares/lvgl/examples/widgets/btn/../../../src/core/lv_disp.h **** 
 159:Middlewares/lvgl/examples/widgets/btn/../../../src/core/lv_disp.h **** /**
 160:Middlewares/lvgl/examples/widgets/btn/../../../src/core/lv_disp.h ****  * Get the active screen of the default display
 161:Middlewares/lvgl/examples/widgets/btn/../../../src/core/lv_disp.h ****  * @return pointer to the active screen
 162:Middlewares/lvgl/examples/widgets/btn/../../../src/core/lv_disp.h ****  */
 163:Middlewares/lvgl/examples/widgets/btn/../../../src/core/lv_disp.h **** static inline lv_obj_t * lv_scr_act(void)
 113              		.loc 2 163 26 view .LVU16
 114              	.LBB5:
 164:Middlewares/lvgl/examples/widgets/btn/../../../src/core/lv_disp.h **** {
 165:Middlewares/lvgl/examples/widgets/btn/../../../src/core/lv_disp.h ****     return lv_disp_get_scr_act(lv_disp_get_default());
 115              		.loc 2 165 5 view .LVU17
 116              		.loc 2 165 12 is_stmt 0 view .LVU18
 117 0068 FFF7FEFF 		bl	lv_disp_get_default
 118              	.LVL9:
 119 006c FFF7FEFF 		bl	lv_disp_get_scr_act
 120              	.LVL10:
 121              	.LBE5:
 122              	.LBE4:
 123              		.loc 1 37 23 view .LVU19
 124 0070 FFF7FEFF 		bl	lv_btn_create
 125              	.LVL11:
 126 0074 0546     		mov	r5, r0
 127              	.LVL12:
  38:Middlewares/lvgl/examples/widgets/btn/lv_example_btn_3.c ****     lv_obj_align(btn1, LV_ALIGN_CENTER, 0, -80);
 128              		.loc 1 38 5 is_stmt 1 view .LVU20
 129 0076 6FF04F03 		mvn	r3, #79
 130 007a 3246     		mov	r2, r6
 131 007c 0921     		movs	r1, #9
 132 007e FFF7FEFF 		bl	lv_obj_align
 133              	.LVL13:
  39:Middlewares/lvgl/examples/widgets/btn/lv_example_btn_3.c ****     lv_obj_add_style(btn1, &style_pr, LV_STATE_PRESSED);
 134              		.loc 1 39 5 view .LVU21
 135 0082 2022     		movs	r2, #32
 136 0084 2146     		mov	r1, r4
 137 0086 2846     		mov	r0, r5
 138 0088 FFF7FEFF 		bl	lv_obj_add_style
 139              	.LVL14:
ARM GAS  /tmp/ccRJmor0.s 			page 7


  40:Middlewares/lvgl/examples/widgets/btn/lv_example_btn_3.c ****     lv_obj_add_style(btn1, &style_def, 0);
 140              		.loc 1 40 5 view .LVU22
 141 008c 3246     		mov	r2, r6
 142 008e 3946     		mov	r1, r7
 143 0090 2846     		mov	r0, r5
 144 0092 FFF7FEFF 		bl	lv_obj_add_style
 145              	.LVL15:
  41:Middlewares/lvgl/examples/widgets/btn/lv_example_btn_3.c **** 
  42:Middlewares/lvgl/examples/widgets/btn/lv_example_btn_3.c ****     lv_obj_t * label = lv_label_create(btn1);
 146              		.loc 1 42 5 view .LVU23
 147              		.loc 1 42 24 is_stmt 0 view .LVU24
 148 0096 2846     		mov	r0, r5
 149 0098 FFF7FEFF 		bl	lv_label_create
 150              	.LVL16:
  43:Middlewares/lvgl/examples/widgets/btn/lv_example_btn_3.c ****     lv_label_set_text(label, "Gum");
 151              		.loc 1 43 5 is_stmt 1 view .LVU25
 152 009c 0949     		ldr	r1, .L3+28
 153 009e FFF7FEFF 		bl	lv_label_set_text
 154              	.LVL17:
  44:Middlewares/lvgl/examples/widgets/btn/lv_example_btn_3.c **** }
 155              		.loc 1 44 1 is_stmt 0 view .LVU26
 156 00a2 03B0     		add	sp, sp, #12
 157              	.LCFI2:
 158              		.cfi_def_cfa_offset 20
 159              		@ sp needed
 160 00a4 F0BD     		pop	{r4, r5, r6, r7, pc}
 161              	.LVL18:
 162              	.L4:
 163              		.loc 1 44 1 view .LVU27
 164 00a6 00BF     		.align	2
 165              	.L3:
 166 00a8 00000000 		.word	.LANCHOR0
 167 00ac 00000000 		.word	.LANCHOR1
 168 00b0 00000000 		.word	lv_anim_path_overshoot
 169 00b4 00000000 		.word	.LANCHOR2
 170 00b8 00000000 		.word	lv_anim_path_ease_in_out
 171 00bc 00000000 		.word	.LANCHOR3
 172 00c0 00000000 		.word	.LANCHOR4
 173 00c4 00000000 		.word	.LC0
 174              		.cfi_endproc
 175              	.LFE184:
 177              		.section	.bss.style_def.1,"aw",%nobits
 178              		.align	2
 179              		.set	.LANCHOR3,. + 0
 182              	style_def.1:
 183 0000 00000000 		.space	8
 183      00000000 
 184              		.section	.bss.style_pr.0,"aw",%nobits
 185              		.align	2
 186              		.set	.LANCHOR4,. + 0
 189              	style_pr.0:
 190 0000 00000000 		.space	8
 190      00000000 
 191              		.section	.bss.transition_dsc_def.4,"aw",%nobits
 192              		.align	2
 193              		.set	.LANCHOR1,. + 0
 196              	transition_dsc_def.4:
ARM GAS  /tmp/ccRJmor0.s 			page 8


 197 0000 00000000 		.space	20
 197      00000000 
 197      00000000 
 197      00000000 
 197      00000000 
 198              		.section	.bss.transition_dsc_pr.2,"aw",%nobits
 199              		.align	2
 200              		.set	.LANCHOR2,. + 0
 203              	transition_dsc_pr.2:
 204 0000 00000000 		.space	20
 204      00000000 
 204      00000000 
 204      00000000 
 204      00000000 
 205              		.section	.data.props.3,"aw"
 206              		.align	2
 207              		.set	.LANCHOR0,. + 0
 210              	props.3:
 211 0000 0A08     		.short	2058
 212 0002 0B08     		.short	2059
 213 0004 5A14     		.short	5210
 214 0006 0000     		.short	0
 215              		.text
 216              	.Letext0:
 217              		.file 3 "/home/akinya/gcc-arm-none-eabi/arm-none-eabi/include/machine/_default_types.h"
 218              		.file 4 "/home/akinya/gcc-arm-none-eabi/arm-none-eabi/include/sys/_stdint.h"
 219              		.file 5 "Middlewares/lvgl/examples/widgets/btn/../../../src/misc/lv_ll.h"
 220              		.file 6 "Middlewares/lvgl/examples/widgets/btn/../../../src/hal/../misc/lv_color.h"
 221              		.file 7 "Middlewares/lvgl/examples/widgets/btn/../../../src/hal/../misc/lv_area.h"
 222              		.file 8 "Middlewares/lvgl/examples/widgets/btn/../../../src/core/lv_obj.h"
 223              		.file 9 "Middlewares/lvgl/examples/widgets/btn/../../../src/core/lv_group.h"
 224              		.file 10 "Middlewares/lvgl/examples/widgets/btn/../../../src/core/../misc/lv_anim.h"
 225              		.file 11 "Middlewares/lvgl/examples/widgets/btn/../../../src/core/../misc/lv_style.h"
 226              		.file 12 "Middlewares/lvgl/examples/widgets/btn/../../../src/core/lv_obj_scroll.h"
 227              		.file 13 "Middlewares/lvgl/examples/widgets/btn/../../../src/core/lv_obj_style.h"
 228              		.file 14 "Middlewares/lvgl/examples/widgets/btn/../../../src/core/lv_obj_class.h"
 229              		.file 15 "Middlewares/lvgl/examples/widgets/btn/../../../src/core/lv_event.h"
 230              		.file 16 "Middlewares/lvgl/examples/widgets/btn/../../../src/hal/lv_hal_disp.h"
 231              		.file 17 "Middlewares/lvgl/examples/widgets/btn/../../../src/core/../misc/lv_style_gen.h"
 232              		.file 18 "Middlewares/lvgl/examples/widgets/btn/../../../src/widgets/lv_btn.h"
 233              		.file 19 "Middlewares/lvgl/examples/widgets/btn/../../../src/core/lv_obj_pos.h"
 234              		.file 20 "Middlewares/lvgl/examples/widgets/btn/../../../src/widgets/lv_label.h"
ARM GAS  /tmp/ccRJmor0.s 			page 9

