ARM GAS  /tmp/ccuzFof5.s 			page 1


   1              		.cpu cortex-m3
   2              		.eabi_attribute 20, 1
   3              		.eabi_attribute 21, 1
   4              		.eabi_attribute 23, 3
   5              		.eabi_attribute 24, 1
   6              		.eabi_attribute 25, 1
   7              		.eabi_attribute 26, 1
   8              		.eabi_attribute 30, 1
   9              		.eabi_attribute 34, 1
  10              		.eabi_attribute 18, 4
  11              		.file	"lv_example_scroll_2.c"
  12              		.text
  13              	.Ltext0:
  14              		.cfi_sections	.debug_frame
  15              		.section	.text.sw_event_cb,"ax",%progbits
  16              		.align	1
  17              		.arch armv7-m
  18              		.syntax unified
  19              		.thumb
  20              		.thumb_func
  21              		.fpu softvfp
  23              	sw_event_cb:
  24              	.LVL0:
  25              	.LFB184:
  26              		.file 1 "Middlewares/lvgl/examples/scroll/lv_example_scroll_2.c"
   1:Middlewares/lvgl/examples/scroll/lv_example_scroll_2.c **** #include "../lv_examples.h"
   2:Middlewares/lvgl/examples/scroll/lv_example_scroll_2.c **** #if LV_BUILD_EXAMPLES && LV_USE_FLEX
   3:Middlewares/lvgl/examples/scroll/lv_example_scroll_2.c **** 
   4:Middlewares/lvgl/examples/scroll/lv_example_scroll_2.c **** static void sw_event_cb(lv_event_t * e)
   5:Middlewares/lvgl/examples/scroll/lv_example_scroll_2.c **** {
  27              		.loc 1 5 1 view -0
  28              		.cfi_startproc
  29              		@ args = 0, pretend = 0, frame = 0
  30              		@ frame_needed = 0, uses_anonymous_args = 0
  31              		.loc 1 5 1 is_stmt 0 view .LVU1
  32 0000 70B5     		push	{r4, r5, r6, lr}
  33              	.LCFI0:
  34              		.cfi_def_cfa_offset 16
  35              		.cfi_offset 4, -16
  36              		.cfi_offset 5, -12
  37              		.cfi_offset 6, -8
  38              		.cfi_offset 14, -4
  39 0002 0446     		mov	r4, r0
   6:Middlewares/lvgl/examples/scroll/lv_example_scroll_2.c ****     lv_event_code_t code = lv_event_get_code(e);
  40              		.loc 1 6 5 is_stmt 1 view .LVU2
  41              		.loc 1 6 28 is_stmt 0 view .LVU3
  42 0004 FFF7FEFF 		bl	lv_event_get_code
  43              	.LVL1:
  44              		.loc 1 6 28 view .LVU4
  45 0008 0546     		mov	r5, r0
  46              	.LVL2:
   7:Middlewares/lvgl/examples/scroll/lv_example_scroll_2.c ****     lv_obj_t * sw = lv_event_get_target(e);
  47              		.loc 1 7 5 is_stmt 1 view .LVU5
  48              		.loc 1 7 21 is_stmt 0 view .LVU6
  49 000a 2046     		mov	r0, r4
  50 000c FFF7FEFF 		bl	lv_event_get_target
  51              	.LVL3:
ARM GAS  /tmp/ccuzFof5.s 			page 2


   8:Middlewares/lvgl/examples/scroll/lv_example_scroll_2.c **** 
   9:Middlewares/lvgl/examples/scroll/lv_example_scroll_2.c ****     if(code == LV_EVENT_VALUE_CHANGED) {
  52              		.loc 1 9 5 is_stmt 1 view .LVU7
  53              		.loc 1 9 7 is_stmt 0 view .LVU8
  54 0010 1C2D     		cmp	r5, #28
  55 0012 00D0     		beq	.L5
  56              	.LVL4:
  57              	.L1:
  10:Middlewares/lvgl/examples/scroll/lv_example_scroll_2.c ****         lv_obj_t * list = lv_event_get_user_data(e);
  11:Middlewares/lvgl/examples/scroll/lv_example_scroll_2.c **** 
  12:Middlewares/lvgl/examples/scroll/lv_example_scroll_2.c ****         if(lv_obj_has_state(sw, LV_STATE_CHECKED)) lv_obj_add_flag(list, LV_OBJ_FLAG_SCROLL_ONE);
  13:Middlewares/lvgl/examples/scroll/lv_example_scroll_2.c ****         else lv_obj_clear_flag(list, LV_OBJ_FLAG_SCROLL_ONE);
  14:Middlewares/lvgl/examples/scroll/lv_example_scroll_2.c ****     }
  15:Middlewares/lvgl/examples/scroll/lv_example_scroll_2.c **** }
  58              		.loc 1 15 1 view .LVU9
  59 0014 70BD     		pop	{r4, r5, r6, pc}
  60              	.LVL5:
  61              	.L5:
  62              		.loc 1 15 1 view .LVU10
  63 0016 0646     		mov	r6, r0
  64              	.LBB7:
  10:Middlewares/lvgl/examples/scroll/lv_example_scroll_2.c ****         lv_obj_t * list = lv_event_get_user_data(e);
  65              		.loc 1 10 9 is_stmt 1 view .LVU11
  10:Middlewares/lvgl/examples/scroll/lv_example_scroll_2.c ****         lv_obj_t * list = lv_event_get_user_data(e);
  66              		.loc 1 10 27 is_stmt 0 view .LVU12
  67 0018 2046     		mov	r0, r4
  68              	.LVL6:
  10:Middlewares/lvgl/examples/scroll/lv_example_scroll_2.c ****         lv_obj_t * list = lv_event_get_user_data(e);
  69              		.loc 1 10 27 view .LVU13
  70 001a FFF7FEFF 		bl	lv_event_get_user_data
  71              	.LVL7:
  72 001e 0446     		mov	r4, r0
  73              	.LVL8:
  12:Middlewares/lvgl/examples/scroll/lv_example_scroll_2.c ****         else lv_obj_clear_flag(list, LV_OBJ_FLAG_SCROLL_ONE);
  74              		.loc 1 12 9 is_stmt 1 view .LVU14
  12:Middlewares/lvgl/examples/scroll/lv_example_scroll_2.c ****         else lv_obj_clear_flag(list, LV_OBJ_FLAG_SCROLL_ONE);
  75              		.loc 1 12 12 is_stmt 0 view .LVU15
  76 0020 0121     		movs	r1, #1
  77 0022 3046     		mov	r0, r6
  78              	.LVL9:
  12:Middlewares/lvgl/examples/scroll/lv_example_scroll_2.c ****         else lv_obj_clear_flag(list, LV_OBJ_FLAG_SCROLL_ONE);
  79              		.loc 1 12 12 view .LVU16
  80 0024 FFF7FEFF 		bl	lv_obj_has_state
  81              	.LVL10:
  12:Middlewares/lvgl/examples/scroll/lv_example_scroll_2.c ****         else lv_obj_clear_flag(list, LV_OBJ_FLAG_SCROLL_ONE);
  82              		.loc 1 12 11 view .LVU17
  83 0028 20B1     		cbz	r0, .L3
  12:Middlewares/lvgl/examples/scroll/lv_example_scroll_2.c ****         else lv_obj_clear_flag(list, LV_OBJ_FLAG_SCROLL_ONE);
  84              		.loc 1 12 52 is_stmt 1 discriminator 1 view .LVU18
  85 002a 8021     		movs	r1, #128
  86 002c 2046     		mov	r0, r4
  87 002e FFF7FEFF 		bl	lv_obj_add_flag
  88              	.LVL11:
  89 0032 EFE7     		b	.L1
  90              	.L3:
  13:Middlewares/lvgl/examples/scroll/lv_example_scroll_2.c ****     }
  91              		.loc 1 13 14 view .LVU19
ARM GAS  /tmp/ccuzFof5.s 			page 3


  92 0034 8021     		movs	r1, #128
  93 0036 2046     		mov	r0, r4
  94 0038 FFF7FEFF 		bl	lv_obj_clear_flag
  95              	.LVL12:
  96              	.LBE7:
  97              		.loc 1 15 1 is_stmt 0 view .LVU20
  98 003c EAE7     		b	.L1
  99              		.cfi_endproc
 100              	.LFE184:
 102              		.section	.rodata.lv_example_scroll_2.str1.4,"aMS",%progbits,1
 103              		.align	2
 104              	.LC0:
 105 0000 50616E65 		.ascii	"Panel %d\012no snap\000"
 105      6C202564 
 105      0A6E6F20 
 105      736E6170 
 105      00
 106 0011 000000   		.align	2
 107              	.LC1:
 108 0014 50616E65 		.ascii	"Panel %d\000"
 108      6C202564 
 108      00
 109 001d 000000   		.align	2
 110              	.LC2:
 111 0020 4F6E6520 		.ascii	"One scroll\000"
 111      7363726F 
 111      6C6C00
 112              		.section	.text.lv_example_scroll_2,"ax",%progbits
 113              		.align	1
 114              		.global	lv_example_scroll_2
 115              		.syntax unified
 116              		.thumb
 117              		.thumb_func
 118              		.fpu softvfp
 120              	lv_example_scroll_2:
 121              	.LFB185:
  16:Middlewares/lvgl/examples/scroll/lv_example_scroll_2.c **** 
  17:Middlewares/lvgl/examples/scroll/lv_example_scroll_2.c **** /**
  18:Middlewares/lvgl/examples/scroll/lv_example_scroll_2.c ****  * Show an example to scroll snap
  19:Middlewares/lvgl/examples/scroll/lv_example_scroll_2.c ****  */
  20:Middlewares/lvgl/examples/scroll/lv_example_scroll_2.c **** void lv_example_scroll_2(void)
  21:Middlewares/lvgl/examples/scroll/lv_example_scroll_2.c **** {
 122              		.loc 1 21 1 is_stmt 1 view -0
 123              		.cfi_startproc
 124              		@ args = 0, pretend = 0, frame = 0
 125              		@ frame_needed = 0, uses_anonymous_args = 0
 126 0000 F0B5     		push	{r4, r5, r6, r7, lr}
 127              	.LCFI1:
 128              		.cfi_def_cfa_offset 20
 129              		.cfi_offset 4, -20
 130              		.cfi_offset 5, -16
 131              		.cfi_offset 6, -12
 132              		.cfi_offset 7, -8
 133              		.cfi_offset 14, -4
 134 0002 83B0     		sub	sp, sp, #12
 135              	.LCFI2:
 136              		.cfi_def_cfa_offset 32
ARM GAS  /tmp/ccuzFof5.s 			page 4


  22:Middlewares/lvgl/examples/scroll/lv_example_scroll_2.c ****     lv_obj_t * panel = lv_obj_create(lv_scr_act());
 137              		.loc 1 22 5 view .LVU22
 138              	.LBB17:
 139              	.LBI17:
 140              		.file 2 "Middlewares/lvgl/examples/scroll/../../src/core/lv_disp.h"
   1:Middlewares/lvgl/examples/scroll/../../src/core/lv_disp.h **** /**
   2:Middlewares/lvgl/examples/scroll/../../src/core/lv_disp.h ****  * @file lv_disp.h
   3:Middlewares/lvgl/examples/scroll/../../src/core/lv_disp.h ****  *
   4:Middlewares/lvgl/examples/scroll/../../src/core/lv_disp.h ****  */
   5:Middlewares/lvgl/examples/scroll/../../src/core/lv_disp.h **** 
   6:Middlewares/lvgl/examples/scroll/../../src/core/lv_disp.h **** #ifndef LV_DISP_H
   7:Middlewares/lvgl/examples/scroll/../../src/core/lv_disp.h **** #define LV_DISP_H
   8:Middlewares/lvgl/examples/scroll/../../src/core/lv_disp.h **** 
   9:Middlewares/lvgl/examples/scroll/../../src/core/lv_disp.h **** #ifdef __cplusplus
  10:Middlewares/lvgl/examples/scroll/../../src/core/lv_disp.h **** extern "C" {
  11:Middlewares/lvgl/examples/scroll/../../src/core/lv_disp.h **** #endif
  12:Middlewares/lvgl/examples/scroll/../../src/core/lv_disp.h **** 
  13:Middlewares/lvgl/examples/scroll/../../src/core/lv_disp.h **** /*********************
  14:Middlewares/lvgl/examples/scroll/../../src/core/lv_disp.h ****  *      INCLUDES
  15:Middlewares/lvgl/examples/scroll/../../src/core/lv_disp.h ****  *********************/
  16:Middlewares/lvgl/examples/scroll/../../src/core/lv_disp.h **** #include "../hal/lv_hal.h"
  17:Middlewares/lvgl/examples/scroll/../../src/core/lv_disp.h **** #include "lv_obj.h"
  18:Middlewares/lvgl/examples/scroll/../../src/core/lv_disp.h **** #include "lv_theme.h"
  19:Middlewares/lvgl/examples/scroll/../../src/core/lv_disp.h **** 
  20:Middlewares/lvgl/examples/scroll/../../src/core/lv_disp.h **** /*********************
  21:Middlewares/lvgl/examples/scroll/../../src/core/lv_disp.h ****  *      DEFINES
  22:Middlewares/lvgl/examples/scroll/../../src/core/lv_disp.h ****  *********************/
  23:Middlewares/lvgl/examples/scroll/../../src/core/lv_disp.h **** 
  24:Middlewares/lvgl/examples/scroll/../../src/core/lv_disp.h **** /**********************
  25:Middlewares/lvgl/examples/scroll/../../src/core/lv_disp.h ****  *      TYPEDEFS
  26:Middlewares/lvgl/examples/scroll/../../src/core/lv_disp.h ****  **********************/
  27:Middlewares/lvgl/examples/scroll/../../src/core/lv_disp.h **** 
  28:Middlewares/lvgl/examples/scroll/../../src/core/lv_disp.h **** typedef enum {
  29:Middlewares/lvgl/examples/scroll/../../src/core/lv_disp.h ****     LV_SCR_LOAD_ANIM_NONE,
  30:Middlewares/lvgl/examples/scroll/../../src/core/lv_disp.h ****     LV_SCR_LOAD_ANIM_OVER_LEFT,
  31:Middlewares/lvgl/examples/scroll/../../src/core/lv_disp.h ****     LV_SCR_LOAD_ANIM_OVER_RIGHT,
  32:Middlewares/lvgl/examples/scroll/../../src/core/lv_disp.h ****     LV_SCR_LOAD_ANIM_OVER_TOP,
  33:Middlewares/lvgl/examples/scroll/../../src/core/lv_disp.h ****     LV_SCR_LOAD_ANIM_OVER_BOTTOM,
  34:Middlewares/lvgl/examples/scroll/../../src/core/lv_disp.h ****     LV_SCR_LOAD_ANIM_MOVE_LEFT,
  35:Middlewares/lvgl/examples/scroll/../../src/core/lv_disp.h ****     LV_SCR_LOAD_ANIM_MOVE_RIGHT,
  36:Middlewares/lvgl/examples/scroll/../../src/core/lv_disp.h ****     LV_SCR_LOAD_ANIM_MOVE_TOP,
  37:Middlewares/lvgl/examples/scroll/../../src/core/lv_disp.h ****     LV_SCR_LOAD_ANIM_MOVE_BOTTOM,
  38:Middlewares/lvgl/examples/scroll/../../src/core/lv_disp.h ****     LV_SCR_LOAD_ANIM_FADE_ON,
  39:Middlewares/lvgl/examples/scroll/../../src/core/lv_disp.h **** } lv_scr_load_anim_t;
  40:Middlewares/lvgl/examples/scroll/../../src/core/lv_disp.h **** 
  41:Middlewares/lvgl/examples/scroll/../../src/core/lv_disp.h **** /**********************
  42:Middlewares/lvgl/examples/scroll/../../src/core/lv_disp.h ****  * GLOBAL PROTOTYPES
  43:Middlewares/lvgl/examples/scroll/../../src/core/lv_disp.h ****  **********************/
  44:Middlewares/lvgl/examples/scroll/../../src/core/lv_disp.h **** 
  45:Middlewares/lvgl/examples/scroll/../../src/core/lv_disp.h **** /**
  46:Middlewares/lvgl/examples/scroll/../../src/core/lv_disp.h ****  * Return with a pointer to the active screen
  47:Middlewares/lvgl/examples/scroll/../../src/core/lv_disp.h ****  * @param disp pointer to display which active screen should be get. (NULL to use the default
  48:Middlewares/lvgl/examples/scroll/../../src/core/lv_disp.h ****  * screen)
  49:Middlewares/lvgl/examples/scroll/../../src/core/lv_disp.h ****  * @return pointer to the active screen object (loaded by 'lv_scr_load()')
  50:Middlewares/lvgl/examples/scroll/../../src/core/lv_disp.h ****  */
  51:Middlewares/lvgl/examples/scroll/../../src/core/lv_disp.h **** lv_obj_t * lv_disp_get_scr_act(lv_disp_t * disp);
  52:Middlewares/lvgl/examples/scroll/../../src/core/lv_disp.h **** 
ARM GAS  /tmp/ccuzFof5.s 			page 5


  53:Middlewares/lvgl/examples/scroll/../../src/core/lv_disp.h **** /**
  54:Middlewares/lvgl/examples/scroll/../../src/core/lv_disp.h ****  * Return with a pointer to the previous screen. Only used during screen transitions.
  55:Middlewares/lvgl/examples/scroll/../../src/core/lv_disp.h ****  * @param disp pointer to display which previous screen should be get. (NULL to use the default
  56:Middlewares/lvgl/examples/scroll/../../src/core/lv_disp.h ****  * screen)
  57:Middlewares/lvgl/examples/scroll/../../src/core/lv_disp.h ****  * @return pointer to the previous screen object or NULL if not used now
  58:Middlewares/lvgl/examples/scroll/../../src/core/lv_disp.h ****  */
  59:Middlewares/lvgl/examples/scroll/../../src/core/lv_disp.h **** lv_obj_t * lv_disp_get_scr_prev(lv_disp_t * disp);
  60:Middlewares/lvgl/examples/scroll/../../src/core/lv_disp.h **** 
  61:Middlewares/lvgl/examples/scroll/../../src/core/lv_disp.h **** /**
  62:Middlewares/lvgl/examples/scroll/../../src/core/lv_disp.h ****  * Make a screen active
  63:Middlewares/lvgl/examples/scroll/../../src/core/lv_disp.h ****  * @param scr pointer to a screen
  64:Middlewares/lvgl/examples/scroll/../../src/core/lv_disp.h ****  */
  65:Middlewares/lvgl/examples/scroll/../../src/core/lv_disp.h **** void lv_disp_load_scr(lv_obj_t * scr);
  66:Middlewares/lvgl/examples/scroll/../../src/core/lv_disp.h **** 
  67:Middlewares/lvgl/examples/scroll/../../src/core/lv_disp.h **** /**
  68:Middlewares/lvgl/examples/scroll/../../src/core/lv_disp.h ****  * Return with the top layer. (Same on every screen and it is above the normal screen layer)
  69:Middlewares/lvgl/examples/scroll/../../src/core/lv_disp.h ****  * @param disp pointer to display which top layer should be get. (NULL to use the default screen)
  70:Middlewares/lvgl/examples/scroll/../../src/core/lv_disp.h ****  * @return pointer to the top layer object  (transparent screen sized lv_obj)
  71:Middlewares/lvgl/examples/scroll/../../src/core/lv_disp.h ****  */
  72:Middlewares/lvgl/examples/scroll/../../src/core/lv_disp.h **** lv_obj_t * lv_disp_get_layer_top(lv_disp_t * disp);
  73:Middlewares/lvgl/examples/scroll/../../src/core/lv_disp.h **** 
  74:Middlewares/lvgl/examples/scroll/../../src/core/lv_disp.h **** /**
  75:Middlewares/lvgl/examples/scroll/../../src/core/lv_disp.h ****  * Return with the sys. layer. (Same on every screen and it is above the normal screen and the top
  76:Middlewares/lvgl/examples/scroll/../../src/core/lv_disp.h ****  * layer)
  77:Middlewares/lvgl/examples/scroll/../../src/core/lv_disp.h ****  * @param disp pointer to display which sys. layer  should be get. (NULL to use the default screen)
  78:Middlewares/lvgl/examples/scroll/../../src/core/lv_disp.h ****  * @return pointer to the sys layer object  (transparent screen sized lv_obj)
  79:Middlewares/lvgl/examples/scroll/../../src/core/lv_disp.h ****  */
  80:Middlewares/lvgl/examples/scroll/../../src/core/lv_disp.h **** lv_obj_t * lv_disp_get_layer_sys(lv_disp_t * disp);
  81:Middlewares/lvgl/examples/scroll/../../src/core/lv_disp.h **** 
  82:Middlewares/lvgl/examples/scroll/../../src/core/lv_disp.h **** /**
  83:Middlewares/lvgl/examples/scroll/../../src/core/lv_disp.h ****  * Get the theme of a display
  84:Middlewares/lvgl/examples/scroll/../../src/core/lv_disp.h ****  * @param disp pointer to a display
  85:Middlewares/lvgl/examples/scroll/../../src/core/lv_disp.h ****  * @return the display's theme (can be NULL)
  86:Middlewares/lvgl/examples/scroll/../../src/core/lv_disp.h ****  */
  87:Middlewares/lvgl/examples/scroll/../../src/core/lv_disp.h **** void lv_disp_set_theme(lv_disp_t * disp, lv_theme_t * th);
  88:Middlewares/lvgl/examples/scroll/../../src/core/lv_disp.h **** 
  89:Middlewares/lvgl/examples/scroll/../../src/core/lv_disp.h **** /**
  90:Middlewares/lvgl/examples/scroll/../../src/core/lv_disp.h ****  * Get the theme of a display
  91:Middlewares/lvgl/examples/scroll/../../src/core/lv_disp.h ****  * @param disp pointer to a display
  92:Middlewares/lvgl/examples/scroll/../../src/core/lv_disp.h ****  * @return the display's theme (can be NULL)
  93:Middlewares/lvgl/examples/scroll/../../src/core/lv_disp.h ****  */
  94:Middlewares/lvgl/examples/scroll/../../src/core/lv_disp.h **** lv_theme_t * lv_disp_get_theme(lv_disp_t * disp);
  95:Middlewares/lvgl/examples/scroll/../../src/core/lv_disp.h **** 
  96:Middlewares/lvgl/examples/scroll/../../src/core/lv_disp.h **** /**
  97:Middlewares/lvgl/examples/scroll/../../src/core/lv_disp.h ****  * Set the background color of a display
  98:Middlewares/lvgl/examples/scroll/../../src/core/lv_disp.h ****  * @param disp pointer to a display
  99:Middlewares/lvgl/examples/scroll/../../src/core/lv_disp.h ****  * @param color color of the background
 100:Middlewares/lvgl/examples/scroll/../../src/core/lv_disp.h ****  */
 101:Middlewares/lvgl/examples/scroll/../../src/core/lv_disp.h **** void lv_disp_set_bg_color(lv_disp_t * disp, lv_color_t color);
 102:Middlewares/lvgl/examples/scroll/../../src/core/lv_disp.h **** 
 103:Middlewares/lvgl/examples/scroll/../../src/core/lv_disp.h **** /**
 104:Middlewares/lvgl/examples/scroll/../../src/core/lv_disp.h ****  * Set the background image of a display
 105:Middlewares/lvgl/examples/scroll/../../src/core/lv_disp.h ****  * @param disp pointer to a display
 106:Middlewares/lvgl/examples/scroll/../../src/core/lv_disp.h ****  * @param img_src path to file or pointer to an `lv_img_dsc_t` variable
 107:Middlewares/lvgl/examples/scroll/../../src/core/lv_disp.h ****  */
 108:Middlewares/lvgl/examples/scroll/../../src/core/lv_disp.h **** void lv_disp_set_bg_image(lv_disp_t * disp, const void  * img_src);
 109:Middlewares/lvgl/examples/scroll/../../src/core/lv_disp.h **** 
ARM GAS  /tmp/ccuzFof5.s 			page 6


 110:Middlewares/lvgl/examples/scroll/../../src/core/lv_disp.h **** /**
 111:Middlewares/lvgl/examples/scroll/../../src/core/lv_disp.h ****  * Opacity of the background
 112:Middlewares/lvgl/examples/scroll/../../src/core/lv_disp.h ****  * @param disp pointer to a display
 113:Middlewares/lvgl/examples/scroll/../../src/core/lv_disp.h ****  * @param opa opacity (0..255)
 114:Middlewares/lvgl/examples/scroll/../../src/core/lv_disp.h ****  */
 115:Middlewares/lvgl/examples/scroll/../../src/core/lv_disp.h **** void lv_disp_set_bg_opa(lv_disp_t * disp, lv_opa_t opa);
 116:Middlewares/lvgl/examples/scroll/../../src/core/lv_disp.h **** 
 117:Middlewares/lvgl/examples/scroll/../../src/core/lv_disp.h **** /**
 118:Middlewares/lvgl/examples/scroll/../../src/core/lv_disp.h ****  * Switch screen with animation
 119:Middlewares/lvgl/examples/scroll/../../src/core/lv_disp.h ****  * @param scr pointer to the new screen to load
 120:Middlewares/lvgl/examples/scroll/../../src/core/lv_disp.h ****  * @param anim_type type of the animation from `lv_scr_load_anim_t`. E.g.  `LV_SCR_LOAD_ANIM_MOVE_L
 121:Middlewares/lvgl/examples/scroll/../../src/core/lv_disp.h ****  * @param time time of the animation
 122:Middlewares/lvgl/examples/scroll/../../src/core/lv_disp.h ****  * @param delay delay before the transition
 123:Middlewares/lvgl/examples/scroll/../../src/core/lv_disp.h ****  * @param auto_del true: automatically delete the old screen
 124:Middlewares/lvgl/examples/scroll/../../src/core/lv_disp.h ****  */
 125:Middlewares/lvgl/examples/scroll/../../src/core/lv_disp.h **** void lv_scr_load_anim(lv_obj_t * scr, lv_scr_load_anim_t anim_type, uint32_t time, uint32_t delay, 
 126:Middlewares/lvgl/examples/scroll/../../src/core/lv_disp.h **** 
 127:Middlewares/lvgl/examples/scroll/../../src/core/lv_disp.h **** /**
 128:Middlewares/lvgl/examples/scroll/../../src/core/lv_disp.h ****  * Get elapsed time since last user activity on a display (e.g. click)
 129:Middlewares/lvgl/examples/scroll/../../src/core/lv_disp.h ****  * @param disp pointer to an display (NULL to get the overall smallest inactivity)
 130:Middlewares/lvgl/examples/scroll/../../src/core/lv_disp.h ****  * @return elapsed ticks (milliseconds) since the last activity
 131:Middlewares/lvgl/examples/scroll/../../src/core/lv_disp.h ****  */
 132:Middlewares/lvgl/examples/scroll/../../src/core/lv_disp.h **** uint32_t lv_disp_get_inactive_time(const lv_disp_t * disp);
 133:Middlewares/lvgl/examples/scroll/../../src/core/lv_disp.h **** 
 134:Middlewares/lvgl/examples/scroll/../../src/core/lv_disp.h **** /**
 135:Middlewares/lvgl/examples/scroll/../../src/core/lv_disp.h ****  * Manually trigger an activity on a display
 136:Middlewares/lvgl/examples/scroll/../../src/core/lv_disp.h ****  * @param disp pointer to an display (NULL to use the default display)
 137:Middlewares/lvgl/examples/scroll/../../src/core/lv_disp.h ****  */
 138:Middlewares/lvgl/examples/scroll/../../src/core/lv_disp.h **** void lv_disp_trig_activity(lv_disp_t * disp);
 139:Middlewares/lvgl/examples/scroll/../../src/core/lv_disp.h **** 
 140:Middlewares/lvgl/examples/scroll/../../src/core/lv_disp.h **** /**
 141:Middlewares/lvgl/examples/scroll/../../src/core/lv_disp.h ****  * Clean any CPU cache that is related to the display.
 142:Middlewares/lvgl/examples/scroll/../../src/core/lv_disp.h ****  * @param disp pointer to an display (NULL to use the default display)
 143:Middlewares/lvgl/examples/scroll/../../src/core/lv_disp.h ****  */
 144:Middlewares/lvgl/examples/scroll/../../src/core/lv_disp.h **** void lv_disp_clean_dcache(lv_disp_t * disp);
 145:Middlewares/lvgl/examples/scroll/../../src/core/lv_disp.h **** 
 146:Middlewares/lvgl/examples/scroll/../../src/core/lv_disp.h **** /**
 147:Middlewares/lvgl/examples/scroll/../../src/core/lv_disp.h ****  * Get a pointer to the screen refresher timer to
 148:Middlewares/lvgl/examples/scroll/../../src/core/lv_disp.h ****  * modify its parameters with `lv_timer_...` functions.
 149:Middlewares/lvgl/examples/scroll/../../src/core/lv_disp.h ****  * @param disp pointer to a display
 150:Middlewares/lvgl/examples/scroll/../../src/core/lv_disp.h ****  * @return pointer to the display refresher timer. (NULL on error)
 151:Middlewares/lvgl/examples/scroll/../../src/core/lv_disp.h ****  */
 152:Middlewares/lvgl/examples/scroll/../../src/core/lv_disp.h **** lv_timer_t * _lv_disp_get_refr_timer(lv_disp_t * disp);
 153:Middlewares/lvgl/examples/scroll/../../src/core/lv_disp.h **** 
 154:Middlewares/lvgl/examples/scroll/../../src/core/lv_disp.h **** /*------------------------------------------------
 155:Middlewares/lvgl/examples/scroll/../../src/core/lv_disp.h ****  * To improve backward compatibility
 156:Middlewares/lvgl/examples/scroll/../../src/core/lv_disp.h ****  * Recommended only if you have one display
 157:Middlewares/lvgl/examples/scroll/../../src/core/lv_disp.h ****  *------------------------------------------------*/
 158:Middlewares/lvgl/examples/scroll/../../src/core/lv_disp.h **** 
 159:Middlewares/lvgl/examples/scroll/../../src/core/lv_disp.h **** /**
 160:Middlewares/lvgl/examples/scroll/../../src/core/lv_disp.h ****  * Get the active screen of the default display
 161:Middlewares/lvgl/examples/scroll/../../src/core/lv_disp.h ****  * @return pointer to the active screen
 162:Middlewares/lvgl/examples/scroll/../../src/core/lv_disp.h ****  */
 163:Middlewares/lvgl/examples/scroll/../../src/core/lv_disp.h **** static inline lv_obj_t * lv_scr_act(void)
 141              		.loc 2 163 26 view .LVU23
 142              	.LBB18:
 164:Middlewares/lvgl/examples/scroll/../../src/core/lv_disp.h **** {
ARM GAS  /tmp/ccuzFof5.s 			page 7


 165:Middlewares/lvgl/examples/scroll/../../src/core/lv_disp.h ****     return lv_disp_get_scr_act(lv_disp_get_default());
 143              		.loc 2 165 5 view .LVU24
 144              		.loc 2 165 12 is_stmt 0 view .LVU25
 145 0004 FFF7FEFF 		bl	lv_disp_get_default
 146              	.LVL13:
 147 0008 FFF7FEFF 		bl	lv_disp_get_scr_act
 148              	.LVL14:
 149              	.LBE18:
 150              	.LBE17:
 151              		.loc 1 22 24 view .LVU26
 152 000c FFF7FEFF 		bl	lv_obj_create
 153              	.LVL15:
 154 0010 0746     		mov	r7, r0
 155              	.LVL16:
  23:Middlewares/lvgl/examples/scroll/lv_example_scroll_2.c ****     lv_obj_set_size(panel, 280, 120);
 156              		.loc 1 23 5 is_stmt 1 view .LVU27
 157 0012 7822     		movs	r2, #120
 158 0014 4FF48C71 		mov	r1, #280
 159 0018 FFF7FEFF 		bl	lv_obj_set_size
 160              	.LVL17:
  24:Middlewares/lvgl/examples/scroll/lv_example_scroll_2.c ****     lv_obj_set_scroll_snap_x(panel, LV_SCROLL_SNAP_CENTER);
 161              		.loc 1 24 5 view .LVU28
 162 001c 0321     		movs	r1, #3
 163 001e 3846     		mov	r0, r7
 164 0020 FFF7FEFF 		bl	lv_obj_set_scroll_snap_x
 165              	.LVL18:
  25:Middlewares/lvgl/examples/scroll/lv_example_scroll_2.c ****     lv_obj_set_flex_flow(panel, LV_FLEX_FLOW_ROW);
 166              		.loc 1 25 5 view .LVU29
 167 0024 0021     		movs	r1, #0
 168 0026 3846     		mov	r0, r7
 169 0028 FFF7FEFF 		bl	lv_obj_set_flex_flow
 170              	.LVL19:
  26:Middlewares/lvgl/examples/scroll/lv_example_scroll_2.c ****     lv_obj_align(panel, LV_ALIGN_CENTER, 0, 20);
 171              		.loc 1 26 5 view .LVU30
 172 002c 1423     		movs	r3, #20
 173 002e 0022     		movs	r2, #0
 174 0030 0921     		movs	r1, #9
 175 0032 3846     		mov	r0, r7
 176 0034 FFF7FEFF 		bl	lv_obj_align
 177              	.LVL20:
  27:Middlewares/lvgl/examples/scroll/lv_example_scroll_2.c **** 
  28:Middlewares/lvgl/examples/scroll/lv_example_scroll_2.c ****     uint32_t i;
 178              		.loc 1 28 5 view .LVU31
  29:Middlewares/lvgl/examples/scroll/lv_example_scroll_2.c ****     for(i = 0; i < 10; i++) {
 179              		.loc 1 29 5 view .LVU32
 180              		.loc 1 29 11 is_stmt 0 view .LVU33
 181 0038 0024     		movs	r4, #0
 182              		.loc 1 29 5 view .LVU34
 183 003a 0FE0     		b	.L7
 184              	.LVL21:
 185              	.L13:
 186              	.LBB19:
  30:Middlewares/lvgl/examples/scroll/lv_example_scroll_2.c ****         lv_obj_t * btn = lv_btn_create(panel);
  31:Middlewares/lvgl/examples/scroll/lv_example_scroll_2.c ****         lv_obj_set_size(btn, 150, lv_pct(100));
  32:Middlewares/lvgl/examples/scroll/lv_example_scroll_2.c **** 
  33:Middlewares/lvgl/examples/scroll/lv_example_scroll_2.c ****         lv_obj_t * label = lv_label_create(btn);
  34:Middlewares/lvgl/examples/scroll/lv_example_scroll_2.c ****         if(i == 3) {
ARM GAS  /tmp/ccuzFof5.s 			page 8


  35:Middlewares/lvgl/examples/scroll/lv_example_scroll_2.c ****             lv_label_set_text_fmt(label, "Panel %d\nno snap", i);
 187              		.loc 1 35 13 is_stmt 1 view .LVU35
 188 003c 2246     		mov	r2, r4
 189 003e 2849     		ldr	r1, .L14
 190 0040 FFF7FEFF 		bl	lv_label_set_text_fmt
 191              	.LVL22:
  36:Middlewares/lvgl/examples/scroll/lv_example_scroll_2.c ****             lv_obj_clear_flag(btn, LV_OBJ_FLAG_SNAPPABLE);
 192              		.loc 1 36 13 view .LVU36
 193 0044 4FF48061 		mov	r1, #1024
 194 0048 3046     		mov	r0, r6
 195 004a FFF7FEFF 		bl	lv_obj_clear_flag
 196              	.LVL23:
 197              	.L9:
  37:Middlewares/lvgl/examples/scroll/lv_example_scroll_2.c ****         } else {
  38:Middlewares/lvgl/examples/scroll/lv_example_scroll_2.c ****             lv_label_set_text_fmt(label, "Panel %d", i);
  39:Middlewares/lvgl/examples/scroll/lv_example_scroll_2.c ****         }
  40:Middlewares/lvgl/examples/scroll/lv_example_scroll_2.c **** 
  41:Middlewares/lvgl/examples/scroll/lv_example_scroll_2.c ****         lv_obj_center(label);
 198              		.loc 1 41 9 discriminator 2 view .LVU37
 199              	.LBB20:
 200              	.LBI20:
 201              		.file 3 "Middlewares/lvgl/examples/scroll/../../src/core/lv_obj_pos.h"
   1:Middlewares/lvgl/examples/scroll/../../src/core/lv_obj_pos.h **** /**
   2:Middlewares/lvgl/examples/scroll/../../src/core/lv_obj_pos.h ****  * @file lv_obj_pos.h
   3:Middlewares/lvgl/examples/scroll/../../src/core/lv_obj_pos.h ****  *
   4:Middlewares/lvgl/examples/scroll/../../src/core/lv_obj_pos.h ****  */
   5:Middlewares/lvgl/examples/scroll/../../src/core/lv_obj_pos.h **** 
   6:Middlewares/lvgl/examples/scroll/../../src/core/lv_obj_pos.h **** #ifndef LV_OBJ_POS_H
   7:Middlewares/lvgl/examples/scroll/../../src/core/lv_obj_pos.h **** #define LV_OBJ_POS_H
   8:Middlewares/lvgl/examples/scroll/../../src/core/lv_obj_pos.h **** 
   9:Middlewares/lvgl/examples/scroll/../../src/core/lv_obj_pos.h **** #ifdef __cplusplus
  10:Middlewares/lvgl/examples/scroll/../../src/core/lv_obj_pos.h **** extern "C" {
  11:Middlewares/lvgl/examples/scroll/../../src/core/lv_obj_pos.h **** #endif
  12:Middlewares/lvgl/examples/scroll/../../src/core/lv_obj_pos.h **** 
  13:Middlewares/lvgl/examples/scroll/../../src/core/lv_obj_pos.h **** /*********************
  14:Middlewares/lvgl/examples/scroll/../../src/core/lv_obj_pos.h ****  *      INCLUDES
  15:Middlewares/lvgl/examples/scroll/../../src/core/lv_obj_pos.h ****  *********************/
  16:Middlewares/lvgl/examples/scroll/../../src/core/lv_obj_pos.h **** #include "../misc/lv_area.h"
  17:Middlewares/lvgl/examples/scroll/../../src/core/lv_obj_pos.h **** 
  18:Middlewares/lvgl/examples/scroll/../../src/core/lv_obj_pos.h **** /*********************
  19:Middlewares/lvgl/examples/scroll/../../src/core/lv_obj_pos.h ****  *      DEFINES
  20:Middlewares/lvgl/examples/scroll/../../src/core/lv_obj_pos.h ****  *********************/
  21:Middlewares/lvgl/examples/scroll/../../src/core/lv_obj_pos.h **** 
  22:Middlewares/lvgl/examples/scroll/../../src/core/lv_obj_pos.h **** /**********************
  23:Middlewares/lvgl/examples/scroll/../../src/core/lv_obj_pos.h ****  *      TYPEDEFS
  24:Middlewares/lvgl/examples/scroll/../../src/core/lv_obj_pos.h ****  **********************/
  25:Middlewares/lvgl/examples/scroll/../../src/core/lv_obj_pos.h **** struct _lv_obj_t;
  26:Middlewares/lvgl/examples/scroll/../../src/core/lv_obj_pos.h **** 
  27:Middlewares/lvgl/examples/scroll/../../src/core/lv_obj_pos.h **** typedef void (*lv_layout_update_cb_t)(struct _lv_obj_t *, void * user_data);
  28:Middlewares/lvgl/examples/scroll/../../src/core/lv_obj_pos.h **** typedef struct {
  29:Middlewares/lvgl/examples/scroll/../../src/core/lv_obj_pos.h ****     lv_layout_update_cb_t cb;
  30:Middlewares/lvgl/examples/scroll/../../src/core/lv_obj_pos.h ****     void * user_data;
  31:Middlewares/lvgl/examples/scroll/../../src/core/lv_obj_pos.h **** }lv_layout_dsc_t;
  32:Middlewares/lvgl/examples/scroll/../../src/core/lv_obj_pos.h **** 
  33:Middlewares/lvgl/examples/scroll/../../src/core/lv_obj_pos.h **** /**********************
  34:Middlewares/lvgl/examples/scroll/../../src/core/lv_obj_pos.h ****  * GLOBAL PROTOTYPES
  35:Middlewares/lvgl/examples/scroll/../../src/core/lv_obj_pos.h ****  **********************/
ARM GAS  /tmp/ccuzFof5.s 			page 9


  36:Middlewares/lvgl/examples/scroll/../../src/core/lv_obj_pos.h **** 
  37:Middlewares/lvgl/examples/scroll/../../src/core/lv_obj_pos.h **** /**
  38:Middlewares/lvgl/examples/scroll/../../src/core/lv_obj_pos.h ****  * Set the relative the position of an object (relative to the parent's top left corner)
  39:Middlewares/lvgl/examples/scroll/../../src/core/lv_obj_pos.h ****  * @param obj       pointer to an object
  40:Middlewares/lvgl/examples/scroll/../../src/core/lv_obj_pos.h ****  * @param x         new distance from the left side of the parent plus the parent's left padding
  41:Middlewares/lvgl/examples/scroll/../../src/core/lv_obj_pos.h ****  * @param y         new distance from the top side of the parent  plus the parent's right padding
  42:Middlewares/lvgl/examples/scroll/../../src/core/lv_obj_pos.h ****  */
  43:Middlewares/lvgl/examples/scroll/../../src/core/lv_obj_pos.h **** void lv_obj_set_pos(struct _lv_obj_t * obj, lv_coord_t x, lv_coord_t y);
  44:Middlewares/lvgl/examples/scroll/../../src/core/lv_obj_pos.h **** 
  45:Middlewares/lvgl/examples/scroll/../../src/core/lv_obj_pos.h **** /**
  46:Middlewares/lvgl/examples/scroll/../../src/core/lv_obj_pos.h ****  * Set the x coordinate of a object
  47:Middlewares/lvgl/examples/scroll/../../src/core/lv_obj_pos.h ****  * @param obj       pointer to an object
  48:Middlewares/lvgl/examples/scroll/../../src/core/lv_obj_pos.h ****  * @param x         new distance from the left side from the parent plus the parent's left padding
  49:Middlewares/lvgl/examples/scroll/../../src/core/lv_obj_pos.h ****  */
  50:Middlewares/lvgl/examples/scroll/../../src/core/lv_obj_pos.h **** void lv_obj_set_x(struct _lv_obj_t * obj, lv_coord_t x);
  51:Middlewares/lvgl/examples/scroll/../../src/core/lv_obj_pos.h **** 
  52:Middlewares/lvgl/examples/scroll/../../src/core/lv_obj_pos.h **** /**
  53:Middlewares/lvgl/examples/scroll/../../src/core/lv_obj_pos.h ****  * Set the y coordinate of a object
  54:Middlewares/lvgl/examples/scroll/../../src/core/lv_obj_pos.h ****  * @param obj       pointer to an object
  55:Middlewares/lvgl/examples/scroll/../../src/core/lv_obj_pos.h ****  * @param y         new distance from the top of the parent  plus the parent's top padding
  56:Middlewares/lvgl/examples/scroll/../../src/core/lv_obj_pos.h ****  */
  57:Middlewares/lvgl/examples/scroll/../../src/core/lv_obj_pos.h **** void lv_obj_set_y(struct _lv_obj_t * obj, lv_coord_t y);
  58:Middlewares/lvgl/examples/scroll/../../src/core/lv_obj_pos.h **** 
  59:Middlewares/lvgl/examples/scroll/../../src/core/lv_obj_pos.h **** /**
  60:Middlewares/lvgl/examples/scroll/../../src/core/lv_obj_pos.h ****  * Set the size of an object.
  61:Middlewares/lvgl/examples/scroll/../../src/core/lv_obj_pos.h ****  * @param obj       pointer to an object
  62:Middlewares/lvgl/examples/scroll/../../src/core/lv_obj_pos.h ****  * @param w         the new width
  63:Middlewares/lvgl/examples/scroll/../../src/core/lv_obj_pos.h ****  * @param h         the new height
  64:Middlewares/lvgl/examples/scroll/../../src/core/lv_obj_pos.h ****  * @note            possible values are:
  65:Middlewares/lvgl/examples/scroll/../../src/core/lv_obj_pos.h ****  *                  pixel               simple set the size accordingly
  66:Middlewares/lvgl/examples/scroll/../../src/core/lv_obj_pos.h ****  *                  LV_SIZE_CONTENT     set the size to involve all children in the given direction
  67:Middlewares/lvgl/examples/scroll/../../src/core/lv_obj_pos.h ****  *                  LV_SIZE_PCT(x)     to set size in percentage of the parent's content area size 
  68:Middlewares/lvgl/examples/scroll/../../src/core/lv_obj_pos.h ****  *                                      x should be in [0..1000]% range
  69:Middlewares/lvgl/examples/scroll/../../src/core/lv_obj_pos.h ****  */
  70:Middlewares/lvgl/examples/scroll/../../src/core/lv_obj_pos.h **** void lv_obj_set_size(struct _lv_obj_t * obj, lv_coord_t w, lv_coord_t h);
  71:Middlewares/lvgl/examples/scroll/../../src/core/lv_obj_pos.h **** 
  72:Middlewares/lvgl/examples/scroll/../../src/core/lv_obj_pos.h **** /**
  73:Middlewares/lvgl/examples/scroll/../../src/core/lv_obj_pos.h ****  * Recalculate the size of the object
  74:Middlewares/lvgl/examples/scroll/../../src/core/lv_obj_pos.h ****  * @param obj       pointer to an object
  75:Middlewares/lvgl/examples/scroll/../../src/core/lv_obj_pos.h ****  * @return          true: the size has been changed
  76:Middlewares/lvgl/examples/scroll/../../src/core/lv_obj_pos.h ****  */
  77:Middlewares/lvgl/examples/scroll/../../src/core/lv_obj_pos.h **** bool lv_obj_refr_size(struct _lv_obj_t * obj);
  78:Middlewares/lvgl/examples/scroll/../../src/core/lv_obj_pos.h **** 
  79:Middlewares/lvgl/examples/scroll/../../src/core/lv_obj_pos.h **** /**
  80:Middlewares/lvgl/examples/scroll/../../src/core/lv_obj_pos.h ****  * Set the width of an object
  81:Middlewares/lvgl/examples/scroll/../../src/core/lv_obj_pos.h ****  * @param obj       pointer to an object
  82:Middlewares/lvgl/examples/scroll/../../src/core/lv_obj_pos.h ****  * @param w         the new width
  83:Middlewares/lvgl/examples/scroll/../../src/core/lv_obj_pos.h ****  * @note            possible values are:
  84:Middlewares/lvgl/examples/scroll/../../src/core/lv_obj_pos.h ****  *                  pixel               simple set the size accordingly
  85:Middlewares/lvgl/examples/scroll/../../src/core/lv_obj_pos.h ****  *                  LV_SIZE_CONTENT     set the size to involve all children in the given direction
  86:Middlewares/lvgl/examples/scroll/../../src/core/lv_obj_pos.h ****  *                  lv_pct(x)           to set size in percentage of the parent's content area size
  87:Middlewares/lvgl/examples/scroll/../../src/core/lv_obj_pos.h ****  *                                      x should be in [0..1000]% range
  88:Middlewares/lvgl/examples/scroll/../../src/core/lv_obj_pos.h ****  */
  89:Middlewares/lvgl/examples/scroll/../../src/core/lv_obj_pos.h **** void lv_obj_set_width(struct _lv_obj_t * obj, lv_coord_t w);
  90:Middlewares/lvgl/examples/scroll/../../src/core/lv_obj_pos.h **** 
  91:Middlewares/lvgl/examples/scroll/../../src/core/lv_obj_pos.h **** /**
  92:Middlewares/lvgl/examples/scroll/../../src/core/lv_obj_pos.h ****  * Set the height of an object
ARM GAS  /tmp/ccuzFof5.s 			page 10


  93:Middlewares/lvgl/examples/scroll/../../src/core/lv_obj_pos.h ****  * @param obj       pointer to an object
  94:Middlewares/lvgl/examples/scroll/../../src/core/lv_obj_pos.h ****  * @param h         the new height
  95:Middlewares/lvgl/examples/scroll/../../src/core/lv_obj_pos.h ****  * @note            possible values are:
  96:Middlewares/lvgl/examples/scroll/../../src/core/lv_obj_pos.h ****  *                  pixel               simple set the size accordingly
  97:Middlewares/lvgl/examples/scroll/../../src/core/lv_obj_pos.h ****  *                  LV_SIZE_CONTENT     set the size to involve all children in the given direction
  98:Middlewares/lvgl/examples/scroll/../../src/core/lv_obj_pos.h ****  *                  lv_pct(x)           to set size in percentage of the parent's content area size
  99:Middlewares/lvgl/examples/scroll/../../src/core/lv_obj_pos.h ****  *                                      x should be in [0..1000]% range
 100:Middlewares/lvgl/examples/scroll/../../src/core/lv_obj_pos.h ****  */
 101:Middlewares/lvgl/examples/scroll/../../src/core/lv_obj_pos.h **** void lv_obj_set_height(struct _lv_obj_t * obj, lv_coord_t h);
 102:Middlewares/lvgl/examples/scroll/../../src/core/lv_obj_pos.h **** 
 103:Middlewares/lvgl/examples/scroll/../../src/core/lv_obj_pos.h **** /**
 104:Middlewares/lvgl/examples/scroll/../../src/core/lv_obj_pos.h ****  * Set the width reduced by the left and right padding and the border width.
 105:Middlewares/lvgl/examples/scroll/../../src/core/lv_obj_pos.h ****  * @param obj       pointer to an object
 106:Middlewares/lvgl/examples/scroll/../../src/core/lv_obj_pos.h ****  * @param w         the width without paddings in pixels
 107:Middlewares/lvgl/examples/scroll/../../src/core/lv_obj_pos.h ****  */
 108:Middlewares/lvgl/examples/scroll/../../src/core/lv_obj_pos.h **** void lv_obj_set_content_width(struct _lv_obj_t * obj, lv_coord_t w);
 109:Middlewares/lvgl/examples/scroll/../../src/core/lv_obj_pos.h **** 
 110:Middlewares/lvgl/examples/scroll/../../src/core/lv_obj_pos.h **** /**
 111:Middlewares/lvgl/examples/scroll/../../src/core/lv_obj_pos.h ****  * Set the height reduced by the top and bottom padding and the border width.
 112:Middlewares/lvgl/examples/scroll/../../src/core/lv_obj_pos.h ****  * @param obj       pointer to an object
 113:Middlewares/lvgl/examples/scroll/../../src/core/lv_obj_pos.h ****  * @param h         the height without paddings in pixels
 114:Middlewares/lvgl/examples/scroll/../../src/core/lv_obj_pos.h ****  */
 115:Middlewares/lvgl/examples/scroll/../../src/core/lv_obj_pos.h **** void lv_obj_set_content_height(struct _lv_obj_t * obj, lv_coord_t h);
 116:Middlewares/lvgl/examples/scroll/../../src/core/lv_obj_pos.h **** 
 117:Middlewares/lvgl/examples/scroll/../../src/core/lv_obj_pos.h **** /**
 118:Middlewares/lvgl/examples/scroll/../../src/core/lv_obj_pos.h ****  * Set a layout for an object
 119:Middlewares/lvgl/examples/scroll/../../src/core/lv_obj_pos.h ****  * @param obj       pointer to an object
 120:Middlewares/lvgl/examples/scroll/../../src/core/lv_obj_pos.h ****  * @param layout    pointer to a layout descriptor to set
 121:Middlewares/lvgl/examples/scroll/../../src/core/lv_obj_pos.h ****  */
 122:Middlewares/lvgl/examples/scroll/../../src/core/lv_obj_pos.h **** void lv_obj_set_layout(struct _lv_obj_t * obj, uint32_t layout);
 123:Middlewares/lvgl/examples/scroll/../../src/core/lv_obj_pos.h **** 
 124:Middlewares/lvgl/examples/scroll/../../src/core/lv_obj_pos.h **** /**
 125:Middlewares/lvgl/examples/scroll/../../src/core/lv_obj_pos.h ****  * Test whether the and object is positioned by a layout or not
 126:Middlewares/lvgl/examples/scroll/../../src/core/lv_obj_pos.h ****  * @param obj       pointer to an object to test
 127:Middlewares/lvgl/examples/scroll/../../src/core/lv_obj_pos.h ****  * @return true:    positioned by a layout; false: not positioned by a layout
 128:Middlewares/lvgl/examples/scroll/../../src/core/lv_obj_pos.h ****  */
 129:Middlewares/lvgl/examples/scroll/../../src/core/lv_obj_pos.h **** bool lv_obj_is_layout_positioned(const struct _lv_obj_t * obj);
 130:Middlewares/lvgl/examples/scroll/../../src/core/lv_obj_pos.h **** 
 131:Middlewares/lvgl/examples/scroll/../../src/core/lv_obj_pos.h **** /**
 132:Middlewares/lvgl/examples/scroll/../../src/core/lv_obj_pos.h ****  * Mark the object for layout update.
 133:Middlewares/lvgl/examples/scroll/../../src/core/lv_obj_pos.h ****  * @param obj      pointer to an object whose children needs to be updated
 134:Middlewares/lvgl/examples/scroll/../../src/core/lv_obj_pos.h ****  */
 135:Middlewares/lvgl/examples/scroll/../../src/core/lv_obj_pos.h **** void lv_obj_mark_layout_as_dirty(struct _lv_obj_t * obj);
 136:Middlewares/lvgl/examples/scroll/../../src/core/lv_obj_pos.h **** 
 137:Middlewares/lvgl/examples/scroll/../../src/core/lv_obj_pos.h **** /**
 138:Middlewares/lvgl/examples/scroll/../../src/core/lv_obj_pos.h ****  * Update the layout of an object.
 139:Middlewares/lvgl/examples/scroll/../../src/core/lv_obj_pos.h ****  * @param obj      pointer to an object whose children needs to be updated
 140:Middlewares/lvgl/examples/scroll/../../src/core/lv_obj_pos.h ****  */
 141:Middlewares/lvgl/examples/scroll/../../src/core/lv_obj_pos.h **** void lv_obj_update_layout(const struct _lv_obj_t * obj);
 142:Middlewares/lvgl/examples/scroll/../../src/core/lv_obj_pos.h **** 
 143:Middlewares/lvgl/examples/scroll/../../src/core/lv_obj_pos.h **** /**
 144:Middlewares/lvgl/examples/scroll/../../src/core/lv_obj_pos.h ****  * Regsiter a new layout
 145:Middlewares/lvgl/examples/scroll/../../src/core/lv_obj_pos.h ****  * @param cb        the layout update callback
 146:Middlewares/lvgl/examples/scroll/../../src/core/lv_obj_pos.h ****  * @param user_data custom data that will be passed to `cb`
 147:Middlewares/lvgl/examples/scroll/../../src/core/lv_obj_pos.h ****  * @return          the ID of the new layout
 148:Middlewares/lvgl/examples/scroll/../../src/core/lv_obj_pos.h ****  */
 149:Middlewares/lvgl/examples/scroll/../../src/core/lv_obj_pos.h **** uint32_t lv_layout_register(lv_layout_update_cb_t cb, void * user_data);
ARM GAS  /tmp/ccuzFof5.s 			page 11


 150:Middlewares/lvgl/examples/scroll/../../src/core/lv_obj_pos.h **** 
 151:Middlewares/lvgl/examples/scroll/../../src/core/lv_obj_pos.h **** /**
 152:Middlewares/lvgl/examples/scroll/../../src/core/lv_obj_pos.h ****  * Change the alignment of an object.
 153:Middlewares/lvgl/examples/scroll/../../src/core/lv_obj_pos.h ****  * @param obj       pointer to an object to align
 154:Middlewares/lvgl/examples/scroll/../../src/core/lv_obj_pos.h ****  * @param align     type of alignment (see 'lv_align_t' enum) `LV_ALIGN_OUT_...` can't be used.
 155:Middlewares/lvgl/examples/scroll/../../src/core/lv_obj_pos.h ****  */
 156:Middlewares/lvgl/examples/scroll/../../src/core/lv_obj_pos.h **** void lv_obj_set_align(struct _lv_obj_t * obj, lv_align_t align);
 157:Middlewares/lvgl/examples/scroll/../../src/core/lv_obj_pos.h **** 
 158:Middlewares/lvgl/examples/scroll/../../src/core/lv_obj_pos.h **** /**
 159:Middlewares/lvgl/examples/scroll/../../src/core/lv_obj_pos.h ****  * Change the alignment of an object and set new coordinates.
 160:Middlewares/lvgl/examples/scroll/../../src/core/lv_obj_pos.h ****  * Equivalent to:
 161:Middlewares/lvgl/examples/scroll/../../src/core/lv_obj_pos.h ****  * lv_obj_set_align(obj, align);
 162:Middlewares/lvgl/examples/scroll/../../src/core/lv_obj_pos.h ****  * lv_obj_set_pos(obj, x_ofs, y_ofs);
 163:Middlewares/lvgl/examples/scroll/../../src/core/lv_obj_pos.h ****  * @param obj       pointer to an object to align
 164:Middlewares/lvgl/examples/scroll/../../src/core/lv_obj_pos.h ****  * @param align     type of alignment (see 'lv_align_t' enum) `LV_ALIGN_OUT_...` can't be used.
 165:Middlewares/lvgl/examples/scroll/../../src/core/lv_obj_pos.h ****  * @param x_ofs     x coordinate offset after alignment
 166:Middlewares/lvgl/examples/scroll/../../src/core/lv_obj_pos.h ****  * @param y_ofs     y coordinate offset after alignment
 167:Middlewares/lvgl/examples/scroll/../../src/core/lv_obj_pos.h ****  */
 168:Middlewares/lvgl/examples/scroll/../../src/core/lv_obj_pos.h **** void lv_obj_align(struct _lv_obj_t * obj, lv_align_t align, lv_coord_t x_ofs, lv_coord_t y_ofs);
 169:Middlewares/lvgl/examples/scroll/../../src/core/lv_obj_pos.h **** 
 170:Middlewares/lvgl/examples/scroll/../../src/core/lv_obj_pos.h **** /**
 171:Middlewares/lvgl/examples/scroll/../../src/core/lv_obj_pos.h ****  * Align an object to an other object.
 172:Middlewares/lvgl/examples/scroll/../../src/core/lv_obj_pos.h ****  * @param obj       pointer to an object to align
 173:Middlewares/lvgl/examples/scroll/../../src/core/lv_obj_pos.h ****  * @param base      pointer to an other object (if NULL `obj`s parent is used). 'obj' will be align
 174:Middlewares/lvgl/examples/scroll/../../src/core/lv_obj_pos.h ****  * @param align     type of alignment (see 'lv_align_t' enum)
 175:Middlewares/lvgl/examples/scroll/../../src/core/lv_obj_pos.h ****  * @param x_ofs     x coordinate offset after alignment
 176:Middlewares/lvgl/examples/scroll/../../src/core/lv_obj_pos.h ****  * @param y_ofs     y coordinate offset after alignment
 177:Middlewares/lvgl/examples/scroll/../../src/core/lv_obj_pos.h ****  * @note            if the position or size of `base` changes `obj` needs to be aligned manually ag
 178:Middlewares/lvgl/examples/scroll/../../src/core/lv_obj_pos.h ****  */
 179:Middlewares/lvgl/examples/scroll/../../src/core/lv_obj_pos.h **** void lv_obj_align_to(struct _lv_obj_t * obj, const struct _lv_obj_t * base, lv_align_t align, lv_co
 180:Middlewares/lvgl/examples/scroll/../../src/core/lv_obj_pos.h **** 
 181:Middlewares/lvgl/examples/scroll/../../src/core/lv_obj_pos.h **** /**
 182:Middlewares/lvgl/examples/scroll/../../src/core/lv_obj_pos.h ****  * Align an object to the center on its parent.
 183:Middlewares/lvgl/examples/scroll/../../src/core/lv_obj_pos.h ****  * @param obj       pointer to an object to align
 184:Middlewares/lvgl/examples/scroll/../../src/core/lv_obj_pos.h ****  * @note            if the parent size changes `obj` needs to be aligned manually again
 185:Middlewares/lvgl/examples/scroll/../../src/core/lv_obj_pos.h ****  */
 186:Middlewares/lvgl/examples/scroll/../../src/core/lv_obj_pos.h **** static inline void lv_obj_center(struct _lv_obj_t * obj)
 202              		.loc 3 186 20 discriminator 2 view .LVU38
 203              	.LBB21:
 187:Middlewares/lvgl/examples/scroll/../../src/core/lv_obj_pos.h **** {
 188:Middlewares/lvgl/examples/scroll/../../src/core/lv_obj_pos.h ****     lv_obj_align(obj, LV_ALIGN_CENTER, 0, 0);
 204              		.loc 3 188 5 discriminator 2 view .LVU39
 205 004e 0023     		movs	r3, #0
 206 0050 1A46     		mov	r2, r3
 207 0052 0921     		movs	r1, #9
 208 0054 2846     		mov	r0, r5
 209 0056 FFF7FEFF 		bl	lv_obj_align
 210              	.LVL24:
 211              		.loc 3 188 5 is_stmt 0 discriminator 2 view .LVU40
 212              	.LBE21:
 213              	.LBE20:
 214              	.LBE19:
  29:Middlewares/lvgl/examples/scroll/lv_example_scroll_2.c ****         lv_obj_t * btn = lv_btn_create(panel);
 215              		.loc 1 29 24 is_stmt 1 discriminator 2 view .LVU41
  29:Middlewares/lvgl/examples/scroll/lv_example_scroll_2.c ****         lv_obj_t * btn = lv_btn_create(panel);
 216              		.loc 1 29 25 is_stmt 0 discriminator 2 view .LVU42
 217 005a 0134     		adds	r4, r4, #1
ARM GAS  /tmp/ccuzFof5.s 			page 12


 218              	.LVL25:
 219              	.L7:
  29:Middlewares/lvgl/examples/scroll/lv_example_scroll_2.c ****         lv_obj_t * btn = lv_btn_create(panel);
 220              		.loc 1 29 16 is_stmt 1 discriminator 1 view .LVU43
  29:Middlewares/lvgl/examples/scroll/lv_example_scroll_2.c ****         lv_obj_t * btn = lv_btn_create(panel);
 221              		.loc 1 29 5 is_stmt 0 discriminator 1 view .LVU44
 222 005c 092C     		cmp	r4, #9
 223 005e 13D8     		bhi	.L12
 224              	.LBB22:
  30:Middlewares/lvgl/examples/scroll/lv_example_scroll_2.c ****         lv_obj_set_size(btn, 150, lv_pct(100));
 225              		.loc 1 30 9 is_stmt 1 view .LVU45
  30:Middlewares/lvgl/examples/scroll/lv_example_scroll_2.c ****         lv_obj_set_size(btn, 150, lv_pct(100));
 226              		.loc 1 30 26 is_stmt 0 view .LVU46
 227 0060 3846     		mov	r0, r7
 228 0062 FFF7FEFF 		bl	lv_btn_create
 229              	.LVL26:
 230 0066 0646     		mov	r6, r0
 231              	.LVL27:
  31:Middlewares/lvgl/examples/scroll/lv_example_scroll_2.c **** 
 232              		.loc 1 31 9 is_stmt 1 view .LVU47
  31:Middlewares/lvgl/examples/scroll/lv_example_scroll_2.c **** 
 233              		.loc 1 31 9 is_stmt 0 view .LVU48
 234              	.LBE22:
 235              		.file 4 "Middlewares/lvgl/examples/scroll/../../src/hal/../misc/lv_area.h"
   1:Middlewares/lvgl/examples/scroll/../../src/hal/../misc/lv_area.h **** /**
   2:Middlewares/lvgl/examples/scroll/../../src/hal/../misc/lv_area.h ****  * @file lv_area.h
   3:Middlewares/lvgl/examples/scroll/../../src/hal/../misc/lv_area.h ****  *
   4:Middlewares/lvgl/examples/scroll/../../src/hal/../misc/lv_area.h ****  */
   5:Middlewares/lvgl/examples/scroll/../../src/hal/../misc/lv_area.h **** 
   6:Middlewares/lvgl/examples/scroll/../../src/hal/../misc/lv_area.h **** #ifndef LV_AREA_H
   7:Middlewares/lvgl/examples/scroll/../../src/hal/../misc/lv_area.h **** #define LV_AREA_H
   8:Middlewares/lvgl/examples/scroll/../../src/hal/../misc/lv_area.h **** 
   9:Middlewares/lvgl/examples/scroll/../../src/hal/../misc/lv_area.h **** #ifdef __cplusplus
  10:Middlewares/lvgl/examples/scroll/../../src/hal/../misc/lv_area.h **** extern "C" {
  11:Middlewares/lvgl/examples/scroll/../../src/hal/../misc/lv_area.h **** #endif
  12:Middlewares/lvgl/examples/scroll/../../src/hal/../misc/lv_area.h **** 
  13:Middlewares/lvgl/examples/scroll/../../src/hal/../misc/lv_area.h **** /*********************
  14:Middlewares/lvgl/examples/scroll/../../src/hal/../misc/lv_area.h ****  *      INCLUDES
  15:Middlewares/lvgl/examples/scroll/../../src/hal/../misc/lv_area.h ****  *********************/
  16:Middlewares/lvgl/examples/scroll/../../src/hal/../misc/lv_area.h **** #include "../lv_conf_internal.h"
  17:Middlewares/lvgl/examples/scroll/../../src/hal/../misc/lv_area.h **** #include <string.h>
  18:Middlewares/lvgl/examples/scroll/../../src/hal/../misc/lv_area.h **** #include <stdbool.h>
  19:Middlewares/lvgl/examples/scroll/../../src/hal/../misc/lv_area.h **** #include <stdint.h>
  20:Middlewares/lvgl/examples/scroll/../../src/hal/../misc/lv_area.h **** 
  21:Middlewares/lvgl/examples/scroll/../../src/hal/../misc/lv_area.h **** /*********************
  22:Middlewares/lvgl/examples/scroll/../../src/hal/../misc/lv_area.h ****  *      DEFINES
  23:Middlewares/lvgl/examples/scroll/../../src/hal/../misc/lv_area.h ****  *********************/
  24:Middlewares/lvgl/examples/scroll/../../src/hal/../misc/lv_area.h **** 
  25:Middlewares/lvgl/examples/scroll/../../src/hal/../misc/lv_area.h **** #define _LV_COORD_MAX_REDUCE    8192
  26:Middlewares/lvgl/examples/scroll/../../src/hal/../misc/lv_area.h **** 
  27:Middlewares/lvgl/examples/scroll/../../src/hal/../misc/lv_area.h **** #if LV_USE_LARGE_COORD
  28:Middlewares/lvgl/examples/scroll/../../src/hal/../misc/lv_area.h **** typedef int32_t lv_coord_t;
  29:Middlewares/lvgl/examples/scroll/../../src/hal/../misc/lv_area.h **** #else
  30:Middlewares/lvgl/examples/scroll/../../src/hal/../misc/lv_area.h **** typedef int16_t lv_coord_t;
  31:Middlewares/lvgl/examples/scroll/../../src/hal/../misc/lv_area.h **** #endif
  32:Middlewares/lvgl/examples/scroll/../../src/hal/../misc/lv_area.h **** 
  33:Middlewares/lvgl/examples/scroll/../../src/hal/../misc/lv_area.h **** /*To allow some special values in the end reduce the max value*/
ARM GAS  /tmp/ccuzFof5.s 			page 13


  34:Middlewares/lvgl/examples/scroll/../../src/hal/../misc/lv_area.h **** #define LV_COORD_MAX ((lv_coord_t)((uint32_t)((uint32_t)1 << (8 * sizeof(lv_coord_t) - 1)) - _LV_CO
  35:Middlewares/lvgl/examples/scroll/../../src/hal/../misc/lv_area.h **** #define LV_COORD_MIN (-LV_COORD_MAX)
  36:Middlewares/lvgl/examples/scroll/../../src/hal/../misc/lv_area.h **** 
  37:Middlewares/lvgl/examples/scroll/../../src/hal/../misc/lv_area.h **** LV_EXPORT_CONST_INT(LV_COORD_MAX);
  38:Middlewares/lvgl/examples/scroll/../../src/hal/../misc/lv_area.h **** LV_EXPORT_CONST_INT(LV_COORD_MIN);
  39:Middlewares/lvgl/examples/scroll/../../src/hal/../misc/lv_area.h **** 
  40:Middlewares/lvgl/examples/scroll/../../src/hal/../misc/lv_area.h **** /**********************
  41:Middlewares/lvgl/examples/scroll/../../src/hal/../misc/lv_area.h ****  *      TYPEDEFS
  42:Middlewares/lvgl/examples/scroll/../../src/hal/../misc/lv_area.h ****  **********************/
  43:Middlewares/lvgl/examples/scroll/../../src/hal/../misc/lv_area.h **** 
  44:Middlewares/lvgl/examples/scroll/../../src/hal/../misc/lv_area.h **** /**
  45:Middlewares/lvgl/examples/scroll/../../src/hal/../misc/lv_area.h ****  * Represents a point on the screen.
  46:Middlewares/lvgl/examples/scroll/../../src/hal/../misc/lv_area.h ****  */
  47:Middlewares/lvgl/examples/scroll/../../src/hal/../misc/lv_area.h **** typedef struct {
  48:Middlewares/lvgl/examples/scroll/../../src/hal/../misc/lv_area.h ****     lv_coord_t x;
  49:Middlewares/lvgl/examples/scroll/../../src/hal/../misc/lv_area.h ****     lv_coord_t y;
  50:Middlewares/lvgl/examples/scroll/../../src/hal/../misc/lv_area.h **** } lv_point_t;
  51:Middlewares/lvgl/examples/scroll/../../src/hal/../misc/lv_area.h **** 
  52:Middlewares/lvgl/examples/scroll/../../src/hal/../misc/lv_area.h **** /** Represents an area of the screen.*/
  53:Middlewares/lvgl/examples/scroll/../../src/hal/../misc/lv_area.h **** typedef struct {
  54:Middlewares/lvgl/examples/scroll/../../src/hal/../misc/lv_area.h ****     lv_coord_t x1;
  55:Middlewares/lvgl/examples/scroll/../../src/hal/../misc/lv_area.h ****     lv_coord_t y1;
  56:Middlewares/lvgl/examples/scroll/../../src/hal/../misc/lv_area.h ****     lv_coord_t x2;
  57:Middlewares/lvgl/examples/scroll/../../src/hal/../misc/lv_area.h ****     lv_coord_t y2;
  58:Middlewares/lvgl/examples/scroll/../../src/hal/../misc/lv_area.h **** } lv_area_t;
  59:Middlewares/lvgl/examples/scroll/../../src/hal/../misc/lv_area.h **** 
  60:Middlewares/lvgl/examples/scroll/../../src/hal/../misc/lv_area.h **** /** Alignments*/
  61:Middlewares/lvgl/examples/scroll/../../src/hal/../misc/lv_area.h **** enum {
  62:Middlewares/lvgl/examples/scroll/../../src/hal/../misc/lv_area.h ****     LV_ALIGN_DEFAULT = 0,
  63:Middlewares/lvgl/examples/scroll/../../src/hal/../misc/lv_area.h ****     LV_ALIGN_TOP_LEFT,
  64:Middlewares/lvgl/examples/scroll/../../src/hal/../misc/lv_area.h ****     LV_ALIGN_TOP_MID,
  65:Middlewares/lvgl/examples/scroll/../../src/hal/../misc/lv_area.h ****     LV_ALIGN_TOP_RIGHT,
  66:Middlewares/lvgl/examples/scroll/../../src/hal/../misc/lv_area.h ****     LV_ALIGN_BOTTOM_LEFT,
  67:Middlewares/lvgl/examples/scroll/../../src/hal/../misc/lv_area.h ****     LV_ALIGN_BOTTOM_MID,
  68:Middlewares/lvgl/examples/scroll/../../src/hal/../misc/lv_area.h ****     LV_ALIGN_BOTTOM_RIGHT,
  69:Middlewares/lvgl/examples/scroll/../../src/hal/../misc/lv_area.h ****     LV_ALIGN_LEFT_MID,
  70:Middlewares/lvgl/examples/scroll/../../src/hal/../misc/lv_area.h ****     LV_ALIGN_RIGHT_MID,
  71:Middlewares/lvgl/examples/scroll/../../src/hal/../misc/lv_area.h ****     LV_ALIGN_CENTER,
  72:Middlewares/lvgl/examples/scroll/../../src/hal/../misc/lv_area.h **** 
  73:Middlewares/lvgl/examples/scroll/../../src/hal/../misc/lv_area.h ****     LV_ALIGN_OUT_TOP_LEFT,
  74:Middlewares/lvgl/examples/scroll/../../src/hal/../misc/lv_area.h ****     LV_ALIGN_OUT_TOP_MID,
  75:Middlewares/lvgl/examples/scroll/../../src/hal/../misc/lv_area.h ****     LV_ALIGN_OUT_TOP_RIGHT,
  76:Middlewares/lvgl/examples/scroll/../../src/hal/../misc/lv_area.h ****     LV_ALIGN_OUT_BOTTOM_LEFT,
  77:Middlewares/lvgl/examples/scroll/../../src/hal/../misc/lv_area.h ****     LV_ALIGN_OUT_BOTTOM_MID,
  78:Middlewares/lvgl/examples/scroll/../../src/hal/../misc/lv_area.h ****     LV_ALIGN_OUT_BOTTOM_RIGHT,
  79:Middlewares/lvgl/examples/scroll/../../src/hal/../misc/lv_area.h ****     LV_ALIGN_OUT_LEFT_TOP,
  80:Middlewares/lvgl/examples/scroll/../../src/hal/../misc/lv_area.h ****     LV_ALIGN_OUT_LEFT_MID,
  81:Middlewares/lvgl/examples/scroll/../../src/hal/../misc/lv_area.h ****     LV_ALIGN_OUT_LEFT_BOTTOM,
  82:Middlewares/lvgl/examples/scroll/../../src/hal/../misc/lv_area.h ****     LV_ALIGN_OUT_RIGHT_TOP,
  83:Middlewares/lvgl/examples/scroll/../../src/hal/../misc/lv_area.h ****     LV_ALIGN_OUT_RIGHT_MID,
  84:Middlewares/lvgl/examples/scroll/../../src/hal/../misc/lv_area.h ****     LV_ALIGN_OUT_RIGHT_BOTTOM,
  85:Middlewares/lvgl/examples/scroll/../../src/hal/../misc/lv_area.h **** };
  86:Middlewares/lvgl/examples/scroll/../../src/hal/../misc/lv_area.h **** typedef uint8_t lv_align_t;
  87:Middlewares/lvgl/examples/scroll/../../src/hal/../misc/lv_area.h **** 
  88:Middlewares/lvgl/examples/scroll/../../src/hal/../misc/lv_area.h **** enum {
  89:Middlewares/lvgl/examples/scroll/../../src/hal/../misc/lv_area.h ****     LV_DIR_NONE     = 0x00,
  90:Middlewares/lvgl/examples/scroll/../../src/hal/../misc/lv_area.h ****     LV_DIR_LEFT     = (1 << 0),
ARM GAS  /tmp/ccuzFof5.s 			page 14


  91:Middlewares/lvgl/examples/scroll/../../src/hal/../misc/lv_area.h ****     LV_DIR_RIGHT    = (1 << 1),
  92:Middlewares/lvgl/examples/scroll/../../src/hal/../misc/lv_area.h ****     LV_DIR_TOP      = (1 << 2),
  93:Middlewares/lvgl/examples/scroll/../../src/hal/../misc/lv_area.h ****     LV_DIR_BOTTOM   = (1 << 3),
  94:Middlewares/lvgl/examples/scroll/../../src/hal/../misc/lv_area.h ****     LV_DIR_HOR      = LV_DIR_LEFT | LV_DIR_RIGHT,
  95:Middlewares/lvgl/examples/scroll/../../src/hal/../misc/lv_area.h ****     LV_DIR_VER      = LV_DIR_TOP | LV_DIR_BOTTOM,
  96:Middlewares/lvgl/examples/scroll/../../src/hal/../misc/lv_area.h ****     LV_DIR_ALL      = LV_DIR_HOR | LV_DIR_VER,
  97:Middlewares/lvgl/examples/scroll/../../src/hal/../misc/lv_area.h **** };
  98:Middlewares/lvgl/examples/scroll/../../src/hal/../misc/lv_area.h **** 
  99:Middlewares/lvgl/examples/scroll/../../src/hal/../misc/lv_area.h **** typedef uint8_t lv_dir_t;
 100:Middlewares/lvgl/examples/scroll/../../src/hal/../misc/lv_area.h **** 
 101:Middlewares/lvgl/examples/scroll/../../src/hal/../misc/lv_area.h **** /**********************
 102:Middlewares/lvgl/examples/scroll/../../src/hal/../misc/lv_area.h ****  * GLOBAL PROTOTYPES
 103:Middlewares/lvgl/examples/scroll/../../src/hal/../misc/lv_area.h ****  **********************/
 104:Middlewares/lvgl/examples/scroll/../../src/hal/../misc/lv_area.h **** 
 105:Middlewares/lvgl/examples/scroll/../../src/hal/../misc/lv_area.h **** /**
 106:Middlewares/lvgl/examples/scroll/../../src/hal/../misc/lv_area.h ****  * Initialize an area
 107:Middlewares/lvgl/examples/scroll/../../src/hal/../misc/lv_area.h ****  * @param area_p pointer to an area
 108:Middlewares/lvgl/examples/scroll/../../src/hal/../misc/lv_area.h ****  * @param x1 left coordinate of the area
 109:Middlewares/lvgl/examples/scroll/../../src/hal/../misc/lv_area.h ****  * @param y1 top coordinate of the area
 110:Middlewares/lvgl/examples/scroll/../../src/hal/../misc/lv_area.h ****  * @param x2 right coordinate of the area
 111:Middlewares/lvgl/examples/scroll/../../src/hal/../misc/lv_area.h ****  * @param y2 bottom coordinate of the area
 112:Middlewares/lvgl/examples/scroll/../../src/hal/../misc/lv_area.h ****  */
 113:Middlewares/lvgl/examples/scroll/../../src/hal/../misc/lv_area.h **** void lv_area_set(lv_area_t * area_p, lv_coord_t x1, lv_coord_t y1, lv_coord_t x2, lv_coord_t y2);
 114:Middlewares/lvgl/examples/scroll/../../src/hal/../misc/lv_area.h **** 
 115:Middlewares/lvgl/examples/scroll/../../src/hal/../misc/lv_area.h **** /**
 116:Middlewares/lvgl/examples/scroll/../../src/hal/../misc/lv_area.h ****  * Copy an area
 117:Middlewares/lvgl/examples/scroll/../../src/hal/../misc/lv_area.h ****  * @param dest pointer to the destination area
 118:Middlewares/lvgl/examples/scroll/../../src/hal/../misc/lv_area.h ****  * @param src pointer to the source area
 119:Middlewares/lvgl/examples/scroll/../../src/hal/../misc/lv_area.h ****  */
 120:Middlewares/lvgl/examples/scroll/../../src/hal/../misc/lv_area.h **** inline static void lv_area_copy(lv_area_t * dest, const lv_area_t * src)
 121:Middlewares/lvgl/examples/scroll/../../src/hal/../misc/lv_area.h **** {
 122:Middlewares/lvgl/examples/scroll/../../src/hal/../misc/lv_area.h ****     dest->x1 = src->x1;
 123:Middlewares/lvgl/examples/scroll/../../src/hal/../misc/lv_area.h ****     dest->y1 = src->y1;
 124:Middlewares/lvgl/examples/scroll/../../src/hal/../misc/lv_area.h ****     dest->x2 = src->x2;
 125:Middlewares/lvgl/examples/scroll/../../src/hal/../misc/lv_area.h ****     dest->y2 = src->y2;
 126:Middlewares/lvgl/examples/scroll/../../src/hal/../misc/lv_area.h **** }
 127:Middlewares/lvgl/examples/scroll/../../src/hal/../misc/lv_area.h **** 
 128:Middlewares/lvgl/examples/scroll/../../src/hal/../misc/lv_area.h **** /**
 129:Middlewares/lvgl/examples/scroll/../../src/hal/../misc/lv_area.h ****  * Get the width of an area
 130:Middlewares/lvgl/examples/scroll/../../src/hal/../misc/lv_area.h ****  * @param area_p pointer to an area
 131:Middlewares/lvgl/examples/scroll/../../src/hal/../misc/lv_area.h ****  * @return the width of the area (if x1 == x2 -> width = 1)
 132:Middlewares/lvgl/examples/scroll/../../src/hal/../misc/lv_area.h ****  */
 133:Middlewares/lvgl/examples/scroll/../../src/hal/../misc/lv_area.h **** static inline lv_coord_t lv_area_get_width(const lv_area_t * area_p)
 134:Middlewares/lvgl/examples/scroll/../../src/hal/../misc/lv_area.h **** {
 135:Middlewares/lvgl/examples/scroll/../../src/hal/../misc/lv_area.h ****     return (lv_coord_t)(area_p->x2 - area_p->x1 + 1);
 136:Middlewares/lvgl/examples/scroll/../../src/hal/../misc/lv_area.h **** }
 137:Middlewares/lvgl/examples/scroll/../../src/hal/../misc/lv_area.h **** 
 138:Middlewares/lvgl/examples/scroll/../../src/hal/../misc/lv_area.h **** /**
 139:Middlewares/lvgl/examples/scroll/../../src/hal/../misc/lv_area.h ****  * Get the height of an area
 140:Middlewares/lvgl/examples/scroll/../../src/hal/../misc/lv_area.h ****  * @param area_p pointer to an area
 141:Middlewares/lvgl/examples/scroll/../../src/hal/../misc/lv_area.h ****  * @return the height of the area (if y1 == y2 -> height = 1)
 142:Middlewares/lvgl/examples/scroll/../../src/hal/../misc/lv_area.h ****  */
 143:Middlewares/lvgl/examples/scroll/../../src/hal/../misc/lv_area.h **** static inline lv_coord_t lv_area_get_height(const lv_area_t * area_p)
 144:Middlewares/lvgl/examples/scroll/../../src/hal/../misc/lv_area.h **** {
 145:Middlewares/lvgl/examples/scroll/../../src/hal/../misc/lv_area.h ****     return (lv_coord_t)(area_p->y2 - area_p->y1 + 1);
 146:Middlewares/lvgl/examples/scroll/../../src/hal/../misc/lv_area.h **** }
 147:Middlewares/lvgl/examples/scroll/../../src/hal/../misc/lv_area.h **** 
ARM GAS  /tmp/ccuzFof5.s 			page 15


 148:Middlewares/lvgl/examples/scroll/../../src/hal/../misc/lv_area.h **** /**
 149:Middlewares/lvgl/examples/scroll/../../src/hal/../misc/lv_area.h ****  * Set the width of an area
 150:Middlewares/lvgl/examples/scroll/../../src/hal/../misc/lv_area.h ****  * @param area_p pointer to an area
 151:Middlewares/lvgl/examples/scroll/../../src/hal/../misc/lv_area.h ****  * @param w the new width of the area (w == 1 makes x1 == x2)
 152:Middlewares/lvgl/examples/scroll/../../src/hal/../misc/lv_area.h ****  */
 153:Middlewares/lvgl/examples/scroll/../../src/hal/../misc/lv_area.h **** void lv_area_set_width(lv_area_t * area_p, lv_coord_t w);
 154:Middlewares/lvgl/examples/scroll/../../src/hal/../misc/lv_area.h **** 
 155:Middlewares/lvgl/examples/scroll/../../src/hal/../misc/lv_area.h **** /**
 156:Middlewares/lvgl/examples/scroll/../../src/hal/../misc/lv_area.h ****  * Set the height of an area
 157:Middlewares/lvgl/examples/scroll/../../src/hal/../misc/lv_area.h ****  * @param area_p pointer to an area
 158:Middlewares/lvgl/examples/scroll/../../src/hal/../misc/lv_area.h ****  * @param h the new height of the area (h == 1 makes y1 == y2)
 159:Middlewares/lvgl/examples/scroll/../../src/hal/../misc/lv_area.h ****  */
 160:Middlewares/lvgl/examples/scroll/../../src/hal/../misc/lv_area.h **** void lv_area_set_height(lv_area_t * area_p, lv_coord_t h);
 161:Middlewares/lvgl/examples/scroll/../../src/hal/../misc/lv_area.h **** 
 162:Middlewares/lvgl/examples/scroll/../../src/hal/../misc/lv_area.h **** /**
 163:Middlewares/lvgl/examples/scroll/../../src/hal/../misc/lv_area.h ****  * Set the position of an area (width and height will be kept)
 164:Middlewares/lvgl/examples/scroll/../../src/hal/../misc/lv_area.h ****  * @param area_p pointer to an area
 165:Middlewares/lvgl/examples/scroll/../../src/hal/../misc/lv_area.h ****  * @param x the new x coordinate of the area
 166:Middlewares/lvgl/examples/scroll/../../src/hal/../misc/lv_area.h ****  * @param y the new y coordinate of the area
 167:Middlewares/lvgl/examples/scroll/../../src/hal/../misc/lv_area.h ****  */
 168:Middlewares/lvgl/examples/scroll/../../src/hal/../misc/lv_area.h **** void _lv_area_set_pos(lv_area_t * area_p, lv_coord_t x, lv_coord_t y);
 169:Middlewares/lvgl/examples/scroll/../../src/hal/../misc/lv_area.h **** 
 170:Middlewares/lvgl/examples/scroll/../../src/hal/../misc/lv_area.h **** /**
 171:Middlewares/lvgl/examples/scroll/../../src/hal/../misc/lv_area.h ****  * Return with area of an area (x * y)
 172:Middlewares/lvgl/examples/scroll/../../src/hal/../misc/lv_area.h ****  * @param area_p pointer to an area
 173:Middlewares/lvgl/examples/scroll/../../src/hal/../misc/lv_area.h ****  * @return size of area
 174:Middlewares/lvgl/examples/scroll/../../src/hal/../misc/lv_area.h ****  */
 175:Middlewares/lvgl/examples/scroll/../../src/hal/../misc/lv_area.h **** uint32_t lv_area_get_size(const lv_area_t * area_p);
 176:Middlewares/lvgl/examples/scroll/../../src/hal/../misc/lv_area.h **** 
 177:Middlewares/lvgl/examples/scroll/../../src/hal/../misc/lv_area.h **** void lv_area_increase(lv_area_t * area, lv_coord_t w_extra, lv_coord_t h_extra);
 178:Middlewares/lvgl/examples/scroll/../../src/hal/../misc/lv_area.h **** 
 179:Middlewares/lvgl/examples/scroll/../../src/hal/../misc/lv_area.h **** void lv_area_move(lv_area_t * area, lv_coord_t x_ofs, lv_coord_t y_ofs);
 180:Middlewares/lvgl/examples/scroll/../../src/hal/../misc/lv_area.h **** 
 181:Middlewares/lvgl/examples/scroll/../../src/hal/../misc/lv_area.h **** /**
 182:Middlewares/lvgl/examples/scroll/../../src/hal/../misc/lv_area.h ****  * Get the common parts of two areas
 183:Middlewares/lvgl/examples/scroll/../../src/hal/../misc/lv_area.h ****  * @param res_p pointer to an area, the result will be stored her
 184:Middlewares/lvgl/examples/scroll/../../src/hal/../misc/lv_area.h ****  * @param a1_p pointer to the first area
 185:Middlewares/lvgl/examples/scroll/../../src/hal/../misc/lv_area.h ****  * @param a2_p pointer to the second area
 186:Middlewares/lvgl/examples/scroll/../../src/hal/../misc/lv_area.h ****  * @return false: the two area has NO common parts, res_p is invalid
 187:Middlewares/lvgl/examples/scroll/../../src/hal/../misc/lv_area.h ****  */
 188:Middlewares/lvgl/examples/scroll/../../src/hal/../misc/lv_area.h **** bool _lv_area_intersect(lv_area_t * res_p, const lv_area_t * a1_p, const lv_area_t * a2_p);
 189:Middlewares/lvgl/examples/scroll/../../src/hal/../misc/lv_area.h **** 
 190:Middlewares/lvgl/examples/scroll/../../src/hal/../misc/lv_area.h **** /**
 191:Middlewares/lvgl/examples/scroll/../../src/hal/../misc/lv_area.h ****  * Join two areas into a third which involves the other two
 192:Middlewares/lvgl/examples/scroll/../../src/hal/../misc/lv_area.h ****  * @param res_p pointer to an area, the result will be stored here
 193:Middlewares/lvgl/examples/scroll/../../src/hal/../misc/lv_area.h ****  * @param a1_p pointer to the first area
 194:Middlewares/lvgl/examples/scroll/../../src/hal/../misc/lv_area.h ****  * @param a2_p pointer to the second area
 195:Middlewares/lvgl/examples/scroll/../../src/hal/../misc/lv_area.h ****  */
 196:Middlewares/lvgl/examples/scroll/../../src/hal/../misc/lv_area.h **** void _lv_area_join(lv_area_t * a_res_p, const lv_area_t * a1_p, const lv_area_t * a2_p);
 197:Middlewares/lvgl/examples/scroll/../../src/hal/../misc/lv_area.h **** 
 198:Middlewares/lvgl/examples/scroll/../../src/hal/../misc/lv_area.h **** /**
 199:Middlewares/lvgl/examples/scroll/../../src/hal/../misc/lv_area.h ****  * Check if a point is on an area
 200:Middlewares/lvgl/examples/scroll/../../src/hal/../misc/lv_area.h ****  * @param a_p pointer to an area
 201:Middlewares/lvgl/examples/scroll/../../src/hal/../misc/lv_area.h ****  * @param p_p pointer to a point
 202:Middlewares/lvgl/examples/scroll/../../src/hal/../misc/lv_area.h ****  * @param radius radius of area (e.g. for rounded rectangle)
 203:Middlewares/lvgl/examples/scroll/../../src/hal/../misc/lv_area.h ****  * @return false:the point is out of the area
 204:Middlewares/lvgl/examples/scroll/../../src/hal/../misc/lv_area.h ****  */
ARM GAS  /tmp/ccuzFof5.s 			page 16


 205:Middlewares/lvgl/examples/scroll/../../src/hal/../misc/lv_area.h **** bool _lv_area_is_point_on(const lv_area_t * a_p, const lv_point_t * p_p, lv_coord_t radius);
 206:Middlewares/lvgl/examples/scroll/../../src/hal/../misc/lv_area.h **** 
 207:Middlewares/lvgl/examples/scroll/../../src/hal/../misc/lv_area.h **** /**
 208:Middlewares/lvgl/examples/scroll/../../src/hal/../misc/lv_area.h ****  * Check if two area has common parts
 209:Middlewares/lvgl/examples/scroll/../../src/hal/../misc/lv_area.h ****  * @param a1_p pointer to an area.
 210:Middlewares/lvgl/examples/scroll/../../src/hal/../misc/lv_area.h ****  * @param a2_p pointer to an other area
 211:Middlewares/lvgl/examples/scroll/../../src/hal/../misc/lv_area.h ****  * @return false: a1_p and a2_p has no common parts
 212:Middlewares/lvgl/examples/scroll/../../src/hal/../misc/lv_area.h ****  */
 213:Middlewares/lvgl/examples/scroll/../../src/hal/../misc/lv_area.h **** bool _lv_area_is_on(const lv_area_t * a1_p, const lv_area_t * a2_p);
 214:Middlewares/lvgl/examples/scroll/../../src/hal/../misc/lv_area.h **** 
 215:Middlewares/lvgl/examples/scroll/../../src/hal/../misc/lv_area.h **** /**
 216:Middlewares/lvgl/examples/scroll/../../src/hal/../misc/lv_area.h ****  * Check if an area is fully on an other
 217:Middlewares/lvgl/examples/scroll/../../src/hal/../misc/lv_area.h ****  * @param ain_p pointer to an area which could be in 'aholder_p'
 218:Middlewares/lvgl/examples/scroll/../../src/hal/../misc/lv_area.h ****  * @param aholder_p pointer to an area which could involve 'ain_p'
 219:Middlewares/lvgl/examples/scroll/../../src/hal/../misc/lv_area.h ****  * @param radius radius of `aholder_p` (e.g. for rounded rectangle)
 220:Middlewares/lvgl/examples/scroll/../../src/hal/../misc/lv_area.h ****  * @return true: `ain_p` is fully inside `aholder_p`
 221:Middlewares/lvgl/examples/scroll/../../src/hal/../misc/lv_area.h ****  */
 222:Middlewares/lvgl/examples/scroll/../../src/hal/../misc/lv_area.h **** bool _lv_area_is_in(const lv_area_t * ain_p, const lv_area_t * aholder_p, lv_coord_t radius);
 223:Middlewares/lvgl/examples/scroll/../../src/hal/../misc/lv_area.h **** 
 224:Middlewares/lvgl/examples/scroll/../../src/hal/../misc/lv_area.h **** /**
 225:Middlewares/lvgl/examples/scroll/../../src/hal/../misc/lv_area.h ****  * Align an area to an other
 226:Middlewares/lvgl/examples/scroll/../../src/hal/../misc/lv_area.h ****  * @param base an are where the other will be aligned
 227:Middlewares/lvgl/examples/scroll/../../src/hal/../misc/lv_area.h ****  * @param to_align the area to align
 228:Middlewares/lvgl/examples/scroll/../../src/hal/../misc/lv_area.h ****  * @param align `LV_ALIGN_...`
 229:Middlewares/lvgl/examples/scroll/../../src/hal/../misc/lv_area.h ****  */
 230:Middlewares/lvgl/examples/scroll/../../src/hal/../misc/lv_area.h **** void lv_area_align(const lv_area_t * base, lv_area_t * to_align, lv_align_t align, lv_coord_t ofs_x
 231:Middlewares/lvgl/examples/scroll/../../src/hal/../misc/lv_area.h **** 
 232:Middlewares/lvgl/examples/scroll/../../src/hal/../misc/lv_area.h **** /**********************
 233:Middlewares/lvgl/examples/scroll/../../src/hal/../misc/lv_area.h ****  *      MACROS
 234:Middlewares/lvgl/examples/scroll/../../src/hal/../misc/lv_area.h ****  **********************/
 235:Middlewares/lvgl/examples/scroll/../../src/hal/../misc/lv_area.h **** 
 236:Middlewares/lvgl/examples/scroll/../../src/hal/../misc/lv_area.h **** #if LV_USE_LARGE_COORD
 237:Middlewares/lvgl/examples/scroll/../../src/hal/../misc/lv_area.h **** #define _LV_COORD_TYPE_SHIFT    (29)
 238:Middlewares/lvgl/examples/scroll/../../src/hal/../misc/lv_area.h **** #else
 239:Middlewares/lvgl/examples/scroll/../../src/hal/../misc/lv_area.h **** #define _LV_COORD_TYPE_SHIFT    (13)
 240:Middlewares/lvgl/examples/scroll/../../src/hal/../misc/lv_area.h **** #endif
 241:Middlewares/lvgl/examples/scroll/../../src/hal/../misc/lv_area.h **** 
 242:Middlewares/lvgl/examples/scroll/../../src/hal/../misc/lv_area.h **** #define _LV_COORD_TYPE_MASK     (3 << _LV_COORD_TYPE_SHIFT)
 243:Middlewares/lvgl/examples/scroll/../../src/hal/../misc/lv_area.h **** #define _LV_COORD_PLAIN(x)      ((x) & (~_LV_COORD_TYPE_MASK))  /*Remove type specifiers*/
 244:Middlewares/lvgl/examples/scroll/../../src/hal/../misc/lv_area.h **** 
 245:Middlewares/lvgl/examples/scroll/../../src/hal/../misc/lv_area.h **** #define _LV_COORD_TYPE_PX       (0 << _LV_COORD_TYPE_SHIFT)
 246:Middlewares/lvgl/examples/scroll/../../src/hal/../misc/lv_area.h **** #define _LV_COORD_TYPE_SPEC     (1 << _LV_COORD_TYPE_SHIFT)
 247:Middlewares/lvgl/examples/scroll/../../src/hal/../misc/lv_area.h **** #define _LV_COORD_TYPE_RESERVED (3 << _LV_COORD_TYPE_SHIFT)
 248:Middlewares/lvgl/examples/scroll/../../src/hal/../misc/lv_area.h **** 
 249:Middlewares/lvgl/examples/scroll/../../src/hal/../misc/lv_area.h **** #define LV_COORD_IS_PX(x)     ((((x) & _LV_COORD_TYPE_MASK) == _LV_COORD_TYPE_PX) ? true : false)
 250:Middlewares/lvgl/examples/scroll/../../src/hal/../misc/lv_area.h **** #define LV_COORD_IS_SPEC(x)   ((((x) & _LV_COORD_TYPE_MASK) == _LV_COORD_TYPE_SPEC) ? true : false)
 251:Middlewares/lvgl/examples/scroll/../../src/hal/../misc/lv_area.h **** 
 252:Middlewares/lvgl/examples/scroll/../../src/hal/../misc/lv_area.h **** #define LV_COORD_SET_SPEC(x)   ((x) | _LV_COORD_TYPE_SPEC)
 253:Middlewares/lvgl/examples/scroll/../../src/hal/../misc/lv_area.h **** 
 254:Middlewares/lvgl/examples/scroll/../../src/hal/../misc/lv_area.h **** /*Special coordinates*/
 255:Middlewares/lvgl/examples/scroll/../../src/hal/../misc/lv_area.h **** #define LV_PCT(x)               (x < 0 ? LV_COORD_SET_SPEC(1000 - (x)) : LV_COORD_SET_SPEC(x))
 256:Middlewares/lvgl/examples/scroll/../../src/hal/../misc/lv_area.h **** #define LV_COORD_IS_PCT(x)      ((LV_COORD_IS_SPEC(x) && _LV_COORD_PLAIN(x) <= 2000) ? true : false
 257:Middlewares/lvgl/examples/scroll/../../src/hal/../misc/lv_area.h **** #define LV_COORD_GET_PCT(x)     (_LV_COORD_PLAIN(x) > 1000 ? 1000 - _LV_COORD_PLAIN(x) : _LV_COORD_
 258:Middlewares/lvgl/examples/scroll/../../src/hal/../misc/lv_area.h **** #define LV_SIZE_CONTENT         LV_COORD_SET_SPEC(2001)
 259:Middlewares/lvgl/examples/scroll/../../src/hal/../misc/lv_area.h **** 
 260:Middlewares/lvgl/examples/scroll/../../src/hal/../misc/lv_area.h **** LV_EXPORT_CONST_INT(LV_SIZE_CONTENT);
 261:Middlewares/lvgl/examples/scroll/../../src/hal/../misc/lv_area.h **** 
ARM GAS  /tmp/ccuzFof5.s 			page 17


 262:Middlewares/lvgl/examples/scroll/../../src/hal/../misc/lv_area.h **** /**
 263:Middlewares/lvgl/examples/scroll/../../src/hal/../misc/lv_area.h ****  * Convert a percentage value to `lv_coord_t`.
 264:Middlewares/lvgl/examples/scroll/../../src/hal/../misc/lv_area.h ****  * Percentage values are stored in special range
 265:Middlewares/lvgl/examples/scroll/../../src/hal/../misc/lv_area.h ****  * @param x the percentage (0..1000)
 266:Middlewares/lvgl/examples/scroll/../../src/hal/../misc/lv_area.h ****  * @return a coordinate that stores the percentage
 267:Middlewares/lvgl/examples/scroll/../../src/hal/../misc/lv_area.h ****  */
 268:Middlewares/lvgl/examples/scroll/../../src/hal/../misc/lv_area.h **** static inline lv_coord_t lv_pct(lv_coord_t x)
 269:Middlewares/lvgl/examples/scroll/../../src/hal/../misc/lv_area.h **** {
 270:Middlewares/lvgl/examples/scroll/../../src/hal/../misc/lv_area.h ****     return LV_PCT(x);
 236              		.loc 4 270 5 is_stmt 1 view .LVU49
 237              	.LBB23:
  31:Middlewares/lvgl/examples/scroll/lv_example_scroll_2.c **** 
 238              		.loc 1 31 9 is_stmt 0 view .LVU50
 239 0068 42F26402 		movw	r2, #8292
 240 006c 9621     		movs	r1, #150
 241 006e FFF7FEFF 		bl	lv_obj_set_size
 242              	.LVL28:
  33:Middlewares/lvgl/examples/scroll/lv_example_scroll_2.c ****         if(i == 3) {
 243              		.loc 1 33 9 is_stmt 1 view .LVU51
  33:Middlewares/lvgl/examples/scroll/lv_example_scroll_2.c ****         if(i == 3) {
 244              		.loc 1 33 28 is_stmt 0 view .LVU52
 245 0072 3046     		mov	r0, r6
 246 0074 FFF7FEFF 		bl	lv_label_create
 247              	.LVL29:
 248 0078 0546     		mov	r5, r0
 249              	.LVL30:
  34:Middlewares/lvgl/examples/scroll/lv_example_scroll_2.c ****             lv_label_set_text_fmt(label, "Panel %d\nno snap", i);
 250              		.loc 1 34 9 is_stmt 1 view .LVU53
  34:Middlewares/lvgl/examples/scroll/lv_example_scroll_2.c ****             lv_label_set_text_fmt(label, "Panel %d\nno snap", i);
 251              		.loc 1 34 11 is_stmt 0 view .LVU54
 252 007a 032C     		cmp	r4, #3
 253 007c DED0     		beq	.L13
  38:Middlewares/lvgl/examples/scroll/lv_example_scroll_2.c ****         }
 254              		.loc 1 38 13 is_stmt 1 view .LVU55
 255 007e 2246     		mov	r2, r4
 256 0080 1849     		ldr	r1, .L14+4
 257 0082 FFF7FEFF 		bl	lv_label_set_text_fmt
 258              	.LVL31:
  38:Middlewares/lvgl/examples/scroll/lv_example_scroll_2.c ****         }
 259              		.loc 1 38 13 is_stmt 0 view .LVU56
 260 0086 E2E7     		b	.L9
 261              	.LVL32:
 262              	.L12:
  38:Middlewares/lvgl/examples/scroll/lv_example_scroll_2.c ****         }
 263              		.loc 1 38 13 view .LVU57
 264              	.LBE23:
  42:Middlewares/lvgl/examples/scroll/lv_example_scroll_2.c ****     }
  43:Middlewares/lvgl/examples/scroll/lv_example_scroll_2.c ****     lv_obj_update_snap(panel, LV_ANIM_ON);
 265              		.loc 1 43 5 is_stmt 1 view .LVU58
 266 0088 0121     		movs	r1, #1
 267 008a 3846     		mov	r0, r7
 268 008c FFF7FEFF 		bl	lv_obj_update_snap
 269              	.LVL33:
  44:Middlewares/lvgl/examples/scroll/lv_example_scroll_2.c **** 
  45:Middlewares/lvgl/examples/scroll/lv_example_scroll_2.c **** #if LV_USE_SWITCH
  46:Middlewares/lvgl/examples/scroll/lv_example_scroll_2.c ****     /*Switch between "One scroll" and "Normal scroll" mode*/
  47:Middlewares/lvgl/examples/scroll/lv_example_scroll_2.c ****     lv_obj_t * sw = lv_switch_create(lv_scr_act());
ARM GAS  /tmp/ccuzFof5.s 			page 18


 270              		.loc 1 47 5 view .LVU59
 271              	.LBB24:
 272              	.LBI24:
 163:Middlewares/lvgl/examples/scroll/../../src/core/lv_disp.h **** {
 273              		.loc 2 163 26 view .LVU60
 274              	.LBB25:
 275              		.loc 2 165 5 view .LVU61
 276              		.loc 2 165 12 is_stmt 0 view .LVU62
 277 0090 FFF7FEFF 		bl	lv_disp_get_default
 278              	.LVL34:
 279 0094 FFF7FEFF 		bl	lv_disp_get_scr_act
 280              	.LVL35:
 281              	.LBE25:
 282              	.LBE24:
 283              		.loc 1 47 21 view .LVU63
 284 0098 FFF7FEFF 		bl	lv_switch_create
 285              	.LVL36:
 286 009c 0446     		mov	r4, r0
 287              	.LVL37:
  48:Middlewares/lvgl/examples/scroll/lv_example_scroll_2.c ****     lv_obj_align(sw, LV_ALIGN_TOP_RIGHT, -20, 10);
 288              		.loc 1 48 5 is_stmt 1 view .LVU64
 289 009e 0A23     		movs	r3, #10
 290 00a0 6FF01302 		mvn	r2, #19
 291 00a4 0321     		movs	r1, #3
 292 00a6 FFF7FEFF 		bl	lv_obj_align
 293              	.LVL38:
  49:Middlewares/lvgl/examples/scroll/lv_example_scroll_2.c ****     lv_obj_add_event_cb(sw, sw_event_cb, LV_EVENT_ALL, panel);
 294              		.loc 1 49 5 view .LVU65
 295 00aa 3B46     		mov	r3, r7
 296 00ac 0022     		movs	r2, #0
 297 00ae 0E49     		ldr	r1, .L14+8
 298 00b0 2046     		mov	r0, r4
 299 00b2 FFF7FEFF 		bl	lv_obj_add_event_cb
 300              	.LVL39:
  50:Middlewares/lvgl/examples/scroll/lv_example_scroll_2.c ****     lv_obj_t * label = lv_label_create(lv_scr_act());
 301              		.loc 1 50 5 view .LVU66
 302              	.LBB26:
 303              	.LBI26:
 163:Middlewares/lvgl/examples/scroll/../../src/core/lv_disp.h **** {
 304              		.loc 2 163 26 view .LVU67
 305              	.LBB27:
 306              		.loc 2 165 5 view .LVU68
 307              		.loc 2 165 12 is_stmt 0 view .LVU69
 308 00b6 FFF7FEFF 		bl	lv_disp_get_default
 309              	.LVL40:
 310 00ba FFF7FEFF 		bl	lv_disp_get_scr_act
 311              	.LVL41:
 312              	.LBE27:
 313              	.LBE26:
 314              		.loc 1 50 24 view .LVU70
 315 00be FFF7FEFF 		bl	lv_label_create
 316              	.LVL42:
 317 00c2 0546     		mov	r5, r0
 318              	.LVL43:
  51:Middlewares/lvgl/examples/scroll/lv_example_scroll_2.c ****     lv_label_set_text(label, "One scroll");
 319              		.loc 1 51 5 is_stmt 1 view .LVU71
 320 00c4 0949     		ldr	r1, .L14+12
ARM GAS  /tmp/ccuzFof5.s 			page 19


 321 00c6 FFF7FEFF 		bl	lv_label_set_text
 322              	.LVL44:
  52:Middlewares/lvgl/examples/scroll/lv_example_scroll_2.c ****     lv_obj_align_to(label, sw, LV_ALIGN_OUT_BOTTOM_MID, 0, 5);
 323              		.loc 1 52 5 view .LVU72
 324 00ca 0523     		movs	r3, #5
 325 00cc 0093     		str	r3, [sp]
 326 00ce 0023     		movs	r3, #0
 327 00d0 0E22     		movs	r2, #14
 328 00d2 2146     		mov	r1, r4
 329 00d4 2846     		mov	r0, r5
 330 00d6 FFF7FEFF 		bl	lv_obj_align_to
 331              	.LVL45:
  53:Middlewares/lvgl/examples/scroll/lv_example_scroll_2.c **** #endif
  54:Middlewares/lvgl/examples/scroll/lv_example_scroll_2.c **** }
 332              		.loc 1 54 1 is_stmt 0 view .LVU73
 333 00da 03B0     		add	sp, sp, #12
 334              	.LCFI3:
 335              		.cfi_def_cfa_offset 20
 336              		@ sp needed
 337 00dc F0BD     		pop	{r4, r5, r6, r7, pc}
 338              	.LVL46:
 339              	.L15:
 340              		.loc 1 54 1 view .LVU74
 341 00de 00BF     		.align	2
 342              	.L14:
 343 00e0 00000000 		.word	.LC0
 344 00e4 14000000 		.word	.LC1
 345 00e8 00000000 		.word	sw_event_cb
 346 00ec 20000000 		.word	.LC2
 347              		.cfi_endproc
 348              	.LFE185:
 350              		.text
 351              	.Letext0:
 352              		.file 5 "/home/akinya/gcc-arm-none-eabi/arm-none-eabi/include/machine/_default_types.h"
 353              		.file 6 "/home/akinya/gcc-arm-none-eabi/arm-none-eabi/include/sys/_stdint.h"
 354              		.file 7 "Middlewares/lvgl/examples/scroll/../../src/misc/lv_ll.h"
 355              		.file 8 "Middlewares/lvgl/examples/scroll/../../src/hal/../misc/lv_color.h"
 356              		.file 9 "Middlewares/lvgl/examples/scroll/../../src/core/lv_obj.h"
 357              		.file 10 "Middlewares/lvgl/examples/scroll/../../src/core/lv_group.h"
 358              		.file 11 "Middlewares/lvgl/examples/scroll/../../src/core/../misc/lv_anim.h"
 359              		.file 12 "Middlewares/lvgl/examples/scroll/../../src/core/../misc/lv_style.h"
 360              		.file 13 "Middlewares/lvgl/examples/scroll/../../src/core/lv_obj_scroll.h"
 361              		.file 14 "Middlewares/lvgl/examples/scroll/../../src/core/lv_obj_style.h"
 362              		.file 15 "Middlewares/lvgl/examples/scroll/../../src/core/lv_obj_class.h"
 363              		.file 16 "Middlewares/lvgl/examples/scroll/../../src/core/lv_event.h"
 364              		.file 17 "Middlewares/lvgl/examples/scroll/../../src/extra/widgets/list/../../layouts/flex/lv_flex
 365              		.file 18 "Middlewares/lvgl/examples/scroll/../../src/widgets/lv_label.h"
 366              		.file 19 "Middlewares/lvgl/examples/scroll/../../src/widgets/lv_btn.h"
 367              		.file 20 "Middlewares/lvgl/examples/scroll/../../src/hal/lv_hal_disp.h"
 368              		.file 21 "Middlewares/lvgl/examples/scroll/../../src/widgets/lv_switch.h"
ARM GAS  /tmp/ccuzFof5.s 			page 20

