ARM GAS  /tmp/cc8Fr4n7.s 			page 1


   1              		.cpu cortex-m3
   2              		.eabi_attribute 20, 1
   3              		.eabi_attribute 21, 1
   4              		.eabi_attribute 23, 3
   5              		.eabi_attribute 24, 1
   6              		.eabi_attribute 25, 1
   7              		.eabi_attribute 26, 1
   8              		.eabi_attribute 30, 1
   9              		.eabi_attribute 34, 1
  10              		.eabi_attribute 18, 4
  11              		.file	"lv_example_btn_1.c"
  12              		.text
  13              	.Ltext0:
  14              		.cfi_sections	.debug_frame
  15              		.section	.text.event_handler,"ax",%progbits
  16              		.align	1
  17              		.arch armv7-m
  18              		.syntax unified
  19              		.thumb
  20              		.thumb_func
  21              		.fpu softvfp
  23              	event_handler:
  24              	.LVL0:
  25              	.LFB187:
  26              		.file 1 "Middlewares/lvgl/examples/widgets/btn/lv_example_btn_1.c"
   1:Middlewares/lvgl/examples/widgets/btn/lv_example_btn_1.c **** #include "../../lv_examples.h"
   2:Middlewares/lvgl/examples/widgets/btn/lv_example_btn_1.c **** #include <stdio.h>
   3:Middlewares/lvgl/examples/widgets/btn/lv_example_btn_1.c **** #if LV_USE_BTN && LV_BUILD_EXAMPLES
   4:Middlewares/lvgl/examples/widgets/btn/lv_example_btn_1.c **** 
   5:Middlewares/lvgl/examples/widgets/btn/lv_example_btn_1.c **** static void event_handler(lv_event_t * e)
   6:Middlewares/lvgl/examples/widgets/btn/lv_example_btn_1.c **** {
  27              		.loc 1 6 1 view -0
  28              		.cfi_startproc
  29              		@ args = 0, pretend = 0, frame = 0
  30              		@ frame_needed = 0, uses_anonymous_args = 0
  31              		.loc 1 6 1 is_stmt 0 view .LVU1
  32 0000 08B5     		push	{r3, lr}
  33              	.LCFI0:
  34              		.cfi_def_cfa_offset 8
  35              		.cfi_offset 3, -8
  36              		.cfi_offset 14, -4
   7:Middlewares/lvgl/examples/widgets/btn/lv_example_btn_1.c ****     lv_event_code_t code = lv_event_get_code(e);
  37              		.loc 1 7 5 is_stmt 1 view .LVU2
  38              		.loc 1 7 28 is_stmt 0 view .LVU3
  39 0002 FFF7FEFF 		bl	lv_event_get_code
  40              	.LVL1:
   8:Middlewares/lvgl/examples/widgets/btn/lv_example_btn_1.c **** 
   9:Middlewares/lvgl/examples/widgets/btn/lv_example_btn_1.c ****     if(code == LV_EVENT_CLICKED) {
  41              		.loc 1 9 5 is_stmt 1 view .LVU4
  10:Middlewares/lvgl/examples/widgets/btn/lv_example_btn_1.c ****         LV_LOG_USER("Clicked");
  11:Middlewares/lvgl/examples/widgets/btn/lv_example_btn_1.c ****         //printf("clicked\r\n");
  12:Middlewares/lvgl/examples/widgets/btn/lv_example_btn_1.c ****     }
  13:Middlewares/lvgl/examples/widgets/btn/lv_example_btn_1.c ****     else if(code == LV_EVENT_VALUE_CHANGED) {
  14:Middlewares/lvgl/examples/widgets/btn/lv_example_btn_1.c ****         LV_LOG_USER("Toggled");
  42              		.loc 1 14 31 view .LVU5
  15:Middlewares/lvgl/examples/widgets/btn/lv_example_btn_1.c ****         //printf("toggled\r\n");
  16:Middlewares/lvgl/examples/widgets/btn/lv_example_btn_1.c ****     }
ARM GAS  /tmp/cc8Fr4n7.s 			page 2


  17:Middlewares/lvgl/examples/widgets/btn/lv_example_btn_1.c **** }
  43              		.loc 1 17 1 is_stmt 0 view .LVU6
  44 0006 08BD     		pop	{r3, pc}
  45              		.cfi_endproc
  46              	.LFE187:
  48              		.section	.rodata.lv_example_btn_1.str1.4,"aMS",%progbits,1
  49              		.align	2
  50              	.LC0:
  51 0000 42757474 		.ascii	"Button\000"
  51      6F6E00
  52 0007 00       		.align	2
  53              	.LC1:
  54 0008 546F6767 		.ascii	"Toggle\000"
  54      6C6500
  55              		.section	.text.lv_example_btn_1,"ax",%progbits
  56              		.align	1
  57              		.global	lv_example_btn_1
  58              		.syntax unified
  59              		.thumb
  60              		.thumb_func
  61              		.fpu softvfp
  63              	lv_example_btn_1:
  64              	.LFB188:
  18:Middlewares/lvgl/examples/widgets/btn/lv_example_btn_1.c **** 
  19:Middlewares/lvgl/examples/widgets/btn/lv_example_btn_1.c **** void lv_example_btn_1(void)
  20:Middlewares/lvgl/examples/widgets/btn/lv_example_btn_1.c **** {
  65              		.loc 1 20 1 is_stmt 1 view -0
  66              		.cfi_startproc
  67              		@ args = 0, pretend = 0, frame = 0
  68              		@ frame_needed = 0, uses_anonymous_args = 0
  69 0000 38B5     		push	{r3, r4, r5, lr}
  70              	.LCFI1:
  71              		.cfi_def_cfa_offset 16
  72              		.cfi_offset 3, -16
  73              		.cfi_offset 4, -12
  74              		.cfi_offset 5, -8
  75              		.cfi_offset 14, -4
  21:Middlewares/lvgl/examples/widgets/btn/lv_example_btn_1.c ****     lv_obj_t * label;
  76              		.loc 1 21 5 view .LVU8
  22:Middlewares/lvgl/examples/widgets/btn/lv_example_btn_1.c **** 
  23:Middlewares/lvgl/examples/widgets/btn/lv_example_btn_1.c ****     lv_obj_t * btn1 = lv_btn_create(lv_scr_act());
  77              		.loc 1 23 5 view .LVU9
  78              	.LBB14:
  79              	.LBI14:
  80              		.file 2 "Middlewares/lvgl/examples/widgets/btn/../../../src/core/lv_disp.h"
   1:Middlewares/lvgl/examples/widgets/btn/../../../src/core/lv_disp.h **** /**
   2:Middlewares/lvgl/examples/widgets/btn/../../../src/core/lv_disp.h ****  * @file lv_disp.h
   3:Middlewares/lvgl/examples/widgets/btn/../../../src/core/lv_disp.h ****  *
   4:Middlewares/lvgl/examples/widgets/btn/../../../src/core/lv_disp.h ****  */
   5:Middlewares/lvgl/examples/widgets/btn/../../../src/core/lv_disp.h **** 
   6:Middlewares/lvgl/examples/widgets/btn/../../../src/core/lv_disp.h **** #ifndef LV_DISP_H
   7:Middlewares/lvgl/examples/widgets/btn/../../../src/core/lv_disp.h **** #define LV_DISP_H
   8:Middlewares/lvgl/examples/widgets/btn/../../../src/core/lv_disp.h **** 
   9:Middlewares/lvgl/examples/widgets/btn/../../../src/core/lv_disp.h **** #ifdef __cplusplus
  10:Middlewares/lvgl/examples/widgets/btn/../../../src/core/lv_disp.h **** extern "C" {
  11:Middlewares/lvgl/examples/widgets/btn/../../../src/core/lv_disp.h **** #endif
  12:Middlewares/lvgl/examples/widgets/btn/../../../src/core/lv_disp.h **** 
ARM GAS  /tmp/cc8Fr4n7.s 			page 3


  13:Middlewares/lvgl/examples/widgets/btn/../../../src/core/lv_disp.h **** /*********************
  14:Middlewares/lvgl/examples/widgets/btn/../../../src/core/lv_disp.h ****  *      INCLUDES
  15:Middlewares/lvgl/examples/widgets/btn/../../../src/core/lv_disp.h ****  *********************/
  16:Middlewares/lvgl/examples/widgets/btn/../../../src/core/lv_disp.h **** #include "../hal/lv_hal.h"
  17:Middlewares/lvgl/examples/widgets/btn/../../../src/core/lv_disp.h **** #include "lv_obj.h"
  18:Middlewares/lvgl/examples/widgets/btn/../../../src/core/lv_disp.h **** #include "lv_theme.h"
  19:Middlewares/lvgl/examples/widgets/btn/../../../src/core/lv_disp.h **** 
  20:Middlewares/lvgl/examples/widgets/btn/../../../src/core/lv_disp.h **** /*********************
  21:Middlewares/lvgl/examples/widgets/btn/../../../src/core/lv_disp.h ****  *      DEFINES
  22:Middlewares/lvgl/examples/widgets/btn/../../../src/core/lv_disp.h ****  *********************/
  23:Middlewares/lvgl/examples/widgets/btn/../../../src/core/lv_disp.h **** 
  24:Middlewares/lvgl/examples/widgets/btn/../../../src/core/lv_disp.h **** /**********************
  25:Middlewares/lvgl/examples/widgets/btn/../../../src/core/lv_disp.h ****  *      TYPEDEFS
  26:Middlewares/lvgl/examples/widgets/btn/../../../src/core/lv_disp.h ****  **********************/
  27:Middlewares/lvgl/examples/widgets/btn/../../../src/core/lv_disp.h **** 
  28:Middlewares/lvgl/examples/widgets/btn/../../../src/core/lv_disp.h **** typedef enum {
  29:Middlewares/lvgl/examples/widgets/btn/../../../src/core/lv_disp.h ****     LV_SCR_LOAD_ANIM_NONE,
  30:Middlewares/lvgl/examples/widgets/btn/../../../src/core/lv_disp.h ****     LV_SCR_LOAD_ANIM_OVER_LEFT,
  31:Middlewares/lvgl/examples/widgets/btn/../../../src/core/lv_disp.h ****     LV_SCR_LOAD_ANIM_OVER_RIGHT,
  32:Middlewares/lvgl/examples/widgets/btn/../../../src/core/lv_disp.h ****     LV_SCR_LOAD_ANIM_OVER_TOP,
  33:Middlewares/lvgl/examples/widgets/btn/../../../src/core/lv_disp.h ****     LV_SCR_LOAD_ANIM_OVER_BOTTOM,
  34:Middlewares/lvgl/examples/widgets/btn/../../../src/core/lv_disp.h ****     LV_SCR_LOAD_ANIM_MOVE_LEFT,
  35:Middlewares/lvgl/examples/widgets/btn/../../../src/core/lv_disp.h ****     LV_SCR_LOAD_ANIM_MOVE_RIGHT,
  36:Middlewares/lvgl/examples/widgets/btn/../../../src/core/lv_disp.h ****     LV_SCR_LOAD_ANIM_MOVE_TOP,
  37:Middlewares/lvgl/examples/widgets/btn/../../../src/core/lv_disp.h ****     LV_SCR_LOAD_ANIM_MOVE_BOTTOM,
  38:Middlewares/lvgl/examples/widgets/btn/../../../src/core/lv_disp.h ****     LV_SCR_LOAD_ANIM_FADE_ON,
  39:Middlewares/lvgl/examples/widgets/btn/../../../src/core/lv_disp.h **** } lv_scr_load_anim_t;
  40:Middlewares/lvgl/examples/widgets/btn/../../../src/core/lv_disp.h **** 
  41:Middlewares/lvgl/examples/widgets/btn/../../../src/core/lv_disp.h **** /**********************
  42:Middlewares/lvgl/examples/widgets/btn/../../../src/core/lv_disp.h ****  * GLOBAL PROTOTYPES
  43:Middlewares/lvgl/examples/widgets/btn/../../../src/core/lv_disp.h ****  **********************/
  44:Middlewares/lvgl/examples/widgets/btn/../../../src/core/lv_disp.h **** 
  45:Middlewares/lvgl/examples/widgets/btn/../../../src/core/lv_disp.h **** /**
  46:Middlewares/lvgl/examples/widgets/btn/../../../src/core/lv_disp.h ****  * Return with a pointer to the active screen
  47:Middlewares/lvgl/examples/widgets/btn/../../../src/core/lv_disp.h ****  * @param disp pointer to display which active screen should be get. (NULL to use the default
  48:Middlewares/lvgl/examples/widgets/btn/../../../src/core/lv_disp.h ****  * screen)
  49:Middlewares/lvgl/examples/widgets/btn/../../../src/core/lv_disp.h ****  * @return pointer to the active screen object (loaded by 'lv_scr_load()')
  50:Middlewares/lvgl/examples/widgets/btn/../../../src/core/lv_disp.h ****  */
  51:Middlewares/lvgl/examples/widgets/btn/../../../src/core/lv_disp.h **** lv_obj_t * lv_disp_get_scr_act(lv_disp_t * disp);
  52:Middlewares/lvgl/examples/widgets/btn/../../../src/core/lv_disp.h **** 
  53:Middlewares/lvgl/examples/widgets/btn/../../../src/core/lv_disp.h **** /**
  54:Middlewares/lvgl/examples/widgets/btn/../../../src/core/lv_disp.h ****  * Return with a pointer to the previous screen. Only used during screen transitions.
  55:Middlewares/lvgl/examples/widgets/btn/../../../src/core/lv_disp.h ****  * @param disp pointer to display which previous screen should be get. (NULL to use the default
  56:Middlewares/lvgl/examples/widgets/btn/../../../src/core/lv_disp.h ****  * screen)
  57:Middlewares/lvgl/examples/widgets/btn/../../../src/core/lv_disp.h ****  * @return pointer to the previous screen object or NULL if not used now
  58:Middlewares/lvgl/examples/widgets/btn/../../../src/core/lv_disp.h ****  */
  59:Middlewares/lvgl/examples/widgets/btn/../../../src/core/lv_disp.h **** lv_obj_t * lv_disp_get_scr_prev(lv_disp_t * disp);
  60:Middlewares/lvgl/examples/widgets/btn/../../../src/core/lv_disp.h **** 
  61:Middlewares/lvgl/examples/widgets/btn/../../../src/core/lv_disp.h **** /**
  62:Middlewares/lvgl/examples/widgets/btn/../../../src/core/lv_disp.h ****  * Make a screen active
  63:Middlewares/lvgl/examples/widgets/btn/../../../src/core/lv_disp.h ****  * @param scr pointer to a screen
  64:Middlewares/lvgl/examples/widgets/btn/../../../src/core/lv_disp.h ****  */
  65:Middlewares/lvgl/examples/widgets/btn/../../../src/core/lv_disp.h **** void lv_disp_load_scr(lv_obj_t * scr);
  66:Middlewares/lvgl/examples/widgets/btn/../../../src/core/lv_disp.h **** 
  67:Middlewares/lvgl/examples/widgets/btn/../../../src/core/lv_disp.h **** /**
  68:Middlewares/lvgl/examples/widgets/btn/../../../src/core/lv_disp.h ****  * Return with the top layer. (Same on every screen and it is above the normal screen layer)
  69:Middlewares/lvgl/examples/widgets/btn/../../../src/core/lv_disp.h ****  * @param disp pointer to display which top layer should be get. (NULL to use the default screen)
ARM GAS  /tmp/cc8Fr4n7.s 			page 4


  70:Middlewares/lvgl/examples/widgets/btn/../../../src/core/lv_disp.h ****  * @return pointer to the top layer object  (transparent screen sized lv_obj)
  71:Middlewares/lvgl/examples/widgets/btn/../../../src/core/lv_disp.h ****  */
  72:Middlewares/lvgl/examples/widgets/btn/../../../src/core/lv_disp.h **** lv_obj_t * lv_disp_get_layer_top(lv_disp_t * disp);
  73:Middlewares/lvgl/examples/widgets/btn/../../../src/core/lv_disp.h **** 
  74:Middlewares/lvgl/examples/widgets/btn/../../../src/core/lv_disp.h **** /**
  75:Middlewares/lvgl/examples/widgets/btn/../../../src/core/lv_disp.h ****  * Return with the sys. layer. (Same on every screen and it is above the normal screen and the top
  76:Middlewares/lvgl/examples/widgets/btn/../../../src/core/lv_disp.h ****  * layer)
  77:Middlewares/lvgl/examples/widgets/btn/../../../src/core/lv_disp.h ****  * @param disp pointer to display which sys. layer  should be get. (NULL to use the default screen)
  78:Middlewares/lvgl/examples/widgets/btn/../../../src/core/lv_disp.h ****  * @return pointer to the sys layer object  (transparent screen sized lv_obj)
  79:Middlewares/lvgl/examples/widgets/btn/../../../src/core/lv_disp.h ****  */
  80:Middlewares/lvgl/examples/widgets/btn/../../../src/core/lv_disp.h **** lv_obj_t * lv_disp_get_layer_sys(lv_disp_t * disp);
  81:Middlewares/lvgl/examples/widgets/btn/../../../src/core/lv_disp.h **** 
  82:Middlewares/lvgl/examples/widgets/btn/../../../src/core/lv_disp.h **** /**
  83:Middlewares/lvgl/examples/widgets/btn/../../../src/core/lv_disp.h ****  * Get the theme of a display
  84:Middlewares/lvgl/examples/widgets/btn/../../../src/core/lv_disp.h ****  * @param disp pointer to a display
  85:Middlewares/lvgl/examples/widgets/btn/../../../src/core/lv_disp.h ****  * @return the display's theme (can be NULL)
  86:Middlewares/lvgl/examples/widgets/btn/../../../src/core/lv_disp.h ****  */
  87:Middlewares/lvgl/examples/widgets/btn/../../../src/core/lv_disp.h **** void lv_disp_set_theme(lv_disp_t * disp, lv_theme_t * th);
  88:Middlewares/lvgl/examples/widgets/btn/../../../src/core/lv_disp.h **** 
  89:Middlewares/lvgl/examples/widgets/btn/../../../src/core/lv_disp.h **** /**
  90:Middlewares/lvgl/examples/widgets/btn/../../../src/core/lv_disp.h ****  * Get the theme of a display
  91:Middlewares/lvgl/examples/widgets/btn/../../../src/core/lv_disp.h ****  * @param disp pointer to a display
  92:Middlewares/lvgl/examples/widgets/btn/../../../src/core/lv_disp.h ****  * @return the display's theme (can be NULL)
  93:Middlewares/lvgl/examples/widgets/btn/../../../src/core/lv_disp.h ****  */
  94:Middlewares/lvgl/examples/widgets/btn/../../../src/core/lv_disp.h **** lv_theme_t * lv_disp_get_theme(lv_disp_t * disp);
  95:Middlewares/lvgl/examples/widgets/btn/../../../src/core/lv_disp.h **** 
  96:Middlewares/lvgl/examples/widgets/btn/../../../src/core/lv_disp.h **** /**
  97:Middlewares/lvgl/examples/widgets/btn/../../../src/core/lv_disp.h ****  * Set the background color of a display
  98:Middlewares/lvgl/examples/widgets/btn/../../../src/core/lv_disp.h ****  * @param disp pointer to a display
  99:Middlewares/lvgl/examples/widgets/btn/../../../src/core/lv_disp.h ****  * @param color color of the background
 100:Middlewares/lvgl/examples/widgets/btn/../../../src/core/lv_disp.h ****  */
 101:Middlewares/lvgl/examples/widgets/btn/../../../src/core/lv_disp.h **** void lv_disp_set_bg_color(lv_disp_t * disp, lv_color_t color);
 102:Middlewares/lvgl/examples/widgets/btn/../../../src/core/lv_disp.h **** 
 103:Middlewares/lvgl/examples/widgets/btn/../../../src/core/lv_disp.h **** /**
 104:Middlewares/lvgl/examples/widgets/btn/../../../src/core/lv_disp.h ****  * Set the background image of a display
 105:Middlewares/lvgl/examples/widgets/btn/../../../src/core/lv_disp.h ****  * @param disp pointer to a display
 106:Middlewares/lvgl/examples/widgets/btn/../../../src/core/lv_disp.h ****  * @param img_src path to file or pointer to an `lv_img_dsc_t` variable
 107:Middlewares/lvgl/examples/widgets/btn/../../../src/core/lv_disp.h ****  */
 108:Middlewares/lvgl/examples/widgets/btn/../../../src/core/lv_disp.h **** void lv_disp_set_bg_image(lv_disp_t * disp, const void  * img_src);
 109:Middlewares/lvgl/examples/widgets/btn/../../../src/core/lv_disp.h **** 
 110:Middlewares/lvgl/examples/widgets/btn/../../../src/core/lv_disp.h **** /**
 111:Middlewares/lvgl/examples/widgets/btn/../../../src/core/lv_disp.h ****  * Opacity of the background
 112:Middlewares/lvgl/examples/widgets/btn/../../../src/core/lv_disp.h ****  * @param disp pointer to a display
 113:Middlewares/lvgl/examples/widgets/btn/../../../src/core/lv_disp.h ****  * @param opa opacity (0..255)
 114:Middlewares/lvgl/examples/widgets/btn/../../../src/core/lv_disp.h ****  */
 115:Middlewares/lvgl/examples/widgets/btn/../../../src/core/lv_disp.h **** void lv_disp_set_bg_opa(lv_disp_t * disp, lv_opa_t opa);
 116:Middlewares/lvgl/examples/widgets/btn/../../../src/core/lv_disp.h **** 
 117:Middlewares/lvgl/examples/widgets/btn/../../../src/core/lv_disp.h **** /**
 118:Middlewares/lvgl/examples/widgets/btn/../../../src/core/lv_disp.h ****  * Switch screen with animation
 119:Middlewares/lvgl/examples/widgets/btn/../../../src/core/lv_disp.h ****  * @param scr pointer to the new screen to load
 120:Middlewares/lvgl/examples/widgets/btn/../../../src/core/lv_disp.h ****  * @param anim_type type of the animation from `lv_scr_load_anim_t`. E.g.  `LV_SCR_LOAD_ANIM_MOVE_L
 121:Middlewares/lvgl/examples/widgets/btn/../../../src/core/lv_disp.h ****  * @param time time of the animation
 122:Middlewares/lvgl/examples/widgets/btn/../../../src/core/lv_disp.h ****  * @param delay delay before the transition
 123:Middlewares/lvgl/examples/widgets/btn/../../../src/core/lv_disp.h ****  * @param auto_del true: automatically delete the old screen
 124:Middlewares/lvgl/examples/widgets/btn/../../../src/core/lv_disp.h ****  */
 125:Middlewares/lvgl/examples/widgets/btn/../../../src/core/lv_disp.h **** void lv_scr_load_anim(lv_obj_t * scr, lv_scr_load_anim_t anim_type, uint32_t time, uint32_t delay, 
 126:Middlewares/lvgl/examples/widgets/btn/../../../src/core/lv_disp.h **** 
ARM GAS  /tmp/cc8Fr4n7.s 			page 5


 127:Middlewares/lvgl/examples/widgets/btn/../../../src/core/lv_disp.h **** /**
 128:Middlewares/lvgl/examples/widgets/btn/../../../src/core/lv_disp.h ****  * Get elapsed time since last user activity on a display (e.g. click)
 129:Middlewares/lvgl/examples/widgets/btn/../../../src/core/lv_disp.h ****  * @param disp pointer to an display (NULL to get the overall smallest inactivity)
 130:Middlewares/lvgl/examples/widgets/btn/../../../src/core/lv_disp.h ****  * @return elapsed ticks (milliseconds) since the last activity
 131:Middlewares/lvgl/examples/widgets/btn/../../../src/core/lv_disp.h ****  */
 132:Middlewares/lvgl/examples/widgets/btn/../../../src/core/lv_disp.h **** uint32_t lv_disp_get_inactive_time(const lv_disp_t * disp);
 133:Middlewares/lvgl/examples/widgets/btn/../../../src/core/lv_disp.h **** 
 134:Middlewares/lvgl/examples/widgets/btn/../../../src/core/lv_disp.h **** /**
 135:Middlewares/lvgl/examples/widgets/btn/../../../src/core/lv_disp.h ****  * Manually trigger an activity on a display
 136:Middlewares/lvgl/examples/widgets/btn/../../../src/core/lv_disp.h ****  * @param disp pointer to an display (NULL to use the default display)
 137:Middlewares/lvgl/examples/widgets/btn/../../../src/core/lv_disp.h ****  */
 138:Middlewares/lvgl/examples/widgets/btn/../../../src/core/lv_disp.h **** void lv_disp_trig_activity(lv_disp_t * disp);
 139:Middlewares/lvgl/examples/widgets/btn/../../../src/core/lv_disp.h **** 
 140:Middlewares/lvgl/examples/widgets/btn/../../../src/core/lv_disp.h **** /**
 141:Middlewares/lvgl/examples/widgets/btn/../../../src/core/lv_disp.h ****  * Clean any CPU cache that is related to the display.
 142:Middlewares/lvgl/examples/widgets/btn/../../../src/core/lv_disp.h ****  * @param disp pointer to an display (NULL to use the default display)
 143:Middlewares/lvgl/examples/widgets/btn/../../../src/core/lv_disp.h ****  */
 144:Middlewares/lvgl/examples/widgets/btn/../../../src/core/lv_disp.h **** void lv_disp_clean_dcache(lv_disp_t * disp);
 145:Middlewares/lvgl/examples/widgets/btn/../../../src/core/lv_disp.h **** 
 146:Middlewares/lvgl/examples/widgets/btn/../../../src/core/lv_disp.h **** /**
 147:Middlewares/lvgl/examples/widgets/btn/../../../src/core/lv_disp.h ****  * Get a pointer to the screen refresher timer to
 148:Middlewares/lvgl/examples/widgets/btn/../../../src/core/lv_disp.h ****  * modify its parameters with `lv_timer_...` functions.
 149:Middlewares/lvgl/examples/widgets/btn/../../../src/core/lv_disp.h ****  * @param disp pointer to a display
 150:Middlewares/lvgl/examples/widgets/btn/../../../src/core/lv_disp.h ****  * @return pointer to the display refresher timer. (NULL on error)
 151:Middlewares/lvgl/examples/widgets/btn/../../../src/core/lv_disp.h ****  */
 152:Middlewares/lvgl/examples/widgets/btn/../../../src/core/lv_disp.h **** lv_timer_t * _lv_disp_get_refr_timer(lv_disp_t * disp);
 153:Middlewares/lvgl/examples/widgets/btn/../../../src/core/lv_disp.h **** 
 154:Middlewares/lvgl/examples/widgets/btn/../../../src/core/lv_disp.h **** /*------------------------------------------------
 155:Middlewares/lvgl/examples/widgets/btn/../../../src/core/lv_disp.h ****  * To improve backward compatibility
 156:Middlewares/lvgl/examples/widgets/btn/../../../src/core/lv_disp.h ****  * Recommended only if you have one display
 157:Middlewares/lvgl/examples/widgets/btn/../../../src/core/lv_disp.h ****  *------------------------------------------------*/
 158:Middlewares/lvgl/examples/widgets/btn/../../../src/core/lv_disp.h **** 
 159:Middlewares/lvgl/examples/widgets/btn/../../../src/core/lv_disp.h **** /**
 160:Middlewares/lvgl/examples/widgets/btn/../../../src/core/lv_disp.h ****  * Get the active screen of the default display
 161:Middlewares/lvgl/examples/widgets/btn/../../../src/core/lv_disp.h ****  * @return pointer to the active screen
 162:Middlewares/lvgl/examples/widgets/btn/../../../src/core/lv_disp.h ****  */
 163:Middlewares/lvgl/examples/widgets/btn/../../../src/core/lv_disp.h **** static inline lv_obj_t * lv_scr_act(void)
  81              		.loc 2 163 26 view .LVU10
  82              	.LBB15:
 164:Middlewares/lvgl/examples/widgets/btn/../../../src/core/lv_disp.h **** {
 165:Middlewares/lvgl/examples/widgets/btn/../../../src/core/lv_disp.h ****     return lv_disp_get_scr_act(lv_disp_get_default());
  83              		.loc 2 165 5 view .LVU11
  84              		.loc 2 165 12 is_stmt 0 view .LVU12
  85 0002 FFF7FEFF 		bl	lv_disp_get_default
  86              	.LVL2:
  87 0006 FFF7FEFF 		bl	lv_disp_get_scr_act
  88              	.LVL3:
  89              	.LBE15:
  90              	.LBE14:
  91              		.loc 1 23 23 view .LVU13
  92 000a FFF7FEFF 		bl	lv_btn_create
  93              	.LVL4:
  94 000e 0446     		mov	r4, r0
  95              	.LVL5:
  24:Middlewares/lvgl/examples/widgets/btn/lv_example_btn_1.c ****     lv_obj_add_event_cb(btn1, event_handler, LV_EVENT_ALL, NULL);
  96              		.loc 1 24 5 is_stmt 1 view .LVU14
  97 0010 214D     		ldr	r5, .L5
ARM GAS  /tmp/cc8Fr4n7.s 			page 6


  98 0012 0023     		movs	r3, #0
  99 0014 1A46     		mov	r2, r3
 100 0016 2946     		mov	r1, r5
 101 0018 FFF7FEFF 		bl	lv_obj_add_event_cb
 102              	.LVL6:
  25:Middlewares/lvgl/examples/widgets/btn/lv_example_btn_1.c ****     lv_obj_align(btn1, LV_ALIGN_CENTER, 0, -40);
 103              		.loc 1 25 5 view .LVU15
 104 001c 6FF02703 		mvn	r3, #39
 105 0020 0022     		movs	r2, #0
 106 0022 0921     		movs	r1, #9
 107 0024 2046     		mov	r0, r4
 108 0026 FFF7FEFF 		bl	lv_obj_align
 109              	.LVL7:
  26:Middlewares/lvgl/examples/widgets/btn/lv_example_btn_1.c **** 
  27:Middlewares/lvgl/examples/widgets/btn/lv_example_btn_1.c ****     label = lv_label_create(btn1);
 110              		.loc 1 27 5 view .LVU16
 111              		.loc 1 27 13 is_stmt 0 view .LVU17
 112 002a 2046     		mov	r0, r4
 113 002c FFF7FEFF 		bl	lv_label_create
 114              	.LVL8:
 115 0030 0446     		mov	r4, r0
 116              	.LVL9:
  28:Middlewares/lvgl/examples/widgets/btn/lv_example_btn_1.c ****     lv_label_set_text(label, "Button");
 117              		.loc 1 28 5 is_stmt 1 view .LVU18
 118 0032 1A49     		ldr	r1, .L5+4
 119 0034 FFF7FEFF 		bl	lv_label_set_text
 120              	.LVL10:
  29:Middlewares/lvgl/examples/widgets/btn/lv_example_btn_1.c ****     lv_obj_center(label);
 121              		.loc 1 29 5 view .LVU19
 122              	.LBB16:
 123              	.LBI16:
 124              		.file 3 "Middlewares/lvgl/examples/widgets/btn/../../../src/core/lv_obj_pos.h"
   1:Middlewares/lvgl/examples/widgets/btn/../../../src/core/lv_obj_pos.h **** /**
   2:Middlewares/lvgl/examples/widgets/btn/../../../src/core/lv_obj_pos.h ****  * @file lv_obj_pos.h
   3:Middlewares/lvgl/examples/widgets/btn/../../../src/core/lv_obj_pos.h ****  *
   4:Middlewares/lvgl/examples/widgets/btn/../../../src/core/lv_obj_pos.h ****  */
   5:Middlewares/lvgl/examples/widgets/btn/../../../src/core/lv_obj_pos.h **** 
   6:Middlewares/lvgl/examples/widgets/btn/../../../src/core/lv_obj_pos.h **** #ifndef LV_OBJ_POS_H
   7:Middlewares/lvgl/examples/widgets/btn/../../../src/core/lv_obj_pos.h **** #define LV_OBJ_POS_H
   8:Middlewares/lvgl/examples/widgets/btn/../../../src/core/lv_obj_pos.h **** 
   9:Middlewares/lvgl/examples/widgets/btn/../../../src/core/lv_obj_pos.h **** #ifdef __cplusplus
  10:Middlewares/lvgl/examples/widgets/btn/../../../src/core/lv_obj_pos.h **** extern "C" {
  11:Middlewares/lvgl/examples/widgets/btn/../../../src/core/lv_obj_pos.h **** #endif
  12:Middlewares/lvgl/examples/widgets/btn/../../../src/core/lv_obj_pos.h **** 
  13:Middlewares/lvgl/examples/widgets/btn/../../../src/core/lv_obj_pos.h **** /*********************
  14:Middlewares/lvgl/examples/widgets/btn/../../../src/core/lv_obj_pos.h ****  *      INCLUDES
  15:Middlewares/lvgl/examples/widgets/btn/../../../src/core/lv_obj_pos.h ****  *********************/
  16:Middlewares/lvgl/examples/widgets/btn/../../../src/core/lv_obj_pos.h **** #include "../misc/lv_area.h"
  17:Middlewares/lvgl/examples/widgets/btn/../../../src/core/lv_obj_pos.h **** 
  18:Middlewares/lvgl/examples/widgets/btn/../../../src/core/lv_obj_pos.h **** /*********************
  19:Middlewares/lvgl/examples/widgets/btn/../../../src/core/lv_obj_pos.h ****  *      DEFINES
  20:Middlewares/lvgl/examples/widgets/btn/../../../src/core/lv_obj_pos.h ****  *********************/
  21:Middlewares/lvgl/examples/widgets/btn/../../../src/core/lv_obj_pos.h **** 
  22:Middlewares/lvgl/examples/widgets/btn/../../../src/core/lv_obj_pos.h **** /**********************
  23:Middlewares/lvgl/examples/widgets/btn/../../../src/core/lv_obj_pos.h ****  *      TYPEDEFS
  24:Middlewares/lvgl/examples/widgets/btn/../../../src/core/lv_obj_pos.h ****  **********************/
  25:Middlewares/lvgl/examples/widgets/btn/../../../src/core/lv_obj_pos.h **** struct _lv_obj_t;
ARM GAS  /tmp/cc8Fr4n7.s 			page 7


  26:Middlewares/lvgl/examples/widgets/btn/../../../src/core/lv_obj_pos.h **** 
  27:Middlewares/lvgl/examples/widgets/btn/../../../src/core/lv_obj_pos.h **** typedef void (*lv_layout_update_cb_t)(struct _lv_obj_t *, void * user_data);
  28:Middlewares/lvgl/examples/widgets/btn/../../../src/core/lv_obj_pos.h **** typedef struct {
  29:Middlewares/lvgl/examples/widgets/btn/../../../src/core/lv_obj_pos.h ****     lv_layout_update_cb_t cb;
  30:Middlewares/lvgl/examples/widgets/btn/../../../src/core/lv_obj_pos.h ****     void * user_data;
  31:Middlewares/lvgl/examples/widgets/btn/../../../src/core/lv_obj_pos.h **** }lv_layout_dsc_t;
  32:Middlewares/lvgl/examples/widgets/btn/../../../src/core/lv_obj_pos.h **** 
  33:Middlewares/lvgl/examples/widgets/btn/../../../src/core/lv_obj_pos.h **** /**********************
  34:Middlewares/lvgl/examples/widgets/btn/../../../src/core/lv_obj_pos.h ****  * GLOBAL PROTOTYPES
  35:Middlewares/lvgl/examples/widgets/btn/../../../src/core/lv_obj_pos.h ****  **********************/
  36:Middlewares/lvgl/examples/widgets/btn/../../../src/core/lv_obj_pos.h **** 
  37:Middlewares/lvgl/examples/widgets/btn/../../../src/core/lv_obj_pos.h **** /**
  38:Middlewares/lvgl/examples/widgets/btn/../../../src/core/lv_obj_pos.h ****  * Set the relative the position of an object (relative to the parent's top left corner)
  39:Middlewares/lvgl/examples/widgets/btn/../../../src/core/lv_obj_pos.h ****  * @param obj       pointer to an object
  40:Middlewares/lvgl/examples/widgets/btn/../../../src/core/lv_obj_pos.h ****  * @param x         new distance from the left side of the parent plus the parent's left padding
  41:Middlewares/lvgl/examples/widgets/btn/../../../src/core/lv_obj_pos.h ****  * @param y         new distance from the top side of the parent  plus the parent's right padding
  42:Middlewares/lvgl/examples/widgets/btn/../../../src/core/lv_obj_pos.h ****  */
  43:Middlewares/lvgl/examples/widgets/btn/../../../src/core/lv_obj_pos.h **** void lv_obj_set_pos(struct _lv_obj_t * obj, lv_coord_t x, lv_coord_t y);
  44:Middlewares/lvgl/examples/widgets/btn/../../../src/core/lv_obj_pos.h **** 
  45:Middlewares/lvgl/examples/widgets/btn/../../../src/core/lv_obj_pos.h **** /**
  46:Middlewares/lvgl/examples/widgets/btn/../../../src/core/lv_obj_pos.h ****  * Set the x coordinate of a object
  47:Middlewares/lvgl/examples/widgets/btn/../../../src/core/lv_obj_pos.h ****  * @param obj       pointer to an object
  48:Middlewares/lvgl/examples/widgets/btn/../../../src/core/lv_obj_pos.h ****  * @param x         new distance from the left side from the parent plus the parent's left padding
  49:Middlewares/lvgl/examples/widgets/btn/../../../src/core/lv_obj_pos.h ****  */
  50:Middlewares/lvgl/examples/widgets/btn/../../../src/core/lv_obj_pos.h **** void lv_obj_set_x(struct _lv_obj_t * obj, lv_coord_t x);
  51:Middlewares/lvgl/examples/widgets/btn/../../../src/core/lv_obj_pos.h **** 
  52:Middlewares/lvgl/examples/widgets/btn/../../../src/core/lv_obj_pos.h **** /**
  53:Middlewares/lvgl/examples/widgets/btn/../../../src/core/lv_obj_pos.h ****  * Set the y coordinate of a object
  54:Middlewares/lvgl/examples/widgets/btn/../../../src/core/lv_obj_pos.h ****  * @param obj       pointer to an object
  55:Middlewares/lvgl/examples/widgets/btn/../../../src/core/lv_obj_pos.h ****  * @param y         new distance from the top of the parent  plus the parent's top padding
  56:Middlewares/lvgl/examples/widgets/btn/../../../src/core/lv_obj_pos.h ****  */
  57:Middlewares/lvgl/examples/widgets/btn/../../../src/core/lv_obj_pos.h **** void lv_obj_set_y(struct _lv_obj_t * obj, lv_coord_t y);
  58:Middlewares/lvgl/examples/widgets/btn/../../../src/core/lv_obj_pos.h **** 
  59:Middlewares/lvgl/examples/widgets/btn/../../../src/core/lv_obj_pos.h **** /**
  60:Middlewares/lvgl/examples/widgets/btn/../../../src/core/lv_obj_pos.h ****  * Set the size of an object.
  61:Middlewares/lvgl/examples/widgets/btn/../../../src/core/lv_obj_pos.h ****  * @param obj       pointer to an object
  62:Middlewares/lvgl/examples/widgets/btn/../../../src/core/lv_obj_pos.h ****  * @param w         the new width
  63:Middlewares/lvgl/examples/widgets/btn/../../../src/core/lv_obj_pos.h ****  * @param h         the new height
  64:Middlewares/lvgl/examples/widgets/btn/../../../src/core/lv_obj_pos.h ****  * @note            possible values are:
  65:Middlewares/lvgl/examples/widgets/btn/../../../src/core/lv_obj_pos.h ****  *                  pixel               simple set the size accordingly
  66:Middlewares/lvgl/examples/widgets/btn/../../../src/core/lv_obj_pos.h ****  *                  LV_SIZE_CONTENT     set the size to involve all children in the given direction
  67:Middlewares/lvgl/examples/widgets/btn/../../../src/core/lv_obj_pos.h ****  *                  LV_SIZE_PCT(x)     to set size in percentage of the parent's content area size 
  68:Middlewares/lvgl/examples/widgets/btn/../../../src/core/lv_obj_pos.h ****  *                                      x should be in [0..1000]% range
  69:Middlewares/lvgl/examples/widgets/btn/../../../src/core/lv_obj_pos.h ****  */
  70:Middlewares/lvgl/examples/widgets/btn/../../../src/core/lv_obj_pos.h **** void lv_obj_set_size(struct _lv_obj_t * obj, lv_coord_t w, lv_coord_t h);
  71:Middlewares/lvgl/examples/widgets/btn/../../../src/core/lv_obj_pos.h **** 
  72:Middlewares/lvgl/examples/widgets/btn/../../../src/core/lv_obj_pos.h **** /**
  73:Middlewares/lvgl/examples/widgets/btn/../../../src/core/lv_obj_pos.h ****  * Recalculate the size of the object
  74:Middlewares/lvgl/examples/widgets/btn/../../../src/core/lv_obj_pos.h ****  * @param obj       pointer to an object
  75:Middlewares/lvgl/examples/widgets/btn/../../../src/core/lv_obj_pos.h ****  * @return          true: the size has been changed
  76:Middlewares/lvgl/examples/widgets/btn/../../../src/core/lv_obj_pos.h ****  */
  77:Middlewares/lvgl/examples/widgets/btn/../../../src/core/lv_obj_pos.h **** bool lv_obj_refr_size(struct _lv_obj_t * obj);
  78:Middlewares/lvgl/examples/widgets/btn/../../../src/core/lv_obj_pos.h **** 
  79:Middlewares/lvgl/examples/widgets/btn/../../../src/core/lv_obj_pos.h **** /**
  80:Middlewares/lvgl/examples/widgets/btn/../../../src/core/lv_obj_pos.h ****  * Set the width of an object
  81:Middlewares/lvgl/examples/widgets/btn/../../../src/core/lv_obj_pos.h ****  * @param obj       pointer to an object
  82:Middlewares/lvgl/examples/widgets/btn/../../../src/core/lv_obj_pos.h ****  * @param w         the new width
ARM GAS  /tmp/cc8Fr4n7.s 			page 8


  83:Middlewares/lvgl/examples/widgets/btn/../../../src/core/lv_obj_pos.h ****  * @note            possible values are:
  84:Middlewares/lvgl/examples/widgets/btn/../../../src/core/lv_obj_pos.h ****  *                  pixel               simple set the size accordingly
  85:Middlewares/lvgl/examples/widgets/btn/../../../src/core/lv_obj_pos.h ****  *                  LV_SIZE_CONTENT     set the size to involve all children in the given direction
  86:Middlewares/lvgl/examples/widgets/btn/../../../src/core/lv_obj_pos.h ****  *                  lv_pct(x)           to set size in percentage of the parent's content area size
  87:Middlewares/lvgl/examples/widgets/btn/../../../src/core/lv_obj_pos.h ****  *                                      x should be in [0..1000]% range
  88:Middlewares/lvgl/examples/widgets/btn/../../../src/core/lv_obj_pos.h ****  */
  89:Middlewares/lvgl/examples/widgets/btn/../../../src/core/lv_obj_pos.h **** void lv_obj_set_width(struct _lv_obj_t * obj, lv_coord_t w);
  90:Middlewares/lvgl/examples/widgets/btn/../../../src/core/lv_obj_pos.h **** 
  91:Middlewares/lvgl/examples/widgets/btn/../../../src/core/lv_obj_pos.h **** /**
  92:Middlewares/lvgl/examples/widgets/btn/../../../src/core/lv_obj_pos.h ****  * Set the height of an object
  93:Middlewares/lvgl/examples/widgets/btn/../../../src/core/lv_obj_pos.h ****  * @param obj       pointer to an object
  94:Middlewares/lvgl/examples/widgets/btn/../../../src/core/lv_obj_pos.h ****  * @param h         the new height
  95:Middlewares/lvgl/examples/widgets/btn/../../../src/core/lv_obj_pos.h ****  * @note            possible values are:
  96:Middlewares/lvgl/examples/widgets/btn/../../../src/core/lv_obj_pos.h ****  *                  pixel               simple set the size accordingly
  97:Middlewares/lvgl/examples/widgets/btn/../../../src/core/lv_obj_pos.h ****  *                  LV_SIZE_CONTENT     set the size to involve all children in the given direction
  98:Middlewares/lvgl/examples/widgets/btn/../../../src/core/lv_obj_pos.h ****  *                  lv_pct(x)           to set size in percentage of the parent's content area size
  99:Middlewares/lvgl/examples/widgets/btn/../../../src/core/lv_obj_pos.h ****  *                                      x should be in [0..1000]% range
 100:Middlewares/lvgl/examples/widgets/btn/../../../src/core/lv_obj_pos.h ****  */
 101:Middlewares/lvgl/examples/widgets/btn/../../../src/core/lv_obj_pos.h **** void lv_obj_set_height(struct _lv_obj_t * obj, lv_coord_t h);
 102:Middlewares/lvgl/examples/widgets/btn/../../../src/core/lv_obj_pos.h **** 
 103:Middlewares/lvgl/examples/widgets/btn/../../../src/core/lv_obj_pos.h **** /**
 104:Middlewares/lvgl/examples/widgets/btn/../../../src/core/lv_obj_pos.h ****  * Set the width reduced by the left and right padding and the border width.
 105:Middlewares/lvgl/examples/widgets/btn/../../../src/core/lv_obj_pos.h ****  * @param obj       pointer to an object
 106:Middlewares/lvgl/examples/widgets/btn/../../../src/core/lv_obj_pos.h ****  * @param w         the width without paddings in pixels
 107:Middlewares/lvgl/examples/widgets/btn/../../../src/core/lv_obj_pos.h ****  */
 108:Middlewares/lvgl/examples/widgets/btn/../../../src/core/lv_obj_pos.h **** void lv_obj_set_content_width(struct _lv_obj_t * obj, lv_coord_t w);
 109:Middlewares/lvgl/examples/widgets/btn/../../../src/core/lv_obj_pos.h **** 
 110:Middlewares/lvgl/examples/widgets/btn/../../../src/core/lv_obj_pos.h **** /**
 111:Middlewares/lvgl/examples/widgets/btn/../../../src/core/lv_obj_pos.h ****  * Set the height reduced by the top and bottom padding and the border width.
 112:Middlewares/lvgl/examples/widgets/btn/../../../src/core/lv_obj_pos.h ****  * @param obj       pointer to an object
 113:Middlewares/lvgl/examples/widgets/btn/../../../src/core/lv_obj_pos.h ****  * @param h         the height without paddings in pixels
 114:Middlewares/lvgl/examples/widgets/btn/../../../src/core/lv_obj_pos.h ****  */
 115:Middlewares/lvgl/examples/widgets/btn/../../../src/core/lv_obj_pos.h **** void lv_obj_set_content_height(struct _lv_obj_t * obj, lv_coord_t h);
 116:Middlewares/lvgl/examples/widgets/btn/../../../src/core/lv_obj_pos.h **** 
 117:Middlewares/lvgl/examples/widgets/btn/../../../src/core/lv_obj_pos.h **** /**
 118:Middlewares/lvgl/examples/widgets/btn/../../../src/core/lv_obj_pos.h ****  * Set a layout for an object
 119:Middlewares/lvgl/examples/widgets/btn/../../../src/core/lv_obj_pos.h ****  * @param obj       pointer to an object
 120:Middlewares/lvgl/examples/widgets/btn/../../../src/core/lv_obj_pos.h ****  * @param layout    pointer to a layout descriptor to set
 121:Middlewares/lvgl/examples/widgets/btn/../../../src/core/lv_obj_pos.h ****  */
 122:Middlewares/lvgl/examples/widgets/btn/../../../src/core/lv_obj_pos.h **** void lv_obj_set_layout(struct _lv_obj_t * obj, uint32_t layout);
 123:Middlewares/lvgl/examples/widgets/btn/../../../src/core/lv_obj_pos.h **** 
 124:Middlewares/lvgl/examples/widgets/btn/../../../src/core/lv_obj_pos.h **** /**
 125:Middlewares/lvgl/examples/widgets/btn/../../../src/core/lv_obj_pos.h ****  * Test whether the and object is positioned by a layout or not
 126:Middlewares/lvgl/examples/widgets/btn/../../../src/core/lv_obj_pos.h ****  * @param obj       pointer to an object to test
 127:Middlewares/lvgl/examples/widgets/btn/../../../src/core/lv_obj_pos.h ****  * @return true:    positioned by a layout; false: not positioned by a layout
 128:Middlewares/lvgl/examples/widgets/btn/../../../src/core/lv_obj_pos.h ****  */
 129:Middlewares/lvgl/examples/widgets/btn/../../../src/core/lv_obj_pos.h **** bool lv_obj_is_layout_positioned(const struct _lv_obj_t * obj);
 130:Middlewares/lvgl/examples/widgets/btn/../../../src/core/lv_obj_pos.h **** 
 131:Middlewares/lvgl/examples/widgets/btn/../../../src/core/lv_obj_pos.h **** /**
 132:Middlewares/lvgl/examples/widgets/btn/../../../src/core/lv_obj_pos.h ****  * Mark the object for layout update.
 133:Middlewares/lvgl/examples/widgets/btn/../../../src/core/lv_obj_pos.h ****  * @param obj      pointer to an object whose children needs to be updated
 134:Middlewares/lvgl/examples/widgets/btn/../../../src/core/lv_obj_pos.h ****  */
 135:Middlewares/lvgl/examples/widgets/btn/../../../src/core/lv_obj_pos.h **** void lv_obj_mark_layout_as_dirty(struct _lv_obj_t * obj);
 136:Middlewares/lvgl/examples/widgets/btn/../../../src/core/lv_obj_pos.h **** 
 137:Middlewares/lvgl/examples/widgets/btn/../../../src/core/lv_obj_pos.h **** /**
 138:Middlewares/lvgl/examples/widgets/btn/../../../src/core/lv_obj_pos.h ****  * Update the layout of an object.
 139:Middlewares/lvgl/examples/widgets/btn/../../../src/core/lv_obj_pos.h ****  * @param obj      pointer to an object whose children needs to be updated
ARM GAS  /tmp/cc8Fr4n7.s 			page 9


 140:Middlewares/lvgl/examples/widgets/btn/../../../src/core/lv_obj_pos.h ****  */
 141:Middlewares/lvgl/examples/widgets/btn/../../../src/core/lv_obj_pos.h **** void lv_obj_update_layout(const struct _lv_obj_t * obj);
 142:Middlewares/lvgl/examples/widgets/btn/../../../src/core/lv_obj_pos.h **** 
 143:Middlewares/lvgl/examples/widgets/btn/../../../src/core/lv_obj_pos.h **** /**
 144:Middlewares/lvgl/examples/widgets/btn/../../../src/core/lv_obj_pos.h ****  * Regsiter a new layout
 145:Middlewares/lvgl/examples/widgets/btn/../../../src/core/lv_obj_pos.h ****  * @param cb        the layout update callback
 146:Middlewares/lvgl/examples/widgets/btn/../../../src/core/lv_obj_pos.h ****  * @param user_data custom data that will be passed to `cb`
 147:Middlewares/lvgl/examples/widgets/btn/../../../src/core/lv_obj_pos.h ****  * @return          the ID of the new layout
 148:Middlewares/lvgl/examples/widgets/btn/../../../src/core/lv_obj_pos.h ****  */
 149:Middlewares/lvgl/examples/widgets/btn/../../../src/core/lv_obj_pos.h **** uint32_t lv_layout_register(lv_layout_update_cb_t cb, void * user_data);
 150:Middlewares/lvgl/examples/widgets/btn/../../../src/core/lv_obj_pos.h **** 
 151:Middlewares/lvgl/examples/widgets/btn/../../../src/core/lv_obj_pos.h **** /**
 152:Middlewares/lvgl/examples/widgets/btn/../../../src/core/lv_obj_pos.h ****  * Change the alignment of an object.
 153:Middlewares/lvgl/examples/widgets/btn/../../../src/core/lv_obj_pos.h ****  * @param obj       pointer to an object to align
 154:Middlewares/lvgl/examples/widgets/btn/../../../src/core/lv_obj_pos.h ****  * @param align     type of alignment (see 'lv_align_t' enum) `LV_ALIGN_OUT_...` can't be used.
 155:Middlewares/lvgl/examples/widgets/btn/../../../src/core/lv_obj_pos.h ****  */
 156:Middlewares/lvgl/examples/widgets/btn/../../../src/core/lv_obj_pos.h **** void lv_obj_set_align(struct _lv_obj_t * obj, lv_align_t align);
 157:Middlewares/lvgl/examples/widgets/btn/../../../src/core/lv_obj_pos.h **** 
 158:Middlewares/lvgl/examples/widgets/btn/../../../src/core/lv_obj_pos.h **** /**
 159:Middlewares/lvgl/examples/widgets/btn/../../../src/core/lv_obj_pos.h ****  * Change the alignment of an object and set new coordinates.
 160:Middlewares/lvgl/examples/widgets/btn/../../../src/core/lv_obj_pos.h ****  * Equivalent to:
 161:Middlewares/lvgl/examples/widgets/btn/../../../src/core/lv_obj_pos.h ****  * lv_obj_set_align(obj, align);
 162:Middlewares/lvgl/examples/widgets/btn/../../../src/core/lv_obj_pos.h ****  * lv_obj_set_pos(obj, x_ofs, y_ofs);
 163:Middlewares/lvgl/examples/widgets/btn/../../../src/core/lv_obj_pos.h ****  * @param obj       pointer to an object to align
 164:Middlewares/lvgl/examples/widgets/btn/../../../src/core/lv_obj_pos.h ****  * @param align     type of alignment (see 'lv_align_t' enum) `LV_ALIGN_OUT_...` can't be used.
 165:Middlewares/lvgl/examples/widgets/btn/../../../src/core/lv_obj_pos.h ****  * @param x_ofs     x coordinate offset after alignment
 166:Middlewares/lvgl/examples/widgets/btn/../../../src/core/lv_obj_pos.h ****  * @param y_ofs     y coordinate offset after alignment
 167:Middlewares/lvgl/examples/widgets/btn/../../../src/core/lv_obj_pos.h ****  */
 168:Middlewares/lvgl/examples/widgets/btn/../../../src/core/lv_obj_pos.h **** void lv_obj_align(struct _lv_obj_t * obj, lv_align_t align, lv_coord_t x_ofs, lv_coord_t y_ofs);
 169:Middlewares/lvgl/examples/widgets/btn/../../../src/core/lv_obj_pos.h **** 
 170:Middlewares/lvgl/examples/widgets/btn/../../../src/core/lv_obj_pos.h **** /**
 171:Middlewares/lvgl/examples/widgets/btn/../../../src/core/lv_obj_pos.h ****  * Align an object to an other object.
 172:Middlewares/lvgl/examples/widgets/btn/../../../src/core/lv_obj_pos.h ****  * @param obj       pointer to an object to align
 173:Middlewares/lvgl/examples/widgets/btn/../../../src/core/lv_obj_pos.h ****  * @param base      pointer to an other object (if NULL `obj`s parent is used). 'obj' will be align
 174:Middlewares/lvgl/examples/widgets/btn/../../../src/core/lv_obj_pos.h ****  * @param align     type of alignment (see 'lv_align_t' enum)
 175:Middlewares/lvgl/examples/widgets/btn/../../../src/core/lv_obj_pos.h ****  * @param x_ofs     x coordinate offset after alignment
 176:Middlewares/lvgl/examples/widgets/btn/../../../src/core/lv_obj_pos.h ****  * @param y_ofs     y coordinate offset after alignment
 177:Middlewares/lvgl/examples/widgets/btn/../../../src/core/lv_obj_pos.h ****  * @note            if the position or size of `base` changes `obj` needs to be aligned manually ag
 178:Middlewares/lvgl/examples/widgets/btn/../../../src/core/lv_obj_pos.h ****  */
 179:Middlewares/lvgl/examples/widgets/btn/../../../src/core/lv_obj_pos.h **** void lv_obj_align_to(struct _lv_obj_t * obj, const struct _lv_obj_t * base, lv_align_t align, lv_co
 180:Middlewares/lvgl/examples/widgets/btn/../../../src/core/lv_obj_pos.h **** 
 181:Middlewares/lvgl/examples/widgets/btn/../../../src/core/lv_obj_pos.h **** /**
 182:Middlewares/lvgl/examples/widgets/btn/../../../src/core/lv_obj_pos.h ****  * Align an object to the center on its parent.
 183:Middlewares/lvgl/examples/widgets/btn/../../../src/core/lv_obj_pos.h ****  * @param obj       pointer to an object to align
 184:Middlewares/lvgl/examples/widgets/btn/../../../src/core/lv_obj_pos.h ****  * @note            if the parent size changes `obj` needs to be aligned manually again
 185:Middlewares/lvgl/examples/widgets/btn/../../../src/core/lv_obj_pos.h ****  */
 186:Middlewares/lvgl/examples/widgets/btn/../../../src/core/lv_obj_pos.h **** static inline void lv_obj_center(struct _lv_obj_t * obj)
 125              		.loc 3 186 20 view .LVU20
 126              	.LBB17:
 187:Middlewares/lvgl/examples/widgets/btn/../../../src/core/lv_obj_pos.h **** {
 188:Middlewares/lvgl/examples/widgets/btn/../../../src/core/lv_obj_pos.h ****     lv_obj_align(obj, LV_ALIGN_CENTER, 0, 0);
 127              		.loc 3 188 5 view .LVU21
 128 0038 0023     		movs	r3, #0
 129 003a 1A46     		mov	r2, r3
 130 003c 0921     		movs	r1, #9
 131 003e 2046     		mov	r0, r4
 132 0040 FFF7FEFF 		bl	lv_obj_align
ARM GAS  /tmp/cc8Fr4n7.s 			page 10


 133              	.LVL11:
 134              		.loc 3 188 5 is_stmt 0 view .LVU22
 135              	.LBE17:
 136              	.LBE16:
  30:Middlewares/lvgl/examples/widgets/btn/lv_example_btn_1.c **** 
  31:Middlewares/lvgl/examples/widgets/btn/lv_example_btn_1.c ****     lv_obj_t * btn2 = lv_btn_create(lv_scr_act());
 137              		.loc 1 31 5 is_stmt 1 view .LVU23
 138              	.LBB18:
 139              	.LBI18:
 163:Middlewares/lvgl/examples/widgets/btn/../../../src/core/lv_disp.h **** {
 140              		.loc 2 163 26 view .LVU24
 141              	.LBB19:
 142              		.loc 2 165 5 view .LVU25
 143              		.loc 2 165 12 is_stmt 0 view .LVU26
 144 0044 FFF7FEFF 		bl	lv_disp_get_default
 145              	.LVL12:
 146 0048 FFF7FEFF 		bl	lv_disp_get_scr_act
 147              	.LVL13:
 148              	.LBE19:
 149              	.LBE18:
 150              		.loc 1 31 23 view .LVU27
 151 004c FFF7FEFF 		bl	lv_btn_create
 152              	.LVL14:
 153 0050 0446     		mov	r4, r0
 154              	.LVL15:
  32:Middlewares/lvgl/examples/widgets/btn/lv_example_btn_1.c ****     lv_obj_add_event_cb(btn2, event_handler, LV_EVENT_ALL, NULL);
 155              		.loc 1 32 5 is_stmt 1 view .LVU28
 156 0052 0023     		movs	r3, #0
 157 0054 1A46     		mov	r2, r3
 158 0056 2946     		mov	r1, r5
 159 0058 FFF7FEFF 		bl	lv_obj_add_event_cb
 160              	.LVL16:
  33:Middlewares/lvgl/examples/widgets/btn/lv_example_btn_1.c ****     lv_obj_align(btn2, LV_ALIGN_CENTER, 0, 40);
 161              		.loc 1 33 5 view .LVU29
 162 005c 2823     		movs	r3, #40
 163 005e 0022     		movs	r2, #0
 164 0060 0921     		movs	r1, #9
 165 0062 2046     		mov	r0, r4
 166 0064 FFF7FEFF 		bl	lv_obj_align
 167              	.LVL17:
  34:Middlewares/lvgl/examples/widgets/btn/lv_example_btn_1.c ****     lv_obj_add_flag(btn2, LV_OBJ_FLAG_CHECKABLE);
 168              		.loc 1 34 5 view .LVU30
 169 0068 0821     		movs	r1, #8
 170 006a 2046     		mov	r0, r4
 171 006c FFF7FEFF 		bl	lv_obj_add_flag
 172              	.LVL18:
  35:Middlewares/lvgl/examples/widgets/btn/lv_example_btn_1.c ****     lv_obj_set_height(btn2, LV_SIZE_CONTENT);
 173              		.loc 1 35 5 view .LVU31
 174 0070 42F2D171 		movw	r1, #10193
 175 0074 2046     		mov	r0, r4
 176 0076 FFF7FEFF 		bl	lv_obj_set_height
 177              	.LVL19:
  36:Middlewares/lvgl/examples/widgets/btn/lv_example_btn_1.c **** 
  37:Middlewares/lvgl/examples/widgets/btn/lv_example_btn_1.c ****     label = lv_label_create(btn2);
 178              		.loc 1 37 5 view .LVU32
 179              		.loc 1 37 13 is_stmt 0 view .LVU33
 180 007a 2046     		mov	r0, r4
ARM GAS  /tmp/cc8Fr4n7.s 			page 11


 181 007c FFF7FEFF 		bl	lv_label_create
 182              	.LVL20:
 183 0080 0446     		mov	r4, r0
 184              	.LVL21:
  38:Middlewares/lvgl/examples/widgets/btn/lv_example_btn_1.c ****     lv_label_set_text(label, "Toggle");
 185              		.loc 1 38 5 is_stmt 1 view .LVU34
 186 0082 0749     		ldr	r1, .L5+8
 187 0084 FFF7FEFF 		bl	lv_label_set_text
 188              	.LVL22:
  39:Middlewares/lvgl/examples/widgets/btn/lv_example_btn_1.c ****     lv_obj_center(label);
 189              		.loc 1 39 5 view .LVU35
 190              	.LBB20:
 191              	.LBI20:
 186:Middlewares/lvgl/examples/widgets/btn/../../../src/core/lv_obj_pos.h **** {
 192              		.loc 3 186 20 view .LVU36
 193              	.LBB21:
 194              		.loc 3 188 5 view .LVU37
 195 0088 0023     		movs	r3, #0
 196 008a 1A46     		mov	r2, r3
 197 008c 0921     		movs	r1, #9
 198 008e 2046     		mov	r0, r4
 199 0090 FFF7FEFF 		bl	lv_obj_align
 200              	.LVL23:
 201              		.loc 3 188 5 is_stmt 0 view .LVU38
 202              	.LBE21:
 203              	.LBE20:
  40:Middlewares/lvgl/examples/widgets/btn/lv_example_btn_1.c **** }
 204              		.loc 1 40 1 view .LVU39
 205 0094 38BD     		pop	{r3, r4, r5, pc}
 206              	.LVL24:
 207              	.L6:
 208              		.loc 1 40 1 view .LVU40
 209 0096 00BF     		.align	2
 210              	.L5:
 211 0098 00000000 		.word	event_handler
 212 009c 00000000 		.word	.LC0
 213 00a0 08000000 		.word	.LC1
 214              		.cfi_endproc
 215              	.LFE188:
 217              		.text
 218              	.Letext0:
 219              		.file 4 "/home/akinya/gcc-arm-none-eabi/arm-none-eabi/include/machine/_default_types.h"
 220              		.file 5 "/home/akinya/gcc-arm-none-eabi/arm-none-eabi/include/sys/_stdint.h"
 221              		.file 6 "Middlewares/lvgl/examples/widgets/btn/../../../src/misc/lv_ll.h"
 222              		.file 7 "Middlewares/lvgl/examples/widgets/btn/../../../src/hal/../misc/lv_color.h"
 223              		.file 8 "Middlewares/lvgl/examples/widgets/btn/../../../src/hal/../misc/lv_area.h"
 224              		.file 9 "Middlewares/lvgl/examples/widgets/btn/../../../src/core/lv_obj.h"
 225              		.file 10 "Middlewares/lvgl/examples/widgets/btn/../../../src/core/lv_group.h"
 226              		.file 11 "Middlewares/lvgl/examples/widgets/btn/../../../src/core/../misc/lv_style.h"
 227              		.file 12 "Middlewares/lvgl/examples/widgets/btn/../../../src/core/lv_obj_scroll.h"
 228              		.file 13 "Middlewares/lvgl/examples/widgets/btn/../../../src/core/lv_obj_style.h"
 229              		.file 14 "Middlewares/lvgl/examples/widgets/btn/../../../src/core/lv_obj_class.h"
 230              		.file 15 "Middlewares/lvgl/examples/widgets/btn/../../../src/core/lv_event.h"
 231              		.file 16 "Middlewares/lvgl/examples/widgets/btn/../../../src/hal/lv_hal_disp.h"
 232              		.file 17 "Middlewares/lvgl/examples/widgets/btn/../../../src/widgets/lv_btn.h"
 233              		.file 18 "Middlewares/lvgl/examples/widgets/btn/../../../src/widgets/lv_label.h"
ARM GAS  /tmp/cc8Fr4n7.s 			page 12

