ARM GAS  /tmp/ccpqnFgH.s 			page 1


   1              		.cpu cortex-m3
   2              		.eabi_attribute 20, 1
   3              		.eabi_attribute 21, 1
   4              		.eabi_attribute 23, 3
   5              		.eabi_attribute 24, 1
   6              		.eabi_attribute 25, 1
   7              		.eabi_attribute 26, 1
   8              		.eabi_attribute 30, 1
   9              		.eabi_attribute 34, 1
  10              		.eabi_attribute 18, 4
  11              		.file	"lv_example_btnmatrix_3.c"
  12              		.text
  13              	.Ltext0:
  14              		.cfi_sections	.debug_frame
  15              		.section	.text.event_cb,"ax",%progbits
  16              		.align	1
  17              		.arch armv7-m
  18              		.syntax unified
  19              		.thumb
  20              		.thumb_func
  21              		.fpu softvfp
  23              	event_cb:
  24              	.LVL0:
  25              	.LFB184:
  26              		.file 1 "Middlewares/lvgl/examples/widgets/btnmatrix/lv_example_btnmatrix_3.c"
   1:Middlewares/lvgl/examples/widgets/btnmatrix/lv_example_btnmatrix_3.c **** #include "../../lv_examples.h"
   2:Middlewares/lvgl/examples/widgets/btnmatrix/lv_example_btnmatrix_3.c **** #if LV_USE_BTNMATRIX  && LV_BUILD_EXAMPLES
   3:Middlewares/lvgl/examples/widgets/btnmatrix/lv_example_btnmatrix_3.c **** 
   4:Middlewares/lvgl/examples/widgets/btnmatrix/lv_example_btnmatrix_3.c **** static void event_cb(lv_event_t * e)
   5:Middlewares/lvgl/examples/widgets/btnmatrix/lv_example_btnmatrix_3.c **** {
  27              		.loc 1 5 1 view -0
  28              		.cfi_startproc
  29              		@ args = 0, pretend = 0, frame = 0
  30              		@ frame_needed = 0, uses_anonymous_args = 0
  31              		.loc 1 5 1 is_stmt 0 view .LVU1
  32 0000 70B5     		push	{r4, r5, r6, lr}
  33              	.LCFI0:
  34              		.cfi_def_cfa_offset 16
  35              		.cfi_offset 4, -16
  36              		.cfi_offset 5, -12
  37              		.cfi_offset 6, -8
  38              		.cfi_offset 14, -4
   6:Middlewares/lvgl/examples/widgets/btnmatrix/lv_example_btnmatrix_3.c ****     lv_obj_t * obj = lv_event_get_target(e);
  39              		.loc 1 6 5 is_stmt 1 view .LVU2
  40              		.loc 1 6 22 is_stmt 0 view .LVU3
  41 0002 FFF7FEFF 		bl	lv_event_get_target
  42              	.LVL1:
  43              		.loc 1 6 22 view .LVU4
  44 0006 0546     		mov	r5, r0
  45              	.LVL2:
   7:Middlewares/lvgl/examples/widgets/btnmatrix/lv_example_btnmatrix_3.c ****     uint32_t id = lv_btnmatrix_get_selected_btn(obj);
  46              		.loc 1 7 5 is_stmt 1 view .LVU5
  47              		.loc 1 7 19 is_stmt 0 view .LVU6
  48 0008 FFF7FEFF 		bl	lv_btnmatrix_get_selected_btn
  49              	.LVL3:
   8:Middlewares/lvgl/examples/widgets/btnmatrix/lv_example_btnmatrix_3.c ****     bool prev = id == 0 ? true : false;
  50              		.loc 1 8 5 is_stmt 1 view .LVU7
ARM GAS  /tmp/ccpqnFgH.s 			page 2


   9:Middlewares/lvgl/examples/widgets/btnmatrix/lv_example_btnmatrix_3.c ****     bool next = id == 6 ? true : false;
  51              		.loc 1 9 5 view .LVU8
  10:Middlewares/lvgl/examples/widgets/btnmatrix/lv_example_btnmatrix_3.c ****     if(prev || next) {
  52              		.loc 1 10 5 view .LVU9
  53              		.loc 1 10 7 is_stmt 0 view .LVU10
  54 000c 0646     		mov	r6, r0
  55 000e 18B1     		cbz	r0, .L9
  56              		.loc 1 10 13 discriminator 1 view .LVU11
  57 0010 0628     		cmp	r0, #6
  58 0012 18D1     		bne	.L1
  59 0014 0124     		movs	r4, #1
  60 0016 00E0     		b	.L5
  61              	.L9:
  62 0018 0124     		movs	r4, #1
  63              	.LVL4:
  64              	.L5:
  65              	.LBB4:
  11:Middlewares/lvgl/examples/widgets/btnmatrix/lv_example_btnmatrix_3.c ****         /*Find the checked button*/
  12:Middlewares/lvgl/examples/widgets/btnmatrix/lv_example_btnmatrix_3.c ****         uint32_t i;
  13:Middlewares/lvgl/examples/widgets/btnmatrix/lv_example_btnmatrix_3.c ****         for(i = 1; i < 7; i++) {
  66              		.loc 1 13 20 is_stmt 1 discriminator 1 view .LVU12
  67              		.loc 1 13 9 is_stmt 0 discriminator 1 view .LVU13
  68 001a 062C     		cmp	r4, #6
  69 001c 07D8     		bhi	.L4
  14:Middlewares/lvgl/examples/widgets/btnmatrix/lv_example_btnmatrix_3.c ****             if(lv_btnmatrix_has_btn_ctrl(obj, i, LV_BTNMATRIX_CTRL_CHECKED)) break;
  70              		.loc 1 14 13 is_stmt 1 view .LVU14
  71              		.loc 1 14 16 is_stmt 0 view .LVU15
  72 001e 8022     		movs	r2, #128
  73 0020 A1B2     		uxth	r1, r4
  74 0022 2846     		mov	r0, r5
  75 0024 FFF7FEFF 		bl	lv_btnmatrix_has_btn_ctrl
  76              	.LVL5:
  77              		.loc 1 14 15 view .LVU16
  78 0028 08B9     		cbnz	r0, .L4
  13:Middlewares/lvgl/examples/widgets/btnmatrix/lv_example_btnmatrix_3.c ****             if(lv_btnmatrix_has_btn_ctrl(obj, i, LV_BTNMATRIX_CTRL_CHECKED)) break;
  79              		.loc 1 13 27 is_stmt 1 discriminator 2 view .LVU17
  13:Middlewares/lvgl/examples/widgets/btnmatrix/lv_example_btnmatrix_3.c ****             if(lv_btnmatrix_has_btn_ctrl(obj, i, LV_BTNMATRIX_CTRL_CHECKED)) break;
  80              		.loc 1 13 28 is_stmt 0 discriminator 2 view .LVU18
  81 002a 0134     		adds	r4, r4, #1
  82              	.LVL6:
  13:Middlewares/lvgl/examples/widgets/btnmatrix/lv_example_btnmatrix_3.c ****             if(lv_btnmatrix_has_btn_ctrl(obj, i, LV_BTNMATRIX_CTRL_CHECKED)) break;
  83              		.loc 1 13 28 discriminator 2 view .LVU19
  84 002c F5E7     		b	.L5
  85              	.L4:
  15:Middlewares/lvgl/examples/widgets/btnmatrix/lv_example_btnmatrix_3.c ****         }
  16:Middlewares/lvgl/examples/widgets/btnmatrix/lv_example_btnmatrix_3.c **** 
  17:Middlewares/lvgl/examples/widgets/btnmatrix/lv_example_btnmatrix_3.c ****         if(prev && i > 1) i--;
  86              		.loc 1 17 9 is_stmt 1 view .LVU20
  87              		.loc 1 17 11 is_stmt 0 view .LVU21
  88 002e 1EB9     		cbnz	r6, .L7
  89              		.loc 1 17 17 discriminator 1 view .LVU22
  90 0030 012C     		cmp	r4, #1
  91 0032 01D9     		bls	.L7
  92              		.loc 1 17 27 is_stmt 1 discriminator 2 view .LVU23
  93              		.loc 1 17 28 is_stmt 0 discriminator 2 view .LVU24
  94 0034 013C     		subs	r4, r4, #1
  95              	.LVL7:
ARM GAS  /tmp/ccpqnFgH.s 			page 3


  96              		.loc 1 17 28 discriminator 2 view .LVU25
  97 0036 01E0     		b	.L8
  98              	.L7:
  18:Middlewares/lvgl/examples/widgets/btnmatrix/lv_example_btnmatrix_3.c ****         else if(next && i < 5) i++;
  99              		.loc 1 18 14 is_stmt 1 view .LVU26
 100              		.loc 1 18 16 is_stmt 0 view .LVU27
 101 0038 062E     		cmp	r6, #6
 102 003a 05D0     		beq	.L12
 103              	.L8:
  19:Middlewares/lvgl/examples/widgets/btnmatrix/lv_example_btnmatrix_3.c **** 
  20:Middlewares/lvgl/examples/widgets/btnmatrix/lv_example_btnmatrix_3.c ****         lv_btnmatrix_set_btn_ctrl(obj, i, LV_BTNMATRIX_CTRL_CHECKED);
 104              		.loc 1 20 9 is_stmt 1 view .LVU28
 105 003c 8022     		movs	r2, #128
 106 003e A1B2     		uxth	r1, r4
 107 0040 2846     		mov	r0, r5
 108 0042 FFF7FEFF 		bl	lv_btnmatrix_set_btn_ctrl
 109              	.LVL8:
 110              	.L1:
 111              		.loc 1 20 9 is_stmt 0 view .LVU29
 112              	.LBE4:
  21:Middlewares/lvgl/examples/widgets/btnmatrix/lv_example_btnmatrix_3.c ****     }
  22:Middlewares/lvgl/examples/widgets/btnmatrix/lv_example_btnmatrix_3.c **** }
 113              		.loc 1 22 1 view .LVU30
 114 0046 70BD     		pop	{r4, r5, r6, pc}
 115              	.LVL9:
 116              	.L12:
 117              	.LBB5:
  18:Middlewares/lvgl/examples/widgets/btnmatrix/lv_example_btnmatrix_3.c **** 
 118              		.loc 1 18 22 discriminator 1 view .LVU31
 119 0048 042C     		cmp	r4, #4
 120 004a F7D8     		bhi	.L8
  18:Middlewares/lvgl/examples/widgets/btnmatrix/lv_example_btnmatrix_3.c **** 
 121              		.loc 1 18 32 is_stmt 1 discriminator 2 view .LVU32
  18:Middlewares/lvgl/examples/widgets/btnmatrix/lv_example_btnmatrix_3.c **** 
 122              		.loc 1 18 33 is_stmt 0 discriminator 2 view .LVU33
 123 004c 0134     		adds	r4, r4, #1
 124              	.LVL10:
  18:Middlewares/lvgl/examples/widgets/btnmatrix/lv_example_btnmatrix_3.c **** 
 125              		.loc 1 18 33 discriminator 2 view .LVU34
 126 004e F5E7     		b	.L8
 127              	.LBE5:
 128              		.cfi_endproc
 129              	.LFE184:
 131              		.section	.text.lv_example_btnmatrix_3,"ax",%progbits
 132              		.align	1
 133              		.global	lv_example_btnmatrix_3
 134              		.syntax unified
 135              		.thumb
 136              		.thumb_func
 137              		.fpu softvfp
 139              	lv_example_btnmatrix_3:
 140              	.LFB185:
  23:Middlewares/lvgl/examples/widgets/btnmatrix/lv_example_btnmatrix_3.c **** 
  24:Middlewares/lvgl/examples/widgets/btnmatrix/lv_example_btnmatrix_3.c **** /**
  25:Middlewares/lvgl/examples/widgets/btnmatrix/lv_example_btnmatrix_3.c ****  * Make a button group (pagination)
  26:Middlewares/lvgl/examples/widgets/btnmatrix/lv_example_btnmatrix_3.c ****  */
  27:Middlewares/lvgl/examples/widgets/btnmatrix/lv_example_btnmatrix_3.c **** void lv_example_btnmatrix_3(void)
ARM GAS  /tmp/ccpqnFgH.s 			page 4


  28:Middlewares/lvgl/examples/widgets/btnmatrix/lv_example_btnmatrix_3.c **** {
 141              		.loc 1 28 1 is_stmt 1 view -0
 142              		.cfi_startproc
 143              		@ args = 0, pretend = 0, frame = 0
 144              		@ frame_needed = 0, uses_anonymous_args = 0
 145 0000 70B5     		push	{r4, r5, r6, lr}
 146              	.LCFI1:
 147              		.cfi_def_cfa_offset 16
 148              		.cfi_offset 4, -16
 149              		.cfi_offset 5, -12
 150              		.cfi_offset 6, -8
 151              		.cfi_offset 14, -4
  29:Middlewares/lvgl/examples/widgets/btnmatrix/lv_example_btnmatrix_3.c ****     static lv_style_t style_bg;
 152              		.loc 1 29 5 view .LVU36
  30:Middlewares/lvgl/examples/widgets/btnmatrix/lv_example_btnmatrix_3.c ****     lv_style_init(&style_bg);
 153              		.loc 1 30 5 view .LVU37
 154 0002 434D     		ldr	r5, .L15
 155 0004 2846     		mov	r0, r5
 156 0006 FFF7FEFF 		bl	lv_style_init
 157              	.LVL11:
  31:Middlewares/lvgl/examples/widgets/btnmatrix/lv_example_btnmatrix_3.c ****     lv_style_set_pad_all(&style_bg, 0);
 158              		.loc 1 31 5 view .LVU38
 159              	.LBB14:
 160              	.LBI14:
 161              		.file 2 "Middlewares/lvgl/examples/widgets/btnmatrix/../../../src/core/../misc/lv_style.h"
   1:Middlewares/lvgl/examples/widgets/btnmatrix/../../../src/core/../misc/lv_style.h **** /**
   2:Middlewares/lvgl/examples/widgets/btnmatrix/../../../src/core/../misc/lv_style.h ****  * @file lv_style.h
   3:Middlewares/lvgl/examples/widgets/btnmatrix/../../../src/core/../misc/lv_style.h ****  *
   4:Middlewares/lvgl/examples/widgets/btnmatrix/../../../src/core/../misc/lv_style.h ****  */
   5:Middlewares/lvgl/examples/widgets/btnmatrix/../../../src/core/../misc/lv_style.h **** 
   6:Middlewares/lvgl/examples/widgets/btnmatrix/../../../src/core/../misc/lv_style.h **** #ifndef LV_STYLE_H
   7:Middlewares/lvgl/examples/widgets/btnmatrix/../../../src/core/../misc/lv_style.h **** #define LV_STYLE_H
   8:Middlewares/lvgl/examples/widgets/btnmatrix/../../../src/core/../misc/lv_style.h **** 
   9:Middlewares/lvgl/examples/widgets/btnmatrix/../../../src/core/../misc/lv_style.h **** #ifdef __cplusplus
  10:Middlewares/lvgl/examples/widgets/btnmatrix/../../../src/core/../misc/lv_style.h **** extern "C" {
  11:Middlewares/lvgl/examples/widgets/btnmatrix/../../../src/core/../misc/lv_style.h **** #endif
  12:Middlewares/lvgl/examples/widgets/btnmatrix/../../../src/core/../misc/lv_style.h **** 
  13:Middlewares/lvgl/examples/widgets/btnmatrix/../../../src/core/../misc/lv_style.h **** /*********************
  14:Middlewares/lvgl/examples/widgets/btnmatrix/../../../src/core/../misc/lv_style.h ****  *      INCLUDES
  15:Middlewares/lvgl/examples/widgets/btnmatrix/../../../src/core/../misc/lv_style.h ****  *********************/
  16:Middlewares/lvgl/examples/widgets/btnmatrix/../../../src/core/../misc/lv_style.h **** #include <stdbool.h>
  17:Middlewares/lvgl/examples/widgets/btnmatrix/../../../src/core/../misc/lv_style.h **** #include "../font/lv_font.h"
  18:Middlewares/lvgl/examples/widgets/btnmatrix/../../../src/core/../misc/lv_style.h **** #include "lv_color.h"
  19:Middlewares/lvgl/examples/widgets/btnmatrix/../../../src/core/../misc/lv_style.h **** #include "lv_area.h"
  20:Middlewares/lvgl/examples/widgets/btnmatrix/../../../src/core/../misc/lv_style.h **** #include "lv_anim.h"
  21:Middlewares/lvgl/examples/widgets/btnmatrix/../../../src/core/../misc/lv_style.h **** #include "lv_txt.h"
  22:Middlewares/lvgl/examples/widgets/btnmatrix/../../../src/core/../misc/lv_style.h **** #include "lv_types.h"
  23:Middlewares/lvgl/examples/widgets/btnmatrix/../../../src/core/../misc/lv_style.h **** #include "lv_assert.h"
  24:Middlewares/lvgl/examples/widgets/btnmatrix/../../../src/core/../misc/lv_style.h **** #include "lv_bidi.h"
  25:Middlewares/lvgl/examples/widgets/btnmatrix/../../../src/core/../misc/lv_style.h **** 
  26:Middlewares/lvgl/examples/widgets/btnmatrix/../../../src/core/../misc/lv_style.h **** /*********************
  27:Middlewares/lvgl/examples/widgets/btnmatrix/../../../src/core/../misc/lv_style.h ****  *      DEFINES
  28:Middlewares/lvgl/examples/widgets/btnmatrix/../../../src/core/../misc/lv_style.h ****  *********************/
  29:Middlewares/lvgl/examples/widgets/btnmatrix/../../../src/core/../misc/lv_style.h **** 
  30:Middlewares/lvgl/examples/widgets/btnmatrix/../../../src/core/../misc/lv_style.h **** #define LV_STYLE_SENTINEL_VALUE     0xAABBCCDD
  31:Middlewares/lvgl/examples/widgets/btnmatrix/../../../src/core/../misc/lv_style.h **** 
  32:Middlewares/lvgl/examples/widgets/btnmatrix/../../../src/core/../misc/lv_style.h **** /**
ARM GAS  /tmp/ccpqnFgH.s 			page 5


  33:Middlewares/lvgl/examples/widgets/btnmatrix/../../../src/core/../misc/lv_style.h ****  * Flags for style properties
  34:Middlewares/lvgl/examples/widgets/btnmatrix/../../../src/core/../misc/lv_style.h ****  */
  35:Middlewares/lvgl/examples/widgets/btnmatrix/../../../src/core/../misc/lv_style.h **** #define LV_STYLE_PROP_INHERIT               (1 << 10)  /*Inherited*/
  36:Middlewares/lvgl/examples/widgets/btnmatrix/../../../src/core/../misc/lv_style.h **** #define LV_STYLE_PROP_EXT_DRAW              (1 << 11)  /*Requires ext. draw size update when change
  37:Middlewares/lvgl/examples/widgets/btnmatrix/../../../src/core/../misc/lv_style.h **** #define LV_STYLE_PROP_LAYOUT_REFR           (1 << 12)  /*Requires layout update when changed*/
  38:Middlewares/lvgl/examples/widgets/btnmatrix/../../../src/core/../misc/lv_style.h **** #define LV_STYLE_PROP_PARENT_LAYOUT_REFR    (1 << 13)  /*Requires layout update on parent when chan
  39:Middlewares/lvgl/examples/widgets/btnmatrix/../../../src/core/../misc/lv_style.h **** #define LV_STYLE_PROP_FILTER                (1 << 14)  /*Apply color filter*/
  40:Middlewares/lvgl/examples/widgets/btnmatrix/../../../src/core/../misc/lv_style.h **** 
  41:Middlewares/lvgl/examples/widgets/btnmatrix/../../../src/core/../misc/lv_style.h **** /**
  42:Middlewares/lvgl/examples/widgets/btnmatrix/../../../src/core/../misc/lv_style.h ****  * Other constants
  43:Middlewares/lvgl/examples/widgets/btnmatrix/../../../src/core/../misc/lv_style.h ****  */
  44:Middlewares/lvgl/examples/widgets/btnmatrix/../../../src/core/../misc/lv_style.h **** #define LV_IMG_ZOOM_NONE            256        /*Value for not zooming the image*/
  45:Middlewares/lvgl/examples/widgets/btnmatrix/../../../src/core/../misc/lv_style.h **** LV_EXPORT_CONST_INT(LV_IMG_ZOOM_NONE);
  46:Middlewares/lvgl/examples/widgets/btnmatrix/../../../src/core/../misc/lv_style.h **** 
  47:Middlewares/lvgl/examples/widgets/btnmatrix/../../../src/core/../misc/lv_style.h **** #if LV_USE_ASSERT_STYLE
  48:Middlewares/lvgl/examples/widgets/btnmatrix/../../../src/core/../misc/lv_style.h **** #define LV_STYLE_CONST_INIT(var_name, prop_array) const lv_style_t var_name = { .sentinel = LV_STYL
  49:Middlewares/lvgl/examples/widgets/btnmatrix/../../../src/core/../misc/lv_style.h **** #else
  50:Middlewares/lvgl/examples/widgets/btnmatrix/../../../src/core/../misc/lv_style.h **** #define LV_STYLE_CONST_INIT(var_name, prop_array) const lv_style_t var_name = { .v_p = { .const_pro
  51:Middlewares/lvgl/examples/widgets/btnmatrix/../../../src/core/../misc/lv_style.h **** #endif
  52:Middlewares/lvgl/examples/widgets/btnmatrix/../../../src/core/../misc/lv_style.h **** 
  53:Middlewares/lvgl/examples/widgets/btnmatrix/../../../src/core/../misc/lv_style.h **** /**********************
  54:Middlewares/lvgl/examples/widgets/btnmatrix/../../../src/core/../misc/lv_style.h ****  *      TYPEDEFS
  55:Middlewares/lvgl/examples/widgets/btnmatrix/../../../src/core/../misc/lv_style.h ****  **********************/
  56:Middlewares/lvgl/examples/widgets/btnmatrix/../../../src/core/../misc/lv_style.h **** 
  57:Middlewares/lvgl/examples/widgets/btnmatrix/../../../src/core/../misc/lv_style.h **** /**
  58:Middlewares/lvgl/examples/widgets/btnmatrix/../../../src/core/../misc/lv_style.h ****  * Possible options how to blend opaque drawings
  59:Middlewares/lvgl/examples/widgets/btnmatrix/../../../src/core/../misc/lv_style.h ****  */
  60:Middlewares/lvgl/examples/widgets/btnmatrix/../../../src/core/../misc/lv_style.h **** enum {
  61:Middlewares/lvgl/examples/widgets/btnmatrix/../../../src/core/../misc/lv_style.h ****     LV_BLEND_MODE_NORMAL,     /**< Simply mix according to the opacity value*/
  62:Middlewares/lvgl/examples/widgets/btnmatrix/../../../src/core/../misc/lv_style.h ****     LV_BLEND_MODE_ADDITIVE,   /**< Add the respective color channels*/
  63:Middlewares/lvgl/examples/widgets/btnmatrix/../../../src/core/../misc/lv_style.h ****     LV_BLEND_MODE_SUBTRACTIVE,/**< Subtract the foreground from the background*/
  64:Middlewares/lvgl/examples/widgets/btnmatrix/../../../src/core/../misc/lv_style.h **** };
  65:Middlewares/lvgl/examples/widgets/btnmatrix/../../../src/core/../misc/lv_style.h **** 
  66:Middlewares/lvgl/examples/widgets/btnmatrix/../../../src/core/../misc/lv_style.h **** typedef uint8_t lv_blend_mode_t;
  67:Middlewares/lvgl/examples/widgets/btnmatrix/../../../src/core/../misc/lv_style.h **** 
  68:Middlewares/lvgl/examples/widgets/btnmatrix/../../../src/core/../misc/lv_style.h **** /**
  69:Middlewares/lvgl/examples/widgets/btnmatrix/../../../src/core/../misc/lv_style.h ****  * Some options to apply decorations on texts.
  70:Middlewares/lvgl/examples/widgets/btnmatrix/../../../src/core/../misc/lv_style.h ****  * 'OR'ed values can be used.
  71:Middlewares/lvgl/examples/widgets/btnmatrix/../../../src/core/../misc/lv_style.h ****  */
  72:Middlewares/lvgl/examples/widgets/btnmatrix/../../../src/core/../misc/lv_style.h **** enum {
  73:Middlewares/lvgl/examples/widgets/btnmatrix/../../../src/core/../misc/lv_style.h ****     LV_TEXT_DECOR_NONE          = 0x00,
  74:Middlewares/lvgl/examples/widgets/btnmatrix/../../../src/core/../misc/lv_style.h ****     LV_TEXT_DECOR_UNDERLINE     = 0x01,
  75:Middlewares/lvgl/examples/widgets/btnmatrix/../../../src/core/../misc/lv_style.h ****     LV_TEXT_DECOR_STRIKETHROUGH = 0x02,
  76:Middlewares/lvgl/examples/widgets/btnmatrix/../../../src/core/../misc/lv_style.h **** };
  77:Middlewares/lvgl/examples/widgets/btnmatrix/../../../src/core/../misc/lv_style.h **** 
  78:Middlewares/lvgl/examples/widgets/btnmatrix/../../../src/core/../misc/lv_style.h **** typedef uint8_t lv_text_decor_t;
  79:Middlewares/lvgl/examples/widgets/btnmatrix/../../../src/core/../misc/lv_style.h **** 
  80:Middlewares/lvgl/examples/widgets/btnmatrix/../../../src/core/../misc/lv_style.h **** /**
  81:Middlewares/lvgl/examples/widgets/btnmatrix/../../../src/core/../misc/lv_style.h ****  * Selects on which sides border should be drawn
  82:Middlewares/lvgl/examples/widgets/btnmatrix/../../../src/core/../misc/lv_style.h ****  * 'OR'ed values can be used.
  83:Middlewares/lvgl/examples/widgets/btnmatrix/../../../src/core/../misc/lv_style.h ****  */
  84:Middlewares/lvgl/examples/widgets/btnmatrix/../../../src/core/../misc/lv_style.h **** enum {
  85:Middlewares/lvgl/examples/widgets/btnmatrix/../../../src/core/../misc/lv_style.h ****     LV_BORDER_SIDE_NONE     = 0x00,
  86:Middlewares/lvgl/examples/widgets/btnmatrix/../../../src/core/../misc/lv_style.h ****     LV_BORDER_SIDE_BOTTOM   = 0x01,
  87:Middlewares/lvgl/examples/widgets/btnmatrix/../../../src/core/../misc/lv_style.h ****     LV_BORDER_SIDE_TOP      = 0x02,
  88:Middlewares/lvgl/examples/widgets/btnmatrix/../../../src/core/../misc/lv_style.h ****     LV_BORDER_SIDE_LEFT     = 0x04,
  89:Middlewares/lvgl/examples/widgets/btnmatrix/../../../src/core/../misc/lv_style.h ****     LV_BORDER_SIDE_RIGHT    = 0x08,
ARM GAS  /tmp/ccpqnFgH.s 			page 6


  90:Middlewares/lvgl/examples/widgets/btnmatrix/../../../src/core/../misc/lv_style.h ****     LV_BORDER_SIDE_FULL     = 0x0F,
  91:Middlewares/lvgl/examples/widgets/btnmatrix/../../../src/core/../misc/lv_style.h ****     LV_BORDER_SIDE_INTERNAL = 0x10, /**< FOR matrix-like objects (e.g. Button matrix)*/
  92:Middlewares/lvgl/examples/widgets/btnmatrix/../../../src/core/../misc/lv_style.h **** };
  93:Middlewares/lvgl/examples/widgets/btnmatrix/../../../src/core/../misc/lv_style.h **** typedef uint8_t lv_border_side_t;
  94:Middlewares/lvgl/examples/widgets/btnmatrix/../../../src/core/../misc/lv_style.h **** 
  95:Middlewares/lvgl/examples/widgets/btnmatrix/../../../src/core/../misc/lv_style.h **** /**
  96:Middlewares/lvgl/examples/widgets/btnmatrix/../../../src/core/../misc/lv_style.h ****  * The direction of the gradient.
  97:Middlewares/lvgl/examples/widgets/btnmatrix/../../../src/core/../misc/lv_style.h ****  */
  98:Middlewares/lvgl/examples/widgets/btnmatrix/../../../src/core/../misc/lv_style.h **** enum {
  99:Middlewares/lvgl/examples/widgets/btnmatrix/../../../src/core/../misc/lv_style.h ****     LV_GRAD_DIR_NONE, /**< No gradient (the `grad_color` property is ignored)*/
 100:Middlewares/lvgl/examples/widgets/btnmatrix/../../../src/core/../misc/lv_style.h ****     LV_GRAD_DIR_VER,  /**< Vertical (top to bottom) gradient*/
 101:Middlewares/lvgl/examples/widgets/btnmatrix/../../../src/core/../misc/lv_style.h ****     LV_GRAD_DIR_HOR,  /**< Horizontal (left to right) gradient*/
 102:Middlewares/lvgl/examples/widgets/btnmatrix/../../../src/core/../misc/lv_style.h **** };
 103:Middlewares/lvgl/examples/widgets/btnmatrix/../../../src/core/../misc/lv_style.h **** 
 104:Middlewares/lvgl/examples/widgets/btnmatrix/../../../src/core/../misc/lv_style.h **** typedef uint8_t lv_grad_dir_t;
 105:Middlewares/lvgl/examples/widgets/btnmatrix/../../../src/core/../misc/lv_style.h **** 
 106:Middlewares/lvgl/examples/widgets/btnmatrix/../../../src/core/../misc/lv_style.h **** /**
 107:Middlewares/lvgl/examples/widgets/btnmatrix/../../../src/core/../misc/lv_style.h ****  * A common type to handle all the property types in the same way.
 108:Middlewares/lvgl/examples/widgets/btnmatrix/../../../src/core/../misc/lv_style.h ****  */
 109:Middlewares/lvgl/examples/widgets/btnmatrix/../../../src/core/../misc/lv_style.h **** typedef union {
 110:Middlewares/lvgl/examples/widgets/btnmatrix/../../../src/core/../misc/lv_style.h ****     int32_t num;         /**< Number integer number (opacity, enums, booleans or "normal" numbers)*
 111:Middlewares/lvgl/examples/widgets/btnmatrix/../../../src/core/../misc/lv_style.h ****     const void * ptr;    /**< Constant pointers  (font, cone text, etc)*/
 112:Middlewares/lvgl/examples/widgets/btnmatrix/../../../src/core/../misc/lv_style.h ****     lv_color_t color;    /**< Colors*/
 113:Middlewares/lvgl/examples/widgets/btnmatrix/../../../src/core/../misc/lv_style.h **** }lv_style_value_t;
 114:Middlewares/lvgl/examples/widgets/btnmatrix/../../../src/core/../misc/lv_style.h **** 
 115:Middlewares/lvgl/examples/widgets/btnmatrix/../../../src/core/../misc/lv_style.h **** /**
 116:Middlewares/lvgl/examples/widgets/btnmatrix/../../../src/core/../misc/lv_style.h ****  * Enumeration of all built in style properties
 117:Middlewares/lvgl/examples/widgets/btnmatrix/../../../src/core/../misc/lv_style.h ****  */
 118:Middlewares/lvgl/examples/widgets/btnmatrix/../../../src/core/../misc/lv_style.h **** typedef enum {
 119:Middlewares/lvgl/examples/widgets/btnmatrix/../../../src/core/../misc/lv_style.h ****     LV_STYLE_PROP_INV                = 0,
 120:Middlewares/lvgl/examples/widgets/btnmatrix/../../../src/core/../misc/lv_style.h **** 
 121:Middlewares/lvgl/examples/widgets/btnmatrix/../../../src/core/../misc/lv_style.h ****     /*Group 0*/
 122:Middlewares/lvgl/examples/widgets/btnmatrix/../../../src/core/../misc/lv_style.h ****     LV_STYLE_WIDTH                   = 1 | LV_STYLE_PROP_LAYOUT_REFR,
 123:Middlewares/lvgl/examples/widgets/btnmatrix/../../../src/core/../misc/lv_style.h ****     LV_STYLE_MIN_WIDTH               = 2 | LV_STYLE_PROP_LAYOUT_REFR,
 124:Middlewares/lvgl/examples/widgets/btnmatrix/../../../src/core/../misc/lv_style.h ****     LV_STYLE_MAX_WIDTH               = 3 | LV_STYLE_PROP_LAYOUT_REFR,
 125:Middlewares/lvgl/examples/widgets/btnmatrix/../../../src/core/../misc/lv_style.h ****     LV_STYLE_HEIGHT                  = 4 | LV_STYLE_PROP_LAYOUT_REFR,
 126:Middlewares/lvgl/examples/widgets/btnmatrix/../../../src/core/../misc/lv_style.h ****     LV_STYLE_MIN_HEIGHT              = 5 | LV_STYLE_PROP_LAYOUT_REFR,
 127:Middlewares/lvgl/examples/widgets/btnmatrix/../../../src/core/../misc/lv_style.h ****     LV_STYLE_MAX_HEIGHT              = 6 | LV_STYLE_PROP_LAYOUT_REFR,
 128:Middlewares/lvgl/examples/widgets/btnmatrix/../../../src/core/../misc/lv_style.h ****     LV_STYLE_X                       = 7 | LV_STYLE_PROP_LAYOUT_REFR,
 129:Middlewares/lvgl/examples/widgets/btnmatrix/../../../src/core/../misc/lv_style.h ****     LV_STYLE_Y                       = 8 | LV_STYLE_PROP_LAYOUT_REFR,
 130:Middlewares/lvgl/examples/widgets/btnmatrix/../../../src/core/../misc/lv_style.h ****     LV_STYLE_ALIGN                   = 9 | LV_STYLE_PROP_LAYOUT_REFR,
 131:Middlewares/lvgl/examples/widgets/btnmatrix/../../../src/core/../misc/lv_style.h ****     LV_STYLE_TRANSFORM_WIDTH         = 10 | LV_STYLE_PROP_EXT_DRAW,
 132:Middlewares/lvgl/examples/widgets/btnmatrix/../../../src/core/../misc/lv_style.h ****     LV_STYLE_TRANSFORM_HEIGHT        = 11 | LV_STYLE_PROP_EXT_DRAW,
 133:Middlewares/lvgl/examples/widgets/btnmatrix/../../../src/core/../misc/lv_style.h ****     LV_STYLE_TRANSLATE_X             = 12 | LV_STYLE_PROP_LAYOUT_REFR | LV_STYLE_PROP_PARENT_LAYOUT
 134:Middlewares/lvgl/examples/widgets/btnmatrix/../../../src/core/../misc/lv_style.h ****     LV_STYLE_TRANSLATE_Y             = 13 | LV_STYLE_PROP_LAYOUT_REFR | LV_STYLE_PROP_PARENT_LAYOUT
 135:Middlewares/lvgl/examples/widgets/btnmatrix/../../../src/core/../misc/lv_style.h ****     LV_STYLE_TRANSFORM_ZOOM          = 14 | LV_STYLE_PROP_EXT_DRAW,
 136:Middlewares/lvgl/examples/widgets/btnmatrix/../../../src/core/../misc/lv_style.h ****     LV_STYLE_TRANSFORM_ANGLE         = 15 | LV_STYLE_PROP_EXT_DRAW,
 137:Middlewares/lvgl/examples/widgets/btnmatrix/../../../src/core/../misc/lv_style.h **** 
 138:Middlewares/lvgl/examples/widgets/btnmatrix/../../../src/core/../misc/lv_style.h ****     /*Group 1*/
 139:Middlewares/lvgl/examples/widgets/btnmatrix/../../../src/core/../misc/lv_style.h ****     LV_STYLE_PAD_TOP                 = 16 | LV_STYLE_PROP_LAYOUT_REFR,
 140:Middlewares/lvgl/examples/widgets/btnmatrix/../../../src/core/../misc/lv_style.h ****     LV_STYLE_PAD_BOTTOM              = 17 | LV_STYLE_PROP_LAYOUT_REFR,
 141:Middlewares/lvgl/examples/widgets/btnmatrix/../../../src/core/../misc/lv_style.h ****     LV_STYLE_PAD_LEFT                = 18 | LV_STYLE_PROP_LAYOUT_REFR,
 142:Middlewares/lvgl/examples/widgets/btnmatrix/../../../src/core/../misc/lv_style.h ****     LV_STYLE_PAD_RIGHT               = 19 | LV_STYLE_PROP_LAYOUT_REFR,
 143:Middlewares/lvgl/examples/widgets/btnmatrix/../../../src/core/../misc/lv_style.h ****     LV_STYLE_PAD_ROW                 = 20 | LV_STYLE_PROP_LAYOUT_REFR,
 144:Middlewares/lvgl/examples/widgets/btnmatrix/../../../src/core/../misc/lv_style.h ****     LV_STYLE_PAD_COLUMN              = 21 | LV_STYLE_PROP_LAYOUT_REFR,
 145:Middlewares/lvgl/examples/widgets/btnmatrix/../../../src/core/../misc/lv_style.h **** 
 146:Middlewares/lvgl/examples/widgets/btnmatrix/../../../src/core/../misc/lv_style.h ****     /*Group 2*/
ARM GAS  /tmp/ccpqnFgH.s 			page 7


 147:Middlewares/lvgl/examples/widgets/btnmatrix/../../../src/core/../misc/lv_style.h ****     LV_STYLE_BG_COLOR                = 32,
 148:Middlewares/lvgl/examples/widgets/btnmatrix/../../../src/core/../misc/lv_style.h ****     LV_STYLE_BG_COLOR_FILTERED       = 32 | LV_STYLE_PROP_FILTER,
 149:Middlewares/lvgl/examples/widgets/btnmatrix/../../../src/core/../misc/lv_style.h ****     LV_STYLE_BG_OPA                  = 33,
 150:Middlewares/lvgl/examples/widgets/btnmatrix/../../../src/core/../misc/lv_style.h ****     LV_STYLE_BG_GRAD_COLOR           = 34,
 151:Middlewares/lvgl/examples/widgets/btnmatrix/../../../src/core/../misc/lv_style.h ****     LV_STYLE_BG_GRAD_COLOR_FILTERED  = 34 | LV_STYLE_PROP_FILTER,
 152:Middlewares/lvgl/examples/widgets/btnmatrix/../../../src/core/../misc/lv_style.h ****     LV_STYLE_BG_GRAD_DIR             = 35,
 153:Middlewares/lvgl/examples/widgets/btnmatrix/../../../src/core/../misc/lv_style.h ****     LV_STYLE_BG_MAIN_STOP            = 36,
 154:Middlewares/lvgl/examples/widgets/btnmatrix/../../../src/core/../misc/lv_style.h ****     LV_STYLE_BG_GRAD_STOP            = 37,
 155:Middlewares/lvgl/examples/widgets/btnmatrix/../../../src/core/../misc/lv_style.h **** 
 156:Middlewares/lvgl/examples/widgets/btnmatrix/../../../src/core/../misc/lv_style.h ****     LV_STYLE_BG_IMG_SRC              = 38,
 157:Middlewares/lvgl/examples/widgets/btnmatrix/../../../src/core/../misc/lv_style.h ****     LV_STYLE_BG_IMG_OPA              = 39,
 158:Middlewares/lvgl/examples/widgets/btnmatrix/../../../src/core/../misc/lv_style.h ****     LV_STYLE_BG_IMG_RECOLOR          = 40,
 159:Middlewares/lvgl/examples/widgets/btnmatrix/../../../src/core/../misc/lv_style.h ****     LV_STYLE_BG_IMG_RECOLOR_FILTERED = 40 | LV_STYLE_PROP_FILTER,
 160:Middlewares/lvgl/examples/widgets/btnmatrix/../../../src/core/../misc/lv_style.h ****     LV_STYLE_BG_IMG_RECOLOR_OPA      = 41,
 161:Middlewares/lvgl/examples/widgets/btnmatrix/../../../src/core/../misc/lv_style.h ****     LV_STYLE_BG_IMG_TILED            = 42,
 162:Middlewares/lvgl/examples/widgets/btnmatrix/../../../src/core/../misc/lv_style.h **** 
 163:Middlewares/lvgl/examples/widgets/btnmatrix/../../../src/core/../misc/lv_style.h ****     /*Group 3*/
 164:Middlewares/lvgl/examples/widgets/btnmatrix/../../../src/core/../misc/lv_style.h ****     LV_STYLE_BORDER_COLOR            = 48,
 165:Middlewares/lvgl/examples/widgets/btnmatrix/../../../src/core/../misc/lv_style.h ****     LV_STYLE_BORDER_COLOR_FILTERED   = 48 | LV_STYLE_PROP_FILTER,
 166:Middlewares/lvgl/examples/widgets/btnmatrix/../../../src/core/../misc/lv_style.h ****     LV_STYLE_BORDER_OPA              = 49,
 167:Middlewares/lvgl/examples/widgets/btnmatrix/../../../src/core/../misc/lv_style.h ****     LV_STYLE_BORDER_WIDTH            = 50 | LV_STYLE_PROP_LAYOUT_REFR,
 168:Middlewares/lvgl/examples/widgets/btnmatrix/../../../src/core/../misc/lv_style.h ****     LV_STYLE_BORDER_SIDE             = 51,
 169:Middlewares/lvgl/examples/widgets/btnmatrix/../../../src/core/../misc/lv_style.h ****     LV_STYLE_BORDER_POST             = 52,
 170:Middlewares/lvgl/examples/widgets/btnmatrix/../../../src/core/../misc/lv_style.h **** 
 171:Middlewares/lvgl/examples/widgets/btnmatrix/../../../src/core/../misc/lv_style.h ****     LV_STYLE_OUTLINE_WIDTH           = 58 | LV_STYLE_PROP_EXT_DRAW,
 172:Middlewares/lvgl/examples/widgets/btnmatrix/../../../src/core/../misc/lv_style.h ****     LV_STYLE_OUTLINE_COLOR           = 59,
 173:Middlewares/lvgl/examples/widgets/btnmatrix/../../../src/core/../misc/lv_style.h ****     LV_STYLE_OUTLINE_COLOR_FILTERED  = 59 | LV_STYLE_PROP_FILTER,
 174:Middlewares/lvgl/examples/widgets/btnmatrix/../../../src/core/../misc/lv_style.h ****     LV_STYLE_OUTLINE_OPA             = 60 | LV_STYLE_PROP_EXT_DRAW,
 175:Middlewares/lvgl/examples/widgets/btnmatrix/../../../src/core/../misc/lv_style.h ****     LV_STYLE_OUTLINE_PAD             = 61 | LV_STYLE_PROP_EXT_DRAW,
 176:Middlewares/lvgl/examples/widgets/btnmatrix/../../../src/core/../misc/lv_style.h **** 
 177:Middlewares/lvgl/examples/widgets/btnmatrix/../../../src/core/../misc/lv_style.h ****     /*Group 4*/
 178:Middlewares/lvgl/examples/widgets/btnmatrix/../../../src/core/../misc/lv_style.h ****     LV_STYLE_SHADOW_WIDTH            = 64 | LV_STYLE_PROP_EXT_DRAW,
 179:Middlewares/lvgl/examples/widgets/btnmatrix/../../../src/core/../misc/lv_style.h ****     LV_STYLE_SHADOW_OFS_X            = 65 | LV_STYLE_PROP_EXT_DRAW,
 180:Middlewares/lvgl/examples/widgets/btnmatrix/../../../src/core/../misc/lv_style.h ****     LV_STYLE_SHADOW_OFS_Y            = 66 | LV_STYLE_PROP_EXT_DRAW,
 181:Middlewares/lvgl/examples/widgets/btnmatrix/../../../src/core/../misc/lv_style.h ****     LV_STYLE_SHADOW_SPREAD           = 67 | LV_STYLE_PROP_EXT_DRAW,
 182:Middlewares/lvgl/examples/widgets/btnmatrix/../../../src/core/../misc/lv_style.h ****     LV_STYLE_SHADOW_COLOR            = 68,
 183:Middlewares/lvgl/examples/widgets/btnmatrix/../../../src/core/../misc/lv_style.h ****     LV_STYLE_SHADOW_COLOR_FILTERED   = 68 | LV_STYLE_PROP_FILTER,
 184:Middlewares/lvgl/examples/widgets/btnmatrix/../../../src/core/../misc/lv_style.h ****     LV_STYLE_SHADOW_OPA              = 69 | LV_STYLE_PROP_EXT_DRAW,
 185:Middlewares/lvgl/examples/widgets/btnmatrix/../../../src/core/../misc/lv_style.h **** 
 186:Middlewares/lvgl/examples/widgets/btnmatrix/../../../src/core/../misc/lv_style.h ****     LV_STYLE_IMG_OPA                 = 70,
 187:Middlewares/lvgl/examples/widgets/btnmatrix/../../../src/core/../misc/lv_style.h ****     LV_STYLE_IMG_RECOLOR             = 71,
 188:Middlewares/lvgl/examples/widgets/btnmatrix/../../../src/core/../misc/lv_style.h ****     LV_STYLE_IMG_RECOLOR_FILTERED    = 71 | LV_STYLE_PROP_FILTER,
 189:Middlewares/lvgl/examples/widgets/btnmatrix/../../../src/core/../misc/lv_style.h ****     LV_STYLE_IMG_RECOLOR_OPA         = 72,
 190:Middlewares/lvgl/examples/widgets/btnmatrix/../../../src/core/../misc/lv_style.h **** 
 191:Middlewares/lvgl/examples/widgets/btnmatrix/../../../src/core/../misc/lv_style.h ****     LV_STYLE_LINE_WIDTH              = 73 | LV_STYLE_PROP_EXT_DRAW,
 192:Middlewares/lvgl/examples/widgets/btnmatrix/../../../src/core/../misc/lv_style.h ****     LV_STYLE_LINE_DASH_WIDTH         = 74,
 193:Middlewares/lvgl/examples/widgets/btnmatrix/../../../src/core/../misc/lv_style.h ****     LV_STYLE_LINE_DASH_GAP           = 75,
 194:Middlewares/lvgl/examples/widgets/btnmatrix/../../../src/core/../misc/lv_style.h ****     LV_STYLE_LINE_ROUNDED            = 76,
 195:Middlewares/lvgl/examples/widgets/btnmatrix/../../../src/core/../misc/lv_style.h ****     LV_STYLE_LINE_COLOR              = 77,
 196:Middlewares/lvgl/examples/widgets/btnmatrix/../../../src/core/../misc/lv_style.h ****     LV_STYLE_LINE_COLOR_FILTERED     = 77 | LV_STYLE_PROP_FILTER,
 197:Middlewares/lvgl/examples/widgets/btnmatrix/../../../src/core/../misc/lv_style.h ****     LV_STYLE_LINE_OPA                = 78,
 198:Middlewares/lvgl/examples/widgets/btnmatrix/../../../src/core/../misc/lv_style.h **** 
 199:Middlewares/lvgl/examples/widgets/btnmatrix/../../../src/core/../misc/lv_style.h ****     /*Group 5*/
 200:Middlewares/lvgl/examples/widgets/btnmatrix/../../../src/core/../misc/lv_style.h ****     LV_STYLE_ARC_WIDTH               = 80 | LV_STYLE_PROP_EXT_DRAW,
 201:Middlewares/lvgl/examples/widgets/btnmatrix/../../../src/core/../misc/lv_style.h ****     LV_STYLE_ARC_ROUNDED             = 81,
 202:Middlewares/lvgl/examples/widgets/btnmatrix/../../../src/core/../misc/lv_style.h ****     LV_STYLE_ARC_COLOR               = 82,
 203:Middlewares/lvgl/examples/widgets/btnmatrix/../../../src/core/../misc/lv_style.h ****     LV_STYLE_ARC_COLOR_FILTERED      = 82 | LV_STYLE_PROP_FILTER,
ARM GAS  /tmp/ccpqnFgH.s 			page 8


 204:Middlewares/lvgl/examples/widgets/btnmatrix/../../../src/core/../misc/lv_style.h ****     LV_STYLE_ARC_OPA                 = 83,
 205:Middlewares/lvgl/examples/widgets/btnmatrix/../../../src/core/../misc/lv_style.h ****     LV_STYLE_ARC_IMG_SRC             = 84,
 206:Middlewares/lvgl/examples/widgets/btnmatrix/../../../src/core/../misc/lv_style.h **** 
 207:Middlewares/lvgl/examples/widgets/btnmatrix/../../../src/core/../misc/lv_style.h ****     LV_STYLE_TEXT_COLOR              = 87 | LV_STYLE_PROP_INHERIT,
 208:Middlewares/lvgl/examples/widgets/btnmatrix/../../../src/core/../misc/lv_style.h ****     LV_STYLE_TEXT_COLOR_FILTERED     = 87 | LV_STYLE_PROP_INHERIT | LV_STYLE_PROP_FILTER,
 209:Middlewares/lvgl/examples/widgets/btnmatrix/../../../src/core/../misc/lv_style.h ****     LV_STYLE_TEXT_OPA                = 88 | LV_STYLE_PROP_INHERIT,
 210:Middlewares/lvgl/examples/widgets/btnmatrix/../../../src/core/../misc/lv_style.h ****     LV_STYLE_TEXT_FONT               = 89 | LV_STYLE_PROP_INHERIT | LV_STYLE_PROP_LAYOUT_REFR,
 211:Middlewares/lvgl/examples/widgets/btnmatrix/../../../src/core/../misc/lv_style.h ****     LV_STYLE_TEXT_LETTER_SPACE       = 90 | LV_STYLE_PROP_INHERIT | LV_STYLE_PROP_LAYOUT_REFR,
 212:Middlewares/lvgl/examples/widgets/btnmatrix/../../../src/core/../misc/lv_style.h ****     LV_STYLE_TEXT_LINE_SPACE         = 91 | LV_STYLE_PROP_INHERIT | LV_STYLE_PROP_LAYOUT_REFR,
 213:Middlewares/lvgl/examples/widgets/btnmatrix/../../../src/core/../misc/lv_style.h ****     LV_STYLE_TEXT_DECOR              = 92 | LV_STYLE_PROP_INHERIT,
 214:Middlewares/lvgl/examples/widgets/btnmatrix/../../../src/core/../misc/lv_style.h ****     LV_STYLE_TEXT_ALIGN              = 93 | LV_STYLE_PROP_INHERIT | LV_STYLE_PROP_LAYOUT_REFR,
 215:Middlewares/lvgl/examples/widgets/btnmatrix/../../../src/core/../misc/lv_style.h **** 
 216:Middlewares/lvgl/examples/widgets/btnmatrix/../../../src/core/../misc/lv_style.h ****     /*Group 6*/
 217:Middlewares/lvgl/examples/widgets/btnmatrix/../../../src/core/../misc/lv_style.h ****     LV_STYLE_RADIUS                  = 96,
 218:Middlewares/lvgl/examples/widgets/btnmatrix/../../../src/core/../misc/lv_style.h ****     LV_STYLE_CLIP_CORNER             = 97,
 219:Middlewares/lvgl/examples/widgets/btnmatrix/../../../src/core/../misc/lv_style.h ****     LV_STYLE_OPA                     = 98 | LV_STYLE_PROP_INHERIT,
 220:Middlewares/lvgl/examples/widgets/btnmatrix/../../../src/core/../misc/lv_style.h ****     LV_STYLE_COLOR_FILTER_DSC        = 99,
 221:Middlewares/lvgl/examples/widgets/btnmatrix/../../../src/core/../misc/lv_style.h ****     LV_STYLE_COLOR_FILTER_OPA        = 100,
 222:Middlewares/lvgl/examples/widgets/btnmatrix/../../../src/core/../misc/lv_style.h ****     LV_STYLE_ANIM_TIME               = 101,
 223:Middlewares/lvgl/examples/widgets/btnmatrix/../../../src/core/../misc/lv_style.h ****     LV_STYLE_ANIM_SPEED              = 102,
 224:Middlewares/lvgl/examples/widgets/btnmatrix/../../../src/core/../misc/lv_style.h ****     LV_STYLE_TRANSITION              = 103,
 225:Middlewares/lvgl/examples/widgets/btnmatrix/../../../src/core/../misc/lv_style.h ****     LV_STYLE_BLEND_MODE              = 104,
 226:Middlewares/lvgl/examples/widgets/btnmatrix/../../../src/core/../misc/lv_style.h ****     LV_STYLE_LAYOUT                  = 105 | LV_STYLE_PROP_LAYOUT_REFR,
 227:Middlewares/lvgl/examples/widgets/btnmatrix/../../../src/core/../misc/lv_style.h ****     LV_STYLE_BASE_DIR                = 106 | LV_STYLE_PROP_INHERIT | LV_STYLE_PROP_LAYOUT_REFR,
 228:Middlewares/lvgl/examples/widgets/btnmatrix/../../../src/core/../misc/lv_style.h **** 
 229:Middlewares/lvgl/examples/widgets/btnmatrix/../../../src/core/../misc/lv_style.h ****     _LV_STYLE_LAST_BUILT_IN_PROP     = 111,
 230:Middlewares/lvgl/examples/widgets/btnmatrix/../../../src/core/../misc/lv_style.h **** 
 231:Middlewares/lvgl/examples/widgets/btnmatrix/../../../src/core/../misc/lv_style.h ****     LV_STYLE_PROP_ANY                = 0xFFFF
 232:Middlewares/lvgl/examples/widgets/btnmatrix/../../../src/core/../misc/lv_style.h **** }lv_style_prop_t;
 233:Middlewares/lvgl/examples/widgets/btnmatrix/../../../src/core/../misc/lv_style.h **** 
 234:Middlewares/lvgl/examples/widgets/btnmatrix/../../../src/core/../misc/lv_style.h **** /**
 235:Middlewares/lvgl/examples/widgets/btnmatrix/../../../src/core/../misc/lv_style.h ****  * Descriptor for style transitions
 236:Middlewares/lvgl/examples/widgets/btnmatrix/../../../src/core/../misc/lv_style.h ****  */
 237:Middlewares/lvgl/examples/widgets/btnmatrix/../../../src/core/../misc/lv_style.h **** typedef struct {
 238:Middlewares/lvgl/examples/widgets/btnmatrix/../../../src/core/../misc/lv_style.h ****     const lv_style_prop_t * props; /**< An array with the properties to animate.*/
 239:Middlewares/lvgl/examples/widgets/btnmatrix/../../../src/core/../misc/lv_style.h **** #if LV_USE_USER_DATA
 240:Middlewares/lvgl/examples/widgets/btnmatrix/../../../src/core/../misc/lv_style.h ****     void * user_data;              /**< A custom user data that will be passed to the animation's u
 241:Middlewares/lvgl/examples/widgets/btnmatrix/../../../src/core/../misc/lv_style.h **** #endif
 242:Middlewares/lvgl/examples/widgets/btnmatrix/../../../src/core/../misc/lv_style.h ****     lv_anim_path_cb_t path_xcb;     /**< A path for the animation.*/
 243:Middlewares/lvgl/examples/widgets/btnmatrix/../../../src/core/../misc/lv_style.h ****     uint32_t time;                 /**< Duration of the transition in [ms]*/
 244:Middlewares/lvgl/examples/widgets/btnmatrix/../../../src/core/../misc/lv_style.h ****     uint32_t delay;                /**< Delay before the transition in [ms]*/
 245:Middlewares/lvgl/examples/widgets/btnmatrix/../../../src/core/../misc/lv_style.h **** }lv_style_transition_dsc_t;
 246:Middlewares/lvgl/examples/widgets/btnmatrix/../../../src/core/../misc/lv_style.h **** 
 247:Middlewares/lvgl/examples/widgets/btnmatrix/../../../src/core/../misc/lv_style.h **** /**
 248:Middlewares/lvgl/examples/widgets/btnmatrix/../../../src/core/../misc/lv_style.h ****  * Descriptor of a constant style property.
 249:Middlewares/lvgl/examples/widgets/btnmatrix/../../../src/core/../misc/lv_style.h ****  */
 250:Middlewares/lvgl/examples/widgets/btnmatrix/../../../src/core/../misc/lv_style.h **** typedef struct {
 251:Middlewares/lvgl/examples/widgets/btnmatrix/../../../src/core/../misc/lv_style.h ****     lv_style_prop_t prop;
 252:Middlewares/lvgl/examples/widgets/btnmatrix/../../../src/core/../misc/lv_style.h ****     lv_style_value_t value;
 253:Middlewares/lvgl/examples/widgets/btnmatrix/../../../src/core/../misc/lv_style.h **** } lv_style_const_prop_t;
 254:Middlewares/lvgl/examples/widgets/btnmatrix/../../../src/core/../misc/lv_style.h **** 
 255:Middlewares/lvgl/examples/widgets/btnmatrix/../../../src/core/../misc/lv_style.h **** /**
 256:Middlewares/lvgl/examples/widgets/btnmatrix/../../../src/core/../misc/lv_style.h ****  * Descriptor of a style (a collection of properties and values).
 257:Middlewares/lvgl/examples/widgets/btnmatrix/../../../src/core/../misc/lv_style.h ****  */
 258:Middlewares/lvgl/examples/widgets/btnmatrix/../../../src/core/../misc/lv_style.h **** typedef struct {
 259:Middlewares/lvgl/examples/widgets/btnmatrix/../../../src/core/../misc/lv_style.h **** 
 260:Middlewares/lvgl/examples/widgets/btnmatrix/../../../src/core/../misc/lv_style.h **** #if LV_USE_ASSERT_STYLE
ARM GAS  /tmp/ccpqnFgH.s 			page 9


 261:Middlewares/lvgl/examples/widgets/btnmatrix/../../../src/core/../misc/lv_style.h ****     uint32_t sentinel;
 262:Middlewares/lvgl/examples/widgets/btnmatrix/../../../src/core/../misc/lv_style.h **** #endif
 263:Middlewares/lvgl/examples/widgets/btnmatrix/../../../src/core/../misc/lv_style.h **** 
 264:Middlewares/lvgl/examples/widgets/btnmatrix/../../../src/core/../misc/lv_style.h ****     /*If there is only one property store it directly.
 265:Middlewares/lvgl/examples/widgets/btnmatrix/../../../src/core/../misc/lv_style.h ****      *For more properties allocate an array*/
 266:Middlewares/lvgl/examples/widgets/btnmatrix/../../../src/core/../misc/lv_style.h ****     union {
 267:Middlewares/lvgl/examples/widgets/btnmatrix/../../../src/core/../misc/lv_style.h ****         lv_style_value_t value1;
 268:Middlewares/lvgl/examples/widgets/btnmatrix/../../../src/core/../misc/lv_style.h ****         uint8_t * values_and_props;
 269:Middlewares/lvgl/examples/widgets/btnmatrix/../../../src/core/../misc/lv_style.h ****         const lv_style_const_prop_t * const_props;
 270:Middlewares/lvgl/examples/widgets/btnmatrix/../../../src/core/../misc/lv_style.h ****     } v_p;
 271:Middlewares/lvgl/examples/widgets/btnmatrix/../../../src/core/../misc/lv_style.h **** 
 272:Middlewares/lvgl/examples/widgets/btnmatrix/../../../src/core/../misc/lv_style.h ****     uint16_t prop1 :15;
 273:Middlewares/lvgl/examples/widgets/btnmatrix/../../../src/core/../misc/lv_style.h ****     uint16_t is_const :1;
 274:Middlewares/lvgl/examples/widgets/btnmatrix/../../../src/core/../misc/lv_style.h ****     uint8_t has_group;
 275:Middlewares/lvgl/examples/widgets/btnmatrix/../../../src/core/../misc/lv_style.h ****     uint8_t prop_cnt;
 276:Middlewares/lvgl/examples/widgets/btnmatrix/../../../src/core/../misc/lv_style.h **** } lv_style_t;
 277:Middlewares/lvgl/examples/widgets/btnmatrix/../../../src/core/../misc/lv_style.h **** 
 278:Middlewares/lvgl/examples/widgets/btnmatrix/../../../src/core/../misc/lv_style.h **** /**********************
 279:Middlewares/lvgl/examples/widgets/btnmatrix/../../../src/core/../misc/lv_style.h ****  * GLOBAL PROTOTYPES
 280:Middlewares/lvgl/examples/widgets/btnmatrix/../../../src/core/../misc/lv_style.h ****  **********************/
 281:Middlewares/lvgl/examples/widgets/btnmatrix/../../../src/core/../misc/lv_style.h **** 
 282:Middlewares/lvgl/examples/widgets/btnmatrix/../../../src/core/../misc/lv_style.h **** 
 283:Middlewares/lvgl/examples/widgets/btnmatrix/../../../src/core/../misc/lv_style.h **** /**
 284:Middlewares/lvgl/examples/widgets/btnmatrix/../../../src/core/../misc/lv_style.h ****  * Initialize a style
 285:Middlewares/lvgl/examples/widgets/btnmatrix/../../../src/core/../misc/lv_style.h ****  * @param style pointer to a style to initialize
 286:Middlewares/lvgl/examples/widgets/btnmatrix/../../../src/core/../misc/lv_style.h ****  * @note Do not call `lv_style_init` on styles that are already have some properties
 287:Middlewares/lvgl/examples/widgets/btnmatrix/../../../src/core/../misc/lv_style.h ****  *       because this function won't free the used memory just set a default state for the style.
 288:Middlewares/lvgl/examples/widgets/btnmatrix/../../../src/core/../misc/lv_style.h ****  *       In other words be sure to initialize styles only once!
 289:Middlewares/lvgl/examples/widgets/btnmatrix/../../../src/core/../misc/lv_style.h ****  */
 290:Middlewares/lvgl/examples/widgets/btnmatrix/../../../src/core/../misc/lv_style.h **** void lv_style_init(lv_style_t * style);
 291:Middlewares/lvgl/examples/widgets/btnmatrix/../../../src/core/../misc/lv_style.h **** 
 292:Middlewares/lvgl/examples/widgets/btnmatrix/../../../src/core/../misc/lv_style.h **** /**
 293:Middlewares/lvgl/examples/widgets/btnmatrix/../../../src/core/../misc/lv_style.h ****  * Clear all properties from a style and free all allocated memories.
 294:Middlewares/lvgl/examples/widgets/btnmatrix/../../../src/core/../misc/lv_style.h ****  * @param style pointer to a style
 295:Middlewares/lvgl/examples/widgets/btnmatrix/../../../src/core/../misc/lv_style.h ****  */
 296:Middlewares/lvgl/examples/widgets/btnmatrix/../../../src/core/../misc/lv_style.h **** void lv_style_reset(lv_style_t * style);
 297:Middlewares/lvgl/examples/widgets/btnmatrix/../../../src/core/../misc/lv_style.h **** 
 298:Middlewares/lvgl/examples/widgets/btnmatrix/../../../src/core/../misc/lv_style.h **** /**
 299:Middlewares/lvgl/examples/widgets/btnmatrix/../../../src/core/../misc/lv_style.h ****  * Register a new style property for custom usage
 300:Middlewares/lvgl/examples/widgets/btnmatrix/../../../src/core/../misc/lv_style.h ****  * @return a new property ID.
 301:Middlewares/lvgl/examples/widgets/btnmatrix/../../../src/core/../misc/lv_style.h ****  * @example
 302:Middlewares/lvgl/examples/widgets/btnmatrix/../../../src/core/../misc/lv_style.h ****  * lv_style_prop_t MY_PROP;
 303:Middlewares/lvgl/examples/widgets/btnmatrix/../../../src/core/../misc/lv_style.h ****  * static inline void lv_style_set_my_prop(lv_style_t * style, lv_color_t value) {
 304:Middlewares/lvgl/examples/widgets/btnmatrix/../../../src/core/../misc/lv_style.h ****  * lv_style_value_t v = {.color = value}; lv_style_set_prop(style, MY_PROP, v); }
 305:Middlewares/lvgl/examples/widgets/btnmatrix/../../../src/core/../misc/lv_style.h ****  *
 306:Middlewares/lvgl/examples/widgets/btnmatrix/../../../src/core/../misc/lv_style.h ****  * ...
 307:Middlewares/lvgl/examples/widgets/btnmatrix/../../../src/core/../misc/lv_style.h ****  * MY_PROP = lv_style_register_prop();
 308:Middlewares/lvgl/examples/widgets/btnmatrix/../../../src/core/../misc/lv_style.h ****  * ...
 309:Middlewares/lvgl/examples/widgets/btnmatrix/../../../src/core/../misc/lv_style.h ****  * lv_style_set_my_prop(&style1, lv_palette_main(LV_PALETTE_RED));
 310:Middlewares/lvgl/examples/widgets/btnmatrix/../../../src/core/../misc/lv_style.h ****  */
 311:Middlewares/lvgl/examples/widgets/btnmatrix/../../../src/core/../misc/lv_style.h **** lv_style_prop_t lv_style_register_prop(void);
 312:Middlewares/lvgl/examples/widgets/btnmatrix/../../../src/core/../misc/lv_style.h **** 
 313:Middlewares/lvgl/examples/widgets/btnmatrix/../../../src/core/../misc/lv_style.h **** /**
 314:Middlewares/lvgl/examples/widgets/btnmatrix/../../../src/core/../misc/lv_style.h ****  * Remove a property from a style
 315:Middlewares/lvgl/examples/widgets/btnmatrix/../../../src/core/../misc/lv_style.h ****  * @param style pointer to a style
 316:Middlewares/lvgl/examples/widgets/btnmatrix/../../../src/core/../misc/lv_style.h ****  * @param prop  a style property ORed with a state.
 317:Middlewares/lvgl/examples/widgets/btnmatrix/../../../src/core/../misc/lv_style.h ****  * @return true: the property was found and removed; false: the property wasn't found
ARM GAS  /tmp/ccpqnFgH.s 			page 10


 318:Middlewares/lvgl/examples/widgets/btnmatrix/../../../src/core/../misc/lv_style.h ****  */
 319:Middlewares/lvgl/examples/widgets/btnmatrix/../../../src/core/../misc/lv_style.h **** bool lv_style_remove_prop(lv_style_t * style, lv_style_prop_t prop);
 320:Middlewares/lvgl/examples/widgets/btnmatrix/../../../src/core/../misc/lv_style.h **** 
 321:Middlewares/lvgl/examples/widgets/btnmatrix/../../../src/core/../misc/lv_style.h **** /**
 322:Middlewares/lvgl/examples/widgets/btnmatrix/../../../src/core/../misc/lv_style.h ****  * Set the value of property in a style.
 323:Middlewares/lvgl/examples/widgets/btnmatrix/../../../src/core/../misc/lv_style.h ****  * This function shouldn't be used directly by the user.
 324:Middlewares/lvgl/examples/widgets/btnmatrix/../../../src/core/../misc/lv_style.h ****  * Instead use `lv_style_set_<prop_name>()`. E.g. `lv_style_set_bg_color()`
 325:Middlewares/lvgl/examples/widgets/btnmatrix/../../../src/core/../misc/lv_style.h ****  * @param style pointer to style
 326:Middlewares/lvgl/examples/widgets/btnmatrix/../../../src/core/../misc/lv_style.h ****  * @param prop the ID of a property (e.g. `LV_STLYE_BG_COLOR`)
 327:Middlewares/lvgl/examples/widgets/btnmatrix/../../../src/core/../misc/lv_style.h ****  * @param value `lv_style_value_t` variable in which a filed is set according to the type of `prop`
 328:Middlewares/lvgl/examples/widgets/btnmatrix/../../../src/core/../misc/lv_style.h ****  */
 329:Middlewares/lvgl/examples/widgets/btnmatrix/../../../src/core/../misc/lv_style.h **** void lv_style_set_prop(lv_style_t * style, lv_style_prop_t prop, lv_style_value_t value);
 330:Middlewares/lvgl/examples/widgets/btnmatrix/../../../src/core/../misc/lv_style.h **** 
 331:Middlewares/lvgl/examples/widgets/btnmatrix/../../../src/core/../misc/lv_style.h **** /**
 332:Middlewares/lvgl/examples/widgets/btnmatrix/../../../src/core/../misc/lv_style.h ****  * Get the value of a property
 333:Middlewares/lvgl/examples/widgets/btnmatrix/../../../src/core/../misc/lv_style.h ****  * @param style pointer to a style
 334:Middlewares/lvgl/examples/widgets/btnmatrix/../../../src/core/../misc/lv_style.h ****  * @param prop  the ID of a property
 335:Middlewares/lvgl/examples/widgets/btnmatrix/../../../src/core/../misc/lv_style.h ****  * @param value pointer to a `lv_style_value_t` variable to store the value
 336:Middlewares/lvgl/examples/widgets/btnmatrix/../../../src/core/../misc/lv_style.h ****  * @return LV_RES_INV: the property wsn't found in the style (`value` is unchanged)
 337:Middlewares/lvgl/examples/widgets/btnmatrix/../../../src/core/../misc/lv_style.h ****  *         LV_RES_OK: the property was fond, and `value` is set accordingly
 338:Middlewares/lvgl/examples/widgets/btnmatrix/../../../src/core/../misc/lv_style.h ****  * @note For performance reasons there are no sanity check on `style`
 339:Middlewares/lvgl/examples/widgets/btnmatrix/../../../src/core/../misc/lv_style.h ****  */
 340:Middlewares/lvgl/examples/widgets/btnmatrix/../../../src/core/../misc/lv_style.h **** lv_res_t lv_style_get_prop(lv_style_t * style, lv_style_prop_t prop, lv_style_value_t * value);
 341:Middlewares/lvgl/examples/widgets/btnmatrix/../../../src/core/../misc/lv_style.h **** 
 342:Middlewares/lvgl/examples/widgets/btnmatrix/../../../src/core/../misc/lv_style.h **** 
 343:Middlewares/lvgl/examples/widgets/btnmatrix/../../../src/core/../misc/lv_style.h **** /**
 344:Middlewares/lvgl/examples/widgets/btnmatrix/../../../src/core/../misc/lv_style.h ****  * Get the value of a property
 345:Middlewares/lvgl/examples/widgets/btnmatrix/../../../src/core/../misc/lv_style.h ****  * @param style pointer to a style
 346:Middlewares/lvgl/examples/widgets/btnmatrix/../../../src/core/../misc/lv_style.h ****  * @param prop  the ID of a property
 347:Middlewares/lvgl/examples/widgets/btnmatrix/../../../src/core/../misc/lv_style.h ****  * @param value pointer to a `lv_style_value_t` variable to store the value
 348:Middlewares/lvgl/examples/widgets/btnmatrix/../../../src/core/../misc/lv_style.h ****  * @return LV_RES_INV: the property wsn't found in the style (`value` is unchanged)
 349:Middlewares/lvgl/examples/widgets/btnmatrix/../../../src/core/../misc/lv_style.h ****  *         LV_RES_OK: the property was fond, and `value` is set accordingly
 350:Middlewares/lvgl/examples/widgets/btnmatrix/../../../src/core/../misc/lv_style.h ****  * @note For performance reasons there are no sanity check on `style`
 351:Middlewares/lvgl/examples/widgets/btnmatrix/../../../src/core/../misc/lv_style.h ****  * @note This function is the same as ::lv_style_get_prop but inlined. Use it only on performance c
 352:Middlewares/lvgl/examples/widgets/btnmatrix/../../../src/core/../misc/lv_style.h ****  */
 353:Middlewares/lvgl/examples/widgets/btnmatrix/../../../src/core/../misc/lv_style.h **** static inline lv_res_t lv_style_get_prop_inlined(lv_style_t * style, lv_style_prop_t prop, lv_style
 354:Middlewares/lvgl/examples/widgets/btnmatrix/../../../src/core/../misc/lv_style.h **** {
 355:Middlewares/lvgl/examples/widgets/btnmatrix/../../../src/core/../misc/lv_style.h ****     if(style->is_const) {
 356:Middlewares/lvgl/examples/widgets/btnmatrix/../../../src/core/../misc/lv_style.h ****         const lv_style_const_prop_t *const_prop;
 357:Middlewares/lvgl/examples/widgets/btnmatrix/../../../src/core/../misc/lv_style.h ****         for(const_prop = style->v_p.const_props; const_prop->prop != LV_STYLE_PROP_INV; const_prop+
 358:Middlewares/lvgl/examples/widgets/btnmatrix/../../../src/core/../misc/lv_style.h ****             if(const_prop->prop == prop) {
 359:Middlewares/lvgl/examples/widgets/btnmatrix/../../../src/core/../misc/lv_style.h ****                 *value = const_prop->value;
 360:Middlewares/lvgl/examples/widgets/btnmatrix/../../../src/core/../misc/lv_style.h ****                 return LV_RES_OK;
 361:Middlewares/lvgl/examples/widgets/btnmatrix/../../../src/core/../misc/lv_style.h ****             }
 362:Middlewares/lvgl/examples/widgets/btnmatrix/../../../src/core/../misc/lv_style.h ****         }
 363:Middlewares/lvgl/examples/widgets/btnmatrix/../../../src/core/../misc/lv_style.h ****         return LV_RES_INV;
 364:Middlewares/lvgl/examples/widgets/btnmatrix/../../../src/core/../misc/lv_style.h ****     }
 365:Middlewares/lvgl/examples/widgets/btnmatrix/../../../src/core/../misc/lv_style.h **** 
 366:Middlewares/lvgl/examples/widgets/btnmatrix/../../../src/core/../misc/lv_style.h ****     if(style->prop_cnt == 0) return LV_RES_INV;
 367:Middlewares/lvgl/examples/widgets/btnmatrix/../../../src/core/../misc/lv_style.h **** 
 368:Middlewares/lvgl/examples/widgets/btnmatrix/../../../src/core/../misc/lv_style.h ****     if(style->prop_cnt > 1) {
 369:Middlewares/lvgl/examples/widgets/btnmatrix/../../../src/core/../misc/lv_style.h ****         uint8_t * tmp = style->v_p.values_and_props + style->prop_cnt * sizeof(lv_style_value_t);
 370:Middlewares/lvgl/examples/widgets/btnmatrix/../../../src/core/../misc/lv_style.h ****         uint16_t * props = (uint16_t *)tmp;
 371:Middlewares/lvgl/examples/widgets/btnmatrix/../../../src/core/../misc/lv_style.h ****         uint32_t i;
 372:Middlewares/lvgl/examples/widgets/btnmatrix/../../../src/core/../misc/lv_style.h ****         for(i = 0; i < style->prop_cnt; i++) {
 373:Middlewares/lvgl/examples/widgets/btnmatrix/../../../src/core/../misc/lv_style.h ****             if(props[i] == prop) {
 374:Middlewares/lvgl/examples/widgets/btnmatrix/../../../src/core/../misc/lv_style.h ****                 lv_style_value_t * values = (lv_style_value_t *)style->v_p.values_and_props;
ARM GAS  /tmp/ccpqnFgH.s 			page 11


 375:Middlewares/lvgl/examples/widgets/btnmatrix/../../../src/core/../misc/lv_style.h ****                 *value = values[i];
 376:Middlewares/lvgl/examples/widgets/btnmatrix/../../../src/core/../misc/lv_style.h ****                 return LV_RES_OK;
 377:Middlewares/lvgl/examples/widgets/btnmatrix/../../../src/core/../misc/lv_style.h ****             }
 378:Middlewares/lvgl/examples/widgets/btnmatrix/../../../src/core/../misc/lv_style.h ****         }
 379:Middlewares/lvgl/examples/widgets/btnmatrix/../../../src/core/../misc/lv_style.h ****     } else if(style->prop1 == prop) {
 380:Middlewares/lvgl/examples/widgets/btnmatrix/../../../src/core/../misc/lv_style.h ****         *value = style->v_p.value1;
 381:Middlewares/lvgl/examples/widgets/btnmatrix/../../../src/core/../misc/lv_style.h ****         return LV_RES_OK;
 382:Middlewares/lvgl/examples/widgets/btnmatrix/../../../src/core/../misc/lv_style.h ****     }
 383:Middlewares/lvgl/examples/widgets/btnmatrix/../../../src/core/../misc/lv_style.h ****     return LV_RES_INV;
 384:Middlewares/lvgl/examples/widgets/btnmatrix/../../../src/core/../misc/lv_style.h **** }
 385:Middlewares/lvgl/examples/widgets/btnmatrix/../../../src/core/../misc/lv_style.h **** 
 386:Middlewares/lvgl/examples/widgets/btnmatrix/../../../src/core/../misc/lv_style.h **** /**
 387:Middlewares/lvgl/examples/widgets/btnmatrix/../../../src/core/../misc/lv_style.h ****  * Initialize a transition descriptor.
 388:Middlewares/lvgl/examples/widgets/btnmatrix/../../../src/core/../misc/lv_style.h ****  * @param tr        pointer to a transition descriptor to initialize
 389:Middlewares/lvgl/examples/widgets/btnmatrix/../../../src/core/../misc/lv_style.h ****  * @param props     an array with the properties to transition. The last element must be zero.
 390:Middlewares/lvgl/examples/widgets/btnmatrix/../../../src/core/../misc/lv_style.h ****  * @param path_cb   an animation path (ease) callback. If `NULL` liner path will be used.
 391:Middlewares/lvgl/examples/widgets/btnmatrix/../../../src/core/../misc/lv_style.h ****  * @param time      duration of the transition in [ms]
 392:Middlewares/lvgl/examples/widgets/btnmatrix/../../../src/core/../misc/lv_style.h ****  * @param delay     delay before the transition in [ms]
 393:Middlewares/lvgl/examples/widgets/btnmatrix/../../../src/core/../misc/lv_style.h ****  * @param user_data any custom data that will be saved in the transition animation and will be avai
 394:Middlewares/lvgl/examples/widgets/btnmatrix/../../../src/core/../misc/lv_style.h ****  * @example
 395:Middlewares/lvgl/examples/widgets/btnmatrix/../../../src/core/../misc/lv_style.h ****  * const static lv_style_prop_t trans_props[] = { LV_STYLE_BG_OPA, LV_STYLE_BG_COLOR, 0 };
 396:Middlewares/lvgl/examples/widgets/btnmatrix/../../../src/core/../misc/lv_style.h ****  *  static lv_style_transition_dsc_t trans1;
 397:Middlewares/lvgl/examples/widgets/btnmatrix/../../../src/core/../misc/lv_style.h ****  *  lv_style_transition_dsc_init(&trans1, trans_props, NULL, 300, 0, NULL);
 398:Middlewares/lvgl/examples/widgets/btnmatrix/../../../src/core/../misc/lv_style.h ****  */
 399:Middlewares/lvgl/examples/widgets/btnmatrix/../../../src/core/../misc/lv_style.h **** void lv_style_transition_dsc_init(lv_style_transition_dsc_t * tr, const lv_style_prop_t props[], lv
 400:Middlewares/lvgl/examples/widgets/btnmatrix/../../../src/core/../misc/lv_style.h **** 
 401:Middlewares/lvgl/examples/widgets/btnmatrix/../../../src/core/../misc/lv_style.h **** /**
 402:Middlewares/lvgl/examples/widgets/btnmatrix/../../../src/core/../misc/lv_style.h ****  * Get the default value of a property
 403:Middlewares/lvgl/examples/widgets/btnmatrix/../../../src/core/../misc/lv_style.h ****  * @param prop the ID of a property
 404:Middlewares/lvgl/examples/widgets/btnmatrix/../../../src/core/../misc/lv_style.h ****  * @return the default value
 405:Middlewares/lvgl/examples/widgets/btnmatrix/../../../src/core/../misc/lv_style.h ****  */
 406:Middlewares/lvgl/examples/widgets/btnmatrix/../../../src/core/../misc/lv_style.h **** lv_style_value_t lv_style_prop_get_default(lv_style_prop_t prop);
 407:Middlewares/lvgl/examples/widgets/btnmatrix/../../../src/core/../misc/lv_style.h **** 
 408:Middlewares/lvgl/examples/widgets/btnmatrix/../../../src/core/../misc/lv_style.h **** /**
 409:Middlewares/lvgl/examples/widgets/btnmatrix/../../../src/core/../misc/lv_style.h ****  * Checks if a style is empty (has no properties)
 410:Middlewares/lvgl/examples/widgets/btnmatrix/../../../src/core/../misc/lv_style.h ****  * @param style pointer to a style
 411:Middlewares/lvgl/examples/widgets/btnmatrix/../../../src/core/../misc/lv_style.h ****  * @return
 412:Middlewares/lvgl/examples/widgets/btnmatrix/../../../src/core/../misc/lv_style.h ****  */
 413:Middlewares/lvgl/examples/widgets/btnmatrix/../../../src/core/../misc/lv_style.h **** bool lv_style_is_empty(const lv_style_t * style);
 414:Middlewares/lvgl/examples/widgets/btnmatrix/../../../src/core/../misc/lv_style.h **** 
 415:Middlewares/lvgl/examples/widgets/btnmatrix/../../../src/core/../misc/lv_style.h **** /**
 416:Middlewares/lvgl/examples/widgets/btnmatrix/../../../src/core/../misc/lv_style.h ****  * Tell the group of a property. If the a property from a group is set in a style the (1 << group) 
 417:Middlewares/lvgl/examples/widgets/btnmatrix/../../../src/core/../misc/lv_style.h ****  * It allows early skipping the style if the property is not exists in the style at all.
 418:Middlewares/lvgl/examples/widgets/btnmatrix/../../../src/core/../misc/lv_style.h ****  * @param prop a style property
 419:Middlewares/lvgl/examples/widgets/btnmatrix/../../../src/core/../misc/lv_style.h ****  * @return the group [0..7] 7 means all the custom properties with index > 112
 420:Middlewares/lvgl/examples/widgets/btnmatrix/../../../src/core/../misc/lv_style.h ****  */
 421:Middlewares/lvgl/examples/widgets/btnmatrix/../../../src/core/../misc/lv_style.h **** uint8_t _lv_style_get_prop_group(lv_style_prop_t prop);
 422:Middlewares/lvgl/examples/widgets/btnmatrix/../../../src/core/../misc/lv_style.h **** 
 423:Middlewares/lvgl/examples/widgets/btnmatrix/../../../src/core/../misc/lv_style.h **** #include "lv_style_gen.h"
 424:Middlewares/lvgl/examples/widgets/btnmatrix/../../../src/core/../misc/lv_style.h **** 
 425:Middlewares/lvgl/examples/widgets/btnmatrix/../../../src/core/../misc/lv_style.h **** static inline void lv_style_set_pad_all(lv_style_t * style, lv_coord_t value) {
 162              		.loc 2 425 20 view .LVU39
 163              	.LBB15:
 426:Middlewares/lvgl/examples/widgets/btnmatrix/../../../src/core/../misc/lv_style.h ****     lv_style_set_pad_left(style, value);
 164              		.loc 2 426 5 view .LVU40
 165 000a 0021     		movs	r1, #0
 166 000c 2846     		mov	r0, r5
ARM GAS  /tmp/ccpqnFgH.s 			page 12


 167 000e FFF7FEFF 		bl	lv_style_set_pad_left
 168              	.LVL12:
 427:Middlewares/lvgl/examples/widgets/btnmatrix/../../../src/core/../misc/lv_style.h ****     lv_style_set_pad_right(style, value);
 169              		.loc 2 427 5 view .LVU41
 170 0012 0021     		movs	r1, #0
 171 0014 2846     		mov	r0, r5
 172 0016 FFF7FEFF 		bl	lv_style_set_pad_right
 173              	.LVL13:
 428:Middlewares/lvgl/examples/widgets/btnmatrix/../../../src/core/../misc/lv_style.h ****     lv_style_set_pad_top(style, value);
 174              		.loc 2 428 5 view .LVU42
 175 001a 0021     		movs	r1, #0
 176 001c 2846     		mov	r0, r5
 177 001e FFF7FEFF 		bl	lv_style_set_pad_top
 178              	.LVL14:
 429:Middlewares/lvgl/examples/widgets/btnmatrix/../../../src/core/../misc/lv_style.h ****     lv_style_set_pad_bottom(style, value);
 179              		.loc 2 429 5 view .LVU43
 180 0022 0021     		movs	r1, #0
 181 0024 2846     		mov	r0, r5
 182 0026 FFF7FEFF 		bl	lv_style_set_pad_bottom
 183              	.LVL15:
 184              		.loc 2 429 5 is_stmt 0 view .LVU44
 185              	.LBE15:
 186              	.LBE14:
  32:Middlewares/lvgl/examples/widgets/btnmatrix/lv_example_btnmatrix_3.c ****     lv_style_set_pad_gap(&style_bg, 0);
 187              		.loc 1 32 5 is_stmt 1 view .LVU45
 188              	.LBB16:
 189              	.LBI16:
 430:Middlewares/lvgl/examples/widgets/btnmatrix/../../../src/core/../misc/lv_style.h **** }
 431:Middlewares/lvgl/examples/widgets/btnmatrix/../../../src/core/../misc/lv_style.h **** 
 432:Middlewares/lvgl/examples/widgets/btnmatrix/../../../src/core/../misc/lv_style.h **** static inline void lv_style_set_pad_hor(lv_style_t * style, lv_coord_t value) {
 433:Middlewares/lvgl/examples/widgets/btnmatrix/../../../src/core/../misc/lv_style.h ****     lv_style_set_pad_left(style, value);
 434:Middlewares/lvgl/examples/widgets/btnmatrix/../../../src/core/../misc/lv_style.h ****     lv_style_set_pad_right(style, value);
 435:Middlewares/lvgl/examples/widgets/btnmatrix/../../../src/core/../misc/lv_style.h **** }
 436:Middlewares/lvgl/examples/widgets/btnmatrix/../../../src/core/../misc/lv_style.h **** 
 437:Middlewares/lvgl/examples/widgets/btnmatrix/../../../src/core/../misc/lv_style.h **** static inline void lv_style_set_pad_ver(lv_style_t * style, lv_coord_t value) {
 438:Middlewares/lvgl/examples/widgets/btnmatrix/../../../src/core/../misc/lv_style.h ****     lv_style_set_pad_top(style, value);
 439:Middlewares/lvgl/examples/widgets/btnmatrix/../../../src/core/../misc/lv_style.h ****     lv_style_set_pad_bottom(style, value);
 440:Middlewares/lvgl/examples/widgets/btnmatrix/../../../src/core/../misc/lv_style.h **** }
 441:Middlewares/lvgl/examples/widgets/btnmatrix/../../../src/core/../misc/lv_style.h **** 
 442:Middlewares/lvgl/examples/widgets/btnmatrix/../../../src/core/../misc/lv_style.h **** static inline void lv_style_set_pad_gap(lv_style_t * style, lv_coord_t value) {
 190              		.loc 2 442 20 view .LVU46
 191              	.LBB17:
 443:Middlewares/lvgl/examples/widgets/btnmatrix/../../../src/core/../misc/lv_style.h ****     lv_style_set_pad_row(style, value);
 192              		.loc 2 443 5 view .LVU47
 193 002a 0021     		movs	r1, #0
 194 002c 2846     		mov	r0, r5
 195 002e FFF7FEFF 		bl	lv_style_set_pad_row
 196              	.LVL16:
 444:Middlewares/lvgl/examples/widgets/btnmatrix/../../../src/core/../misc/lv_style.h ****     lv_style_set_pad_column(style, value);
 197              		.loc 2 444 5 view .LVU48
 198 0032 0021     		movs	r1, #0
 199 0034 2846     		mov	r0, r5
 200 0036 FFF7FEFF 		bl	lv_style_set_pad_column
 201              	.LVL17:
 202              		.loc 2 444 5 is_stmt 0 view .LVU49
 203              	.LBE17:
 204              	.LBE16:
ARM GAS  /tmp/ccpqnFgH.s 			page 13


  33:Middlewares/lvgl/examples/widgets/btnmatrix/lv_example_btnmatrix_3.c ****     lv_style_set_clip_corner(&style_bg, true);
 205              		.loc 1 33 5 is_stmt 1 view .LVU50
 206 003a 0121     		movs	r1, #1
 207 003c 2846     		mov	r0, r5
 208 003e FFF7FEFF 		bl	lv_style_set_clip_corner
 209              	.LVL18:
  34:Middlewares/lvgl/examples/widgets/btnmatrix/lv_example_btnmatrix_3.c ****     lv_style_set_radius(&style_bg, LV_RADIUS_CIRCLE);
 210              		.loc 1 34 5 view .LVU51
 211 0042 47F6FF71 		movw	r1, #32767
 212 0046 2846     		mov	r0, r5
 213 0048 FFF7FEFF 		bl	lv_style_set_radius
 214              	.LVL19:
  35:Middlewares/lvgl/examples/widgets/btnmatrix/lv_example_btnmatrix_3.c ****     lv_style_set_border_width(&style_bg, 0);
 215              		.loc 1 35 5 view .LVU52
 216 004c 0021     		movs	r1, #0
 217 004e 2846     		mov	r0, r5
 218 0050 FFF7FEFF 		bl	lv_style_set_border_width
 219              	.LVL20:
  36:Middlewares/lvgl/examples/widgets/btnmatrix/lv_example_btnmatrix_3.c **** 
  37:Middlewares/lvgl/examples/widgets/btnmatrix/lv_example_btnmatrix_3.c **** 
  38:Middlewares/lvgl/examples/widgets/btnmatrix/lv_example_btnmatrix_3.c ****     static lv_style_t style_btn;
 220              		.loc 1 38 5 view .LVU53
  39:Middlewares/lvgl/examples/widgets/btnmatrix/lv_example_btnmatrix_3.c ****     lv_style_init(&style_btn);
 221              		.loc 1 39 5 view .LVU54
 222 0054 2F4E     		ldr	r6, .L15+4
 223 0056 3046     		mov	r0, r6
 224 0058 FFF7FEFF 		bl	lv_style_init
 225              	.LVL21:
  40:Middlewares/lvgl/examples/widgets/btnmatrix/lv_example_btnmatrix_3.c ****     lv_style_set_radius(&style_btn, 0);
 226              		.loc 1 40 5 view .LVU55
 227 005c 0021     		movs	r1, #0
 228 005e 3046     		mov	r0, r6
 229 0060 FFF7FEFF 		bl	lv_style_set_radius
 230              	.LVL22:
  41:Middlewares/lvgl/examples/widgets/btnmatrix/lv_example_btnmatrix_3.c ****     lv_style_set_border_width(&style_btn, 1);
 231              		.loc 1 41 5 view .LVU56
 232 0064 0121     		movs	r1, #1
 233 0066 3046     		mov	r0, r6
 234 0068 FFF7FEFF 		bl	lv_style_set_border_width
 235              	.LVL23:
  42:Middlewares/lvgl/examples/widgets/btnmatrix/lv_example_btnmatrix_3.c ****     lv_style_set_border_opa(&style_btn, LV_OPA_50);
 236              		.loc 1 42 5 view .LVU57
 237 006c 7F21     		movs	r1, #127
 238 006e 3046     		mov	r0, r6
 239 0070 FFF7FEFF 		bl	lv_style_set_border_opa
 240              	.LVL24:
  43:Middlewares/lvgl/examples/widgets/btnmatrix/lv_example_btnmatrix_3.c ****     lv_style_set_border_color(&style_btn, lv_palette_main(LV_PALETTE_GREY));
 241              		.loc 1 43 5 view .LVU58
 242 0074 1220     		movs	r0, #18
 243 0076 FFF7FEFF 		bl	lv_palette_main
 244              	.LVL25:
 245 007a 0146     		mov	r1, r0	@ movhi
 246 007c 3046     		mov	r0, r6
 247 007e FFF7FEFF 		bl	lv_style_set_border_color
 248              	.LVL26:
  44:Middlewares/lvgl/examples/widgets/btnmatrix/lv_example_btnmatrix_3.c ****     lv_style_set_border_side(&style_btn, LV_BORDER_SIDE_INTERNAL);
 249              		.loc 1 44 5 view .LVU59
ARM GAS  /tmp/ccpqnFgH.s 			page 14


 250 0082 1021     		movs	r1, #16
 251 0084 3046     		mov	r0, r6
 252 0086 FFF7FEFF 		bl	lv_style_set_border_side
 253              	.LVL27:
  45:Middlewares/lvgl/examples/widgets/btnmatrix/lv_example_btnmatrix_3.c ****     lv_style_set_radius(&style_btn, 0);
 254              		.loc 1 45 5 view .LVU60
 255 008a 0021     		movs	r1, #0
 256 008c 3046     		mov	r0, r6
 257 008e FFF7FEFF 		bl	lv_style_set_radius
 258              	.LVL28:
  46:Middlewares/lvgl/examples/widgets/btnmatrix/lv_example_btnmatrix_3.c **** 
  47:Middlewares/lvgl/examples/widgets/btnmatrix/lv_example_btnmatrix_3.c ****     static const char * map[] = {LV_SYMBOL_LEFT, "1", "2", "3", "4", "5", LV_SYMBOL_RIGHT, ""};
 259              		.loc 1 47 5 view .LVU61
  48:Middlewares/lvgl/examples/widgets/btnmatrix/lv_example_btnmatrix_3.c **** 
  49:Middlewares/lvgl/examples/widgets/btnmatrix/lv_example_btnmatrix_3.c ****     lv_obj_t * btnm = lv_btnmatrix_create(lv_scr_act());
 260              		.loc 1 49 5 view .LVU62
 261              	.LBB18:
 262              	.LBI18:
 263              		.file 3 "Middlewares/lvgl/examples/widgets/btnmatrix/../../../src/core/lv_disp.h"
   1:Middlewares/lvgl/examples/widgets/btnmatrix/../../../src/core/lv_disp.h **** /**
   2:Middlewares/lvgl/examples/widgets/btnmatrix/../../../src/core/lv_disp.h ****  * @file lv_disp.h
   3:Middlewares/lvgl/examples/widgets/btnmatrix/../../../src/core/lv_disp.h ****  *
   4:Middlewares/lvgl/examples/widgets/btnmatrix/../../../src/core/lv_disp.h ****  */
   5:Middlewares/lvgl/examples/widgets/btnmatrix/../../../src/core/lv_disp.h **** 
   6:Middlewares/lvgl/examples/widgets/btnmatrix/../../../src/core/lv_disp.h **** #ifndef LV_DISP_H
   7:Middlewares/lvgl/examples/widgets/btnmatrix/../../../src/core/lv_disp.h **** #define LV_DISP_H
   8:Middlewares/lvgl/examples/widgets/btnmatrix/../../../src/core/lv_disp.h **** 
   9:Middlewares/lvgl/examples/widgets/btnmatrix/../../../src/core/lv_disp.h **** #ifdef __cplusplus
  10:Middlewares/lvgl/examples/widgets/btnmatrix/../../../src/core/lv_disp.h **** extern "C" {
  11:Middlewares/lvgl/examples/widgets/btnmatrix/../../../src/core/lv_disp.h **** #endif
  12:Middlewares/lvgl/examples/widgets/btnmatrix/../../../src/core/lv_disp.h **** 
  13:Middlewares/lvgl/examples/widgets/btnmatrix/../../../src/core/lv_disp.h **** /*********************
  14:Middlewares/lvgl/examples/widgets/btnmatrix/../../../src/core/lv_disp.h ****  *      INCLUDES
  15:Middlewares/lvgl/examples/widgets/btnmatrix/../../../src/core/lv_disp.h ****  *********************/
  16:Middlewares/lvgl/examples/widgets/btnmatrix/../../../src/core/lv_disp.h **** #include "../hal/lv_hal.h"
  17:Middlewares/lvgl/examples/widgets/btnmatrix/../../../src/core/lv_disp.h **** #include "lv_obj.h"
  18:Middlewares/lvgl/examples/widgets/btnmatrix/../../../src/core/lv_disp.h **** #include "lv_theme.h"
  19:Middlewares/lvgl/examples/widgets/btnmatrix/../../../src/core/lv_disp.h **** 
  20:Middlewares/lvgl/examples/widgets/btnmatrix/../../../src/core/lv_disp.h **** /*********************
  21:Middlewares/lvgl/examples/widgets/btnmatrix/../../../src/core/lv_disp.h ****  *      DEFINES
  22:Middlewares/lvgl/examples/widgets/btnmatrix/../../../src/core/lv_disp.h ****  *********************/
  23:Middlewares/lvgl/examples/widgets/btnmatrix/../../../src/core/lv_disp.h **** 
  24:Middlewares/lvgl/examples/widgets/btnmatrix/../../../src/core/lv_disp.h **** /**********************
  25:Middlewares/lvgl/examples/widgets/btnmatrix/../../../src/core/lv_disp.h ****  *      TYPEDEFS
  26:Middlewares/lvgl/examples/widgets/btnmatrix/../../../src/core/lv_disp.h ****  **********************/
  27:Middlewares/lvgl/examples/widgets/btnmatrix/../../../src/core/lv_disp.h **** 
  28:Middlewares/lvgl/examples/widgets/btnmatrix/../../../src/core/lv_disp.h **** typedef enum {
  29:Middlewares/lvgl/examples/widgets/btnmatrix/../../../src/core/lv_disp.h ****     LV_SCR_LOAD_ANIM_NONE,
  30:Middlewares/lvgl/examples/widgets/btnmatrix/../../../src/core/lv_disp.h ****     LV_SCR_LOAD_ANIM_OVER_LEFT,
  31:Middlewares/lvgl/examples/widgets/btnmatrix/../../../src/core/lv_disp.h ****     LV_SCR_LOAD_ANIM_OVER_RIGHT,
  32:Middlewares/lvgl/examples/widgets/btnmatrix/../../../src/core/lv_disp.h ****     LV_SCR_LOAD_ANIM_OVER_TOP,
  33:Middlewares/lvgl/examples/widgets/btnmatrix/../../../src/core/lv_disp.h ****     LV_SCR_LOAD_ANIM_OVER_BOTTOM,
  34:Middlewares/lvgl/examples/widgets/btnmatrix/../../../src/core/lv_disp.h ****     LV_SCR_LOAD_ANIM_MOVE_LEFT,
  35:Middlewares/lvgl/examples/widgets/btnmatrix/../../../src/core/lv_disp.h ****     LV_SCR_LOAD_ANIM_MOVE_RIGHT,
  36:Middlewares/lvgl/examples/widgets/btnmatrix/../../../src/core/lv_disp.h ****     LV_SCR_LOAD_ANIM_MOVE_TOP,
  37:Middlewares/lvgl/examples/widgets/btnmatrix/../../../src/core/lv_disp.h ****     LV_SCR_LOAD_ANIM_MOVE_BOTTOM,
  38:Middlewares/lvgl/examples/widgets/btnmatrix/../../../src/core/lv_disp.h ****     LV_SCR_LOAD_ANIM_FADE_ON,
ARM GAS  /tmp/ccpqnFgH.s 			page 15


  39:Middlewares/lvgl/examples/widgets/btnmatrix/../../../src/core/lv_disp.h **** } lv_scr_load_anim_t;
  40:Middlewares/lvgl/examples/widgets/btnmatrix/../../../src/core/lv_disp.h **** 
  41:Middlewares/lvgl/examples/widgets/btnmatrix/../../../src/core/lv_disp.h **** /**********************
  42:Middlewares/lvgl/examples/widgets/btnmatrix/../../../src/core/lv_disp.h ****  * GLOBAL PROTOTYPES
  43:Middlewares/lvgl/examples/widgets/btnmatrix/../../../src/core/lv_disp.h ****  **********************/
  44:Middlewares/lvgl/examples/widgets/btnmatrix/../../../src/core/lv_disp.h **** 
  45:Middlewares/lvgl/examples/widgets/btnmatrix/../../../src/core/lv_disp.h **** /**
  46:Middlewares/lvgl/examples/widgets/btnmatrix/../../../src/core/lv_disp.h ****  * Return with a pointer to the active screen
  47:Middlewares/lvgl/examples/widgets/btnmatrix/../../../src/core/lv_disp.h ****  * @param disp pointer to display which active screen should be get. (NULL to use the default
  48:Middlewares/lvgl/examples/widgets/btnmatrix/../../../src/core/lv_disp.h ****  * screen)
  49:Middlewares/lvgl/examples/widgets/btnmatrix/../../../src/core/lv_disp.h ****  * @return pointer to the active screen object (loaded by 'lv_scr_load()')
  50:Middlewares/lvgl/examples/widgets/btnmatrix/../../../src/core/lv_disp.h ****  */
  51:Middlewares/lvgl/examples/widgets/btnmatrix/../../../src/core/lv_disp.h **** lv_obj_t * lv_disp_get_scr_act(lv_disp_t * disp);
  52:Middlewares/lvgl/examples/widgets/btnmatrix/../../../src/core/lv_disp.h **** 
  53:Middlewares/lvgl/examples/widgets/btnmatrix/../../../src/core/lv_disp.h **** /**
  54:Middlewares/lvgl/examples/widgets/btnmatrix/../../../src/core/lv_disp.h ****  * Return with a pointer to the previous screen. Only used during screen transitions.
  55:Middlewares/lvgl/examples/widgets/btnmatrix/../../../src/core/lv_disp.h ****  * @param disp pointer to display which previous screen should be get. (NULL to use the default
  56:Middlewares/lvgl/examples/widgets/btnmatrix/../../../src/core/lv_disp.h ****  * screen)
  57:Middlewares/lvgl/examples/widgets/btnmatrix/../../../src/core/lv_disp.h ****  * @return pointer to the previous screen object or NULL if not used now
  58:Middlewares/lvgl/examples/widgets/btnmatrix/../../../src/core/lv_disp.h ****  */
  59:Middlewares/lvgl/examples/widgets/btnmatrix/../../../src/core/lv_disp.h **** lv_obj_t * lv_disp_get_scr_prev(lv_disp_t * disp);
  60:Middlewares/lvgl/examples/widgets/btnmatrix/../../../src/core/lv_disp.h **** 
  61:Middlewares/lvgl/examples/widgets/btnmatrix/../../../src/core/lv_disp.h **** /**
  62:Middlewares/lvgl/examples/widgets/btnmatrix/../../../src/core/lv_disp.h ****  * Make a screen active
  63:Middlewares/lvgl/examples/widgets/btnmatrix/../../../src/core/lv_disp.h ****  * @param scr pointer to a screen
  64:Middlewares/lvgl/examples/widgets/btnmatrix/../../../src/core/lv_disp.h ****  */
  65:Middlewares/lvgl/examples/widgets/btnmatrix/../../../src/core/lv_disp.h **** void lv_disp_load_scr(lv_obj_t * scr);
  66:Middlewares/lvgl/examples/widgets/btnmatrix/../../../src/core/lv_disp.h **** 
  67:Middlewares/lvgl/examples/widgets/btnmatrix/../../../src/core/lv_disp.h **** /**
  68:Middlewares/lvgl/examples/widgets/btnmatrix/../../../src/core/lv_disp.h ****  * Return with the top layer. (Same on every screen and it is above the normal screen layer)
  69:Middlewares/lvgl/examples/widgets/btnmatrix/../../../src/core/lv_disp.h ****  * @param disp pointer to display which top layer should be get. (NULL to use the default screen)
  70:Middlewares/lvgl/examples/widgets/btnmatrix/../../../src/core/lv_disp.h ****  * @return pointer to the top layer object  (transparent screen sized lv_obj)
  71:Middlewares/lvgl/examples/widgets/btnmatrix/../../../src/core/lv_disp.h ****  */
  72:Middlewares/lvgl/examples/widgets/btnmatrix/../../../src/core/lv_disp.h **** lv_obj_t * lv_disp_get_layer_top(lv_disp_t * disp);
  73:Middlewares/lvgl/examples/widgets/btnmatrix/../../../src/core/lv_disp.h **** 
  74:Middlewares/lvgl/examples/widgets/btnmatrix/../../../src/core/lv_disp.h **** /**
  75:Middlewares/lvgl/examples/widgets/btnmatrix/../../../src/core/lv_disp.h ****  * Return with the sys. layer. (Same on every screen and it is above the normal screen and the top
  76:Middlewares/lvgl/examples/widgets/btnmatrix/../../../src/core/lv_disp.h ****  * layer)
  77:Middlewares/lvgl/examples/widgets/btnmatrix/../../../src/core/lv_disp.h ****  * @param disp pointer to display which sys. layer  should be get. (NULL to use the default screen)
  78:Middlewares/lvgl/examples/widgets/btnmatrix/../../../src/core/lv_disp.h ****  * @return pointer to the sys layer object  (transparent screen sized lv_obj)
  79:Middlewares/lvgl/examples/widgets/btnmatrix/../../../src/core/lv_disp.h ****  */
  80:Middlewares/lvgl/examples/widgets/btnmatrix/../../../src/core/lv_disp.h **** lv_obj_t * lv_disp_get_layer_sys(lv_disp_t * disp);
  81:Middlewares/lvgl/examples/widgets/btnmatrix/../../../src/core/lv_disp.h **** 
  82:Middlewares/lvgl/examples/widgets/btnmatrix/../../../src/core/lv_disp.h **** /**
  83:Middlewares/lvgl/examples/widgets/btnmatrix/../../../src/core/lv_disp.h ****  * Get the theme of a display
  84:Middlewares/lvgl/examples/widgets/btnmatrix/../../../src/core/lv_disp.h ****  * @param disp pointer to a display
  85:Middlewares/lvgl/examples/widgets/btnmatrix/../../../src/core/lv_disp.h ****  * @return the display's theme (can be NULL)
  86:Middlewares/lvgl/examples/widgets/btnmatrix/../../../src/core/lv_disp.h ****  */
  87:Middlewares/lvgl/examples/widgets/btnmatrix/../../../src/core/lv_disp.h **** void lv_disp_set_theme(lv_disp_t * disp, lv_theme_t * th);
  88:Middlewares/lvgl/examples/widgets/btnmatrix/../../../src/core/lv_disp.h **** 
  89:Middlewares/lvgl/examples/widgets/btnmatrix/../../../src/core/lv_disp.h **** /**
  90:Middlewares/lvgl/examples/widgets/btnmatrix/../../../src/core/lv_disp.h ****  * Get the theme of a display
  91:Middlewares/lvgl/examples/widgets/btnmatrix/../../../src/core/lv_disp.h ****  * @param disp pointer to a display
  92:Middlewares/lvgl/examples/widgets/btnmatrix/../../../src/core/lv_disp.h ****  * @return the display's theme (can be NULL)
  93:Middlewares/lvgl/examples/widgets/btnmatrix/../../../src/core/lv_disp.h ****  */
  94:Middlewares/lvgl/examples/widgets/btnmatrix/../../../src/core/lv_disp.h **** lv_theme_t * lv_disp_get_theme(lv_disp_t * disp);
  95:Middlewares/lvgl/examples/widgets/btnmatrix/../../../src/core/lv_disp.h **** 
ARM GAS  /tmp/ccpqnFgH.s 			page 16


  96:Middlewares/lvgl/examples/widgets/btnmatrix/../../../src/core/lv_disp.h **** /**
  97:Middlewares/lvgl/examples/widgets/btnmatrix/../../../src/core/lv_disp.h ****  * Set the background color of a display
  98:Middlewares/lvgl/examples/widgets/btnmatrix/../../../src/core/lv_disp.h ****  * @param disp pointer to a display
  99:Middlewares/lvgl/examples/widgets/btnmatrix/../../../src/core/lv_disp.h ****  * @param color color of the background
 100:Middlewares/lvgl/examples/widgets/btnmatrix/../../../src/core/lv_disp.h ****  */
 101:Middlewares/lvgl/examples/widgets/btnmatrix/../../../src/core/lv_disp.h **** void lv_disp_set_bg_color(lv_disp_t * disp, lv_color_t color);
 102:Middlewares/lvgl/examples/widgets/btnmatrix/../../../src/core/lv_disp.h **** 
 103:Middlewares/lvgl/examples/widgets/btnmatrix/../../../src/core/lv_disp.h **** /**
 104:Middlewares/lvgl/examples/widgets/btnmatrix/../../../src/core/lv_disp.h ****  * Set the background image of a display
 105:Middlewares/lvgl/examples/widgets/btnmatrix/../../../src/core/lv_disp.h ****  * @param disp pointer to a display
 106:Middlewares/lvgl/examples/widgets/btnmatrix/../../../src/core/lv_disp.h ****  * @param img_src path to file or pointer to an `lv_img_dsc_t` variable
 107:Middlewares/lvgl/examples/widgets/btnmatrix/../../../src/core/lv_disp.h ****  */
 108:Middlewares/lvgl/examples/widgets/btnmatrix/../../../src/core/lv_disp.h **** void lv_disp_set_bg_image(lv_disp_t * disp, const void  * img_src);
 109:Middlewares/lvgl/examples/widgets/btnmatrix/../../../src/core/lv_disp.h **** 
 110:Middlewares/lvgl/examples/widgets/btnmatrix/../../../src/core/lv_disp.h **** /**
 111:Middlewares/lvgl/examples/widgets/btnmatrix/../../../src/core/lv_disp.h ****  * Opacity of the background
 112:Middlewares/lvgl/examples/widgets/btnmatrix/../../../src/core/lv_disp.h ****  * @param disp pointer to a display
 113:Middlewares/lvgl/examples/widgets/btnmatrix/../../../src/core/lv_disp.h ****  * @param opa opacity (0..255)
 114:Middlewares/lvgl/examples/widgets/btnmatrix/../../../src/core/lv_disp.h ****  */
 115:Middlewares/lvgl/examples/widgets/btnmatrix/../../../src/core/lv_disp.h **** void lv_disp_set_bg_opa(lv_disp_t * disp, lv_opa_t opa);
 116:Middlewares/lvgl/examples/widgets/btnmatrix/../../../src/core/lv_disp.h **** 
 117:Middlewares/lvgl/examples/widgets/btnmatrix/../../../src/core/lv_disp.h **** /**
 118:Middlewares/lvgl/examples/widgets/btnmatrix/../../../src/core/lv_disp.h ****  * Switch screen with animation
 119:Middlewares/lvgl/examples/widgets/btnmatrix/../../../src/core/lv_disp.h ****  * @param scr pointer to the new screen to load
 120:Middlewares/lvgl/examples/widgets/btnmatrix/../../../src/core/lv_disp.h ****  * @param anim_type type of the animation from `lv_scr_load_anim_t`. E.g.  `LV_SCR_LOAD_ANIM_MOVE_L
 121:Middlewares/lvgl/examples/widgets/btnmatrix/../../../src/core/lv_disp.h ****  * @param time time of the animation
 122:Middlewares/lvgl/examples/widgets/btnmatrix/../../../src/core/lv_disp.h ****  * @param delay delay before the transition
 123:Middlewares/lvgl/examples/widgets/btnmatrix/../../../src/core/lv_disp.h ****  * @param auto_del true: automatically delete the old screen
 124:Middlewares/lvgl/examples/widgets/btnmatrix/../../../src/core/lv_disp.h ****  */
 125:Middlewares/lvgl/examples/widgets/btnmatrix/../../../src/core/lv_disp.h **** void lv_scr_load_anim(lv_obj_t * scr, lv_scr_load_anim_t anim_type, uint32_t time, uint32_t delay, 
 126:Middlewares/lvgl/examples/widgets/btnmatrix/../../../src/core/lv_disp.h **** 
 127:Middlewares/lvgl/examples/widgets/btnmatrix/../../../src/core/lv_disp.h **** /**
 128:Middlewares/lvgl/examples/widgets/btnmatrix/../../../src/core/lv_disp.h ****  * Get elapsed time since last user activity on a display (e.g. click)
 129:Middlewares/lvgl/examples/widgets/btnmatrix/../../../src/core/lv_disp.h ****  * @param disp pointer to an display (NULL to get the overall smallest inactivity)
 130:Middlewares/lvgl/examples/widgets/btnmatrix/../../../src/core/lv_disp.h ****  * @return elapsed ticks (milliseconds) since the last activity
 131:Middlewares/lvgl/examples/widgets/btnmatrix/../../../src/core/lv_disp.h ****  */
 132:Middlewares/lvgl/examples/widgets/btnmatrix/../../../src/core/lv_disp.h **** uint32_t lv_disp_get_inactive_time(const lv_disp_t * disp);
 133:Middlewares/lvgl/examples/widgets/btnmatrix/../../../src/core/lv_disp.h **** 
 134:Middlewares/lvgl/examples/widgets/btnmatrix/../../../src/core/lv_disp.h **** /**
 135:Middlewares/lvgl/examples/widgets/btnmatrix/../../../src/core/lv_disp.h ****  * Manually trigger an activity on a display
 136:Middlewares/lvgl/examples/widgets/btnmatrix/../../../src/core/lv_disp.h ****  * @param disp pointer to an display (NULL to use the default display)
 137:Middlewares/lvgl/examples/widgets/btnmatrix/../../../src/core/lv_disp.h ****  */
 138:Middlewares/lvgl/examples/widgets/btnmatrix/../../../src/core/lv_disp.h **** void lv_disp_trig_activity(lv_disp_t * disp);
 139:Middlewares/lvgl/examples/widgets/btnmatrix/../../../src/core/lv_disp.h **** 
 140:Middlewares/lvgl/examples/widgets/btnmatrix/../../../src/core/lv_disp.h **** /**
 141:Middlewares/lvgl/examples/widgets/btnmatrix/../../../src/core/lv_disp.h ****  * Clean any CPU cache that is related to the display.
 142:Middlewares/lvgl/examples/widgets/btnmatrix/../../../src/core/lv_disp.h ****  * @param disp pointer to an display (NULL to use the default display)
 143:Middlewares/lvgl/examples/widgets/btnmatrix/../../../src/core/lv_disp.h ****  */
 144:Middlewares/lvgl/examples/widgets/btnmatrix/../../../src/core/lv_disp.h **** void lv_disp_clean_dcache(lv_disp_t * disp);
 145:Middlewares/lvgl/examples/widgets/btnmatrix/../../../src/core/lv_disp.h **** 
 146:Middlewares/lvgl/examples/widgets/btnmatrix/../../../src/core/lv_disp.h **** /**
 147:Middlewares/lvgl/examples/widgets/btnmatrix/../../../src/core/lv_disp.h ****  * Get a pointer to the screen refresher timer to
 148:Middlewares/lvgl/examples/widgets/btnmatrix/../../../src/core/lv_disp.h ****  * modify its parameters with `lv_timer_...` functions.
 149:Middlewares/lvgl/examples/widgets/btnmatrix/../../../src/core/lv_disp.h ****  * @param disp pointer to a display
 150:Middlewares/lvgl/examples/widgets/btnmatrix/../../../src/core/lv_disp.h ****  * @return pointer to the display refresher timer. (NULL on error)
 151:Middlewares/lvgl/examples/widgets/btnmatrix/../../../src/core/lv_disp.h ****  */
 152:Middlewares/lvgl/examples/widgets/btnmatrix/../../../src/core/lv_disp.h **** lv_timer_t * _lv_disp_get_refr_timer(lv_disp_t * disp);
ARM GAS  /tmp/ccpqnFgH.s 			page 17


 153:Middlewares/lvgl/examples/widgets/btnmatrix/../../../src/core/lv_disp.h **** 
 154:Middlewares/lvgl/examples/widgets/btnmatrix/../../../src/core/lv_disp.h **** /*------------------------------------------------
 155:Middlewares/lvgl/examples/widgets/btnmatrix/../../../src/core/lv_disp.h ****  * To improve backward compatibility
 156:Middlewares/lvgl/examples/widgets/btnmatrix/../../../src/core/lv_disp.h ****  * Recommended only if you have one display
 157:Middlewares/lvgl/examples/widgets/btnmatrix/../../../src/core/lv_disp.h ****  *------------------------------------------------*/
 158:Middlewares/lvgl/examples/widgets/btnmatrix/../../../src/core/lv_disp.h **** 
 159:Middlewares/lvgl/examples/widgets/btnmatrix/../../../src/core/lv_disp.h **** /**
 160:Middlewares/lvgl/examples/widgets/btnmatrix/../../../src/core/lv_disp.h ****  * Get the active screen of the default display
 161:Middlewares/lvgl/examples/widgets/btnmatrix/../../../src/core/lv_disp.h ****  * @return pointer to the active screen
 162:Middlewares/lvgl/examples/widgets/btnmatrix/../../../src/core/lv_disp.h ****  */
 163:Middlewares/lvgl/examples/widgets/btnmatrix/../../../src/core/lv_disp.h **** static inline lv_obj_t * lv_scr_act(void)
 264              		.loc 3 163 26 view .LVU63
 265              	.LBB19:
 164:Middlewares/lvgl/examples/widgets/btnmatrix/../../../src/core/lv_disp.h **** {
 165:Middlewares/lvgl/examples/widgets/btnmatrix/../../../src/core/lv_disp.h ****     return lv_disp_get_scr_act(lv_disp_get_default());
 266              		.loc 3 165 5 view .LVU64
 267              		.loc 3 165 12 is_stmt 0 view .LVU65
 268 0092 FFF7FEFF 		bl	lv_disp_get_default
 269              	.LVL29:
 270 0096 FFF7FEFF 		bl	lv_disp_get_scr_act
 271              	.LVL30:
 272              	.LBE19:
 273              	.LBE18:
 274              		.loc 1 49 23 view .LVU66
 275 009a FFF7FEFF 		bl	lv_btnmatrix_create
 276              	.LVL31:
 277 009e 0446     		mov	r4, r0
 278              	.LVL32:
  50:Middlewares/lvgl/examples/widgets/btnmatrix/lv_example_btnmatrix_3.c ****     lv_btnmatrix_set_map(btnm, map);
 279              		.loc 1 50 5 is_stmt 1 view .LVU67
 280 00a0 1D49     		ldr	r1, .L15+8
 281 00a2 FFF7FEFF 		bl	lv_btnmatrix_set_map
 282              	.LVL33:
  51:Middlewares/lvgl/examples/widgets/btnmatrix/lv_example_btnmatrix_3.c ****     lv_obj_add_style(btnm, &style_bg, 0);
 283              		.loc 1 51 5 view .LVU68
 284 00a6 0022     		movs	r2, #0
 285 00a8 2946     		mov	r1, r5
 286 00aa 2046     		mov	r0, r4
 287 00ac FFF7FEFF 		bl	lv_obj_add_style
 288              	.LVL34:
  52:Middlewares/lvgl/examples/widgets/btnmatrix/lv_example_btnmatrix_3.c ****     lv_obj_add_style(btnm, &style_btn, LV_PART_ITEMS);
 289              		.loc 1 52 5 view .LVU69
 290 00b0 4FF4A022 		mov	r2, #327680
 291 00b4 3146     		mov	r1, r6
 292 00b6 2046     		mov	r0, r4
 293 00b8 FFF7FEFF 		bl	lv_obj_add_style
 294              	.LVL35:
  53:Middlewares/lvgl/examples/widgets/btnmatrix/lv_example_btnmatrix_3.c ****     lv_obj_add_event_cb(btnm, event_cb, LV_EVENT_VALUE_CHANGED, NULL);
 295              		.loc 1 53 5 view .LVU70
 296 00bc 0023     		movs	r3, #0
 297 00be 1C22     		movs	r2, #28
 298 00c0 1649     		ldr	r1, .L15+12
 299 00c2 2046     		mov	r0, r4
 300 00c4 FFF7FEFF 		bl	lv_obj_add_event_cb
 301              	.LVL36:
  54:Middlewares/lvgl/examples/widgets/btnmatrix/lv_example_btnmatrix_3.c ****     lv_obj_set_size(btnm, 225, 35);
 302              		.loc 1 54 5 view .LVU71
ARM GAS  /tmp/ccpqnFgH.s 			page 18


 303 00c8 2322     		movs	r2, #35
 304 00ca E121     		movs	r1, #225
 305 00cc 2046     		mov	r0, r4
 306 00ce FFF7FEFF 		bl	lv_obj_set_size
 307              	.LVL37:
  55:Middlewares/lvgl/examples/widgets/btnmatrix/lv_example_btnmatrix_3.c **** 
  56:Middlewares/lvgl/examples/widgets/btnmatrix/lv_example_btnmatrix_3.c ****     /*Allow selecting on one number at time*/
  57:Middlewares/lvgl/examples/widgets/btnmatrix/lv_example_btnmatrix_3.c ****     lv_btnmatrix_set_btn_ctrl_all(btnm, LV_BTNMATRIX_CTRL_CHECKABLE);
 308              		.loc 1 57 5 view .LVU72
 309 00d2 4021     		movs	r1, #64
 310 00d4 2046     		mov	r0, r4
 311 00d6 FFF7FEFF 		bl	lv_btnmatrix_set_btn_ctrl_all
 312              	.LVL38:
  58:Middlewares/lvgl/examples/widgets/btnmatrix/lv_example_btnmatrix_3.c ****     lv_btnmatrix_clear_btn_ctrl(btnm, 0, LV_BTNMATRIX_CTRL_CHECKABLE);
 313              		.loc 1 58 5 view .LVU73
 314 00da 4022     		movs	r2, #64
 315 00dc 0021     		movs	r1, #0
 316 00de 2046     		mov	r0, r4
 317 00e0 FFF7FEFF 		bl	lv_btnmatrix_clear_btn_ctrl
 318              	.LVL39:
  59:Middlewares/lvgl/examples/widgets/btnmatrix/lv_example_btnmatrix_3.c ****     lv_btnmatrix_clear_btn_ctrl(btnm, 6, LV_BTNMATRIX_CTRL_CHECKABLE);
 319              		.loc 1 59 5 view .LVU74
 320 00e4 4022     		movs	r2, #64
 321 00e6 0621     		movs	r1, #6
 322 00e8 2046     		mov	r0, r4
 323 00ea FFF7FEFF 		bl	lv_btnmatrix_clear_btn_ctrl
 324              	.LVL40:
  60:Middlewares/lvgl/examples/widgets/btnmatrix/lv_example_btnmatrix_3.c **** 
  61:Middlewares/lvgl/examples/widgets/btnmatrix/lv_example_btnmatrix_3.c ****     lv_btnmatrix_set_one_checked(btnm, true);
 325              		.loc 1 61 5 view .LVU75
 326 00ee 0121     		movs	r1, #1
 327 00f0 2046     		mov	r0, r4
 328 00f2 FFF7FEFF 		bl	lv_btnmatrix_set_one_checked
 329              	.LVL41:
  62:Middlewares/lvgl/examples/widgets/btnmatrix/lv_example_btnmatrix_3.c ****     lv_btnmatrix_set_btn_ctrl(btnm, 1, LV_BTNMATRIX_CTRL_CHECKED);
 330              		.loc 1 62 5 view .LVU76
 331 00f6 8022     		movs	r2, #128
 332 00f8 0121     		movs	r1, #1
 333 00fa 2046     		mov	r0, r4
 334 00fc FFF7FEFF 		bl	lv_btnmatrix_set_btn_ctrl
 335              	.LVL42:
  63:Middlewares/lvgl/examples/widgets/btnmatrix/lv_example_btnmatrix_3.c **** 
  64:Middlewares/lvgl/examples/widgets/btnmatrix/lv_example_btnmatrix_3.c ****     lv_obj_center(btnm);
 336              		.loc 1 64 5 view .LVU77
 337              	.LBB20:
 338              	.LBI20:
 339              		.file 4 "Middlewares/lvgl/examples/widgets/btnmatrix/../../../src/core/lv_obj_pos.h"
   1:Middlewares/lvgl/examples/widgets/btnmatrix/../../../src/core/lv_obj_pos.h **** /**
   2:Middlewares/lvgl/examples/widgets/btnmatrix/../../../src/core/lv_obj_pos.h ****  * @file lv_obj_pos.h
   3:Middlewares/lvgl/examples/widgets/btnmatrix/../../../src/core/lv_obj_pos.h ****  *
   4:Middlewares/lvgl/examples/widgets/btnmatrix/../../../src/core/lv_obj_pos.h ****  */
   5:Middlewares/lvgl/examples/widgets/btnmatrix/../../../src/core/lv_obj_pos.h **** 
   6:Middlewares/lvgl/examples/widgets/btnmatrix/../../../src/core/lv_obj_pos.h **** #ifndef LV_OBJ_POS_H
   7:Middlewares/lvgl/examples/widgets/btnmatrix/../../../src/core/lv_obj_pos.h **** #define LV_OBJ_POS_H
   8:Middlewares/lvgl/examples/widgets/btnmatrix/../../../src/core/lv_obj_pos.h **** 
   9:Middlewares/lvgl/examples/widgets/btnmatrix/../../../src/core/lv_obj_pos.h **** #ifdef __cplusplus
  10:Middlewares/lvgl/examples/widgets/btnmatrix/../../../src/core/lv_obj_pos.h **** extern "C" {
ARM GAS  /tmp/ccpqnFgH.s 			page 19


  11:Middlewares/lvgl/examples/widgets/btnmatrix/../../../src/core/lv_obj_pos.h **** #endif
  12:Middlewares/lvgl/examples/widgets/btnmatrix/../../../src/core/lv_obj_pos.h **** 
  13:Middlewares/lvgl/examples/widgets/btnmatrix/../../../src/core/lv_obj_pos.h **** /*********************
  14:Middlewares/lvgl/examples/widgets/btnmatrix/../../../src/core/lv_obj_pos.h ****  *      INCLUDES
  15:Middlewares/lvgl/examples/widgets/btnmatrix/../../../src/core/lv_obj_pos.h ****  *********************/
  16:Middlewares/lvgl/examples/widgets/btnmatrix/../../../src/core/lv_obj_pos.h **** #include "../misc/lv_area.h"
  17:Middlewares/lvgl/examples/widgets/btnmatrix/../../../src/core/lv_obj_pos.h **** 
  18:Middlewares/lvgl/examples/widgets/btnmatrix/../../../src/core/lv_obj_pos.h **** /*********************
  19:Middlewares/lvgl/examples/widgets/btnmatrix/../../../src/core/lv_obj_pos.h ****  *      DEFINES
  20:Middlewares/lvgl/examples/widgets/btnmatrix/../../../src/core/lv_obj_pos.h ****  *********************/
  21:Middlewares/lvgl/examples/widgets/btnmatrix/../../../src/core/lv_obj_pos.h **** 
  22:Middlewares/lvgl/examples/widgets/btnmatrix/../../../src/core/lv_obj_pos.h **** /**********************
  23:Middlewares/lvgl/examples/widgets/btnmatrix/../../../src/core/lv_obj_pos.h ****  *      TYPEDEFS
  24:Middlewares/lvgl/examples/widgets/btnmatrix/../../../src/core/lv_obj_pos.h ****  **********************/
  25:Middlewares/lvgl/examples/widgets/btnmatrix/../../../src/core/lv_obj_pos.h **** struct _lv_obj_t;
  26:Middlewares/lvgl/examples/widgets/btnmatrix/../../../src/core/lv_obj_pos.h **** 
  27:Middlewares/lvgl/examples/widgets/btnmatrix/../../../src/core/lv_obj_pos.h **** typedef void (*lv_layout_update_cb_t)(struct _lv_obj_t *, void * user_data);
  28:Middlewares/lvgl/examples/widgets/btnmatrix/../../../src/core/lv_obj_pos.h **** typedef struct {
  29:Middlewares/lvgl/examples/widgets/btnmatrix/../../../src/core/lv_obj_pos.h ****     lv_layout_update_cb_t cb;
  30:Middlewares/lvgl/examples/widgets/btnmatrix/../../../src/core/lv_obj_pos.h ****     void * user_data;
  31:Middlewares/lvgl/examples/widgets/btnmatrix/../../../src/core/lv_obj_pos.h **** }lv_layout_dsc_t;
  32:Middlewares/lvgl/examples/widgets/btnmatrix/../../../src/core/lv_obj_pos.h **** 
  33:Middlewares/lvgl/examples/widgets/btnmatrix/../../../src/core/lv_obj_pos.h **** /**********************
  34:Middlewares/lvgl/examples/widgets/btnmatrix/../../../src/core/lv_obj_pos.h ****  * GLOBAL PROTOTYPES
  35:Middlewares/lvgl/examples/widgets/btnmatrix/../../../src/core/lv_obj_pos.h ****  **********************/
  36:Middlewares/lvgl/examples/widgets/btnmatrix/../../../src/core/lv_obj_pos.h **** 
  37:Middlewares/lvgl/examples/widgets/btnmatrix/../../../src/core/lv_obj_pos.h **** /**
  38:Middlewares/lvgl/examples/widgets/btnmatrix/../../../src/core/lv_obj_pos.h ****  * Set the relative the position of an object (relative to the parent's top left corner)
  39:Middlewares/lvgl/examples/widgets/btnmatrix/../../../src/core/lv_obj_pos.h ****  * @param obj       pointer to an object
  40:Middlewares/lvgl/examples/widgets/btnmatrix/../../../src/core/lv_obj_pos.h ****  * @param x         new distance from the left side of the parent plus the parent's left padding
  41:Middlewares/lvgl/examples/widgets/btnmatrix/../../../src/core/lv_obj_pos.h ****  * @param y         new distance from the top side of the parent  plus the parent's right padding
  42:Middlewares/lvgl/examples/widgets/btnmatrix/../../../src/core/lv_obj_pos.h ****  */
  43:Middlewares/lvgl/examples/widgets/btnmatrix/../../../src/core/lv_obj_pos.h **** void lv_obj_set_pos(struct _lv_obj_t * obj, lv_coord_t x, lv_coord_t y);
  44:Middlewares/lvgl/examples/widgets/btnmatrix/../../../src/core/lv_obj_pos.h **** 
  45:Middlewares/lvgl/examples/widgets/btnmatrix/../../../src/core/lv_obj_pos.h **** /**
  46:Middlewares/lvgl/examples/widgets/btnmatrix/../../../src/core/lv_obj_pos.h ****  * Set the x coordinate of a object
  47:Middlewares/lvgl/examples/widgets/btnmatrix/../../../src/core/lv_obj_pos.h ****  * @param obj       pointer to an object
  48:Middlewares/lvgl/examples/widgets/btnmatrix/../../../src/core/lv_obj_pos.h ****  * @param x         new distance from the left side from the parent plus the parent's left padding
  49:Middlewares/lvgl/examples/widgets/btnmatrix/../../../src/core/lv_obj_pos.h ****  */
  50:Middlewares/lvgl/examples/widgets/btnmatrix/../../../src/core/lv_obj_pos.h **** void lv_obj_set_x(struct _lv_obj_t * obj, lv_coord_t x);
  51:Middlewares/lvgl/examples/widgets/btnmatrix/../../../src/core/lv_obj_pos.h **** 
  52:Middlewares/lvgl/examples/widgets/btnmatrix/../../../src/core/lv_obj_pos.h **** /**
  53:Middlewares/lvgl/examples/widgets/btnmatrix/../../../src/core/lv_obj_pos.h ****  * Set the y coordinate of a object
  54:Middlewares/lvgl/examples/widgets/btnmatrix/../../../src/core/lv_obj_pos.h ****  * @param obj       pointer to an object
  55:Middlewares/lvgl/examples/widgets/btnmatrix/../../../src/core/lv_obj_pos.h ****  * @param y         new distance from the top of the parent  plus the parent's top padding
  56:Middlewares/lvgl/examples/widgets/btnmatrix/../../../src/core/lv_obj_pos.h ****  */
  57:Middlewares/lvgl/examples/widgets/btnmatrix/../../../src/core/lv_obj_pos.h **** void lv_obj_set_y(struct _lv_obj_t * obj, lv_coord_t y);
  58:Middlewares/lvgl/examples/widgets/btnmatrix/../../../src/core/lv_obj_pos.h **** 
  59:Middlewares/lvgl/examples/widgets/btnmatrix/../../../src/core/lv_obj_pos.h **** /**
  60:Middlewares/lvgl/examples/widgets/btnmatrix/../../../src/core/lv_obj_pos.h ****  * Set the size of an object.
  61:Middlewares/lvgl/examples/widgets/btnmatrix/../../../src/core/lv_obj_pos.h ****  * @param obj       pointer to an object
  62:Middlewares/lvgl/examples/widgets/btnmatrix/../../../src/core/lv_obj_pos.h ****  * @param w         the new width
  63:Middlewares/lvgl/examples/widgets/btnmatrix/../../../src/core/lv_obj_pos.h ****  * @param h         the new height
  64:Middlewares/lvgl/examples/widgets/btnmatrix/../../../src/core/lv_obj_pos.h ****  * @note            possible values are:
  65:Middlewares/lvgl/examples/widgets/btnmatrix/../../../src/core/lv_obj_pos.h ****  *                  pixel               simple set the size accordingly
  66:Middlewares/lvgl/examples/widgets/btnmatrix/../../../src/core/lv_obj_pos.h ****  *                  LV_SIZE_CONTENT     set the size to involve all children in the given direction
  67:Middlewares/lvgl/examples/widgets/btnmatrix/../../../src/core/lv_obj_pos.h ****  *                  LV_SIZE_PCT(x)     to set size in percentage of the parent's content area size 
ARM GAS  /tmp/ccpqnFgH.s 			page 20


  68:Middlewares/lvgl/examples/widgets/btnmatrix/../../../src/core/lv_obj_pos.h ****  *                                      x should be in [0..1000]% range
  69:Middlewares/lvgl/examples/widgets/btnmatrix/../../../src/core/lv_obj_pos.h ****  */
  70:Middlewares/lvgl/examples/widgets/btnmatrix/../../../src/core/lv_obj_pos.h **** void lv_obj_set_size(struct _lv_obj_t * obj, lv_coord_t w, lv_coord_t h);
  71:Middlewares/lvgl/examples/widgets/btnmatrix/../../../src/core/lv_obj_pos.h **** 
  72:Middlewares/lvgl/examples/widgets/btnmatrix/../../../src/core/lv_obj_pos.h **** /**
  73:Middlewares/lvgl/examples/widgets/btnmatrix/../../../src/core/lv_obj_pos.h ****  * Recalculate the size of the object
  74:Middlewares/lvgl/examples/widgets/btnmatrix/../../../src/core/lv_obj_pos.h ****  * @param obj       pointer to an object
  75:Middlewares/lvgl/examples/widgets/btnmatrix/../../../src/core/lv_obj_pos.h ****  * @return          true: the size has been changed
  76:Middlewares/lvgl/examples/widgets/btnmatrix/../../../src/core/lv_obj_pos.h ****  */
  77:Middlewares/lvgl/examples/widgets/btnmatrix/../../../src/core/lv_obj_pos.h **** bool lv_obj_refr_size(struct _lv_obj_t * obj);
  78:Middlewares/lvgl/examples/widgets/btnmatrix/../../../src/core/lv_obj_pos.h **** 
  79:Middlewares/lvgl/examples/widgets/btnmatrix/../../../src/core/lv_obj_pos.h **** /**
  80:Middlewares/lvgl/examples/widgets/btnmatrix/../../../src/core/lv_obj_pos.h ****  * Set the width of an object
  81:Middlewares/lvgl/examples/widgets/btnmatrix/../../../src/core/lv_obj_pos.h ****  * @param obj       pointer to an object
  82:Middlewares/lvgl/examples/widgets/btnmatrix/../../../src/core/lv_obj_pos.h ****  * @param w         the new width
  83:Middlewares/lvgl/examples/widgets/btnmatrix/../../../src/core/lv_obj_pos.h ****  * @note            possible values are:
  84:Middlewares/lvgl/examples/widgets/btnmatrix/../../../src/core/lv_obj_pos.h ****  *                  pixel               simple set the size accordingly
  85:Middlewares/lvgl/examples/widgets/btnmatrix/../../../src/core/lv_obj_pos.h ****  *                  LV_SIZE_CONTENT     set the size to involve all children in the given direction
  86:Middlewares/lvgl/examples/widgets/btnmatrix/../../../src/core/lv_obj_pos.h ****  *                  lv_pct(x)           to set size in percentage of the parent's content area size
  87:Middlewares/lvgl/examples/widgets/btnmatrix/../../../src/core/lv_obj_pos.h ****  *                                      x should be in [0..1000]% range
  88:Middlewares/lvgl/examples/widgets/btnmatrix/../../../src/core/lv_obj_pos.h ****  */
  89:Middlewares/lvgl/examples/widgets/btnmatrix/../../../src/core/lv_obj_pos.h **** void lv_obj_set_width(struct _lv_obj_t * obj, lv_coord_t w);
  90:Middlewares/lvgl/examples/widgets/btnmatrix/../../../src/core/lv_obj_pos.h **** 
  91:Middlewares/lvgl/examples/widgets/btnmatrix/../../../src/core/lv_obj_pos.h **** /**
  92:Middlewares/lvgl/examples/widgets/btnmatrix/../../../src/core/lv_obj_pos.h ****  * Set the height of an object
  93:Middlewares/lvgl/examples/widgets/btnmatrix/../../../src/core/lv_obj_pos.h ****  * @param obj       pointer to an object
  94:Middlewares/lvgl/examples/widgets/btnmatrix/../../../src/core/lv_obj_pos.h ****  * @param h         the new height
  95:Middlewares/lvgl/examples/widgets/btnmatrix/../../../src/core/lv_obj_pos.h ****  * @note            possible values are:
  96:Middlewares/lvgl/examples/widgets/btnmatrix/../../../src/core/lv_obj_pos.h ****  *                  pixel               simple set the size accordingly
  97:Middlewares/lvgl/examples/widgets/btnmatrix/../../../src/core/lv_obj_pos.h ****  *                  LV_SIZE_CONTENT     set the size to involve all children in the given direction
  98:Middlewares/lvgl/examples/widgets/btnmatrix/../../../src/core/lv_obj_pos.h ****  *                  lv_pct(x)           to set size in percentage of the parent's content area size
  99:Middlewares/lvgl/examples/widgets/btnmatrix/../../../src/core/lv_obj_pos.h ****  *                                      x should be in [0..1000]% range
 100:Middlewares/lvgl/examples/widgets/btnmatrix/../../../src/core/lv_obj_pos.h ****  */
 101:Middlewares/lvgl/examples/widgets/btnmatrix/../../../src/core/lv_obj_pos.h **** void lv_obj_set_height(struct _lv_obj_t * obj, lv_coord_t h);
 102:Middlewares/lvgl/examples/widgets/btnmatrix/../../../src/core/lv_obj_pos.h **** 
 103:Middlewares/lvgl/examples/widgets/btnmatrix/../../../src/core/lv_obj_pos.h **** /**
 104:Middlewares/lvgl/examples/widgets/btnmatrix/../../../src/core/lv_obj_pos.h ****  * Set the width reduced by the left and right padding and the border width.
 105:Middlewares/lvgl/examples/widgets/btnmatrix/../../../src/core/lv_obj_pos.h ****  * @param obj       pointer to an object
 106:Middlewares/lvgl/examples/widgets/btnmatrix/../../../src/core/lv_obj_pos.h ****  * @param w         the width without paddings in pixels
 107:Middlewares/lvgl/examples/widgets/btnmatrix/../../../src/core/lv_obj_pos.h ****  */
 108:Middlewares/lvgl/examples/widgets/btnmatrix/../../../src/core/lv_obj_pos.h **** void lv_obj_set_content_width(struct _lv_obj_t * obj, lv_coord_t w);
 109:Middlewares/lvgl/examples/widgets/btnmatrix/../../../src/core/lv_obj_pos.h **** 
 110:Middlewares/lvgl/examples/widgets/btnmatrix/../../../src/core/lv_obj_pos.h **** /**
 111:Middlewares/lvgl/examples/widgets/btnmatrix/../../../src/core/lv_obj_pos.h ****  * Set the height reduced by the top and bottom padding and the border width.
 112:Middlewares/lvgl/examples/widgets/btnmatrix/../../../src/core/lv_obj_pos.h ****  * @param obj       pointer to an object
 113:Middlewares/lvgl/examples/widgets/btnmatrix/../../../src/core/lv_obj_pos.h ****  * @param h         the height without paddings in pixels
 114:Middlewares/lvgl/examples/widgets/btnmatrix/../../../src/core/lv_obj_pos.h ****  */
 115:Middlewares/lvgl/examples/widgets/btnmatrix/../../../src/core/lv_obj_pos.h **** void lv_obj_set_content_height(struct _lv_obj_t * obj, lv_coord_t h);
 116:Middlewares/lvgl/examples/widgets/btnmatrix/../../../src/core/lv_obj_pos.h **** 
 117:Middlewares/lvgl/examples/widgets/btnmatrix/../../../src/core/lv_obj_pos.h **** /**
 118:Middlewares/lvgl/examples/widgets/btnmatrix/../../../src/core/lv_obj_pos.h ****  * Set a layout for an object
 119:Middlewares/lvgl/examples/widgets/btnmatrix/../../../src/core/lv_obj_pos.h ****  * @param obj       pointer to an object
 120:Middlewares/lvgl/examples/widgets/btnmatrix/../../../src/core/lv_obj_pos.h ****  * @param layout    pointer to a layout descriptor to set
 121:Middlewares/lvgl/examples/widgets/btnmatrix/../../../src/core/lv_obj_pos.h ****  */
 122:Middlewares/lvgl/examples/widgets/btnmatrix/../../../src/core/lv_obj_pos.h **** void lv_obj_set_layout(struct _lv_obj_t * obj, uint32_t layout);
 123:Middlewares/lvgl/examples/widgets/btnmatrix/../../../src/core/lv_obj_pos.h **** 
 124:Middlewares/lvgl/examples/widgets/btnmatrix/../../../src/core/lv_obj_pos.h **** /**
ARM GAS  /tmp/ccpqnFgH.s 			page 21


 125:Middlewares/lvgl/examples/widgets/btnmatrix/../../../src/core/lv_obj_pos.h ****  * Test whether the and object is positioned by a layout or not
 126:Middlewares/lvgl/examples/widgets/btnmatrix/../../../src/core/lv_obj_pos.h ****  * @param obj       pointer to an object to test
 127:Middlewares/lvgl/examples/widgets/btnmatrix/../../../src/core/lv_obj_pos.h ****  * @return true:    positioned by a layout; false: not positioned by a layout
 128:Middlewares/lvgl/examples/widgets/btnmatrix/../../../src/core/lv_obj_pos.h ****  */
 129:Middlewares/lvgl/examples/widgets/btnmatrix/../../../src/core/lv_obj_pos.h **** bool lv_obj_is_layout_positioned(const struct _lv_obj_t * obj);
 130:Middlewares/lvgl/examples/widgets/btnmatrix/../../../src/core/lv_obj_pos.h **** 
 131:Middlewares/lvgl/examples/widgets/btnmatrix/../../../src/core/lv_obj_pos.h **** /**
 132:Middlewares/lvgl/examples/widgets/btnmatrix/../../../src/core/lv_obj_pos.h ****  * Mark the object for layout update.
 133:Middlewares/lvgl/examples/widgets/btnmatrix/../../../src/core/lv_obj_pos.h ****  * @param obj      pointer to an object whose children needs to be updated
 134:Middlewares/lvgl/examples/widgets/btnmatrix/../../../src/core/lv_obj_pos.h ****  */
 135:Middlewares/lvgl/examples/widgets/btnmatrix/../../../src/core/lv_obj_pos.h **** void lv_obj_mark_layout_as_dirty(struct _lv_obj_t * obj);
 136:Middlewares/lvgl/examples/widgets/btnmatrix/../../../src/core/lv_obj_pos.h **** 
 137:Middlewares/lvgl/examples/widgets/btnmatrix/../../../src/core/lv_obj_pos.h **** /**
 138:Middlewares/lvgl/examples/widgets/btnmatrix/../../../src/core/lv_obj_pos.h ****  * Update the layout of an object.
 139:Middlewares/lvgl/examples/widgets/btnmatrix/../../../src/core/lv_obj_pos.h ****  * @param obj      pointer to an object whose children needs to be updated
 140:Middlewares/lvgl/examples/widgets/btnmatrix/../../../src/core/lv_obj_pos.h ****  */
 141:Middlewares/lvgl/examples/widgets/btnmatrix/../../../src/core/lv_obj_pos.h **** void lv_obj_update_layout(const struct _lv_obj_t * obj);
 142:Middlewares/lvgl/examples/widgets/btnmatrix/../../../src/core/lv_obj_pos.h **** 
 143:Middlewares/lvgl/examples/widgets/btnmatrix/../../../src/core/lv_obj_pos.h **** /**
 144:Middlewares/lvgl/examples/widgets/btnmatrix/../../../src/core/lv_obj_pos.h ****  * Regsiter a new layout
 145:Middlewares/lvgl/examples/widgets/btnmatrix/../../../src/core/lv_obj_pos.h ****  * @param cb        the layout update callback
 146:Middlewares/lvgl/examples/widgets/btnmatrix/../../../src/core/lv_obj_pos.h ****  * @param user_data custom data that will be passed to `cb`
 147:Middlewares/lvgl/examples/widgets/btnmatrix/../../../src/core/lv_obj_pos.h ****  * @return          the ID of the new layout
 148:Middlewares/lvgl/examples/widgets/btnmatrix/../../../src/core/lv_obj_pos.h ****  */
 149:Middlewares/lvgl/examples/widgets/btnmatrix/../../../src/core/lv_obj_pos.h **** uint32_t lv_layout_register(lv_layout_update_cb_t cb, void * user_data);
 150:Middlewares/lvgl/examples/widgets/btnmatrix/../../../src/core/lv_obj_pos.h **** 
 151:Middlewares/lvgl/examples/widgets/btnmatrix/../../../src/core/lv_obj_pos.h **** /**
 152:Middlewares/lvgl/examples/widgets/btnmatrix/../../../src/core/lv_obj_pos.h ****  * Change the alignment of an object.
 153:Middlewares/lvgl/examples/widgets/btnmatrix/../../../src/core/lv_obj_pos.h ****  * @param obj       pointer to an object to align
 154:Middlewares/lvgl/examples/widgets/btnmatrix/../../../src/core/lv_obj_pos.h ****  * @param align     type of alignment (see 'lv_align_t' enum) `LV_ALIGN_OUT_...` can't be used.
 155:Middlewares/lvgl/examples/widgets/btnmatrix/../../../src/core/lv_obj_pos.h ****  */
 156:Middlewares/lvgl/examples/widgets/btnmatrix/../../../src/core/lv_obj_pos.h **** void lv_obj_set_align(struct _lv_obj_t * obj, lv_align_t align);
 157:Middlewares/lvgl/examples/widgets/btnmatrix/../../../src/core/lv_obj_pos.h **** 
 158:Middlewares/lvgl/examples/widgets/btnmatrix/../../../src/core/lv_obj_pos.h **** /**
 159:Middlewares/lvgl/examples/widgets/btnmatrix/../../../src/core/lv_obj_pos.h ****  * Change the alignment of an object and set new coordinates.
 160:Middlewares/lvgl/examples/widgets/btnmatrix/../../../src/core/lv_obj_pos.h ****  * Equivalent to:
 161:Middlewares/lvgl/examples/widgets/btnmatrix/../../../src/core/lv_obj_pos.h ****  * lv_obj_set_align(obj, align);
 162:Middlewares/lvgl/examples/widgets/btnmatrix/../../../src/core/lv_obj_pos.h ****  * lv_obj_set_pos(obj, x_ofs, y_ofs);
 163:Middlewares/lvgl/examples/widgets/btnmatrix/../../../src/core/lv_obj_pos.h ****  * @param obj       pointer to an object to align
 164:Middlewares/lvgl/examples/widgets/btnmatrix/../../../src/core/lv_obj_pos.h ****  * @param align     type of alignment (see 'lv_align_t' enum) `LV_ALIGN_OUT_...` can't be used.
 165:Middlewares/lvgl/examples/widgets/btnmatrix/../../../src/core/lv_obj_pos.h ****  * @param x_ofs     x coordinate offset after alignment
 166:Middlewares/lvgl/examples/widgets/btnmatrix/../../../src/core/lv_obj_pos.h ****  * @param y_ofs     y coordinate offset after alignment
 167:Middlewares/lvgl/examples/widgets/btnmatrix/../../../src/core/lv_obj_pos.h ****  */
 168:Middlewares/lvgl/examples/widgets/btnmatrix/../../../src/core/lv_obj_pos.h **** void lv_obj_align(struct _lv_obj_t * obj, lv_align_t align, lv_coord_t x_ofs, lv_coord_t y_ofs);
 169:Middlewares/lvgl/examples/widgets/btnmatrix/../../../src/core/lv_obj_pos.h **** 
 170:Middlewares/lvgl/examples/widgets/btnmatrix/../../../src/core/lv_obj_pos.h **** /**
 171:Middlewares/lvgl/examples/widgets/btnmatrix/../../../src/core/lv_obj_pos.h ****  * Align an object to an other object.
 172:Middlewares/lvgl/examples/widgets/btnmatrix/../../../src/core/lv_obj_pos.h ****  * @param obj       pointer to an object to align
 173:Middlewares/lvgl/examples/widgets/btnmatrix/../../../src/core/lv_obj_pos.h ****  * @param base      pointer to an other object (if NULL `obj`s parent is used). 'obj' will be align
 174:Middlewares/lvgl/examples/widgets/btnmatrix/../../../src/core/lv_obj_pos.h ****  * @param align     type of alignment (see 'lv_align_t' enum)
 175:Middlewares/lvgl/examples/widgets/btnmatrix/../../../src/core/lv_obj_pos.h ****  * @param x_ofs     x coordinate offset after alignment
 176:Middlewares/lvgl/examples/widgets/btnmatrix/../../../src/core/lv_obj_pos.h ****  * @param y_ofs     y coordinate offset after alignment
 177:Middlewares/lvgl/examples/widgets/btnmatrix/../../../src/core/lv_obj_pos.h ****  * @note            if the position or size of `base` changes `obj` needs to be aligned manually ag
 178:Middlewares/lvgl/examples/widgets/btnmatrix/../../../src/core/lv_obj_pos.h ****  */
 179:Middlewares/lvgl/examples/widgets/btnmatrix/../../../src/core/lv_obj_pos.h **** void lv_obj_align_to(struct _lv_obj_t * obj, const struct _lv_obj_t * base, lv_align_t align, lv_co
 180:Middlewares/lvgl/examples/widgets/btnmatrix/../../../src/core/lv_obj_pos.h **** 
 181:Middlewares/lvgl/examples/widgets/btnmatrix/../../../src/core/lv_obj_pos.h **** /**
ARM GAS  /tmp/ccpqnFgH.s 			page 22


 182:Middlewares/lvgl/examples/widgets/btnmatrix/../../../src/core/lv_obj_pos.h ****  * Align an object to the center on its parent.
 183:Middlewares/lvgl/examples/widgets/btnmatrix/../../../src/core/lv_obj_pos.h ****  * @param obj       pointer to an object to align
 184:Middlewares/lvgl/examples/widgets/btnmatrix/../../../src/core/lv_obj_pos.h ****  * @note            if the parent size changes `obj` needs to be aligned manually again
 185:Middlewares/lvgl/examples/widgets/btnmatrix/../../../src/core/lv_obj_pos.h ****  */
 186:Middlewares/lvgl/examples/widgets/btnmatrix/../../../src/core/lv_obj_pos.h **** static inline void lv_obj_center(struct _lv_obj_t * obj)
 340              		.loc 4 186 20 view .LVU78
 341              	.LBB21:
 187:Middlewares/lvgl/examples/widgets/btnmatrix/../../../src/core/lv_obj_pos.h **** {
 188:Middlewares/lvgl/examples/widgets/btnmatrix/../../../src/core/lv_obj_pos.h ****     lv_obj_align(obj, LV_ALIGN_CENTER, 0, 0);
 342              		.loc 4 188 5 view .LVU79
 343 0100 0023     		movs	r3, #0
 344 0102 1A46     		mov	r2, r3
 345 0104 0921     		movs	r1, #9
 346 0106 2046     		mov	r0, r4
 347 0108 FFF7FEFF 		bl	lv_obj_align
 348              	.LVL43:
 349              		.loc 4 188 5 is_stmt 0 view .LVU80
 350              	.LBE21:
 351              	.LBE20:
  65:Middlewares/lvgl/examples/widgets/btnmatrix/lv_example_btnmatrix_3.c **** 
  66:Middlewares/lvgl/examples/widgets/btnmatrix/lv_example_btnmatrix_3.c **** }
 352              		.loc 1 66 1 view .LVU81
 353 010c 70BD     		pop	{r4, r5, r6, pc}
 354              	.LVL44:
 355              	.L16:
 356              		.loc 1 66 1 view .LVU82
 357 010e 00BF     		.align	2
 358              	.L15:
 359 0110 00000000 		.word	.LANCHOR0
 360 0114 00000000 		.word	.LANCHOR1
 361 0118 00000000 		.word	.LANCHOR2
 362 011c 00000000 		.word	event_cb
 363              		.cfi_endproc
 364              	.LFE185:
 366              		.section	.rodata.str1.4,"aMS",%progbits,1
 367              		.align	2
 368              	.LC0:
 369 0000 EF819300 		.ascii	"\357\201\223\000"
 370              		.align	2
 371              	.LC1:
 372 0004 3100     		.ascii	"1\000"
 373 0006 0000     		.align	2
 374              	.LC2:
 375 0008 3200     		.ascii	"2\000"
 376 000a 0000     		.align	2
 377              	.LC3:
 378 000c 3300     		.ascii	"3\000"
 379 000e 0000     		.align	2
 380              	.LC4:
 381 0010 3400     		.ascii	"4\000"
 382 0012 0000     		.align	2
 383              	.LC5:
 384 0014 3500     		.ascii	"5\000"
 385 0016 0000     		.align	2
 386              	.LC6:
 387 0018 EF819400 		.ascii	"\357\201\224\000"
 388              		.align	2
ARM GAS  /tmp/ccpqnFgH.s 			page 23


 389              	.LC7:
 390 001c 00       		.ascii	"\000"
 391              		.section	.bss.style_bg.2,"aw",%nobits
 392              		.align	2
 393              		.set	.LANCHOR0,. + 0
 396              	style_bg.2:
 397 0000 00000000 		.space	8
 397      00000000 
 398              		.section	.bss.style_btn.1,"aw",%nobits
 399              		.align	2
 400              		.set	.LANCHOR1,. + 0
 403              	style_btn.1:
 404 0000 00000000 		.space	8
 404      00000000 
 405              		.section	.data.map.0,"aw"
 406              		.align	2
 407              		.set	.LANCHOR2,. + 0
 410              	map.0:
 411 0000 00000000 		.word	.LC0
 412 0004 04000000 		.word	.LC1
 413 0008 08000000 		.word	.LC2
 414 000c 0C000000 		.word	.LC3
 415 0010 10000000 		.word	.LC4
 416 0014 14000000 		.word	.LC5
 417 0018 18000000 		.word	.LC6
 418 001c 1C000000 		.word	.LC7
 419              		.text
 420              	.Letext0:
 421              		.file 5 "/home/akinya/gcc-arm-none-eabi/arm-none-eabi/include/machine/_default_types.h"
 422              		.file 6 "/home/akinya/gcc-arm-none-eabi/arm-none-eabi/include/sys/_stdint.h"
 423              		.file 7 "Middlewares/lvgl/examples/widgets/btnmatrix/../../../src/misc/lv_ll.h"
 424              		.file 8 "Middlewares/lvgl/examples/widgets/btnmatrix/../../../src/hal/../misc/lv_color.h"
 425              		.file 9 "Middlewares/lvgl/examples/widgets/btnmatrix/../../../src/hal/../misc/lv_area.h"
 426              		.file 10 "Middlewares/lvgl/examples/widgets/btnmatrix/../../../src/core/lv_obj.h"
 427              		.file 11 "Middlewares/lvgl/examples/widgets/btnmatrix/../../../src/core/lv_group.h"
 428              		.file 12 "Middlewares/lvgl/examples/widgets/btnmatrix/../../../src/core/lv_obj_scroll.h"
 429              		.file 13 "Middlewares/lvgl/examples/widgets/btnmatrix/../../../src/core/lv_obj_style.h"
 430              		.file 14 "Middlewares/lvgl/examples/widgets/btnmatrix/../../../src/core/lv_obj_class.h"
 431              		.file 15 "Middlewares/lvgl/examples/widgets/btnmatrix/../../../src/core/lv_event.h"
 432              		.file 16 "Middlewares/lvgl/examples/widgets/btnmatrix/../../../src/widgets/lv_btnmatrix.h"
 433              		.file 17 "Middlewares/lvgl/examples/widgets/btnmatrix/../../../src/core/../misc/lv_style_gen.h"
 434              		.file 18 "Middlewares/lvgl/examples/widgets/btnmatrix/../../../src/hal/lv_hal_disp.h"
ARM GAS  /tmp/ccpqnFgH.s 			page 24

