ARM GAS  /tmp/ccKMR0Jc.s 			page 1


   1              		.cpu cortex-m3
   2              		.eabi_attribute 20, 1
   3              		.eabi_attribute 21, 1
   4              		.eabi_attribute 23, 3
   5              		.eabi_attribute 24, 1
   6              		.eabi_attribute 25, 1
   7              		.eabi_attribute 26, 1
   8              		.eabi_attribute 30, 1
   9              		.eabi_attribute 34, 1
  10              		.eabi_attribute 18, 4
  11              		.file	"lv_example_win_1.c"
  12              		.text
  13              	.Ltext0:
  14              		.cfi_sections	.debug_frame
  15              		.section	.text.event_handler,"ax",%progbits
  16              		.align	1
  17              		.arch armv7-m
  18              		.syntax unified
  19              		.thumb
  20              		.thumb_func
  21              		.fpu softvfp
  23              	event_handler:
  24              	.LVL0:
  25              	.LFB184:
  26              		.file 1 "Middlewares/lvgl/examples/widgets/win/lv_example_win_1.c"
   1:Middlewares/lvgl/examples/widgets/win/lv_example_win_1.c **** #include "../../lv_examples.h"
   2:Middlewares/lvgl/examples/widgets/win/lv_example_win_1.c **** #if LV_USE_WIN && LV_BUILD_EXAMPLES
   3:Middlewares/lvgl/examples/widgets/win/lv_example_win_1.c **** 
   4:Middlewares/lvgl/examples/widgets/win/lv_example_win_1.c **** 
   5:Middlewares/lvgl/examples/widgets/win/lv_example_win_1.c **** static void event_handler(lv_event_t * e)
   6:Middlewares/lvgl/examples/widgets/win/lv_example_win_1.c **** {
  27              		.loc 1 6 1 view -0
  28              		.cfi_startproc
  29              		@ args = 0, pretend = 0, frame = 0
  30              		@ frame_needed = 0, uses_anonymous_args = 0
  31              		.loc 1 6 1 is_stmt 0 view .LVU1
  32 0000 08B5     		push	{r3, lr}
  33              	.LCFI0:
  34              		.cfi_def_cfa_offset 8
  35              		.cfi_offset 3, -8
  36              		.cfi_offset 14, -4
   7:Middlewares/lvgl/examples/widgets/win/lv_example_win_1.c ****     lv_obj_t * obj = lv_event_get_target(e);
  37              		.loc 1 7 5 is_stmt 1 view .LVU2
  38              		.loc 1 7 22 is_stmt 0 view .LVU3
  39 0002 FFF7FEFF 		bl	lv_event_get_target
  40              	.LVL1:
   8:Middlewares/lvgl/examples/widgets/win/lv_example_win_1.c ****     LV_LOG_USER("Button %d clicked", lv_obj_get_child_id(obj));
  41              		.loc 1 8 63 is_stmt 1 view .LVU4
   9:Middlewares/lvgl/examples/widgets/win/lv_example_win_1.c **** }
  42              		.loc 1 9 1 is_stmt 0 view .LVU5
  43 0006 08BD     		pop	{r3, pc}
  44              		.cfi_endproc
  45              	.LFE184:
  47              		.section	.rodata.lv_example_win_1.str1.4,"aMS",%progbits,1
  48              		.align	2
  49              	.LC0:
  50 0000 EF819300 		.ascii	"\357\201\223\000"
ARM GAS  /tmp/ccKMR0Jc.s 			page 2


  51              		.align	2
  52              	.LC1:
  53 0004 41207469 		.ascii	"A title\000"
  53      746C6500 
  54              		.align	2
  55              	.LC2:
  56 000c EF819400 		.ascii	"\357\201\224\000"
  57              		.align	2
  58              	.LC3:
  59 0010 EF808D00 		.ascii	"\357\200\215\000"
  60              		.align	2
  61              	.LC4:
  62 0014 54686973 		.ascii	"This is\012a pretty\012long text\012to see how\012t"
  62      2069730A 
  62      61207072 
  62      65747479 
  62      0A6C6F6E 
  63 003b 68652077 		.ascii	"he window\012becomes\012scrollable.\012\012\012Some"
  63      696E646F 
  63      770A6265 
  63      636F6D65 
  63      730A7363 
  64 005f 206D6F72 		.ascii	" more\012text to be\012sure it\012overflows. :)\000"
  64      650A7465 
  64      78742074 
  64      6F206265 
  64      0A737572 
  65              		.section	.text.lv_example_win_1,"ax",%progbits
  66              		.align	1
  67              		.global	lv_example_win_1
  68              		.syntax unified
  69              		.thumb
  70              		.thumb_func
  71              		.fpu softvfp
  73              	lv_example_win_1:
  74              	.LFB185:
  10:Middlewares/lvgl/examples/widgets/win/lv_example_win_1.c **** 
  11:Middlewares/lvgl/examples/widgets/win/lv_example_win_1.c **** void lv_example_win_1(void)
  12:Middlewares/lvgl/examples/widgets/win/lv_example_win_1.c **** {
  75              		.loc 1 12 1 is_stmt 1 view -0
  76              		.cfi_startproc
  77              		@ args = 0, pretend = 0, frame = 0
  78              		@ frame_needed = 0, uses_anonymous_args = 0
  79 0000 38B5     		push	{r3, r4, r5, lr}
  80              	.LCFI1:
  81              		.cfi_def_cfa_offset 16
  82              		.cfi_offset 3, -16
  83              		.cfi_offset 4, -12
  84              		.cfi_offset 5, -8
  85              		.cfi_offset 14, -4
  13:Middlewares/lvgl/examples/widgets/win/lv_example_win_1.c ****     lv_obj_t * win = lv_win_create(lv_scr_act(), 40);
  86              		.loc 1 13 5 view .LVU7
  87              	.LBB4:
  88              	.LBI4:
  89              		.file 2 "Middlewares/lvgl/examples/widgets/win/../../../src/core/lv_disp.h"
   1:Middlewares/lvgl/examples/widgets/win/../../../src/core/lv_disp.h **** /**
   2:Middlewares/lvgl/examples/widgets/win/../../../src/core/lv_disp.h ****  * @file lv_disp.h
ARM GAS  /tmp/ccKMR0Jc.s 			page 3


   3:Middlewares/lvgl/examples/widgets/win/../../../src/core/lv_disp.h ****  *
   4:Middlewares/lvgl/examples/widgets/win/../../../src/core/lv_disp.h ****  */
   5:Middlewares/lvgl/examples/widgets/win/../../../src/core/lv_disp.h **** 
   6:Middlewares/lvgl/examples/widgets/win/../../../src/core/lv_disp.h **** #ifndef LV_DISP_H
   7:Middlewares/lvgl/examples/widgets/win/../../../src/core/lv_disp.h **** #define LV_DISP_H
   8:Middlewares/lvgl/examples/widgets/win/../../../src/core/lv_disp.h **** 
   9:Middlewares/lvgl/examples/widgets/win/../../../src/core/lv_disp.h **** #ifdef __cplusplus
  10:Middlewares/lvgl/examples/widgets/win/../../../src/core/lv_disp.h **** extern "C" {
  11:Middlewares/lvgl/examples/widgets/win/../../../src/core/lv_disp.h **** #endif
  12:Middlewares/lvgl/examples/widgets/win/../../../src/core/lv_disp.h **** 
  13:Middlewares/lvgl/examples/widgets/win/../../../src/core/lv_disp.h **** /*********************
  14:Middlewares/lvgl/examples/widgets/win/../../../src/core/lv_disp.h ****  *      INCLUDES
  15:Middlewares/lvgl/examples/widgets/win/../../../src/core/lv_disp.h ****  *********************/
  16:Middlewares/lvgl/examples/widgets/win/../../../src/core/lv_disp.h **** #include "../hal/lv_hal.h"
  17:Middlewares/lvgl/examples/widgets/win/../../../src/core/lv_disp.h **** #include "lv_obj.h"
  18:Middlewares/lvgl/examples/widgets/win/../../../src/core/lv_disp.h **** #include "lv_theme.h"
  19:Middlewares/lvgl/examples/widgets/win/../../../src/core/lv_disp.h **** 
  20:Middlewares/lvgl/examples/widgets/win/../../../src/core/lv_disp.h **** /*********************
  21:Middlewares/lvgl/examples/widgets/win/../../../src/core/lv_disp.h ****  *      DEFINES
  22:Middlewares/lvgl/examples/widgets/win/../../../src/core/lv_disp.h ****  *********************/
  23:Middlewares/lvgl/examples/widgets/win/../../../src/core/lv_disp.h **** 
  24:Middlewares/lvgl/examples/widgets/win/../../../src/core/lv_disp.h **** /**********************
  25:Middlewares/lvgl/examples/widgets/win/../../../src/core/lv_disp.h ****  *      TYPEDEFS
  26:Middlewares/lvgl/examples/widgets/win/../../../src/core/lv_disp.h ****  **********************/
  27:Middlewares/lvgl/examples/widgets/win/../../../src/core/lv_disp.h **** 
  28:Middlewares/lvgl/examples/widgets/win/../../../src/core/lv_disp.h **** typedef enum {
  29:Middlewares/lvgl/examples/widgets/win/../../../src/core/lv_disp.h ****     LV_SCR_LOAD_ANIM_NONE,
  30:Middlewares/lvgl/examples/widgets/win/../../../src/core/lv_disp.h ****     LV_SCR_LOAD_ANIM_OVER_LEFT,
  31:Middlewares/lvgl/examples/widgets/win/../../../src/core/lv_disp.h ****     LV_SCR_LOAD_ANIM_OVER_RIGHT,
  32:Middlewares/lvgl/examples/widgets/win/../../../src/core/lv_disp.h ****     LV_SCR_LOAD_ANIM_OVER_TOP,
  33:Middlewares/lvgl/examples/widgets/win/../../../src/core/lv_disp.h ****     LV_SCR_LOAD_ANIM_OVER_BOTTOM,
  34:Middlewares/lvgl/examples/widgets/win/../../../src/core/lv_disp.h ****     LV_SCR_LOAD_ANIM_MOVE_LEFT,
  35:Middlewares/lvgl/examples/widgets/win/../../../src/core/lv_disp.h ****     LV_SCR_LOAD_ANIM_MOVE_RIGHT,
  36:Middlewares/lvgl/examples/widgets/win/../../../src/core/lv_disp.h ****     LV_SCR_LOAD_ANIM_MOVE_TOP,
  37:Middlewares/lvgl/examples/widgets/win/../../../src/core/lv_disp.h ****     LV_SCR_LOAD_ANIM_MOVE_BOTTOM,
  38:Middlewares/lvgl/examples/widgets/win/../../../src/core/lv_disp.h ****     LV_SCR_LOAD_ANIM_FADE_ON,
  39:Middlewares/lvgl/examples/widgets/win/../../../src/core/lv_disp.h **** } lv_scr_load_anim_t;
  40:Middlewares/lvgl/examples/widgets/win/../../../src/core/lv_disp.h **** 
  41:Middlewares/lvgl/examples/widgets/win/../../../src/core/lv_disp.h **** /**********************
  42:Middlewares/lvgl/examples/widgets/win/../../../src/core/lv_disp.h ****  * GLOBAL PROTOTYPES
  43:Middlewares/lvgl/examples/widgets/win/../../../src/core/lv_disp.h ****  **********************/
  44:Middlewares/lvgl/examples/widgets/win/../../../src/core/lv_disp.h **** 
  45:Middlewares/lvgl/examples/widgets/win/../../../src/core/lv_disp.h **** /**
  46:Middlewares/lvgl/examples/widgets/win/../../../src/core/lv_disp.h ****  * Return with a pointer to the active screen
  47:Middlewares/lvgl/examples/widgets/win/../../../src/core/lv_disp.h ****  * @param disp pointer to display which active screen should be get. (NULL to use the default
  48:Middlewares/lvgl/examples/widgets/win/../../../src/core/lv_disp.h ****  * screen)
  49:Middlewares/lvgl/examples/widgets/win/../../../src/core/lv_disp.h ****  * @return pointer to the active screen object (loaded by 'lv_scr_load()')
  50:Middlewares/lvgl/examples/widgets/win/../../../src/core/lv_disp.h ****  */
  51:Middlewares/lvgl/examples/widgets/win/../../../src/core/lv_disp.h **** lv_obj_t * lv_disp_get_scr_act(lv_disp_t * disp);
  52:Middlewares/lvgl/examples/widgets/win/../../../src/core/lv_disp.h **** 
  53:Middlewares/lvgl/examples/widgets/win/../../../src/core/lv_disp.h **** /**
  54:Middlewares/lvgl/examples/widgets/win/../../../src/core/lv_disp.h ****  * Return with a pointer to the previous screen. Only used during screen transitions.
  55:Middlewares/lvgl/examples/widgets/win/../../../src/core/lv_disp.h ****  * @param disp pointer to display which previous screen should be get. (NULL to use the default
  56:Middlewares/lvgl/examples/widgets/win/../../../src/core/lv_disp.h ****  * screen)
  57:Middlewares/lvgl/examples/widgets/win/../../../src/core/lv_disp.h ****  * @return pointer to the previous screen object or NULL if not used now
  58:Middlewares/lvgl/examples/widgets/win/../../../src/core/lv_disp.h ****  */
  59:Middlewares/lvgl/examples/widgets/win/../../../src/core/lv_disp.h **** lv_obj_t * lv_disp_get_scr_prev(lv_disp_t * disp);
ARM GAS  /tmp/ccKMR0Jc.s 			page 4


  60:Middlewares/lvgl/examples/widgets/win/../../../src/core/lv_disp.h **** 
  61:Middlewares/lvgl/examples/widgets/win/../../../src/core/lv_disp.h **** /**
  62:Middlewares/lvgl/examples/widgets/win/../../../src/core/lv_disp.h ****  * Make a screen active
  63:Middlewares/lvgl/examples/widgets/win/../../../src/core/lv_disp.h ****  * @param scr pointer to a screen
  64:Middlewares/lvgl/examples/widgets/win/../../../src/core/lv_disp.h ****  */
  65:Middlewares/lvgl/examples/widgets/win/../../../src/core/lv_disp.h **** void lv_disp_load_scr(lv_obj_t * scr);
  66:Middlewares/lvgl/examples/widgets/win/../../../src/core/lv_disp.h **** 
  67:Middlewares/lvgl/examples/widgets/win/../../../src/core/lv_disp.h **** /**
  68:Middlewares/lvgl/examples/widgets/win/../../../src/core/lv_disp.h ****  * Return with the top layer. (Same on every screen and it is above the normal screen layer)
  69:Middlewares/lvgl/examples/widgets/win/../../../src/core/lv_disp.h ****  * @param disp pointer to display which top layer should be get. (NULL to use the default screen)
  70:Middlewares/lvgl/examples/widgets/win/../../../src/core/lv_disp.h ****  * @return pointer to the top layer object  (transparent screen sized lv_obj)
  71:Middlewares/lvgl/examples/widgets/win/../../../src/core/lv_disp.h ****  */
  72:Middlewares/lvgl/examples/widgets/win/../../../src/core/lv_disp.h **** lv_obj_t * lv_disp_get_layer_top(lv_disp_t * disp);
  73:Middlewares/lvgl/examples/widgets/win/../../../src/core/lv_disp.h **** 
  74:Middlewares/lvgl/examples/widgets/win/../../../src/core/lv_disp.h **** /**
  75:Middlewares/lvgl/examples/widgets/win/../../../src/core/lv_disp.h ****  * Return with the sys. layer. (Same on every screen and it is above the normal screen and the top
  76:Middlewares/lvgl/examples/widgets/win/../../../src/core/lv_disp.h ****  * layer)
  77:Middlewares/lvgl/examples/widgets/win/../../../src/core/lv_disp.h ****  * @param disp pointer to display which sys. layer  should be get. (NULL to use the default screen)
  78:Middlewares/lvgl/examples/widgets/win/../../../src/core/lv_disp.h ****  * @return pointer to the sys layer object  (transparent screen sized lv_obj)
  79:Middlewares/lvgl/examples/widgets/win/../../../src/core/lv_disp.h ****  */
  80:Middlewares/lvgl/examples/widgets/win/../../../src/core/lv_disp.h **** lv_obj_t * lv_disp_get_layer_sys(lv_disp_t * disp);
  81:Middlewares/lvgl/examples/widgets/win/../../../src/core/lv_disp.h **** 
  82:Middlewares/lvgl/examples/widgets/win/../../../src/core/lv_disp.h **** /**
  83:Middlewares/lvgl/examples/widgets/win/../../../src/core/lv_disp.h ****  * Get the theme of a display
  84:Middlewares/lvgl/examples/widgets/win/../../../src/core/lv_disp.h ****  * @param disp pointer to a display
  85:Middlewares/lvgl/examples/widgets/win/../../../src/core/lv_disp.h ****  * @return the display's theme (can be NULL)
  86:Middlewares/lvgl/examples/widgets/win/../../../src/core/lv_disp.h ****  */
  87:Middlewares/lvgl/examples/widgets/win/../../../src/core/lv_disp.h **** void lv_disp_set_theme(lv_disp_t * disp, lv_theme_t * th);
  88:Middlewares/lvgl/examples/widgets/win/../../../src/core/lv_disp.h **** 
  89:Middlewares/lvgl/examples/widgets/win/../../../src/core/lv_disp.h **** /**
  90:Middlewares/lvgl/examples/widgets/win/../../../src/core/lv_disp.h ****  * Get the theme of a display
  91:Middlewares/lvgl/examples/widgets/win/../../../src/core/lv_disp.h ****  * @param disp pointer to a display
  92:Middlewares/lvgl/examples/widgets/win/../../../src/core/lv_disp.h ****  * @return the display's theme (can be NULL)
  93:Middlewares/lvgl/examples/widgets/win/../../../src/core/lv_disp.h ****  */
  94:Middlewares/lvgl/examples/widgets/win/../../../src/core/lv_disp.h **** lv_theme_t * lv_disp_get_theme(lv_disp_t * disp);
  95:Middlewares/lvgl/examples/widgets/win/../../../src/core/lv_disp.h **** 
  96:Middlewares/lvgl/examples/widgets/win/../../../src/core/lv_disp.h **** /**
  97:Middlewares/lvgl/examples/widgets/win/../../../src/core/lv_disp.h ****  * Set the background color of a display
  98:Middlewares/lvgl/examples/widgets/win/../../../src/core/lv_disp.h ****  * @param disp pointer to a display
  99:Middlewares/lvgl/examples/widgets/win/../../../src/core/lv_disp.h ****  * @param color color of the background
 100:Middlewares/lvgl/examples/widgets/win/../../../src/core/lv_disp.h ****  */
 101:Middlewares/lvgl/examples/widgets/win/../../../src/core/lv_disp.h **** void lv_disp_set_bg_color(lv_disp_t * disp, lv_color_t color);
 102:Middlewares/lvgl/examples/widgets/win/../../../src/core/lv_disp.h **** 
 103:Middlewares/lvgl/examples/widgets/win/../../../src/core/lv_disp.h **** /**
 104:Middlewares/lvgl/examples/widgets/win/../../../src/core/lv_disp.h ****  * Set the background image of a display
 105:Middlewares/lvgl/examples/widgets/win/../../../src/core/lv_disp.h ****  * @param disp pointer to a display
 106:Middlewares/lvgl/examples/widgets/win/../../../src/core/lv_disp.h ****  * @param img_src path to file or pointer to an `lv_img_dsc_t` variable
 107:Middlewares/lvgl/examples/widgets/win/../../../src/core/lv_disp.h ****  */
 108:Middlewares/lvgl/examples/widgets/win/../../../src/core/lv_disp.h **** void lv_disp_set_bg_image(lv_disp_t * disp, const void  * img_src);
 109:Middlewares/lvgl/examples/widgets/win/../../../src/core/lv_disp.h **** 
 110:Middlewares/lvgl/examples/widgets/win/../../../src/core/lv_disp.h **** /**
 111:Middlewares/lvgl/examples/widgets/win/../../../src/core/lv_disp.h ****  * Opacity of the background
 112:Middlewares/lvgl/examples/widgets/win/../../../src/core/lv_disp.h ****  * @param disp pointer to a display
 113:Middlewares/lvgl/examples/widgets/win/../../../src/core/lv_disp.h ****  * @param opa opacity (0..255)
 114:Middlewares/lvgl/examples/widgets/win/../../../src/core/lv_disp.h ****  */
 115:Middlewares/lvgl/examples/widgets/win/../../../src/core/lv_disp.h **** void lv_disp_set_bg_opa(lv_disp_t * disp, lv_opa_t opa);
 116:Middlewares/lvgl/examples/widgets/win/../../../src/core/lv_disp.h **** 
ARM GAS  /tmp/ccKMR0Jc.s 			page 5


 117:Middlewares/lvgl/examples/widgets/win/../../../src/core/lv_disp.h **** /**
 118:Middlewares/lvgl/examples/widgets/win/../../../src/core/lv_disp.h ****  * Switch screen with animation
 119:Middlewares/lvgl/examples/widgets/win/../../../src/core/lv_disp.h ****  * @param scr pointer to the new screen to load
 120:Middlewares/lvgl/examples/widgets/win/../../../src/core/lv_disp.h ****  * @param anim_type type of the animation from `lv_scr_load_anim_t`. E.g.  `LV_SCR_LOAD_ANIM_MOVE_L
 121:Middlewares/lvgl/examples/widgets/win/../../../src/core/lv_disp.h ****  * @param time time of the animation
 122:Middlewares/lvgl/examples/widgets/win/../../../src/core/lv_disp.h ****  * @param delay delay before the transition
 123:Middlewares/lvgl/examples/widgets/win/../../../src/core/lv_disp.h ****  * @param auto_del true: automatically delete the old screen
 124:Middlewares/lvgl/examples/widgets/win/../../../src/core/lv_disp.h ****  */
 125:Middlewares/lvgl/examples/widgets/win/../../../src/core/lv_disp.h **** void lv_scr_load_anim(lv_obj_t * scr, lv_scr_load_anim_t anim_type, uint32_t time, uint32_t delay, 
 126:Middlewares/lvgl/examples/widgets/win/../../../src/core/lv_disp.h **** 
 127:Middlewares/lvgl/examples/widgets/win/../../../src/core/lv_disp.h **** /**
 128:Middlewares/lvgl/examples/widgets/win/../../../src/core/lv_disp.h ****  * Get elapsed time since last user activity on a display (e.g. click)
 129:Middlewares/lvgl/examples/widgets/win/../../../src/core/lv_disp.h ****  * @param disp pointer to an display (NULL to get the overall smallest inactivity)
 130:Middlewares/lvgl/examples/widgets/win/../../../src/core/lv_disp.h ****  * @return elapsed ticks (milliseconds) since the last activity
 131:Middlewares/lvgl/examples/widgets/win/../../../src/core/lv_disp.h ****  */
 132:Middlewares/lvgl/examples/widgets/win/../../../src/core/lv_disp.h **** uint32_t lv_disp_get_inactive_time(const lv_disp_t * disp);
 133:Middlewares/lvgl/examples/widgets/win/../../../src/core/lv_disp.h **** 
 134:Middlewares/lvgl/examples/widgets/win/../../../src/core/lv_disp.h **** /**
 135:Middlewares/lvgl/examples/widgets/win/../../../src/core/lv_disp.h ****  * Manually trigger an activity on a display
 136:Middlewares/lvgl/examples/widgets/win/../../../src/core/lv_disp.h ****  * @param disp pointer to an display (NULL to use the default display)
 137:Middlewares/lvgl/examples/widgets/win/../../../src/core/lv_disp.h ****  */
 138:Middlewares/lvgl/examples/widgets/win/../../../src/core/lv_disp.h **** void lv_disp_trig_activity(lv_disp_t * disp);
 139:Middlewares/lvgl/examples/widgets/win/../../../src/core/lv_disp.h **** 
 140:Middlewares/lvgl/examples/widgets/win/../../../src/core/lv_disp.h **** /**
 141:Middlewares/lvgl/examples/widgets/win/../../../src/core/lv_disp.h ****  * Clean any CPU cache that is related to the display.
 142:Middlewares/lvgl/examples/widgets/win/../../../src/core/lv_disp.h ****  * @param disp pointer to an display (NULL to use the default display)
 143:Middlewares/lvgl/examples/widgets/win/../../../src/core/lv_disp.h ****  */
 144:Middlewares/lvgl/examples/widgets/win/../../../src/core/lv_disp.h **** void lv_disp_clean_dcache(lv_disp_t * disp);
 145:Middlewares/lvgl/examples/widgets/win/../../../src/core/lv_disp.h **** 
 146:Middlewares/lvgl/examples/widgets/win/../../../src/core/lv_disp.h **** /**
 147:Middlewares/lvgl/examples/widgets/win/../../../src/core/lv_disp.h ****  * Get a pointer to the screen refresher timer to
 148:Middlewares/lvgl/examples/widgets/win/../../../src/core/lv_disp.h ****  * modify its parameters with `lv_timer_...` functions.
 149:Middlewares/lvgl/examples/widgets/win/../../../src/core/lv_disp.h ****  * @param disp pointer to a display
 150:Middlewares/lvgl/examples/widgets/win/../../../src/core/lv_disp.h ****  * @return pointer to the display refresher timer. (NULL on error)
 151:Middlewares/lvgl/examples/widgets/win/../../../src/core/lv_disp.h ****  */
 152:Middlewares/lvgl/examples/widgets/win/../../../src/core/lv_disp.h **** lv_timer_t * _lv_disp_get_refr_timer(lv_disp_t * disp);
 153:Middlewares/lvgl/examples/widgets/win/../../../src/core/lv_disp.h **** 
 154:Middlewares/lvgl/examples/widgets/win/../../../src/core/lv_disp.h **** /*------------------------------------------------
 155:Middlewares/lvgl/examples/widgets/win/../../../src/core/lv_disp.h ****  * To improve backward compatibility
 156:Middlewares/lvgl/examples/widgets/win/../../../src/core/lv_disp.h ****  * Recommended only if you have one display
 157:Middlewares/lvgl/examples/widgets/win/../../../src/core/lv_disp.h ****  *------------------------------------------------*/
 158:Middlewares/lvgl/examples/widgets/win/../../../src/core/lv_disp.h **** 
 159:Middlewares/lvgl/examples/widgets/win/../../../src/core/lv_disp.h **** /**
 160:Middlewares/lvgl/examples/widgets/win/../../../src/core/lv_disp.h ****  * Get the active screen of the default display
 161:Middlewares/lvgl/examples/widgets/win/../../../src/core/lv_disp.h ****  * @return pointer to the active screen
 162:Middlewares/lvgl/examples/widgets/win/../../../src/core/lv_disp.h ****  */
 163:Middlewares/lvgl/examples/widgets/win/../../../src/core/lv_disp.h **** static inline lv_obj_t * lv_scr_act(void)
  90              		.loc 2 163 26 view .LVU8
  91              	.LBB5:
 164:Middlewares/lvgl/examples/widgets/win/../../../src/core/lv_disp.h **** {
 165:Middlewares/lvgl/examples/widgets/win/../../../src/core/lv_disp.h ****     return lv_disp_get_scr_act(lv_disp_get_default());
  92              		.loc 2 165 5 view .LVU9
  93              		.loc 2 165 12 is_stmt 0 view .LVU10
  94 0002 FFF7FEFF 		bl	lv_disp_get_default
  95              	.LVL2:
  96 0006 FFF7FEFF 		bl	lv_disp_get_scr_act
  97              	.LVL3:
ARM GAS  /tmp/ccKMR0Jc.s 			page 6


  98              	.LBE5:
  99              	.LBE4:
 100              		.loc 1 13 22 view .LVU11
 101 000a 2821     		movs	r1, #40
 102 000c FFF7FEFF 		bl	lv_win_create
 103              	.LVL4:
 104 0010 0446     		mov	r4, r0
 105              	.LVL5:
  14:Middlewares/lvgl/examples/widgets/win/lv_example_win_1.c ****     lv_obj_t * btn;
 106              		.loc 1 14 5 is_stmt 1 view .LVU12
  15:Middlewares/lvgl/examples/widgets/win/lv_example_win_1.c ****     btn = lv_win_add_btn(win, LV_SYMBOL_LEFT, 40);
 107              		.loc 1 15 5 view .LVU13
 108              		.loc 1 15 11 is_stmt 0 view .LVU14
 109 0012 2822     		movs	r2, #40
 110 0014 1449     		ldr	r1, .L5
 111 0016 FFF7FEFF 		bl	lv_win_add_btn
 112              	.LVL6:
  16:Middlewares/lvgl/examples/widgets/win/lv_example_win_1.c ****     lv_obj_add_event_cb(btn, event_handler, LV_EVENT_CLICKED, NULL);
 113              		.loc 1 16 5 is_stmt 1 view .LVU15
 114 001a 144D     		ldr	r5, .L5+4
 115 001c 0023     		movs	r3, #0
 116 001e 0722     		movs	r2, #7
 117 0020 2946     		mov	r1, r5
 118 0022 FFF7FEFF 		bl	lv_obj_add_event_cb
 119              	.LVL7:
  17:Middlewares/lvgl/examples/widgets/win/lv_example_win_1.c **** 
  18:Middlewares/lvgl/examples/widgets/win/lv_example_win_1.c ****     lv_win_add_title(win, "A title");
 120              		.loc 1 18 5 view .LVU16
 121 0026 1249     		ldr	r1, .L5+8
 122 0028 2046     		mov	r0, r4
 123 002a FFF7FEFF 		bl	lv_win_add_title
 124              	.LVL8:
  19:Middlewares/lvgl/examples/widgets/win/lv_example_win_1.c **** 
  20:Middlewares/lvgl/examples/widgets/win/lv_example_win_1.c ****     btn = lv_win_add_btn(win, LV_SYMBOL_RIGHT, 40);
 125              		.loc 1 20 5 view .LVU17
 126              		.loc 1 20 11 is_stmt 0 view .LVU18
 127 002e 2822     		movs	r2, #40
 128 0030 1049     		ldr	r1, .L5+12
 129 0032 2046     		mov	r0, r4
 130 0034 FFF7FEFF 		bl	lv_win_add_btn
 131              	.LVL9:
  21:Middlewares/lvgl/examples/widgets/win/lv_example_win_1.c ****     lv_obj_add_event_cb(btn, event_handler, LV_EVENT_CLICKED, NULL);
 132              		.loc 1 21 5 is_stmt 1 view .LVU19
 133 0038 0023     		movs	r3, #0
 134 003a 0722     		movs	r2, #7
 135 003c 2946     		mov	r1, r5
 136 003e FFF7FEFF 		bl	lv_obj_add_event_cb
 137              	.LVL10:
  22:Middlewares/lvgl/examples/widgets/win/lv_example_win_1.c **** 
  23:Middlewares/lvgl/examples/widgets/win/lv_example_win_1.c ****     btn = lv_win_add_btn(win, LV_SYMBOL_CLOSE, 60);
 138              		.loc 1 23 5 view .LVU20
 139              		.loc 1 23 11 is_stmt 0 view .LVU21
 140 0042 3C22     		movs	r2, #60
 141 0044 0C49     		ldr	r1, .L5+16
 142 0046 2046     		mov	r0, r4
 143 0048 FFF7FEFF 		bl	lv_win_add_btn
 144              	.LVL11:
ARM GAS  /tmp/ccKMR0Jc.s 			page 7


  24:Middlewares/lvgl/examples/widgets/win/lv_example_win_1.c ****     lv_obj_add_event_cb(btn, event_handler, LV_EVENT_CLICKED, NULL);
 145              		.loc 1 24 5 is_stmt 1 view .LVU22
 146 004c 0023     		movs	r3, #0
 147 004e 0722     		movs	r2, #7
 148 0050 2946     		mov	r1, r5
 149 0052 FFF7FEFF 		bl	lv_obj_add_event_cb
 150              	.LVL12:
  25:Middlewares/lvgl/examples/widgets/win/lv_example_win_1.c **** 
  26:Middlewares/lvgl/examples/widgets/win/lv_example_win_1.c ****     lv_obj_t * cont = lv_win_get_content(win);  /*Content can be aded here*/
 151              		.loc 1 26 5 view .LVU23
 152              		.loc 1 26 23 is_stmt 0 view .LVU24
 153 0056 2046     		mov	r0, r4
 154 0058 FFF7FEFF 		bl	lv_win_get_content
 155              	.LVL13:
  27:Middlewares/lvgl/examples/widgets/win/lv_example_win_1.c ****     lv_obj_t * label =  lv_label_create(cont);
 156              		.loc 1 27 5 is_stmt 1 view .LVU25
 157              		.loc 1 27 25 is_stmt 0 view .LVU26
 158 005c FFF7FEFF 		bl	lv_label_create
 159              	.LVL14:
  28:Middlewares/lvgl/examples/widgets/win/lv_example_win_1.c ****     lv_label_set_text(label, "This is\n"
 160              		.loc 1 28 5 is_stmt 1 view .LVU27
 161 0060 0649     		ldr	r1, .L5+20
 162 0062 FFF7FEFF 		bl	lv_label_set_text
 163              	.LVL15:
  29:Middlewares/lvgl/examples/widgets/win/lv_example_win_1.c ****                              "a pretty\n"
  30:Middlewares/lvgl/examples/widgets/win/lv_example_win_1.c ****                              "long text\n"
  31:Middlewares/lvgl/examples/widgets/win/lv_example_win_1.c ****                              "to see how\n"
  32:Middlewares/lvgl/examples/widgets/win/lv_example_win_1.c ****                              "the window\n"
  33:Middlewares/lvgl/examples/widgets/win/lv_example_win_1.c ****                              "becomes\n"
  34:Middlewares/lvgl/examples/widgets/win/lv_example_win_1.c ****                              "scrollable.\n"
  35:Middlewares/lvgl/examples/widgets/win/lv_example_win_1.c ****                              "\n"
  36:Middlewares/lvgl/examples/widgets/win/lv_example_win_1.c ****                              "\n"
  37:Middlewares/lvgl/examples/widgets/win/lv_example_win_1.c ****                              "Some more\n"
  38:Middlewares/lvgl/examples/widgets/win/lv_example_win_1.c ****                              "text to be\n"
  39:Middlewares/lvgl/examples/widgets/win/lv_example_win_1.c ****                              "sure it\n"
  40:Middlewares/lvgl/examples/widgets/win/lv_example_win_1.c ****                              "overflows. :)");
  41:Middlewares/lvgl/examples/widgets/win/lv_example_win_1.c **** 
  42:Middlewares/lvgl/examples/widgets/win/lv_example_win_1.c **** 
  43:Middlewares/lvgl/examples/widgets/win/lv_example_win_1.c **** }
 164              		.loc 1 43 1 is_stmt 0 view .LVU28
 165 0066 38BD     		pop	{r3, r4, r5, pc}
 166              	.LVL16:
 167              	.L6:
 168              		.loc 1 43 1 view .LVU29
 169              		.align	2
 170              	.L5:
 171 0068 00000000 		.word	.LC0
 172 006c 00000000 		.word	event_handler
 173 0070 04000000 		.word	.LC1
 174 0074 0C000000 		.word	.LC2
 175 0078 10000000 		.word	.LC3
 176 007c 14000000 		.word	.LC4
 177              		.cfi_endproc
 178              	.LFE185:
 180              		.text
 181              	.Letext0:
 182              		.file 3 "/home/akinya/gcc-arm-none-eabi/arm-none-eabi/include/machine/_default_types.h"
ARM GAS  /tmp/ccKMR0Jc.s 			page 8


 183              		.file 4 "/home/akinya/gcc-arm-none-eabi/arm-none-eabi/include/sys/_stdint.h"
 184              		.file 5 "Middlewares/lvgl/examples/widgets/win/../../../src/misc/lv_ll.h"
 185              		.file 6 "Middlewares/lvgl/examples/widgets/win/../../../src/hal/../misc/lv_color.h"
 186              		.file 7 "Middlewares/lvgl/examples/widgets/win/../../../src/hal/../misc/lv_area.h"
 187              		.file 8 "Middlewares/lvgl/examples/widgets/win/../../../src/core/lv_obj.h"
 188              		.file 9 "Middlewares/lvgl/examples/widgets/win/../../../src/core/lv_group.h"
 189              		.file 10 "Middlewares/lvgl/examples/widgets/win/../../../src/core/../misc/lv_style.h"
 190              		.file 11 "Middlewares/lvgl/examples/widgets/win/../../../src/core/lv_obj_scroll.h"
 191              		.file 12 "Middlewares/lvgl/examples/widgets/win/../../../src/core/lv_obj_style.h"
 192              		.file 13 "Middlewares/lvgl/examples/widgets/win/../../../src/core/lv_obj_class.h"
 193              		.file 14 "Middlewares/lvgl/examples/widgets/win/../../../src/core/lv_event.h"
 194              		.file 15 "Middlewares/lvgl/examples/widgets/win/../../../src/hal/lv_hal_disp.h"
 195              		.file 16 "Middlewares/lvgl/examples/widgets/win/../../../src/extra/widgets/win/lv_win.h"
 196              		.file 17 "Middlewares/lvgl/examples/widgets/win/../../../src/widgets/lv_label.h"
ARM GAS  /tmp/ccKMR0Jc.s 			page 9

