ARM GAS  /tmp/cc98Yi2Y.s 			page 1


   1              		.cpu cortex-m3
   2              		.eabi_attribute 20, 1
   3              		.eabi_attribute 21, 1
   4              		.eabi_attribute 23, 3
   5              		.eabi_attribute 24, 1
   6              		.eabi_attribute 25, 1
   7              		.eabi_attribute 26, 1
   8              		.eabi_attribute 30, 1
   9              		.eabi_attribute 34, 1
  10              		.eabi_attribute 18, 4
  11              		.file	"lv_font.c"
  12              		.text
  13              	.Ltext0:
  14              		.cfi_sections	.debug_frame
  15              		.section	.text.lv_font_get_glyph_bitmap,"ax",%progbits
  16              		.align	1
  17              		.global	lv_font_get_glyph_bitmap
  18              		.arch armv7-m
  19              		.syntax unified
  20              		.thumb
  21              		.thumb_func
  22              		.fpu softvfp
  24              	lv_font_get_glyph_bitmap:
  25              	.LVL0:
  26              	.LFB6:
  27              		.file 1 "Middlewares/lvgl/src/font/lv_font.c"
   1:Middlewares/lvgl/src/font/lv_font.c **** /**
   2:Middlewares/lvgl/src/font/lv_font.c ****  * @file lv_font.c
   3:Middlewares/lvgl/src/font/lv_font.c ****  *
   4:Middlewares/lvgl/src/font/lv_font.c ****  */
   5:Middlewares/lvgl/src/font/lv_font.c **** 
   6:Middlewares/lvgl/src/font/lv_font.c **** /*********************
   7:Middlewares/lvgl/src/font/lv_font.c ****  *      INCLUDES
   8:Middlewares/lvgl/src/font/lv_font.c ****  *********************/
   9:Middlewares/lvgl/src/font/lv_font.c **** 
  10:Middlewares/lvgl/src/font/lv_font.c **** #include "lv_font.h"
  11:Middlewares/lvgl/src/font/lv_font.c **** #include "../misc/lv_utils.h"
  12:Middlewares/lvgl/src/font/lv_font.c **** #include "../misc/lv_log.h"
  13:Middlewares/lvgl/src/font/lv_font.c **** 
  14:Middlewares/lvgl/src/font/lv_font.c **** /*********************
  15:Middlewares/lvgl/src/font/lv_font.c ****  *      DEFINES
  16:Middlewares/lvgl/src/font/lv_font.c ****  *********************/
  17:Middlewares/lvgl/src/font/lv_font.c **** 
  18:Middlewares/lvgl/src/font/lv_font.c **** /**********************
  19:Middlewares/lvgl/src/font/lv_font.c ****  *      TYPEDEFS
  20:Middlewares/lvgl/src/font/lv_font.c ****  **********************/
  21:Middlewares/lvgl/src/font/lv_font.c **** 
  22:Middlewares/lvgl/src/font/lv_font.c **** /**********************
  23:Middlewares/lvgl/src/font/lv_font.c ****  *  STATIC PROTOTYPES
  24:Middlewares/lvgl/src/font/lv_font.c ****  **********************/
  25:Middlewares/lvgl/src/font/lv_font.c **** 
  26:Middlewares/lvgl/src/font/lv_font.c **** /**********************
  27:Middlewares/lvgl/src/font/lv_font.c ****  *  STATIC VARIABLES
  28:Middlewares/lvgl/src/font/lv_font.c ****  **********************/
  29:Middlewares/lvgl/src/font/lv_font.c **** 
  30:Middlewares/lvgl/src/font/lv_font.c **** /**********************
  31:Middlewares/lvgl/src/font/lv_font.c ****  * GLOBAL PROTOTYPES
ARM GAS  /tmp/cc98Yi2Y.s 			page 2


  32:Middlewares/lvgl/src/font/lv_font.c ****  **********************/
  33:Middlewares/lvgl/src/font/lv_font.c **** 
  34:Middlewares/lvgl/src/font/lv_font.c **** /**********************
  35:Middlewares/lvgl/src/font/lv_font.c ****  *      MACROS
  36:Middlewares/lvgl/src/font/lv_font.c ****  **********************/
  37:Middlewares/lvgl/src/font/lv_font.c **** 
  38:Middlewares/lvgl/src/font/lv_font.c **** /**********************
  39:Middlewares/lvgl/src/font/lv_font.c ****  *   GLOBAL FUNCTIONS
  40:Middlewares/lvgl/src/font/lv_font.c ****  **********************/
  41:Middlewares/lvgl/src/font/lv_font.c **** 
  42:Middlewares/lvgl/src/font/lv_font.c **** /**
  43:Middlewares/lvgl/src/font/lv_font.c ****  * Return with the bitmap of a font.
  44:Middlewares/lvgl/src/font/lv_font.c ****  * @param font_p pointer to a font
  45:Middlewares/lvgl/src/font/lv_font.c ****  * @param letter an UNICODE character code
  46:Middlewares/lvgl/src/font/lv_font.c ****  * @return pointer to the bitmap of the letter
  47:Middlewares/lvgl/src/font/lv_font.c ****  */
  48:Middlewares/lvgl/src/font/lv_font.c **** const uint8_t * lv_font_get_glyph_bitmap(const lv_font_t * font_p, uint32_t letter)
  49:Middlewares/lvgl/src/font/lv_font.c **** {
  28              		.loc 1 49 1 view -0
  29              		.cfi_startproc
  30              		@ args = 0, pretend = 0, frame = 0
  31              		@ frame_needed = 0, uses_anonymous_args = 0
  32              		.loc 1 49 1 is_stmt 0 view .LVU1
  33 0000 08B5     		push	{r3, lr}
  34              	.LCFI0:
  35              		.cfi_def_cfa_offset 8
  36              		.cfi_offset 3, -8
  37              		.cfi_offset 14, -4
  50:Middlewares/lvgl/src/font/lv_font.c ****     return font_p->get_glyph_bitmap(font_p, letter);
  38              		.loc 1 50 5 is_stmt 1 view .LVU2
  39              		.loc 1 50 18 is_stmt 0 view .LVU3
  40 0002 4368     		ldr	r3, [r0, #4]
  41              		.loc 1 50 12 view .LVU4
  42 0004 9847     		blx	r3
  43              	.LVL1:
  51:Middlewares/lvgl/src/font/lv_font.c **** }
  44              		.loc 1 51 1 view .LVU5
  45 0006 08BD     		pop	{r3, pc}
  46              		.cfi_endproc
  47              	.LFE6:
  49              		.section	.text.lv_font_get_glyph_dsc,"ax",%progbits
  50              		.align	1
  51              		.global	lv_font_get_glyph_dsc
  52              		.syntax unified
  53              		.thumb
  54              		.thumb_func
  55              		.fpu softvfp
  57              	lv_font_get_glyph_dsc:
  58              	.LVL2:
  59              	.LFB7:
  52:Middlewares/lvgl/src/font/lv_font.c **** 
  53:Middlewares/lvgl/src/font/lv_font.c **** /**
  54:Middlewares/lvgl/src/font/lv_font.c ****  * Get the descriptor of a glyph
  55:Middlewares/lvgl/src/font/lv_font.c ****  * @param font_p pointer to font
  56:Middlewares/lvgl/src/font/lv_font.c ****  * @param dsc_out store the result descriptor here
  57:Middlewares/lvgl/src/font/lv_font.c ****  * @param letter an UNICODE letter code
  58:Middlewares/lvgl/src/font/lv_font.c ****  * @return true: descriptor is successfully loaded into `dsc_out`.
ARM GAS  /tmp/cc98Yi2Y.s 			page 3


  59:Middlewares/lvgl/src/font/lv_font.c ****  *         false: the letter was not found, no data is loaded to `dsc_out`
  60:Middlewares/lvgl/src/font/lv_font.c ****  */
  61:Middlewares/lvgl/src/font/lv_font.c **** bool lv_font_get_glyph_dsc(const lv_font_t * font_p, lv_font_glyph_dsc_t * dsc_out, uint32_t letter
  62:Middlewares/lvgl/src/font/lv_font.c ****                            uint32_t letter_next)
  63:Middlewares/lvgl/src/font/lv_font.c **** {
  60              		.loc 1 63 1 is_stmt 1 view -0
  61              		.cfi_startproc
  62              		@ args = 0, pretend = 0, frame = 0
  63              		@ frame_needed = 0, uses_anonymous_args = 0
  64              		.loc 1 63 1 is_stmt 0 view .LVU7
  65 0000 10B5     		push	{r4, lr}
  66              	.LCFI1:
  67              		.cfi_def_cfa_offset 8
  68              		.cfi_offset 4, -8
  69              		.cfi_offset 14, -4
  64:Middlewares/lvgl/src/font/lv_font.c ****     return font_p->get_glyph_dsc(font_p, dsc_out, letter, letter_next);
  70              		.loc 1 64 5 is_stmt 1 view .LVU8
  71              		.loc 1 64 18 is_stmt 0 view .LVU9
  72 0002 0468     		ldr	r4, [r0]
  73              		.loc 1 64 12 view .LVU10
  74 0004 A047     		blx	r4
  75              	.LVL3:
  65:Middlewares/lvgl/src/font/lv_font.c **** }
  76              		.loc 1 65 1 view .LVU11
  77 0006 10BD     		pop	{r4, pc}
  78              		.cfi_endproc
  79              	.LFE7:
  81              		.section	.text.lv_font_get_glyph_width,"ax",%progbits
  82              		.align	1
  83              		.global	lv_font_get_glyph_width
  84              		.syntax unified
  85              		.thumb
  86              		.thumb_func
  87              		.fpu softvfp
  89              	lv_font_get_glyph_width:
  90              	.LVL4:
  91              	.LFB8:
  66:Middlewares/lvgl/src/font/lv_font.c **** 
  67:Middlewares/lvgl/src/font/lv_font.c **** /**
  68:Middlewares/lvgl/src/font/lv_font.c ****  * Get the width of a glyph with kerning
  69:Middlewares/lvgl/src/font/lv_font.c ****  * @param font pointer to a font
  70:Middlewares/lvgl/src/font/lv_font.c ****  * @param letter an UNICODE letter
  71:Middlewares/lvgl/src/font/lv_font.c ****  * @param letter_next the next letter after `letter`. Used for kerning
  72:Middlewares/lvgl/src/font/lv_font.c ****  * @return the width of the glyph
  73:Middlewares/lvgl/src/font/lv_font.c ****  */
  74:Middlewares/lvgl/src/font/lv_font.c **** uint16_t lv_font_get_glyph_width(const lv_font_t * font, uint32_t letter, uint32_t letter_next)
  75:Middlewares/lvgl/src/font/lv_font.c **** {
  92              		.loc 1 75 1 is_stmt 1 view -0
  93              		.cfi_startproc
  94              		@ args = 0, pretend = 0, frame = 16
  95              		@ frame_needed = 0, uses_anonymous_args = 0
  96              		.loc 1 75 1 is_stmt 0 view .LVU13
  97 0000 00B5     		push	{lr}
  98              	.LCFI2:
  99              		.cfi_def_cfa_offset 4
 100              		.cfi_offset 14, -4
 101 0002 85B0     		sub	sp, sp, #20
ARM GAS  /tmp/cc98Yi2Y.s 			page 4


 102              	.LCFI3:
 103              		.cfi_def_cfa_offset 24
 104 0004 1346     		mov	r3, r2
  76:Middlewares/lvgl/src/font/lv_font.c ****     lv_font_glyph_dsc_t g;
 105              		.loc 1 76 5 is_stmt 1 view .LVU14
  77:Middlewares/lvgl/src/font/lv_font.c ****     bool ret;
 106              		.loc 1 77 5 view .LVU15
  78:Middlewares/lvgl/src/font/lv_font.c ****     ret = lv_font_get_glyph_dsc(font, &g, letter, letter_next);
 107              		.loc 1 78 5 view .LVU16
 108              		.loc 1 78 11 is_stmt 0 view .LVU17
 109 0006 0A46     		mov	r2, r1
 110              	.LVL5:
 111              		.loc 1 78 11 view .LVU18
 112 0008 01A9     		add	r1, sp, #4
 113              	.LVL6:
 114              		.loc 1 78 11 view .LVU19
 115 000a FFF7FEFF 		bl	lv_font_get_glyph_dsc
 116              	.LVL7:
  79:Middlewares/lvgl/src/font/lv_font.c ****     if(ret) return g.adv_w;
 117              		.loc 1 79 5 is_stmt 1 view .LVU20
 118              		.loc 1 79 7 is_stmt 0 view .LVU21
 119 000e 20B1     		cbz	r0, .L7
 120              		.loc 1 79 13 is_stmt 1 discriminator 1 view .LVU22
 121              		.loc 1 79 21 is_stmt 0 discriminator 1 view .LVU23
 122 0010 BDF80400 		ldrh	r0, [sp, #4]
 123              	.LVL8:
 124              	.L6:
  80:Middlewares/lvgl/src/font/lv_font.c ****     else return 0;
  81:Middlewares/lvgl/src/font/lv_font.c **** }
 125              		.loc 1 81 1 view .LVU24
 126 0014 05B0     		add	sp, sp, #20
 127              	.LCFI4:
 128              		.cfi_remember_state
 129              		.cfi_def_cfa_offset 4
 130              		@ sp needed
 131 0016 5DF804FB 		ldr	pc, [sp], #4
 132              	.LVL9:
 133              	.L7:
 134              	.LCFI5:
 135              		.cfi_restore_state
  80:Middlewares/lvgl/src/font/lv_font.c ****     else return 0;
 136              		.loc 1 80 17 view .LVU25
 137 001a 0020     		movs	r0, #0
 138              	.LVL10:
  80:Middlewares/lvgl/src/font/lv_font.c ****     else return 0;
 139              		.loc 1 80 17 view .LVU26
 140 001c FAE7     		b	.L6
 141              		.cfi_endproc
 142              	.LFE8:
 144              		.text
 145              	.Letext0:
 146              		.file 2 "/home/akinya/gcc-arm-none-eabi/arm-none-eabi/include/machine/_default_types.h"
 147              		.file 3 "/home/akinya/gcc-arm-none-eabi/arm-none-eabi/include/sys/_stdint.h"
 148              		.file 4 "Middlewares/lvgl/src/font/../misc/lv_area.h"
 149              		.file 5 "Middlewares/lvgl/src/font/lv_font.h"
ARM GAS  /tmp/cc98Yi2Y.s 			page 5

