ARM GAS  /tmp/ccyjKoUS.s 			page 1


   1              		.cpu cortex-m3
   2              		.eabi_attribute 20, 1
   3              		.eabi_attribute 21, 1
   4              		.eabi_attribute 23, 3
   5              		.eabi_attribute 24, 1
   6              		.eabi_attribute 25, 1
   7              		.eabi_attribute 26, 1
   8              		.eabi_attribute 30, 1
   9              		.eabi_attribute 34, 1
  10              		.eabi_attribute 18, 4
  11              		.file	"lv_flex.c"
  12              		.text
  13              	.Ltext0:
  14              		.cfi_sections	.debug_frame
  15              		.section	.text.lv_area_get_width,"ax",%progbits
  16              		.align	1
  17              		.arch armv7-m
  18              		.syntax unified
  19              		.thumb
  20              		.thumb_func
  21              		.fpu softvfp
  23              	lv_area_get_width:
  24              	.LVL0:
  25              	.LFB1:
  26              		.file 1 "Middlewares/lvgl/src/extra/layouts/flex/../flex/../../../core/../misc/../font/../misc/lv_
   1:Middlewares/lvgl/src/extra/layouts/flex/../flex/../../../core/../misc/../font/../misc/lv_area.h **** /**
   2:Middlewares/lvgl/src/extra/layouts/flex/../flex/../../../core/../misc/../font/../misc/lv_area.h ****  * @file lv_area.h
   3:Middlewares/lvgl/src/extra/layouts/flex/../flex/../../../core/../misc/../font/../misc/lv_area.h ****  *
   4:Middlewares/lvgl/src/extra/layouts/flex/../flex/../../../core/../misc/../font/../misc/lv_area.h ****  */
   5:Middlewares/lvgl/src/extra/layouts/flex/../flex/../../../core/../misc/../font/../misc/lv_area.h **** 
   6:Middlewares/lvgl/src/extra/layouts/flex/../flex/../../../core/../misc/../font/../misc/lv_area.h **** #ifndef LV_AREA_H
   7:Middlewares/lvgl/src/extra/layouts/flex/../flex/../../../core/../misc/../font/../misc/lv_area.h **** #define LV_AREA_H
   8:Middlewares/lvgl/src/extra/layouts/flex/../flex/../../../core/../misc/../font/../misc/lv_area.h **** 
   9:Middlewares/lvgl/src/extra/layouts/flex/../flex/../../../core/../misc/../font/../misc/lv_area.h **** #ifdef __cplusplus
  10:Middlewares/lvgl/src/extra/layouts/flex/../flex/../../../core/../misc/../font/../misc/lv_area.h **** extern "C" {
  11:Middlewares/lvgl/src/extra/layouts/flex/../flex/../../../core/../misc/../font/../misc/lv_area.h **** #endif
  12:Middlewares/lvgl/src/extra/layouts/flex/../flex/../../../core/../misc/../font/../misc/lv_area.h **** 
  13:Middlewares/lvgl/src/extra/layouts/flex/../flex/../../../core/../misc/../font/../misc/lv_area.h **** /*********************
  14:Middlewares/lvgl/src/extra/layouts/flex/../flex/../../../core/../misc/../font/../misc/lv_area.h ****  *      INCLUDES
  15:Middlewares/lvgl/src/extra/layouts/flex/../flex/../../../core/../misc/../font/../misc/lv_area.h ****  *********************/
  16:Middlewares/lvgl/src/extra/layouts/flex/../flex/../../../core/../misc/../font/../misc/lv_area.h **** #include "../lv_conf_internal.h"
  17:Middlewares/lvgl/src/extra/layouts/flex/../flex/../../../core/../misc/../font/../misc/lv_area.h **** #include <string.h>
  18:Middlewares/lvgl/src/extra/layouts/flex/../flex/../../../core/../misc/../font/../misc/lv_area.h **** #include <stdbool.h>
  19:Middlewares/lvgl/src/extra/layouts/flex/../flex/../../../core/../misc/../font/../misc/lv_area.h **** #include <stdint.h>
  20:Middlewares/lvgl/src/extra/layouts/flex/../flex/../../../core/../misc/../font/../misc/lv_area.h **** 
  21:Middlewares/lvgl/src/extra/layouts/flex/../flex/../../../core/../misc/../font/../misc/lv_area.h **** /*********************
  22:Middlewares/lvgl/src/extra/layouts/flex/../flex/../../../core/../misc/../font/../misc/lv_area.h ****  *      DEFINES
  23:Middlewares/lvgl/src/extra/layouts/flex/../flex/../../../core/../misc/../font/../misc/lv_area.h ****  *********************/
  24:Middlewares/lvgl/src/extra/layouts/flex/../flex/../../../core/../misc/../font/../misc/lv_area.h **** 
  25:Middlewares/lvgl/src/extra/layouts/flex/../flex/../../../core/../misc/../font/../misc/lv_area.h **** #define _LV_COORD_MAX_REDUCE    8192
  26:Middlewares/lvgl/src/extra/layouts/flex/../flex/../../../core/../misc/../font/../misc/lv_area.h **** 
  27:Middlewares/lvgl/src/extra/layouts/flex/../flex/../../../core/../misc/../font/../misc/lv_area.h **** #if LV_USE_LARGE_COORD
  28:Middlewares/lvgl/src/extra/layouts/flex/../flex/../../../core/../misc/../font/../misc/lv_area.h **** typedef int32_t lv_coord_t;
  29:Middlewares/lvgl/src/extra/layouts/flex/../flex/../../../core/../misc/../font/../misc/lv_area.h **** #else
  30:Middlewares/lvgl/src/extra/layouts/flex/../flex/../../../core/../misc/../font/../misc/lv_area.h **** typedef int16_t lv_coord_t;
  31:Middlewares/lvgl/src/extra/layouts/flex/../flex/../../../core/../misc/../font/../misc/lv_area.h **** #endif
  32:Middlewares/lvgl/src/extra/layouts/flex/../flex/../../../core/../misc/../font/../misc/lv_area.h **** 
ARM GAS  /tmp/ccyjKoUS.s 			page 2


  33:Middlewares/lvgl/src/extra/layouts/flex/../flex/../../../core/../misc/../font/../misc/lv_area.h **** /*To allow some special values in the end reduce the max value*/
  34:Middlewares/lvgl/src/extra/layouts/flex/../flex/../../../core/../misc/../font/../misc/lv_area.h **** #define LV_COORD_MAX ((lv_coord_t)((uint32_t)((uint32_t)1 << (8 * sizeof(lv_coord_t) - 1)) - _LV_CO
  35:Middlewares/lvgl/src/extra/layouts/flex/../flex/../../../core/../misc/../font/../misc/lv_area.h **** #define LV_COORD_MIN (-LV_COORD_MAX)
  36:Middlewares/lvgl/src/extra/layouts/flex/../flex/../../../core/../misc/../font/../misc/lv_area.h **** 
  37:Middlewares/lvgl/src/extra/layouts/flex/../flex/../../../core/../misc/../font/../misc/lv_area.h **** LV_EXPORT_CONST_INT(LV_COORD_MAX);
  38:Middlewares/lvgl/src/extra/layouts/flex/../flex/../../../core/../misc/../font/../misc/lv_area.h **** LV_EXPORT_CONST_INT(LV_COORD_MIN);
  39:Middlewares/lvgl/src/extra/layouts/flex/../flex/../../../core/../misc/../font/../misc/lv_area.h **** 
  40:Middlewares/lvgl/src/extra/layouts/flex/../flex/../../../core/../misc/../font/../misc/lv_area.h **** /**********************
  41:Middlewares/lvgl/src/extra/layouts/flex/../flex/../../../core/../misc/../font/../misc/lv_area.h ****  *      TYPEDEFS
  42:Middlewares/lvgl/src/extra/layouts/flex/../flex/../../../core/../misc/../font/../misc/lv_area.h ****  **********************/
  43:Middlewares/lvgl/src/extra/layouts/flex/../flex/../../../core/../misc/../font/../misc/lv_area.h **** 
  44:Middlewares/lvgl/src/extra/layouts/flex/../flex/../../../core/../misc/../font/../misc/lv_area.h **** /**
  45:Middlewares/lvgl/src/extra/layouts/flex/../flex/../../../core/../misc/../font/../misc/lv_area.h ****  * Represents a point on the screen.
  46:Middlewares/lvgl/src/extra/layouts/flex/../flex/../../../core/../misc/../font/../misc/lv_area.h ****  */
  47:Middlewares/lvgl/src/extra/layouts/flex/../flex/../../../core/../misc/../font/../misc/lv_area.h **** typedef struct {
  48:Middlewares/lvgl/src/extra/layouts/flex/../flex/../../../core/../misc/../font/../misc/lv_area.h ****     lv_coord_t x;
  49:Middlewares/lvgl/src/extra/layouts/flex/../flex/../../../core/../misc/../font/../misc/lv_area.h ****     lv_coord_t y;
  50:Middlewares/lvgl/src/extra/layouts/flex/../flex/../../../core/../misc/../font/../misc/lv_area.h **** } lv_point_t;
  51:Middlewares/lvgl/src/extra/layouts/flex/../flex/../../../core/../misc/../font/../misc/lv_area.h **** 
  52:Middlewares/lvgl/src/extra/layouts/flex/../flex/../../../core/../misc/../font/../misc/lv_area.h **** /** Represents an area of the screen.*/
  53:Middlewares/lvgl/src/extra/layouts/flex/../flex/../../../core/../misc/../font/../misc/lv_area.h **** typedef struct {
  54:Middlewares/lvgl/src/extra/layouts/flex/../flex/../../../core/../misc/../font/../misc/lv_area.h ****     lv_coord_t x1;
  55:Middlewares/lvgl/src/extra/layouts/flex/../flex/../../../core/../misc/../font/../misc/lv_area.h ****     lv_coord_t y1;
  56:Middlewares/lvgl/src/extra/layouts/flex/../flex/../../../core/../misc/../font/../misc/lv_area.h ****     lv_coord_t x2;
  57:Middlewares/lvgl/src/extra/layouts/flex/../flex/../../../core/../misc/../font/../misc/lv_area.h ****     lv_coord_t y2;
  58:Middlewares/lvgl/src/extra/layouts/flex/../flex/../../../core/../misc/../font/../misc/lv_area.h **** } lv_area_t;
  59:Middlewares/lvgl/src/extra/layouts/flex/../flex/../../../core/../misc/../font/../misc/lv_area.h **** 
  60:Middlewares/lvgl/src/extra/layouts/flex/../flex/../../../core/../misc/../font/../misc/lv_area.h **** /** Alignments*/
  61:Middlewares/lvgl/src/extra/layouts/flex/../flex/../../../core/../misc/../font/../misc/lv_area.h **** enum {
  62:Middlewares/lvgl/src/extra/layouts/flex/../flex/../../../core/../misc/../font/../misc/lv_area.h ****     LV_ALIGN_DEFAULT = 0,
  63:Middlewares/lvgl/src/extra/layouts/flex/../flex/../../../core/../misc/../font/../misc/lv_area.h ****     LV_ALIGN_TOP_LEFT,
  64:Middlewares/lvgl/src/extra/layouts/flex/../flex/../../../core/../misc/../font/../misc/lv_area.h ****     LV_ALIGN_TOP_MID,
  65:Middlewares/lvgl/src/extra/layouts/flex/../flex/../../../core/../misc/../font/../misc/lv_area.h ****     LV_ALIGN_TOP_RIGHT,
  66:Middlewares/lvgl/src/extra/layouts/flex/../flex/../../../core/../misc/../font/../misc/lv_area.h ****     LV_ALIGN_BOTTOM_LEFT,
  67:Middlewares/lvgl/src/extra/layouts/flex/../flex/../../../core/../misc/../font/../misc/lv_area.h ****     LV_ALIGN_BOTTOM_MID,
  68:Middlewares/lvgl/src/extra/layouts/flex/../flex/../../../core/../misc/../font/../misc/lv_area.h ****     LV_ALIGN_BOTTOM_RIGHT,
  69:Middlewares/lvgl/src/extra/layouts/flex/../flex/../../../core/../misc/../font/../misc/lv_area.h ****     LV_ALIGN_LEFT_MID,
  70:Middlewares/lvgl/src/extra/layouts/flex/../flex/../../../core/../misc/../font/../misc/lv_area.h ****     LV_ALIGN_RIGHT_MID,
  71:Middlewares/lvgl/src/extra/layouts/flex/../flex/../../../core/../misc/../font/../misc/lv_area.h ****     LV_ALIGN_CENTER,
  72:Middlewares/lvgl/src/extra/layouts/flex/../flex/../../../core/../misc/../font/../misc/lv_area.h **** 
  73:Middlewares/lvgl/src/extra/layouts/flex/../flex/../../../core/../misc/../font/../misc/lv_area.h ****     LV_ALIGN_OUT_TOP_LEFT,
  74:Middlewares/lvgl/src/extra/layouts/flex/../flex/../../../core/../misc/../font/../misc/lv_area.h ****     LV_ALIGN_OUT_TOP_MID,
  75:Middlewares/lvgl/src/extra/layouts/flex/../flex/../../../core/../misc/../font/../misc/lv_area.h ****     LV_ALIGN_OUT_TOP_RIGHT,
  76:Middlewares/lvgl/src/extra/layouts/flex/../flex/../../../core/../misc/../font/../misc/lv_area.h ****     LV_ALIGN_OUT_BOTTOM_LEFT,
  77:Middlewares/lvgl/src/extra/layouts/flex/../flex/../../../core/../misc/../font/../misc/lv_area.h ****     LV_ALIGN_OUT_BOTTOM_MID,
  78:Middlewares/lvgl/src/extra/layouts/flex/../flex/../../../core/../misc/../font/../misc/lv_area.h ****     LV_ALIGN_OUT_BOTTOM_RIGHT,
  79:Middlewares/lvgl/src/extra/layouts/flex/../flex/../../../core/../misc/../font/../misc/lv_area.h ****     LV_ALIGN_OUT_LEFT_TOP,
  80:Middlewares/lvgl/src/extra/layouts/flex/../flex/../../../core/../misc/../font/../misc/lv_area.h ****     LV_ALIGN_OUT_LEFT_MID,
  81:Middlewares/lvgl/src/extra/layouts/flex/../flex/../../../core/../misc/../font/../misc/lv_area.h ****     LV_ALIGN_OUT_LEFT_BOTTOM,
  82:Middlewares/lvgl/src/extra/layouts/flex/../flex/../../../core/../misc/../font/../misc/lv_area.h ****     LV_ALIGN_OUT_RIGHT_TOP,
  83:Middlewares/lvgl/src/extra/layouts/flex/../flex/../../../core/../misc/../font/../misc/lv_area.h ****     LV_ALIGN_OUT_RIGHT_MID,
  84:Middlewares/lvgl/src/extra/layouts/flex/../flex/../../../core/../misc/../font/../misc/lv_area.h ****     LV_ALIGN_OUT_RIGHT_BOTTOM,
  85:Middlewares/lvgl/src/extra/layouts/flex/../flex/../../../core/../misc/../font/../misc/lv_area.h **** };
  86:Middlewares/lvgl/src/extra/layouts/flex/../flex/../../../core/../misc/../font/../misc/lv_area.h **** typedef uint8_t lv_align_t;
  87:Middlewares/lvgl/src/extra/layouts/flex/../flex/../../../core/../misc/../font/../misc/lv_area.h **** 
  88:Middlewares/lvgl/src/extra/layouts/flex/../flex/../../../core/../misc/../font/../misc/lv_area.h **** enum {
  89:Middlewares/lvgl/src/extra/layouts/flex/../flex/../../../core/../misc/../font/../misc/lv_area.h ****     LV_DIR_NONE     = 0x00,
ARM GAS  /tmp/ccyjKoUS.s 			page 3


  90:Middlewares/lvgl/src/extra/layouts/flex/../flex/../../../core/../misc/../font/../misc/lv_area.h ****     LV_DIR_LEFT     = (1 << 0),
  91:Middlewares/lvgl/src/extra/layouts/flex/../flex/../../../core/../misc/../font/../misc/lv_area.h ****     LV_DIR_RIGHT    = (1 << 1),
  92:Middlewares/lvgl/src/extra/layouts/flex/../flex/../../../core/../misc/../font/../misc/lv_area.h ****     LV_DIR_TOP      = (1 << 2),
  93:Middlewares/lvgl/src/extra/layouts/flex/../flex/../../../core/../misc/../font/../misc/lv_area.h ****     LV_DIR_BOTTOM   = (1 << 3),
  94:Middlewares/lvgl/src/extra/layouts/flex/../flex/../../../core/../misc/../font/../misc/lv_area.h ****     LV_DIR_HOR      = LV_DIR_LEFT | LV_DIR_RIGHT,
  95:Middlewares/lvgl/src/extra/layouts/flex/../flex/../../../core/../misc/../font/../misc/lv_area.h ****     LV_DIR_VER      = LV_DIR_TOP | LV_DIR_BOTTOM,
  96:Middlewares/lvgl/src/extra/layouts/flex/../flex/../../../core/../misc/../font/../misc/lv_area.h ****     LV_DIR_ALL      = LV_DIR_HOR | LV_DIR_VER,
  97:Middlewares/lvgl/src/extra/layouts/flex/../flex/../../../core/../misc/../font/../misc/lv_area.h **** };
  98:Middlewares/lvgl/src/extra/layouts/flex/../flex/../../../core/../misc/../font/../misc/lv_area.h **** 
  99:Middlewares/lvgl/src/extra/layouts/flex/../flex/../../../core/../misc/../font/../misc/lv_area.h **** typedef uint8_t lv_dir_t;
 100:Middlewares/lvgl/src/extra/layouts/flex/../flex/../../../core/../misc/../font/../misc/lv_area.h **** 
 101:Middlewares/lvgl/src/extra/layouts/flex/../flex/../../../core/../misc/../font/../misc/lv_area.h **** /**********************
 102:Middlewares/lvgl/src/extra/layouts/flex/../flex/../../../core/../misc/../font/../misc/lv_area.h ****  * GLOBAL PROTOTYPES
 103:Middlewares/lvgl/src/extra/layouts/flex/../flex/../../../core/../misc/../font/../misc/lv_area.h ****  **********************/
 104:Middlewares/lvgl/src/extra/layouts/flex/../flex/../../../core/../misc/../font/../misc/lv_area.h **** 
 105:Middlewares/lvgl/src/extra/layouts/flex/../flex/../../../core/../misc/../font/../misc/lv_area.h **** /**
 106:Middlewares/lvgl/src/extra/layouts/flex/../flex/../../../core/../misc/../font/../misc/lv_area.h ****  * Initialize an area
 107:Middlewares/lvgl/src/extra/layouts/flex/../flex/../../../core/../misc/../font/../misc/lv_area.h ****  * @param area_p pointer to an area
 108:Middlewares/lvgl/src/extra/layouts/flex/../flex/../../../core/../misc/../font/../misc/lv_area.h ****  * @param x1 left coordinate of the area
 109:Middlewares/lvgl/src/extra/layouts/flex/../flex/../../../core/../misc/../font/../misc/lv_area.h ****  * @param y1 top coordinate of the area
 110:Middlewares/lvgl/src/extra/layouts/flex/../flex/../../../core/../misc/../font/../misc/lv_area.h ****  * @param x2 right coordinate of the area
 111:Middlewares/lvgl/src/extra/layouts/flex/../flex/../../../core/../misc/../font/../misc/lv_area.h ****  * @param y2 bottom coordinate of the area
 112:Middlewares/lvgl/src/extra/layouts/flex/../flex/../../../core/../misc/../font/../misc/lv_area.h ****  */
 113:Middlewares/lvgl/src/extra/layouts/flex/../flex/../../../core/../misc/../font/../misc/lv_area.h **** void lv_area_set(lv_area_t * area_p, lv_coord_t x1, lv_coord_t y1, lv_coord_t x2, lv_coord_t y2);
 114:Middlewares/lvgl/src/extra/layouts/flex/../flex/../../../core/../misc/../font/../misc/lv_area.h **** 
 115:Middlewares/lvgl/src/extra/layouts/flex/../flex/../../../core/../misc/../font/../misc/lv_area.h **** /**
 116:Middlewares/lvgl/src/extra/layouts/flex/../flex/../../../core/../misc/../font/../misc/lv_area.h ****  * Copy an area
 117:Middlewares/lvgl/src/extra/layouts/flex/../flex/../../../core/../misc/../font/../misc/lv_area.h ****  * @param dest pointer to the destination area
 118:Middlewares/lvgl/src/extra/layouts/flex/../flex/../../../core/../misc/../font/../misc/lv_area.h ****  * @param src pointer to the source area
 119:Middlewares/lvgl/src/extra/layouts/flex/../flex/../../../core/../misc/../font/../misc/lv_area.h ****  */
 120:Middlewares/lvgl/src/extra/layouts/flex/../flex/../../../core/../misc/../font/../misc/lv_area.h **** inline static void lv_area_copy(lv_area_t * dest, const lv_area_t * src)
 121:Middlewares/lvgl/src/extra/layouts/flex/../flex/../../../core/../misc/../font/../misc/lv_area.h **** {
 122:Middlewares/lvgl/src/extra/layouts/flex/../flex/../../../core/../misc/../font/../misc/lv_area.h ****     dest->x1 = src->x1;
 123:Middlewares/lvgl/src/extra/layouts/flex/../flex/../../../core/../misc/../font/../misc/lv_area.h ****     dest->y1 = src->y1;
 124:Middlewares/lvgl/src/extra/layouts/flex/../flex/../../../core/../misc/../font/../misc/lv_area.h ****     dest->x2 = src->x2;
 125:Middlewares/lvgl/src/extra/layouts/flex/../flex/../../../core/../misc/../font/../misc/lv_area.h ****     dest->y2 = src->y2;
 126:Middlewares/lvgl/src/extra/layouts/flex/../flex/../../../core/../misc/../font/../misc/lv_area.h **** }
 127:Middlewares/lvgl/src/extra/layouts/flex/../flex/../../../core/../misc/../font/../misc/lv_area.h **** 
 128:Middlewares/lvgl/src/extra/layouts/flex/../flex/../../../core/../misc/../font/../misc/lv_area.h **** /**
 129:Middlewares/lvgl/src/extra/layouts/flex/../flex/../../../core/../misc/../font/../misc/lv_area.h ****  * Get the width of an area
 130:Middlewares/lvgl/src/extra/layouts/flex/../flex/../../../core/../misc/../font/../misc/lv_area.h ****  * @param area_p pointer to an area
 131:Middlewares/lvgl/src/extra/layouts/flex/../flex/../../../core/../misc/../font/../misc/lv_area.h ****  * @return the width of the area (if x1 == x2 -> width = 1)
 132:Middlewares/lvgl/src/extra/layouts/flex/../flex/../../../core/../misc/../font/../misc/lv_area.h ****  */
 133:Middlewares/lvgl/src/extra/layouts/flex/../flex/../../../core/../misc/../font/../misc/lv_area.h **** static inline lv_coord_t lv_area_get_width(const lv_area_t * area_p)
 134:Middlewares/lvgl/src/extra/layouts/flex/../flex/../../../core/../misc/../font/../misc/lv_area.h **** {
  27              		.loc 1 134 1 view -0
  28              		.cfi_startproc
  29              		@ args = 0, pretend = 0, frame = 0
  30              		@ frame_needed = 0, uses_anonymous_args = 0
  31              		@ link register save eliminated.
  32              		.loc 1 134 1 is_stmt 0 view .LVU1
  33 0000 0346     		mov	r3, r0
 135:Middlewares/lvgl/src/extra/layouts/flex/../flex/../../../core/../misc/../font/../misc/lv_area.h ****     return (lv_coord_t)(area_p->x2 - area_p->x1 + 1);
  34              		.loc 1 135 5 is_stmt 1 view .LVU2
  35              		.loc 1 135 31 is_stmt 0 view .LVU3
  36 0002 8088     		ldrh	r0, [r0, #4]
  37              	.LVL1:
ARM GAS  /tmp/ccyjKoUS.s 			page 4


  38              		.loc 1 135 44 view .LVU4
  39 0004 1B88     		ldrh	r3, [r3]
  40              	.LVL2:
  41              		.loc 1 135 36 view .LVU5
  42 0006 C01A     		subs	r0, r0, r3
  43 0008 80B2     		uxth	r0, r0
  44              		.loc 1 135 49 view .LVU6
  45 000a 0130     		adds	r0, r0, #1
 136:Middlewares/lvgl/src/extra/layouts/flex/../flex/../../../core/../misc/../font/../misc/lv_area.h **** }
  46              		.loc 1 136 1 view .LVU7
  47 000c 00B2     		sxth	r0, r0
  48 000e 7047     		bx	lr
  49              		.cfi_endproc
  50              	.LFE1:
  52              		.section	.text.lv_area_get_height,"ax",%progbits
  53              		.align	1
  54              		.syntax unified
  55              		.thumb
  56              		.thumb_func
  57              		.fpu softvfp
  59              	lv_area_get_height:
  60              	.LVL3:
  61              	.LFB2:
 137:Middlewares/lvgl/src/extra/layouts/flex/../flex/../../../core/../misc/../font/../misc/lv_area.h **** 
 138:Middlewares/lvgl/src/extra/layouts/flex/../flex/../../../core/../misc/../font/../misc/lv_area.h **** /**
 139:Middlewares/lvgl/src/extra/layouts/flex/../flex/../../../core/../misc/../font/../misc/lv_area.h ****  * Get the height of an area
 140:Middlewares/lvgl/src/extra/layouts/flex/../flex/../../../core/../misc/../font/../misc/lv_area.h ****  * @param area_p pointer to an area
 141:Middlewares/lvgl/src/extra/layouts/flex/../flex/../../../core/../misc/../font/../misc/lv_area.h ****  * @return the height of the area (if y1 == y2 -> height = 1)
 142:Middlewares/lvgl/src/extra/layouts/flex/../flex/../../../core/../misc/../font/../misc/lv_area.h ****  */
 143:Middlewares/lvgl/src/extra/layouts/flex/../flex/../../../core/../misc/../font/../misc/lv_area.h **** static inline lv_coord_t lv_area_get_height(const lv_area_t * area_p)
 144:Middlewares/lvgl/src/extra/layouts/flex/../flex/../../../core/../misc/../font/../misc/lv_area.h **** {
  62              		.loc 1 144 1 is_stmt 1 view -0
  63              		.cfi_startproc
  64              		@ args = 0, pretend = 0, frame = 0
  65              		@ frame_needed = 0, uses_anonymous_args = 0
  66              		@ link register save eliminated.
  67              		.loc 1 144 1 is_stmt 0 view .LVU9
  68 0000 0346     		mov	r3, r0
 145:Middlewares/lvgl/src/extra/layouts/flex/../flex/../../../core/../misc/../font/../misc/lv_area.h ****     return (lv_coord_t)(area_p->y2 - area_p->y1 + 1);
  69              		.loc 1 145 5 is_stmt 1 view .LVU10
  70              		.loc 1 145 31 is_stmt 0 view .LVU11
  71 0002 C088     		ldrh	r0, [r0, #6]
  72              	.LVL4:
  73              		.loc 1 145 44 view .LVU12
  74 0004 5B88     		ldrh	r3, [r3, #2]
  75              	.LVL5:
  76              		.loc 1 145 36 view .LVU13
  77 0006 C01A     		subs	r0, r0, r3
  78 0008 80B2     		uxth	r0, r0
  79              		.loc 1 145 49 view .LVU14
  80 000a 0130     		adds	r0, r0, #1
 146:Middlewares/lvgl/src/extra/layouts/flex/../flex/../../../core/../misc/../font/../misc/lv_area.h **** }
  81              		.loc 1 146 1 view .LVU15
  82 000c 00B2     		sxth	r0, r0
  83 000e 7047     		bx	lr
  84              		.cfi_endproc
  85              	.LFE2:
ARM GAS  /tmp/ccyjKoUS.s 			page 5


  87              		.section	.text.place_content,"ax",%progbits
  88              		.align	1
  89              		.syntax unified
  90              		.thumb
  91              		.thumb_func
  92              		.fpu softvfp
  94              	place_content:
  95              	.LVL6:
  96              	.LFB180:
  97              		.file 2 "Middlewares/lvgl/src/extra/layouts/flex/lv_flex.c"
   1:Middlewares/lvgl/src/extra/layouts/flex/lv_flex.c **** /**
   2:Middlewares/lvgl/src/extra/layouts/flex/lv_flex.c ****  * @file lv_flex.c
   3:Middlewares/lvgl/src/extra/layouts/flex/lv_flex.c ****  *
   4:Middlewares/lvgl/src/extra/layouts/flex/lv_flex.c ****  */
   5:Middlewares/lvgl/src/extra/layouts/flex/lv_flex.c **** 
   6:Middlewares/lvgl/src/extra/layouts/flex/lv_flex.c **** /*********************
   7:Middlewares/lvgl/src/extra/layouts/flex/lv_flex.c ****  *      INCLUDES
   8:Middlewares/lvgl/src/extra/layouts/flex/lv_flex.c ****  *********************/
   9:Middlewares/lvgl/src/extra/layouts/flex/lv_flex.c **** #include "../lv_layouts.h"
  10:Middlewares/lvgl/src/extra/layouts/flex/lv_flex.c **** 
  11:Middlewares/lvgl/src/extra/layouts/flex/lv_flex.c **** #if LV_USE_FLEX
  12:Middlewares/lvgl/src/extra/layouts/flex/lv_flex.c **** 
  13:Middlewares/lvgl/src/extra/layouts/flex/lv_flex.c **** /*********************
  14:Middlewares/lvgl/src/extra/layouts/flex/lv_flex.c ****  *      DEFINES
  15:Middlewares/lvgl/src/extra/layouts/flex/lv_flex.c ****  *********************/
  16:Middlewares/lvgl/src/extra/layouts/flex/lv_flex.c **** 
  17:Middlewares/lvgl/src/extra/layouts/flex/lv_flex.c **** /**********************
  18:Middlewares/lvgl/src/extra/layouts/flex/lv_flex.c ****  *      TYPEDEFS
  19:Middlewares/lvgl/src/extra/layouts/flex/lv_flex.c ****  **********************/
  20:Middlewares/lvgl/src/extra/layouts/flex/lv_flex.c **** typedef struct {
  21:Middlewares/lvgl/src/extra/layouts/flex/lv_flex.c ****     lv_flex_align_t main_place;
  22:Middlewares/lvgl/src/extra/layouts/flex/lv_flex.c ****     lv_flex_align_t cross_place;
  23:Middlewares/lvgl/src/extra/layouts/flex/lv_flex.c ****     lv_flex_align_t track_place;
  24:Middlewares/lvgl/src/extra/layouts/flex/lv_flex.c ****     uint8_t row :1;
  25:Middlewares/lvgl/src/extra/layouts/flex/lv_flex.c ****     uint8_t wrap :1;
  26:Middlewares/lvgl/src/extra/layouts/flex/lv_flex.c ****     uint8_t rev :1;
  27:Middlewares/lvgl/src/extra/layouts/flex/lv_flex.c **** }flex_t;
  28:Middlewares/lvgl/src/extra/layouts/flex/lv_flex.c **** 
  29:Middlewares/lvgl/src/extra/layouts/flex/lv_flex.c **** typedef struct {
  30:Middlewares/lvgl/src/extra/layouts/flex/lv_flex.c ****     lv_obj_t * item;
  31:Middlewares/lvgl/src/extra/layouts/flex/lv_flex.c ****     lv_coord_t min_size;
  32:Middlewares/lvgl/src/extra/layouts/flex/lv_flex.c ****     lv_coord_t max_size;
  33:Middlewares/lvgl/src/extra/layouts/flex/lv_flex.c ****     lv_coord_t final_size;
  34:Middlewares/lvgl/src/extra/layouts/flex/lv_flex.c ****     uint32_t grow_value;
  35:Middlewares/lvgl/src/extra/layouts/flex/lv_flex.c ****     uint32_t clamped :1;
  36:Middlewares/lvgl/src/extra/layouts/flex/lv_flex.c **** }grow_dsc_t;
  37:Middlewares/lvgl/src/extra/layouts/flex/lv_flex.c **** 
  38:Middlewares/lvgl/src/extra/layouts/flex/lv_flex.c **** typedef struct {
  39:Middlewares/lvgl/src/extra/layouts/flex/lv_flex.c ****     lv_coord_t track_cross_size;
  40:Middlewares/lvgl/src/extra/layouts/flex/lv_flex.c ****     lv_coord_t track_main_size;         /*For all items*/
  41:Middlewares/lvgl/src/extra/layouts/flex/lv_flex.c ****     lv_coord_t track_fix_main_size;     /*For non grow items*/
  42:Middlewares/lvgl/src/extra/layouts/flex/lv_flex.c ****     uint32_t item_cnt;
  43:Middlewares/lvgl/src/extra/layouts/flex/lv_flex.c ****     grow_dsc_t * grow_dsc;
  44:Middlewares/lvgl/src/extra/layouts/flex/lv_flex.c ****     uint32_t grow_item_cnt;
  45:Middlewares/lvgl/src/extra/layouts/flex/lv_flex.c ****     uint32_t grow_dsc_calc :1;
  46:Middlewares/lvgl/src/extra/layouts/flex/lv_flex.c **** }track_t;
  47:Middlewares/lvgl/src/extra/layouts/flex/lv_flex.c **** 
ARM GAS  /tmp/ccyjKoUS.s 			page 6


  48:Middlewares/lvgl/src/extra/layouts/flex/lv_flex.c **** 
  49:Middlewares/lvgl/src/extra/layouts/flex/lv_flex.c **** /**********************
  50:Middlewares/lvgl/src/extra/layouts/flex/lv_flex.c ****  *  GLOBAL PROTOTYPES
  51:Middlewares/lvgl/src/extra/layouts/flex/lv_flex.c ****  **********************/
  52:Middlewares/lvgl/src/extra/layouts/flex/lv_flex.c **** 
  53:Middlewares/lvgl/src/extra/layouts/flex/lv_flex.c **** /**********************
  54:Middlewares/lvgl/src/extra/layouts/flex/lv_flex.c ****  *  STATIC PROTOTYPES
  55:Middlewares/lvgl/src/extra/layouts/flex/lv_flex.c ****  **********************/
  56:Middlewares/lvgl/src/extra/layouts/flex/lv_flex.c **** static void flex_update(lv_obj_t * cont, void * user_data);
  57:Middlewares/lvgl/src/extra/layouts/flex/lv_flex.c **** static int32_t find_track_end(lv_obj_t * cont, flex_t * f, int32_t item_start_id, lv_coord_t item_g
  58:Middlewares/lvgl/src/extra/layouts/flex/lv_flex.c **** static void children_repos(lv_obj_t * cont, flex_t * f, int32_t item_first_id, int32_t item_last_id
  59:Middlewares/lvgl/src/extra/layouts/flex/lv_flex.c **** static void place_content(lv_flex_align_t place, lv_coord_t max_size, lv_coord_t content_size, lv_c
  60:Middlewares/lvgl/src/extra/layouts/flex/lv_flex.c **** static lv_obj_t * get_next_item(lv_obj_t * cont, bool rev, int32_t * item_id);
  61:Middlewares/lvgl/src/extra/layouts/flex/lv_flex.c **** 
  62:Middlewares/lvgl/src/extra/layouts/flex/lv_flex.c **** /**********************
  63:Middlewares/lvgl/src/extra/layouts/flex/lv_flex.c ****  *  GLOBAL VARIABLES
  64:Middlewares/lvgl/src/extra/layouts/flex/lv_flex.c ****  **********************/
  65:Middlewares/lvgl/src/extra/layouts/flex/lv_flex.c **** uint32_t LV_LAYOUT_FLEX;
  66:Middlewares/lvgl/src/extra/layouts/flex/lv_flex.c **** lv_style_prop_t LV_STYLE_FLEX_FLOW;
  67:Middlewares/lvgl/src/extra/layouts/flex/lv_flex.c **** lv_style_prop_t LV_STYLE_FLEX_MAIN_PLACE;
  68:Middlewares/lvgl/src/extra/layouts/flex/lv_flex.c **** lv_style_prop_t LV_STYLE_FLEX_CROSS_PLACE;
  69:Middlewares/lvgl/src/extra/layouts/flex/lv_flex.c **** lv_style_prop_t LV_STYLE_FLEX_TRACK_PLACE;
  70:Middlewares/lvgl/src/extra/layouts/flex/lv_flex.c **** lv_style_prop_t LV_STYLE_FLEX_GROW;
  71:Middlewares/lvgl/src/extra/layouts/flex/lv_flex.c **** 
  72:Middlewares/lvgl/src/extra/layouts/flex/lv_flex.c **** 
  73:Middlewares/lvgl/src/extra/layouts/flex/lv_flex.c **** /**********************
  74:Middlewares/lvgl/src/extra/layouts/flex/lv_flex.c ****  *  STATIC VARIABLES
  75:Middlewares/lvgl/src/extra/layouts/flex/lv_flex.c ****  **********************/
  76:Middlewares/lvgl/src/extra/layouts/flex/lv_flex.c **** 
  77:Middlewares/lvgl/src/extra/layouts/flex/lv_flex.c **** /**********************
  78:Middlewares/lvgl/src/extra/layouts/flex/lv_flex.c ****  *      MACROS
  79:Middlewares/lvgl/src/extra/layouts/flex/lv_flex.c ****  **********************/
  80:Middlewares/lvgl/src/extra/layouts/flex/lv_flex.c **** 
  81:Middlewares/lvgl/src/extra/layouts/flex/lv_flex.c **** /**********************
  82:Middlewares/lvgl/src/extra/layouts/flex/lv_flex.c ****  *   GLOBAL FUNCTIONS
  83:Middlewares/lvgl/src/extra/layouts/flex/lv_flex.c ****  **********************/
  84:Middlewares/lvgl/src/extra/layouts/flex/lv_flex.c **** 
  85:Middlewares/lvgl/src/extra/layouts/flex/lv_flex.c **** /*=====================
  86:Middlewares/lvgl/src/extra/layouts/flex/lv_flex.c ****  * Setter functions
  87:Middlewares/lvgl/src/extra/layouts/flex/lv_flex.c ****  *====================*/
  88:Middlewares/lvgl/src/extra/layouts/flex/lv_flex.c **** 
  89:Middlewares/lvgl/src/extra/layouts/flex/lv_flex.c **** void lv_flex_init(void)
  90:Middlewares/lvgl/src/extra/layouts/flex/lv_flex.c **** {
  91:Middlewares/lvgl/src/extra/layouts/flex/lv_flex.c ****     LV_LAYOUT_FLEX = lv_layout_register(flex_update, NULL);
  92:Middlewares/lvgl/src/extra/layouts/flex/lv_flex.c **** 
  93:Middlewares/lvgl/src/extra/layouts/flex/lv_flex.c ****     LV_STYLE_FLEX_FLOW = lv_style_register_prop();
  94:Middlewares/lvgl/src/extra/layouts/flex/lv_flex.c ****     LV_STYLE_FLEX_MAIN_PLACE = lv_style_register_prop() | LV_STYLE_PROP_LAYOUT_REFR;
  95:Middlewares/lvgl/src/extra/layouts/flex/lv_flex.c ****     LV_STYLE_FLEX_CROSS_PLACE = lv_style_register_prop() | LV_STYLE_PROP_LAYOUT_REFR;
  96:Middlewares/lvgl/src/extra/layouts/flex/lv_flex.c ****     LV_STYLE_FLEX_TRACK_PLACE = lv_style_register_prop() | LV_STYLE_PROP_LAYOUT_REFR;
  97:Middlewares/lvgl/src/extra/layouts/flex/lv_flex.c **** }
  98:Middlewares/lvgl/src/extra/layouts/flex/lv_flex.c **** 
  99:Middlewares/lvgl/src/extra/layouts/flex/lv_flex.c **** void lv_obj_set_flex_flow(lv_obj_t * obj, lv_flex_flow_t flow)
 100:Middlewares/lvgl/src/extra/layouts/flex/lv_flex.c **** {
 101:Middlewares/lvgl/src/extra/layouts/flex/lv_flex.c ****     lv_obj_set_style_flex_flow(obj, flow, 0);
 102:Middlewares/lvgl/src/extra/layouts/flex/lv_flex.c ****     lv_obj_set_style_layout(obj, LV_LAYOUT_FLEX, 0);
 103:Middlewares/lvgl/src/extra/layouts/flex/lv_flex.c **** }
 104:Middlewares/lvgl/src/extra/layouts/flex/lv_flex.c **** 
ARM GAS  /tmp/ccyjKoUS.s 			page 7


 105:Middlewares/lvgl/src/extra/layouts/flex/lv_flex.c **** void lv_obj_set_flex_align(lv_obj_t * obj, lv_flex_align_t main_place, lv_flex_align_t cross_place,
 106:Middlewares/lvgl/src/extra/layouts/flex/lv_flex.c **** {
 107:Middlewares/lvgl/src/extra/layouts/flex/lv_flex.c ****     lv_obj_set_style_flex_main_place(obj, main_place, 0);
 108:Middlewares/lvgl/src/extra/layouts/flex/lv_flex.c ****     lv_obj_set_style_flex_cross_place(obj, cross_place, 0);
 109:Middlewares/lvgl/src/extra/layouts/flex/lv_flex.c ****     lv_obj_set_style_flex_track_place(obj, track_place, 0);
 110:Middlewares/lvgl/src/extra/layouts/flex/lv_flex.c ****     lv_obj_set_style_layout(obj, LV_LAYOUT_FLEX, 0);
 111:Middlewares/lvgl/src/extra/layouts/flex/lv_flex.c **** }
 112:Middlewares/lvgl/src/extra/layouts/flex/lv_flex.c **** 
 113:Middlewares/lvgl/src/extra/layouts/flex/lv_flex.c **** void lv_obj_set_flex_grow(lv_obj_t * obj, uint8_t grow)
 114:Middlewares/lvgl/src/extra/layouts/flex/lv_flex.c **** {
 115:Middlewares/lvgl/src/extra/layouts/flex/lv_flex.c ****     lv_obj_set_style_flex_grow(obj, grow, 0);
 116:Middlewares/lvgl/src/extra/layouts/flex/lv_flex.c ****     lv_obj_mark_layout_as_dirty(lv_obj_get_parent(obj));
 117:Middlewares/lvgl/src/extra/layouts/flex/lv_flex.c **** }
 118:Middlewares/lvgl/src/extra/layouts/flex/lv_flex.c **** 
 119:Middlewares/lvgl/src/extra/layouts/flex/lv_flex.c **** 
 120:Middlewares/lvgl/src/extra/layouts/flex/lv_flex.c **** void lv_style_set_flex_flow(lv_style_t * style, lv_flex_flow_t value)
 121:Middlewares/lvgl/src/extra/layouts/flex/lv_flex.c **** {
 122:Middlewares/lvgl/src/extra/layouts/flex/lv_flex.c ****     lv_style_value_t v = {
 123:Middlewares/lvgl/src/extra/layouts/flex/lv_flex.c ****         .num = (int32_t)value
 124:Middlewares/lvgl/src/extra/layouts/flex/lv_flex.c ****     };
 125:Middlewares/lvgl/src/extra/layouts/flex/lv_flex.c ****     lv_style_set_prop(style, LV_STYLE_FLEX_FLOW, v);
 126:Middlewares/lvgl/src/extra/layouts/flex/lv_flex.c **** }
 127:Middlewares/lvgl/src/extra/layouts/flex/lv_flex.c **** 
 128:Middlewares/lvgl/src/extra/layouts/flex/lv_flex.c **** void lv_style_set_flex_main_place(lv_style_t * style, lv_flex_align_t value)
 129:Middlewares/lvgl/src/extra/layouts/flex/lv_flex.c **** {
 130:Middlewares/lvgl/src/extra/layouts/flex/lv_flex.c ****     lv_style_value_t v = {
 131:Middlewares/lvgl/src/extra/layouts/flex/lv_flex.c ****         .num = (int32_t)value
 132:Middlewares/lvgl/src/extra/layouts/flex/lv_flex.c ****     };
 133:Middlewares/lvgl/src/extra/layouts/flex/lv_flex.c ****     lv_style_set_prop(style, LV_STYLE_FLEX_MAIN_PLACE, v);
 134:Middlewares/lvgl/src/extra/layouts/flex/lv_flex.c **** }
 135:Middlewares/lvgl/src/extra/layouts/flex/lv_flex.c **** 
 136:Middlewares/lvgl/src/extra/layouts/flex/lv_flex.c **** void lv_style_set_flex_cross_place(lv_style_t * style, lv_flex_align_t value)
 137:Middlewares/lvgl/src/extra/layouts/flex/lv_flex.c **** {
 138:Middlewares/lvgl/src/extra/layouts/flex/lv_flex.c ****     lv_style_value_t v = {
 139:Middlewares/lvgl/src/extra/layouts/flex/lv_flex.c ****         .num = (int32_t)value
 140:Middlewares/lvgl/src/extra/layouts/flex/lv_flex.c ****     };
 141:Middlewares/lvgl/src/extra/layouts/flex/lv_flex.c ****     lv_style_set_prop(style, LV_STYLE_FLEX_CROSS_PLACE, v);
 142:Middlewares/lvgl/src/extra/layouts/flex/lv_flex.c **** }
 143:Middlewares/lvgl/src/extra/layouts/flex/lv_flex.c **** 
 144:Middlewares/lvgl/src/extra/layouts/flex/lv_flex.c **** void lv_style_set_flex_track_place(lv_style_t * style, lv_flex_align_t value)
 145:Middlewares/lvgl/src/extra/layouts/flex/lv_flex.c **** {
 146:Middlewares/lvgl/src/extra/layouts/flex/lv_flex.c ****     lv_style_value_t v = {
 147:Middlewares/lvgl/src/extra/layouts/flex/lv_flex.c ****         .num = (int32_t)value
 148:Middlewares/lvgl/src/extra/layouts/flex/lv_flex.c ****     };
 149:Middlewares/lvgl/src/extra/layouts/flex/lv_flex.c ****     lv_style_set_prop(style, LV_STYLE_FLEX_TRACK_PLACE, v);
 150:Middlewares/lvgl/src/extra/layouts/flex/lv_flex.c **** }
 151:Middlewares/lvgl/src/extra/layouts/flex/lv_flex.c **** 
 152:Middlewares/lvgl/src/extra/layouts/flex/lv_flex.c **** void lv_style_set_flex_grow(lv_style_t * style, uint8_t value)
 153:Middlewares/lvgl/src/extra/layouts/flex/lv_flex.c **** {
 154:Middlewares/lvgl/src/extra/layouts/flex/lv_flex.c ****     lv_style_value_t v = {
 155:Middlewares/lvgl/src/extra/layouts/flex/lv_flex.c ****             .num = (int32_t)value
 156:Middlewares/lvgl/src/extra/layouts/flex/lv_flex.c ****     };
 157:Middlewares/lvgl/src/extra/layouts/flex/lv_flex.c ****     lv_style_set_prop(style, LV_STYLE_FLEX_GROW, v);
 158:Middlewares/lvgl/src/extra/layouts/flex/lv_flex.c **** }
 159:Middlewares/lvgl/src/extra/layouts/flex/lv_flex.c **** 
 160:Middlewares/lvgl/src/extra/layouts/flex/lv_flex.c **** 
 161:Middlewares/lvgl/src/extra/layouts/flex/lv_flex.c **** void lv_obj_set_style_flex_flow(lv_obj_t * obj, lv_flex_flow_t value, lv_style_selector_t selector)
ARM GAS  /tmp/ccyjKoUS.s 			page 8


 162:Middlewares/lvgl/src/extra/layouts/flex/lv_flex.c **** {
 163:Middlewares/lvgl/src/extra/layouts/flex/lv_flex.c ****     lv_style_value_t v = {
 164:Middlewares/lvgl/src/extra/layouts/flex/lv_flex.c ****         .num = (int32_t) value
 165:Middlewares/lvgl/src/extra/layouts/flex/lv_flex.c ****     };
 166:Middlewares/lvgl/src/extra/layouts/flex/lv_flex.c ****     lv_obj_set_local_style_prop(obj, LV_STYLE_FLEX_FLOW, v, selector);
 167:Middlewares/lvgl/src/extra/layouts/flex/lv_flex.c **** }
 168:Middlewares/lvgl/src/extra/layouts/flex/lv_flex.c **** 
 169:Middlewares/lvgl/src/extra/layouts/flex/lv_flex.c **** void lv_obj_set_style_flex_main_place(lv_obj_t * obj, lv_flex_align_t value, lv_style_selector_t se
 170:Middlewares/lvgl/src/extra/layouts/flex/lv_flex.c **** {
 171:Middlewares/lvgl/src/extra/layouts/flex/lv_flex.c ****     lv_style_value_t v = {
 172:Middlewares/lvgl/src/extra/layouts/flex/lv_flex.c ****         .num = (int32_t) value
 173:Middlewares/lvgl/src/extra/layouts/flex/lv_flex.c ****     };
 174:Middlewares/lvgl/src/extra/layouts/flex/lv_flex.c ****     lv_obj_set_local_style_prop(obj, LV_STYLE_FLEX_MAIN_PLACE, v, selector);
 175:Middlewares/lvgl/src/extra/layouts/flex/lv_flex.c **** }
 176:Middlewares/lvgl/src/extra/layouts/flex/lv_flex.c **** 
 177:Middlewares/lvgl/src/extra/layouts/flex/lv_flex.c **** void lv_obj_set_style_flex_cross_place(lv_obj_t * obj, lv_flex_align_t value, lv_style_selector_t s
 178:Middlewares/lvgl/src/extra/layouts/flex/lv_flex.c **** {
 179:Middlewares/lvgl/src/extra/layouts/flex/lv_flex.c ****     lv_style_value_t v = {
 180:Middlewares/lvgl/src/extra/layouts/flex/lv_flex.c ****         .num = (int32_t) value
 181:Middlewares/lvgl/src/extra/layouts/flex/lv_flex.c ****     };
 182:Middlewares/lvgl/src/extra/layouts/flex/lv_flex.c ****     lv_obj_set_local_style_prop(obj, LV_STYLE_FLEX_CROSS_PLACE, v, selector);
 183:Middlewares/lvgl/src/extra/layouts/flex/lv_flex.c **** }
 184:Middlewares/lvgl/src/extra/layouts/flex/lv_flex.c **** 
 185:Middlewares/lvgl/src/extra/layouts/flex/lv_flex.c **** void lv_obj_set_style_flex_track_place(lv_obj_t * obj, lv_flex_align_t value, lv_style_selector_t s
 186:Middlewares/lvgl/src/extra/layouts/flex/lv_flex.c **** {
 187:Middlewares/lvgl/src/extra/layouts/flex/lv_flex.c ****     lv_style_value_t v = {
 188:Middlewares/lvgl/src/extra/layouts/flex/lv_flex.c ****         .num = (int32_t) value
 189:Middlewares/lvgl/src/extra/layouts/flex/lv_flex.c ****     };
 190:Middlewares/lvgl/src/extra/layouts/flex/lv_flex.c ****     lv_obj_set_local_style_prop(obj, LV_STYLE_FLEX_TRACK_PLACE, v, selector);
 191:Middlewares/lvgl/src/extra/layouts/flex/lv_flex.c **** }
 192:Middlewares/lvgl/src/extra/layouts/flex/lv_flex.c **** 
 193:Middlewares/lvgl/src/extra/layouts/flex/lv_flex.c **** void lv_obj_set_style_flex_grow(lv_obj_t * obj, uint8_t value, lv_style_selector_t selector)
 194:Middlewares/lvgl/src/extra/layouts/flex/lv_flex.c **** {
 195:Middlewares/lvgl/src/extra/layouts/flex/lv_flex.c ****     lv_style_value_t v = {
 196:Middlewares/lvgl/src/extra/layouts/flex/lv_flex.c ****         .num = (int32_t) value
 197:Middlewares/lvgl/src/extra/layouts/flex/lv_flex.c ****     };
 198:Middlewares/lvgl/src/extra/layouts/flex/lv_flex.c ****     lv_obj_set_local_style_prop(obj, LV_STYLE_FLEX_GROW, v, selector);
 199:Middlewares/lvgl/src/extra/layouts/flex/lv_flex.c **** }
 200:Middlewares/lvgl/src/extra/layouts/flex/lv_flex.c **** 
 201:Middlewares/lvgl/src/extra/layouts/flex/lv_flex.c **** /**********************
 202:Middlewares/lvgl/src/extra/layouts/flex/lv_flex.c ****  *   STATIC FUNCTIONS
 203:Middlewares/lvgl/src/extra/layouts/flex/lv_flex.c ****  **********************/
 204:Middlewares/lvgl/src/extra/layouts/flex/lv_flex.c **** 
 205:Middlewares/lvgl/src/extra/layouts/flex/lv_flex.c **** static void flex_update(lv_obj_t * cont, void * user_data)
 206:Middlewares/lvgl/src/extra/layouts/flex/lv_flex.c **** {
 207:Middlewares/lvgl/src/extra/layouts/flex/lv_flex.c ****     LV_LOG_INFO("update %p container", cont);
 208:Middlewares/lvgl/src/extra/layouts/flex/lv_flex.c ****     LV_UNUSED(user_data);
 209:Middlewares/lvgl/src/extra/layouts/flex/lv_flex.c **** 
 210:Middlewares/lvgl/src/extra/layouts/flex/lv_flex.c ****     flex_t f;
 211:Middlewares/lvgl/src/extra/layouts/flex/lv_flex.c ****     lv_flex_flow_t flow = lv_obj_get_style_flex_flow(cont, LV_PART_MAIN);
 212:Middlewares/lvgl/src/extra/layouts/flex/lv_flex.c ****     f.row = flow & _LV_FLEX_COLUMN ? 0 : 1;
 213:Middlewares/lvgl/src/extra/layouts/flex/lv_flex.c ****     f.wrap = flow & _LV_FLEX_WRAP ? 1 : 0;
 214:Middlewares/lvgl/src/extra/layouts/flex/lv_flex.c ****     f.rev = flow & _LV_FLEX_REVERSE ? 1 : 0;
 215:Middlewares/lvgl/src/extra/layouts/flex/lv_flex.c ****     f.main_place = lv_obj_get_style_flex_main_place(cont, LV_PART_MAIN);
 216:Middlewares/lvgl/src/extra/layouts/flex/lv_flex.c ****     f.cross_place = lv_obj_get_style_flex_cross_place(cont, LV_PART_MAIN);
 217:Middlewares/lvgl/src/extra/layouts/flex/lv_flex.c ****     f.track_place = lv_obj_get_style_flex_track_place(cont, LV_PART_MAIN);
 218:Middlewares/lvgl/src/extra/layouts/flex/lv_flex.c **** 
ARM GAS  /tmp/ccyjKoUS.s 			page 9


 219:Middlewares/lvgl/src/extra/layouts/flex/lv_flex.c ****     bool rtl = lv_obj_get_style_base_dir(cont, LV_PART_MAIN) == LV_BASE_DIR_RTL ? true : false;
 220:Middlewares/lvgl/src/extra/layouts/flex/lv_flex.c ****     lv_coord_t track_gap = !f.row ? lv_obj_get_style_pad_column(cont, LV_PART_MAIN) : lv_obj_get_st
 221:Middlewares/lvgl/src/extra/layouts/flex/lv_flex.c ****     lv_coord_t item_gap = f.row ? lv_obj_get_style_pad_column(cont, LV_PART_MAIN) : lv_obj_get_styl
 222:Middlewares/lvgl/src/extra/layouts/flex/lv_flex.c ****     lv_coord_t max_main_size = (f.row ? lv_obj_get_content_width(cont) : lv_obj_get_content_height(
 223:Middlewares/lvgl/src/extra/layouts/flex/lv_flex.c ****     lv_coord_t border_widt = lv_obj_get_style_border_width(cont, LV_PART_MAIN);
 224:Middlewares/lvgl/src/extra/layouts/flex/lv_flex.c ****     lv_coord_t abs_y = cont->coords.y1 + lv_obj_get_style_pad_top(cont, LV_PART_MAIN) + border_widt
 225:Middlewares/lvgl/src/extra/layouts/flex/lv_flex.c ****     lv_coord_t abs_x = cont->coords.x1 + lv_obj_get_style_pad_left(cont, LV_PART_MAIN) + border_wid
 226:Middlewares/lvgl/src/extra/layouts/flex/lv_flex.c **** 
 227:Middlewares/lvgl/src/extra/layouts/flex/lv_flex.c ****     lv_flex_align_t track_cross_place = f.track_place;
 228:Middlewares/lvgl/src/extra/layouts/flex/lv_flex.c ****     lv_coord_t * cross_pos = (f.row ? &abs_y : &abs_x);
 229:Middlewares/lvgl/src/extra/layouts/flex/lv_flex.c **** 
 230:Middlewares/lvgl/src/extra/layouts/flex/lv_flex.c ****     lv_coord_t w_set = lv_obj_get_style_width(cont, LV_PART_MAIN);
 231:Middlewares/lvgl/src/extra/layouts/flex/lv_flex.c ****     lv_coord_t h_set = lv_obj_get_style_height(cont, LV_PART_MAIN);
 232:Middlewares/lvgl/src/extra/layouts/flex/lv_flex.c **** 
 233:Middlewares/lvgl/src/extra/layouts/flex/lv_flex.c ****     /*Content sized objects should squeezed the gap between the children, therefore any alignment w
 234:Middlewares/lvgl/src/extra/layouts/flex/lv_flex.c ****     if((f.row && h_set == LV_SIZE_CONTENT && cont->h_layout == 0) ||
 235:Middlewares/lvgl/src/extra/layouts/flex/lv_flex.c ****     	(!f.row && w_set == LV_SIZE_CONTENT && cont->w_layout == 0))
 236:Middlewares/lvgl/src/extra/layouts/flex/lv_flex.c ****     {
 237:Middlewares/lvgl/src/extra/layouts/flex/lv_flex.c ****         track_cross_place = LV_FLEX_ALIGN_START;
 238:Middlewares/lvgl/src/extra/layouts/flex/lv_flex.c ****     }
 239:Middlewares/lvgl/src/extra/layouts/flex/lv_flex.c **** 
 240:Middlewares/lvgl/src/extra/layouts/flex/lv_flex.c ****     if(rtl && !f.row) {
 241:Middlewares/lvgl/src/extra/layouts/flex/lv_flex.c ****         if(track_cross_place == LV_FLEX_ALIGN_START) track_cross_place = LV_FLEX_ALIGN_END;
 242:Middlewares/lvgl/src/extra/layouts/flex/lv_flex.c ****         else if(track_cross_place == LV_FLEX_ALIGN_END) track_cross_place = LV_FLEX_ALIGN_START;
 243:Middlewares/lvgl/src/extra/layouts/flex/lv_flex.c ****     }
 244:Middlewares/lvgl/src/extra/layouts/flex/lv_flex.c **** 
 245:Middlewares/lvgl/src/extra/layouts/flex/lv_flex.c ****     lv_coord_t total_track_cross_size = 0;
 246:Middlewares/lvgl/src/extra/layouts/flex/lv_flex.c ****     lv_coord_t gap = 0;
 247:Middlewares/lvgl/src/extra/layouts/flex/lv_flex.c ****     uint32_t track_cnt = 0;
 248:Middlewares/lvgl/src/extra/layouts/flex/lv_flex.c ****     int32_t track_first_item;
 249:Middlewares/lvgl/src/extra/layouts/flex/lv_flex.c ****     int32_t next_track_first_item;
 250:Middlewares/lvgl/src/extra/layouts/flex/lv_flex.c **** 
 251:Middlewares/lvgl/src/extra/layouts/flex/lv_flex.c ****     if(track_cross_place != LV_FLEX_ALIGN_START) {
 252:Middlewares/lvgl/src/extra/layouts/flex/lv_flex.c ****         track_first_item = f.rev ? cont->spec_attr->child_cnt - 1 : 0;
 253:Middlewares/lvgl/src/extra/layouts/flex/lv_flex.c ****         track_t t;
 254:Middlewares/lvgl/src/extra/layouts/flex/lv_flex.c ****         while(track_first_item < (int32_t)cont->spec_attr->child_cnt && track_first_item >= 0) {
 255:Middlewares/lvgl/src/extra/layouts/flex/lv_flex.c ****             /*Search the first item of the next row*/
 256:Middlewares/lvgl/src/extra/layouts/flex/lv_flex.c ****             t.grow_dsc_calc = 0;
 257:Middlewares/lvgl/src/extra/layouts/flex/lv_flex.c ****             next_track_first_item = find_track_end(cont, &f, track_first_item, max_main_size, item_
 258:Middlewares/lvgl/src/extra/layouts/flex/lv_flex.c ****             total_track_cross_size += t.track_cross_size + track_gap;
 259:Middlewares/lvgl/src/extra/layouts/flex/lv_flex.c ****             track_cnt++;
 260:Middlewares/lvgl/src/extra/layouts/flex/lv_flex.c ****             track_first_item = next_track_first_item;
 261:Middlewares/lvgl/src/extra/layouts/flex/lv_flex.c ****         }
 262:Middlewares/lvgl/src/extra/layouts/flex/lv_flex.c **** 
 263:Middlewares/lvgl/src/extra/layouts/flex/lv_flex.c ****         if(track_cnt) total_track_cross_size -= track_gap;   /*No gap after the last track*/
 264:Middlewares/lvgl/src/extra/layouts/flex/lv_flex.c **** 
 265:Middlewares/lvgl/src/extra/layouts/flex/lv_flex.c ****         /*Place the tracks to get the start position*/
 266:Middlewares/lvgl/src/extra/layouts/flex/lv_flex.c ****         lv_coord_t max_cross_size = (f.row ? lv_obj_get_content_height(cont) : lv_obj_get_content_w
 267:Middlewares/lvgl/src/extra/layouts/flex/lv_flex.c ****         place_content(track_cross_place, max_cross_size, total_track_cross_size, track_cnt, cross_p
 268:Middlewares/lvgl/src/extra/layouts/flex/lv_flex.c ****     }
 269:Middlewares/lvgl/src/extra/layouts/flex/lv_flex.c **** 
 270:Middlewares/lvgl/src/extra/layouts/flex/lv_flex.c ****     track_first_item =  f.rev ? cont->spec_attr->child_cnt - 1 : 0;
 271:Middlewares/lvgl/src/extra/layouts/flex/lv_flex.c **** 
 272:Middlewares/lvgl/src/extra/layouts/flex/lv_flex.c ****     if(rtl && !f.row) {
 273:Middlewares/lvgl/src/extra/layouts/flex/lv_flex.c ****          *cross_pos += total_track_cross_size;
 274:Middlewares/lvgl/src/extra/layouts/flex/lv_flex.c ****     }
 275:Middlewares/lvgl/src/extra/layouts/flex/lv_flex.c **** 
ARM GAS  /tmp/ccyjKoUS.s 			page 10


 276:Middlewares/lvgl/src/extra/layouts/flex/lv_flex.c ****     while(track_first_item < (int32_t)cont->spec_attr->child_cnt && track_first_item >= 0) {
 277:Middlewares/lvgl/src/extra/layouts/flex/lv_flex.c ****         track_t t;
 278:Middlewares/lvgl/src/extra/layouts/flex/lv_flex.c ****         t.grow_dsc_calc = 1;
 279:Middlewares/lvgl/src/extra/layouts/flex/lv_flex.c ****         /*Search the first item of the next row*/
 280:Middlewares/lvgl/src/extra/layouts/flex/lv_flex.c ****         next_track_first_item = find_track_end(cont, &f, track_first_item, max_main_size, item_gap,
 281:Middlewares/lvgl/src/extra/layouts/flex/lv_flex.c **** 
 282:Middlewares/lvgl/src/extra/layouts/flex/lv_flex.c ****         if(rtl && !f.row) {
 283:Middlewares/lvgl/src/extra/layouts/flex/lv_flex.c ****             *cross_pos -= t.track_cross_size;
 284:Middlewares/lvgl/src/extra/layouts/flex/lv_flex.c ****         }
 285:Middlewares/lvgl/src/extra/layouts/flex/lv_flex.c ****         children_repos(cont, &f, track_first_item, next_track_first_item, abs_x, abs_y, max_main_si
 286:Middlewares/lvgl/src/extra/layouts/flex/lv_flex.c ****         track_first_item = next_track_first_item;
 287:Middlewares/lvgl/src/extra/layouts/flex/lv_flex.c ****         lv_mem_buf_release(t.grow_dsc);
 288:Middlewares/lvgl/src/extra/layouts/flex/lv_flex.c ****         t.grow_dsc = NULL;
 289:Middlewares/lvgl/src/extra/layouts/flex/lv_flex.c ****         if(rtl && !f.row) {
 290:Middlewares/lvgl/src/extra/layouts/flex/lv_flex.c ****             *cross_pos -= gap + track_gap;
 291:Middlewares/lvgl/src/extra/layouts/flex/lv_flex.c ****         } else {
 292:Middlewares/lvgl/src/extra/layouts/flex/lv_flex.c ****             *cross_pos += t.track_cross_size + gap + track_gap;
 293:Middlewares/lvgl/src/extra/layouts/flex/lv_flex.c ****         }
 294:Middlewares/lvgl/src/extra/layouts/flex/lv_flex.c ****     }
 295:Middlewares/lvgl/src/extra/layouts/flex/lv_flex.c ****     LV_ASSERT_MEM_INTEGRITY();
 296:Middlewares/lvgl/src/extra/layouts/flex/lv_flex.c **** 
 297:Middlewares/lvgl/src/extra/layouts/flex/lv_flex.c ****     if(w_set == LV_SIZE_CONTENT || h_set == LV_SIZE_CONTENT) {
 298:Middlewares/lvgl/src/extra/layouts/flex/lv_flex.c ****         lv_obj_refr_size(cont);
 299:Middlewares/lvgl/src/extra/layouts/flex/lv_flex.c ****     }
 300:Middlewares/lvgl/src/extra/layouts/flex/lv_flex.c **** 
 301:Middlewares/lvgl/src/extra/layouts/flex/lv_flex.c ****     lv_event_send(cont, LV_EVENT_LAYOUT_CHANGED, NULL);
 302:Middlewares/lvgl/src/extra/layouts/flex/lv_flex.c **** 
 303:Middlewares/lvgl/src/extra/layouts/flex/lv_flex.c ****     LV_TRACE_LAYOUT("finished");
 304:Middlewares/lvgl/src/extra/layouts/flex/lv_flex.c **** }
 305:Middlewares/lvgl/src/extra/layouts/flex/lv_flex.c **** 
 306:Middlewares/lvgl/src/extra/layouts/flex/lv_flex.c **** /**
 307:Middlewares/lvgl/src/extra/layouts/flex/lv_flex.c ****  * Find the last item of a track
 308:Middlewares/lvgl/src/extra/layouts/flex/lv_flex.c ****  */
 309:Middlewares/lvgl/src/extra/layouts/flex/lv_flex.c **** static int32_t find_track_end(lv_obj_t * cont, flex_t * f, int32_t item_start_id, lv_coord_t max_ma
 310:Middlewares/lvgl/src/extra/layouts/flex/lv_flex.c **** {
 311:Middlewares/lvgl/src/extra/layouts/flex/lv_flex.c ****     lv_coord_t w_set = lv_obj_get_style_width(cont, LV_PART_MAIN);
 312:Middlewares/lvgl/src/extra/layouts/flex/lv_flex.c ****     lv_coord_t h_set = lv_obj_get_style_height(cont, LV_PART_MAIN);
 313:Middlewares/lvgl/src/extra/layouts/flex/lv_flex.c **** 
 314:Middlewares/lvgl/src/extra/layouts/flex/lv_flex.c ****     /*Can't wrap if the size if auto (i.e. the size depends on the children)*/
 315:Middlewares/lvgl/src/extra/layouts/flex/lv_flex.c ****     if(f->wrap && ((f->row && w_set == LV_SIZE_CONTENT) || (!f->row && h_set == LV_SIZE_CONTENT))) 
 316:Middlewares/lvgl/src/extra/layouts/flex/lv_flex.c ****         f->wrap = false;
 317:Middlewares/lvgl/src/extra/layouts/flex/lv_flex.c ****     }
 318:Middlewares/lvgl/src/extra/layouts/flex/lv_flex.c ****     lv_coord_t(*get_main_size)(const lv_obj_t *) = (f->row ? lv_obj_get_width : lv_obj_get_height);
 319:Middlewares/lvgl/src/extra/layouts/flex/lv_flex.c ****     lv_coord_t(*get_cross_size)(const lv_obj_t *) = (!f->row ? lv_obj_get_width : lv_obj_get_height
 320:Middlewares/lvgl/src/extra/layouts/flex/lv_flex.c **** 
 321:Middlewares/lvgl/src/extra/layouts/flex/lv_flex.c ****     lv_coord_t grow_sum = 0;
 322:Middlewares/lvgl/src/extra/layouts/flex/lv_flex.c ****     t->track_main_size = 0;
 323:Middlewares/lvgl/src/extra/layouts/flex/lv_flex.c ****     t->track_fix_main_size = 0;
 324:Middlewares/lvgl/src/extra/layouts/flex/lv_flex.c ****     t->grow_item_cnt = 0;
 325:Middlewares/lvgl/src/extra/layouts/flex/lv_flex.c ****     t->track_cross_size = 0;
 326:Middlewares/lvgl/src/extra/layouts/flex/lv_flex.c ****     t->item_cnt = 0;
 327:Middlewares/lvgl/src/extra/layouts/flex/lv_flex.c ****     t->grow_dsc = NULL;
 328:Middlewares/lvgl/src/extra/layouts/flex/lv_flex.c **** 
 329:Middlewares/lvgl/src/extra/layouts/flex/lv_flex.c ****     int32_t item_id = item_start_id;
 330:Middlewares/lvgl/src/extra/layouts/flex/lv_flex.c **** 
 331:Middlewares/lvgl/src/extra/layouts/flex/lv_flex.c ****     lv_obj_t * item = lv_obj_get_child(cont, item_id);
 332:Middlewares/lvgl/src/extra/layouts/flex/lv_flex.c ****     while(item) {
ARM GAS  /tmp/ccyjKoUS.s 			page 11


 333:Middlewares/lvgl/src/extra/layouts/flex/lv_flex.c ****         if(item_id != item_start_id && lv_obj_has_flag(item, LV_OBJ_FLAG_FLEX_IN_NEW_TRACK)) break;
 334:Middlewares/lvgl/src/extra/layouts/flex/lv_flex.c **** 
 335:Middlewares/lvgl/src/extra/layouts/flex/lv_flex.c ****         if(!lv_obj_has_flag_any(item, LV_OBJ_FLAG_IGNORE_LAYOUT | LV_OBJ_FLAG_HIDDEN | LV_OBJ_FLAG_
 336:Middlewares/lvgl/src/extra/layouts/flex/lv_flex.c ****             uint8_t grow_value = lv_obj_get_style_flex_grow(item, LV_PART_MAIN);
 337:Middlewares/lvgl/src/extra/layouts/flex/lv_flex.c ****             if(grow_value) {
 338:Middlewares/lvgl/src/extra/layouts/flex/lv_flex.c ****                 grow_sum += grow_value;
 339:Middlewares/lvgl/src/extra/layouts/flex/lv_flex.c ****                 t->grow_item_cnt++;
 340:Middlewares/lvgl/src/extra/layouts/flex/lv_flex.c ****                 t->track_fix_main_size += item_gap;
 341:Middlewares/lvgl/src/extra/layouts/flex/lv_flex.c ****                 if(t->grow_dsc_calc) {
 342:Middlewares/lvgl/src/extra/layouts/flex/lv_flex.c ****                     grow_dsc_t * new_dsc = lv_mem_buf_get(sizeof(grow_dsc_t) * (t->grow_item_cnt));
 343:Middlewares/lvgl/src/extra/layouts/flex/lv_flex.c ****                     LV_ASSERT_MALLOC(new_dsc);
 344:Middlewares/lvgl/src/extra/layouts/flex/lv_flex.c ****                     if(new_dsc == NULL) return item_id;
 345:Middlewares/lvgl/src/extra/layouts/flex/lv_flex.c **** 
 346:Middlewares/lvgl/src/extra/layouts/flex/lv_flex.c ****                     if(t->grow_dsc) {
 347:Middlewares/lvgl/src/extra/layouts/flex/lv_flex.c ****                         lv_memcpy(new_dsc, t->grow_dsc, sizeof(grow_dsc_t) * (t->grow_item_cnt - 1)
 348:Middlewares/lvgl/src/extra/layouts/flex/lv_flex.c ****                         lv_mem_buf_release(t->grow_dsc);
 349:Middlewares/lvgl/src/extra/layouts/flex/lv_flex.c ****                     }
 350:Middlewares/lvgl/src/extra/layouts/flex/lv_flex.c ****                     new_dsc[t->grow_item_cnt - 1].item = item;
 351:Middlewares/lvgl/src/extra/layouts/flex/lv_flex.c ****                     new_dsc[t->grow_item_cnt - 1].min_size = f->row ? lv_obj_get_style_min_width(it
 352:Middlewares/lvgl/src/extra/layouts/flex/lv_flex.c ****                     new_dsc[t->grow_item_cnt - 1].max_size = f->row ? lv_obj_get_style_max_width(it
 353:Middlewares/lvgl/src/extra/layouts/flex/lv_flex.c ****                     new_dsc[t->grow_item_cnt - 1].grow_value = grow_value;
 354:Middlewares/lvgl/src/extra/layouts/flex/lv_flex.c ****                     new_dsc[t->grow_item_cnt - 1].clamped = 0;
 355:Middlewares/lvgl/src/extra/layouts/flex/lv_flex.c ****                     t->grow_dsc = new_dsc;
 356:Middlewares/lvgl/src/extra/layouts/flex/lv_flex.c ****                 }
 357:Middlewares/lvgl/src/extra/layouts/flex/lv_flex.c ****             } else {
 358:Middlewares/lvgl/src/extra/layouts/flex/lv_flex.c ****                 lv_coord_t item_size = get_main_size(item);
 359:Middlewares/lvgl/src/extra/layouts/flex/lv_flex.c ****                 if(f->wrap && t->track_fix_main_size + item_size > max_main_size) break;
 360:Middlewares/lvgl/src/extra/layouts/flex/lv_flex.c ****                 t->track_fix_main_size += item_size + item_gap;
 361:Middlewares/lvgl/src/extra/layouts/flex/lv_flex.c ****             }
 362:Middlewares/lvgl/src/extra/layouts/flex/lv_flex.c **** 
 363:Middlewares/lvgl/src/extra/layouts/flex/lv_flex.c **** 
 364:Middlewares/lvgl/src/extra/layouts/flex/lv_flex.c ****             t->track_cross_size = LV_MAX(get_cross_size(item), t->track_cross_size);
 365:Middlewares/lvgl/src/extra/layouts/flex/lv_flex.c ****             t->item_cnt++;
 366:Middlewares/lvgl/src/extra/layouts/flex/lv_flex.c ****         }
 367:Middlewares/lvgl/src/extra/layouts/flex/lv_flex.c **** 
 368:Middlewares/lvgl/src/extra/layouts/flex/lv_flex.c ****         item_id += f->rev ? -1 : +1;
 369:Middlewares/lvgl/src/extra/layouts/flex/lv_flex.c ****         if(item_id < 0) break;
 370:Middlewares/lvgl/src/extra/layouts/flex/lv_flex.c ****         item = lv_obj_get_child(cont, item_id);
 371:Middlewares/lvgl/src/extra/layouts/flex/lv_flex.c ****     }
 372:Middlewares/lvgl/src/extra/layouts/flex/lv_flex.c **** 
 373:Middlewares/lvgl/src/extra/layouts/flex/lv_flex.c ****     if(t->track_fix_main_size > 0) t->track_fix_main_size -= item_gap; /*There is no gap after the 
 374:Middlewares/lvgl/src/extra/layouts/flex/lv_flex.c **** 
 375:Middlewares/lvgl/src/extra/layouts/flex/lv_flex.c ****     /*If there is at least one "grow item" the track takes the full space*/
 376:Middlewares/lvgl/src/extra/layouts/flex/lv_flex.c ****     t->track_main_size = t->grow_item_cnt ? max_main_size : t->track_fix_main_size;
 377:Middlewares/lvgl/src/extra/layouts/flex/lv_flex.c **** 
 378:Middlewares/lvgl/src/extra/layouts/flex/lv_flex.c ****     /*Have at least one item in a row*/
 379:Middlewares/lvgl/src/extra/layouts/flex/lv_flex.c ****     if(item && item_id == item_start_id) {
 380:Middlewares/lvgl/src/extra/layouts/flex/lv_flex.c ****         item = cont->spec_attr->children[item_id];
 381:Middlewares/lvgl/src/extra/layouts/flex/lv_flex.c ****         get_next_item(cont, f->rev, &item_id);
 382:Middlewares/lvgl/src/extra/layouts/flex/lv_flex.c ****         if(item) {
 383:Middlewares/lvgl/src/extra/layouts/flex/lv_flex.c ****             t->track_cross_size = get_cross_size(item);
 384:Middlewares/lvgl/src/extra/layouts/flex/lv_flex.c ****             t->track_main_size = get_main_size(item);
 385:Middlewares/lvgl/src/extra/layouts/flex/lv_flex.c ****             t->item_cnt = 1;
 386:Middlewares/lvgl/src/extra/layouts/flex/lv_flex.c ****         }
 387:Middlewares/lvgl/src/extra/layouts/flex/lv_flex.c ****     }
 388:Middlewares/lvgl/src/extra/layouts/flex/lv_flex.c **** 
 389:Middlewares/lvgl/src/extra/layouts/flex/lv_flex.c ****     return item_id;
ARM GAS  /tmp/ccyjKoUS.s 			page 12


 390:Middlewares/lvgl/src/extra/layouts/flex/lv_flex.c **** }
 391:Middlewares/lvgl/src/extra/layouts/flex/lv_flex.c **** 
 392:Middlewares/lvgl/src/extra/layouts/flex/lv_flex.c **** /**
 393:Middlewares/lvgl/src/extra/layouts/flex/lv_flex.c ****  * Position the children in the same track
 394:Middlewares/lvgl/src/extra/layouts/flex/lv_flex.c ****  */
 395:Middlewares/lvgl/src/extra/layouts/flex/lv_flex.c **** static void children_repos(lv_obj_t * cont, flex_t * f, int32_t item_first_id, int32_t item_last_id
 396:Middlewares/lvgl/src/extra/layouts/flex/lv_flex.c **** {
 397:Middlewares/lvgl/src/extra/layouts/flex/lv_flex.c ****     void (*area_set_main_size)(lv_area_t *, lv_coord_t) = (f->row ? lv_area_set_width : lv_area_set
 398:Middlewares/lvgl/src/extra/layouts/flex/lv_flex.c ****     lv_coord_t (*area_get_main_size)(const lv_area_t *) = (f->row ? lv_area_get_width : lv_area_get
 399:Middlewares/lvgl/src/extra/layouts/flex/lv_flex.c ****     lv_coord_t (*area_get_cross_size)(const lv_area_t *) = (!f->row ? lv_area_get_width : lv_area_g
 400:Middlewares/lvgl/src/extra/layouts/flex/lv_flex.c **** 
 401:Middlewares/lvgl/src/extra/layouts/flex/lv_flex.c ****     /*Calculate the size of grow items first*/
 402:Middlewares/lvgl/src/extra/layouts/flex/lv_flex.c ****     uint32_t i;
 403:Middlewares/lvgl/src/extra/layouts/flex/lv_flex.c ****     bool grow_reiterate  = true;
 404:Middlewares/lvgl/src/extra/layouts/flex/lv_flex.c ****     while(grow_reiterate) {
 405:Middlewares/lvgl/src/extra/layouts/flex/lv_flex.c ****         grow_reiterate = false;
 406:Middlewares/lvgl/src/extra/layouts/flex/lv_flex.c ****         lv_coord_t grow_value_sum = 0;
 407:Middlewares/lvgl/src/extra/layouts/flex/lv_flex.c ****         lv_coord_t grow_max_size = t->track_main_size - t->track_fix_main_size;
 408:Middlewares/lvgl/src/extra/layouts/flex/lv_flex.c ****         for(i = 0; i < t->grow_item_cnt; i++) {
 409:Middlewares/lvgl/src/extra/layouts/flex/lv_flex.c ****             if(t->grow_dsc[i].clamped == 0) {
 410:Middlewares/lvgl/src/extra/layouts/flex/lv_flex.c ****                 grow_value_sum += t->grow_dsc[i].grow_value;
 411:Middlewares/lvgl/src/extra/layouts/flex/lv_flex.c ****             } else {
 412:Middlewares/lvgl/src/extra/layouts/flex/lv_flex.c ****                 grow_max_size -= t->grow_dsc[i].final_size;
 413:Middlewares/lvgl/src/extra/layouts/flex/lv_flex.c ****             }
 414:Middlewares/lvgl/src/extra/layouts/flex/lv_flex.c ****         }
 415:Middlewares/lvgl/src/extra/layouts/flex/lv_flex.c ****         lv_coord_t grow_unit;
 416:Middlewares/lvgl/src/extra/layouts/flex/lv_flex.c **** 
 417:Middlewares/lvgl/src/extra/layouts/flex/lv_flex.c ****         for(i = 0; i < t->grow_item_cnt; i++) {
 418:Middlewares/lvgl/src/extra/layouts/flex/lv_flex.c ****             if(t->grow_dsc[i].clamped == 0) {
 419:Middlewares/lvgl/src/extra/layouts/flex/lv_flex.c ****                 grow_unit = grow_max_size / grow_value_sum;
 420:Middlewares/lvgl/src/extra/layouts/flex/lv_flex.c ****                 lv_coord_t size = grow_unit * t->grow_dsc[i].grow_value;
 421:Middlewares/lvgl/src/extra/layouts/flex/lv_flex.c ****                 lv_coord_t size_clamp = LV_CLAMP(t->grow_dsc[i].min_size, size, t->grow_dsc[i].max_
 422:Middlewares/lvgl/src/extra/layouts/flex/lv_flex.c **** 
 423:Middlewares/lvgl/src/extra/layouts/flex/lv_flex.c ****                 if(size_clamp != size) {
 424:Middlewares/lvgl/src/extra/layouts/flex/lv_flex.c ****                     t->grow_dsc[i].clamped = 1;
 425:Middlewares/lvgl/src/extra/layouts/flex/lv_flex.c ****                     grow_reiterate = true;
 426:Middlewares/lvgl/src/extra/layouts/flex/lv_flex.c ****                 }
 427:Middlewares/lvgl/src/extra/layouts/flex/lv_flex.c ****                 t->grow_dsc[i].final_size = size_clamp;
 428:Middlewares/lvgl/src/extra/layouts/flex/lv_flex.c ****                 grow_value_sum -= t->grow_dsc[i].grow_value;
 429:Middlewares/lvgl/src/extra/layouts/flex/lv_flex.c ****                 grow_max_size  -= t->grow_dsc[i].final_size;
 430:Middlewares/lvgl/src/extra/layouts/flex/lv_flex.c ****             }
 431:Middlewares/lvgl/src/extra/layouts/flex/lv_flex.c ****         }
 432:Middlewares/lvgl/src/extra/layouts/flex/lv_flex.c ****     }
 433:Middlewares/lvgl/src/extra/layouts/flex/lv_flex.c **** 
 434:Middlewares/lvgl/src/extra/layouts/flex/lv_flex.c **** 
 435:Middlewares/lvgl/src/extra/layouts/flex/lv_flex.c ****     bool rtl = lv_obj_get_style_base_dir(cont, LV_PART_MAIN) == LV_BASE_DIR_RTL ? true : false;
 436:Middlewares/lvgl/src/extra/layouts/flex/lv_flex.c **** 
 437:Middlewares/lvgl/src/extra/layouts/flex/lv_flex.c ****     lv_coord_t main_pos = 0;
 438:Middlewares/lvgl/src/extra/layouts/flex/lv_flex.c **** 
 439:Middlewares/lvgl/src/extra/layouts/flex/lv_flex.c ****     lv_coord_t place_gap = 0;
 440:Middlewares/lvgl/src/extra/layouts/flex/lv_flex.c ****     place_content(f->main_place, max_main_size, t->track_main_size, t->item_cnt, &main_pos, &place_
 441:Middlewares/lvgl/src/extra/layouts/flex/lv_flex.c ****     if(f->row && rtl) main_pos += lv_obj_get_content_width(cont);
 442:Middlewares/lvgl/src/extra/layouts/flex/lv_flex.c **** 
 443:Middlewares/lvgl/src/extra/layouts/flex/lv_flex.c ****     lv_obj_t * item = lv_obj_get_child(cont, item_first_id);
 444:Middlewares/lvgl/src/extra/layouts/flex/lv_flex.c ****     /*Reposition the children*/
 445:Middlewares/lvgl/src/extra/layouts/flex/lv_flex.c ****     while(item && item_first_id != item_last_id) {
 446:Middlewares/lvgl/src/extra/layouts/flex/lv_flex.c ****         if(lv_obj_has_flag_any(item, LV_OBJ_FLAG_IGNORE_LAYOUT | LV_OBJ_FLAG_HIDDEN | LV_OBJ_FLAG_F
ARM GAS  /tmp/ccyjKoUS.s 			page 13


 447:Middlewares/lvgl/src/extra/layouts/flex/lv_flex.c ****             item = get_next_item(cont, f->rev, &item_first_id);
 448:Middlewares/lvgl/src/extra/layouts/flex/lv_flex.c ****             continue;
 449:Middlewares/lvgl/src/extra/layouts/flex/lv_flex.c ****         }
 450:Middlewares/lvgl/src/extra/layouts/flex/lv_flex.c ****         lv_coord_t grow_size = lv_obj_get_style_flex_grow(item, LV_PART_MAIN);
 451:Middlewares/lvgl/src/extra/layouts/flex/lv_flex.c ****         if(grow_size) {
 452:Middlewares/lvgl/src/extra/layouts/flex/lv_flex.c ****             lv_coord_t s = 0;
 453:Middlewares/lvgl/src/extra/layouts/flex/lv_flex.c ****             for(i = 0; i < t->grow_item_cnt; i++) {
 454:Middlewares/lvgl/src/extra/layouts/flex/lv_flex.c ****                 if(t->grow_dsc[i].item == item) {
 455:Middlewares/lvgl/src/extra/layouts/flex/lv_flex.c ****                     s = t->grow_dsc[i].final_size;
 456:Middlewares/lvgl/src/extra/layouts/flex/lv_flex.c ****                     break;
 457:Middlewares/lvgl/src/extra/layouts/flex/lv_flex.c ****                 }
 458:Middlewares/lvgl/src/extra/layouts/flex/lv_flex.c ****             }
 459:Middlewares/lvgl/src/extra/layouts/flex/lv_flex.c **** 
 460:Middlewares/lvgl/src/extra/layouts/flex/lv_flex.c ****             if(f->row) item->w_layout = 1;
 461:Middlewares/lvgl/src/extra/layouts/flex/lv_flex.c ****             else item->h_layout = 1;
 462:Middlewares/lvgl/src/extra/layouts/flex/lv_flex.c **** 
 463:Middlewares/lvgl/src/extra/layouts/flex/lv_flex.c ****             if(s != area_get_main_size(&item->coords)) {
 464:Middlewares/lvgl/src/extra/layouts/flex/lv_flex.c ****                 lv_obj_invalidate(item);
 465:Middlewares/lvgl/src/extra/layouts/flex/lv_flex.c **** 
 466:Middlewares/lvgl/src/extra/layouts/flex/lv_flex.c ****                 lv_area_t old_coords;
 467:Middlewares/lvgl/src/extra/layouts/flex/lv_flex.c ****                 lv_area_copy(&old_coords, &item->coords);
 468:Middlewares/lvgl/src/extra/layouts/flex/lv_flex.c ****                 area_set_main_size(&item->coords, s);
 469:Middlewares/lvgl/src/extra/layouts/flex/lv_flex.c ****                 lv_event_send(item, LV_EVENT_SIZE_CHANGED, &old_coords);
 470:Middlewares/lvgl/src/extra/layouts/flex/lv_flex.c ****                 lv_event_send(lv_obj_get_parent(item), LV_EVENT_CHILD_CHANGED, item);
 471:Middlewares/lvgl/src/extra/layouts/flex/lv_flex.c ****                 lv_obj_invalidate(item);
 472:Middlewares/lvgl/src/extra/layouts/flex/lv_flex.c ****             }
 473:Middlewares/lvgl/src/extra/layouts/flex/lv_flex.c ****         } else {
 474:Middlewares/lvgl/src/extra/layouts/flex/lv_flex.c ****             item->w_layout = 0;
 475:Middlewares/lvgl/src/extra/layouts/flex/lv_flex.c ****             item->h_layout = 0;
 476:Middlewares/lvgl/src/extra/layouts/flex/lv_flex.c ****         }
 477:Middlewares/lvgl/src/extra/layouts/flex/lv_flex.c **** 
 478:Middlewares/lvgl/src/extra/layouts/flex/lv_flex.c ****         lv_coord_t cross_pos = 0;
 479:Middlewares/lvgl/src/extra/layouts/flex/lv_flex.c ****         switch(f->cross_place) {
 480:Middlewares/lvgl/src/extra/layouts/flex/lv_flex.c ****         case LV_FLEX_ALIGN_CENTER:
 481:Middlewares/lvgl/src/extra/layouts/flex/lv_flex.c ****             /*Round up the cross size to avoid rounding error when dividing by 2
 482:Middlewares/lvgl/src/extra/layouts/flex/lv_flex.c ****              *The issue comes up e,g, with column direction with center cross direction if an eleme
 483:Middlewares/lvgl/src/extra/layouts/flex/lv_flex.c ****             cross_pos = (((t->track_cross_size + 1) & (~1)) - area_get_cross_size(&item->coords)) /
 484:Middlewares/lvgl/src/extra/layouts/flex/lv_flex.c ****             break;
 485:Middlewares/lvgl/src/extra/layouts/flex/lv_flex.c ****         case LV_FLEX_ALIGN_END:
 486:Middlewares/lvgl/src/extra/layouts/flex/lv_flex.c ****             cross_pos = t->track_cross_size - area_get_cross_size(&item->coords);
 487:Middlewares/lvgl/src/extra/layouts/flex/lv_flex.c ****             break;
 488:Middlewares/lvgl/src/extra/layouts/flex/lv_flex.c ****         default:
 489:Middlewares/lvgl/src/extra/layouts/flex/lv_flex.c ****             break;
 490:Middlewares/lvgl/src/extra/layouts/flex/lv_flex.c ****         }
 491:Middlewares/lvgl/src/extra/layouts/flex/lv_flex.c **** 
 492:Middlewares/lvgl/src/extra/layouts/flex/lv_flex.c ****         if(f->row && rtl) main_pos -= area_get_main_size(&item->coords);
 493:Middlewares/lvgl/src/extra/layouts/flex/lv_flex.c **** 
 494:Middlewares/lvgl/src/extra/layouts/flex/lv_flex.c **** 
 495:Middlewares/lvgl/src/extra/layouts/flex/lv_flex.c ****         /*Handle percentage value of translate*/
 496:Middlewares/lvgl/src/extra/layouts/flex/lv_flex.c ****         lv_coord_t tr_x = lv_obj_get_style_translate_x(item, LV_PART_MAIN);
 497:Middlewares/lvgl/src/extra/layouts/flex/lv_flex.c ****         lv_coord_t tr_y = lv_obj_get_style_translate_y(item, LV_PART_MAIN);
 498:Middlewares/lvgl/src/extra/layouts/flex/lv_flex.c ****         lv_coord_t w = lv_obj_get_width(item);
 499:Middlewares/lvgl/src/extra/layouts/flex/lv_flex.c ****         lv_coord_t h = lv_obj_get_height(item);
 500:Middlewares/lvgl/src/extra/layouts/flex/lv_flex.c ****         if(LV_COORD_IS_PCT(tr_x)) tr_x = (w * LV_COORD_GET_PCT(tr_x)) / 100;
 501:Middlewares/lvgl/src/extra/layouts/flex/lv_flex.c ****         if(LV_COORD_IS_PCT(tr_y)) tr_y = (h * LV_COORD_GET_PCT(tr_y)) / 100;
 502:Middlewares/lvgl/src/extra/layouts/flex/lv_flex.c **** 
 503:Middlewares/lvgl/src/extra/layouts/flex/lv_flex.c ****         lv_coord_t diff_x = abs_x - item->coords.x1 + tr_x;
ARM GAS  /tmp/ccyjKoUS.s 			page 14


 504:Middlewares/lvgl/src/extra/layouts/flex/lv_flex.c ****         lv_coord_t diff_y = abs_y - item->coords.y1 + tr_y;
 505:Middlewares/lvgl/src/extra/layouts/flex/lv_flex.c ****         diff_x += f->row ? main_pos : cross_pos;
 506:Middlewares/lvgl/src/extra/layouts/flex/lv_flex.c ****         diff_y += f->row ? cross_pos : main_pos;
 507:Middlewares/lvgl/src/extra/layouts/flex/lv_flex.c **** 
 508:Middlewares/lvgl/src/extra/layouts/flex/lv_flex.c ****         if(diff_x || diff_y) {
 509:Middlewares/lvgl/src/extra/layouts/flex/lv_flex.c ****             lv_obj_invalidate(item);
 510:Middlewares/lvgl/src/extra/layouts/flex/lv_flex.c ****             item->coords.x1 += diff_x;
 511:Middlewares/lvgl/src/extra/layouts/flex/lv_flex.c ****             item->coords.x2 += diff_x;
 512:Middlewares/lvgl/src/extra/layouts/flex/lv_flex.c ****             item->coords.y1 += diff_y;
 513:Middlewares/lvgl/src/extra/layouts/flex/lv_flex.c ****             item->coords.y2 += diff_y;
 514:Middlewares/lvgl/src/extra/layouts/flex/lv_flex.c ****             lv_obj_invalidate(item);
 515:Middlewares/lvgl/src/extra/layouts/flex/lv_flex.c ****             lv_obj_move_children_by(item, diff_x, diff_y, true);
 516:Middlewares/lvgl/src/extra/layouts/flex/lv_flex.c ****         }
 517:Middlewares/lvgl/src/extra/layouts/flex/lv_flex.c **** 
 518:Middlewares/lvgl/src/extra/layouts/flex/lv_flex.c ****         if(!(f->row && rtl)) main_pos += area_get_main_size(&item->coords) + item_gap + place_gap;
 519:Middlewares/lvgl/src/extra/layouts/flex/lv_flex.c ****         else main_pos -= item_gap + place_gap;
 520:Middlewares/lvgl/src/extra/layouts/flex/lv_flex.c **** 
 521:Middlewares/lvgl/src/extra/layouts/flex/lv_flex.c ****         item = get_next_item(cont, f->rev, &item_first_id);
 522:Middlewares/lvgl/src/extra/layouts/flex/lv_flex.c ****     }
 523:Middlewares/lvgl/src/extra/layouts/flex/lv_flex.c **** }
 524:Middlewares/lvgl/src/extra/layouts/flex/lv_flex.c **** 
 525:Middlewares/lvgl/src/extra/layouts/flex/lv_flex.c **** /**
 526:Middlewares/lvgl/src/extra/layouts/flex/lv_flex.c ****  * Tell a start coordinate and gap for a placement type.
 527:Middlewares/lvgl/src/extra/layouts/flex/lv_flex.c ****  */
 528:Middlewares/lvgl/src/extra/layouts/flex/lv_flex.c **** static void place_content(lv_flex_align_t place, lv_coord_t max_size, lv_coord_t content_size, lv_c
 529:Middlewares/lvgl/src/extra/layouts/flex/lv_flex.c **** {
  98              		.loc 2 529 1 is_stmt 1 view -0
  99              		.cfi_startproc
 100              		@ args = 8, pretend = 0, frame = 0
 101              		@ frame_needed = 0, uses_anonymous_args = 0
 102              		@ link register save eliminated.
 103              		.loc 2 529 1 is_stmt 0 view .LVU17
 104 0000 10B4     		push	{r4}
 105              	.LCFI0:
 106              		.cfi_def_cfa_offset 4
 107              		.cfi_offset 4, -4
 108 0002 019C     		ldr	r4, [sp, #4]
 530:Middlewares/lvgl/src/extra/layouts/flex/lv_flex.c ****     if(item_cnt <= 1) {
 109              		.loc 2 530 5 is_stmt 1 view .LVU18
 110              		.loc 2 530 7 is_stmt 0 view .LVU19
 111 0004 012B     		cmp	r3, #1
 112 0006 07DD     		ble	.L14
 113              	.L4:
 531:Middlewares/lvgl/src/extra/layouts/flex/lv_flex.c ****         switch(place) {
 532:Middlewares/lvgl/src/extra/layouts/flex/lv_flex.c ****             case LV_FLEX_ALIGN_SPACE_BETWEEN:
 533:Middlewares/lvgl/src/extra/layouts/flex/lv_flex.c ****             case LV_FLEX_ALIGN_SPACE_AROUND:
 534:Middlewares/lvgl/src/extra/layouts/flex/lv_flex.c ****             case LV_FLEX_ALIGN_SPACE_EVENLY:
 535:Middlewares/lvgl/src/extra/layouts/flex/lv_flex.c ****                 place = LV_FLEX_ALIGN_CENTER;
 536:Middlewares/lvgl/src/extra/layouts/flex/lv_flex.c ****                 break;
 537:Middlewares/lvgl/src/extra/layouts/flex/lv_flex.c ****             default:
 538:Middlewares/lvgl/src/extra/layouts/flex/lv_flex.c ****                 break;
 539:Middlewares/lvgl/src/extra/layouts/flex/lv_flex.c ****         }
 540:Middlewares/lvgl/src/extra/layouts/flex/lv_flex.c ****     }
 541:Middlewares/lvgl/src/extra/layouts/flex/lv_flex.c **** 
 542:Middlewares/lvgl/src/extra/layouts/flex/lv_flex.c ****     switch(place) {
 114              		.loc 2 542 5 is_stmt 1 view .LVU20
 115 0008 0138     		subs	r0, r0, #1
ARM GAS  /tmp/ccyjKoUS.s 			page 15


 116              	.LVL7:
 117              		.loc 2 542 5 is_stmt 0 view .LVU21
 118 000a 0428     		cmp	r0, #4
 119 000c 46D8     		bhi	.L6
 120 000e DFE800F0 		tbb	[pc, r0]
 121              	.L8:
 122 0012 14       		.byte	(.L11-.L8)/2
 123 0013 08       		.byte	(.L5-.L8)/2
 124 0014 37       		.byte	(.L10-.L8)/2
 125 0015 26       		.byte	(.L9-.L8)/2
 126 0016 1D       		.byte	(.L7-.L8)/2
 127              	.LVL8:
 128 0017 00       		.p2align 1
 129              	.L14:
 531:Middlewares/lvgl/src/extra/layouts/flex/lv_flex.c ****         switch(place) {
 130              		.loc 2 531 9 is_stmt 1 view .LVU22
 131 0018 A0F1030C 		sub	ip, r0, #3
 132 001c BCF1020F 		cmp	ip, #2
 133 0020 F2D8     		bhi	.L4
 134              	.LVL9:
 135              	.L5:
 543:Middlewares/lvgl/src/extra/layouts/flex/lv_flex.c ****     case LV_FLEX_ALIGN_CENTER:
 544:Middlewares/lvgl/src/extra/layouts/flex/lv_flex.c ****         *gap = 0;
 136              		.loc 2 544 9 view .LVU23
 137              		.loc 2 544 14 is_stmt 0 view .LVU24
 138 0022 0023     		movs	r3, #0
 139              	.LVL10:
 140              		.loc 2 544 14 view .LVU25
 141 0024 0298     		ldr	r0, [sp, #8]
 142 0026 0380     		strh	r3, [r0]	@ movhi
 545:Middlewares/lvgl/src/extra/layouts/flex/lv_flex.c ****         *start_pos += (max_size - content_size) / 2;
 143              		.loc 2 545 9 is_stmt 1 view .LVU26
 144              		.loc 2 545 33 is_stmt 0 view .LVU27
 145 0028 891A     		subs	r1, r1, r2
 146              	.LVL11:
 147              		.loc 2 545 49 view .LVU28
 148 002a 01EBD171 		add	r1, r1, r1, lsr #31
 149              		.loc 2 545 20 view .LVU29
 150 002e 2388     		ldrh	r3, [r4]
 151 0030 03EB6101 		add	r1, r3, r1, asr #1
 152 0034 2180     		strh	r1, [r4]	@ movhi
 546:Middlewares/lvgl/src/extra/layouts/flex/lv_flex.c ****         break;
 153              		.loc 2 546 9 is_stmt 1 view .LVU30
 154              	.LVL12:
 155              	.L3:
 547:Middlewares/lvgl/src/extra/layouts/flex/lv_flex.c ****     case LV_FLEX_ALIGN_END:
 548:Middlewares/lvgl/src/extra/layouts/flex/lv_flex.c ****         *gap = 0;
 549:Middlewares/lvgl/src/extra/layouts/flex/lv_flex.c ****         *start_pos += max_size - content_size;
 550:Middlewares/lvgl/src/extra/layouts/flex/lv_flex.c ****         break;
 551:Middlewares/lvgl/src/extra/layouts/flex/lv_flex.c ****     case LV_FLEX_ALIGN_SPACE_BETWEEN:
 552:Middlewares/lvgl/src/extra/layouts/flex/lv_flex.c ****        *gap = (lv_coord_t)(max_size - content_size) / (lv_coord_t)(item_cnt - 1);
 553:Middlewares/lvgl/src/extra/layouts/flex/lv_flex.c ****        break;
 554:Middlewares/lvgl/src/extra/layouts/flex/lv_flex.c ****    case LV_FLEX_ALIGN_SPACE_AROUND:
 555:Middlewares/lvgl/src/extra/layouts/flex/lv_flex.c ****        *gap += (lv_coord_t)(max_size - content_size) / (lv_coord_t)(item_cnt);
 556:Middlewares/lvgl/src/extra/layouts/flex/lv_flex.c ****        *start_pos += *gap / 2;
 557:Middlewares/lvgl/src/extra/layouts/flex/lv_flex.c ****        break;
 558:Middlewares/lvgl/src/extra/layouts/flex/lv_flex.c ****    case LV_FLEX_ALIGN_SPACE_EVENLY:
ARM GAS  /tmp/ccyjKoUS.s 			page 16


 559:Middlewares/lvgl/src/extra/layouts/flex/lv_flex.c ****        *gap = (lv_coord_t)(max_size - content_size) / (lv_coord_t)(item_cnt + 1);
 560:Middlewares/lvgl/src/extra/layouts/flex/lv_flex.c ****        *start_pos += *gap;
 561:Middlewares/lvgl/src/extra/layouts/flex/lv_flex.c ****        break;
 562:Middlewares/lvgl/src/extra/layouts/flex/lv_flex.c ****    default:
 563:Middlewares/lvgl/src/extra/layouts/flex/lv_flex.c ****        *gap = 0;
 564:Middlewares/lvgl/src/extra/layouts/flex/lv_flex.c ****     }
 565:Middlewares/lvgl/src/extra/layouts/flex/lv_flex.c **** }
 156              		.loc 2 565 1 is_stmt 0 view .LVU31
 157 0036 10BC     		pop	{r4}
 158              	.LCFI1:
 159              		.cfi_remember_state
 160              		.cfi_restore 4
 161              		.cfi_def_cfa_offset 0
 162              	.LVL13:
 163              		.loc 2 565 1 view .LVU32
 164 0038 7047     		bx	lr
 165              	.LVL14:
 166              	.L11:
 167              	.LCFI2:
 168              		.cfi_restore_state
 548:Middlewares/lvgl/src/extra/layouts/flex/lv_flex.c ****         *start_pos += max_size - content_size;
 169              		.loc 2 548 9 is_stmt 1 view .LVU33
 548:Middlewares/lvgl/src/extra/layouts/flex/lv_flex.c ****         *start_pos += max_size - content_size;
 170              		.loc 2 548 14 is_stmt 0 view .LVU34
 171 003a 0023     		movs	r3, #0
 172              	.LVL15:
 548:Middlewares/lvgl/src/extra/layouts/flex/lv_flex.c ****         *start_pos += max_size - content_size;
 173              		.loc 2 548 14 view .LVU35
 174 003c 0298     		ldr	r0, [sp, #8]
 175 003e 0380     		strh	r3, [r0]	@ movhi
 549:Middlewares/lvgl/src/extra/layouts/flex/lv_flex.c ****         break;
 176              		.loc 2 549 9 is_stmt 1 view .LVU36
 549:Middlewares/lvgl/src/extra/layouts/flex/lv_flex.c ****         break;
 177              		.loc 2 549 32 is_stmt 0 view .LVU37
 178 0040 891A     		subs	r1, r1, r2
 179              	.LVL16:
 549:Middlewares/lvgl/src/extra/layouts/flex/lv_flex.c ****         break;
 180              		.loc 2 549 32 view .LVU38
 181 0042 89B2     		uxth	r1, r1
 549:Middlewares/lvgl/src/extra/layouts/flex/lv_flex.c ****         break;
 182              		.loc 2 549 20 view .LVU39
 183 0044 2388     		ldrh	r3, [r4]
 184 0046 1944     		add	r1, r1, r3
 185 0048 2180     		strh	r1, [r4]	@ movhi
 550:Middlewares/lvgl/src/extra/layouts/flex/lv_flex.c ****     case LV_FLEX_ALIGN_SPACE_BETWEEN:
 186              		.loc 2 550 9 is_stmt 1 view .LVU40
 187 004a F4E7     		b	.L3
 188              	.LVL17:
 189              	.L7:
 552:Middlewares/lvgl/src/extra/layouts/flex/lv_flex.c ****        break;
 190              		.loc 2 552 8 view .LVU41
 552:Middlewares/lvgl/src/extra/layouts/flex/lv_flex.c ****        break;
 191              		.loc 2 552 37 is_stmt 0 view .LVU42
 192 004c 891A     		subs	r1, r1, r2
 193              	.LVL18:
 552:Middlewares/lvgl/src/extra/layouts/flex/lv_flex.c ****        break;
 194              		.loc 2 552 15 view .LVU43
ARM GAS  /tmp/ccyjKoUS.s 			page 17


 195 004e 09B2     		sxth	r1, r1
 552:Middlewares/lvgl/src/extra/layouts/flex/lv_flex.c ****        break;
 196              		.loc 2 552 77 view .LVU44
 197 0050 013B     		subs	r3, r3, #1
 198              	.LVL19:
 552:Middlewares/lvgl/src/extra/layouts/flex/lv_flex.c ****        break;
 199              		.loc 2 552 55 view .LVU45
 200 0052 1BB2     		sxth	r3, r3
 552:Middlewares/lvgl/src/extra/layouts/flex/lv_flex.c ****        break;
 201              		.loc 2 552 53 view .LVU46
 202 0054 91FBF3F1 		sdiv	r1, r1, r3
 552:Middlewares/lvgl/src/extra/layouts/flex/lv_flex.c ****        break;
 203              		.loc 2 552 13 view .LVU47
 204 0058 029B     		ldr	r3, [sp, #8]
 205 005a 1980     		strh	r1, [r3]	@ movhi
 553:Middlewares/lvgl/src/extra/layouts/flex/lv_flex.c ****    case LV_FLEX_ALIGN_SPACE_AROUND:
 206              		.loc 2 553 8 is_stmt 1 view .LVU48
 207 005c EBE7     		b	.L3
 208              	.LVL20:
 209              	.L9:
 555:Middlewares/lvgl/src/extra/layouts/flex/lv_flex.c ****        *start_pos += *gap / 2;
 210              		.loc 2 555 8 view .LVU49
 555:Middlewares/lvgl/src/extra/layouts/flex/lv_flex.c ****        *start_pos += *gap / 2;
 211              		.loc 2 555 38 is_stmt 0 view .LVU50
 212 005e 891A     		subs	r1, r1, r2
 213              	.LVL21:
 555:Middlewares/lvgl/src/extra/layouts/flex/lv_flex.c ****        *start_pos += *gap / 2;
 214              		.loc 2 555 16 view .LVU51
 215 0060 09B2     		sxth	r1, r1
 555:Middlewares/lvgl/src/extra/layouts/flex/lv_flex.c ****        *start_pos += *gap / 2;
 216              		.loc 2 555 54 view .LVU52
 217 0062 91FBF3F3 		sdiv	r3, r1, r3
 218              	.LVL22:
 555:Middlewares/lvgl/src/extra/layouts/flex/lv_flex.c ****        *start_pos += *gap / 2;
 219              		.loc 2 555 13 view .LVU53
 220 0066 029A     		ldr	r2, [sp, #8]
 221              	.LVL23:
 555:Middlewares/lvgl/src/extra/layouts/flex/lv_flex.c ****        *start_pos += *gap / 2;
 222              		.loc 2 555 13 view .LVU54
 223 0068 1288     		ldrh	r2, [r2]
 224 006a 1344     		add	r3, r3, r2
 225 006c 1BB2     		sxth	r3, r3
 226 006e 029A     		ldr	r2, [sp, #8]
 227 0070 1380     		strh	r3, [r2]	@ movhi
 556:Middlewares/lvgl/src/extra/layouts/flex/lv_flex.c ****        break;
 228              		.loc 2 556 8 is_stmt 1 view .LVU55
 556:Middlewares/lvgl/src/extra/layouts/flex/lv_flex.c ****        break;
 229              		.loc 2 556 19 is_stmt 0 view .LVU56
 230 0072 03EBD373 		add	r3, r3, r3, lsr #31
 231 0076 2288     		ldrh	r2, [r4]
 232 0078 02EB6303 		add	r3, r2, r3, asr #1
 233 007c 2380     		strh	r3, [r4]	@ movhi
 557:Middlewares/lvgl/src/extra/layouts/flex/lv_flex.c ****    case LV_FLEX_ALIGN_SPACE_EVENLY:
 234              		.loc 2 557 8 is_stmt 1 view .LVU57
 235 007e DAE7     		b	.L3
 236              	.LVL24:
 237              	.L10:
ARM GAS  /tmp/ccyjKoUS.s 			page 18


 559:Middlewares/lvgl/src/extra/layouts/flex/lv_flex.c ****        *start_pos += *gap;
 238              		.loc 2 559 8 view .LVU58
 559:Middlewares/lvgl/src/extra/layouts/flex/lv_flex.c ****        *start_pos += *gap;
 239              		.loc 2 559 37 is_stmt 0 view .LVU59
 240 0080 891A     		subs	r1, r1, r2
 241              	.LVL25:
 559:Middlewares/lvgl/src/extra/layouts/flex/lv_flex.c ****        *start_pos += *gap;
 242              		.loc 2 559 15 view .LVU60
 243 0082 09B2     		sxth	r1, r1
 559:Middlewares/lvgl/src/extra/layouts/flex/lv_flex.c ****        *start_pos += *gap;
 244              		.loc 2 559 77 view .LVU61
 245 0084 0133     		adds	r3, r3, #1
 246              	.LVL26:
 559:Middlewares/lvgl/src/extra/layouts/flex/lv_flex.c ****        *start_pos += *gap;
 247              		.loc 2 559 55 view .LVU62
 248 0086 1BB2     		sxth	r3, r3
 559:Middlewares/lvgl/src/extra/layouts/flex/lv_flex.c ****        *start_pos += *gap;
 249              		.loc 2 559 53 view .LVU63
 250 0088 91FBF3F3 		sdiv	r3, r1, r3
 559:Middlewares/lvgl/src/extra/layouts/flex/lv_flex.c ****        *start_pos += *gap;
 251              		.loc 2 559 13 view .LVU64
 252 008c 1BB2     		sxth	r3, r3
 253 008e 029A     		ldr	r2, [sp, #8]
 254              	.LVL27:
 559:Middlewares/lvgl/src/extra/layouts/flex/lv_flex.c ****        *start_pos += *gap;
 255              		.loc 2 559 13 view .LVU65
 256 0090 1380     		strh	r3, [r2]	@ movhi
 560:Middlewares/lvgl/src/extra/layouts/flex/lv_flex.c ****        break;
 257              		.loc 2 560 8 is_stmt 1 view .LVU66
 560:Middlewares/lvgl/src/extra/layouts/flex/lv_flex.c ****        break;
 258              		.loc 2 560 22 is_stmt 0 view .LVU67
 259 0092 9BB2     		uxth	r3, r3
 560:Middlewares/lvgl/src/extra/layouts/flex/lv_flex.c ****        break;
 260              		.loc 2 560 19 view .LVU68
 261 0094 2288     		ldrh	r2, [r4]
 262 0096 1344     		add	r3, r3, r2
 263 0098 2380     		strh	r3, [r4]	@ movhi
 561:Middlewares/lvgl/src/extra/layouts/flex/lv_flex.c ****    default:
 264              		.loc 2 561 8 is_stmt 1 view .LVU69
 265 009a CCE7     		b	.L3
 266              	.LVL28:
 267              	.L6:
 563:Middlewares/lvgl/src/extra/layouts/flex/lv_flex.c ****     }
 268              		.loc 2 563 8 view .LVU70
 563:Middlewares/lvgl/src/extra/layouts/flex/lv_flex.c ****     }
 269              		.loc 2 563 13 is_stmt 0 view .LVU71
 270 009c 0023     		movs	r3, #0
 271              	.LVL29:
 563:Middlewares/lvgl/src/extra/layouts/flex/lv_flex.c ****     }
 272              		.loc 2 563 13 view .LVU72
 273 009e 029A     		ldr	r2, [sp, #8]
 274              	.LVL30:
 563:Middlewares/lvgl/src/extra/layouts/flex/lv_flex.c ****     }
 275              		.loc 2 563 13 view .LVU73
 276 00a0 1380     		strh	r3, [r2]	@ movhi
 277              		.loc 2 565 1 view .LVU74
 278 00a2 C8E7     		b	.L3
ARM GAS  /tmp/ccyjKoUS.s 			page 19


 279              		.cfi_endproc
 280              	.LFE180:
 282              		.section	.text.get_next_item,"ax",%progbits
 283              		.align	1
 284              		.syntax unified
 285              		.thumb
 286              		.thumb_func
 287              		.fpu softvfp
 289              	get_next_item:
 290              	.LVL31:
 291              	.LFB181:
 566:Middlewares/lvgl/src/extra/layouts/flex/lv_flex.c **** 
 567:Middlewares/lvgl/src/extra/layouts/flex/lv_flex.c **** static lv_obj_t * get_next_item(lv_obj_t * cont, bool rev, int32_t * item_id)
 568:Middlewares/lvgl/src/extra/layouts/flex/lv_flex.c **** {
 292              		.loc 2 568 1 is_stmt 1 view -0
 293              		.cfi_startproc
 294              		@ args = 0, pretend = 0, frame = 0
 295              		@ frame_needed = 0, uses_anonymous_args = 0
 296              		@ link register save eliminated.
 569:Middlewares/lvgl/src/extra/layouts/flex/lv_flex.c ****     if(rev) {
 297              		.loc 2 569 5 view .LVU76
 298              		.loc 2 569 7 is_stmt 0 view .LVU77
 299 0000 49B1     		cbz	r1, .L16
 570:Middlewares/lvgl/src/extra/layouts/flex/lv_flex.c ****         (*item_id)--;
 300              		.loc 2 570 9 is_stmt 1 view .LVU78
 301              		.loc 2 570 10 is_stmt 0 view .LVU79
 302 0002 1368     		ldr	r3, [r2]
 303              		.loc 2 570 19 view .LVU80
 304 0004 013B     		subs	r3, r3, #1
 305 0006 1360     		str	r3, [r2]
 571:Middlewares/lvgl/src/extra/layouts/flex/lv_flex.c ****         if(*item_id >= 0) return cont->spec_attr->children[*item_id];
 306              		.loc 2 571 9 is_stmt 1 view .LVU81
 307              		.loc 2 571 11 is_stmt 0 view .LVU82
 308 0008 002B     		cmp	r3, #0
 309 000a 0FDB     		blt	.L18
 310              		.loc 2 571 27 is_stmt 1 discriminator 1 view .LVU83
 311              		.loc 2 571 38 is_stmt 0 discriminator 1 view .LVU84
 312 000c 8268     		ldr	r2, [r0, #8]
 313              	.LVL32:
 314              		.loc 2 571 49 discriminator 1 view .LVU85
 315 000e 1268     		ldr	r2, [r2]
 316              		.loc 2 571 59 discriminator 1 view .LVU86
 317 0010 52F82300 		ldr	r0, [r2, r3, lsl #2]
 318              	.LVL33:
 319              		.loc 2 571 59 discriminator 1 view .LVU87
 320 0014 7047     		bx	lr
 321              	.LVL34:
 322              	.L16:
 572:Middlewares/lvgl/src/extra/layouts/flex/lv_flex.c ****         else return NULL;
 573:Middlewares/lvgl/src/extra/layouts/flex/lv_flex.c ****     } else {
 574:Middlewares/lvgl/src/extra/layouts/flex/lv_flex.c ****         (*item_id)++;
 323              		.loc 2 574 9 is_stmt 1 view .LVU88
 324              		.loc 2 574 10 is_stmt 0 view .LVU89
 325 0016 1368     		ldr	r3, [r2]
 326              		.loc 2 574 19 view .LVU90
 327 0018 0133     		adds	r3, r3, #1
 328 001a 1360     		str	r3, [r2]
ARM GAS  /tmp/ccyjKoUS.s 			page 20


 575:Middlewares/lvgl/src/extra/layouts/flex/lv_flex.c ****         if((*item_id) < (int32_t)cont->spec_attr->child_cnt) return cont->spec_attr->children[*item
 329              		.loc 2 575 9 is_stmt 1 view .LVU91
 330              		.loc 2 575 38 is_stmt 0 view .LVU92
 331 001c 8268     		ldr	r2, [r0, #8]
 332              	.LVL35:
 333              		.loc 2 575 49 view .LVU93
 334 001e 5168     		ldr	r1, [r2, #4]
 335              	.LVL36:
 336              		.loc 2 575 11 view .LVU94
 337 0020 8B42     		cmp	r3, r1
 338 0022 05DA     		bge	.L19
 339              		.loc 2 575 62 is_stmt 1 discriminator 1 view .LVU95
 340              		.loc 2 575 84 is_stmt 0 discriminator 1 view .LVU96
 341 0024 1268     		ldr	r2, [r2]
 342              		.loc 2 575 94 discriminator 1 view .LVU97
 343 0026 52F82300 		ldr	r0, [r2, r3, lsl #2]
 344              	.LVL37:
 345              		.loc 2 575 94 discriminator 1 view .LVU98
 346 002a 7047     		bx	lr
 347              	.LVL38:
 348              	.L18:
 572:Middlewares/lvgl/src/extra/layouts/flex/lv_flex.c ****         else return NULL;
 349              		.loc 2 572 21 view .LVU99
 350 002c 0020     		movs	r0, #0
 351              	.LVL39:
 572:Middlewares/lvgl/src/extra/layouts/flex/lv_flex.c ****         else return NULL;
 352              		.loc 2 572 21 view .LVU100
 353 002e 7047     		bx	lr
 354              	.LVL40:
 355              	.L19:
 576:Middlewares/lvgl/src/extra/layouts/flex/lv_flex.c ****         else return NULL;
 356              		.loc 2 576 21 view .LVU101
 357 0030 0020     		movs	r0, #0
 358              	.LVL41:
 577:Middlewares/lvgl/src/extra/layouts/flex/lv_flex.c ****     }
 578:Middlewares/lvgl/src/extra/layouts/flex/lv_flex.c **** }
 359              		.loc 2 578 1 view .LVU102
 360 0032 7047     		bx	lr
 361              		.cfi_endproc
 362              	.LFE181:
 364              		.section	.text.find_track_end,"ax",%progbits
 365              		.align	1
 366              		.syntax unified
 367              		.thumb
 368              		.thumb_func
 369              		.fpu softvfp
 371              	find_track_end:
 372              	.LVL42:
 373              	.LFB178:
 310:Middlewares/lvgl/src/extra/layouts/flex/lv_flex.c ****     lv_coord_t w_set = lv_obj_get_style_width(cont, LV_PART_MAIN);
 374              		.loc 2 310 1 is_stmt 1 view -0
 375              		.cfi_startproc
 376              		@ args = 8, pretend = 0, frame = 24
 377              		@ frame_needed = 0, uses_anonymous_args = 0
 310:Middlewares/lvgl/src/extra/layouts/flex/lv_flex.c ****     lv_coord_t w_set = lv_obj_get_style_width(cont, LV_PART_MAIN);
 378              		.loc 2 310 1 is_stmt 0 view .LVU104
 379 0000 2DE9F04F 		push	{r4, r5, r6, r7, r8, r9, r10, fp, lr}
ARM GAS  /tmp/ccyjKoUS.s 			page 21


 380              	.LCFI3:
 381              		.cfi_def_cfa_offset 36
 382              		.cfi_offset 4, -36
 383              		.cfi_offset 5, -32
 384              		.cfi_offset 6, -28
 385              		.cfi_offset 7, -24
 386              		.cfi_offset 8, -20
 387              		.cfi_offset 9, -16
 388              		.cfi_offset 10, -12
 389              		.cfi_offset 11, -8
 390              		.cfi_offset 14, -4
 391 0004 87B0     		sub	sp, sp, #28
 392              	.LCFI4:
 393              		.cfi_def_cfa_offset 64
 394 0006 8146     		mov	r9, r0
 395 0008 0E46     		mov	r6, r1
 396 000a 9046     		mov	r8, r2
 397 000c 0293     		str	r3, [sp, #8]
 398 000e BDF940B0 		ldrsh	fp, [sp, #64]
 399 0012 119D     		ldr	r5, [sp, #68]
 311:Middlewares/lvgl/src/extra/layouts/flex/lv_flex.c ****     lv_coord_t h_set = lv_obj_get_style_height(cont, LV_PART_MAIN);
 400              		.loc 2 311 5 is_stmt 1 view .LVU105
 401              	.LVL43:
 402              	.LBB64:
 403              	.LBI64:
 404              		.file 3 "Middlewares/lvgl/src/extra/layouts/flex/../flex/../../../core/lv_obj_style_gen.h"
   1:Middlewares/lvgl/src/extra/layouts/flex/../flex/../../../core/lv_obj_style_gen.h **** static inline lv_coord_t lv_obj_get_style_width(const struct _lv_obj_t * obj, uint32_t part)
 405              		.loc 3 1 26 view .LVU106
 406              	.LBB65:
   2:Middlewares/lvgl/src/extra/layouts/flex/../flex/../../../core/lv_obj_style_gen.h **** {
   3:Middlewares/lvgl/src/extra/layouts/flex/../flex/../../../core/lv_obj_style_gen.h ****     lv_style_value_t v = lv_obj_get_style_prop(obj, part, LV_STYLE_WIDTH);
 407              		.loc 3 3 5 view .LVU107
 408              		.loc 3 3 26 is_stmt 0 view .LVU108
 409 0014 41F20102 		movw	r2, #4097
 410              	.LVL44:
 411              		.loc 3 3 26 view .LVU109
 412 0018 0021     		movs	r1, #0
 413              	.LVL45:
 414              		.loc 3 3 26 view .LVU110
 415 001a FFF7FEFF 		bl	lv_obj_get_style_prop
 416              	.LVL46:
   4:Middlewares/lvgl/src/extra/layouts/flex/../flex/../../../core/lv_obj_style_gen.h ****     return (lv_coord_t)v.num;
 417              		.loc 3 4 5 is_stmt 1 view .LVU111
 418              		.loc 3 4 12 is_stmt 0 view .LVU112
 419 001e 04B2     		sxth	r4, r0
 420              	.LVL47:
 421              		.loc 3 4 12 view .LVU113
 422              	.LBE65:
 423              	.LBE64:
 312:Middlewares/lvgl/src/extra/layouts/flex/lv_flex.c **** 
 424              		.loc 2 312 5 is_stmt 1 view .LVU114
 425              	.LBB66:
 426              	.LBI66:
   5:Middlewares/lvgl/src/extra/layouts/flex/../flex/../../../core/lv_obj_style_gen.h **** }
   6:Middlewares/lvgl/src/extra/layouts/flex/../flex/../../../core/lv_obj_style_gen.h **** 
   7:Middlewares/lvgl/src/extra/layouts/flex/../flex/../../../core/lv_obj_style_gen.h **** static inline lv_coord_t lv_obj_get_style_min_width(const struct _lv_obj_t * obj, uint32_t part)
   8:Middlewares/lvgl/src/extra/layouts/flex/../flex/../../../core/lv_obj_style_gen.h **** {
ARM GAS  /tmp/ccyjKoUS.s 			page 22


   9:Middlewares/lvgl/src/extra/layouts/flex/../flex/../../../core/lv_obj_style_gen.h ****     lv_style_value_t v = lv_obj_get_style_prop(obj, part, LV_STYLE_MIN_WIDTH);
  10:Middlewares/lvgl/src/extra/layouts/flex/../flex/../../../core/lv_obj_style_gen.h ****     return (lv_coord_t)v.num;
  11:Middlewares/lvgl/src/extra/layouts/flex/../flex/../../../core/lv_obj_style_gen.h **** }
  12:Middlewares/lvgl/src/extra/layouts/flex/../flex/../../../core/lv_obj_style_gen.h **** 
  13:Middlewares/lvgl/src/extra/layouts/flex/../flex/../../../core/lv_obj_style_gen.h **** static inline lv_coord_t lv_obj_get_style_max_width(const struct _lv_obj_t * obj, uint32_t part)
  14:Middlewares/lvgl/src/extra/layouts/flex/../flex/../../../core/lv_obj_style_gen.h **** {
  15:Middlewares/lvgl/src/extra/layouts/flex/../flex/../../../core/lv_obj_style_gen.h ****     lv_style_value_t v = lv_obj_get_style_prop(obj, part, LV_STYLE_MAX_WIDTH);
  16:Middlewares/lvgl/src/extra/layouts/flex/../flex/../../../core/lv_obj_style_gen.h ****     return (lv_coord_t)v.num;
  17:Middlewares/lvgl/src/extra/layouts/flex/../flex/../../../core/lv_obj_style_gen.h **** }
  18:Middlewares/lvgl/src/extra/layouts/flex/../flex/../../../core/lv_obj_style_gen.h **** 
  19:Middlewares/lvgl/src/extra/layouts/flex/../flex/../../../core/lv_obj_style_gen.h **** static inline lv_coord_t lv_obj_get_style_height(const struct _lv_obj_t * obj, uint32_t part)
 427              		.loc 3 19 26 view .LVU115
 428              	.LBB67:
  20:Middlewares/lvgl/src/extra/layouts/flex/../flex/../../../core/lv_obj_style_gen.h **** {
  21:Middlewares/lvgl/src/extra/layouts/flex/../flex/../../../core/lv_obj_style_gen.h ****     lv_style_value_t v = lv_obj_get_style_prop(obj, part, LV_STYLE_HEIGHT);
 429              		.loc 3 21 5 view .LVU116
 430              		.loc 3 21 26 is_stmt 0 view .LVU117
 431 0020 41F20402 		movw	r2, #4100
 432 0024 0021     		movs	r1, #0
 433 0026 4846     		mov	r0, r9
 434 0028 FFF7FEFF 		bl	lv_obj_get_style_prop
 435              	.LVL48:
  22:Middlewares/lvgl/src/extra/layouts/flex/../flex/../../../core/lv_obj_style_gen.h ****     return (lv_coord_t)v.num;
 436              		.loc 3 22 5 is_stmt 1 view .LVU118
 437              		.loc 3 22 5 is_stmt 0 view .LVU119
 438              	.LBE67:
 439              	.LBE66:
 315:Middlewares/lvgl/src/extra/layouts/flex/lv_flex.c ****         f->wrap = false;
 440              		.loc 2 315 5 is_stmt 1 view .LVU120
 315:Middlewares/lvgl/src/extra/layouts/flex/lv_flex.c ****         f->wrap = false;
 441              		.loc 2 315 8 is_stmt 0 view .LVU121
 442 002c F378     		ldrb	r3, [r6, #3]	@ zero_extendqisi2
 315:Middlewares/lvgl/src/extra/layouts/flex/lv_flex.c ****         f->wrap = false;
 443              		.loc 2 315 7 view .LVU122
 444 002e 13F0020F 		tst	r3, #2
 445 0032 10D0     		beq	.L21
 446 0034 00B2     		sxth	r0, r0
 315:Middlewares/lvgl/src/extra/layouts/flex/lv_flex.c ****         f->wrap = false;
 447              		.loc 2 315 16 discriminator 1 view .LVU123
 448 0036 13F00103 		ands	r3, r3, #1
 449 003a 03D0     		beq	.L22
 315:Middlewares/lvgl/src/extra/layouts/flex/lv_flex.c ****         f->wrap = false;
 450              		.loc 2 315 28 discriminator 2 view .LVU124
 451 003c 42F2D172 		movw	r2, #10193
 452 0040 9442     		cmp	r4, r2
 453 0042 04D0     		beq	.L23
 454              	.L22:
 315:Middlewares/lvgl/src/extra/layouts/flex/lv_flex.c ****         f->wrap = false;
 455              		.loc 2 315 57 discriminator 4 view .LVU125
 456 0044 3BB9     		cbnz	r3, .L21
 315:Middlewares/lvgl/src/extra/layouts/flex/lv_flex.c ****         f->wrap = false;
 457              		.loc 2 315 69 discriminator 5 view .LVU126
 458 0046 42F2D173 		movw	r3, #10193
 459 004a 9842     		cmp	r0, r3
 460 004c 03D1     		bne	.L21
 461              	.L23:
 316:Middlewares/lvgl/src/extra/layouts/flex/lv_flex.c ****     }
ARM GAS  /tmp/ccyjKoUS.s 			page 23


 462              		.loc 2 316 9 is_stmt 1 view .LVU127
 316:Middlewares/lvgl/src/extra/layouts/flex/lv_flex.c ****     }
 463              		.loc 2 316 17 is_stmt 0 view .LVU128
 464 004e F378     		ldrb	r3, [r6, #3]	@ zero_extendqisi2
 465 0050 6FF34103 		bfc	r3, #1, #1
 466 0054 F370     		strb	r3, [r6, #3]
 467              	.LVL49:
 468              	.L21:
 318:Middlewares/lvgl/src/extra/layouts/flex/lv_flex.c ****     lv_coord_t(*get_cross_size)(const lv_obj_t *) = (!f->row ? lv_obj_get_width : lv_obj_get_height
 469              		.loc 2 318 5 is_stmt 1 view .LVU129
 318:Middlewares/lvgl/src/extra/layouts/flex/lv_flex.c ****     lv_coord_t(*get_cross_size)(const lv_obj_t *) = (!f->row ? lv_obj_get_width : lv_obj_get_height
 470              		.loc 2 318 60 is_stmt 0 view .LVU130
 471 0056 F378     		ldrb	r3, [r6, #3]	@ zero_extendqisi2
 318:Middlewares/lvgl/src/extra/layouts/flex/lv_flex.c ****     lv_coord_t(*get_cross_size)(const lv_obj_t *) = (!f->row ? lv_obj_get_width : lv_obj_get_height
 472              		.loc 2 318 17 view .LVU131
 473 0058 13F00103 		ands	r3, r3, #1
 474 005c 13D0     		beq	.L46
 475 005e 824A     		ldr	r2, .L52
 476 0060 0392     		str	r2, [sp, #12]
 477              	.L24:
 478              	.LVL50:
 319:Middlewares/lvgl/src/extra/layouts/flex/lv_flex.c **** 
 479              		.loc 2 319 5 is_stmt 1 discriminator 4 view .LVU132
 319:Middlewares/lvgl/src/extra/layouts/flex/lv_flex.c **** 
 480              		.loc 2 319 17 is_stmt 0 discriminator 4 view .LVU133
 481 0062 9BB9     		cbnz	r3, .L47
 319:Middlewares/lvgl/src/extra/layouts/flex/lv_flex.c **** 
 482              		.loc 2 319 17 view .LVU134
 483 0064 DFF800A2 		ldr	r10, .L52
 484              	.L25:
 485              	.LVL51:
 321:Middlewares/lvgl/src/extra/layouts/flex/lv_flex.c ****     t->track_main_size = 0;
 486              		.loc 2 321 5 is_stmt 1 discriminator 4 view .LVU135
 322:Middlewares/lvgl/src/extra/layouts/flex/lv_flex.c ****     t->track_fix_main_size = 0;
 487              		.loc 2 322 5 discriminator 4 view .LVU136
 322:Middlewares/lvgl/src/extra/layouts/flex/lv_flex.c ****     t->track_fix_main_size = 0;
 488              		.loc 2 322 24 is_stmt 0 discriminator 4 view .LVU137
 489 0068 0023     		movs	r3, #0
 490 006a 6B80     		strh	r3, [r5, #2]	@ movhi
 323:Middlewares/lvgl/src/extra/layouts/flex/lv_flex.c ****     t->grow_item_cnt = 0;
 491              		.loc 2 323 5 is_stmt 1 discriminator 4 view .LVU138
 323:Middlewares/lvgl/src/extra/layouts/flex/lv_flex.c ****     t->grow_item_cnt = 0;
 492              		.loc 2 323 28 is_stmt 0 discriminator 4 view .LVU139
 493 006c AB80     		strh	r3, [r5, #4]	@ movhi
 324:Middlewares/lvgl/src/extra/layouts/flex/lv_flex.c ****     t->track_cross_size = 0;
 494              		.loc 2 324 5 is_stmt 1 discriminator 4 view .LVU140
 324:Middlewares/lvgl/src/extra/layouts/flex/lv_flex.c ****     t->track_cross_size = 0;
 495              		.loc 2 324 22 is_stmt 0 discriminator 4 view .LVU141
 496 006e 2B61     		str	r3, [r5, #16]
 325:Middlewares/lvgl/src/extra/layouts/flex/lv_flex.c ****     t->item_cnt = 0;
 497              		.loc 2 325 5 is_stmt 1 discriminator 4 view .LVU142
 325:Middlewares/lvgl/src/extra/layouts/flex/lv_flex.c ****     t->item_cnt = 0;
 498              		.loc 2 325 25 is_stmt 0 discriminator 4 view .LVU143
 499 0070 2B80     		strh	r3, [r5]	@ movhi
 326:Middlewares/lvgl/src/extra/layouts/flex/lv_flex.c ****     t->grow_dsc = NULL;
 500              		.loc 2 326 5 is_stmt 1 discriminator 4 view .LVU144
 326:Middlewares/lvgl/src/extra/layouts/flex/lv_flex.c ****     t->grow_dsc = NULL;
ARM GAS  /tmp/ccyjKoUS.s 			page 24


 501              		.loc 2 326 17 is_stmt 0 discriminator 4 view .LVU145
 502 0072 AB60     		str	r3, [r5, #8]
 327:Middlewares/lvgl/src/extra/layouts/flex/lv_flex.c **** 
 503              		.loc 2 327 5 is_stmt 1 discriminator 4 view .LVU146
 327:Middlewares/lvgl/src/extra/layouts/flex/lv_flex.c **** 
 504              		.loc 2 327 17 is_stmt 0 discriminator 4 view .LVU147
 505 0074 EB60     		str	r3, [r5, #12]
 329:Middlewares/lvgl/src/extra/layouts/flex/lv_flex.c **** 
 506              		.loc 2 329 5 is_stmt 1 discriminator 4 view .LVU148
 329:Middlewares/lvgl/src/extra/layouts/flex/lv_flex.c **** 
 507              		.loc 2 329 13 is_stmt 0 discriminator 4 view .LVU149
 508 0076 CDF81480 		str	r8, [sp, #20]
 331:Middlewares/lvgl/src/extra/layouts/flex/lv_flex.c ****     while(item) {
 509              		.loc 2 331 5 is_stmt 1 discriminator 4 view .LVU150
 331:Middlewares/lvgl/src/extra/layouts/flex/lv_flex.c ****     while(item) {
 510              		.loc 2 331 23 is_stmt 0 discriminator 4 view .LVU151
 511 007a 4146     		mov	r1, r8
 512 007c 4846     		mov	r0, r9
 513 007e FFF7FEFF 		bl	lv_obj_get_child
 514              	.LVL52:
 515 0082 0446     		mov	r4, r0
 516              	.LVL53:
 332:Middlewares/lvgl/src/extra/layouts/flex/lv_flex.c ****         if(item_id != item_start_id && lv_obj_has_flag(item, LV_OBJ_FLAG_FLEX_IN_NEW_TRACK)) break;
 517              		.loc 2 332 5 is_stmt 1 discriminator 4 view .LVU152
 332:Middlewares/lvgl/src/extra/layouts/flex/lv_flex.c ****         if(item_id != item_start_id && lv_obj_has_flag(item, LV_OBJ_FLAG_FLEX_IN_NEW_TRACK)) break;
 518              		.loc 2 332 10 is_stmt 0 discriminator 4 view .LVU153
 519 0084 AAE0     		b	.L26
 520              	.LVL54:
 521              	.L46:
 318:Middlewares/lvgl/src/extra/layouts/flex/lv_flex.c ****     lv_coord_t(*get_cross_size)(const lv_obj_t *) = (!f->row ? lv_obj_get_width : lv_obj_get_height
 522              		.loc 2 318 17 view .LVU154
 523 0086 794A     		ldr	r2, .L52+4
 524 0088 0392     		str	r2, [sp, #12]
 525 008a EAE7     		b	.L24
 526              	.LVL55:
 527              	.L47:
 319:Middlewares/lvgl/src/extra/layouts/flex/lv_flex.c **** 
 528              		.loc 2 319 17 view .LVU155
 529 008c DFF8DCA1 		ldr	r10, .L52+4
 530 0090 EAE7     		b	.L25
 531              	.LVL56:
 532              	.L50:
 533              	.LBB68:
 336:Middlewares/lvgl/src/extra/layouts/flex/lv_flex.c ****             if(grow_value) {
 534              		.loc 2 336 13 is_stmt 1 view .LVU156
 535              	.LBB69:
 536              	.LBI69:
 537              		.file 4 "Middlewares/lvgl/src/extra/layouts/flex/../flex/lv_flex.h"
   1:Middlewares/lvgl/src/extra/layouts/flex/../flex/lv_flex.h **** /**
   2:Middlewares/lvgl/src/extra/layouts/flex/../flex/lv_flex.h ****  * @file lv_flex.h
   3:Middlewares/lvgl/src/extra/layouts/flex/../flex/lv_flex.h ****  *
   4:Middlewares/lvgl/src/extra/layouts/flex/../flex/lv_flex.h ****  */
   5:Middlewares/lvgl/src/extra/layouts/flex/../flex/lv_flex.h **** 
   6:Middlewares/lvgl/src/extra/layouts/flex/../flex/lv_flex.h **** #ifndef LV_FLEX_H
   7:Middlewares/lvgl/src/extra/layouts/flex/../flex/lv_flex.h **** #define LV_FLEX_H
   8:Middlewares/lvgl/src/extra/layouts/flex/../flex/lv_flex.h **** 
   9:Middlewares/lvgl/src/extra/layouts/flex/../flex/lv_flex.h **** #ifdef __cplusplus
ARM GAS  /tmp/ccyjKoUS.s 			page 25


  10:Middlewares/lvgl/src/extra/layouts/flex/../flex/lv_flex.h **** extern "C" {
  11:Middlewares/lvgl/src/extra/layouts/flex/../flex/lv_flex.h **** #endif
  12:Middlewares/lvgl/src/extra/layouts/flex/../flex/lv_flex.h **** 
  13:Middlewares/lvgl/src/extra/layouts/flex/../flex/lv_flex.h **** /*********************
  14:Middlewares/lvgl/src/extra/layouts/flex/../flex/lv_flex.h ****  *      INCLUDES
  15:Middlewares/lvgl/src/extra/layouts/flex/../flex/lv_flex.h ****  *********************/
  16:Middlewares/lvgl/src/extra/layouts/flex/../flex/lv_flex.h **** #include "../../../core/lv_obj.h"
  17:Middlewares/lvgl/src/extra/layouts/flex/../flex/lv_flex.h **** #if LV_USE_FLEX
  18:Middlewares/lvgl/src/extra/layouts/flex/../flex/lv_flex.h **** 
  19:Middlewares/lvgl/src/extra/layouts/flex/../flex/lv_flex.h **** /*********************
  20:Middlewares/lvgl/src/extra/layouts/flex/../flex/lv_flex.h ****  *      DEFINES
  21:Middlewares/lvgl/src/extra/layouts/flex/../flex/lv_flex.h ****  *********************/
  22:Middlewares/lvgl/src/extra/layouts/flex/../flex/lv_flex.h **** 
  23:Middlewares/lvgl/src/extra/layouts/flex/../flex/lv_flex.h **** #define LV_OBJ_FLAG_FLEX_IN_NEW_TRACK   LV_OBJ_FLAG_LAYOUT_1
  24:Middlewares/lvgl/src/extra/layouts/flex/../flex/lv_flex.h **** LV_EXPORT_CONST_INT(LV_OBJ_FLAG_FLEX_IN_NEW_TRACK);
  25:Middlewares/lvgl/src/extra/layouts/flex/../flex/lv_flex.h **** 
  26:Middlewares/lvgl/src/extra/layouts/flex/../flex/lv_flex.h **** #define _LV_FLEX_COLUMN        (1 << 0)
  27:Middlewares/lvgl/src/extra/layouts/flex/../flex/lv_flex.h **** #define _LV_FLEX_WRAP       (1 << 2)
  28:Middlewares/lvgl/src/extra/layouts/flex/../flex/lv_flex.h **** #define _LV_FLEX_REVERSE    (1 << 3)
  29:Middlewares/lvgl/src/extra/layouts/flex/../flex/lv_flex.h **** 
  30:Middlewares/lvgl/src/extra/layouts/flex/../flex/lv_flex.h **** /**********************
  31:Middlewares/lvgl/src/extra/layouts/flex/../flex/lv_flex.h ****  *      TYPEDEFS
  32:Middlewares/lvgl/src/extra/layouts/flex/../flex/lv_flex.h ****  **********************/
  33:Middlewares/lvgl/src/extra/layouts/flex/../flex/lv_flex.h **** 
  34:Middlewares/lvgl/src/extra/layouts/flex/../flex/lv_flex.h **** /*Can't include lv_obj.h because it includes this header file*/
  35:Middlewares/lvgl/src/extra/layouts/flex/../flex/lv_flex.h **** struct _lv_obj_t;
  36:Middlewares/lvgl/src/extra/layouts/flex/../flex/lv_flex.h **** 
  37:Middlewares/lvgl/src/extra/layouts/flex/../flex/lv_flex.h **** typedef enum {
  38:Middlewares/lvgl/src/extra/layouts/flex/../flex/lv_flex.h ****     LV_FLEX_ALIGN_START,
  39:Middlewares/lvgl/src/extra/layouts/flex/../flex/lv_flex.h ****     LV_FLEX_ALIGN_END,
  40:Middlewares/lvgl/src/extra/layouts/flex/../flex/lv_flex.h ****     LV_FLEX_ALIGN_CENTER,
  41:Middlewares/lvgl/src/extra/layouts/flex/../flex/lv_flex.h ****     LV_FLEX_ALIGN_SPACE_EVENLY,
  42:Middlewares/lvgl/src/extra/layouts/flex/../flex/lv_flex.h ****     LV_FLEX_ALIGN_SPACE_AROUND,
  43:Middlewares/lvgl/src/extra/layouts/flex/../flex/lv_flex.h ****     LV_FLEX_ALIGN_SPACE_BETWEEN,
  44:Middlewares/lvgl/src/extra/layouts/flex/../flex/lv_flex.h **** }lv_flex_align_t;
  45:Middlewares/lvgl/src/extra/layouts/flex/../flex/lv_flex.h **** 
  46:Middlewares/lvgl/src/extra/layouts/flex/../flex/lv_flex.h **** typedef enum {
  47:Middlewares/lvgl/src/extra/layouts/flex/../flex/lv_flex.h ****     LV_FLEX_FLOW_ROW                 = 0x00,
  48:Middlewares/lvgl/src/extra/layouts/flex/../flex/lv_flex.h ****     LV_FLEX_FLOW_COLUMN              = _LV_FLEX_COLUMN,
  49:Middlewares/lvgl/src/extra/layouts/flex/../flex/lv_flex.h ****     LV_FLEX_FLOW_ROW_WRAP            = LV_FLEX_FLOW_ROW | _LV_FLEX_WRAP,
  50:Middlewares/lvgl/src/extra/layouts/flex/../flex/lv_flex.h ****     LV_FLEX_FLOW_ROW_REVERSE         = LV_FLEX_FLOW_ROW | _LV_FLEX_REVERSE,
  51:Middlewares/lvgl/src/extra/layouts/flex/../flex/lv_flex.h ****     LV_FLEX_FLOW_ROW_WRAP_REVERSE    = LV_FLEX_FLOW_ROW | _LV_FLEX_WRAP | _LV_FLEX_REVERSE,
  52:Middlewares/lvgl/src/extra/layouts/flex/../flex/lv_flex.h ****     LV_FLEX_FLOW_COLUMN_WRAP         = LV_FLEX_FLOW_COLUMN | _LV_FLEX_WRAP,
  53:Middlewares/lvgl/src/extra/layouts/flex/../flex/lv_flex.h ****     LV_FLEX_FLOW_COLUMN_REVERSE      = LV_FLEX_FLOW_COLUMN | _LV_FLEX_REVERSE,
  54:Middlewares/lvgl/src/extra/layouts/flex/../flex/lv_flex.h ****     LV_FLEX_FLOW_COLUMN_WRAP_REVERSE = LV_FLEX_FLOW_COLUMN | _LV_FLEX_WRAP | _LV_FLEX_REVERSE,
  55:Middlewares/lvgl/src/extra/layouts/flex/../flex/lv_flex.h **** }lv_flex_flow_t;
  56:Middlewares/lvgl/src/extra/layouts/flex/../flex/lv_flex.h **** 
  57:Middlewares/lvgl/src/extra/layouts/flex/../flex/lv_flex.h **** /**********************
  58:Middlewares/lvgl/src/extra/layouts/flex/../flex/lv_flex.h ****  * GLOBAL VARIABLES
  59:Middlewares/lvgl/src/extra/layouts/flex/../flex/lv_flex.h ****  **********************/
  60:Middlewares/lvgl/src/extra/layouts/flex/../flex/lv_flex.h **** extern uint32_t LV_LAYOUT_FLEX;
  61:Middlewares/lvgl/src/extra/layouts/flex/../flex/lv_flex.h **** extern lv_style_prop_t LV_STYLE_FLEX_FLOW;
  62:Middlewares/lvgl/src/extra/layouts/flex/../flex/lv_flex.h **** extern lv_style_prop_t LV_STYLE_FLEX_MAIN_PLACE;
  63:Middlewares/lvgl/src/extra/layouts/flex/../flex/lv_flex.h **** extern lv_style_prop_t LV_STYLE_FLEX_CROSS_PLACE;
  64:Middlewares/lvgl/src/extra/layouts/flex/../flex/lv_flex.h **** extern lv_style_prop_t LV_STYLE_FLEX_TRACK_PLACE;
  65:Middlewares/lvgl/src/extra/layouts/flex/../flex/lv_flex.h **** extern lv_style_prop_t LV_STYLE_FLEX_GROW;
  66:Middlewares/lvgl/src/extra/layouts/flex/../flex/lv_flex.h **** 
ARM GAS  /tmp/ccyjKoUS.s 			page 26


  67:Middlewares/lvgl/src/extra/layouts/flex/../flex/lv_flex.h **** /**********************
  68:Middlewares/lvgl/src/extra/layouts/flex/../flex/lv_flex.h ****  * GLOBAL PROTOTYPES
  69:Middlewares/lvgl/src/extra/layouts/flex/../flex/lv_flex.h ****  **********************/
  70:Middlewares/lvgl/src/extra/layouts/flex/../flex/lv_flex.h **** 
  71:Middlewares/lvgl/src/extra/layouts/flex/../flex/lv_flex.h **** /**
  72:Middlewares/lvgl/src/extra/layouts/flex/../flex/lv_flex.h ****  * Initialize a felx layout the default values
  73:Middlewares/lvgl/src/extra/layouts/flex/../flex/lv_flex.h ****  * @param flex pointer to a flex layout descriptor
  74:Middlewares/lvgl/src/extra/layouts/flex/../flex/lv_flex.h ****  */
  75:Middlewares/lvgl/src/extra/layouts/flex/../flex/lv_flex.h **** void lv_flex_init(void);
  76:Middlewares/lvgl/src/extra/layouts/flex/../flex/lv_flex.h **** 
  77:Middlewares/lvgl/src/extra/layouts/flex/../flex/lv_flex.h **** /**
  78:Middlewares/lvgl/src/extra/layouts/flex/../flex/lv_flex.h ****  * Set hot the item should flow
  79:Middlewares/lvgl/src/extra/layouts/flex/../flex/lv_flex.h ****  * @param flex pointer to a flex layout descriptor
  80:Middlewares/lvgl/src/extra/layouts/flex/../flex/lv_flex.h ****  * @param flow an element of `lv_flex_flow_t`.
  81:Middlewares/lvgl/src/extra/layouts/flex/../flex/lv_flex.h ****  */
  82:Middlewares/lvgl/src/extra/layouts/flex/../flex/lv_flex.h **** void lv_obj_set_flex_flow(lv_obj_t * obj, lv_flex_flow_t flow);
  83:Middlewares/lvgl/src/extra/layouts/flex/../flex/lv_flex.h **** 
  84:Middlewares/lvgl/src/extra/layouts/flex/../flex/lv_flex.h **** /**
  85:Middlewares/lvgl/src/extra/layouts/flex/../flex/lv_flex.h ****  * Set how to place (where to align) the items an tracks
  86:Middlewares/lvgl/src/extra/layouts/flex/../flex/lv_flex.h ****  * @param flex pointer: to a flex layout descriptor
  87:Middlewares/lvgl/src/extra/layouts/flex/../flex/lv_flex.h ****  * @param main_place where to place the items on main axis (in their track). Any value of `lv_flex_
  88:Middlewares/lvgl/src/extra/layouts/flex/../flex/lv_flex.h ****  * @param cross_place where to place the item in their track on the cross axis. `LV_FLEX_ALIGN_STAR
  89:Middlewares/lvgl/src/extra/layouts/flex/../flex/lv_flex.h ****  * @param track_place where to place the tracks in the cross direction. Any value of `lv_flex_align
  90:Middlewares/lvgl/src/extra/layouts/flex/../flex/lv_flex.h ****  */
  91:Middlewares/lvgl/src/extra/layouts/flex/../flex/lv_flex.h **** void lv_obj_set_flex_align(lv_obj_t * obj, lv_flex_align_t main_place, lv_flex_align_t cross_place,
  92:Middlewares/lvgl/src/extra/layouts/flex/../flex/lv_flex.h **** 
  93:Middlewares/lvgl/src/extra/layouts/flex/../flex/lv_flex.h **** /**
  94:Middlewares/lvgl/src/extra/layouts/flex/../flex/lv_flex.h ****  * Sets the width or height (on main axis) to grow the object in order fill the free space
  95:Middlewares/lvgl/src/extra/layouts/flex/../flex/lv_flex.h ****  * @param obj pointer to an object. The parent must have flex layout else nothing will happen.
  96:Middlewares/lvgl/src/extra/layouts/flex/../flex/lv_flex.h ****  * @param grow a value to set how much free space to take proportionally to other growing items.
  97:Middlewares/lvgl/src/extra/layouts/flex/../flex/lv_flex.h ****  */
  98:Middlewares/lvgl/src/extra/layouts/flex/../flex/lv_flex.h **** void lv_obj_set_flex_grow(lv_obj_t * obj, uint8_t grow);
  99:Middlewares/lvgl/src/extra/layouts/flex/../flex/lv_flex.h **** 
 100:Middlewares/lvgl/src/extra/layouts/flex/../flex/lv_flex.h **** void lv_style_set_flex_flow(lv_style_t * style, lv_flex_flow_t value);
 101:Middlewares/lvgl/src/extra/layouts/flex/../flex/lv_flex.h **** void lv_style_set_flex_main_place(lv_style_t * style, lv_flex_align_t value);
 102:Middlewares/lvgl/src/extra/layouts/flex/../flex/lv_flex.h **** void lv_style_set_flex_cross_place(lv_style_t * style, lv_flex_align_t value);
 103:Middlewares/lvgl/src/extra/layouts/flex/../flex/lv_flex.h **** void lv_style_set_flex_track_place(lv_style_t * style, lv_flex_align_t value);
 104:Middlewares/lvgl/src/extra/layouts/flex/../flex/lv_flex.h **** void lv_style_set_flex_grow(lv_style_t * style, uint8_t value);
 105:Middlewares/lvgl/src/extra/layouts/flex/../flex/lv_flex.h **** void lv_obj_set_style_flex_flow(lv_obj_t * obj, lv_flex_flow_t value, lv_style_selector_t selector)
 106:Middlewares/lvgl/src/extra/layouts/flex/../flex/lv_flex.h **** void lv_obj_set_style_flex_main_place(lv_obj_t * obj, lv_flex_align_t value, lv_style_selector_t se
 107:Middlewares/lvgl/src/extra/layouts/flex/../flex/lv_flex.h **** void lv_obj_set_style_flex_cross_place(lv_obj_t * obj, lv_flex_align_t value, lv_style_selector_t s
 108:Middlewares/lvgl/src/extra/layouts/flex/../flex/lv_flex.h **** void lv_obj_set_style_flex_track_place(lv_obj_t * obj, lv_flex_align_t value, lv_style_selector_t s
 109:Middlewares/lvgl/src/extra/layouts/flex/../flex/lv_flex.h **** void lv_obj_set_style_flex_grow(lv_obj_t * obj, uint8_t value, lv_style_selector_t selector);
 110:Middlewares/lvgl/src/extra/layouts/flex/../flex/lv_flex.h **** 
 111:Middlewares/lvgl/src/extra/layouts/flex/../flex/lv_flex.h **** static inline lv_flex_flow_t lv_obj_get_style_flex_flow(const lv_obj_t * obj, uint32_t part)
 112:Middlewares/lvgl/src/extra/layouts/flex/../flex/lv_flex.h **** {
 113:Middlewares/lvgl/src/extra/layouts/flex/../flex/lv_flex.h ****     lv_style_value_t v = lv_obj_get_style_prop(obj, part, LV_STYLE_FLEX_FLOW);
 114:Middlewares/lvgl/src/extra/layouts/flex/../flex/lv_flex.h ****     return (lv_flex_flow_t)v.num;
 115:Middlewares/lvgl/src/extra/layouts/flex/../flex/lv_flex.h **** }
 116:Middlewares/lvgl/src/extra/layouts/flex/../flex/lv_flex.h **** 
 117:Middlewares/lvgl/src/extra/layouts/flex/../flex/lv_flex.h **** static inline lv_flex_align_t lv_obj_get_style_flex_main_place(const lv_obj_t * obj, uint32_t part)
 118:Middlewares/lvgl/src/extra/layouts/flex/../flex/lv_flex.h **** {
 119:Middlewares/lvgl/src/extra/layouts/flex/../flex/lv_flex.h ****     lv_style_value_t v = lv_obj_get_style_prop(obj, part, LV_STYLE_FLEX_MAIN_PLACE);
 120:Middlewares/lvgl/src/extra/layouts/flex/../flex/lv_flex.h ****     return (lv_flex_align_t)v.num;
 121:Middlewares/lvgl/src/extra/layouts/flex/../flex/lv_flex.h **** }
 122:Middlewares/lvgl/src/extra/layouts/flex/../flex/lv_flex.h **** 
 123:Middlewares/lvgl/src/extra/layouts/flex/../flex/lv_flex.h **** static inline lv_flex_align_t lv_obj_get_style_flex_cross_place(const lv_obj_t * obj, uint32_t part
ARM GAS  /tmp/ccyjKoUS.s 			page 27


 124:Middlewares/lvgl/src/extra/layouts/flex/../flex/lv_flex.h **** {
 125:Middlewares/lvgl/src/extra/layouts/flex/../flex/lv_flex.h ****     lv_style_value_t v = lv_obj_get_style_prop(obj, part, LV_STYLE_FLEX_CROSS_PLACE);
 126:Middlewares/lvgl/src/extra/layouts/flex/../flex/lv_flex.h ****     return (lv_flex_align_t)v.num;
 127:Middlewares/lvgl/src/extra/layouts/flex/../flex/lv_flex.h **** }
 128:Middlewares/lvgl/src/extra/layouts/flex/../flex/lv_flex.h **** 
 129:Middlewares/lvgl/src/extra/layouts/flex/../flex/lv_flex.h **** static inline lv_flex_align_t lv_obj_get_style_flex_track_place(const lv_obj_t * obj, uint32_t part
 130:Middlewares/lvgl/src/extra/layouts/flex/../flex/lv_flex.h **** {
 131:Middlewares/lvgl/src/extra/layouts/flex/../flex/lv_flex.h ****     lv_style_value_t v = lv_obj_get_style_prop(obj, part, LV_STYLE_FLEX_TRACK_PLACE);
 132:Middlewares/lvgl/src/extra/layouts/flex/../flex/lv_flex.h ****     return (lv_flex_align_t)v.num;
 133:Middlewares/lvgl/src/extra/layouts/flex/../flex/lv_flex.h **** }
 134:Middlewares/lvgl/src/extra/layouts/flex/../flex/lv_flex.h **** 
 135:Middlewares/lvgl/src/extra/layouts/flex/../flex/lv_flex.h **** static inline uint8_t lv_obj_get_style_flex_grow(const lv_obj_t * obj, uint32_t part)
 538              		.loc 4 135 23 view .LVU157
 539              	.LBB70:
 136:Middlewares/lvgl/src/extra/layouts/flex/../flex/lv_flex.h **** {
 137:Middlewares/lvgl/src/extra/layouts/flex/../flex/lv_flex.h ****     lv_style_value_t v = lv_obj_get_style_prop(obj, part, LV_STYLE_FLEX_GROW);
 540              		.loc 4 137 5 view .LVU158
 541              		.loc 4 137 26 is_stmt 0 view .LVU159
 542 0092 774B     		ldr	r3, .L52+8
 543 0094 1A88     		ldrh	r2, [r3]
 544 0096 0021     		movs	r1, #0
 545 0098 2046     		mov	r0, r4
 546 009a FFF7FEFF 		bl	lv_obj_get_style_prop
 547              	.LVL57:
 548 009e 0746     		mov	r7, r0
 138:Middlewares/lvgl/src/extra/layouts/flex/../flex/lv_flex.h ****     return (uint8_t)v.num;
 549              		.loc 4 138 5 is_stmt 1 view .LVU160
 550              	.LVL58:
 551              		.loc 4 138 5 is_stmt 0 view .LVU161
 552              	.LBE70:
 553              	.LBE69:
 337:Middlewares/lvgl/src/extra/layouts/flex/lv_flex.c ****                 grow_sum += grow_value;
 554              		.loc 2 337 13 is_stmt 1 view .LVU162
 337:Middlewares/lvgl/src/extra/layouts/flex/lv_flex.c ****                 grow_sum += grow_value;
 555              		.loc 2 337 15 is_stmt 0 view .LVU163
 556 00a0 10F0FF0F 		tst	r0, #255
 557 00a4 70D0     		beq	.L30
 338:Middlewares/lvgl/src/extra/layouts/flex/lv_flex.c ****                 t->grow_item_cnt++;
 558              		.loc 2 338 17 is_stmt 1 view .LVU164
 339:Middlewares/lvgl/src/extra/layouts/flex/lv_flex.c ****                 t->track_fix_main_size += item_gap;
 559              		.loc 2 339 17 view .LVU165
 339:Middlewares/lvgl/src/extra/layouts/flex/lv_flex.c ****                 t->track_fix_main_size += item_gap;
 560              		.loc 2 339 18 is_stmt 0 view .LVU166
 561 00a6 2869     		ldr	r0, [r5, #16]
 562              	.LVL59:
 339:Middlewares/lvgl/src/extra/layouts/flex/lv_flex.c ****                 t->track_fix_main_size += item_gap;
 563              		.loc 2 339 33 view .LVU167
 564 00a8 0130     		adds	r0, r0, #1
 565 00aa 2861     		str	r0, [r5, #16]
 340:Middlewares/lvgl/src/extra/layouts/flex/lv_flex.c ****                 if(t->grow_dsc_calc) {
 566              		.loc 2 340 17 is_stmt 1 view .LVU168
 340:Middlewares/lvgl/src/extra/layouts/flex/lv_flex.c ****                 if(t->grow_dsc_calc) {
 567              		.loc 2 340 40 is_stmt 0 view .LVU169
 568 00ac AB88     		ldrh	r3, [r5, #4]
 569 00ae 5B44     		add	r3, r3, fp
 570 00b0 AB80     		strh	r3, [r5, #4]	@ movhi
 341:Middlewares/lvgl/src/extra/layouts/flex/lv_flex.c ****                     grow_dsc_t * new_dsc = lv_mem_buf_get(sizeof(grow_dsc_t) * (t->grow_item_cnt));
ARM GAS  /tmp/ccyjKoUS.s 			page 28


 571              		.loc 2 341 17 is_stmt 1 view .LVU170
 341:Middlewares/lvgl/src/extra/layouts/flex/lv_flex.c ****                     grow_dsc_t * new_dsc = lv_mem_buf_get(sizeof(grow_dsc_t) * (t->grow_item_cnt));
 572              		.loc 2 341 20 is_stmt 0 view .LVU171
 573 00b2 2B7D     		ldrb	r3, [r5, #20]	@ zero_extendqisi2
 341:Middlewares/lvgl/src/extra/layouts/flex/lv_flex.c ****                     grow_dsc_t * new_dsc = lv_mem_buf_get(sizeof(grow_dsc_t) * (t->grow_item_cnt));
 574              		.loc 2 341 19 view .LVU172
 575 00b4 13F0010F 		tst	r3, #1
 576 00b8 78D0     		beq	.L31
 577              	.LBB71:
 342:Middlewares/lvgl/src/extra/layouts/flex/lv_flex.c ****                     LV_ASSERT_MALLOC(new_dsc);
 578              		.loc 2 342 21 is_stmt 1 view .LVU173
 342:Middlewares/lvgl/src/extra/layouts/flex/lv_flex.c ****                     LV_ASSERT_MALLOC(new_dsc);
 579              		.loc 2 342 44 is_stmt 0 view .LVU174
 580 00ba 00EB8000 		add	r0, r0, r0, lsl #2
 581 00be 8000     		lsls	r0, r0, #2
 582 00c0 FFF7FEFF 		bl	lv_mem_buf_get
 583              	.LVL60:
 343:Middlewares/lvgl/src/extra/layouts/flex/lv_flex.c ****                     if(new_dsc == NULL) return item_id;
 584              		.loc 2 343 21 is_stmt 1 view .LVU175
 343:Middlewares/lvgl/src/extra/layouts/flex/lv_flex.c ****                     if(new_dsc == NULL) return item_id;
 585              		.loc 2 343 21 view .LVU176
 586 00c4 0190     		str	r0, [sp, #4]
 587 00c6 0028     		cmp	r0, #0
 588 00c8 4DD0     		beq	.L33
 343:Middlewares/lvgl/src/extra/layouts/flex/lv_flex.c ****                     if(new_dsc == NULL) return item_id;
 589              		.loc 2 343 21 view .LVU177
 343:Middlewares/lvgl/src/extra/layouts/flex/lv_flex.c ****                     if(new_dsc == NULL) return item_id;
 590              		.loc 2 343 46 view .LVU178
 344:Middlewares/lvgl/src/extra/layouts/flex/lv_flex.c **** 
 591              		.loc 2 344 21 view .LVU179
 346:Middlewares/lvgl/src/extra/layouts/flex/lv_flex.c ****                         lv_memcpy(new_dsc, t->grow_dsc, sizeof(grow_dsc_t) * (t->grow_item_cnt - 1)
 592              		.loc 2 346 21 view .LVU180
 346:Middlewares/lvgl/src/extra/layouts/flex/lv_flex.c ****                         lv_memcpy(new_dsc, t->grow_dsc, sizeof(grow_dsc_t) * (t->grow_item_cnt - 1)
 593              		.loc 2 346 25 is_stmt 0 view .LVU181
 594 00ca E968     		ldr	r1, [r5, #12]
 346:Middlewares/lvgl/src/extra/layouts/flex/lv_flex.c ****                         lv_memcpy(new_dsc, t->grow_dsc, sizeof(grow_dsc_t) * (t->grow_item_cnt - 1)
 595              		.loc 2 346 23 view .LVU182
 596 00cc 51B1     		cbz	r1, .L34
 347:Middlewares/lvgl/src/extra/layouts/flex/lv_flex.c ****                         lv_mem_buf_release(t->grow_dsc);
 597              		.loc 2 347 25 is_stmt 1 view .LVU183
 347:Middlewares/lvgl/src/extra/layouts/flex/lv_flex.c ****                         lv_mem_buf_release(t->grow_dsc);
 598              		.loc 2 347 80 is_stmt 0 view .LVU184
 599 00ce 2B69     		ldr	r3, [r5, #16]
 347:Middlewares/lvgl/src/extra/layouts/flex/lv_flex.c ****                         lv_mem_buf_release(t->grow_dsc);
 600              		.loc 2 347 25 view .LVU185
 601 00d0 03EB8303 		add	r3, r3, r3, lsl #2
 602 00d4 9A00     		lsls	r2, r3, #2
 603 00d6 143A     		subs	r2, r2, #20
 604 00d8 0198     		ldr	r0, [sp, #4]
 347:Middlewares/lvgl/src/extra/layouts/flex/lv_flex.c ****                         lv_mem_buf_release(t->grow_dsc);
 605              		.loc 2 347 25 view .LVU186
 606 00da FFF7FEFF 		bl	lv_memcpy
 607              	.LVL61:
 348:Middlewares/lvgl/src/extra/layouts/flex/lv_flex.c ****                     }
 608              		.loc 2 348 25 is_stmt 1 view .LVU187
 609 00de E868     		ldr	r0, [r5, #12]
 610 00e0 FFF7FEFF 		bl	lv_mem_buf_release
ARM GAS  /tmp/ccyjKoUS.s 			page 29


 611              	.LVL62:
 612              	.L34:
 350:Middlewares/lvgl/src/extra/layouts/flex/lv_flex.c ****                     new_dsc[t->grow_item_cnt - 1].min_size = f->row ? lv_obj_get_style_min_width(it
 613              		.loc 2 350 21 view .LVU188
 350:Middlewares/lvgl/src/extra/layouts/flex/lv_flex.c ****                     new_dsc[t->grow_item_cnt - 1].min_size = f->row ? lv_obj_get_style_min_width(it
 614              		.loc 2 350 30 is_stmt 0 view .LVU189
 615 00e4 2B69     		ldr	r3, [r5, #16]
 350:Middlewares/lvgl/src/extra/layouts/flex/lv_flex.c ****                     new_dsc[t->grow_item_cnt - 1].min_size = f->row ? lv_obj_get_style_min_width(it
 616              		.loc 2 350 28 view .LVU190
 617 00e6 03EB8303 		add	r3, r3, r3, lsl #2
 618 00ea 9B00     		lsls	r3, r3, #2
 619 00ec 143B     		subs	r3, r3, #20
 350:Middlewares/lvgl/src/extra/layouts/flex/lv_flex.c ****                     new_dsc[t->grow_item_cnt - 1].min_size = f->row ? lv_obj_get_style_min_width(it
 620              		.loc 2 350 56 view .LVU191
 621 00ee 019A     		ldr	r2, [sp, #4]
 622 00f0 D450     		str	r4, [r2, r3]
 351:Middlewares/lvgl/src/extra/layouts/flex/lv_flex.c ****                     new_dsc[t->grow_item_cnt - 1].max_size = f->row ? lv_obj_get_style_max_width(it
 623              		.loc 2 351 21 is_stmt 1 view .LVU192
 351:Middlewares/lvgl/src/extra/layouts/flex/lv_flex.c ****                     new_dsc[t->grow_item_cnt - 1].max_size = f->row ? lv_obj_get_style_max_width(it
 624              		.loc 2 351 69 is_stmt 0 view .LVU193
 625 00f2 F378     		ldrb	r3, [r6, #3]	@ zero_extendqisi2
 351:Middlewares/lvgl/src/extra/layouts/flex/lv_flex.c ****                     new_dsc[t->grow_item_cnt - 1].max_size = f->row ? lv_obj_get_style_max_width(it
 626              		.loc 2 351 60 view .LVU194
 627 00f4 13F0010F 		tst	r3, #1
 628 00f8 36D0     		beq	.L35
 629              	.LVL63:
 630              	.LBB72:
 631              	.LBI72:
   7:Middlewares/lvgl/src/extra/layouts/flex/../flex/../../../core/lv_obj_style_gen.h **** {
 632              		.loc 3 7 26 is_stmt 1 view .LVU195
 633              	.LBB73:
   9:Middlewares/lvgl/src/extra/layouts/flex/../flex/../../../core/lv_obj_style_gen.h ****     return (lv_coord_t)v.num;
 634              		.loc 3 9 5 view .LVU196
   9:Middlewares/lvgl/src/extra/layouts/flex/../flex/../../../core/lv_obj_style_gen.h ****     return (lv_coord_t)v.num;
 635              		.loc 3 9 26 is_stmt 0 view .LVU197
 636 00fa 41F20202 		movw	r2, #4098
 637 00fe 0021     		movs	r1, #0
 638 0100 2046     		mov	r0, r4
 639 0102 FFF7FEFF 		bl	lv_obj_get_style_prop
 640              	.LVL64:
  10:Middlewares/lvgl/src/extra/layouts/flex/../flex/../../../core/lv_obj_style_gen.h **** }
 641              		.loc 3 10 5 is_stmt 1 view .LVU198
  10:Middlewares/lvgl/src/extra/layouts/flex/../flex/../../../core/lv_obj_style_gen.h **** }
 642              		.loc 3 10 12 is_stmt 0 view .LVU199
 643 0106 00B2     		sxth	r0, r0
 644              	.LVL65:
 645              	.L36:
  10:Middlewares/lvgl/src/extra/layouts/flex/../flex/../../../core/lv_obj_style_gen.h **** }
 646              		.loc 3 10 12 view .LVU200
 647              	.LBE73:
 648              	.LBE72:
 351:Middlewares/lvgl/src/extra/layouts/flex/lv_flex.c ****                     new_dsc[t->grow_item_cnt - 1].max_size = f->row ? lv_obj_get_style_max_width(it
 649              		.loc 2 351 30 discriminator 4 view .LVU201
 650 0108 2B69     		ldr	r3, [r5, #16]
 351:Middlewares/lvgl/src/extra/layouts/flex/lv_flex.c ****                     new_dsc[t->grow_item_cnt - 1].max_size = f->row ? lv_obj_get_style_max_width(it
 651              		.loc 2 351 28 discriminator 4 view .LVU202
 652 010a 03EB8303 		add	r3, r3, r3, lsl #2
ARM GAS  /tmp/ccyjKoUS.s 			page 30


 653 010e 9B00     		lsls	r3, r3, #2
 654 0110 143B     		subs	r3, r3, #20
 655 0112 019A     		ldr	r2, [sp, #4]
 656 0114 1344     		add	r3, r3, r2
 351:Middlewares/lvgl/src/extra/layouts/flex/lv_flex.c ****                     new_dsc[t->grow_item_cnt - 1].max_size = f->row ? lv_obj_get_style_max_width(it
 657              		.loc 2 351 60 discriminator 4 view .LVU203
 658 0116 9880     		strh	r0, [r3, #4]	@ movhi
 352:Middlewares/lvgl/src/extra/layouts/flex/lv_flex.c ****                     new_dsc[t->grow_item_cnt - 1].grow_value = grow_value;
 659              		.loc 2 352 21 is_stmt 1 discriminator 4 view .LVU204
 352:Middlewares/lvgl/src/extra/layouts/flex/lv_flex.c ****                     new_dsc[t->grow_item_cnt - 1].grow_value = grow_value;
 660              		.loc 2 352 69 is_stmt 0 discriminator 4 view .LVU205
 661 0118 F378     		ldrb	r3, [r6, #3]	@ zero_extendqisi2
 352:Middlewares/lvgl/src/extra/layouts/flex/lv_flex.c ****                     new_dsc[t->grow_item_cnt - 1].grow_value = grow_value;
 662              		.loc 2 352 60 discriminator 4 view .LVU206
 663 011a 13F0010F 		tst	r3, #1
 664 011e 2BD0     		beq	.L37
 665              	.LVL66:
 666              	.LBB74:
 667              	.LBI74:
  13:Middlewares/lvgl/src/extra/layouts/flex/../flex/../../../core/lv_obj_style_gen.h **** {
 668              		.loc 3 13 26 is_stmt 1 view .LVU207
 669              	.LBB75:
  15:Middlewares/lvgl/src/extra/layouts/flex/../flex/../../../core/lv_obj_style_gen.h ****     return (lv_coord_t)v.num;
 670              		.loc 3 15 5 view .LVU208
  15:Middlewares/lvgl/src/extra/layouts/flex/../flex/../../../core/lv_obj_style_gen.h ****     return (lv_coord_t)v.num;
 671              		.loc 3 15 26 is_stmt 0 view .LVU209
 672 0120 41F20302 		movw	r2, #4099
 673 0124 0021     		movs	r1, #0
 674 0126 2046     		mov	r0, r4
 675 0128 FFF7FEFF 		bl	lv_obj_get_style_prop
 676              	.LVL67:
  16:Middlewares/lvgl/src/extra/layouts/flex/../flex/../../../core/lv_obj_style_gen.h **** }
 677              		.loc 3 16 5 is_stmt 1 view .LVU210
  16:Middlewares/lvgl/src/extra/layouts/flex/../flex/../../../core/lv_obj_style_gen.h **** }
 678              		.loc 3 16 12 is_stmt 0 view .LVU211
 679 012c 00B2     		sxth	r0, r0
 680              	.LVL68:
 681              	.L38:
  16:Middlewares/lvgl/src/extra/layouts/flex/../flex/../../../core/lv_obj_style_gen.h **** }
 682              		.loc 3 16 12 view .LVU212
 683              	.LBE75:
 684              	.LBE74:
 352:Middlewares/lvgl/src/extra/layouts/flex/lv_flex.c ****                     new_dsc[t->grow_item_cnt - 1].grow_value = grow_value;
 685              		.loc 2 352 30 discriminator 4 view .LVU213
 686 012e 2B69     		ldr	r3, [r5, #16]
 352:Middlewares/lvgl/src/extra/layouts/flex/lv_flex.c ****                     new_dsc[t->grow_item_cnt - 1].grow_value = grow_value;
 687              		.loc 2 352 28 discriminator 4 view .LVU214
 688 0130 03EB8303 		add	r3, r3, r3, lsl #2
 689 0134 9B00     		lsls	r3, r3, #2
 690 0136 143B     		subs	r3, r3, #20
 691 0138 0199     		ldr	r1, [sp, #4]
 692 013a 0B44     		add	r3, r3, r1
 352:Middlewares/lvgl/src/extra/layouts/flex/lv_flex.c ****                     new_dsc[t->grow_item_cnt - 1].grow_value = grow_value;
 693              		.loc 2 352 60 discriminator 4 view .LVU215
 694 013c D880     		strh	r0, [r3, #6]	@ movhi
 353:Middlewares/lvgl/src/extra/layouts/flex/lv_flex.c ****                     new_dsc[t->grow_item_cnt - 1].clamped = 0;
 695              		.loc 2 353 21 is_stmt 1 discriminator 4 view .LVU216
ARM GAS  /tmp/ccyjKoUS.s 			page 31


 353:Middlewares/lvgl/src/extra/layouts/flex/lv_flex.c ****                     new_dsc[t->grow_item_cnt - 1].clamped = 0;
 696              		.loc 2 353 30 is_stmt 0 discriminator 4 view .LVU217
 697 013e 2B69     		ldr	r3, [r5, #16]
 353:Middlewares/lvgl/src/extra/layouts/flex/lv_flex.c ****                     new_dsc[t->grow_item_cnt - 1].clamped = 0;
 698              		.loc 2 353 28 discriminator 4 view .LVU218
 699 0140 03EB8303 		add	r3, r3, r3, lsl #2
 700 0144 9B00     		lsls	r3, r3, #2
 701 0146 143B     		subs	r3, r3, #20
 702 0148 0B44     		add	r3, r3, r1
 353:Middlewares/lvgl/src/extra/layouts/flex/lv_flex.c ****                     new_dsc[t->grow_item_cnt - 1].clamped = 0;
 703              		.loc 2 353 62 discriminator 4 view .LVU219
 704 014a FFB2     		uxtb	r7, r7
 705 014c DF60     		str	r7, [r3, #12]
 354:Middlewares/lvgl/src/extra/layouts/flex/lv_flex.c ****                     t->grow_dsc = new_dsc;
 706              		.loc 2 354 21 is_stmt 1 discriminator 4 view .LVU220
 354:Middlewares/lvgl/src/extra/layouts/flex/lv_flex.c ****                     t->grow_dsc = new_dsc;
 707              		.loc 2 354 30 is_stmt 0 discriminator 4 view .LVU221
 708 014e 2B69     		ldr	r3, [r5, #16]
 354:Middlewares/lvgl/src/extra/layouts/flex/lv_flex.c ****                     t->grow_dsc = new_dsc;
 709              		.loc 2 354 28 discriminator 4 view .LVU222
 710 0150 03EB8303 		add	r3, r3, r3, lsl #2
 711 0154 9B00     		lsls	r3, r3, #2
 712 0156 143B     		subs	r3, r3, #20
 713 0158 0B44     		add	r3, r3, r1
 354:Middlewares/lvgl/src/extra/layouts/flex/lv_flex.c ****                     t->grow_dsc = new_dsc;
 714              		.loc 2 354 59 discriminator 4 view .LVU223
 715 015a 1A7C     		ldrb	r2, [r3, #16]	@ zero_extendqisi2
 716 015c 6FF30002 		bfc	r2, #0, #1
 717 0160 1A74     		strb	r2, [r3, #16]
 355:Middlewares/lvgl/src/extra/layouts/flex/lv_flex.c ****                 }
 718              		.loc 2 355 21 is_stmt 1 discriminator 4 view .LVU224
 355:Middlewares/lvgl/src/extra/layouts/flex/lv_flex.c ****                 }
 719              		.loc 2 355 33 is_stmt 0 discriminator 4 view .LVU225
 720 0162 E960     		str	r1, [r5, #12]
 721 0164 22E0     		b	.L31
 722              	.LVL69:
 723              	.L33:
 343:Middlewares/lvgl/src/extra/layouts/flex/lv_flex.c ****                     if(new_dsc == NULL) return item_id;
 724              		.loc 2 343 21 is_stmt 1 discriminator 1 view .LVU226
 343:Middlewares/lvgl/src/extra/layouts/flex/lv_flex.c ****                     if(new_dsc == NULL) return item_id;
 725              		.loc 2 343 21 discriminator 1 view .LVU227
 343:Middlewares/lvgl/src/extra/layouts/flex/lv_flex.c ****                     if(new_dsc == NULL) return item_id;
 726              		.loc 2 343 21 discriminator 1 view .LVU228
 343:Middlewares/lvgl/src/extra/layouts/flex/lv_flex.c ****                     if(new_dsc == NULL) return item_id;
 727              		.loc 2 343 21 discriminator 1 view .LVU229
 728 0166 FEE7     		b	.L33
 729              	.LVL70:
 730              	.L35:
 731              	.LBB76:
 732              	.LBI76:
  23:Middlewares/lvgl/src/extra/layouts/flex/../flex/../../../core/lv_obj_style_gen.h **** }
  24:Middlewares/lvgl/src/extra/layouts/flex/../flex/../../../core/lv_obj_style_gen.h **** 
  25:Middlewares/lvgl/src/extra/layouts/flex/../flex/../../../core/lv_obj_style_gen.h **** static inline lv_coord_t lv_obj_get_style_min_height(const struct _lv_obj_t * obj, uint32_t part)
 733              		.loc 3 25 26 view .LVU230
 734              	.LBB77:
  26:Middlewares/lvgl/src/extra/layouts/flex/../flex/../../../core/lv_obj_style_gen.h **** {
  27:Middlewares/lvgl/src/extra/layouts/flex/../flex/../../../core/lv_obj_style_gen.h ****     lv_style_value_t v = lv_obj_get_style_prop(obj, part, LV_STYLE_MIN_HEIGHT);
ARM GAS  /tmp/ccyjKoUS.s 			page 32


 735              		.loc 3 27 5 view .LVU231
 736              		.loc 3 27 26 is_stmt 0 view .LVU232
 737 0168 41F20502 		movw	r2, #4101
 738 016c 0021     		movs	r1, #0
 739 016e 2046     		mov	r0, r4
 740 0170 FFF7FEFF 		bl	lv_obj_get_style_prop
 741              	.LVL71:
  28:Middlewares/lvgl/src/extra/layouts/flex/../flex/../../../core/lv_obj_style_gen.h ****     return (lv_coord_t)v.num;
 742              		.loc 3 28 5 is_stmt 1 view .LVU233
 743              		.loc 3 28 12 is_stmt 0 view .LVU234
 744 0174 00B2     		sxth	r0, r0
 745              	.LVL72:
 746              		.loc 3 28 12 view .LVU235
 747 0176 C7E7     		b	.L36
 748              	.L37:
 749              	.LVL73:
 750              		.loc 3 28 12 view .LVU236
 751              	.LBE77:
 752              	.LBE76:
 753              	.LBB78:
 754              	.LBI78:
  29:Middlewares/lvgl/src/extra/layouts/flex/../flex/../../../core/lv_obj_style_gen.h **** }
  30:Middlewares/lvgl/src/extra/layouts/flex/../flex/../../../core/lv_obj_style_gen.h **** 
  31:Middlewares/lvgl/src/extra/layouts/flex/../flex/../../../core/lv_obj_style_gen.h **** static inline lv_coord_t lv_obj_get_style_max_height(const struct _lv_obj_t * obj, uint32_t part)
 755              		.loc 3 31 26 is_stmt 1 view .LVU237
 756              	.LBB79:
  32:Middlewares/lvgl/src/extra/layouts/flex/../flex/../../../core/lv_obj_style_gen.h **** {
  33:Middlewares/lvgl/src/extra/layouts/flex/../flex/../../../core/lv_obj_style_gen.h ****     lv_style_value_t v = lv_obj_get_style_prop(obj, part, LV_STYLE_MAX_HEIGHT);
 757              		.loc 3 33 5 view .LVU238
 758              		.loc 3 33 26 is_stmt 0 view .LVU239
 759 0178 41F20602 		movw	r2, #4102
 760 017c 0021     		movs	r1, #0
 761 017e 2046     		mov	r0, r4
 762 0180 FFF7FEFF 		bl	lv_obj_get_style_prop
 763              	.LVL74:
  34:Middlewares/lvgl/src/extra/layouts/flex/../flex/../../../core/lv_obj_style_gen.h ****     return (lv_coord_t)v.num;
 764              		.loc 3 34 5 is_stmt 1 view .LVU240
 765              		.loc 3 34 12 is_stmt 0 view .LVU241
 766 0184 00B2     		sxth	r0, r0
 767              	.LVL75:
 768              		.loc 3 34 12 view .LVU242
 769 0186 D2E7     		b	.L38
 770              	.LVL76:
 771              	.L30:
 772              		.loc 3 34 12 view .LVU243
 773              	.LBE79:
 774              	.LBE78:
 775              	.LBE71:
 776              	.LBB80:
 358:Middlewares/lvgl/src/extra/layouts/flex/lv_flex.c ****                 if(f->wrap && t->track_fix_main_size + item_size > max_main_size) break;
 777              		.loc 2 358 17 is_stmt 1 view .LVU244
 358:Middlewares/lvgl/src/extra/layouts/flex/lv_flex.c ****                 if(f->wrap && t->track_fix_main_size + item_size > max_main_size) break;
 778              		.loc 2 358 40 is_stmt 0 view .LVU245
 779 0188 2046     		mov	r0, r4
 780              	.LVL77:
 358:Middlewares/lvgl/src/extra/layouts/flex/lv_flex.c ****                 if(f->wrap && t->track_fix_main_size + item_size > max_main_size) break;
 781              		.loc 2 358 40 view .LVU246
ARM GAS  /tmp/ccyjKoUS.s 			page 33


 782 018a 039B     		ldr	r3, [sp, #12]
 783 018c 9847     		blx	r3
 784              	.LVL78:
 359:Middlewares/lvgl/src/extra/layouts/flex/lv_flex.c ****                 t->track_fix_main_size += item_size + item_gap;
 785              		.loc 2 359 17 is_stmt 1 view .LVU247
 359:Middlewares/lvgl/src/extra/layouts/flex/lv_flex.c ****                 t->track_fix_main_size += item_size + item_gap;
 786              		.loc 2 359 20 is_stmt 0 view .LVU248
 787 018e F378     		ldrb	r3, [r6, #3]	@ zero_extendqisi2
 359:Middlewares/lvgl/src/extra/layouts/flex/lv_flex.c ****                 t->track_fix_main_size += item_size + item_gap;
 788              		.loc 2 359 19 view .LVU249
 789 0190 13F0020F 		tst	r3, #2
 790 0194 05D0     		beq	.L39
 359:Middlewares/lvgl/src/extra/layouts/flex/lv_flex.c ****                 t->track_fix_main_size += item_size + item_gap;
 791              		.loc 2 359 32 discriminator 1 view .LVU250
 792 0196 B5F90430 		ldrsh	r3, [r5, #4]
 359:Middlewares/lvgl/src/extra/layouts/flex/lv_flex.c ****                 t->track_fix_main_size += item_size + item_gap;
 793              		.loc 2 359 54 discriminator 1 view .LVU251
 794 019a 0344     		add	r3, r3, r0
 359:Middlewares/lvgl/src/extra/layouts/flex/lv_flex.c ****                 t->track_fix_main_size += item_size + item_gap;
 795              		.loc 2 359 28 discriminator 1 view .LVU252
 796 019c 029A     		ldr	r2, [sp, #8]
 797 019e 9342     		cmp	r3, r2
 798 01a0 34DC     		bgt	.L28
 799              	.L39:
 360:Middlewares/lvgl/src/extra/layouts/flex/lv_flex.c ****             }
 800              		.loc 2 360 17 is_stmt 1 view .LVU253
 360:Middlewares/lvgl/src/extra/layouts/flex/lv_flex.c ****             }
 801              		.loc 2 360 53 is_stmt 0 view .LVU254
 802 01a2 5844     		add	r0, r0, fp
 803              	.LVL79:
 360:Middlewares/lvgl/src/extra/layouts/flex/lv_flex.c ****             }
 804              		.loc 2 360 53 view .LVU255
 805 01a4 80B2     		uxth	r0, r0
 360:Middlewares/lvgl/src/extra/layouts/flex/lv_flex.c ****             }
 806              		.loc 2 360 40 view .LVU256
 807 01a6 AB88     		ldrh	r3, [r5, #4]
 808 01a8 1844     		add	r0, r0, r3
 809 01aa A880     		strh	r0, [r5, #4]	@ movhi
 810              	.L31:
 360:Middlewares/lvgl/src/extra/layouts/flex/lv_flex.c ****             }
 811              		.loc 2 360 40 view .LVU257
 812              	.LBE80:
 364:Middlewares/lvgl/src/extra/layouts/flex/lv_flex.c ****             t->item_cnt++;
 813              		.loc 2 364 13 is_stmt 1 view .LVU258
 364:Middlewares/lvgl/src/extra/layouts/flex/lv_flex.c ****             t->item_cnt++;
 814              		.loc 2 364 35 is_stmt 0 view .LVU259
 815 01ac 2046     		mov	r0, r4
 816 01ae D047     		blx	r10
 817              	.LVL80:
 818 01b0 B5F90030 		ldrsh	r3, [r5]
 364:Middlewares/lvgl/src/extra/layouts/flex/lv_flex.c ****             t->item_cnt++;
 819              		.loc 2 364 33 view .LVU260
 820 01b4 9842     		cmp	r0, r3
 821 01b6 02DD     		ble	.L40
 364:Middlewares/lvgl/src/extra/layouts/flex/lv_flex.c ****             t->item_cnt++;
 822              		.loc 2 364 35 discriminator 1 view .LVU261
 823 01b8 2046     		mov	r0, r4
ARM GAS  /tmp/ccyjKoUS.s 			page 34


 824 01ba D047     		blx	r10
 825              	.LVL81:
 826 01bc 0346     		mov	r3, r0
 827              	.L40:
 364:Middlewares/lvgl/src/extra/layouts/flex/lv_flex.c ****             t->item_cnt++;
 828              		.loc 2 364 33 discriminator 4 view .LVU262
 829 01be 2B80     		strh	r3, [r5]	@ movhi
 365:Middlewares/lvgl/src/extra/layouts/flex/lv_flex.c ****         }
 830              		.loc 2 365 13 is_stmt 1 discriminator 4 view .LVU263
 365:Middlewares/lvgl/src/extra/layouts/flex/lv_flex.c ****         }
 831              		.loc 2 365 14 is_stmt 0 discriminator 4 view .LVU264
 832 01c0 AB68     		ldr	r3, [r5, #8]
 365:Middlewares/lvgl/src/extra/layouts/flex/lv_flex.c ****         }
 833              		.loc 2 365 24 discriminator 4 view .LVU265
 834 01c2 0133     		adds	r3, r3, #1
 835 01c4 AB60     		str	r3, [r5, #8]
 836 01c6 1AE0     		b	.L29
 837              	.L48:
 365:Middlewares/lvgl/src/extra/layouts/flex/lv_flex.c ****         }
 838              		.loc 2 365 24 discriminator 4 view .LVU266
 839              	.LBE68:
 368:Middlewares/lvgl/src/extra/layouts/flex/lv_flex.c ****         if(item_id < 0) break;
 840              		.loc 2 368 32 view .LVU267
 841 01c8 0121     		movs	r1, #1
 842              	.L41:
 368:Middlewares/lvgl/src/extra/layouts/flex/lv_flex.c ****         if(item_id < 0) break;
 843              		.loc 2 368 17 discriminator 4 view .LVU268
 844 01ca 059B     		ldr	r3, [sp, #20]
 845 01cc 1944     		add	r1, r1, r3
 846 01ce 0591     		str	r1, [sp, #20]
 369:Middlewares/lvgl/src/extra/layouts/flex/lv_flex.c ****         item = lv_obj_get_child(cont, item_id);
 847              		.loc 2 369 9 is_stmt 1 discriminator 4 view .LVU269
 369:Middlewares/lvgl/src/extra/layouts/flex/lv_flex.c ****         item = lv_obj_get_child(cont, item_id);
 848              		.loc 2 369 11 is_stmt 0 discriminator 4 view .LVU270
 849 01d0 0029     		cmp	r1, #0
 850 01d2 1BDB     		blt	.L28
 370:Middlewares/lvgl/src/extra/layouts/flex/lv_flex.c ****     }
 851              		.loc 2 370 9 is_stmt 1 view .LVU271
 370:Middlewares/lvgl/src/extra/layouts/flex/lv_flex.c ****     }
 852              		.loc 2 370 16 is_stmt 0 view .LVU272
 853 01d4 4846     		mov	r0, r9
 854 01d6 FFF7FEFF 		bl	lv_obj_get_child
 855              	.LVL82:
 856 01da 0446     		mov	r4, r0
 857              	.LVL83:
 858              	.L26:
 332:Middlewares/lvgl/src/extra/layouts/flex/lv_flex.c ****         if(item_id != item_start_id && lv_obj_has_flag(item, LV_OBJ_FLAG_FLEX_IN_NEW_TRACK)) break;
 859              		.loc 2 332 10 is_stmt 1 view .LVU273
 860 01dc B4B1     		cbz	r4, .L28
 333:Middlewares/lvgl/src/extra/layouts/flex/lv_flex.c **** 
 861              		.loc 2 333 9 view .LVU274
 333:Middlewares/lvgl/src/extra/layouts/flex/lv_flex.c **** 
 862              		.loc 2 333 20 is_stmt 0 view .LVU275
 863 01de 059B     		ldr	r3, [sp, #20]
 333:Middlewares/lvgl/src/extra/layouts/flex/lv_flex.c **** 
 864              		.loc 2 333 11 view .LVU276
 865 01e0 4345     		cmp	r3, r8
ARM GAS  /tmp/ccyjKoUS.s 			page 35


 866 01e2 05D0     		beq	.L27
 333:Middlewares/lvgl/src/extra/layouts/flex/lv_flex.c **** 
 867              		.loc 2 333 40 discriminator 1 view .LVU277
 868 01e4 4FF40001 		mov	r1, #8388608
 869 01e8 2046     		mov	r0, r4
 333:Middlewares/lvgl/src/extra/layouts/flex/lv_flex.c **** 
 870              		.loc 2 333 40 discriminator 1 view .LVU278
 871 01ea FFF7FEFF 		bl	lv_obj_has_flag
 872              	.LVL84:
 333:Middlewares/lvgl/src/extra/layouts/flex/lv_flex.c **** 
 873              		.loc 2 333 37 discriminator 1 view .LVU279
 874 01ee 68B9     		cbnz	r0, .L28
 875              	.L27:
 335:Middlewares/lvgl/src/extra/layouts/flex/lv_flex.c ****             uint8_t grow_value = lv_obj_get_style_flex_grow(item, LV_PART_MAIN);
 876              		.loc 2 335 9 is_stmt 1 view .LVU280
 335:Middlewares/lvgl/src/extra/layouts/flex/lv_flex.c ****             uint8_t grow_value = lv_obj_get_style_flex_grow(item, LV_PART_MAIN);
 877              		.loc 2 335 13 is_stmt 0 view .LVU281
 878 01f0 2049     		ldr	r1, .L52+12
 879 01f2 2046     		mov	r0, r4
 880 01f4 FFF7FEFF 		bl	lv_obj_has_flag_any
 881              	.LVL85:
 335:Middlewares/lvgl/src/extra/layouts/flex/lv_flex.c ****             uint8_t grow_value = lv_obj_get_style_flex_grow(item, LV_PART_MAIN);
 882              		.loc 2 335 11 view .LVU282
 883 01f8 0028     		cmp	r0, #0
 884 01fa 3FF44AAF 		beq	.L50
 885              	.L29:
 368:Middlewares/lvgl/src/extra/layouts/flex/lv_flex.c ****         if(item_id < 0) break;
 886              		.loc 2 368 9 is_stmt 1 view .LVU283
 368:Middlewares/lvgl/src/extra/layouts/flex/lv_flex.c ****         if(item_id < 0) break;
 887              		.loc 2 368 27 is_stmt 0 view .LVU284
 888 01fe F378     		ldrb	r3, [r6, #3]	@ zero_extendqisi2
 368:Middlewares/lvgl/src/extra/layouts/flex/lv_flex.c ****         if(item_id < 0) break;
 889              		.loc 2 368 32 view .LVU285
 890 0200 13F0040F 		tst	r3, #4
 891 0204 E0D0     		beq	.L48
 892 0206 4FF0FF31 		mov	r1, #-1
 893 020a DEE7     		b	.L41
 894              	.L28:
 373:Middlewares/lvgl/src/extra/layouts/flex/lv_flex.c **** 
 895              		.loc 2 373 5 is_stmt 1 view .LVU286
 373:Middlewares/lvgl/src/extra/layouts/flex/lv_flex.c **** 
 896              		.loc 2 373 9 is_stmt 0 view .LVU287
 897 020c B5F90430 		ldrsh	r3, [r5, #4]
 373:Middlewares/lvgl/src/extra/layouts/flex/lv_flex.c **** 
 898              		.loc 2 373 7 view .LVU288
 899 0210 002B     		cmp	r3, #0
 900 0212 02DD     		ble	.L43
 373:Middlewares/lvgl/src/extra/layouts/flex/lv_flex.c **** 
 901              		.loc 2 373 36 is_stmt 1 discriminator 1 view .LVU289
 373:Middlewares/lvgl/src/extra/layouts/flex/lv_flex.c **** 
 902              		.loc 2 373 59 is_stmt 0 discriminator 1 view .LVU290
 903 0214 A3EB0B03 		sub	r3, r3, fp
 904 0218 AB80     		strh	r3, [r5, #4]	@ movhi
 905              	.L43:
 376:Middlewares/lvgl/src/extra/layouts/flex/lv_flex.c **** 
 906              		.loc 2 376 5 is_stmt 1 view .LVU291
 376:Middlewares/lvgl/src/extra/layouts/flex/lv_flex.c **** 
ARM GAS  /tmp/ccyjKoUS.s 			page 36


 907              		.loc 2 376 27 is_stmt 0 view .LVU292
 908 021a 2B69     		ldr	r3, [r5, #16]
 376:Middlewares/lvgl/src/extra/layouts/flex/lv_flex.c **** 
 909              		.loc 2 376 24 view .LVU293
 910 021c 13B9     		cbnz	r3, .L44
 376:Middlewares/lvgl/src/extra/layouts/flex/lv_flex.c **** 
 911              		.loc 2 376 24 discriminator 1 view .LVU294
 912 021e B5F90430 		ldrsh	r3, [r5, #4]
 913 0222 0293     		str	r3, [sp, #8]
 914              	.L44:
 376:Middlewares/lvgl/src/extra/layouts/flex/lv_flex.c **** 
 915              		.loc 2 376 24 discriminator 4 view .LVU295
 916 0224 029B     		ldr	r3, [sp, #8]
 917 0226 6B80     		strh	r3, [r5, #2]	@ movhi
 379:Middlewares/lvgl/src/extra/layouts/flex/lv_flex.c ****         item = cont->spec_attr->children[item_id];
 918              		.loc 2 379 5 is_stmt 1 discriminator 4 view .LVU296
 379:Middlewares/lvgl/src/extra/layouts/flex/lv_flex.c ****         item = cont->spec_attr->children[item_id];
 919              		.loc 2 379 7 is_stmt 0 discriminator 4 view .LVU297
 920 0228 14B1     		cbz	r4, .L45
 379:Middlewares/lvgl/src/extra/layouts/flex/lv_flex.c ****         item = cont->spec_attr->children[item_id];
 921              		.loc 2 379 24 discriminator 1 view .LVU298
 922 022a 059B     		ldr	r3, [sp, #20]
 379:Middlewares/lvgl/src/extra/layouts/flex/lv_flex.c ****         item = cont->spec_attr->children[item_id];
 923              		.loc 2 379 13 discriminator 1 view .LVU299
 924 022c 4345     		cmp	r3, r8
 925 022e 03D0     		beq	.L51
 926              	.L45:
 389:Middlewares/lvgl/src/extra/layouts/flex/lv_flex.c **** }
 927              		.loc 2 389 5 is_stmt 1 view .LVU300
 390:Middlewares/lvgl/src/extra/layouts/flex/lv_flex.c **** 
 928              		.loc 2 390 1 is_stmt 0 view .LVU301
 929 0230 0598     		ldr	r0, [sp, #20]
 930 0232 07B0     		add	sp, sp, #28
 931              	.LCFI5:
 932              		.cfi_remember_state
 933              		.cfi_def_cfa_offset 36
 934              		@ sp needed
 935 0234 BDE8F08F 		pop	{r4, r5, r6, r7, r8, r9, r10, fp, pc}
 936              	.LVL86:
 937              	.L51:
 938              	.LCFI6:
 939              		.cfi_restore_state
 380:Middlewares/lvgl/src/extra/layouts/flex/lv_flex.c ****         get_next_item(cont, f->rev, &item_id);
 940              		.loc 2 380 9 is_stmt 1 view .LVU302
 380:Middlewares/lvgl/src/extra/layouts/flex/lv_flex.c ****         get_next_item(cont, f->rev, &item_id);
 941              		.loc 2 380 20 is_stmt 0 view .LVU303
 942 0238 D9F80820 		ldr	r2, [r9, #8]
 380:Middlewares/lvgl/src/extra/layouts/flex/lv_flex.c ****         get_next_item(cont, f->rev, &item_id);
 943              		.loc 2 380 31 view .LVU304
 944 023c 1268     		ldr	r2, [r2]
 380:Middlewares/lvgl/src/extra/layouts/flex/lv_flex.c ****         get_next_item(cont, f->rev, &item_id);
 945              		.loc 2 380 14 view .LVU305
 946 023e 52F82340 		ldr	r4, [r2, r3, lsl #2]
 947              	.LVL87:
 381:Middlewares/lvgl/src/extra/layouts/flex/lv_flex.c ****         if(item) {
 948              		.loc 2 381 9 is_stmt 1 view .LVU306
 381:Middlewares/lvgl/src/extra/layouts/flex/lv_flex.c ****         if(item) {
ARM GAS  /tmp/ccyjKoUS.s 			page 37


 949              		.loc 2 381 30 is_stmt 0 view .LVU307
 950 0242 F178     		ldrb	r1, [r6, #3]	@ zero_extendqisi2
 381:Middlewares/lvgl/src/extra/layouts/flex/lv_flex.c ****         if(item) {
 951              		.loc 2 381 9 view .LVU308
 952 0244 05AA     		add	r2, sp, #20
 953 0246 C1F38001 		ubfx	r1, r1, #2, #1
 954 024a 4846     		mov	r0, r9
 955 024c FFF7FEFF 		bl	get_next_item
 956              	.LVL88:
 382:Middlewares/lvgl/src/extra/layouts/flex/lv_flex.c ****             t->track_cross_size = get_cross_size(item);
 957              		.loc 2 382 9 is_stmt 1 view .LVU309
 382:Middlewares/lvgl/src/extra/layouts/flex/lv_flex.c ****             t->track_cross_size = get_cross_size(item);
 958              		.loc 2 382 11 is_stmt 0 view .LVU310
 959 0250 002C     		cmp	r4, #0
 960 0252 EDD0     		beq	.L45
 383:Middlewares/lvgl/src/extra/layouts/flex/lv_flex.c ****             t->track_main_size = get_main_size(item);
 961              		.loc 2 383 13 is_stmt 1 view .LVU311
 383:Middlewares/lvgl/src/extra/layouts/flex/lv_flex.c ****             t->track_main_size = get_main_size(item);
 962              		.loc 2 383 35 is_stmt 0 view .LVU312
 963 0254 2046     		mov	r0, r4
 964 0256 D047     		blx	r10
 965              	.LVL89:
 383:Middlewares/lvgl/src/extra/layouts/flex/lv_flex.c ****             t->track_main_size = get_main_size(item);
 966              		.loc 2 383 33 view .LVU313
 967 0258 2880     		strh	r0, [r5]	@ movhi
 384:Middlewares/lvgl/src/extra/layouts/flex/lv_flex.c ****             t->item_cnt = 1;
 968              		.loc 2 384 13 is_stmt 1 view .LVU314
 384:Middlewares/lvgl/src/extra/layouts/flex/lv_flex.c ****             t->item_cnt = 1;
 969              		.loc 2 384 34 is_stmt 0 view .LVU315
 970 025a 2046     		mov	r0, r4
 971 025c 039B     		ldr	r3, [sp, #12]
 972 025e 9847     		blx	r3
 973              	.LVL90:
 384:Middlewares/lvgl/src/extra/layouts/flex/lv_flex.c ****             t->item_cnt = 1;
 974              		.loc 2 384 32 view .LVU316
 975 0260 6880     		strh	r0, [r5, #2]	@ movhi
 385:Middlewares/lvgl/src/extra/layouts/flex/lv_flex.c ****         }
 976              		.loc 2 385 13 is_stmt 1 view .LVU317
 385:Middlewares/lvgl/src/extra/layouts/flex/lv_flex.c ****         }
 977              		.loc 2 385 25 is_stmt 0 view .LVU318
 978 0262 0123     		movs	r3, #1
 979 0264 AB60     		str	r3, [r5, #8]
 980 0266 E3E7     		b	.L45
 981              	.L53:
 982              		.align	2
 983              	.L52:
 984 0268 00000000 		.word	lv_obj_get_width
 985 026c 00000000 		.word	lv_obj_get_height
 986 0270 00000000 		.word	.LANCHOR0
 987 0274 01800100 		.word	98305
 988              		.cfi_endproc
 989              	.LFE178:
 991              		.section	.text.children_repos,"ax",%progbits
 992              		.align	1
 993              		.syntax unified
 994              		.thumb
 995              		.thumb_func
ARM GAS  /tmp/ccyjKoUS.s 			page 38


 996              		.fpu softvfp
 998              	children_repos:
 999              	.LVL91:
 1000              	.LFB179:
 396:Middlewares/lvgl/src/extra/layouts/flex/lv_flex.c ****     void (*area_set_main_size)(lv_area_t *, lv_coord_t) = (f->row ? lv_area_set_width : lv_area_set
 1001              		.loc 2 396 1 is_stmt 1 view -0
 1002              		.cfi_startproc
 1003              		@ args = 20, pretend = 0, frame = 64
 1004              		@ frame_needed = 0, uses_anonymous_args = 0
 396:Middlewares/lvgl/src/extra/layouts/flex/lv_flex.c ****     void (*area_set_main_size)(lv_area_t *, lv_coord_t) = (f->row ? lv_area_set_width : lv_area_set
 1005              		.loc 2 396 1 is_stmt 0 view .LVU320
 1006 0000 2DE9F04F 		push	{r4, r5, r6, r7, r8, r9, r10, fp, lr}
 1007              	.LCFI7:
 1008              		.cfi_def_cfa_offset 36
 1009              		.cfi_offset 4, -36
 1010              		.cfi_offset 5, -32
 1011              		.cfi_offset 6, -28
 1012              		.cfi_offset 7, -24
 1013              		.cfi_offset 8, -20
 1014              		.cfi_offset 9, -16
 1015              		.cfi_offset 10, -12
 1016              		.cfi_offset 11, -8
 1017              		.cfi_offset 14, -4
 1018 0004 93B0     		sub	sp, sp, #76
 1019              	.LCFI8:
 1020              		.cfi_def_cfa_offset 112
 1021 0006 0490     		str	r0, [sp, #16]
 1022 0008 8946     		mov	r9, r1
 1023 000a 0D92     		str	r2, [sp, #52]
 1024 000c 0593     		str	r3, [sp, #20]
 1025 000e BDF97030 		ldrsh	r3, [sp, #112]
 1026              	.LVL92:
 396:Middlewares/lvgl/src/extra/layouts/flex/lv_flex.c ****     void (*area_set_main_size)(lv_area_t *, lv_coord_t) = (f->row ? lv_area_set_width : lv_area_set
 1027              		.loc 2 396 1 view .LVU321
 1028 0012 0893     		str	r3, [sp, #32]
 1029 0014 BDF97430 		ldrsh	r3, [sp, #116]
 1030 0018 0993     		str	r3, [sp, #36]
 1031 001a BDF97C30 		ldrsh	r3, [sp, #124]
 1032 001e 0A93     		str	r3, [sp, #40]
 1033 0020 209C     		ldr	r4, [sp, #128]
 397:Middlewares/lvgl/src/extra/layouts/flex/lv_flex.c ****     lv_coord_t (*area_get_main_size)(const lv_area_t *) = (f->row ? lv_area_get_width : lv_area_get
 1034              		.loc 2 397 5 is_stmt 1 view .LVU322
 397:Middlewares/lvgl/src/extra/layouts/flex/lv_flex.c ****     lv_coord_t (*area_get_main_size)(const lv_area_t *) = (f->row ? lv_area_get_width : lv_area_get
 1035              		.loc 2 397 67 is_stmt 0 view .LVU323
 1036 0022 CB78     		ldrb	r3, [r1, #3]	@ zero_extendqisi2
 397:Middlewares/lvgl/src/extra/layouts/flex/lv_flex.c ****     lv_coord_t (*area_get_main_size)(const lv_area_t *) = (f->row ? lv_area_get_width : lv_area_get
 1037              		.loc 2 397 87 view .LVU324
 1038 0024 13F00103 		ands	r3, r3, #1
 1039 0028 09D0     		beq	.L100
 1040 002a 824A     		ldr	r2, .L119
 1041              	.LVL93:
 397:Middlewares/lvgl/src/extra/layouts/flex/lv_flex.c ****     lv_coord_t (*area_get_main_size)(const lv_area_t *) = (f->row ? lv_area_get_width : lv_area_get
 1042              		.loc 2 397 87 view .LVU325
 1043 002c 0C92     		str	r2, [sp, #48]
 1044              	.L55:
 1045              	.LVL94:
 398:Middlewares/lvgl/src/extra/layouts/flex/lv_flex.c ****     lv_coord_t (*area_get_cross_size)(const lv_area_t *) = (!f->row ? lv_area_get_width : lv_area_g
ARM GAS  /tmp/ccyjKoUS.s 			page 39


 1046              		.loc 2 398 5 is_stmt 1 discriminator 4 view .LVU326
 398:Middlewares/lvgl/src/extra/layouts/flex/lv_flex.c ****     lv_coord_t (*area_get_cross_size)(const lv_area_t *) = (!f->row ? lv_area_get_width : lv_area_g
 1047              		.loc 2 398 87 is_stmt 0 discriminator 4 view .LVU327
 1048 002e 4BB1     		cbz	r3, .L101
 398:Middlewares/lvgl/src/extra/layouts/flex/lv_flex.c ****     lv_coord_t (*area_get_cross_size)(const lv_area_t *) = (!f->row ? lv_area_get_width : lv_area_g
 1049              		.loc 2 398 87 view .LVU328
 1050 0030 814A     		ldr	r2, .L119+4
 1051 0032 0692     		str	r2, [sp, #24]
 1052              	.L56:
 1053              	.LVL95:
 399:Middlewares/lvgl/src/extra/layouts/flex/lv_flex.c **** 
 1054              		.loc 2 399 5 is_stmt 1 discriminator 4 view .LVU329
 399:Middlewares/lvgl/src/extra/layouts/flex/lv_flex.c **** 
 1055              		.loc 2 399 89 is_stmt 0 discriminator 4 view .LVU330
 1056 0034 4BB9     		cbnz	r3, .L102
 399:Middlewares/lvgl/src/extra/layouts/flex/lv_flex.c **** 
 1057              		.loc 2 399 89 view .LVU331
 1058 0036 804B     		ldr	r3, .L119+4
 1059 0038 0B93     		str	r3, [sp, #44]
 1060              	.L57:
 1061              	.LVL96:
 402:Middlewares/lvgl/src/extra/layouts/flex/lv_flex.c ****     bool grow_reiterate  = true;
 1062              		.loc 2 402 5 is_stmt 1 discriminator 4 view .LVU332
 403:Middlewares/lvgl/src/extra/layouts/flex/lv_flex.c ****     while(grow_reiterate) {
 1063              		.loc 2 403 5 discriminator 4 view .LVU333
 404:Middlewares/lvgl/src/extra/layouts/flex/lv_flex.c ****         grow_reiterate = false;
 1064              		.loc 2 404 5 discriminator 4 view .LVU334
 403:Middlewares/lvgl/src/extra/layouts/flex/lv_flex.c ****     while(grow_reiterate) {
 1065              		.loc 2 403 10 is_stmt 0 discriminator 4 view .LVU335
 1066 003a 0127     		movs	r7, #1
 404:Middlewares/lvgl/src/extra/layouts/flex/lv_flex.c ****         grow_reiterate = false;
 1067              		.loc 2 404 10 discriminator 4 view .LVU336
 1068 003c 57E0     		b	.L58
 1069              	.LVL97:
 1070              	.L100:
 397:Middlewares/lvgl/src/extra/layouts/flex/lv_flex.c ****     lv_coord_t (*area_get_main_size)(const lv_area_t *) = (f->row ? lv_area_get_width : lv_area_get
 1071              		.loc 2 397 87 view .LVU337
 1072 003e 7F4A     		ldr	r2, .L119+8
 1073              	.LVL98:
 397:Middlewares/lvgl/src/extra/layouts/flex/lv_flex.c ****     lv_coord_t (*area_get_main_size)(const lv_area_t *) = (f->row ? lv_area_get_width : lv_area_get
 1074              		.loc 2 397 87 view .LVU338
 1075 0040 0C92     		str	r2, [sp, #48]
 1076 0042 F4E7     		b	.L55
 1077              	.LVL99:
 1078              	.L101:
 398:Middlewares/lvgl/src/extra/layouts/flex/lv_flex.c ****     lv_coord_t (*area_get_cross_size)(const lv_area_t *) = (!f->row ? lv_area_get_width : lv_area_g
 1079              		.loc 2 398 87 view .LVU339
 1080 0044 7E4A     		ldr	r2, .L119+12
 1081 0046 0692     		str	r2, [sp, #24]
 1082 0048 F4E7     		b	.L56
 1083              	.LVL100:
 1084              	.L102:
 399:Middlewares/lvgl/src/extra/layouts/flex/lv_flex.c **** 
 1085              		.loc 2 399 89 view .LVU340
 1086 004a 7D4B     		ldr	r3, .L119+12
 1087 004c 0B93     		str	r3, [sp, #44]
 1088 004e F4E7     		b	.L57
ARM GAS  /tmp/ccyjKoUS.s 			page 40


 1089              	.LVL101:
 1090              	.L60:
 1091              	.LBB81:
 412:Middlewares/lvgl/src/extra/layouts/flex/lv_flex.c ****             }
 1092              		.loc 2 412 17 is_stmt 1 view .LVU341
 412:Middlewares/lvgl/src/extra/layouts/flex/lv_flex.c ****             }
 1093              		.loc 2 412 48 is_stmt 0 view .LVU342
 1094 0050 0089     		ldrh	r0, [r0, #8]
 412:Middlewares/lvgl/src/extra/layouts/flex/lv_flex.c ****             }
 1095              		.loc 2 412 31 view .LVU343
 1096 0052 121A     		subs	r2, r2, r0
 1097              	.LVL102:
 412:Middlewares/lvgl/src/extra/layouts/flex/lv_flex.c ****             }
 1098              		.loc 2 412 31 view .LVU344
 1099 0054 12B2     		sxth	r2, r2
 1100              	.LVL103:
 1101              	.L61:
 408:Middlewares/lvgl/src/extra/layouts/flex/lv_flex.c ****             if(t->grow_dsc[i].clamped == 0) {
 1102              		.loc 2 408 42 is_stmt 1 discriminator 2 view .LVU345
 408:Middlewares/lvgl/src/extra/layouts/flex/lv_flex.c ****             if(t->grow_dsc[i].clamped == 0) {
 1103              		.loc 2 408 43 is_stmt 0 discriminator 2 view .LVU346
 1104 0056 0133     		adds	r3, r3, #1
 1105              	.LVL104:
 1106              	.L59:
 408:Middlewares/lvgl/src/extra/layouts/flex/lv_flex.c ****             if(t->grow_dsc[i].clamped == 0) {
 1107              		.loc 2 408 20 is_stmt 1 discriminator 1 view .LVU347
 408:Middlewares/lvgl/src/extra/layouts/flex/lv_flex.c ****             if(t->grow_dsc[i].clamped == 0) {
 1108              		.loc 2 408 25 is_stmt 0 discriminator 1 view .LVU348
 1109 0058 2069     		ldr	r0, [r4, #16]
 408:Middlewares/lvgl/src/extra/layouts/flex/lv_flex.c ****             if(t->grow_dsc[i].clamped == 0) {
 1110              		.loc 2 408 9 discriminator 1 view .LVU349
 1111 005a 9842     		cmp	r0, r3
 1112 005c 0CD9     		bls	.L107
 409:Middlewares/lvgl/src/extra/layouts/flex/lv_flex.c ****                 grow_value_sum += t->grow_dsc[i].grow_value;
 1113              		.loc 2 409 13 is_stmt 1 view .LVU350
 409:Middlewares/lvgl/src/extra/layouts/flex/lv_flex.c ****                 grow_value_sum += t->grow_dsc[i].grow_value;
 1114              		.loc 2 409 17 is_stmt 0 view .LVU351
 1115 005e E068     		ldr	r0, [r4, #12]
 409:Middlewares/lvgl/src/extra/layouts/flex/lv_flex.c ****                 grow_value_sum += t->grow_dsc[i].grow_value;
 1116              		.loc 2 409 27 view .LVU352
 1117 0060 03EB8305 		add	r5, r3, r3, lsl #2
 1118 0064 00EB8500 		add	r0, r0, r5, lsl #2
 409:Middlewares/lvgl/src/extra/layouts/flex/lv_flex.c ****                 grow_value_sum += t->grow_dsc[i].grow_value;
 1119              		.loc 2 409 39 view .LVU353
 1120 0068 057C     		ldrb	r5, [r0, #16]	@ zero_extendqisi2
 409:Middlewares/lvgl/src/extra/layouts/flex/lv_flex.c ****                 grow_value_sum += t->grow_dsc[i].grow_value;
 1121              		.loc 2 409 15 view .LVU354
 1122 006a 15F0010F 		tst	r5, #1
 1123 006e EFD1     		bne	.L60
 410:Middlewares/lvgl/src/extra/layouts/flex/lv_flex.c ****             } else {
 1124              		.loc 2 410 17 is_stmt 1 view .LVU355
 410:Middlewares/lvgl/src/extra/layouts/flex/lv_flex.c ****             } else {
 1125              		.loc 2 410 49 is_stmt 0 view .LVU356
 1126 0070 C068     		ldr	r0, [r0, #12]
 410:Middlewares/lvgl/src/extra/layouts/flex/lv_flex.c ****             } else {
 1127              		.loc 2 410 32 view .LVU357
 1128 0072 0144     		add	r1, r1, r0
ARM GAS  /tmp/ccyjKoUS.s 			page 41


 1129              	.LVL105:
 410:Middlewares/lvgl/src/extra/layouts/flex/lv_flex.c ****             } else {
 1130              		.loc 2 410 32 view .LVU358
 1131 0074 09B2     		sxth	r1, r1
 1132              	.LVL106:
 410:Middlewares/lvgl/src/extra/layouts/flex/lv_flex.c ****             } else {
 1133              		.loc 2 410 32 view .LVU359
 1134 0076 EEE7     		b	.L61
 1135              	.L107:
 405:Middlewares/lvgl/src/extra/layouts/flex/lv_flex.c ****         lv_coord_t grow_value_sum = 0;
 1136              		.loc 2 405 24 view .LVU360
 1137 0078 4FF0000E 		mov	lr, #0
 417:Middlewares/lvgl/src/extra/layouts/flex/lv_flex.c ****             if(t->grow_dsc[i].clamped == 0) {
 1138              		.loc 2 417 15 view .LVU361
 1139 007c 7046     		mov	r0, lr
 1140 007e 12E0     		b	.L63
 1141              	.LVL107:
 1142              	.L109:
 1143              	.LBB82:
 424:Middlewares/lvgl/src/extra/layouts/flex/lv_flex.c ****                     grow_reiterate = true;
 1144              		.loc 2 424 21 is_stmt 1 view .LVU362
 424:Middlewares/lvgl/src/extra/layouts/flex/lv_flex.c ****                     grow_reiterate = true;
 1145              		.loc 2 424 44 is_stmt 0 view .LVU363
 1146 0080 93F810C0 		ldrb	ip, [r3, #16]	@ zero_extendqisi2
 1147              	.LVL108:
 424:Middlewares/lvgl/src/extra/layouts/flex/lv_flex.c ****                     grow_reiterate = true;
 1148              		.loc 2 424 44 view .LVU364
 1149 0084 4CF0010C 		orr	ip, ip, #1
 1150 0088 83F810C0 		strb	ip, [r3, #16]
 1151              	.LVL109:
 425:Middlewares/lvgl/src/extra/layouts/flex/lv_flex.c ****                 }
 1152              		.loc 2 425 21 is_stmt 1 view .LVU365
 425:Middlewares/lvgl/src/extra/layouts/flex/lv_flex.c ****                 }
 1153              		.loc 2 425 36 is_stmt 0 view .LVU366
 1154 008c BE46     		mov	lr, r7
 1155              	.LVL110:
 1156              	.L65:
 427:Middlewares/lvgl/src/extra/layouts/flex/lv_flex.c ****                 grow_value_sum -= t->grow_dsc[i].grow_value;
 1157              		.loc 2 427 17 is_stmt 1 view .LVU367
 427:Middlewares/lvgl/src/extra/layouts/flex/lv_flex.c ****                 grow_value_sum -= t->grow_dsc[i].grow_value;
 1158              		.loc 2 427 18 is_stmt 0 view .LVU368
 1159 008e E368     		ldr	r3, [r4, #12]
 427:Middlewares/lvgl/src/extra/layouts/flex/lv_flex.c ****                 grow_value_sum -= t->grow_dsc[i].grow_value;
 1160              		.loc 2 427 28 view .LVU369
 1161 0090 3344     		add	r3, r3, r6
 427:Middlewares/lvgl/src/extra/layouts/flex/lv_flex.c ****                 grow_value_sum -= t->grow_dsc[i].grow_value;
 1162              		.loc 2 427 43 view .LVU370
 1163 0092 1D81     		strh	r5, [r3, #8]	@ movhi
 428:Middlewares/lvgl/src/extra/layouts/flex/lv_flex.c ****                 grow_max_size  -= t->grow_dsc[i].final_size;
 1164              		.loc 2 428 17 is_stmt 1 view .LVU371
 428:Middlewares/lvgl/src/extra/layouts/flex/lv_flex.c ****                 grow_max_size  -= t->grow_dsc[i].final_size;
 1165              		.loc 2 428 36 is_stmt 0 view .LVU372
 1166 0094 E368     		ldr	r3, [r4, #12]
 428:Middlewares/lvgl/src/extra/layouts/flex/lv_flex.c ****                 grow_max_size  -= t->grow_dsc[i].final_size;
 1167              		.loc 2 428 46 view .LVU373
 1168 0096 3344     		add	r3, r3, r6
 428:Middlewares/lvgl/src/extra/layouts/flex/lv_flex.c ****                 grow_max_size  -= t->grow_dsc[i].final_size;
ARM GAS  /tmp/ccyjKoUS.s 			page 42


 1169              		.loc 2 428 49 view .LVU374
 1170 0098 DD68     		ldr	r5, [r3, #12]
 1171              	.LVL111:
 428:Middlewares/lvgl/src/extra/layouts/flex/lv_flex.c ****                 grow_max_size  -= t->grow_dsc[i].final_size;
 1172              		.loc 2 428 32 view .LVU375
 1173 009a 491B     		subs	r1, r1, r5
 1174              	.LVL112:
 428:Middlewares/lvgl/src/extra/layouts/flex/lv_flex.c ****                 grow_max_size  -= t->grow_dsc[i].final_size;
 1175              		.loc 2 428 32 view .LVU376
 1176 009c 09B2     		sxth	r1, r1
 1177              	.LVL113:
 429:Middlewares/lvgl/src/extra/layouts/flex/lv_flex.c ****             }
 1178              		.loc 2 429 17 is_stmt 1 view .LVU377
 429:Middlewares/lvgl/src/extra/layouts/flex/lv_flex.c ****             }
 1179              		.loc 2 429 49 is_stmt 0 view .LVU378
 1180 009e 1B89     		ldrh	r3, [r3, #8]
 429:Middlewares/lvgl/src/extra/layouts/flex/lv_flex.c ****             }
 1181              		.loc 2 429 32 view .LVU379
 1182 00a0 D21A     		subs	r2, r2, r3
 1183              	.LVL114:
 429:Middlewares/lvgl/src/extra/layouts/flex/lv_flex.c ****             }
 1184              		.loc 2 429 32 view .LVU380
 1185 00a2 12B2     		sxth	r2, r2
 1186              	.LVL115:
 1187              	.L64:
 429:Middlewares/lvgl/src/extra/layouts/flex/lv_flex.c ****             }
 1188              		.loc 2 429 32 view .LVU381
 1189              	.LBE82:
 417:Middlewares/lvgl/src/extra/layouts/flex/lv_flex.c ****             if(t->grow_dsc[i].clamped == 0) {
 1190              		.loc 2 417 42 is_stmt 1 discriminator 2 view .LVU382
 417:Middlewares/lvgl/src/extra/layouts/flex/lv_flex.c ****             if(t->grow_dsc[i].clamped == 0) {
 1191              		.loc 2 417 43 is_stmt 0 discriminator 2 view .LVU383
 1192 00a4 0130     		adds	r0, r0, #1
 1193              	.LVL116:
 1194              	.L63:
 417:Middlewares/lvgl/src/extra/layouts/flex/lv_flex.c ****             if(t->grow_dsc[i].clamped == 0) {
 1195              		.loc 2 417 20 is_stmt 1 discriminator 1 view .LVU384
 417:Middlewares/lvgl/src/extra/layouts/flex/lv_flex.c ****             if(t->grow_dsc[i].clamped == 0) {
 1196              		.loc 2 417 25 is_stmt 0 discriminator 1 view .LVU385
 1197 00a6 2369     		ldr	r3, [r4, #16]
 417:Middlewares/lvgl/src/extra/layouts/flex/lv_flex.c ****             if(t->grow_dsc[i].clamped == 0) {
 1198              		.loc 2 417 9 discriminator 1 view .LVU386
 1199 00a8 8342     		cmp	r3, r0
 1200 00aa 1FD9     		bls	.L108
 418:Middlewares/lvgl/src/extra/layouts/flex/lv_flex.c ****                 grow_unit = grow_max_size / grow_value_sum;
 1201              		.loc 2 418 13 is_stmt 1 view .LVU387
 418:Middlewares/lvgl/src/extra/layouts/flex/lv_flex.c ****                 grow_unit = grow_max_size / grow_value_sum;
 1202              		.loc 2 418 17 is_stmt 0 view .LVU388
 1203 00ac E368     		ldr	r3, [r4, #12]
 418:Middlewares/lvgl/src/extra/layouts/flex/lv_flex.c ****                 grow_unit = grow_max_size / grow_value_sum;
 1204              		.loc 2 418 27 view .LVU389
 1205 00ae 00EB8005 		add	r5, r0, r0, lsl #2
 1206 00b2 AE00     		lsls	r6, r5, #2
 1207 00b4 03EB8503 		add	r3, r3, r5, lsl #2
 418:Middlewares/lvgl/src/extra/layouts/flex/lv_flex.c ****                 grow_unit = grow_max_size / grow_value_sum;
 1208              		.loc 2 418 39 view .LVU390
 1209 00b8 1D7C     		ldrb	r5, [r3, #16]	@ zero_extendqisi2
ARM GAS  /tmp/ccyjKoUS.s 			page 43


 418:Middlewares/lvgl/src/extra/layouts/flex/lv_flex.c ****                 grow_unit = grow_max_size / grow_value_sum;
 1210              		.loc 2 418 15 view .LVU391
 1211 00ba 15F0010F 		tst	r5, #1
 1212 00be F1D1     		bne	.L64
 1213              	.LBB83:
 419:Middlewares/lvgl/src/extra/layouts/flex/lv_flex.c ****                 lv_coord_t size = grow_unit * t->grow_dsc[i].grow_value;
 1214              		.loc 2 419 17 is_stmt 1 view .LVU392
 419:Middlewares/lvgl/src/extra/layouts/flex/lv_flex.c ****                 lv_coord_t size = grow_unit * t->grow_dsc[i].grow_value;
 1215              		.loc 2 419 43 is_stmt 0 view .LVU393
 1216 00c0 92FBF1FC 		sdiv	ip, r2, r1
 419:Middlewares/lvgl/src/extra/layouts/flex/lv_flex.c ****                 lv_coord_t size = grow_unit * t->grow_dsc[i].grow_value;
 1217              		.loc 2 419 27 view .LVU394
 1218 00c4 0FFA8CFC 		sxth	ip, ip
 1219              	.LVL117:
 420:Middlewares/lvgl/src/extra/layouts/flex/lv_flex.c ****                 lv_coord_t size_clamp = LV_CLAMP(t->grow_dsc[i].min_size, size, t->grow_dsc[i].max_
 1220              		.loc 2 420 17 is_stmt 1 view .LVU395
 420:Middlewares/lvgl/src/extra/layouts/flex/lv_flex.c ****                 lv_coord_t size_clamp = LV_CLAMP(t->grow_dsc[i].min_size, size, t->grow_dsc[i].max_
 1221              		.loc 2 420 61 is_stmt 0 view .LVU396
 1222 00c8 DD68     		ldr	r5, [r3, #12]
 420:Middlewares/lvgl/src/extra/layouts/flex/lv_flex.c ****                 lv_coord_t size_clamp = LV_CLAMP(t->grow_dsc[i].min_size, size, t->grow_dsc[i].max_
 1223              		.loc 2 420 28 view .LVU397
 1224 00ca 0CFB05F5 		mul	r5, ip, r5
 1225 00ce 0FFA85FC 		sxth	ip, r5
 1226              	.LVL118:
 421:Middlewares/lvgl/src/extra/layouts/flex/lv_flex.c **** 
 1227              		.loc 2 421 17 is_stmt 1 view .LVU398
 421:Middlewares/lvgl/src/extra/layouts/flex/lv_flex.c **** 
 1228              		.loc 2 421 41 is_stmt 0 view .LVU399
 1229 00d2 B3F90650 		ldrsh	r5, [r3, #6]
 1230 00d6 6545     		cmp	r5, ip
 1231 00d8 A8BF     		it	ge
 1232 00da 6546     		movge	r5, ip
 1233 00dc B3F90480 		ldrsh	r8, [r3, #4]
 421:Middlewares/lvgl/src/extra/layouts/flex/lv_flex.c **** 
 1234              		.loc 2 421 28 view .LVU400
 1235 00e0 4545     		cmp	r5, r8
 1236 00e2 B8BF     		it	lt
 1237 00e4 4546     		movlt	r5, r8
 1238              	.LVL119:
 423:Middlewares/lvgl/src/extra/layouts/flex/lv_flex.c ****                     t->grow_dsc[i].clamped = 1;
 1239              		.loc 2 423 17 is_stmt 1 view .LVU401
 423:Middlewares/lvgl/src/extra/layouts/flex/lv_flex.c ****                     t->grow_dsc[i].clamped = 1;
 1240              		.loc 2 423 19 is_stmt 0 view .LVU402
 1241 00e6 AC45     		cmp	ip, r5
 1242 00e8 CAD1     		bne	.L109
 1243 00ea D0E7     		b	.L65
 1244              	.LVL120:
 1245              	.L108:
 423:Middlewares/lvgl/src/extra/layouts/flex/lv_flex.c ****                     t->grow_dsc[i].clamped = 1;
 1246              		.loc 2 423 19 view .LVU403
 1247              	.LBE83:
 1248 00ec 7746     		mov	r7, lr
 1249              	.LVL121:
 1250              	.L58:
 423:Middlewares/lvgl/src/extra/layouts/flex/lv_flex.c ****                     t->grow_dsc[i].clamped = 1;
 1251              		.loc 2 423 19 view .LVU404
 1252              	.LBE81:
ARM GAS  /tmp/ccyjKoUS.s 			page 44


 404:Middlewares/lvgl/src/extra/layouts/flex/lv_flex.c ****         grow_reiterate = false;
 1253              		.loc 2 404 10 is_stmt 1 view .LVU405
 1254 00ee 37B1     		cbz	r7, .L110
 1255              	.LBB84:
 405:Middlewares/lvgl/src/extra/layouts/flex/lv_flex.c ****         lv_coord_t grow_value_sum = 0;
 1256              		.loc 2 405 9 view .LVU406
 1257              	.LVL122:
 406:Middlewares/lvgl/src/extra/layouts/flex/lv_flex.c ****         lv_coord_t grow_max_size = t->track_main_size - t->track_fix_main_size;
 1258              		.loc 2 406 9 view .LVU407
 407:Middlewares/lvgl/src/extra/layouts/flex/lv_flex.c ****         for(i = 0; i < t->grow_item_cnt; i++) {
 1259              		.loc 2 407 9 view .LVU408
 407:Middlewares/lvgl/src/extra/layouts/flex/lv_flex.c ****         for(i = 0; i < t->grow_item_cnt; i++) {
 1260              		.loc 2 407 37 is_stmt 0 view .LVU409
 1261 00f0 6288     		ldrh	r2, [r4, #2]
 407:Middlewares/lvgl/src/extra/layouts/flex/lv_flex.c ****         for(i = 0; i < t->grow_item_cnt; i++) {
 1262              		.loc 2 407 58 view .LVU410
 1263 00f2 A388     		ldrh	r3, [r4, #4]
 407:Middlewares/lvgl/src/extra/layouts/flex/lv_flex.c ****         for(i = 0; i < t->grow_item_cnt; i++) {
 1264              		.loc 2 407 55 view .LVU411
 1265 00f4 D21A     		subs	r2, r2, r3
 407:Middlewares/lvgl/src/extra/layouts/flex/lv_flex.c ****         for(i = 0; i < t->grow_item_cnt; i++) {
 1266              		.loc 2 407 20 view .LVU412
 1267 00f6 12B2     		sxth	r2, r2
 1268              	.LVL123:
 408:Middlewares/lvgl/src/extra/layouts/flex/lv_flex.c ****             if(t->grow_dsc[i].clamped == 0) {
 1269              		.loc 2 408 9 is_stmt 1 view .LVU413
 406:Middlewares/lvgl/src/extra/layouts/flex/lv_flex.c ****         lv_coord_t grow_max_size = t->track_main_size - t->track_fix_main_size;
 1270              		.loc 2 406 20 is_stmt 0 view .LVU414
 1271 00f8 0021     		movs	r1, #0
 408:Middlewares/lvgl/src/extra/layouts/flex/lv_flex.c ****             if(t->grow_dsc[i].clamped == 0) {
 1272              		.loc 2 408 15 view .LVU415
 1273 00fa 0B46     		mov	r3, r1
 408:Middlewares/lvgl/src/extra/layouts/flex/lv_flex.c ****             if(t->grow_dsc[i].clamped == 0) {
 1274              		.loc 2 408 9 view .LVU416
 1275 00fc ACE7     		b	.L59
 1276              	.LVL124:
 1277              	.L110:
 408:Middlewares/lvgl/src/extra/layouts/flex/lv_flex.c ****             if(t->grow_dsc[i].clamped == 0) {
 1278              		.loc 2 408 9 view .LVU417
 1279              	.LBE84:
 435:Middlewares/lvgl/src/extra/layouts/flex/lv_flex.c **** 
 1280              		.loc 2 435 5 is_stmt 1 view .LVU418
 1281              	.LBB85:
 1282              	.LBI85:
  35:Middlewares/lvgl/src/extra/layouts/flex/../flex/../../../core/lv_obj_style_gen.h **** }
  36:Middlewares/lvgl/src/extra/layouts/flex/../flex/../../../core/lv_obj_style_gen.h **** 
  37:Middlewares/lvgl/src/extra/layouts/flex/../flex/../../../core/lv_obj_style_gen.h **** static inline lv_coord_t lv_obj_get_style_x(const struct _lv_obj_t * obj, uint32_t part)
  38:Middlewares/lvgl/src/extra/layouts/flex/../flex/../../../core/lv_obj_style_gen.h **** {
  39:Middlewares/lvgl/src/extra/layouts/flex/../flex/../../../core/lv_obj_style_gen.h ****     lv_style_value_t v = lv_obj_get_style_prop(obj, part, LV_STYLE_X);
  40:Middlewares/lvgl/src/extra/layouts/flex/../flex/../../../core/lv_obj_style_gen.h ****     return (lv_coord_t)v.num;
  41:Middlewares/lvgl/src/extra/layouts/flex/../flex/../../../core/lv_obj_style_gen.h **** }
  42:Middlewares/lvgl/src/extra/layouts/flex/../flex/../../../core/lv_obj_style_gen.h **** 
  43:Middlewares/lvgl/src/extra/layouts/flex/../flex/../../../core/lv_obj_style_gen.h **** static inline lv_coord_t lv_obj_get_style_y(const struct _lv_obj_t * obj, uint32_t part)
  44:Middlewares/lvgl/src/extra/layouts/flex/../flex/../../../core/lv_obj_style_gen.h **** {
  45:Middlewares/lvgl/src/extra/layouts/flex/../flex/../../../core/lv_obj_style_gen.h ****     lv_style_value_t v = lv_obj_get_style_prop(obj, part, LV_STYLE_Y);
  46:Middlewares/lvgl/src/extra/layouts/flex/../flex/../../../core/lv_obj_style_gen.h ****     return (lv_coord_t)v.num;
  47:Middlewares/lvgl/src/extra/layouts/flex/../flex/../../../core/lv_obj_style_gen.h **** }
ARM GAS  /tmp/ccyjKoUS.s 			page 45


  48:Middlewares/lvgl/src/extra/layouts/flex/../flex/../../../core/lv_obj_style_gen.h **** 
  49:Middlewares/lvgl/src/extra/layouts/flex/../flex/../../../core/lv_obj_style_gen.h **** static inline lv_align_t lv_obj_get_style_align(const struct _lv_obj_t * obj, uint32_t part)
  50:Middlewares/lvgl/src/extra/layouts/flex/../flex/../../../core/lv_obj_style_gen.h **** {
  51:Middlewares/lvgl/src/extra/layouts/flex/../flex/../../../core/lv_obj_style_gen.h ****     lv_style_value_t v = lv_obj_get_style_prop(obj, part, LV_STYLE_ALIGN);
  52:Middlewares/lvgl/src/extra/layouts/flex/../flex/../../../core/lv_obj_style_gen.h ****     return (lv_align_t)v.num;
  53:Middlewares/lvgl/src/extra/layouts/flex/../flex/../../../core/lv_obj_style_gen.h **** }
  54:Middlewares/lvgl/src/extra/layouts/flex/../flex/../../../core/lv_obj_style_gen.h **** 
  55:Middlewares/lvgl/src/extra/layouts/flex/../flex/../../../core/lv_obj_style_gen.h **** static inline lv_coord_t lv_obj_get_style_transform_width(const struct _lv_obj_t * obj, uint32_t pa
  56:Middlewares/lvgl/src/extra/layouts/flex/../flex/../../../core/lv_obj_style_gen.h **** {
  57:Middlewares/lvgl/src/extra/layouts/flex/../flex/../../../core/lv_obj_style_gen.h ****     lv_style_value_t v = lv_obj_get_style_prop(obj, part, LV_STYLE_TRANSFORM_WIDTH);
  58:Middlewares/lvgl/src/extra/layouts/flex/../flex/../../../core/lv_obj_style_gen.h ****     return (lv_coord_t)v.num;
  59:Middlewares/lvgl/src/extra/layouts/flex/../flex/../../../core/lv_obj_style_gen.h **** }
  60:Middlewares/lvgl/src/extra/layouts/flex/../flex/../../../core/lv_obj_style_gen.h **** 
  61:Middlewares/lvgl/src/extra/layouts/flex/../flex/../../../core/lv_obj_style_gen.h **** static inline lv_coord_t lv_obj_get_style_transform_height(const struct _lv_obj_t * obj, uint32_t p
  62:Middlewares/lvgl/src/extra/layouts/flex/../flex/../../../core/lv_obj_style_gen.h **** {
  63:Middlewares/lvgl/src/extra/layouts/flex/../flex/../../../core/lv_obj_style_gen.h ****     lv_style_value_t v = lv_obj_get_style_prop(obj, part, LV_STYLE_TRANSFORM_HEIGHT);
  64:Middlewares/lvgl/src/extra/layouts/flex/../flex/../../../core/lv_obj_style_gen.h ****     return (lv_coord_t)v.num;
  65:Middlewares/lvgl/src/extra/layouts/flex/../flex/../../../core/lv_obj_style_gen.h **** }
  66:Middlewares/lvgl/src/extra/layouts/flex/../flex/../../../core/lv_obj_style_gen.h **** 
  67:Middlewares/lvgl/src/extra/layouts/flex/../flex/../../../core/lv_obj_style_gen.h **** static inline lv_coord_t lv_obj_get_style_translate_x(const struct _lv_obj_t * obj, uint32_t part)
  68:Middlewares/lvgl/src/extra/layouts/flex/../flex/../../../core/lv_obj_style_gen.h **** {
  69:Middlewares/lvgl/src/extra/layouts/flex/../flex/../../../core/lv_obj_style_gen.h ****     lv_style_value_t v = lv_obj_get_style_prop(obj, part, LV_STYLE_TRANSLATE_X);
  70:Middlewares/lvgl/src/extra/layouts/flex/../flex/../../../core/lv_obj_style_gen.h ****     return (lv_coord_t)v.num;
  71:Middlewares/lvgl/src/extra/layouts/flex/../flex/../../../core/lv_obj_style_gen.h **** }
  72:Middlewares/lvgl/src/extra/layouts/flex/../flex/../../../core/lv_obj_style_gen.h **** 
  73:Middlewares/lvgl/src/extra/layouts/flex/../flex/../../../core/lv_obj_style_gen.h **** static inline lv_coord_t lv_obj_get_style_translate_y(const struct _lv_obj_t * obj, uint32_t part)
  74:Middlewares/lvgl/src/extra/layouts/flex/../flex/../../../core/lv_obj_style_gen.h **** {
  75:Middlewares/lvgl/src/extra/layouts/flex/../flex/../../../core/lv_obj_style_gen.h ****     lv_style_value_t v = lv_obj_get_style_prop(obj, part, LV_STYLE_TRANSLATE_Y);
  76:Middlewares/lvgl/src/extra/layouts/flex/../flex/../../../core/lv_obj_style_gen.h ****     return (lv_coord_t)v.num;
  77:Middlewares/lvgl/src/extra/layouts/flex/../flex/../../../core/lv_obj_style_gen.h **** }
  78:Middlewares/lvgl/src/extra/layouts/flex/../flex/../../../core/lv_obj_style_gen.h **** 
  79:Middlewares/lvgl/src/extra/layouts/flex/../flex/../../../core/lv_obj_style_gen.h **** static inline lv_coord_t lv_obj_get_style_transform_zoom(const struct _lv_obj_t * obj, uint32_t par
  80:Middlewares/lvgl/src/extra/layouts/flex/../flex/../../../core/lv_obj_style_gen.h **** {
  81:Middlewares/lvgl/src/extra/layouts/flex/../flex/../../../core/lv_obj_style_gen.h ****     lv_style_value_t v = lv_obj_get_style_prop(obj, part, LV_STYLE_TRANSFORM_ZOOM);
  82:Middlewares/lvgl/src/extra/layouts/flex/../flex/../../../core/lv_obj_style_gen.h ****     return (lv_coord_t)v.num;
  83:Middlewares/lvgl/src/extra/layouts/flex/../flex/../../../core/lv_obj_style_gen.h **** }
  84:Middlewares/lvgl/src/extra/layouts/flex/../flex/../../../core/lv_obj_style_gen.h **** 
  85:Middlewares/lvgl/src/extra/layouts/flex/../flex/../../../core/lv_obj_style_gen.h **** static inline lv_coord_t lv_obj_get_style_transform_angle(const struct _lv_obj_t * obj, uint32_t pa
  86:Middlewares/lvgl/src/extra/layouts/flex/../flex/../../../core/lv_obj_style_gen.h **** {
  87:Middlewares/lvgl/src/extra/layouts/flex/../flex/../../../core/lv_obj_style_gen.h ****     lv_style_value_t v = lv_obj_get_style_prop(obj, part, LV_STYLE_TRANSFORM_ANGLE);
  88:Middlewares/lvgl/src/extra/layouts/flex/../flex/../../../core/lv_obj_style_gen.h ****     return (lv_coord_t)v.num;
  89:Middlewares/lvgl/src/extra/layouts/flex/../flex/../../../core/lv_obj_style_gen.h **** }
  90:Middlewares/lvgl/src/extra/layouts/flex/../flex/../../../core/lv_obj_style_gen.h **** 
  91:Middlewares/lvgl/src/extra/layouts/flex/../flex/../../../core/lv_obj_style_gen.h **** static inline lv_coord_t lv_obj_get_style_pad_top(const struct _lv_obj_t * obj, uint32_t part)
  92:Middlewares/lvgl/src/extra/layouts/flex/../flex/../../../core/lv_obj_style_gen.h **** {
  93:Middlewares/lvgl/src/extra/layouts/flex/../flex/../../../core/lv_obj_style_gen.h ****     lv_style_value_t v = lv_obj_get_style_prop(obj, part, LV_STYLE_PAD_TOP);
  94:Middlewares/lvgl/src/extra/layouts/flex/../flex/../../../core/lv_obj_style_gen.h ****     return (lv_coord_t)v.num;
  95:Middlewares/lvgl/src/extra/layouts/flex/../flex/../../../core/lv_obj_style_gen.h **** }
  96:Middlewares/lvgl/src/extra/layouts/flex/../flex/../../../core/lv_obj_style_gen.h **** 
  97:Middlewares/lvgl/src/extra/layouts/flex/../flex/../../../core/lv_obj_style_gen.h **** static inline lv_coord_t lv_obj_get_style_pad_bottom(const struct _lv_obj_t * obj, uint32_t part)
  98:Middlewares/lvgl/src/extra/layouts/flex/../flex/../../../core/lv_obj_style_gen.h **** {
  99:Middlewares/lvgl/src/extra/layouts/flex/../flex/../../../core/lv_obj_style_gen.h ****     lv_style_value_t v = lv_obj_get_style_prop(obj, part, LV_STYLE_PAD_BOTTOM);
 100:Middlewares/lvgl/src/extra/layouts/flex/../flex/../../../core/lv_obj_style_gen.h ****     return (lv_coord_t)v.num;
 101:Middlewares/lvgl/src/extra/layouts/flex/../flex/../../../core/lv_obj_style_gen.h **** }
 102:Middlewares/lvgl/src/extra/layouts/flex/../flex/../../../core/lv_obj_style_gen.h **** 
 103:Middlewares/lvgl/src/extra/layouts/flex/../flex/../../../core/lv_obj_style_gen.h **** static inline lv_coord_t lv_obj_get_style_pad_left(const struct _lv_obj_t * obj, uint32_t part)
 104:Middlewares/lvgl/src/extra/layouts/flex/../flex/../../../core/lv_obj_style_gen.h **** {
ARM GAS  /tmp/ccyjKoUS.s 			page 46


 105:Middlewares/lvgl/src/extra/layouts/flex/../flex/../../../core/lv_obj_style_gen.h ****     lv_style_value_t v = lv_obj_get_style_prop(obj, part, LV_STYLE_PAD_LEFT);
 106:Middlewares/lvgl/src/extra/layouts/flex/../flex/../../../core/lv_obj_style_gen.h ****     return (lv_coord_t)v.num;
 107:Middlewares/lvgl/src/extra/layouts/flex/../flex/../../../core/lv_obj_style_gen.h **** }
 108:Middlewares/lvgl/src/extra/layouts/flex/../flex/../../../core/lv_obj_style_gen.h **** 
 109:Middlewares/lvgl/src/extra/layouts/flex/../flex/../../../core/lv_obj_style_gen.h **** static inline lv_coord_t lv_obj_get_style_pad_right(const struct _lv_obj_t * obj, uint32_t part)
 110:Middlewares/lvgl/src/extra/layouts/flex/../flex/../../../core/lv_obj_style_gen.h **** {
 111:Middlewares/lvgl/src/extra/layouts/flex/../flex/../../../core/lv_obj_style_gen.h ****     lv_style_value_t v = lv_obj_get_style_prop(obj, part, LV_STYLE_PAD_RIGHT);
 112:Middlewares/lvgl/src/extra/layouts/flex/../flex/../../../core/lv_obj_style_gen.h ****     return (lv_coord_t)v.num;
 113:Middlewares/lvgl/src/extra/layouts/flex/../flex/../../../core/lv_obj_style_gen.h **** }
 114:Middlewares/lvgl/src/extra/layouts/flex/../flex/../../../core/lv_obj_style_gen.h **** 
 115:Middlewares/lvgl/src/extra/layouts/flex/../flex/../../../core/lv_obj_style_gen.h **** static inline lv_coord_t lv_obj_get_style_pad_row(const struct _lv_obj_t * obj, uint32_t part)
 116:Middlewares/lvgl/src/extra/layouts/flex/../flex/../../../core/lv_obj_style_gen.h **** {
 117:Middlewares/lvgl/src/extra/layouts/flex/../flex/../../../core/lv_obj_style_gen.h ****     lv_style_value_t v = lv_obj_get_style_prop(obj, part, LV_STYLE_PAD_ROW);
 118:Middlewares/lvgl/src/extra/layouts/flex/../flex/../../../core/lv_obj_style_gen.h ****     return (lv_coord_t)v.num;
 119:Middlewares/lvgl/src/extra/layouts/flex/../flex/../../../core/lv_obj_style_gen.h **** }
 120:Middlewares/lvgl/src/extra/layouts/flex/../flex/../../../core/lv_obj_style_gen.h **** 
 121:Middlewares/lvgl/src/extra/layouts/flex/../flex/../../../core/lv_obj_style_gen.h **** static inline lv_coord_t lv_obj_get_style_pad_column(const struct _lv_obj_t * obj, uint32_t part)
 122:Middlewares/lvgl/src/extra/layouts/flex/../flex/../../../core/lv_obj_style_gen.h **** {
 123:Middlewares/lvgl/src/extra/layouts/flex/../flex/../../../core/lv_obj_style_gen.h ****     lv_style_value_t v = lv_obj_get_style_prop(obj, part, LV_STYLE_PAD_COLUMN);
 124:Middlewares/lvgl/src/extra/layouts/flex/../flex/../../../core/lv_obj_style_gen.h ****     return (lv_coord_t)v.num;
 125:Middlewares/lvgl/src/extra/layouts/flex/../flex/../../../core/lv_obj_style_gen.h **** }
 126:Middlewares/lvgl/src/extra/layouts/flex/../flex/../../../core/lv_obj_style_gen.h **** 
 127:Middlewares/lvgl/src/extra/layouts/flex/../flex/../../../core/lv_obj_style_gen.h **** static inline lv_coord_t lv_obj_get_style_radius(const struct _lv_obj_t * obj, uint32_t part)
 128:Middlewares/lvgl/src/extra/layouts/flex/../flex/../../../core/lv_obj_style_gen.h **** {
 129:Middlewares/lvgl/src/extra/layouts/flex/../flex/../../../core/lv_obj_style_gen.h ****     lv_style_value_t v = lv_obj_get_style_prop(obj, part, LV_STYLE_RADIUS);
 130:Middlewares/lvgl/src/extra/layouts/flex/../flex/../../../core/lv_obj_style_gen.h ****     return (lv_coord_t)v.num;
 131:Middlewares/lvgl/src/extra/layouts/flex/../flex/../../../core/lv_obj_style_gen.h **** }
 132:Middlewares/lvgl/src/extra/layouts/flex/../flex/../../../core/lv_obj_style_gen.h **** 
 133:Middlewares/lvgl/src/extra/layouts/flex/../flex/../../../core/lv_obj_style_gen.h **** static inline bool lv_obj_get_style_clip_corner(const struct _lv_obj_t * obj, uint32_t part)
 134:Middlewares/lvgl/src/extra/layouts/flex/../flex/../../../core/lv_obj_style_gen.h **** {
 135:Middlewares/lvgl/src/extra/layouts/flex/../flex/../../../core/lv_obj_style_gen.h ****     lv_style_value_t v = lv_obj_get_style_prop(obj, part, LV_STYLE_CLIP_CORNER);
 136:Middlewares/lvgl/src/extra/layouts/flex/../flex/../../../core/lv_obj_style_gen.h ****     return (bool)v.num;
 137:Middlewares/lvgl/src/extra/layouts/flex/../flex/../../../core/lv_obj_style_gen.h **** }
 138:Middlewares/lvgl/src/extra/layouts/flex/../flex/../../../core/lv_obj_style_gen.h **** 
 139:Middlewares/lvgl/src/extra/layouts/flex/../flex/../../../core/lv_obj_style_gen.h **** static inline lv_opa_t lv_obj_get_style_opa(const struct _lv_obj_t * obj, uint32_t part)
 140:Middlewares/lvgl/src/extra/layouts/flex/../flex/../../../core/lv_obj_style_gen.h **** {
 141:Middlewares/lvgl/src/extra/layouts/flex/../flex/../../../core/lv_obj_style_gen.h ****     lv_style_value_t v = lv_obj_get_style_prop(obj, part, LV_STYLE_OPA);
 142:Middlewares/lvgl/src/extra/layouts/flex/../flex/../../../core/lv_obj_style_gen.h ****     return (lv_opa_t)v.num;
 143:Middlewares/lvgl/src/extra/layouts/flex/../flex/../../../core/lv_obj_style_gen.h **** }
 144:Middlewares/lvgl/src/extra/layouts/flex/../flex/../../../core/lv_obj_style_gen.h **** 
 145:Middlewares/lvgl/src/extra/layouts/flex/../flex/../../../core/lv_obj_style_gen.h **** static inline const lv_color_filter_dsc_t * lv_obj_get_style_color_filter_dsc(const struct _lv_obj_
 146:Middlewares/lvgl/src/extra/layouts/flex/../flex/../../../core/lv_obj_style_gen.h **** {
 147:Middlewares/lvgl/src/extra/layouts/flex/../flex/../../../core/lv_obj_style_gen.h ****     lv_style_value_t v = lv_obj_get_style_prop(obj, part, LV_STYLE_COLOR_FILTER_DSC);
 148:Middlewares/lvgl/src/extra/layouts/flex/../flex/../../../core/lv_obj_style_gen.h ****     return (const lv_color_filter_dsc_t *)v.ptr;
 149:Middlewares/lvgl/src/extra/layouts/flex/../flex/../../../core/lv_obj_style_gen.h **** }
 150:Middlewares/lvgl/src/extra/layouts/flex/../flex/../../../core/lv_obj_style_gen.h **** 
 151:Middlewares/lvgl/src/extra/layouts/flex/../flex/../../../core/lv_obj_style_gen.h **** static inline lv_opa_t lv_obj_get_style_color_filter_opa(const struct _lv_obj_t * obj, uint32_t par
 152:Middlewares/lvgl/src/extra/layouts/flex/../flex/../../../core/lv_obj_style_gen.h **** {
 153:Middlewares/lvgl/src/extra/layouts/flex/../flex/../../../core/lv_obj_style_gen.h ****     lv_style_value_t v = lv_obj_get_style_prop(obj, part, LV_STYLE_COLOR_FILTER_OPA);
 154:Middlewares/lvgl/src/extra/layouts/flex/../flex/../../../core/lv_obj_style_gen.h ****     return (lv_opa_t)v.num;
 155:Middlewares/lvgl/src/extra/layouts/flex/../flex/../../../core/lv_obj_style_gen.h **** }
 156:Middlewares/lvgl/src/extra/layouts/flex/../flex/../../../core/lv_obj_style_gen.h **** 
 157:Middlewares/lvgl/src/extra/layouts/flex/../flex/../../../core/lv_obj_style_gen.h **** static inline uint32_t lv_obj_get_style_anim_time(const struct _lv_obj_t * obj, uint32_t part)
 158:Middlewares/lvgl/src/extra/layouts/flex/../flex/../../../core/lv_obj_style_gen.h **** {
 159:Middlewares/lvgl/src/extra/layouts/flex/../flex/../../../core/lv_obj_style_gen.h ****     lv_style_value_t v = lv_obj_get_style_prop(obj, part, LV_STYLE_ANIM_TIME);
 160:Middlewares/lvgl/src/extra/layouts/flex/../flex/../../../core/lv_obj_style_gen.h ****     return (uint32_t)v.num;
 161:Middlewares/lvgl/src/extra/layouts/flex/../flex/../../../core/lv_obj_style_gen.h **** }
ARM GAS  /tmp/ccyjKoUS.s 			page 47


 162:Middlewares/lvgl/src/extra/layouts/flex/../flex/../../../core/lv_obj_style_gen.h **** 
 163:Middlewares/lvgl/src/extra/layouts/flex/../flex/../../../core/lv_obj_style_gen.h **** static inline uint32_t lv_obj_get_style_anim_speed(const struct _lv_obj_t * obj, uint32_t part)
 164:Middlewares/lvgl/src/extra/layouts/flex/../flex/../../../core/lv_obj_style_gen.h **** {
 165:Middlewares/lvgl/src/extra/layouts/flex/../flex/../../../core/lv_obj_style_gen.h ****     lv_style_value_t v = lv_obj_get_style_prop(obj, part, LV_STYLE_ANIM_SPEED);
 166:Middlewares/lvgl/src/extra/layouts/flex/../flex/../../../core/lv_obj_style_gen.h ****     return (uint32_t)v.num;
 167:Middlewares/lvgl/src/extra/layouts/flex/../flex/../../../core/lv_obj_style_gen.h **** }
 168:Middlewares/lvgl/src/extra/layouts/flex/../flex/../../../core/lv_obj_style_gen.h **** 
 169:Middlewares/lvgl/src/extra/layouts/flex/../flex/../../../core/lv_obj_style_gen.h **** static inline const lv_style_transition_dsc_t * lv_obj_get_style_transition(const struct _lv_obj_t 
 170:Middlewares/lvgl/src/extra/layouts/flex/../flex/../../../core/lv_obj_style_gen.h **** {
 171:Middlewares/lvgl/src/extra/layouts/flex/../flex/../../../core/lv_obj_style_gen.h ****     lv_style_value_t v = lv_obj_get_style_prop(obj, part, LV_STYLE_TRANSITION);
 172:Middlewares/lvgl/src/extra/layouts/flex/../flex/../../../core/lv_obj_style_gen.h ****     return (const lv_style_transition_dsc_t *)v.ptr;
 173:Middlewares/lvgl/src/extra/layouts/flex/../flex/../../../core/lv_obj_style_gen.h **** }
 174:Middlewares/lvgl/src/extra/layouts/flex/../flex/../../../core/lv_obj_style_gen.h **** 
 175:Middlewares/lvgl/src/extra/layouts/flex/../flex/../../../core/lv_obj_style_gen.h **** static inline lv_blend_mode_t lv_obj_get_style_blend_mode(const struct _lv_obj_t * obj, uint32_t pa
 176:Middlewares/lvgl/src/extra/layouts/flex/../flex/../../../core/lv_obj_style_gen.h **** {
 177:Middlewares/lvgl/src/extra/layouts/flex/../flex/../../../core/lv_obj_style_gen.h ****     lv_style_value_t v = lv_obj_get_style_prop(obj, part, LV_STYLE_BLEND_MODE);
 178:Middlewares/lvgl/src/extra/layouts/flex/../flex/../../../core/lv_obj_style_gen.h ****     return (lv_blend_mode_t)v.num;
 179:Middlewares/lvgl/src/extra/layouts/flex/../flex/../../../core/lv_obj_style_gen.h **** }
 180:Middlewares/lvgl/src/extra/layouts/flex/../flex/../../../core/lv_obj_style_gen.h **** 
 181:Middlewares/lvgl/src/extra/layouts/flex/../flex/../../../core/lv_obj_style_gen.h **** static inline uint16_t lv_obj_get_style_layout(const struct _lv_obj_t * obj, uint32_t part)
 182:Middlewares/lvgl/src/extra/layouts/flex/../flex/../../../core/lv_obj_style_gen.h **** {
 183:Middlewares/lvgl/src/extra/layouts/flex/../flex/../../../core/lv_obj_style_gen.h ****     lv_style_value_t v = lv_obj_get_style_prop(obj, part, LV_STYLE_LAYOUT);
 184:Middlewares/lvgl/src/extra/layouts/flex/../flex/../../../core/lv_obj_style_gen.h ****     return (uint16_t)v.num;
 185:Middlewares/lvgl/src/extra/layouts/flex/../flex/../../../core/lv_obj_style_gen.h **** }
 186:Middlewares/lvgl/src/extra/layouts/flex/../flex/../../../core/lv_obj_style_gen.h **** 
 187:Middlewares/lvgl/src/extra/layouts/flex/../flex/../../../core/lv_obj_style_gen.h **** static inline lv_base_dir_t lv_obj_get_style_base_dir(const struct _lv_obj_t * obj, uint32_t part)
 1283              		.loc 3 187 29 view .LVU419
 1284              	.LBB86:
 188:Middlewares/lvgl/src/extra/layouts/flex/../flex/../../../core/lv_obj_style_gen.h **** {
 189:Middlewares/lvgl/src/extra/layouts/flex/../flex/../../../core/lv_obj_style_gen.h ****     lv_style_value_t v = lv_obj_get_style_prop(obj, part, LV_STYLE_BASE_DIR);
 1285              		.loc 3 189 5 view .LVU420
 1286              		.loc 3 189 26 is_stmt 0 view .LVU421
 1287 00fe 41F26A42 		movw	r2, #5226
 1288 0102 0021     		movs	r1, #0
 1289 0104 0498     		ldr	r0, [sp, #16]
 1290 0106 FFF7FEFF 		bl	lv_obj_get_style_prop
 1291              	.LVL125:
 190:Middlewares/lvgl/src/extra/layouts/flex/../flex/../../../core/lv_obj_style_gen.h ****     return (lv_base_dir_t)v.num;
 1292              		.loc 3 190 5 is_stmt 1 view .LVU422
 1293              		.loc 3 190 12 is_stmt 0 view .LVU423
 1294 010a C5B2     		uxtb	r5, r0
 1295 010c 0795     		str	r5, [sp, #28]
 1296              	.LVL126:
 1297              		.loc 3 190 12 view .LVU424
 1298              	.LBE86:
 1299              	.LBE85:
 437:Middlewares/lvgl/src/extra/layouts/flex/lv_flex.c **** 
 1300              		.loc 2 437 5 is_stmt 1 view .LVU425
 437:Middlewares/lvgl/src/extra/layouts/flex/lv_flex.c **** 
 1301              		.loc 2 437 16 is_stmt 0 view .LVU426
 1302 010e 0023     		movs	r3, #0
 1303 0110 ADF84630 		strh	r3, [sp, #70]	@ movhi
 439:Middlewares/lvgl/src/extra/layouts/flex/lv_flex.c ****     place_content(f->main_place, max_main_size, t->track_main_size, t->item_cnt, &main_pos, &place_
 1304              		.loc 2 439 5 is_stmt 1 view .LVU427
 439:Middlewares/lvgl/src/extra/layouts/flex/lv_flex.c ****     place_content(f->main_place, max_main_size, t->track_main_size, t->item_cnt, &main_pos, &place_
 1305              		.loc 2 439 16 is_stmt 0 view .LVU428
 1306 0114 ADF84430 		strh	r3, [sp, #68]	@ movhi
ARM GAS  /tmp/ccyjKoUS.s 			page 48


 440:Middlewares/lvgl/src/extra/layouts/flex/lv_flex.c ****     if(f->row && rtl) main_pos += lv_obj_get_content_width(cont);
 1307              		.loc 2 440 5 is_stmt 1 view .LVU429
 1308 0118 11AB     		add	r3, sp, #68
 1309 011a 0193     		str	r3, [sp, #4]
 1310 011c 0DF14603 		add	r3, sp, #70
 1311 0120 0093     		str	r3, [sp]
 1312 0122 B4F90830 		ldrsh	r3, [r4, #8]
 1313 0126 B4F90220 		ldrsh	r2, [r4, #2]
 1314 012a BDF97810 		ldrsh	r1, [sp, #120]
 1315 012e 99F80000 		ldrb	r0, [r9]	@ zero_extendqisi2
 1316 0132 FFF7FEFF 		bl	place_content
 1317              	.LVL127:
 441:Middlewares/lvgl/src/extra/layouts/flex/lv_flex.c **** 
 1318              		.loc 2 441 5 view .LVU430
 441:Middlewares/lvgl/src/extra/layouts/flex/lv_flex.c **** 
 1319              		.loc 2 441 8 is_stmt 0 view .LVU431
 1320 0136 99F80330 		ldrb	r3, [r9, #3]	@ zero_extendqisi2
 441:Middlewares/lvgl/src/extra/layouts/flex/lv_flex.c **** 
 1321              		.loc 2 441 7 view .LVU432
 1322 013a 13F0010F 		tst	r3, #1
 1323 013e 01D0     		beq	.L68
 441:Middlewares/lvgl/src/extra/layouts/flex/lv_flex.c **** 
 1324              		.loc 2 441 15 discriminator 1 view .LVU433
 1325 0140 012D     		cmp	r5, #1
 1326 0142 05D0     		beq	.L111
 1327              	.L68:
 443:Middlewares/lvgl/src/extra/layouts/flex/lv_flex.c ****     /*Reposition the children*/
 1328              		.loc 2 443 5 is_stmt 1 view .LVU434
 443:Middlewares/lvgl/src/extra/layouts/flex/lv_flex.c ****     /*Reposition the children*/
 1329              		.loc 2 443 23 is_stmt 0 view .LVU435
 1330 0144 0D99     		ldr	r1, [sp, #52]
 1331 0146 0498     		ldr	r0, [sp, #16]
 1332 0148 FFF7FEFF 		bl	lv_obj_get_child
 1333              	.LVL128:
 1334 014c 0546     		mov	r5, r0
 1335              	.LVL129:
 445:Middlewares/lvgl/src/extra/layouts/flex/lv_flex.c ****         if(lv_obj_has_flag_any(item, LV_OBJ_FLAG_IGNORE_LAYOUT | LV_OBJ_FLAG_HIDDEN | LV_OBJ_FLAG_F
 1336              		.loc 2 445 5 is_stmt 1 view .LVU436
 445:Middlewares/lvgl/src/extra/layouts/flex/lv_flex.c ****         if(lv_obj_has_flag_any(item, LV_OBJ_FLAG_IGNORE_LAYOUT | LV_OBJ_FLAG_HIDDEN | LV_OBJ_FLAG_F
 1337              		.loc 2 445 10 is_stmt 0 view .LVU437
 1338 014e 06E1     		b	.L69
 1339              	.LVL130:
 1340              	.L111:
 441:Middlewares/lvgl/src/extra/layouts/flex/lv_flex.c **** 
 1341              		.loc 2 441 23 is_stmt 1 discriminator 2 view .LVU438
 441:Middlewares/lvgl/src/extra/layouts/flex/lv_flex.c **** 
 1342              		.loc 2 441 35 is_stmt 0 discriminator 2 view .LVU439
 1343 0150 0498     		ldr	r0, [sp, #16]
 1344 0152 FFF7FEFF 		bl	lv_obj_get_content_width
 1345              	.LVL131:
 1346 0156 83B2     		uxth	r3, r0
 441:Middlewares/lvgl/src/extra/layouts/flex/lv_flex.c **** 
 1347              		.loc 2 441 32 discriminator 2 view .LVU440
 1348 0158 BDF84620 		ldrh	r2, [sp, #70]
 1349 015c 1344     		add	r3, r3, r2
 1350 015e ADF84630 		strh	r3, [sp, #70]	@ movhi
 1351 0162 EFE7     		b	.L68
ARM GAS  /tmp/ccyjKoUS.s 			page 49


 1352              	.LVL132:
 1353              	.L117:
 1354              	.LBB87:
 447:Middlewares/lvgl/src/extra/layouts/flex/lv_flex.c ****             continue;
 1355              		.loc 2 447 13 is_stmt 1 view .LVU441
 447:Middlewares/lvgl/src/extra/layouts/flex/lv_flex.c ****             continue;
 1356              		.loc 2 447 41 is_stmt 0 view .LVU442
 1357 0164 99F80310 		ldrb	r1, [r9, #3]	@ zero_extendqisi2
 447:Middlewares/lvgl/src/extra/layouts/flex/lv_flex.c ****             continue;
 1358              		.loc 2 447 20 view .LVU443
 1359 0168 0DAA     		add	r2, sp, #52
 1360 016a C1F38001 		ubfx	r1, r1, #2, #1
 1361 016e 0498     		ldr	r0, [sp, #16]
 1362 0170 FFF7FEFF 		bl	get_next_item
 1363              	.LVL133:
 1364 0174 0546     		mov	r5, r0
 1365              	.LVL134:
 448:Middlewares/lvgl/src/extra/layouts/flex/lv_flex.c ****         }
 1366              		.loc 2 448 13 is_stmt 1 view .LVU444
 1367 0176 F2E0     		b	.L69
 1368              	.LVL135:
 1369              	.L113:
 1370              	.LBB88:
 455:Middlewares/lvgl/src/extra/layouts/flex/lv_flex.c ****                     break;
 1371              		.loc 2 455 21 view .LVU445
 455:Middlewares/lvgl/src/extra/layouts/flex/lv_flex.c ****                     break;
 1372              		.loc 2 455 23 is_stmt 0 view .LVU446
 1373 0178 B0F90870 		ldrsh	r7, [r0, #8]
 1374              	.LVL136:
 456:Middlewares/lvgl/src/extra/layouts/flex/lv_flex.c ****                 }
 1375              		.loc 2 456 21 is_stmt 1 view .LVU447
 1376 017c 0FE0     		b	.L75
 1377              	.LVL137:
 1378              	.L118:
 453:Middlewares/lvgl/src/extra/layouts/flex/lv_flex.c ****                 if(t->grow_dsc[i].item == item) {
 1379              		.loc 2 453 19 is_stmt 0 view .LVU448
 1380 017e 0023     		movs	r3, #0
 1381              	.LVL138:
 1382              	.L72:
 453:Middlewares/lvgl/src/extra/layouts/flex/lv_flex.c ****                 if(t->grow_dsc[i].item == item) {
 1383              		.loc 2 453 24 is_stmt 1 discriminator 1 view .LVU449
 453:Middlewares/lvgl/src/extra/layouts/flex/lv_flex.c ****                 if(t->grow_dsc[i].item == item) {
 1384              		.loc 2 453 29 is_stmt 0 discriminator 1 view .LVU450
 1385 0180 2269     		ldr	r2, [r4, #16]
 453:Middlewares/lvgl/src/extra/layouts/flex/lv_flex.c ****                 if(t->grow_dsc[i].item == item) {
 1386              		.loc 2 453 13 discriminator 1 view .LVU451
 1387 0182 9A42     		cmp	r2, r3
 1388 0184 0AD9     		bls	.L112
 454:Middlewares/lvgl/src/extra/layouts/flex/lv_flex.c ****                     s = t->grow_dsc[i].final_size;
 1389              		.loc 2 454 17 is_stmt 1 view .LVU452
 454:Middlewares/lvgl/src/extra/layouts/flex/lv_flex.c ****                     s = t->grow_dsc[i].final_size;
 1390              		.loc 2 454 21 is_stmt 0 view .LVU453
 1391 0186 E268     		ldr	r2, [r4, #12]
 454:Middlewares/lvgl/src/extra/layouts/flex/lv_flex.c ****                     s = t->grow_dsc[i].final_size;
 1392              		.loc 2 454 31 view .LVU454
 1393 0188 03EB8301 		add	r1, r3, r3, lsl #2
 1394 018c 02EB8100 		add	r0, r2, r1, lsl #2
ARM GAS  /tmp/ccyjKoUS.s 			page 50


 454:Middlewares/lvgl/src/extra/layouts/flex/lv_flex.c ****                     s = t->grow_dsc[i].final_size;
 1395              		.loc 2 454 34 view .LVU455
 1396 0190 52F82120 		ldr	r2, [r2, r1, lsl #2]
 454:Middlewares/lvgl/src/extra/layouts/flex/lv_flex.c ****                     s = t->grow_dsc[i].final_size;
 1397              		.loc 2 454 19 view .LVU456
 1398 0194 AA42     		cmp	r2, r5
 1399 0196 EFD0     		beq	.L113
 453:Middlewares/lvgl/src/extra/layouts/flex/lv_flex.c ****                 if(t->grow_dsc[i].item == item) {
 1400              		.loc 2 453 46 is_stmt 1 discriminator 2 view .LVU457
 453:Middlewares/lvgl/src/extra/layouts/flex/lv_flex.c ****                 if(t->grow_dsc[i].item == item) {
 1401              		.loc 2 453 47 is_stmt 0 discriminator 2 view .LVU458
 1402 0198 0133     		adds	r3, r3, #1
 1403              	.LVL139:
 453:Middlewares/lvgl/src/extra/layouts/flex/lv_flex.c ****                 if(t->grow_dsc[i].item == item) {
 1404              		.loc 2 453 47 discriminator 2 view .LVU459
 1405 019a F1E7     		b	.L72
 1406              	.L112:
 452:Middlewares/lvgl/src/extra/layouts/flex/lv_flex.c ****             for(i = 0; i < t->grow_item_cnt; i++) {
 1407              		.loc 2 452 24 view .LVU460
 1408 019c 0027     		movs	r7, #0
 1409              	.L75:
 1410              	.LVL140:
 460:Middlewares/lvgl/src/extra/layouts/flex/lv_flex.c ****             else item->h_layout = 1;
 1411              		.loc 2 460 13 is_stmt 1 view .LVU461
 460:Middlewares/lvgl/src/extra/layouts/flex/lv_flex.c ****             else item->h_layout = 1;
 1412              		.loc 2 460 16 is_stmt 0 view .LVU462
 1413 019e 99F80330 		ldrb	r3, [r9, #3]	@ zero_extendqisi2
 1414              	.LVL141:
 460:Middlewares/lvgl/src/extra/layouts/flex/lv_flex.c ****             else item->h_layout = 1;
 1415              		.loc 2 460 15 view .LVU463
 1416 01a2 13F0010F 		tst	r3, #1
 1417 01a6 34D0     		beq	.L77
 460:Middlewares/lvgl/src/extra/layouts/flex/lv_flex.c ****             else item->h_layout = 1;
 1418              		.loc 2 460 24 is_stmt 1 discriminator 1 view .LVU464
 460:Middlewares/lvgl/src/extra/layouts/flex/lv_flex.c ****             else item->h_layout = 1;
 1419              		.loc 2 460 39 is_stmt 0 discriminator 1 view .LVU465
 1420 01a8 95F82330 		ldrb	r3, [r5, #35]	@ zero_extendqisi2
 1421 01ac 43F00403 		orr	r3, r3, #4
 1422 01b0 85F82330 		strb	r3, [r5, #35]
 1423              	.L78:
 463:Middlewares/lvgl/src/extra/layouts/flex/lv_flex.c ****                 lv_obj_invalidate(item);
 1424              		.loc 2 463 13 is_stmt 1 view .LVU466
 463:Middlewares/lvgl/src/extra/layouts/flex/lv_flex.c ****                 lv_obj_invalidate(item);
 1425              		.loc 2 463 40 is_stmt 0 view .LVU467
 1426 01b4 05F11406 		add	r6, r5, #20
 463:Middlewares/lvgl/src/extra/layouts/flex/lv_flex.c ****                 lv_obj_invalidate(item);
 1427              		.loc 2 463 21 view .LVU468
 1428 01b8 3046     		mov	r0, r6
 1429 01ba 069B     		ldr	r3, [sp, #24]
 1430 01bc 9847     		blx	r3
 1431              	.LVL142:
 463:Middlewares/lvgl/src/extra/layouts/flex/lv_flex.c ****                 lv_obj_invalidate(item);
 1432              		.loc 2 463 15 view .LVU469
 1433 01be B842     		cmp	r0, r7
 1434 01c0 00F0F080 		beq	.L79
 1435              	.LBB89:
 464:Middlewares/lvgl/src/extra/layouts/flex/lv_flex.c **** 
ARM GAS  /tmp/ccyjKoUS.s 			page 51


 1436              		.loc 2 464 17 is_stmt 1 view .LVU470
 1437 01c4 2846     		mov	r0, r5
 1438 01c6 FFF7FEFF 		bl	lv_obj_invalidate
 1439              	.LVL143:
 466:Middlewares/lvgl/src/extra/layouts/flex/lv_flex.c ****                 lv_area_copy(&old_coords, &item->coords);
 1440              		.loc 2 466 17 view .LVU471
 467:Middlewares/lvgl/src/extra/layouts/flex/lv_flex.c ****                 area_set_main_size(&item->coords, s);
 1441              		.loc 2 467 17 view .LVU472
 1442              	.LBB90:
 1443              	.LBI90:
 120:Middlewares/lvgl/src/extra/layouts/flex/../flex/../../../core/../misc/../font/../misc/lv_area.h **** {
 1444              		.loc 1 120 20 view .LVU473
 1445              	.LBB91:
 122:Middlewares/lvgl/src/extra/layouts/flex/../flex/../../../core/../misc/../font/../misc/lv_area.h ****     dest->y1 = src->y1;
 1446              		.loc 1 122 5 view .LVU474
 122:Middlewares/lvgl/src/extra/layouts/flex/../flex/../../../core/../misc/../font/../misc/lv_area.h ****     dest->y1 = src->y1;
 1447              		.loc 1 122 19 is_stmt 0 view .LVU475
 1448 01ca B5F91430 		ldrsh	r3, [r5, #20]
 122:Middlewares/lvgl/src/extra/layouts/flex/../flex/../../../core/../misc/../font/../misc/lv_area.h ****     dest->y1 = src->y1;
 1449              		.loc 1 122 14 view .LVU476
 1450 01ce ADF83C30 		strh	r3, [sp, #60]	@ movhi
 123:Middlewares/lvgl/src/extra/layouts/flex/../flex/../../../core/../misc/../font/../misc/lv_area.h ****     dest->x2 = src->x2;
 1451              		.loc 1 123 5 is_stmt 1 view .LVU477
 123:Middlewares/lvgl/src/extra/layouts/flex/../flex/../../../core/../misc/../font/../misc/lv_area.h ****     dest->x2 = src->x2;
 1452              		.loc 1 123 19 is_stmt 0 view .LVU478
 1453 01d2 B5F91630 		ldrsh	r3, [r5, #22]
 123:Middlewares/lvgl/src/extra/layouts/flex/../flex/../../../core/../misc/../font/../misc/lv_area.h ****     dest->x2 = src->x2;
 1454              		.loc 1 123 14 view .LVU479
 1455 01d6 ADF83E30 		strh	r3, [sp, #62]	@ movhi
 124:Middlewares/lvgl/src/extra/layouts/flex/../flex/../../../core/../misc/../font/../misc/lv_area.h ****     dest->y2 = src->y2;
 1456              		.loc 1 124 5 is_stmt 1 view .LVU480
 124:Middlewares/lvgl/src/extra/layouts/flex/../flex/../../../core/../misc/../font/../misc/lv_area.h ****     dest->y2 = src->y2;
 1457              		.loc 1 124 19 is_stmt 0 view .LVU481
 1458 01da B5F91830 		ldrsh	r3, [r5, #24]
 124:Middlewares/lvgl/src/extra/layouts/flex/../flex/../../../core/../misc/../font/../misc/lv_area.h ****     dest->y2 = src->y2;
 1459              		.loc 1 124 14 view .LVU482
 1460 01de ADF84030 		strh	r3, [sp, #64]	@ movhi
 125:Middlewares/lvgl/src/extra/layouts/flex/../flex/../../../core/../misc/../font/../misc/lv_area.h **** }
 1461              		.loc 1 125 5 is_stmt 1 view .LVU483
 125:Middlewares/lvgl/src/extra/layouts/flex/../flex/../../../core/../misc/../font/../misc/lv_area.h **** }
 1462              		.loc 1 125 19 is_stmt 0 view .LVU484
 1463 01e2 B5F91A30 		ldrsh	r3, [r5, #26]
 125:Middlewares/lvgl/src/extra/layouts/flex/../flex/../../../core/../misc/../font/../misc/lv_area.h **** }
 1464              		.loc 1 125 14 view .LVU485
 1465 01e6 ADF84230 		strh	r3, [sp, #66]	@ movhi
 1466              	.LVL144:
 125:Middlewares/lvgl/src/extra/layouts/flex/../flex/../../../core/../misc/../font/../misc/lv_area.h **** }
 1467              		.loc 1 125 14 view .LVU486
 1468              	.LBE91:
 1469              	.LBE90:
 468:Middlewares/lvgl/src/extra/layouts/flex/lv_flex.c ****                 lv_event_send(item, LV_EVENT_SIZE_CHANGED, &old_coords);
 1470              		.loc 2 468 17 is_stmt 1 view .LVU487
 1471 01ea 3946     		mov	r1, r7
 1472 01ec 3046     		mov	r0, r6
 1473 01ee 0C9B     		ldr	r3, [sp, #48]
 1474 01f0 9847     		blx	r3
 1475              	.LVL145:
ARM GAS  /tmp/ccyjKoUS.s 			page 52


 469:Middlewares/lvgl/src/extra/layouts/flex/lv_flex.c ****                 lv_event_send(lv_obj_get_parent(item), LV_EVENT_CHILD_CHANGED, item);
 1476              		.loc 2 469 17 view .LVU488
 1477 01f2 0FAA     		add	r2, sp, #60
 1478 01f4 2321     		movs	r1, #35
 1479 01f6 2846     		mov	r0, r5
 1480 01f8 FFF7FEFF 		bl	lv_event_send
 1481              	.LVL146:
 470:Middlewares/lvgl/src/extra/layouts/flex/lv_flex.c ****                 lv_obj_invalidate(item);
 1482              		.loc 2 470 17 view .LVU489
 1483 01fc 2846     		mov	r0, r5
 1484 01fe FFF7FEFF 		bl	lv_obj_get_parent
 1485              	.LVL147:
 1486 0202 2A46     		mov	r2, r5
 1487 0204 2221     		movs	r1, #34
 1488 0206 FFF7FEFF 		bl	lv_event_send
 1489              	.LVL148:
 471:Middlewares/lvgl/src/extra/layouts/flex/lv_flex.c ****             }
 1490              		.loc 2 471 17 view .LVU490
 1491 020a 2846     		mov	r0, r5
 1492 020c FFF7FEFF 		bl	lv_obj_invalidate
 1493              	.LVL149:
 1494 0210 C8E0     		b	.L79
 1495              	.L77:
 471:Middlewares/lvgl/src/extra/layouts/flex/lv_flex.c ****             }
 1496              		.loc 2 471 17 is_stmt 0 view .LVU491
 1497              	.LBE89:
 461:Middlewares/lvgl/src/extra/layouts/flex/lv_flex.c **** 
 1498              		.loc 2 461 18 is_stmt 1 view .LVU492
 461:Middlewares/lvgl/src/extra/layouts/flex/lv_flex.c **** 
 1499              		.loc 2 461 33 is_stmt 0 view .LVU493
 1500 0212 95F82330 		ldrb	r3, [r5, #35]	@ zero_extendqisi2
 1501 0216 43F00203 		orr	r3, r3, #2
 1502 021a 85F82330 		strb	r3, [r5, #35]
 1503 021e C9E7     		b	.L78
 1504              	.LVL150:
 1505              	.L80:
 461:Middlewares/lvgl/src/extra/layouts/flex/lv_flex.c **** 
 1506              		.loc 2 461 33 view .LVU494
 1507              	.LBE88:
 486:Middlewares/lvgl/src/extra/layouts/flex/lv_flex.c ****             break;
 1508              		.loc 2 486 13 is_stmt 1 view .LVU495
 486:Middlewares/lvgl/src/extra/layouts/flex/lv_flex.c ****             break;
 1509              		.loc 2 486 26 is_stmt 0 view .LVU496
 1510 0220 2688     		ldrh	r6, [r4]
 486:Middlewares/lvgl/src/extra/layouts/flex/lv_flex.c ****             break;
 1511              		.loc 2 486 47 view .LVU497
 1512 0222 05F11400 		add	r0, r5, #20
 1513 0226 0B9B     		ldr	r3, [sp, #44]
 1514 0228 9847     		blx	r3
 1515              	.LVL151:
 1516 022a 80B2     		uxth	r0, r0
 486:Middlewares/lvgl/src/extra/layouts/flex/lv_flex.c ****             break;
 1517              		.loc 2 486 45 view .LVU498
 1518 022c 361A     		subs	r6, r6, r0
 486:Middlewares/lvgl/src/extra/layouts/flex/lv_flex.c ****             break;
 1519              		.loc 2 486 23 view .LVU499
 1520 022e 33B2     		sxth	r3, r6
ARM GAS  /tmp/ccyjKoUS.s 			page 53


 1521 0230 0393     		str	r3, [sp, #12]
 1522              	.LVL152:
 487:Middlewares/lvgl/src/extra/layouts/flex/lv_flex.c ****         default:
 1523              		.loc 2 487 13 is_stmt 1 view .LVU500
 1524 0232 09E0     		b	.L81
 1525              	.L120:
 1526              		.align	2
 1527              	.L119:
 1528 0234 00000000 		.word	lv_area_set_width
 1529 0238 00000000 		.word	lv_area_get_width
 1530 023c 00000000 		.word	lv_area_set_height
 1531 0240 00000000 		.word	lv_area_get_height
 1532              	.LVL153:
 1533              	.L104:
 479:Middlewares/lvgl/src/extra/layouts/flex/lv_flex.c ****         case LV_FLEX_ALIGN_CENTER:
 1534              		.loc 2 479 9 is_stmt 0 view .LVU501
 1535 0244 0023     		movs	r3, #0
 1536 0246 0393     		str	r3, [sp, #12]
 1537              	.LVL154:
 1538              	.L81:
 492:Middlewares/lvgl/src/extra/layouts/flex/lv_flex.c **** 
 1539              		.loc 2 492 9 is_stmt 1 view .LVU502
 492:Middlewares/lvgl/src/extra/layouts/flex/lv_flex.c **** 
 1540              		.loc 2 492 12 is_stmt 0 view .LVU503
 1541 0248 99F80330 		ldrb	r3, [r9, #3]	@ zero_extendqisi2
 492:Middlewares/lvgl/src/extra/layouts/flex/lv_flex.c **** 
 1542              		.loc 2 492 11 view .LVU504
 1543 024c 13F0010F 		tst	r3, #1
 1544 0250 03D0     		beq	.L82
 492:Middlewares/lvgl/src/extra/layouts/flex/lv_flex.c **** 
 1545              		.loc 2 492 19 discriminator 1 view .LVU505
 1546 0252 079B     		ldr	r3, [sp, #28]
 1547 0254 012B     		cmp	r3, #1
 1548 0256 00F0BD80 		beq	.L114
 1549              	.L82:
 496:Middlewares/lvgl/src/extra/layouts/flex/lv_flex.c ****         lv_coord_t tr_y = lv_obj_get_style_translate_y(item, LV_PART_MAIN);
 1550              		.loc 2 496 9 is_stmt 1 view .LVU506
 1551              	.LVL155:
 1552              	.LBB92:
 1553              	.LBI92:
  67:Middlewares/lvgl/src/extra/layouts/flex/../flex/../../../core/lv_obj_style_gen.h **** {
 1554              		.loc 3 67 26 view .LVU507
 1555              	.LBB93:
  69:Middlewares/lvgl/src/extra/layouts/flex/../flex/../../../core/lv_obj_style_gen.h ****     return (lv_coord_t)v.num;
 1556              		.loc 3 69 5 view .LVU508
  69:Middlewares/lvgl/src/extra/layouts/flex/../flex/../../../core/lv_obj_style_gen.h ****     return (lv_coord_t)v.num;
 1557              		.loc 3 69 26 is_stmt 0 view .LVU509
 1558 025a 43F20C02 		movw	r2, #12300
 1559 025e 0021     		movs	r1, #0
 1560 0260 2846     		mov	r0, r5
 1561 0262 FFF7FEFF 		bl	lv_obj_get_style_prop
 1562              	.LVL156:
 1563 0266 0746     		mov	r7, r0
 1564              	.LVL157:
  70:Middlewares/lvgl/src/extra/layouts/flex/../flex/../../../core/lv_obj_style_gen.h **** }
 1565              		.loc 3 70 5 is_stmt 1 view .LVU510
  70:Middlewares/lvgl/src/extra/layouts/flex/../flex/../../../core/lv_obj_style_gen.h **** }
ARM GAS  /tmp/ccyjKoUS.s 			page 54


 1566              		.loc 3 70 12 is_stmt 0 view .LVU511
 1567 0268 0FFA80FB 		sxth	fp, r0
 1568              	.LVL158:
  70:Middlewares/lvgl/src/extra/layouts/flex/../flex/../../../core/lv_obj_style_gen.h **** }
 1569              		.loc 3 70 12 view .LVU512
 1570              	.LBE93:
 1571              	.LBE92:
 497:Middlewares/lvgl/src/extra/layouts/flex/lv_flex.c ****         lv_coord_t w = lv_obj_get_width(item);
 1572              		.loc 2 497 9 is_stmt 1 view .LVU513
 1573              	.LBB94:
 1574              	.LBI94:
  73:Middlewares/lvgl/src/extra/layouts/flex/../flex/../../../core/lv_obj_style_gen.h **** {
 1575              		.loc 3 73 26 view .LVU514
 1576              	.LBB95:
  75:Middlewares/lvgl/src/extra/layouts/flex/../flex/../../../core/lv_obj_style_gen.h ****     return (lv_coord_t)v.num;
 1577              		.loc 3 75 5 view .LVU515
  75:Middlewares/lvgl/src/extra/layouts/flex/../flex/../../../core/lv_obj_style_gen.h ****     return (lv_coord_t)v.num;
 1578              		.loc 3 75 26 is_stmt 0 view .LVU516
 1579 026c 43F20D02 		movw	r2, #12301
 1580 0270 0021     		movs	r1, #0
 1581 0272 2846     		mov	r0, r5
  75:Middlewares/lvgl/src/extra/layouts/flex/../flex/../../../core/lv_obj_style_gen.h ****     return (lv_coord_t)v.num;
 1582              		.loc 3 75 26 view .LVU517
 1583 0274 FFF7FEFF 		bl	lv_obj_get_style_prop
 1584              	.LVL159:
 1585 0278 0646     		mov	r6, r0
  76:Middlewares/lvgl/src/extra/layouts/flex/../flex/../../../core/lv_obj_style_gen.h **** }
 1586              		.loc 3 76 5 is_stmt 1 view .LVU518
  76:Middlewares/lvgl/src/extra/layouts/flex/../flex/../../../core/lv_obj_style_gen.h **** }
 1587              		.loc 3 76 12 is_stmt 0 view .LVU519
 1588 027a 0FFA80FA 		sxth	r10, r0
 1589              	.LVL160:
  76:Middlewares/lvgl/src/extra/layouts/flex/../flex/../../../core/lv_obj_style_gen.h **** }
 1590              		.loc 3 76 12 view .LVU520
 1591              	.LBE95:
 1592              	.LBE94:
 498:Middlewares/lvgl/src/extra/layouts/flex/lv_flex.c ****         lv_coord_t h = lv_obj_get_height(item);
 1593              		.loc 2 498 9 is_stmt 1 view .LVU521
 498:Middlewares/lvgl/src/extra/layouts/flex/lv_flex.c ****         lv_coord_t h = lv_obj_get_height(item);
 1594              		.loc 2 498 24 is_stmt 0 view .LVU522
 1595 027e 2846     		mov	r0, r5
 1596 0280 FFF7FEFF 		bl	lv_obj_get_width
 1597              	.LVL161:
 1598 0284 8046     		mov	r8, r0
 1599              	.LVL162:
 499:Middlewares/lvgl/src/extra/layouts/flex/lv_flex.c ****         if(LV_COORD_IS_PCT(tr_x)) tr_x = (w * LV_COORD_GET_PCT(tr_x)) / 100;
 1600              		.loc 2 499 9 is_stmt 1 view .LVU523
 499:Middlewares/lvgl/src/extra/layouts/flex/lv_flex.c ****         if(LV_COORD_IS_PCT(tr_x)) tr_x = (w * LV_COORD_GET_PCT(tr_x)) / 100;
 1601              		.loc 2 499 24 is_stmt 0 view .LVU524
 1602 0286 2846     		mov	r0, r5
 1603 0288 FFF7FEFF 		bl	lv_obj_get_height
 1604              	.LVL163:
 500:Middlewares/lvgl/src/extra/layouts/flex/lv_flex.c ****         if(LV_COORD_IS_PCT(tr_y)) tr_y = (h * LV_COORD_GET_PCT(tr_y)) / 100;
 1605              		.loc 2 500 9 is_stmt 1 view .LVU525
 500:Middlewares/lvgl/src/extra/layouts/flex/lv_flex.c ****         if(LV_COORD_IS_PCT(tr_y)) tr_y = (h * LV_COORD_GET_PCT(tr_y)) / 100;
 1606              		.loc 2 500 12 is_stmt 0 view .LVU526
 1607 028c 07F4C047 		and	r7, r7, #24576
ARM GAS  /tmp/ccyjKoUS.s 			page 55


 1608              	.LVL164:
 500:Middlewares/lvgl/src/extra/layouts/flex/lv_flex.c ****         if(LV_COORD_IS_PCT(tr_y)) tr_y = (h * LV_COORD_GET_PCT(tr_y)) / 100;
 1609              		.loc 2 500 11 view .LVU527
 1610 0290 B7F5005F 		cmp	r7, #8192
 1611 0294 00F0A980 		beq	.L115
 1612              	.LVL165:
 1613              	.L83:
 501:Middlewares/lvgl/src/extra/layouts/flex/lv_flex.c **** 
 1614              		.loc 2 501 9 is_stmt 1 view .LVU528
 501:Middlewares/lvgl/src/extra/layouts/flex/lv_flex.c **** 
 1615              		.loc 2 501 12 is_stmt 0 view .LVU529
 1616 0298 06F4C046 		and	r6, r6, #24576
 501:Middlewares/lvgl/src/extra/layouts/flex/lv_flex.c **** 
 1617              		.loc 2 501 11 view .LVU530
 1618 029c B6F5005F 		cmp	r6, #8192
 1619 02a0 00F0BA80 		beq	.L116
 1620              	.L86:
 503:Middlewares/lvgl/src/extra/layouts/flex/lv_flex.c ****         lv_coord_t diff_y = abs_y - item->coords.y1 + tr_y;
 1621              		.loc 2 503 9 is_stmt 1 view .LVU531
 503:Middlewares/lvgl/src/extra/layouts/flex/lv_flex.c ****         lv_coord_t diff_y = abs_y - item->coords.y1 + tr_y;
 1622              		.loc 2 503 49 is_stmt 0 view .LVU532
 1623 02a4 AE8A     		ldrh	r6, [r5, #20]
 503:Middlewares/lvgl/src/extra/layouts/flex/lv_flex.c ****         lv_coord_t diff_y = abs_y - item->coords.y1 + tr_y;
 1624              		.loc 2 503 35 view .LVU533
 1625 02a6 089B     		ldr	r3, [sp, #32]
 1626 02a8 9E1B     		subs	r6, r3, r6
 1627 02aa B6B2     		uxth	r6, r6
 503:Middlewares/lvgl/src/extra/layouts/flex/lv_flex.c ****         lv_coord_t diff_y = abs_y - item->coords.y1 + tr_y;
 1628              		.loc 2 503 53 view .LVU534
 1629 02ac 5E44     		add	r6, r6, fp
 1630 02ae B6B2     		uxth	r6, r6
 1631              	.LVL166:
 504:Middlewares/lvgl/src/extra/layouts/flex/lv_flex.c ****         diff_x += f->row ? main_pos : cross_pos;
 1632              		.loc 2 504 9 is_stmt 1 view .LVU535
 504:Middlewares/lvgl/src/extra/layouts/flex/lv_flex.c ****         diff_x += f->row ? main_pos : cross_pos;
 1633              		.loc 2 504 49 is_stmt 0 view .LVU536
 1634 02b0 EA8A     		ldrh	r2, [r5, #22]
 504:Middlewares/lvgl/src/extra/layouts/flex/lv_flex.c ****         diff_x += f->row ? main_pos : cross_pos;
 1635              		.loc 2 504 35 view .LVU537
 1636 02b2 099B     		ldr	r3, [sp, #36]
 1637 02b4 9A1A     		subs	r2, r3, r2
 1638 02b6 92B2     		uxth	r2, r2
 504:Middlewares/lvgl/src/extra/layouts/flex/lv_flex.c ****         diff_x += f->row ? main_pos : cross_pos;
 1639              		.loc 2 504 53 view .LVU538
 1640 02b8 5244     		add	r2, r2, r10
 1641 02ba 92B2     		uxth	r2, r2
 1642              	.LVL167:
 505:Middlewares/lvgl/src/extra/layouts/flex/lv_flex.c ****         diff_y += f->row ? cross_pos : main_pos;
 1643              		.loc 2 505 9 is_stmt 1 view .LVU539
 505:Middlewares/lvgl/src/extra/layouts/flex/lv_flex.c ****         diff_y += f->row ? cross_pos : main_pos;
 1644              		.loc 2 505 26 is_stmt 0 view .LVU540
 1645 02bc 99F80330 		ldrb	r3, [r9, #3]	@ zero_extendqisi2
 505:Middlewares/lvgl/src/extra/layouts/flex/lv_flex.c ****         diff_y += f->row ? cross_pos : main_pos;
 1646              		.loc 2 505 16 view .LVU541
 1647 02c0 13F00103 		ands	r3, r3, #1
 1648 02c4 00F0BF80 		beq	.L89
 505:Middlewares/lvgl/src/extra/layouts/flex/lv_flex.c ****         diff_y += f->row ? cross_pos : main_pos;
ARM GAS  /tmp/ccyjKoUS.s 			page 56


 1649              		.loc 2 505 16 discriminator 1 view .LVU542
 1650 02c8 BDF846B0 		ldrh	fp, [sp, #70]
 1651              	.LVL168:
 1652              	.L90:
 505:Middlewares/lvgl/src/extra/layouts/flex/lv_flex.c ****         diff_y += f->row ? cross_pos : main_pos;
 1653              		.loc 2 505 16 discriminator 4 view .LVU543
 1654 02cc 5E44     		add	r6, r6, fp
 1655              	.LVL169:
 505:Middlewares/lvgl/src/extra/layouts/flex/lv_flex.c ****         diff_y += f->row ? cross_pos : main_pos;
 1656              		.loc 2 505 16 discriminator 4 view .LVU544
 1657 02ce 1FFA86F8 		uxth	r8, r6
 1658 02d2 36B2     		sxth	r6, r6
 1659              	.LVL170:
 506:Middlewares/lvgl/src/extra/layouts/flex/lv_flex.c **** 
 1660              		.loc 2 506 9 is_stmt 1 discriminator 4 view .LVU545
 506:Middlewares/lvgl/src/extra/layouts/flex/lv_flex.c **** 
 1661              		.loc 2 506 16 is_stmt 0 discriminator 4 view .LVU546
 1662 02d4 002B     		cmp	r3, #0
 1663 02d6 00F0B980 		beq	.L91
 506:Middlewares/lvgl/src/extra/layouts/flex/lv_flex.c **** 
 1664              		.loc 2 506 16 discriminator 1 view .LVU547
 1665 02da BDF80CA0 		ldrh	r10, [sp, #12]
 1666              	.LVL171:
 1667              	.L92:
 506:Middlewares/lvgl/src/extra/layouts/flex/lv_flex.c **** 
 1668              		.loc 2 506 16 discriminator 4 view .LVU548
 1669 02de 5244     		add	r2, r2, r10
 1670              	.LVL172:
 506:Middlewares/lvgl/src/extra/layouts/flex/lv_flex.c **** 
 1671              		.loc 2 506 16 discriminator 4 view .LVU549
 1672 02e0 1FFA82FA 		uxth	r10, r2
 1673 02e4 17B2     		sxth	r7, r2
 1674              	.LVL173:
 508:Middlewares/lvgl/src/extra/layouts/flex/lv_flex.c ****             lv_obj_invalidate(item);
 1675              		.loc 2 508 9 is_stmt 1 discriminator 4 view .LVU550
 508:Middlewares/lvgl/src/extra/layouts/flex/lv_flex.c ****             lv_obj_invalidate(item);
 1676              		.loc 2 508 11 is_stmt 0 discriminator 4 view .LVU551
 1677 02e6 06B9     		cbnz	r6, .L93
 508:Middlewares/lvgl/src/extra/layouts/flex/lv_flex.c ****             lv_obj_invalidate(item);
 1678              		.loc 2 508 19 discriminator 1 view .LVU552
 1679 02e8 CFB1     		cbz	r7, .L94
 1680              	.L93:
 509:Middlewares/lvgl/src/extra/layouts/flex/lv_flex.c ****             item->coords.x1 += diff_x;
 1681              		.loc 2 509 13 is_stmt 1 view .LVU553
 1682 02ea 2846     		mov	r0, r5
 1683              	.LVL174:
 509:Middlewares/lvgl/src/extra/layouts/flex/lv_flex.c ****             item->coords.x1 += diff_x;
 1684              		.loc 2 509 13 is_stmt 0 view .LVU554
 1685 02ec FFF7FEFF 		bl	lv_obj_invalidate
 1686              	.LVL175:
 510:Middlewares/lvgl/src/extra/layouts/flex/lv_flex.c ****             item->coords.x2 += diff_x;
 1687              		.loc 2 510 13 is_stmt 1 view .LVU555
 510:Middlewares/lvgl/src/extra/layouts/flex/lv_flex.c ****             item->coords.x2 += diff_x;
 1688              		.loc 2 510 29 is_stmt 0 view .LVU556
 1689 02f0 AB8A     		ldrh	r3, [r5, #20]
 1690 02f2 4344     		add	r3, r3, r8
 1691 02f4 AB82     		strh	r3, [r5, #20]	@ movhi
ARM GAS  /tmp/ccyjKoUS.s 			page 57


 511:Middlewares/lvgl/src/extra/layouts/flex/lv_flex.c ****             item->coords.y1 += diff_y;
 1692              		.loc 2 511 13 is_stmt 1 view .LVU557
 511:Middlewares/lvgl/src/extra/layouts/flex/lv_flex.c ****             item->coords.y1 += diff_y;
 1693              		.loc 2 511 29 is_stmt 0 view .LVU558
 1694 02f6 2B8B     		ldrh	r3, [r5, #24]
 1695 02f8 9844     		add	r8, r8, r3
 1696 02fa A5F81880 		strh	r8, [r5, #24]	@ movhi
 512:Middlewares/lvgl/src/extra/layouts/flex/lv_flex.c ****             item->coords.y2 += diff_y;
 1697              		.loc 2 512 13 is_stmt 1 view .LVU559
 512:Middlewares/lvgl/src/extra/layouts/flex/lv_flex.c ****             item->coords.y2 += diff_y;
 1698              		.loc 2 512 29 is_stmt 0 view .LVU560
 1699 02fe EB8A     		ldrh	r3, [r5, #22]
 1700 0300 5344     		add	r3, r3, r10
 1701 0302 EB82     		strh	r3, [r5, #22]	@ movhi
 513:Middlewares/lvgl/src/extra/layouts/flex/lv_flex.c ****             lv_obj_invalidate(item);
 1702              		.loc 2 513 13 is_stmt 1 view .LVU561
 513:Middlewares/lvgl/src/extra/layouts/flex/lv_flex.c ****             lv_obj_invalidate(item);
 1703              		.loc 2 513 29 is_stmt 0 view .LVU562
 1704 0304 6B8B     		ldrh	r3, [r5, #26]
 1705 0306 9A44     		add	r10, r10, r3
 1706 0308 A5F81AA0 		strh	r10, [r5, #26]	@ movhi
 514:Middlewares/lvgl/src/extra/layouts/flex/lv_flex.c ****             lv_obj_move_children_by(item, diff_x, diff_y, true);
 1707              		.loc 2 514 13 is_stmt 1 view .LVU563
 1708 030c 2846     		mov	r0, r5
 1709 030e FFF7FEFF 		bl	lv_obj_invalidate
 1710              	.LVL176:
 515:Middlewares/lvgl/src/extra/layouts/flex/lv_flex.c ****         }
 1711              		.loc 2 515 13 view .LVU564
 1712 0312 0123     		movs	r3, #1
 1713 0314 3A46     		mov	r2, r7
 1714 0316 3146     		mov	r1, r6
 1715 0318 2846     		mov	r0, r5
 1716 031a FFF7FEFF 		bl	lv_obj_move_children_by
 1717              	.LVL177:
 1718              	.L94:
 518:Middlewares/lvgl/src/extra/layouts/flex/lv_flex.c ****         else main_pos -= item_gap + place_gap;
 1719              		.loc 2 518 9 view .LVU565
 518:Middlewares/lvgl/src/extra/layouts/flex/lv_flex.c ****         else main_pos -= item_gap + place_gap;
 1720              		.loc 2 518 14 is_stmt 0 view .LVU566
 1721 031e 99F80330 		ldrb	r3, [r9, #3]	@ zero_extendqisi2
 518:Middlewares/lvgl/src/extra/layouts/flex/lv_flex.c ****         else main_pos -= item_gap + place_gap;
 1722              		.loc 2 518 11 view .LVU567
 1723 0322 13F0010F 		tst	r3, #1
 1724 0326 03D0     		beq	.L95
 518:Middlewares/lvgl/src/extra/layouts/flex/lv_flex.c ****         else main_pos -= item_gap + place_gap;
 1725              		.loc 2 518 12 discriminator 2 view .LVU568
 1726 0328 079B     		ldr	r3, [sp, #28]
 1727 032a 012B     		cmp	r3, #1
 1728 032c 00F09180 		beq	.L96
 1729              	.L95:
 518:Middlewares/lvgl/src/extra/layouts/flex/lv_flex.c ****         else main_pos -= item_gap + place_gap;
 1730              		.loc 2 518 30 is_stmt 1 discriminator 3 view .LVU569
 518:Middlewares/lvgl/src/extra/layouts/flex/lv_flex.c ****         else main_pos -= item_gap + place_gap;
 1731              		.loc 2 518 42 is_stmt 0 discriminator 3 view .LVU570
 1732 0330 05F11400 		add	r0, r5, #20
 1733 0334 069B     		ldr	r3, [sp, #24]
 1734 0336 9847     		blx	r3
ARM GAS  /tmp/ccyjKoUS.s 			page 58


 1735              	.LVL178:
 518:Middlewares/lvgl/src/extra/layouts/flex/lv_flex.c ****         else main_pos -= item_gap + place_gap;
 1736              		.loc 2 518 76 discriminator 3 view .LVU571
 1737 0338 0A9B     		ldr	r3, [sp, #40]
 1738 033a 1844     		add	r0, r0, r3
 518:Middlewares/lvgl/src/extra/layouts/flex/lv_flex.c ****         else main_pos -= item_gap + place_gap;
 1739              		.loc 2 518 87 discriminator 3 view .LVU572
 1740 033c BDF94430 		ldrsh	r3, [sp, #68]
 1741 0340 0344     		add	r3, r3, r0
 518:Middlewares/lvgl/src/extra/layouts/flex/lv_flex.c ****         else main_pos -= item_gap + place_gap;
 1742              		.loc 2 518 39 discriminator 3 view .LVU573
 1743 0342 BDF84620 		ldrh	r2, [sp, #70]
 1744 0346 1344     		add	r3, r3, r2
 1745 0348 ADF84630 		strh	r3, [sp, #70]	@ movhi
 1746              	.L97:
 521:Middlewares/lvgl/src/extra/layouts/flex/lv_flex.c ****     }
 1747              		.loc 2 521 9 is_stmt 1 view .LVU574
 521:Middlewares/lvgl/src/extra/layouts/flex/lv_flex.c ****     }
 1748              		.loc 2 521 37 is_stmt 0 view .LVU575
 1749 034c 99F80310 		ldrb	r1, [r9, #3]	@ zero_extendqisi2
 521:Middlewares/lvgl/src/extra/layouts/flex/lv_flex.c ****     }
 1750              		.loc 2 521 16 view .LVU576
 1751 0350 0DAA     		add	r2, sp, #52
 1752 0352 C1F38001 		ubfx	r1, r1, #2, #1
 1753 0356 0498     		ldr	r0, [sp, #16]
 1754 0358 FFF7FEFF 		bl	get_next_item
 1755              	.LVL179:
 1756 035c 0546     		mov	r5, r0
 1757              	.LVL180:
 1758              	.L69:
 521:Middlewares/lvgl/src/extra/layouts/flex/lv_flex.c ****     }
 1759              		.loc 2 521 16 view .LVU577
 1760              	.LBE87:
 445:Middlewares/lvgl/src/extra/layouts/flex/lv_flex.c ****         if(lv_obj_has_flag_any(item, LV_OBJ_FLAG_IGNORE_LAYOUT | LV_OBJ_FLAG_HIDDEN | LV_OBJ_FLAG_F
 1761              		.loc 2 445 10 is_stmt 1 view .LVU578
 1762 035e 002D     		cmp	r5, #0
 1763 0360 00F08280 		beq	.L54
 445:Middlewares/lvgl/src/extra/layouts/flex/lv_flex.c ****         if(lv_obj_has_flag_any(item, LV_OBJ_FLAG_IGNORE_LAYOUT | LV_OBJ_FLAG_HIDDEN | LV_OBJ_FLAG_F
 1764              		.loc 2 445 33 is_stmt 0 discriminator 1 view .LVU579
 1765 0364 0D9B     		ldr	r3, [sp, #52]
 445:Middlewares/lvgl/src/extra/layouts/flex/lv_flex.c ****         if(lv_obj_has_flag_any(item, LV_OBJ_FLAG_IGNORE_LAYOUT | LV_OBJ_FLAG_HIDDEN | LV_OBJ_FLAG_F
 1766              		.loc 2 445 16 discriminator 1 view .LVU580
 1767 0366 059A     		ldr	r2, [sp, #20]
 1768 0368 9342     		cmp	r3, r2
 1769 036a 7DD0     		beq	.L54
 1770              	.LBB98:
 446:Middlewares/lvgl/src/extra/layouts/flex/lv_flex.c ****             item = get_next_item(cont, f->rev, &item_first_id);
 1771              		.loc 2 446 9 is_stmt 1 view .LVU581
 446:Middlewares/lvgl/src/extra/layouts/flex/lv_flex.c ****             item = get_next_item(cont, f->rev, &item_first_id);
 1772              		.loc 2 446 12 is_stmt 0 view .LVU582
 1773 036c 4049     		ldr	r1, .L121
 1774 036e 2846     		mov	r0, r5
 446:Middlewares/lvgl/src/extra/layouts/flex/lv_flex.c ****             item = get_next_item(cont, f->rev, &item_first_id);
 1775              		.loc 2 446 12 view .LVU583
 1776 0370 FFF7FEFF 		bl	lv_obj_has_flag_any
 1777              	.LVL181:
 446:Middlewares/lvgl/src/extra/layouts/flex/lv_flex.c ****             item = get_next_item(cont, f->rev, &item_first_id);
ARM GAS  /tmp/ccyjKoUS.s 			page 59


 1778              		.loc 2 446 11 view .LVU584
 1779 0374 0028     		cmp	r0, #0
 1780 0376 7FF4F5AE 		bne	.L117
 450:Middlewares/lvgl/src/extra/layouts/flex/lv_flex.c ****         if(grow_size) {
 1781              		.loc 2 450 9 is_stmt 1 view .LVU585
 1782              	.LVL182:
 1783              	.LBB96:
 1784              	.LBI96:
 135:Middlewares/lvgl/src/extra/layouts/flex/../flex/lv_flex.h **** {
 1785              		.loc 4 135 23 view .LVU586
 1786              	.LBB97:
 137:Middlewares/lvgl/src/extra/layouts/flex/../flex/lv_flex.h ****     return (uint8_t)v.num;
 1787              		.loc 4 137 5 view .LVU587
 137:Middlewares/lvgl/src/extra/layouts/flex/../flex/lv_flex.h ****     return (uint8_t)v.num;
 1788              		.loc 4 137 26 is_stmt 0 view .LVU588
 1789 037a 3E4B     		ldr	r3, .L121+4
 1790 037c 1A88     		ldrh	r2, [r3]
 1791 037e 0021     		movs	r1, #0
 1792 0380 2846     		mov	r0, r5
 1793 0382 FFF7FEFF 		bl	lv_obj_get_style_prop
 1794              	.LVL183:
 1795              		.loc 4 138 5 is_stmt 1 view .LVU589
 1796              		.loc 4 138 5 is_stmt 0 view .LVU590
 1797              	.LBE97:
 1798              	.LBE96:
 451:Middlewares/lvgl/src/extra/layouts/flex/lv_flex.c ****             lv_coord_t s = 0;
 1799              		.loc 2 451 9 is_stmt 1 view .LVU591
 451:Middlewares/lvgl/src/extra/layouts/flex/lv_flex.c ****             lv_coord_t s = 0;
 1800              		.loc 2 451 11 is_stmt 0 view .LVU592
 1801 0386 10F0FF0F 		tst	r0, #255
 1802 038a 7FF4F8AE 		bne	.L118
 474:Middlewares/lvgl/src/extra/layouts/flex/lv_flex.c ****             item->h_layout = 0;
 1803              		.loc 2 474 13 is_stmt 1 view .LVU593
 474:Middlewares/lvgl/src/extra/layouts/flex/lv_flex.c ****             item->h_layout = 0;
 1804              		.loc 2 474 28 is_stmt 0 view .LVU594
 1805 038e 95F82330 		ldrb	r3, [r5, #35]	@ zero_extendqisi2
 1806 0392 6FF38203 		bfc	r3, #2, #1
 1807 0396 85F82330 		strb	r3, [r5, #35]
 475:Middlewares/lvgl/src/extra/layouts/flex/lv_flex.c ****         }
 1808              		.loc 2 475 13 is_stmt 1 view .LVU595
 475:Middlewares/lvgl/src/extra/layouts/flex/lv_flex.c ****         }
 1809              		.loc 2 475 28 is_stmt 0 view .LVU596
 1810 039a DBB2     		uxtb	r3, r3
 1811 039c 6FF34103 		bfc	r3, #1, #1
 1812 03a0 85F82330 		strb	r3, [r5, #35]
 1813              	.LVL184:
 1814              	.L79:
 478:Middlewares/lvgl/src/extra/layouts/flex/lv_flex.c ****         switch(f->cross_place) {
 1815              		.loc 2 478 9 is_stmt 1 view .LVU597
 479:Middlewares/lvgl/src/extra/layouts/flex/lv_flex.c ****         case LV_FLEX_ALIGN_CENTER:
 1816              		.loc 2 479 9 view .LVU598
 479:Middlewares/lvgl/src/extra/layouts/flex/lv_flex.c ****         case LV_FLEX_ALIGN_CENTER:
 1817              		.loc 2 479 17 is_stmt 0 view .LVU599
 1818 03a4 99F80130 		ldrb	r3, [r9, #1]	@ zero_extendqisi2
 479:Middlewares/lvgl/src/extra/layouts/flex/lv_flex.c ****         case LV_FLEX_ALIGN_CENTER:
 1819              		.loc 2 479 9 view .LVU600
 1820 03a8 012B     		cmp	r3, #1
ARM GAS  /tmp/ccyjKoUS.s 			page 60


 1821 03aa 3FF439AF 		beq	.L80
 1822 03ae 022B     		cmp	r3, #2
 1823 03b0 7FF448AF 		bne	.L104
 483:Middlewares/lvgl/src/extra/layouts/flex/lv_flex.c ****             break;
 1824              		.loc 2 483 13 is_stmt 1 view .LVU601
 483:Middlewares/lvgl/src/extra/layouts/flex/lv_flex.c ****             break;
 1825              		.loc 2 483 29 is_stmt 0 view .LVU602
 1826 03b4 B4F90000 		ldrsh	r0, [r4]
 483:Middlewares/lvgl/src/extra/layouts/flex/lv_flex.c ****             break;
 1827              		.loc 2 483 48 view .LVU603
 1828 03b8 0130     		adds	r0, r0, #1
 483:Middlewares/lvgl/src/extra/layouts/flex/lv_flex.c ****             break;
 1829              		.loc 2 483 53 view .LVU604
 1830 03ba 20F00106 		bic	r6, r0, #1
 483:Middlewares/lvgl/src/extra/layouts/flex/lv_flex.c ****             break;
 1831              		.loc 2 483 63 view .LVU605
 1832 03be 05F11400 		add	r0, r5, #20
 1833 03c2 0B9B     		ldr	r3, [sp, #44]
 1834 03c4 9847     		blx	r3
 1835              	.LVL185:
 483:Middlewares/lvgl/src/extra/layouts/flex/lv_flex.c ****             break;
 1836              		.loc 2 483 61 view .LVU606
 1837 03c6 301A     		subs	r0, r6, r0
 483:Middlewares/lvgl/src/extra/layouts/flex/lv_flex.c ****             break;
 1838              		.loc 2 483 99 view .LVU607
 1839 03c8 00EBD070 		add	r0, r0, r0, lsr #31
 483:Middlewares/lvgl/src/extra/layouts/flex/lv_flex.c ****             break;
 1840              		.loc 2 483 23 view .LVU608
 1841 03cc 40F34F03 		sbfx	r3, r0, #1, #16
 1842 03d0 0393     		str	r3, [sp, #12]
 1843              	.LVL186:
 484:Middlewares/lvgl/src/extra/layouts/flex/lv_flex.c ****         case LV_FLEX_ALIGN_END:
 1844              		.loc 2 484 13 is_stmt 1 view .LVU609
 1845 03d2 39E7     		b	.L81
 1846              	.L114:
 492:Middlewares/lvgl/src/extra/layouts/flex/lv_flex.c **** 
 1847              		.loc 2 492 27 discriminator 2 view .LVU610
 492:Middlewares/lvgl/src/extra/layouts/flex/lv_flex.c **** 
 1848              		.loc 2 492 39 is_stmt 0 discriminator 2 view .LVU611
 1849 03d4 05F11400 		add	r0, r5, #20
 1850 03d8 069B     		ldr	r3, [sp, #24]
 1851 03da 9847     		blx	r3
 1852              	.LVL187:
 1853 03dc 82B2     		uxth	r2, r0
 492:Middlewares/lvgl/src/extra/layouts/flex/lv_flex.c **** 
 1854              		.loc 2 492 36 discriminator 2 view .LVU612
 1855 03de BDF84630 		ldrh	r3, [sp, #70]
 1856 03e2 9B1A     		subs	r3, r3, r2
 1857 03e4 ADF84630 		strh	r3, [sp, #70]	@ movhi
 1858 03e8 37E7     		b	.L82
 1859              	.LVL188:
 1860              	.L115:
 500:Middlewares/lvgl/src/extra/layouts/flex/lv_flex.c ****         if(LV_COORD_IS_PCT(tr_y)) tr_y = (h * LV_COORD_GET_PCT(tr_y)) / 100;
 1861              		.loc 2 500 12 discriminator 1 view .LVU613
 1862 03ea 2BF4C043 		bic	r3, fp, #24576
 1863 03ee B3F5FA6F 		cmp	r3, #2000
 1864 03f2 3FF751AF 		bgt	.L83
ARM GAS  /tmp/ccyjKoUS.s 			page 61


 500:Middlewares/lvgl/src/extra/layouts/flex/lv_flex.c ****         if(LV_COORD_IS_PCT(tr_y)) tr_y = (h * LV_COORD_GET_PCT(tr_y)) / 100;
 1865              		.loc 2 500 35 is_stmt 1 discriminator 2 view .LVU614
 500:Middlewares/lvgl/src/extra/layouts/flex/lv_flex.c ****         if(LV_COORD_IS_PCT(tr_y)) tr_y = (h * LV_COORD_GET_PCT(tr_y)) / 100;
 1866              		.loc 2 500 47 is_stmt 0 discriminator 2 view .LVU615
 1867 03f6 B3F57A7F 		cmp	r3, #1000
 1868 03fa 01DD     		ble	.L85
 500:Middlewares/lvgl/src/extra/layouts/flex/lv_flex.c ****         if(LV_COORD_IS_PCT(tr_y)) tr_y = (h * LV_COORD_GET_PCT(tr_y)) / 100;
 1869              		.loc 2 500 47 discriminator 3 view .LVU616
 1870 03fc C3F57A73 		rsb	r3, r3, #1000
 1871              	.L85:
 500:Middlewares/lvgl/src/extra/layouts/flex/lv_flex.c ****         if(LV_COORD_IS_PCT(tr_y)) tr_y = (h * LV_COORD_GET_PCT(tr_y)) / 100;
 1872              		.loc 2 500 45 discriminator 6 view .LVU617
 1873 0400 03FB08F8 		mul	r8, r3, r8
 1874              	.LVL189:
 500:Middlewares/lvgl/src/extra/layouts/flex/lv_flex.c ****         if(LV_COORD_IS_PCT(tr_y)) tr_y = (h * LV_COORD_GET_PCT(tr_y)) / 100;
 1875              		.loc 2 500 71 discriminator 6 view .LVU618
 1876 0404 1C4B     		ldr	r3, .L121+8
 1877 0406 83FB083B 		smull	r3, fp, r3, r8
 1878              	.LVL190:
 500:Middlewares/lvgl/src/extra/layouts/flex/lv_flex.c ****         if(LV_COORD_IS_PCT(tr_y)) tr_y = (h * LV_COORD_GET_PCT(tr_y)) / 100;
 1879              		.loc 2 500 71 discriminator 6 view .LVU619
 1880 040a 4FEAE878 		asr	r8, r8, #31
 1881 040e C8EB6B1B 		rsb	fp, r8, fp, asr #5
 500:Middlewares/lvgl/src/extra/layouts/flex/lv_flex.c ****         if(LV_COORD_IS_PCT(tr_y)) tr_y = (h * LV_COORD_GET_PCT(tr_y)) / 100;
 1882              		.loc 2 500 40 discriminator 6 view .LVU620
 1883 0412 0FFA8BFB 		sxth	fp, fp
 1884              	.LVL191:
 500:Middlewares/lvgl/src/extra/layouts/flex/lv_flex.c ****         if(LV_COORD_IS_PCT(tr_y)) tr_y = (h * LV_COORD_GET_PCT(tr_y)) / 100;
 1885              		.loc 2 500 40 discriminator 6 view .LVU621
 1886 0416 3FE7     		b	.L83
 1887              	.L116:
 501:Middlewares/lvgl/src/extra/layouts/flex/lv_flex.c **** 
 1888              		.loc 2 501 12 discriminator 1 view .LVU622
 1889 0418 2AF4C043 		bic	r3, r10, #24576
 1890 041c B3F5FA6F 		cmp	r3, #2000
 1891 0420 3FF740AF 		bgt	.L86
 501:Middlewares/lvgl/src/extra/layouts/flex/lv_flex.c **** 
 1892              		.loc 2 501 35 is_stmt 1 discriminator 2 view .LVU623
 501:Middlewares/lvgl/src/extra/layouts/flex/lv_flex.c **** 
 1893              		.loc 2 501 47 is_stmt 0 discriminator 2 view .LVU624
 1894 0424 B3F57A7F 		cmp	r3, #1000
 1895 0428 01DD     		ble	.L88
 501:Middlewares/lvgl/src/extra/layouts/flex/lv_flex.c **** 
 1896              		.loc 2 501 47 discriminator 3 view .LVU625
 1897 042a C3F57A73 		rsb	r3, r3, #1000
 1898              	.L88:
 501:Middlewares/lvgl/src/extra/layouts/flex/lv_flex.c **** 
 1899              		.loc 2 501 45 discriminator 6 view .LVU626
 1900 042e 00FB03F3 		mul	r3, r0, r3
 501:Middlewares/lvgl/src/extra/layouts/flex/lv_flex.c **** 
 1901              		.loc 2 501 71 discriminator 6 view .LVU627
 1902 0432 114A     		ldr	r2, .L121+8
 1903 0434 82FB0312 		smull	r1, r2, r2, r3
 1904 0438 4FEAE37A 		asr	r10, r3, #31
 1905              	.LVL192:
 501:Middlewares/lvgl/src/extra/layouts/flex/lv_flex.c **** 
 1906              		.loc 2 501 71 discriminator 6 view .LVU628
ARM GAS  /tmp/ccyjKoUS.s 			page 62


 1907 043c CAEB621A 		rsb	r10, r10, r2, asr #5
 501:Middlewares/lvgl/src/extra/layouts/flex/lv_flex.c **** 
 1908              		.loc 2 501 40 discriminator 6 view .LVU629
 1909 0440 0FFA8AFA 		sxth	r10, r10
 1910              	.LVL193:
 501:Middlewares/lvgl/src/extra/layouts/flex/lv_flex.c **** 
 1911              		.loc 2 501 40 discriminator 6 view .LVU630
 1912 0444 2EE7     		b	.L86
 1913              	.LVL194:
 1914              	.L89:
 505:Middlewares/lvgl/src/extra/layouts/flex/lv_flex.c ****         diff_y += f->row ? cross_pos : main_pos;
 1915              		.loc 2 505 16 discriminator 2 view .LVU631
 1916 0446 BDF80CB0 		ldrh	fp, [sp, #12]
 1917              	.LVL195:
 505:Middlewares/lvgl/src/extra/layouts/flex/lv_flex.c ****         diff_y += f->row ? cross_pos : main_pos;
 1918              		.loc 2 505 16 discriminator 2 view .LVU632
 1919 044a 3FE7     		b	.L90
 1920              	.L91:
 506:Middlewares/lvgl/src/extra/layouts/flex/lv_flex.c **** 
 1921              		.loc 2 506 16 discriminator 2 view .LVU633
 1922 044c BDF846A0 		ldrh	r10, [sp, #70]
 1923              	.LVL196:
 506:Middlewares/lvgl/src/extra/layouts/flex/lv_flex.c **** 
 1924              		.loc 2 506 16 discriminator 2 view .LVU634
 1925 0450 45E7     		b	.L92
 1926              	.LVL197:
 1927              	.L96:
 519:Middlewares/lvgl/src/extra/layouts/flex/lv_flex.c **** 
 1928              		.loc 2 519 14 is_stmt 1 view .LVU635
 519:Middlewares/lvgl/src/extra/layouts/flex/lv_flex.c **** 
 1929              		.loc 2 519 35 is_stmt 0 view .LVU636
 1930 0452 BDF84430 		ldrh	r3, [sp, #68]
 1931 0456 0A9A     		ldr	r2, [sp, #40]
 1932 0458 1344     		add	r3, r3, r2
 1933 045a 9BB2     		uxth	r3, r3
 519:Middlewares/lvgl/src/extra/layouts/flex/lv_flex.c **** 
 1934              		.loc 2 519 23 view .LVU637
 1935 045c BDF84620 		ldrh	r2, [sp, #70]
 1936 0460 D31A     		subs	r3, r2, r3
 1937 0462 ADF84630 		strh	r3, [sp, #70]	@ movhi
 1938 0466 71E7     		b	.L97
 1939              	.LVL198:
 1940              	.L54:
 519:Middlewares/lvgl/src/extra/layouts/flex/lv_flex.c **** 
 1941              		.loc 2 519 23 view .LVU638
 1942              	.LBE98:
 523:Middlewares/lvgl/src/extra/layouts/flex/lv_flex.c **** 
 1943              		.loc 2 523 1 view .LVU639
 1944 0468 13B0     		add	sp, sp, #76
 1945              	.LCFI9:
 1946              		.cfi_def_cfa_offset 36
 1947              		@ sp needed
 1948 046a BDE8F08F 		pop	{r4, r5, r6, r7, r8, r9, r10, fp, pc}
 1949              	.LVL199:
 1950              	.L122:
 523:Middlewares/lvgl/src/extra/layouts/flex/lv_flex.c **** 
 1951              		.loc 2 523 1 view .LVU640
ARM GAS  /tmp/ccyjKoUS.s 			page 63


 1952 046e 00BF     		.align	2
 1953              	.L121:
 1954 0470 01800100 		.word	98305
 1955 0474 00000000 		.word	.LANCHOR0
 1956 0478 1F85EB51 		.word	1374389535
 1957              		.cfi_endproc
 1958              	.LFE179:
 1960              		.section	.text.flex_update,"ax",%progbits
 1961              		.align	1
 1962              		.syntax unified
 1963              		.thumb
 1964              		.thumb_func
 1965              		.fpu softvfp
 1967              	flex_update:
 1968              	.LVL200:
 1969              	.LFB177:
 206:Middlewares/lvgl/src/extra/layouts/flex/lv_flex.c ****     LV_LOG_INFO("update %p container", cont);
 1970              		.loc 2 206 1 is_stmt 1 view -0
 1971              		.cfi_startproc
 1972              		@ args = 0, pretend = 0, frame = 56
 1973              		@ frame_needed = 0, uses_anonymous_args = 0
 206:Middlewares/lvgl/src/extra/layouts/flex/lv_flex.c ****     LV_LOG_INFO("update %p container", cont);
 1974              		.loc 2 206 1 is_stmt 0 view .LVU642
 1975 0000 2DE9F04F 		push	{r4, r5, r6, r7, r8, r9, r10, fp, lr}
 1976              	.LCFI10:
 1977              		.cfi_def_cfa_offset 36
 1978              		.cfi_offset 4, -36
 1979              		.cfi_offset 5, -32
 1980              		.cfi_offset 6, -28
 1981              		.cfi_offset 7, -24
 1982              		.cfi_offset 8, -20
 1983              		.cfi_offset 9, -16
 1984              		.cfi_offset 10, -12
 1985              		.cfi_offset 11, -8
 1986              		.cfi_offset 14, -4
 1987 0004 95B0     		sub	sp, sp, #84
 1988              	.LCFI11:
 1989              		.cfi_def_cfa_offset 120
 1990 0006 0446     		mov	r4, r0
 207:Middlewares/lvgl/src/extra/layouts/flex/lv_flex.c ****     LV_UNUSED(user_data);
 1991              		.loc 2 207 45 is_stmt 1 view .LVU643
 208:Middlewares/lvgl/src/extra/layouts/flex/lv_flex.c **** 
 1992              		.loc 2 208 5 view .LVU644
 210:Middlewares/lvgl/src/extra/layouts/flex/lv_flex.c ****     lv_flex_flow_t flow = lv_obj_get_style_flex_flow(cont, LV_PART_MAIN);
 1993              		.loc 2 210 5 view .LVU645
 211:Middlewares/lvgl/src/extra/layouts/flex/lv_flex.c ****     f.row = flow & _LV_FLEX_COLUMN ? 0 : 1;
 1994              		.loc 2 211 5 view .LVU646
 1995              	.LVL201:
 1996              	.LBB99:
 1997              	.LBI99:
 111:Middlewares/lvgl/src/extra/layouts/flex/../flex/lv_flex.h **** {
 1998              		.loc 4 111 30 view .LVU647
 1999              	.LBB100:
 113:Middlewares/lvgl/src/extra/layouts/flex/../flex/lv_flex.h ****     return (lv_flex_flow_t)v.num;
 2000              		.loc 4 113 5 view .LVU648
 113:Middlewares/lvgl/src/extra/layouts/flex/../flex/lv_flex.h ****     return (lv_flex_flow_t)v.num;
 2001              		.loc 4 113 26 is_stmt 0 view .LVU649
ARM GAS  /tmp/ccyjKoUS.s 			page 64


 2002 0008 B94B     		ldr	r3, .L167
 2003 000a 1A88     		ldrh	r2, [r3]
 2004 000c 0021     		movs	r1, #0
 2005              	.LVL202:
 113:Middlewares/lvgl/src/extra/layouts/flex/../flex/lv_flex.h ****     return (lv_flex_flow_t)v.num;
 2006              		.loc 4 113 26 view .LVU650
 2007 000e FFF7FEFF 		bl	lv_obj_get_style_prop
 2008              	.LVL203:
 114:Middlewares/lvgl/src/extra/layouts/flex/../flex/lv_flex.h **** }
 2009              		.loc 4 114 5 is_stmt 1 view .LVU651
 114:Middlewares/lvgl/src/extra/layouts/flex/../flex/lv_flex.h **** }
 2010              		.loc 4 114 5 is_stmt 0 view .LVU652
 2011              	.LBE100:
 2012              	.LBE99:
 212:Middlewares/lvgl/src/extra/layouts/flex/lv_flex.c ****     f.wrap = flow & _LV_FLEX_WRAP ? 1 : 0;
 2013              		.loc 2 212 5 is_stmt 1 view .LVU653
 212:Middlewares/lvgl/src/extra/layouts/flex/lv_flex.c ****     f.wrap = flow & _LV_FLEX_WRAP ? 1 : 0;
 2014              		.loc 2 212 40 is_stmt 0 view .LVU654
 2015 0012 10F0010F 		tst	r0, #1
 2016 0016 0CBF     		ite	eq
 2017 0018 0122     		moveq	r2, #1
 2018 001a 0022     		movne	r2, #0
 212:Middlewares/lvgl/src/extra/layouts/flex/lv_flex.c ****     f.wrap = flow & _LV_FLEX_WRAP ? 1 : 0;
 2019              		.loc 2 212 11 view .LVU655
 2020 001c 9DF84F30 		ldrb	r3, [sp, #79]	@ zero_extendqisi2
 2021 0020 62F30003 		bfi	r3, r2, #0, #1
 2022 0024 8DF84F30 		strb	r3, [sp, #79]
 213:Middlewares/lvgl/src/extra/layouts/flex/lv_flex.c ****     f.rev = flow & _LV_FLEX_REVERSE ? 1 : 0;
 2023              		.loc 2 213 5 is_stmt 1 view .LVU656
 213:Middlewares/lvgl/src/extra/layouts/flex/lv_flex.c ****     f.rev = flow & _LV_FLEX_REVERSE ? 1 : 0;
 2024              		.loc 2 213 39 is_stmt 0 view .LVU657
 2025 0028 C0F38002 		ubfx	r2, r0, #2, #1
 213:Middlewares/lvgl/src/extra/layouts/flex/lv_flex.c ****     f.rev = flow & _LV_FLEX_REVERSE ? 1 : 0;
 2026              		.loc 2 213 12 view .LVU658
 2027 002c DBB2     		uxtb	r3, r3
 2028 002e 62F34103 		bfi	r3, r2, #1, #1
 2029 0032 8DF84F30 		strb	r3, [sp, #79]
 214:Middlewares/lvgl/src/extra/layouts/flex/lv_flex.c ****     f.main_place = lv_obj_get_style_flex_main_place(cont, LV_PART_MAIN);
 2030              		.loc 2 214 5 is_stmt 1 view .LVU659
 214:Middlewares/lvgl/src/extra/layouts/flex/lv_flex.c ****     f.main_place = lv_obj_get_style_flex_main_place(cont, LV_PART_MAIN);
 2031              		.loc 2 214 41 is_stmt 0 view .LVU660
 2032 0036 C0F3C000 		ubfx	r0, r0, #3, #1
 2033              	.LVL204:
 214:Middlewares/lvgl/src/extra/layouts/flex/lv_flex.c ****     f.main_place = lv_obj_get_style_flex_main_place(cont, LV_PART_MAIN);
 2034              		.loc 2 214 11 view .LVU661
 2035 003a DBB2     		uxtb	r3, r3
 2036 003c 60F38203 		bfi	r3, r0, #2, #1
 2037 0040 8DF84F30 		strb	r3, [sp, #79]
 215:Middlewares/lvgl/src/extra/layouts/flex/lv_flex.c ****     f.cross_place = lv_obj_get_style_flex_cross_place(cont, LV_PART_MAIN);
 2038              		.loc 2 215 5 is_stmt 1 view .LVU662
 2039              	.LVL205:
 2040              	.LBB101:
 2041              	.LBI101:
 117:Middlewares/lvgl/src/extra/layouts/flex/../flex/lv_flex.h **** {
 2042              		.loc 4 117 31 view .LVU663
 2043              	.LBB102:
 119:Middlewares/lvgl/src/extra/layouts/flex/../flex/lv_flex.h ****     return (lv_flex_align_t)v.num;
ARM GAS  /tmp/ccyjKoUS.s 			page 65


 2044              		.loc 4 119 5 view .LVU664
 119:Middlewares/lvgl/src/extra/layouts/flex/../flex/lv_flex.h ****     return (lv_flex_align_t)v.num;
 2045              		.loc 4 119 26 is_stmt 0 view .LVU665
 2046 0044 AB4B     		ldr	r3, .L167+4
 2047 0046 1A88     		ldrh	r2, [r3]
 2048 0048 0021     		movs	r1, #0
 2049 004a 2046     		mov	r0, r4
 2050 004c FFF7FEFF 		bl	lv_obj_get_style_prop
 2051              	.LVL206:
 120:Middlewares/lvgl/src/extra/layouts/flex/../flex/lv_flex.h **** }
 2052              		.loc 4 120 5 is_stmt 1 view .LVU666
 120:Middlewares/lvgl/src/extra/layouts/flex/../flex/lv_flex.h **** }
 2053              		.loc 4 120 5 is_stmt 0 view .LVU667
 2054              	.LBE102:
 2055              	.LBE101:
 215:Middlewares/lvgl/src/extra/layouts/flex/lv_flex.c ****     f.cross_place = lv_obj_get_style_flex_cross_place(cont, LV_PART_MAIN);
 2056              		.loc 2 215 18 view .LVU668
 2057 0050 8DF84C00 		strb	r0, [sp, #76]
 216:Middlewares/lvgl/src/extra/layouts/flex/lv_flex.c ****     f.track_place = lv_obj_get_style_flex_track_place(cont, LV_PART_MAIN);
 2058              		.loc 2 216 5 is_stmt 1 view .LVU669
 2059              	.LVL207:
 2060              	.LBB103:
 2061              	.LBI103:
 123:Middlewares/lvgl/src/extra/layouts/flex/../flex/lv_flex.h **** {
 2062              		.loc 4 123 31 view .LVU670
 2063              	.LBB104:
 125:Middlewares/lvgl/src/extra/layouts/flex/../flex/lv_flex.h ****     return (lv_flex_align_t)v.num;
 2064              		.loc 4 125 5 view .LVU671
 125:Middlewares/lvgl/src/extra/layouts/flex/../flex/lv_flex.h ****     return (lv_flex_align_t)v.num;
 2065              		.loc 4 125 26 is_stmt 0 view .LVU672
 2066 0054 A84B     		ldr	r3, .L167+8
 2067 0056 1A88     		ldrh	r2, [r3]
 2068 0058 0021     		movs	r1, #0
 2069 005a 2046     		mov	r0, r4
 2070 005c FFF7FEFF 		bl	lv_obj_get_style_prop
 2071              	.LVL208:
 126:Middlewares/lvgl/src/extra/layouts/flex/../flex/lv_flex.h **** }
 2072              		.loc 4 126 5 is_stmt 1 view .LVU673
 126:Middlewares/lvgl/src/extra/layouts/flex/../flex/lv_flex.h **** }
 2073              		.loc 4 126 5 is_stmt 0 view .LVU674
 2074              	.LBE104:
 2075              	.LBE103:
 216:Middlewares/lvgl/src/extra/layouts/flex/lv_flex.c ****     f.track_place = lv_obj_get_style_flex_track_place(cont, LV_PART_MAIN);
 2076              		.loc 2 216 19 view .LVU675
 2077 0060 8DF84D00 		strb	r0, [sp, #77]
 217:Middlewares/lvgl/src/extra/layouts/flex/lv_flex.c **** 
 2078              		.loc 2 217 5 is_stmt 1 view .LVU676
 2079              	.LVL209:
 2080              	.LBB105:
 2081              	.LBI105:
 129:Middlewares/lvgl/src/extra/layouts/flex/../flex/lv_flex.h **** {
 2082              		.loc 4 129 31 view .LVU677
 2083              	.LBB106:
 131:Middlewares/lvgl/src/extra/layouts/flex/../flex/lv_flex.h ****     return (lv_flex_align_t)v.num;
 2084              		.loc 4 131 5 view .LVU678
 131:Middlewares/lvgl/src/extra/layouts/flex/../flex/lv_flex.h ****     return (lv_flex_align_t)v.num;
 2085              		.loc 4 131 26 is_stmt 0 view .LVU679
ARM GAS  /tmp/ccyjKoUS.s 			page 66


 2086 0064 A54B     		ldr	r3, .L167+12
 2087 0066 1A88     		ldrh	r2, [r3]
 2088 0068 0021     		movs	r1, #0
 2089 006a 2046     		mov	r0, r4
 2090 006c FFF7FEFF 		bl	lv_obj_get_style_prop
 2091              	.LVL210:
 132:Middlewares/lvgl/src/extra/layouts/flex/../flex/lv_flex.h **** }
 2092              		.loc 4 132 5 is_stmt 1 view .LVU680
 132:Middlewares/lvgl/src/extra/layouts/flex/../flex/lv_flex.h **** }
 2093              		.loc 4 132 5 is_stmt 0 view .LVU681
 2094              	.LBE106:
 2095              	.LBE105:
 217:Middlewares/lvgl/src/extra/layouts/flex/lv_flex.c **** 
 2096              		.loc 2 217 19 view .LVU682
 2097 0070 8DF84E00 		strb	r0, [sp, #78]
 219:Middlewares/lvgl/src/extra/layouts/flex/lv_flex.c ****     lv_coord_t track_gap = !f.row ? lv_obj_get_style_pad_column(cont, LV_PART_MAIN) : lv_obj_get_st
 2098              		.loc 2 219 5 is_stmt 1 view .LVU683
 2099              	.LVL211:
 2100              	.LBB107:
 2101              	.LBI107:
 187:Middlewares/lvgl/src/extra/layouts/flex/../flex/../../../core/lv_obj_style_gen.h **** {
 2102              		.loc 3 187 29 view .LVU684
 2103              	.LBB108:
 189:Middlewares/lvgl/src/extra/layouts/flex/../flex/../../../core/lv_obj_style_gen.h ****     return (lv_base_dir_t)v.num;
 2104              		.loc 3 189 5 view .LVU685
 189:Middlewares/lvgl/src/extra/layouts/flex/../flex/../../../core/lv_obj_style_gen.h ****     return (lv_base_dir_t)v.num;
 2105              		.loc 3 189 26 is_stmt 0 view .LVU686
 2106 0074 41F26A42 		movw	r2, #5226
 2107 0078 0021     		movs	r1, #0
 2108 007a 2046     		mov	r0, r4
 2109 007c FFF7FEFF 		bl	lv_obj_get_style_prop
 2110              	.LVL212:
 2111              		.loc 3 190 5 is_stmt 1 view .LVU687
 2112              		.loc 3 190 12 is_stmt 0 view .LVU688
 2113 0080 5FFA80F8 		uxtb	r8, r0
 2114              	.LVL213:
 2115              		.loc 3 190 12 view .LVU689
 2116              	.LBE108:
 2117              	.LBE107:
 220:Middlewares/lvgl/src/extra/layouts/flex/lv_flex.c ****     lv_coord_t item_gap = f.row ? lv_obj_get_style_pad_column(cont, LV_PART_MAIN) : lv_obj_get_styl
 2118              		.loc 2 220 5 is_stmt 1 view .LVU690
 220:Middlewares/lvgl/src/extra/layouts/flex/lv_flex.c ****     lv_coord_t item_gap = f.row ? lv_obj_get_style_pad_column(cont, LV_PART_MAIN) : lv_obj_get_styl
 2119              		.loc 2 220 28 is_stmt 0 view .LVU691
 2120 0084 9DF84F30 		ldrb	r3, [sp, #79]	@ zero_extendqisi2
 220:Middlewares/lvgl/src/extra/layouts/flex/lv_flex.c ****     lv_coord_t item_gap = f.row ? lv_obj_get_style_pad_column(cont, LV_PART_MAIN) : lv_obj_get_styl
 2121              		.loc 2 220 16 view .LVU692
 2122 0088 13F0010F 		tst	r3, #1
 2123 008c 40F09280 		bne	.L124
 2124              	.LVL214:
 2125              	.LBB109:
 2126              	.LBI109:
 121:Middlewares/lvgl/src/extra/layouts/flex/../flex/../../../core/lv_obj_style_gen.h **** {
 2127              		.loc 3 121 26 is_stmt 1 view .LVU693
 2128              	.LBB110:
 123:Middlewares/lvgl/src/extra/layouts/flex/../flex/../../../core/lv_obj_style_gen.h ****     return (lv_coord_t)v.num;
 2129              		.loc 3 123 5 view .LVU694
 123:Middlewares/lvgl/src/extra/layouts/flex/../flex/../../../core/lv_obj_style_gen.h ****     return (lv_coord_t)v.num;
ARM GAS  /tmp/ccyjKoUS.s 			page 67


 2130              		.loc 3 123 26 is_stmt 0 view .LVU695
 2131 0090 41F21502 		movw	r2, #4117
 2132 0094 0021     		movs	r1, #0
 2133 0096 2046     		mov	r0, r4
 2134 0098 FFF7FEFF 		bl	lv_obj_get_style_prop
 2135              	.LVL215:
 124:Middlewares/lvgl/src/extra/layouts/flex/../flex/../../../core/lv_obj_style_gen.h **** }
 2136              		.loc 3 124 5 is_stmt 1 view .LVU696
 124:Middlewares/lvgl/src/extra/layouts/flex/../flex/../../../core/lv_obj_style_gen.h **** }
 2137              		.loc 3 124 12 is_stmt 0 view .LVU697
 2138 009c 0FFA80FA 		sxth	r10, r0
 2139              	.LVL216:
 2140              	.L125:
 124:Middlewares/lvgl/src/extra/layouts/flex/../flex/../../../core/lv_obj_style_gen.h **** }
 2141              		.loc 3 124 12 view .LVU698
 2142              	.LBE110:
 2143              	.LBE109:
 221:Middlewares/lvgl/src/extra/layouts/flex/lv_flex.c ****     lv_coord_t max_main_size = (f.row ? lv_obj_get_content_width(cont) : lv_obj_get_content_height(
 2144              		.loc 2 221 5 is_stmt 1 discriminator 4 view .LVU699
 221:Middlewares/lvgl/src/extra/layouts/flex/lv_flex.c ****     lv_coord_t max_main_size = (f.row ? lv_obj_get_content_width(cont) : lv_obj_get_content_height(
 2145              		.loc 2 221 33 is_stmt 0 discriminator 4 view .LVU700
 2146 00a0 9DF84F30 		ldrb	r3, [sp, #79]	@ zero_extendqisi2
 221:Middlewares/lvgl/src/extra/layouts/flex/lv_flex.c ****     lv_coord_t max_main_size = (f.row ? lv_obj_get_content_width(cont) : lv_obj_get_content_height(
 2147              		.loc 2 221 16 discriminator 4 view .LVU701
 2148 00a4 13F0010F 		tst	r3, #1
 2149 00a8 00F08D80 		beq	.L126
 2150              	.LVL217:
 2151              	.LBB111:
 2152              	.LBI111:
 121:Middlewares/lvgl/src/extra/layouts/flex/../flex/../../../core/lv_obj_style_gen.h **** {
 2153              		.loc 3 121 26 is_stmt 1 view .LVU702
 2154              	.LBB112:
 123:Middlewares/lvgl/src/extra/layouts/flex/../flex/../../../core/lv_obj_style_gen.h ****     return (lv_coord_t)v.num;
 2155              		.loc 3 123 5 view .LVU703
 123:Middlewares/lvgl/src/extra/layouts/flex/../flex/../../../core/lv_obj_style_gen.h ****     return (lv_coord_t)v.num;
 2156              		.loc 3 123 26 is_stmt 0 view .LVU704
 2157 00ac 41F21502 		movw	r2, #4117
 2158 00b0 0021     		movs	r1, #0
 2159 00b2 2046     		mov	r0, r4
 2160 00b4 FFF7FEFF 		bl	lv_obj_get_style_prop
 2161              	.LVL218:
 124:Middlewares/lvgl/src/extra/layouts/flex/../flex/../../../core/lv_obj_style_gen.h **** }
 2162              		.loc 3 124 5 is_stmt 1 view .LVU705
 124:Middlewares/lvgl/src/extra/layouts/flex/../flex/../../../core/lv_obj_style_gen.h **** }
 2163              		.loc 3 124 12 is_stmt 0 view .LVU706
 2164 00b8 06B2     		sxth	r6, r0
 2165              	.LVL219:
 2166              	.L127:
 124:Middlewares/lvgl/src/extra/layouts/flex/../flex/../../../core/lv_obj_style_gen.h **** }
 2167              		.loc 3 124 12 view .LVU707
 2168              	.LBE112:
 2169              	.LBE111:
 222:Middlewares/lvgl/src/extra/layouts/flex/lv_flex.c ****     lv_coord_t border_widt = lv_obj_get_style_border_width(cont, LV_PART_MAIN);
 2170              		.loc 2 222 5 is_stmt 1 discriminator 4 view .LVU708
 222:Middlewares/lvgl/src/extra/layouts/flex/lv_flex.c ****     lv_coord_t border_widt = lv_obj_get_style_border_width(cont, LV_PART_MAIN);
 2171              		.loc 2 222 39 is_stmt 0 discriminator 4 view .LVU709
 2172 00ba 9DF84F30 		ldrb	r3, [sp, #79]	@ zero_extendqisi2
ARM GAS  /tmp/ccyjKoUS.s 			page 68


 222:Middlewares/lvgl/src/extra/layouts/flex/lv_flex.c ****     lv_coord_t border_widt = lv_obj_get_style_border_width(cont, LV_PART_MAIN);
 2173              		.loc 2 222 16 discriminator 4 view .LVU710
 2174 00be 13F0010F 		tst	r3, #1
 2175 00c2 00F08880 		beq	.L128
 222:Middlewares/lvgl/src/extra/layouts/flex/lv_flex.c ****     lv_coord_t border_widt = lv_obj_get_style_border_width(cont, LV_PART_MAIN);
 2176              		.loc 2 222 41 discriminator 1 view .LVU711
 2177 00c6 2046     		mov	r0, r4
 2178 00c8 FFF7FEFF 		bl	lv_obj_get_content_width
 2179              	.LVL220:
 2180 00cc 0746     		mov	r7, r0
 2181              	.L129:
 2182              	.LVL221:
 223:Middlewares/lvgl/src/extra/layouts/flex/lv_flex.c ****     lv_coord_t abs_y = cont->coords.y1 + lv_obj_get_style_pad_top(cont, LV_PART_MAIN) + border_widt
 2183              		.loc 2 223 5 is_stmt 1 discriminator 4 view .LVU712
 2184              	.LBB113:
 2185              	.LBI113:
 191:Middlewares/lvgl/src/extra/layouts/flex/../flex/../../../core/lv_obj_style_gen.h **** }
 192:Middlewares/lvgl/src/extra/layouts/flex/../flex/../../../core/lv_obj_style_gen.h **** 
 193:Middlewares/lvgl/src/extra/layouts/flex/../flex/../../../core/lv_obj_style_gen.h **** static inline lv_color_t lv_obj_get_style_bg_color(const struct _lv_obj_t * obj, uint32_t part)
 194:Middlewares/lvgl/src/extra/layouts/flex/../flex/../../../core/lv_obj_style_gen.h **** {
 195:Middlewares/lvgl/src/extra/layouts/flex/../flex/../../../core/lv_obj_style_gen.h ****     lv_style_value_t v = lv_obj_get_style_prop(obj, part, LV_STYLE_BG_COLOR);
 196:Middlewares/lvgl/src/extra/layouts/flex/../flex/../../../core/lv_obj_style_gen.h ****     return v.color;
 197:Middlewares/lvgl/src/extra/layouts/flex/../flex/../../../core/lv_obj_style_gen.h **** }
 198:Middlewares/lvgl/src/extra/layouts/flex/../flex/../../../core/lv_obj_style_gen.h **** 
 199:Middlewares/lvgl/src/extra/layouts/flex/../flex/../../../core/lv_obj_style_gen.h **** static inline lv_color_t lv_obj_get_style_bg_color_filtered(const struct _lv_obj_t * obj, uint32_t 
 200:Middlewares/lvgl/src/extra/layouts/flex/../flex/../../../core/lv_obj_style_gen.h **** {
 201:Middlewares/lvgl/src/extra/layouts/flex/../flex/../../../core/lv_obj_style_gen.h ****     lv_style_value_t v = lv_obj_get_style_prop(obj, part, LV_STYLE_BG_COLOR_FILTERED);
 202:Middlewares/lvgl/src/extra/layouts/flex/../flex/../../../core/lv_obj_style_gen.h ****     return v.color;
 203:Middlewares/lvgl/src/extra/layouts/flex/../flex/../../../core/lv_obj_style_gen.h **** }
 204:Middlewares/lvgl/src/extra/layouts/flex/../flex/../../../core/lv_obj_style_gen.h **** 
 205:Middlewares/lvgl/src/extra/layouts/flex/../flex/../../../core/lv_obj_style_gen.h **** static inline lv_opa_t lv_obj_get_style_bg_opa(const struct _lv_obj_t * obj, uint32_t part)
 206:Middlewares/lvgl/src/extra/layouts/flex/../flex/../../../core/lv_obj_style_gen.h **** {
 207:Middlewares/lvgl/src/extra/layouts/flex/../flex/../../../core/lv_obj_style_gen.h ****     lv_style_value_t v = lv_obj_get_style_prop(obj, part, LV_STYLE_BG_OPA);
 208:Middlewares/lvgl/src/extra/layouts/flex/../flex/../../../core/lv_obj_style_gen.h ****     return (lv_opa_t)v.num;
 209:Middlewares/lvgl/src/extra/layouts/flex/../flex/../../../core/lv_obj_style_gen.h **** }
 210:Middlewares/lvgl/src/extra/layouts/flex/../flex/../../../core/lv_obj_style_gen.h **** 
 211:Middlewares/lvgl/src/extra/layouts/flex/../flex/../../../core/lv_obj_style_gen.h **** static inline lv_color_t lv_obj_get_style_bg_grad_color(const struct _lv_obj_t * obj, uint32_t part
 212:Middlewares/lvgl/src/extra/layouts/flex/../flex/../../../core/lv_obj_style_gen.h **** {
 213:Middlewares/lvgl/src/extra/layouts/flex/../flex/../../../core/lv_obj_style_gen.h ****     lv_style_value_t v = lv_obj_get_style_prop(obj, part, LV_STYLE_BG_GRAD_COLOR);
 214:Middlewares/lvgl/src/extra/layouts/flex/../flex/../../../core/lv_obj_style_gen.h ****     return v.color;
 215:Middlewares/lvgl/src/extra/layouts/flex/../flex/../../../core/lv_obj_style_gen.h **** }
 216:Middlewares/lvgl/src/extra/layouts/flex/../flex/../../../core/lv_obj_style_gen.h **** 
 217:Middlewares/lvgl/src/extra/layouts/flex/../flex/../../../core/lv_obj_style_gen.h **** static inline lv_color_t lv_obj_get_style_bg_grad_color_filtered(const struct _lv_obj_t * obj, uint
 218:Middlewares/lvgl/src/extra/layouts/flex/../flex/../../../core/lv_obj_style_gen.h **** {
 219:Middlewares/lvgl/src/extra/layouts/flex/../flex/../../../core/lv_obj_style_gen.h ****     lv_style_value_t v = lv_obj_get_style_prop(obj, part, LV_STYLE_BG_GRAD_COLOR_FILTERED);
 220:Middlewares/lvgl/src/extra/layouts/flex/../flex/../../../core/lv_obj_style_gen.h ****     return v.color;
 221:Middlewares/lvgl/src/extra/layouts/flex/../flex/../../../core/lv_obj_style_gen.h **** }
 222:Middlewares/lvgl/src/extra/layouts/flex/../flex/../../../core/lv_obj_style_gen.h **** 
 223:Middlewares/lvgl/src/extra/layouts/flex/../flex/../../../core/lv_obj_style_gen.h **** static inline lv_grad_dir_t lv_obj_get_style_bg_grad_dir(const struct _lv_obj_t * obj, uint32_t par
 224:Middlewares/lvgl/src/extra/layouts/flex/../flex/../../../core/lv_obj_style_gen.h **** {
 225:Middlewares/lvgl/src/extra/layouts/flex/../flex/../../../core/lv_obj_style_gen.h ****     lv_style_value_t v = lv_obj_get_style_prop(obj, part, LV_STYLE_BG_GRAD_DIR);
 226:Middlewares/lvgl/src/extra/layouts/flex/../flex/../../../core/lv_obj_style_gen.h ****     return (lv_grad_dir_t)v.num;
 227:Middlewares/lvgl/src/extra/layouts/flex/../flex/../../../core/lv_obj_style_gen.h **** }
 228:Middlewares/lvgl/src/extra/layouts/flex/../flex/../../../core/lv_obj_style_gen.h **** 
 229:Middlewares/lvgl/src/extra/layouts/flex/../flex/../../../core/lv_obj_style_gen.h **** static inline lv_coord_t lv_obj_get_style_bg_main_stop(const struct _lv_obj_t * obj, uint32_t part)
 230:Middlewares/lvgl/src/extra/layouts/flex/../flex/../../../core/lv_obj_style_gen.h **** {
 231:Middlewares/lvgl/src/extra/layouts/flex/../flex/../../../core/lv_obj_style_gen.h ****     lv_style_value_t v = lv_obj_get_style_prop(obj, part, LV_STYLE_BG_MAIN_STOP);
ARM GAS  /tmp/ccyjKoUS.s 			page 69


 232:Middlewares/lvgl/src/extra/layouts/flex/../flex/../../../core/lv_obj_style_gen.h ****     return (lv_coord_t)v.num;
 233:Middlewares/lvgl/src/extra/layouts/flex/../flex/../../../core/lv_obj_style_gen.h **** }
 234:Middlewares/lvgl/src/extra/layouts/flex/../flex/../../../core/lv_obj_style_gen.h **** 
 235:Middlewares/lvgl/src/extra/layouts/flex/../flex/../../../core/lv_obj_style_gen.h **** static inline lv_coord_t lv_obj_get_style_bg_grad_stop(const struct _lv_obj_t * obj, uint32_t part)
 236:Middlewares/lvgl/src/extra/layouts/flex/../flex/../../../core/lv_obj_style_gen.h **** {
 237:Middlewares/lvgl/src/extra/layouts/flex/../flex/../../../core/lv_obj_style_gen.h ****     lv_style_value_t v = lv_obj_get_style_prop(obj, part, LV_STYLE_BG_GRAD_STOP);
 238:Middlewares/lvgl/src/extra/layouts/flex/../flex/../../../core/lv_obj_style_gen.h ****     return (lv_coord_t)v.num;
 239:Middlewares/lvgl/src/extra/layouts/flex/../flex/../../../core/lv_obj_style_gen.h **** }
 240:Middlewares/lvgl/src/extra/layouts/flex/../flex/../../../core/lv_obj_style_gen.h **** 
 241:Middlewares/lvgl/src/extra/layouts/flex/../flex/../../../core/lv_obj_style_gen.h **** static inline const void * lv_obj_get_style_bg_img_src(const struct _lv_obj_t * obj, uint32_t part)
 242:Middlewares/lvgl/src/extra/layouts/flex/../flex/../../../core/lv_obj_style_gen.h **** {
 243:Middlewares/lvgl/src/extra/layouts/flex/../flex/../../../core/lv_obj_style_gen.h ****     lv_style_value_t v = lv_obj_get_style_prop(obj, part, LV_STYLE_BG_IMG_SRC);
 244:Middlewares/lvgl/src/extra/layouts/flex/../flex/../../../core/lv_obj_style_gen.h ****     return (const void *)v.ptr;
 245:Middlewares/lvgl/src/extra/layouts/flex/../flex/../../../core/lv_obj_style_gen.h **** }
 246:Middlewares/lvgl/src/extra/layouts/flex/../flex/../../../core/lv_obj_style_gen.h **** 
 247:Middlewares/lvgl/src/extra/layouts/flex/../flex/../../../core/lv_obj_style_gen.h **** static inline lv_opa_t lv_obj_get_style_bg_img_opa(const struct _lv_obj_t * obj, uint32_t part)
 248:Middlewares/lvgl/src/extra/layouts/flex/../flex/../../../core/lv_obj_style_gen.h **** {
 249:Middlewares/lvgl/src/extra/layouts/flex/../flex/../../../core/lv_obj_style_gen.h ****     lv_style_value_t v = lv_obj_get_style_prop(obj, part, LV_STYLE_BG_IMG_OPA);
 250:Middlewares/lvgl/src/extra/layouts/flex/../flex/../../../core/lv_obj_style_gen.h ****     return (lv_opa_t)v.num;
 251:Middlewares/lvgl/src/extra/layouts/flex/../flex/../../../core/lv_obj_style_gen.h **** }
 252:Middlewares/lvgl/src/extra/layouts/flex/../flex/../../../core/lv_obj_style_gen.h **** 
 253:Middlewares/lvgl/src/extra/layouts/flex/../flex/../../../core/lv_obj_style_gen.h **** static inline lv_color_t lv_obj_get_style_bg_img_recolor(const struct _lv_obj_t * obj, uint32_t par
 254:Middlewares/lvgl/src/extra/layouts/flex/../flex/../../../core/lv_obj_style_gen.h **** {
 255:Middlewares/lvgl/src/extra/layouts/flex/../flex/../../../core/lv_obj_style_gen.h ****     lv_style_value_t v = lv_obj_get_style_prop(obj, part, LV_STYLE_BG_IMG_RECOLOR);
 256:Middlewares/lvgl/src/extra/layouts/flex/../flex/../../../core/lv_obj_style_gen.h ****     return v.color;
 257:Middlewares/lvgl/src/extra/layouts/flex/../flex/../../../core/lv_obj_style_gen.h **** }
 258:Middlewares/lvgl/src/extra/layouts/flex/../flex/../../../core/lv_obj_style_gen.h **** 
 259:Middlewares/lvgl/src/extra/layouts/flex/../flex/../../../core/lv_obj_style_gen.h **** static inline lv_color_t lv_obj_get_style_bg_img_recolor_filtered(const struct _lv_obj_t * obj, uin
 260:Middlewares/lvgl/src/extra/layouts/flex/../flex/../../../core/lv_obj_style_gen.h **** {
 261:Middlewares/lvgl/src/extra/layouts/flex/../flex/../../../core/lv_obj_style_gen.h ****     lv_style_value_t v = lv_obj_get_style_prop(obj, part, LV_STYLE_BG_IMG_RECOLOR_FILTERED);
 262:Middlewares/lvgl/src/extra/layouts/flex/../flex/../../../core/lv_obj_style_gen.h ****     return v.color;
 263:Middlewares/lvgl/src/extra/layouts/flex/../flex/../../../core/lv_obj_style_gen.h **** }
 264:Middlewares/lvgl/src/extra/layouts/flex/../flex/../../../core/lv_obj_style_gen.h **** 
 265:Middlewares/lvgl/src/extra/layouts/flex/../flex/../../../core/lv_obj_style_gen.h **** static inline lv_opa_t lv_obj_get_style_bg_img_recolor_opa(const struct _lv_obj_t * obj, uint32_t p
 266:Middlewares/lvgl/src/extra/layouts/flex/../flex/../../../core/lv_obj_style_gen.h **** {
 267:Middlewares/lvgl/src/extra/layouts/flex/../flex/../../../core/lv_obj_style_gen.h ****     lv_style_value_t v = lv_obj_get_style_prop(obj, part, LV_STYLE_BG_IMG_RECOLOR_OPA);
 268:Middlewares/lvgl/src/extra/layouts/flex/../flex/../../../core/lv_obj_style_gen.h ****     return (lv_opa_t)v.num;
 269:Middlewares/lvgl/src/extra/layouts/flex/../flex/../../../core/lv_obj_style_gen.h **** }
 270:Middlewares/lvgl/src/extra/layouts/flex/../flex/../../../core/lv_obj_style_gen.h **** 
 271:Middlewares/lvgl/src/extra/layouts/flex/../flex/../../../core/lv_obj_style_gen.h **** static inline bool lv_obj_get_style_bg_img_tiled(const struct _lv_obj_t * obj, uint32_t part)
 272:Middlewares/lvgl/src/extra/layouts/flex/../flex/../../../core/lv_obj_style_gen.h **** {
 273:Middlewares/lvgl/src/extra/layouts/flex/../flex/../../../core/lv_obj_style_gen.h ****     lv_style_value_t v = lv_obj_get_style_prop(obj, part, LV_STYLE_BG_IMG_TILED);
 274:Middlewares/lvgl/src/extra/layouts/flex/../flex/../../../core/lv_obj_style_gen.h ****     return (bool)v.num;
 275:Middlewares/lvgl/src/extra/layouts/flex/../flex/../../../core/lv_obj_style_gen.h **** }
 276:Middlewares/lvgl/src/extra/layouts/flex/../flex/../../../core/lv_obj_style_gen.h **** 
 277:Middlewares/lvgl/src/extra/layouts/flex/../flex/../../../core/lv_obj_style_gen.h **** static inline lv_color_t lv_obj_get_style_border_color(const struct _lv_obj_t * obj, uint32_t part)
 278:Middlewares/lvgl/src/extra/layouts/flex/../flex/../../../core/lv_obj_style_gen.h **** {
 279:Middlewares/lvgl/src/extra/layouts/flex/../flex/../../../core/lv_obj_style_gen.h ****     lv_style_value_t v = lv_obj_get_style_prop(obj, part, LV_STYLE_BORDER_COLOR);
 280:Middlewares/lvgl/src/extra/layouts/flex/../flex/../../../core/lv_obj_style_gen.h ****     return v.color;
 281:Middlewares/lvgl/src/extra/layouts/flex/../flex/../../../core/lv_obj_style_gen.h **** }
 282:Middlewares/lvgl/src/extra/layouts/flex/../flex/../../../core/lv_obj_style_gen.h **** 
 283:Middlewares/lvgl/src/extra/layouts/flex/../flex/../../../core/lv_obj_style_gen.h **** static inline lv_color_t lv_obj_get_style_border_color_filtered(const struct _lv_obj_t * obj, uint3
 284:Middlewares/lvgl/src/extra/layouts/flex/../flex/../../../core/lv_obj_style_gen.h **** {
 285:Middlewares/lvgl/src/extra/layouts/flex/../flex/../../../core/lv_obj_style_gen.h ****     lv_style_value_t v = lv_obj_get_style_prop(obj, part, LV_STYLE_BORDER_COLOR_FILTERED);
 286:Middlewares/lvgl/src/extra/layouts/flex/../flex/../../../core/lv_obj_style_gen.h ****     return v.color;
 287:Middlewares/lvgl/src/extra/layouts/flex/../flex/../../../core/lv_obj_style_gen.h **** }
 288:Middlewares/lvgl/src/extra/layouts/flex/../flex/../../../core/lv_obj_style_gen.h **** 
ARM GAS  /tmp/ccyjKoUS.s 			page 70


 289:Middlewares/lvgl/src/extra/layouts/flex/../flex/../../../core/lv_obj_style_gen.h **** static inline lv_opa_t lv_obj_get_style_border_opa(const struct _lv_obj_t * obj, uint32_t part)
 290:Middlewares/lvgl/src/extra/layouts/flex/../flex/../../../core/lv_obj_style_gen.h **** {
 291:Middlewares/lvgl/src/extra/layouts/flex/../flex/../../../core/lv_obj_style_gen.h ****     lv_style_value_t v = lv_obj_get_style_prop(obj, part, LV_STYLE_BORDER_OPA);
 292:Middlewares/lvgl/src/extra/layouts/flex/../flex/../../../core/lv_obj_style_gen.h ****     return (lv_opa_t)v.num;
 293:Middlewares/lvgl/src/extra/layouts/flex/../flex/../../../core/lv_obj_style_gen.h **** }
 294:Middlewares/lvgl/src/extra/layouts/flex/../flex/../../../core/lv_obj_style_gen.h **** 
 295:Middlewares/lvgl/src/extra/layouts/flex/../flex/../../../core/lv_obj_style_gen.h **** static inline lv_coord_t lv_obj_get_style_border_width(const struct _lv_obj_t * obj, uint32_t part)
 2186              		.loc 3 295 26 discriminator 4 view .LVU713
 2187              	.LBB114:
 296:Middlewares/lvgl/src/extra/layouts/flex/../flex/../../../core/lv_obj_style_gen.h **** {
 297:Middlewares/lvgl/src/extra/layouts/flex/../flex/../../../core/lv_obj_style_gen.h ****     lv_style_value_t v = lv_obj_get_style_prop(obj, part, LV_STYLE_BORDER_WIDTH);
 2188              		.loc 3 297 5 discriminator 4 view .LVU714
 2189              		.loc 3 297 26 is_stmt 0 discriminator 4 view .LVU715
 2190 00ce 41F23202 		movw	r2, #4146
 2191 00d2 0021     		movs	r1, #0
 2192 00d4 2046     		mov	r0, r4
 2193 00d6 FFF7FEFF 		bl	lv_obj_get_style_prop
 2194              	.LVL222:
 2195 00da 0546     		mov	r5, r0
 2196              	.LVL223:
 298:Middlewares/lvgl/src/extra/layouts/flex/../flex/../../../core/lv_obj_style_gen.h ****     return (lv_coord_t)v.num;
 2197              		.loc 3 298 5 is_stmt 1 discriminator 4 view .LVU716
 2198              		.loc 3 298 5 is_stmt 0 discriminator 4 view .LVU717
 2199              	.LBE114:
 2200              	.LBE113:
 224:Middlewares/lvgl/src/extra/layouts/flex/lv_flex.c ****     lv_coord_t abs_x = cont->coords.x1 + lv_obj_get_style_pad_left(cont, LV_PART_MAIN) + border_wid
 2201              		.loc 2 224 5 is_stmt 1 discriminator 4 view .LVU718
 224:Middlewares/lvgl/src/extra/layouts/flex/lv_flex.c ****     lv_coord_t abs_x = cont->coords.x1 + lv_obj_get_style_pad_left(cont, LV_PART_MAIN) + border_wid
 2202              		.loc 2 224 36 is_stmt 0 discriminator 4 view .LVU719
 2203 00dc B4F81690 		ldrh	r9, [r4, #22]
 2204              	.LVL224:
 2205              	.LBB115:
 2206              	.LBI115:
  91:Middlewares/lvgl/src/extra/layouts/flex/../flex/../../../core/lv_obj_style_gen.h **** {
 2207              		.loc 3 91 26 is_stmt 1 discriminator 4 view .LVU720
 2208              	.LBB116:
  93:Middlewares/lvgl/src/extra/layouts/flex/../flex/../../../core/lv_obj_style_gen.h ****     return (lv_coord_t)v.num;
 2209              		.loc 3 93 5 discriminator 4 view .LVU721
  93:Middlewares/lvgl/src/extra/layouts/flex/../flex/../../../core/lv_obj_style_gen.h ****     return (lv_coord_t)v.num;
 2210              		.loc 3 93 26 is_stmt 0 discriminator 4 view .LVU722
 2211 00e0 41F21002 		movw	r2, #4112
 2212 00e4 0021     		movs	r1, #0
 2213 00e6 2046     		mov	r0, r4
 2214 00e8 FFF7FEFF 		bl	lv_obj_get_style_prop
 2215              	.LVL225:
  94:Middlewares/lvgl/src/extra/layouts/flex/../flex/../../../core/lv_obj_style_gen.h **** }
 2216              		.loc 3 94 5 is_stmt 1 discriminator 4 view .LVU723
  94:Middlewares/lvgl/src/extra/layouts/flex/../flex/../../../core/lv_obj_style_gen.h **** }
 2217              		.loc 3 94 5 is_stmt 0 discriminator 4 view .LVU724
 2218              	.LBE116:
 2219              	.LBE115:
 224:Middlewares/lvgl/src/extra/layouts/flex/lv_flex.c ****     lv_coord_t abs_x = cont->coords.x1 + lv_obj_get_style_pad_left(cont, LV_PART_MAIN) + border_wid
 2220              		.loc 2 224 42 discriminator 4 view .LVU725
 2221 00ec 80B2     		uxth	r0, r0
 224:Middlewares/lvgl/src/extra/layouts/flex/lv_flex.c ****     lv_coord_t abs_x = cont->coords.x1 + lv_obj_get_style_pad_left(cont, LV_PART_MAIN) + border_wid
 2222              		.loc 2 224 40 discriminator 4 view .LVU726
 2223 00ee 8144     		add	r9, r9, r0
ARM GAS  /tmp/ccyjKoUS.s 			page 71


 2224 00f0 1FFA89F9 		uxth	r9, r9
 224:Middlewares/lvgl/src/extra/layouts/flex/lv_flex.c ****     lv_coord_t abs_x = cont->coords.x1 + lv_obj_get_style_pad_left(cont, LV_PART_MAIN) + border_wid
 2225              		.loc 2 224 87 discriminator 4 view .LVU727
 2226 00f4 ADB2     		uxth	r5, r5
 224:Middlewares/lvgl/src/extra/layouts/flex/lv_flex.c ****     lv_coord_t abs_x = cont->coords.x1 + lv_obj_get_style_pad_left(cont, LV_PART_MAIN) + border_wid
 2227              		.loc 2 224 87 discriminator 4 view .LVU728
 2228 00f6 A944     		add	r9, r9, r5
 2229 00f8 1FFA89F9 		uxth	r9, r9
 224:Middlewares/lvgl/src/extra/layouts/flex/lv_flex.c ****     lv_coord_t abs_x = cont->coords.x1 + lv_obj_get_style_pad_left(cont, LV_PART_MAIN) + border_wid
 2230              		.loc 2 224 103 discriminator 4 view .LVU729
 2231 00fc 2046     		mov	r0, r4
 2232 00fe FFF7FEFF 		bl	lv_obj_get_scroll_y
 2233              	.LVL226:
 2234 0102 80B2     		uxth	r0, r0
 224:Middlewares/lvgl/src/extra/layouts/flex/lv_flex.c ****     lv_coord_t abs_x = cont->coords.x1 + lv_obj_get_style_pad_left(cont, LV_PART_MAIN) + border_wid
 2235              		.loc 2 224 101 discriminator 4 view .LVU730
 2236 0104 A9EB0009 		sub	r9, r9, r0
 224:Middlewares/lvgl/src/extra/layouts/flex/lv_flex.c ****     lv_coord_t abs_x = cont->coords.x1 + lv_obj_get_style_pad_left(cont, LV_PART_MAIN) + border_wid
 2237              		.loc 2 224 16 discriminator 4 view .LVU731
 2238 0108 ADF84A90 		strh	r9, [sp, #74]	@ movhi
 225:Middlewares/lvgl/src/extra/layouts/flex/lv_flex.c **** 
 2239              		.loc 2 225 5 is_stmt 1 discriminator 4 view .LVU732
 225:Middlewares/lvgl/src/extra/layouts/flex/lv_flex.c **** 
 2240              		.loc 2 225 36 is_stmt 0 discriminator 4 view .LVU733
 2241 010c B4F81490 		ldrh	r9, [r4, #20]
 2242              	.LVL227:
 2243              	.LBB117:
 2244              	.LBI117:
 103:Middlewares/lvgl/src/extra/layouts/flex/../flex/../../../core/lv_obj_style_gen.h **** {
 2245              		.loc 3 103 26 is_stmt 1 discriminator 4 view .LVU734
 2246              	.LBB118:
 105:Middlewares/lvgl/src/extra/layouts/flex/../flex/../../../core/lv_obj_style_gen.h ****     return (lv_coord_t)v.num;
 2247              		.loc 3 105 5 discriminator 4 view .LVU735
 105:Middlewares/lvgl/src/extra/layouts/flex/../flex/../../../core/lv_obj_style_gen.h ****     return (lv_coord_t)v.num;
 2248              		.loc 3 105 26 is_stmt 0 discriminator 4 view .LVU736
 2249 0110 41F21202 		movw	r2, #4114
 2250 0114 0021     		movs	r1, #0
 2251 0116 2046     		mov	r0, r4
 2252 0118 FFF7FEFF 		bl	lv_obj_get_style_prop
 2253              	.LVL228:
 106:Middlewares/lvgl/src/extra/layouts/flex/../flex/../../../core/lv_obj_style_gen.h **** }
 2254              		.loc 3 106 5 is_stmt 1 discriminator 4 view .LVU737
 106:Middlewares/lvgl/src/extra/layouts/flex/../flex/../../../core/lv_obj_style_gen.h **** }
 2255              		.loc 3 106 5 is_stmt 0 discriminator 4 view .LVU738
 2256              	.LBE118:
 2257              	.LBE117:
 225:Middlewares/lvgl/src/extra/layouts/flex/lv_flex.c **** 
 2258              		.loc 2 225 42 discriminator 4 view .LVU739
 2259 011c 80B2     		uxth	r0, r0
 225:Middlewares/lvgl/src/extra/layouts/flex/lv_flex.c **** 
 2260              		.loc 2 225 40 discriminator 4 view .LVU740
 2261 011e 8144     		add	r9, r9, r0
 2262 0120 1FFA89F9 		uxth	r9, r9
 225:Middlewares/lvgl/src/extra/layouts/flex/lv_flex.c **** 
 2263              		.loc 2 225 88 discriminator 4 view .LVU741
 2264 0124 4D44     		add	r5, r5, r9
 2265              	.LVL229:
ARM GAS  /tmp/ccyjKoUS.s 			page 72


 225:Middlewares/lvgl/src/extra/layouts/flex/lv_flex.c **** 
 2266              		.loc 2 225 88 discriminator 4 view .LVU742
 2267 0126 ADB2     		uxth	r5, r5
 225:Middlewares/lvgl/src/extra/layouts/flex/lv_flex.c **** 
 2268              		.loc 2 225 104 discriminator 4 view .LVU743
 2269 0128 2046     		mov	r0, r4
 2270 012a FFF7FEFF 		bl	lv_obj_get_scroll_x
 2271              	.LVL230:
 2272 012e 80B2     		uxth	r0, r0
 225:Middlewares/lvgl/src/extra/layouts/flex/lv_flex.c **** 
 2273              		.loc 2 225 102 discriminator 4 view .LVU744
 2274 0130 2D1A     		subs	r5, r5, r0
 225:Middlewares/lvgl/src/extra/layouts/flex/lv_flex.c **** 
 2275              		.loc 2 225 16 discriminator 4 view .LVU745
 2276 0132 ADF84850 		strh	r5, [sp, #72]	@ movhi
 227:Middlewares/lvgl/src/extra/layouts/flex/lv_flex.c ****     lv_coord_t * cross_pos = (f.row ? &abs_y : &abs_x);
 2277              		.loc 2 227 5 is_stmt 1 discriminator 4 view .LVU746
 227:Middlewares/lvgl/src/extra/layouts/flex/lv_flex.c ****     lv_coord_t * cross_pos = (f.row ? &abs_y : &abs_x);
 2278              		.loc 2 227 21 is_stmt 0 discriminator 4 view .LVU747
 2279 0136 9DF84E30 		ldrb	r3, [sp, #78]	@ zero_extendqisi2
 2280 013a 0793     		str	r3, [sp, #28]
 2281              	.LVL231:
 228:Middlewares/lvgl/src/extra/layouts/flex/lv_flex.c **** 
 2282              		.loc 2 228 5 is_stmt 1 discriminator 4 view .LVU748
 228:Middlewares/lvgl/src/extra/layouts/flex/lv_flex.c **** 
 2283              		.loc 2 228 37 is_stmt 0 discriminator 4 view .LVU749
 2284 013c 9DF84F30 		ldrb	r3, [sp, #79]	@ zero_extendqisi2
 228:Middlewares/lvgl/src/extra/layouts/flex/lv_flex.c **** 
 2285              		.loc 2 228 46 discriminator 4 view .LVU750
 2286 0140 13F0010F 		tst	r3, #1
 2287 0144 4CD0     		beq	.L154
 228:Middlewares/lvgl/src/extra/layouts/flex/lv_flex.c **** 
 2288              		.loc 2 228 46 view .LVU751
 2289 0146 0DF14A09 		add	r9, sp, #74
 2290              	.L130:
 2291              	.LVL232:
 230:Middlewares/lvgl/src/extra/layouts/flex/lv_flex.c ****     lv_coord_t h_set = lv_obj_get_style_height(cont, LV_PART_MAIN);
 2292              		.loc 2 230 5 is_stmt 1 discriminator 4 view .LVU752
 2293              	.LBB119:
 2294              	.LBI119:
   1:Middlewares/lvgl/src/extra/layouts/flex/../flex/../../../core/lv_obj_style_gen.h **** {
 2295              		.loc 3 1 26 discriminator 4 view .LVU753
 2296              	.LBB120:
   3:Middlewares/lvgl/src/extra/layouts/flex/../flex/../../../core/lv_obj_style_gen.h ****     return (lv_coord_t)v.num;
 2297              		.loc 3 3 5 discriminator 4 view .LVU754
   3:Middlewares/lvgl/src/extra/layouts/flex/../flex/../../../core/lv_obj_style_gen.h ****     return (lv_coord_t)v.num;
 2298              		.loc 3 3 26 is_stmt 0 discriminator 4 view .LVU755
 2299 014a 41F20102 		movw	r2, #4097
 2300 014e 0021     		movs	r1, #0
 2301 0150 2046     		mov	r0, r4
 2302 0152 FFF7FEFF 		bl	lv_obj_get_style_prop
 2303              	.LVL233:
   4:Middlewares/lvgl/src/extra/layouts/flex/../flex/../../../core/lv_obj_style_gen.h **** }
 2304              		.loc 3 4 5 is_stmt 1 discriminator 4 view .LVU756
   4:Middlewares/lvgl/src/extra/layouts/flex/../flex/../../../core/lv_obj_style_gen.h **** }
 2305              		.loc 3 4 12 is_stmt 0 discriminator 4 view .LVU757
 2306 0156 03B2     		sxth	r3, r0
ARM GAS  /tmp/ccyjKoUS.s 			page 73


 2307 0158 0893     		str	r3, [sp, #32]
 2308              	.LVL234:
   4:Middlewares/lvgl/src/extra/layouts/flex/../flex/../../../core/lv_obj_style_gen.h **** }
 2309              		.loc 3 4 12 discriminator 4 view .LVU758
 2310              	.LBE120:
 2311              	.LBE119:
 231:Middlewares/lvgl/src/extra/layouts/flex/lv_flex.c **** 
 2312              		.loc 2 231 5 is_stmt 1 discriminator 4 view .LVU759
 2313              	.LBB121:
 2314              	.LBI121:
  19:Middlewares/lvgl/src/extra/layouts/flex/../flex/../../../core/lv_obj_style_gen.h **** {
 2315              		.loc 3 19 26 discriminator 4 view .LVU760
 2316              	.LBB122:
  21:Middlewares/lvgl/src/extra/layouts/flex/../flex/../../../core/lv_obj_style_gen.h ****     return (lv_coord_t)v.num;
 2317              		.loc 3 21 5 discriminator 4 view .LVU761
  21:Middlewares/lvgl/src/extra/layouts/flex/../flex/../../../core/lv_obj_style_gen.h ****     return (lv_coord_t)v.num;
 2318              		.loc 3 21 26 is_stmt 0 discriminator 4 view .LVU762
 2319 015a 41F20402 		movw	r2, #4100
 2320 015e 0021     		movs	r1, #0
 2321 0160 2046     		mov	r0, r4
 2322 0162 FFF7FEFF 		bl	lv_obj_get_style_prop
 2323              	.LVL235:
  22:Middlewares/lvgl/src/extra/layouts/flex/../flex/../../../core/lv_obj_style_gen.h **** }
 2324              		.loc 3 22 5 is_stmt 1 discriminator 4 view .LVU763
  22:Middlewares/lvgl/src/extra/layouts/flex/../flex/../../../core/lv_obj_style_gen.h **** }
 2325              		.loc 3 22 12 is_stmt 0 discriminator 4 view .LVU764
 2326 0166 03B2     		sxth	r3, r0
 2327 0168 1846     		mov	r0, r3
 2328 016a 0993     		str	r3, [sp, #36]
 2329              	.LVL236:
  22:Middlewares/lvgl/src/extra/layouts/flex/../flex/../../../core/lv_obj_style_gen.h **** }
 2330              		.loc 3 22 12 discriminator 4 view .LVU765
 2331              	.LBE122:
 2332              	.LBE121:
 234:Middlewares/lvgl/src/extra/layouts/flex/lv_flex.c ****     	(!f.row && w_set == LV_SIZE_CONTENT && cont->w_layout == 0))
 2333              		.loc 2 234 5 is_stmt 1 discriminator 4 view .LVU766
 234:Middlewares/lvgl/src/extra/layouts/flex/lv_flex.c ****     	(!f.row && w_set == LV_SIZE_CONTENT && cont->w_layout == 0))
 2334              		.loc 2 234 9 is_stmt 0 discriminator 4 view .LVU767
 2335 016c 9DF84F30 		ldrb	r3, [sp, #79]	@ zero_extendqisi2
 234:Middlewares/lvgl/src/extra/layouts/flex/lv_flex.c ****     	(!f.row && w_set == LV_SIZE_CONTENT && cont->w_layout == 0))
 2336              		.loc 2 234 7 discriminator 4 view .LVU768
 2337 0170 13F00102 		ands	r2, r3, #1
 2338 0174 03D0     		beq	.L131
 234:Middlewares/lvgl/src/extra/layouts/flex/lv_flex.c ****     	(!f.row && w_set == LV_SIZE_CONTENT && cont->w_layout == 0))
 2339              		.loc 2 234 15 discriminator 1 view .LVU769
 2340 0176 42F2D171 		movw	r1, #10193
 2341 017a 8842     		cmp	r0, r1
 2342 017c 33D0     		beq	.L163
 2343              	.L131:
 234:Middlewares/lvgl/src/extra/layouts/flex/lv_flex.c ****     	(!f.row && w_set == LV_SIZE_CONTENT && cont->w_layout == 0))
 2344              		.loc 2 234 67 discriminator 5 view .LVU770
 2345 017e 22B9     		cbnz	r2, .L132
 235:Middlewares/lvgl/src/extra/layouts/flex/lv_flex.c ****     {
 2346              		.loc 2 235 14 view .LVU771
 2347 0180 42F2D171 		movw	r1, #10193
 2348 0184 0898     		ldr	r0, [sp, #32]
 2349              	.LVL237:
ARM GAS  /tmp/ccyjKoUS.s 			page 74


 235:Middlewares/lvgl/src/extra/layouts/flex/lv_flex.c ****     {
 2350              		.loc 2 235 14 view .LVU772
 2351 0186 8842     		cmp	r0, r1
 2352 0188 35D0     		beq	.L164
 2353              	.LVL238:
 2354              	.L132:
 240:Middlewares/lvgl/src/extra/layouts/flex/lv_flex.c ****         if(track_cross_place == LV_FLEX_ALIGN_START) track_cross_place = LV_FLEX_ALIGN_END;
 2355              		.loc 2 240 5 is_stmt 1 view .LVU773
 240:Middlewares/lvgl/src/extra/layouts/flex/lv_flex.c ****         if(track_cross_place == LV_FLEX_ALIGN_START) track_cross_place = LV_FLEX_ALIGN_END;
 2356              		.loc 2 240 7 is_stmt 0 view .LVU774
 2357 018a B8F1010F 		cmp	r8, #1
 2358 018e 3AD0     		beq	.L165
 2359              	.L133:
 245:Middlewares/lvgl/src/extra/layouts/flex/lv_flex.c ****     lv_coord_t gap = 0;
 2360              		.loc 2 245 5 is_stmt 1 view .LVU775
 2361              	.LVL239:
 246:Middlewares/lvgl/src/extra/layouts/flex/lv_flex.c ****     uint32_t track_cnt = 0;
 2362              		.loc 2 246 5 view .LVU776
 246:Middlewares/lvgl/src/extra/layouts/flex/lv_flex.c ****     uint32_t track_cnt = 0;
 2363              		.loc 2 246 16 is_stmt 0 view .LVU777
 2364 0190 0022     		movs	r2, #0
 2365 0192 ADF84620 		strh	r2, [sp, #70]	@ movhi
 247:Middlewares/lvgl/src/extra/layouts/flex/lv_flex.c ****     int32_t track_first_item;
 2366              		.loc 2 247 5 is_stmt 1 view .LVU778
 2367              	.LVL240:
 248:Middlewares/lvgl/src/extra/layouts/flex/lv_flex.c ****     int32_t next_track_first_item;
 2368              		.loc 2 248 5 view .LVU779
 249:Middlewares/lvgl/src/extra/layouts/flex/lv_flex.c **** 
 2369              		.loc 2 249 5 view .LVU780
 251:Middlewares/lvgl/src/extra/layouts/flex/lv_flex.c ****         track_first_item = f.rev ? cont->spec_attr->child_cnt - 1 : 0;
 2370              		.loc 2 251 5 view .LVU781
 251:Middlewares/lvgl/src/extra/layouts/flex/lv_flex.c ****         track_first_item = f.rev ? cont->spec_attr->child_cnt - 1 : 0;
 2371              		.loc 2 251 7 is_stmt 0 view .LVU782
 2372 0196 079A     		ldr	r2, [sp, #28]
 2373 0198 002A     		cmp	r2, #0
 2374 019a 00F09780 		beq	.L157
 2375              	.LVL241:
 2376              	.L135:
 2377              	.LBB123:
 252:Middlewares/lvgl/src/extra/layouts/flex/lv_flex.c ****         track_t t;
 2378              		.loc 2 252 9 is_stmt 1 view .LVU783
 252:Middlewares/lvgl/src/extra/layouts/flex/lv_flex.c ****         track_t t;
 2379              		.loc 2 252 67 is_stmt 0 view .LVU784
 2380 019e 13F0040F 		tst	r3, #4
 2381 01a2 00F08C80 		beq	.L158
 252:Middlewares/lvgl/src/extra/layouts/flex/lv_flex.c ****         track_t t;
 2382              		.loc 2 252 40 discriminator 1 view .LVU785
 2383 01a6 A368     		ldr	r3, [r4, #8]
 252:Middlewares/lvgl/src/extra/layouts/flex/lv_flex.c ****         track_t t;
 2384              		.loc 2 252 51 discriminator 1 view .LVU786
 2385 01a8 5A68     		ldr	r2, [r3, #4]
 252:Middlewares/lvgl/src/extra/layouts/flex/lv_flex.c ****         track_t t;
 2386              		.loc 2 252 63 discriminator 1 view .LVU787
 2387 01aa 013A     		subs	r2, r2, #1
 2388              	.L137:
 252:Middlewares/lvgl/src/extra/layouts/flex/lv_flex.c ****         track_t t;
 2389              		.loc 2 252 67 view .LVU788
ARM GAS  /tmp/ccyjKoUS.s 			page 75


 2390 01ac 4FF0000B 		mov	fp, #0
 2391 01b0 5D46     		mov	r5, fp
 2392 01b2 4FE0     		b	.L138
 2393              	.LVL242:
 2394              	.L124:
 252:Middlewares/lvgl/src/extra/layouts/flex/lv_flex.c ****         track_t t;
 2395              		.loc 2 252 67 view .LVU789
 2396              	.LBE123:
 2397              	.LBB124:
 2398              	.LBI124:
 115:Middlewares/lvgl/src/extra/layouts/flex/../flex/../../../core/lv_obj_style_gen.h **** {
 2399              		.loc 3 115 26 is_stmt 1 view .LVU790
 2400              	.LBB125:
 117:Middlewares/lvgl/src/extra/layouts/flex/../flex/../../../core/lv_obj_style_gen.h ****     return (lv_coord_t)v.num;
 2401              		.loc 3 117 5 view .LVU791
 117:Middlewares/lvgl/src/extra/layouts/flex/../flex/../../../core/lv_obj_style_gen.h ****     return (lv_coord_t)v.num;
 2402              		.loc 3 117 26 is_stmt 0 view .LVU792
 2403 01b4 41F21402 		movw	r2, #4116
 2404 01b8 0021     		movs	r1, #0
 2405 01ba 2046     		mov	r0, r4
 2406 01bc FFF7FEFF 		bl	lv_obj_get_style_prop
 2407              	.LVL243:
 118:Middlewares/lvgl/src/extra/layouts/flex/../flex/../../../core/lv_obj_style_gen.h **** }
 2408              		.loc 3 118 5 is_stmt 1 view .LVU793
 118:Middlewares/lvgl/src/extra/layouts/flex/../flex/../../../core/lv_obj_style_gen.h **** }
 2409              		.loc 3 118 12 is_stmt 0 view .LVU794
 2410 01c0 0FFA80FA 		sxth	r10, r0
 2411              	.LVL244:
 118:Middlewares/lvgl/src/extra/layouts/flex/../flex/../../../core/lv_obj_style_gen.h **** }
 2412              		.loc 3 118 12 view .LVU795
 2413 01c4 6CE7     		b	.L125
 2414              	.LVL245:
 2415              	.L126:
 118:Middlewares/lvgl/src/extra/layouts/flex/../flex/../../../core/lv_obj_style_gen.h **** }
 2416              		.loc 3 118 12 view .LVU796
 2417              	.LBE125:
 2418              	.LBE124:
 2419              	.LBB126:
 2420              	.LBI126:
 115:Middlewares/lvgl/src/extra/layouts/flex/../flex/../../../core/lv_obj_style_gen.h **** {
 2421              		.loc 3 115 26 is_stmt 1 view .LVU797
 2422              	.LBB127:
 117:Middlewares/lvgl/src/extra/layouts/flex/../flex/../../../core/lv_obj_style_gen.h ****     return (lv_coord_t)v.num;
 2423              		.loc 3 117 5 view .LVU798
 117:Middlewares/lvgl/src/extra/layouts/flex/../flex/../../../core/lv_obj_style_gen.h ****     return (lv_coord_t)v.num;
 2424              		.loc 3 117 26 is_stmt 0 view .LVU799
 2425 01c6 41F21402 		movw	r2, #4116
 2426 01ca 0021     		movs	r1, #0
 2427 01cc 2046     		mov	r0, r4
 2428 01ce FFF7FEFF 		bl	lv_obj_get_style_prop
 2429              	.LVL246:
 118:Middlewares/lvgl/src/extra/layouts/flex/../flex/../../../core/lv_obj_style_gen.h **** }
 2430              		.loc 3 118 5 is_stmt 1 view .LVU800
 118:Middlewares/lvgl/src/extra/layouts/flex/../flex/../../../core/lv_obj_style_gen.h **** }
 2431              		.loc 3 118 12 is_stmt 0 view .LVU801
 2432 01d2 06B2     		sxth	r6, r0
 2433              	.LVL247:
ARM GAS  /tmp/ccyjKoUS.s 			page 76


 118:Middlewares/lvgl/src/extra/layouts/flex/../flex/../../../core/lv_obj_style_gen.h **** }
 2434              		.loc 3 118 12 view .LVU802
 2435 01d4 71E7     		b	.L127
 2436              	.LVL248:
 2437              	.L128:
 118:Middlewares/lvgl/src/extra/layouts/flex/../flex/../../../core/lv_obj_style_gen.h **** }
 2438              		.loc 3 118 12 view .LVU803
 2439              	.LBE127:
 2440              	.LBE126:
 222:Middlewares/lvgl/src/extra/layouts/flex/lv_flex.c ****     lv_coord_t border_widt = lv_obj_get_style_border_width(cont, LV_PART_MAIN);
 2441              		.loc 2 222 74 discriminator 2 view .LVU804
 2442 01d6 2046     		mov	r0, r4
 2443 01d8 FFF7FEFF 		bl	lv_obj_get_content_height
 2444              	.LVL249:
 2445 01dc 0746     		mov	r7, r0
 2446 01de 76E7     		b	.L129
 2447              	.LVL250:
 2448              	.L154:
 228:Middlewares/lvgl/src/extra/layouts/flex/lv_flex.c **** 
 2449              		.loc 2 228 46 view .LVU805
 2450 01e0 0DF14809 		add	r9, sp, #72
 2451 01e4 B1E7     		b	.L130
 2452              	.LVL251:
 2453              	.L163:
 234:Middlewares/lvgl/src/extra/layouts/flex/lv_flex.c ****     	(!f.row && w_set == LV_SIZE_CONTENT && cont->w_layout == 0))
 2454              		.loc 2 234 61 discriminator 3 view .LVU806
 2455 01e6 94F82310 		ldrb	r1, [r4, #35]	@ zero_extendqisi2
 234:Middlewares/lvgl/src/extra/layouts/flex/lv_flex.c ****     	(!f.row && w_set == LV_SIZE_CONTENT && cont->w_layout == 0))
 2456              		.loc 2 234 43 discriminator 3 view .LVU807
 2457 01ea 11F0020F 		tst	r1, #2
 2458 01ee C6D1     		bne	.L131
 237:Middlewares/lvgl/src/extra/layouts/flex/lv_flex.c ****     }
 2459              		.loc 2 237 27 view .LVU808
 2460 01f0 0021     		movs	r1, #0
 2461 01f2 0791     		str	r1, [sp, #28]
 2462              	.LVL252:
 237:Middlewares/lvgl/src/extra/layouts/flex/lv_flex.c ****     }
 2463              		.loc 2 237 27 view .LVU809
 2464 01f4 C9E7     		b	.L132
 2465              	.LVL253:
 2466              	.L164:
 235:Middlewares/lvgl/src/extra/layouts/flex/lv_flex.c ****     {
 2467              		.loc 2 235 60 discriminator 1 view .LVU810
 2468 01f6 94F82310 		ldrb	r1, [r4, #35]	@ zero_extendqisi2
 235:Middlewares/lvgl/src/extra/layouts/flex/lv_flex.c ****     {
 2469              		.loc 2 235 42 discriminator 1 view .LVU811
 2470 01fa 11F0040F 		tst	r1, #4
 2471 01fe C4D1     		bne	.L132
 237:Middlewares/lvgl/src/extra/layouts/flex/lv_flex.c ****     }
 2472              		.loc 2 237 27 view .LVU812
 2473 0200 0021     		movs	r1, #0
 2474 0202 0791     		str	r1, [sp, #28]
 2475              	.LVL254:
 237:Middlewares/lvgl/src/extra/layouts/flex/lv_flex.c ****     }
 2476              		.loc 2 237 27 view .LVU813
 2477 0204 C1E7     		b	.L132
 2478              	.LVL255:
ARM GAS  /tmp/ccyjKoUS.s 			page 77


 2479              	.L165:
 240:Middlewares/lvgl/src/extra/layouts/flex/lv_flex.c ****         if(track_cross_place == LV_FLEX_ALIGN_START) track_cross_place = LV_FLEX_ALIGN_END;
 2480              		.loc 2 240 12 discriminator 1 view .LVU814
 2481 0206 002A     		cmp	r2, #0
 2482 0208 C2D1     		bne	.L133
 241:Middlewares/lvgl/src/extra/layouts/flex/lv_flex.c ****         else if(track_cross_place == LV_FLEX_ALIGN_END) track_cross_place = LV_FLEX_ALIGN_START;
 2483              		.loc 2 241 9 is_stmt 1 view .LVU815
 241:Middlewares/lvgl/src/extra/layouts/flex/lv_flex.c ****         else if(track_cross_place == LV_FLEX_ALIGN_END) track_cross_place = LV_FLEX_ALIGN_START;
 2484              		.loc 2 241 11 is_stmt 0 view .LVU816
 2485 020a 079A     		ldr	r2, [sp, #28]
 2486 020c 22B9     		cbnz	r2, .L134
 2487              	.LVL256:
 245:Middlewares/lvgl/src/extra/layouts/flex/lv_flex.c ****     lv_coord_t gap = 0;
 2488              		.loc 2 245 5 is_stmt 1 view .LVU817
 246:Middlewares/lvgl/src/extra/layouts/flex/lv_flex.c ****     uint32_t track_cnt = 0;
 2489              		.loc 2 246 5 view .LVU818
 246:Middlewares/lvgl/src/extra/layouts/flex/lv_flex.c ****     uint32_t track_cnt = 0;
 2490              		.loc 2 246 16 is_stmt 0 view .LVU819
 2491 020e ADF84620 		strh	r2, [sp, #70]	@ movhi
 247:Middlewares/lvgl/src/extra/layouts/flex/lv_flex.c ****     int32_t track_first_item;
 2492              		.loc 2 247 5 is_stmt 1 view .LVU820
 2493              	.LVL257:
 248:Middlewares/lvgl/src/extra/layouts/flex/lv_flex.c ****     int32_t next_track_first_item;
 2494              		.loc 2 248 5 view .LVU821
 249:Middlewares/lvgl/src/extra/layouts/flex/lv_flex.c **** 
 2495              		.loc 2 249 5 view .LVU822
 251:Middlewares/lvgl/src/extra/layouts/flex/lv_flex.c ****         track_first_item = f.rev ? cont->spec_attr->child_cnt - 1 : 0;
 2496              		.loc 2 251 5 view .LVU823
 241:Middlewares/lvgl/src/extra/layouts/flex/lv_flex.c ****         else if(track_cross_place == LV_FLEX_ALIGN_END) track_cross_place = LV_FLEX_ALIGN_START;
 2497              		.loc 2 241 72 is_stmt 0 view .LVU824
 2498 0212 CDF81C80 		str	r8, [sp, #28]
 2499 0216 C2E7     		b	.L135
 2500              	.LVL258:
 2501              	.L134:
 242:Middlewares/lvgl/src/extra/layouts/flex/lv_flex.c ****     }
 2502              		.loc 2 242 14 is_stmt 1 view .LVU825
 242:Middlewares/lvgl/src/extra/layouts/flex/lv_flex.c ****     }
 2503              		.loc 2 242 16 is_stmt 0 view .LVU826
 2504 0218 079A     		ldr	r2, [sp, #28]
 2505 021a 012A     		cmp	r2, #1
 2506 021c B8D1     		bne	.L133
 242:Middlewares/lvgl/src/extra/layouts/flex/lv_flex.c ****     }
 2507              		.loc 2 242 57 is_stmt 1 view .LVU827
 2508              	.LVL259:
 245:Middlewares/lvgl/src/extra/layouts/flex/lv_flex.c ****     lv_coord_t gap = 0;
 2509              		.loc 2 245 5 view .LVU828
 246:Middlewares/lvgl/src/extra/layouts/flex/lv_flex.c ****     uint32_t track_cnt = 0;
 2510              		.loc 2 246 5 view .LVU829
 246:Middlewares/lvgl/src/extra/layouts/flex/lv_flex.c ****     uint32_t track_cnt = 0;
 2511              		.loc 2 246 16 is_stmt 0 view .LVU830
 2512 021e 0025     		movs	r5, #0
 2513 0220 ADF84650 		strh	r5, [sp, #70]	@ movhi
 247:Middlewares/lvgl/src/extra/layouts/flex/lv_flex.c ****     int32_t track_first_item;
 2514              		.loc 2 247 5 is_stmt 1 view .LVU831
 2515              	.LVL260:
 248:Middlewares/lvgl/src/extra/layouts/flex/lv_flex.c ****     int32_t next_track_first_item;
 2516              		.loc 2 248 5 view .LVU832
ARM GAS  /tmp/ccyjKoUS.s 			page 78


 249:Middlewares/lvgl/src/extra/layouts/flex/lv_flex.c **** 
 2517              		.loc 2 249 5 view .LVU833
 251:Middlewares/lvgl/src/extra/layouts/flex/lv_flex.c ****         track_first_item = f.rev ? cont->spec_attr->child_cnt - 1 : 0;
 2518              		.loc 2 251 5 view .LVU834
 2519 0224 36E0     		b	.L136
 2520              	.LVL261:
 2521              	.L140:
 2522              	.LBB128:
 256:Middlewares/lvgl/src/extra/layouts/flex/lv_flex.c ****             next_track_first_item = find_track_end(cont, &f, track_first_item, max_main_size, item_
 2523              		.loc 2 256 13 view .LVU835
 256:Middlewares/lvgl/src/extra/layouts/flex/lv_flex.c ****             next_track_first_item = find_track_end(cont, &f, track_first_item, max_main_size, item_
 2524              		.loc 2 256 29 is_stmt 0 view .LVU836
 2525 0226 9DF84030 		ldrb	r3, [sp, #64]	@ zero_extendqisi2
 2526 022a 6FF30003 		bfc	r3, #0, #1
 2527 022e 8DF84030 		strb	r3, [sp, #64]
 257:Middlewares/lvgl/src/extra/layouts/flex/lv_flex.c ****             total_track_cross_size += t.track_cross_size + track_gap;
 2528              		.loc 2 257 13 is_stmt 1 view .LVU837
 257:Middlewares/lvgl/src/extra/layouts/flex/lv_flex.c ****             total_track_cross_size += t.track_cross_size + track_gap;
 2529              		.loc 2 257 37 is_stmt 0 view .LVU838
 2530 0232 0BAB     		add	r3, sp, #44
 2531 0234 0193     		str	r3, [sp, #4]
 2532 0236 0096     		str	r6, [sp]
 2533 0238 3B46     		mov	r3, r7
 2534 023a 13A9     		add	r1, sp, #76
 2535 023c 2046     		mov	r0, r4
 2536 023e FFF7FEFF 		bl	find_track_end
 2537              	.LVL262:
 257:Middlewares/lvgl/src/extra/layouts/flex/lv_flex.c ****             total_track_cross_size += t.track_cross_size + track_gap;
 2538              		.loc 2 257 37 view .LVU839
 2539 0242 0246     		mov	r2, r0
 2540              	.LVL263:
 258:Middlewares/lvgl/src/extra/layouts/flex/lv_flex.c ****             track_cnt++;
 2541              		.loc 2 258 13 is_stmt 1 view .LVU840
 258:Middlewares/lvgl/src/extra/layouts/flex/lv_flex.c ****             track_cnt++;
 2542              		.loc 2 258 40 is_stmt 0 view .LVU841
 2543 0244 BDF82C30 		ldrh	r3, [sp, #44]
 258:Middlewares/lvgl/src/extra/layouts/flex/lv_flex.c ****             track_cnt++;
 2544              		.loc 2 258 58 view .LVU842
 2545 0248 5344     		add	r3, r3, r10
 2546 024a 9BB2     		uxth	r3, r3
 258:Middlewares/lvgl/src/extra/layouts/flex/lv_flex.c ****             track_cnt++;
 2547              		.loc 2 258 36 view .LVU843
 2548 024c 1D44     		add	r5, r5, r3
 2549              	.LVL264:
 258:Middlewares/lvgl/src/extra/layouts/flex/lv_flex.c ****             track_cnt++;
 2550              		.loc 2 258 36 view .LVU844
 2551 024e 2DB2     		sxth	r5, r5
 2552              	.LVL265:
 259:Middlewares/lvgl/src/extra/layouts/flex/lv_flex.c ****             track_first_item = next_track_first_item;
 2553              		.loc 2 259 13 is_stmt 1 view .LVU845
 259:Middlewares/lvgl/src/extra/layouts/flex/lv_flex.c ****             track_first_item = next_track_first_item;
 2554              		.loc 2 259 22 is_stmt 0 view .LVU846
 2555 0250 0BF1010B 		add	fp, fp, #1
 2556              	.LVL266:
 260:Middlewares/lvgl/src/extra/layouts/flex/lv_flex.c ****         }
 2557              		.loc 2 260 13 is_stmt 1 view .LVU847
 2558              	.L138:
ARM GAS  /tmp/ccyjKoUS.s 			page 79


 254:Middlewares/lvgl/src/extra/layouts/flex/lv_flex.c ****             /*Search the first item of the next row*/
 2559              		.loc 2 254 14 view .LVU848
 254:Middlewares/lvgl/src/extra/layouts/flex/lv_flex.c ****             /*Search the first item of the next row*/
 2560              		.loc 2 254 47 is_stmt 0 view .LVU849
 2561 0254 A368     		ldr	r3, [r4, #8]
 254:Middlewares/lvgl/src/extra/layouts/flex/lv_flex.c ****             /*Search the first item of the next row*/
 2562              		.loc 2 254 58 view .LVU850
 2563 0256 5B68     		ldr	r3, [r3, #4]
 254:Middlewares/lvgl/src/extra/layouts/flex/lv_flex.c ****             /*Search the first item of the next row*/
 2564              		.loc 2 254 14 view .LVU851
 2565 0258 9342     		cmp	r3, r2
 2566 025a 01DD     		ble	.L139
 254:Middlewares/lvgl/src/extra/layouts/flex/lv_flex.c ****             /*Search the first item of the next row*/
 2567              		.loc 2 254 70 discriminator 1 view .LVU852
 2568 025c 002A     		cmp	r2, #0
 2569 025e E2DA     		bge	.L140
 2570              	.L139:
 263:Middlewares/lvgl/src/extra/layouts/flex/lv_flex.c **** 
 2571              		.loc 2 263 9 is_stmt 1 view .LVU853
 263:Middlewares/lvgl/src/extra/layouts/flex/lv_flex.c **** 
 2572              		.loc 2 263 11 is_stmt 0 view .LVU854
 2573 0260 BBF1000F 		cmp	fp, #0
 2574 0264 02D0     		beq	.L141
 263:Middlewares/lvgl/src/extra/layouts/flex/lv_flex.c **** 
 2575              		.loc 2 263 23 is_stmt 1 discriminator 1 view .LVU855
 263:Middlewares/lvgl/src/extra/layouts/flex/lv_flex.c **** 
 2576              		.loc 2 263 46 is_stmt 0 discriminator 1 view .LVU856
 2577 0266 A5EB0A05 		sub	r5, r5, r10
 2578              	.LVL267:
 263:Middlewares/lvgl/src/extra/layouts/flex/lv_flex.c **** 
 2579              		.loc 2 263 46 discriminator 1 view .LVU857
 2580 026a 2DB2     		sxth	r5, r5
 2581              	.LVL268:
 2582              	.L141:
 266:Middlewares/lvgl/src/extra/layouts/flex/lv_flex.c ****         place_content(track_cross_place, max_cross_size, total_track_cross_size, track_cnt, cross_p
 2583              		.loc 2 266 9 is_stmt 1 view .LVU858
 266:Middlewares/lvgl/src/extra/layouts/flex/lv_flex.c ****         place_content(track_cross_place, max_cross_size, total_track_cross_size, track_cnt, cross_p
 2584              		.loc 2 266 44 is_stmt 0 view .LVU859
 2585 026c 9DF84F30 		ldrb	r3, [sp, #79]	@ zero_extendqisi2
 266:Middlewares/lvgl/src/extra/layouts/flex/lv_flex.c ****         place_content(track_cross_place, max_cross_size, total_track_cross_size, track_cnt, cross_p
 2586              		.loc 2 266 20 view .LVU860
 2587 0270 13F0010F 		tst	r3, #1
 2588 0274 25D0     		beq	.L142
 266:Middlewares/lvgl/src/extra/layouts/flex/lv_flex.c ****         place_content(track_cross_place, max_cross_size, total_track_cross_size, track_cnt, cross_p
 2589              		.loc 2 266 46 discriminator 1 view .LVU861
 2590 0276 2046     		mov	r0, r4
 2591 0278 FFF7FEFF 		bl	lv_obj_get_content_height
 2592              	.LVL269:
 266:Middlewares/lvgl/src/extra/layouts/flex/lv_flex.c ****         place_content(track_cross_place, max_cross_size, total_track_cross_size, track_cnt, cross_p
 2593              		.loc 2 266 46 discriminator 1 view .LVU862
 2594 027c 0146     		mov	r1, r0
 2595              	.L143:
 2596              	.LVL270:
 267:Middlewares/lvgl/src/extra/layouts/flex/lv_flex.c ****     }
 2597              		.loc 2 267 9 is_stmt 1 discriminator 4 view .LVU863
 2598 027e 0DF14603 		add	r3, sp, #70
 2599 0282 0193     		str	r3, [sp, #4]
ARM GAS  /tmp/ccyjKoUS.s 			page 80


 2600 0284 CDF80090 		str	r9, [sp]
 2601 0288 0FFA8BF3 		sxth	r3, fp
 2602 028c 2A46     		mov	r2, r5
 2603 028e 0798     		ldr	r0, [sp, #28]
 2604 0290 FFF7FEFF 		bl	place_content
 2605              	.LVL271:
 2606              	.L136:
 267:Middlewares/lvgl/src/extra/layouts/flex/lv_flex.c ****     }
 2607              		.loc 2 267 9 is_stmt 0 discriminator 4 view .LVU864
 2608              	.LBE128:
 270:Middlewares/lvgl/src/extra/layouts/flex/lv_flex.c **** 
 2609              		.loc 2 270 5 is_stmt 1 view .LVU865
 270:Middlewares/lvgl/src/extra/layouts/flex/lv_flex.c **** 
 2610              		.loc 2 270 31 is_stmt 0 view .LVU866
 2611 0294 9DF84F30 		ldrb	r3, [sp, #79]	@ zero_extendqisi2
 270:Middlewares/lvgl/src/extra/layouts/flex/lv_flex.c **** 
 2612              		.loc 2 270 64 view .LVU867
 2613 0298 13F0040F 		tst	r3, #4
 2614 029c 18D0     		beq	.L159
 270:Middlewares/lvgl/src/extra/layouts/flex/lv_flex.c **** 
 2615              		.loc 2 270 37 discriminator 1 view .LVU868
 2616 029e A268     		ldr	r2, [r4, #8]
 270:Middlewares/lvgl/src/extra/layouts/flex/lv_flex.c **** 
 2617              		.loc 2 270 48 discriminator 1 view .LVU869
 2618 02a0 5268     		ldr	r2, [r2, #4]
 270:Middlewares/lvgl/src/extra/layouts/flex/lv_flex.c **** 
 2619              		.loc 2 270 60 discriminator 1 view .LVU870
 2620 02a2 02F1FF3B 		add	fp, r2, #-1
 2621              	.L144:
 2622              	.LVL272:
 272:Middlewares/lvgl/src/extra/layouts/flex/lv_flex.c ****          *cross_pos += total_track_cross_size;
 2623              		.loc 2 272 5 is_stmt 1 discriminator 4 view .LVU871
 272:Middlewares/lvgl/src/extra/layouts/flex/lv_flex.c ****          *cross_pos += total_track_cross_size;
 2624              		.loc 2 272 7 is_stmt 0 discriminator 4 view .LVU872
 2625 02a6 B8F1010F 		cmp	r8, #1
 2626 02aa 37D1     		bne	.L149
 272:Middlewares/lvgl/src/extra/layouts/flex/lv_flex.c ****          *cross_pos += total_track_cross_size;
 2627              		.loc 2 272 12 discriminator 1 view .LVU873
 2628 02ac 13F0010F 		tst	r3, #1
 2629 02b0 34D1     		bne	.L149
 273:Middlewares/lvgl/src/extra/layouts/flex/lv_flex.c ****     }
 2630              		.loc 2 273 10 is_stmt 1 view .LVU874
 273:Middlewares/lvgl/src/extra/layouts/flex/lv_flex.c ****     }
 2631              		.loc 2 273 21 is_stmt 0 view .LVU875
 2632 02b2 B9F80030 		ldrh	r3, [r9]
 2633 02b6 1D44     		add	r5, r5, r3
 2634              	.LVL273:
 273:Middlewares/lvgl/src/extra/layouts/flex/lv_flex.c ****     }
 2635              		.loc 2 273 21 view .LVU876
 2636 02b8 A9F80050 		strh	r5, [r9]	@ movhi
 2637 02bc 2EE0     		b	.L149
 2638              	.LVL274:
 2639              	.L158:
 2640              	.LBB129:
 252:Middlewares/lvgl/src/extra/layouts/flex/lv_flex.c ****         track_t t;
 2641              		.loc 2 252 67 view .LVU877
 2642 02be 0022     		movs	r2, #0
ARM GAS  /tmp/ccyjKoUS.s 			page 81


 2643 02c0 74E7     		b	.L137
 2644              	.LVL275:
 2645              	.L142:
 266:Middlewares/lvgl/src/extra/layouts/flex/lv_flex.c ****         place_content(track_cross_place, max_cross_size, total_track_cross_size, track_cnt, cross_p
 2646              		.loc 2 266 80 discriminator 2 view .LVU878
 2647 02c2 2046     		mov	r0, r4
 2648 02c4 FFF7FEFF 		bl	lv_obj_get_content_width
 2649              	.LVL276:
 266:Middlewares/lvgl/src/extra/layouts/flex/lv_flex.c ****         place_content(track_cross_place, max_cross_size, total_track_cross_size, track_cnt, cross_p
 2650              		.loc 2 266 80 discriminator 2 view .LVU879
 2651 02c8 0146     		mov	r1, r0
 2652 02ca D8E7     		b	.L143
 2653              	.LVL277:
 2654              	.L157:
 266:Middlewares/lvgl/src/extra/layouts/flex/lv_flex.c ****         place_content(track_cross_place, max_cross_size, total_track_cross_size, track_cnt, cross_p
 2655              		.loc 2 266 80 discriminator 2 view .LVU880
 2656              	.LBE129:
 245:Middlewares/lvgl/src/extra/layouts/flex/lv_flex.c ****     lv_coord_t gap = 0;
 2657              		.loc 2 245 16 view .LVU881
 2658 02cc 0025     		movs	r5, #0
 2659 02ce E1E7     		b	.L136
 2660              	.LVL278:
 2661              	.L159:
 270:Middlewares/lvgl/src/extra/layouts/flex/lv_flex.c **** 
 2662              		.loc 2 270 64 view .LVU882
 2663 02d0 4FF0000B 		mov	fp, #0
 2664 02d4 E7E7     		b	.L144
 2665              	.LVL279:
 2666              	.L166:
 2667              	.LBB130:
 282:Middlewares/lvgl/src/extra/layouts/flex/lv_flex.c ****             *cross_pos -= t.track_cross_size;
 2668              		.loc 2 282 19 discriminator 1 view .LVU883
 2669 02d6 9DF84F30 		ldrb	r3, [sp, #79]	@ zero_extendqisi2
 282:Middlewares/lvgl/src/extra/layouts/flex/lv_flex.c ****             *cross_pos -= t.track_cross_size;
 2670              		.loc 2 282 16 discriminator 1 view .LVU884
 2671 02da 13F0010F 		tst	r3, #1
 2672 02de 37D1     		bne	.L146
 283:Middlewares/lvgl/src/extra/layouts/flex/lv_flex.c ****         }
 2673              		.loc 2 283 13 is_stmt 1 view .LVU885
 283:Middlewares/lvgl/src/extra/layouts/flex/lv_flex.c ****         }
 2674              		.loc 2 283 28 is_stmt 0 view .LVU886
 2675 02e0 BDF82C20 		ldrh	r2, [sp, #44]
 283:Middlewares/lvgl/src/extra/layouts/flex/lv_flex.c ****         }
 2676              		.loc 2 283 24 view .LVU887
 2677 02e4 B9F80030 		ldrh	r3, [r9]
 2678 02e8 9B1A     		subs	r3, r3, r2
 2679 02ea A9F80030 		strh	r3, [r9]	@ movhi
 2680 02ee 2FE0     		b	.L146
 2681              	.L168:
 2682              		.align	2
 2683              	.L167:
 2684 02f0 00000000 		.word	.LANCHOR1
 2685 02f4 00000000 		.word	.LANCHOR2
 2686 02f8 00000000 		.word	.LANCHOR3
 2687 02fc 00000000 		.word	.LANCHOR4
 2688              	.LVL280:
 2689              	.L147:
ARM GAS  /tmp/ccyjKoUS.s 			page 82


 292:Middlewares/lvgl/src/extra/layouts/flex/lv_flex.c ****         }
 2690              		.loc 2 292 13 is_stmt 1 view .LVU888
 292:Middlewares/lvgl/src/extra/layouts/flex/lv_flex.c ****         }
 2691              		.loc 2 292 28 is_stmt 0 view .LVU889
 2692 0300 BDF82C20 		ldrh	r2, [sp, #44]
 292:Middlewares/lvgl/src/extra/layouts/flex/lv_flex.c ****         }
 2693              		.loc 2 292 46 view .LVU890
 2694 0304 BDF84630 		ldrh	r3, [sp, #70]
 2695 0308 1A44     		add	r2, r2, r3
 2696 030a 92B2     		uxth	r2, r2
 292:Middlewares/lvgl/src/extra/layouts/flex/lv_flex.c ****         }
 2697              		.loc 2 292 52 view .LVU891
 2698 030c 5244     		add	r2, r2, r10
 2699 030e 92B2     		uxth	r2, r2
 292:Middlewares/lvgl/src/extra/layouts/flex/lv_flex.c ****         }
 2700              		.loc 2 292 24 view .LVU892
 2701 0310 B9F80030 		ldrh	r3, [r9]
 2702 0314 1A44     		add	r2, r2, r3
 2703 0316 A9F80020 		strh	r2, [r9]	@ movhi
 2704              	.L148:
 286:Middlewares/lvgl/src/extra/layouts/flex/lv_flex.c ****         lv_mem_buf_release(t.grow_dsc);
 2705              		.loc 2 286 26 view .LVU893
 2706 031a AB46     		mov	fp, r5
 2707              	.LVL281:
 2708              	.L149:
 286:Middlewares/lvgl/src/extra/layouts/flex/lv_flex.c ****         lv_mem_buf_release(t.grow_dsc);
 2709              		.loc 2 286 26 view .LVU894
 2710              	.LBE130:
 276:Middlewares/lvgl/src/extra/layouts/flex/lv_flex.c ****         track_t t;
 2711              		.loc 2 276 10 is_stmt 1 view .LVU895
 276:Middlewares/lvgl/src/extra/layouts/flex/lv_flex.c ****         track_t t;
 2712              		.loc 2 276 43 is_stmt 0 view .LVU896
 2713 031c A368     		ldr	r3, [r4, #8]
 276:Middlewares/lvgl/src/extra/layouts/flex/lv_flex.c ****         track_t t;
 2714              		.loc 2 276 54 view .LVU897
 2715 031e 5B68     		ldr	r3, [r3, #4]
 276:Middlewares/lvgl/src/extra/layouts/flex/lv_flex.c ****         track_t t;
 2716              		.loc 2 276 10 view .LVU898
 2717 0320 5B45     		cmp	r3, fp
 2718 0322 3CDD     		ble	.L150
 276:Middlewares/lvgl/src/extra/layouts/flex/lv_flex.c ****         track_t t;
 2719              		.loc 2 276 66 discriminator 1 view .LVU899
 2720 0324 BBF1000F 		cmp	fp, #0
 2721 0328 39DB     		blt	.L150
 2722              	.LBB131:
 277:Middlewares/lvgl/src/extra/layouts/flex/lv_flex.c ****         t.grow_dsc_calc = 1;
 2723              		.loc 2 277 9 is_stmt 1 view .LVU900
 278:Middlewares/lvgl/src/extra/layouts/flex/lv_flex.c ****         /*Search the first item of the next row*/
 2724              		.loc 2 278 9 view .LVU901
 278:Middlewares/lvgl/src/extra/layouts/flex/lv_flex.c ****         /*Search the first item of the next row*/
 2725              		.loc 2 278 25 is_stmt 0 view .LVU902
 2726 032a 9DF84030 		ldrb	r3, [sp, #64]	@ zero_extendqisi2
 2727 032e 43F00103 		orr	r3, r3, #1
 2728 0332 8DF84030 		strb	r3, [sp, #64]
 280:Middlewares/lvgl/src/extra/layouts/flex/lv_flex.c **** 
 2729              		.loc 2 280 9 is_stmt 1 view .LVU903
 280:Middlewares/lvgl/src/extra/layouts/flex/lv_flex.c **** 
ARM GAS  /tmp/ccyjKoUS.s 			page 83


 2730              		.loc 2 280 33 is_stmt 0 view .LVU904
 2731 0336 0BAB     		add	r3, sp, #44
 2732 0338 0193     		str	r3, [sp, #4]
 2733 033a 0096     		str	r6, [sp]
 2734 033c 3B46     		mov	r3, r7
 2735 033e 5A46     		mov	r2, fp
 2736 0340 13A9     		add	r1, sp, #76
 2737 0342 2046     		mov	r0, r4
 2738 0344 FFF7FEFF 		bl	find_track_end
 2739              	.LVL282:
 2740 0348 0546     		mov	r5, r0
 2741              	.LVL283:
 282:Middlewares/lvgl/src/extra/layouts/flex/lv_flex.c ****             *cross_pos -= t.track_cross_size;
 2742              		.loc 2 282 9 is_stmt 1 view .LVU905
 282:Middlewares/lvgl/src/extra/layouts/flex/lv_flex.c ****             *cross_pos -= t.track_cross_size;
 2743              		.loc 2 282 11 is_stmt 0 view .LVU906
 2744 034a B8F1010F 		cmp	r8, #1
 2745 034e C2D0     		beq	.L166
 2746              	.L146:
 285:Middlewares/lvgl/src/extra/layouts/flex/lv_flex.c ****         track_first_item = next_track_first_item;
 2747              		.loc 2 285 9 is_stmt 1 view .LVU907
 2748 0350 0BAB     		add	r3, sp, #44
 2749 0352 0493     		str	r3, [sp, #16]
 2750 0354 0396     		str	r6, [sp, #12]
 2751 0356 0297     		str	r7, [sp, #8]
 2752 0358 BDF94A30 		ldrsh	r3, [sp, #74]
 2753 035c 0193     		str	r3, [sp, #4]
 2754 035e BDF94830 		ldrsh	r3, [sp, #72]
 2755 0362 0093     		str	r3, [sp]
 2756 0364 2B46     		mov	r3, r5
 2757 0366 5A46     		mov	r2, fp
 2758 0368 13A9     		add	r1, sp, #76
 2759 036a 2046     		mov	r0, r4
 2760              	.LVL284:
 285:Middlewares/lvgl/src/extra/layouts/flex/lv_flex.c ****         track_first_item = next_track_first_item;
 2761              		.loc 2 285 9 is_stmt 0 view .LVU908
 2762 036c FFF7FEFF 		bl	children_repos
 2763              	.LVL285:
 286:Middlewares/lvgl/src/extra/layouts/flex/lv_flex.c ****         lv_mem_buf_release(t.grow_dsc);
 2764              		.loc 2 286 9 is_stmt 1 view .LVU909
 287:Middlewares/lvgl/src/extra/layouts/flex/lv_flex.c ****         t.grow_dsc = NULL;
 2765              		.loc 2 287 9 view .LVU910
 2766 0370 0E98     		ldr	r0, [sp, #56]
 2767 0372 FFF7FEFF 		bl	lv_mem_buf_release
 2768              	.LVL286:
 288:Middlewares/lvgl/src/extra/layouts/flex/lv_flex.c ****         if(rtl && !f.row) {
 2769              		.loc 2 288 9 view .LVU911
 288:Middlewares/lvgl/src/extra/layouts/flex/lv_flex.c ****         if(rtl && !f.row) {
 2770              		.loc 2 288 20 is_stmt 0 view .LVU912
 2771 0376 0023     		movs	r3, #0
 2772 0378 0E93     		str	r3, [sp, #56]
 289:Middlewares/lvgl/src/extra/layouts/flex/lv_flex.c ****             *cross_pos -= gap + track_gap;
 2773              		.loc 2 289 9 is_stmt 1 view .LVU913
 289:Middlewares/lvgl/src/extra/layouts/flex/lv_flex.c ****             *cross_pos -= gap + track_gap;
 2774              		.loc 2 289 11 is_stmt 0 view .LVU914
 2775 037a B8F1010F 		cmp	r8, #1
 2776 037e BFD1     		bne	.L147
ARM GAS  /tmp/ccyjKoUS.s 			page 84


 289:Middlewares/lvgl/src/extra/layouts/flex/lv_flex.c ****             *cross_pos -= gap + track_gap;
 2777              		.loc 2 289 19 discriminator 1 view .LVU915
 2778 0380 9DF84F30 		ldrb	r3, [sp, #79]	@ zero_extendqisi2
 289:Middlewares/lvgl/src/extra/layouts/flex/lv_flex.c ****             *cross_pos -= gap + track_gap;
 2779              		.loc 2 289 16 discriminator 1 view .LVU916
 2780 0384 13F0010F 		tst	r3, #1
 2781 0388 BAD1     		bne	.L147
 290:Middlewares/lvgl/src/extra/layouts/flex/lv_flex.c ****         } else {
 2782              		.loc 2 290 13 is_stmt 1 view .LVU917
 290:Middlewares/lvgl/src/extra/layouts/flex/lv_flex.c ****         } else {
 2783              		.loc 2 290 31 is_stmt 0 view .LVU918
 2784 038a BDF84630 		ldrh	r3, [sp, #70]
 2785 038e 5344     		add	r3, r3, r10
 2786 0390 9BB2     		uxth	r3, r3
 290:Middlewares/lvgl/src/extra/layouts/flex/lv_flex.c ****         } else {
 2787              		.loc 2 290 24 view .LVU919
 2788 0392 B9F80020 		ldrh	r2, [r9]
 2789 0396 D31A     		subs	r3, r2, r3
 2790 0398 A9F80030 		strh	r3, [r9]	@ movhi
 2791 039c BDE7     		b	.L148
 2792              	.LVL287:
 2793              	.L150:
 290:Middlewares/lvgl/src/extra/layouts/flex/lv_flex.c ****         } else {
 2794              		.loc 2 290 24 view .LVU920
 2795              	.LBE131:
 295:Middlewares/lvgl/src/extra/layouts/flex/lv_flex.c **** 
 2796              		.loc 2 295 30 is_stmt 1 view .LVU921
 297:Middlewares/lvgl/src/extra/layouts/flex/lv_flex.c ****         lv_obj_refr_size(cont);
 2797              		.loc 2 297 5 view .LVU922
 297:Middlewares/lvgl/src/extra/layouts/flex/lv_flex.c ****         lv_obj_refr_size(cont);
 2798              		.loc 2 297 7 is_stmt 0 view .LVU923
 2799 039e 42F2D173 		movw	r3, #10193
 2800 03a2 089A     		ldr	r2, [sp, #32]
 2801 03a4 9A42     		cmp	r2, r3
 2802 03a6 0AD0     		beq	.L152
 297:Middlewares/lvgl/src/extra/layouts/flex/lv_flex.c ****         lv_obj_refr_size(cont);
 2803              		.loc 2 297 33 discriminator 1 view .LVU924
 2804 03a8 099A     		ldr	r2, [sp, #36]
 2805 03aa 9A42     		cmp	r2, r3
 2806 03ac 07D0     		beq	.L152
 2807              	.L153:
 301:Middlewares/lvgl/src/extra/layouts/flex/lv_flex.c **** 
 2808              		.loc 2 301 5 is_stmt 1 view .LVU925
 2809 03ae 0022     		movs	r2, #0
 2810 03b0 2521     		movs	r1, #37
 2811 03b2 2046     		mov	r0, r4
 2812 03b4 FFF7FEFF 		bl	lv_event_send
 2813              	.LVL288:
 303:Middlewares/lvgl/src/extra/layouts/flex/lv_flex.c **** }
 2814              		.loc 2 303 32 view .LVU926
 304:Middlewares/lvgl/src/extra/layouts/flex/lv_flex.c **** 
 2815              		.loc 2 304 1 is_stmt 0 view .LVU927
 2816 03b8 15B0     		add	sp, sp, #84
 2817              	.LCFI12:
 2818              		.cfi_remember_state
 2819              		.cfi_def_cfa_offset 36
 2820              		@ sp needed
ARM GAS  /tmp/ccyjKoUS.s 			page 85


 2821 03ba BDE8F08F 		pop	{r4, r5, r6, r7, r8, r9, r10, fp, pc}
 2822              	.LVL289:
 2823              	.L152:
 2824              	.LCFI13:
 2825              		.cfi_restore_state
 298:Middlewares/lvgl/src/extra/layouts/flex/lv_flex.c ****     }
 2826              		.loc 2 298 9 is_stmt 1 view .LVU928
 2827 03be 2046     		mov	r0, r4
 2828 03c0 FFF7FEFF 		bl	lv_obj_refr_size
 2829              	.LVL290:
 2830 03c4 F3E7     		b	.L153
 2831              		.cfi_endproc
 2832              	.LFE177:
 2834 03c6 00BF     		.section	.text.lv_flex_init,"ax",%progbits
 2835              		.align	1
 2836              		.global	lv_flex_init
 2837              		.syntax unified
 2838              		.thumb
 2839              		.thumb_func
 2840              		.fpu softvfp
 2842              	lv_flex_init:
 2843              	.LFB163:
  90:Middlewares/lvgl/src/extra/layouts/flex/lv_flex.c ****     LV_LAYOUT_FLEX = lv_layout_register(flex_update, NULL);
 2844              		.loc 2 90 1 view -0
 2845              		.cfi_startproc
 2846              		@ args = 0, pretend = 0, frame = 0
 2847              		@ frame_needed = 0, uses_anonymous_args = 0
 2848 0000 08B5     		push	{r3, lr}
 2849              	.LCFI14:
 2850              		.cfi_def_cfa_offset 8
 2851              		.cfi_offset 3, -8
 2852              		.cfi_offset 14, -4
  91:Middlewares/lvgl/src/extra/layouts/flex/lv_flex.c **** 
 2853              		.loc 2 91 5 view .LVU930
  91:Middlewares/lvgl/src/extra/layouts/flex/lv_flex.c **** 
 2854              		.loc 2 91 22 is_stmt 0 view .LVU931
 2855 0002 0021     		movs	r1, #0
 2856 0004 0D48     		ldr	r0, .L171
 2857 0006 FFF7FEFF 		bl	lv_layout_register
 2858              	.LVL291:
  91:Middlewares/lvgl/src/extra/layouts/flex/lv_flex.c **** 
 2859              		.loc 2 91 20 view .LVU932
 2860 000a 0D4B     		ldr	r3, .L171+4
 2861 000c 1860     		str	r0, [r3]
  93:Middlewares/lvgl/src/extra/layouts/flex/lv_flex.c ****     LV_STYLE_FLEX_MAIN_PLACE = lv_style_register_prop() | LV_STYLE_PROP_LAYOUT_REFR;
 2862              		.loc 2 93 5 is_stmt 1 view .LVU933
  93:Middlewares/lvgl/src/extra/layouts/flex/lv_flex.c ****     LV_STYLE_FLEX_MAIN_PLACE = lv_style_register_prop() | LV_STYLE_PROP_LAYOUT_REFR;
 2863              		.loc 2 93 26 is_stmt 0 view .LVU934
 2864 000e FFF7FEFF 		bl	lv_style_register_prop
 2865              	.LVL292:
  93:Middlewares/lvgl/src/extra/layouts/flex/lv_flex.c ****     LV_STYLE_FLEX_MAIN_PLACE = lv_style_register_prop() | LV_STYLE_PROP_LAYOUT_REFR;
 2866              		.loc 2 93 24 view .LVU935
 2867 0012 0C4B     		ldr	r3, .L171+8
 2868 0014 1880     		strh	r0, [r3]	@ movhi
  94:Middlewares/lvgl/src/extra/layouts/flex/lv_flex.c ****     LV_STYLE_FLEX_CROSS_PLACE = lv_style_register_prop() | LV_STYLE_PROP_LAYOUT_REFR;
 2869              		.loc 2 94 5 is_stmt 1 view .LVU936
  94:Middlewares/lvgl/src/extra/layouts/flex/lv_flex.c ****     LV_STYLE_FLEX_CROSS_PLACE = lv_style_register_prop() | LV_STYLE_PROP_LAYOUT_REFR;
ARM GAS  /tmp/ccyjKoUS.s 			page 86


 2870              		.loc 2 94 32 is_stmt 0 view .LVU937
 2871 0016 FFF7FEFF 		bl	lv_style_register_prop
 2872              	.LVL293:
  94:Middlewares/lvgl/src/extra/layouts/flex/lv_flex.c ****     LV_STYLE_FLEX_CROSS_PLACE = lv_style_register_prop() | LV_STYLE_PROP_LAYOUT_REFR;
 2873              		.loc 2 94 30 view .LVU938
 2874 001a 40F48050 		orr	r0, r0, #4096
 2875 001e 0A4B     		ldr	r3, .L171+12
 2876 0020 1880     		strh	r0, [r3]	@ movhi
  95:Middlewares/lvgl/src/extra/layouts/flex/lv_flex.c ****     LV_STYLE_FLEX_TRACK_PLACE = lv_style_register_prop() | LV_STYLE_PROP_LAYOUT_REFR;
 2877              		.loc 2 95 5 is_stmt 1 view .LVU939
  95:Middlewares/lvgl/src/extra/layouts/flex/lv_flex.c ****     LV_STYLE_FLEX_TRACK_PLACE = lv_style_register_prop() | LV_STYLE_PROP_LAYOUT_REFR;
 2878              		.loc 2 95 33 is_stmt 0 view .LVU940
 2879 0022 FFF7FEFF 		bl	lv_style_register_prop
 2880              	.LVL294:
  95:Middlewares/lvgl/src/extra/layouts/flex/lv_flex.c ****     LV_STYLE_FLEX_TRACK_PLACE = lv_style_register_prop() | LV_STYLE_PROP_LAYOUT_REFR;
 2881              		.loc 2 95 31 view .LVU941
 2882 0026 40F48050 		orr	r0, r0, #4096
 2883 002a 084B     		ldr	r3, .L171+16
 2884 002c 1880     		strh	r0, [r3]	@ movhi
  96:Middlewares/lvgl/src/extra/layouts/flex/lv_flex.c **** }
 2885              		.loc 2 96 5 is_stmt 1 view .LVU942
  96:Middlewares/lvgl/src/extra/layouts/flex/lv_flex.c **** }
 2886              		.loc 2 96 33 is_stmt 0 view .LVU943
 2887 002e FFF7FEFF 		bl	lv_style_register_prop
 2888              	.LVL295:
  96:Middlewares/lvgl/src/extra/layouts/flex/lv_flex.c **** }
 2889              		.loc 2 96 31 view .LVU944
 2890 0032 40F48050 		orr	r0, r0, #4096
 2891 0036 064B     		ldr	r3, .L171+20
 2892 0038 1880     		strh	r0, [r3]	@ movhi
  97:Middlewares/lvgl/src/extra/layouts/flex/lv_flex.c **** 
 2893              		.loc 2 97 1 view .LVU945
 2894 003a 08BD     		pop	{r3, pc}
 2895              	.L172:
 2896              		.align	2
 2897              	.L171:
 2898 003c 00000000 		.word	flex_update
 2899 0040 00000000 		.word	.LANCHOR5
 2900 0044 00000000 		.word	.LANCHOR1
 2901 0048 00000000 		.word	.LANCHOR2
 2902 004c 00000000 		.word	.LANCHOR3
 2903 0050 00000000 		.word	.LANCHOR4
 2904              		.cfi_endproc
 2905              	.LFE163:
 2907              		.section	.text.lv_style_set_flex_flow,"ax",%progbits
 2908              		.align	1
 2909              		.global	lv_style_set_flex_flow
 2910              		.syntax unified
 2911              		.thumb
 2912              		.thumb_func
 2913              		.fpu softvfp
 2915              	lv_style_set_flex_flow:
 2916              	.LVL296:
 2917              	.LFB167:
 121:Middlewares/lvgl/src/extra/layouts/flex/lv_flex.c ****     lv_style_value_t v = {
 2918              		.loc 2 121 1 is_stmt 1 view -0
 2919              		.cfi_startproc
ARM GAS  /tmp/ccyjKoUS.s 			page 87


 2920              		@ args = 0, pretend = 0, frame = 0
 2921              		@ frame_needed = 0, uses_anonymous_args = 0
 121:Middlewares/lvgl/src/extra/layouts/flex/lv_flex.c ****     lv_style_value_t v = {
 2922              		.loc 2 121 1 is_stmt 0 view .LVU947
 2923 0000 08B5     		push	{r3, lr}
 2924              	.LCFI15:
 2925              		.cfi_def_cfa_offset 8
 2926              		.cfi_offset 3, -8
 2927              		.cfi_offset 14, -4
 2928 0002 0A46     		mov	r2, r1
 122:Middlewares/lvgl/src/extra/layouts/flex/lv_flex.c ****         .num = (int32_t)value
 2929              		.loc 2 122 5 is_stmt 1 view .LVU948
 125:Middlewares/lvgl/src/extra/layouts/flex/lv_flex.c **** }
 2930              		.loc 2 125 5 view .LVU949
 2931 0004 024B     		ldr	r3, .L175
 2932 0006 1988     		ldrh	r1, [r3]
 2933              	.LVL297:
 125:Middlewares/lvgl/src/extra/layouts/flex/lv_flex.c **** }
 2934              		.loc 2 125 5 is_stmt 0 view .LVU950
 2935 0008 FFF7FEFF 		bl	lv_style_set_prop
 2936              	.LVL298:
 126:Middlewares/lvgl/src/extra/layouts/flex/lv_flex.c **** 
 2937              		.loc 2 126 1 view .LVU951
 2938 000c 08BD     		pop	{r3, pc}
 2939              	.L176:
 2940 000e 00BF     		.align	2
 2941              	.L175:
 2942 0010 00000000 		.word	.LANCHOR1
 2943              		.cfi_endproc
 2944              	.LFE167:
 2946              		.section	.text.lv_style_set_flex_main_place,"ax",%progbits
 2947              		.align	1
 2948              		.global	lv_style_set_flex_main_place
 2949              		.syntax unified
 2950              		.thumb
 2951              		.thumb_func
 2952              		.fpu softvfp
 2954              	lv_style_set_flex_main_place:
 2955              	.LVL299:
 2956              	.LFB168:
 129:Middlewares/lvgl/src/extra/layouts/flex/lv_flex.c ****     lv_style_value_t v = {
 2957              		.loc 2 129 1 is_stmt 1 view -0
 2958              		.cfi_startproc
 2959              		@ args = 0, pretend = 0, frame = 0
 2960              		@ frame_needed = 0, uses_anonymous_args = 0
 129:Middlewares/lvgl/src/extra/layouts/flex/lv_flex.c ****     lv_style_value_t v = {
 2961              		.loc 2 129 1 is_stmt 0 view .LVU953
 2962 0000 08B5     		push	{r3, lr}
 2963              	.LCFI16:
 2964              		.cfi_def_cfa_offset 8
 2965              		.cfi_offset 3, -8
 2966              		.cfi_offset 14, -4
 2967 0002 0A46     		mov	r2, r1
 130:Middlewares/lvgl/src/extra/layouts/flex/lv_flex.c ****         .num = (int32_t)value
 2968              		.loc 2 130 5 is_stmt 1 view .LVU954
 133:Middlewares/lvgl/src/extra/layouts/flex/lv_flex.c **** }
 2969              		.loc 2 133 5 view .LVU955
ARM GAS  /tmp/ccyjKoUS.s 			page 88


 2970 0004 024B     		ldr	r3, .L179
 2971 0006 1988     		ldrh	r1, [r3]
 2972              	.LVL300:
 133:Middlewares/lvgl/src/extra/layouts/flex/lv_flex.c **** }
 2973              		.loc 2 133 5 is_stmt 0 view .LVU956
 2974 0008 FFF7FEFF 		bl	lv_style_set_prop
 2975              	.LVL301:
 134:Middlewares/lvgl/src/extra/layouts/flex/lv_flex.c **** 
 2976              		.loc 2 134 1 view .LVU957
 2977 000c 08BD     		pop	{r3, pc}
 2978              	.L180:
 2979 000e 00BF     		.align	2
 2980              	.L179:
 2981 0010 00000000 		.word	.LANCHOR2
 2982              		.cfi_endproc
 2983              	.LFE168:
 2985              		.section	.text.lv_style_set_flex_cross_place,"ax",%progbits
 2986              		.align	1
 2987              		.global	lv_style_set_flex_cross_place
 2988              		.syntax unified
 2989              		.thumb
 2990              		.thumb_func
 2991              		.fpu softvfp
 2993              	lv_style_set_flex_cross_place:
 2994              	.LVL302:
 2995              	.LFB169:
 137:Middlewares/lvgl/src/extra/layouts/flex/lv_flex.c ****     lv_style_value_t v = {
 2996              		.loc 2 137 1 is_stmt 1 view -0
 2997              		.cfi_startproc
 2998              		@ args = 0, pretend = 0, frame = 0
 2999              		@ frame_needed = 0, uses_anonymous_args = 0
 137:Middlewares/lvgl/src/extra/layouts/flex/lv_flex.c ****     lv_style_value_t v = {
 3000              		.loc 2 137 1 is_stmt 0 view .LVU959
 3001 0000 08B5     		push	{r3, lr}
 3002              	.LCFI17:
 3003              		.cfi_def_cfa_offset 8
 3004              		.cfi_offset 3, -8
 3005              		.cfi_offset 14, -4
 3006 0002 0A46     		mov	r2, r1
 138:Middlewares/lvgl/src/extra/layouts/flex/lv_flex.c ****         .num = (int32_t)value
 3007              		.loc 2 138 5 is_stmt 1 view .LVU960
 141:Middlewares/lvgl/src/extra/layouts/flex/lv_flex.c **** }
 3008              		.loc 2 141 5 view .LVU961
 3009 0004 024B     		ldr	r3, .L183
 3010 0006 1988     		ldrh	r1, [r3]
 3011              	.LVL303:
 141:Middlewares/lvgl/src/extra/layouts/flex/lv_flex.c **** }
 3012              		.loc 2 141 5 is_stmt 0 view .LVU962
 3013 0008 FFF7FEFF 		bl	lv_style_set_prop
 3014              	.LVL304:
 142:Middlewares/lvgl/src/extra/layouts/flex/lv_flex.c **** 
 3015              		.loc 2 142 1 view .LVU963
 3016 000c 08BD     		pop	{r3, pc}
 3017              	.L184:
 3018 000e 00BF     		.align	2
 3019              	.L183:
 3020 0010 00000000 		.word	.LANCHOR3
ARM GAS  /tmp/ccyjKoUS.s 			page 89


 3021              		.cfi_endproc
 3022              	.LFE169:
 3024              		.section	.text.lv_style_set_flex_track_place,"ax",%progbits
 3025              		.align	1
 3026              		.global	lv_style_set_flex_track_place
 3027              		.syntax unified
 3028              		.thumb
 3029              		.thumb_func
 3030              		.fpu softvfp
 3032              	lv_style_set_flex_track_place:
 3033              	.LVL305:
 3034              	.LFB170:
 145:Middlewares/lvgl/src/extra/layouts/flex/lv_flex.c ****     lv_style_value_t v = {
 3035              		.loc 2 145 1 is_stmt 1 view -0
 3036              		.cfi_startproc
 3037              		@ args = 0, pretend = 0, frame = 0
 3038              		@ frame_needed = 0, uses_anonymous_args = 0
 145:Middlewares/lvgl/src/extra/layouts/flex/lv_flex.c ****     lv_style_value_t v = {
 3039              		.loc 2 145 1 is_stmt 0 view .LVU965
 3040 0000 08B5     		push	{r3, lr}
 3041              	.LCFI18:
 3042              		.cfi_def_cfa_offset 8
 3043              		.cfi_offset 3, -8
 3044              		.cfi_offset 14, -4
 3045 0002 0A46     		mov	r2, r1
 146:Middlewares/lvgl/src/extra/layouts/flex/lv_flex.c ****         .num = (int32_t)value
 3046              		.loc 2 146 5 is_stmt 1 view .LVU966
 149:Middlewares/lvgl/src/extra/layouts/flex/lv_flex.c **** }
 3047              		.loc 2 149 5 view .LVU967
 3048 0004 024B     		ldr	r3, .L187
 3049 0006 1988     		ldrh	r1, [r3]
 3050              	.LVL306:
 149:Middlewares/lvgl/src/extra/layouts/flex/lv_flex.c **** }
 3051              		.loc 2 149 5 is_stmt 0 view .LVU968
 3052 0008 FFF7FEFF 		bl	lv_style_set_prop
 3053              	.LVL307:
 150:Middlewares/lvgl/src/extra/layouts/flex/lv_flex.c **** 
 3054              		.loc 2 150 1 view .LVU969
 3055 000c 08BD     		pop	{r3, pc}
 3056              	.L188:
 3057 000e 00BF     		.align	2
 3058              	.L187:
 3059 0010 00000000 		.word	.LANCHOR4
 3060              		.cfi_endproc
 3061              	.LFE170:
 3063              		.section	.text.lv_style_set_flex_grow,"ax",%progbits
 3064              		.align	1
 3065              		.global	lv_style_set_flex_grow
 3066              		.syntax unified
 3067              		.thumb
 3068              		.thumb_func
 3069              		.fpu softvfp
 3071              	lv_style_set_flex_grow:
 3072              	.LVL308:
 3073              	.LFB171:
 153:Middlewares/lvgl/src/extra/layouts/flex/lv_flex.c ****     lv_style_value_t v = {
 3074              		.loc 2 153 1 is_stmt 1 view -0
ARM GAS  /tmp/ccyjKoUS.s 			page 90


 3075              		.cfi_startproc
 3076              		@ args = 0, pretend = 0, frame = 0
 3077              		@ frame_needed = 0, uses_anonymous_args = 0
 153:Middlewares/lvgl/src/extra/layouts/flex/lv_flex.c ****     lv_style_value_t v = {
 3078              		.loc 2 153 1 is_stmt 0 view .LVU971
 3079 0000 08B5     		push	{r3, lr}
 3080              	.LCFI19:
 3081              		.cfi_def_cfa_offset 8
 3082              		.cfi_offset 3, -8
 3083              		.cfi_offset 14, -4
 3084 0002 0A46     		mov	r2, r1
 154:Middlewares/lvgl/src/extra/layouts/flex/lv_flex.c ****             .num = (int32_t)value
 3085              		.loc 2 154 5 is_stmt 1 view .LVU972
 157:Middlewares/lvgl/src/extra/layouts/flex/lv_flex.c **** }
 3086              		.loc 2 157 5 view .LVU973
 3087 0004 024B     		ldr	r3, .L191
 3088 0006 1988     		ldrh	r1, [r3]
 3089              	.LVL309:
 157:Middlewares/lvgl/src/extra/layouts/flex/lv_flex.c **** }
 3090              		.loc 2 157 5 is_stmt 0 view .LVU974
 3091 0008 FFF7FEFF 		bl	lv_style_set_prop
 3092              	.LVL310:
 158:Middlewares/lvgl/src/extra/layouts/flex/lv_flex.c **** 
 3093              		.loc 2 158 1 view .LVU975
 3094 000c 08BD     		pop	{r3, pc}
 3095              	.L192:
 3096 000e 00BF     		.align	2
 3097              	.L191:
 3098 0010 00000000 		.word	.LANCHOR0
 3099              		.cfi_endproc
 3100              	.LFE171:
 3102              		.section	.text.lv_obj_set_style_flex_flow,"ax",%progbits
 3103              		.align	1
 3104              		.global	lv_obj_set_style_flex_flow
 3105              		.syntax unified
 3106              		.thumb
 3107              		.thumb_func
 3108              		.fpu softvfp
 3110              	lv_obj_set_style_flex_flow:
 3111              	.LVL311:
 3112              	.LFB172:
 162:Middlewares/lvgl/src/extra/layouts/flex/lv_flex.c ****     lv_style_value_t v = {
 3113              		.loc 2 162 1 is_stmt 1 view -0
 3114              		.cfi_startproc
 3115              		@ args = 0, pretend = 0, frame = 0
 3116              		@ frame_needed = 0, uses_anonymous_args = 0
 162:Middlewares/lvgl/src/extra/layouts/flex/lv_flex.c ****     lv_style_value_t v = {
 3117              		.loc 2 162 1 is_stmt 0 view .LVU977
 3118 0000 08B5     		push	{r3, lr}
 3119              	.LCFI20:
 3120              		.cfi_def_cfa_offset 8
 3121              		.cfi_offset 3, -8
 3122              		.cfi_offset 14, -4
 3123 0002 1346     		mov	r3, r2
 163:Middlewares/lvgl/src/extra/layouts/flex/lv_flex.c ****         .num = (int32_t) value
 3124              		.loc 2 163 5 is_stmt 1 view .LVU978
 166:Middlewares/lvgl/src/extra/layouts/flex/lv_flex.c **** }
ARM GAS  /tmp/ccyjKoUS.s 			page 91


 3125              		.loc 2 166 5 view .LVU979
 3126 0004 0A46     		mov	r2, r1
 3127              	.LVL312:
 166:Middlewares/lvgl/src/extra/layouts/flex/lv_flex.c **** }
 3128              		.loc 2 166 5 is_stmt 0 view .LVU980
 3129 0006 0249     		ldr	r1, .L195
 3130              	.LVL313:
 166:Middlewares/lvgl/src/extra/layouts/flex/lv_flex.c **** }
 3131              		.loc 2 166 5 view .LVU981
 3132 0008 0988     		ldrh	r1, [r1]
 3133 000a FFF7FEFF 		bl	lv_obj_set_local_style_prop
 3134              	.LVL314:
 167:Middlewares/lvgl/src/extra/layouts/flex/lv_flex.c **** 
 3135              		.loc 2 167 1 view .LVU982
 3136 000e 08BD     		pop	{r3, pc}
 3137              	.L196:
 3138              		.align	2
 3139              	.L195:
 3140 0010 00000000 		.word	.LANCHOR1
 3141              		.cfi_endproc
 3142              	.LFE172:
 3144              		.section	.text.lv_obj_set_flex_flow,"ax",%progbits
 3145              		.align	1
 3146              		.global	lv_obj_set_flex_flow
 3147              		.syntax unified
 3148              		.thumb
 3149              		.thumb_func
 3150              		.fpu softvfp
 3152              	lv_obj_set_flex_flow:
 3153              	.LVL315:
 3154              	.LFB164:
 100:Middlewares/lvgl/src/extra/layouts/flex/lv_flex.c ****     lv_obj_set_style_flex_flow(obj, flow, 0);
 3155              		.loc 2 100 1 is_stmt 1 view -0
 3156              		.cfi_startproc
 3157              		@ args = 0, pretend = 0, frame = 0
 3158              		@ frame_needed = 0, uses_anonymous_args = 0
 100:Middlewares/lvgl/src/extra/layouts/flex/lv_flex.c ****     lv_obj_set_style_flex_flow(obj, flow, 0);
 3159              		.loc 2 100 1 is_stmt 0 view .LVU984
 3160 0000 10B5     		push	{r4, lr}
 3161              	.LCFI21:
 3162              		.cfi_def_cfa_offset 8
 3163              		.cfi_offset 4, -8
 3164              		.cfi_offset 14, -4
 3165 0002 0446     		mov	r4, r0
 101:Middlewares/lvgl/src/extra/layouts/flex/lv_flex.c ****     lv_obj_set_style_layout(obj, LV_LAYOUT_FLEX, 0);
 3166              		.loc 2 101 5 is_stmt 1 view .LVU985
 3167 0004 0022     		movs	r2, #0
 3168 0006 FFF7FEFF 		bl	lv_obj_set_style_flex_flow
 3169              	.LVL316:
 102:Middlewares/lvgl/src/extra/layouts/flex/lv_flex.c **** }
 3170              		.loc 2 102 5 view .LVU986
 3171 000a 0022     		movs	r2, #0
 3172 000c 024B     		ldr	r3, .L199
 3173 000e 1988     		ldrh	r1, [r3]
 3174 0010 2046     		mov	r0, r4
 3175 0012 FFF7FEFF 		bl	lv_obj_set_style_layout
 3176              	.LVL317:
ARM GAS  /tmp/ccyjKoUS.s 			page 92


 103:Middlewares/lvgl/src/extra/layouts/flex/lv_flex.c **** 
 3177              		.loc 2 103 1 is_stmt 0 view .LVU987
 3178 0016 10BD     		pop	{r4, pc}
 3179              	.LVL318:
 3180              	.L200:
 103:Middlewares/lvgl/src/extra/layouts/flex/lv_flex.c **** 
 3181              		.loc 2 103 1 view .LVU988
 3182              		.align	2
 3183              	.L199:
 3184 0018 00000000 		.word	.LANCHOR5
 3185              		.cfi_endproc
 3186              	.LFE164:
 3188              		.section	.text.lv_obj_set_style_flex_main_place,"ax",%progbits
 3189              		.align	1
 3190              		.global	lv_obj_set_style_flex_main_place
 3191              		.syntax unified
 3192              		.thumb
 3193              		.thumb_func
 3194              		.fpu softvfp
 3196              	lv_obj_set_style_flex_main_place:
 3197              	.LVL319:
 3198              	.LFB173:
 170:Middlewares/lvgl/src/extra/layouts/flex/lv_flex.c ****     lv_style_value_t v = {
 3199              		.loc 2 170 1 is_stmt 1 view -0
 3200              		.cfi_startproc
 3201              		@ args = 0, pretend = 0, frame = 0
 3202              		@ frame_needed = 0, uses_anonymous_args = 0
 170:Middlewares/lvgl/src/extra/layouts/flex/lv_flex.c ****     lv_style_value_t v = {
 3203              		.loc 2 170 1 is_stmt 0 view .LVU990
 3204 0000 08B5     		push	{r3, lr}
 3205              	.LCFI22:
 3206              		.cfi_def_cfa_offset 8
 3207              		.cfi_offset 3, -8
 3208              		.cfi_offset 14, -4
 3209 0002 1346     		mov	r3, r2
 171:Middlewares/lvgl/src/extra/layouts/flex/lv_flex.c ****         .num = (int32_t) value
 3210              		.loc 2 171 5 is_stmt 1 view .LVU991
 174:Middlewares/lvgl/src/extra/layouts/flex/lv_flex.c **** }
 3211              		.loc 2 174 5 view .LVU992
 3212 0004 0A46     		mov	r2, r1
 3213              	.LVL320:
 174:Middlewares/lvgl/src/extra/layouts/flex/lv_flex.c **** }
 3214              		.loc 2 174 5 is_stmt 0 view .LVU993
 3215 0006 0249     		ldr	r1, .L203
 3216              	.LVL321:
 174:Middlewares/lvgl/src/extra/layouts/flex/lv_flex.c **** }
 3217              		.loc 2 174 5 view .LVU994
 3218 0008 0988     		ldrh	r1, [r1]
 3219 000a FFF7FEFF 		bl	lv_obj_set_local_style_prop
 3220              	.LVL322:
 175:Middlewares/lvgl/src/extra/layouts/flex/lv_flex.c **** 
 3221              		.loc 2 175 1 view .LVU995
 3222 000e 08BD     		pop	{r3, pc}
 3223              	.L204:
 3224              		.align	2
 3225              	.L203:
 3226 0010 00000000 		.word	.LANCHOR2
ARM GAS  /tmp/ccyjKoUS.s 			page 93


 3227              		.cfi_endproc
 3228              	.LFE173:
 3230              		.section	.text.lv_obj_set_style_flex_cross_place,"ax",%progbits
 3231              		.align	1
 3232              		.global	lv_obj_set_style_flex_cross_place
 3233              		.syntax unified
 3234              		.thumb
 3235              		.thumb_func
 3236              		.fpu softvfp
 3238              	lv_obj_set_style_flex_cross_place:
 3239              	.LVL323:
 3240              	.LFB174:
 178:Middlewares/lvgl/src/extra/layouts/flex/lv_flex.c ****     lv_style_value_t v = {
 3241              		.loc 2 178 1 is_stmt 1 view -0
 3242              		.cfi_startproc
 3243              		@ args = 0, pretend = 0, frame = 0
 3244              		@ frame_needed = 0, uses_anonymous_args = 0
 178:Middlewares/lvgl/src/extra/layouts/flex/lv_flex.c ****     lv_style_value_t v = {
 3245              		.loc 2 178 1 is_stmt 0 view .LVU997
 3246 0000 08B5     		push	{r3, lr}
 3247              	.LCFI23:
 3248              		.cfi_def_cfa_offset 8
 3249              		.cfi_offset 3, -8
 3250              		.cfi_offset 14, -4
 3251 0002 1346     		mov	r3, r2
 179:Middlewares/lvgl/src/extra/layouts/flex/lv_flex.c ****         .num = (int32_t) value
 3252              		.loc 2 179 5 is_stmt 1 view .LVU998
 182:Middlewares/lvgl/src/extra/layouts/flex/lv_flex.c **** }
 3253              		.loc 2 182 5 view .LVU999
 3254 0004 0A46     		mov	r2, r1
 3255              	.LVL324:
 182:Middlewares/lvgl/src/extra/layouts/flex/lv_flex.c **** }
 3256              		.loc 2 182 5 is_stmt 0 view .LVU1000
 3257 0006 0249     		ldr	r1, .L207
 3258              	.LVL325:
 182:Middlewares/lvgl/src/extra/layouts/flex/lv_flex.c **** }
 3259              		.loc 2 182 5 view .LVU1001
 3260 0008 0988     		ldrh	r1, [r1]
 3261 000a FFF7FEFF 		bl	lv_obj_set_local_style_prop
 3262              	.LVL326:
 183:Middlewares/lvgl/src/extra/layouts/flex/lv_flex.c **** 
 3263              		.loc 2 183 1 view .LVU1002
 3264 000e 08BD     		pop	{r3, pc}
 3265              	.L208:
 3266              		.align	2
 3267              	.L207:
 3268 0010 00000000 		.word	.LANCHOR3
 3269              		.cfi_endproc
 3270              	.LFE174:
 3272              		.section	.text.lv_obj_set_style_flex_track_place,"ax",%progbits
 3273              		.align	1
 3274              		.global	lv_obj_set_style_flex_track_place
 3275              		.syntax unified
 3276              		.thumb
 3277              		.thumb_func
 3278              		.fpu softvfp
 3280              	lv_obj_set_style_flex_track_place:
ARM GAS  /tmp/ccyjKoUS.s 			page 94


 3281              	.LVL327:
 3282              	.LFB175:
 186:Middlewares/lvgl/src/extra/layouts/flex/lv_flex.c ****     lv_style_value_t v = {
 3283              		.loc 2 186 1 is_stmt 1 view -0
 3284              		.cfi_startproc
 3285              		@ args = 0, pretend = 0, frame = 0
 3286              		@ frame_needed = 0, uses_anonymous_args = 0
 186:Middlewares/lvgl/src/extra/layouts/flex/lv_flex.c ****     lv_style_value_t v = {
 3287              		.loc 2 186 1 is_stmt 0 view .LVU1004
 3288 0000 08B5     		push	{r3, lr}
 3289              	.LCFI24:
 3290              		.cfi_def_cfa_offset 8
 3291              		.cfi_offset 3, -8
 3292              		.cfi_offset 14, -4
 3293 0002 1346     		mov	r3, r2
 187:Middlewares/lvgl/src/extra/layouts/flex/lv_flex.c ****         .num = (int32_t) value
 3294              		.loc 2 187 5 is_stmt 1 view .LVU1005
 190:Middlewares/lvgl/src/extra/layouts/flex/lv_flex.c **** }
 3295              		.loc 2 190 5 view .LVU1006
 3296 0004 0A46     		mov	r2, r1
 3297              	.LVL328:
 190:Middlewares/lvgl/src/extra/layouts/flex/lv_flex.c **** }
 3298              		.loc 2 190 5 is_stmt 0 view .LVU1007
 3299 0006 0249     		ldr	r1, .L211
 3300              	.LVL329:
 190:Middlewares/lvgl/src/extra/layouts/flex/lv_flex.c **** }
 3301              		.loc 2 190 5 view .LVU1008
 3302 0008 0988     		ldrh	r1, [r1]
 3303 000a FFF7FEFF 		bl	lv_obj_set_local_style_prop
 3304              	.LVL330:
 191:Middlewares/lvgl/src/extra/layouts/flex/lv_flex.c **** 
 3305              		.loc 2 191 1 view .LVU1009
 3306 000e 08BD     		pop	{r3, pc}
 3307              	.L212:
 3308              		.align	2
 3309              	.L211:
 3310 0010 00000000 		.word	.LANCHOR4
 3311              		.cfi_endproc
 3312              	.LFE175:
 3314              		.section	.text.lv_obj_set_flex_align,"ax",%progbits
 3315              		.align	1
 3316              		.global	lv_obj_set_flex_align
 3317              		.syntax unified
 3318              		.thumb
 3319              		.thumb_func
 3320              		.fpu softvfp
 3322              	lv_obj_set_flex_align:
 3323              	.LVL331:
 3324              	.LFB165:
 106:Middlewares/lvgl/src/extra/layouts/flex/lv_flex.c ****     lv_obj_set_style_flex_main_place(obj, main_place, 0);
 3325              		.loc 2 106 1 is_stmt 1 view -0
 3326              		.cfi_startproc
 3327              		@ args = 0, pretend = 0, frame = 0
 3328              		@ frame_needed = 0, uses_anonymous_args = 0
 106:Middlewares/lvgl/src/extra/layouts/flex/lv_flex.c ****     lv_obj_set_style_flex_main_place(obj, main_place, 0);
 3329              		.loc 2 106 1 is_stmt 0 view .LVU1011
 3330 0000 70B5     		push	{r4, r5, r6, lr}
ARM GAS  /tmp/ccyjKoUS.s 			page 95


 3331              	.LCFI25:
 3332              		.cfi_def_cfa_offset 16
 3333              		.cfi_offset 4, -16
 3334              		.cfi_offset 5, -12
 3335              		.cfi_offset 6, -8
 3336              		.cfi_offset 14, -4
 3337 0002 0446     		mov	r4, r0
 3338 0004 1646     		mov	r6, r2
 3339 0006 1D46     		mov	r5, r3
 107:Middlewares/lvgl/src/extra/layouts/flex/lv_flex.c ****     lv_obj_set_style_flex_cross_place(obj, cross_place, 0);
 3340              		.loc 2 107 5 is_stmt 1 view .LVU1012
 3341 0008 0022     		movs	r2, #0
 3342              	.LVL332:
 107:Middlewares/lvgl/src/extra/layouts/flex/lv_flex.c ****     lv_obj_set_style_flex_cross_place(obj, cross_place, 0);
 3343              		.loc 2 107 5 is_stmt 0 view .LVU1013
 3344 000a FFF7FEFF 		bl	lv_obj_set_style_flex_main_place
 3345              	.LVL333:
 108:Middlewares/lvgl/src/extra/layouts/flex/lv_flex.c ****     lv_obj_set_style_flex_track_place(obj, track_place, 0);
 3346              		.loc 2 108 5 is_stmt 1 view .LVU1014
 3347 000e 0022     		movs	r2, #0
 3348 0010 3146     		mov	r1, r6
 3349 0012 2046     		mov	r0, r4
 3350 0014 FFF7FEFF 		bl	lv_obj_set_style_flex_cross_place
 3351              	.LVL334:
 109:Middlewares/lvgl/src/extra/layouts/flex/lv_flex.c ****     lv_obj_set_style_layout(obj, LV_LAYOUT_FLEX, 0);
 3352              		.loc 2 109 5 view .LVU1015
 3353 0018 0022     		movs	r2, #0
 3354 001a 2946     		mov	r1, r5
 3355 001c 2046     		mov	r0, r4
 3356 001e FFF7FEFF 		bl	lv_obj_set_style_flex_track_place
 3357              	.LVL335:
 110:Middlewares/lvgl/src/extra/layouts/flex/lv_flex.c **** }
 3358              		.loc 2 110 5 view .LVU1016
 3359 0022 0022     		movs	r2, #0
 3360 0024 024B     		ldr	r3, .L215
 3361 0026 1988     		ldrh	r1, [r3]
 3362 0028 2046     		mov	r0, r4
 3363 002a FFF7FEFF 		bl	lv_obj_set_style_layout
 3364              	.LVL336:
 111:Middlewares/lvgl/src/extra/layouts/flex/lv_flex.c **** 
 3365              		.loc 2 111 1 is_stmt 0 view .LVU1017
 3366 002e 70BD     		pop	{r4, r5, r6, pc}
 3367              	.LVL337:
 3368              	.L216:
 111:Middlewares/lvgl/src/extra/layouts/flex/lv_flex.c **** 
 3369              		.loc 2 111 1 view .LVU1018
 3370              		.align	2
 3371              	.L215:
 3372 0030 00000000 		.word	.LANCHOR5
 3373              		.cfi_endproc
 3374              	.LFE165:
 3376              		.section	.text.lv_obj_set_style_flex_grow,"ax",%progbits
 3377              		.align	1
 3378              		.global	lv_obj_set_style_flex_grow
 3379              		.syntax unified
 3380              		.thumb
 3381              		.thumb_func
ARM GAS  /tmp/ccyjKoUS.s 			page 96


 3382              		.fpu softvfp
 3384              	lv_obj_set_style_flex_grow:
 3385              	.LVL338:
 3386              	.LFB176:
 194:Middlewares/lvgl/src/extra/layouts/flex/lv_flex.c ****     lv_style_value_t v = {
 3387              		.loc 2 194 1 is_stmt 1 view -0
 3388              		.cfi_startproc
 3389              		@ args = 0, pretend = 0, frame = 0
 3390              		@ frame_needed = 0, uses_anonymous_args = 0
 194:Middlewares/lvgl/src/extra/layouts/flex/lv_flex.c ****     lv_style_value_t v = {
 3391              		.loc 2 194 1 is_stmt 0 view .LVU1020
 3392 0000 08B5     		push	{r3, lr}
 3393              	.LCFI26:
 3394              		.cfi_def_cfa_offset 8
 3395              		.cfi_offset 3, -8
 3396              		.cfi_offset 14, -4
 3397 0002 1346     		mov	r3, r2
 195:Middlewares/lvgl/src/extra/layouts/flex/lv_flex.c ****         .num = (int32_t) value
 3398              		.loc 2 195 5 is_stmt 1 view .LVU1021
 198:Middlewares/lvgl/src/extra/layouts/flex/lv_flex.c **** }
 3399              		.loc 2 198 5 view .LVU1022
 3400 0004 0A46     		mov	r2, r1
 3401              	.LVL339:
 198:Middlewares/lvgl/src/extra/layouts/flex/lv_flex.c **** }
 3402              		.loc 2 198 5 is_stmt 0 view .LVU1023
 3403 0006 0249     		ldr	r1, .L219
 3404              	.LVL340:
 198:Middlewares/lvgl/src/extra/layouts/flex/lv_flex.c **** }
 3405              		.loc 2 198 5 view .LVU1024
 3406 0008 0988     		ldrh	r1, [r1]
 3407 000a FFF7FEFF 		bl	lv_obj_set_local_style_prop
 3408              	.LVL341:
 199:Middlewares/lvgl/src/extra/layouts/flex/lv_flex.c **** 
 3409              		.loc 2 199 1 view .LVU1025
 3410 000e 08BD     		pop	{r3, pc}
 3411              	.L220:
 3412              		.align	2
 3413              	.L219:
 3414 0010 00000000 		.word	.LANCHOR0
 3415              		.cfi_endproc
 3416              	.LFE176:
 3418              		.section	.text.lv_obj_set_flex_grow,"ax",%progbits
 3419              		.align	1
 3420              		.global	lv_obj_set_flex_grow
 3421              		.syntax unified
 3422              		.thumb
 3423              		.thumb_func
 3424              		.fpu softvfp
 3426              	lv_obj_set_flex_grow:
 3427              	.LVL342:
 3428              	.LFB166:
 114:Middlewares/lvgl/src/extra/layouts/flex/lv_flex.c ****     lv_obj_set_style_flex_grow(obj, grow, 0);
 3429              		.loc 2 114 1 is_stmt 1 view -0
 3430              		.cfi_startproc
 3431              		@ args = 0, pretend = 0, frame = 0
 3432              		@ frame_needed = 0, uses_anonymous_args = 0
 114:Middlewares/lvgl/src/extra/layouts/flex/lv_flex.c ****     lv_obj_set_style_flex_grow(obj, grow, 0);
ARM GAS  /tmp/ccyjKoUS.s 			page 97


 3433              		.loc 2 114 1 is_stmt 0 view .LVU1027
 3434 0000 10B5     		push	{r4, lr}
 3435              	.LCFI27:
 3436              		.cfi_def_cfa_offset 8
 3437              		.cfi_offset 4, -8
 3438              		.cfi_offset 14, -4
 3439 0002 0446     		mov	r4, r0
 115:Middlewares/lvgl/src/extra/layouts/flex/lv_flex.c ****     lv_obj_mark_layout_as_dirty(lv_obj_get_parent(obj));
 3440              		.loc 2 115 5 is_stmt 1 view .LVU1028
 3441 0004 0022     		movs	r2, #0
 3442 0006 FFF7FEFF 		bl	lv_obj_set_style_flex_grow
 3443              	.LVL343:
 116:Middlewares/lvgl/src/extra/layouts/flex/lv_flex.c **** }
 3444              		.loc 2 116 5 view .LVU1029
 3445 000a 2046     		mov	r0, r4
 3446 000c FFF7FEFF 		bl	lv_obj_get_parent
 3447              	.LVL344:
 3448 0010 FFF7FEFF 		bl	lv_obj_mark_layout_as_dirty
 3449              	.LVL345:
 117:Middlewares/lvgl/src/extra/layouts/flex/lv_flex.c **** 
 3450              		.loc 2 117 1 is_stmt 0 view .LVU1030
 3451 0014 10BD     		pop	{r4, pc}
 117:Middlewares/lvgl/src/extra/layouts/flex/lv_flex.c **** 
 3452              		.loc 2 117 1 view .LVU1031
 3453              		.cfi_endproc
 3454              	.LFE166:
 3456              		.global	LV_STYLE_FLEX_GROW
 3457              		.global	LV_STYLE_FLEX_TRACK_PLACE
 3458              		.global	LV_STYLE_FLEX_CROSS_PLACE
 3459              		.global	LV_STYLE_FLEX_MAIN_PLACE
 3460              		.global	LV_STYLE_FLEX_FLOW
 3461              		.global	LV_LAYOUT_FLEX
 3462              		.section	.bss.LV_LAYOUT_FLEX,"aw",%nobits
 3463              		.align	2
 3464              		.set	.LANCHOR5,. + 0
 3467              	LV_LAYOUT_FLEX:
 3468 0000 00000000 		.space	4
 3469              		.section	.bss.LV_STYLE_FLEX_CROSS_PLACE,"aw",%nobits
 3470              		.align	1
 3471              		.set	.LANCHOR3,. + 0
 3474              	LV_STYLE_FLEX_CROSS_PLACE:
 3475 0000 0000     		.space	2
 3476              		.section	.bss.LV_STYLE_FLEX_FLOW,"aw",%nobits
 3477              		.align	1
 3478              		.set	.LANCHOR1,. + 0
 3481              	LV_STYLE_FLEX_FLOW:
 3482 0000 0000     		.space	2
 3483              		.section	.bss.LV_STYLE_FLEX_GROW,"aw",%nobits
 3484              		.align	1
 3485              		.set	.LANCHOR0,. + 0
 3488              	LV_STYLE_FLEX_GROW:
 3489 0000 0000     		.space	2
 3490              		.section	.bss.LV_STYLE_FLEX_MAIN_PLACE,"aw",%nobits
 3491              		.align	1
 3492              		.set	.LANCHOR2,. + 0
 3495              	LV_STYLE_FLEX_MAIN_PLACE:
 3496 0000 0000     		.space	2
ARM GAS  /tmp/ccyjKoUS.s 			page 98


 3497              		.section	.bss.LV_STYLE_FLEX_TRACK_PLACE,"aw",%nobits
 3498              		.align	1
 3499              		.set	.LANCHOR4,. + 0
 3502              	LV_STYLE_FLEX_TRACK_PLACE:
 3503 0000 0000     		.space	2
 3504              		.text
 3505              	.Letext0:
 3506              		.file 5 "/home/akinya/gcc-arm-none-eabi/arm-none-eabi/include/machine/_default_types.h"
 3507              		.file 6 "/home/akinya/gcc-arm-none-eabi/arm-none-eabi/include/sys/_stdint.h"
 3508              		.file 7 "Middlewares/lvgl/src/extra/layouts/flex/../flex/../../../core/../misc/lv_color.h"
 3509              		.file 8 "Middlewares/lvgl/src/extra/layouts/flex/../flex/../../../core/../misc/lv_bidi.h"
 3510              		.file 9 "Middlewares/lvgl/src/extra/layouts/flex/../flex/../../../core/../misc/lv_style.h"
 3511              		.file 10 "Middlewares/lvgl/src/extra/layouts/flex/../flex/../../../core/../hal/../misc/lv_ll.h"
 3512              		.file 11 "Middlewares/lvgl/src/extra/layouts/flex/../flex/../../../core/lv_obj.h"
 3513              		.file 12 "Middlewares/lvgl/src/extra/layouts/flex/../flex/../../../core/lv_group.h"
 3514              		.file 13 "Middlewares/lvgl/src/extra/layouts/flex/../flex/../../../core/lv_obj_scroll.h"
 3515              		.file 14 "Middlewares/lvgl/src/extra/layouts/flex/../flex/../../../core/lv_obj_style.h"
 3516              		.file 15 "Middlewares/lvgl/src/extra/layouts/flex/../flex/../../../core/lv_obj_class.h"
 3517              		.file 16 "Middlewares/lvgl/src/extra/layouts/flex/../flex/../../../core/lv_event.h"
 3518              		.file 17 "Middlewares/lvgl/src/extra/layouts/flex/../flex/../../../core/lv_obj_pos.h"
 3519              		.file 18 "Middlewares/lvgl/src/extra/layouts/flex/../flex/../../../core/lv_obj_tree.h"
 3520              		.file 19 "Middlewares/lvgl/src/extra/layouts/flex/../flex/../../../core/../hal/../misc/lv_mem.h"
ARM GAS  /tmp/ccyjKoUS.s 			page 99


DEFINED SYMBOLS
                            *ABS*:0000000000000000 lv_flex.c
     /tmp/ccyjKoUS.s:16     .text.lv_area_get_width:0000000000000000 $t
     /tmp/ccyjKoUS.s:23     .text.lv_area_get_width:0000000000000000 lv_area_get_width
     /tmp/ccyjKoUS.s:53     .text.lv_area_get_height:0000000000000000 $t
     /tmp/ccyjKoUS.s:59     .text.lv_area_get_height:0000000000000000 lv_area_get_height
     /tmp/ccyjKoUS.s:88     .text.place_content:0000000000000000 $t
     /tmp/ccyjKoUS.s:94     .text.place_content:0000000000000000 place_content
     /tmp/ccyjKoUS.s:122    .text.place_content:0000000000000012 $d
     /tmp/ccyjKoUS.s:283    .text.get_next_item:0000000000000000 $t
     /tmp/ccyjKoUS.s:289    .text.get_next_item:0000000000000000 get_next_item
     /tmp/ccyjKoUS.s:365    .text.find_track_end:0000000000000000 $t
     /tmp/ccyjKoUS.s:371    .text.find_track_end:0000000000000000 find_track_end
     /tmp/ccyjKoUS.s:984    .text.find_track_end:0000000000000268 $d
     /tmp/ccyjKoUS.s:992    .text.children_repos:0000000000000000 $t
     /tmp/ccyjKoUS.s:998    .text.children_repos:0000000000000000 children_repos
     /tmp/ccyjKoUS.s:1528   .text.children_repos:0000000000000234 $d
     /tmp/ccyjKoUS.s:1535   .text.children_repos:0000000000000244 $t
     /tmp/ccyjKoUS.s:1954   .text.children_repos:0000000000000470 $d
     /tmp/ccyjKoUS.s:1961   .text.flex_update:0000000000000000 $t
     /tmp/ccyjKoUS.s:1967   .text.flex_update:0000000000000000 flex_update
     /tmp/ccyjKoUS.s:2684   .text.flex_update:00000000000002f0 $d
     /tmp/ccyjKoUS.s:2692   .text.flex_update:0000000000000300 $t
     /tmp/ccyjKoUS.s:2835   .text.lv_flex_init:0000000000000000 $t
     /tmp/ccyjKoUS.s:2842   .text.lv_flex_init:0000000000000000 lv_flex_init
     /tmp/ccyjKoUS.s:2898   .text.lv_flex_init:000000000000003c $d
     /tmp/ccyjKoUS.s:2908   .text.lv_style_set_flex_flow:0000000000000000 $t
     /tmp/ccyjKoUS.s:2915   .text.lv_style_set_flex_flow:0000000000000000 lv_style_set_flex_flow
     /tmp/ccyjKoUS.s:2942   .text.lv_style_set_flex_flow:0000000000000010 $d
     /tmp/ccyjKoUS.s:2947   .text.lv_style_set_flex_main_place:0000000000000000 $t
     /tmp/ccyjKoUS.s:2954   .text.lv_style_set_flex_main_place:0000000000000000 lv_style_set_flex_main_place
     /tmp/ccyjKoUS.s:2981   .text.lv_style_set_flex_main_place:0000000000000010 $d
     /tmp/ccyjKoUS.s:2986   .text.lv_style_set_flex_cross_place:0000000000000000 $t
     /tmp/ccyjKoUS.s:2993   .text.lv_style_set_flex_cross_place:0000000000000000 lv_style_set_flex_cross_place
     /tmp/ccyjKoUS.s:3020   .text.lv_style_set_flex_cross_place:0000000000000010 $d
     /tmp/ccyjKoUS.s:3025   .text.lv_style_set_flex_track_place:0000000000000000 $t
     /tmp/ccyjKoUS.s:3032   .text.lv_style_set_flex_track_place:0000000000000000 lv_style_set_flex_track_place
     /tmp/ccyjKoUS.s:3059   .text.lv_style_set_flex_track_place:0000000000000010 $d
     /tmp/ccyjKoUS.s:3064   .text.lv_style_set_flex_grow:0000000000000000 $t
     /tmp/ccyjKoUS.s:3071   .text.lv_style_set_flex_grow:0000000000000000 lv_style_set_flex_grow
     /tmp/ccyjKoUS.s:3098   .text.lv_style_set_flex_grow:0000000000000010 $d
     /tmp/ccyjKoUS.s:3103   .text.lv_obj_set_style_flex_flow:0000000000000000 $t
     /tmp/ccyjKoUS.s:3110   .text.lv_obj_set_style_flex_flow:0000000000000000 lv_obj_set_style_flex_flow
     /tmp/ccyjKoUS.s:3140   .text.lv_obj_set_style_flex_flow:0000000000000010 $d
     /tmp/ccyjKoUS.s:3145   .text.lv_obj_set_flex_flow:0000000000000000 $t
     /tmp/ccyjKoUS.s:3152   .text.lv_obj_set_flex_flow:0000000000000000 lv_obj_set_flex_flow
     /tmp/ccyjKoUS.s:3184   .text.lv_obj_set_flex_flow:0000000000000018 $d
     /tmp/ccyjKoUS.s:3189   .text.lv_obj_set_style_flex_main_place:0000000000000000 $t
     /tmp/ccyjKoUS.s:3196   .text.lv_obj_set_style_flex_main_place:0000000000000000 lv_obj_set_style_flex_main_place
     /tmp/ccyjKoUS.s:3226   .text.lv_obj_set_style_flex_main_place:0000000000000010 $d
     /tmp/ccyjKoUS.s:3231   .text.lv_obj_set_style_flex_cross_place:0000000000000000 $t
     /tmp/ccyjKoUS.s:3238   .text.lv_obj_set_style_flex_cross_place:0000000000000000 lv_obj_set_style_flex_cross_place
     /tmp/ccyjKoUS.s:3268   .text.lv_obj_set_style_flex_cross_place:0000000000000010 $d
     /tmp/ccyjKoUS.s:3273   .text.lv_obj_set_style_flex_track_place:0000000000000000 $t
     /tmp/ccyjKoUS.s:3280   .text.lv_obj_set_style_flex_track_place:0000000000000000 lv_obj_set_style_flex_track_place
     /tmp/ccyjKoUS.s:3310   .text.lv_obj_set_style_flex_track_place:0000000000000010 $d
     /tmp/ccyjKoUS.s:3315   .text.lv_obj_set_flex_align:0000000000000000 $t
ARM GAS  /tmp/ccyjKoUS.s 			page 100


     /tmp/ccyjKoUS.s:3322   .text.lv_obj_set_flex_align:0000000000000000 lv_obj_set_flex_align
     /tmp/ccyjKoUS.s:3372   .text.lv_obj_set_flex_align:0000000000000030 $d
     /tmp/ccyjKoUS.s:3377   .text.lv_obj_set_style_flex_grow:0000000000000000 $t
     /tmp/ccyjKoUS.s:3384   .text.lv_obj_set_style_flex_grow:0000000000000000 lv_obj_set_style_flex_grow
     /tmp/ccyjKoUS.s:3414   .text.lv_obj_set_style_flex_grow:0000000000000010 $d
     /tmp/ccyjKoUS.s:3419   .text.lv_obj_set_flex_grow:0000000000000000 $t
     /tmp/ccyjKoUS.s:3426   .text.lv_obj_set_flex_grow:0000000000000000 lv_obj_set_flex_grow
     /tmp/ccyjKoUS.s:3488   .bss.LV_STYLE_FLEX_GROW:0000000000000000 LV_STYLE_FLEX_GROW
     /tmp/ccyjKoUS.s:3502   .bss.LV_STYLE_FLEX_TRACK_PLACE:0000000000000000 LV_STYLE_FLEX_TRACK_PLACE
     /tmp/ccyjKoUS.s:3474   .bss.LV_STYLE_FLEX_CROSS_PLACE:0000000000000000 LV_STYLE_FLEX_CROSS_PLACE
     /tmp/ccyjKoUS.s:3495   .bss.LV_STYLE_FLEX_MAIN_PLACE:0000000000000000 LV_STYLE_FLEX_MAIN_PLACE
     /tmp/ccyjKoUS.s:3481   .bss.LV_STYLE_FLEX_FLOW:0000000000000000 LV_STYLE_FLEX_FLOW
     /tmp/ccyjKoUS.s:3467   .bss.LV_LAYOUT_FLEX:0000000000000000 LV_LAYOUT_FLEX
     /tmp/ccyjKoUS.s:3463   .bss.LV_LAYOUT_FLEX:0000000000000000 $d
     /tmp/ccyjKoUS.s:3470   .bss.LV_STYLE_FLEX_CROSS_PLACE:0000000000000000 $d
     /tmp/ccyjKoUS.s:3477   .bss.LV_STYLE_FLEX_FLOW:0000000000000000 $d
     /tmp/ccyjKoUS.s:3484   .bss.LV_STYLE_FLEX_GROW:0000000000000000 $d
     /tmp/ccyjKoUS.s:3491   .bss.LV_STYLE_FLEX_MAIN_PLACE:0000000000000000 $d
     /tmp/ccyjKoUS.s:3498   .bss.LV_STYLE_FLEX_TRACK_PLACE:0000000000000000 $d
     /tmp/ccyjKoUS.s:128    .text.place_content:0000000000000017 $d
     /tmp/ccyjKoUS.s:128    .text.place_content:0000000000000018 $t

UNDEFINED SYMBOLS
lv_obj_get_style_prop
lv_obj_get_child
lv_mem_buf_get
lv_memcpy
lv_mem_buf_release
lv_obj_has_flag
lv_obj_has_flag_any
lv_obj_get_width
lv_obj_get_height
lv_obj_get_content_width
lv_obj_invalidate
lv_event_send
lv_obj_get_parent
lv_area_set_width
lv_area_set_height
lv_obj_move_children_by
lv_obj_get_scroll_y
lv_obj_get_scroll_x
lv_obj_get_content_height
lv_obj_refr_size
lv_layout_register
lv_style_register_prop
lv_style_set_prop
lv_obj_set_local_style_prop
lv_obj_set_style_layout
lv_obj_mark_layout_as_dirty
