ARM GAS  /tmp/cc1NzchT.s 			page 1


   1              		.cpu cortex-m3
   2              		.eabi_attribute 20, 1
   3              		.eabi_attribute 21, 1
   4              		.eabi_attribute 23, 3
   5              		.eabi_attribute 24, 1
   6              		.eabi_attribute 25, 1
   7              		.eabi_attribute 26, 1
   8              		.eabi_attribute 30, 1
   9              		.eabi_attribute 34, 1
  10              		.eabi_attribute 18, 4
  11              		.file	"lv_grid.c"
  12              		.text
  13              	.Ltext0:
  14              		.cfi_sections	.debug_frame
  15              		.section	.text.grid_align,"ax",%progbits
  16              		.align	1
  17              		.arch armv7-m
  18              		.syntax unified
  19              		.thumb
  20              		.thumb_func
  21              		.fpu softvfp
  23              	grid_align:
  24              	.LVL0:
  25              	.LFB203:
  26              		.file 1 "Middlewares/lvgl/src/extra/layouts/grid/lv_grid.c"
   1:Middlewares/lvgl/src/extra/layouts/grid/lv_grid.c **** /**
   2:Middlewares/lvgl/src/extra/layouts/grid/lv_grid.c ****  * @file lv_grid.c
   3:Middlewares/lvgl/src/extra/layouts/grid/lv_grid.c ****  *
   4:Middlewares/lvgl/src/extra/layouts/grid/lv_grid.c ****  */
   5:Middlewares/lvgl/src/extra/layouts/grid/lv_grid.c **** 
   6:Middlewares/lvgl/src/extra/layouts/grid/lv_grid.c **** /*********************
   7:Middlewares/lvgl/src/extra/layouts/grid/lv_grid.c ****  *      INCLUDES
   8:Middlewares/lvgl/src/extra/layouts/grid/lv_grid.c ****  *********************/
   9:Middlewares/lvgl/src/extra/layouts/grid/lv_grid.c **** #include "../lv_layouts.h"
  10:Middlewares/lvgl/src/extra/layouts/grid/lv_grid.c **** 
  11:Middlewares/lvgl/src/extra/layouts/grid/lv_grid.c **** #if LV_USE_GRID
  12:Middlewares/lvgl/src/extra/layouts/grid/lv_grid.c **** 
  13:Middlewares/lvgl/src/extra/layouts/grid/lv_grid.c **** /*********************
  14:Middlewares/lvgl/src/extra/layouts/grid/lv_grid.c ****  *      DEFINES
  15:Middlewares/lvgl/src/extra/layouts/grid/lv_grid.c ****  *********************/
  16:Middlewares/lvgl/src/extra/layouts/grid/lv_grid.c **** /**
  17:Middlewares/lvgl/src/extra/layouts/grid/lv_grid.c ****  * Some helper defines
  18:Middlewares/lvgl/src/extra/layouts/grid/lv_grid.c ****  */
  19:Middlewares/lvgl/src/extra/layouts/grid/lv_grid.c **** #define IS_FR(x)       (x >= LV_COORD_MAX - 100)
  20:Middlewares/lvgl/src/extra/layouts/grid/lv_grid.c **** #define IS_CONTENT(x)  (x == LV_COORD_MAX - 101)
  21:Middlewares/lvgl/src/extra/layouts/grid/lv_grid.c **** #define GET_FR(x)      (x - (LV_COORD_MAX - 100))
  22:Middlewares/lvgl/src/extra/layouts/grid/lv_grid.c **** 
  23:Middlewares/lvgl/src/extra/layouts/grid/lv_grid.c **** /**********************
  24:Middlewares/lvgl/src/extra/layouts/grid/lv_grid.c ****  *      TYPEDEFS
  25:Middlewares/lvgl/src/extra/layouts/grid/lv_grid.c ****  **********************/
  26:Middlewares/lvgl/src/extra/layouts/grid/lv_grid.c **** typedef struct {
  27:Middlewares/lvgl/src/extra/layouts/grid/lv_grid.c ****     uint32_t col;
  28:Middlewares/lvgl/src/extra/layouts/grid/lv_grid.c ****     uint32_t row;
  29:Middlewares/lvgl/src/extra/layouts/grid/lv_grid.c ****     lv_point_t grid_abs;
  30:Middlewares/lvgl/src/extra/layouts/grid/lv_grid.c **** }item_repos_hint_t;
  31:Middlewares/lvgl/src/extra/layouts/grid/lv_grid.c **** 
  32:Middlewares/lvgl/src/extra/layouts/grid/lv_grid.c **** typedef struct {
ARM GAS  /tmp/cc1NzchT.s 			page 2


  33:Middlewares/lvgl/src/extra/layouts/grid/lv_grid.c ****     lv_coord_t * x;
  34:Middlewares/lvgl/src/extra/layouts/grid/lv_grid.c ****     lv_coord_t * y;
  35:Middlewares/lvgl/src/extra/layouts/grid/lv_grid.c ****     lv_coord_t * w;
  36:Middlewares/lvgl/src/extra/layouts/grid/lv_grid.c ****     lv_coord_t * h;
  37:Middlewares/lvgl/src/extra/layouts/grid/lv_grid.c ****     uint32_t col_num;
  38:Middlewares/lvgl/src/extra/layouts/grid/lv_grid.c ****     uint32_t row_num;
  39:Middlewares/lvgl/src/extra/layouts/grid/lv_grid.c ****     lv_coord_t grid_w;
  40:Middlewares/lvgl/src/extra/layouts/grid/lv_grid.c ****     lv_coord_t grid_h;
  41:Middlewares/lvgl/src/extra/layouts/grid/lv_grid.c **** }_lv_grid_calc_t;
  42:Middlewares/lvgl/src/extra/layouts/grid/lv_grid.c **** 
  43:Middlewares/lvgl/src/extra/layouts/grid/lv_grid.c **** 
  44:Middlewares/lvgl/src/extra/layouts/grid/lv_grid.c **** /**********************
  45:Middlewares/lvgl/src/extra/layouts/grid/lv_grid.c ****  *  GLOBAL PROTOTYPES
  46:Middlewares/lvgl/src/extra/layouts/grid/lv_grid.c ****  **********************/
  47:Middlewares/lvgl/src/extra/layouts/grid/lv_grid.c **** 
  48:Middlewares/lvgl/src/extra/layouts/grid/lv_grid.c **** /**********************
  49:Middlewares/lvgl/src/extra/layouts/grid/lv_grid.c ****  *  STATIC PROTOTYPES
  50:Middlewares/lvgl/src/extra/layouts/grid/lv_grid.c ****  **********************/
  51:Middlewares/lvgl/src/extra/layouts/grid/lv_grid.c **** static void grid_update(lv_obj_t * cont, void * user_data);
  52:Middlewares/lvgl/src/extra/layouts/grid/lv_grid.c **** static void calc(lv_obj_t * obj, _lv_grid_calc_t * calc);
  53:Middlewares/lvgl/src/extra/layouts/grid/lv_grid.c **** static void calc_free(_lv_grid_calc_t * calc);
  54:Middlewares/lvgl/src/extra/layouts/grid/lv_grid.c **** static void calc_cols(lv_obj_t * cont, _lv_grid_calc_t * c);
  55:Middlewares/lvgl/src/extra/layouts/grid/lv_grid.c **** static void calc_rows(lv_obj_t * cont, _lv_grid_calc_t * c);
  56:Middlewares/lvgl/src/extra/layouts/grid/lv_grid.c **** static void item_repos(lv_obj_t * item, _lv_grid_calc_t * c, item_repos_hint_t * hint);
  57:Middlewares/lvgl/src/extra/layouts/grid/lv_grid.c **** static lv_coord_t grid_align(lv_coord_t cont_size,  bool auto_size, uint8_t align, lv_coord_t gap, 
  58:Middlewares/lvgl/src/extra/layouts/grid/lv_grid.c **** static uint32_t count_tracks(const lv_coord_t * templ);
  59:Middlewares/lvgl/src/extra/layouts/grid/lv_grid.c **** 
  60:Middlewares/lvgl/src/extra/layouts/grid/lv_grid.c **** static inline const lv_coord_t * get_col_dsc(lv_obj_t * obj) {return lv_obj_get_style_grid_column_d
  61:Middlewares/lvgl/src/extra/layouts/grid/lv_grid.c **** static inline const lv_coord_t * get_row_dsc(lv_obj_t * obj) {return lv_obj_get_style_grid_row_dsc_
  62:Middlewares/lvgl/src/extra/layouts/grid/lv_grid.c **** static inline uint8_t get_col_pos(lv_obj_t * obj) {return lv_obj_get_style_grid_cell_column_pos(obj
  63:Middlewares/lvgl/src/extra/layouts/grid/lv_grid.c **** static inline uint8_t get_row_pos(lv_obj_t * obj) {return lv_obj_get_style_grid_cell_row_pos(obj, 0
  64:Middlewares/lvgl/src/extra/layouts/grid/lv_grid.c **** static inline uint8_t get_col_span(lv_obj_t * obj) {return lv_obj_get_style_grid_cell_column_span(o
  65:Middlewares/lvgl/src/extra/layouts/grid/lv_grid.c **** static inline uint8_t get_row_span(lv_obj_t * obj) {return lv_obj_get_style_grid_cell_row_span(obj,
  66:Middlewares/lvgl/src/extra/layouts/grid/lv_grid.c **** static inline uint8_t get_cell_col_align(lv_obj_t * obj) {return lv_obj_get_style_grid_cell_x_align
  67:Middlewares/lvgl/src/extra/layouts/grid/lv_grid.c **** static inline uint8_t get_cell_row_align(lv_obj_t * obj) {return lv_obj_get_style_grid_cell_y_align
  68:Middlewares/lvgl/src/extra/layouts/grid/lv_grid.c **** static inline uint8_t get_grid_col_align(lv_obj_t * obj) {return lv_obj_get_style_grid_column_align
  69:Middlewares/lvgl/src/extra/layouts/grid/lv_grid.c **** static inline uint8_t get_grid_row_align(lv_obj_t * obj) {return lv_obj_get_style_grid_row_align(ob
  70:Middlewares/lvgl/src/extra/layouts/grid/lv_grid.c **** 
  71:Middlewares/lvgl/src/extra/layouts/grid/lv_grid.c **** /**********************
  72:Middlewares/lvgl/src/extra/layouts/grid/lv_grid.c ****  *  GLOBAL VARIABLES
  73:Middlewares/lvgl/src/extra/layouts/grid/lv_grid.c ****  **********************/
  74:Middlewares/lvgl/src/extra/layouts/grid/lv_grid.c **** uint32_t LV_LAYOUT_GRID;
  75:Middlewares/lvgl/src/extra/layouts/grid/lv_grid.c **** lv_style_prop_t LV_STYLE_GRID_COLUMN_DSC_ARRAY;
  76:Middlewares/lvgl/src/extra/layouts/grid/lv_grid.c **** lv_style_prop_t LV_STYLE_GRID_COLUMN_ALIGN;
  77:Middlewares/lvgl/src/extra/layouts/grid/lv_grid.c **** lv_style_prop_t LV_STYLE_GRID_ROW_DSC_ARRAY;
  78:Middlewares/lvgl/src/extra/layouts/grid/lv_grid.c **** lv_style_prop_t LV_STYLE_GRID_ROW_ALIGN;
  79:Middlewares/lvgl/src/extra/layouts/grid/lv_grid.c **** lv_style_prop_t LV_STYLE_GRID_CELL_COLUMN_POS;
  80:Middlewares/lvgl/src/extra/layouts/grid/lv_grid.c **** lv_style_prop_t LV_STYLE_GRID_CELL_COLUMN_SPAN;
  81:Middlewares/lvgl/src/extra/layouts/grid/lv_grid.c **** lv_style_prop_t LV_STYLE_GRID_CELL_X_ALIGN;
  82:Middlewares/lvgl/src/extra/layouts/grid/lv_grid.c **** lv_style_prop_t LV_STYLE_GRID_CELL_ROW_POS;
  83:Middlewares/lvgl/src/extra/layouts/grid/lv_grid.c **** lv_style_prop_t LV_STYLE_GRID_CELL_ROW_SPAN;
  84:Middlewares/lvgl/src/extra/layouts/grid/lv_grid.c **** lv_style_prop_t LV_STYLE_GRID_CELL_Y_ALIGN;
  85:Middlewares/lvgl/src/extra/layouts/grid/lv_grid.c **** 
  86:Middlewares/lvgl/src/extra/layouts/grid/lv_grid.c **** /**********************
  87:Middlewares/lvgl/src/extra/layouts/grid/lv_grid.c ****  *  STATIC VARIABLES
  88:Middlewares/lvgl/src/extra/layouts/grid/lv_grid.c ****  **********************/
  89:Middlewares/lvgl/src/extra/layouts/grid/lv_grid.c **** 
ARM GAS  /tmp/cc1NzchT.s 			page 3


  90:Middlewares/lvgl/src/extra/layouts/grid/lv_grid.c **** /**********************
  91:Middlewares/lvgl/src/extra/layouts/grid/lv_grid.c ****  *      MACROS
  92:Middlewares/lvgl/src/extra/layouts/grid/lv_grid.c ****  **********************/
  93:Middlewares/lvgl/src/extra/layouts/grid/lv_grid.c **** 
  94:Middlewares/lvgl/src/extra/layouts/grid/lv_grid.c **** /**********************
  95:Middlewares/lvgl/src/extra/layouts/grid/lv_grid.c ****  *   GLOBAL FUNCTIONS
  96:Middlewares/lvgl/src/extra/layouts/grid/lv_grid.c ****  **********************/
  97:Middlewares/lvgl/src/extra/layouts/grid/lv_grid.c **** 
  98:Middlewares/lvgl/src/extra/layouts/grid/lv_grid.c **** 
  99:Middlewares/lvgl/src/extra/layouts/grid/lv_grid.c **** void lv_grid_init(void)
 100:Middlewares/lvgl/src/extra/layouts/grid/lv_grid.c **** {
 101:Middlewares/lvgl/src/extra/layouts/grid/lv_grid.c ****     LV_LAYOUT_GRID = lv_layout_register(grid_update, NULL);
 102:Middlewares/lvgl/src/extra/layouts/grid/lv_grid.c **** 
 103:Middlewares/lvgl/src/extra/layouts/grid/lv_grid.c ****     LV_STYLE_GRID_COLUMN_DSC_ARRAY = lv_style_register_prop() | LV_STYLE_PROP_LAYOUT_REFR;
 104:Middlewares/lvgl/src/extra/layouts/grid/lv_grid.c ****     LV_STYLE_GRID_ROW_DSC_ARRAY = lv_style_register_prop() | LV_STYLE_PROP_LAYOUT_REFR;
 105:Middlewares/lvgl/src/extra/layouts/grid/lv_grid.c ****     LV_STYLE_GRID_COLUMN_ALIGN = lv_style_register_prop() | LV_STYLE_PROP_LAYOUT_REFR;
 106:Middlewares/lvgl/src/extra/layouts/grid/lv_grid.c ****     LV_STYLE_GRID_ROW_ALIGN = lv_style_register_prop() | LV_STYLE_PROP_LAYOUT_REFR;
 107:Middlewares/lvgl/src/extra/layouts/grid/lv_grid.c **** 
 108:Middlewares/lvgl/src/extra/layouts/grid/lv_grid.c ****     LV_STYLE_GRID_CELL_ROW_SPAN = lv_style_register_prop() | LV_STYLE_PROP_LAYOUT_REFR;
 109:Middlewares/lvgl/src/extra/layouts/grid/lv_grid.c ****     LV_STYLE_GRID_CELL_ROW_POS = lv_style_register_prop() | LV_STYLE_PROP_LAYOUT_REFR;
 110:Middlewares/lvgl/src/extra/layouts/grid/lv_grid.c ****     LV_STYLE_GRID_CELL_COLUMN_SPAN = lv_style_register_prop() | LV_STYLE_PROP_LAYOUT_REFR;
 111:Middlewares/lvgl/src/extra/layouts/grid/lv_grid.c ****     LV_STYLE_GRID_CELL_COLUMN_POS = lv_style_register_prop() | LV_STYLE_PROP_LAYOUT_REFR;
 112:Middlewares/lvgl/src/extra/layouts/grid/lv_grid.c ****     LV_STYLE_GRID_CELL_X_ALIGN = lv_style_register_prop() | LV_STYLE_PROP_LAYOUT_REFR;
 113:Middlewares/lvgl/src/extra/layouts/grid/lv_grid.c ****     LV_STYLE_GRID_CELL_Y_ALIGN = lv_style_register_prop() | LV_STYLE_PROP_LAYOUT_REFR;
 114:Middlewares/lvgl/src/extra/layouts/grid/lv_grid.c **** }
 115:Middlewares/lvgl/src/extra/layouts/grid/lv_grid.c **** 
 116:Middlewares/lvgl/src/extra/layouts/grid/lv_grid.c **** void lv_obj_set_grid_dsc_array(lv_obj_t * obj, const lv_coord_t col_dsc[], const lv_coord_t row_dsc
 117:Middlewares/lvgl/src/extra/layouts/grid/lv_grid.c **** {
 118:Middlewares/lvgl/src/extra/layouts/grid/lv_grid.c ****     lv_obj_set_style_grid_column_dsc_array(obj, col_dsc, 0);
 119:Middlewares/lvgl/src/extra/layouts/grid/lv_grid.c ****     lv_obj_set_style_grid_row_dsc_array(obj, row_dsc, 0);
 120:Middlewares/lvgl/src/extra/layouts/grid/lv_grid.c ****     lv_obj_set_style_layout(obj, LV_LAYOUT_GRID, 0);
 121:Middlewares/lvgl/src/extra/layouts/grid/lv_grid.c **** }
 122:Middlewares/lvgl/src/extra/layouts/grid/lv_grid.c **** 
 123:Middlewares/lvgl/src/extra/layouts/grid/lv_grid.c **** void lv_obj_set_grid_align(lv_obj_t * obj, lv_grid_align_t column_align, lv_grid_align_t row_align)
 124:Middlewares/lvgl/src/extra/layouts/grid/lv_grid.c **** {
 125:Middlewares/lvgl/src/extra/layouts/grid/lv_grid.c ****     lv_obj_set_style_grid_column_align(obj, column_align, 0);
 126:Middlewares/lvgl/src/extra/layouts/grid/lv_grid.c ****     lv_obj_set_style_grid_row_align(obj, row_align, 0);
 127:Middlewares/lvgl/src/extra/layouts/grid/lv_grid.c **** 
 128:Middlewares/lvgl/src/extra/layouts/grid/lv_grid.c **** }
 129:Middlewares/lvgl/src/extra/layouts/grid/lv_grid.c **** 
 130:Middlewares/lvgl/src/extra/layouts/grid/lv_grid.c **** void lv_obj_set_grid_cell(lv_obj_t * obj, lv_grid_align_t x_align, uint8_t col_pos, uint8_t col_spa
 131:Middlewares/lvgl/src/extra/layouts/grid/lv_grid.c ****                                           lv_grid_align_t y_align, uint8_t row_pos, uint8_t row_spa
 132:Middlewares/lvgl/src/extra/layouts/grid/lv_grid.c **** 
 133:Middlewares/lvgl/src/extra/layouts/grid/lv_grid.c **** {
 134:Middlewares/lvgl/src/extra/layouts/grid/lv_grid.c ****     lv_obj_set_style_grid_cell_column_pos(obj, col_pos, 0);
 135:Middlewares/lvgl/src/extra/layouts/grid/lv_grid.c ****     lv_obj_set_style_grid_cell_row_pos(obj, row_pos, 0);
 136:Middlewares/lvgl/src/extra/layouts/grid/lv_grid.c ****     lv_obj_set_style_grid_cell_x_align(obj, x_align, 0);
 137:Middlewares/lvgl/src/extra/layouts/grid/lv_grid.c ****     lv_obj_set_style_grid_cell_column_span(obj, col_span, 0);
 138:Middlewares/lvgl/src/extra/layouts/grid/lv_grid.c ****     lv_obj_set_style_grid_cell_row_span(obj, row_span, 0);
 139:Middlewares/lvgl/src/extra/layouts/grid/lv_grid.c ****     lv_obj_set_style_grid_cell_y_align(obj, y_align, 0);
 140:Middlewares/lvgl/src/extra/layouts/grid/lv_grid.c **** 
 141:Middlewares/lvgl/src/extra/layouts/grid/lv_grid.c ****     lv_obj_mark_layout_as_dirty(lv_obj_get_parent(obj));
 142:Middlewares/lvgl/src/extra/layouts/grid/lv_grid.c **** }
 143:Middlewares/lvgl/src/extra/layouts/grid/lv_grid.c **** 
 144:Middlewares/lvgl/src/extra/layouts/grid/lv_grid.c **** 
 145:Middlewares/lvgl/src/extra/layouts/grid/lv_grid.c **** void lv_style_set_grid_row_dsc_array(lv_style_t * style, const lv_coord_t value[])
 146:Middlewares/lvgl/src/extra/layouts/grid/lv_grid.c **** {
ARM GAS  /tmp/cc1NzchT.s 			page 4


 147:Middlewares/lvgl/src/extra/layouts/grid/lv_grid.c ****     lv_style_value_t v = {
 148:Middlewares/lvgl/src/extra/layouts/grid/lv_grid.c ****         .ptr = (const void *)value
 149:Middlewares/lvgl/src/extra/layouts/grid/lv_grid.c ****     };
 150:Middlewares/lvgl/src/extra/layouts/grid/lv_grid.c ****     lv_style_set_prop(style, LV_STYLE_GRID_ROW_DSC_ARRAY, v);
 151:Middlewares/lvgl/src/extra/layouts/grid/lv_grid.c **** }
 152:Middlewares/lvgl/src/extra/layouts/grid/lv_grid.c **** 
 153:Middlewares/lvgl/src/extra/layouts/grid/lv_grid.c **** void lv_style_set_grid_column_dsc_array(lv_style_t * style, const lv_coord_t value[])
 154:Middlewares/lvgl/src/extra/layouts/grid/lv_grid.c **** {
 155:Middlewares/lvgl/src/extra/layouts/grid/lv_grid.c ****     lv_style_value_t v = {
 156:Middlewares/lvgl/src/extra/layouts/grid/lv_grid.c ****         .ptr = (const void *)value
 157:Middlewares/lvgl/src/extra/layouts/grid/lv_grid.c ****     };
 158:Middlewares/lvgl/src/extra/layouts/grid/lv_grid.c ****     lv_style_set_prop(style, LV_STYLE_GRID_COLUMN_DSC_ARRAY, v);
 159:Middlewares/lvgl/src/extra/layouts/grid/lv_grid.c **** }
 160:Middlewares/lvgl/src/extra/layouts/grid/lv_grid.c **** 
 161:Middlewares/lvgl/src/extra/layouts/grid/lv_grid.c **** void lv_style_set_grid_row_align(lv_style_t * style, lv_grid_align_t value)
 162:Middlewares/lvgl/src/extra/layouts/grid/lv_grid.c **** {
 163:Middlewares/lvgl/src/extra/layouts/grid/lv_grid.c ****     lv_style_value_t v = {
 164:Middlewares/lvgl/src/extra/layouts/grid/lv_grid.c ****         .num = (lv_grid_align_t)value
 165:Middlewares/lvgl/src/extra/layouts/grid/lv_grid.c ****     };
 166:Middlewares/lvgl/src/extra/layouts/grid/lv_grid.c ****     lv_style_set_prop(style, LV_STYLE_GRID_ROW_ALIGN, v);
 167:Middlewares/lvgl/src/extra/layouts/grid/lv_grid.c **** }
 168:Middlewares/lvgl/src/extra/layouts/grid/lv_grid.c **** 
 169:Middlewares/lvgl/src/extra/layouts/grid/lv_grid.c **** void lv_style_set_grid_column_align(lv_style_t * style, lv_grid_align_t value)
 170:Middlewares/lvgl/src/extra/layouts/grid/lv_grid.c **** {
 171:Middlewares/lvgl/src/extra/layouts/grid/lv_grid.c ****     lv_style_value_t v = {
 172:Middlewares/lvgl/src/extra/layouts/grid/lv_grid.c ****         .num = (lv_grid_align_t)value
 173:Middlewares/lvgl/src/extra/layouts/grid/lv_grid.c ****     };
 174:Middlewares/lvgl/src/extra/layouts/grid/lv_grid.c ****     lv_style_set_prop(style, LV_STYLE_GRID_COLUMN_ALIGN, v);
 175:Middlewares/lvgl/src/extra/layouts/grid/lv_grid.c **** }
 176:Middlewares/lvgl/src/extra/layouts/grid/lv_grid.c **** 
 177:Middlewares/lvgl/src/extra/layouts/grid/lv_grid.c **** 
 178:Middlewares/lvgl/src/extra/layouts/grid/lv_grid.c **** void lv_style_set_grid_cell_column_pos(lv_style_t * style, lv_coord_t value)
 179:Middlewares/lvgl/src/extra/layouts/grid/lv_grid.c **** {
 180:Middlewares/lvgl/src/extra/layouts/grid/lv_grid.c ****     lv_style_value_t v = {
 181:Middlewares/lvgl/src/extra/layouts/grid/lv_grid.c ****         .num = value
 182:Middlewares/lvgl/src/extra/layouts/grid/lv_grid.c ****     };
 183:Middlewares/lvgl/src/extra/layouts/grid/lv_grid.c ****     lv_style_set_prop(style, LV_STYLE_GRID_CELL_COLUMN_POS, v);
 184:Middlewares/lvgl/src/extra/layouts/grid/lv_grid.c **** }
 185:Middlewares/lvgl/src/extra/layouts/grid/lv_grid.c **** 
 186:Middlewares/lvgl/src/extra/layouts/grid/lv_grid.c **** void lv_style_set_grid_cell_column_span(lv_style_t * style, lv_coord_t value)
 187:Middlewares/lvgl/src/extra/layouts/grid/lv_grid.c **** {
 188:Middlewares/lvgl/src/extra/layouts/grid/lv_grid.c ****     lv_style_value_t v = {
 189:Middlewares/lvgl/src/extra/layouts/grid/lv_grid.c ****         .num = value
 190:Middlewares/lvgl/src/extra/layouts/grid/lv_grid.c ****     };
 191:Middlewares/lvgl/src/extra/layouts/grid/lv_grid.c ****     lv_style_set_prop(style, LV_STYLE_GRID_CELL_COLUMN_SPAN, v);
 192:Middlewares/lvgl/src/extra/layouts/grid/lv_grid.c **** }
 193:Middlewares/lvgl/src/extra/layouts/grid/lv_grid.c **** 
 194:Middlewares/lvgl/src/extra/layouts/grid/lv_grid.c **** void lv_style_set_grid_cell_row_pos(lv_style_t * style, lv_coord_t value)
 195:Middlewares/lvgl/src/extra/layouts/grid/lv_grid.c **** {
 196:Middlewares/lvgl/src/extra/layouts/grid/lv_grid.c ****     lv_style_value_t v = {
 197:Middlewares/lvgl/src/extra/layouts/grid/lv_grid.c ****         .num = value
 198:Middlewares/lvgl/src/extra/layouts/grid/lv_grid.c ****     };
 199:Middlewares/lvgl/src/extra/layouts/grid/lv_grid.c ****     lv_style_set_prop(style, LV_STYLE_GRID_CELL_ROW_POS, v);
 200:Middlewares/lvgl/src/extra/layouts/grid/lv_grid.c **** }
 201:Middlewares/lvgl/src/extra/layouts/grid/lv_grid.c **** 
 202:Middlewares/lvgl/src/extra/layouts/grid/lv_grid.c **** void lv_style_set_grid_cell_row_span(lv_style_t * style, lv_coord_t value)
 203:Middlewares/lvgl/src/extra/layouts/grid/lv_grid.c **** {
ARM GAS  /tmp/cc1NzchT.s 			page 5


 204:Middlewares/lvgl/src/extra/layouts/grid/lv_grid.c ****     lv_style_value_t v = {
 205:Middlewares/lvgl/src/extra/layouts/grid/lv_grid.c ****         .num = value
 206:Middlewares/lvgl/src/extra/layouts/grid/lv_grid.c ****     };
 207:Middlewares/lvgl/src/extra/layouts/grid/lv_grid.c ****     lv_style_set_prop(style, LV_STYLE_GRID_CELL_ROW_SPAN, v);
 208:Middlewares/lvgl/src/extra/layouts/grid/lv_grid.c **** }
 209:Middlewares/lvgl/src/extra/layouts/grid/lv_grid.c **** 
 210:Middlewares/lvgl/src/extra/layouts/grid/lv_grid.c **** void lv_style_set_grid_cell_x_align(lv_style_t * style, lv_coord_t value)
 211:Middlewares/lvgl/src/extra/layouts/grid/lv_grid.c **** {
 212:Middlewares/lvgl/src/extra/layouts/grid/lv_grid.c ****     lv_style_value_t v = {
 213:Middlewares/lvgl/src/extra/layouts/grid/lv_grid.c ****         .num = value
 214:Middlewares/lvgl/src/extra/layouts/grid/lv_grid.c ****     };
 215:Middlewares/lvgl/src/extra/layouts/grid/lv_grid.c ****     lv_style_set_prop(style, LV_STYLE_GRID_CELL_X_ALIGN, v);
 216:Middlewares/lvgl/src/extra/layouts/grid/lv_grid.c **** }
 217:Middlewares/lvgl/src/extra/layouts/grid/lv_grid.c **** 
 218:Middlewares/lvgl/src/extra/layouts/grid/lv_grid.c **** void lv_style_set_grid_cell_y_align(lv_style_t * style, lv_coord_t value)
 219:Middlewares/lvgl/src/extra/layouts/grid/lv_grid.c **** {
 220:Middlewares/lvgl/src/extra/layouts/grid/lv_grid.c ****     lv_style_value_t v = {
 221:Middlewares/lvgl/src/extra/layouts/grid/lv_grid.c ****         .num = value
 222:Middlewares/lvgl/src/extra/layouts/grid/lv_grid.c ****     };
 223:Middlewares/lvgl/src/extra/layouts/grid/lv_grid.c ****     lv_style_set_prop(style, LV_STYLE_GRID_CELL_Y_ALIGN, v);
 224:Middlewares/lvgl/src/extra/layouts/grid/lv_grid.c **** }
 225:Middlewares/lvgl/src/extra/layouts/grid/lv_grid.c **** 
 226:Middlewares/lvgl/src/extra/layouts/grid/lv_grid.c **** void lv_obj_set_style_grid_row_dsc_array(lv_obj_t * obj, const lv_coord_t value[], lv_style_selecto
 227:Middlewares/lvgl/src/extra/layouts/grid/lv_grid.c **** {
 228:Middlewares/lvgl/src/extra/layouts/grid/lv_grid.c ****     lv_style_value_t v = {
 229:Middlewares/lvgl/src/extra/layouts/grid/lv_grid.c ****         .ptr = (const void *)value
 230:Middlewares/lvgl/src/extra/layouts/grid/lv_grid.c ****     };
 231:Middlewares/lvgl/src/extra/layouts/grid/lv_grid.c ****     lv_obj_set_local_style_prop(obj,LV_STYLE_GRID_ROW_DSC_ARRAY, v, selector);
 232:Middlewares/lvgl/src/extra/layouts/grid/lv_grid.c **** }
 233:Middlewares/lvgl/src/extra/layouts/grid/lv_grid.c **** 
 234:Middlewares/lvgl/src/extra/layouts/grid/lv_grid.c **** void lv_obj_set_style_grid_column_dsc_array(lv_obj_t * obj, const lv_coord_t value[], lv_style_sele
 235:Middlewares/lvgl/src/extra/layouts/grid/lv_grid.c **** {
 236:Middlewares/lvgl/src/extra/layouts/grid/lv_grid.c ****     lv_style_value_t v = {
 237:Middlewares/lvgl/src/extra/layouts/grid/lv_grid.c ****         .ptr = (const void *)value
 238:Middlewares/lvgl/src/extra/layouts/grid/lv_grid.c ****     };
 239:Middlewares/lvgl/src/extra/layouts/grid/lv_grid.c ****     lv_obj_set_local_style_prop(obj, LV_STYLE_GRID_COLUMN_DSC_ARRAY, v, selector);
 240:Middlewares/lvgl/src/extra/layouts/grid/lv_grid.c **** }
 241:Middlewares/lvgl/src/extra/layouts/grid/lv_grid.c **** 
 242:Middlewares/lvgl/src/extra/layouts/grid/lv_grid.c **** 
 243:Middlewares/lvgl/src/extra/layouts/grid/lv_grid.c **** void lv_obj_set_style_grid_row_align(lv_obj_t * obj, lv_grid_align_t value, lv_style_selector_t sel
 244:Middlewares/lvgl/src/extra/layouts/grid/lv_grid.c **** {
 245:Middlewares/lvgl/src/extra/layouts/grid/lv_grid.c ****     lv_style_value_t v = {
 246:Middlewares/lvgl/src/extra/layouts/grid/lv_grid.c ****         .num = (int32_t) value
 247:Middlewares/lvgl/src/extra/layouts/grid/lv_grid.c ****     };
 248:Middlewares/lvgl/src/extra/layouts/grid/lv_grid.c ****     lv_obj_set_local_style_prop(obj, LV_STYLE_GRID_ROW_ALIGN, v, selector);
 249:Middlewares/lvgl/src/extra/layouts/grid/lv_grid.c **** }
 250:Middlewares/lvgl/src/extra/layouts/grid/lv_grid.c **** 
 251:Middlewares/lvgl/src/extra/layouts/grid/lv_grid.c **** void lv_obj_set_style_grid_column_align(lv_obj_t * obj, lv_grid_align_t value, lv_style_selector_t 
 252:Middlewares/lvgl/src/extra/layouts/grid/lv_grid.c **** {
 253:Middlewares/lvgl/src/extra/layouts/grid/lv_grid.c ****     lv_style_value_t v = {
 254:Middlewares/lvgl/src/extra/layouts/grid/lv_grid.c ****         .num = (int32_t) value
 255:Middlewares/lvgl/src/extra/layouts/grid/lv_grid.c ****     };
 256:Middlewares/lvgl/src/extra/layouts/grid/lv_grid.c ****     lv_obj_set_local_style_prop(obj, LV_STYLE_GRID_COLUMN_ALIGN, v, selector);
 257:Middlewares/lvgl/src/extra/layouts/grid/lv_grid.c **** }
 258:Middlewares/lvgl/src/extra/layouts/grid/lv_grid.c **** 
 259:Middlewares/lvgl/src/extra/layouts/grid/lv_grid.c **** 
 260:Middlewares/lvgl/src/extra/layouts/grid/lv_grid.c **** void lv_obj_set_style_grid_cell_column_pos(lv_obj_t * obj, lv_coord_t value, lv_style_selector_t se
ARM GAS  /tmp/cc1NzchT.s 			page 6


 261:Middlewares/lvgl/src/extra/layouts/grid/lv_grid.c **** {
 262:Middlewares/lvgl/src/extra/layouts/grid/lv_grid.c ****     lv_style_value_t v = {
 263:Middlewares/lvgl/src/extra/layouts/grid/lv_grid.c ****         .num = value
 264:Middlewares/lvgl/src/extra/layouts/grid/lv_grid.c ****     };
 265:Middlewares/lvgl/src/extra/layouts/grid/lv_grid.c ****     lv_obj_set_local_style_prop(obj,LV_STYLE_GRID_CELL_COLUMN_POS, v, selector);
 266:Middlewares/lvgl/src/extra/layouts/grid/lv_grid.c **** }
 267:Middlewares/lvgl/src/extra/layouts/grid/lv_grid.c **** 
 268:Middlewares/lvgl/src/extra/layouts/grid/lv_grid.c **** void lv_obj_set_style_grid_cell_column_span(lv_obj_t * obj, lv_coord_t value, lv_style_selector_t s
 269:Middlewares/lvgl/src/extra/layouts/grid/lv_grid.c **** {
 270:Middlewares/lvgl/src/extra/layouts/grid/lv_grid.c ****     lv_style_value_t v = {
 271:Middlewares/lvgl/src/extra/layouts/grid/lv_grid.c ****         .num = value
 272:Middlewares/lvgl/src/extra/layouts/grid/lv_grid.c ****     };
 273:Middlewares/lvgl/src/extra/layouts/grid/lv_grid.c ****     lv_obj_set_local_style_prop(obj,LV_STYLE_GRID_CELL_COLUMN_SPAN, v, selector);
 274:Middlewares/lvgl/src/extra/layouts/grid/lv_grid.c **** }
 275:Middlewares/lvgl/src/extra/layouts/grid/lv_grid.c **** 
 276:Middlewares/lvgl/src/extra/layouts/grid/lv_grid.c **** void lv_obj_set_style_grid_cell_row_pos(lv_obj_t * obj, lv_coord_t value, lv_style_selector_t selec
 277:Middlewares/lvgl/src/extra/layouts/grid/lv_grid.c **** {
 278:Middlewares/lvgl/src/extra/layouts/grid/lv_grid.c ****     lv_style_value_t v = {
 279:Middlewares/lvgl/src/extra/layouts/grid/lv_grid.c ****         .num = value
 280:Middlewares/lvgl/src/extra/layouts/grid/lv_grid.c ****     };
 281:Middlewares/lvgl/src/extra/layouts/grid/lv_grid.c ****     lv_obj_set_local_style_prop(obj,LV_STYLE_GRID_CELL_ROW_POS, v, selector);
 282:Middlewares/lvgl/src/extra/layouts/grid/lv_grid.c **** }
 283:Middlewares/lvgl/src/extra/layouts/grid/lv_grid.c **** 
 284:Middlewares/lvgl/src/extra/layouts/grid/lv_grid.c **** void lv_obj_set_style_grid_cell_row_span(lv_obj_t * obj, lv_coord_t value, lv_style_selector_t sele
 285:Middlewares/lvgl/src/extra/layouts/grid/lv_grid.c **** {
 286:Middlewares/lvgl/src/extra/layouts/grid/lv_grid.c ****     lv_style_value_t v = {
 287:Middlewares/lvgl/src/extra/layouts/grid/lv_grid.c ****         .num = value
 288:Middlewares/lvgl/src/extra/layouts/grid/lv_grid.c ****     };
 289:Middlewares/lvgl/src/extra/layouts/grid/lv_grid.c ****     lv_obj_set_local_style_prop(obj, LV_STYLE_GRID_CELL_ROW_SPAN, v, selector);
 290:Middlewares/lvgl/src/extra/layouts/grid/lv_grid.c **** }
 291:Middlewares/lvgl/src/extra/layouts/grid/lv_grid.c **** 
 292:Middlewares/lvgl/src/extra/layouts/grid/lv_grid.c **** void lv_obj_set_style_grid_cell_x_align(lv_obj_t * obj, lv_coord_t value, lv_style_selector_t selec
 293:Middlewares/lvgl/src/extra/layouts/grid/lv_grid.c **** {
 294:Middlewares/lvgl/src/extra/layouts/grid/lv_grid.c ****     lv_style_value_t v = {
 295:Middlewares/lvgl/src/extra/layouts/grid/lv_grid.c ****         .num = value
 296:Middlewares/lvgl/src/extra/layouts/grid/lv_grid.c ****     };
 297:Middlewares/lvgl/src/extra/layouts/grid/lv_grid.c ****     lv_obj_set_local_style_prop(obj, LV_STYLE_GRID_CELL_X_ALIGN, v, selector);
 298:Middlewares/lvgl/src/extra/layouts/grid/lv_grid.c **** }
 299:Middlewares/lvgl/src/extra/layouts/grid/lv_grid.c **** 
 300:Middlewares/lvgl/src/extra/layouts/grid/lv_grid.c **** void lv_obj_set_style_grid_cell_y_align(lv_obj_t * obj, lv_coord_t value, lv_style_selector_t selec
 301:Middlewares/lvgl/src/extra/layouts/grid/lv_grid.c **** {
 302:Middlewares/lvgl/src/extra/layouts/grid/lv_grid.c ****     lv_style_value_t v = {
 303:Middlewares/lvgl/src/extra/layouts/grid/lv_grid.c ****         .num = value
 304:Middlewares/lvgl/src/extra/layouts/grid/lv_grid.c ****     };
 305:Middlewares/lvgl/src/extra/layouts/grid/lv_grid.c ****     lv_obj_set_local_style_prop(obj, LV_STYLE_GRID_CELL_Y_ALIGN, v, selector);
 306:Middlewares/lvgl/src/extra/layouts/grid/lv_grid.c **** }
 307:Middlewares/lvgl/src/extra/layouts/grid/lv_grid.c **** 
 308:Middlewares/lvgl/src/extra/layouts/grid/lv_grid.c **** 
 309:Middlewares/lvgl/src/extra/layouts/grid/lv_grid.c **** /**********************
 310:Middlewares/lvgl/src/extra/layouts/grid/lv_grid.c ****  *   STATIC FUNCTIONS
 311:Middlewares/lvgl/src/extra/layouts/grid/lv_grid.c ****  **********************/
 312:Middlewares/lvgl/src/extra/layouts/grid/lv_grid.c **** 
 313:Middlewares/lvgl/src/extra/layouts/grid/lv_grid.c **** static void grid_update(lv_obj_t * cont, void * user_data)
 314:Middlewares/lvgl/src/extra/layouts/grid/lv_grid.c **** {
 315:Middlewares/lvgl/src/extra/layouts/grid/lv_grid.c ****     LV_LOG_INFO("update %p container", cont);
 316:Middlewares/lvgl/src/extra/layouts/grid/lv_grid.c ****     LV_UNUSED(user_data);
 317:Middlewares/lvgl/src/extra/layouts/grid/lv_grid.c **** 
ARM GAS  /tmp/cc1NzchT.s 			page 7


 318:Middlewares/lvgl/src/extra/layouts/grid/lv_grid.c ****     const lv_coord_t * col_templ = get_col_dsc(cont);
 319:Middlewares/lvgl/src/extra/layouts/grid/lv_grid.c ****     const lv_coord_t * row_templ = get_row_dsc(cont);
 320:Middlewares/lvgl/src/extra/layouts/grid/lv_grid.c ****     if(col_templ == NULL || row_templ == NULL) return;
 321:Middlewares/lvgl/src/extra/layouts/grid/lv_grid.c **** 
 322:Middlewares/lvgl/src/extra/layouts/grid/lv_grid.c ****     _lv_grid_calc_t c;
 323:Middlewares/lvgl/src/extra/layouts/grid/lv_grid.c ****     calc(cont, &c);
 324:Middlewares/lvgl/src/extra/layouts/grid/lv_grid.c **** 
 325:Middlewares/lvgl/src/extra/layouts/grid/lv_grid.c ****     item_repos_hint_t hint;
 326:Middlewares/lvgl/src/extra/layouts/grid/lv_grid.c ****     lv_memset_00(&hint, sizeof(hint));
 327:Middlewares/lvgl/src/extra/layouts/grid/lv_grid.c **** 
 328:Middlewares/lvgl/src/extra/layouts/grid/lv_grid.c ****     /*Calculate the grids absolute x and y coordinates.
 329:Middlewares/lvgl/src/extra/layouts/grid/lv_grid.c ****      *It will be used as helper during item repositioning to avoid calculating this value for every
 330:Middlewares/lvgl/src/extra/layouts/grid/lv_grid.c ****     lv_coord_t border_widt = lv_obj_get_style_border_width(cont, LV_PART_MAIN);
 331:Middlewares/lvgl/src/extra/layouts/grid/lv_grid.c ****     lv_coord_t pad_left = lv_obj_get_style_pad_left(cont, LV_PART_MAIN) + border_widt;
 332:Middlewares/lvgl/src/extra/layouts/grid/lv_grid.c ****     lv_coord_t pad_top = lv_obj_get_style_pad_top(cont, LV_PART_MAIN) + border_widt;
 333:Middlewares/lvgl/src/extra/layouts/grid/lv_grid.c ****     hint.grid_abs.x = pad_left + cont->coords.x1 - lv_obj_get_scroll_x(cont);
 334:Middlewares/lvgl/src/extra/layouts/grid/lv_grid.c ****     hint.grid_abs.y = pad_top + cont->coords.y1 - lv_obj_get_scroll_y(cont);
 335:Middlewares/lvgl/src/extra/layouts/grid/lv_grid.c **** 
 336:Middlewares/lvgl/src/extra/layouts/grid/lv_grid.c ****     uint32_t i;
 337:Middlewares/lvgl/src/extra/layouts/grid/lv_grid.c ****     for(i = 0; i < cont->spec_attr->child_cnt; i++) {
 338:Middlewares/lvgl/src/extra/layouts/grid/lv_grid.c ****         lv_obj_t * item = cont->spec_attr->children[i];
 339:Middlewares/lvgl/src/extra/layouts/grid/lv_grid.c ****         item_repos(item, &c, &hint);
 340:Middlewares/lvgl/src/extra/layouts/grid/lv_grid.c ****     }
 341:Middlewares/lvgl/src/extra/layouts/grid/lv_grid.c ****     calc_free(&c);
 342:Middlewares/lvgl/src/extra/layouts/grid/lv_grid.c **** 
 343:Middlewares/lvgl/src/extra/layouts/grid/lv_grid.c ****     lv_coord_t w_set = lv_obj_get_style_width(cont, LV_PART_MAIN);
 344:Middlewares/lvgl/src/extra/layouts/grid/lv_grid.c ****     lv_coord_t h_set = lv_obj_get_style_height(cont, LV_PART_MAIN);
 345:Middlewares/lvgl/src/extra/layouts/grid/lv_grid.c ****     if(w_set == LV_SIZE_CONTENT || h_set == LV_SIZE_CONTENT) {
 346:Middlewares/lvgl/src/extra/layouts/grid/lv_grid.c ****         lv_obj_refr_size(cont);
 347:Middlewares/lvgl/src/extra/layouts/grid/lv_grid.c ****     }
 348:Middlewares/lvgl/src/extra/layouts/grid/lv_grid.c **** 
 349:Middlewares/lvgl/src/extra/layouts/grid/lv_grid.c ****     lv_event_send(cont, LV_EVENT_LAYOUT_CHANGED, NULL);
 350:Middlewares/lvgl/src/extra/layouts/grid/lv_grid.c **** 
 351:Middlewares/lvgl/src/extra/layouts/grid/lv_grid.c ****     LV_TRACE_LAYOUT("finished");
 352:Middlewares/lvgl/src/extra/layouts/grid/lv_grid.c **** }
 353:Middlewares/lvgl/src/extra/layouts/grid/lv_grid.c **** 
 354:Middlewares/lvgl/src/extra/layouts/grid/lv_grid.c **** /**
 355:Middlewares/lvgl/src/extra/layouts/grid/lv_grid.c ****  * Calculate the grid cells coordinates
 356:Middlewares/lvgl/src/extra/layouts/grid/lv_grid.c ****  * @param cont an object that has a grid
 357:Middlewares/lvgl/src/extra/layouts/grid/lv_grid.c ****  * @param calc store the calculated cells sizes here
 358:Middlewares/lvgl/src/extra/layouts/grid/lv_grid.c ****  * @note `_lv_grid_calc_free(calc_out)` needs to be called when `calc_out` is not needed anymore
 359:Middlewares/lvgl/src/extra/layouts/grid/lv_grid.c ****  */
 360:Middlewares/lvgl/src/extra/layouts/grid/lv_grid.c **** static void calc(lv_obj_t * cont, _lv_grid_calc_t * calc_out)
 361:Middlewares/lvgl/src/extra/layouts/grid/lv_grid.c **** {
 362:Middlewares/lvgl/src/extra/layouts/grid/lv_grid.c ****     if(lv_obj_get_child(cont, 0) == NULL) {
 363:Middlewares/lvgl/src/extra/layouts/grid/lv_grid.c ****         lv_memset_00(calc_out, sizeof(_lv_grid_calc_t));
 364:Middlewares/lvgl/src/extra/layouts/grid/lv_grid.c ****         return;
 365:Middlewares/lvgl/src/extra/layouts/grid/lv_grid.c ****     }
 366:Middlewares/lvgl/src/extra/layouts/grid/lv_grid.c **** 
 367:Middlewares/lvgl/src/extra/layouts/grid/lv_grid.c ****     calc_rows(cont, calc_out);
 368:Middlewares/lvgl/src/extra/layouts/grid/lv_grid.c ****     calc_cols(cont, calc_out);
 369:Middlewares/lvgl/src/extra/layouts/grid/lv_grid.c **** 
 370:Middlewares/lvgl/src/extra/layouts/grid/lv_grid.c ****     lv_coord_t col_gap = lv_obj_get_style_pad_column(cont, LV_PART_MAIN);
 371:Middlewares/lvgl/src/extra/layouts/grid/lv_grid.c ****     lv_coord_t row_gap = lv_obj_get_style_pad_row(cont, LV_PART_MAIN);
 372:Middlewares/lvgl/src/extra/layouts/grid/lv_grid.c **** 
 373:Middlewares/lvgl/src/extra/layouts/grid/lv_grid.c ****     bool rev = lv_obj_get_style_base_dir(cont, LV_PART_MAIN) == LV_BASE_DIR_RTL ? true : false;
 374:Middlewares/lvgl/src/extra/layouts/grid/lv_grid.c **** 
ARM GAS  /tmp/cc1NzchT.s 			page 8


 375:Middlewares/lvgl/src/extra/layouts/grid/lv_grid.c ****     lv_coord_t w_set = lv_obj_get_style_width(cont, LV_PART_MAIN);
 376:Middlewares/lvgl/src/extra/layouts/grid/lv_grid.c ****     lv_coord_t h_set = lv_obj_get_style_height(cont, LV_PART_MAIN);
 377:Middlewares/lvgl/src/extra/layouts/grid/lv_grid.c ****     bool auto_w = (w_set == LV_SIZE_CONTENT && !cont->w_layout) ? true : false;
 378:Middlewares/lvgl/src/extra/layouts/grid/lv_grid.c ****     lv_coord_t cont_w = lv_obj_get_content_width(cont);
 379:Middlewares/lvgl/src/extra/layouts/grid/lv_grid.c ****     calc_out->grid_w = grid_align(cont_w, auto_w, get_grid_col_align(cont), col_gap, calc_out->col_
 380:Middlewares/lvgl/src/extra/layouts/grid/lv_grid.c **** 
 381:Middlewares/lvgl/src/extra/layouts/grid/lv_grid.c ****     bool auto_h = (h_set == LV_SIZE_CONTENT && !cont->h_layout) ? true : false;
 382:Middlewares/lvgl/src/extra/layouts/grid/lv_grid.c ****     lv_coord_t cont_h = lv_obj_get_content_height(cont);
 383:Middlewares/lvgl/src/extra/layouts/grid/lv_grid.c ****     calc_out->grid_h = grid_align(cont_h, auto_h, get_grid_row_align(cont), row_gap, calc_out->row_
 384:Middlewares/lvgl/src/extra/layouts/grid/lv_grid.c **** 
 385:Middlewares/lvgl/src/extra/layouts/grid/lv_grid.c ****     LV_ASSERT_MEM_INTEGRITY();
 386:Middlewares/lvgl/src/extra/layouts/grid/lv_grid.c **** }
 387:Middlewares/lvgl/src/extra/layouts/grid/lv_grid.c **** 
 388:Middlewares/lvgl/src/extra/layouts/grid/lv_grid.c **** /**
 389:Middlewares/lvgl/src/extra/layouts/grid/lv_grid.c ****  * Free the a grid calculation's data
 390:Middlewares/lvgl/src/extra/layouts/grid/lv_grid.c ****  * @param calc pointer to the calculated gtrid cell coordinates
 391:Middlewares/lvgl/src/extra/layouts/grid/lv_grid.c ****  */
 392:Middlewares/lvgl/src/extra/layouts/grid/lv_grid.c **** static void calc_free(_lv_grid_calc_t * calc)
 393:Middlewares/lvgl/src/extra/layouts/grid/lv_grid.c **** {
 394:Middlewares/lvgl/src/extra/layouts/grid/lv_grid.c ****     lv_mem_buf_release(calc->x);
 395:Middlewares/lvgl/src/extra/layouts/grid/lv_grid.c ****     lv_mem_buf_release(calc->y);
 396:Middlewares/lvgl/src/extra/layouts/grid/lv_grid.c ****     lv_mem_buf_release(calc->w);
 397:Middlewares/lvgl/src/extra/layouts/grid/lv_grid.c ****     lv_mem_buf_release(calc->h);
 398:Middlewares/lvgl/src/extra/layouts/grid/lv_grid.c **** }
 399:Middlewares/lvgl/src/extra/layouts/grid/lv_grid.c **** 
 400:Middlewares/lvgl/src/extra/layouts/grid/lv_grid.c **** static void calc_cols(lv_obj_t * cont, _lv_grid_calc_t * c)
 401:Middlewares/lvgl/src/extra/layouts/grid/lv_grid.c **** {
 402:Middlewares/lvgl/src/extra/layouts/grid/lv_grid.c ****     const lv_coord_t * col_templ = get_col_dsc(cont);
 403:Middlewares/lvgl/src/extra/layouts/grid/lv_grid.c ****     lv_coord_t cont_w = lv_obj_get_content_width(cont);
 404:Middlewares/lvgl/src/extra/layouts/grid/lv_grid.c **** 
 405:Middlewares/lvgl/src/extra/layouts/grid/lv_grid.c ****     c->col_num = count_tracks(col_templ);
 406:Middlewares/lvgl/src/extra/layouts/grid/lv_grid.c ****     c->x = lv_mem_buf_get(sizeof(lv_coord_t) * c->col_num);
 407:Middlewares/lvgl/src/extra/layouts/grid/lv_grid.c ****     c->w = lv_mem_buf_get(sizeof(lv_coord_t) * c->col_num);
 408:Middlewares/lvgl/src/extra/layouts/grid/lv_grid.c **** 
 409:Middlewares/lvgl/src/extra/layouts/grid/lv_grid.c ****     /*Set sizes for CONTENT cells*/
 410:Middlewares/lvgl/src/extra/layouts/grid/lv_grid.c ****     uint32_t i;
 411:Middlewares/lvgl/src/extra/layouts/grid/lv_grid.c ****     for(i = 0; i < c->col_num; i++) {
 412:Middlewares/lvgl/src/extra/layouts/grid/lv_grid.c ****         lv_coord_t size = LV_COORD_MIN;
 413:Middlewares/lvgl/src/extra/layouts/grid/lv_grid.c ****         if(IS_CONTENT(col_templ[i])) {
 414:Middlewares/lvgl/src/extra/layouts/grid/lv_grid.c ****             /*Check the size of children of this cell*/
 415:Middlewares/lvgl/src/extra/layouts/grid/lv_grid.c ****             uint32_t ci;
 416:Middlewares/lvgl/src/extra/layouts/grid/lv_grid.c ****             for(ci = 0; ci < lv_obj_get_child_cnt(cont); ci++) {
 417:Middlewares/lvgl/src/extra/layouts/grid/lv_grid.c ****                 lv_obj_t * item = lv_obj_get_child(cont, ci);
 418:Middlewares/lvgl/src/extra/layouts/grid/lv_grid.c ****                 if(lv_obj_has_flag_any(item, LV_OBJ_FLAG_IGNORE_LAYOUT | LV_OBJ_FLAG_HIDDEN | LV_OB
 419:Middlewares/lvgl/src/extra/layouts/grid/lv_grid.c ****                 uint32_t col_span = get_col_span(item);
 420:Middlewares/lvgl/src/extra/layouts/grid/lv_grid.c ****                 if(col_span != 1) continue;
 421:Middlewares/lvgl/src/extra/layouts/grid/lv_grid.c **** 
 422:Middlewares/lvgl/src/extra/layouts/grid/lv_grid.c ****                 uint32_t col_pos = get_col_pos(item);
 423:Middlewares/lvgl/src/extra/layouts/grid/lv_grid.c ****                 if(col_pos != i) continue;
 424:Middlewares/lvgl/src/extra/layouts/grid/lv_grid.c **** 
 425:Middlewares/lvgl/src/extra/layouts/grid/lv_grid.c ****                 size = LV_MAX(size, lv_obj_get_width(item));
 426:Middlewares/lvgl/src/extra/layouts/grid/lv_grid.c ****             }
 427:Middlewares/lvgl/src/extra/layouts/grid/lv_grid.c ****             if(size >= 0) c->w[i] = size;
 428:Middlewares/lvgl/src/extra/layouts/grid/lv_grid.c ****             else c->w[i] = 0;
 429:Middlewares/lvgl/src/extra/layouts/grid/lv_grid.c ****         }
 430:Middlewares/lvgl/src/extra/layouts/grid/lv_grid.c ****     }
 431:Middlewares/lvgl/src/extra/layouts/grid/lv_grid.c **** 
ARM GAS  /tmp/cc1NzchT.s 			page 9


 432:Middlewares/lvgl/src/extra/layouts/grid/lv_grid.c ****     uint32_t col_fr_cnt = 0;
 433:Middlewares/lvgl/src/extra/layouts/grid/lv_grid.c ****     lv_coord_t grid_w = 0;
 434:Middlewares/lvgl/src/extra/layouts/grid/lv_grid.c **** 
 435:Middlewares/lvgl/src/extra/layouts/grid/lv_grid.c ****     for(i = 0; i < c->col_num; i++) {
 436:Middlewares/lvgl/src/extra/layouts/grid/lv_grid.c ****         lv_coord_t x = col_templ[i];
 437:Middlewares/lvgl/src/extra/layouts/grid/lv_grid.c ****         if(IS_FR(x)) {
 438:Middlewares/lvgl/src/extra/layouts/grid/lv_grid.c ****             col_fr_cnt += GET_FR(x);
 439:Middlewares/lvgl/src/extra/layouts/grid/lv_grid.c ****         }
 440:Middlewares/lvgl/src/extra/layouts/grid/lv_grid.c ****         else if (IS_CONTENT(x)) {
 441:Middlewares/lvgl/src/extra/layouts/grid/lv_grid.c ****             grid_w += c->w[i];
 442:Middlewares/lvgl/src/extra/layouts/grid/lv_grid.c ****         }
 443:Middlewares/lvgl/src/extra/layouts/grid/lv_grid.c ****         else {
 444:Middlewares/lvgl/src/extra/layouts/grid/lv_grid.c ****             c->w[i] = x;
 445:Middlewares/lvgl/src/extra/layouts/grid/lv_grid.c ****             grid_w += x;
 446:Middlewares/lvgl/src/extra/layouts/grid/lv_grid.c ****         }
 447:Middlewares/lvgl/src/extra/layouts/grid/lv_grid.c ****     }
 448:Middlewares/lvgl/src/extra/layouts/grid/lv_grid.c **** 
 449:Middlewares/lvgl/src/extra/layouts/grid/lv_grid.c ****     lv_coord_t col_gap = lv_obj_get_style_pad_column(cont, LV_PART_MAIN);
 450:Middlewares/lvgl/src/extra/layouts/grid/lv_grid.c ****     cont_w -= col_gap * (c->col_num - 1);
 451:Middlewares/lvgl/src/extra/layouts/grid/lv_grid.c ****     lv_coord_t free_w = cont_w - grid_w;
 452:Middlewares/lvgl/src/extra/layouts/grid/lv_grid.c ****     if(free_w < 0) free_w = 0;
 453:Middlewares/lvgl/src/extra/layouts/grid/lv_grid.c **** 
 454:Middlewares/lvgl/src/extra/layouts/grid/lv_grid.c ****     int32_t last_fr_i = -1;
 455:Middlewares/lvgl/src/extra/layouts/grid/lv_grid.c ****     int32_t last_fr_x = 0;
 456:Middlewares/lvgl/src/extra/layouts/grid/lv_grid.c ****     for(i = 0; i < c->col_num; i++) {
 457:Middlewares/lvgl/src/extra/layouts/grid/lv_grid.c ****         lv_coord_t x = col_templ[i];
 458:Middlewares/lvgl/src/extra/layouts/grid/lv_grid.c ****         if(IS_FR(x)) {
 459:Middlewares/lvgl/src/extra/layouts/grid/lv_grid.c ****             lv_coord_t f = GET_FR(x);
 460:Middlewares/lvgl/src/extra/layouts/grid/lv_grid.c ****             c->w[i] = (free_w * f) / col_fr_cnt;
 461:Middlewares/lvgl/src/extra/layouts/grid/lv_grid.c ****             last_fr_i = i;
 462:Middlewares/lvgl/src/extra/layouts/grid/lv_grid.c ****             last_fr_x = f;
 463:Middlewares/lvgl/src/extra/layouts/grid/lv_grid.c ****         }
 464:Middlewares/lvgl/src/extra/layouts/grid/lv_grid.c ****     }
 465:Middlewares/lvgl/src/extra/layouts/grid/lv_grid.c **** 
 466:Middlewares/lvgl/src/extra/layouts/grid/lv_grid.c ****     /*To avoid rounding errors set the last FR track to the remaining size */
 467:Middlewares/lvgl/src/extra/layouts/grid/lv_grid.c ****     if(last_fr_i >= 0) {
 468:Middlewares/lvgl/src/extra/layouts/grid/lv_grid.c ****     	c->w[last_fr_i] = free_w - ((free_w * (col_fr_cnt - last_fr_x)) / col_fr_cnt);
 469:Middlewares/lvgl/src/extra/layouts/grid/lv_grid.c ****     }
 470:Middlewares/lvgl/src/extra/layouts/grid/lv_grid.c **** }
 471:Middlewares/lvgl/src/extra/layouts/grid/lv_grid.c **** 
 472:Middlewares/lvgl/src/extra/layouts/grid/lv_grid.c **** static void calc_rows(lv_obj_t * cont, _lv_grid_calc_t * c)
 473:Middlewares/lvgl/src/extra/layouts/grid/lv_grid.c **** {
 474:Middlewares/lvgl/src/extra/layouts/grid/lv_grid.c ****     uint32_t i;
 475:Middlewares/lvgl/src/extra/layouts/grid/lv_grid.c ****     const lv_coord_t * row_templ = get_row_dsc(cont);
 476:Middlewares/lvgl/src/extra/layouts/grid/lv_grid.c ****     c->row_num = count_tracks(row_templ);
 477:Middlewares/lvgl/src/extra/layouts/grid/lv_grid.c ****     c->y = lv_mem_buf_get(sizeof(lv_coord_t) * c->row_num);
 478:Middlewares/lvgl/src/extra/layouts/grid/lv_grid.c ****     c->h = lv_mem_buf_get(sizeof(lv_coord_t) * c->row_num);
 479:Middlewares/lvgl/src/extra/layouts/grid/lv_grid.c ****     /*Set sizes for CONTENT cells*/
 480:Middlewares/lvgl/src/extra/layouts/grid/lv_grid.c ****     for(i = 0; i < c->row_num; i++) {
 481:Middlewares/lvgl/src/extra/layouts/grid/lv_grid.c ****         lv_coord_t size = LV_COORD_MIN;
 482:Middlewares/lvgl/src/extra/layouts/grid/lv_grid.c ****         if(IS_CONTENT(row_templ[i])) {
 483:Middlewares/lvgl/src/extra/layouts/grid/lv_grid.c ****             /*Check the size of children of this cell*/
 484:Middlewares/lvgl/src/extra/layouts/grid/lv_grid.c ****             uint32_t ci;
 485:Middlewares/lvgl/src/extra/layouts/grid/lv_grid.c ****             for(ci = 0; ci < lv_obj_get_child_cnt(cont); ci++) {
 486:Middlewares/lvgl/src/extra/layouts/grid/lv_grid.c ****                 lv_obj_t * item = lv_obj_get_child(cont, ci);
 487:Middlewares/lvgl/src/extra/layouts/grid/lv_grid.c ****                 if(lv_obj_has_flag_any(item, LV_OBJ_FLAG_IGNORE_LAYOUT | LV_OBJ_FLAG_HIDDEN | LV_OB
 488:Middlewares/lvgl/src/extra/layouts/grid/lv_grid.c ****                 uint32_t row_span = get_row_span(item);
ARM GAS  /tmp/cc1NzchT.s 			page 10


 489:Middlewares/lvgl/src/extra/layouts/grid/lv_grid.c ****                 if(row_span != 1) continue;
 490:Middlewares/lvgl/src/extra/layouts/grid/lv_grid.c **** 
 491:Middlewares/lvgl/src/extra/layouts/grid/lv_grid.c ****                 uint32_t row_pos = get_row_pos(item);
 492:Middlewares/lvgl/src/extra/layouts/grid/lv_grid.c ****                 if(row_pos != i) continue;
 493:Middlewares/lvgl/src/extra/layouts/grid/lv_grid.c **** 
 494:Middlewares/lvgl/src/extra/layouts/grid/lv_grid.c ****                 size = LV_MAX(size, lv_obj_get_height(item));
 495:Middlewares/lvgl/src/extra/layouts/grid/lv_grid.c ****             }
 496:Middlewares/lvgl/src/extra/layouts/grid/lv_grid.c ****             if(size >= 0) c->h[i] = size;
 497:Middlewares/lvgl/src/extra/layouts/grid/lv_grid.c ****             else c->h[i] = 0;
 498:Middlewares/lvgl/src/extra/layouts/grid/lv_grid.c ****         }
 499:Middlewares/lvgl/src/extra/layouts/grid/lv_grid.c ****     }
 500:Middlewares/lvgl/src/extra/layouts/grid/lv_grid.c **** 
 501:Middlewares/lvgl/src/extra/layouts/grid/lv_grid.c ****     uint32_t row_fr_cnt = 0;
 502:Middlewares/lvgl/src/extra/layouts/grid/lv_grid.c ****     lv_coord_t grid_h = 0;
 503:Middlewares/lvgl/src/extra/layouts/grid/lv_grid.c **** 
 504:Middlewares/lvgl/src/extra/layouts/grid/lv_grid.c ****     for(i = 0; i < c->row_num; i++) {
 505:Middlewares/lvgl/src/extra/layouts/grid/lv_grid.c ****         lv_coord_t x = row_templ[i];
 506:Middlewares/lvgl/src/extra/layouts/grid/lv_grid.c ****         if(IS_FR(x)) {
 507:Middlewares/lvgl/src/extra/layouts/grid/lv_grid.c ****             row_fr_cnt += GET_FR(x);
 508:Middlewares/lvgl/src/extra/layouts/grid/lv_grid.c ****         } else if (IS_CONTENT(x)) {
 509:Middlewares/lvgl/src/extra/layouts/grid/lv_grid.c ****             grid_h += c->h[i];
 510:Middlewares/lvgl/src/extra/layouts/grid/lv_grid.c ****         } else {
 511:Middlewares/lvgl/src/extra/layouts/grid/lv_grid.c ****             c->h[i] = x;
 512:Middlewares/lvgl/src/extra/layouts/grid/lv_grid.c ****             grid_h += x;
 513:Middlewares/lvgl/src/extra/layouts/grid/lv_grid.c ****         }
 514:Middlewares/lvgl/src/extra/layouts/grid/lv_grid.c ****     }
 515:Middlewares/lvgl/src/extra/layouts/grid/lv_grid.c **** 
 516:Middlewares/lvgl/src/extra/layouts/grid/lv_grid.c **** 
 517:Middlewares/lvgl/src/extra/layouts/grid/lv_grid.c ****     lv_coord_t row_gap = lv_obj_get_style_pad_row(cont, LV_PART_MAIN);
 518:Middlewares/lvgl/src/extra/layouts/grid/lv_grid.c ****     lv_coord_t cont_h = lv_obj_get_content_height(cont) - row_gap * (c->row_num - 1);
 519:Middlewares/lvgl/src/extra/layouts/grid/lv_grid.c ****     lv_coord_t free_h = cont_h - grid_h;
 520:Middlewares/lvgl/src/extra/layouts/grid/lv_grid.c ****     if(free_h < 0) free_h = 0;
 521:Middlewares/lvgl/src/extra/layouts/grid/lv_grid.c **** 
 522:Middlewares/lvgl/src/extra/layouts/grid/lv_grid.c ****     int32_t last_fr_i = -1;
 523:Middlewares/lvgl/src/extra/layouts/grid/lv_grid.c ****     int32_t last_fr_x = 0;
 524:Middlewares/lvgl/src/extra/layouts/grid/lv_grid.c ****     for(i = 0; i < c->row_num; i++) {
 525:Middlewares/lvgl/src/extra/layouts/grid/lv_grid.c ****         lv_coord_t x = row_templ[i];
 526:Middlewares/lvgl/src/extra/layouts/grid/lv_grid.c ****         if(IS_FR(x)) {
 527:Middlewares/lvgl/src/extra/layouts/grid/lv_grid.c ****             lv_coord_t f = GET_FR(x);
 528:Middlewares/lvgl/src/extra/layouts/grid/lv_grid.c ****             c->h[i] = (free_h * f) / row_fr_cnt;
 529:Middlewares/lvgl/src/extra/layouts/grid/lv_grid.c ****         }
 530:Middlewares/lvgl/src/extra/layouts/grid/lv_grid.c ****     }
 531:Middlewares/lvgl/src/extra/layouts/grid/lv_grid.c **** 
 532:Middlewares/lvgl/src/extra/layouts/grid/lv_grid.c ****     /*To avoid rounding errors set the last FR track to the remaining size */
 533:Middlewares/lvgl/src/extra/layouts/grid/lv_grid.c ****     if(last_fr_i >= 0) {
 534:Middlewares/lvgl/src/extra/layouts/grid/lv_grid.c ****     	c->h[last_fr_i] = free_h - ((free_h * (row_fr_cnt - last_fr_x)) / row_fr_cnt);
 535:Middlewares/lvgl/src/extra/layouts/grid/lv_grid.c ****     }
 536:Middlewares/lvgl/src/extra/layouts/grid/lv_grid.c **** }
 537:Middlewares/lvgl/src/extra/layouts/grid/lv_grid.c **** 
 538:Middlewares/lvgl/src/extra/layouts/grid/lv_grid.c **** /**
 539:Middlewares/lvgl/src/extra/layouts/grid/lv_grid.c ****  * Reposition a grid item in its cell
 540:Middlewares/lvgl/src/extra/layouts/grid/lv_grid.c ****  * @param item a grid item to reposition
 541:Middlewares/lvgl/src/extra/layouts/grid/lv_grid.c ****  * @param calc the calculated grid of `cont`
 542:Middlewares/lvgl/src/extra/layouts/grid/lv_grid.c ****  * @param child_id_ext helper value if the ID of the child is know (order from the oldest) else -1
 543:Middlewares/lvgl/src/extra/layouts/grid/lv_grid.c ****  * @param grid_abs helper value, the absolute position of the grid, NULL if unknown
 544:Middlewares/lvgl/src/extra/layouts/grid/lv_grid.c ****  */
 545:Middlewares/lvgl/src/extra/layouts/grid/lv_grid.c **** static void item_repos(lv_obj_t * item, _lv_grid_calc_t * c, item_repos_hint_t * hint)
ARM GAS  /tmp/cc1NzchT.s 			page 11


 546:Middlewares/lvgl/src/extra/layouts/grid/lv_grid.c **** {
 547:Middlewares/lvgl/src/extra/layouts/grid/lv_grid.c ****     if(lv_obj_has_flag_any(item, LV_OBJ_FLAG_IGNORE_LAYOUT | LV_OBJ_FLAG_HIDDEN | LV_OBJ_FLAG_FLOAT
 548:Middlewares/lvgl/src/extra/layouts/grid/lv_grid.c ****     uint32_t col_span = get_col_span(item);
 549:Middlewares/lvgl/src/extra/layouts/grid/lv_grid.c ****     uint32_t row_span = get_row_span(item);
 550:Middlewares/lvgl/src/extra/layouts/grid/lv_grid.c ****     if(row_span == 0 || col_span == 0) return;
 551:Middlewares/lvgl/src/extra/layouts/grid/lv_grid.c **** 
 552:Middlewares/lvgl/src/extra/layouts/grid/lv_grid.c ****     uint32_t col_pos = get_col_pos(item);
 553:Middlewares/lvgl/src/extra/layouts/grid/lv_grid.c ****     uint32_t row_pos = get_row_pos(item);
 554:Middlewares/lvgl/src/extra/layouts/grid/lv_grid.c ****     lv_grid_align_t col_align = get_cell_col_align(item);
 555:Middlewares/lvgl/src/extra/layouts/grid/lv_grid.c ****     lv_grid_align_t row_align = get_cell_row_align(item);
 556:Middlewares/lvgl/src/extra/layouts/grid/lv_grid.c **** 
 557:Middlewares/lvgl/src/extra/layouts/grid/lv_grid.c **** 
 558:Middlewares/lvgl/src/extra/layouts/grid/lv_grid.c ****     lv_coord_t col_x1 = c->x[col_pos];
 559:Middlewares/lvgl/src/extra/layouts/grid/lv_grid.c ****     lv_coord_t col_x2 = c->x[col_pos + col_span - 1] + c->w[col_pos + col_span - 1];
 560:Middlewares/lvgl/src/extra/layouts/grid/lv_grid.c ****     lv_coord_t col_w = col_x2 - col_x1;
 561:Middlewares/lvgl/src/extra/layouts/grid/lv_grid.c **** 
 562:Middlewares/lvgl/src/extra/layouts/grid/lv_grid.c ****     lv_coord_t row_y1 = c->y[row_pos];
 563:Middlewares/lvgl/src/extra/layouts/grid/lv_grid.c ****     lv_coord_t row_y2 = c->y[row_pos + row_span - 1] + c->h[row_pos + row_span - 1];
 564:Middlewares/lvgl/src/extra/layouts/grid/lv_grid.c ****     lv_coord_t row_h = row_y2 - row_y1;
 565:Middlewares/lvgl/src/extra/layouts/grid/lv_grid.c **** 
 566:Middlewares/lvgl/src/extra/layouts/grid/lv_grid.c **** 
 567:Middlewares/lvgl/src/extra/layouts/grid/lv_grid.c ****     /*If the item has RTL base dir switch start and end*/
 568:Middlewares/lvgl/src/extra/layouts/grid/lv_grid.c ****     if(lv_obj_get_style_base_dir(item, LV_PART_MAIN) == LV_BASE_DIR_RTL) {
 569:Middlewares/lvgl/src/extra/layouts/grid/lv_grid.c ****         if(col_align == LV_GRID_ALIGN_START) col_align = LV_GRID_ALIGN_END;
 570:Middlewares/lvgl/src/extra/layouts/grid/lv_grid.c ****         else if(col_align == LV_GRID_ALIGN_END) col_align = LV_GRID_ALIGN_START;
 571:Middlewares/lvgl/src/extra/layouts/grid/lv_grid.c ****     }
 572:Middlewares/lvgl/src/extra/layouts/grid/lv_grid.c **** 
 573:Middlewares/lvgl/src/extra/layouts/grid/lv_grid.c ****     lv_coord_t x;
 574:Middlewares/lvgl/src/extra/layouts/grid/lv_grid.c ****     lv_coord_t y;
 575:Middlewares/lvgl/src/extra/layouts/grid/lv_grid.c ****     lv_coord_t item_w = lv_area_get_width(&item->coords);
 576:Middlewares/lvgl/src/extra/layouts/grid/lv_grid.c ****     lv_coord_t item_h = lv_area_get_height(&item->coords);
 577:Middlewares/lvgl/src/extra/layouts/grid/lv_grid.c **** 
 578:Middlewares/lvgl/src/extra/layouts/grid/lv_grid.c ****     switch(col_align) {
 579:Middlewares/lvgl/src/extra/layouts/grid/lv_grid.c ****         default:
 580:Middlewares/lvgl/src/extra/layouts/grid/lv_grid.c ****         case LV_GRID_ALIGN_START:
 581:Middlewares/lvgl/src/extra/layouts/grid/lv_grid.c ****             x = c->x[col_pos];
 582:Middlewares/lvgl/src/extra/layouts/grid/lv_grid.c ****             item->w_layout = 0;
 583:Middlewares/lvgl/src/extra/layouts/grid/lv_grid.c ****             break;
 584:Middlewares/lvgl/src/extra/layouts/grid/lv_grid.c ****         case LV_GRID_ALIGN_STRETCH:
 585:Middlewares/lvgl/src/extra/layouts/grid/lv_grid.c ****             x = c->x[col_pos];
 586:Middlewares/lvgl/src/extra/layouts/grid/lv_grid.c ****             item_w = col_w;
 587:Middlewares/lvgl/src/extra/layouts/grid/lv_grid.c ****             item->w_layout = 1;
 588:Middlewares/lvgl/src/extra/layouts/grid/lv_grid.c ****             break;
 589:Middlewares/lvgl/src/extra/layouts/grid/lv_grid.c ****         case LV_GRID_ALIGN_CENTER:
 590:Middlewares/lvgl/src/extra/layouts/grid/lv_grid.c ****             x = c->x[col_pos] + (col_w - item_w) / 2;
 591:Middlewares/lvgl/src/extra/layouts/grid/lv_grid.c ****             item->w_layout = 0;
 592:Middlewares/lvgl/src/extra/layouts/grid/lv_grid.c ****             break;
 593:Middlewares/lvgl/src/extra/layouts/grid/lv_grid.c ****         case LV_GRID_ALIGN_END:
 594:Middlewares/lvgl/src/extra/layouts/grid/lv_grid.c ****             x = c->x[col_pos] + col_w - lv_obj_get_width(item);
 595:Middlewares/lvgl/src/extra/layouts/grid/lv_grid.c ****             item->w_layout = 0;
 596:Middlewares/lvgl/src/extra/layouts/grid/lv_grid.c ****             break;
 597:Middlewares/lvgl/src/extra/layouts/grid/lv_grid.c ****     }
 598:Middlewares/lvgl/src/extra/layouts/grid/lv_grid.c **** 
 599:Middlewares/lvgl/src/extra/layouts/grid/lv_grid.c ****     switch(row_align) {
 600:Middlewares/lvgl/src/extra/layouts/grid/lv_grid.c ****         default:
 601:Middlewares/lvgl/src/extra/layouts/grid/lv_grid.c ****         case LV_GRID_ALIGN_START:
 602:Middlewares/lvgl/src/extra/layouts/grid/lv_grid.c ****             y = c->y[row_pos];
ARM GAS  /tmp/cc1NzchT.s 			page 12


 603:Middlewares/lvgl/src/extra/layouts/grid/lv_grid.c ****             item->h_layout = 0;
 604:Middlewares/lvgl/src/extra/layouts/grid/lv_grid.c ****             break;
 605:Middlewares/lvgl/src/extra/layouts/grid/lv_grid.c ****         case LV_GRID_ALIGN_STRETCH:
 606:Middlewares/lvgl/src/extra/layouts/grid/lv_grid.c ****             y = c->y[row_pos];
 607:Middlewares/lvgl/src/extra/layouts/grid/lv_grid.c ****             item_h = row_h;
 608:Middlewares/lvgl/src/extra/layouts/grid/lv_grid.c ****             item->h_layout = 1;
 609:Middlewares/lvgl/src/extra/layouts/grid/lv_grid.c ****             break;
 610:Middlewares/lvgl/src/extra/layouts/grid/lv_grid.c ****         case LV_GRID_ALIGN_CENTER:
 611:Middlewares/lvgl/src/extra/layouts/grid/lv_grid.c ****             y = c->y[row_pos] + (row_h - item_h) / 2;
 612:Middlewares/lvgl/src/extra/layouts/grid/lv_grid.c ****             item->h_layout = 0;
 613:Middlewares/lvgl/src/extra/layouts/grid/lv_grid.c ****             break;
 614:Middlewares/lvgl/src/extra/layouts/grid/lv_grid.c ****         case LV_GRID_ALIGN_END:
 615:Middlewares/lvgl/src/extra/layouts/grid/lv_grid.c ****             y = c->y[row_pos] + row_h - lv_obj_get_height(item);
 616:Middlewares/lvgl/src/extra/layouts/grid/lv_grid.c ****             item->h_layout = 0;
 617:Middlewares/lvgl/src/extra/layouts/grid/lv_grid.c ****             break;
 618:Middlewares/lvgl/src/extra/layouts/grid/lv_grid.c ****     }
 619:Middlewares/lvgl/src/extra/layouts/grid/lv_grid.c **** 
 620:Middlewares/lvgl/src/extra/layouts/grid/lv_grid.c ****     /*Set a new size if required*/
 621:Middlewares/lvgl/src/extra/layouts/grid/lv_grid.c ****     if(lv_obj_get_width(item) != item_w || lv_obj_get_height(item) != item_h) {
 622:Middlewares/lvgl/src/extra/layouts/grid/lv_grid.c ****         lv_area_t old_coords;
 623:Middlewares/lvgl/src/extra/layouts/grid/lv_grid.c ****         lv_area_copy(&old_coords, &item->coords);
 624:Middlewares/lvgl/src/extra/layouts/grid/lv_grid.c ****         lv_obj_invalidate(item);
 625:Middlewares/lvgl/src/extra/layouts/grid/lv_grid.c ****         lv_area_set_width(&item->coords, item_w);
 626:Middlewares/lvgl/src/extra/layouts/grid/lv_grid.c ****         lv_area_set_height(&item->coords, item_h);
 627:Middlewares/lvgl/src/extra/layouts/grid/lv_grid.c ****         lv_obj_invalidate(item);
 628:Middlewares/lvgl/src/extra/layouts/grid/lv_grid.c ****         lv_event_send(item, LV_EVENT_SIZE_CHANGED, &old_coords);
 629:Middlewares/lvgl/src/extra/layouts/grid/lv_grid.c ****         lv_event_send(lv_obj_get_parent(item), LV_EVENT_CHILD_CHANGED, item);
 630:Middlewares/lvgl/src/extra/layouts/grid/lv_grid.c **** 
 631:Middlewares/lvgl/src/extra/layouts/grid/lv_grid.c ****     }
 632:Middlewares/lvgl/src/extra/layouts/grid/lv_grid.c **** 
 633:Middlewares/lvgl/src/extra/layouts/grid/lv_grid.c ****     /*Handle percentage value of translate*/
 634:Middlewares/lvgl/src/extra/layouts/grid/lv_grid.c ****     lv_coord_t tr_x = lv_obj_get_style_translate_x(item, LV_PART_MAIN);
 635:Middlewares/lvgl/src/extra/layouts/grid/lv_grid.c ****     lv_coord_t tr_y = lv_obj_get_style_translate_y(item, LV_PART_MAIN);
 636:Middlewares/lvgl/src/extra/layouts/grid/lv_grid.c ****     lv_coord_t w = lv_obj_get_width(item);
 637:Middlewares/lvgl/src/extra/layouts/grid/lv_grid.c ****     lv_coord_t h = lv_obj_get_height(item);
 638:Middlewares/lvgl/src/extra/layouts/grid/lv_grid.c ****     if(LV_COORD_IS_PCT(tr_x)) tr_x = (w * LV_COORD_GET_PCT(tr_x)) / 100;
 639:Middlewares/lvgl/src/extra/layouts/grid/lv_grid.c ****     if(LV_COORD_IS_PCT(tr_y)) tr_y = (h * LV_COORD_GET_PCT(tr_y)) / 100;
 640:Middlewares/lvgl/src/extra/layouts/grid/lv_grid.c **** 
 641:Middlewares/lvgl/src/extra/layouts/grid/lv_grid.c ****     x += tr_x;
 642:Middlewares/lvgl/src/extra/layouts/grid/lv_grid.c ****     y += tr_y;
 643:Middlewares/lvgl/src/extra/layouts/grid/lv_grid.c **** 
 644:Middlewares/lvgl/src/extra/layouts/grid/lv_grid.c ****     lv_coord_t diff_x = hint->grid_abs.x + x - item->coords.x1;
 645:Middlewares/lvgl/src/extra/layouts/grid/lv_grid.c ****     lv_coord_t diff_y = hint->grid_abs.y + y - item->coords.y1;
 646:Middlewares/lvgl/src/extra/layouts/grid/lv_grid.c ****     if(diff_x || diff_y) {
 647:Middlewares/lvgl/src/extra/layouts/grid/lv_grid.c ****         lv_obj_invalidate(item);
 648:Middlewares/lvgl/src/extra/layouts/grid/lv_grid.c ****         item->coords.x1 += diff_x;
 649:Middlewares/lvgl/src/extra/layouts/grid/lv_grid.c ****         item->coords.x2 += diff_x;
 650:Middlewares/lvgl/src/extra/layouts/grid/lv_grid.c ****         item->coords.y1 += diff_y;
 651:Middlewares/lvgl/src/extra/layouts/grid/lv_grid.c ****         item->coords.y2 += diff_y;
 652:Middlewares/lvgl/src/extra/layouts/grid/lv_grid.c ****         lv_obj_invalidate(item);
 653:Middlewares/lvgl/src/extra/layouts/grid/lv_grid.c ****         lv_obj_move_children_by(item, diff_x, diff_y, true);
 654:Middlewares/lvgl/src/extra/layouts/grid/lv_grid.c ****     }
 655:Middlewares/lvgl/src/extra/layouts/grid/lv_grid.c **** }
 656:Middlewares/lvgl/src/extra/layouts/grid/lv_grid.c **** 
 657:Middlewares/lvgl/src/extra/layouts/grid/lv_grid.c **** /**
 658:Middlewares/lvgl/src/extra/layouts/grid/lv_grid.c ****  * Place the grid track according to align methods. It keeps the track sizes but sets their positio
 659:Middlewares/lvgl/src/extra/layouts/grid/lv_grid.c ****  * It can process both columns or rows according to the passed parameters.
ARM GAS  /tmp/cc1NzchT.s 			page 13


 660:Middlewares/lvgl/src/extra/layouts/grid/lv_grid.c ****  * @param cont_size size of the containers content area (width/height)
 661:Middlewares/lvgl/src/extra/layouts/grid/lv_grid.c ****  * @param auto_size true: the container has auto size in the current direction
 662:Middlewares/lvgl/src/extra/layouts/grid/lv_grid.c ****  * @param align align method
 663:Middlewares/lvgl/src/extra/layouts/grid/lv_grid.c ****  * @param gap grid gap
 664:Middlewares/lvgl/src/extra/layouts/grid/lv_grid.c ****  * @param track_num number of tracks
 665:Middlewares/lvgl/src/extra/layouts/grid/lv_grid.c ****  * @param size_array array with the track sizes
 666:Middlewares/lvgl/src/extra/layouts/grid/lv_grid.c ****  * @param pos_array write the positions of the tracks here
 667:Middlewares/lvgl/src/extra/layouts/grid/lv_grid.c ****  * @return the total size of the grid
 668:Middlewares/lvgl/src/extra/layouts/grid/lv_grid.c ****  */
 669:Middlewares/lvgl/src/extra/layouts/grid/lv_grid.c **** static lv_coord_t grid_align(lv_coord_t cont_size,  bool auto_size, uint8_t align, lv_coord_t gap, 
 670:Middlewares/lvgl/src/extra/layouts/grid/lv_grid.c **** {
  27              		.loc 1 670 1 view -0
  28              		.cfi_startproc
  29              		@ args = 16, pretend = 0, frame = 0
  30              		@ frame_needed = 0, uses_anonymous_args = 0
  31              		.loc 1 670 1 is_stmt 0 view .LVU1
  32 0000 2DE9F041 		push	{r4, r5, r6, r7, r8, lr}
  33              	.LCFI0:
  34              		.cfi_def_cfa_offset 24
  35              		.cfi_offset 4, -24
  36              		.cfi_offset 5, -20
  37              		.cfi_offset 6, -16
  38              		.cfi_offset 7, -12
  39              		.cfi_offset 8, -8
  40              		.cfi_offset 14, -4
  41 0004 8446     		mov	ip, r0
  42 0006 069D     		ldr	r5, [sp, #24]
  43 0008 079E     		ldr	r6, [sp, #28]
  44 000a 089C     		ldr	r4, [sp, #32]
  45 000c 9DF82470 		ldrb	r7, [sp, #36]	@ zero_extendqisi2
 671:Middlewares/lvgl/src/extra/layouts/grid/lv_grid.c ****     lv_coord_t grid_size = 0;
  46              		.loc 1 671 5 is_stmt 1 view .LVU2
  47              	.LVL1:
 672:Middlewares/lvgl/src/extra/layouts/grid/lv_grid.c ****     uint32_t i;
  48              		.loc 1 672 5 view .LVU3
 673:Middlewares/lvgl/src/extra/layouts/grid/lv_grid.c **** 
 674:Middlewares/lvgl/src/extra/layouts/grid/lv_grid.c ****     if(auto_size) {
  49              		.loc 1 674 5 view .LVU4
  50              		.loc 1 674 7 is_stmt 0 view .LVU5
  51 0010 19B1     		cbz	r1, .L2
 675:Middlewares/lvgl/src/extra/layouts/grid/lv_grid.c ****         pos_array[0] = 0;
  52              		.loc 1 675 9 is_stmt 1 view .LVU6
  53              		.loc 1 675 22 is_stmt 0 view .LVU7
  54 0012 0022     		movs	r2, #0
  55              	.LVL2:
  56              		.loc 1 675 22 view .LVU8
  57 0014 2280     		strh	r2, [r4]	@ movhi
  58              	.LVL3:
  59              	.L3:
 676:Middlewares/lvgl/src/extra/layouts/grid/lv_grid.c ****     } else {
 677:Middlewares/lvgl/src/extra/layouts/grid/lv_grid.c ****         /*With spaced alignment gap will be calculated from the remaining space*/
 678:Middlewares/lvgl/src/extra/layouts/grid/lv_grid.c ****         if(align == LV_GRID_ALIGN_SPACE_AROUND || align == LV_GRID_ALIGN_SPACE_BETWEEN || align == 
 679:Middlewares/lvgl/src/extra/layouts/grid/lv_grid.c ****             gap = 0;
 680:Middlewares/lvgl/src/extra/layouts/grid/lv_grid.c ****             if(track_num == 1) align = LV_GRID_ALIGN_CENTER;
 681:Middlewares/lvgl/src/extra/layouts/grid/lv_grid.c ****         }
 682:Middlewares/lvgl/src/extra/layouts/grid/lv_grid.c **** 
 683:Middlewares/lvgl/src/extra/layouts/grid/lv_grid.c ****         /*Get the full grid size with gap*/
ARM GAS  /tmp/cc1NzchT.s 			page 14


 684:Middlewares/lvgl/src/extra/layouts/grid/lv_grid.c ****         for(i = 0; i < track_num; i++) {
 685:Middlewares/lvgl/src/extra/layouts/grid/lv_grid.c ****             grid_size += size_array[i] + gap;
 686:Middlewares/lvgl/src/extra/layouts/grid/lv_grid.c ****         }
 687:Middlewares/lvgl/src/extra/layouts/grid/lv_grid.c ****         grid_size -= gap;
 688:Middlewares/lvgl/src/extra/layouts/grid/lv_grid.c **** 
 689:Middlewares/lvgl/src/extra/layouts/grid/lv_grid.c ****         /*Calculate the position of the first item and set gap is necessary*/
 690:Middlewares/lvgl/src/extra/layouts/grid/lv_grid.c ****         switch(align) {
 691:Middlewares/lvgl/src/extra/layouts/grid/lv_grid.c ****         case LV_GRID_ALIGN_START:
 692:Middlewares/lvgl/src/extra/layouts/grid/lv_grid.c ****             pos_array[0] = 0;
 693:Middlewares/lvgl/src/extra/layouts/grid/lv_grid.c ****             break;
 694:Middlewares/lvgl/src/extra/layouts/grid/lv_grid.c ****         case LV_GRID_ALIGN_CENTER:
 695:Middlewares/lvgl/src/extra/layouts/grid/lv_grid.c ****             pos_array[0] = (cont_size - grid_size) / 2;
 696:Middlewares/lvgl/src/extra/layouts/grid/lv_grid.c ****             break;
 697:Middlewares/lvgl/src/extra/layouts/grid/lv_grid.c ****         case LV_GRID_ALIGN_END:
 698:Middlewares/lvgl/src/extra/layouts/grid/lv_grid.c ****             pos_array[0] = cont_size - grid_size;
 699:Middlewares/lvgl/src/extra/layouts/grid/lv_grid.c ****             break;
 700:Middlewares/lvgl/src/extra/layouts/grid/lv_grid.c ****         case LV_GRID_ALIGN_SPACE_BETWEEN:
 701:Middlewares/lvgl/src/extra/layouts/grid/lv_grid.c ****             pos_array[0] = 0;
 702:Middlewares/lvgl/src/extra/layouts/grid/lv_grid.c ****             gap = (lv_coord_t)(cont_size - grid_size) / (lv_coord_t)(track_num - 1);
 703:Middlewares/lvgl/src/extra/layouts/grid/lv_grid.c ****             break;
 704:Middlewares/lvgl/src/extra/layouts/grid/lv_grid.c ****         case LV_GRID_ALIGN_SPACE_AROUND:
 705:Middlewares/lvgl/src/extra/layouts/grid/lv_grid.c ****             gap = (lv_coord_t)(cont_size - grid_size) / (lv_coord_t)(track_num);
 706:Middlewares/lvgl/src/extra/layouts/grid/lv_grid.c ****             pos_array[0] = gap / 2;
 707:Middlewares/lvgl/src/extra/layouts/grid/lv_grid.c ****             break;
 708:Middlewares/lvgl/src/extra/layouts/grid/lv_grid.c ****         case LV_GRID_ALIGN_SPACE_EVENLY:
 709:Middlewares/lvgl/src/extra/layouts/grid/lv_grid.c ****             gap = (lv_coord_t)(cont_size - grid_size) / (lv_coord_t)(track_num + 1);
 710:Middlewares/lvgl/src/extra/layouts/grid/lv_grid.c ****             pos_array[0] = gap;
 711:Middlewares/lvgl/src/extra/layouts/grid/lv_grid.c ****             break;
 712:Middlewares/lvgl/src/extra/layouts/grid/lv_grid.c **** 
 713:Middlewares/lvgl/src/extra/layouts/grid/lv_grid.c ****         }
 714:Middlewares/lvgl/src/extra/layouts/grid/lv_grid.c ****     }
 715:Middlewares/lvgl/src/extra/layouts/grid/lv_grid.c **** 
 716:Middlewares/lvgl/src/extra/layouts/grid/lv_grid.c ****     /*Set the position of all tracks from the start position, gaps and track sizes*/
 717:Middlewares/lvgl/src/extra/layouts/grid/lv_grid.c ****     for(i = 0; i < track_num - 1; i++) {
  60              		.loc 1 717 5 is_stmt 1 view .LVU9
  61              		.loc 1 717 11 is_stmt 0 view .LVU10
  62 0016 0021     		movs	r1, #0
  63              		.loc 1 717 5 view .LVU11
  64 0018 6EE0     		b	.L14
  65              	.LVL4:
  66              	.L2:
 678:Middlewares/lvgl/src/extra/layouts/grid/lv_grid.c ****             gap = 0;
  67              		.loc 1 678 9 is_stmt 1 view .LVU12
 678:Middlewares/lvgl/src/extra/layouts/grid/lv_grid.c ****             gap = 0;
  68              		.loc 1 678 88 is_stmt 0 view .LVU13
  69 001a 111F     		subs	r1, r2, #4
  70              	.LVL5:
 678:Middlewares/lvgl/src/extra/layouts/grid/lv_grid.c ****             gap = 0;
  71              		.loc 1 678 88 view .LVU14
  72 001c C9B2     		uxtb	r1, r1
 678:Middlewares/lvgl/src/extra/layouts/grid/lv_grid.c ****             gap = 0;
  73              		.loc 1 678 11 view .LVU15
  74 001e 0229     		cmp	r1, #2
  75 0020 02D8     		bhi	.L4
 679:Middlewares/lvgl/src/extra/layouts/grid/lv_grid.c ****             if(track_num == 1) align = LV_GRID_ALIGN_CENTER;
  76              		.loc 1 679 13 is_stmt 1 view .LVU16
  77              	.LVL6:
ARM GAS  /tmp/cc1NzchT.s 			page 15


 680:Middlewares/lvgl/src/extra/layouts/grid/lv_grid.c ****         }
  78              		.loc 1 680 13 view .LVU17
 680:Middlewares/lvgl/src/extra/layouts/grid/lv_grid.c ****         }
  79              		.loc 1 680 15 is_stmt 0 view .LVU18
  80 0022 012D     		cmp	r5, #1
  81 0024 0ED0     		beq	.L19
 679:Middlewares/lvgl/src/extra/layouts/grid/lv_grid.c ****             if(track_num == 1) align = LV_GRID_ALIGN_CENTER;
  82              		.loc 1 679 17 view .LVU19
  83 0026 0023     		movs	r3, #0
  84              	.LVL7:
  85              	.L4:
 684:Middlewares/lvgl/src/extra/layouts/grid/lv_grid.c ****             grid_size += size_array[i] + gap;
  86              		.loc 1 684 9 is_stmt 1 view .LVU20
 684:Middlewares/lvgl/src/extra/layouts/grid/lv_grid.c ****             grid_size += size_array[i] + gap;
  87              		.loc 1 684 15 is_stmt 0 view .LVU21
  88 0028 4FF0000E 		mov	lr, #0
 671:Middlewares/lvgl/src/extra/layouts/grid/lv_grid.c ****     uint32_t i;
  89              		.loc 1 671 16 view .LVU22
  90 002c 7046     		mov	r0, lr
  91              	.LVL8:
  92              	.L5:
 684:Middlewares/lvgl/src/extra/layouts/grid/lv_grid.c ****             grid_size += size_array[i] + gap;
  93              		.loc 1 684 20 is_stmt 1 discriminator 1 view .LVU23
 684:Middlewares/lvgl/src/extra/layouts/grid/lv_grid.c ****             grid_size += size_array[i] + gap;
  94              		.loc 1 684 9 is_stmt 0 discriminator 1 view .LVU24
  95 002e AE45     		cmp	lr, r5
  96 0030 0BD2     		bcs	.L22
 685:Middlewares/lvgl/src/extra/layouts/grid/lv_grid.c ****         }
  97              		.loc 1 685 13 is_stmt 1 discriminator 3 view .LVU25
 685:Middlewares/lvgl/src/extra/layouts/grid/lv_grid.c ****         }
  98              		.loc 1 685 36 is_stmt 0 discriminator 3 view .LVU26
  99 0032 36F81E10 		ldrh	r1, [r6, lr, lsl #1]
 685:Middlewares/lvgl/src/extra/layouts/grid/lv_grid.c ****         }
 100              		.loc 1 685 40 discriminator 3 view .LVU27
 101 0036 1944     		add	r1, r1, r3
 102 0038 89B2     		uxth	r1, r1
 685:Middlewares/lvgl/src/extra/layouts/grid/lv_grid.c ****         }
 103              		.loc 1 685 23 discriminator 3 view .LVU28
 104 003a 0844     		add	r0, r0, r1
 105              	.LVL9:
 685:Middlewares/lvgl/src/extra/layouts/grid/lv_grid.c ****         }
 106              		.loc 1 685 23 discriminator 3 view .LVU29
 107 003c 00B2     		sxth	r0, r0
 108              	.LVL10:
 684:Middlewares/lvgl/src/extra/layouts/grid/lv_grid.c ****             grid_size += size_array[i] + gap;
 109              		.loc 1 684 35 is_stmt 1 discriminator 3 view .LVU30
 684:Middlewares/lvgl/src/extra/layouts/grid/lv_grid.c ****             grid_size += size_array[i] + gap;
 110              		.loc 1 684 36 is_stmt 0 discriminator 3 view .LVU31
 111 003e 0EF1010E 		add	lr, lr, #1
 112              	.LVL11:
 684:Middlewares/lvgl/src/extra/layouts/grid/lv_grid.c ****             grid_size += size_array[i] + gap;
 113              		.loc 1 684 36 discriminator 3 view .LVU32
 114 0042 F4E7     		b	.L5
 115              	.LVL12:
 116              	.L19:
 679:Middlewares/lvgl/src/extra/layouts/grid/lv_grid.c ****             if(track_num == 1) align = LV_GRID_ALIGN_CENTER;
 117              		.loc 1 679 17 view .LVU33
ARM GAS  /tmp/cc1NzchT.s 			page 16


 118 0044 0023     		movs	r3, #0
 680:Middlewares/lvgl/src/extra/layouts/grid/lv_grid.c ****         }
 119              		.loc 1 680 38 view .LVU34
 120 0046 0122     		movs	r2, #1
 121              	.LVL13:
 680:Middlewares/lvgl/src/extra/layouts/grid/lv_grid.c ****         }
 122              		.loc 1 680 38 view .LVU35
 123 0048 EEE7     		b	.L4
 124              	.LVL14:
 125              	.L22:
 687:Middlewares/lvgl/src/extra/layouts/grid/lv_grid.c **** 
 126              		.loc 1 687 9 is_stmt 1 view .LVU36
 687:Middlewares/lvgl/src/extra/layouts/grid/lv_grid.c **** 
 127              		.loc 1 687 19 is_stmt 0 view .LVU37
 128 004a 80B2     		uxth	r0, r0
 687:Middlewares/lvgl/src/extra/layouts/grid/lv_grid.c **** 
 129              		.loc 1 687 19 view .LVU38
 130 004c 99B2     		uxth	r1, r3
 131 004e A0EB010E 		sub	lr, r0, r1
 132              	.LVL15:
 687:Middlewares/lvgl/src/extra/layouts/grid/lv_grid.c **** 
 133              		.loc 1 687 19 view .LVU39
 134 0052 0FFA8EFE 		sxth	lr, lr
 135              	.LVL16:
 690:Middlewares/lvgl/src/extra/layouts/grid/lv_grid.c ****         case LV_GRID_ALIGN_START:
 136              		.loc 1 690 9 is_stmt 1 view .LVU40
 137 0056 062A     		cmp	r2, #6
 138 0058 DDD8     		bhi	.L3
 139 005a 0FF20808 		adr	r8, .L8
 140 005e 58F822F0 		ldr	pc, [r8, r2, lsl #2]
 141 0062 00BF     		.p2align 2
 142              	.L8:
 143 0064 81000000 		.word	.L13+1
 144 0068 87000000 		.word	.L12+1
 145 006c 97000000 		.word	.L11+1
 146 0070 17000000 		.word	.L3+1
 147 0074 D1000000 		.word	.L10+1
 148 0078 B7000000 		.word	.L9+1
 149 007c A1000000 		.word	.L7+1
 150              		.p2align 1
 151              	.L13:
 692:Middlewares/lvgl/src/extra/layouts/grid/lv_grid.c ****             break;
 152              		.loc 1 692 13 view .LVU41
 692:Middlewares/lvgl/src/extra/layouts/grid/lv_grid.c ****             break;
 153              		.loc 1 692 26 is_stmt 0 view .LVU42
 154 0080 0022     		movs	r2, #0
 155              	.LVL17:
 692:Middlewares/lvgl/src/extra/layouts/grid/lv_grid.c ****             break;
 156              		.loc 1 692 26 view .LVU43
 157 0082 2280     		strh	r2, [r4]	@ movhi
 693:Middlewares/lvgl/src/extra/layouts/grid/lv_grid.c ****         case LV_GRID_ALIGN_CENTER:
 158              		.loc 1 693 13 is_stmt 1 view .LVU44
 159 0084 C7E7     		b	.L3
 160              	.LVL18:
 161              	.L12:
 695:Middlewares/lvgl/src/extra/layouts/grid/lv_grid.c ****             break;
 162              		.loc 1 695 13 view .LVU45
ARM GAS  /tmp/cc1NzchT.s 			page 17


 695:Middlewares/lvgl/src/extra/layouts/grid/lv_grid.c ****             break;
 163              		.loc 1 695 39 is_stmt 0 view .LVU46
 164 0086 ACEB0E0E 		sub	lr, ip, lr
 165              	.LVL19:
 695:Middlewares/lvgl/src/extra/layouts/grid/lv_grid.c ****             break;
 166              		.loc 1 695 52 view .LVU47
 167 008a 0EEBDE7E 		add	lr, lr, lr, lsr #31
 168 008e 4FEA6E02 		asr	r2, lr, #1
 169              	.LVL20:
 695:Middlewares/lvgl/src/extra/layouts/grid/lv_grid.c ****             break;
 170              		.loc 1 695 26 view .LVU48
 171 0092 2280     		strh	r2, [r4]	@ movhi
 696:Middlewares/lvgl/src/extra/layouts/grid/lv_grid.c ****         case LV_GRID_ALIGN_END:
 172              		.loc 1 696 13 is_stmt 1 view .LVU49
 173 0094 BFE7     		b	.L3
 174              	.LVL21:
 175              	.L11:
 698:Middlewares/lvgl/src/extra/layouts/grid/lv_grid.c ****             break;
 176              		.loc 1 698 13 view .LVU50
 698:Middlewares/lvgl/src/extra/layouts/grid/lv_grid.c ****             break;
 177              		.loc 1 698 38 is_stmt 0 view .LVU51
 178 0096 081A     		subs	r0, r1, r0
 179 0098 00EB0C02 		add	r2, r0, ip
 180              	.LVL22:
 698:Middlewares/lvgl/src/extra/layouts/grid/lv_grid.c ****             break;
 181              		.loc 1 698 26 view .LVU52
 182 009c 2280     		strh	r2, [r4]	@ movhi
 699:Middlewares/lvgl/src/extra/layouts/grid/lv_grid.c ****         case LV_GRID_ALIGN_SPACE_BETWEEN:
 183              		.loc 1 699 13 is_stmt 1 view .LVU53
 184 009e BAE7     		b	.L3
 185              	.LVL23:
 186              	.L7:
 701:Middlewares/lvgl/src/extra/layouts/grid/lv_grid.c ****             gap = (lv_coord_t)(cont_size - grid_size) / (lv_coord_t)(track_num - 1);
 187              		.loc 1 701 13 view .LVU54
 701:Middlewares/lvgl/src/extra/layouts/grid/lv_grid.c ****             gap = (lv_coord_t)(cont_size - grid_size) / (lv_coord_t)(track_num - 1);
 188              		.loc 1 701 26 is_stmt 0 view .LVU55
 189 00a0 0023     		movs	r3, #0
 190              	.LVL24:
 701:Middlewares/lvgl/src/extra/layouts/grid/lv_grid.c ****             gap = (lv_coord_t)(cont_size - grid_size) / (lv_coord_t)(track_num - 1);
 191              		.loc 1 701 26 view .LVU56
 192 00a2 2380     		strh	r3, [r4]	@ movhi
 702:Middlewares/lvgl/src/extra/layouts/grid/lv_grid.c ****             break;
 193              		.loc 1 702 13 is_stmt 1 view .LVU57
 702:Middlewares/lvgl/src/extra/layouts/grid/lv_grid.c ****             break;
 194              		.loc 1 702 42 is_stmt 0 view .LVU58
 195 00a4 0B1A     		subs	r3, r1, r0
 196 00a6 6344     		add	r3, r3, ip
 702:Middlewares/lvgl/src/extra/layouts/grid/lv_grid.c ****             break;
 197              		.loc 1 702 19 view .LVU59
 198 00a8 1BB2     		sxth	r3, r3
 702:Middlewares/lvgl/src/extra/layouts/grid/lv_grid.c ****             break;
 199              		.loc 1 702 80 view .LVU60
 200 00aa 6A1E     		subs	r2, r5, #1
 201              	.LVL25:
 702:Middlewares/lvgl/src/extra/layouts/grid/lv_grid.c ****             break;
 202              		.loc 1 702 57 view .LVU61
 203 00ac 12B2     		sxth	r2, r2
ARM GAS  /tmp/cc1NzchT.s 			page 18


 702:Middlewares/lvgl/src/extra/layouts/grid/lv_grid.c ****             break;
 204              		.loc 1 702 55 view .LVU62
 205 00ae 93FBF2F3 		sdiv	r3, r3, r2
 702:Middlewares/lvgl/src/extra/layouts/grid/lv_grid.c ****             break;
 206              		.loc 1 702 17 view .LVU63
 207 00b2 1BB2     		sxth	r3, r3
 208              	.LVL26:
 703:Middlewares/lvgl/src/extra/layouts/grid/lv_grid.c ****         case LV_GRID_ALIGN_SPACE_AROUND:
 209              		.loc 1 703 13 is_stmt 1 view .LVU64
 210 00b4 AFE7     		b	.L3
 211              	.LVL27:
 212              	.L9:
 705:Middlewares/lvgl/src/extra/layouts/grid/lv_grid.c ****             pos_array[0] = gap / 2;
 213              		.loc 1 705 13 view .LVU65
 705:Middlewares/lvgl/src/extra/layouts/grid/lv_grid.c ****             pos_array[0] = gap / 2;
 214              		.loc 1 705 42 is_stmt 0 view .LVU66
 215 00b6 0A1A     		subs	r2, r1, r0
 216              	.LVL28:
 705:Middlewares/lvgl/src/extra/layouts/grid/lv_grid.c ****             pos_array[0] = gap / 2;
 217              		.loc 1 705 42 view .LVU67
 218 00b8 6244     		add	r2, r2, ip
 705:Middlewares/lvgl/src/extra/layouts/grid/lv_grid.c ****             pos_array[0] = gap / 2;
 219              		.loc 1 705 19 view .LVU68
 220 00ba 12B2     		sxth	r2, r2
 705:Middlewares/lvgl/src/extra/layouts/grid/lv_grid.c ****             pos_array[0] = gap / 2;
 221              		.loc 1 705 57 view .LVU69
 222 00bc 2BB2     		sxth	r3, r5
 223              	.LVL29:
 705:Middlewares/lvgl/src/extra/layouts/grid/lv_grid.c ****             pos_array[0] = gap / 2;
 224              		.loc 1 705 55 view .LVU70
 225 00be 92FBF3F2 		sdiv	r2, r2, r3
 705:Middlewares/lvgl/src/extra/layouts/grid/lv_grid.c ****             pos_array[0] = gap / 2;
 226              		.loc 1 705 17 view .LVU71
 227 00c2 13B2     		sxth	r3, r2
 228              	.LVL30:
 706:Middlewares/lvgl/src/extra/layouts/grid/lv_grid.c ****             break;
 229              		.loc 1 706 13 is_stmt 1 view .LVU72
 706:Middlewares/lvgl/src/extra/layouts/grid/lv_grid.c ****             break;
 230              		.loc 1 706 26 is_stmt 0 view .LVU73
 231 00c4 C2F3C032 		ubfx	r2, r2, #15, #1
 232 00c8 1A44     		add	r2, r2, r3
 233 00ca 5210     		asrs	r2, r2, #1
 234 00cc 2280     		strh	r2, [r4]	@ movhi
 707:Middlewares/lvgl/src/extra/layouts/grid/lv_grid.c ****         case LV_GRID_ALIGN_SPACE_EVENLY:
 235              		.loc 1 707 13 is_stmt 1 view .LVU74
 236 00ce A2E7     		b	.L3
 237              	.LVL31:
 238              	.L10:
 709:Middlewares/lvgl/src/extra/layouts/grid/lv_grid.c ****             pos_array[0] = gap;
 239              		.loc 1 709 13 view .LVU75
 709:Middlewares/lvgl/src/extra/layouts/grid/lv_grid.c ****             pos_array[0] = gap;
 240              		.loc 1 709 42 is_stmt 0 view .LVU76
 241 00d0 0B1A     		subs	r3, r1, r0
 242              	.LVL32:
 709:Middlewares/lvgl/src/extra/layouts/grid/lv_grid.c ****             pos_array[0] = gap;
 243              		.loc 1 709 42 view .LVU77
 244 00d2 6344     		add	r3, r3, ip
ARM GAS  /tmp/cc1NzchT.s 			page 19


 709:Middlewares/lvgl/src/extra/layouts/grid/lv_grid.c ****             pos_array[0] = gap;
 245              		.loc 1 709 19 view .LVU78
 246 00d4 1BB2     		sxth	r3, r3
 709:Middlewares/lvgl/src/extra/layouts/grid/lv_grid.c ****             pos_array[0] = gap;
 247              		.loc 1 709 80 view .LVU79
 248 00d6 6A1C     		adds	r2, r5, #1
 249              	.LVL33:
 709:Middlewares/lvgl/src/extra/layouts/grid/lv_grid.c ****             pos_array[0] = gap;
 250              		.loc 1 709 57 view .LVU80
 251 00d8 12B2     		sxth	r2, r2
 709:Middlewares/lvgl/src/extra/layouts/grid/lv_grid.c ****             pos_array[0] = gap;
 252              		.loc 1 709 55 view .LVU81
 253 00da 93FBF2F3 		sdiv	r3, r3, r2
 709:Middlewares/lvgl/src/extra/layouts/grid/lv_grid.c ****             pos_array[0] = gap;
 254              		.loc 1 709 17 view .LVU82
 255 00de 1BB2     		sxth	r3, r3
 256              	.LVL34:
 710:Middlewares/lvgl/src/extra/layouts/grid/lv_grid.c ****             break;
 257              		.loc 1 710 13 is_stmt 1 view .LVU83
 710:Middlewares/lvgl/src/extra/layouts/grid/lv_grid.c ****             break;
 258              		.loc 1 710 26 is_stmt 0 view .LVU84
 259 00e0 2380     		strh	r3, [r4]	@ movhi
 711:Middlewares/lvgl/src/extra/layouts/grid/lv_grid.c **** 
 260              		.loc 1 711 13 is_stmt 1 view .LVU85
 261 00e2 98E7     		b	.L3
 262              	.LVL35:
 263              	.L15:
 718:Middlewares/lvgl/src/extra/layouts/grid/lv_grid.c ****         pos_array[i + 1] = pos_array[i] + size_array[i] + gap;
 264              		.loc 1 718 9 discriminator 3 view .LVU86
 265              		.loc 1 718 37 is_stmt 0 discriminator 3 view .LVU87
 266 00e4 34F81120 		ldrh	r2, [r4, r1, lsl #1]
 267              		.loc 1 718 53 discriminator 3 view .LVU88
 268 00e8 36F81100 		ldrh	r0, [r6, r1, lsl #1]
 269              		.loc 1 718 41 discriminator 3 view .LVU89
 270 00ec 0244     		add	r2, r2, r0
 271 00ee 92B2     		uxth	r2, r2
 272              		.loc 1 718 18 discriminator 3 view .LVU90
 273 00f0 0131     		adds	r1, r1, #1
 274              	.LVL36:
 275              		.loc 1 718 57 discriminator 3 view .LVU91
 276 00f2 1A44     		add	r2, r2, r3
 277              		.loc 1 718 26 discriminator 3 view .LVU92
 278 00f4 24F81120 		strh	r2, [r4, r1, lsl #1]	@ movhi
 717:Middlewares/lvgl/src/extra/layouts/grid/lv_grid.c ****         pos_array[i + 1] = pos_array[i] + size_array[i] + gap;
 279              		.loc 1 717 35 is_stmt 1 discriminator 3 view .LVU93
 280              	.LVL37:
 281              	.L14:
 717:Middlewares/lvgl/src/extra/layouts/grid/lv_grid.c ****         pos_array[i + 1] = pos_array[i] + size_array[i] + gap;
 282              		.loc 1 717 16 discriminator 1 view .LVU94
 717:Middlewares/lvgl/src/extra/layouts/grid/lv_grid.c ****         pos_array[i + 1] = pos_array[i] + size_array[i] + gap;
 283              		.loc 1 717 30 is_stmt 0 discriminator 1 view .LVU95
 284 00f8 6A1E     		subs	r2, r5, #1
 717:Middlewares/lvgl/src/extra/layouts/grid/lv_grid.c ****         pos_array[i + 1] = pos_array[i] + size_array[i] + gap;
 285              		.loc 1 717 5 discriminator 1 view .LVU96
 286 00fa 8A42     		cmp	r2, r1
 287 00fc F2D8     		bhi	.L15
 719:Middlewares/lvgl/src/extra/layouts/grid/lv_grid.c ****     }
ARM GAS  /tmp/cc1NzchT.s 			page 20


 720:Middlewares/lvgl/src/extra/layouts/grid/lv_grid.c **** 
 721:Middlewares/lvgl/src/extra/layouts/grid/lv_grid.c ****     lv_coord_t total_gird_size = pos_array[track_num - 1] + size_array[track_num - 1] - pos_array[0
 288              		.loc 1 721 5 is_stmt 1 view .LVU97
 289              		.loc 1 721 43 is_stmt 0 view .LVU98
 290 00fe 05F10043 		add	r3, r5, #-2147483648
 291              	.LVL38:
 292              		.loc 1 721 43 view .LVU99
 293 0102 013B     		subs	r3, r3, #1
 294 0104 34F81300 		ldrh	r0, [r4, r3, lsl #1]
 295              		.loc 1 721 71 view .LVU100
 296 0108 36F81330 		ldrh	r3, [r6, r3, lsl #1]
 297              		.loc 1 721 59 view .LVU101
 298 010c 1844     		add	r0, r0, r3
 299 010e 80B2     		uxth	r0, r0
 300              		.loc 1 721 98 view .LVU102
 301 0110 2388     		ldrh	r3, [r4]
 302              		.loc 1 721 87 view .LVU103
 303 0112 C01A     		subs	r0, r0, r3
 304              		.loc 1 721 16 view .LVU104
 305 0114 00B2     		sxth	r0, r0
 306              	.LVL39:
 722:Middlewares/lvgl/src/extra/layouts/grid/lv_grid.c **** 
 723:Middlewares/lvgl/src/extra/layouts/grid/lv_grid.c ****     if(reverse) {
 307              		.loc 1 723 5 is_stmt 1 view .LVU105
 308              		.loc 1 723 7 is_stmt 0 view .LVU106
 309 0116 0FB9     		cbnz	r7, .L20
 310              	.LVL40:
 311              	.L17:
 724:Middlewares/lvgl/src/extra/layouts/grid/lv_grid.c ****         for(i = 0; i < track_num; i++) {
 725:Middlewares/lvgl/src/extra/layouts/grid/lv_grid.c ****             pos_array[i] = cont_size - pos_array[i] - size_array[i];
 726:Middlewares/lvgl/src/extra/layouts/grid/lv_grid.c ****         }
 727:Middlewares/lvgl/src/extra/layouts/grid/lv_grid.c **** 
 728:Middlewares/lvgl/src/extra/layouts/grid/lv_grid.c ****     }
 729:Middlewares/lvgl/src/extra/layouts/grid/lv_grid.c **** 
 730:Middlewares/lvgl/src/extra/layouts/grid/lv_grid.c ****     /*Return the full size of the grid*/
 731:Middlewares/lvgl/src/extra/layouts/grid/lv_grid.c ****     return total_gird_size;
 312              		.loc 1 731 5 is_stmt 1 view .LVU107
 732:Middlewares/lvgl/src/extra/layouts/grid/lv_grid.c **** }
 313              		.loc 1 732 1 is_stmt 0 view .LVU108
 314 0118 BDE8F081 		pop	{r4, r5, r6, r7, r8, pc}
 315              	.LVL41:
 316              	.L20:
 724:Middlewares/lvgl/src/extra/layouts/grid/lv_grid.c ****         for(i = 0; i < track_num; i++) {
 317              		.loc 1 724 15 view .LVU109
 318 011c 0022     		movs	r2, #0
 319              	.LVL42:
 320              	.L16:
 724:Middlewares/lvgl/src/extra/layouts/grid/lv_grid.c ****         for(i = 0; i < track_num; i++) {
 321              		.loc 1 724 20 is_stmt 1 discriminator 1 view .LVU110
 724:Middlewares/lvgl/src/extra/layouts/grid/lv_grid.c ****         for(i = 0; i < track_num; i++) {
 322              		.loc 1 724 9 is_stmt 0 discriminator 1 view .LVU111
 323 011e AA42     		cmp	r2, r5
 324 0120 FAD2     		bcs	.L17
 725:Middlewares/lvgl/src/extra/layouts/grid/lv_grid.c ****         }
 325              		.loc 1 725 13 is_stmt 1 discriminator 3 view .LVU112
 725:Middlewares/lvgl/src/extra/layouts/grid/lv_grid.c ****         }
 326              		.loc 1 725 49 is_stmt 0 discriminator 3 view .LVU113
ARM GAS  /tmp/cc1NzchT.s 			page 21


 327 0122 34F81230 		ldrh	r3, [r4, r2, lsl #1]
 725:Middlewares/lvgl/src/extra/layouts/grid/lv_grid.c ****         }
 328              		.loc 1 725 38 discriminator 3 view .LVU114
 329 0126 ACEB0303 		sub	r3, ip, r3
 330 012a 9BB2     		uxth	r3, r3
 725:Middlewares/lvgl/src/extra/layouts/grid/lv_grid.c ****         }
 331              		.loc 1 725 65 discriminator 3 view .LVU115
 332 012c 36F81210 		ldrh	r1, [r6, r2, lsl #1]
 725:Middlewares/lvgl/src/extra/layouts/grid/lv_grid.c ****         }
 333              		.loc 1 725 53 discriminator 3 view .LVU116
 334 0130 5B1A     		subs	r3, r3, r1
 725:Middlewares/lvgl/src/extra/layouts/grid/lv_grid.c ****         }
 335              		.loc 1 725 26 discriminator 3 view .LVU117
 336 0132 24F81230 		strh	r3, [r4, r2, lsl #1]	@ movhi
 724:Middlewares/lvgl/src/extra/layouts/grid/lv_grid.c ****         for(i = 0; i < track_num; i++) {
 337              		.loc 1 724 35 is_stmt 1 discriminator 3 view .LVU118
 724:Middlewares/lvgl/src/extra/layouts/grid/lv_grid.c ****         for(i = 0; i < track_num; i++) {
 338              		.loc 1 724 36 is_stmt 0 discriminator 3 view .LVU119
 339 0136 0132     		adds	r2, r2, #1
 340              	.LVL43:
 724:Middlewares/lvgl/src/extra/layouts/grid/lv_grid.c ****         for(i = 0; i < track_num; i++) {
 341              		.loc 1 724 36 discriminator 3 view .LVU120
 342 0138 F1E7     		b	.L16
 343              		.cfi_endproc
 344              	.LFE203:
 346 013a 00BF     		.section	.text.count_tracks,"ax",%progbits
 347              		.align	1
 348              		.syntax unified
 349              		.thumb
 350              		.thumb_func
 351              		.fpu softvfp
 353              	count_tracks:
 354              	.LVL44:
 355              	.LFB204:
 733:Middlewares/lvgl/src/extra/layouts/grid/lv_grid.c **** 
 734:Middlewares/lvgl/src/extra/layouts/grid/lv_grid.c **** static uint32_t count_tracks(const lv_coord_t * templ)
 735:Middlewares/lvgl/src/extra/layouts/grid/lv_grid.c **** {
 356              		.loc 1 735 1 is_stmt 1 view -0
 357              		.cfi_startproc
 358              		@ args = 0, pretend = 0, frame = 0
 359              		@ frame_needed = 0, uses_anonymous_args = 0
 360              		@ link register save eliminated.
 361              		.loc 1 735 1 is_stmt 0 view .LVU122
 362 0000 0246     		mov	r2, r0
 736:Middlewares/lvgl/src/extra/layouts/grid/lv_grid.c ****     uint32_t i;
 363              		.loc 1 736 5 is_stmt 1 view .LVU123
 737:Middlewares/lvgl/src/extra/layouts/grid/lv_grid.c ****     for(i = 0; templ[i] != LV_COORD_MAX; i++);
 364              		.loc 1 737 5 view .LVU124
 365              	.LVL45:
 366              		.loc 1 737 11 is_stmt 0 view .LVU125
 367 0002 0020     		movs	r0, #0
 368              	.LVL46:
 369              		.loc 1 737 5 view .LVU126
 370 0004 00E0     		b	.L24
 371              	.LVL47:
 372              	.L25:
 373              		.loc 1 737 46 is_stmt 1 discriminator 3 view .LVU127
ARM GAS  /tmp/cc1NzchT.s 			page 22


 374              		.loc 1 737 42 discriminator 3 view .LVU128
 375              		.loc 1 737 43 is_stmt 0 discriminator 3 view .LVU129
 376 0006 0130     		adds	r0, r0, #1
 377              	.LVL48:
 378              	.L24:
 379              		.loc 1 737 16 is_stmt 1 discriminator 1 view .LVU130
 380              		.loc 1 737 21 is_stmt 0 discriminator 1 view .LVU131
 381 0008 32F91030 		ldrsh	r3, [r2, r0, lsl #1]
 382              		.loc 1 737 5 discriminator 1 view .LVU132
 383 000c B3F5C04F 		cmp	r3, #24576
 384 0010 F9D1     		bne	.L25
 738:Middlewares/lvgl/src/extra/layouts/grid/lv_grid.c **** 
 739:Middlewares/lvgl/src/extra/layouts/grid/lv_grid.c ****     return i;
 385              		.loc 1 739 5 is_stmt 1 view .LVU133
 740:Middlewares/lvgl/src/extra/layouts/grid/lv_grid.c **** }
 386              		.loc 1 740 1 is_stmt 0 view .LVU134
 387 0012 7047     		bx	lr
 388              		.cfi_endproc
 389              	.LFE204:
 391              		.section	.text.item_repos,"ax",%progbits
 392              		.align	1
 393              		.syntax unified
 394              		.thumb
 395              		.thumb_func
 396              		.fpu softvfp
 398              	item_repos:
 399              	.LVL49:
 400              	.LFB202:
 546:Middlewares/lvgl/src/extra/layouts/grid/lv_grid.c ****     if(lv_obj_has_flag_any(item, LV_OBJ_FLAG_IGNORE_LAYOUT | LV_OBJ_FLAG_HIDDEN | LV_OBJ_FLAG_FLOAT
 401              		.loc 1 546 1 is_stmt 1 view -0
 402              		.cfi_startproc
 403              		@ args = 0, pretend = 0, frame = 32
 404              		@ frame_needed = 0, uses_anonymous_args = 0
 546:Middlewares/lvgl/src/extra/layouts/grid/lv_grid.c ****     if(lv_obj_has_flag_any(item, LV_OBJ_FLAG_IGNORE_LAYOUT | LV_OBJ_FLAG_HIDDEN | LV_OBJ_FLAG_FLOAT
 405              		.loc 1 546 1 is_stmt 0 view .LVU136
 406 0000 2DE9F04F 		push	{r4, r5, r6, r7, r8, r9, r10, fp, lr}
 407              	.LCFI1:
 408              		.cfi_def_cfa_offset 36
 409              		.cfi_offset 4, -36
 410              		.cfi_offset 5, -32
 411              		.cfi_offset 6, -28
 412              		.cfi_offset 7, -24
 413              		.cfi_offset 8, -20
 414              		.cfi_offset 9, -16
 415              		.cfi_offset 10, -12
 416              		.cfi_offset 11, -8
 417              		.cfi_offset 14, -4
 418 0004 89B0     		sub	sp, sp, #36
 419              	.LCFI2:
 420              		.cfi_def_cfa_offset 72
 421 0006 0446     		mov	r4, r0
 422 0008 0D46     		mov	r5, r1
 423 000a 0192     		str	r2, [sp, #4]
 547:Middlewares/lvgl/src/extra/layouts/grid/lv_grid.c ****     uint32_t col_span = get_col_span(item);
 424              		.loc 1 547 5 is_stmt 1 view .LVU137
 547:Middlewares/lvgl/src/extra/layouts/grid/lv_grid.c ****     uint32_t col_span = get_col_span(item);
 425              		.loc 1 547 8 is_stmt 0 view .LVU138
ARM GAS  /tmp/cc1NzchT.s 			page 23


 426 000c C249     		ldr	r1, .L54
 427              	.LVL50:
 547:Middlewares/lvgl/src/extra/layouts/grid/lv_grid.c ****     uint32_t col_span = get_col_span(item);
 428              		.loc 1 547 8 view .LVU139
 429 000e FFF7FEFF 		bl	lv_obj_has_flag_any
 430              	.LVL51:
 547:Middlewares/lvgl/src/extra/layouts/grid/lv_grid.c ****     uint32_t col_span = get_col_span(item);
 431              		.loc 1 547 7 view .LVU140
 432 0012 10B1     		cbz	r0, .L49
 433              	.LVL52:
 434              	.L26:
 655:Middlewares/lvgl/src/extra/layouts/grid/lv_grid.c **** 
 435              		.loc 1 655 1 view .LVU141
 436 0014 09B0     		add	sp, sp, #36
 437              	.LCFI3:
 438              		.cfi_remember_state
 439              		.cfi_def_cfa_offset 36
 440              		@ sp needed
 441 0016 BDE8F08F 		pop	{r4, r5, r6, r7, r8, r9, r10, fp, pc}
 442              	.LVL53:
 443              	.L49:
 444              	.LCFI4:
 445              		.cfi_restore_state
 548:Middlewares/lvgl/src/extra/layouts/grid/lv_grid.c ****     uint32_t row_span = get_row_span(item);
 446              		.loc 1 548 5 is_stmt 1 view .LVU142
 447              	.LBB109:
 448              	.LBI109:
  64:Middlewares/lvgl/src/extra/layouts/grid/lv_grid.c **** static inline uint8_t get_row_span(lv_obj_t * obj) {return lv_obj_get_style_grid_cell_row_span(obj,
 449              		.loc 1 64 23 view .LVU143
 450              	.LBB110:
  64:Middlewares/lvgl/src/extra/layouts/grid/lv_grid.c **** static inline uint8_t get_row_span(lv_obj_t * obj) {return lv_obj_get_style_grid_cell_row_span(obj,
 451              		.loc 1 64 53 view .LVU144
 452              	.LBB111:
 453              	.LBI111:
 454              		.file 2 "Middlewares/lvgl/src/extra/layouts/grid/../grid/lv_grid.h"
   1:Middlewares/lvgl/src/extra/layouts/grid/../grid/lv_grid.h **** /**
   2:Middlewares/lvgl/src/extra/layouts/grid/../grid/lv_grid.h ****  * @file lv_grid.h
   3:Middlewares/lvgl/src/extra/layouts/grid/../grid/lv_grid.h ****  *
   4:Middlewares/lvgl/src/extra/layouts/grid/../grid/lv_grid.h ****  */
   5:Middlewares/lvgl/src/extra/layouts/grid/../grid/lv_grid.h **** 
   6:Middlewares/lvgl/src/extra/layouts/grid/../grid/lv_grid.h **** #ifndef LV_GRID_H
   7:Middlewares/lvgl/src/extra/layouts/grid/../grid/lv_grid.h **** #define LV_GRID_H
   8:Middlewares/lvgl/src/extra/layouts/grid/../grid/lv_grid.h **** 
   9:Middlewares/lvgl/src/extra/layouts/grid/../grid/lv_grid.h **** #ifdef __cplusplus
  10:Middlewares/lvgl/src/extra/layouts/grid/../grid/lv_grid.h **** extern "C" {
  11:Middlewares/lvgl/src/extra/layouts/grid/../grid/lv_grid.h **** #endif
  12:Middlewares/lvgl/src/extra/layouts/grid/../grid/lv_grid.h **** 
  13:Middlewares/lvgl/src/extra/layouts/grid/../grid/lv_grid.h **** /*********************
  14:Middlewares/lvgl/src/extra/layouts/grid/../grid/lv_grid.h ****  *      INCLUDES
  15:Middlewares/lvgl/src/extra/layouts/grid/../grid/lv_grid.h ****  *********************/
  16:Middlewares/lvgl/src/extra/layouts/grid/../grid/lv_grid.h **** #include "../../../core/lv_obj.h"
  17:Middlewares/lvgl/src/extra/layouts/grid/../grid/lv_grid.h **** #if LV_USE_GRID
  18:Middlewares/lvgl/src/extra/layouts/grid/../grid/lv_grid.h **** 
  19:Middlewares/lvgl/src/extra/layouts/grid/../grid/lv_grid.h **** /*********************
  20:Middlewares/lvgl/src/extra/layouts/grid/../grid/lv_grid.h ****  *      DEFINES
  21:Middlewares/lvgl/src/extra/layouts/grid/../grid/lv_grid.h ****  *********************/
  22:Middlewares/lvgl/src/extra/layouts/grid/../grid/lv_grid.h **** /**
ARM GAS  /tmp/cc1NzchT.s 			page 24


  23:Middlewares/lvgl/src/extra/layouts/grid/../grid/lv_grid.h ****  * Can be used track size to make the track fill the free space.
  24:Middlewares/lvgl/src/extra/layouts/grid/../grid/lv_grid.h ****  * @param x how much space to take proportionally to other FR tracks
  25:Middlewares/lvgl/src/extra/layouts/grid/../grid/lv_grid.h ****  * @return a special track size
  26:Middlewares/lvgl/src/extra/layouts/grid/../grid/lv_grid.h ****  */
  27:Middlewares/lvgl/src/extra/layouts/grid/../grid/lv_grid.h **** #define LV_GRID_FR(x)          (LV_COORD_MAX - 100 + x)
  28:Middlewares/lvgl/src/extra/layouts/grid/../grid/lv_grid.h **** 
  29:Middlewares/lvgl/src/extra/layouts/grid/../grid/lv_grid.h **** #define LV_GRID_CONTENT        (LV_COORD_MAX - 101)
  30:Middlewares/lvgl/src/extra/layouts/grid/../grid/lv_grid.h **** LV_EXPORT_CONST_INT(LV_GRID_CONTENT);
  31:Middlewares/lvgl/src/extra/layouts/grid/../grid/lv_grid.h **** 
  32:Middlewares/lvgl/src/extra/layouts/grid/../grid/lv_grid.h **** #define LV_GRID_TEMPLATE_LAST  (LV_COORD_MAX)
  33:Middlewares/lvgl/src/extra/layouts/grid/../grid/lv_grid.h **** LV_EXPORT_CONST_INT(LV_GRID_TEMPLATE_LAST);
  34:Middlewares/lvgl/src/extra/layouts/grid/../grid/lv_grid.h **** 
  35:Middlewares/lvgl/src/extra/layouts/grid/../grid/lv_grid.h **** /**********************
  36:Middlewares/lvgl/src/extra/layouts/grid/../grid/lv_grid.h ****  *      TYPEDEFS
  37:Middlewares/lvgl/src/extra/layouts/grid/../grid/lv_grid.h ****  **********************/
  38:Middlewares/lvgl/src/extra/layouts/grid/../grid/lv_grid.h **** 
  39:Middlewares/lvgl/src/extra/layouts/grid/../grid/lv_grid.h **** /*Can't include lv_obj.h because it includes this header file*/
  40:Middlewares/lvgl/src/extra/layouts/grid/../grid/lv_grid.h **** struct _lv_obj_t;
  41:Middlewares/lvgl/src/extra/layouts/grid/../grid/lv_grid.h **** 
  42:Middlewares/lvgl/src/extra/layouts/grid/../grid/lv_grid.h **** typedef enum {
  43:Middlewares/lvgl/src/extra/layouts/grid/../grid/lv_grid.h ****     LV_GRID_ALIGN_START,
  44:Middlewares/lvgl/src/extra/layouts/grid/../grid/lv_grid.h ****     LV_GRID_ALIGN_CENTER,
  45:Middlewares/lvgl/src/extra/layouts/grid/../grid/lv_grid.h ****     LV_GRID_ALIGN_END,
  46:Middlewares/lvgl/src/extra/layouts/grid/../grid/lv_grid.h ****     LV_GRID_ALIGN_STRETCH,
  47:Middlewares/lvgl/src/extra/layouts/grid/../grid/lv_grid.h ****     LV_GRID_ALIGN_SPACE_EVENLY,
  48:Middlewares/lvgl/src/extra/layouts/grid/../grid/lv_grid.h ****     LV_GRID_ALIGN_SPACE_AROUND,
  49:Middlewares/lvgl/src/extra/layouts/grid/../grid/lv_grid.h ****     LV_GRID_ALIGN_SPACE_BETWEEN,
  50:Middlewares/lvgl/src/extra/layouts/grid/../grid/lv_grid.h **** }lv_grid_align_t;
  51:Middlewares/lvgl/src/extra/layouts/grid/../grid/lv_grid.h **** 
  52:Middlewares/lvgl/src/extra/layouts/grid/../grid/lv_grid.h **** /**********************
  53:Middlewares/lvgl/src/extra/layouts/grid/../grid/lv_grid.h ****  * GLOBAL VARIABLES
  54:Middlewares/lvgl/src/extra/layouts/grid/../grid/lv_grid.h ****  **********************/
  55:Middlewares/lvgl/src/extra/layouts/grid/../grid/lv_grid.h **** 
  56:Middlewares/lvgl/src/extra/layouts/grid/../grid/lv_grid.h **** extern uint32_t LV_LAYOUT_GRID;
  57:Middlewares/lvgl/src/extra/layouts/grid/../grid/lv_grid.h **** extern lv_style_prop_t LV_STYLE_GRID_COLUMN_DSC_ARRAY;
  58:Middlewares/lvgl/src/extra/layouts/grid/../grid/lv_grid.h **** extern lv_style_prop_t LV_STYLE_GRID_COLUMN_ALIGN;
  59:Middlewares/lvgl/src/extra/layouts/grid/../grid/lv_grid.h **** extern lv_style_prop_t LV_STYLE_GRID_ROW_DSC_ARRAY;
  60:Middlewares/lvgl/src/extra/layouts/grid/../grid/lv_grid.h **** extern lv_style_prop_t LV_STYLE_GRID_ROW_ALIGN;
  61:Middlewares/lvgl/src/extra/layouts/grid/../grid/lv_grid.h **** extern lv_style_prop_t LV_STYLE_GRID_CELL_COLUMN_POS;
  62:Middlewares/lvgl/src/extra/layouts/grid/../grid/lv_grid.h **** extern lv_style_prop_t LV_STYLE_GRID_CELL_COLUMN_SPAN;
  63:Middlewares/lvgl/src/extra/layouts/grid/../grid/lv_grid.h **** extern lv_style_prop_t LV_STYLE_GRID_CELL_X_ALIGN;
  64:Middlewares/lvgl/src/extra/layouts/grid/../grid/lv_grid.h **** extern lv_style_prop_t LV_STYLE_GRID_CELL_ROW_POS;
  65:Middlewares/lvgl/src/extra/layouts/grid/../grid/lv_grid.h **** extern lv_style_prop_t LV_STYLE_GRID_CELL_ROW_SPAN;
  66:Middlewares/lvgl/src/extra/layouts/grid/../grid/lv_grid.h **** extern lv_style_prop_t LV_STYLE_GRID_CELL_Y_ALIGN;
  67:Middlewares/lvgl/src/extra/layouts/grid/../grid/lv_grid.h **** 
  68:Middlewares/lvgl/src/extra/layouts/grid/../grid/lv_grid.h **** /**********************
  69:Middlewares/lvgl/src/extra/layouts/grid/../grid/lv_grid.h ****  * GLOBAL PROTOTYPES
  70:Middlewares/lvgl/src/extra/layouts/grid/../grid/lv_grid.h ****  **********************/
  71:Middlewares/lvgl/src/extra/layouts/grid/../grid/lv_grid.h **** 
  72:Middlewares/lvgl/src/extra/layouts/grid/../grid/lv_grid.h **** void lv_grid_init(void);
  73:Middlewares/lvgl/src/extra/layouts/grid/../grid/lv_grid.h **** 
  74:Middlewares/lvgl/src/extra/layouts/grid/../grid/lv_grid.h **** void lv_obj_set_grid_dsc_array(lv_obj_t * obj, const lv_coord_t col_dsc[], const lv_coord_t row_dsc
  75:Middlewares/lvgl/src/extra/layouts/grid/../grid/lv_grid.h **** 
  76:Middlewares/lvgl/src/extra/layouts/grid/../grid/lv_grid.h **** void lv_obj_set_grid_align(lv_obj_t * obj, lv_grid_align_t column_align, lv_grid_align_t row_align)
  77:Middlewares/lvgl/src/extra/layouts/grid/../grid/lv_grid.h **** 
  78:Middlewares/lvgl/src/extra/layouts/grid/../grid/lv_grid.h **** /**
  79:Middlewares/lvgl/src/extra/layouts/grid/../grid/lv_grid.h ****  * Set the cell of an object. The object's parent needs to have grid layout, else nothing will happ
ARM GAS  /tmp/cc1NzchT.s 			page 25


  80:Middlewares/lvgl/src/extra/layouts/grid/../grid/lv_grid.h ****  * @param obj pointer to an object
  81:Middlewares/lvgl/src/extra/layouts/grid/../grid/lv_grid.h ****  * @param hor_place the vertical alignment in the cell. `LV_GRID_START/END/CENTER/STRETCH`
  82:Middlewares/lvgl/src/extra/layouts/grid/../grid/lv_grid.h ****  * @param col_pos column ID
  83:Middlewares/lvgl/src/extra/layouts/grid/../grid/lv_grid.h ****  * @param col_span number of columns to take (>= 1)
  84:Middlewares/lvgl/src/extra/layouts/grid/../grid/lv_grid.h ****  * @param ver_place the horizontal alignment in the cell. `LV_GRID_START/END/CENTER/STRETCH`
  85:Middlewares/lvgl/src/extra/layouts/grid/../grid/lv_grid.h ****  * @param row_pos row ID
  86:Middlewares/lvgl/src/extra/layouts/grid/../grid/lv_grid.h ****  * @param row_span number of rows to take (>= 1)
  87:Middlewares/lvgl/src/extra/layouts/grid/../grid/lv_grid.h ****  */
  88:Middlewares/lvgl/src/extra/layouts/grid/../grid/lv_grid.h **** void lv_obj_set_grid_cell(lv_obj_t * obj, lv_grid_align_t column_align, uint8_t col_pos, uint8_t co
  89:Middlewares/lvgl/src/extra/layouts/grid/../grid/lv_grid.h ****                                           lv_grid_align_t row_align, uint8_t row_pos, uint8_t row_s
  90:Middlewares/lvgl/src/extra/layouts/grid/../grid/lv_grid.h **** 
  91:Middlewares/lvgl/src/extra/layouts/grid/../grid/lv_grid.h **** /**
  92:Middlewares/lvgl/src/extra/layouts/grid/../grid/lv_grid.h ****  * Just a wrapper to `LV_GRID_FR` for bindings.
  93:Middlewares/lvgl/src/extra/layouts/grid/../grid/lv_grid.h ****  */
  94:Middlewares/lvgl/src/extra/layouts/grid/../grid/lv_grid.h **** static inline lv_coord_t lv_grid_fr(uint8_t x)
  95:Middlewares/lvgl/src/extra/layouts/grid/../grid/lv_grid.h **** {
  96:Middlewares/lvgl/src/extra/layouts/grid/../grid/lv_grid.h ****     return LV_GRID_FR(x);
  97:Middlewares/lvgl/src/extra/layouts/grid/../grid/lv_grid.h **** }
  98:Middlewares/lvgl/src/extra/layouts/grid/../grid/lv_grid.h **** 
  99:Middlewares/lvgl/src/extra/layouts/grid/../grid/lv_grid.h **** void lv_style_set_grid_row_dsc_array(lv_style_t * style, const lv_coord_t value[]);
 100:Middlewares/lvgl/src/extra/layouts/grid/../grid/lv_grid.h **** void lv_style_set_grid_column_dsc_array(lv_style_t * style, const lv_coord_t value[]);
 101:Middlewares/lvgl/src/extra/layouts/grid/../grid/lv_grid.h **** void lv_style_set_grid_row_align(lv_style_t * style, lv_grid_align_t value);
 102:Middlewares/lvgl/src/extra/layouts/grid/../grid/lv_grid.h **** void lv_style_set_grid_column_align(lv_style_t * style, lv_grid_align_t value);
 103:Middlewares/lvgl/src/extra/layouts/grid/../grid/lv_grid.h **** void lv_style_set_grid_cell_column_pos(lv_style_t * style, lv_coord_t value);
 104:Middlewares/lvgl/src/extra/layouts/grid/../grid/lv_grid.h **** void lv_style_set_grid_cell_column_span(lv_style_t * style, lv_coord_t value);
 105:Middlewares/lvgl/src/extra/layouts/grid/../grid/lv_grid.h **** void lv_style_set_grid_cell_row_pos(lv_style_t * style, lv_coord_t value);
 106:Middlewares/lvgl/src/extra/layouts/grid/../grid/lv_grid.h **** void lv_style_set_grid_cell_row_span(lv_style_t * style, lv_coord_t value);
 107:Middlewares/lvgl/src/extra/layouts/grid/../grid/lv_grid.h **** void lv_style_set_grid_cell_x_align(lv_style_t * style, lv_coord_t value);
 108:Middlewares/lvgl/src/extra/layouts/grid/../grid/lv_grid.h **** void lv_style_set_grid_cell_y_align(lv_style_t * style, lv_coord_t value);
 109:Middlewares/lvgl/src/extra/layouts/grid/../grid/lv_grid.h **** 
 110:Middlewares/lvgl/src/extra/layouts/grid/../grid/lv_grid.h **** void lv_obj_set_style_grid_row_dsc_array(lv_obj_t * obj, const lv_coord_t value[], lv_style_selecto
 111:Middlewares/lvgl/src/extra/layouts/grid/../grid/lv_grid.h **** void lv_obj_set_style_grid_column_dsc_array(lv_obj_t * obj, const lv_coord_t value[], lv_style_sele
 112:Middlewares/lvgl/src/extra/layouts/grid/../grid/lv_grid.h **** void lv_obj_set_style_grid_row_align(lv_obj_t * obj, lv_grid_align_t value, lv_style_selector_t sel
 113:Middlewares/lvgl/src/extra/layouts/grid/../grid/lv_grid.h **** void lv_obj_set_style_grid_column_align(lv_obj_t * obj, lv_grid_align_t value, lv_style_selector_t 
 114:Middlewares/lvgl/src/extra/layouts/grid/../grid/lv_grid.h **** void lv_obj_set_style_grid_cell_column_pos(lv_obj_t * obj, lv_coord_t value, lv_style_selector_t se
 115:Middlewares/lvgl/src/extra/layouts/grid/../grid/lv_grid.h **** void lv_obj_set_style_grid_cell_column_span(lv_obj_t * obj, lv_coord_t value, lv_style_selector_t s
 116:Middlewares/lvgl/src/extra/layouts/grid/../grid/lv_grid.h **** void lv_obj_set_style_grid_cell_row_pos(lv_obj_t * obj, lv_coord_t value, lv_style_selector_t selec
 117:Middlewares/lvgl/src/extra/layouts/grid/../grid/lv_grid.h **** void lv_obj_set_style_grid_cell_row_span(lv_obj_t * obj, lv_coord_t value, lv_style_selector_t sele
 118:Middlewares/lvgl/src/extra/layouts/grid/../grid/lv_grid.h **** void lv_obj_set_style_grid_cell_x_align(lv_obj_t * obj, lv_coord_t value, lv_style_selector_t selec
 119:Middlewares/lvgl/src/extra/layouts/grid/../grid/lv_grid.h **** void lv_obj_set_style_grid_cell_y_align(lv_obj_t * obj, lv_coord_t value, lv_style_selector_t selec
 120:Middlewares/lvgl/src/extra/layouts/grid/../grid/lv_grid.h **** 
 121:Middlewares/lvgl/src/extra/layouts/grid/../grid/lv_grid.h **** static inline const lv_coord_t * lv_obj_get_style_grid_row_dsc_array(const lv_obj_t * obj, uint32_t
 122:Middlewares/lvgl/src/extra/layouts/grid/../grid/lv_grid.h **** {
 123:Middlewares/lvgl/src/extra/layouts/grid/../grid/lv_grid.h ****     lv_style_value_t v = lv_obj_get_style_prop(obj, part, LV_STYLE_GRID_ROW_DSC_ARRAY);
 124:Middlewares/lvgl/src/extra/layouts/grid/../grid/lv_grid.h ****     return (const lv_coord_t *)v.ptr;
 125:Middlewares/lvgl/src/extra/layouts/grid/../grid/lv_grid.h **** }
 126:Middlewares/lvgl/src/extra/layouts/grid/../grid/lv_grid.h **** 
 127:Middlewares/lvgl/src/extra/layouts/grid/../grid/lv_grid.h **** static inline const lv_coord_t * lv_obj_get_style_grid_column_dsc_array(const lv_obj_t * obj, uint3
 128:Middlewares/lvgl/src/extra/layouts/grid/../grid/lv_grid.h **** {
 129:Middlewares/lvgl/src/extra/layouts/grid/../grid/lv_grid.h ****     lv_style_value_t v = lv_obj_get_style_prop(obj, part, LV_STYLE_GRID_COLUMN_DSC_ARRAY);
 130:Middlewares/lvgl/src/extra/layouts/grid/../grid/lv_grid.h ****     return (const lv_coord_t *)v.ptr;
 131:Middlewares/lvgl/src/extra/layouts/grid/../grid/lv_grid.h **** }
 132:Middlewares/lvgl/src/extra/layouts/grid/../grid/lv_grid.h **** 
 133:Middlewares/lvgl/src/extra/layouts/grid/../grid/lv_grid.h **** static inline lv_grid_align_t lv_obj_get_style_grid_row_align(const lv_obj_t * obj, uint32_t part)
 134:Middlewares/lvgl/src/extra/layouts/grid/../grid/lv_grid.h **** {
 135:Middlewares/lvgl/src/extra/layouts/grid/../grid/lv_grid.h ****     lv_style_value_t v = lv_obj_get_style_prop(obj, part, LV_STYLE_GRID_ROW_ALIGN);
 136:Middlewares/lvgl/src/extra/layouts/grid/../grid/lv_grid.h ****     return (lv_grid_align_t)v.num;
ARM GAS  /tmp/cc1NzchT.s 			page 26


 137:Middlewares/lvgl/src/extra/layouts/grid/../grid/lv_grid.h **** }
 138:Middlewares/lvgl/src/extra/layouts/grid/../grid/lv_grid.h **** 
 139:Middlewares/lvgl/src/extra/layouts/grid/../grid/lv_grid.h **** static inline lv_grid_align_t lv_obj_get_style_grid_column_align(const lv_obj_t * obj, uint32_t par
 140:Middlewares/lvgl/src/extra/layouts/grid/../grid/lv_grid.h **** {
 141:Middlewares/lvgl/src/extra/layouts/grid/../grid/lv_grid.h ****     lv_style_value_t v = lv_obj_get_style_prop(obj, part, LV_STYLE_GRID_COLUMN_ALIGN);
 142:Middlewares/lvgl/src/extra/layouts/grid/../grid/lv_grid.h ****     return (lv_grid_align_t)v.num;
 143:Middlewares/lvgl/src/extra/layouts/grid/../grid/lv_grid.h **** }
 144:Middlewares/lvgl/src/extra/layouts/grid/../grid/lv_grid.h **** 
 145:Middlewares/lvgl/src/extra/layouts/grid/../grid/lv_grid.h **** static inline lv_coord_t lv_obj_get_style_grid_cell_column_pos(const lv_obj_t * obj, uint32_t part)
 146:Middlewares/lvgl/src/extra/layouts/grid/../grid/lv_grid.h **** {
 147:Middlewares/lvgl/src/extra/layouts/grid/../grid/lv_grid.h ****     lv_style_value_t v = lv_obj_get_style_prop(obj, part, LV_STYLE_GRID_CELL_COLUMN_POS);
 148:Middlewares/lvgl/src/extra/layouts/grid/../grid/lv_grid.h ****     return (lv_coord_t)v.num;
 149:Middlewares/lvgl/src/extra/layouts/grid/../grid/lv_grid.h **** }
 150:Middlewares/lvgl/src/extra/layouts/grid/../grid/lv_grid.h **** 
 151:Middlewares/lvgl/src/extra/layouts/grid/../grid/lv_grid.h **** static inline lv_coord_t lv_obj_get_style_grid_cell_column_span(const lv_obj_t * obj, uint32_t part
 455              		.loc 2 151 26 view .LVU145
 456              	.LBB112:
 152:Middlewares/lvgl/src/extra/layouts/grid/../grid/lv_grid.h **** {
 153:Middlewares/lvgl/src/extra/layouts/grid/../grid/lv_grid.h ****     lv_style_value_t v = lv_obj_get_style_prop(obj, part, LV_STYLE_GRID_CELL_COLUMN_SPAN);
 457              		.loc 2 153 5 view .LVU146
 458              		.loc 2 153 26 is_stmt 0 view .LVU147
 459 001a C04B     		ldr	r3, .L54+4
 460 001c 1A88     		ldrh	r2, [r3]
 461 001e 0021     		movs	r1, #0
 462 0020 2046     		mov	r0, r4
 463 0022 FFF7FEFF 		bl	lv_obj_get_style_prop
 464              	.LVL54:
 154:Middlewares/lvgl/src/extra/layouts/grid/../grid/lv_grid.h ****     return (lv_coord_t)v.num;
 465              		.loc 2 154 5 is_stmt 1 view .LVU148
 466              		.loc 2 154 5 is_stmt 0 view .LVU149
 467              	.LBE112:
 468              	.LBE111:
  64:Middlewares/lvgl/src/extra/layouts/grid/lv_grid.c **** static inline uint8_t get_row_span(lv_obj_t * obj) {return lv_obj_get_style_grid_cell_row_span(obj,
 469              		.loc 1 64 60 view .LVU150
 470 0026 C7B2     		uxtb	r7, r0
 471              	.LVL55:
  64:Middlewares/lvgl/src/extra/layouts/grid/lv_grid.c **** static inline uint8_t get_row_span(lv_obj_t * obj) {return lv_obj_get_style_grid_cell_row_span(obj,
 472              		.loc 1 64 60 view .LVU151
 473              	.LBE110:
 474              	.LBE109:
 549:Middlewares/lvgl/src/extra/layouts/grid/lv_grid.c ****     if(row_span == 0 || col_span == 0) return;
 475              		.loc 1 549 5 is_stmt 1 view .LVU152
 476              	.LBB113:
 477              	.LBI113:
  65:Middlewares/lvgl/src/extra/layouts/grid/lv_grid.c **** static inline uint8_t get_cell_col_align(lv_obj_t * obj) {return lv_obj_get_style_grid_cell_x_align
 478              		.loc 1 65 23 view .LVU153
 479              	.LBB114:
  65:Middlewares/lvgl/src/extra/layouts/grid/lv_grid.c **** static inline uint8_t get_cell_col_align(lv_obj_t * obj) {return lv_obj_get_style_grid_cell_x_align
 480              		.loc 1 65 53 view .LVU154
 481              	.LBB115:
 482              	.LBI115:
 155:Middlewares/lvgl/src/extra/layouts/grid/../grid/lv_grid.h **** }
 156:Middlewares/lvgl/src/extra/layouts/grid/../grid/lv_grid.h **** 
 157:Middlewares/lvgl/src/extra/layouts/grid/../grid/lv_grid.h **** static inline lv_coord_t lv_obj_get_style_grid_cell_row_pos(const lv_obj_t * obj, uint32_t part)
 158:Middlewares/lvgl/src/extra/layouts/grid/../grid/lv_grid.h **** {
 159:Middlewares/lvgl/src/extra/layouts/grid/../grid/lv_grid.h ****     lv_style_value_t v = lv_obj_get_style_prop(obj, part, LV_STYLE_GRID_CELL_ROW_POS);
 160:Middlewares/lvgl/src/extra/layouts/grid/../grid/lv_grid.h ****     return (lv_coord_t)v.num;
ARM GAS  /tmp/cc1NzchT.s 			page 27


 161:Middlewares/lvgl/src/extra/layouts/grid/../grid/lv_grid.h **** }
 162:Middlewares/lvgl/src/extra/layouts/grid/../grid/lv_grid.h **** 
 163:Middlewares/lvgl/src/extra/layouts/grid/../grid/lv_grid.h **** static inline lv_coord_t lv_obj_get_style_grid_cell_row_span(const lv_obj_t * obj, uint32_t part)
 483              		.loc 2 163 26 view .LVU155
 484              	.LBB116:
 164:Middlewares/lvgl/src/extra/layouts/grid/../grid/lv_grid.h **** {
 165:Middlewares/lvgl/src/extra/layouts/grid/../grid/lv_grid.h ****     lv_style_value_t v = lv_obj_get_style_prop(obj, part, LV_STYLE_GRID_CELL_ROW_SPAN);
 485              		.loc 2 165 5 view .LVU156
 486              		.loc 2 165 26 is_stmt 0 view .LVU157
 487 0028 BD4B     		ldr	r3, .L54+8
 488 002a 1A88     		ldrh	r2, [r3]
 489 002c 0021     		movs	r1, #0
 490 002e 2046     		mov	r0, r4
 491 0030 FFF7FEFF 		bl	lv_obj_get_style_prop
 492              	.LVL56:
 166:Middlewares/lvgl/src/extra/layouts/grid/../grid/lv_grid.h ****     return (lv_coord_t)v.num;
 493              		.loc 2 166 5 is_stmt 1 view .LVU158
 494              		.loc 2 166 5 is_stmt 0 view .LVU159
 495              	.LBE116:
 496              	.LBE115:
 497              	.LBE114:
 498              	.LBE113:
 550:Middlewares/lvgl/src/extra/layouts/grid/lv_grid.c **** 
 499              		.loc 1 550 5 is_stmt 1 view .LVU160
 550:Middlewares/lvgl/src/extra/layouts/grid/lv_grid.c **** 
 500              		.loc 1 550 7 is_stmt 0 view .LVU161
 501 0034 10F0FF06 		ands	r6, r0, #255
 502 0038 ECD0     		beq	.L26
 550:Middlewares/lvgl/src/extra/layouts/grid/lv_grid.c **** 
 503              		.loc 1 550 22 discriminator 2 view .LVU162
 504 003a 002F     		cmp	r7, #0
 505 003c EAD0     		beq	.L26
 552:Middlewares/lvgl/src/extra/layouts/grid/lv_grid.c ****     uint32_t row_pos = get_row_pos(item);
 506              		.loc 1 552 5 is_stmt 1 view .LVU163
 507              	.LVL57:
 508              	.LBB117:
 509              	.LBI117:
  62:Middlewares/lvgl/src/extra/layouts/grid/lv_grid.c **** static inline uint8_t get_row_pos(lv_obj_t * obj) {return lv_obj_get_style_grid_cell_row_pos(obj, 0
 510              		.loc 1 62 23 view .LVU164
 511              	.LBB118:
  62:Middlewares/lvgl/src/extra/layouts/grid/lv_grid.c **** static inline uint8_t get_row_pos(lv_obj_t * obj) {return lv_obj_get_style_grid_cell_row_pos(obj, 0
 512              		.loc 1 62 52 view .LVU165
 513              	.LBB119:
 514              	.LBI119:
 145:Middlewares/lvgl/src/extra/layouts/grid/../grid/lv_grid.h **** {
 515              		.loc 2 145 26 view .LVU166
 516              	.LBB120:
 147:Middlewares/lvgl/src/extra/layouts/grid/../grid/lv_grid.h ****     return (lv_coord_t)v.num;
 517              		.loc 2 147 5 view .LVU167
 147:Middlewares/lvgl/src/extra/layouts/grid/../grid/lv_grid.h ****     return (lv_coord_t)v.num;
 518              		.loc 2 147 26 is_stmt 0 view .LVU168
 519 003e B94B     		ldr	r3, .L54+12
 520 0040 1A88     		ldrh	r2, [r3]
 521 0042 0021     		movs	r1, #0
 522 0044 2046     		mov	r0, r4
 523              	.LVL58:
 147:Middlewares/lvgl/src/extra/layouts/grid/../grid/lv_grid.h ****     return (lv_coord_t)v.num;
ARM GAS  /tmp/cc1NzchT.s 			page 28


 524              		.loc 2 147 26 view .LVU169
 525 0046 FFF7FEFF 		bl	lv_obj_get_style_prop
 526              	.LVL59:
 148:Middlewares/lvgl/src/extra/layouts/grid/../grid/lv_grid.h **** }
 527              		.loc 2 148 5 is_stmt 1 view .LVU170
 148:Middlewares/lvgl/src/extra/layouts/grid/../grid/lv_grid.h **** }
 528              		.loc 2 148 5 is_stmt 0 view .LVU171
 529              	.LBE120:
 530              	.LBE119:
  62:Middlewares/lvgl/src/extra/layouts/grid/lv_grid.c **** static inline uint8_t get_row_pos(lv_obj_t * obj) {return lv_obj_get_style_grid_cell_row_pos(obj, 0
 531              		.loc 1 62 59 view .LVU172
 532 004a 5FFA80FB 		uxtb	fp, r0
 533              	.LVL60:
  62:Middlewares/lvgl/src/extra/layouts/grid/lv_grid.c **** static inline uint8_t get_row_pos(lv_obj_t * obj) {return lv_obj_get_style_grid_cell_row_pos(obj, 0
 534              		.loc 1 62 59 view .LVU173
 535              	.LBE118:
 536              	.LBE117:
 553:Middlewares/lvgl/src/extra/layouts/grid/lv_grid.c ****     lv_grid_align_t col_align = get_cell_col_align(item);
 537              		.loc 1 553 5 is_stmt 1 view .LVU174
 538              	.LBB121:
 539              	.LBI121:
  63:Middlewares/lvgl/src/extra/layouts/grid/lv_grid.c **** static inline uint8_t get_col_span(lv_obj_t * obj) {return lv_obj_get_style_grid_cell_column_span(o
 540              		.loc 1 63 23 view .LVU175
 541              	.LBB122:
  63:Middlewares/lvgl/src/extra/layouts/grid/lv_grid.c **** static inline uint8_t get_col_span(lv_obj_t * obj) {return lv_obj_get_style_grid_cell_column_span(o
 542              		.loc 1 63 52 view .LVU176
 543              	.LBB123:
 544              	.LBI123:
 157:Middlewares/lvgl/src/extra/layouts/grid/../grid/lv_grid.h **** {
 545              		.loc 2 157 26 view .LVU177
 546              	.LBB124:
 159:Middlewares/lvgl/src/extra/layouts/grid/../grid/lv_grid.h ****     return (lv_coord_t)v.num;
 547              		.loc 2 159 5 view .LVU178
 159:Middlewares/lvgl/src/extra/layouts/grid/../grid/lv_grid.h ****     return (lv_coord_t)v.num;
 548              		.loc 2 159 26 is_stmt 0 view .LVU179
 549 004e B64B     		ldr	r3, .L54+16
 550 0050 1A88     		ldrh	r2, [r3]
 551 0052 0021     		movs	r1, #0
 552 0054 2046     		mov	r0, r4
 553 0056 FFF7FEFF 		bl	lv_obj_get_style_prop
 554              	.LVL61:
 160:Middlewares/lvgl/src/extra/layouts/grid/../grid/lv_grid.h **** }
 555              		.loc 2 160 5 is_stmt 1 view .LVU180
 160:Middlewares/lvgl/src/extra/layouts/grid/../grid/lv_grid.h **** }
 556              		.loc 2 160 5 is_stmt 0 view .LVU181
 557              	.LBE124:
 558              	.LBE123:
  63:Middlewares/lvgl/src/extra/layouts/grid/lv_grid.c **** static inline uint8_t get_col_span(lv_obj_t * obj) {return lv_obj_get_style_grid_cell_column_span(o
 559              		.loc 1 63 59 view .LVU182
 560 005a 5FFA80FA 		uxtb	r10, r0
 561              	.LVL62:
  63:Middlewares/lvgl/src/extra/layouts/grid/lv_grid.c **** static inline uint8_t get_col_span(lv_obj_t * obj) {return lv_obj_get_style_grid_cell_column_span(o
 562              		.loc 1 63 59 view .LVU183
 563              	.LBE122:
 564              	.LBE121:
 554:Middlewares/lvgl/src/extra/layouts/grid/lv_grid.c ****     lv_grid_align_t row_align = get_cell_row_align(item);
 565              		.loc 1 554 5 is_stmt 1 view .LVU184
ARM GAS  /tmp/cc1NzchT.s 			page 29


 566              	.LBB125:
 567              	.LBI125:
  66:Middlewares/lvgl/src/extra/layouts/grid/lv_grid.c **** static inline uint8_t get_cell_row_align(lv_obj_t * obj) {return lv_obj_get_style_grid_cell_y_align
 568              		.loc 1 66 23 view .LVU185
 569              	.LBB126:
  66:Middlewares/lvgl/src/extra/layouts/grid/lv_grid.c **** static inline uint8_t get_cell_row_align(lv_obj_t * obj) {return lv_obj_get_style_grid_cell_y_align
 570              		.loc 1 66 59 view .LVU186
 571              	.LBB127:
 572              	.LBI127:
 167:Middlewares/lvgl/src/extra/layouts/grid/../grid/lv_grid.h **** }
 168:Middlewares/lvgl/src/extra/layouts/grid/../grid/lv_grid.h **** 
 169:Middlewares/lvgl/src/extra/layouts/grid/../grid/lv_grid.h **** static inline lv_coord_t lv_obj_get_style_grid_cell_x_align(const lv_obj_t * obj, uint32_t part)
 573              		.loc 2 169 26 view .LVU187
 574              	.LBB128:
 170:Middlewares/lvgl/src/extra/layouts/grid/../grid/lv_grid.h **** {
 171:Middlewares/lvgl/src/extra/layouts/grid/../grid/lv_grid.h ****     lv_style_value_t v = lv_obj_get_style_prop(obj, part, LV_STYLE_GRID_CELL_X_ALIGN);
 575              		.loc 2 171 5 view .LVU188
 576              		.loc 2 171 26 is_stmt 0 view .LVU189
 577 005e B34B     		ldr	r3, .L54+20
 578 0060 1A88     		ldrh	r2, [r3]
 579 0062 0021     		movs	r1, #0
 580 0064 2046     		mov	r0, r4
 581 0066 FFF7FEFF 		bl	lv_obj_get_style_prop
 582              	.LVL63:
 172:Middlewares/lvgl/src/extra/layouts/grid/../grid/lv_grid.h ****     return (lv_coord_t)v.num;
 583              		.loc 2 172 5 is_stmt 1 view .LVU190
 584              		.loc 2 172 5 is_stmt 0 view .LVU191
 585              	.LBE128:
 586              	.LBE127:
  66:Middlewares/lvgl/src/extra/layouts/grid/lv_grid.c **** static inline uint8_t get_cell_row_align(lv_obj_t * obj) {return lv_obj_get_style_grid_cell_y_align
 587              		.loc 1 66 66 view .LVU192
 588 006a 5FFA80F8 		uxtb	r8, r0
 589              	.LVL64:
  66:Middlewares/lvgl/src/extra/layouts/grid/lv_grid.c **** static inline uint8_t get_cell_row_align(lv_obj_t * obj) {return lv_obj_get_style_grid_cell_y_align
 590              		.loc 1 66 66 view .LVU193
 591              	.LBE126:
 592              	.LBE125:
 555:Middlewares/lvgl/src/extra/layouts/grid/lv_grid.c **** 
 593              		.loc 1 555 5 is_stmt 1 view .LVU194
 594              	.LBB129:
 595              	.LBI129:
  67:Middlewares/lvgl/src/extra/layouts/grid/lv_grid.c **** static inline uint8_t get_grid_col_align(lv_obj_t * obj) {return lv_obj_get_style_grid_column_align
 596              		.loc 1 67 23 view .LVU195
 597              	.LBB130:
  67:Middlewares/lvgl/src/extra/layouts/grid/lv_grid.c **** static inline uint8_t get_grid_col_align(lv_obj_t * obj) {return lv_obj_get_style_grid_column_align
 598              		.loc 1 67 59 view .LVU196
 599              	.LBB131:
 600              	.LBI131:
 173:Middlewares/lvgl/src/extra/layouts/grid/../grid/lv_grid.h **** }
 174:Middlewares/lvgl/src/extra/layouts/grid/../grid/lv_grid.h **** 
 175:Middlewares/lvgl/src/extra/layouts/grid/../grid/lv_grid.h **** static inline lv_coord_t lv_obj_get_style_grid_cell_y_align(const lv_obj_t * obj, uint32_t part)
 601              		.loc 2 175 26 view .LVU197
 602              	.LBB132:
 176:Middlewares/lvgl/src/extra/layouts/grid/../grid/lv_grid.h **** {
 177:Middlewares/lvgl/src/extra/layouts/grid/../grid/lv_grid.h ****     lv_style_value_t v = lv_obj_get_style_prop(obj, part, LV_STYLE_GRID_CELL_Y_ALIGN);
 603              		.loc 2 177 5 view .LVU198
 604              		.loc 2 177 26 is_stmt 0 view .LVU199
ARM GAS  /tmp/cc1NzchT.s 			page 30


 605 006e B04B     		ldr	r3, .L54+24
 606 0070 1A88     		ldrh	r2, [r3]
 607 0072 0021     		movs	r1, #0
 608 0074 2046     		mov	r0, r4
 609 0076 FFF7FEFF 		bl	lv_obj_get_style_prop
 610              	.LVL65:
 178:Middlewares/lvgl/src/extra/layouts/grid/../grid/lv_grid.h ****     return (lv_coord_t)v.num;
 611              		.loc 2 178 5 is_stmt 1 view .LVU200
 612              		.loc 2 178 5 is_stmt 0 view .LVU201
 613              	.LBE132:
 614              	.LBE131:
  67:Middlewares/lvgl/src/extra/layouts/grid/lv_grid.c **** static inline uint8_t get_grid_col_align(lv_obj_t * obj) {return lv_obj_get_style_grid_column_align
 615              		.loc 1 67 66 view .LVU202
 616 007a 5FFA80F9 		uxtb	r9, r0
 617              	.LVL66:
  67:Middlewares/lvgl/src/extra/layouts/grid/lv_grid.c **** static inline uint8_t get_grid_col_align(lv_obj_t * obj) {return lv_obj_get_style_grid_column_align
 618              		.loc 1 67 66 view .LVU203
 619              	.LBE130:
 620              	.LBE129:
 558:Middlewares/lvgl/src/extra/layouts/grid/lv_grid.c ****     lv_coord_t col_x2 = c->x[col_pos + col_span - 1] + c->w[col_pos + col_span - 1];
 621              		.loc 1 558 5 is_stmt 1 view .LVU204
 558:Middlewares/lvgl/src/extra/layouts/grid/lv_grid.c ****     lv_coord_t col_x2 = c->x[col_pos + col_span - 1] + c->w[col_pos + col_span - 1];
 622              		.loc 1 558 26 is_stmt 0 view .LVU205
 623 007e 2B68     		ldr	r3, [r5]
 558:Middlewares/lvgl/src/extra/layouts/grid/lv_grid.c ****     lv_coord_t col_x2 = c->x[col_pos + col_span - 1] + c->w[col_pos + col_span - 1];
 624              		.loc 1 558 16 view .LVU206
 625 0080 33F91B20 		ldrsh	r2, [r3, fp, lsl #1]
 626              	.LVL67:
 559:Middlewares/lvgl/src/extra/layouts/grid/lv_grid.c ****     lv_coord_t col_w = col_x2 - col_x1;
 627              		.loc 1 559 5 is_stmt 1 view .LVU207
 559:Middlewares/lvgl/src/extra/layouts/grid/lv_grid.c ****     lv_coord_t col_w = col_x2 - col_x1;
 628              		.loc 1 559 38 is_stmt 0 view .LVU208
 629 0084 5F44     		add	r7, r7, fp
 630              	.LVL68:
 559:Middlewares/lvgl/src/extra/layouts/grid/lv_grid.c ****     lv_coord_t col_w = col_x2 - col_x1;
 631              		.loc 1 559 29 view .LVU209
 632 0086 6FF00041 		mvn	r1, #-2147483648
 633 008a 0F44     		add	r7, r7, r1
 634 008c 33F81730 		ldrh	r3, [r3, r7, lsl #1]
 559:Middlewares/lvgl/src/extra/layouts/grid/lv_grid.c ****     lv_coord_t col_w = col_x2 - col_x1;
 635              		.loc 1 559 57 view .LVU210
 636 0090 A868     		ldr	r0, [r5, #8]
 559:Middlewares/lvgl/src/extra/layouts/grid/lv_grid.c ****     lv_coord_t col_w = col_x2 - col_x1;
 637              		.loc 1 559 60 view .LVU211
 638 0092 30F81700 		ldrh	r0, [r0, r7, lsl #1]
 559:Middlewares/lvgl/src/extra/layouts/grid/lv_grid.c ****     lv_coord_t col_w = col_x2 - col_x1;
 639              		.loc 1 559 54 view .LVU212
 640 0096 0344     		add	r3, r3, r0
 641 0098 9BB2     		uxth	r3, r3
 642              	.LVL69:
 560:Middlewares/lvgl/src/extra/layouts/grid/lv_grid.c **** 
 643              		.loc 1 560 5 is_stmt 1 view .LVU213
 560:Middlewares/lvgl/src/extra/layouts/grid/lv_grid.c **** 
 644              		.loc 1 560 31 is_stmt 0 view .LVU214
 645 009a 9B1A     		subs	r3, r3, r2
 646              	.LVL70:
 560:Middlewares/lvgl/src/extra/layouts/grid/lv_grid.c **** 
ARM GAS  /tmp/cc1NzchT.s 			page 31


 647              		.loc 1 560 31 view .LVU215
 648 009c 9AB2     		uxth	r2, r3
 649              	.LVL71:
 560:Middlewares/lvgl/src/extra/layouts/grid/lv_grid.c **** 
 650              		.loc 1 560 31 view .LVU216
 651 009e 0492     		str	r2, [sp, #16]
 560:Middlewares/lvgl/src/extra/layouts/grid/lv_grid.c **** 
 652              		.loc 1 560 16 view .LVU217
 653 00a0 1BB2     		sxth	r3, r3
 654 00a2 0293     		str	r3, [sp, #8]
 655              	.LVL72:
 562:Middlewares/lvgl/src/extra/layouts/grid/lv_grid.c ****     lv_coord_t row_y2 = c->y[row_pos + row_span - 1] + c->h[row_pos + row_span - 1];
 656              		.loc 1 562 5 is_stmt 1 view .LVU218
 562:Middlewares/lvgl/src/extra/layouts/grid/lv_grid.c ****     lv_coord_t row_y2 = c->y[row_pos + row_span - 1] + c->h[row_pos + row_span - 1];
 657              		.loc 1 562 26 is_stmt 0 view .LVU219
 658 00a4 6B68     		ldr	r3, [r5, #4]
 562:Middlewares/lvgl/src/extra/layouts/grid/lv_grid.c ****     lv_coord_t row_y2 = c->y[row_pos + row_span - 1] + c->h[row_pos + row_span - 1];
 659              		.loc 1 562 16 view .LVU220
 660 00a6 33F91A20 		ldrsh	r2, [r3, r10, lsl #1]
 661              	.LVL73:
 563:Middlewares/lvgl/src/extra/layouts/grid/lv_grid.c ****     lv_coord_t row_h = row_y2 - row_y1;
 662              		.loc 1 563 5 is_stmt 1 view .LVU221
 563:Middlewares/lvgl/src/extra/layouts/grid/lv_grid.c ****     lv_coord_t row_h = row_y2 - row_y1;
 663              		.loc 1 563 38 is_stmt 0 view .LVU222
 664 00aa 5644     		add	r6, r6, r10
 563:Middlewares/lvgl/src/extra/layouts/grid/lv_grid.c ****     lv_coord_t row_h = row_y2 - row_y1;
 665              		.loc 1 563 29 view .LVU223
 666 00ac 0E44     		add	r6, r6, r1
 667 00ae 33F81630 		ldrh	r3, [r3, r6, lsl #1]
 563:Middlewares/lvgl/src/extra/layouts/grid/lv_grid.c ****     lv_coord_t row_h = row_y2 - row_y1;
 668              		.loc 1 563 57 view .LVU224
 669 00b2 E968     		ldr	r1, [r5, #12]
 563:Middlewares/lvgl/src/extra/layouts/grid/lv_grid.c ****     lv_coord_t row_h = row_y2 - row_y1;
 670              		.loc 1 563 60 view .LVU225
 671 00b4 31F81610 		ldrh	r1, [r1, r6, lsl #1]
 563:Middlewares/lvgl/src/extra/layouts/grid/lv_grid.c ****     lv_coord_t row_h = row_y2 - row_y1;
 672              		.loc 1 563 54 view .LVU226
 673 00b8 0B44     		add	r3, r3, r1
 674 00ba 9BB2     		uxth	r3, r3
 675              	.LVL74:
 564:Middlewares/lvgl/src/extra/layouts/grid/lv_grid.c **** 
 676              		.loc 1 564 5 is_stmt 1 view .LVU227
 564:Middlewares/lvgl/src/extra/layouts/grid/lv_grid.c **** 
 677              		.loc 1 564 31 is_stmt 0 view .LVU228
 678 00bc 9B1A     		subs	r3, r3, r2
 679              	.LVL75:
 564:Middlewares/lvgl/src/extra/layouts/grid/lv_grid.c **** 
 680              		.loc 1 564 31 view .LVU229
 681 00be 9AB2     		uxth	r2, r3
 682              	.LVL76:
 564:Middlewares/lvgl/src/extra/layouts/grid/lv_grid.c **** 
 683              		.loc 1 564 31 view .LVU230
 684 00c0 0592     		str	r2, [sp, #20]
 564:Middlewares/lvgl/src/extra/layouts/grid/lv_grid.c **** 
 685              		.loc 1 564 16 view .LVU231
 686 00c2 1BB2     		sxth	r3, r3
 687 00c4 0393     		str	r3, [sp, #12]
ARM GAS  /tmp/cc1NzchT.s 			page 32


 688              	.LVL77:
 568:Middlewares/lvgl/src/extra/layouts/grid/lv_grid.c ****         if(col_align == LV_GRID_ALIGN_START) col_align = LV_GRID_ALIGN_END;
 689              		.loc 1 568 5 is_stmt 1 view .LVU232
 690              	.LBB133:
 691              	.LBI133:
 692              		.file 3 "Middlewares/lvgl/src/extra/layouts/grid/../flex/../../../core/lv_obj_style_gen.h"
   1:Middlewares/lvgl/src/extra/layouts/grid/../flex/../../../core/lv_obj_style_gen.h **** static inline lv_coord_t lv_obj_get_style_width(const struct _lv_obj_t * obj, uint32_t part)
   2:Middlewares/lvgl/src/extra/layouts/grid/../flex/../../../core/lv_obj_style_gen.h **** {
   3:Middlewares/lvgl/src/extra/layouts/grid/../flex/../../../core/lv_obj_style_gen.h ****     lv_style_value_t v = lv_obj_get_style_prop(obj, part, LV_STYLE_WIDTH);
   4:Middlewares/lvgl/src/extra/layouts/grid/../flex/../../../core/lv_obj_style_gen.h ****     return (lv_coord_t)v.num;
   5:Middlewares/lvgl/src/extra/layouts/grid/../flex/../../../core/lv_obj_style_gen.h **** }
   6:Middlewares/lvgl/src/extra/layouts/grid/../flex/../../../core/lv_obj_style_gen.h **** 
   7:Middlewares/lvgl/src/extra/layouts/grid/../flex/../../../core/lv_obj_style_gen.h **** static inline lv_coord_t lv_obj_get_style_min_width(const struct _lv_obj_t * obj, uint32_t part)
   8:Middlewares/lvgl/src/extra/layouts/grid/../flex/../../../core/lv_obj_style_gen.h **** {
   9:Middlewares/lvgl/src/extra/layouts/grid/../flex/../../../core/lv_obj_style_gen.h ****     lv_style_value_t v = lv_obj_get_style_prop(obj, part, LV_STYLE_MIN_WIDTH);
  10:Middlewares/lvgl/src/extra/layouts/grid/../flex/../../../core/lv_obj_style_gen.h ****     return (lv_coord_t)v.num;
  11:Middlewares/lvgl/src/extra/layouts/grid/../flex/../../../core/lv_obj_style_gen.h **** }
  12:Middlewares/lvgl/src/extra/layouts/grid/../flex/../../../core/lv_obj_style_gen.h **** 
  13:Middlewares/lvgl/src/extra/layouts/grid/../flex/../../../core/lv_obj_style_gen.h **** static inline lv_coord_t lv_obj_get_style_max_width(const struct _lv_obj_t * obj, uint32_t part)
  14:Middlewares/lvgl/src/extra/layouts/grid/../flex/../../../core/lv_obj_style_gen.h **** {
  15:Middlewares/lvgl/src/extra/layouts/grid/../flex/../../../core/lv_obj_style_gen.h ****     lv_style_value_t v = lv_obj_get_style_prop(obj, part, LV_STYLE_MAX_WIDTH);
  16:Middlewares/lvgl/src/extra/layouts/grid/../flex/../../../core/lv_obj_style_gen.h ****     return (lv_coord_t)v.num;
  17:Middlewares/lvgl/src/extra/layouts/grid/../flex/../../../core/lv_obj_style_gen.h **** }
  18:Middlewares/lvgl/src/extra/layouts/grid/../flex/../../../core/lv_obj_style_gen.h **** 
  19:Middlewares/lvgl/src/extra/layouts/grid/../flex/../../../core/lv_obj_style_gen.h **** static inline lv_coord_t lv_obj_get_style_height(const struct _lv_obj_t * obj, uint32_t part)
  20:Middlewares/lvgl/src/extra/layouts/grid/../flex/../../../core/lv_obj_style_gen.h **** {
  21:Middlewares/lvgl/src/extra/layouts/grid/../flex/../../../core/lv_obj_style_gen.h ****     lv_style_value_t v = lv_obj_get_style_prop(obj, part, LV_STYLE_HEIGHT);
  22:Middlewares/lvgl/src/extra/layouts/grid/../flex/../../../core/lv_obj_style_gen.h ****     return (lv_coord_t)v.num;
  23:Middlewares/lvgl/src/extra/layouts/grid/../flex/../../../core/lv_obj_style_gen.h **** }
  24:Middlewares/lvgl/src/extra/layouts/grid/../flex/../../../core/lv_obj_style_gen.h **** 
  25:Middlewares/lvgl/src/extra/layouts/grid/../flex/../../../core/lv_obj_style_gen.h **** static inline lv_coord_t lv_obj_get_style_min_height(const struct _lv_obj_t * obj, uint32_t part)
  26:Middlewares/lvgl/src/extra/layouts/grid/../flex/../../../core/lv_obj_style_gen.h **** {
  27:Middlewares/lvgl/src/extra/layouts/grid/../flex/../../../core/lv_obj_style_gen.h ****     lv_style_value_t v = lv_obj_get_style_prop(obj, part, LV_STYLE_MIN_HEIGHT);
  28:Middlewares/lvgl/src/extra/layouts/grid/../flex/../../../core/lv_obj_style_gen.h ****     return (lv_coord_t)v.num;
  29:Middlewares/lvgl/src/extra/layouts/grid/../flex/../../../core/lv_obj_style_gen.h **** }
  30:Middlewares/lvgl/src/extra/layouts/grid/../flex/../../../core/lv_obj_style_gen.h **** 
  31:Middlewares/lvgl/src/extra/layouts/grid/../flex/../../../core/lv_obj_style_gen.h **** static inline lv_coord_t lv_obj_get_style_max_height(const struct _lv_obj_t * obj, uint32_t part)
  32:Middlewares/lvgl/src/extra/layouts/grid/../flex/../../../core/lv_obj_style_gen.h **** {
  33:Middlewares/lvgl/src/extra/layouts/grid/../flex/../../../core/lv_obj_style_gen.h ****     lv_style_value_t v = lv_obj_get_style_prop(obj, part, LV_STYLE_MAX_HEIGHT);
  34:Middlewares/lvgl/src/extra/layouts/grid/../flex/../../../core/lv_obj_style_gen.h ****     return (lv_coord_t)v.num;
  35:Middlewares/lvgl/src/extra/layouts/grid/../flex/../../../core/lv_obj_style_gen.h **** }
  36:Middlewares/lvgl/src/extra/layouts/grid/../flex/../../../core/lv_obj_style_gen.h **** 
  37:Middlewares/lvgl/src/extra/layouts/grid/../flex/../../../core/lv_obj_style_gen.h **** static inline lv_coord_t lv_obj_get_style_x(const struct _lv_obj_t * obj, uint32_t part)
  38:Middlewares/lvgl/src/extra/layouts/grid/../flex/../../../core/lv_obj_style_gen.h **** {
  39:Middlewares/lvgl/src/extra/layouts/grid/../flex/../../../core/lv_obj_style_gen.h ****     lv_style_value_t v = lv_obj_get_style_prop(obj, part, LV_STYLE_X);
  40:Middlewares/lvgl/src/extra/layouts/grid/../flex/../../../core/lv_obj_style_gen.h ****     return (lv_coord_t)v.num;
  41:Middlewares/lvgl/src/extra/layouts/grid/../flex/../../../core/lv_obj_style_gen.h **** }
  42:Middlewares/lvgl/src/extra/layouts/grid/../flex/../../../core/lv_obj_style_gen.h **** 
  43:Middlewares/lvgl/src/extra/layouts/grid/../flex/../../../core/lv_obj_style_gen.h **** static inline lv_coord_t lv_obj_get_style_y(const struct _lv_obj_t * obj, uint32_t part)
  44:Middlewares/lvgl/src/extra/layouts/grid/../flex/../../../core/lv_obj_style_gen.h **** {
  45:Middlewares/lvgl/src/extra/layouts/grid/../flex/../../../core/lv_obj_style_gen.h ****     lv_style_value_t v = lv_obj_get_style_prop(obj, part, LV_STYLE_Y);
  46:Middlewares/lvgl/src/extra/layouts/grid/../flex/../../../core/lv_obj_style_gen.h ****     return (lv_coord_t)v.num;
  47:Middlewares/lvgl/src/extra/layouts/grid/../flex/../../../core/lv_obj_style_gen.h **** }
  48:Middlewares/lvgl/src/extra/layouts/grid/../flex/../../../core/lv_obj_style_gen.h **** 
  49:Middlewares/lvgl/src/extra/layouts/grid/../flex/../../../core/lv_obj_style_gen.h **** static inline lv_align_t lv_obj_get_style_align(const struct _lv_obj_t * obj, uint32_t part)
  50:Middlewares/lvgl/src/extra/layouts/grid/../flex/../../../core/lv_obj_style_gen.h **** {
  51:Middlewares/lvgl/src/extra/layouts/grid/../flex/../../../core/lv_obj_style_gen.h ****     lv_style_value_t v = lv_obj_get_style_prop(obj, part, LV_STYLE_ALIGN);
ARM GAS  /tmp/cc1NzchT.s 			page 33


  52:Middlewares/lvgl/src/extra/layouts/grid/../flex/../../../core/lv_obj_style_gen.h ****     return (lv_align_t)v.num;
  53:Middlewares/lvgl/src/extra/layouts/grid/../flex/../../../core/lv_obj_style_gen.h **** }
  54:Middlewares/lvgl/src/extra/layouts/grid/../flex/../../../core/lv_obj_style_gen.h **** 
  55:Middlewares/lvgl/src/extra/layouts/grid/../flex/../../../core/lv_obj_style_gen.h **** static inline lv_coord_t lv_obj_get_style_transform_width(const struct _lv_obj_t * obj, uint32_t pa
  56:Middlewares/lvgl/src/extra/layouts/grid/../flex/../../../core/lv_obj_style_gen.h **** {
  57:Middlewares/lvgl/src/extra/layouts/grid/../flex/../../../core/lv_obj_style_gen.h ****     lv_style_value_t v = lv_obj_get_style_prop(obj, part, LV_STYLE_TRANSFORM_WIDTH);
  58:Middlewares/lvgl/src/extra/layouts/grid/../flex/../../../core/lv_obj_style_gen.h ****     return (lv_coord_t)v.num;
  59:Middlewares/lvgl/src/extra/layouts/grid/../flex/../../../core/lv_obj_style_gen.h **** }
  60:Middlewares/lvgl/src/extra/layouts/grid/../flex/../../../core/lv_obj_style_gen.h **** 
  61:Middlewares/lvgl/src/extra/layouts/grid/../flex/../../../core/lv_obj_style_gen.h **** static inline lv_coord_t lv_obj_get_style_transform_height(const struct _lv_obj_t * obj, uint32_t p
  62:Middlewares/lvgl/src/extra/layouts/grid/../flex/../../../core/lv_obj_style_gen.h **** {
  63:Middlewares/lvgl/src/extra/layouts/grid/../flex/../../../core/lv_obj_style_gen.h ****     lv_style_value_t v = lv_obj_get_style_prop(obj, part, LV_STYLE_TRANSFORM_HEIGHT);
  64:Middlewares/lvgl/src/extra/layouts/grid/../flex/../../../core/lv_obj_style_gen.h ****     return (lv_coord_t)v.num;
  65:Middlewares/lvgl/src/extra/layouts/grid/../flex/../../../core/lv_obj_style_gen.h **** }
  66:Middlewares/lvgl/src/extra/layouts/grid/../flex/../../../core/lv_obj_style_gen.h **** 
  67:Middlewares/lvgl/src/extra/layouts/grid/../flex/../../../core/lv_obj_style_gen.h **** static inline lv_coord_t lv_obj_get_style_translate_x(const struct _lv_obj_t * obj, uint32_t part)
  68:Middlewares/lvgl/src/extra/layouts/grid/../flex/../../../core/lv_obj_style_gen.h **** {
  69:Middlewares/lvgl/src/extra/layouts/grid/../flex/../../../core/lv_obj_style_gen.h ****     lv_style_value_t v = lv_obj_get_style_prop(obj, part, LV_STYLE_TRANSLATE_X);
  70:Middlewares/lvgl/src/extra/layouts/grid/../flex/../../../core/lv_obj_style_gen.h ****     return (lv_coord_t)v.num;
  71:Middlewares/lvgl/src/extra/layouts/grid/../flex/../../../core/lv_obj_style_gen.h **** }
  72:Middlewares/lvgl/src/extra/layouts/grid/../flex/../../../core/lv_obj_style_gen.h **** 
  73:Middlewares/lvgl/src/extra/layouts/grid/../flex/../../../core/lv_obj_style_gen.h **** static inline lv_coord_t lv_obj_get_style_translate_y(const struct _lv_obj_t * obj, uint32_t part)
  74:Middlewares/lvgl/src/extra/layouts/grid/../flex/../../../core/lv_obj_style_gen.h **** {
  75:Middlewares/lvgl/src/extra/layouts/grid/../flex/../../../core/lv_obj_style_gen.h ****     lv_style_value_t v = lv_obj_get_style_prop(obj, part, LV_STYLE_TRANSLATE_Y);
  76:Middlewares/lvgl/src/extra/layouts/grid/../flex/../../../core/lv_obj_style_gen.h ****     return (lv_coord_t)v.num;
  77:Middlewares/lvgl/src/extra/layouts/grid/../flex/../../../core/lv_obj_style_gen.h **** }
  78:Middlewares/lvgl/src/extra/layouts/grid/../flex/../../../core/lv_obj_style_gen.h **** 
  79:Middlewares/lvgl/src/extra/layouts/grid/../flex/../../../core/lv_obj_style_gen.h **** static inline lv_coord_t lv_obj_get_style_transform_zoom(const struct _lv_obj_t * obj, uint32_t par
  80:Middlewares/lvgl/src/extra/layouts/grid/../flex/../../../core/lv_obj_style_gen.h **** {
  81:Middlewares/lvgl/src/extra/layouts/grid/../flex/../../../core/lv_obj_style_gen.h ****     lv_style_value_t v = lv_obj_get_style_prop(obj, part, LV_STYLE_TRANSFORM_ZOOM);
  82:Middlewares/lvgl/src/extra/layouts/grid/../flex/../../../core/lv_obj_style_gen.h ****     return (lv_coord_t)v.num;
  83:Middlewares/lvgl/src/extra/layouts/grid/../flex/../../../core/lv_obj_style_gen.h **** }
  84:Middlewares/lvgl/src/extra/layouts/grid/../flex/../../../core/lv_obj_style_gen.h **** 
  85:Middlewares/lvgl/src/extra/layouts/grid/../flex/../../../core/lv_obj_style_gen.h **** static inline lv_coord_t lv_obj_get_style_transform_angle(const struct _lv_obj_t * obj, uint32_t pa
  86:Middlewares/lvgl/src/extra/layouts/grid/../flex/../../../core/lv_obj_style_gen.h **** {
  87:Middlewares/lvgl/src/extra/layouts/grid/../flex/../../../core/lv_obj_style_gen.h ****     lv_style_value_t v = lv_obj_get_style_prop(obj, part, LV_STYLE_TRANSFORM_ANGLE);
  88:Middlewares/lvgl/src/extra/layouts/grid/../flex/../../../core/lv_obj_style_gen.h ****     return (lv_coord_t)v.num;
  89:Middlewares/lvgl/src/extra/layouts/grid/../flex/../../../core/lv_obj_style_gen.h **** }
  90:Middlewares/lvgl/src/extra/layouts/grid/../flex/../../../core/lv_obj_style_gen.h **** 
  91:Middlewares/lvgl/src/extra/layouts/grid/../flex/../../../core/lv_obj_style_gen.h **** static inline lv_coord_t lv_obj_get_style_pad_top(const struct _lv_obj_t * obj, uint32_t part)
  92:Middlewares/lvgl/src/extra/layouts/grid/../flex/../../../core/lv_obj_style_gen.h **** {
  93:Middlewares/lvgl/src/extra/layouts/grid/../flex/../../../core/lv_obj_style_gen.h ****     lv_style_value_t v = lv_obj_get_style_prop(obj, part, LV_STYLE_PAD_TOP);
  94:Middlewares/lvgl/src/extra/layouts/grid/../flex/../../../core/lv_obj_style_gen.h ****     return (lv_coord_t)v.num;
  95:Middlewares/lvgl/src/extra/layouts/grid/../flex/../../../core/lv_obj_style_gen.h **** }
  96:Middlewares/lvgl/src/extra/layouts/grid/../flex/../../../core/lv_obj_style_gen.h **** 
  97:Middlewares/lvgl/src/extra/layouts/grid/../flex/../../../core/lv_obj_style_gen.h **** static inline lv_coord_t lv_obj_get_style_pad_bottom(const struct _lv_obj_t * obj, uint32_t part)
  98:Middlewares/lvgl/src/extra/layouts/grid/../flex/../../../core/lv_obj_style_gen.h **** {
  99:Middlewares/lvgl/src/extra/layouts/grid/../flex/../../../core/lv_obj_style_gen.h ****     lv_style_value_t v = lv_obj_get_style_prop(obj, part, LV_STYLE_PAD_BOTTOM);
 100:Middlewares/lvgl/src/extra/layouts/grid/../flex/../../../core/lv_obj_style_gen.h ****     return (lv_coord_t)v.num;
 101:Middlewares/lvgl/src/extra/layouts/grid/../flex/../../../core/lv_obj_style_gen.h **** }
 102:Middlewares/lvgl/src/extra/layouts/grid/../flex/../../../core/lv_obj_style_gen.h **** 
 103:Middlewares/lvgl/src/extra/layouts/grid/../flex/../../../core/lv_obj_style_gen.h **** static inline lv_coord_t lv_obj_get_style_pad_left(const struct _lv_obj_t * obj, uint32_t part)
 104:Middlewares/lvgl/src/extra/layouts/grid/../flex/../../../core/lv_obj_style_gen.h **** {
 105:Middlewares/lvgl/src/extra/layouts/grid/../flex/../../../core/lv_obj_style_gen.h ****     lv_style_value_t v = lv_obj_get_style_prop(obj, part, LV_STYLE_PAD_LEFT);
 106:Middlewares/lvgl/src/extra/layouts/grid/../flex/../../../core/lv_obj_style_gen.h ****     return (lv_coord_t)v.num;
 107:Middlewares/lvgl/src/extra/layouts/grid/../flex/../../../core/lv_obj_style_gen.h **** }
 108:Middlewares/lvgl/src/extra/layouts/grid/../flex/../../../core/lv_obj_style_gen.h **** 
ARM GAS  /tmp/cc1NzchT.s 			page 34


 109:Middlewares/lvgl/src/extra/layouts/grid/../flex/../../../core/lv_obj_style_gen.h **** static inline lv_coord_t lv_obj_get_style_pad_right(const struct _lv_obj_t * obj, uint32_t part)
 110:Middlewares/lvgl/src/extra/layouts/grid/../flex/../../../core/lv_obj_style_gen.h **** {
 111:Middlewares/lvgl/src/extra/layouts/grid/../flex/../../../core/lv_obj_style_gen.h ****     lv_style_value_t v = lv_obj_get_style_prop(obj, part, LV_STYLE_PAD_RIGHT);
 112:Middlewares/lvgl/src/extra/layouts/grid/../flex/../../../core/lv_obj_style_gen.h ****     return (lv_coord_t)v.num;
 113:Middlewares/lvgl/src/extra/layouts/grid/../flex/../../../core/lv_obj_style_gen.h **** }
 114:Middlewares/lvgl/src/extra/layouts/grid/../flex/../../../core/lv_obj_style_gen.h **** 
 115:Middlewares/lvgl/src/extra/layouts/grid/../flex/../../../core/lv_obj_style_gen.h **** static inline lv_coord_t lv_obj_get_style_pad_row(const struct _lv_obj_t * obj, uint32_t part)
 116:Middlewares/lvgl/src/extra/layouts/grid/../flex/../../../core/lv_obj_style_gen.h **** {
 117:Middlewares/lvgl/src/extra/layouts/grid/../flex/../../../core/lv_obj_style_gen.h ****     lv_style_value_t v = lv_obj_get_style_prop(obj, part, LV_STYLE_PAD_ROW);
 118:Middlewares/lvgl/src/extra/layouts/grid/../flex/../../../core/lv_obj_style_gen.h ****     return (lv_coord_t)v.num;
 119:Middlewares/lvgl/src/extra/layouts/grid/../flex/../../../core/lv_obj_style_gen.h **** }
 120:Middlewares/lvgl/src/extra/layouts/grid/../flex/../../../core/lv_obj_style_gen.h **** 
 121:Middlewares/lvgl/src/extra/layouts/grid/../flex/../../../core/lv_obj_style_gen.h **** static inline lv_coord_t lv_obj_get_style_pad_column(const struct _lv_obj_t * obj, uint32_t part)
 122:Middlewares/lvgl/src/extra/layouts/grid/../flex/../../../core/lv_obj_style_gen.h **** {
 123:Middlewares/lvgl/src/extra/layouts/grid/../flex/../../../core/lv_obj_style_gen.h ****     lv_style_value_t v = lv_obj_get_style_prop(obj, part, LV_STYLE_PAD_COLUMN);
 124:Middlewares/lvgl/src/extra/layouts/grid/../flex/../../../core/lv_obj_style_gen.h ****     return (lv_coord_t)v.num;
 125:Middlewares/lvgl/src/extra/layouts/grid/../flex/../../../core/lv_obj_style_gen.h **** }
 126:Middlewares/lvgl/src/extra/layouts/grid/../flex/../../../core/lv_obj_style_gen.h **** 
 127:Middlewares/lvgl/src/extra/layouts/grid/../flex/../../../core/lv_obj_style_gen.h **** static inline lv_coord_t lv_obj_get_style_radius(const struct _lv_obj_t * obj, uint32_t part)
 128:Middlewares/lvgl/src/extra/layouts/grid/../flex/../../../core/lv_obj_style_gen.h **** {
 129:Middlewares/lvgl/src/extra/layouts/grid/../flex/../../../core/lv_obj_style_gen.h ****     lv_style_value_t v = lv_obj_get_style_prop(obj, part, LV_STYLE_RADIUS);
 130:Middlewares/lvgl/src/extra/layouts/grid/../flex/../../../core/lv_obj_style_gen.h ****     return (lv_coord_t)v.num;
 131:Middlewares/lvgl/src/extra/layouts/grid/../flex/../../../core/lv_obj_style_gen.h **** }
 132:Middlewares/lvgl/src/extra/layouts/grid/../flex/../../../core/lv_obj_style_gen.h **** 
 133:Middlewares/lvgl/src/extra/layouts/grid/../flex/../../../core/lv_obj_style_gen.h **** static inline bool lv_obj_get_style_clip_corner(const struct _lv_obj_t * obj, uint32_t part)
 134:Middlewares/lvgl/src/extra/layouts/grid/../flex/../../../core/lv_obj_style_gen.h **** {
 135:Middlewares/lvgl/src/extra/layouts/grid/../flex/../../../core/lv_obj_style_gen.h ****     lv_style_value_t v = lv_obj_get_style_prop(obj, part, LV_STYLE_CLIP_CORNER);
 136:Middlewares/lvgl/src/extra/layouts/grid/../flex/../../../core/lv_obj_style_gen.h ****     return (bool)v.num;
 137:Middlewares/lvgl/src/extra/layouts/grid/../flex/../../../core/lv_obj_style_gen.h **** }
 138:Middlewares/lvgl/src/extra/layouts/grid/../flex/../../../core/lv_obj_style_gen.h **** 
 139:Middlewares/lvgl/src/extra/layouts/grid/../flex/../../../core/lv_obj_style_gen.h **** static inline lv_opa_t lv_obj_get_style_opa(const struct _lv_obj_t * obj, uint32_t part)
 140:Middlewares/lvgl/src/extra/layouts/grid/../flex/../../../core/lv_obj_style_gen.h **** {
 141:Middlewares/lvgl/src/extra/layouts/grid/../flex/../../../core/lv_obj_style_gen.h ****     lv_style_value_t v = lv_obj_get_style_prop(obj, part, LV_STYLE_OPA);
 142:Middlewares/lvgl/src/extra/layouts/grid/../flex/../../../core/lv_obj_style_gen.h ****     return (lv_opa_t)v.num;
 143:Middlewares/lvgl/src/extra/layouts/grid/../flex/../../../core/lv_obj_style_gen.h **** }
 144:Middlewares/lvgl/src/extra/layouts/grid/../flex/../../../core/lv_obj_style_gen.h **** 
 145:Middlewares/lvgl/src/extra/layouts/grid/../flex/../../../core/lv_obj_style_gen.h **** static inline const lv_color_filter_dsc_t * lv_obj_get_style_color_filter_dsc(const struct _lv_obj_
 146:Middlewares/lvgl/src/extra/layouts/grid/../flex/../../../core/lv_obj_style_gen.h **** {
 147:Middlewares/lvgl/src/extra/layouts/grid/../flex/../../../core/lv_obj_style_gen.h ****     lv_style_value_t v = lv_obj_get_style_prop(obj, part, LV_STYLE_COLOR_FILTER_DSC);
 148:Middlewares/lvgl/src/extra/layouts/grid/../flex/../../../core/lv_obj_style_gen.h ****     return (const lv_color_filter_dsc_t *)v.ptr;
 149:Middlewares/lvgl/src/extra/layouts/grid/../flex/../../../core/lv_obj_style_gen.h **** }
 150:Middlewares/lvgl/src/extra/layouts/grid/../flex/../../../core/lv_obj_style_gen.h **** 
 151:Middlewares/lvgl/src/extra/layouts/grid/../flex/../../../core/lv_obj_style_gen.h **** static inline lv_opa_t lv_obj_get_style_color_filter_opa(const struct _lv_obj_t * obj, uint32_t par
 152:Middlewares/lvgl/src/extra/layouts/grid/../flex/../../../core/lv_obj_style_gen.h **** {
 153:Middlewares/lvgl/src/extra/layouts/grid/../flex/../../../core/lv_obj_style_gen.h ****     lv_style_value_t v = lv_obj_get_style_prop(obj, part, LV_STYLE_COLOR_FILTER_OPA);
 154:Middlewares/lvgl/src/extra/layouts/grid/../flex/../../../core/lv_obj_style_gen.h ****     return (lv_opa_t)v.num;
 155:Middlewares/lvgl/src/extra/layouts/grid/../flex/../../../core/lv_obj_style_gen.h **** }
 156:Middlewares/lvgl/src/extra/layouts/grid/../flex/../../../core/lv_obj_style_gen.h **** 
 157:Middlewares/lvgl/src/extra/layouts/grid/../flex/../../../core/lv_obj_style_gen.h **** static inline uint32_t lv_obj_get_style_anim_time(const struct _lv_obj_t * obj, uint32_t part)
 158:Middlewares/lvgl/src/extra/layouts/grid/../flex/../../../core/lv_obj_style_gen.h **** {
 159:Middlewares/lvgl/src/extra/layouts/grid/../flex/../../../core/lv_obj_style_gen.h ****     lv_style_value_t v = lv_obj_get_style_prop(obj, part, LV_STYLE_ANIM_TIME);
 160:Middlewares/lvgl/src/extra/layouts/grid/../flex/../../../core/lv_obj_style_gen.h ****     return (uint32_t)v.num;
 161:Middlewares/lvgl/src/extra/layouts/grid/../flex/../../../core/lv_obj_style_gen.h **** }
 162:Middlewares/lvgl/src/extra/layouts/grid/../flex/../../../core/lv_obj_style_gen.h **** 
 163:Middlewares/lvgl/src/extra/layouts/grid/../flex/../../../core/lv_obj_style_gen.h **** static inline uint32_t lv_obj_get_style_anim_speed(const struct _lv_obj_t * obj, uint32_t part)
 164:Middlewares/lvgl/src/extra/layouts/grid/../flex/../../../core/lv_obj_style_gen.h **** {
 165:Middlewares/lvgl/src/extra/layouts/grid/../flex/../../../core/lv_obj_style_gen.h ****     lv_style_value_t v = lv_obj_get_style_prop(obj, part, LV_STYLE_ANIM_SPEED);
ARM GAS  /tmp/cc1NzchT.s 			page 35


 166:Middlewares/lvgl/src/extra/layouts/grid/../flex/../../../core/lv_obj_style_gen.h ****     return (uint32_t)v.num;
 167:Middlewares/lvgl/src/extra/layouts/grid/../flex/../../../core/lv_obj_style_gen.h **** }
 168:Middlewares/lvgl/src/extra/layouts/grid/../flex/../../../core/lv_obj_style_gen.h **** 
 169:Middlewares/lvgl/src/extra/layouts/grid/../flex/../../../core/lv_obj_style_gen.h **** static inline const lv_style_transition_dsc_t * lv_obj_get_style_transition(const struct _lv_obj_t 
 170:Middlewares/lvgl/src/extra/layouts/grid/../flex/../../../core/lv_obj_style_gen.h **** {
 171:Middlewares/lvgl/src/extra/layouts/grid/../flex/../../../core/lv_obj_style_gen.h ****     lv_style_value_t v = lv_obj_get_style_prop(obj, part, LV_STYLE_TRANSITION);
 172:Middlewares/lvgl/src/extra/layouts/grid/../flex/../../../core/lv_obj_style_gen.h ****     return (const lv_style_transition_dsc_t *)v.ptr;
 173:Middlewares/lvgl/src/extra/layouts/grid/../flex/../../../core/lv_obj_style_gen.h **** }
 174:Middlewares/lvgl/src/extra/layouts/grid/../flex/../../../core/lv_obj_style_gen.h **** 
 175:Middlewares/lvgl/src/extra/layouts/grid/../flex/../../../core/lv_obj_style_gen.h **** static inline lv_blend_mode_t lv_obj_get_style_blend_mode(const struct _lv_obj_t * obj, uint32_t pa
 176:Middlewares/lvgl/src/extra/layouts/grid/../flex/../../../core/lv_obj_style_gen.h **** {
 177:Middlewares/lvgl/src/extra/layouts/grid/../flex/../../../core/lv_obj_style_gen.h ****     lv_style_value_t v = lv_obj_get_style_prop(obj, part, LV_STYLE_BLEND_MODE);
 178:Middlewares/lvgl/src/extra/layouts/grid/../flex/../../../core/lv_obj_style_gen.h ****     return (lv_blend_mode_t)v.num;
 179:Middlewares/lvgl/src/extra/layouts/grid/../flex/../../../core/lv_obj_style_gen.h **** }
 180:Middlewares/lvgl/src/extra/layouts/grid/../flex/../../../core/lv_obj_style_gen.h **** 
 181:Middlewares/lvgl/src/extra/layouts/grid/../flex/../../../core/lv_obj_style_gen.h **** static inline uint16_t lv_obj_get_style_layout(const struct _lv_obj_t * obj, uint32_t part)
 182:Middlewares/lvgl/src/extra/layouts/grid/../flex/../../../core/lv_obj_style_gen.h **** {
 183:Middlewares/lvgl/src/extra/layouts/grid/../flex/../../../core/lv_obj_style_gen.h ****     lv_style_value_t v = lv_obj_get_style_prop(obj, part, LV_STYLE_LAYOUT);
 184:Middlewares/lvgl/src/extra/layouts/grid/../flex/../../../core/lv_obj_style_gen.h ****     return (uint16_t)v.num;
 185:Middlewares/lvgl/src/extra/layouts/grid/../flex/../../../core/lv_obj_style_gen.h **** }
 186:Middlewares/lvgl/src/extra/layouts/grid/../flex/../../../core/lv_obj_style_gen.h **** 
 187:Middlewares/lvgl/src/extra/layouts/grid/../flex/../../../core/lv_obj_style_gen.h **** static inline lv_base_dir_t lv_obj_get_style_base_dir(const struct _lv_obj_t * obj, uint32_t part)
 693              		.loc 3 187 29 view .LVU233
 694              	.LBB134:
 188:Middlewares/lvgl/src/extra/layouts/grid/../flex/../../../core/lv_obj_style_gen.h **** {
 189:Middlewares/lvgl/src/extra/layouts/grid/../flex/../../../core/lv_obj_style_gen.h ****     lv_style_value_t v = lv_obj_get_style_prop(obj, part, LV_STYLE_BASE_DIR);
 695              		.loc 3 189 5 view .LVU234
 696              		.loc 3 189 26 is_stmt 0 view .LVU235
 697 00c6 41F26A42 		movw	r2, #5226
 698 00ca 0021     		movs	r1, #0
 699              	.LVL78:
 700              		.loc 3 189 26 view .LVU236
 701 00cc 2046     		mov	r0, r4
 702              	.LVL79:
 703              		.loc 3 189 26 view .LVU237
 704 00ce FFF7FEFF 		bl	lv_obj_get_style_prop
 705              	.LVL80:
 190:Middlewares/lvgl/src/extra/layouts/grid/../flex/../../../core/lv_obj_style_gen.h ****     return (lv_base_dir_t)v.num;
 706              		.loc 3 190 5 is_stmt 1 view .LVU238
 707              		.loc 3 190 12 is_stmt 0 view .LVU239
 708 00d2 C0B2     		uxtb	r0, r0
 709              	.LVL81:
 710              		.loc 3 190 12 view .LVU240
 711              	.LBE134:
 712              	.LBE133:
 568:Middlewares/lvgl/src/extra/layouts/grid/lv_grid.c ****         if(col_align == LV_GRID_ALIGN_START) col_align = LV_GRID_ALIGN_END;
 713              		.loc 1 568 7 view .LVU241
 714 00d4 0128     		cmp	r0, #1
 715 00d6 00F0C380 		beq	.L50
 716              	.LVL82:
 717              	.L28:
 573:Middlewares/lvgl/src/extra/layouts/grid/lv_grid.c ****     lv_coord_t y;
 718              		.loc 1 573 5 is_stmt 1 view .LVU242
 574:Middlewares/lvgl/src/extra/layouts/grid/lv_grid.c ****     lv_coord_t item_w = lv_area_get_width(&item->coords);
 719              		.loc 1 574 5 view .LVU243
 575:Middlewares/lvgl/src/extra/layouts/grid/lv_grid.c ****     lv_coord_t item_h = lv_area_get_height(&item->coords);
 720              		.loc 1 575 5 view .LVU244
ARM GAS  /tmp/cc1NzchT.s 			page 36


 721              	.LBB135:
 722              	.LBI135:
 723              		.file 4 "Middlewares/lvgl/src/extra/layouts/grid/../flex/../../../core/../misc/../font/../misc/lv_
   1:Middlewares/lvgl/src/extra/layouts/grid/../flex/../../../core/../misc/../font/../misc/lv_area.h **** /**
   2:Middlewares/lvgl/src/extra/layouts/grid/../flex/../../../core/../misc/../font/../misc/lv_area.h ****  * @file lv_area.h
   3:Middlewares/lvgl/src/extra/layouts/grid/../flex/../../../core/../misc/../font/../misc/lv_area.h ****  *
   4:Middlewares/lvgl/src/extra/layouts/grid/../flex/../../../core/../misc/../font/../misc/lv_area.h ****  */
   5:Middlewares/lvgl/src/extra/layouts/grid/../flex/../../../core/../misc/../font/../misc/lv_area.h **** 
   6:Middlewares/lvgl/src/extra/layouts/grid/../flex/../../../core/../misc/../font/../misc/lv_area.h **** #ifndef LV_AREA_H
   7:Middlewares/lvgl/src/extra/layouts/grid/../flex/../../../core/../misc/../font/../misc/lv_area.h **** #define LV_AREA_H
   8:Middlewares/lvgl/src/extra/layouts/grid/../flex/../../../core/../misc/../font/../misc/lv_area.h **** 
   9:Middlewares/lvgl/src/extra/layouts/grid/../flex/../../../core/../misc/../font/../misc/lv_area.h **** #ifdef __cplusplus
  10:Middlewares/lvgl/src/extra/layouts/grid/../flex/../../../core/../misc/../font/../misc/lv_area.h **** extern "C" {
  11:Middlewares/lvgl/src/extra/layouts/grid/../flex/../../../core/../misc/../font/../misc/lv_area.h **** #endif
  12:Middlewares/lvgl/src/extra/layouts/grid/../flex/../../../core/../misc/../font/../misc/lv_area.h **** 
  13:Middlewares/lvgl/src/extra/layouts/grid/../flex/../../../core/../misc/../font/../misc/lv_area.h **** /*********************
  14:Middlewares/lvgl/src/extra/layouts/grid/../flex/../../../core/../misc/../font/../misc/lv_area.h ****  *      INCLUDES
  15:Middlewares/lvgl/src/extra/layouts/grid/../flex/../../../core/../misc/../font/../misc/lv_area.h ****  *********************/
  16:Middlewares/lvgl/src/extra/layouts/grid/../flex/../../../core/../misc/../font/../misc/lv_area.h **** #include "../lv_conf_internal.h"
  17:Middlewares/lvgl/src/extra/layouts/grid/../flex/../../../core/../misc/../font/../misc/lv_area.h **** #include <string.h>
  18:Middlewares/lvgl/src/extra/layouts/grid/../flex/../../../core/../misc/../font/../misc/lv_area.h **** #include <stdbool.h>
  19:Middlewares/lvgl/src/extra/layouts/grid/../flex/../../../core/../misc/../font/../misc/lv_area.h **** #include <stdint.h>
  20:Middlewares/lvgl/src/extra/layouts/grid/../flex/../../../core/../misc/../font/../misc/lv_area.h **** 
  21:Middlewares/lvgl/src/extra/layouts/grid/../flex/../../../core/../misc/../font/../misc/lv_area.h **** /*********************
  22:Middlewares/lvgl/src/extra/layouts/grid/../flex/../../../core/../misc/../font/../misc/lv_area.h ****  *      DEFINES
  23:Middlewares/lvgl/src/extra/layouts/grid/../flex/../../../core/../misc/../font/../misc/lv_area.h ****  *********************/
  24:Middlewares/lvgl/src/extra/layouts/grid/../flex/../../../core/../misc/../font/../misc/lv_area.h **** 
  25:Middlewares/lvgl/src/extra/layouts/grid/../flex/../../../core/../misc/../font/../misc/lv_area.h **** #define _LV_COORD_MAX_REDUCE    8192
  26:Middlewares/lvgl/src/extra/layouts/grid/../flex/../../../core/../misc/../font/../misc/lv_area.h **** 
  27:Middlewares/lvgl/src/extra/layouts/grid/../flex/../../../core/../misc/../font/../misc/lv_area.h **** #if LV_USE_LARGE_COORD
  28:Middlewares/lvgl/src/extra/layouts/grid/../flex/../../../core/../misc/../font/../misc/lv_area.h **** typedef int32_t lv_coord_t;
  29:Middlewares/lvgl/src/extra/layouts/grid/../flex/../../../core/../misc/../font/../misc/lv_area.h **** #else
  30:Middlewares/lvgl/src/extra/layouts/grid/../flex/../../../core/../misc/../font/../misc/lv_area.h **** typedef int16_t lv_coord_t;
  31:Middlewares/lvgl/src/extra/layouts/grid/../flex/../../../core/../misc/../font/../misc/lv_area.h **** #endif
  32:Middlewares/lvgl/src/extra/layouts/grid/../flex/../../../core/../misc/../font/../misc/lv_area.h **** 
  33:Middlewares/lvgl/src/extra/layouts/grid/../flex/../../../core/../misc/../font/../misc/lv_area.h **** /*To allow some special values in the end reduce the max value*/
  34:Middlewares/lvgl/src/extra/layouts/grid/../flex/../../../core/../misc/../font/../misc/lv_area.h **** #define LV_COORD_MAX ((lv_coord_t)((uint32_t)((uint32_t)1 << (8 * sizeof(lv_coord_t) - 1)) - _LV_CO
  35:Middlewares/lvgl/src/extra/layouts/grid/../flex/../../../core/../misc/../font/../misc/lv_area.h **** #define LV_COORD_MIN (-LV_COORD_MAX)
  36:Middlewares/lvgl/src/extra/layouts/grid/../flex/../../../core/../misc/../font/../misc/lv_area.h **** 
  37:Middlewares/lvgl/src/extra/layouts/grid/../flex/../../../core/../misc/../font/../misc/lv_area.h **** LV_EXPORT_CONST_INT(LV_COORD_MAX);
  38:Middlewares/lvgl/src/extra/layouts/grid/../flex/../../../core/../misc/../font/../misc/lv_area.h **** LV_EXPORT_CONST_INT(LV_COORD_MIN);
  39:Middlewares/lvgl/src/extra/layouts/grid/../flex/../../../core/../misc/../font/../misc/lv_area.h **** 
  40:Middlewares/lvgl/src/extra/layouts/grid/../flex/../../../core/../misc/../font/../misc/lv_area.h **** /**********************
  41:Middlewares/lvgl/src/extra/layouts/grid/../flex/../../../core/../misc/../font/../misc/lv_area.h ****  *      TYPEDEFS
  42:Middlewares/lvgl/src/extra/layouts/grid/../flex/../../../core/../misc/../font/../misc/lv_area.h ****  **********************/
  43:Middlewares/lvgl/src/extra/layouts/grid/../flex/../../../core/../misc/../font/../misc/lv_area.h **** 
  44:Middlewares/lvgl/src/extra/layouts/grid/../flex/../../../core/../misc/../font/../misc/lv_area.h **** /**
  45:Middlewares/lvgl/src/extra/layouts/grid/../flex/../../../core/../misc/../font/../misc/lv_area.h ****  * Represents a point on the screen.
  46:Middlewares/lvgl/src/extra/layouts/grid/../flex/../../../core/../misc/../font/../misc/lv_area.h ****  */
  47:Middlewares/lvgl/src/extra/layouts/grid/../flex/../../../core/../misc/../font/../misc/lv_area.h **** typedef struct {
  48:Middlewares/lvgl/src/extra/layouts/grid/../flex/../../../core/../misc/../font/../misc/lv_area.h ****     lv_coord_t x;
  49:Middlewares/lvgl/src/extra/layouts/grid/../flex/../../../core/../misc/../font/../misc/lv_area.h ****     lv_coord_t y;
  50:Middlewares/lvgl/src/extra/layouts/grid/../flex/../../../core/../misc/../font/../misc/lv_area.h **** } lv_point_t;
  51:Middlewares/lvgl/src/extra/layouts/grid/../flex/../../../core/../misc/../font/../misc/lv_area.h **** 
  52:Middlewares/lvgl/src/extra/layouts/grid/../flex/../../../core/../misc/../font/../misc/lv_area.h **** /** Represents an area of the screen.*/
  53:Middlewares/lvgl/src/extra/layouts/grid/../flex/../../../core/../misc/../font/../misc/lv_area.h **** typedef struct {
  54:Middlewares/lvgl/src/extra/layouts/grid/../flex/../../../core/../misc/../font/../misc/lv_area.h ****     lv_coord_t x1;
ARM GAS  /tmp/cc1NzchT.s 			page 37


  55:Middlewares/lvgl/src/extra/layouts/grid/../flex/../../../core/../misc/../font/../misc/lv_area.h ****     lv_coord_t y1;
  56:Middlewares/lvgl/src/extra/layouts/grid/../flex/../../../core/../misc/../font/../misc/lv_area.h ****     lv_coord_t x2;
  57:Middlewares/lvgl/src/extra/layouts/grid/../flex/../../../core/../misc/../font/../misc/lv_area.h ****     lv_coord_t y2;
  58:Middlewares/lvgl/src/extra/layouts/grid/../flex/../../../core/../misc/../font/../misc/lv_area.h **** } lv_area_t;
  59:Middlewares/lvgl/src/extra/layouts/grid/../flex/../../../core/../misc/../font/../misc/lv_area.h **** 
  60:Middlewares/lvgl/src/extra/layouts/grid/../flex/../../../core/../misc/../font/../misc/lv_area.h **** /** Alignments*/
  61:Middlewares/lvgl/src/extra/layouts/grid/../flex/../../../core/../misc/../font/../misc/lv_area.h **** enum {
  62:Middlewares/lvgl/src/extra/layouts/grid/../flex/../../../core/../misc/../font/../misc/lv_area.h ****     LV_ALIGN_DEFAULT = 0,
  63:Middlewares/lvgl/src/extra/layouts/grid/../flex/../../../core/../misc/../font/../misc/lv_area.h ****     LV_ALIGN_TOP_LEFT,
  64:Middlewares/lvgl/src/extra/layouts/grid/../flex/../../../core/../misc/../font/../misc/lv_area.h ****     LV_ALIGN_TOP_MID,
  65:Middlewares/lvgl/src/extra/layouts/grid/../flex/../../../core/../misc/../font/../misc/lv_area.h ****     LV_ALIGN_TOP_RIGHT,
  66:Middlewares/lvgl/src/extra/layouts/grid/../flex/../../../core/../misc/../font/../misc/lv_area.h ****     LV_ALIGN_BOTTOM_LEFT,
  67:Middlewares/lvgl/src/extra/layouts/grid/../flex/../../../core/../misc/../font/../misc/lv_area.h ****     LV_ALIGN_BOTTOM_MID,
  68:Middlewares/lvgl/src/extra/layouts/grid/../flex/../../../core/../misc/../font/../misc/lv_area.h ****     LV_ALIGN_BOTTOM_RIGHT,
  69:Middlewares/lvgl/src/extra/layouts/grid/../flex/../../../core/../misc/../font/../misc/lv_area.h ****     LV_ALIGN_LEFT_MID,
  70:Middlewares/lvgl/src/extra/layouts/grid/../flex/../../../core/../misc/../font/../misc/lv_area.h ****     LV_ALIGN_RIGHT_MID,
  71:Middlewares/lvgl/src/extra/layouts/grid/../flex/../../../core/../misc/../font/../misc/lv_area.h ****     LV_ALIGN_CENTER,
  72:Middlewares/lvgl/src/extra/layouts/grid/../flex/../../../core/../misc/../font/../misc/lv_area.h **** 
  73:Middlewares/lvgl/src/extra/layouts/grid/../flex/../../../core/../misc/../font/../misc/lv_area.h ****     LV_ALIGN_OUT_TOP_LEFT,
  74:Middlewares/lvgl/src/extra/layouts/grid/../flex/../../../core/../misc/../font/../misc/lv_area.h ****     LV_ALIGN_OUT_TOP_MID,
  75:Middlewares/lvgl/src/extra/layouts/grid/../flex/../../../core/../misc/../font/../misc/lv_area.h ****     LV_ALIGN_OUT_TOP_RIGHT,
  76:Middlewares/lvgl/src/extra/layouts/grid/../flex/../../../core/../misc/../font/../misc/lv_area.h ****     LV_ALIGN_OUT_BOTTOM_LEFT,
  77:Middlewares/lvgl/src/extra/layouts/grid/../flex/../../../core/../misc/../font/../misc/lv_area.h ****     LV_ALIGN_OUT_BOTTOM_MID,
  78:Middlewares/lvgl/src/extra/layouts/grid/../flex/../../../core/../misc/../font/../misc/lv_area.h ****     LV_ALIGN_OUT_BOTTOM_RIGHT,
  79:Middlewares/lvgl/src/extra/layouts/grid/../flex/../../../core/../misc/../font/../misc/lv_area.h ****     LV_ALIGN_OUT_LEFT_TOP,
  80:Middlewares/lvgl/src/extra/layouts/grid/../flex/../../../core/../misc/../font/../misc/lv_area.h ****     LV_ALIGN_OUT_LEFT_MID,
  81:Middlewares/lvgl/src/extra/layouts/grid/../flex/../../../core/../misc/../font/../misc/lv_area.h ****     LV_ALIGN_OUT_LEFT_BOTTOM,
  82:Middlewares/lvgl/src/extra/layouts/grid/../flex/../../../core/../misc/../font/../misc/lv_area.h ****     LV_ALIGN_OUT_RIGHT_TOP,
  83:Middlewares/lvgl/src/extra/layouts/grid/../flex/../../../core/../misc/../font/../misc/lv_area.h ****     LV_ALIGN_OUT_RIGHT_MID,
  84:Middlewares/lvgl/src/extra/layouts/grid/../flex/../../../core/../misc/../font/../misc/lv_area.h ****     LV_ALIGN_OUT_RIGHT_BOTTOM,
  85:Middlewares/lvgl/src/extra/layouts/grid/../flex/../../../core/../misc/../font/../misc/lv_area.h **** };
  86:Middlewares/lvgl/src/extra/layouts/grid/../flex/../../../core/../misc/../font/../misc/lv_area.h **** typedef uint8_t lv_align_t;
  87:Middlewares/lvgl/src/extra/layouts/grid/../flex/../../../core/../misc/../font/../misc/lv_area.h **** 
  88:Middlewares/lvgl/src/extra/layouts/grid/../flex/../../../core/../misc/../font/../misc/lv_area.h **** enum {
  89:Middlewares/lvgl/src/extra/layouts/grid/../flex/../../../core/../misc/../font/../misc/lv_area.h ****     LV_DIR_NONE     = 0x00,
  90:Middlewares/lvgl/src/extra/layouts/grid/../flex/../../../core/../misc/../font/../misc/lv_area.h ****     LV_DIR_LEFT     = (1 << 0),
  91:Middlewares/lvgl/src/extra/layouts/grid/../flex/../../../core/../misc/../font/../misc/lv_area.h ****     LV_DIR_RIGHT    = (1 << 1),
  92:Middlewares/lvgl/src/extra/layouts/grid/../flex/../../../core/../misc/../font/../misc/lv_area.h ****     LV_DIR_TOP      = (1 << 2),
  93:Middlewares/lvgl/src/extra/layouts/grid/../flex/../../../core/../misc/../font/../misc/lv_area.h ****     LV_DIR_BOTTOM   = (1 << 3),
  94:Middlewares/lvgl/src/extra/layouts/grid/../flex/../../../core/../misc/../font/../misc/lv_area.h ****     LV_DIR_HOR      = LV_DIR_LEFT | LV_DIR_RIGHT,
  95:Middlewares/lvgl/src/extra/layouts/grid/../flex/../../../core/../misc/../font/../misc/lv_area.h ****     LV_DIR_VER      = LV_DIR_TOP | LV_DIR_BOTTOM,
  96:Middlewares/lvgl/src/extra/layouts/grid/../flex/../../../core/../misc/../font/../misc/lv_area.h ****     LV_DIR_ALL      = LV_DIR_HOR | LV_DIR_VER,
  97:Middlewares/lvgl/src/extra/layouts/grid/../flex/../../../core/../misc/../font/../misc/lv_area.h **** };
  98:Middlewares/lvgl/src/extra/layouts/grid/../flex/../../../core/../misc/../font/../misc/lv_area.h **** 
  99:Middlewares/lvgl/src/extra/layouts/grid/../flex/../../../core/../misc/../font/../misc/lv_area.h **** typedef uint8_t lv_dir_t;
 100:Middlewares/lvgl/src/extra/layouts/grid/../flex/../../../core/../misc/../font/../misc/lv_area.h **** 
 101:Middlewares/lvgl/src/extra/layouts/grid/../flex/../../../core/../misc/../font/../misc/lv_area.h **** /**********************
 102:Middlewares/lvgl/src/extra/layouts/grid/../flex/../../../core/../misc/../font/../misc/lv_area.h ****  * GLOBAL PROTOTYPES
 103:Middlewares/lvgl/src/extra/layouts/grid/../flex/../../../core/../misc/../font/../misc/lv_area.h ****  **********************/
 104:Middlewares/lvgl/src/extra/layouts/grid/../flex/../../../core/../misc/../font/../misc/lv_area.h **** 
 105:Middlewares/lvgl/src/extra/layouts/grid/../flex/../../../core/../misc/../font/../misc/lv_area.h **** /**
 106:Middlewares/lvgl/src/extra/layouts/grid/../flex/../../../core/../misc/../font/../misc/lv_area.h ****  * Initialize an area
 107:Middlewares/lvgl/src/extra/layouts/grid/../flex/../../../core/../misc/../font/../misc/lv_area.h ****  * @param area_p pointer to an area
 108:Middlewares/lvgl/src/extra/layouts/grid/../flex/../../../core/../misc/../font/../misc/lv_area.h ****  * @param x1 left coordinate of the area
 109:Middlewares/lvgl/src/extra/layouts/grid/../flex/../../../core/../misc/../font/../misc/lv_area.h ****  * @param y1 top coordinate of the area
 110:Middlewares/lvgl/src/extra/layouts/grid/../flex/../../../core/../misc/../font/../misc/lv_area.h ****  * @param x2 right coordinate of the area
 111:Middlewares/lvgl/src/extra/layouts/grid/../flex/../../../core/../misc/../font/../misc/lv_area.h ****  * @param y2 bottom coordinate of the area
ARM GAS  /tmp/cc1NzchT.s 			page 38


 112:Middlewares/lvgl/src/extra/layouts/grid/../flex/../../../core/../misc/../font/../misc/lv_area.h ****  */
 113:Middlewares/lvgl/src/extra/layouts/grid/../flex/../../../core/../misc/../font/../misc/lv_area.h **** void lv_area_set(lv_area_t * area_p, lv_coord_t x1, lv_coord_t y1, lv_coord_t x2, lv_coord_t y2);
 114:Middlewares/lvgl/src/extra/layouts/grid/../flex/../../../core/../misc/../font/../misc/lv_area.h **** 
 115:Middlewares/lvgl/src/extra/layouts/grid/../flex/../../../core/../misc/../font/../misc/lv_area.h **** /**
 116:Middlewares/lvgl/src/extra/layouts/grid/../flex/../../../core/../misc/../font/../misc/lv_area.h ****  * Copy an area
 117:Middlewares/lvgl/src/extra/layouts/grid/../flex/../../../core/../misc/../font/../misc/lv_area.h ****  * @param dest pointer to the destination area
 118:Middlewares/lvgl/src/extra/layouts/grid/../flex/../../../core/../misc/../font/../misc/lv_area.h ****  * @param src pointer to the source area
 119:Middlewares/lvgl/src/extra/layouts/grid/../flex/../../../core/../misc/../font/../misc/lv_area.h ****  */
 120:Middlewares/lvgl/src/extra/layouts/grid/../flex/../../../core/../misc/../font/../misc/lv_area.h **** inline static void lv_area_copy(lv_area_t * dest, const lv_area_t * src)
 121:Middlewares/lvgl/src/extra/layouts/grid/../flex/../../../core/../misc/../font/../misc/lv_area.h **** {
 122:Middlewares/lvgl/src/extra/layouts/grid/../flex/../../../core/../misc/../font/../misc/lv_area.h ****     dest->x1 = src->x1;
 123:Middlewares/lvgl/src/extra/layouts/grid/../flex/../../../core/../misc/../font/../misc/lv_area.h ****     dest->y1 = src->y1;
 124:Middlewares/lvgl/src/extra/layouts/grid/../flex/../../../core/../misc/../font/../misc/lv_area.h ****     dest->x2 = src->x2;
 125:Middlewares/lvgl/src/extra/layouts/grid/../flex/../../../core/../misc/../font/../misc/lv_area.h ****     dest->y2 = src->y2;
 126:Middlewares/lvgl/src/extra/layouts/grid/../flex/../../../core/../misc/../font/../misc/lv_area.h **** }
 127:Middlewares/lvgl/src/extra/layouts/grid/../flex/../../../core/../misc/../font/../misc/lv_area.h **** 
 128:Middlewares/lvgl/src/extra/layouts/grid/../flex/../../../core/../misc/../font/../misc/lv_area.h **** /**
 129:Middlewares/lvgl/src/extra/layouts/grid/../flex/../../../core/../misc/../font/../misc/lv_area.h ****  * Get the width of an area
 130:Middlewares/lvgl/src/extra/layouts/grid/../flex/../../../core/../misc/../font/../misc/lv_area.h ****  * @param area_p pointer to an area
 131:Middlewares/lvgl/src/extra/layouts/grid/../flex/../../../core/../misc/../font/../misc/lv_area.h ****  * @return the width of the area (if x1 == x2 -> width = 1)
 132:Middlewares/lvgl/src/extra/layouts/grid/../flex/../../../core/../misc/../font/../misc/lv_area.h ****  */
 133:Middlewares/lvgl/src/extra/layouts/grid/../flex/../../../core/../misc/../font/../misc/lv_area.h **** static inline lv_coord_t lv_area_get_width(const lv_area_t * area_p)
 724              		.loc 4 133 26 view .LVU245
 725              	.LBB136:
 134:Middlewares/lvgl/src/extra/layouts/grid/../flex/../../../core/../misc/../font/../misc/lv_area.h **** {
 135:Middlewares/lvgl/src/extra/layouts/grid/../flex/../../../core/../misc/../font/../misc/lv_area.h ****     return (lv_coord_t)(area_p->x2 - area_p->x1 + 1);
 726              		.loc 4 135 5 view .LVU246
 727              		.loc 4 135 31 is_stmt 0 view .LVU247
 728 00da 268B     		ldrh	r6, [r4, #24]
 729              		.loc 4 135 44 view .LVU248
 730 00dc A38A     		ldrh	r3, [r4, #20]
 731              		.loc 4 135 36 view .LVU249
 732 00de F61A     		subs	r6, r6, r3
 733 00e0 B6B2     		uxth	r6, r6
 734              		.loc 4 135 49 view .LVU250
 735 00e2 0136     		adds	r6, r6, #1
 736              		.loc 4 135 12 view .LVU251
 737 00e4 36B2     		sxth	r6, r6
 738              	.LVL83:
 739              		.loc 4 135 12 view .LVU252
 740              	.LBE136:
 741              	.LBE135:
 576:Middlewares/lvgl/src/extra/layouts/grid/lv_grid.c **** 
 742              		.loc 1 576 5 is_stmt 1 view .LVU253
 743              	.LBB137:
 744              	.LBI137:
 136:Middlewares/lvgl/src/extra/layouts/grid/../flex/../../../core/../misc/../font/../misc/lv_area.h **** }
 137:Middlewares/lvgl/src/extra/layouts/grid/../flex/../../../core/../misc/../font/../misc/lv_area.h **** 
 138:Middlewares/lvgl/src/extra/layouts/grid/../flex/../../../core/../misc/../font/../misc/lv_area.h **** /**
 139:Middlewares/lvgl/src/extra/layouts/grid/../flex/../../../core/../misc/../font/../misc/lv_area.h ****  * Get the height of an area
 140:Middlewares/lvgl/src/extra/layouts/grid/../flex/../../../core/../misc/../font/../misc/lv_area.h ****  * @param area_p pointer to an area
 141:Middlewares/lvgl/src/extra/layouts/grid/../flex/../../../core/../misc/../font/../misc/lv_area.h ****  * @return the height of the area (if y1 == y2 -> height = 1)
 142:Middlewares/lvgl/src/extra/layouts/grid/../flex/../../../core/../misc/../font/../misc/lv_area.h ****  */
 143:Middlewares/lvgl/src/extra/layouts/grid/../flex/../../../core/../misc/../font/../misc/lv_area.h **** static inline lv_coord_t lv_area_get_height(const lv_area_t * area_p)
 745              		.loc 4 143 26 view .LVU254
 746              	.LBB138:
 144:Middlewares/lvgl/src/extra/layouts/grid/../flex/../../../core/../misc/../font/../misc/lv_area.h **** {
ARM GAS  /tmp/cc1NzchT.s 			page 39


 145:Middlewares/lvgl/src/extra/layouts/grid/../flex/../../../core/../misc/../font/../misc/lv_area.h ****     return (lv_coord_t)(area_p->y2 - area_p->y1 + 1);
 747              		.loc 4 145 5 view .LVU255
 748              		.loc 4 145 31 is_stmt 0 view .LVU256
 749 00e6 678B     		ldrh	r7, [r4, #26]
 750              		.loc 4 145 44 view .LVU257
 751 00e8 E38A     		ldrh	r3, [r4, #22]
 752              		.loc 4 145 36 view .LVU258
 753 00ea FF1A     		subs	r7, r7, r3
 754 00ec BFB2     		uxth	r7, r7
 755              		.loc 4 145 49 view .LVU259
 756 00ee 0137     		adds	r7, r7, #1
 757              		.loc 4 145 12 view .LVU260
 758 00f0 3FB2     		sxth	r7, r7
 759              	.LVL84:
 760              		.loc 4 145 12 view .LVU261
 761              	.LBE138:
 762              	.LBE137:
 578:Middlewares/lvgl/src/extra/layouts/grid/lv_grid.c ****         default:
 763              		.loc 1 578 5 is_stmt 1 view .LVU262
 764 00f2 B8F1020F 		cmp	r8, #2
 765 00f6 00F0DD80 		beq	.L29
 766 00fa B8F1030F 		cmp	r8, #3
 767 00fe 00F0BC80 		beq	.L30
 768 0102 B8F1010F 		cmp	r8, #1
 769 0106 00F0C380 		beq	.L31
 581:Middlewares/lvgl/src/extra/layouts/grid/lv_grid.c ****             item->w_layout = 0;
 770              		.loc 1 581 13 view .LVU263
 581:Middlewares/lvgl/src/extra/layouts/grid/lv_grid.c ****             item->w_layout = 0;
 771              		.loc 1 581 18 is_stmt 0 view .LVU264
 772 010a 2B68     		ldr	r3, [r5]
 581:Middlewares/lvgl/src/extra/layouts/grid/lv_grid.c ****             item->w_layout = 0;
 773              		.loc 1 581 15 view .LVU265
 774 010c 33F91B80 		ldrsh	r8, [r3, fp, lsl #1]
 775              	.LVL85:
 582:Middlewares/lvgl/src/extra/layouts/grid/lv_grid.c ****             break;
 776              		.loc 1 582 13 is_stmt 1 view .LVU266
 582:Middlewares/lvgl/src/extra/layouts/grid/lv_grid.c ****             break;
 777              		.loc 1 582 28 is_stmt 0 view .LVU267
 778 0110 94F82330 		ldrb	r3, [r4, #35]	@ zero_extendqisi2
 779 0114 6FF38203 		bfc	r3, #2, #1
 780 0118 84F82330 		strb	r3, [r4, #35]
 781              	.LVL86:
 583:Middlewares/lvgl/src/extra/layouts/grid/lv_grid.c ****         case LV_GRID_ALIGN_STRETCH:
 782              		.loc 1 583 13 is_stmt 1 view .LVU268
 783              	.L32:
 599:Middlewares/lvgl/src/extra/layouts/grid/lv_grid.c ****         default:
 784              		.loc 1 599 5 view .LVU269
 785 011c B9F1020F 		cmp	r9, #2
 786 0120 00F00881 		beq	.L33
 599:Middlewares/lvgl/src/extra/layouts/grid/lv_grid.c ****         default:
 787              		.loc 1 599 5 is_stmt 0 view .LVU270
 788 0124 B9F1030F 		cmp	r9, #3
 789 0128 00F0DA80 		beq	.L34
 790 012c B9F1010F 		cmp	r9, #1
 791 0130 00F0E180 		beq	.L35
 602:Middlewares/lvgl/src/extra/layouts/grid/lv_grid.c ****             item->h_layout = 0;
 792              		.loc 1 602 13 is_stmt 1 view .LVU271
ARM GAS  /tmp/cc1NzchT.s 			page 40


 602:Middlewares/lvgl/src/extra/layouts/grid/lv_grid.c ****             item->h_layout = 0;
 793              		.loc 1 602 18 is_stmt 0 view .LVU272
 794 0134 6B68     		ldr	r3, [r5, #4]
 602:Middlewares/lvgl/src/extra/layouts/grid/lv_grid.c ****             item->h_layout = 0;
 795              		.loc 1 602 15 view .LVU273
 796 0136 33F91A50 		ldrsh	r5, [r3, r10, lsl #1]
 797              	.LVL87:
 603:Middlewares/lvgl/src/extra/layouts/grid/lv_grid.c ****             break;
 798              		.loc 1 603 13 is_stmt 1 view .LVU274
 603:Middlewares/lvgl/src/extra/layouts/grid/lv_grid.c ****             break;
 799              		.loc 1 603 28 is_stmt 0 view .LVU275
 800 013a 94F82330 		ldrb	r3, [r4, #35]	@ zero_extendqisi2
 801 013e 6FF34103 		bfc	r3, #1, #1
 802 0142 84F82330 		strb	r3, [r4, #35]
 604:Middlewares/lvgl/src/extra/layouts/grid/lv_grid.c ****         case LV_GRID_ALIGN_STRETCH:
 803              		.loc 1 604 13 is_stmt 1 view .LVU276
 804              	.LVL88:
 805              	.L36:
 621:Middlewares/lvgl/src/extra/layouts/grid/lv_grid.c ****         lv_area_t old_coords;
 806              		.loc 1 621 5 view .LVU277
 621:Middlewares/lvgl/src/extra/layouts/grid/lv_grid.c ****         lv_area_t old_coords;
 807              		.loc 1 621 8 is_stmt 0 view .LVU278
 808 0146 2046     		mov	r0, r4
 809 0148 FFF7FEFF 		bl	lv_obj_get_width
 810              	.LVL89:
 621:Middlewares/lvgl/src/extra/layouts/grid/lv_grid.c ****         lv_area_t old_coords;
 811              		.loc 1 621 7 view .LVU279
 812 014c B042     		cmp	r0, r6
 813 014e 00F00481 		beq	.L51
 814              	.L37:
 815              	.LBB139:
 622:Middlewares/lvgl/src/extra/layouts/grid/lv_grid.c ****         lv_area_copy(&old_coords, &item->coords);
 816              		.loc 1 622 9 is_stmt 1 view .LVU280
 623:Middlewares/lvgl/src/extra/layouts/grid/lv_grid.c ****         lv_obj_invalidate(item);
 817              		.loc 1 623 9 view .LVU281
 818              	.LVL90:
 819              	.LBB140:
 820              	.LBI140:
 120:Middlewares/lvgl/src/extra/layouts/grid/../flex/../../../core/../misc/../font/../misc/lv_area.h **** {
 821              		.loc 4 120 20 view .LVU282
 822              	.LBB141:
 122:Middlewares/lvgl/src/extra/layouts/grid/../flex/../../../core/../misc/../font/../misc/lv_area.h ****     dest->y1 = src->y1;
 823              		.loc 4 122 5 view .LVU283
 122:Middlewares/lvgl/src/extra/layouts/grid/../flex/../../../core/../misc/../font/../misc/lv_area.h ****     dest->y1 = src->y1;
 824              		.loc 4 122 19 is_stmt 0 view .LVU284
 825 0152 B4F91430 		ldrsh	r3, [r4, #20]
 122:Middlewares/lvgl/src/extra/layouts/grid/../flex/../../../core/../misc/../font/../misc/lv_area.h ****     dest->y1 = src->y1;
 826              		.loc 4 122 14 view .LVU285
 827 0156 ADF81830 		strh	r3, [sp, #24]	@ movhi
 123:Middlewares/lvgl/src/extra/layouts/grid/../flex/../../../core/../misc/../font/../misc/lv_area.h ****     dest->x2 = src->x2;
 828              		.loc 4 123 5 is_stmt 1 view .LVU286
 123:Middlewares/lvgl/src/extra/layouts/grid/../flex/../../../core/../misc/../font/../misc/lv_area.h ****     dest->x2 = src->x2;
 829              		.loc 4 123 19 is_stmt 0 view .LVU287
 830 015a B4F91630 		ldrsh	r3, [r4, #22]
 123:Middlewares/lvgl/src/extra/layouts/grid/../flex/../../../core/../misc/../font/../misc/lv_area.h ****     dest->x2 = src->x2;
 831              		.loc 4 123 14 view .LVU288
 832 015e ADF81A30 		strh	r3, [sp, #26]	@ movhi
ARM GAS  /tmp/cc1NzchT.s 			page 41


 124:Middlewares/lvgl/src/extra/layouts/grid/../flex/../../../core/../misc/../font/../misc/lv_area.h ****     dest->y2 = src->y2;
 833              		.loc 4 124 5 is_stmt 1 view .LVU289
 124:Middlewares/lvgl/src/extra/layouts/grid/../flex/../../../core/../misc/../font/../misc/lv_area.h ****     dest->y2 = src->y2;
 834              		.loc 4 124 19 is_stmt 0 view .LVU290
 835 0162 B4F91830 		ldrsh	r3, [r4, #24]
 124:Middlewares/lvgl/src/extra/layouts/grid/../flex/../../../core/../misc/../font/../misc/lv_area.h ****     dest->y2 = src->y2;
 836              		.loc 4 124 14 view .LVU291
 837 0166 ADF81C30 		strh	r3, [sp, #28]	@ movhi
 125:Middlewares/lvgl/src/extra/layouts/grid/../flex/../../../core/../misc/../font/../misc/lv_area.h **** }
 838              		.loc 4 125 5 is_stmt 1 view .LVU292
 125:Middlewares/lvgl/src/extra/layouts/grid/../flex/../../../core/../misc/../font/../misc/lv_area.h **** }
 839              		.loc 4 125 19 is_stmt 0 view .LVU293
 840 016a B4F91A30 		ldrsh	r3, [r4, #26]
 125:Middlewares/lvgl/src/extra/layouts/grid/../flex/../../../core/../misc/../font/../misc/lv_area.h **** }
 841              		.loc 4 125 14 view .LVU294
 842 016e ADF81E30 		strh	r3, [sp, #30]	@ movhi
 843              	.LVL91:
 125:Middlewares/lvgl/src/extra/layouts/grid/../flex/../../../core/../misc/../font/../misc/lv_area.h **** }
 844              		.loc 4 125 14 view .LVU295
 845              	.LBE141:
 846              	.LBE140:
 624:Middlewares/lvgl/src/extra/layouts/grid/lv_grid.c ****         lv_area_set_width(&item->coords, item_w);
 847              		.loc 1 624 9 is_stmt 1 view .LVU296
 848 0172 2046     		mov	r0, r4
 849 0174 FFF7FEFF 		bl	lv_obj_invalidate
 850              	.LVL92:
 625:Middlewares/lvgl/src/extra/layouts/grid/lv_grid.c ****         lv_area_set_height(&item->coords, item_h);
 851              		.loc 1 625 9 view .LVU297
 852 0178 04F11403 		add	r3, r4, #20
 853 017c 3146     		mov	r1, r6
 854 017e 1E46     		mov	r6, r3
 855              	.LVL93:
 625:Middlewares/lvgl/src/extra/layouts/grid/lv_grid.c ****         lv_area_set_height(&item->coords, item_h);
 856              		.loc 1 625 9 is_stmt 0 view .LVU298
 857 0180 1846     		mov	r0, r3
 858 0182 FFF7FEFF 		bl	lv_area_set_width
 859              	.LVL94:
 626:Middlewares/lvgl/src/extra/layouts/grid/lv_grid.c ****         lv_obj_invalidate(item);
 860              		.loc 1 626 9 is_stmt 1 view .LVU299
 861 0186 3946     		mov	r1, r7
 862 0188 3046     		mov	r0, r6
 863 018a FFF7FEFF 		bl	lv_area_set_height
 864              	.LVL95:
 627:Middlewares/lvgl/src/extra/layouts/grid/lv_grid.c ****         lv_event_send(item, LV_EVENT_SIZE_CHANGED, &old_coords);
 865              		.loc 1 627 9 view .LVU300
 866 018e 2046     		mov	r0, r4
 867 0190 FFF7FEFF 		bl	lv_obj_invalidate
 868              	.LVL96:
 628:Middlewares/lvgl/src/extra/layouts/grid/lv_grid.c ****         lv_event_send(lv_obj_get_parent(item), LV_EVENT_CHILD_CHANGED, item);
 869              		.loc 1 628 9 view .LVU301
 870 0194 06AA     		add	r2, sp, #24
 871 0196 2321     		movs	r1, #35
 872 0198 2046     		mov	r0, r4
 873 019a FFF7FEFF 		bl	lv_event_send
 874              	.LVL97:
 629:Middlewares/lvgl/src/extra/layouts/grid/lv_grid.c **** 
 875              		.loc 1 629 9 view .LVU302
ARM GAS  /tmp/cc1NzchT.s 			page 42


 876 019e 2046     		mov	r0, r4
 877 01a0 FFF7FEFF 		bl	lv_obj_get_parent
 878              	.LVL98:
 879 01a4 2246     		mov	r2, r4
 880 01a6 2221     		movs	r1, #34
 881 01a8 FFF7FEFF 		bl	lv_event_send
 882              	.LVL99:
 883              	.L38:
 629:Middlewares/lvgl/src/extra/layouts/grid/lv_grid.c **** 
 884              		.loc 1 629 9 is_stmt 0 view .LVU303
 885              	.LBE139:
 634:Middlewares/lvgl/src/extra/layouts/grid/lv_grid.c ****     lv_coord_t tr_y = lv_obj_get_style_translate_y(item, LV_PART_MAIN);
 886              		.loc 1 634 5 is_stmt 1 view .LVU304
 887              	.LBB142:
 888              	.LBI142:
  67:Middlewares/lvgl/src/extra/layouts/grid/../flex/../../../core/lv_obj_style_gen.h **** {
 889              		.loc 3 67 26 view .LVU305
 890              	.LBB143:
  69:Middlewares/lvgl/src/extra/layouts/grid/../flex/../../../core/lv_obj_style_gen.h ****     return (lv_coord_t)v.num;
 891              		.loc 3 69 5 view .LVU306
  69:Middlewares/lvgl/src/extra/layouts/grid/../flex/../../../core/lv_obj_style_gen.h ****     return (lv_coord_t)v.num;
 892              		.loc 3 69 26 is_stmt 0 view .LVU307
 893 01ac 43F20C02 		movw	r2, #12300
 894 01b0 0021     		movs	r1, #0
 895 01b2 2046     		mov	r0, r4
 896 01b4 FFF7FEFF 		bl	lv_obj_get_style_prop
 897              	.LVL100:
 898 01b8 0746     		mov	r7, r0
 899              	.LVL101:
  70:Middlewares/lvgl/src/extra/layouts/grid/../flex/../../../core/lv_obj_style_gen.h **** }
 900              		.loc 3 70 5 is_stmt 1 view .LVU308
  70:Middlewares/lvgl/src/extra/layouts/grid/../flex/../../../core/lv_obj_style_gen.h **** }
 901              		.loc 3 70 12 is_stmt 0 view .LVU309
 902 01ba 0FFA80FA 		sxth	r10, r0
 903              	.LVL102:
  70:Middlewares/lvgl/src/extra/layouts/grid/../flex/../../../core/lv_obj_style_gen.h **** }
 904              		.loc 3 70 12 view .LVU310
 905              	.LBE143:
 906              	.LBE142:
 635:Middlewares/lvgl/src/extra/layouts/grid/lv_grid.c ****     lv_coord_t w = lv_obj_get_width(item);
 907              		.loc 1 635 5 is_stmt 1 view .LVU311
 908              	.LBB144:
 909              	.LBI144:
  73:Middlewares/lvgl/src/extra/layouts/grid/../flex/../../../core/lv_obj_style_gen.h **** {
 910              		.loc 3 73 26 view .LVU312
 911              	.LBB145:
  75:Middlewares/lvgl/src/extra/layouts/grid/../flex/../../../core/lv_obj_style_gen.h ****     return (lv_coord_t)v.num;
 912              		.loc 3 75 5 view .LVU313
  75:Middlewares/lvgl/src/extra/layouts/grid/../flex/../../../core/lv_obj_style_gen.h ****     return (lv_coord_t)v.num;
 913              		.loc 3 75 26 is_stmt 0 view .LVU314
 914 01be 43F20D02 		movw	r2, #12301
 915 01c2 0021     		movs	r1, #0
 916 01c4 2046     		mov	r0, r4
  75:Middlewares/lvgl/src/extra/layouts/grid/../flex/../../../core/lv_obj_style_gen.h ****     return (lv_coord_t)v.num;
 917              		.loc 3 75 26 view .LVU315
 918 01c6 FFF7FEFF 		bl	lv_obj_get_style_prop
 919              	.LVL103:
ARM GAS  /tmp/cc1NzchT.s 			page 43


 920 01ca 0646     		mov	r6, r0
  76:Middlewares/lvgl/src/extra/layouts/grid/../flex/../../../core/lv_obj_style_gen.h **** }
 921              		.loc 3 76 5 is_stmt 1 view .LVU316
  76:Middlewares/lvgl/src/extra/layouts/grid/../flex/../../../core/lv_obj_style_gen.h **** }
 922              		.loc 3 76 12 is_stmt 0 view .LVU317
 923 01cc 0FFA80F9 		sxth	r9, r0
 924              	.LVL104:
  76:Middlewares/lvgl/src/extra/layouts/grid/../flex/../../../core/lv_obj_style_gen.h **** }
 925              		.loc 3 76 12 view .LVU318
 926              	.LBE145:
 927              	.LBE144:
 636:Middlewares/lvgl/src/extra/layouts/grid/lv_grid.c ****     lv_coord_t h = lv_obj_get_height(item);
 928              		.loc 1 636 5 is_stmt 1 view .LVU319
 636:Middlewares/lvgl/src/extra/layouts/grid/lv_grid.c ****     lv_coord_t h = lv_obj_get_height(item);
 929              		.loc 1 636 20 is_stmt 0 view .LVU320
 930 01d0 2046     		mov	r0, r4
 931 01d2 FFF7FEFF 		bl	lv_obj_get_width
 932              	.LVL105:
 933 01d6 8346     		mov	fp, r0
 934              	.LVL106:
 637:Middlewares/lvgl/src/extra/layouts/grid/lv_grid.c ****     if(LV_COORD_IS_PCT(tr_x)) tr_x = (w * LV_COORD_GET_PCT(tr_x)) / 100;
 935              		.loc 1 637 5 is_stmt 1 view .LVU321
 637:Middlewares/lvgl/src/extra/layouts/grid/lv_grid.c ****     if(LV_COORD_IS_PCT(tr_x)) tr_x = (w * LV_COORD_GET_PCT(tr_x)) / 100;
 936              		.loc 1 637 20 is_stmt 0 view .LVU322
 937 01d8 2046     		mov	r0, r4
 938 01da FFF7FEFF 		bl	lv_obj_get_height
 939              	.LVL107:
 638:Middlewares/lvgl/src/extra/layouts/grid/lv_grid.c ****     if(LV_COORD_IS_PCT(tr_y)) tr_y = (h * LV_COORD_GET_PCT(tr_y)) / 100;
 940              		.loc 1 638 5 is_stmt 1 view .LVU323
 638:Middlewares/lvgl/src/extra/layouts/grid/lv_grid.c ****     if(LV_COORD_IS_PCT(tr_y)) tr_y = (h * LV_COORD_GET_PCT(tr_y)) / 100;
 941              		.loc 1 638 8 is_stmt 0 view .LVU324
 942 01de 07F4C047 		and	r7, r7, #24576
 943              	.LVL108:
 638:Middlewares/lvgl/src/extra/layouts/grid/lv_grid.c ****     if(LV_COORD_IS_PCT(tr_y)) tr_y = (h * LV_COORD_GET_PCT(tr_y)) / 100;
 944              		.loc 1 638 7 view .LVU325
 945 01e2 B7F5005F 		cmp	r7, #8192
 946 01e6 00F0BF80 		beq	.L52
 947              	.LVL109:
 948              	.L39:
 639:Middlewares/lvgl/src/extra/layouts/grid/lv_grid.c **** 
 949              		.loc 1 639 5 is_stmt 1 view .LVU326
 639:Middlewares/lvgl/src/extra/layouts/grid/lv_grid.c **** 
 950              		.loc 1 639 8 is_stmt 0 view .LVU327
 951 01ea 06F4C046 		and	r6, r6, #24576
 639:Middlewares/lvgl/src/extra/layouts/grid/lv_grid.c **** 
 952              		.loc 1 639 7 view .LVU328
 953 01ee B6F5005F 		cmp	r6, #8192
 954 01f2 00F0D080 		beq	.L53
 955              	.L42:
 641:Middlewares/lvgl/src/extra/layouts/grid/lv_grid.c ****     y += tr_y;
 956              		.loc 1 641 5 is_stmt 1 view .LVU329
 641:Middlewares/lvgl/src/extra/layouts/grid/lv_grid.c ****     y += tr_y;
 957              		.loc 1 641 7 is_stmt 0 view .LVU330
 958 01f6 08EB0A06 		add	r6, r8, r10
 959 01fa B6B2     		uxth	r6, r6
 960              	.LVL110:
 642:Middlewares/lvgl/src/extra/layouts/grid/lv_grid.c **** 
ARM GAS  /tmp/cc1NzchT.s 			page 44


 961              		.loc 1 642 5 is_stmt 1 view .LVU331
 642:Middlewares/lvgl/src/extra/layouts/grid/lv_grid.c **** 
 962              		.loc 1 642 7 is_stmt 0 view .LVU332
 963 01fc 05EB0902 		add	r2, r5, r9
 964 0200 92B2     		uxth	r2, r2
 965              	.LVL111:
 644:Middlewares/lvgl/src/extra/layouts/grid/lv_grid.c ****     lv_coord_t diff_y = hint->grid_abs.y + y - item->coords.y1;
 966              		.loc 1 644 5 is_stmt 1 view .LVU333
 644:Middlewares/lvgl/src/extra/layouts/grid/lv_grid.c ****     lv_coord_t diff_y = hint->grid_abs.y + y - item->coords.y1;
 967              		.loc 1 644 39 is_stmt 0 view .LVU334
 968 0202 0199     		ldr	r1, [sp, #4]
 969 0204 B1F80880 		ldrh	r8, [r1, #8]
 644:Middlewares/lvgl/src/extra/layouts/grid/lv_grid.c ****     lv_coord_t diff_y = hint->grid_abs.y + y - item->coords.y1;
 970              		.loc 1 644 42 view .LVU335
 971 0208 4644     		add	r6, r6, r8
 972              	.LVL112:
 644:Middlewares/lvgl/src/extra/layouts/grid/lv_grid.c ****     lv_coord_t diff_y = hint->grid_abs.y + y - item->coords.y1;
 973              		.loc 1 644 42 view .LVU336
 974 020a B6B2     		uxth	r6, r6
 644:Middlewares/lvgl/src/extra/layouts/grid/lv_grid.c ****     lv_coord_t diff_y = hint->grid_abs.y + y - item->coords.y1;
 975              		.loc 1 644 60 view .LVU337
 976 020c A38A     		ldrh	r3, [r4, #20]
 644:Middlewares/lvgl/src/extra/layouts/grid/lv_grid.c ****     lv_coord_t diff_y = hint->grid_abs.y + y - item->coords.y1;
 977              		.loc 1 644 46 view .LVU338
 978 020e F61A     		subs	r6, r6, r3
 979 0210 B7B2     		uxth	r7, r6
 644:Middlewares/lvgl/src/extra/layouts/grid/lv_grid.c ****     lv_coord_t diff_y = hint->grid_abs.y + y - item->coords.y1;
 980              		.loc 1 644 16 view .LVU339
 981 0212 36B2     		sxth	r6, r6
 982              	.LVL113:
 645:Middlewares/lvgl/src/extra/layouts/grid/lv_grid.c ****     if(diff_x || diff_y) {
 983              		.loc 1 645 5 is_stmt 1 view .LVU340
 645:Middlewares/lvgl/src/extra/layouts/grid/lv_grid.c ****     if(diff_x || diff_y) {
 984              		.loc 1 645 39 is_stmt 0 view .LVU341
 985 0214 4D89     		ldrh	r5, [r1, #10]
 645:Middlewares/lvgl/src/extra/layouts/grid/lv_grid.c ****     if(diff_x || diff_y) {
 986              		.loc 1 645 42 view .LVU342
 987 0216 2A44     		add	r2, r2, r5
 988              	.LVL114:
 645:Middlewares/lvgl/src/extra/layouts/grid/lv_grid.c ****     if(diff_x || diff_y) {
 989              		.loc 1 645 42 view .LVU343
 990 0218 92B2     		uxth	r2, r2
 645:Middlewares/lvgl/src/extra/layouts/grid/lv_grid.c ****     if(diff_x || diff_y) {
 991              		.loc 1 645 60 view .LVU344
 992 021a E38A     		ldrh	r3, [r4, #22]
 645:Middlewares/lvgl/src/extra/layouts/grid/lv_grid.c ****     if(diff_x || diff_y) {
 993              		.loc 1 645 46 view .LVU345
 994 021c D21A     		subs	r2, r2, r3
 995 021e 1FFA82F8 		uxth	r8, r2
 645:Middlewares/lvgl/src/extra/layouts/grid/lv_grid.c ****     if(diff_x || diff_y) {
 996              		.loc 1 645 16 view .LVU346
 997 0222 15B2     		sxth	r5, r2
 998              	.LVL115:
 646:Middlewares/lvgl/src/extra/layouts/grid/lv_grid.c ****         lv_obj_invalidate(item);
 999              		.loc 1 646 5 is_stmt 1 view .LVU347
 646:Middlewares/lvgl/src/extra/layouts/grid/lv_grid.c ****         lv_obj_invalidate(item);
 1000              		.loc 1 646 7 is_stmt 0 view .LVU348
ARM GAS  /tmp/cc1NzchT.s 			page 45


 1001 0224 16B9     		cbnz	r6, .L45
 646:Middlewares/lvgl/src/extra/layouts/grid/lv_grid.c ****         lv_obj_invalidate(item);
 1002              		.loc 1 646 15 discriminator 1 view .LVU349
 1003 0226 002D     		cmp	r5, #0
 1004 0228 3FF4F4AE 		beq	.L26
 1005              	.L45:
 647:Middlewares/lvgl/src/extra/layouts/grid/lv_grid.c ****         item->coords.x1 += diff_x;
 1006              		.loc 1 647 9 is_stmt 1 view .LVU350
 1007 022c 2046     		mov	r0, r4
 1008              	.LVL116:
 647:Middlewares/lvgl/src/extra/layouts/grid/lv_grid.c ****         item->coords.x1 += diff_x;
 1009              		.loc 1 647 9 is_stmt 0 view .LVU351
 1010 022e FFF7FEFF 		bl	lv_obj_invalidate
 1011              	.LVL117:
 648:Middlewares/lvgl/src/extra/layouts/grid/lv_grid.c ****         item->coords.x2 += diff_x;
 1012              		.loc 1 648 9 is_stmt 1 view .LVU352
 648:Middlewares/lvgl/src/extra/layouts/grid/lv_grid.c ****         item->coords.x2 += diff_x;
 1013              		.loc 1 648 25 is_stmt 0 view .LVU353
 1014 0232 A38A     		ldrh	r3, [r4, #20]
 1015 0234 3B44     		add	r3, r3, r7
 1016 0236 A382     		strh	r3, [r4, #20]	@ movhi
 649:Middlewares/lvgl/src/extra/layouts/grid/lv_grid.c ****         item->coords.y1 += diff_y;
 1017              		.loc 1 649 9 is_stmt 1 view .LVU354
 649:Middlewares/lvgl/src/extra/layouts/grid/lv_grid.c ****         item->coords.y1 += diff_y;
 1018              		.loc 1 649 25 is_stmt 0 view .LVU355
 1019 0238 238B     		ldrh	r3, [r4, #24]
 1020 023a 1F44     		add	r7, r7, r3
 1021 023c 2783     		strh	r7, [r4, #24]	@ movhi
 650:Middlewares/lvgl/src/extra/layouts/grid/lv_grid.c ****         item->coords.y2 += diff_y;
 1022              		.loc 1 650 9 is_stmt 1 view .LVU356
 650:Middlewares/lvgl/src/extra/layouts/grid/lv_grid.c ****         item->coords.y2 += diff_y;
 1023              		.loc 1 650 25 is_stmt 0 view .LVU357
 1024 023e E38A     		ldrh	r3, [r4, #22]
 1025 0240 4344     		add	r3, r3, r8
 1026 0242 E382     		strh	r3, [r4, #22]	@ movhi
 651:Middlewares/lvgl/src/extra/layouts/grid/lv_grid.c ****         lv_obj_invalidate(item);
 1027              		.loc 1 651 9 is_stmt 1 view .LVU358
 651:Middlewares/lvgl/src/extra/layouts/grid/lv_grid.c ****         lv_obj_invalidate(item);
 1028              		.loc 1 651 25 is_stmt 0 view .LVU359
 1029 0244 638B     		ldrh	r3, [r4, #26]
 1030 0246 9844     		add	r8, r8, r3
 1031 0248 A4F81A80 		strh	r8, [r4, #26]	@ movhi
 652:Middlewares/lvgl/src/extra/layouts/grid/lv_grid.c ****         lv_obj_move_children_by(item, diff_x, diff_y, true);
 1032              		.loc 1 652 9 is_stmt 1 view .LVU360
 1033 024c 2046     		mov	r0, r4
 1034 024e FFF7FEFF 		bl	lv_obj_invalidate
 1035              	.LVL118:
 653:Middlewares/lvgl/src/extra/layouts/grid/lv_grid.c ****     }
 1036              		.loc 1 653 9 view .LVU361
 1037 0252 0123     		movs	r3, #1
 1038 0254 2A46     		mov	r2, r5
 1039 0256 3146     		mov	r1, r6
 1040 0258 2046     		mov	r0, r4
 1041 025a FFF7FEFF 		bl	lv_obj_move_children_by
 1042              	.LVL119:
 1043 025e D9E6     		b	.L26
 1044              	.LVL120:
ARM GAS  /tmp/cc1NzchT.s 			page 46


 1045              	.L50:
 569:Middlewares/lvgl/src/extra/layouts/grid/lv_grid.c ****         else if(col_align == LV_GRID_ALIGN_END) col_align = LV_GRID_ALIGN_START;
 1046              		.loc 1 569 9 view .LVU362
 569:Middlewares/lvgl/src/extra/layouts/grid/lv_grid.c ****         else if(col_align == LV_GRID_ALIGN_END) col_align = LV_GRID_ALIGN_START;
 1047              		.loc 1 569 11 is_stmt 0 view .LVU363
 1048 0260 B8F1000F 		cmp	r8, #0
 1049 0264 06D0     		beq	.L46
 570:Middlewares/lvgl/src/extra/layouts/grid/lv_grid.c ****     }
 1050              		.loc 1 570 14 is_stmt 1 view .LVU364
 570:Middlewares/lvgl/src/extra/layouts/grid/lv_grid.c ****     }
 1051              		.loc 1 570 16 is_stmt 0 view .LVU365
 1052 0266 B8F1020F 		cmp	r8, #2
 1053 026a 7FF436AF 		bne	.L28
 570:Middlewares/lvgl/src/extra/layouts/grid/lv_grid.c ****     }
 1054              		.loc 1 570 59 view .LVU366
 1055 026e 4FF00008 		mov	r8, #0
 1056              	.LVL121:
 570:Middlewares/lvgl/src/extra/layouts/grid/lv_grid.c ****     }
 1057              		.loc 1 570 59 view .LVU367
 1058 0272 32E7     		b	.L28
 1059              	.LVL122:
 1060              	.L46:
 569:Middlewares/lvgl/src/extra/layouts/grid/lv_grid.c ****         else if(col_align == LV_GRID_ALIGN_END) col_align = LV_GRID_ALIGN_START;
 1061              		.loc 1 569 56 view .LVU368
 1062 0274 4FF00208 		mov	r8, #2
 1063              	.LVL123:
 569:Middlewares/lvgl/src/extra/layouts/grid/lv_grid.c ****         else if(col_align == LV_GRID_ALIGN_END) col_align = LV_GRID_ALIGN_START;
 1064              		.loc 1 569 56 view .LVU369
 1065 0278 2FE7     		b	.L28
 1066              	.LVL124:
 1067              	.L30:
 585:Middlewares/lvgl/src/extra/layouts/grid/lv_grid.c ****             item_w = col_w;
 1068              		.loc 1 585 13 is_stmt 1 view .LVU370
 585:Middlewares/lvgl/src/extra/layouts/grid/lv_grid.c ****             item_w = col_w;
 1069              		.loc 1 585 18 is_stmt 0 view .LVU371
 1070 027a 2B68     		ldr	r3, [r5]
 585:Middlewares/lvgl/src/extra/layouts/grid/lv_grid.c ****             item_w = col_w;
 1071              		.loc 1 585 15 view .LVU372
 1072 027c 33F91B80 		ldrsh	r8, [r3, fp, lsl #1]
 1073              	.LVL125:
 586:Middlewares/lvgl/src/extra/layouts/grid/lv_grid.c ****             item->w_layout = 1;
 1074              		.loc 1 586 13 is_stmt 1 view .LVU373
 587:Middlewares/lvgl/src/extra/layouts/grid/lv_grid.c ****             break;
 1075              		.loc 1 587 13 view .LVU374
 587:Middlewares/lvgl/src/extra/layouts/grid/lv_grid.c ****             break;
 1076              		.loc 1 587 28 is_stmt 0 view .LVU375
 1077 0280 94F82330 		ldrb	r3, [r4, #35]	@ zero_extendqisi2
 1078 0284 43F00403 		orr	r3, r3, #4
 1079 0288 84F82330 		strb	r3, [r4, #35]
 1080              	.LVL126:
 588:Middlewares/lvgl/src/extra/layouts/grid/lv_grid.c ****         case LV_GRID_ALIGN_CENTER:
 1081              		.loc 1 588 13 is_stmt 1 view .LVU376
 586:Middlewares/lvgl/src/extra/layouts/grid/lv_grid.c ****             item->w_layout = 1;
 1082              		.loc 1 586 20 is_stmt 0 view .LVU377
 1083 028c 029E     		ldr	r6, [sp, #8]
 588:Middlewares/lvgl/src/extra/layouts/grid/lv_grid.c ****         case LV_GRID_ALIGN_CENTER:
 1084              		.loc 1 588 13 view .LVU378
ARM GAS  /tmp/cc1NzchT.s 			page 47


 1085 028e 45E7     		b	.L32
 1086              	.LVL127:
 1087              	.L31:
 590:Middlewares/lvgl/src/extra/layouts/grid/lv_grid.c ****             item->w_layout = 0;
 1088              		.loc 1 590 13 is_stmt 1 view .LVU379
 590:Middlewares/lvgl/src/extra/layouts/grid/lv_grid.c ****             item->w_layout = 0;
 1089              		.loc 1 590 18 is_stmt 0 view .LVU380
 1090 0290 2B68     		ldr	r3, [r5]
 590:Middlewares/lvgl/src/extra/layouts/grid/lv_grid.c ****             item->w_layout = 0;
 1091              		.loc 1 590 21 view .LVU381
 1092 0292 33F81B80 		ldrh	r8, [r3, fp, lsl #1]
 1093              	.LVL128:
 590:Middlewares/lvgl/src/extra/layouts/grid/lv_grid.c ****             item->w_layout = 0;
 1094              		.loc 1 590 40 view .LVU382
 1095 0296 029B     		ldr	r3, [sp, #8]
 1096 0298 9B1B     		subs	r3, r3, r6
 590:Middlewares/lvgl/src/extra/layouts/grid/lv_grid.c ****             item->w_layout = 0;
 1097              		.loc 1 590 50 view .LVU383
 1098 029a 03EBD373 		add	r3, r3, r3, lsr #31
 590:Middlewares/lvgl/src/extra/layouts/grid/lv_grid.c ****             item->w_layout = 0;
 1099              		.loc 1 590 31 view .LVU384
 1100 029e 08EB6303 		add	r3, r8, r3, asr #1
 590:Middlewares/lvgl/src/extra/layouts/grid/lv_grid.c ****             item->w_layout = 0;
 1101              		.loc 1 590 15 view .LVU385
 1102 02a2 0FFA83F8 		sxth	r8, r3
 1103              	.LVL129:
 591:Middlewares/lvgl/src/extra/layouts/grid/lv_grid.c ****             break;
 1104              		.loc 1 591 13 is_stmt 1 view .LVU386
 591:Middlewares/lvgl/src/extra/layouts/grid/lv_grid.c ****             break;
 1105              		.loc 1 591 28 is_stmt 0 view .LVU387
 1106 02a6 94F82330 		ldrb	r3, [r4, #35]	@ zero_extendqisi2
 1107 02aa 6FF38203 		bfc	r3, #2, #1
 1108 02ae 84F82330 		strb	r3, [r4, #35]
 1109              	.LVL130:
 592:Middlewares/lvgl/src/extra/layouts/grid/lv_grid.c ****         case LV_GRID_ALIGN_END:
 1110              		.loc 1 592 13 is_stmt 1 view .LVU388
 1111 02b2 33E7     		b	.L32
 1112              	.LVL131:
 1113              	.L29:
 594:Middlewares/lvgl/src/extra/layouts/grid/lv_grid.c ****             item->w_layout = 0;
 1114              		.loc 1 594 13 view .LVU389
 594:Middlewares/lvgl/src/extra/layouts/grid/lv_grid.c ****             item->w_layout = 0;
 1115              		.loc 1 594 18 is_stmt 0 view .LVU390
 1116 02b4 2B68     		ldr	r3, [r5]
 594:Middlewares/lvgl/src/extra/layouts/grid/lv_grid.c ****             item->w_layout = 0;
 1117              		.loc 1 594 21 view .LVU391
 1118 02b6 33F81B80 		ldrh	r8, [r3, fp, lsl #1]
 1119              	.LVL132:
 594:Middlewares/lvgl/src/extra/layouts/grid/lv_grid.c ****             item->w_layout = 0;
 1120              		.loc 1 594 31 view .LVU392
 1121 02ba 049B     		ldr	r3, [sp, #16]
 1122 02bc 4344     		add	r3, r3, r8
 1123 02be 1FFA83F8 		uxth	r8, r3
 594:Middlewares/lvgl/src/extra/layouts/grid/lv_grid.c ****             item->w_layout = 0;
 1124              		.loc 1 594 41 view .LVU393
 1125 02c2 2046     		mov	r0, r4
 1126 02c4 FFF7FEFF 		bl	lv_obj_get_width
ARM GAS  /tmp/cc1NzchT.s 			page 48


 1127              	.LVL133:
 1128 02c8 80B2     		uxth	r0, r0
 594:Middlewares/lvgl/src/extra/layouts/grid/lv_grid.c ****             item->w_layout = 0;
 1129              		.loc 1 594 39 view .LVU394
 1130 02ca A8EB0008 		sub	r8, r8, r0
 594:Middlewares/lvgl/src/extra/layouts/grid/lv_grid.c ****             item->w_layout = 0;
 1131              		.loc 1 594 15 view .LVU395
 1132 02ce 0FFA88F8 		sxth	r8, r8
 1133              	.LVL134:
 595:Middlewares/lvgl/src/extra/layouts/grid/lv_grid.c ****             break;
 1134              		.loc 1 595 13 is_stmt 1 view .LVU396
 595:Middlewares/lvgl/src/extra/layouts/grid/lv_grid.c ****             break;
 1135              		.loc 1 595 28 is_stmt 0 view .LVU397
 1136 02d2 94F82330 		ldrb	r3, [r4, #35]	@ zero_extendqisi2
 1137 02d6 6FF38203 		bfc	r3, #2, #1
 1138 02da 84F82330 		strb	r3, [r4, #35]
 1139              	.LVL135:
 596:Middlewares/lvgl/src/extra/layouts/grid/lv_grid.c ****     }
 1140              		.loc 1 596 13 is_stmt 1 view .LVU398
 1141 02de 1DE7     		b	.L32
 1142              	.L34:
 606:Middlewares/lvgl/src/extra/layouts/grid/lv_grid.c ****             item_h = row_h;
 1143              		.loc 1 606 13 view .LVU399
 606:Middlewares/lvgl/src/extra/layouts/grid/lv_grid.c ****             item_h = row_h;
 1144              		.loc 1 606 18 is_stmt 0 view .LVU400
 1145 02e0 6B68     		ldr	r3, [r5, #4]
 606:Middlewares/lvgl/src/extra/layouts/grid/lv_grid.c ****             item_h = row_h;
 1146              		.loc 1 606 15 view .LVU401
 1147 02e2 33F91A50 		ldrsh	r5, [r3, r10, lsl #1]
 1148              	.LVL136:
 607:Middlewares/lvgl/src/extra/layouts/grid/lv_grid.c ****             item->h_layout = 1;
 1149              		.loc 1 607 13 is_stmt 1 view .LVU402
 608:Middlewares/lvgl/src/extra/layouts/grid/lv_grid.c ****             break;
 1150              		.loc 1 608 13 view .LVU403
 608:Middlewares/lvgl/src/extra/layouts/grid/lv_grid.c ****             break;
 1151              		.loc 1 608 28 is_stmt 0 view .LVU404
 1152 02e6 94F82330 		ldrb	r3, [r4, #35]	@ zero_extendqisi2
 1153 02ea 43F00203 		orr	r3, r3, #2
 1154 02ee 84F82330 		strb	r3, [r4, #35]
 1155              	.LVL137:
 609:Middlewares/lvgl/src/extra/layouts/grid/lv_grid.c ****         case LV_GRID_ALIGN_CENTER:
 1156              		.loc 1 609 13 is_stmt 1 view .LVU405
 607:Middlewares/lvgl/src/extra/layouts/grid/lv_grid.c ****             item->h_layout = 1;
 1157              		.loc 1 607 20 is_stmt 0 view .LVU406
 1158 02f2 039F     		ldr	r7, [sp, #12]
 609:Middlewares/lvgl/src/extra/layouts/grid/lv_grid.c ****         case LV_GRID_ALIGN_CENTER:
 1159              		.loc 1 609 13 view .LVU407
 1160 02f4 27E7     		b	.L36
 1161              	.LVL138:
 1162              	.L35:
 611:Middlewares/lvgl/src/extra/layouts/grid/lv_grid.c ****             item->h_layout = 0;
 1163              		.loc 1 611 13 is_stmt 1 view .LVU408
 611:Middlewares/lvgl/src/extra/layouts/grid/lv_grid.c ****             item->h_layout = 0;
 1164              		.loc 1 611 18 is_stmt 0 view .LVU409
 1165 02f6 6B68     		ldr	r3, [r5, #4]
 611:Middlewares/lvgl/src/extra/layouts/grid/lv_grid.c ****             item->h_layout = 0;
 1166              		.loc 1 611 21 view .LVU410
ARM GAS  /tmp/cc1NzchT.s 			page 49


 1167 02f8 33F81A50 		ldrh	r5, [r3, r10, lsl #1]
 1168              	.LVL139:
 611:Middlewares/lvgl/src/extra/layouts/grid/lv_grid.c ****             item->h_layout = 0;
 1169              		.loc 1 611 40 view .LVU411
 1170 02fc 039B     		ldr	r3, [sp, #12]
 1171 02fe DB1B     		subs	r3, r3, r7
 611:Middlewares/lvgl/src/extra/layouts/grid/lv_grid.c ****             item->h_layout = 0;
 1172              		.loc 1 611 50 view .LVU412
 1173 0300 03EBD373 		add	r3, r3, r3, lsr #31
 611:Middlewares/lvgl/src/extra/layouts/grid/lv_grid.c ****             item->h_layout = 0;
 1174              		.loc 1 611 31 view .LVU413
 1175 0304 05EB6303 		add	r3, r5, r3, asr #1
 611:Middlewares/lvgl/src/extra/layouts/grid/lv_grid.c ****             item->h_layout = 0;
 1176              		.loc 1 611 15 view .LVU414
 1177 0308 1DB2     		sxth	r5, r3
 1178              	.LVL140:
 612:Middlewares/lvgl/src/extra/layouts/grid/lv_grid.c ****             break;
 1179              		.loc 1 612 13 is_stmt 1 view .LVU415
 612:Middlewares/lvgl/src/extra/layouts/grid/lv_grid.c ****             break;
 1180              		.loc 1 612 28 is_stmt 0 view .LVU416
 1181 030a 94F82330 		ldrb	r3, [r4, #35]	@ zero_extendqisi2
 1182 030e 6FF34103 		bfc	r3, #1, #1
 1183 0312 84F82330 		strb	r3, [r4, #35]
 613:Middlewares/lvgl/src/extra/layouts/grid/lv_grid.c ****         case LV_GRID_ALIGN_END:
 1184              		.loc 1 613 13 is_stmt 1 view .LVU417
 1185 0316 16E7     		b	.L36
 1186              	.L55:
 1187              		.align	2
 1188              	.L54:
 1189 0318 01800100 		.word	98305
 1190 031c 00000000 		.word	.LANCHOR0
 1191 0320 00000000 		.word	.LANCHOR1
 1192 0324 00000000 		.word	.LANCHOR2
 1193 0328 00000000 		.word	.LANCHOR3
 1194 032c 00000000 		.word	.LANCHOR4
 1195 0330 00000000 		.word	.LANCHOR5
 1196              	.LVL141:
 1197              	.L33:
 615:Middlewares/lvgl/src/extra/layouts/grid/lv_grid.c ****             item->h_layout = 0;
 1198              		.loc 1 615 13 view .LVU418
 615:Middlewares/lvgl/src/extra/layouts/grid/lv_grid.c ****             item->h_layout = 0;
 1199              		.loc 1 615 18 is_stmt 0 view .LVU419
 1200 0334 6B68     		ldr	r3, [r5, #4]
 615:Middlewares/lvgl/src/extra/layouts/grid/lv_grid.c ****             item->h_layout = 0;
 1201              		.loc 1 615 21 view .LVU420
 1202 0336 33F81A50 		ldrh	r5, [r3, r10, lsl #1]
 1203              	.LVL142:
 615:Middlewares/lvgl/src/extra/layouts/grid/lv_grid.c ****             item->h_layout = 0;
 1204              		.loc 1 615 31 view .LVU421
 1205 033a 059B     		ldr	r3, [sp, #20]
 1206 033c 2B44     		add	r3, r3, r5
 1207 033e 9DB2     		uxth	r5, r3
 615:Middlewares/lvgl/src/extra/layouts/grid/lv_grid.c ****             item->h_layout = 0;
 1208              		.loc 1 615 41 view .LVU422
 1209 0340 2046     		mov	r0, r4
 1210 0342 FFF7FEFF 		bl	lv_obj_get_height
 1211              	.LVL143:
ARM GAS  /tmp/cc1NzchT.s 			page 50


 1212 0346 80B2     		uxth	r0, r0
 615:Middlewares/lvgl/src/extra/layouts/grid/lv_grid.c ****             item->h_layout = 0;
 1213              		.loc 1 615 39 view .LVU423
 1214 0348 2D1A     		subs	r5, r5, r0
 615:Middlewares/lvgl/src/extra/layouts/grid/lv_grid.c ****             item->h_layout = 0;
 1215              		.loc 1 615 15 view .LVU424
 1216 034a 2DB2     		sxth	r5, r5
 1217              	.LVL144:
 616:Middlewares/lvgl/src/extra/layouts/grid/lv_grid.c ****             break;
 1218              		.loc 1 616 13 is_stmt 1 view .LVU425
 616:Middlewares/lvgl/src/extra/layouts/grid/lv_grid.c ****             break;
 1219              		.loc 1 616 28 is_stmt 0 view .LVU426
 1220 034c 94F82330 		ldrb	r3, [r4, #35]	@ zero_extendqisi2
 1221 0350 6FF34103 		bfc	r3, #1, #1
 1222 0354 84F82330 		strb	r3, [r4, #35]
 617:Middlewares/lvgl/src/extra/layouts/grid/lv_grid.c ****     }
 1223              		.loc 1 617 13 is_stmt 1 view .LVU427
 1224 0358 F5E6     		b	.L36
 1225              	.L51:
 621:Middlewares/lvgl/src/extra/layouts/grid/lv_grid.c ****         lv_area_t old_coords;
 1226              		.loc 1 621 44 is_stmt 0 discriminator 1 view .LVU428
 1227 035a 2046     		mov	r0, r4
 1228 035c FFF7FEFF 		bl	lv_obj_get_height
 1229              	.LVL145:
 621:Middlewares/lvgl/src/extra/layouts/grid/lv_grid.c ****         lv_area_t old_coords;
 1230              		.loc 1 621 41 discriminator 1 view .LVU429
 1231 0360 B842     		cmp	r0, r7
 1232 0362 7FF4F6AE 		bne	.L37
 1233 0366 21E7     		b	.L38
 1234              	.LVL146:
 1235              	.L52:
 638:Middlewares/lvgl/src/extra/layouts/grid/lv_grid.c ****     if(LV_COORD_IS_PCT(tr_y)) tr_y = (h * LV_COORD_GET_PCT(tr_y)) / 100;
 1236              		.loc 1 638 8 discriminator 1 view .LVU430
 1237 0368 2AF4C043 		bic	r3, r10, #24576
 1238 036c B3F5FA6F 		cmp	r3, #2000
 1239 0370 3FF73BAF 		bgt	.L39
 638:Middlewares/lvgl/src/extra/layouts/grid/lv_grid.c ****     if(LV_COORD_IS_PCT(tr_y)) tr_y = (h * LV_COORD_GET_PCT(tr_y)) / 100;
 1240              		.loc 1 638 31 is_stmt 1 discriminator 2 view .LVU431
 638:Middlewares/lvgl/src/extra/layouts/grid/lv_grid.c ****     if(LV_COORD_IS_PCT(tr_y)) tr_y = (h * LV_COORD_GET_PCT(tr_y)) / 100;
 1241              		.loc 1 638 43 is_stmt 0 discriminator 2 view .LVU432
 1242 0374 B3F57A7F 		cmp	r3, #1000
 1243 0378 01DD     		ble	.L41
 638:Middlewares/lvgl/src/extra/layouts/grid/lv_grid.c ****     if(LV_COORD_IS_PCT(tr_y)) tr_y = (h * LV_COORD_GET_PCT(tr_y)) / 100;
 1244              		.loc 1 638 43 discriminator 3 view .LVU433
 1245 037a C3F57A73 		rsb	r3, r3, #1000
 1246              	.L41:
 638:Middlewares/lvgl/src/extra/layouts/grid/lv_grid.c ****     if(LV_COORD_IS_PCT(tr_y)) tr_y = (h * LV_COORD_GET_PCT(tr_y)) / 100;
 1247              		.loc 1 638 41 discriminator 6 view .LVU434
 1248 037e 03FB0BFB 		mul	fp, r3, fp
 1249              	.LVL147:
 638:Middlewares/lvgl/src/extra/layouts/grid/lv_grid.c ****     if(LV_COORD_IS_PCT(tr_y)) tr_y = (h * LV_COORD_GET_PCT(tr_y)) / 100;
 1250              		.loc 1 638 67 discriminator 6 view .LVU435
 1251 0382 104B     		ldr	r3, .L56
 1252 0384 83FB0B3A 		smull	r3, r10, r3, fp
 1253              	.LVL148:
 638:Middlewares/lvgl/src/extra/layouts/grid/lv_grid.c ****     if(LV_COORD_IS_PCT(tr_y)) tr_y = (h * LV_COORD_GET_PCT(tr_y)) / 100;
 1254              		.loc 1 638 67 discriminator 6 view .LVU436
ARM GAS  /tmp/cc1NzchT.s 			page 51


 1255 0388 4FEAEB7B 		asr	fp, fp, #31
 1256 038c CBEB6A1A 		rsb	r10, fp, r10, asr #5
 638:Middlewares/lvgl/src/extra/layouts/grid/lv_grid.c ****     if(LV_COORD_IS_PCT(tr_y)) tr_y = (h * LV_COORD_GET_PCT(tr_y)) / 100;
 1257              		.loc 1 638 36 discriminator 6 view .LVU437
 1258 0390 0FFA8AFA 		sxth	r10, r10
 1259              	.LVL149:
 638:Middlewares/lvgl/src/extra/layouts/grid/lv_grid.c ****     if(LV_COORD_IS_PCT(tr_y)) tr_y = (h * LV_COORD_GET_PCT(tr_y)) / 100;
 1260              		.loc 1 638 36 discriminator 6 view .LVU438
 1261 0394 29E7     		b	.L39
 1262              	.L53:
 639:Middlewares/lvgl/src/extra/layouts/grid/lv_grid.c **** 
 1263              		.loc 1 639 8 discriminator 1 view .LVU439
 1264 0396 29F4C043 		bic	r3, r9, #24576
 1265 039a B3F5FA6F 		cmp	r3, #2000
 1266 039e 3FF72AAF 		bgt	.L42
 639:Middlewares/lvgl/src/extra/layouts/grid/lv_grid.c **** 
 1267              		.loc 1 639 31 is_stmt 1 discriminator 2 view .LVU440
 639:Middlewares/lvgl/src/extra/layouts/grid/lv_grid.c **** 
 1268              		.loc 1 639 43 is_stmt 0 discriminator 2 view .LVU441
 1269 03a2 B3F57A7F 		cmp	r3, #1000
 1270 03a6 01DD     		ble	.L44
 639:Middlewares/lvgl/src/extra/layouts/grid/lv_grid.c **** 
 1271              		.loc 1 639 43 discriminator 3 view .LVU442
 1272 03a8 C3F57A73 		rsb	r3, r3, #1000
 1273              	.L44:
 639:Middlewares/lvgl/src/extra/layouts/grid/lv_grid.c **** 
 1274              		.loc 1 639 41 discriminator 6 view .LVU443
 1275 03ac 00FB03F3 		mul	r3, r0, r3
 639:Middlewares/lvgl/src/extra/layouts/grid/lv_grid.c **** 
 1276              		.loc 1 639 67 discriminator 6 view .LVU444
 1277 03b0 044A     		ldr	r2, .L56
 1278 03b2 82FB0312 		smull	r1, r2, r2, r3
 1279 03b6 4FEAE379 		asr	r9, r3, #31
 1280              	.LVL150:
 639:Middlewares/lvgl/src/extra/layouts/grid/lv_grid.c **** 
 1281              		.loc 1 639 67 discriminator 6 view .LVU445
 1282 03ba C9EB6219 		rsb	r9, r9, r2, asr #5
 639:Middlewares/lvgl/src/extra/layouts/grid/lv_grid.c **** 
 1283              		.loc 1 639 36 discriminator 6 view .LVU446
 1284 03be 0FFA89F9 		sxth	r9, r9
 1285              	.LVL151:
 639:Middlewares/lvgl/src/extra/layouts/grid/lv_grid.c **** 
 1286              		.loc 1 639 36 discriminator 6 view .LVU447
 1287 03c2 18E7     		b	.L42
 1288              	.L57:
 1289              		.align	2
 1290              	.L56:
 1291 03c4 1F85EB51 		.word	1374389535
 1292              		.cfi_endproc
 1293              	.LFE202:
 1295              		.section	.text.calc_free,"ax",%progbits
 1296              		.align	1
 1297              		.syntax unified
 1298              		.thumb
 1299              		.thumb_func
 1300              		.fpu softvfp
 1302              	calc_free:
ARM GAS  /tmp/cc1NzchT.s 			page 52


 1303              	.LVL152:
 1304              	.LFB199:
 393:Middlewares/lvgl/src/extra/layouts/grid/lv_grid.c ****     lv_mem_buf_release(calc->x);
 1305              		.loc 1 393 1 is_stmt 1 view -0
 1306              		.cfi_startproc
 1307              		@ args = 0, pretend = 0, frame = 0
 1308              		@ frame_needed = 0, uses_anonymous_args = 0
 393:Middlewares/lvgl/src/extra/layouts/grid/lv_grid.c ****     lv_mem_buf_release(calc->x);
 1309              		.loc 1 393 1 is_stmt 0 view .LVU449
 1310 0000 10B5     		push	{r4, lr}
 1311              	.LCFI5:
 1312              		.cfi_def_cfa_offset 8
 1313              		.cfi_offset 4, -8
 1314              		.cfi_offset 14, -4
 1315 0002 0446     		mov	r4, r0
 394:Middlewares/lvgl/src/extra/layouts/grid/lv_grid.c ****     lv_mem_buf_release(calc->y);
 1316              		.loc 1 394 5 is_stmt 1 view .LVU450
 1317 0004 0068     		ldr	r0, [r0]
 1318              	.LVL153:
 394:Middlewares/lvgl/src/extra/layouts/grid/lv_grid.c ****     lv_mem_buf_release(calc->y);
 1319              		.loc 1 394 5 is_stmt 0 view .LVU451
 1320 0006 FFF7FEFF 		bl	lv_mem_buf_release
 1321              	.LVL154:
 395:Middlewares/lvgl/src/extra/layouts/grid/lv_grid.c ****     lv_mem_buf_release(calc->w);
 1322              		.loc 1 395 5 is_stmt 1 view .LVU452
 1323 000a 6068     		ldr	r0, [r4, #4]
 1324 000c FFF7FEFF 		bl	lv_mem_buf_release
 1325              	.LVL155:
 396:Middlewares/lvgl/src/extra/layouts/grid/lv_grid.c ****     lv_mem_buf_release(calc->h);
 1326              		.loc 1 396 5 view .LVU453
 1327 0010 A068     		ldr	r0, [r4, #8]
 1328 0012 FFF7FEFF 		bl	lv_mem_buf_release
 1329              	.LVL156:
 397:Middlewares/lvgl/src/extra/layouts/grid/lv_grid.c **** }
 1330              		.loc 1 397 5 view .LVU454
 1331 0016 E068     		ldr	r0, [r4, #12]
 1332 0018 FFF7FEFF 		bl	lv_mem_buf_release
 1333              	.LVL157:
 398:Middlewares/lvgl/src/extra/layouts/grid/lv_grid.c **** 
 1334              		.loc 1 398 1 is_stmt 0 view .LVU455
 1335 001c 10BD     		pop	{r4, pc}
 398:Middlewares/lvgl/src/extra/layouts/grid/lv_grid.c **** 
 1336              		.loc 1 398 1 view .LVU456
 1337              		.cfi_endproc
 1338              	.LFE199:
 1340              		.section	.text.calc_rows,"ax",%progbits
 1341              		.align	1
 1342              		.syntax unified
 1343              		.thumb
 1344              		.thumb_func
 1345              		.fpu softvfp
 1347              	calc_rows:
 1348              	.LVL158:
 1349              	.LFB201:
 473:Middlewares/lvgl/src/extra/layouts/grid/lv_grid.c ****     uint32_t i;
 1350              		.loc 1 473 1 is_stmt 1 view -0
 1351              		.cfi_startproc
ARM GAS  /tmp/cc1NzchT.s 			page 53


 1352              		@ args = 0, pretend = 0, frame = 0
 1353              		@ frame_needed = 0, uses_anonymous_args = 0
 473:Middlewares/lvgl/src/extra/layouts/grid/lv_grid.c ****     uint32_t i;
 1354              		.loc 1 473 1 is_stmt 0 view .LVU458
 1355 0000 2DE9F84F 		push	{r3, r4, r5, r6, r7, r8, r9, r10, fp, lr}
 1356              	.LCFI6:
 1357              		.cfi_def_cfa_offset 40
 1358              		.cfi_offset 3, -40
 1359              		.cfi_offset 4, -36
 1360              		.cfi_offset 5, -32
 1361              		.cfi_offset 6, -28
 1362              		.cfi_offset 7, -24
 1363              		.cfi_offset 8, -20
 1364              		.cfi_offset 9, -16
 1365              		.cfi_offset 10, -12
 1366              		.cfi_offset 11, -8
 1367              		.cfi_offset 14, -4
 1368 0004 8046     		mov	r8, r0
 1369 0006 0C46     		mov	r4, r1
 474:Middlewares/lvgl/src/extra/layouts/grid/lv_grid.c ****     const lv_coord_t * row_templ = get_row_dsc(cont);
 1370              		.loc 1 474 5 is_stmt 1 view .LVU459
 475:Middlewares/lvgl/src/extra/layouts/grid/lv_grid.c ****     c->row_num = count_tracks(row_templ);
 1371              		.loc 1 475 5 view .LVU460
 1372              	.LVL159:
 1373              	.LBB166:
 1374              	.LBI166:
  61:Middlewares/lvgl/src/extra/layouts/grid/lv_grid.c **** static inline uint8_t get_col_pos(lv_obj_t * obj) {return lv_obj_get_style_grid_cell_column_pos(obj
 1375              		.loc 1 61 34 view .LVU461
 1376              	.LBE166:
  61:Middlewares/lvgl/src/extra/layouts/grid/lv_grid.c **** static inline uint8_t get_col_pos(lv_obj_t * obj) {return lv_obj_get_style_grid_cell_column_pos(obj
 1377              		.loc 1 61 63 view .LVU462
 1378              	.LBB169:
 1379              	.LBB167:
 1380              	.LBI167:
 121:Middlewares/lvgl/src/extra/layouts/grid/../grid/lv_grid.h **** {
 1381              		.loc 2 121 34 view .LVU463
 1382              	.LBB168:
 123:Middlewares/lvgl/src/extra/layouts/grid/../grid/lv_grid.h ****     return (const lv_coord_t *)v.ptr;
 1383              		.loc 2 123 5 view .LVU464
 123:Middlewares/lvgl/src/extra/layouts/grid/../grid/lv_grid.h ****     return (const lv_coord_t *)v.ptr;
 1384              		.loc 2 123 26 is_stmt 0 view .LVU465
 1385 0008 564B     		ldr	r3, .L86
 1386 000a 1A88     		ldrh	r2, [r3]
 1387 000c 0021     		movs	r1, #0
 1388              	.LVL160:
 123:Middlewares/lvgl/src/extra/layouts/grid/../grid/lv_grid.h ****     return (const lv_coord_t *)v.ptr;
 1389              		.loc 2 123 26 view .LVU466
 1390 000e FFF7FEFF 		bl	lv_obj_get_style_prop
 1391              	.LVL161:
 123:Middlewares/lvgl/src/extra/layouts/grid/../grid/lv_grid.h ****     return (const lv_coord_t *)v.ptr;
 1392              		.loc 2 123 26 view .LVU467
 1393 0012 0646     		mov	r6, r0
 124:Middlewares/lvgl/src/extra/layouts/grid/../grid/lv_grid.h **** }
 1394              		.loc 2 124 5 is_stmt 1 view .LVU468
 1395              	.LVL162:
 124:Middlewares/lvgl/src/extra/layouts/grid/../grid/lv_grid.h **** }
 1396              		.loc 2 124 5 is_stmt 0 view .LVU469
ARM GAS  /tmp/cc1NzchT.s 			page 54


 1397              	.LBE168:
 1398              	.LBE167:
 1399              	.LBE169:
 476:Middlewares/lvgl/src/extra/layouts/grid/lv_grid.c ****     c->y = lv_mem_buf_get(sizeof(lv_coord_t) * c->row_num);
 1400              		.loc 1 476 5 is_stmt 1 view .LVU470
 476:Middlewares/lvgl/src/extra/layouts/grid/lv_grid.c ****     c->y = lv_mem_buf_get(sizeof(lv_coord_t) * c->row_num);
 1401              		.loc 1 476 18 is_stmt 0 view .LVU471
 1402 0014 FFF7FEFF 		bl	count_tracks
 1403              	.LVL163:
 476:Middlewares/lvgl/src/extra/layouts/grid/lv_grid.c ****     c->y = lv_mem_buf_get(sizeof(lv_coord_t) * c->row_num);
 1404              		.loc 1 476 16 view .LVU472
 1405 0018 6061     		str	r0, [r4, #20]
 477:Middlewares/lvgl/src/extra/layouts/grid/lv_grid.c ****     c->h = lv_mem_buf_get(sizeof(lv_coord_t) * c->row_num);
 1406              		.loc 1 477 5 is_stmt 1 view .LVU473
 477:Middlewares/lvgl/src/extra/layouts/grid/lv_grid.c ****     c->h = lv_mem_buf_get(sizeof(lv_coord_t) * c->row_num);
 1407              		.loc 1 477 12 is_stmt 0 view .LVU474
 1408 001a 4000     		lsls	r0, r0, #1
 1409 001c FFF7FEFF 		bl	lv_mem_buf_get
 1410              	.LVL164:
 477:Middlewares/lvgl/src/extra/layouts/grid/lv_grid.c ****     c->h = lv_mem_buf_get(sizeof(lv_coord_t) * c->row_num);
 1411              		.loc 1 477 10 view .LVU475
 1412 0020 6060     		str	r0, [r4, #4]
 478:Middlewares/lvgl/src/extra/layouts/grid/lv_grid.c ****     /*Set sizes for CONTENT cells*/
 1413              		.loc 1 478 5 is_stmt 1 view .LVU476
 478:Middlewares/lvgl/src/extra/layouts/grid/lv_grid.c ****     /*Set sizes for CONTENT cells*/
 1414              		.loc 1 478 49 is_stmt 0 view .LVU477
 1415 0022 6069     		ldr	r0, [r4, #20]
 478:Middlewares/lvgl/src/extra/layouts/grid/lv_grid.c ****     /*Set sizes for CONTENT cells*/
 1416              		.loc 1 478 12 view .LVU478
 1417 0024 4000     		lsls	r0, r0, #1
 1418 0026 FFF7FEFF 		bl	lv_mem_buf_get
 1419              	.LVL165:
 478:Middlewares/lvgl/src/extra/layouts/grid/lv_grid.c ****     /*Set sizes for CONTENT cells*/
 1420              		.loc 1 478 10 view .LVU479
 1421 002a E060     		str	r0, [r4, #12]
 480:Middlewares/lvgl/src/extra/layouts/grid/lv_grid.c ****         lv_coord_t size = LV_COORD_MIN;
 1422              		.loc 1 480 5 is_stmt 1 view .LVU480
 1423              	.LVL166:
 480:Middlewares/lvgl/src/extra/layouts/grid/lv_grid.c ****         lv_coord_t size = LV_COORD_MIN;
 1424              		.loc 1 480 11 is_stmt 0 view .LVU481
 1425 002c 0027     		movs	r7, #0
 480:Middlewares/lvgl/src/extra/layouts/grid/lv_grid.c ****         lv_coord_t size = LV_COORD_MIN;
 1426              		.loc 1 480 5 view .LVU482
 1427 002e 32E0     		b	.L61
 1428              	.LVL167:
 1429              	.L64:
 1430              	.LBB170:
 1431              	.LBB171:
 485:Middlewares/lvgl/src/extra/layouts/grid/lv_grid.c ****                 lv_obj_t * item = lv_obj_get_child(cont, ci);
 1432              		.loc 1 485 58 is_stmt 1 discriminator 2 view .LVU483
 485:Middlewares/lvgl/src/extra/layouts/grid/lv_grid.c ****                 lv_obj_t * item = lv_obj_get_child(cont, ci);
 1433              		.loc 1 485 60 is_stmt 0 discriminator 2 view .LVU484
 1434 0030 0135     		adds	r5, r5, #1
 1435              	.LVL168:
 1436              	.L62:
 485:Middlewares/lvgl/src/extra/layouts/grid/lv_grid.c ****                 lv_obj_t * item = lv_obj_get_child(cont, ci);
 1437              		.loc 1 485 25 is_stmt 1 discriminator 1 view .LVU485
ARM GAS  /tmp/cc1NzchT.s 			page 55


 485:Middlewares/lvgl/src/extra/layouts/grid/lv_grid.c ****                 lv_obj_t * item = lv_obj_get_child(cont, ci);
 1438              		.loc 1 485 30 is_stmt 0 discriminator 1 view .LVU486
 1439 0032 4046     		mov	r0, r8
 1440 0034 FFF7FEFF 		bl	lv_obj_get_child_cnt
 1441              	.LVL169:
 485:Middlewares/lvgl/src/extra/layouts/grid/lv_grid.c ****                 lv_obj_t * item = lv_obj_get_child(cont, ci);
 1442              		.loc 1 485 13 discriminator 1 view .LVU487
 1443 0038 A842     		cmp	r0, r5
 1444 003a 25D9     		bls	.L80
 1445              	.LBB172:
 486:Middlewares/lvgl/src/extra/layouts/grid/lv_grid.c ****                 if(lv_obj_has_flag_any(item, LV_OBJ_FLAG_IGNORE_LAYOUT | LV_OBJ_FLAG_HIDDEN | LV_OB
 1446              		.loc 1 486 17 is_stmt 1 view .LVU488
 486:Middlewares/lvgl/src/extra/layouts/grid/lv_grid.c ****                 if(lv_obj_has_flag_any(item, LV_OBJ_FLAG_IGNORE_LAYOUT | LV_OBJ_FLAG_HIDDEN | LV_OB
 1447              		.loc 1 486 35 is_stmt 0 view .LVU489
 1448 003c 2946     		mov	r1, r5
 1449 003e 4046     		mov	r0, r8
 1450 0040 FFF7FEFF 		bl	lv_obj_get_child
 1451              	.LVL170:
 1452 0044 8146     		mov	r9, r0
 1453              	.LVL171:
 487:Middlewares/lvgl/src/extra/layouts/grid/lv_grid.c ****                 uint32_t row_span = get_row_span(item);
 1454              		.loc 1 487 17 is_stmt 1 view .LVU490
 487:Middlewares/lvgl/src/extra/layouts/grid/lv_grid.c ****                 uint32_t row_span = get_row_span(item);
 1455              		.loc 1 487 20 is_stmt 0 view .LVU491
 1456 0046 4849     		ldr	r1, .L86+4
 1457 0048 FFF7FEFF 		bl	lv_obj_has_flag_any
 1458              	.LVL172:
 487:Middlewares/lvgl/src/extra/layouts/grid/lv_grid.c ****                 uint32_t row_span = get_row_span(item);
 1459              		.loc 1 487 19 view .LVU492
 1460 004c 0028     		cmp	r0, #0
 1461 004e EFD1     		bne	.L64
 488:Middlewares/lvgl/src/extra/layouts/grid/lv_grid.c ****                 if(row_span != 1) continue;
 1462              		.loc 1 488 17 is_stmt 1 view .LVU493
 1463              	.LVL173:
 1464              	.LBB173:
 1465              	.LBI173:
  65:Middlewares/lvgl/src/extra/layouts/grid/lv_grid.c **** static inline uint8_t get_cell_col_align(lv_obj_t * obj) {return lv_obj_get_style_grid_cell_x_align
 1466              		.loc 1 65 23 view .LVU494
 1467              	.LBB174:
  65:Middlewares/lvgl/src/extra/layouts/grid/lv_grid.c **** static inline uint8_t get_cell_col_align(lv_obj_t * obj) {return lv_obj_get_style_grid_cell_x_align
 1468              		.loc 1 65 53 view .LVU495
 1469              	.LBB175:
 1470              	.LBI175:
 163:Middlewares/lvgl/src/extra/layouts/grid/../grid/lv_grid.h **** {
 1471              		.loc 2 163 26 view .LVU496
 1472              	.LBB176:
 165:Middlewares/lvgl/src/extra/layouts/grid/../grid/lv_grid.h ****     return (lv_coord_t)v.num;
 1473              		.loc 2 165 5 view .LVU497
 165:Middlewares/lvgl/src/extra/layouts/grid/../grid/lv_grid.h ****     return (lv_coord_t)v.num;
 1474              		.loc 2 165 26 is_stmt 0 view .LVU498
 1475 0050 464B     		ldr	r3, .L86+8
 1476 0052 1A88     		ldrh	r2, [r3]
 1477 0054 0021     		movs	r1, #0
 1478 0056 4846     		mov	r0, r9
 1479 0058 FFF7FEFF 		bl	lv_obj_get_style_prop
 1480              	.LVL174:
 166:Middlewares/lvgl/src/extra/layouts/grid/../grid/lv_grid.h **** }
ARM GAS  /tmp/cc1NzchT.s 			page 56


 1481              		.loc 2 166 5 is_stmt 1 view .LVU499
 166:Middlewares/lvgl/src/extra/layouts/grid/../grid/lv_grid.h **** }
 1482              		.loc 2 166 5 is_stmt 0 view .LVU500
 1483              	.LBE176:
 1484              	.LBE175:
  65:Middlewares/lvgl/src/extra/layouts/grid/lv_grid.c **** static inline uint8_t get_cell_col_align(lv_obj_t * obj) {return lv_obj_get_style_grid_cell_x_align
 1485              		.loc 1 65 60 view .LVU501
 1486 005c C0B2     		uxtb	r0, r0
 1487              	.LVL175:
  65:Middlewares/lvgl/src/extra/layouts/grid/lv_grid.c **** static inline uint8_t get_cell_col_align(lv_obj_t * obj) {return lv_obj_get_style_grid_cell_x_align
 1488              		.loc 1 65 60 view .LVU502
 1489              	.LBE174:
 1490              	.LBE173:
 489:Middlewares/lvgl/src/extra/layouts/grid/lv_grid.c **** 
 1491              		.loc 1 489 17 is_stmt 1 view .LVU503
 489:Middlewares/lvgl/src/extra/layouts/grid/lv_grid.c **** 
 1492              		.loc 1 489 19 is_stmt 0 view .LVU504
 1493 005e 0128     		cmp	r0, #1
 1494 0060 E6D1     		bne	.L64
 491:Middlewares/lvgl/src/extra/layouts/grid/lv_grid.c ****                 if(row_pos != i) continue;
 1495              		.loc 1 491 17 is_stmt 1 view .LVU505
 1496              	.LVL176:
 1497              	.LBB177:
 1498              	.LBI177:
  63:Middlewares/lvgl/src/extra/layouts/grid/lv_grid.c **** static inline uint8_t get_col_span(lv_obj_t * obj) {return lv_obj_get_style_grid_cell_column_span(o
 1499              		.loc 1 63 23 view .LVU506
 1500              	.LBB178:
  63:Middlewares/lvgl/src/extra/layouts/grid/lv_grid.c **** static inline uint8_t get_col_span(lv_obj_t * obj) {return lv_obj_get_style_grid_cell_column_span(o
 1501              		.loc 1 63 52 view .LVU507
 1502              	.LBB179:
 1503              	.LBI179:
 157:Middlewares/lvgl/src/extra/layouts/grid/../grid/lv_grid.h **** {
 1504              		.loc 2 157 26 view .LVU508
 1505              	.LBB180:
 159:Middlewares/lvgl/src/extra/layouts/grid/../grid/lv_grid.h ****     return (lv_coord_t)v.num;
 1506              		.loc 2 159 5 view .LVU509
 159:Middlewares/lvgl/src/extra/layouts/grid/../grid/lv_grid.h ****     return (lv_coord_t)v.num;
 1507              		.loc 2 159 26 is_stmt 0 view .LVU510
 1508 0062 434B     		ldr	r3, .L86+12
 1509 0064 1A88     		ldrh	r2, [r3]
 1510 0066 0021     		movs	r1, #0
 1511 0068 4846     		mov	r0, r9
 1512              	.LVL177:
 159:Middlewares/lvgl/src/extra/layouts/grid/../grid/lv_grid.h ****     return (lv_coord_t)v.num;
 1513              		.loc 2 159 26 view .LVU511
 1514 006a FFF7FEFF 		bl	lv_obj_get_style_prop
 1515              	.LVL178:
 160:Middlewares/lvgl/src/extra/layouts/grid/../grid/lv_grid.h **** }
 1516              		.loc 2 160 5 is_stmt 1 view .LVU512
 160:Middlewares/lvgl/src/extra/layouts/grid/../grid/lv_grid.h **** }
 1517              		.loc 2 160 5 is_stmt 0 view .LVU513
 1518              	.LBE180:
 1519              	.LBE179:
  63:Middlewares/lvgl/src/extra/layouts/grid/lv_grid.c **** static inline uint8_t get_col_span(lv_obj_t * obj) {return lv_obj_get_style_grid_cell_column_span(o
 1520              		.loc 1 63 59 view .LVU514
 1521 006e C0B2     		uxtb	r0, r0
 1522              	.LVL179:
ARM GAS  /tmp/cc1NzchT.s 			page 57


  63:Middlewares/lvgl/src/extra/layouts/grid/lv_grid.c **** static inline uint8_t get_col_span(lv_obj_t * obj) {return lv_obj_get_style_grid_cell_column_span(o
 1523              		.loc 1 63 59 view .LVU515
 1524              	.LBE178:
 1525              	.LBE177:
 492:Middlewares/lvgl/src/extra/layouts/grid/lv_grid.c **** 
 1526              		.loc 1 492 17 is_stmt 1 view .LVU516
 492:Middlewares/lvgl/src/extra/layouts/grid/lv_grid.c **** 
 1527              		.loc 1 492 19 is_stmt 0 view .LVU517
 1528 0070 8742     		cmp	r7, r0
 1529 0072 DDD1     		bne	.L64
 494:Middlewares/lvgl/src/extra/layouts/grid/lv_grid.c ****             }
 1530              		.loc 1 494 17 is_stmt 1 view .LVU518
 494:Middlewares/lvgl/src/extra/layouts/grid/lv_grid.c ****             }
 1531              		.loc 1 494 24 is_stmt 0 view .LVU519
 1532 0074 4846     		mov	r0, r9
 1533              	.LVL180:
 494:Middlewares/lvgl/src/extra/layouts/grid/lv_grid.c ****             }
 1534              		.loc 1 494 24 view .LVU520
 1535 0076 FFF7FEFF 		bl	lv_obj_get_height
 1536              	.LVL181:
 494:Middlewares/lvgl/src/extra/layouts/grid/lv_grid.c ****             }
 1537              		.loc 1 494 22 view .LVU521
 1538 007a 5845     		cmp	r0, fp
 1539 007c D8DB     		blt	.L64
 494:Middlewares/lvgl/src/extra/layouts/grid/lv_grid.c ****             }
 1540              		.loc 1 494 24 discriminator 1 view .LVU522
 1541 007e 4846     		mov	r0, r9
 1542 0080 FFF7FEFF 		bl	lv_obj_get_height
 1543              	.LVL182:
 1544 0084 8346     		mov	fp, r0
 1545              	.LVL183:
 494:Middlewares/lvgl/src/extra/layouts/grid/lv_grid.c ****             }
 1546              		.loc 1 494 24 discriminator 1 view .LVU523
 1547 0086 D3E7     		b	.L64
 1548              	.LVL184:
 1549              	.L80:
 494:Middlewares/lvgl/src/extra/layouts/grid/lv_grid.c ****             }
 1550              		.loc 1 494 24 discriminator 1 view .LVU524
 1551              	.LBE172:
 496:Middlewares/lvgl/src/extra/layouts/grid/lv_grid.c ****             else c->h[i] = 0;
 1552              		.loc 1 496 13 is_stmt 1 view .LVU525
 496:Middlewares/lvgl/src/extra/layouts/grid/lv_grid.c ****             else c->h[i] = 0;
 1553              		.loc 1 496 15 is_stmt 0 view .LVU526
 1554 0088 BBF1000F 		cmp	fp, #0
 1555 008c 12DB     		blt	.L66
 496:Middlewares/lvgl/src/extra/layouts/grid/lv_grid.c ****             else c->h[i] = 0;
 1556              		.loc 1 496 27 is_stmt 1 discriminator 1 view .LVU527
 496:Middlewares/lvgl/src/extra/layouts/grid/lv_grid.c ****             else c->h[i] = 0;
 1557              		.loc 1 496 28 is_stmt 0 discriminator 1 view .LVU528
 1558 008e E368     		ldr	r3, [r4, #12]
 496:Middlewares/lvgl/src/extra/layouts/grid/lv_grid.c ****             else c->h[i] = 0;
 1559              		.loc 1 496 35 discriminator 1 view .LVU529
 1560 0090 23F80AB0 		strh	fp, [r3, r10]	@ movhi
 1561              	.LVL185:
 1562              	.L63:
 496:Middlewares/lvgl/src/extra/layouts/grid/lv_grid.c ****             else c->h[i] = 0;
 1563              		.loc 1 496 35 discriminator 1 view .LVU530
ARM GAS  /tmp/cc1NzchT.s 			page 58


 1564              	.LBE171:
 1565              	.LBE170:
 480:Middlewares/lvgl/src/extra/layouts/grid/lv_grid.c ****         lv_coord_t size = LV_COORD_MIN;
 1566              		.loc 1 480 32 is_stmt 1 discriminator 2 view .LVU531
 480:Middlewares/lvgl/src/extra/layouts/grid/lv_grid.c ****         lv_coord_t size = LV_COORD_MIN;
 1567              		.loc 1 480 33 is_stmt 0 discriminator 2 view .LVU532
 1568 0094 0137     		adds	r7, r7, #1
 1569              	.LVL186:
 1570              	.L61:
 480:Middlewares/lvgl/src/extra/layouts/grid/lv_grid.c ****         lv_coord_t size = LV_COORD_MIN;
 1571              		.loc 1 480 16 is_stmt 1 discriminator 1 view .LVU533
 480:Middlewares/lvgl/src/extra/layouts/grid/lv_grid.c ****         lv_coord_t size = LV_COORD_MIN;
 1572              		.loc 1 480 21 is_stmt 0 discriminator 1 view .LVU534
 1573 0096 6369     		ldr	r3, [r4, #20]
 480:Middlewares/lvgl/src/extra/layouts/grid/lv_grid.c ****         lv_coord_t size = LV_COORD_MIN;
 1574              		.loc 1 480 5 discriminator 1 view .LVU535
 1575 0098 BB42     		cmp	r3, r7
 1576 009a 10D9     		bls	.L81
 1577              	.LBB183:
 481:Middlewares/lvgl/src/extra/layouts/grid/lv_grid.c ****         if(IS_CONTENT(row_templ[i])) {
 1578              		.loc 1 481 9 is_stmt 1 view .LVU536
 1579              	.LVL187:
 482:Middlewares/lvgl/src/extra/layouts/grid/lv_grid.c ****             /*Check the size of children of this cell*/
 1580              		.loc 1 482 9 view .LVU537
 482:Middlewares/lvgl/src/extra/layouts/grid/lv_grid.c ****             /*Check the size of children of this cell*/
 1581              		.loc 1 482 12 is_stmt 0 view .LVU538
 1582 009c 4FEA470A 		lsl	r10, r7, #1
 1583 00a0 36F91720 		ldrsh	r2, [r6, r7, lsl #1]
 482:Middlewares/lvgl/src/extra/layouts/grid/lv_grid.c ****             /*Check the size of children of this cell*/
 1584              		.loc 1 482 11 view .LVU539
 1585 00a4 45F69B73 		movw	r3, #24475
 1586 00a8 9A42     		cmp	r2, r3
 1587 00aa F3D1     		bne	.L63
 1588              	.LBB181:
 485:Middlewares/lvgl/src/extra/layouts/grid/lv_grid.c ****                 lv_obj_t * item = lv_obj_get_child(cont, ci);
 1589              		.loc 1 485 20 view .LVU540
 1590 00ac 0025     		movs	r5, #0
 1591              	.LBE181:
 481:Middlewares/lvgl/src/extra/layouts/grid/lv_grid.c ****         if(IS_CONTENT(row_templ[i])) {
 1592              		.loc 1 481 20 view .LVU541
 1593 00ae DFF8C4B0 		ldr	fp, .L86+16
 1594 00b2 BEE7     		b	.L62
 1595              	.LVL188:
 1596              	.L66:
 1597              	.LBB182:
 497:Middlewares/lvgl/src/extra/layouts/grid/lv_grid.c ****         }
 1598              		.loc 1 497 18 is_stmt 1 view .LVU542
 497:Middlewares/lvgl/src/extra/layouts/grid/lv_grid.c ****         }
 1599              		.loc 1 497 19 is_stmt 0 view .LVU543
 1600 00b4 E368     		ldr	r3, [r4, #12]
 497:Middlewares/lvgl/src/extra/layouts/grid/lv_grid.c ****         }
 1601              		.loc 1 497 26 view .LVU544
 1602 00b6 0022     		movs	r2, #0
 1603 00b8 23F80A20 		strh	r2, [r3, r10]	@ movhi
 1604 00bc EAE7     		b	.L63
 1605              	.LVL189:
 1606              	.L81:
ARM GAS  /tmp/cc1NzchT.s 			page 59


 497:Middlewares/lvgl/src/extra/layouts/grid/lv_grid.c ****         }
 1607              		.loc 1 497 26 view .LVU545
 1608              	.LBE182:
 1609              	.LBE183:
 502:Middlewares/lvgl/src/extra/layouts/grid/lv_grid.c **** 
 1610              		.loc 1 502 16 view .LVU546
 1611 00be 0027     		movs	r7, #0
 1612              	.LVL190:
 501:Middlewares/lvgl/src/extra/layouts/grid/lv_grid.c ****     lv_coord_t grid_h = 0;
 1613              		.loc 1 501 14 view .LVU547
 1614 00c0 3D46     		mov	r5, r7
 504:Middlewares/lvgl/src/extra/layouts/grid/lv_grid.c ****         lv_coord_t x = row_templ[i];
 1615              		.loc 1 504 11 view .LVU548
 1616 00c2 3A46     		mov	r2, r7
 1617 00c4 08E0     		b	.L68
 1618              	.LVL191:
 1619              	.L69:
 1620              	.LBB184:
 508:Middlewares/lvgl/src/extra/layouts/grid/lv_grid.c ****             grid_h += c->h[i];
 1621              		.loc 1 508 16 is_stmt 1 view .LVU549
 508:Middlewares/lvgl/src/extra/layouts/grid/lv_grid.c ****             grid_h += c->h[i];
 1622              		.loc 1 508 19 is_stmt 0 view .LVU550
 1623 00c6 45F69B71 		movw	r1, #24475
 1624 00ca 8B42     		cmp	r3, r1
 1625 00cc 13D0     		beq	.L82
 511:Middlewares/lvgl/src/extra/layouts/grid/lv_grid.c ****             grid_h += x;
 1626              		.loc 1 511 13 is_stmt 1 view .LVU551
 511:Middlewares/lvgl/src/extra/layouts/grid/lv_grid.c ****             grid_h += x;
 1627              		.loc 1 511 14 is_stmt 0 view .LVU552
 1628 00ce E168     		ldr	r1, [r4, #12]
 511:Middlewares/lvgl/src/extra/layouts/grid/lv_grid.c ****             grid_h += x;
 1629              		.loc 1 511 21 view .LVU553
 1630 00d0 0B52     		strh	r3, [r1, r0]	@ movhi
 512:Middlewares/lvgl/src/extra/layouts/grid/lv_grid.c ****         }
 1631              		.loc 1 512 13 is_stmt 1 view .LVU554
 512:Middlewares/lvgl/src/extra/layouts/grid/lv_grid.c ****         }
 1632              		.loc 1 512 20 is_stmt 0 view .LVU555
 1633 00d2 3B44     		add	r3, r3, r7
 1634              	.LVL192:
 512:Middlewares/lvgl/src/extra/layouts/grid/lv_grid.c ****         }
 1635              		.loc 1 512 20 view .LVU556
 1636 00d4 1FB2     		sxth	r7, r3
 1637              	.LVL193:
 1638              	.L70:
 512:Middlewares/lvgl/src/extra/layouts/grid/lv_grid.c ****         }
 1639              		.loc 1 512 20 view .LVU557
 1640              	.LBE184:
 504:Middlewares/lvgl/src/extra/layouts/grid/lv_grid.c ****         lv_coord_t x = row_templ[i];
 1641              		.loc 1 504 32 is_stmt 1 discriminator 2 view .LVU558
 504:Middlewares/lvgl/src/extra/layouts/grid/lv_grid.c ****         lv_coord_t x = row_templ[i];
 1642              		.loc 1 504 33 is_stmt 0 discriminator 2 view .LVU559
 1643 00d6 0132     		adds	r2, r2, #1
 1644              	.LVL194:
 1645              	.L68:
 504:Middlewares/lvgl/src/extra/layouts/grid/lv_grid.c ****         lv_coord_t x = row_templ[i];
 1646              		.loc 1 504 16 is_stmt 1 discriminator 1 view .LVU560
 504:Middlewares/lvgl/src/extra/layouts/grid/lv_grid.c ****         lv_coord_t x = row_templ[i];
ARM GAS  /tmp/cc1NzchT.s 			page 60


 1647              		.loc 1 504 21 is_stmt 0 discriminator 1 view .LVU561
 1648 00d8 6369     		ldr	r3, [r4, #20]
 504:Middlewares/lvgl/src/extra/layouts/grid/lv_grid.c ****         lv_coord_t x = row_templ[i];
 1649              		.loc 1 504 5 discriminator 1 view .LVU562
 1650 00da 9342     		cmp	r3, r2
 1651 00dc 10D9     		bls	.L83
 1652              	.LBB185:
 505:Middlewares/lvgl/src/extra/layouts/grid/lv_grid.c ****         if(IS_FR(x)) {
 1653              		.loc 1 505 9 is_stmt 1 view .LVU563
 505:Middlewares/lvgl/src/extra/layouts/grid/lv_grid.c ****         if(IS_FR(x)) {
 1654              		.loc 1 505 33 is_stmt 0 view .LVU564
 1655 00de 5000     		lsls	r0, r2, #1
 505:Middlewares/lvgl/src/extra/layouts/grid/lv_grid.c ****         if(IS_FR(x)) {
 1656              		.loc 1 505 20 view .LVU565
 1657 00e0 36F91230 		ldrsh	r3, [r6, r2, lsl #1]
 1658              	.LVL195:
 506:Middlewares/lvgl/src/extra/layouts/grid/lv_grid.c ****             row_fr_cnt += GET_FR(x);
 1659              		.loc 1 506 9 is_stmt 1 view .LVU566
 506:Middlewares/lvgl/src/extra/layouts/grid/lv_grid.c ****             row_fr_cnt += GET_FR(x);
 1660              		.loc 1 506 11 is_stmt 0 view .LVU567
 1661 00e4 45F69B71 		movw	r1, #24475
 1662 00e8 8B42     		cmp	r3, r1
 1663 00ea ECDD     		ble	.L69
 507:Middlewares/lvgl/src/extra/layouts/grid/lv_grid.c ****         } else if (IS_CONTENT(x)) {
 1664              		.loc 1 507 13 is_stmt 1 view .LVU568
 507:Middlewares/lvgl/src/extra/layouts/grid/lv_grid.c ****         } else if (IS_CONTENT(x)) {
 1665              		.loc 1 507 24 is_stmt 0 view .LVU569
 1666 00ec 1D44     		add	r5, r5, r3
 1667              	.LVL196:
 507:Middlewares/lvgl/src/extra/layouts/grid/lv_grid.c ****         } else if (IS_CONTENT(x)) {
 1668              		.loc 1 507 24 view .LVU570
 1669 00ee A5F5BF45 		sub	r5, r5, #24448
 1670 00f2 1C3D     		subs	r5, r5, #28
 1671              	.LVL197:
 507:Middlewares/lvgl/src/extra/layouts/grid/lv_grid.c ****         } else if (IS_CONTENT(x)) {
 1672              		.loc 1 507 24 view .LVU571
 1673 00f4 EFE7     		b	.L70
 1674              	.L82:
 509:Middlewares/lvgl/src/extra/layouts/grid/lv_grid.c ****         } else {
 1675              		.loc 1 509 13 is_stmt 1 view .LVU572
 509:Middlewares/lvgl/src/extra/layouts/grid/lv_grid.c ****         } else {
 1676              		.loc 1 509 24 is_stmt 0 view .LVU573
 1677 00f6 E368     		ldr	r3, [r4, #12]
 1678              	.LVL198:
 509:Middlewares/lvgl/src/extra/layouts/grid/lv_grid.c ****         } else {
 1679              		.loc 1 509 27 view .LVU574
 1680 00f8 1B5A     		ldrh	r3, [r3, r0]
 509:Middlewares/lvgl/src/extra/layouts/grid/lv_grid.c ****         } else {
 1681              		.loc 1 509 20 view .LVU575
 1682 00fa 3B44     		add	r3, r3, r7
 1683 00fc 1FB2     		sxth	r7, r3
 1684              	.LVL199:
 509:Middlewares/lvgl/src/extra/layouts/grid/lv_grid.c ****         } else {
 1685              		.loc 1 509 20 view .LVU576
 1686 00fe EAE7     		b	.L70
 1687              	.LVL200:
 1688              	.L83:
ARM GAS  /tmp/cc1NzchT.s 			page 61


 509:Middlewares/lvgl/src/extra/layouts/grid/lv_grid.c ****         } else {
 1689              		.loc 1 509 20 view .LVU577
 1690              	.LBE185:
 517:Middlewares/lvgl/src/extra/layouts/grid/lv_grid.c ****     lv_coord_t cont_h = lv_obj_get_content_height(cont) - row_gap * (c->row_num - 1);
 1691              		.loc 1 517 5 is_stmt 1 view .LVU578
 1692              	.LBB186:
 1693              	.LBI186:
 115:Middlewares/lvgl/src/extra/layouts/grid/../flex/../../../core/lv_obj_style_gen.h **** {
 1694              		.loc 3 115 26 view .LVU579
 1695              	.LBB187:
 117:Middlewares/lvgl/src/extra/layouts/grid/../flex/../../../core/lv_obj_style_gen.h ****     return (lv_coord_t)v.num;
 1696              		.loc 3 117 5 view .LVU580
 117:Middlewares/lvgl/src/extra/layouts/grid/../flex/../../../core/lv_obj_style_gen.h ****     return (lv_coord_t)v.num;
 1697              		.loc 3 117 26 is_stmt 0 view .LVU581
 1698 0100 41F21402 		movw	r2, #4116
 1699              	.LVL201:
 117:Middlewares/lvgl/src/extra/layouts/grid/../flex/../../../core/lv_obj_style_gen.h ****     return (lv_coord_t)v.num;
 1700              		.loc 3 117 26 view .LVU582
 1701 0104 0021     		movs	r1, #0
 1702 0106 4046     		mov	r0, r8
 1703 0108 FFF7FEFF 		bl	lv_obj_get_style_prop
 1704              	.LVL202:
 118:Middlewares/lvgl/src/extra/layouts/grid/../flex/../../../core/lv_obj_style_gen.h **** }
 1705              		.loc 3 118 5 is_stmt 1 view .LVU583
 118:Middlewares/lvgl/src/extra/layouts/grid/../flex/../../../core/lv_obj_style_gen.h **** }
 1706              		.loc 3 118 12 is_stmt 0 view .LVU584
 1707 010c 0FFA80F9 		sxth	r9, r0
 1708              	.LVL203:
 118:Middlewares/lvgl/src/extra/layouts/grid/../flex/../../../core/lv_obj_style_gen.h **** }
 1709              		.loc 3 118 12 view .LVU585
 1710              	.LBE187:
 1711              	.LBE186:
 518:Middlewares/lvgl/src/extra/layouts/grid/lv_grid.c ****     lv_coord_t free_h = cont_h - grid_h;
 1712              		.loc 1 518 5 is_stmt 1 view .LVU586
 518:Middlewares/lvgl/src/extra/layouts/grid/lv_grid.c ****     lv_coord_t free_h = cont_h - grid_h;
 1713              		.loc 1 518 25 is_stmt 0 view .LVU587
 1714 0110 4046     		mov	r0, r8
 1715 0112 FFF7FEFF 		bl	lv_obj_get_content_height
 1716              	.LVL204:
 1717 0116 83B2     		uxth	r3, r0
 518:Middlewares/lvgl/src/extra/layouts/grid/lv_grid.c ****     lv_coord_t free_h = cont_h - grid_h;
 1718              		.loc 1 518 71 view .LVU588
 1719 0118 6269     		ldr	r2, [r4, #20]
 518:Middlewares/lvgl/src/extra/layouts/grid/lv_grid.c ****     lv_coord_t free_h = cont_h - grid_h;
 1720              		.loc 1 518 81 view .LVU589
 1721 011a 013A     		subs	r2, r2, #1
 518:Middlewares/lvgl/src/extra/layouts/grid/lv_grid.c ****     lv_coord_t free_h = cont_h - grid_h;
 1722              		.loc 1 518 57 view .LVU590
 1723 011c 09FB1233 		mls	r3, r9, r2, r3
 1724 0120 9BB2     		uxth	r3, r3
 1725              	.LVL205:
 519:Middlewares/lvgl/src/extra/layouts/grid/lv_grid.c ****     if(free_h < 0) free_h = 0;
 1726              		.loc 1 519 5 is_stmt 1 view .LVU591
 519:Middlewares/lvgl/src/extra/layouts/grid/lv_grid.c ****     if(free_h < 0) free_h = 0;
 1727              		.loc 1 519 32 is_stmt 0 view .LVU592
 1728 0122 DF1B     		subs	r7, r3, r7
 1729              	.LVL206:
ARM GAS  /tmp/cc1NzchT.s 			page 62


 519:Middlewares/lvgl/src/extra/layouts/grid/lv_grid.c ****     if(free_h < 0) free_h = 0;
 1730              		.loc 1 519 16 view .LVU593
 1731 0124 3FB2     		sxth	r7, r7
 1732              	.LVL207:
 520:Middlewares/lvgl/src/extra/layouts/grid/lv_grid.c **** 
 1733              		.loc 1 520 5 is_stmt 1 view .LVU594
 520:Middlewares/lvgl/src/extra/layouts/grid/lv_grid.c **** 
 1734              		.loc 1 520 7 is_stmt 0 view .LVU595
 1735 0126 002F     		cmp	r7, #0
 1736 0128 01DB     		blt	.L84
 1737              	.LVL208:
 1738              	.L73:
 522:Middlewares/lvgl/src/extra/layouts/grid/lv_grid.c ****     int32_t last_fr_x = 0;
 1739              		.loc 1 522 5 is_stmt 1 view .LVU596
 523:Middlewares/lvgl/src/extra/layouts/grid/lv_grid.c ****     for(i = 0; i < c->row_num; i++) {
 1740              		.loc 1 523 5 view .LVU597
 524:Middlewares/lvgl/src/extra/layouts/grid/lv_grid.c ****         lv_coord_t x = row_templ[i];
 1741              		.loc 1 524 5 view .LVU598
 524:Middlewares/lvgl/src/extra/layouts/grid/lv_grid.c ****         lv_coord_t x = row_templ[i];
 1742              		.loc 1 524 11 is_stmt 0 view .LVU599
 1743 012a 0022     		movs	r2, #0
 524:Middlewares/lvgl/src/extra/layouts/grid/lv_grid.c ****         lv_coord_t x = row_templ[i];
 1744              		.loc 1 524 5 view .LVU600
 1745 012c 02E0     		b	.L74
 1746              	.LVL209:
 1747              	.L84:
 520:Middlewares/lvgl/src/extra/layouts/grid/lv_grid.c **** 
 1748              		.loc 1 520 27 view .LVU601
 1749 012e 0027     		movs	r7, #0
 1750              	.LVL210:
 520:Middlewares/lvgl/src/extra/layouts/grid/lv_grid.c **** 
 1751              		.loc 1 520 27 view .LVU602
 1752 0130 FBE7     		b	.L73
 1753              	.LVL211:
 1754              	.L75:
 524:Middlewares/lvgl/src/extra/layouts/grid/lv_grid.c ****         lv_coord_t x = row_templ[i];
 1755              		.loc 1 524 32 is_stmt 1 discriminator 2 view .LVU603
 524:Middlewares/lvgl/src/extra/layouts/grid/lv_grid.c ****         lv_coord_t x = row_templ[i];
 1756              		.loc 1 524 33 is_stmt 0 discriminator 2 view .LVU604
 1757 0132 0132     		adds	r2, r2, #1
 1758              	.LVL212:
 1759              	.L74:
 524:Middlewares/lvgl/src/extra/layouts/grid/lv_grid.c ****         lv_coord_t x = row_templ[i];
 1760              		.loc 1 524 16 is_stmt 1 discriminator 1 view .LVU605
 524:Middlewares/lvgl/src/extra/layouts/grid/lv_grid.c ****         lv_coord_t x = row_templ[i];
 1761              		.loc 1 524 21 is_stmt 0 discriminator 1 view .LVU606
 1762 0134 6169     		ldr	r1, [r4, #20]
 524:Middlewares/lvgl/src/extra/layouts/grid/lv_grid.c ****         lv_coord_t x = row_templ[i];
 1763              		.loc 1 524 5 discriminator 1 view .LVU607
 1764 0136 9142     		cmp	r1, r2
 1765 0138 11D9     		bls	.L85
 1766              	.LBB188:
 525:Middlewares/lvgl/src/extra/layouts/grid/lv_grid.c ****         if(IS_FR(x)) {
 1767              		.loc 1 525 9 is_stmt 1 view .LVU608
 525:Middlewares/lvgl/src/extra/layouts/grid/lv_grid.c ****         if(IS_FR(x)) {
 1768              		.loc 1 525 20 is_stmt 0 view .LVU609
 1769 013a 36F91230 		ldrsh	r3, [r6, r2, lsl #1]
ARM GAS  /tmp/cc1NzchT.s 			page 63


 1770              	.LVL213:
 526:Middlewares/lvgl/src/extra/layouts/grid/lv_grid.c ****             lv_coord_t f = GET_FR(x);
 1771              		.loc 1 526 9 is_stmt 1 view .LVU610
 526:Middlewares/lvgl/src/extra/layouts/grid/lv_grid.c ****             lv_coord_t f = GET_FR(x);
 1772              		.loc 1 526 11 is_stmt 0 view .LVU611
 1773 013e 45F69B71 		movw	r1, #24475
 1774 0142 8B42     		cmp	r3, r1
 1775 0144 F5DD     		ble	.L75
 1776              	.LBB189:
 527:Middlewares/lvgl/src/extra/layouts/grid/lv_grid.c ****             c->h[i] = (free_h * f) / row_fr_cnt;
 1777              		.loc 1 527 13 is_stmt 1 view .LVU612
 527:Middlewares/lvgl/src/extra/layouts/grid/lv_grid.c ****             c->h[i] = (free_h * f) / row_fr_cnt;
 1778              		.loc 1 527 28 is_stmt 0 view .LVU613
 1779 0146 A3F5BF43 		sub	r3, r3, #24448
 1780              	.LVL214:
 527:Middlewares/lvgl/src/extra/layouts/grid/lv_grid.c ****             c->h[i] = (free_h * f) / row_fr_cnt;
 1781              		.loc 1 527 28 view .LVU614
 1782 014a 1C3B     		subs	r3, r3, #28
 1783              	.LVL215:
 527:Middlewares/lvgl/src/extra/layouts/grid/lv_grid.c ****             c->h[i] = (free_h * f) / row_fr_cnt;
 1784              		.loc 1 527 24 view .LVU615
 1785 014c 1BB2     		sxth	r3, r3
 1786              	.LVL216:
 528:Middlewares/lvgl/src/extra/layouts/grid/lv_grid.c ****         }
 1787              		.loc 1 528 13 is_stmt 1 view .LVU616
 528:Middlewares/lvgl/src/extra/layouts/grid/lv_grid.c ****         }
 1788              		.loc 1 528 31 is_stmt 0 view .LVU617
 1789 014e 07FB03F3 		mul	r3, r7, r3
 1790              	.LVL217:
 528:Middlewares/lvgl/src/extra/layouts/grid/lv_grid.c ****         }
 1791              		.loc 1 528 36 view .LVU618
 1792 0152 B3FBF5F3 		udiv	r3, r3, r5
 528:Middlewares/lvgl/src/extra/layouts/grid/lv_grid.c ****         }
 1793              		.loc 1 528 14 view .LVU619
 1794 0156 E168     		ldr	r1, [r4, #12]
 528:Middlewares/lvgl/src/extra/layouts/grid/lv_grid.c ****         }
 1795              		.loc 1 528 21 view .LVU620
 1796 0158 21F81230 		strh	r3, [r1, r2, lsl #1]	@ movhi
 1797              	.LVL218:
 528:Middlewares/lvgl/src/extra/layouts/grid/lv_grid.c ****         }
 1798              		.loc 1 528 21 view .LVU621
 1799 015c E9E7     		b	.L75
 1800              	.L85:
 528:Middlewares/lvgl/src/extra/layouts/grid/lv_grid.c ****         }
 1801              		.loc 1 528 21 view .LVU622
 1802              	.LBE189:
 1803              	.LBE188:
 536:Middlewares/lvgl/src/extra/layouts/grid/lv_grid.c **** 
 1804              		.loc 1 536 1 view .LVU623
 1805 015e BDE8F88F 		pop	{r3, r4, r5, r6, r7, r8, r9, r10, fp, pc}
 1806              	.LVL219:
 1807              	.L87:
 536:Middlewares/lvgl/src/extra/layouts/grid/lv_grid.c **** 
 1808              		.loc 1 536 1 view .LVU624
 1809 0162 00BF     		.align	2
 1810              	.L86:
 1811 0164 00000000 		.word	.LANCHOR6
ARM GAS  /tmp/cc1NzchT.s 			page 64


 1812 0168 01800100 		.word	98305
 1813 016c 00000000 		.word	.LANCHOR1
 1814 0170 00000000 		.word	.LANCHOR3
 1815 0174 00A0FFFF 		.word	-24576
 1816              		.cfi_endproc
 1817              	.LFE201:
 1819              		.section	.text.calc_cols,"ax",%progbits
 1820              		.align	1
 1821              		.syntax unified
 1822              		.thumb
 1823              		.thumb_func
 1824              		.fpu softvfp
 1826              	calc_cols:
 1827              	.LVL220:
 1828              	.LFB200:
 401:Middlewares/lvgl/src/extra/layouts/grid/lv_grid.c ****     const lv_coord_t * col_templ = get_col_dsc(cont);
 1829              		.loc 1 401 1 is_stmt 1 view -0
 1830              		.cfi_startproc
 1831              		@ args = 0, pretend = 0, frame = 8
 1832              		@ frame_needed = 0, uses_anonymous_args = 0
 401:Middlewares/lvgl/src/extra/layouts/grid/lv_grid.c ****     const lv_coord_t * col_templ = get_col_dsc(cont);
 1833              		.loc 1 401 1 is_stmt 0 view .LVU626
 1834 0000 2DE9F04F 		push	{r4, r5, r6, r7, r8, r9, r10, fp, lr}
 1835              	.LCFI7:
 1836              		.cfi_def_cfa_offset 36
 1837              		.cfi_offset 4, -36
 1838              		.cfi_offset 5, -32
 1839              		.cfi_offset 6, -28
 1840              		.cfi_offset 7, -24
 1841              		.cfi_offset 8, -20
 1842              		.cfi_offset 9, -16
 1843              		.cfi_offset 10, -12
 1844              		.cfi_offset 11, -8
 1845              		.cfi_offset 14, -4
 1846 0004 83B0     		sub	sp, sp, #12
 1847              	.LCFI8:
 1848              		.cfi_def_cfa_offset 48
 1849 0006 8146     		mov	r9, r0
 1850 0008 0C46     		mov	r4, r1
 402:Middlewares/lvgl/src/extra/layouts/grid/lv_grid.c ****     lv_coord_t cont_w = lv_obj_get_content_width(cont);
 1851              		.loc 1 402 5 is_stmt 1 view .LVU627
 1852              	.LVL221:
 1853              	.LBB210:
 1854              	.LBI210:
  60:Middlewares/lvgl/src/extra/layouts/grid/lv_grid.c **** static inline const lv_coord_t * get_row_dsc(lv_obj_t * obj) {return lv_obj_get_style_grid_row_dsc_
 1855              		.loc 1 60 34 view .LVU628
 1856              	.LBE210:
  60:Middlewares/lvgl/src/extra/layouts/grid/lv_grid.c **** static inline const lv_coord_t * get_row_dsc(lv_obj_t * obj) {return lv_obj_get_style_grid_row_dsc_
 1857              		.loc 1 60 63 view .LVU629
 1858              	.LBB213:
 1859              	.LBB211:
 1860              	.LBI211:
 127:Middlewares/lvgl/src/extra/layouts/grid/../grid/lv_grid.h **** {
 1861              		.loc 2 127 34 view .LVU630
 1862              	.LBB212:
 129:Middlewares/lvgl/src/extra/layouts/grid/../grid/lv_grid.h ****     return (const lv_coord_t *)v.ptr;
 1863              		.loc 2 129 5 view .LVU631
ARM GAS  /tmp/cc1NzchT.s 			page 65


 129:Middlewares/lvgl/src/extra/layouts/grid/../grid/lv_grid.h ****     return (const lv_coord_t *)v.ptr;
 1864              		.loc 2 129 26 is_stmt 0 view .LVU632
 1865 000a 5F4B     		ldr	r3, .L115
 1866 000c 1A88     		ldrh	r2, [r3]
 1867 000e 0021     		movs	r1, #0
 1868              	.LVL222:
 129:Middlewares/lvgl/src/extra/layouts/grid/../grid/lv_grid.h ****     return (const lv_coord_t *)v.ptr;
 1869              		.loc 2 129 26 view .LVU633
 1870 0010 FFF7FEFF 		bl	lv_obj_get_style_prop
 1871              	.LVL223:
 129:Middlewares/lvgl/src/extra/layouts/grid/../grid/lv_grid.h ****     return (const lv_coord_t *)v.ptr;
 1872              		.loc 2 129 26 view .LVU634
 1873 0014 8046     		mov	r8, r0
 130:Middlewares/lvgl/src/extra/layouts/grid/../grid/lv_grid.h **** }
 1874              		.loc 2 130 5 is_stmt 1 view .LVU635
 1875              	.LVL224:
 130:Middlewares/lvgl/src/extra/layouts/grid/../grid/lv_grid.h **** }
 1876              		.loc 2 130 5 is_stmt 0 view .LVU636
 1877              	.LBE212:
 1878              	.LBE211:
 1879              	.LBE213:
 403:Middlewares/lvgl/src/extra/layouts/grid/lv_grid.c **** 
 1880              		.loc 1 403 5 is_stmt 1 view .LVU637
 403:Middlewares/lvgl/src/extra/layouts/grid/lv_grid.c **** 
 1881              		.loc 1 403 25 is_stmt 0 view .LVU638
 1882 0016 4846     		mov	r0, r9
 1883              	.LVL225:
 403:Middlewares/lvgl/src/extra/layouts/grid/lv_grid.c **** 
 1884              		.loc 1 403 25 view .LVU639
 1885 0018 FFF7FEFF 		bl	lv_obj_get_content_width
 1886              	.LVL226:
 1887 001c 0190     		str	r0, [sp, #4]
 1888              	.LVL227:
 405:Middlewares/lvgl/src/extra/layouts/grid/lv_grid.c ****     c->x = lv_mem_buf_get(sizeof(lv_coord_t) * c->col_num);
 1889              		.loc 1 405 5 is_stmt 1 view .LVU640
 405:Middlewares/lvgl/src/extra/layouts/grid/lv_grid.c ****     c->x = lv_mem_buf_get(sizeof(lv_coord_t) * c->col_num);
 1890              		.loc 1 405 18 is_stmt 0 view .LVU641
 1891 001e 4046     		mov	r0, r8
 1892 0020 FFF7FEFF 		bl	count_tracks
 1893              	.LVL228:
 405:Middlewares/lvgl/src/extra/layouts/grid/lv_grid.c ****     c->x = lv_mem_buf_get(sizeof(lv_coord_t) * c->col_num);
 1894              		.loc 1 405 16 view .LVU642
 1895 0024 2061     		str	r0, [r4, #16]
 406:Middlewares/lvgl/src/extra/layouts/grid/lv_grid.c ****     c->w = lv_mem_buf_get(sizeof(lv_coord_t) * c->col_num);
 1896              		.loc 1 406 5 is_stmt 1 view .LVU643
 406:Middlewares/lvgl/src/extra/layouts/grid/lv_grid.c ****     c->w = lv_mem_buf_get(sizeof(lv_coord_t) * c->col_num);
 1897              		.loc 1 406 12 is_stmt 0 view .LVU644
 1898 0026 4000     		lsls	r0, r0, #1
 1899 0028 FFF7FEFF 		bl	lv_mem_buf_get
 1900              	.LVL229:
 406:Middlewares/lvgl/src/extra/layouts/grid/lv_grid.c ****     c->w = lv_mem_buf_get(sizeof(lv_coord_t) * c->col_num);
 1901              		.loc 1 406 10 view .LVU645
 1902 002c 2060     		str	r0, [r4]
 407:Middlewares/lvgl/src/extra/layouts/grid/lv_grid.c **** 
 1903              		.loc 1 407 5 is_stmt 1 view .LVU646
 407:Middlewares/lvgl/src/extra/layouts/grid/lv_grid.c **** 
 1904              		.loc 1 407 49 is_stmt 0 view .LVU647
ARM GAS  /tmp/cc1NzchT.s 			page 66


 1905 002e 2069     		ldr	r0, [r4, #16]
 407:Middlewares/lvgl/src/extra/layouts/grid/lv_grid.c **** 
 1906              		.loc 1 407 12 view .LVU648
 1907 0030 4000     		lsls	r0, r0, #1
 1908 0032 FFF7FEFF 		bl	lv_mem_buf_get
 1909              	.LVL230:
 407:Middlewares/lvgl/src/extra/layouts/grid/lv_grid.c **** 
 1910              		.loc 1 407 10 view .LVU649
 1911 0036 A060     		str	r0, [r4, #8]
 410:Middlewares/lvgl/src/extra/layouts/grid/lv_grid.c ****     for(i = 0; i < c->col_num; i++) {
 1912              		.loc 1 410 5 is_stmt 1 view .LVU650
 411:Middlewares/lvgl/src/extra/layouts/grid/lv_grid.c ****         lv_coord_t size = LV_COORD_MIN;
 1913              		.loc 1 411 5 view .LVU651
 1914              	.LVL231:
 411:Middlewares/lvgl/src/extra/layouts/grid/lv_grid.c ****         lv_coord_t size = LV_COORD_MIN;
 1915              		.loc 1 411 11 is_stmt 0 view .LVU652
 1916 0038 0026     		movs	r6, #0
 411:Middlewares/lvgl/src/extra/layouts/grid/lv_grid.c ****         lv_coord_t size = LV_COORD_MIN;
 1917              		.loc 1 411 5 view .LVU653
 1918 003a 32E0     		b	.L89
 1919              	.LVL232:
 1920              	.L92:
 1921              	.LBB214:
 1922              	.LBB215:
 416:Middlewares/lvgl/src/extra/layouts/grid/lv_grid.c ****                 lv_obj_t * item = lv_obj_get_child(cont, ci);
 1923              		.loc 1 416 58 is_stmt 1 discriminator 2 view .LVU654
 416:Middlewares/lvgl/src/extra/layouts/grid/lv_grid.c ****                 lv_obj_t * item = lv_obj_get_child(cont, ci);
 1924              		.loc 1 416 60 is_stmt 0 discriminator 2 view .LVU655
 1925 003c 0135     		adds	r5, r5, #1
 1926              	.LVL233:
 1927              	.L90:
 416:Middlewares/lvgl/src/extra/layouts/grid/lv_grid.c ****                 lv_obj_t * item = lv_obj_get_child(cont, ci);
 1928              		.loc 1 416 25 is_stmt 1 discriminator 1 view .LVU656
 416:Middlewares/lvgl/src/extra/layouts/grid/lv_grid.c ****                 lv_obj_t * item = lv_obj_get_child(cont, ci);
 1929              		.loc 1 416 30 is_stmt 0 discriminator 1 view .LVU657
 1930 003e 4846     		mov	r0, r9
 1931 0040 FFF7FEFF 		bl	lv_obj_get_child_cnt
 1932              	.LVL234:
 416:Middlewares/lvgl/src/extra/layouts/grid/lv_grid.c ****                 lv_obj_t * item = lv_obj_get_child(cont, ci);
 1933              		.loc 1 416 13 discriminator 1 view .LVU658
 1934 0044 A842     		cmp	r0, r5
 1935 0046 25D9     		bls	.L109
 1936              	.LBB216:
 417:Middlewares/lvgl/src/extra/layouts/grid/lv_grid.c ****                 if(lv_obj_has_flag_any(item, LV_OBJ_FLAG_IGNORE_LAYOUT | LV_OBJ_FLAG_HIDDEN | LV_OB
 1937              		.loc 1 417 17 is_stmt 1 view .LVU659
 417:Middlewares/lvgl/src/extra/layouts/grid/lv_grid.c ****                 if(lv_obj_has_flag_any(item, LV_OBJ_FLAG_IGNORE_LAYOUT | LV_OBJ_FLAG_HIDDEN | LV_OB
 1938              		.loc 1 417 35 is_stmt 0 view .LVU660
 1939 0048 2946     		mov	r1, r5
 1940 004a 4846     		mov	r0, r9
 1941 004c FFF7FEFF 		bl	lv_obj_get_child
 1942              	.LVL235:
 1943 0050 0746     		mov	r7, r0
 1944              	.LVL236:
 418:Middlewares/lvgl/src/extra/layouts/grid/lv_grid.c ****                 uint32_t col_span = get_col_span(item);
 1945              		.loc 1 418 17 is_stmt 1 view .LVU661
 418:Middlewares/lvgl/src/extra/layouts/grid/lv_grid.c ****                 uint32_t col_span = get_col_span(item);
 1946              		.loc 1 418 20 is_stmt 0 view .LVU662
ARM GAS  /tmp/cc1NzchT.s 			page 67


 1947 0052 4E49     		ldr	r1, .L115+4
 1948 0054 FFF7FEFF 		bl	lv_obj_has_flag_any
 1949              	.LVL237:
 418:Middlewares/lvgl/src/extra/layouts/grid/lv_grid.c ****                 uint32_t col_span = get_col_span(item);
 1950              		.loc 1 418 19 view .LVU663
 1951 0058 0028     		cmp	r0, #0
 1952 005a EFD1     		bne	.L92
 419:Middlewares/lvgl/src/extra/layouts/grid/lv_grid.c ****                 if(col_span != 1) continue;
 1953              		.loc 1 419 17 is_stmt 1 view .LVU664
 1954              	.LVL238:
 1955              	.LBB217:
 1956              	.LBI217:
  64:Middlewares/lvgl/src/extra/layouts/grid/lv_grid.c **** static inline uint8_t get_row_span(lv_obj_t * obj) {return lv_obj_get_style_grid_cell_row_span(obj,
 1957              		.loc 1 64 23 view .LVU665
 1958              	.LBB218:
  64:Middlewares/lvgl/src/extra/layouts/grid/lv_grid.c **** static inline uint8_t get_row_span(lv_obj_t * obj) {return lv_obj_get_style_grid_cell_row_span(obj,
 1959              		.loc 1 64 53 view .LVU666
 1960              	.LBB219:
 1961              	.LBI219:
 151:Middlewares/lvgl/src/extra/layouts/grid/../grid/lv_grid.h **** {
 1962              		.loc 2 151 26 view .LVU667
 1963              	.LBB220:
 153:Middlewares/lvgl/src/extra/layouts/grid/../grid/lv_grid.h ****     return (lv_coord_t)v.num;
 1964              		.loc 2 153 5 view .LVU668
 153:Middlewares/lvgl/src/extra/layouts/grid/../grid/lv_grid.h ****     return (lv_coord_t)v.num;
 1965              		.loc 2 153 26 is_stmt 0 view .LVU669
 1966 005c 4C4B     		ldr	r3, .L115+8
 1967 005e 1A88     		ldrh	r2, [r3]
 1968 0060 0021     		movs	r1, #0
 1969 0062 3846     		mov	r0, r7
 1970 0064 FFF7FEFF 		bl	lv_obj_get_style_prop
 1971              	.LVL239:
 154:Middlewares/lvgl/src/extra/layouts/grid/../grid/lv_grid.h **** }
 1972              		.loc 2 154 5 is_stmt 1 view .LVU670
 154:Middlewares/lvgl/src/extra/layouts/grid/../grid/lv_grid.h **** }
 1973              		.loc 2 154 5 is_stmt 0 view .LVU671
 1974              	.LBE220:
 1975              	.LBE219:
  64:Middlewares/lvgl/src/extra/layouts/grid/lv_grid.c **** static inline uint8_t get_row_span(lv_obj_t * obj) {return lv_obj_get_style_grid_cell_row_span(obj,
 1976              		.loc 1 64 60 view .LVU672
 1977 0068 C0B2     		uxtb	r0, r0
 1978              	.LVL240:
  64:Middlewares/lvgl/src/extra/layouts/grid/lv_grid.c **** static inline uint8_t get_row_span(lv_obj_t * obj) {return lv_obj_get_style_grid_cell_row_span(obj,
 1979              		.loc 1 64 60 view .LVU673
 1980              	.LBE218:
 1981              	.LBE217:
 420:Middlewares/lvgl/src/extra/layouts/grid/lv_grid.c **** 
 1982              		.loc 1 420 17 is_stmt 1 view .LVU674
 420:Middlewares/lvgl/src/extra/layouts/grid/lv_grid.c **** 
 1983              		.loc 1 420 19 is_stmt 0 view .LVU675
 1984 006a 0128     		cmp	r0, #1
 1985 006c E6D1     		bne	.L92
 422:Middlewares/lvgl/src/extra/layouts/grid/lv_grid.c ****                 if(col_pos != i) continue;
 1986              		.loc 1 422 17 is_stmt 1 view .LVU676
 1987              	.LVL241:
 1988              	.LBB221:
 1989              	.LBI221:
ARM GAS  /tmp/cc1NzchT.s 			page 68


  62:Middlewares/lvgl/src/extra/layouts/grid/lv_grid.c **** static inline uint8_t get_row_pos(lv_obj_t * obj) {return lv_obj_get_style_grid_cell_row_pos(obj, 0
 1990              		.loc 1 62 23 view .LVU677
 1991              	.LBB222:
  62:Middlewares/lvgl/src/extra/layouts/grid/lv_grid.c **** static inline uint8_t get_row_pos(lv_obj_t * obj) {return lv_obj_get_style_grid_cell_row_pos(obj, 0
 1992              		.loc 1 62 52 view .LVU678
 1993              	.LBB223:
 1994              	.LBI223:
 145:Middlewares/lvgl/src/extra/layouts/grid/../grid/lv_grid.h **** {
 1995              		.loc 2 145 26 view .LVU679
 1996              	.LBB224:
 147:Middlewares/lvgl/src/extra/layouts/grid/../grid/lv_grid.h ****     return (lv_coord_t)v.num;
 1997              		.loc 2 147 5 view .LVU680
 147:Middlewares/lvgl/src/extra/layouts/grid/../grid/lv_grid.h ****     return (lv_coord_t)v.num;
 1998              		.loc 2 147 26 is_stmt 0 view .LVU681
 1999 006e 494B     		ldr	r3, .L115+12
 2000 0070 1A88     		ldrh	r2, [r3]
 2001 0072 0021     		movs	r1, #0
 2002 0074 3846     		mov	r0, r7
 2003              	.LVL242:
 147:Middlewares/lvgl/src/extra/layouts/grid/../grid/lv_grid.h ****     return (lv_coord_t)v.num;
 2004              		.loc 2 147 26 view .LVU682
 2005 0076 FFF7FEFF 		bl	lv_obj_get_style_prop
 2006              	.LVL243:
 148:Middlewares/lvgl/src/extra/layouts/grid/../grid/lv_grid.h **** }
 2007              		.loc 2 148 5 is_stmt 1 view .LVU683
 148:Middlewares/lvgl/src/extra/layouts/grid/../grid/lv_grid.h **** }
 2008              		.loc 2 148 5 is_stmt 0 view .LVU684
 2009              	.LBE224:
 2010              	.LBE223:
  62:Middlewares/lvgl/src/extra/layouts/grid/lv_grid.c **** static inline uint8_t get_row_pos(lv_obj_t * obj) {return lv_obj_get_style_grid_cell_row_pos(obj, 0
 2011              		.loc 1 62 59 view .LVU685
 2012 007a C0B2     		uxtb	r0, r0
 2013              	.LVL244:
  62:Middlewares/lvgl/src/extra/layouts/grid/lv_grid.c **** static inline uint8_t get_row_pos(lv_obj_t * obj) {return lv_obj_get_style_grid_cell_row_pos(obj, 0
 2014              		.loc 1 62 59 view .LVU686
 2015              	.LBE222:
 2016              	.LBE221:
 423:Middlewares/lvgl/src/extra/layouts/grid/lv_grid.c **** 
 2017              		.loc 1 423 17 is_stmt 1 view .LVU687
 423:Middlewares/lvgl/src/extra/layouts/grid/lv_grid.c **** 
 2018              		.loc 1 423 19 is_stmt 0 view .LVU688
 2019 007c 8642     		cmp	r6, r0
 2020 007e DDD1     		bne	.L92
 425:Middlewares/lvgl/src/extra/layouts/grid/lv_grid.c ****             }
 2021              		.loc 1 425 17 is_stmt 1 view .LVU689
 425:Middlewares/lvgl/src/extra/layouts/grid/lv_grid.c ****             }
 2022              		.loc 1 425 24 is_stmt 0 view .LVU690
 2023 0080 3846     		mov	r0, r7
 2024              	.LVL245:
 425:Middlewares/lvgl/src/extra/layouts/grid/lv_grid.c ****             }
 2025              		.loc 1 425 24 view .LVU691
 2026 0082 FFF7FEFF 		bl	lv_obj_get_width
 2027              	.LVL246:
 425:Middlewares/lvgl/src/extra/layouts/grid/lv_grid.c ****             }
 2028              		.loc 1 425 22 view .LVU692
 2029 0086 5845     		cmp	r0, fp
 2030 0088 D8DB     		blt	.L92
ARM GAS  /tmp/cc1NzchT.s 			page 69


 425:Middlewares/lvgl/src/extra/layouts/grid/lv_grid.c ****             }
 2031              		.loc 1 425 24 discriminator 1 view .LVU693
 2032 008a 3846     		mov	r0, r7
 2033 008c FFF7FEFF 		bl	lv_obj_get_width
 2034              	.LVL247:
 2035 0090 8346     		mov	fp, r0
 2036              	.LVL248:
 425:Middlewares/lvgl/src/extra/layouts/grid/lv_grid.c ****             }
 2037              		.loc 1 425 24 discriminator 1 view .LVU694
 2038 0092 D3E7     		b	.L92
 2039              	.LVL249:
 2040              	.L109:
 425:Middlewares/lvgl/src/extra/layouts/grid/lv_grid.c ****             }
 2041              		.loc 1 425 24 discriminator 1 view .LVU695
 2042              	.LBE216:
 427:Middlewares/lvgl/src/extra/layouts/grid/lv_grid.c ****             else c->w[i] = 0;
 2043              		.loc 1 427 13 is_stmt 1 view .LVU696
 427:Middlewares/lvgl/src/extra/layouts/grid/lv_grid.c ****             else c->w[i] = 0;
 2044              		.loc 1 427 15 is_stmt 0 view .LVU697
 2045 0094 BBF1000F 		cmp	fp, #0
 2046 0098 12DB     		blt	.L94
 427:Middlewares/lvgl/src/extra/layouts/grid/lv_grid.c ****             else c->w[i] = 0;
 2047              		.loc 1 427 27 is_stmt 1 discriminator 1 view .LVU698
 427:Middlewares/lvgl/src/extra/layouts/grid/lv_grid.c ****             else c->w[i] = 0;
 2048              		.loc 1 427 28 is_stmt 0 discriminator 1 view .LVU699
 2049 009a A368     		ldr	r3, [r4, #8]
 427:Middlewares/lvgl/src/extra/layouts/grid/lv_grid.c ****             else c->w[i] = 0;
 2050              		.loc 1 427 35 discriminator 1 view .LVU700
 2051 009c 23F80AB0 		strh	fp, [r3, r10]	@ movhi
 2052              	.LVL250:
 2053              	.L91:
 427:Middlewares/lvgl/src/extra/layouts/grid/lv_grid.c ****             else c->w[i] = 0;
 2054              		.loc 1 427 35 discriminator 1 view .LVU701
 2055              	.LBE215:
 2056              	.LBE214:
 411:Middlewares/lvgl/src/extra/layouts/grid/lv_grid.c ****         lv_coord_t size = LV_COORD_MIN;
 2057              		.loc 1 411 32 is_stmt 1 discriminator 2 view .LVU702
 411:Middlewares/lvgl/src/extra/layouts/grid/lv_grid.c ****         lv_coord_t size = LV_COORD_MIN;
 2058              		.loc 1 411 33 is_stmt 0 discriminator 2 view .LVU703
 2059 00a0 0136     		adds	r6, r6, #1
 2060              	.LVL251:
 2061              	.L89:
 411:Middlewares/lvgl/src/extra/layouts/grid/lv_grid.c ****         lv_coord_t size = LV_COORD_MIN;
 2062              		.loc 1 411 16 is_stmt 1 discriminator 1 view .LVU704
 411:Middlewares/lvgl/src/extra/layouts/grid/lv_grid.c ****         lv_coord_t size = LV_COORD_MIN;
 2063              		.loc 1 411 21 is_stmt 0 discriminator 1 view .LVU705
 2064 00a2 2369     		ldr	r3, [r4, #16]
 411:Middlewares/lvgl/src/extra/layouts/grid/lv_grid.c ****         lv_coord_t size = LV_COORD_MIN;
 2065              		.loc 1 411 5 discriminator 1 view .LVU706
 2066 00a4 B342     		cmp	r3, r6
 2067 00a6 10D9     		bls	.L110
 2068              	.LBB227:
 412:Middlewares/lvgl/src/extra/layouts/grid/lv_grid.c ****         if(IS_CONTENT(col_templ[i])) {
 2069              		.loc 1 412 9 is_stmt 1 view .LVU707
 2070              	.LVL252:
 413:Middlewares/lvgl/src/extra/layouts/grid/lv_grid.c ****             /*Check the size of children of this cell*/
 2071              		.loc 1 413 9 view .LVU708
ARM GAS  /tmp/cc1NzchT.s 			page 70


 413:Middlewares/lvgl/src/extra/layouts/grid/lv_grid.c ****             /*Check the size of children of this cell*/
 2072              		.loc 1 413 12 is_stmt 0 view .LVU709
 2073 00a8 4FEA460A 		lsl	r10, r6, #1
 2074 00ac 38F91620 		ldrsh	r2, [r8, r6, lsl #1]
 413:Middlewares/lvgl/src/extra/layouts/grid/lv_grid.c ****             /*Check the size of children of this cell*/
 2075              		.loc 1 413 11 view .LVU710
 2076 00b0 45F69B73 		movw	r3, #24475
 2077 00b4 9A42     		cmp	r2, r3
 2078 00b6 F3D1     		bne	.L91
 2079              	.LBB225:
 416:Middlewares/lvgl/src/extra/layouts/grid/lv_grid.c ****                 lv_obj_t * item = lv_obj_get_child(cont, ci);
 2080              		.loc 1 416 20 view .LVU711
 2081 00b8 0025     		movs	r5, #0
 2082              	.LBE225:
 412:Middlewares/lvgl/src/extra/layouts/grid/lv_grid.c ****         if(IS_CONTENT(col_templ[i])) {
 2083              		.loc 1 412 20 view .LVU712
 2084 00ba DFF8DCB0 		ldr	fp, .L115+16
 2085 00be BEE7     		b	.L90
 2086              	.LVL253:
 2087              	.L94:
 2088              	.LBB226:
 428:Middlewares/lvgl/src/extra/layouts/grid/lv_grid.c ****         }
 2089              		.loc 1 428 18 is_stmt 1 view .LVU713
 428:Middlewares/lvgl/src/extra/layouts/grid/lv_grid.c ****         }
 2090              		.loc 1 428 19 is_stmt 0 view .LVU714
 2091 00c0 A368     		ldr	r3, [r4, #8]
 428:Middlewares/lvgl/src/extra/layouts/grid/lv_grid.c ****         }
 2092              		.loc 1 428 26 view .LVU715
 2093 00c2 0022     		movs	r2, #0
 2094 00c4 23F80A20 		strh	r2, [r3, r10]	@ movhi
 2095 00c8 EAE7     		b	.L91
 2096              	.LVL254:
 2097              	.L110:
 428:Middlewares/lvgl/src/extra/layouts/grid/lv_grid.c ****         }
 2098              		.loc 1 428 26 view .LVU716
 2099              	.LBE226:
 2100              	.LBE227:
 433:Middlewares/lvgl/src/extra/layouts/grid/lv_grid.c **** 
 2101              		.loc 1 433 16 view .LVU717
 2102 00ca 0026     		movs	r6, #0
 2103              	.LVL255:
 432:Middlewares/lvgl/src/extra/layouts/grid/lv_grid.c ****     lv_coord_t grid_w = 0;
 2104              		.loc 1 432 14 view .LVU718
 2105 00cc 3546     		mov	r5, r6
 435:Middlewares/lvgl/src/extra/layouts/grid/lv_grid.c ****         lv_coord_t x = col_templ[i];
 2106              		.loc 1 435 11 view .LVU719
 2107 00ce 3246     		mov	r2, r6
 2108 00d0 08E0     		b	.L96
 2109              	.LVL256:
 2110              	.L97:
 2111              	.LBB228:
 440:Middlewares/lvgl/src/extra/layouts/grid/lv_grid.c ****             grid_w += c->w[i];
 2112              		.loc 1 440 14 is_stmt 1 view .LVU720
 440:Middlewares/lvgl/src/extra/layouts/grid/lv_grid.c ****             grid_w += c->w[i];
 2113              		.loc 1 440 17 is_stmt 0 view .LVU721
 2114 00d2 45F69B71 		movw	r1, #24475
 2115 00d6 8B42     		cmp	r3, r1
ARM GAS  /tmp/cc1NzchT.s 			page 71


 2116 00d8 13D0     		beq	.L111
 444:Middlewares/lvgl/src/extra/layouts/grid/lv_grid.c ****             grid_w += x;
 2117              		.loc 1 444 13 is_stmt 1 view .LVU722
 444:Middlewares/lvgl/src/extra/layouts/grid/lv_grid.c ****             grid_w += x;
 2118              		.loc 1 444 14 is_stmt 0 view .LVU723
 2119 00da A168     		ldr	r1, [r4, #8]
 444:Middlewares/lvgl/src/extra/layouts/grid/lv_grid.c ****             grid_w += x;
 2120              		.loc 1 444 21 view .LVU724
 2121 00dc 0B52     		strh	r3, [r1, r0]	@ movhi
 445:Middlewares/lvgl/src/extra/layouts/grid/lv_grid.c ****         }
 2122              		.loc 1 445 13 is_stmt 1 view .LVU725
 445:Middlewares/lvgl/src/extra/layouts/grid/lv_grid.c ****         }
 2123              		.loc 1 445 20 is_stmt 0 view .LVU726
 2124 00de 3344     		add	r3, r3, r6
 2125              	.LVL257:
 445:Middlewares/lvgl/src/extra/layouts/grid/lv_grid.c ****         }
 2126              		.loc 1 445 20 view .LVU727
 2127 00e0 1EB2     		sxth	r6, r3
 2128              	.LVL258:
 2129              	.L98:
 445:Middlewares/lvgl/src/extra/layouts/grid/lv_grid.c ****         }
 2130              		.loc 1 445 20 view .LVU728
 2131              	.LBE228:
 435:Middlewares/lvgl/src/extra/layouts/grid/lv_grid.c ****         lv_coord_t x = col_templ[i];
 2132              		.loc 1 435 32 is_stmt 1 discriminator 2 view .LVU729
 435:Middlewares/lvgl/src/extra/layouts/grid/lv_grid.c ****         lv_coord_t x = col_templ[i];
 2133              		.loc 1 435 33 is_stmt 0 discriminator 2 view .LVU730
 2134 00e2 0132     		adds	r2, r2, #1
 2135              	.LVL259:
 2136              	.L96:
 435:Middlewares/lvgl/src/extra/layouts/grid/lv_grid.c ****         lv_coord_t x = col_templ[i];
 2137              		.loc 1 435 16 is_stmt 1 discriminator 1 view .LVU731
 435:Middlewares/lvgl/src/extra/layouts/grid/lv_grid.c ****         lv_coord_t x = col_templ[i];
 2138              		.loc 1 435 21 is_stmt 0 discriminator 1 view .LVU732
 2139 00e4 2369     		ldr	r3, [r4, #16]
 435:Middlewares/lvgl/src/extra/layouts/grid/lv_grid.c ****         lv_coord_t x = col_templ[i];
 2140              		.loc 1 435 5 discriminator 1 view .LVU733
 2141 00e6 9342     		cmp	r3, r2
 2142 00e8 10D9     		bls	.L112
 2143              	.LBB229:
 436:Middlewares/lvgl/src/extra/layouts/grid/lv_grid.c ****         if(IS_FR(x)) {
 2144              		.loc 1 436 9 is_stmt 1 view .LVU734
 436:Middlewares/lvgl/src/extra/layouts/grid/lv_grid.c ****         if(IS_FR(x)) {
 2145              		.loc 1 436 33 is_stmt 0 view .LVU735
 2146 00ea 5000     		lsls	r0, r2, #1
 436:Middlewares/lvgl/src/extra/layouts/grid/lv_grid.c ****         if(IS_FR(x)) {
 2147              		.loc 1 436 20 view .LVU736
 2148 00ec 38F91230 		ldrsh	r3, [r8, r2, lsl #1]
 2149              	.LVL260:
 437:Middlewares/lvgl/src/extra/layouts/grid/lv_grid.c ****             col_fr_cnt += GET_FR(x);
 2150              		.loc 1 437 9 is_stmt 1 view .LVU737
 437:Middlewares/lvgl/src/extra/layouts/grid/lv_grid.c ****             col_fr_cnt += GET_FR(x);
 2151              		.loc 1 437 11 is_stmt 0 view .LVU738
 2152 00f0 45F69B71 		movw	r1, #24475
 2153 00f4 8B42     		cmp	r3, r1
 2154 00f6 ECDD     		ble	.L97
 438:Middlewares/lvgl/src/extra/layouts/grid/lv_grid.c ****         }
ARM GAS  /tmp/cc1NzchT.s 			page 72


 2155              		.loc 1 438 13 is_stmt 1 view .LVU739
 438:Middlewares/lvgl/src/extra/layouts/grid/lv_grid.c ****         }
 2156              		.loc 1 438 24 is_stmt 0 view .LVU740
 2157 00f8 2B44     		add	r3, r3, r5
 2158              	.LVL261:
 438:Middlewares/lvgl/src/extra/layouts/grid/lv_grid.c ****         }
 2159              		.loc 1 438 24 view .LVU741
 2160 00fa A3F5BF45 		sub	r5, r3, #24448
 2161              	.LVL262:
 438:Middlewares/lvgl/src/extra/layouts/grid/lv_grid.c ****         }
 2162              		.loc 1 438 24 view .LVU742
 2163 00fe 1C3D     		subs	r5, r5, #28
 2164              	.LVL263:
 438:Middlewares/lvgl/src/extra/layouts/grid/lv_grid.c ****         }
 2165              		.loc 1 438 24 view .LVU743
 2166 0100 EFE7     		b	.L98
 2167              	.LVL264:
 2168              	.L111:
 441:Middlewares/lvgl/src/extra/layouts/grid/lv_grid.c ****         }
 2169              		.loc 1 441 13 is_stmt 1 view .LVU744
 441:Middlewares/lvgl/src/extra/layouts/grid/lv_grid.c ****         }
 2170              		.loc 1 441 24 is_stmt 0 view .LVU745
 2171 0102 A368     		ldr	r3, [r4, #8]
 2172              	.LVL265:
 441:Middlewares/lvgl/src/extra/layouts/grid/lv_grid.c ****         }
 2173              		.loc 1 441 27 view .LVU746
 2174 0104 1B5A     		ldrh	r3, [r3, r0]
 441:Middlewares/lvgl/src/extra/layouts/grid/lv_grid.c ****         }
 2175              		.loc 1 441 20 view .LVU747
 2176 0106 3344     		add	r3, r3, r6
 2177 0108 1EB2     		sxth	r6, r3
 2178              	.LVL266:
 441:Middlewares/lvgl/src/extra/layouts/grid/lv_grid.c ****         }
 2179              		.loc 1 441 20 view .LVU748
 2180 010a EAE7     		b	.L98
 2181              	.LVL267:
 2182              	.L112:
 441:Middlewares/lvgl/src/extra/layouts/grid/lv_grid.c ****         }
 2183              		.loc 1 441 20 view .LVU749
 2184              	.LBE229:
 449:Middlewares/lvgl/src/extra/layouts/grid/lv_grid.c ****     cont_w -= col_gap * (c->col_num - 1);
 2185              		.loc 1 449 5 is_stmt 1 view .LVU750
 2186              	.LBB230:
 2187              	.LBI230:
 121:Middlewares/lvgl/src/extra/layouts/grid/../flex/../../../core/lv_obj_style_gen.h **** {
 2188              		.loc 3 121 26 view .LVU751
 2189              	.LBB231:
 123:Middlewares/lvgl/src/extra/layouts/grid/../flex/../../../core/lv_obj_style_gen.h ****     return (lv_coord_t)v.num;
 2190              		.loc 3 123 5 view .LVU752
 123:Middlewares/lvgl/src/extra/layouts/grid/../flex/../../../core/lv_obj_style_gen.h ****     return (lv_coord_t)v.num;
 2191              		.loc 3 123 26 is_stmt 0 view .LVU753
 2192 010c 41F21502 		movw	r2, #4117
 2193              	.LVL268:
 123:Middlewares/lvgl/src/extra/layouts/grid/../flex/../../../core/lv_obj_style_gen.h ****     return (lv_coord_t)v.num;
 2194              		.loc 3 123 26 view .LVU754
 2195 0110 0021     		movs	r1, #0
 2196 0112 4846     		mov	r0, r9
ARM GAS  /tmp/cc1NzchT.s 			page 73


 2197 0114 FFF7FEFF 		bl	lv_obj_get_style_prop
 2198              	.LVL269:
 124:Middlewares/lvgl/src/extra/layouts/grid/../flex/../../../core/lv_obj_style_gen.h **** }
 2199              		.loc 3 124 5 is_stmt 1 view .LVU755
 124:Middlewares/lvgl/src/extra/layouts/grid/../flex/../../../core/lv_obj_style_gen.h **** }
 2200              		.loc 3 124 12 is_stmt 0 view .LVU756
 2201 0118 00B2     		sxth	r0, r0
 2202              	.LVL270:
 124:Middlewares/lvgl/src/extra/layouts/grid/../flex/../../../core/lv_obj_style_gen.h **** }
 2203              		.loc 3 124 12 view .LVU757
 2204              	.LBE231:
 2205              	.LBE230:
 450:Middlewares/lvgl/src/extra/layouts/grid/lv_grid.c ****     lv_coord_t free_w = cont_w - grid_w;
 2206              		.loc 1 450 5 is_stmt 1 view .LVU758
 450:Middlewares/lvgl/src/extra/layouts/grid/lv_grid.c ****     lv_coord_t free_w = cont_w - grid_w;
 2207              		.loc 1 450 27 is_stmt 0 view .LVU759
 2208 011a 2369     		ldr	r3, [r4, #16]
 450:Middlewares/lvgl/src/extra/layouts/grid/lv_grid.c ****     lv_coord_t free_w = cont_w - grid_w;
 2209              		.loc 1 450 37 view .LVU760
 2210 011c 013B     		subs	r3, r3, #1
 450:Middlewares/lvgl/src/extra/layouts/grid/lv_grid.c ****     lv_coord_t free_w = cont_w - grid_w;
 2211              		.loc 1 450 12 view .LVU761
 2212 011e 019A     		ldr	r2, [sp, #4]
 2213 0120 00FB1323 		mls	r3, r0, r3, r2
 2214 0124 9BB2     		uxth	r3, r3
 2215              	.LVL271:
 451:Middlewares/lvgl/src/extra/layouts/grid/lv_grid.c ****     if(free_w < 0) free_w = 0;
 2216              		.loc 1 451 5 is_stmt 1 view .LVU762
 451:Middlewares/lvgl/src/extra/layouts/grid/lv_grid.c ****     if(free_w < 0) free_w = 0;
 2217              		.loc 1 451 32 is_stmt 0 view .LVU763
 2218 0126 9E1B     		subs	r6, r3, r6
 2219              	.LVL272:
 451:Middlewares/lvgl/src/extra/layouts/grid/lv_grid.c ****     if(free_w < 0) free_w = 0;
 2220              		.loc 1 451 16 view .LVU764
 2221 0128 36B2     		sxth	r6, r6
 2222              	.LVL273:
 452:Middlewares/lvgl/src/extra/layouts/grid/lv_grid.c **** 
 2223              		.loc 1 452 5 is_stmt 1 view .LVU765
 452:Middlewares/lvgl/src/extra/layouts/grid/lv_grid.c **** 
 2224              		.loc 1 452 7 is_stmt 0 view .LVU766
 2225 012a 002E     		cmp	r6, #0
 2226 012c 04DB     		blt	.L113
 2227              	.LVL274:
 2228              	.L101:
 454:Middlewares/lvgl/src/extra/layouts/grid/lv_grid.c ****     int32_t last_fr_x = 0;
 2229              		.loc 1 454 5 is_stmt 1 view .LVU767
 455:Middlewares/lvgl/src/extra/layouts/grid/lv_grid.c ****     for(i = 0; i < c->col_num; i++) {
 2230              		.loc 1 455 5 view .LVU768
 456:Middlewares/lvgl/src/extra/layouts/grid/lv_grid.c ****         lv_coord_t x = col_templ[i];
 2231              		.loc 1 456 5 view .LVU769
 455:Middlewares/lvgl/src/extra/layouts/grid/lv_grid.c ****     for(i = 0; i < c->col_num; i++) {
 2232              		.loc 1 455 13 is_stmt 0 view .LVU770
 2233 012e 0027     		movs	r7, #0
 454:Middlewares/lvgl/src/extra/layouts/grid/lv_grid.c ****     int32_t last_fr_x = 0;
 2234              		.loc 1 454 13 view .LVU771
 2235 0130 4FF0FF3C 		mov	ip, #-1
 456:Middlewares/lvgl/src/extra/layouts/grid/lv_grid.c ****         lv_coord_t x = col_templ[i];
ARM GAS  /tmp/cc1NzchT.s 			page 74


 2236              		.loc 1 456 11 view .LVU772
 2237 0134 3A46     		mov	r2, r7
 456:Middlewares/lvgl/src/extra/layouts/grid/lv_grid.c ****         lv_coord_t x = col_templ[i];
 2238              		.loc 1 456 5 view .LVU773
 2239 0136 02E0     		b	.L102
 2240              	.LVL275:
 2241              	.L113:
 452:Middlewares/lvgl/src/extra/layouts/grid/lv_grid.c **** 
 2242              		.loc 1 452 27 view .LVU774
 2243 0138 0026     		movs	r6, #0
 2244              	.LVL276:
 452:Middlewares/lvgl/src/extra/layouts/grid/lv_grid.c **** 
 2245              		.loc 1 452 27 view .LVU775
 2246 013a F8E7     		b	.L101
 2247              	.LVL277:
 2248              	.L103:
 456:Middlewares/lvgl/src/extra/layouts/grid/lv_grid.c ****         lv_coord_t x = col_templ[i];
 2249              		.loc 1 456 32 is_stmt 1 discriminator 2 view .LVU776
 456:Middlewares/lvgl/src/extra/layouts/grid/lv_grid.c ****         lv_coord_t x = col_templ[i];
 2250              		.loc 1 456 33 is_stmt 0 discriminator 2 view .LVU777
 2251 013c 0132     		adds	r2, r2, #1
 2252              	.LVL278:
 2253              	.L102:
 456:Middlewares/lvgl/src/extra/layouts/grid/lv_grid.c ****         lv_coord_t x = col_templ[i];
 2254              		.loc 1 456 16 is_stmt 1 discriminator 1 view .LVU778
 456:Middlewares/lvgl/src/extra/layouts/grid/lv_grid.c ****         lv_coord_t x = col_templ[i];
 2255              		.loc 1 456 21 is_stmt 0 discriminator 1 view .LVU779
 2256 013e 2069     		ldr	r0, [r4, #16]
 456:Middlewares/lvgl/src/extra/layouts/grid/lv_grid.c ****         lv_coord_t x = col_templ[i];
 2257              		.loc 1 456 5 discriminator 1 view .LVU780
 2258 0140 9042     		cmp	r0, r2
 2259 0142 12D9     		bls	.L114
 2260              	.LBB232:
 457:Middlewares/lvgl/src/extra/layouts/grid/lv_grid.c ****         if(IS_FR(x)) {
 2261              		.loc 1 457 9 is_stmt 1 view .LVU781
 457:Middlewares/lvgl/src/extra/layouts/grid/lv_grid.c ****         if(IS_FR(x)) {
 2262              		.loc 1 457 20 is_stmt 0 view .LVU782
 2263 0144 38F91210 		ldrsh	r1, [r8, r2, lsl #1]
 2264              	.LVL279:
 458:Middlewares/lvgl/src/extra/layouts/grid/lv_grid.c ****             lv_coord_t f = GET_FR(x);
 2265              		.loc 1 458 9 is_stmt 1 view .LVU783
 458:Middlewares/lvgl/src/extra/layouts/grid/lv_grid.c ****             lv_coord_t f = GET_FR(x);
 2266              		.loc 1 458 11 is_stmt 0 view .LVU784
 2267 0148 45F69B73 		movw	r3, #24475
 2268 014c 9942     		cmp	r1, r3
 2269 014e F5DD     		ble	.L103
 2270              	.LBB233:
 459:Middlewares/lvgl/src/extra/layouts/grid/lv_grid.c ****             c->w[i] = (free_w * f) / col_fr_cnt;
 2271              		.loc 1 459 13 is_stmt 1 view .LVU785
 459:Middlewares/lvgl/src/extra/layouts/grid/lv_grid.c ****             c->w[i] = (free_w * f) / col_fr_cnt;
 2272              		.loc 1 459 28 is_stmt 0 view .LVU786
 2273 0150 A1F5BF41 		sub	r1, r1, #24448
 2274              	.LVL280:
 459:Middlewares/lvgl/src/extra/layouts/grid/lv_grid.c ****             c->w[i] = (free_w * f) / col_fr_cnt;
 2275              		.loc 1 459 28 view .LVU787
 2276 0154 1C39     		subs	r1, r1, #28
 2277              	.LVL281:
ARM GAS  /tmp/cc1NzchT.s 			page 75


 459:Middlewares/lvgl/src/extra/layouts/grid/lv_grid.c ****             c->w[i] = (free_w * f) / col_fr_cnt;
 2278              		.loc 1 459 24 view .LVU788
 2279 0156 0FB2     		sxth	r7, r1
 2280              	.LVL282:
 460:Middlewares/lvgl/src/extra/layouts/grid/lv_grid.c ****             last_fr_i = i;
 2281              		.loc 1 460 13 is_stmt 1 view .LVU789
 460:Middlewares/lvgl/src/extra/layouts/grid/lv_grid.c ****             last_fr_i = i;
 2282              		.loc 1 460 31 is_stmt 0 view .LVU790
 2283 0158 07FB06F3 		mul	r3, r7, r6
 460:Middlewares/lvgl/src/extra/layouts/grid/lv_grid.c ****             last_fr_i = i;
 2284              		.loc 1 460 36 view .LVU791
 2285 015c B3FBF5F3 		udiv	r3, r3, r5
 460:Middlewares/lvgl/src/extra/layouts/grid/lv_grid.c ****             last_fr_i = i;
 2286              		.loc 1 460 14 view .LVU792
 2287 0160 A168     		ldr	r1, [r4, #8]
 2288              	.LVL283:
 460:Middlewares/lvgl/src/extra/layouts/grid/lv_grid.c ****             last_fr_i = i;
 2289              		.loc 1 460 21 view .LVU793
 2290 0162 21F81230 		strh	r3, [r1, r2, lsl #1]	@ movhi
 2291              	.LVL284:
 461:Middlewares/lvgl/src/extra/layouts/grid/lv_grid.c ****             last_fr_x = f;
 2292              		.loc 1 461 13 is_stmt 1 view .LVU794
 461:Middlewares/lvgl/src/extra/layouts/grid/lv_grid.c ****             last_fr_x = f;
 2293              		.loc 1 461 23 is_stmt 0 view .LVU795
 2294 0166 9446     		mov	ip, r2
 2295              	.LVL285:
 462:Middlewares/lvgl/src/extra/layouts/grid/lv_grid.c ****         }
 2296              		.loc 1 462 13 is_stmt 1 view .LVU796
 462:Middlewares/lvgl/src/extra/layouts/grid/lv_grid.c ****         }
 2297              		.loc 1 462 13 is_stmt 0 view .LVU797
 2298 0168 E8E7     		b	.L103
 2299              	.LVL286:
 2300              	.L114:
 462:Middlewares/lvgl/src/extra/layouts/grid/lv_grid.c ****         }
 2301              		.loc 1 462 13 view .LVU798
 2302              	.LBE233:
 2303              	.LBE232:
 467:Middlewares/lvgl/src/extra/layouts/grid/lv_grid.c ****     	c->w[last_fr_i] = free_w - ((free_w * (col_fr_cnt - last_fr_x)) / col_fr_cnt);
 2304              		.loc 1 467 5 is_stmt 1 view .LVU799
 467:Middlewares/lvgl/src/extra/layouts/grid/lv_grid.c ****     	c->w[last_fr_i] = free_w - ((free_w * (col_fr_cnt - last_fr_x)) / col_fr_cnt);
 2305              		.loc 1 467 7 is_stmt 0 view .LVU800
 2306 016a BCF1000F 		cmp	ip, #0
 2307 016e 08DB     		blt	.L88
 468:Middlewares/lvgl/src/extra/layouts/grid/lv_grid.c ****     }
 2308              		.loc 1 468 6 is_stmt 1 view .LVU801
 468:Middlewares/lvgl/src/extra/layouts/grid/lv_grid.c ****     }
 2309              		.loc 1 468 56 is_stmt 0 view .LVU802
 2310 0170 EB1B     		subs	r3, r5, r7
 468:Middlewares/lvgl/src/extra/layouts/grid/lv_grid.c ****     }
 2311              		.loc 1 468 42 view .LVU803
 2312 0172 06FB03F3 		mul	r3, r6, r3
 468:Middlewares/lvgl/src/extra/layouts/grid/lv_grid.c ****     }
 2313              		.loc 1 468 70 view .LVU804
 2314 0176 B3FBF5F3 		udiv	r3, r3, r5
 468:Middlewares/lvgl/src/extra/layouts/grid/lv_grid.c ****     }
 2315              		.loc 1 468 7 view .LVU805
 2316 017a A268     		ldr	r2, [r4, #8]
ARM GAS  /tmp/cc1NzchT.s 			page 76


 2317              	.LVL287:
 468:Middlewares/lvgl/src/extra/layouts/grid/lv_grid.c ****     }
 2318              		.loc 1 468 31 view .LVU806
 2319 017c F31A     		subs	r3, r6, r3
 468:Middlewares/lvgl/src/extra/layouts/grid/lv_grid.c ****     }
 2320              		.loc 1 468 22 view .LVU807
 2321 017e 22F81C30 		strh	r3, [r2, ip, lsl #1]	@ movhi
 2322              	.L88:
 470:Middlewares/lvgl/src/extra/layouts/grid/lv_grid.c **** 
 2323              		.loc 1 470 1 view .LVU808
 2324 0182 03B0     		add	sp, sp, #12
 2325              	.LCFI9:
 2326              		.cfi_def_cfa_offset 36
 2327              		@ sp needed
 2328 0184 BDE8F08F 		pop	{r4, r5, r6, r7, r8, r9, r10, fp, pc}
 2329              	.LVL288:
 2330              	.L116:
 470:Middlewares/lvgl/src/extra/layouts/grid/lv_grid.c **** 
 2331              		.loc 1 470 1 view .LVU809
 2332              		.align	2
 2333              	.L115:
 2334 0188 00000000 		.word	.LANCHOR7
 2335 018c 01800100 		.word	98305
 2336 0190 00000000 		.word	.LANCHOR0
 2337 0194 00000000 		.word	.LANCHOR2
 2338 0198 00A0FFFF 		.word	-24576
 2339              		.cfi_endproc
 2340              	.LFE200:
 2342              		.section	.text.calc,"ax",%progbits
 2343              		.align	1
 2344              		.syntax unified
 2345              		.thumb
 2346              		.thumb_func
 2347              		.fpu softvfp
 2349              	calc:
 2350              	.LVL289:
 2351              	.LFB198:
 361:Middlewares/lvgl/src/extra/layouts/grid/lv_grid.c ****     if(lv_obj_get_child(cont, 0) == NULL) {
 2352              		.loc 1 361 1 is_stmt 1 view -0
 2353              		.cfi_startproc
 2354              		@ args = 0, pretend = 0, frame = 0
 2355              		@ frame_needed = 0, uses_anonymous_args = 0
 361:Middlewares/lvgl/src/extra/layouts/grid/lv_grid.c ****     if(lv_obj_get_child(cont, 0) == NULL) {
 2356              		.loc 1 361 1 is_stmt 0 view .LVU811
 2357 0000 2DE9F04F 		push	{r4, r5, r6, r7, r8, r9, r10, fp, lr}
 2358              	.LCFI10:
 2359              		.cfi_def_cfa_offset 36
 2360              		.cfi_offset 4, -36
 2361              		.cfi_offset 5, -32
 2362              		.cfi_offset 6, -28
 2363              		.cfi_offset 7, -24
 2364              		.cfi_offset 8, -20
 2365              		.cfi_offset 9, -16
 2366              		.cfi_offset 10, -12
 2367              		.cfi_offset 11, -8
 2368              		.cfi_offset 14, -4
 2369 0004 85B0     		sub	sp, sp, #20
ARM GAS  /tmp/cc1NzchT.s 			page 77


 2370              	.LCFI11:
 2371              		.cfi_def_cfa_offset 56
 2372 0006 0446     		mov	r4, r0
 2373 0008 0D46     		mov	r5, r1
 362:Middlewares/lvgl/src/extra/layouts/grid/lv_grid.c ****         lv_memset_00(calc_out, sizeof(_lv_grid_calc_t));
 2374              		.loc 1 362 5 is_stmt 1 view .LVU812
 362:Middlewares/lvgl/src/extra/layouts/grid/lv_grid.c ****         lv_memset_00(calc_out, sizeof(_lv_grid_calc_t));
 2375              		.loc 1 362 8 is_stmt 0 view .LVU813
 2376 000a 0021     		movs	r1, #0
 2377              	.LVL290:
 362:Middlewares/lvgl/src/extra/layouts/grid/lv_grid.c ****         lv_memset_00(calc_out, sizeof(_lv_grid_calc_t));
 2378              		.loc 1 362 8 view .LVU814
 2379 000c FFF7FEFF 		bl	lv_obj_get_child
 2380              	.LVL291:
 362:Middlewares/lvgl/src/extra/layouts/grid/lv_grid.c ****         lv_memset_00(calc_out, sizeof(_lv_grid_calc_t));
 2381              		.loc 1 362 7 view .LVU815
 2382 0010 0028     		cmp	r0, #0
 2383 0012 71D0     		beq	.L127
 367:Middlewares/lvgl/src/extra/layouts/grid/lv_grid.c ****     calc_cols(cont, calc_out);
 2384              		.loc 1 367 5 is_stmt 1 view .LVU816
 2385 0014 2946     		mov	r1, r5
 2386 0016 2046     		mov	r0, r4
 2387 0018 FFF7FEFF 		bl	calc_rows
 2388              	.LVL292:
 368:Middlewares/lvgl/src/extra/layouts/grid/lv_grid.c **** 
 2389              		.loc 1 368 5 view .LVU817
 2390 001c 2946     		mov	r1, r5
 2391 001e 2046     		mov	r0, r4
 2392 0020 FFF7FEFF 		bl	calc_cols
 2393              	.LVL293:
 370:Middlewares/lvgl/src/extra/layouts/grid/lv_grid.c ****     lv_coord_t row_gap = lv_obj_get_style_pad_row(cont, LV_PART_MAIN);
 2394              		.loc 1 370 5 view .LVU818
 2395              	.LBB252:
 2396              	.LBI252:
 121:Middlewares/lvgl/src/extra/layouts/grid/../flex/../../../core/lv_obj_style_gen.h **** {
 2397              		.loc 3 121 26 view .LVU819
 2398              	.LBB253:
 123:Middlewares/lvgl/src/extra/layouts/grid/../flex/../../../core/lv_obj_style_gen.h ****     return (lv_coord_t)v.num;
 2399              		.loc 3 123 5 view .LVU820
 123:Middlewares/lvgl/src/extra/layouts/grid/../flex/../../../core/lv_obj_style_gen.h ****     return (lv_coord_t)v.num;
 2400              		.loc 3 123 26 is_stmt 0 view .LVU821
 2401 0024 41F21502 		movw	r2, #4117
 2402 0028 0021     		movs	r1, #0
 2403 002a 2046     		mov	r0, r4
 2404 002c FFF7FEFF 		bl	lv_obj_get_style_prop
 2405              	.LVL294:
 124:Middlewares/lvgl/src/extra/layouts/grid/../flex/../../../core/lv_obj_style_gen.h **** }
 2406              		.loc 3 124 5 is_stmt 1 view .LVU822
 124:Middlewares/lvgl/src/extra/layouts/grid/../flex/../../../core/lv_obj_style_gen.h **** }
 2407              		.loc 3 124 12 is_stmt 0 view .LVU823
 2408 0030 0FFA80FA 		sxth	r10, r0
 2409              	.LVL295:
 124:Middlewares/lvgl/src/extra/layouts/grid/../flex/../../../core/lv_obj_style_gen.h **** }
 2410              		.loc 3 124 12 view .LVU824
 2411              	.LBE253:
 2412              	.LBE252:
 371:Middlewares/lvgl/src/extra/layouts/grid/lv_grid.c **** 
ARM GAS  /tmp/cc1NzchT.s 			page 78


 2413              		.loc 1 371 5 is_stmt 1 view .LVU825
 2414              	.LBB254:
 2415              	.LBI254:
 115:Middlewares/lvgl/src/extra/layouts/grid/../flex/../../../core/lv_obj_style_gen.h **** {
 2416              		.loc 3 115 26 view .LVU826
 2417              	.LBB255:
 117:Middlewares/lvgl/src/extra/layouts/grid/../flex/../../../core/lv_obj_style_gen.h ****     return (lv_coord_t)v.num;
 2418              		.loc 3 117 5 view .LVU827
 117:Middlewares/lvgl/src/extra/layouts/grid/../flex/../../../core/lv_obj_style_gen.h ****     return (lv_coord_t)v.num;
 2419              		.loc 3 117 26 is_stmt 0 view .LVU828
 2420 0034 41F21402 		movw	r2, #4116
 2421 0038 0021     		movs	r1, #0
 2422 003a 2046     		mov	r0, r4
 2423 003c FFF7FEFF 		bl	lv_obj_get_style_prop
 2424              	.LVL296:
 118:Middlewares/lvgl/src/extra/layouts/grid/../flex/../../../core/lv_obj_style_gen.h **** }
 2425              		.loc 3 118 5 is_stmt 1 view .LVU829
 118:Middlewares/lvgl/src/extra/layouts/grid/../flex/../../../core/lv_obj_style_gen.h **** }
 2426              		.loc 3 118 12 is_stmt 0 view .LVU830
 2427 0040 07B2     		sxth	r7, r0
 2428              	.LVL297:
 118:Middlewares/lvgl/src/extra/layouts/grid/../flex/../../../core/lv_obj_style_gen.h **** }
 2429              		.loc 3 118 12 view .LVU831
 2430              	.LBE255:
 2431              	.LBE254:
 373:Middlewares/lvgl/src/extra/layouts/grid/lv_grid.c **** 
 2432              		.loc 1 373 5 is_stmt 1 view .LVU832
 2433              	.LBB256:
 2434              	.LBI256:
 187:Middlewares/lvgl/src/extra/layouts/grid/../flex/../../../core/lv_obj_style_gen.h **** {
 2435              		.loc 3 187 29 view .LVU833
 2436              	.LBB257:
 189:Middlewares/lvgl/src/extra/layouts/grid/../flex/../../../core/lv_obj_style_gen.h ****     return (lv_base_dir_t)v.num;
 2437              		.loc 3 189 5 view .LVU834
 189:Middlewares/lvgl/src/extra/layouts/grid/../flex/../../../core/lv_obj_style_gen.h ****     return (lv_base_dir_t)v.num;
 2438              		.loc 3 189 26 is_stmt 0 view .LVU835
 2439 0042 41F26A42 		movw	r2, #5226
 2440 0046 0021     		movs	r1, #0
 2441 0048 2046     		mov	r0, r4
 2442 004a FFF7FEFF 		bl	lv_obj_get_style_prop
 2443              	.LVL298:
 2444              		.loc 3 190 5 is_stmt 1 view .LVU836
 2445              		.loc 3 190 12 is_stmt 0 view .LVU837
 2446 004e C6B2     		uxtb	r6, r0
 2447              	.LVL299:
 2448              		.loc 3 190 12 view .LVU838
 2449              	.LBE257:
 2450              	.LBE256:
 373:Middlewares/lvgl/src/extra/layouts/grid/lv_grid.c **** 
 2451              		.loc 1 373 10 view .LVU839
 2452 0050 012E     		cmp	r6, #1
 2453 0052 14BF     		ite	ne
 2454 0054 0026     		movne	r6, #0
 2455 0056 0126     		moveq	r6, #1
 2456              	.LVL300:
 375:Middlewares/lvgl/src/extra/layouts/grid/lv_grid.c ****     lv_coord_t h_set = lv_obj_get_style_height(cont, LV_PART_MAIN);
 2457              		.loc 1 375 5 is_stmt 1 view .LVU840
ARM GAS  /tmp/cc1NzchT.s 			page 79


 2458              	.LBB258:
 2459              	.LBI258:
   1:Middlewares/lvgl/src/extra/layouts/grid/../flex/../../../core/lv_obj_style_gen.h **** {
 2460              		.loc 3 1 26 view .LVU841
 2461              	.LBB259:
   3:Middlewares/lvgl/src/extra/layouts/grid/../flex/../../../core/lv_obj_style_gen.h ****     return (lv_coord_t)v.num;
 2462              		.loc 3 3 5 view .LVU842
   3:Middlewares/lvgl/src/extra/layouts/grid/../flex/../../../core/lv_obj_style_gen.h ****     return (lv_coord_t)v.num;
 2463              		.loc 3 3 26 is_stmt 0 view .LVU843
 2464 0058 41F20102 		movw	r2, #4097
 2465 005c 0021     		movs	r1, #0
 2466 005e 2046     		mov	r0, r4
 2467 0060 FFF7FEFF 		bl	lv_obj_get_style_prop
 2468              	.LVL301:
   4:Middlewares/lvgl/src/extra/layouts/grid/../flex/../../../core/lv_obj_style_gen.h **** }
 2469              		.loc 3 4 5 is_stmt 1 view .LVU844
   4:Middlewares/lvgl/src/extra/layouts/grid/../flex/../../../core/lv_obj_style_gen.h **** }
 2470              		.loc 3 4 12 is_stmt 0 view .LVU845
 2471 0064 0FFA80F9 		sxth	r9, r0
 2472              	.LVL302:
   4:Middlewares/lvgl/src/extra/layouts/grid/../flex/../../../core/lv_obj_style_gen.h **** }
 2473              		.loc 3 4 12 view .LVU846
 2474              	.LBE259:
 2475              	.LBE258:
 376:Middlewares/lvgl/src/extra/layouts/grid/lv_grid.c ****     bool auto_w = (w_set == LV_SIZE_CONTENT && !cont->w_layout) ? true : false;
 2476              		.loc 1 376 5 is_stmt 1 view .LVU847
 2477              	.LBB260:
 2478              	.LBI260:
  19:Middlewares/lvgl/src/extra/layouts/grid/../flex/../../../core/lv_obj_style_gen.h **** {
 2479              		.loc 3 19 26 view .LVU848
 2480              	.LBB261:
  21:Middlewares/lvgl/src/extra/layouts/grid/../flex/../../../core/lv_obj_style_gen.h ****     return (lv_coord_t)v.num;
 2481              		.loc 3 21 5 view .LVU849
  21:Middlewares/lvgl/src/extra/layouts/grid/../flex/../../../core/lv_obj_style_gen.h ****     return (lv_coord_t)v.num;
 2482              		.loc 3 21 26 is_stmt 0 view .LVU850
 2483 0068 41F20402 		movw	r2, #4100
 2484 006c 0021     		movs	r1, #0
 2485 006e 2046     		mov	r0, r4
 2486 0070 FFF7FEFF 		bl	lv_obj_get_style_prop
 2487              	.LVL303:
  22:Middlewares/lvgl/src/extra/layouts/grid/../flex/../../../core/lv_obj_style_gen.h **** }
 2488              		.loc 3 22 5 is_stmt 1 view .LVU851
  22:Middlewares/lvgl/src/extra/layouts/grid/../flex/../../../core/lv_obj_style_gen.h **** }
 2489              		.loc 3 22 12 is_stmt 0 view .LVU852
 2490 0074 0FFA80F8 		sxth	r8, r0
 2491              	.LVL304:
  22:Middlewares/lvgl/src/extra/layouts/grid/../flex/../../../core/lv_obj_style_gen.h **** }
 2492              		.loc 3 22 12 view .LVU853
 2493              	.LBE261:
 2494              	.LBE260:
 377:Middlewares/lvgl/src/extra/layouts/grid/lv_grid.c ****     lv_coord_t cont_w = lv_obj_get_content_width(cont);
 2495              		.loc 1 377 5 is_stmt 1 view .LVU854
 377:Middlewares/lvgl/src/extra/layouts/grid/lv_grid.c ****     lv_coord_t cont_w = lv_obj_get_content_width(cont);
 2496              		.loc 1 377 72 is_stmt 0 view .LVU855
 2497 0078 42F2D173 		movw	r3, #10193
 2498 007c 9945     		cmp	r9, r3
 2499 007e 40D0     		beq	.L128
ARM GAS  /tmp/cc1NzchT.s 			page 80


 2500 0080 4FF0000B 		mov	fp, #0
 2501              	.L120:
 2502              	.LVL305:
 378:Middlewares/lvgl/src/extra/layouts/grid/lv_grid.c ****     calc_out->grid_w = grid_align(cont_w, auto_w, get_grid_col_align(cont), col_gap, calc_out->col_
 2503              		.loc 1 378 5 is_stmt 1 discriminator 6 view .LVU856
 378:Middlewares/lvgl/src/extra/layouts/grid/lv_grid.c ****     calc_out->grid_w = grid_align(cont_w, auto_w, get_grid_col_align(cont), col_gap, calc_out->col_
 2504              		.loc 1 378 25 is_stmt 0 discriminator 6 view .LVU857
 2505 0084 2046     		mov	r0, r4
 2506 0086 FFF7FEFF 		bl	lv_obj_get_content_width
 2507              	.LVL306:
 2508 008a 8146     		mov	r9, r0
 2509              	.LVL307:
 379:Middlewares/lvgl/src/extra/layouts/grid/lv_grid.c **** 
 2510              		.loc 1 379 5 is_stmt 1 discriminator 6 view .LVU858
 2511              	.LBB262:
 2512              	.LBI262:
  68:Middlewares/lvgl/src/extra/layouts/grid/lv_grid.c **** static inline uint8_t get_grid_row_align(lv_obj_t * obj) {return lv_obj_get_style_grid_row_align(ob
 2513              		.loc 1 68 23 discriminator 6 view .LVU859
 2514              	.LBE262:
  68:Middlewares/lvgl/src/extra/layouts/grid/lv_grid.c **** static inline uint8_t get_grid_row_align(lv_obj_t * obj) {return lv_obj_get_style_grid_row_align(ob
 2515              		.loc 1 68 59 discriminator 6 view .LVU860
 2516              	.LBB265:
 2517              	.LBB263:
 2518              	.LBI263:
 139:Middlewares/lvgl/src/extra/layouts/grid/../grid/lv_grid.h **** {
 2519              		.loc 2 139 31 discriminator 6 view .LVU861
 2520              	.LBB264:
 141:Middlewares/lvgl/src/extra/layouts/grid/../grid/lv_grid.h ****     return (lv_grid_align_t)v.num;
 2521              		.loc 2 141 5 discriminator 6 view .LVU862
 141:Middlewares/lvgl/src/extra/layouts/grid/../grid/lv_grid.h ****     return (lv_grid_align_t)v.num;
 2522              		.loc 2 141 26 is_stmt 0 discriminator 6 view .LVU863
 2523 008c 284B     		ldr	r3, .L130
 2524 008e 1A88     		ldrh	r2, [r3]
 2525 0090 0021     		movs	r1, #0
 2526 0092 2046     		mov	r0, r4
 2527 0094 FFF7FEFF 		bl	lv_obj_get_style_prop
 2528              	.LVL308:
 142:Middlewares/lvgl/src/extra/layouts/grid/../grid/lv_grid.h **** }
 2529              		.loc 2 142 5 is_stmt 1 discriminator 6 view .LVU864
 142:Middlewares/lvgl/src/extra/layouts/grid/../grid/lv_grid.h **** }
 2530              		.loc 2 142 5 is_stmt 0 discriminator 6 view .LVU865
 2531              	.LBE264:
 2532              	.LBE263:
 2533              	.LBE265:
 379:Middlewares/lvgl/src/extra/layouts/grid/lv_grid.c **** 
 2534              		.loc 1 379 24 discriminator 6 view .LVU866
 2535 0098 0396     		str	r6, [sp, #12]
 2536 009a 2B68     		ldr	r3, [r5]
 2537 009c 0293     		str	r3, [sp, #8]
 2538 009e AB68     		ldr	r3, [r5, #8]
 2539 00a0 0193     		str	r3, [sp, #4]
 2540 00a2 2B69     		ldr	r3, [r5, #16]
 2541 00a4 0093     		str	r3, [sp]
 2542 00a6 5346     		mov	r3, r10
 2543 00a8 C2B2     		uxtb	r2, r0
 2544 00aa 5946     		mov	r1, fp
 2545 00ac 4846     		mov	r0, r9
ARM GAS  /tmp/cc1NzchT.s 			page 81


 2546 00ae FFF7FEFF 		bl	grid_align
 2547              	.LVL309:
 379:Middlewares/lvgl/src/extra/layouts/grid/lv_grid.c **** 
 2548              		.loc 1 379 22 discriminator 6 view .LVU867
 2549 00b2 2883     		strh	r0, [r5, #24]	@ movhi
 381:Middlewares/lvgl/src/extra/layouts/grid/lv_grid.c ****     lv_coord_t cont_h = lv_obj_get_content_height(cont);
 2550              		.loc 1 381 5 is_stmt 1 discriminator 6 view .LVU868
 381:Middlewares/lvgl/src/extra/layouts/grid/lv_grid.c ****     lv_coord_t cont_h = lv_obj_get_content_height(cont);
 2551              		.loc 1 381 72 is_stmt 0 discriminator 6 view .LVU869
 2552 00b4 42F2D173 		movw	r3, #10193
 2553 00b8 9845     		cmp	r8, r3
 2554 00ba 2DD0     		beq	.L129
 381:Middlewares/lvgl/src/extra/layouts/grid/lv_grid.c ****     lv_coord_t cont_h = lv_obj_get_content_height(cont);
 2555              		.loc 1 381 72 view .LVU870
 2556 00bc 4FF00008 		mov	r8, #0
 2557              	.LVL310:
 2558              	.L121:
 382:Middlewares/lvgl/src/extra/layouts/grid/lv_grid.c ****     calc_out->grid_h = grid_align(cont_h, auto_h, get_grid_row_align(cont), row_gap, calc_out->row_
 2559              		.loc 1 382 5 is_stmt 1 discriminator 6 view .LVU871
 382:Middlewares/lvgl/src/extra/layouts/grid/lv_grid.c ****     calc_out->grid_h = grid_align(cont_h, auto_h, get_grid_row_align(cont), row_gap, calc_out->row_
 2560              		.loc 1 382 25 is_stmt 0 discriminator 6 view .LVU872
 2561 00c0 2046     		mov	r0, r4
 2562 00c2 FFF7FEFF 		bl	lv_obj_get_content_height
 2563              	.LVL311:
 2564 00c6 0646     		mov	r6, r0
 2565              	.LVL312:
 383:Middlewares/lvgl/src/extra/layouts/grid/lv_grid.c **** 
 2566              		.loc 1 383 5 is_stmt 1 discriminator 6 view .LVU873
 2567              	.LBB266:
 2568              	.LBI266:
  69:Middlewares/lvgl/src/extra/layouts/grid/lv_grid.c **** 
 2569              		.loc 1 69 23 discriminator 6 view .LVU874
 2570              	.LBE266:
  69:Middlewares/lvgl/src/extra/layouts/grid/lv_grid.c **** 
 2571              		.loc 1 69 59 discriminator 6 view .LVU875
 2572              	.LBB269:
 2573              	.LBB267:
 2574              	.LBI267:
 133:Middlewares/lvgl/src/extra/layouts/grid/../grid/lv_grid.h **** {
 2575              		.loc 2 133 31 discriminator 6 view .LVU876
 2576              	.LBB268:
 135:Middlewares/lvgl/src/extra/layouts/grid/../grid/lv_grid.h ****     return (lv_grid_align_t)v.num;
 2577              		.loc 2 135 5 discriminator 6 view .LVU877
 135:Middlewares/lvgl/src/extra/layouts/grid/../grid/lv_grid.h ****     return (lv_grid_align_t)v.num;
 2578              		.loc 2 135 26 is_stmt 0 discriminator 6 view .LVU878
 2579 00c8 1A4B     		ldr	r3, .L130+4
 2580 00ca 1A88     		ldrh	r2, [r3]
 2581 00cc 0021     		movs	r1, #0
 2582 00ce 2046     		mov	r0, r4
 2583 00d0 FFF7FEFF 		bl	lv_obj_get_style_prop
 2584              	.LVL313:
 136:Middlewares/lvgl/src/extra/layouts/grid/../grid/lv_grid.h **** }
 2585              		.loc 2 136 5 is_stmt 1 discriminator 6 view .LVU879
 136:Middlewares/lvgl/src/extra/layouts/grid/../grid/lv_grid.h **** }
 2586              		.loc 2 136 5 is_stmt 0 discriminator 6 view .LVU880
 2587              	.LBE268:
 2588              	.LBE267:
ARM GAS  /tmp/cc1NzchT.s 			page 82


 2589              	.LBE269:
 383:Middlewares/lvgl/src/extra/layouts/grid/lv_grid.c **** 
 2590              		.loc 1 383 24 discriminator 6 view .LVU881
 2591 00d4 0023     		movs	r3, #0
 2592 00d6 0393     		str	r3, [sp, #12]
 2593 00d8 6B68     		ldr	r3, [r5, #4]
 2594 00da 0293     		str	r3, [sp, #8]
 2595 00dc EB68     		ldr	r3, [r5, #12]
 2596 00de 0193     		str	r3, [sp, #4]
 2597 00e0 6B69     		ldr	r3, [r5, #20]
 2598 00e2 0093     		str	r3, [sp]
 2599 00e4 3B46     		mov	r3, r7
 2600 00e6 C2B2     		uxtb	r2, r0
 2601 00e8 4146     		mov	r1, r8
 2602 00ea 3046     		mov	r0, r6
 2603 00ec FFF7FEFF 		bl	grid_align
 2604              	.LVL314:
 383:Middlewares/lvgl/src/extra/layouts/grid/lv_grid.c **** 
 2605              		.loc 1 383 22 discriminator 6 view .LVU882
 2606 00f0 6883     		strh	r0, [r5, #26]	@ movhi
 385:Middlewares/lvgl/src/extra/layouts/grid/lv_grid.c **** }
 2607              		.loc 1 385 30 is_stmt 1 discriminator 6 view .LVU883
 2608              	.LVL315:
 2609              	.L117:
 386:Middlewares/lvgl/src/extra/layouts/grid/lv_grid.c **** 
 2610              		.loc 1 386 1 is_stmt 0 view .LVU884
 2611 00f2 05B0     		add	sp, sp, #20
 2612              	.LCFI12:
 2613              		.cfi_remember_state
 2614              		.cfi_def_cfa_offset 36
 2615              		@ sp needed
 2616 00f4 BDE8F08F 		pop	{r4, r5, r6, r7, r8, r9, r10, fp, pc}
 2617              	.LVL316:
 2618              	.L127:
 2619              	.LCFI13:
 2620              		.cfi_restore_state
 363:Middlewares/lvgl/src/extra/layouts/grid/lv_grid.c ****         return;
 2621              		.loc 1 363 9 is_stmt 1 view .LVU885
 2622 00f8 1C21     		movs	r1, #28
 2623 00fa 2846     		mov	r0, r5
 2624 00fc FFF7FEFF 		bl	lv_memset_00
 2625              	.LVL317:
 364:Middlewares/lvgl/src/extra/layouts/grid/lv_grid.c ****     }
 2626              		.loc 1 364 9 view .LVU886
 2627 0100 F7E7     		b	.L117
 2628              	.LVL318:
 2629              	.L128:
 377:Middlewares/lvgl/src/extra/layouts/grid/lv_grid.c ****     lv_coord_t cont_w = lv_obj_get_content_width(cont);
 2630              		.loc 1 377 48 is_stmt 0 discriminator 1 view .LVU887
 2631 0102 94F82330 		ldrb	r3, [r4, #35]	@ zero_extendqisi2
 377:Middlewares/lvgl/src/extra/layouts/grid/lv_grid.c ****     lv_coord_t cont_w = lv_obj_get_content_width(cont);
 2632              		.loc 1 377 72 discriminator 1 view .LVU888
 2633 0106 13F0040F 		tst	r3, #4
 2634 010a 02D0     		beq	.L123
 377:Middlewares/lvgl/src/extra/layouts/grid/lv_grid.c ****     lv_coord_t cont_w = lv_obj_get_content_width(cont);
 2635              		.loc 1 377 72 view .LVU889
 2636 010c 4FF0000B 		mov	fp, #0
ARM GAS  /tmp/cc1NzchT.s 			page 83


 2637 0110 B8E7     		b	.L120
 2638              	.L123:
 2639 0112 4FF0010B 		mov	fp, #1
 2640 0116 B5E7     		b	.L120
 2641              	.LVL319:
 2642              	.L129:
 381:Middlewares/lvgl/src/extra/layouts/grid/lv_grid.c ****     lv_coord_t cont_h = lv_obj_get_content_height(cont);
 2643              		.loc 1 381 48 discriminator 1 view .LVU890
 2644 0118 94F82330 		ldrb	r3, [r4, #35]	@ zero_extendqisi2
 381:Middlewares/lvgl/src/extra/layouts/grid/lv_grid.c ****     lv_coord_t cont_h = lv_obj_get_content_height(cont);
 2645              		.loc 1 381 72 discriminator 1 view .LVU891
 2646 011c 13F0020F 		tst	r3, #2
 2647 0120 02D0     		beq	.L125
 381:Middlewares/lvgl/src/extra/layouts/grid/lv_grid.c ****     lv_coord_t cont_h = lv_obj_get_content_height(cont);
 2648              		.loc 1 381 72 view .LVU892
 2649 0122 4FF00008 		mov	r8, #0
 2650              	.LVL320:
 381:Middlewares/lvgl/src/extra/layouts/grid/lv_grid.c ****     lv_coord_t cont_h = lv_obj_get_content_height(cont);
 2651              		.loc 1 381 72 view .LVU893
 2652 0126 CBE7     		b	.L121
 2653              	.LVL321:
 2654              	.L125:
 381:Middlewares/lvgl/src/extra/layouts/grid/lv_grid.c ****     lv_coord_t cont_h = lv_obj_get_content_height(cont);
 2655              		.loc 1 381 72 view .LVU894
 2656 0128 4FF00108 		mov	r8, #1
 2657              	.LVL322:
 381:Middlewares/lvgl/src/extra/layouts/grid/lv_grid.c ****     lv_coord_t cont_h = lv_obj_get_content_height(cont);
 2658              		.loc 1 381 72 view .LVU895
 2659 012c C8E7     		b	.L121
 2660              	.L131:
 2661 012e 00BF     		.align	2
 2662              	.L130:
 2663 0130 00000000 		.word	.LANCHOR8
 2664 0134 00000000 		.word	.LANCHOR9
 2665              		.cfi_endproc
 2666              	.LFE198:
 2668              		.section	.text.grid_update,"ax",%progbits
 2669              		.align	1
 2670              		.syntax unified
 2671              		.thumb
 2672              		.thumb_func
 2673              		.fpu softvfp
 2675              	grid_update:
 2676              	.LVL323:
 2677              	.LFB197:
 314:Middlewares/lvgl/src/extra/layouts/grid/lv_grid.c ****     LV_LOG_INFO("update %p container", cont);
 2678              		.loc 1 314 1 is_stmt 1 view -0
 2679              		.cfi_startproc
 2680              		@ args = 0, pretend = 0, frame = 40
 2681              		@ frame_needed = 0, uses_anonymous_args = 0
 314:Middlewares/lvgl/src/extra/layouts/grid/lv_grid.c ****     LV_LOG_INFO("update %p container", cont);
 2682              		.loc 1 314 1 is_stmt 0 view .LVU897
 2683 0000 70B5     		push	{r4, r5, r6, lr}
 2684              	.LCFI14:
 2685              		.cfi_def_cfa_offset 16
 2686              		.cfi_offset 4, -16
 2687              		.cfi_offset 5, -12
ARM GAS  /tmp/cc1NzchT.s 			page 84


 2688              		.cfi_offset 6, -8
 2689              		.cfi_offset 14, -4
 2690 0002 8AB0     		sub	sp, sp, #40
 2691              	.LCFI15:
 2692              		.cfi_def_cfa_offset 56
 2693 0004 0546     		mov	r5, r0
 315:Middlewares/lvgl/src/extra/layouts/grid/lv_grid.c ****     LV_UNUSED(user_data);
 2694              		.loc 1 315 45 is_stmt 1 view .LVU898
 316:Middlewares/lvgl/src/extra/layouts/grid/lv_grid.c **** 
 2695              		.loc 1 316 5 view .LVU899
 318:Middlewares/lvgl/src/extra/layouts/grid/lv_grid.c ****     const lv_coord_t * row_templ = get_row_dsc(cont);
 2696              		.loc 1 318 5 view .LVU900
 2697              	.LVL324:
 2698              	.LBB289:
 2699              	.LBI289:
  60:Middlewares/lvgl/src/extra/layouts/grid/lv_grid.c **** static inline const lv_coord_t * get_row_dsc(lv_obj_t * obj) {return lv_obj_get_style_grid_row_dsc_
 2700              		.loc 1 60 34 view .LVU901
 2701              	.LBE289:
  60:Middlewares/lvgl/src/extra/layouts/grid/lv_grid.c **** static inline const lv_coord_t * get_row_dsc(lv_obj_t * obj) {return lv_obj_get_style_grid_row_dsc_
 2702              		.loc 1 60 63 view .LVU902
 2703              	.LBB292:
 2704              	.LBB290:
 2705              	.LBI290:
 127:Middlewares/lvgl/src/extra/layouts/grid/../grid/lv_grid.h **** {
 2706              		.loc 2 127 34 view .LVU903
 2707              	.LBB291:
 129:Middlewares/lvgl/src/extra/layouts/grid/../grid/lv_grid.h ****     return (const lv_coord_t *)v.ptr;
 2708              		.loc 2 129 5 view .LVU904
 129:Middlewares/lvgl/src/extra/layouts/grid/../grid/lv_grid.h ****     return (const lv_coord_t *)v.ptr;
 2709              		.loc 2 129 26 is_stmt 0 view .LVU905
 2710 0006 3B4B     		ldr	r3, .L141
 2711 0008 1A88     		ldrh	r2, [r3]
 2712 000a 0021     		movs	r1, #0
 2713              	.LVL325:
 129:Middlewares/lvgl/src/extra/layouts/grid/../grid/lv_grid.h ****     return (const lv_coord_t *)v.ptr;
 2714              		.loc 2 129 26 view .LVU906
 2715 000c FFF7FEFF 		bl	lv_obj_get_style_prop
 2716              	.LVL326:
 129:Middlewares/lvgl/src/extra/layouts/grid/../grid/lv_grid.h ****     return (const lv_coord_t *)v.ptr;
 2717              		.loc 2 129 26 view .LVU907
 2718 0010 0446     		mov	r4, r0
 2719              	.LVL327:
 130:Middlewares/lvgl/src/extra/layouts/grid/../grid/lv_grid.h **** }
 2720              		.loc 2 130 5 is_stmt 1 view .LVU908
 130:Middlewares/lvgl/src/extra/layouts/grid/../grid/lv_grid.h **** }
 2721              		.loc 2 130 5 is_stmt 0 view .LVU909
 2722              	.LBE291:
 2723              	.LBE290:
 2724              	.LBE292:
 319:Middlewares/lvgl/src/extra/layouts/grid/lv_grid.c ****     if(col_templ == NULL || row_templ == NULL) return;
 2725              		.loc 1 319 5 is_stmt 1 view .LVU910
 2726              	.LBB293:
 2727              	.LBI293:
  61:Middlewares/lvgl/src/extra/layouts/grid/lv_grid.c **** static inline uint8_t get_col_pos(lv_obj_t * obj) {return lv_obj_get_style_grid_cell_column_pos(obj
 2728              		.loc 1 61 34 view .LVU911
 2729              	.LBE293:
  61:Middlewares/lvgl/src/extra/layouts/grid/lv_grid.c **** static inline uint8_t get_col_pos(lv_obj_t * obj) {return lv_obj_get_style_grid_cell_column_pos(obj
ARM GAS  /tmp/cc1NzchT.s 			page 85


 2730              		.loc 1 61 63 view .LVU912
 2731              	.LBB296:
 2732              	.LBB294:
 2733              	.LBI294:
 121:Middlewares/lvgl/src/extra/layouts/grid/../grid/lv_grid.h **** {
 2734              		.loc 2 121 34 view .LVU913
 2735              	.LBB295:
 123:Middlewares/lvgl/src/extra/layouts/grid/../grid/lv_grid.h ****     return (const lv_coord_t *)v.ptr;
 2736              		.loc 2 123 5 view .LVU914
 123:Middlewares/lvgl/src/extra/layouts/grid/../grid/lv_grid.h ****     return (const lv_coord_t *)v.ptr;
 2737              		.loc 2 123 26 is_stmt 0 view .LVU915
 2738 0012 394B     		ldr	r3, .L141+4
 2739 0014 1A88     		ldrh	r2, [r3]
 2740 0016 0021     		movs	r1, #0
 2741 0018 2846     		mov	r0, r5
 2742              	.LVL328:
 123:Middlewares/lvgl/src/extra/layouts/grid/../grid/lv_grid.h ****     return (const lv_coord_t *)v.ptr;
 2743              		.loc 2 123 26 view .LVU916
 2744 001a FFF7FEFF 		bl	lv_obj_get_style_prop
 2745              	.LVL329:
 124:Middlewares/lvgl/src/extra/layouts/grid/../grid/lv_grid.h **** }
 2746              		.loc 2 124 5 is_stmt 1 view .LVU917
 124:Middlewares/lvgl/src/extra/layouts/grid/../grid/lv_grid.h **** }
 2747              		.loc 2 124 5 is_stmt 0 view .LVU918
 2748              	.LBE295:
 2749              	.LBE294:
 2750              	.LBE296:
 320:Middlewares/lvgl/src/extra/layouts/grid/lv_grid.c **** 
 2751              		.loc 1 320 5 is_stmt 1 view .LVU919
 320:Middlewares/lvgl/src/extra/layouts/grid/lv_grid.c **** 
 2752              		.loc 1 320 7 is_stmt 0 view .LVU920
 2753 001e 002C     		cmp	r4, #0
 2754 0020 61D0     		beq	.L132
 320:Middlewares/lvgl/src/extra/layouts/grid/lv_grid.c **** 
 2755              		.loc 1 320 26 discriminator 2 view .LVU921
 2756 0022 0028     		cmp	r0, #0
 2757 0024 5FD0     		beq	.L132
 322:Middlewares/lvgl/src/extra/layouts/grid/lv_grid.c ****     calc(cont, &c);
 2758              		.loc 1 322 5 is_stmt 1 view .LVU922
 323:Middlewares/lvgl/src/extra/layouts/grid/lv_grid.c **** 
 2759              		.loc 1 323 5 view .LVU923
 2760 0026 03A9     		add	r1, sp, #12
 2761 0028 2846     		mov	r0, r5
 2762              	.LVL330:
 323:Middlewares/lvgl/src/extra/layouts/grid/lv_grid.c **** 
 2763              		.loc 1 323 5 is_stmt 0 view .LVU924
 2764 002a FFF7FEFF 		bl	calc
 2765              	.LVL331:
 325:Middlewares/lvgl/src/extra/layouts/grid/lv_grid.c ****     lv_memset_00(&hint, sizeof(hint));
 2766              		.loc 1 325 5 is_stmt 1 view .LVU925
 326:Middlewares/lvgl/src/extra/layouts/grid/lv_grid.c **** 
 2767              		.loc 1 326 5 view .LVU926
 2768 002e 0C21     		movs	r1, #12
 2769 0030 6846     		mov	r0, sp
 2770 0032 FFF7FEFF 		bl	lv_memset_00
 2771              	.LVL332:
 330:Middlewares/lvgl/src/extra/layouts/grid/lv_grid.c ****     lv_coord_t pad_left = lv_obj_get_style_pad_left(cont, LV_PART_MAIN) + border_widt;
ARM GAS  /tmp/cc1NzchT.s 			page 86


 2772              		.loc 1 330 5 view .LVU927
 2773              	.LBB297:
 2774              	.LBI297:
 191:Middlewares/lvgl/src/extra/layouts/grid/../flex/../../../core/lv_obj_style_gen.h **** }
 192:Middlewares/lvgl/src/extra/layouts/grid/../flex/../../../core/lv_obj_style_gen.h **** 
 193:Middlewares/lvgl/src/extra/layouts/grid/../flex/../../../core/lv_obj_style_gen.h **** static inline lv_color_t lv_obj_get_style_bg_color(const struct _lv_obj_t * obj, uint32_t part)
 194:Middlewares/lvgl/src/extra/layouts/grid/../flex/../../../core/lv_obj_style_gen.h **** {
 195:Middlewares/lvgl/src/extra/layouts/grid/../flex/../../../core/lv_obj_style_gen.h ****     lv_style_value_t v = lv_obj_get_style_prop(obj, part, LV_STYLE_BG_COLOR);
 196:Middlewares/lvgl/src/extra/layouts/grid/../flex/../../../core/lv_obj_style_gen.h ****     return v.color;
 197:Middlewares/lvgl/src/extra/layouts/grid/../flex/../../../core/lv_obj_style_gen.h **** }
 198:Middlewares/lvgl/src/extra/layouts/grid/../flex/../../../core/lv_obj_style_gen.h **** 
 199:Middlewares/lvgl/src/extra/layouts/grid/../flex/../../../core/lv_obj_style_gen.h **** static inline lv_color_t lv_obj_get_style_bg_color_filtered(const struct _lv_obj_t * obj, uint32_t 
 200:Middlewares/lvgl/src/extra/layouts/grid/../flex/../../../core/lv_obj_style_gen.h **** {
 201:Middlewares/lvgl/src/extra/layouts/grid/../flex/../../../core/lv_obj_style_gen.h ****     lv_style_value_t v = lv_obj_get_style_prop(obj, part, LV_STYLE_BG_COLOR_FILTERED);
 202:Middlewares/lvgl/src/extra/layouts/grid/../flex/../../../core/lv_obj_style_gen.h ****     return v.color;
 203:Middlewares/lvgl/src/extra/layouts/grid/../flex/../../../core/lv_obj_style_gen.h **** }
 204:Middlewares/lvgl/src/extra/layouts/grid/../flex/../../../core/lv_obj_style_gen.h **** 
 205:Middlewares/lvgl/src/extra/layouts/grid/../flex/../../../core/lv_obj_style_gen.h **** static inline lv_opa_t lv_obj_get_style_bg_opa(const struct _lv_obj_t * obj, uint32_t part)
 206:Middlewares/lvgl/src/extra/layouts/grid/../flex/../../../core/lv_obj_style_gen.h **** {
 207:Middlewares/lvgl/src/extra/layouts/grid/../flex/../../../core/lv_obj_style_gen.h ****     lv_style_value_t v = lv_obj_get_style_prop(obj, part, LV_STYLE_BG_OPA);
 208:Middlewares/lvgl/src/extra/layouts/grid/../flex/../../../core/lv_obj_style_gen.h ****     return (lv_opa_t)v.num;
 209:Middlewares/lvgl/src/extra/layouts/grid/../flex/../../../core/lv_obj_style_gen.h **** }
 210:Middlewares/lvgl/src/extra/layouts/grid/../flex/../../../core/lv_obj_style_gen.h **** 
 211:Middlewares/lvgl/src/extra/layouts/grid/../flex/../../../core/lv_obj_style_gen.h **** static inline lv_color_t lv_obj_get_style_bg_grad_color(const struct _lv_obj_t * obj, uint32_t part
 212:Middlewares/lvgl/src/extra/layouts/grid/../flex/../../../core/lv_obj_style_gen.h **** {
 213:Middlewares/lvgl/src/extra/layouts/grid/../flex/../../../core/lv_obj_style_gen.h ****     lv_style_value_t v = lv_obj_get_style_prop(obj, part, LV_STYLE_BG_GRAD_COLOR);
 214:Middlewares/lvgl/src/extra/layouts/grid/../flex/../../../core/lv_obj_style_gen.h ****     return v.color;
 215:Middlewares/lvgl/src/extra/layouts/grid/../flex/../../../core/lv_obj_style_gen.h **** }
 216:Middlewares/lvgl/src/extra/layouts/grid/../flex/../../../core/lv_obj_style_gen.h **** 
 217:Middlewares/lvgl/src/extra/layouts/grid/../flex/../../../core/lv_obj_style_gen.h **** static inline lv_color_t lv_obj_get_style_bg_grad_color_filtered(const struct _lv_obj_t * obj, uint
 218:Middlewares/lvgl/src/extra/layouts/grid/../flex/../../../core/lv_obj_style_gen.h **** {
 219:Middlewares/lvgl/src/extra/layouts/grid/../flex/../../../core/lv_obj_style_gen.h ****     lv_style_value_t v = lv_obj_get_style_prop(obj, part, LV_STYLE_BG_GRAD_COLOR_FILTERED);
 220:Middlewares/lvgl/src/extra/layouts/grid/../flex/../../../core/lv_obj_style_gen.h ****     return v.color;
 221:Middlewares/lvgl/src/extra/layouts/grid/../flex/../../../core/lv_obj_style_gen.h **** }
 222:Middlewares/lvgl/src/extra/layouts/grid/../flex/../../../core/lv_obj_style_gen.h **** 
 223:Middlewares/lvgl/src/extra/layouts/grid/../flex/../../../core/lv_obj_style_gen.h **** static inline lv_grad_dir_t lv_obj_get_style_bg_grad_dir(const struct _lv_obj_t * obj, uint32_t par
 224:Middlewares/lvgl/src/extra/layouts/grid/../flex/../../../core/lv_obj_style_gen.h **** {
 225:Middlewares/lvgl/src/extra/layouts/grid/../flex/../../../core/lv_obj_style_gen.h ****     lv_style_value_t v = lv_obj_get_style_prop(obj, part, LV_STYLE_BG_GRAD_DIR);
 226:Middlewares/lvgl/src/extra/layouts/grid/../flex/../../../core/lv_obj_style_gen.h ****     return (lv_grad_dir_t)v.num;
 227:Middlewares/lvgl/src/extra/layouts/grid/../flex/../../../core/lv_obj_style_gen.h **** }
 228:Middlewares/lvgl/src/extra/layouts/grid/../flex/../../../core/lv_obj_style_gen.h **** 
 229:Middlewares/lvgl/src/extra/layouts/grid/../flex/../../../core/lv_obj_style_gen.h **** static inline lv_coord_t lv_obj_get_style_bg_main_stop(const struct _lv_obj_t * obj, uint32_t part)
 230:Middlewares/lvgl/src/extra/layouts/grid/../flex/../../../core/lv_obj_style_gen.h **** {
 231:Middlewares/lvgl/src/extra/layouts/grid/../flex/../../../core/lv_obj_style_gen.h ****     lv_style_value_t v = lv_obj_get_style_prop(obj, part, LV_STYLE_BG_MAIN_STOP);
 232:Middlewares/lvgl/src/extra/layouts/grid/../flex/../../../core/lv_obj_style_gen.h ****     return (lv_coord_t)v.num;
 233:Middlewares/lvgl/src/extra/layouts/grid/../flex/../../../core/lv_obj_style_gen.h **** }
 234:Middlewares/lvgl/src/extra/layouts/grid/../flex/../../../core/lv_obj_style_gen.h **** 
 235:Middlewares/lvgl/src/extra/layouts/grid/../flex/../../../core/lv_obj_style_gen.h **** static inline lv_coord_t lv_obj_get_style_bg_grad_stop(const struct _lv_obj_t * obj, uint32_t part)
 236:Middlewares/lvgl/src/extra/layouts/grid/../flex/../../../core/lv_obj_style_gen.h **** {
 237:Middlewares/lvgl/src/extra/layouts/grid/../flex/../../../core/lv_obj_style_gen.h ****     lv_style_value_t v = lv_obj_get_style_prop(obj, part, LV_STYLE_BG_GRAD_STOP);
 238:Middlewares/lvgl/src/extra/layouts/grid/../flex/../../../core/lv_obj_style_gen.h ****     return (lv_coord_t)v.num;
 239:Middlewares/lvgl/src/extra/layouts/grid/../flex/../../../core/lv_obj_style_gen.h **** }
 240:Middlewares/lvgl/src/extra/layouts/grid/../flex/../../../core/lv_obj_style_gen.h **** 
 241:Middlewares/lvgl/src/extra/layouts/grid/../flex/../../../core/lv_obj_style_gen.h **** static inline const void * lv_obj_get_style_bg_img_src(const struct _lv_obj_t * obj, uint32_t part)
 242:Middlewares/lvgl/src/extra/layouts/grid/../flex/../../../core/lv_obj_style_gen.h **** {
 243:Middlewares/lvgl/src/extra/layouts/grid/../flex/../../../core/lv_obj_style_gen.h ****     lv_style_value_t v = lv_obj_get_style_prop(obj, part, LV_STYLE_BG_IMG_SRC);
 244:Middlewares/lvgl/src/extra/layouts/grid/../flex/../../../core/lv_obj_style_gen.h ****     return (const void *)v.ptr;
ARM GAS  /tmp/cc1NzchT.s 			page 87


 245:Middlewares/lvgl/src/extra/layouts/grid/../flex/../../../core/lv_obj_style_gen.h **** }
 246:Middlewares/lvgl/src/extra/layouts/grid/../flex/../../../core/lv_obj_style_gen.h **** 
 247:Middlewares/lvgl/src/extra/layouts/grid/../flex/../../../core/lv_obj_style_gen.h **** static inline lv_opa_t lv_obj_get_style_bg_img_opa(const struct _lv_obj_t * obj, uint32_t part)
 248:Middlewares/lvgl/src/extra/layouts/grid/../flex/../../../core/lv_obj_style_gen.h **** {
 249:Middlewares/lvgl/src/extra/layouts/grid/../flex/../../../core/lv_obj_style_gen.h ****     lv_style_value_t v = lv_obj_get_style_prop(obj, part, LV_STYLE_BG_IMG_OPA);
 250:Middlewares/lvgl/src/extra/layouts/grid/../flex/../../../core/lv_obj_style_gen.h ****     return (lv_opa_t)v.num;
 251:Middlewares/lvgl/src/extra/layouts/grid/../flex/../../../core/lv_obj_style_gen.h **** }
 252:Middlewares/lvgl/src/extra/layouts/grid/../flex/../../../core/lv_obj_style_gen.h **** 
 253:Middlewares/lvgl/src/extra/layouts/grid/../flex/../../../core/lv_obj_style_gen.h **** static inline lv_color_t lv_obj_get_style_bg_img_recolor(const struct _lv_obj_t * obj, uint32_t par
 254:Middlewares/lvgl/src/extra/layouts/grid/../flex/../../../core/lv_obj_style_gen.h **** {
 255:Middlewares/lvgl/src/extra/layouts/grid/../flex/../../../core/lv_obj_style_gen.h ****     lv_style_value_t v = lv_obj_get_style_prop(obj, part, LV_STYLE_BG_IMG_RECOLOR);
 256:Middlewares/lvgl/src/extra/layouts/grid/../flex/../../../core/lv_obj_style_gen.h ****     return v.color;
 257:Middlewares/lvgl/src/extra/layouts/grid/../flex/../../../core/lv_obj_style_gen.h **** }
 258:Middlewares/lvgl/src/extra/layouts/grid/../flex/../../../core/lv_obj_style_gen.h **** 
 259:Middlewares/lvgl/src/extra/layouts/grid/../flex/../../../core/lv_obj_style_gen.h **** static inline lv_color_t lv_obj_get_style_bg_img_recolor_filtered(const struct _lv_obj_t * obj, uin
 260:Middlewares/lvgl/src/extra/layouts/grid/../flex/../../../core/lv_obj_style_gen.h **** {
 261:Middlewares/lvgl/src/extra/layouts/grid/../flex/../../../core/lv_obj_style_gen.h ****     lv_style_value_t v = lv_obj_get_style_prop(obj, part, LV_STYLE_BG_IMG_RECOLOR_FILTERED);
 262:Middlewares/lvgl/src/extra/layouts/grid/../flex/../../../core/lv_obj_style_gen.h ****     return v.color;
 263:Middlewares/lvgl/src/extra/layouts/grid/../flex/../../../core/lv_obj_style_gen.h **** }
 264:Middlewares/lvgl/src/extra/layouts/grid/../flex/../../../core/lv_obj_style_gen.h **** 
 265:Middlewares/lvgl/src/extra/layouts/grid/../flex/../../../core/lv_obj_style_gen.h **** static inline lv_opa_t lv_obj_get_style_bg_img_recolor_opa(const struct _lv_obj_t * obj, uint32_t p
 266:Middlewares/lvgl/src/extra/layouts/grid/../flex/../../../core/lv_obj_style_gen.h **** {
 267:Middlewares/lvgl/src/extra/layouts/grid/../flex/../../../core/lv_obj_style_gen.h ****     lv_style_value_t v = lv_obj_get_style_prop(obj, part, LV_STYLE_BG_IMG_RECOLOR_OPA);
 268:Middlewares/lvgl/src/extra/layouts/grid/../flex/../../../core/lv_obj_style_gen.h ****     return (lv_opa_t)v.num;
 269:Middlewares/lvgl/src/extra/layouts/grid/../flex/../../../core/lv_obj_style_gen.h **** }
 270:Middlewares/lvgl/src/extra/layouts/grid/../flex/../../../core/lv_obj_style_gen.h **** 
 271:Middlewares/lvgl/src/extra/layouts/grid/../flex/../../../core/lv_obj_style_gen.h **** static inline bool lv_obj_get_style_bg_img_tiled(const struct _lv_obj_t * obj, uint32_t part)
 272:Middlewares/lvgl/src/extra/layouts/grid/../flex/../../../core/lv_obj_style_gen.h **** {
 273:Middlewares/lvgl/src/extra/layouts/grid/../flex/../../../core/lv_obj_style_gen.h ****     lv_style_value_t v = lv_obj_get_style_prop(obj, part, LV_STYLE_BG_IMG_TILED);
 274:Middlewares/lvgl/src/extra/layouts/grid/../flex/../../../core/lv_obj_style_gen.h ****     return (bool)v.num;
 275:Middlewares/lvgl/src/extra/layouts/grid/../flex/../../../core/lv_obj_style_gen.h **** }
 276:Middlewares/lvgl/src/extra/layouts/grid/../flex/../../../core/lv_obj_style_gen.h **** 
 277:Middlewares/lvgl/src/extra/layouts/grid/../flex/../../../core/lv_obj_style_gen.h **** static inline lv_color_t lv_obj_get_style_border_color(const struct _lv_obj_t * obj, uint32_t part)
 278:Middlewares/lvgl/src/extra/layouts/grid/../flex/../../../core/lv_obj_style_gen.h **** {
 279:Middlewares/lvgl/src/extra/layouts/grid/../flex/../../../core/lv_obj_style_gen.h ****     lv_style_value_t v = lv_obj_get_style_prop(obj, part, LV_STYLE_BORDER_COLOR);
 280:Middlewares/lvgl/src/extra/layouts/grid/../flex/../../../core/lv_obj_style_gen.h ****     return v.color;
 281:Middlewares/lvgl/src/extra/layouts/grid/../flex/../../../core/lv_obj_style_gen.h **** }
 282:Middlewares/lvgl/src/extra/layouts/grid/../flex/../../../core/lv_obj_style_gen.h **** 
 283:Middlewares/lvgl/src/extra/layouts/grid/../flex/../../../core/lv_obj_style_gen.h **** static inline lv_color_t lv_obj_get_style_border_color_filtered(const struct _lv_obj_t * obj, uint3
 284:Middlewares/lvgl/src/extra/layouts/grid/../flex/../../../core/lv_obj_style_gen.h **** {
 285:Middlewares/lvgl/src/extra/layouts/grid/../flex/../../../core/lv_obj_style_gen.h ****     lv_style_value_t v = lv_obj_get_style_prop(obj, part, LV_STYLE_BORDER_COLOR_FILTERED);
 286:Middlewares/lvgl/src/extra/layouts/grid/../flex/../../../core/lv_obj_style_gen.h ****     return v.color;
 287:Middlewares/lvgl/src/extra/layouts/grid/../flex/../../../core/lv_obj_style_gen.h **** }
 288:Middlewares/lvgl/src/extra/layouts/grid/../flex/../../../core/lv_obj_style_gen.h **** 
 289:Middlewares/lvgl/src/extra/layouts/grid/../flex/../../../core/lv_obj_style_gen.h **** static inline lv_opa_t lv_obj_get_style_border_opa(const struct _lv_obj_t * obj, uint32_t part)
 290:Middlewares/lvgl/src/extra/layouts/grid/../flex/../../../core/lv_obj_style_gen.h **** {
 291:Middlewares/lvgl/src/extra/layouts/grid/../flex/../../../core/lv_obj_style_gen.h ****     lv_style_value_t v = lv_obj_get_style_prop(obj, part, LV_STYLE_BORDER_OPA);
 292:Middlewares/lvgl/src/extra/layouts/grid/../flex/../../../core/lv_obj_style_gen.h ****     return (lv_opa_t)v.num;
 293:Middlewares/lvgl/src/extra/layouts/grid/../flex/../../../core/lv_obj_style_gen.h **** }
 294:Middlewares/lvgl/src/extra/layouts/grid/../flex/../../../core/lv_obj_style_gen.h **** 
 295:Middlewares/lvgl/src/extra/layouts/grid/../flex/../../../core/lv_obj_style_gen.h **** static inline lv_coord_t lv_obj_get_style_border_width(const struct _lv_obj_t * obj, uint32_t part)
 2775              		.loc 3 295 26 view .LVU928
 2776              	.LBB298:
 296:Middlewares/lvgl/src/extra/layouts/grid/../flex/../../../core/lv_obj_style_gen.h **** {
 297:Middlewares/lvgl/src/extra/layouts/grid/../flex/../../../core/lv_obj_style_gen.h ****     lv_style_value_t v = lv_obj_get_style_prop(obj, part, LV_STYLE_BORDER_WIDTH);
 2777              		.loc 3 297 5 view .LVU929
 2778              		.loc 3 297 26 is_stmt 0 view .LVU930
ARM GAS  /tmp/cc1NzchT.s 			page 88


 2779 0036 41F23202 		movw	r2, #4146
 2780 003a 0021     		movs	r1, #0
 2781 003c 2846     		mov	r0, r5
 2782 003e FFF7FEFF 		bl	lv_obj_get_style_prop
 2783              	.LVL333:
 2784 0042 0646     		mov	r6, r0
 2785              	.LVL334:
 298:Middlewares/lvgl/src/extra/layouts/grid/../flex/../../../core/lv_obj_style_gen.h ****     return (lv_coord_t)v.num;
 2786              		.loc 3 298 5 is_stmt 1 view .LVU931
 2787              		.loc 3 298 5 is_stmt 0 view .LVU932
 2788              	.LBE298:
 2789              	.LBE297:
 331:Middlewares/lvgl/src/extra/layouts/grid/lv_grid.c ****     lv_coord_t pad_top = lv_obj_get_style_pad_top(cont, LV_PART_MAIN) + border_widt;
 2790              		.loc 1 331 5 is_stmt 1 view .LVU933
 2791              	.LBB299:
 2792              	.LBI299:
 103:Middlewares/lvgl/src/extra/layouts/grid/../flex/../../../core/lv_obj_style_gen.h **** {
 2793              		.loc 3 103 26 view .LVU934
 2794              	.LBB300:
 105:Middlewares/lvgl/src/extra/layouts/grid/../flex/../../../core/lv_obj_style_gen.h ****     return (lv_coord_t)v.num;
 2795              		.loc 3 105 5 view .LVU935
 105:Middlewares/lvgl/src/extra/layouts/grid/../flex/../../../core/lv_obj_style_gen.h ****     return (lv_coord_t)v.num;
 2796              		.loc 3 105 26 is_stmt 0 view .LVU936
 2797 0044 41F21202 		movw	r2, #4114
 2798 0048 0021     		movs	r1, #0
 2799 004a 2846     		mov	r0, r5
 2800 004c FFF7FEFF 		bl	lv_obj_get_style_prop
 2801              	.LVL335:
 106:Middlewares/lvgl/src/extra/layouts/grid/../flex/../../../core/lv_obj_style_gen.h **** }
 2802              		.loc 3 106 5 is_stmt 1 view .LVU937
 106:Middlewares/lvgl/src/extra/layouts/grid/../flex/../../../core/lv_obj_style_gen.h **** }
 2803              		.loc 3 106 5 is_stmt 0 view .LVU938
 2804              	.LBE300:
 2805              	.LBE299:
 331:Middlewares/lvgl/src/extra/layouts/grid/lv_grid.c ****     lv_coord_t pad_top = lv_obj_get_style_pad_top(cont, LV_PART_MAIN) + border_widt;
 2806              		.loc 1 331 27 view .LVU939
 2807 0050 84B2     		uxth	r4, r0
 2808              	.LVL336:
 331:Middlewares/lvgl/src/extra/layouts/grid/lv_grid.c ****     lv_coord_t pad_top = lv_obj_get_style_pad_top(cont, LV_PART_MAIN) + border_widt;
 2809              		.loc 1 331 73 view .LVU940
 2810 0052 B6B2     		uxth	r6, r6
 331:Middlewares/lvgl/src/extra/layouts/grid/lv_grid.c ****     lv_coord_t pad_top = lv_obj_get_style_pad_top(cont, LV_PART_MAIN) + border_widt;
 2811              		.loc 1 331 73 view .LVU941
 2812 0054 3444     		add	r4, r4, r6
 2813 0056 A4B2     		uxth	r4, r4
 2814              	.LVL337:
 332:Middlewares/lvgl/src/extra/layouts/grid/lv_grid.c ****     hint.grid_abs.x = pad_left + cont->coords.x1 - lv_obj_get_scroll_x(cont);
 2815              		.loc 1 332 5 is_stmt 1 view .LVU942
 2816              	.LBB301:
 2817              	.LBI301:
  91:Middlewares/lvgl/src/extra/layouts/grid/../flex/../../../core/lv_obj_style_gen.h **** {
 2818              		.loc 3 91 26 view .LVU943
 2819              	.LBB302:
  93:Middlewares/lvgl/src/extra/layouts/grid/../flex/../../../core/lv_obj_style_gen.h ****     return (lv_coord_t)v.num;
 2820              		.loc 3 93 5 view .LVU944
  93:Middlewares/lvgl/src/extra/layouts/grid/../flex/../../../core/lv_obj_style_gen.h ****     return (lv_coord_t)v.num;
 2821              		.loc 3 93 26 is_stmt 0 view .LVU945
ARM GAS  /tmp/cc1NzchT.s 			page 89


 2822 0058 41F21002 		movw	r2, #4112
 2823 005c 0021     		movs	r1, #0
 2824 005e 2846     		mov	r0, r5
 2825 0060 FFF7FEFF 		bl	lv_obj_get_style_prop
 2826              	.LVL338:
  94:Middlewares/lvgl/src/extra/layouts/grid/../flex/../../../core/lv_obj_style_gen.h **** }
 2827              		.loc 3 94 5 is_stmt 1 view .LVU946
  94:Middlewares/lvgl/src/extra/layouts/grid/../flex/../../../core/lv_obj_style_gen.h **** }
 2828              		.loc 3 94 5 is_stmt 0 view .LVU947
 2829              	.LBE302:
 2830              	.LBE301:
 332:Middlewares/lvgl/src/extra/layouts/grid/lv_grid.c ****     hint.grid_abs.x = pad_left + cont->coords.x1 - lv_obj_get_scroll_x(cont);
 2831              		.loc 1 332 26 view .LVU948
 2832 0064 80B2     		uxth	r0, r0
 332:Middlewares/lvgl/src/extra/layouts/grid/lv_grid.c ****     hint.grid_abs.x = pad_left + cont->coords.x1 - lv_obj_get_scroll_x(cont);
 2833              		.loc 1 332 71 view .LVU949
 2834 0066 0644     		add	r6, r6, r0
 2835              	.LVL339:
 332:Middlewares/lvgl/src/extra/layouts/grid/lv_grid.c ****     hint.grid_abs.x = pad_left + cont->coords.x1 - lv_obj_get_scroll_x(cont);
 2836              		.loc 1 332 71 view .LVU950
 2837 0068 B6B2     		uxth	r6, r6
 2838              	.LVL340:
 333:Middlewares/lvgl/src/extra/layouts/grid/lv_grid.c ****     hint.grid_abs.y = pad_top + cont->coords.y1 - lv_obj_get_scroll_y(cont);
 2839              		.loc 1 333 5 is_stmt 1 view .LVU951
 333:Middlewares/lvgl/src/extra/layouts/grid/lv_grid.c ****     hint.grid_abs.y = pad_top + cont->coords.y1 - lv_obj_get_scroll_y(cont);
 2840              		.loc 1 333 46 is_stmt 0 view .LVU952
 2841 006a AB8A     		ldrh	r3, [r5, #20]
 333:Middlewares/lvgl/src/extra/layouts/grid/lv_grid.c ****     hint.grid_abs.y = pad_top + cont->coords.y1 - lv_obj_get_scroll_y(cont);
 2842              		.loc 1 333 32 view .LVU953
 2843 006c 1C44     		add	r4, r4, r3
 2844              	.LVL341:
 333:Middlewares/lvgl/src/extra/layouts/grid/lv_grid.c ****     hint.grid_abs.y = pad_top + cont->coords.y1 - lv_obj_get_scroll_y(cont);
 2845              		.loc 1 333 32 view .LVU954
 2846 006e A4B2     		uxth	r4, r4
 333:Middlewares/lvgl/src/extra/layouts/grid/lv_grid.c ****     hint.grid_abs.y = pad_top + cont->coords.y1 - lv_obj_get_scroll_y(cont);
 2847              		.loc 1 333 52 view .LVU955
 2848 0070 2846     		mov	r0, r5
 2849 0072 FFF7FEFF 		bl	lv_obj_get_scroll_x
 2850              	.LVL342:
 2851 0076 80B2     		uxth	r0, r0
 333:Middlewares/lvgl/src/extra/layouts/grid/lv_grid.c ****     hint.grid_abs.y = pad_top + cont->coords.y1 - lv_obj_get_scroll_y(cont);
 2852              		.loc 1 333 50 view .LVU956
 2853 0078 241A     		subs	r4, r4, r0
 333:Middlewares/lvgl/src/extra/layouts/grid/lv_grid.c ****     hint.grid_abs.y = pad_top + cont->coords.y1 - lv_obj_get_scroll_y(cont);
 2854              		.loc 1 333 21 view .LVU957
 2855 007a ADF80840 		strh	r4, [sp, #8]	@ movhi
 334:Middlewares/lvgl/src/extra/layouts/grid/lv_grid.c **** 
 2856              		.loc 1 334 5 is_stmt 1 view .LVU958
 334:Middlewares/lvgl/src/extra/layouts/grid/lv_grid.c **** 
 2857              		.loc 1 334 45 is_stmt 0 view .LVU959
 2858 007e EB8A     		ldrh	r3, [r5, #22]
 334:Middlewares/lvgl/src/extra/layouts/grid/lv_grid.c **** 
 2859              		.loc 1 334 31 view .LVU960
 2860 0080 1E44     		add	r6, r6, r3
 2861              	.LVL343:
 334:Middlewares/lvgl/src/extra/layouts/grid/lv_grid.c **** 
 2862              		.loc 1 334 31 view .LVU961
ARM GAS  /tmp/cc1NzchT.s 			page 90


 2863 0082 B6B2     		uxth	r6, r6
 334:Middlewares/lvgl/src/extra/layouts/grid/lv_grid.c **** 
 2864              		.loc 1 334 51 view .LVU962
 2865 0084 2846     		mov	r0, r5
 2866 0086 FFF7FEFF 		bl	lv_obj_get_scroll_y
 2867              	.LVL344:
 2868 008a 80B2     		uxth	r0, r0
 334:Middlewares/lvgl/src/extra/layouts/grid/lv_grid.c **** 
 2869              		.loc 1 334 49 view .LVU963
 2870 008c 361A     		subs	r6, r6, r0
 334:Middlewares/lvgl/src/extra/layouts/grid/lv_grid.c **** 
 2871              		.loc 1 334 21 view .LVU964
 2872 008e ADF80A60 		strh	r6, [sp, #10]	@ movhi
 336:Middlewares/lvgl/src/extra/layouts/grid/lv_grid.c ****     for(i = 0; i < cont->spec_attr->child_cnt; i++) {
 2873              		.loc 1 336 5 is_stmt 1 view .LVU965
 337:Middlewares/lvgl/src/extra/layouts/grid/lv_grid.c ****         lv_obj_t * item = cont->spec_attr->children[i];
 2874              		.loc 1 337 5 view .LVU966
 2875              	.LVL345:
 337:Middlewares/lvgl/src/extra/layouts/grid/lv_grid.c ****         lv_obj_t * item = cont->spec_attr->children[i];
 2876              		.loc 1 337 11 is_stmt 0 view .LVU967
 2877 0092 0024     		movs	r4, #0
 337:Middlewares/lvgl/src/extra/layouts/grid/lv_grid.c ****         lv_obj_t * item = cont->spec_attr->children[i];
 2878              		.loc 1 337 5 view .LVU968
 2879 0094 07E0     		b	.L136
 2880              	.LVL346:
 2881              	.L137:
 2882              	.LBB303:
 338:Middlewares/lvgl/src/extra/layouts/grid/lv_grid.c ****         item_repos(item, &c, &hint);
 2883              		.loc 1 338 9 is_stmt 1 discriminator 3 view .LVU969
 338:Middlewares/lvgl/src/extra/layouts/grid/lv_grid.c ****         item_repos(item, &c, &hint);
 2884              		.loc 1 338 42 is_stmt 0 discriminator 3 view .LVU970
 2885 0096 1B68     		ldr	r3, [r3]
 2886              	.LVL347:
 339:Middlewares/lvgl/src/extra/layouts/grid/lv_grid.c ****     }
 2887              		.loc 1 339 9 is_stmt 1 discriminator 3 view .LVU971
 2888 0098 6A46     		mov	r2, sp
 2889 009a 03A9     		add	r1, sp, #12
 2890 009c 53F82400 		ldr	r0, [r3, r4, lsl #2]
 2891 00a0 FFF7FEFF 		bl	item_repos
 2892              	.LVL348:
 339:Middlewares/lvgl/src/extra/layouts/grid/lv_grid.c ****     }
 2893              		.loc 1 339 9 is_stmt 0 discriminator 3 view .LVU972
 2894              	.LBE303:
 337:Middlewares/lvgl/src/extra/layouts/grid/lv_grid.c ****         lv_obj_t * item = cont->spec_attr->children[i];
 2895              		.loc 1 337 48 is_stmt 1 discriminator 3 view .LVU973
 337:Middlewares/lvgl/src/extra/layouts/grid/lv_grid.c ****         lv_obj_t * item = cont->spec_attr->children[i];
 2896              		.loc 1 337 49 is_stmt 0 discriminator 3 view .LVU974
 2897 00a4 0134     		adds	r4, r4, #1
 2898              	.LVL349:
 2899              	.L136:
 337:Middlewares/lvgl/src/extra/layouts/grid/lv_grid.c ****         lv_obj_t * item = cont->spec_attr->children[i];
 2900              		.loc 1 337 16 is_stmt 1 discriminator 1 view .LVU975
 337:Middlewares/lvgl/src/extra/layouts/grid/lv_grid.c ****         lv_obj_t * item = cont->spec_attr->children[i];
 2901              		.loc 1 337 24 is_stmt 0 discriminator 1 view .LVU976
 2902 00a6 AB68     		ldr	r3, [r5, #8]
 337:Middlewares/lvgl/src/extra/layouts/grid/lv_grid.c ****         lv_obj_t * item = cont->spec_attr->children[i];
 2903              		.loc 1 337 35 discriminator 1 view .LVU977
ARM GAS  /tmp/cc1NzchT.s 			page 91


 2904 00a8 5A68     		ldr	r2, [r3, #4]
 337:Middlewares/lvgl/src/extra/layouts/grid/lv_grid.c ****         lv_obj_t * item = cont->spec_attr->children[i];
 2905              		.loc 1 337 5 discriminator 1 view .LVU978
 2906 00aa A242     		cmp	r2, r4
 2907 00ac F3D8     		bhi	.L137
 341:Middlewares/lvgl/src/extra/layouts/grid/lv_grid.c **** 
 2908              		.loc 1 341 5 is_stmt 1 view .LVU979
 2909 00ae 03A8     		add	r0, sp, #12
 2910 00b0 FFF7FEFF 		bl	calc_free
 2911              	.LVL350:
 343:Middlewares/lvgl/src/extra/layouts/grid/lv_grid.c ****     lv_coord_t h_set = lv_obj_get_style_height(cont, LV_PART_MAIN);
 2912              		.loc 1 343 5 view .LVU980
 2913              	.LBB304:
 2914              	.LBI304:
   1:Middlewares/lvgl/src/extra/layouts/grid/../flex/../../../core/lv_obj_style_gen.h **** {
 2915              		.loc 3 1 26 view .LVU981
 2916              	.LBB305:
   3:Middlewares/lvgl/src/extra/layouts/grid/../flex/../../../core/lv_obj_style_gen.h ****     return (lv_coord_t)v.num;
 2917              		.loc 3 3 5 view .LVU982
   3:Middlewares/lvgl/src/extra/layouts/grid/../flex/../../../core/lv_obj_style_gen.h ****     return (lv_coord_t)v.num;
 2918              		.loc 3 3 26 is_stmt 0 view .LVU983
 2919 00b4 41F20102 		movw	r2, #4097
 2920 00b8 0021     		movs	r1, #0
 2921 00ba 2846     		mov	r0, r5
 2922 00bc FFF7FEFF 		bl	lv_obj_get_style_prop
 2923              	.LVL351:
   4:Middlewares/lvgl/src/extra/layouts/grid/../flex/../../../core/lv_obj_style_gen.h **** }
 2924              		.loc 3 4 5 is_stmt 1 view .LVU984
   4:Middlewares/lvgl/src/extra/layouts/grid/../flex/../../../core/lv_obj_style_gen.h **** }
 2925              		.loc 3 4 12 is_stmt 0 view .LVU985
 2926 00c0 04B2     		sxth	r4, r0
 2927              	.LVL352:
   4:Middlewares/lvgl/src/extra/layouts/grid/../flex/../../../core/lv_obj_style_gen.h **** }
 2928              		.loc 3 4 12 view .LVU986
 2929              	.LBE305:
 2930              	.LBE304:
 344:Middlewares/lvgl/src/extra/layouts/grid/lv_grid.c ****     if(w_set == LV_SIZE_CONTENT || h_set == LV_SIZE_CONTENT) {
 2931              		.loc 1 344 5 is_stmt 1 view .LVU987
 2932              	.LBB306:
 2933              	.LBI306:
  19:Middlewares/lvgl/src/extra/layouts/grid/../flex/../../../core/lv_obj_style_gen.h **** {
 2934              		.loc 3 19 26 view .LVU988
 2935              	.LBB307:
  21:Middlewares/lvgl/src/extra/layouts/grid/../flex/../../../core/lv_obj_style_gen.h ****     return (lv_coord_t)v.num;
 2936              		.loc 3 21 5 view .LVU989
  21:Middlewares/lvgl/src/extra/layouts/grid/../flex/../../../core/lv_obj_style_gen.h ****     return (lv_coord_t)v.num;
 2937              		.loc 3 21 26 is_stmt 0 view .LVU990
 2938 00c2 41F20402 		movw	r2, #4100
 2939 00c6 0021     		movs	r1, #0
 2940 00c8 2846     		mov	r0, r5
 2941 00ca FFF7FEFF 		bl	lv_obj_get_style_prop
 2942              	.LVL353:
  22:Middlewares/lvgl/src/extra/layouts/grid/../flex/../../../core/lv_obj_style_gen.h **** }
 2943              		.loc 3 22 5 is_stmt 1 view .LVU991
  22:Middlewares/lvgl/src/extra/layouts/grid/../flex/../../../core/lv_obj_style_gen.h **** }
 2944              		.loc 3 22 12 is_stmt 0 view .LVU992
 2945 00ce 00B2     		sxth	r0, r0
ARM GAS  /tmp/cc1NzchT.s 			page 92


 2946              	.LVL354:
  22:Middlewares/lvgl/src/extra/layouts/grid/../flex/../../../core/lv_obj_style_gen.h **** }
 2947              		.loc 3 22 12 view .LVU993
 2948              	.LBE307:
 2949              	.LBE306:
 345:Middlewares/lvgl/src/extra/layouts/grid/lv_grid.c ****         lv_obj_refr_size(cont);
 2950              		.loc 1 345 5 is_stmt 1 view .LVU994
 345:Middlewares/lvgl/src/extra/layouts/grid/lv_grid.c ****         lv_obj_refr_size(cont);
 2951              		.loc 1 345 7 is_stmt 0 view .LVU995
 2952 00d0 42F2D173 		movw	r3, #10193
 2953 00d4 9C42     		cmp	r4, r3
 2954 00d6 08D0     		beq	.L138
 345:Middlewares/lvgl/src/extra/layouts/grid/lv_grid.c ****         lv_obj_refr_size(cont);
 2955              		.loc 1 345 33 discriminator 1 view .LVU996
 2956 00d8 9842     		cmp	r0, r3
 2957 00da 06D0     		beq	.L138
 2958              	.LVL355:
 2959              	.L139:
 349:Middlewares/lvgl/src/extra/layouts/grid/lv_grid.c **** 
 2960              		.loc 1 349 5 is_stmt 1 view .LVU997
 2961 00dc 0022     		movs	r2, #0
 2962 00de 2521     		movs	r1, #37
 2963 00e0 2846     		mov	r0, r5
 2964 00e2 FFF7FEFF 		bl	lv_event_send
 2965              	.LVL356:
 351:Middlewares/lvgl/src/extra/layouts/grid/lv_grid.c **** }
 2966              		.loc 1 351 32 view .LVU998
 2967              	.L132:
 352:Middlewares/lvgl/src/extra/layouts/grid/lv_grid.c **** 
 2968              		.loc 1 352 1 is_stmt 0 view .LVU999
 2969 00e6 0AB0     		add	sp, sp, #40
 2970              	.LCFI16:
 2971              		.cfi_remember_state
 2972              		.cfi_def_cfa_offset 16
 2973              		@ sp needed
 2974 00e8 70BD     		pop	{r4, r5, r6, pc}
 2975              	.LVL357:
 2976              	.L138:
 2977              	.LCFI17:
 2978              		.cfi_restore_state
 346:Middlewares/lvgl/src/extra/layouts/grid/lv_grid.c ****     }
 2979              		.loc 1 346 9 is_stmt 1 view .LVU1000
 2980 00ea 2846     		mov	r0, r5
 2981              	.LVL358:
 346:Middlewares/lvgl/src/extra/layouts/grid/lv_grid.c ****     }
 2982              		.loc 1 346 9 is_stmt 0 view .LVU1001
 2983 00ec FFF7FEFF 		bl	lv_obj_refr_size
 2984              	.LVL359:
 2985 00f0 F4E7     		b	.L139
 2986              	.L142:
 2987 00f2 00BF     		.align	2
 2988              	.L141:
 2989 00f4 00000000 		.word	.LANCHOR7
 2990 00f8 00000000 		.word	.LANCHOR6
 2991              		.cfi_endproc
 2992              	.LFE197:
 2994              		.section	.text.lv_grid_init,"ax",%progbits
ARM GAS  /tmp/cc1NzchT.s 			page 93


 2995              		.align	1
 2996              		.global	lv_grid_init
 2997              		.syntax unified
 2998              		.thumb
 2999              		.thumb_func
 3000              		.fpu softvfp
 3002              	lv_grid_init:
 3003              	.LFB173:
 100:Middlewares/lvgl/src/extra/layouts/grid/lv_grid.c ****     LV_LAYOUT_GRID = lv_layout_register(grid_update, NULL);
 3004              		.loc 1 100 1 is_stmt 1 view -0
 3005              		.cfi_startproc
 3006              		@ args = 0, pretend = 0, frame = 0
 3007              		@ frame_needed = 0, uses_anonymous_args = 0
 3008 0000 08B5     		push	{r3, lr}
 3009              	.LCFI18:
 3010              		.cfi_def_cfa_offset 8
 3011              		.cfi_offset 3, -8
 3012              		.cfi_offset 14, -4
 101:Middlewares/lvgl/src/extra/layouts/grid/lv_grid.c **** 
 3013              		.loc 1 101 5 view .LVU1003
 101:Middlewares/lvgl/src/extra/layouts/grid/lv_grid.c **** 
 3014              		.loc 1 101 22 is_stmt 0 view .LVU1004
 3015 0002 0021     		movs	r1, #0
 3016 0004 2048     		ldr	r0, .L145
 3017 0006 FFF7FEFF 		bl	lv_layout_register
 3018              	.LVL360:
 101:Middlewares/lvgl/src/extra/layouts/grid/lv_grid.c **** 
 3019              		.loc 1 101 20 view .LVU1005
 3020 000a 204B     		ldr	r3, .L145+4
 3021 000c 1860     		str	r0, [r3]
 103:Middlewares/lvgl/src/extra/layouts/grid/lv_grid.c ****     LV_STYLE_GRID_ROW_DSC_ARRAY = lv_style_register_prop() | LV_STYLE_PROP_LAYOUT_REFR;
 3022              		.loc 1 103 5 is_stmt 1 view .LVU1006
 103:Middlewares/lvgl/src/extra/layouts/grid/lv_grid.c ****     LV_STYLE_GRID_ROW_DSC_ARRAY = lv_style_register_prop() | LV_STYLE_PROP_LAYOUT_REFR;
 3023              		.loc 1 103 38 is_stmt 0 view .LVU1007
 3024 000e FFF7FEFF 		bl	lv_style_register_prop
 3025              	.LVL361:
 103:Middlewares/lvgl/src/extra/layouts/grid/lv_grid.c ****     LV_STYLE_GRID_ROW_DSC_ARRAY = lv_style_register_prop() | LV_STYLE_PROP_LAYOUT_REFR;
 3026              		.loc 1 103 36 view .LVU1008
 3027 0012 40F48050 		orr	r0, r0, #4096
 3028 0016 1E4B     		ldr	r3, .L145+8
 3029 0018 1880     		strh	r0, [r3]	@ movhi
 104:Middlewares/lvgl/src/extra/layouts/grid/lv_grid.c ****     LV_STYLE_GRID_COLUMN_ALIGN = lv_style_register_prop() | LV_STYLE_PROP_LAYOUT_REFR;
 3030              		.loc 1 104 5 is_stmt 1 view .LVU1009
 104:Middlewares/lvgl/src/extra/layouts/grid/lv_grid.c ****     LV_STYLE_GRID_COLUMN_ALIGN = lv_style_register_prop() | LV_STYLE_PROP_LAYOUT_REFR;
 3031              		.loc 1 104 35 is_stmt 0 view .LVU1010
 3032 001a FFF7FEFF 		bl	lv_style_register_prop
 3033              	.LVL362:
 104:Middlewares/lvgl/src/extra/layouts/grid/lv_grid.c ****     LV_STYLE_GRID_COLUMN_ALIGN = lv_style_register_prop() | LV_STYLE_PROP_LAYOUT_REFR;
 3034              		.loc 1 104 33 view .LVU1011
 3035 001e 40F48050 		orr	r0, r0, #4096
 3036 0022 1C4B     		ldr	r3, .L145+12
 3037 0024 1880     		strh	r0, [r3]	@ movhi
 105:Middlewares/lvgl/src/extra/layouts/grid/lv_grid.c ****     LV_STYLE_GRID_ROW_ALIGN = lv_style_register_prop() | LV_STYLE_PROP_LAYOUT_REFR;
 3038              		.loc 1 105 5 is_stmt 1 view .LVU1012
 105:Middlewares/lvgl/src/extra/layouts/grid/lv_grid.c ****     LV_STYLE_GRID_ROW_ALIGN = lv_style_register_prop() | LV_STYLE_PROP_LAYOUT_REFR;
 3039              		.loc 1 105 34 is_stmt 0 view .LVU1013
 3040 0026 FFF7FEFF 		bl	lv_style_register_prop
ARM GAS  /tmp/cc1NzchT.s 			page 94


 3041              	.LVL363:
 105:Middlewares/lvgl/src/extra/layouts/grid/lv_grid.c ****     LV_STYLE_GRID_ROW_ALIGN = lv_style_register_prop() | LV_STYLE_PROP_LAYOUT_REFR;
 3042              		.loc 1 105 32 view .LVU1014
 3043 002a 40F48050 		orr	r0, r0, #4096
 3044 002e 1A4B     		ldr	r3, .L145+16
 3045 0030 1880     		strh	r0, [r3]	@ movhi
 106:Middlewares/lvgl/src/extra/layouts/grid/lv_grid.c **** 
 3046              		.loc 1 106 5 is_stmt 1 view .LVU1015
 106:Middlewares/lvgl/src/extra/layouts/grid/lv_grid.c **** 
 3047              		.loc 1 106 31 is_stmt 0 view .LVU1016
 3048 0032 FFF7FEFF 		bl	lv_style_register_prop
 3049              	.LVL364:
 106:Middlewares/lvgl/src/extra/layouts/grid/lv_grid.c **** 
 3050              		.loc 1 106 29 view .LVU1017
 3051 0036 40F48050 		orr	r0, r0, #4096
 3052 003a 184B     		ldr	r3, .L145+20
 3053 003c 1880     		strh	r0, [r3]	@ movhi
 108:Middlewares/lvgl/src/extra/layouts/grid/lv_grid.c ****     LV_STYLE_GRID_CELL_ROW_POS = lv_style_register_prop() | LV_STYLE_PROP_LAYOUT_REFR;
 3054              		.loc 1 108 5 is_stmt 1 view .LVU1018
 108:Middlewares/lvgl/src/extra/layouts/grid/lv_grid.c ****     LV_STYLE_GRID_CELL_ROW_POS = lv_style_register_prop() | LV_STYLE_PROP_LAYOUT_REFR;
 3055              		.loc 1 108 35 is_stmt 0 view .LVU1019
 3056 003e FFF7FEFF 		bl	lv_style_register_prop
 3057              	.LVL365:
 108:Middlewares/lvgl/src/extra/layouts/grid/lv_grid.c ****     LV_STYLE_GRID_CELL_ROW_POS = lv_style_register_prop() | LV_STYLE_PROP_LAYOUT_REFR;
 3058              		.loc 1 108 33 view .LVU1020
 3059 0042 40F48050 		orr	r0, r0, #4096
 3060 0046 164B     		ldr	r3, .L145+24
 3061 0048 1880     		strh	r0, [r3]	@ movhi
 109:Middlewares/lvgl/src/extra/layouts/grid/lv_grid.c ****     LV_STYLE_GRID_CELL_COLUMN_SPAN = lv_style_register_prop() | LV_STYLE_PROP_LAYOUT_REFR;
 3062              		.loc 1 109 5 is_stmt 1 view .LVU1021
 109:Middlewares/lvgl/src/extra/layouts/grid/lv_grid.c ****     LV_STYLE_GRID_CELL_COLUMN_SPAN = lv_style_register_prop() | LV_STYLE_PROP_LAYOUT_REFR;
 3063              		.loc 1 109 34 is_stmt 0 view .LVU1022
 3064 004a FFF7FEFF 		bl	lv_style_register_prop
 3065              	.LVL366:
 109:Middlewares/lvgl/src/extra/layouts/grid/lv_grid.c ****     LV_STYLE_GRID_CELL_COLUMN_SPAN = lv_style_register_prop() | LV_STYLE_PROP_LAYOUT_REFR;
 3066              		.loc 1 109 32 view .LVU1023
 3067 004e 40F48050 		orr	r0, r0, #4096
 3068 0052 144B     		ldr	r3, .L145+28
 3069 0054 1880     		strh	r0, [r3]	@ movhi
 110:Middlewares/lvgl/src/extra/layouts/grid/lv_grid.c ****     LV_STYLE_GRID_CELL_COLUMN_POS = lv_style_register_prop() | LV_STYLE_PROP_LAYOUT_REFR;
 3070              		.loc 1 110 5 is_stmt 1 view .LVU1024
 110:Middlewares/lvgl/src/extra/layouts/grid/lv_grid.c ****     LV_STYLE_GRID_CELL_COLUMN_POS = lv_style_register_prop() | LV_STYLE_PROP_LAYOUT_REFR;
 3071              		.loc 1 110 38 is_stmt 0 view .LVU1025
 3072 0056 FFF7FEFF 		bl	lv_style_register_prop
 3073              	.LVL367:
 110:Middlewares/lvgl/src/extra/layouts/grid/lv_grid.c ****     LV_STYLE_GRID_CELL_COLUMN_POS = lv_style_register_prop() | LV_STYLE_PROP_LAYOUT_REFR;
 3074              		.loc 1 110 36 view .LVU1026
 3075 005a 40F48050 		orr	r0, r0, #4096
 3076 005e 124B     		ldr	r3, .L145+32
 3077 0060 1880     		strh	r0, [r3]	@ movhi
 111:Middlewares/lvgl/src/extra/layouts/grid/lv_grid.c ****     LV_STYLE_GRID_CELL_X_ALIGN = lv_style_register_prop() | LV_STYLE_PROP_LAYOUT_REFR;
 3078              		.loc 1 111 5 is_stmt 1 view .LVU1027
 111:Middlewares/lvgl/src/extra/layouts/grid/lv_grid.c ****     LV_STYLE_GRID_CELL_X_ALIGN = lv_style_register_prop() | LV_STYLE_PROP_LAYOUT_REFR;
 3079              		.loc 1 111 37 is_stmt 0 view .LVU1028
 3080 0062 FFF7FEFF 		bl	lv_style_register_prop
 3081              	.LVL368:
 111:Middlewares/lvgl/src/extra/layouts/grid/lv_grid.c ****     LV_STYLE_GRID_CELL_X_ALIGN = lv_style_register_prop() | LV_STYLE_PROP_LAYOUT_REFR;
ARM GAS  /tmp/cc1NzchT.s 			page 95


 3082              		.loc 1 111 35 view .LVU1029
 3083 0066 40F48050 		orr	r0, r0, #4096
 3084 006a 104B     		ldr	r3, .L145+36
 3085 006c 1880     		strh	r0, [r3]	@ movhi
 112:Middlewares/lvgl/src/extra/layouts/grid/lv_grid.c ****     LV_STYLE_GRID_CELL_Y_ALIGN = lv_style_register_prop() | LV_STYLE_PROP_LAYOUT_REFR;
 3086              		.loc 1 112 5 is_stmt 1 view .LVU1030
 112:Middlewares/lvgl/src/extra/layouts/grid/lv_grid.c ****     LV_STYLE_GRID_CELL_Y_ALIGN = lv_style_register_prop() | LV_STYLE_PROP_LAYOUT_REFR;
 3087              		.loc 1 112 34 is_stmt 0 view .LVU1031
 3088 006e FFF7FEFF 		bl	lv_style_register_prop
 3089              	.LVL369:
 112:Middlewares/lvgl/src/extra/layouts/grid/lv_grid.c ****     LV_STYLE_GRID_CELL_Y_ALIGN = lv_style_register_prop() | LV_STYLE_PROP_LAYOUT_REFR;
 3090              		.loc 1 112 32 view .LVU1032
 3091 0072 40F48050 		orr	r0, r0, #4096
 3092 0076 0E4B     		ldr	r3, .L145+40
 3093 0078 1880     		strh	r0, [r3]	@ movhi
 113:Middlewares/lvgl/src/extra/layouts/grid/lv_grid.c **** }
 3094              		.loc 1 113 5 is_stmt 1 view .LVU1033
 113:Middlewares/lvgl/src/extra/layouts/grid/lv_grid.c **** }
 3095              		.loc 1 113 34 is_stmt 0 view .LVU1034
 3096 007a FFF7FEFF 		bl	lv_style_register_prop
 3097              	.LVL370:
 113:Middlewares/lvgl/src/extra/layouts/grid/lv_grid.c **** }
 3098              		.loc 1 113 32 view .LVU1035
 3099 007e 40F48050 		orr	r0, r0, #4096
 3100 0082 0C4B     		ldr	r3, .L145+44
 3101 0084 1880     		strh	r0, [r3]	@ movhi
 114:Middlewares/lvgl/src/extra/layouts/grid/lv_grid.c **** 
 3102              		.loc 1 114 1 view .LVU1036
 3103 0086 08BD     		pop	{r3, pc}
 3104              	.L146:
 3105              		.align	2
 3106              	.L145:
 3107 0088 00000000 		.word	grid_update
 3108 008c 00000000 		.word	.LANCHOR10
 3109 0090 00000000 		.word	.LANCHOR7
 3110 0094 00000000 		.word	.LANCHOR6
 3111 0098 00000000 		.word	.LANCHOR8
 3112 009c 00000000 		.word	.LANCHOR9
 3113 00a0 00000000 		.word	.LANCHOR1
 3114 00a4 00000000 		.word	.LANCHOR3
 3115 00a8 00000000 		.word	.LANCHOR0
 3116 00ac 00000000 		.word	.LANCHOR2
 3117 00b0 00000000 		.word	.LANCHOR4
 3118 00b4 00000000 		.word	.LANCHOR5
 3119              		.cfi_endproc
 3120              	.LFE173:
 3122              		.section	.text.lv_style_set_grid_row_dsc_array,"ax",%progbits
 3123              		.align	1
 3124              		.global	lv_style_set_grid_row_dsc_array
 3125              		.syntax unified
 3126              		.thumb
 3127              		.thumb_func
 3128              		.fpu softvfp
 3130              	lv_style_set_grid_row_dsc_array:
 3131              	.LVL371:
 3132              	.LFB177:
 146:Middlewares/lvgl/src/extra/layouts/grid/lv_grid.c ****     lv_style_value_t v = {
ARM GAS  /tmp/cc1NzchT.s 			page 96


 3133              		.loc 1 146 1 is_stmt 1 view -0
 3134              		.cfi_startproc
 3135              		@ args = 0, pretend = 0, frame = 0
 3136              		@ frame_needed = 0, uses_anonymous_args = 0
 146:Middlewares/lvgl/src/extra/layouts/grid/lv_grid.c ****     lv_style_value_t v = {
 3137              		.loc 1 146 1 is_stmt 0 view .LVU1038
 3138 0000 08B5     		push	{r3, lr}
 3139              	.LCFI19:
 3140              		.cfi_def_cfa_offset 8
 3141              		.cfi_offset 3, -8
 3142              		.cfi_offset 14, -4
 3143 0002 0A46     		mov	r2, r1
 147:Middlewares/lvgl/src/extra/layouts/grid/lv_grid.c ****         .ptr = (const void *)value
 3144              		.loc 1 147 5 is_stmt 1 view .LVU1039
 150:Middlewares/lvgl/src/extra/layouts/grid/lv_grid.c **** }
 3145              		.loc 1 150 5 view .LVU1040
 3146 0004 024B     		ldr	r3, .L149
 3147 0006 1988     		ldrh	r1, [r3]
 3148              	.LVL372:
 150:Middlewares/lvgl/src/extra/layouts/grid/lv_grid.c **** }
 3149              		.loc 1 150 5 is_stmt 0 view .LVU1041
 3150 0008 FFF7FEFF 		bl	lv_style_set_prop
 3151              	.LVL373:
 151:Middlewares/lvgl/src/extra/layouts/grid/lv_grid.c **** 
 3152              		.loc 1 151 1 view .LVU1042
 3153 000c 08BD     		pop	{r3, pc}
 3154              	.L150:
 3155 000e 00BF     		.align	2
 3156              	.L149:
 3157 0010 00000000 		.word	.LANCHOR6
 3158              		.cfi_endproc
 3159              	.LFE177:
 3161              		.section	.text.lv_style_set_grid_column_dsc_array,"ax",%progbits
 3162              		.align	1
 3163              		.global	lv_style_set_grid_column_dsc_array
 3164              		.syntax unified
 3165              		.thumb
 3166              		.thumb_func
 3167              		.fpu softvfp
 3169              	lv_style_set_grid_column_dsc_array:
 3170              	.LVL374:
 3171              	.LFB178:
 154:Middlewares/lvgl/src/extra/layouts/grid/lv_grid.c ****     lv_style_value_t v = {
 3172              		.loc 1 154 1 is_stmt 1 view -0
 3173              		.cfi_startproc
 3174              		@ args = 0, pretend = 0, frame = 0
 3175              		@ frame_needed = 0, uses_anonymous_args = 0
 154:Middlewares/lvgl/src/extra/layouts/grid/lv_grid.c ****     lv_style_value_t v = {
 3176              		.loc 1 154 1 is_stmt 0 view .LVU1044
 3177 0000 08B5     		push	{r3, lr}
 3178              	.LCFI20:
 3179              		.cfi_def_cfa_offset 8
 3180              		.cfi_offset 3, -8
 3181              		.cfi_offset 14, -4
 3182 0002 0A46     		mov	r2, r1
 155:Middlewares/lvgl/src/extra/layouts/grid/lv_grid.c ****         .ptr = (const void *)value
 3183              		.loc 1 155 5 is_stmt 1 view .LVU1045
ARM GAS  /tmp/cc1NzchT.s 			page 97


 158:Middlewares/lvgl/src/extra/layouts/grid/lv_grid.c **** }
 3184              		.loc 1 158 5 view .LVU1046
 3185 0004 024B     		ldr	r3, .L153
 3186 0006 1988     		ldrh	r1, [r3]
 3187              	.LVL375:
 158:Middlewares/lvgl/src/extra/layouts/grid/lv_grid.c **** }
 3188              		.loc 1 158 5 is_stmt 0 view .LVU1047
 3189 0008 FFF7FEFF 		bl	lv_style_set_prop
 3190              	.LVL376:
 159:Middlewares/lvgl/src/extra/layouts/grid/lv_grid.c **** 
 3191              		.loc 1 159 1 view .LVU1048
 3192 000c 08BD     		pop	{r3, pc}
 3193              	.L154:
 3194 000e 00BF     		.align	2
 3195              	.L153:
 3196 0010 00000000 		.word	.LANCHOR7
 3197              		.cfi_endproc
 3198              	.LFE178:
 3200              		.section	.text.lv_style_set_grid_row_align,"ax",%progbits
 3201              		.align	1
 3202              		.global	lv_style_set_grid_row_align
 3203              		.syntax unified
 3204              		.thumb
 3205              		.thumb_func
 3206              		.fpu softvfp
 3208              	lv_style_set_grid_row_align:
 3209              	.LVL377:
 3210              	.LFB179:
 162:Middlewares/lvgl/src/extra/layouts/grid/lv_grid.c ****     lv_style_value_t v = {
 3211              		.loc 1 162 1 is_stmt 1 view -0
 3212              		.cfi_startproc
 3213              		@ args = 0, pretend = 0, frame = 0
 3214              		@ frame_needed = 0, uses_anonymous_args = 0
 162:Middlewares/lvgl/src/extra/layouts/grid/lv_grid.c ****     lv_style_value_t v = {
 3215              		.loc 1 162 1 is_stmt 0 view .LVU1050
 3216 0000 08B5     		push	{r3, lr}
 3217              	.LCFI21:
 3218              		.cfi_def_cfa_offset 8
 3219              		.cfi_offset 3, -8
 3220              		.cfi_offset 14, -4
 3221 0002 0A46     		mov	r2, r1
 163:Middlewares/lvgl/src/extra/layouts/grid/lv_grid.c ****         .num = (lv_grid_align_t)value
 3222              		.loc 1 163 5 is_stmt 1 view .LVU1051
 166:Middlewares/lvgl/src/extra/layouts/grid/lv_grid.c **** }
 3223              		.loc 1 166 5 view .LVU1052
 3224 0004 024B     		ldr	r3, .L157
 3225 0006 1988     		ldrh	r1, [r3]
 3226              	.LVL378:
 166:Middlewares/lvgl/src/extra/layouts/grid/lv_grid.c **** }
 3227              		.loc 1 166 5 is_stmt 0 view .LVU1053
 3228 0008 FFF7FEFF 		bl	lv_style_set_prop
 3229              	.LVL379:
 167:Middlewares/lvgl/src/extra/layouts/grid/lv_grid.c **** 
 3230              		.loc 1 167 1 view .LVU1054
 3231 000c 08BD     		pop	{r3, pc}
 3232              	.L158:
 3233 000e 00BF     		.align	2
ARM GAS  /tmp/cc1NzchT.s 			page 98


 3234              	.L157:
 3235 0010 00000000 		.word	.LANCHOR9
 3236              		.cfi_endproc
 3237              	.LFE179:
 3239              		.section	.text.lv_style_set_grid_column_align,"ax",%progbits
 3240              		.align	1
 3241              		.global	lv_style_set_grid_column_align
 3242              		.syntax unified
 3243              		.thumb
 3244              		.thumb_func
 3245              		.fpu softvfp
 3247              	lv_style_set_grid_column_align:
 3248              	.LVL380:
 3249              	.LFB180:
 170:Middlewares/lvgl/src/extra/layouts/grid/lv_grid.c ****     lv_style_value_t v = {
 3250              		.loc 1 170 1 is_stmt 1 view -0
 3251              		.cfi_startproc
 3252              		@ args = 0, pretend = 0, frame = 0
 3253              		@ frame_needed = 0, uses_anonymous_args = 0
 170:Middlewares/lvgl/src/extra/layouts/grid/lv_grid.c ****     lv_style_value_t v = {
 3254              		.loc 1 170 1 is_stmt 0 view .LVU1056
 3255 0000 08B5     		push	{r3, lr}
 3256              	.LCFI22:
 3257              		.cfi_def_cfa_offset 8
 3258              		.cfi_offset 3, -8
 3259              		.cfi_offset 14, -4
 3260 0002 0A46     		mov	r2, r1
 171:Middlewares/lvgl/src/extra/layouts/grid/lv_grid.c ****         .num = (lv_grid_align_t)value
 3261              		.loc 1 171 5 is_stmt 1 view .LVU1057
 174:Middlewares/lvgl/src/extra/layouts/grid/lv_grid.c **** }
 3262              		.loc 1 174 5 view .LVU1058
 3263 0004 024B     		ldr	r3, .L161
 3264 0006 1988     		ldrh	r1, [r3]
 3265              	.LVL381:
 174:Middlewares/lvgl/src/extra/layouts/grid/lv_grid.c **** }
 3266              		.loc 1 174 5 is_stmt 0 view .LVU1059
 3267 0008 FFF7FEFF 		bl	lv_style_set_prop
 3268              	.LVL382:
 175:Middlewares/lvgl/src/extra/layouts/grid/lv_grid.c **** 
 3269              		.loc 1 175 1 view .LVU1060
 3270 000c 08BD     		pop	{r3, pc}
 3271              	.L162:
 3272 000e 00BF     		.align	2
 3273              	.L161:
 3274 0010 00000000 		.word	.LANCHOR8
 3275              		.cfi_endproc
 3276              	.LFE180:
 3278              		.section	.text.lv_style_set_grid_cell_column_pos,"ax",%progbits
 3279              		.align	1
 3280              		.global	lv_style_set_grid_cell_column_pos
 3281              		.syntax unified
 3282              		.thumb
 3283              		.thumb_func
 3284              		.fpu softvfp
 3286              	lv_style_set_grid_cell_column_pos:
 3287              	.LVL383:
 3288              	.LFB181:
ARM GAS  /tmp/cc1NzchT.s 			page 99


 179:Middlewares/lvgl/src/extra/layouts/grid/lv_grid.c ****     lv_style_value_t v = {
 3289              		.loc 1 179 1 is_stmt 1 view -0
 3290              		.cfi_startproc
 3291              		@ args = 0, pretend = 0, frame = 0
 3292              		@ frame_needed = 0, uses_anonymous_args = 0
 179:Middlewares/lvgl/src/extra/layouts/grid/lv_grid.c ****     lv_style_value_t v = {
 3293              		.loc 1 179 1 is_stmt 0 view .LVU1062
 3294 0000 08B5     		push	{r3, lr}
 3295              	.LCFI23:
 3296              		.cfi_def_cfa_offset 8
 3297              		.cfi_offset 3, -8
 3298              		.cfi_offset 14, -4
 3299 0002 0A46     		mov	r2, r1
 180:Middlewares/lvgl/src/extra/layouts/grid/lv_grid.c ****         .num = value
 3300              		.loc 1 180 5 is_stmt 1 view .LVU1063
 183:Middlewares/lvgl/src/extra/layouts/grid/lv_grid.c **** }
 3301              		.loc 1 183 5 view .LVU1064
 3302 0004 024B     		ldr	r3, .L165
 3303 0006 1988     		ldrh	r1, [r3]
 3304              	.LVL384:
 183:Middlewares/lvgl/src/extra/layouts/grid/lv_grid.c **** }
 3305              		.loc 1 183 5 is_stmt 0 view .LVU1065
 3306 0008 FFF7FEFF 		bl	lv_style_set_prop
 3307              	.LVL385:
 184:Middlewares/lvgl/src/extra/layouts/grid/lv_grid.c **** 
 3308              		.loc 1 184 1 view .LVU1066
 3309 000c 08BD     		pop	{r3, pc}
 3310              	.L166:
 3311 000e 00BF     		.align	2
 3312              	.L165:
 3313 0010 00000000 		.word	.LANCHOR2
 3314              		.cfi_endproc
 3315              	.LFE181:
 3317              		.section	.text.lv_style_set_grid_cell_column_span,"ax",%progbits
 3318              		.align	1
 3319              		.global	lv_style_set_grid_cell_column_span
 3320              		.syntax unified
 3321              		.thumb
 3322              		.thumb_func
 3323              		.fpu softvfp
 3325              	lv_style_set_grid_cell_column_span:
 3326              	.LVL386:
 3327              	.LFB182:
 187:Middlewares/lvgl/src/extra/layouts/grid/lv_grid.c ****     lv_style_value_t v = {
 3328              		.loc 1 187 1 is_stmt 1 view -0
 3329              		.cfi_startproc
 3330              		@ args = 0, pretend = 0, frame = 0
 3331              		@ frame_needed = 0, uses_anonymous_args = 0
 187:Middlewares/lvgl/src/extra/layouts/grid/lv_grid.c ****     lv_style_value_t v = {
 3332              		.loc 1 187 1 is_stmt 0 view .LVU1068
 3333 0000 08B5     		push	{r3, lr}
 3334              	.LCFI24:
 3335              		.cfi_def_cfa_offset 8
 3336              		.cfi_offset 3, -8
 3337              		.cfi_offset 14, -4
 3338 0002 0A46     		mov	r2, r1
 188:Middlewares/lvgl/src/extra/layouts/grid/lv_grid.c ****         .num = value
ARM GAS  /tmp/cc1NzchT.s 			page 100


 3339              		.loc 1 188 5 is_stmt 1 view .LVU1069
 191:Middlewares/lvgl/src/extra/layouts/grid/lv_grid.c **** }
 3340              		.loc 1 191 5 view .LVU1070
 3341 0004 024B     		ldr	r3, .L169
 3342 0006 1988     		ldrh	r1, [r3]
 3343              	.LVL387:
 191:Middlewares/lvgl/src/extra/layouts/grid/lv_grid.c **** }
 3344              		.loc 1 191 5 is_stmt 0 view .LVU1071
 3345 0008 FFF7FEFF 		bl	lv_style_set_prop
 3346              	.LVL388:
 192:Middlewares/lvgl/src/extra/layouts/grid/lv_grid.c **** 
 3347              		.loc 1 192 1 view .LVU1072
 3348 000c 08BD     		pop	{r3, pc}
 3349              	.L170:
 3350 000e 00BF     		.align	2
 3351              	.L169:
 3352 0010 00000000 		.word	.LANCHOR0
 3353              		.cfi_endproc
 3354              	.LFE182:
 3356              		.section	.text.lv_style_set_grid_cell_row_pos,"ax",%progbits
 3357              		.align	1
 3358              		.global	lv_style_set_grid_cell_row_pos
 3359              		.syntax unified
 3360              		.thumb
 3361              		.thumb_func
 3362              		.fpu softvfp
 3364              	lv_style_set_grid_cell_row_pos:
 3365              	.LVL389:
 3366              	.LFB183:
 195:Middlewares/lvgl/src/extra/layouts/grid/lv_grid.c ****     lv_style_value_t v = {
 3367              		.loc 1 195 1 is_stmt 1 view -0
 3368              		.cfi_startproc
 3369              		@ args = 0, pretend = 0, frame = 0
 3370              		@ frame_needed = 0, uses_anonymous_args = 0
 195:Middlewares/lvgl/src/extra/layouts/grid/lv_grid.c ****     lv_style_value_t v = {
 3371              		.loc 1 195 1 is_stmt 0 view .LVU1074
 3372 0000 08B5     		push	{r3, lr}
 3373              	.LCFI25:
 3374              		.cfi_def_cfa_offset 8
 3375              		.cfi_offset 3, -8
 3376              		.cfi_offset 14, -4
 3377 0002 0A46     		mov	r2, r1
 196:Middlewares/lvgl/src/extra/layouts/grid/lv_grid.c ****         .num = value
 3378              		.loc 1 196 5 is_stmt 1 view .LVU1075
 199:Middlewares/lvgl/src/extra/layouts/grid/lv_grid.c **** }
 3379              		.loc 1 199 5 view .LVU1076
 3380 0004 024B     		ldr	r3, .L173
 3381 0006 1988     		ldrh	r1, [r3]
 3382              	.LVL390:
 199:Middlewares/lvgl/src/extra/layouts/grid/lv_grid.c **** }
 3383              		.loc 1 199 5 is_stmt 0 view .LVU1077
 3384 0008 FFF7FEFF 		bl	lv_style_set_prop
 3385              	.LVL391:
 200:Middlewares/lvgl/src/extra/layouts/grid/lv_grid.c **** 
 3386              		.loc 1 200 1 view .LVU1078
 3387 000c 08BD     		pop	{r3, pc}
 3388              	.L174:
ARM GAS  /tmp/cc1NzchT.s 			page 101


 3389 000e 00BF     		.align	2
 3390              	.L173:
 3391 0010 00000000 		.word	.LANCHOR3
 3392              		.cfi_endproc
 3393              	.LFE183:
 3395              		.section	.text.lv_style_set_grid_cell_row_span,"ax",%progbits
 3396              		.align	1
 3397              		.global	lv_style_set_grid_cell_row_span
 3398              		.syntax unified
 3399              		.thumb
 3400              		.thumb_func
 3401              		.fpu softvfp
 3403              	lv_style_set_grid_cell_row_span:
 3404              	.LVL392:
 3405              	.LFB184:
 203:Middlewares/lvgl/src/extra/layouts/grid/lv_grid.c ****     lv_style_value_t v = {
 3406              		.loc 1 203 1 is_stmt 1 view -0
 3407              		.cfi_startproc
 3408              		@ args = 0, pretend = 0, frame = 0
 3409              		@ frame_needed = 0, uses_anonymous_args = 0
 203:Middlewares/lvgl/src/extra/layouts/grid/lv_grid.c ****     lv_style_value_t v = {
 3410              		.loc 1 203 1 is_stmt 0 view .LVU1080
 3411 0000 08B5     		push	{r3, lr}
 3412              	.LCFI26:
 3413              		.cfi_def_cfa_offset 8
 3414              		.cfi_offset 3, -8
 3415              		.cfi_offset 14, -4
 3416 0002 0A46     		mov	r2, r1
 204:Middlewares/lvgl/src/extra/layouts/grid/lv_grid.c ****         .num = value
 3417              		.loc 1 204 5 is_stmt 1 view .LVU1081
 207:Middlewares/lvgl/src/extra/layouts/grid/lv_grid.c **** }
 3418              		.loc 1 207 5 view .LVU1082
 3419 0004 024B     		ldr	r3, .L177
 3420 0006 1988     		ldrh	r1, [r3]
 3421              	.LVL393:
 207:Middlewares/lvgl/src/extra/layouts/grid/lv_grid.c **** }
 3422              		.loc 1 207 5 is_stmt 0 view .LVU1083
 3423 0008 FFF7FEFF 		bl	lv_style_set_prop
 3424              	.LVL394:
 208:Middlewares/lvgl/src/extra/layouts/grid/lv_grid.c **** 
 3425              		.loc 1 208 1 view .LVU1084
 3426 000c 08BD     		pop	{r3, pc}
 3427              	.L178:
 3428 000e 00BF     		.align	2
 3429              	.L177:
 3430 0010 00000000 		.word	.LANCHOR1
 3431              		.cfi_endproc
 3432              	.LFE184:
 3434              		.section	.text.lv_style_set_grid_cell_x_align,"ax",%progbits
 3435              		.align	1
 3436              		.global	lv_style_set_grid_cell_x_align
 3437              		.syntax unified
 3438              		.thumb
 3439              		.thumb_func
 3440              		.fpu softvfp
 3442              	lv_style_set_grid_cell_x_align:
 3443              	.LVL395:
ARM GAS  /tmp/cc1NzchT.s 			page 102


 3444              	.LFB185:
 211:Middlewares/lvgl/src/extra/layouts/grid/lv_grid.c ****     lv_style_value_t v = {
 3445              		.loc 1 211 1 is_stmt 1 view -0
 3446              		.cfi_startproc
 3447              		@ args = 0, pretend = 0, frame = 0
 3448              		@ frame_needed = 0, uses_anonymous_args = 0
 211:Middlewares/lvgl/src/extra/layouts/grid/lv_grid.c ****     lv_style_value_t v = {
 3449              		.loc 1 211 1 is_stmt 0 view .LVU1086
 3450 0000 08B5     		push	{r3, lr}
 3451              	.LCFI27:
 3452              		.cfi_def_cfa_offset 8
 3453              		.cfi_offset 3, -8
 3454              		.cfi_offset 14, -4
 3455 0002 0A46     		mov	r2, r1
 212:Middlewares/lvgl/src/extra/layouts/grid/lv_grid.c ****         .num = value
 3456              		.loc 1 212 5 is_stmt 1 view .LVU1087
 215:Middlewares/lvgl/src/extra/layouts/grid/lv_grid.c **** }
 3457              		.loc 1 215 5 view .LVU1088
 3458 0004 024B     		ldr	r3, .L181
 3459 0006 1988     		ldrh	r1, [r3]
 3460              	.LVL396:
 215:Middlewares/lvgl/src/extra/layouts/grid/lv_grid.c **** }
 3461              		.loc 1 215 5 is_stmt 0 view .LVU1089
 3462 0008 FFF7FEFF 		bl	lv_style_set_prop
 3463              	.LVL397:
 216:Middlewares/lvgl/src/extra/layouts/grid/lv_grid.c **** 
 3464              		.loc 1 216 1 view .LVU1090
 3465 000c 08BD     		pop	{r3, pc}
 3466              	.L182:
 3467 000e 00BF     		.align	2
 3468              	.L181:
 3469 0010 00000000 		.word	.LANCHOR4
 3470              		.cfi_endproc
 3471              	.LFE185:
 3473              		.section	.text.lv_style_set_grid_cell_y_align,"ax",%progbits
 3474              		.align	1
 3475              		.global	lv_style_set_grid_cell_y_align
 3476              		.syntax unified
 3477              		.thumb
 3478              		.thumb_func
 3479              		.fpu softvfp
 3481              	lv_style_set_grid_cell_y_align:
 3482              	.LVL398:
 3483              	.LFB186:
 219:Middlewares/lvgl/src/extra/layouts/grid/lv_grid.c ****     lv_style_value_t v = {
 3484              		.loc 1 219 1 is_stmt 1 view -0
 3485              		.cfi_startproc
 3486              		@ args = 0, pretend = 0, frame = 0
 3487              		@ frame_needed = 0, uses_anonymous_args = 0
 219:Middlewares/lvgl/src/extra/layouts/grid/lv_grid.c ****     lv_style_value_t v = {
 3488              		.loc 1 219 1 is_stmt 0 view .LVU1092
 3489 0000 08B5     		push	{r3, lr}
 3490              	.LCFI28:
 3491              		.cfi_def_cfa_offset 8
 3492              		.cfi_offset 3, -8
 3493              		.cfi_offset 14, -4
 3494 0002 0A46     		mov	r2, r1
ARM GAS  /tmp/cc1NzchT.s 			page 103


 220:Middlewares/lvgl/src/extra/layouts/grid/lv_grid.c ****         .num = value
 3495              		.loc 1 220 5 is_stmt 1 view .LVU1093
 223:Middlewares/lvgl/src/extra/layouts/grid/lv_grid.c **** }
 3496              		.loc 1 223 5 view .LVU1094
 3497 0004 024B     		ldr	r3, .L185
 3498 0006 1988     		ldrh	r1, [r3]
 3499              	.LVL399:
 223:Middlewares/lvgl/src/extra/layouts/grid/lv_grid.c **** }
 3500              		.loc 1 223 5 is_stmt 0 view .LVU1095
 3501 0008 FFF7FEFF 		bl	lv_style_set_prop
 3502              	.LVL400:
 224:Middlewares/lvgl/src/extra/layouts/grid/lv_grid.c **** 
 3503              		.loc 1 224 1 view .LVU1096
 3504 000c 08BD     		pop	{r3, pc}
 3505              	.L186:
 3506 000e 00BF     		.align	2
 3507              	.L185:
 3508 0010 00000000 		.word	.LANCHOR5
 3509              		.cfi_endproc
 3510              	.LFE186:
 3512              		.section	.text.lv_obj_set_style_grid_row_dsc_array,"ax",%progbits
 3513              		.align	1
 3514              		.global	lv_obj_set_style_grid_row_dsc_array
 3515              		.syntax unified
 3516              		.thumb
 3517              		.thumb_func
 3518              		.fpu softvfp
 3520              	lv_obj_set_style_grid_row_dsc_array:
 3521              	.LVL401:
 3522              	.LFB187:
 227:Middlewares/lvgl/src/extra/layouts/grid/lv_grid.c ****     lv_style_value_t v = {
 3523              		.loc 1 227 1 is_stmt 1 view -0
 3524              		.cfi_startproc
 3525              		@ args = 0, pretend = 0, frame = 0
 3526              		@ frame_needed = 0, uses_anonymous_args = 0
 227:Middlewares/lvgl/src/extra/layouts/grid/lv_grid.c ****     lv_style_value_t v = {
 3527              		.loc 1 227 1 is_stmt 0 view .LVU1098
 3528 0000 08B5     		push	{r3, lr}
 3529              	.LCFI29:
 3530              		.cfi_def_cfa_offset 8
 3531              		.cfi_offset 3, -8
 3532              		.cfi_offset 14, -4
 3533 0002 1346     		mov	r3, r2
 228:Middlewares/lvgl/src/extra/layouts/grid/lv_grid.c ****         .ptr = (const void *)value
 3534              		.loc 1 228 5 is_stmt 1 view .LVU1099
 231:Middlewares/lvgl/src/extra/layouts/grid/lv_grid.c **** }
 3535              		.loc 1 231 5 view .LVU1100
 3536 0004 0A46     		mov	r2, r1
 3537              	.LVL402:
 231:Middlewares/lvgl/src/extra/layouts/grid/lv_grid.c **** }
 3538              		.loc 1 231 5 is_stmt 0 view .LVU1101
 3539 0006 0249     		ldr	r1, .L189
 3540              	.LVL403:
 231:Middlewares/lvgl/src/extra/layouts/grid/lv_grid.c **** }
 3541              		.loc 1 231 5 view .LVU1102
 3542 0008 0988     		ldrh	r1, [r1]
 3543 000a FFF7FEFF 		bl	lv_obj_set_local_style_prop
ARM GAS  /tmp/cc1NzchT.s 			page 104


 3544              	.LVL404:
 232:Middlewares/lvgl/src/extra/layouts/grid/lv_grid.c **** 
 3545              		.loc 1 232 1 view .LVU1103
 3546 000e 08BD     		pop	{r3, pc}
 3547              	.L190:
 3548              		.align	2
 3549              	.L189:
 3550 0010 00000000 		.word	.LANCHOR6
 3551              		.cfi_endproc
 3552              	.LFE187:
 3554              		.section	.text.lv_obj_set_style_grid_column_dsc_array,"ax",%progbits
 3555              		.align	1
 3556              		.global	lv_obj_set_style_grid_column_dsc_array
 3557              		.syntax unified
 3558              		.thumb
 3559              		.thumb_func
 3560              		.fpu softvfp
 3562              	lv_obj_set_style_grid_column_dsc_array:
 3563              	.LVL405:
 3564              	.LFB188:
 235:Middlewares/lvgl/src/extra/layouts/grid/lv_grid.c ****     lv_style_value_t v = {
 3565              		.loc 1 235 1 is_stmt 1 view -0
 3566              		.cfi_startproc
 3567              		@ args = 0, pretend = 0, frame = 0
 3568              		@ frame_needed = 0, uses_anonymous_args = 0
 235:Middlewares/lvgl/src/extra/layouts/grid/lv_grid.c ****     lv_style_value_t v = {
 3569              		.loc 1 235 1 is_stmt 0 view .LVU1105
 3570 0000 08B5     		push	{r3, lr}
 3571              	.LCFI30:
 3572              		.cfi_def_cfa_offset 8
 3573              		.cfi_offset 3, -8
 3574              		.cfi_offset 14, -4
 3575 0002 1346     		mov	r3, r2
 236:Middlewares/lvgl/src/extra/layouts/grid/lv_grid.c ****         .ptr = (const void *)value
 3576              		.loc 1 236 5 is_stmt 1 view .LVU1106
 239:Middlewares/lvgl/src/extra/layouts/grid/lv_grid.c **** }
 3577              		.loc 1 239 5 view .LVU1107
 3578 0004 0A46     		mov	r2, r1
 3579              	.LVL406:
 239:Middlewares/lvgl/src/extra/layouts/grid/lv_grid.c **** }
 3580              		.loc 1 239 5 is_stmt 0 view .LVU1108
 3581 0006 0249     		ldr	r1, .L193
 3582              	.LVL407:
 239:Middlewares/lvgl/src/extra/layouts/grid/lv_grid.c **** }
 3583              		.loc 1 239 5 view .LVU1109
 3584 0008 0988     		ldrh	r1, [r1]
 3585 000a FFF7FEFF 		bl	lv_obj_set_local_style_prop
 3586              	.LVL408:
 240:Middlewares/lvgl/src/extra/layouts/grid/lv_grid.c **** 
 3587              		.loc 1 240 1 view .LVU1110
 3588 000e 08BD     		pop	{r3, pc}
 3589              	.L194:
 3590              		.align	2
 3591              	.L193:
 3592 0010 00000000 		.word	.LANCHOR7
 3593              		.cfi_endproc
 3594              	.LFE188:
ARM GAS  /tmp/cc1NzchT.s 			page 105


 3596              		.section	.text.lv_obj_set_grid_dsc_array,"ax",%progbits
 3597              		.align	1
 3598              		.global	lv_obj_set_grid_dsc_array
 3599              		.syntax unified
 3600              		.thumb
 3601              		.thumb_func
 3602              		.fpu softvfp
 3604              	lv_obj_set_grid_dsc_array:
 3605              	.LVL409:
 3606              	.LFB174:
 117:Middlewares/lvgl/src/extra/layouts/grid/lv_grid.c ****     lv_obj_set_style_grid_column_dsc_array(obj, col_dsc, 0);
 3607              		.loc 1 117 1 is_stmt 1 view -0
 3608              		.cfi_startproc
 3609              		@ args = 0, pretend = 0, frame = 0
 3610              		@ frame_needed = 0, uses_anonymous_args = 0
 117:Middlewares/lvgl/src/extra/layouts/grid/lv_grid.c ****     lv_obj_set_style_grid_column_dsc_array(obj, col_dsc, 0);
 3611              		.loc 1 117 1 is_stmt 0 view .LVU1112
 3612 0000 38B5     		push	{r3, r4, r5, lr}
 3613              	.LCFI31:
 3614              		.cfi_def_cfa_offset 16
 3615              		.cfi_offset 3, -16
 3616              		.cfi_offset 4, -12
 3617              		.cfi_offset 5, -8
 3618              		.cfi_offset 14, -4
 3619 0002 0446     		mov	r4, r0
 3620 0004 1546     		mov	r5, r2
 118:Middlewares/lvgl/src/extra/layouts/grid/lv_grid.c ****     lv_obj_set_style_grid_row_dsc_array(obj, row_dsc, 0);
 3621              		.loc 1 118 5 is_stmt 1 view .LVU1113
 3622 0006 0022     		movs	r2, #0
 3623              	.LVL410:
 118:Middlewares/lvgl/src/extra/layouts/grid/lv_grid.c ****     lv_obj_set_style_grid_row_dsc_array(obj, row_dsc, 0);
 3624              		.loc 1 118 5 is_stmt 0 view .LVU1114
 3625 0008 FFF7FEFF 		bl	lv_obj_set_style_grid_column_dsc_array
 3626              	.LVL411:
 119:Middlewares/lvgl/src/extra/layouts/grid/lv_grid.c ****     lv_obj_set_style_layout(obj, LV_LAYOUT_GRID, 0);
 3627              		.loc 1 119 5 is_stmt 1 view .LVU1115
 3628 000c 0022     		movs	r2, #0
 3629 000e 2946     		mov	r1, r5
 3630 0010 2046     		mov	r0, r4
 3631 0012 FFF7FEFF 		bl	lv_obj_set_style_grid_row_dsc_array
 3632              	.LVL412:
 120:Middlewares/lvgl/src/extra/layouts/grid/lv_grid.c **** }
 3633              		.loc 1 120 5 view .LVU1116
 3634 0016 0022     		movs	r2, #0
 3635 0018 024B     		ldr	r3, .L197
 3636 001a 1988     		ldrh	r1, [r3]
 3637 001c 2046     		mov	r0, r4
 3638 001e FFF7FEFF 		bl	lv_obj_set_style_layout
 3639              	.LVL413:
 121:Middlewares/lvgl/src/extra/layouts/grid/lv_grid.c **** 
 3640              		.loc 1 121 1 is_stmt 0 view .LVU1117
 3641 0022 38BD     		pop	{r3, r4, r5, pc}
 3642              	.LVL414:
 3643              	.L198:
 121:Middlewares/lvgl/src/extra/layouts/grid/lv_grid.c **** 
 3644              		.loc 1 121 1 view .LVU1118
 3645              		.align	2
ARM GAS  /tmp/cc1NzchT.s 			page 106


 3646              	.L197:
 3647 0024 00000000 		.word	.LANCHOR10
 3648              		.cfi_endproc
 3649              	.LFE174:
 3651              		.section	.text.lv_obj_set_style_grid_row_align,"ax",%progbits
 3652              		.align	1
 3653              		.global	lv_obj_set_style_grid_row_align
 3654              		.syntax unified
 3655              		.thumb
 3656              		.thumb_func
 3657              		.fpu softvfp
 3659              	lv_obj_set_style_grid_row_align:
 3660              	.LVL415:
 3661              	.LFB189:
 244:Middlewares/lvgl/src/extra/layouts/grid/lv_grid.c ****     lv_style_value_t v = {
 3662              		.loc 1 244 1 is_stmt 1 view -0
 3663              		.cfi_startproc
 3664              		@ args = 0, pretend = 0, frame = 0
 3665              		@ frame_needed = 0, uses_anonymous_args = 0
 244:Middlewares/lvgl/src/extra/layouts/grid/lv_grid.c ****     lv_style_value_t v = {
 3666              		.loc 1 244 1 is_stmt 0 view .LVU1120
 3667 0000 08B5     		push	{r3, lr}
 3668              	.LCFI32:
 3669              		.cfi_def_cfa_offset 8
 3670              		.cfi_offset 3, -8
 3671              		.cfi_offset 14, -4
 3672 0002 1346     		mov	r3, r2
 245:Middlewares/lvgl/src/extra/layouts/grid/lv_grid.c ****         .num = (int32_t) value
 3673              		.loc 1 245 5 is_stmt 1 view .LVU1121
 248:Middlewares/lvgl/src/extra/layouts/grid/lv_grid.c **** }
 3674              		.loc 1 248 5 view .LVU1122
 3675 0004 0A46     		mov	r2, r1
 3676              	.LVL416:
 248:Middlewares/lvgl/src/extra/layouts/grid/lv_grid.c **** }
 3677              		.loc 1 248 5 is_stmt 0 view .LVU1123
 3678 0006 0249     		ldr	r1, .L201
 3679              	.LVL417:
 248:Middlewares/lvgl/src/extra/layouts/grid/lv_grid.c **** }
 3680              		.loc 1 248 5 view .LVU1124
 3681 0008 0988     		ldrh	r1, [r1]
 3682 000a FFF7FEFF 		bl	lv_obj_set_local_style_prop
 3683              	.LVL418:
 249:Middlewares/lvgl/src/extra/layouts/grid/lv_grid.c **** 
 3684              		.loc 1 249 1 view .LVU1125
 3685 000e 08BD     		pop	{r3, pc}
 3686              	.L202:
 3687              		.align	2
 3688              	.L201:
 3689 0010 00000000 		.word	.LANCHOR9
 3690              		.cfi_endproc
 3691              	.LFE189:
 3693              		.section	.text.lv_obj_set_style_grid_column_align,"ax",%progbits
 3694              		.align	1
 3695              		.global	lv_obj_set_style_grid_column_align
 3696              		.syntax unified
 3697              		.thumb
 3698              		.thumb_func
ARM GAS  /tmp/cc1NzchT.s 			page 107


 3699              		.fpu softvfp
 3701              	lv_obj_set_style_grid_column_align:
 3702              	.LVL419:
 3703              	.LFB190:
 252:Middlewares/lvgl/src/extra/layouts/grid/lv_grid.c ****     lv_style_value_t v = {
 3704              		.loc 1 252 1 is_stmt 1 view -0
 3705              		.cfi_startproc
 3706              		@ args = 0, pretend = 0, frame = 0
 3707              		@ frame_needed = 0, uses_anonymous_args = 0
 252:Middlewares/lvgl/src/extra/layouts/grid/lv_grid.c ****     lv_style_value_t v = {
 3708              		.loc 1 252 1 is_stmt 0 view .LVU1127
 3709 0000 08B5     		push	{r3, lr}
 3710              	.LCFI33:
 3711              		.cfi_def_cfa_offset 8
 3712              		.cfi_offset 3, -8
 3713              		.cfi_offset 14, -4
 3714 0002 1346     		mov	r3, r2
 253:Middlewares/lvgl/src/extra/layouts/grid/lv_grid.c ****         .num = (int32_t) value
 3715              		.loc 1 253 5 is_stmt 1 view .LVU1128
 256:Middlewares/lvgl/src/extra/layouts/grid/lv_grid.c **** }
 3716              		.loc 1 256 5 view .LVU1129
 3717 0004 0A46     		mov	r2, r1
 3718              	.LVL420:
 256:Middlewares/lvgl/src/extra/layouts/grid/lv_grid.c **** }
 3719              		.loc 1 256 5 is_stmt 0 view .LVU1130
 3720 0006 0249     		ldr	r1, .L205
 3721              	.LVL421:
 256:Middlewares/lvgl/src/extra/layouts/grid/lv_grid.c **** }
 3722              		.loc 1 256 5 view .LVU1131
 3723 0008 0988     		ldrh	r1, [r1]
 3724 000a FFF7FEFF 		bl	lv_obj_set_local_style_prop
 3725              	.LVL422:
 257:Middlewares/lvgl/src/extra/layouts/grid/lv_grid.c **** 
 3726              		.loc 1 257 1 view .LVU1132
 3727 000e 08BD     		pop	{r3, pc}
 3728              	.L206:
 3729              		.align	2
 3730              	.L205:
 3731 0010 00000000 		.word	.LANCHOR8
 3732              		.cfi_endproc
 3733              	.LFE190:
 3735              		.section	.text.lv_obj_set_grid_align,"ax",%progbits
 3736              		.align	1
 3737              		.global	lv_obj_set_grid_align
 3738              		.syntax unified
 3739              		.thumb
 3740              		.thumb_func
 3741              		.fpu softvfp
 3743              	lv_obj_set_grid_align:
 3744              	.LVL423:
 3745              	.LFB175:
 124:Middlewares/lvgl/src/extra/layouts/grid/lv_grid.c ****     lv_obj_set_style_grid_column_align(obj, column_align, 0);
 3746              		.loc 1 124 1 is_stmt 1 view -0
 3747              		.cfi_startproc
 3748              		@ args = 0, pretend = 0, frame = 0
 3749              		@ frame_needed = 0, uses_anonymous_args = 0
 124:Middlewares/lvgl/src/extra/layouts/grid/lv_grid.c ****     lv_obj_set_style_grid_column_align(obj, column_align, 0);
ARM GAS  /tmp/cc1NzchT.s 			page 108


 3750              		.loc 1 124 1 is_stmt 0 view .LVU1134
 3751 0000 38B5     		push	{r3, r4, r5, lr}
 3752              	.LCFI34:
 3753              		.cfi_def_cfa_offset 16
 3754              		.cfi_offset 3, -16
 3755              		.cfi_offset 4, -12
 3756              		.cfi_offset 5, -8
 3757              		.cfi_offset 14, -4
 3758 0002 0446     		mov	r4, r0
 3759 0004 1546     		mov	r5, r2
 125:Middlewares/lvgl/src/extra/layouts/grid/lv_grid.c ****     lv_obj_set_style_grid_row_align(obj, row_align, 0);
 3760              		.loc 1 125 5 is_stmt 1 view .LVU1135
 3761 0006 0022     		movs	r2, #0
 3762              	.LVL424:
 125:Middlewares/lvgl/src/extra/layouts/grid/lv_grid.c ****     lv_obj_set_style_grid_row_align(obj, row_align, 0);
 3763              		.loc 1 125 5 is_stmt 0 view .LVU1136
 3764 0008 FFF7FEFF 		bl	lv_obj_set_style_grid_column_align
 3765              	.LVL425:
 126:Middlewares/lvgl/src/extra/layouts/grid/lv_grid.c **** 
 3766              		.loc 1 126 5 is_stmt 1 view .LVU1137
 3767 000c 0022     		movs	r2, #0
 3768 000e 2946     		mov	r1, r5
 3769 0010 2046     		mov	r0, r4
 3770 0012 FFF7FEFF 		bl	lv_obj_set_style_grid_row_align
 3771              	.LVL426:
 128:Middlewares/lvgl/src/extra/layouts/grid/lv_grid.c **** 
 3772              		.loc 1 128 1 is_stmt 0 view .LVU1138
 3773 0016 38BD     		pop	{r3, r4, r5, pc}
 128:Middlewares/lvgl/src/extra/layouts/grid/lv_grid.c **** 
 3774              		.loc 1 128 1 view .LVU1139
 3775              		.cfi_endproc
 3776              	.LFE175:
 3778              		.section	.text.lv_obj_set_style_grid_cell_column_pos,"ax",%progbits
 3779              		.align	1
 3780              		.global	lv_obj_set_style_grid_cell_column_pos
 3781              		.syntax unified
 3782              		.thumb
 3783              		.thumb_func
 3784              		.fpu softvfp
 3786              	lv_obj_set_style_grid_cell_column_pos:
 3787              	.LVL427:
 3788              	.LFB191:
 261:Middlewares/lvgl/src/extra/layouts/grid/lv_grid.c ****     lv_style_value_t v = {
 3789              		.loc 1 261 1 is_stmt 1 view -0
 3790              		.cfi_startproc
 3791              		@ args = 0, pretend = 0, frame = 0
 3792              		@ frame_needed = 0, uses_anonymous_args = 0
 261:Middlewares/lvgl/src/extra/layouts/grid/lv_grid.c ****     lv_style_value_t v = {
 3793              		.loc 1 261 1 is_stmt 0 view .LVU1141
 3794 0000 08B5     		push	{r3, lr}
 3795              	.LCFI35:
 3796              		.cfi_def_cfa_offset 8
 3797              		.cfi_offset 3, -8
 3798              		.cfi_offset 14, -4
 3799 0002 1346     		mov	r3, r2
 262:Middlewares/lvgl/src/extra/layouts/grid/lv_grid.c ****         .num = value
 3800              		.loc 1 262 5 is_stmt 1 view .LVU1142
ARM GAS  /tmp/cc1NzchT.s 			page 109


 265:Middlewares/lvgl/src/extra/layouts/grid/lv_grid.c **** }
 3801              		.loc 1 265 5 view .LVU1143
 3802 0004 0A46     		mov	r2, r1
 3803              	.LVL428:
 265:Middlewares/lvgl/src/extra/layouts/grid/lv_grid.c **** }
 3804              		.loc 1 265 5 is_stmt 0 view .LVU1144
 3805 0006 0249     		ldr	r1, .L211
 3806              	.LVL429:
 265:Middlewares/lvgl/src/extra/layouts/grid/lv_grid.c **** }
 3807              		.loc 1 265 5 view .LVU1145
 3808 0008 0988     		ldrh	r1, [r1]
 3809 000a FFF7FEFF 		bl	lv_obj_set_local_style_prop
 3810              	.LVL430:
 266:Middlewares/lvgl/src/extra/layouts/grid/lv_grid.c **** 
 3811              		.loc 1 266 1 view .LVU1146
 3812 000e 08BD     		pop	{r3, pc}
 3813              	.L212:
 3814              		.align	2
 3815              	.L211:
 3816 0010 00000000 		.word	.LANCHOR2
 3817              		.cfi_endproc
 3818              	.LFE191:
 3820              		.section	.text.lv_obj_set_style_grid_cell_column_span,"ax",%progbits
 3821              		.align	1
 3822              		.global	lv_obj_set_style_grid_cell_column_span
 3823              		.syntax unified
 3824              		.thumb
 3825              		.thumb_func
 3826              		.fpu softvfp
 3828              	lv_obj_set_style_grid_cell_column_span:
 3829              	.LVL431:
 3830              	.LFB192:
 269:Middlewares/lvgl/src/extra/layouts/grid/lv_grid.c ****     lv_style_value_t v = {
 3831              		.loc 1 269 1 is_stmt 1 view -0
 3832              		.cfi_startproc
 3833              		@ args = 0, pretend = 0, frame = 0
 3834              		@ frame_needed = 0, uses_anonymous_args = 0
 269:Middlewares/lvgl/src/extra/layouts/grid/lv_grid.c ****     lv_style_value_t v = {
 3835              		.loc 1 269 1 is_stmt 0 view .LVU1148
 3836 0000 08B5     		push	{r3, lr}
 3837              	.LCFI36:
 3838              		.cfi_def_cfa_offset 8
 3839              		.cfi_offset 3, -8
 3840              		.cfi_offset 14, -4
 3841 0002 1346     		mov	r3, r2
 270:Middlewares/lvgl/src/extra/layouts/grid/lv_grid.c ****         .num = value
 3842              		.loc 1 270 5 is_stmt 1 view .LVU1149
 273:Middlewares/lvgl/src/extra/layouts/grid/lv_grid.c **** }
 3843              		.loc 1 273 5 view .LVU1150
 3844 0004 0A46     		mov	r2, r1
 3845              	.LVL432:
 273:Middlewares/lvgl/src/extra/layouts/grid/lv_grid.c **** }
 3846              		.loc 1 273 5 is_stmt 0 view .LVU1151
 3847 0006 0249     		ldr	r1, .L215
 3848              	.LVL433:
 273:Middlewares/lvgl/src/extra/layouts/grid/lv_grid.c **** }
 3849              		.loc 1 273 5 view .LVU1152
ARM GAS  /tmp/cc1NzchT.s 			page 110


 3850 0008 0988     		ldrh	r1, [r1]
 3851 000a FFF7FEFF 		bl	lv_obj_set_local_style_prop
 3852              	.LVL434:
 274:Middlewares/lvgl/src/extra/layouts/grid/lv_grid.c **** 
 3853              		.loc 1 274 1 view .LVU1153
 3854 000e 08BD     		pop	{r3, pc}
 3855              	.L216:
 3856              		.align	2
 3857              	.L215:
 3858 0010 00000000 		.word	.LANCHOR0
 3859              		.cfi_endproc
 3860              	.LFE192:
 3862              		.section	.text.lv_obj_set_style_grid_cell_row_pos,"ax",%progbits
 3863              		.align	1
 3864              		.global	lv_obj_set_style_grid_cell_row_pos
 3865              		.syntax unified
 3866              		.thumb
 3867              		.thumb_func
 3868              		.fpu softvfp
 3870              	lv_obj_set_style_grid_cell_row_pos:
 3871              	.LVL435:
 3872              	.LFB193:
 277:Middlewares/lvgl/src/extra/layouts/grid/lv_grid.c ****     lv_style_value_t v = {
 3873              		.loc 1 277 1 is_stmt 1 view -0
 3874              		.cfi_startproc
 3875              		@ args = 0, pretend = 0, frame = 0
 3876              		@ frame_needed = 0, uses_anonymous_args = 0
 277:Middlewares/lvgl/src/extra/layouts/grid/lv_grid.c ****     lv_style_value_t v = {
 3877              		.loc 1 277 1 is_stmt 0 view .LVU1155
 3878 0000 08B5     		push	{r3, lr}
 3879              	.LCFI37:
 3880              		.cfi_def_cfa_offset 8
 3881              		.cfi_offset 3, -8
 3882              		.cfi_offset 14, -4
 3883 0002 1346     		mov	r3, r2
 278:Middlewares/lvgl/src/extra/layouts/grid/lv_grid.c ****         .num = value
 3884              		.loc 1 278 5 is_stmt 1 view .LVU1156
 281:Middlewares/lvgl/src/extra/layouts/grid/lv_grid.c **** }
 3885              		.loc 1 281 5 view .LVU1157
 3886 0004 0A46     		mov	r2, r1
 3887              	.LVL436:
 281:Middlewares/lvgl/src/extra/layouts/grid/lv_grid.c **** }
 3888              		.loc 1 281 5 is_stmt 0 view .LVU1158
 3889 0006 0249     		ldr	r1, .L219
 3890              	.LVL437:
 281:Middlewares/lvgl/src/extra/layouts/grid/lv_grid.c **** }
 3891              		.loc 1 281 5 view .LVU1159
 3892 0008 0988     		ldrh	r1, [r1]
 3893 000a FFF7FEFF 		bl	lv_obj_set_local_style_prop
 3894              	.LVL438:
 282:Middlewares/lvgl/src/extra/layouts/grid/lv_grid.c **** 
 3895              		.loc 1 282 1 view .LVU1160
 3896 000e 08BD     		pop	{r3, pc}
 3897              	.L220:
 3898              		.align	2
 3899              	.L219:
 3900 0010 00000000 		.word	.LANCHOR3
ARM GAS  /tmp/cc1NzchT.s 			page 111


 3901              		.cfi_endproc
 3902              	.LFE193:
 3904              		.section	.text.lv_obj_set_style_grid_cell_row_span,"ax",%progbits
 3905              		.align	1
 3906              		.global	lv_obj_set_style_grid_cell_row_span
 3907              		.syntax unified
 3908              		.thumb
 3909              		.thumb_func
 3910              		.fpu softvfp
 3912              	lv_obj_set_style_grid_cell_row_span:
 3913              	.LVL439:
 3914              	.LFB194:
 285:Middlewares/lvgl/src/extra/layouts/grid/lv_grid.c ****     lv_style_value_t v = {
 3915              		.loc 1 285 1 is_stmt 1 view -0
 3916              		.cfi_startproc
 3917              		@ args = 0, pretend = 0, frame = 0
 3918              		@ frame_needed = 0, uses_anonymous_args = 0
 285:Middlewares/lvgl/src/extra/layouts/grid/lv_grid.c ****     lv_style_value_t v = {
 3919              		.loc 1 285 1 is_stmt 0 view .LVU1162
 3920 0000 08B5     		push	{r3, lr}
 3921              	.LCFI38:
 3922              		.cfi_def_cfa_offset 8
 3923              		.cfi_offset 3, -8
 3924              		.cfi_offset 14, -4
 3925 0002 1346     		mov	r3, r2
 286:Middlewares/lvgl/src/extra/layouts/grid/lv_grid.c ****         .num = value
 3926              		.loc 1 286 5 is_stmt 1 view .LVU1163
 289:Middlewares/lvgl/src/extra/layouts/grid/lv_grid.c **** }
 3927              		.loc 1 289 5 view .LVU1164
 3928 0004 0A46     		mov	r2, r1
 3929              	.LVL440:
 289:Middlewares/lvgl/src/extra/layouts/grid/lv_grid.c **** }
 3930              		.loc 1 289 5 is_stmt 0 view .LVU1165
 3931 0006 0249     		ldr	r1, .L223
 3932              	.LVL441:
 289:Middlewares/lvgl/src/extra/layouts/grid/lv_grid.c **** }
 3933              		.loc 1 289 5 view .LVU1166
 3934 0008 0988     		ldrh	r1, [r1]
 3935 000a FFF7FEFF 		bl	lv_obj_set_local_style_prop
 3936              	.LVL442:
 290:Middlewares/lvgl/src/extra/layouts/grid/lv_grid.c **** 
 3937              		.loc 1 290 1 view .LVU1167
 3938 000e 08BD     		pop	{r3, pc}
 3939              	.L224:
 3940              		.align	2
 3941              	.L223:
 3942 0010 00000000 		.word	.LANCHOR1
 3943              		.cfi_endproc
 3944              	.LFE194:
 3946              		.section	.text.lv_obj_set_style_grid_cell_x_align,"ax",%progbits
 3947              		.align	1
 3948              		.global	lv_obj_set_style_grid_cell_x_align
 3949              		.syntax unified
 3950              		.thumb
 3951              		.thumb_func
 3952              		.fpu softvfp
 3954              	lv_obj_set_style_grid_cell_x_align:
ARM GAS  /tmp/cc1NzchT.s 			page 112


 3955              	.LVL443:
 3956              	.LFB195:
 293:Middlewares/lvgl/src/extra/layouts/grid/lv_grid.c ****     lv_style_value_t v = {
 3957              		.loc 1 293 1 is_stmt 1 view -0
 3958              		.cfi_startproc
 3959              		@ args = 0, pretend = 0, frame = 0
 3960              		@ frame_needed = 0, uses_anonymous_args = 0
 293:Middlewares/lvgl/src/extra/layouts/grid/lv_grid.c ****     lv_style_value_t v = {
 3961              		.loc 1 293 1 is_stmt 0 view .LVU1169
 3962 0000 08B5     		push	{r3, lr}
 3963              	.LCFI39:
 3964              		.cfi_def_cfa_offset 8
 3965              		.cfi_offset 3, -8
 3966              		.cfi_offset 14, -4
 3967 0002 1346     		mov	r3, r2
 294:Middlewares/lvgl/src/extra/layouts/grid/lv_grid.c ****         .num = value
 3968              		.loc 1 294 5 is_stmt 1 view .LVU1170
 297:Middlewares/lvgl/src/extra/layouts/grid/lv_grid.c **** }
 3969              		.loc 1 297 5 view .LVU1171
 3970 0004 0A46     		mov	r2, r1
 3971              	.LVL444:
 297:Middlewares/lvgl/src/extra/layouts/grid/lv_grid.c **** }
 3972              		.loc 1 297 5 is_stmt 0 view .LVU1172
 3973 0006 0249     		ldr	r1, .L227
 3974              	.LVL445:
 297:Middlewares/lvgl/src/extra/layouts/grid/lv_grid.c **** }
 3975              		.loc 1 297 5 view .LVU1173
 3976 0008 0988     		ldrh	r1, [r1]
 3977 000a FFF7FEFF 		bl	lv_obj_set_local_style_prop
 3978              	.LVL446:
 298:Middlewares/lvgl/src/extra/layouts/grid/lv_grid.c **** 
 3979              		.loc 1 298 1 view .LVU1174
 3980 000e 08BD     		pop	{r3, pc}
 3981              	.L228:
 3982              		.align	2
 3983              	.L227:
 3984 0010 00000000 		.word	.LANCHOR4
 3985              		.cfi_endproc
 3986              	.LFE195:
 3988              		.section	.text.lv_obj_set_style_grid_cell_y_align,"ax",%progbits
 3989              		.align	1
 3990              		.global	lv_obj_set_style_grid_cell_y_align
 3991              		.syntax unified
 3992              		.thumb
 3993              		.thumb_func
 3994              		.fpu softvfp
 3996              	lv_obj_set_style_grid_cell_y_align:
 3997              	.LVL447:
 3998              	.LFB196:
 301:Middlewares/lvgl/src/extra/layouts/grid/lv_grid.c ****     lv_style_value_t v = {
 3999              		.loc 1 301 1 is_stmt 1 view -0
 4000              		.cfi_startproc
 4001              		@ args = 0, pretend = 0, frame = 0
 4002              		@ frame_needed = 0, uses_anonymous_args = 0
 301:Middlewares/lvgl/src/extra/layouts/grid/lv_grid.c ****     lv_style_value_t v = {
 4003              		.loc 1 301 1 is_stmt 0 view .LVU1176
 4004 0000 08B5     		push	{r3, lr}
ARM GAS  /tmp/cc1NzchT.s 			page 113


 4005              	.LCFI40:
 4006              		.cfi_def_cfa_offset 8
 4007              		.cfi_offset 3, -8
 4008              		.cfi_offset 14, -4
 4009 0002 1346     		mov	r3, r2
 302:Middlewares/lvgl/src/extra/layouts/grid/lv_grid.c ****         .num = value
 4010              		.loc 1 302 5 is_stmt 1 view .LVU1177
 305:Middlewares/lvgl/src/extra/layouts/grid/lv_grid.c **** }
 4011              		.loc 1 305 5 view .LVU1178
 4012 0004 0A46     		mov	r2, r1
 4013              	.LVL448:
 305:Middlewares/lvgl/src/extra/layouts/grid/lv_grid.c **** }
 4014              		.loc 1 305 5 is_stmt 0 view .LVU1179
 4015 0006 0249     		ldr	r1, .L231
 4016              	.LVL449:
 305:Middlewares/lvgl/src/extra/layouts/grid/lv_grid.c **** }
 4017              		.loc 1 305 5 view .LVU1180
 4018 0008 0988     		ldrh	r1, [r1]
 4019 000a FFF7FEFF 		bl	lv_obj_set_local_style_prop
 4020              	.LVL450:
 306:Middlewares/lvgl/src/extra/layouts/grid/lv_grid.c **** 
 4021              		.loc 1 306 1 view .LVU1181
 4022 000e 08BD     		pop	{r3, pc}
 4023              	.L232:
 4024              		.align	2
 4025              	.L231:
 4026 0010 00000000 		.word	.LANCHOR5
 4027              		.cfi_endproc
 4028              	.LFE196:
 4030              		.section	.text.lv_obj_set_grid_cell,"ax",%progbits
 4031              		.align	1
 4032              		.global	lv_obj_set_grid_cell
 4033              		.syntax unified
 4034              		.thumb
 4035              		.thumb_func
 4036              		.fpu softvfp
 4038              	lv_obj_set_grid_cell:
 4039              	.LVL451:
 4040              	.LFB176:
 133:Middlewares/lvgl/src/extra/layouts/grid/lv_grid.c ****     lv_obj_set_style_grid_cell_column_pos(obj, col_pos, 0);
 4041              		.loc 1 133 1 is_stmt 1 view -0
 4042              		.cfi_startproc
 4043              		@ args = 12, pretend = 0, frame = 0
 4044              		@ frame_needed = 0, uses_anonymous_args = 0
 133:Middlewares/lvgl/src/extra/layouts/grid/lv_grid.c ****     lv_obj_set_style_grid_cell_column_pos(obj, col_pos, 0);
 4045              		.loc 1 133 1 is_stmt 0 view .LVU1183
 4046 0000 70B5     		push	{r4, r5, r6, lr}
 4047              	.LCFI41:
 4048              		.cfi_def_cfa_offset 16
 4049              		.cfi_offset 4, -16
 4050              		.cfi_offset 5, -12
 4051              		.cfi_offset 6, -8
 4052              		.cfi_offset 14, -4
 4053 0002 0446     		mov	r4, r0
 4054 0004 0E46     		mov	r6, r1
 4055 0006 1146     		mov	r1, r2
 4056              	.LVL452:
ARM GAS  /tmp/cc1NzchT.s 			page 114


 133:Middlewares/lvgl/src/extra/layouts/grid/lv_grid.c ****     lv_obj_set_style_grid_cell_column_pos(obj, col_pos, 0);
 4057              		.loc 1 133 1 view .LVU1184
 4058 0008 1D46     		mov	r5, r3
 134:Middlewares/lvgl/src/extra/layouts/grid/lv_grid.c ****     lv_obj_set_style_grid_cell_row_pos(obj, row_pos, 0);
 4059              		.loc 1 134 5 is_stmt 1 view .LVU1185
 4060 000a 0022     		movs	r2, #0
 4061              	.LVL453:
 134:Middlewares/lvgl/src/extra/layouts/grid/lv_grid.c ****     lv_obj_set_style_grid_cell_row_pos(obj, row_pos, 0);
 4062              		.loc 1 134 5 is_stmt 0 view .LVU1186
 4063 000c FFF7FEFF 		bl	lv_obj_set_style_grid_cell_column_pos
 4064              	.LVL454:
 135:Middlewares/lvgl/src/extra/layouts/grid/lv_grid.c ****     lv_obj_set_style_grid_cell_x_align(obj, x_align, 0);
 4065              		.loc 1 135 5 is_stmt 1 view .LVU1187
 4066 0010 0022     		movs	r2, #0
 4067 0012 9DF81410 		ldrb	r1, [sp, #20]	@ zero_extendqisi2
 4068 0016 2046     		mov	r0, r4
 4069 0018 FFF7FEFF 		bl	lv_obj_set_style_grid_cell_row_pos
 4070              	.LVL455:
 136:Middlewares/lvgl/src/extra/layouts/grid/lv_grid.c ****     lv_obj_set_style_grid_cell_column_span(obj, col_span, 0);
 4071              		.loc 1 136 5 view .LVU1188
 4072 001c 0022     		movs	r2, #0
 4073 001e 3146     		mov	r1, r6
 4074 0020 2046     		mov	r0, r4
 4075 0022 FFF7FEFF 		bl	lv_obj_set_style_grid_cell_x_align
 4076              	.LVL456:
 137:Middlewares/lvgl/src/extra/layouts/grid/lv_grid.c ****     lv_obj_set_style_grid_cell_row_span(obj, row_span, 0);
 4077              		.loc 1 137 5 view .LVU1189
 4078 0026 0022     		movs	r2, #0
 4079 0028 2946     		mov	r1, r5
 4080 002a 2046     		mov	r0, r4
 4081 002c FFF7FEFF 		bl	lv_obj_set_style_grid_cell_column_span
 4082              	.LVL457:
 138:Middlewares/lvgl/src/extra/layouts/grid/lv_grid.c ****     lv_obj_set_style_grid_cell_y_align(obj, y_align, 0);
 4083              		.loc 1 138 5 view .LVU1190
 4084 0030 0022     		movs	r2, #0
 4085 0032 9DF81810 		ldrb	r1, [sp, #24]	@ zero_extendqisi2
 4086 0036 2046     		mov	r0, r4
 4087 0038 FFF7FEFF 		bl	lv_obj_set_style_grid_cell_row_span
 4088              	.LVL458:
 139:Middlewares/lvgl/src/extra/layouts/grid/lv_grid.c **** 
 4089              		.loc 1 139 5 view .LVU1191
 4090 003c 0022     		movs	r2, #0
 4091 003e 9DF81010 		ldrb	r1, [sp, #16]	@ zero_extendqisi2
 4092 0042 2046     		mov	r0, r4
 4093 0044 FFF7FEFF 		bl	lv_obj_set_style_grid_cell_y_align
 4094              	.LVL459:
 141:Middlewares/lvgl/src/extra/layouts/grid/lv_grid.c **** }
 4095              		.loc 1 141 5 view .LVU1192
 4096 0048 2046     		mov	r0, r4
 4097 004a FFF7FEFF 		bl	lv_obj_get_parent
 4098              	.LVL460:
 4099 004e FFF7FEFF 		bl	lv_obj_mark_layout_as_dirty
 4100              	.LVL461:
 142:Middlewares/lvgl/src/extra/layouts/grid/lv_grid.c **** 
 4101              		.loc 1 142 1 is_stmt 0 view .LVU1193
 4102 0052 70BD     		pop	{r4, r5, r6, pc}
 142:Middlewares/lvgl/src/extra/layouts/grid/lv_grid.c **** 
ARM GAS  /tmp/cc1NzchT.s 			page 115


 4103              		.loc 1 142 1 view .LVU1194
 4104              		.cfi_endproc
 4105              	.LFE176:
 4107              		.global	LV_STYLE_GRID_CELL_Y_ALIGN
 4108              		.global	LV_STYLE_GRID_CELL_ROW_SPAN
 4109              		.global	LV_STYLE_GRID_CELL_ROW_POS
 4110              		.global	LV_STYLE_GRID_CELL_X_ALIGN
 4111              		.global	LV_STYLE_GRID_CELL_COLUMN_SPAN
 4112              		.global	LV_STYLE_GRID_CELL_COLUMN_POS
 4113              		.global	LV_STYLE_GRID_ROW_ALIGN
 4114              		.global	LV_STYLE_GRID_ROW_DSC_ARRAY
 4115              		.global	LV_STYLE_GRID_COLUMN_ALIGN
 4116              		.global	LV_STYLE_GRID_COLUMN_DSC_ARRAY
 4117              		.global	LV_LAYOUT_GRID
 4118              		.section	.bss.LV_LAYOUT_GRID,"aw",%nobits
 4119              		.align	2
 4120              		.set	.LANCHOR10,. + 0
 4123              	LV_LAYOUT_GRID:
 4124 0000 00000000 		.space	4
 4125              		.section	.bss.LV_STYLE_GRID_CELL_COLUMN_POS,"aw",%nobits
 4126              		.align	1
 4127              		.set	.LANCHOR2,. + 0
 4130              	LV_STYLE_GRID_CELL_COLUMN_POS:
 4131 0000 0000     		.space	2
 4132              		.section	.bss.LV_STYLE_GRID_CELL_COLUMN_SPAN,"aw",%nobits
 4133              		.align	1
 4134              		.set	.LANCHOR0,. + 0
 4137              	LV_STYLE_GRID_CELL_COLUMN_SPAN:
 4138 0000 0000     		.space	2
 4139              		.section	.bss.LV_STYLE_GRID_CELL_ROW_POS,"aw",%nobits
 4140              		.align	1
 4141              		.set	.LANCHOR3,. + 0
 4144              	LV_STYLE_GRID_CELL_ROW_POS:
 4145 0000 0000     		.space	2
 4146              		.section	.bss.LV_STYLE_GRID_CELL_ROW_SPAN,"aw",%nobits
 4147              		.align	1
 4148              		.set	.LANCHOR1,. + 0
 4151              	LV_STYLE_GRID_CELL_ROW_SPAN:
 4152 0000 0000     		.space	2
 4153              		.section	.bss.LV_STYLE_GRID_CELL_X_ALIGN,"aw",%nobits
 4154              		.align	1
 4155              		.set	.LANCHOR4,. + 0
 4158              	LV_STYLE_GRID_CELL_X_ALIGN:
 4159 0000 0000     		.space	2
 4160              		.section	.bss.LV_STYLE_GRID_CELL_Y_ALIGN,"aw",%nobits
 4161              		.align	1
 4162              		.set	.LANCHOR5,. + 0
 4165              	LV_STYLE_GRID_CELL_Y_ALIGN:
 4166 0000 0000     		.space	2
 4167              		.section	.bss.LV_STYLE_GRID_COLUMN_ALIGN,"aw",%nobits
 4168              		.align	1
 4169              		.set	.LANCHOR8,. + 0
 4172              	LV_STYLE_GRID_COLUMN_ALIGN:
 4173 0000 0000     		.space	2
 4174              		.section	.bss.LV_STYLE_GRID_COLUMN_DSC_ARRAY,"aw",%nobits
 4175              		.align	1
 4176              		.set	.LANCHOR7,. + 0
ARM GAS  /tmp/cc1NzchT.s 			page 116


 4179              	LV_STYLE_GRID_COLUMN_DSC_ARRAY:
 4180 0000 0000     		.space	2
 4181              		.section	.bss.LV_STYLE_GRID_ROW_ALIGN,"aw",%nobits
 4182              		.align	1
 4183              		.set	.LANCHOR9,. + 0
 4186              	LV_STYLE_GRID_ROW_ALIGN:
 4187 0000 0000     		.space	2
 4188              		.section	.bss.LV_STYLE_GRID_ROW_DSC_ARRAY,"aw",%nobits
 4189              		.align	1
 4190              		.set	.LANCHOR6,. + 0
 4193              	LV_STYLE_GRID_ROW_DSC_ARRAY:
 4194 0000 0000     		.space	2
 4195              		.text
 4196              	.Letext0:
 4197              		.file 5 "/home/akinya/gcc-arm-none-eabi/arm-none-eabi/include/machine/_default_types.h"
 4198              		.file 6 "/home/akinya/gcc-arm-none-eabi/arm-none-eabi/include/sys/_stdint.h"
 4199              		.file 7 "Middlewares/lvgl/src/extra/layouts/grid/../flex/../../../core/../misc/lv_color.h"
 4200              		.file 8 "Middlewares/lvgl/src/extra/layouts/grid/../flex/../../../core/../misc/lv_bidi.h"
 4201              		.file 9 "Middlewares/lvgl/src/extra/layouts/grid/../flex/../../../core/../misc/lv_style.h"
 4202              		.file 10 "Middlewares/lvgl/src/extra/layouts/grid/../flex/../../../core/../hal/../misc/lv_ll.h"
 4203              		.file 11 "Middlewares/lvgl/src/extra/layouts/grid/../flex/../../../core/lv_obj.h"
 4204              		.file 12 "Middlewares/lvgl/src/extra/layouts/grid/../flex/../../../core/lv_group.h"
 4205              		.file 13 "Middlewares/lvgl/src/extra/layouts/grid/../flex/../../../core/lv_obj_scroll.h"
 4206              		.file 14 "Middlewares/lvgl/src/extra/layouts/grid/../flex/../../../core/lv_obj_style.h"
 4207              		.file 15 "Middlewares/lvgl/src/extra/layouts/grid/../flex/../../../core/lv_obj_class.h"
 4208              		.file 16 "Middlewares/lvgl/src/extra/layouts/grid/../flex/../../../core/lv_event.h"
 4209              		.file 17 "Middlewares/lvgl/src/extra/layouts/grid/../flex/../../../core/lv_obj_pos.h"
 4210              		.file 18 "Middlewares/lvgl/src/extra/layouts/grid/../flex/../../../core/lv_obj_tree.h"
 4211              		.file 19 "Middlewares/lvgl/src/extra/layouts/grid/../flex/../../../core/../hal/../misc/lv_mem.h"
ARM GAS  /tmp/cc1NzchT.s 			page 117


DEFINED SYMBOLS
                            *ABS*:0000000000000000 lv_grid.c
     /tmp/cc1NzchT.s:16     .text.grid_align:0000000000000000 $t
     /tmp/cc1NzchT.s:23     .text.grid_align:0000000000000000 grid_align
     /tmp/cc1NzchT.s:143    .text.grid_align:0000000000000064 $d
     /tmp/cc1NzchT.s:150    .text.grid_align:0000000000000080 $t
     /tmp/cc1NzchT.s:347    .text.count_tracks:0000000000000000 $t
     /tmp/cc1NzchT.s:353    .text.count_tracks:0000000000000000 count_tracks
     /tmp/cc1NzchT.s:392    .text.item_repos:0000000000000000 $t
     /tmp/cc1NzchT.s:398    .text.item_repos:0000000000000000 item_repos
     /tmp/cc1NzchT.s:1189   .text.item_repos:0000000000000318 $d
     /tmp/cc1NzchT.s:1200   .text.item_repos:0000000000000334 $t
     /tmp/cc1NzchT.s:1291   .text.item_repos:00000000000003c4 $d
     /tmp/cc1NzchT.s:1296   .text.calc_free:0000000000000000 $t
     /tmp/cc1NzchT.s:1302   .text.calc_free:0000000000000000 calc_free
     /tmp/cc1NzchT.s:1341   .text.calc_rows:0000000000000000 $t
     /tmp/cc1NzchT.s:1347   .text.calc_rows:0000000000000000 calc_rows
     /tmp/cc1NzchT.s:1811   .text.calc_rows:0000000000000164 $d
     /tmp/cc1NzchT.s:1820   .text.calc_cols:0000000000000000 $t
     /tmp/cc1NzchT.s:1826   .text.calc_cols:0000000000000000 calc_cols
     /tmp/cc1NzchT.s:2334   .text.calc_cols:0000000000000188 $d
     /tmp/cc1NzchT.s:2343   .text.calc:0000000000000000 $t
     /tmp/cc1NzchT.s:2349   .text.calc:0000000000000000 calc
     /tmp/cc1NzchT.s:2663   .text.calc:0000000000000130 $d
     /tmp/cc1NzchT.s:2669   .text.grid_update:0000000000000000 $t
     /tmp/cc1NzchT.s:2675   .text.grid_update:0000000000000000 grid_update
     /tmp/cc1NzchT.s:2989   .text.grid_update:00000000000000f4 $d
     /tmp/cc1NzchT.s:2995   .text.lv_grid_init:0000000000000000 $t
     /tmp/cc1NzchT.s:3002   .text.lv_grid_init:0000000000000000 lv_grid_init
     /tmp/cc1NzchT.s:3107   .text.lv_grid_init:0000000000000088 $d
     /tmp/cc1NzchT.s:3123   .text.lv_style_set_grid_row_dsc_array:0000000000000000 $t
     /tmp/cc1NzchT.s:3130   .text.lv_style_set_grid_row_dsc_array:0000000000000000 lv_style_set_grid_row_dsc_array
     /tmp/cc1NzchT.s:3157   .text.lv_style_set_grid_row_dsc_array:0000000000000010 $d
     /tmp/cc1NzchT.s:3162   .text.lv_style_set_grid_column_dsc_array:0000000000000000 $t
     /tmp/cc1NzchT.s:3169   .text.lv_style_set_grid_column_dsc_array:0000000000000000 lv_style_set_grid_column_dsc_array
     /tmp/cc1NzchT.s:3196   .text.lv_style_set_grid_column_dsc_array:0000000000000010 $d
     /tmp/cc1NzchT.s:3201   .text.lv_style_set_grid_row_align:0000000000000000 $t
     /tmp/cc1NzchT.s:3208   .text.lv_style_set_grid_row_align:0000000000000000 lv_style_set_grid_row_align
     /tmp/cc1NzchT.s:3235   .text.lv_style_set_grid_row_align:0000000000000010 $d
     /tmp/cc1NzchT.s:3240   .text.lv_style_set_grid_column_align:0000000000000000 $t
     /tmp/cc1NzchT.s:3247   .text.lv_style_set_grid_column_align:0000000000000000 lv_style_set_grid_column_align
     /tmp/cc1NzchT.s:3274   .text.lv_style_set_grid_column_align:0000000000000010 $d
     /tmp/cc1NzchT.s:3279   .text.lv_style_set_grid_cell_column_pos:0000000000000000 $t
     /tmp/cc1NzchT.s:3286   .text.lv_style_set_grid_cell_column_pos:0000000000000000 lv_style_set_grid_cell_column_pos
     /tmp/cc1NzchT.s:3313   .text.lv_style_set_grid_cell_column_pos:0000000000000010 $d
     /tmp/cc1NzchT.s:3318   .text.lv_style_set_grid_cell_column_span:0000000000000000 $t
     /tmp/cc1NzchT.s:3325   .text.lv_style_set_grid_cell_column_span:0000000000000000 lv_style_set_grid_cell_column_span
     /tmp/cc1NzchT.s:3352   .text.lv_style_set_grid_cell_column_span:0000000000000010 $d
     /tmp/cc1NzchT.s:3357   .text.lv_style_set_grid_cell_row_pos:0000000000000000 $t
     /tmp/cc1NzchT.s:3364   .text.lv_style_set_grid_cell_row_pos:0000000000000000 lv_style_set_grid_cell_row_pos
     /tmp/cc1NzchT.s:3391   .text.lv_style_set_grid_cell_row_pos:0000000000000010 $d
     /tmp/cc1NzchT.s:3396   .text.lv_style_set_grid_cell_row_span:0000000000000000 $t
     /tmp/cc1NzchT.s:3403   .text.lv_style_set_grid_cell_row_span:0000000000000000 lv_style_set_grid_cell_row_span
     /tmp/cc1NzchT.s:3430   .text.lv_style_set_grid_cell_row_span:0000000000000010 $d
     /tmp/cc1NzchT.s:3435   .text.lv_style_set_grid_cell_x_align:0000000000000000 $t
     /tmp/cc1NzchT.s:3442   .text.lv_style_set_grid_cell_x_align:0000000000000000 lv_style_set_grid_cell_x_align
     /tmp/cc1NzchT.s:3469   .text.lv_style_set_grid_cell_x_align:0000000000000010 $d
ARM GAS  /tmp/cc1NzchT.s 			page 118


     /tmp/cc1NzchT.s:3474   .text.lv_style_set_grid_cell_y_align:0000000000000000 $t
     /tmp/cc1NzchT.s:3481   .text.lv_style_set_grid_cell_y_align:0000000000000000 lv_style_set_grid_cell_y_align
     /tmp/cc1NzchT.s:3508   .text.lv_style_set_grid_cell_y_align:0000000000000010 $d
     /tmp/cc1NzchT.s:3513   .text.lv_obj_set_style_grid_row_dsc_array:0000000000000000 $t
     /tmp/cc1NzchT.s:3520   .text.lv_obj_set_style_grid_row_dsc_array:0000000000000000 lv_obj_set_style_grid_row_dsc_array
     /tmp/cc1NzchT.s:3550   .text.lv_obj_set_style_grid_row_dsc_array:0000000000000010 $d
     /tmp/cc1NzchT.s:3555   .text.lv_obj_set_style_grid_column_dsc_array:0000000000000000 $t
     /tmp/cc1NzchT.s:3562   .text.lv_obj_set_style_grid_column_dsc_array:0000000000000000 lv_obj_set_style_grid_column_dsc_array
     /tmp/cc1NzchT.s:3592   .text.lv_obj_set_style_grid_column_dsc_array:0000000000000010 $d
     /tmp/cc1NzchT.s:3597   .text.lv_obj_set_grid_dsc_array:0000000000000000 $t
     /tmp/cc1NzchT.s:3604   .text.lv_obj_set_grid_dsc_array:0000000000000000 lv_obj_set_grid_dsc_array
     /tmp/cc1NzchT.s:3647   .text.lv_obj_set_grid_dsc_array:0000000000000024 $d
     /tmp/cc1NzchT.s:3652   .text.lv_obj_set_style_grid_row_align:0000000000000000 $t
     /tmp/cc1NzchT.s:3659   .text.lv_obj_set_style_grid_row_align:0000000000000000 lv_obj_set_style_grid_row_align
     /tmp/cc1NzchT.s:3689   .text.lv_obj_set_style_grid_row_align:0000000000000010 $d
     /tmp/cc1NzchT.s:3694   .text.lv_obj_set_style_grid_column_align:0000000000000000 $t
     /tmp/cc1NzchT.s:3701   .text.lv_obj_set_style_grid_column_align:0000000000000000 lv_obj_set_style_grid_column_align
     /tmp/cc1NzchT.s:3731   .text.lv_obj_set_style_grid_column_align:0000000000000010 $d
     /tmp/cc1NzchT.s:3736   .text.lv_obj_set_grid_align:0000000000000000 $t
     /tmp/cc1NzchT.s:3743   .text.lv_obj_set_grid_align:0000000000000000 lv_obj_set_grid_align
     /tmp/cc1NzchT.s:3779   .text.lv_obj_set_style_grid_cell_column_pos:0000000000000000 $t
     /tmp/cc1NzchT.s:3786   .text.lv_obj_set_style_grid_cell_column_pos:0000000000000000 lv_obj_set_style_grid_cell_column_pos
     /tmp/cc1NzchT.s:3816   .text.lv_obj_set_style_grid_cell_column_pos:0000000000000010 $d
     /tmp/cc1NzchT.s:3821   .text.lv_obj_set_style_grid_cell_column_span:0000000000000000 $t
     /tmp/cc1NzchT.s:3828   .text.lv_obj_set_style_grid_cell_column_span:0000000000000000 lv_obj_set_style_grid_cell_column_span
     /tmp/cc1NzchT.s:3858   .text.lv_obj_set_style_grid_cell_column_span:0000000000000010 $d
     /tmp/cc1NzchT.s:3863   .text.lv_obj_set_style_grid_cell_row_pos:0000000000000000 $t
     /tmp/cc1NzchT.s:3870   .text.lv_obj_set_style_grid_cell_row_pos:0000000000000000 lv_obj_set_style_grid_cell_row_pos
     /tmp/cc1NzchT.s:3900   .text.lv_obj_set_style_grid_cell_row_pos:0000000000000010 $d
     /tmp/cc1NzchT.s:3905   .text.lv_obj_set_style_grid_cell_row_span:0000000000000000 $t
     /tmp/cc1NzchT.s:3912   .text.lv_obj_set_style_grid_cell_row_span:0000000000000000 lv_obj_set_style_grid_cell_row_span
     /tmp/cc1NzchT.s:3942   .text.lv_obj_set_style_grid_cell_row_span:0000000000000010 $d
     /tmp/cc1NzchT.s:3947   .text.lv_obj_set_style_grid_cell_x_align:0000000000000000 $t
     /tmp/cc1NzchT.s:3954   .text.lv_obj_set_style_grid_cell_x_align:0000000000000000 lv_obj_set_style_grid_cell_x_align
     /tmp/cc1NzchT.s:3984   .text.lv_obj_set_style_grid_cell_x_align:0000000000000010 $d
     /tmp/cc1NzchT.s:3989   .text.lv_obj_set_style_grid_cell_y_align:0000000000000000 $t
     /tmp/cc1NzchT.s:3996   .text.lv_obj_set_style_grid_cell_y_align:0000000000000000 lv_obj_set_style_grid_cell_y_align
     /tmp/cc1NzchT.s:4026   .text.lv_obj_set_style_grid_cell_y_align:0000000000000010 $d
     /tmp/cc1NzchT.s:4031   .text.lv_obj_set_grid_cell:0000000000000000 $t
     /tmp/cc1NzchT.s:4038   .text.lv_obj_set_grid_cell:0000000000000000 lv_obj_set_grid_cell
     /tmp/cc1NzchT.s:4165   .bss.LV_STYLE_GRID_CELL_Y_ALIGN:0000000000000000 LV_STYLE_GRID_CELL_Y_ALIGN
     /tmp/cc1NzchT.s:4151   .bss.LV_STYLE_GRID_CELL_ROW_SPAN:0000000000000000 LV_STYLE_GRID_CELL_ROW_SPAN
     /tmp/cc1NzchT.s:4144   .bss.LV_STYLE_GRID_CELL_ROW_POS:0000000000000000 LV_STYLE_GRID_CELL_ROW_POS
     /tmp/cc1NzchT.s:4158   .bss.LV_STYLE_GRID_CELL_X_ALIGN:0000000000000000 LV_STYLE_GRID_CELL_X_ALIGN
     /tmp/cc1NzchT.s:4137   .bss.LV_STYLE_GRID_CELL_COLUMN_SPAN:0000000000000000 LV_STYLE_GRID_CELL_COLUMN_SPAN
     /tmp/cc1NzchT.s:4130   .bss.LV_STYLE_GRID_CELL_COLUMN_POS:0000000000000000 LV_STYLE_GRID_CELL_COLUMN_POS
     /tmp/cc1NzchT.s:4186   .bss.LV_STYLE_GRID_ROW_ALIGN:0000000000000000 LV_STYLE_GRID_ROW_ALIGN
     /tmp/cc1NzchT.s:4193   .bss.LV_STYLE_GRID_ROW_DSC_ARRAY:0000000000000000 LV_STYLE_GRID_ROW_DSC_ARRAY
     /tmp/cc1NzchT.s:4172   .bss.LV_STYLE_GRID_COLUMN_ALIGN:0000000000000000 LV_STYLE_GRID_COLUMN_ALIGN
     /tmp/cc1NzchT.s:4179   .bss.LV_STYLE_GRID_COLUMN_DSC_ARRAY:0000000000000000 LV_STYLE_GRID_COLUMN_DSC_ARRAY
     /tmp/cc1NzchT.s:4123   .bss.LV_LAYOUT_GRID:0000000000000000 LV_LAYOUT_GRID
     /tmp/cc1NzchT.s:4119   .bss.LV_LAYOUT_GRID:0000000000000000 $d
     /tmp/cc1NzchT.s:4126   .bss.LV_STYLE_GRID_CELL_COLUMN_POS:0000000000000000 $d
     /tmp/cc1NzchT.s:4133   .bss.LV_STYLE_GRID_CELL_COLUMN_SPAN:0000000000000000 $d
     /tmp/cc1NzchT.s:4140   .bss.LV_STYLE_GRID_CELL_ROW_POS:0000000000000000 $d
     /tmp/cc1NzchT.s:4147   .bss.LV_STYLE_GRID_CELL_ROW_SPAN:0000000000000000 $d
     /tmp/cc1NzchT.s:4154   .bss.LV_STYLE_GRID_CELL_X_ALIGN:0000000000000000 $d
ARM GAS  /tmp/cc1NzchT.s 			page 119


     /tmp/cc1NzchT.s:4161   .bss.LV_STYLE_GRID_CELL_Y_ALIGN:0000000000000000 $d
     /tmp/cc1NzchT.s:4168   .bss.LV_STYLE_GRID_COLUMN_ALIGN:0000000000000000 $d
     /tmp/cc1NzchT.s:4175   .bss.LV_STYLE_GRID_COLUMN_DSC_ARRAY:0000000000000000 $d
     /tmp/cc1NzchT.s:4182   .bss.LV_STYLE_GRID_ROW_ALIGN:0000000000000000 $d
     /tmp/cc1NzchT.s:4189   .bss.LV_STYLE_GRID_ROW_DSC_ARRAY:0000000000000000 $d

UNDEFINED SYMBOLS
lv_obj_has_flag_any
lv_obj_get_style_prop
lv_obj_get_width
lv_obj_invalidate
lv_area_set_width
lv_area_set_height
lv_event_send
lv_obj_get_parent
lv_obj_get_height
lv_obj_move_children_by
lv_mem_buf_release
lv_mem_buf_get
lv_obj_get_child_cnt
lv_obj_get_child
lv_obj_get_content_height
lv_obj_get_content_width
lv_memset_00
lv_obj_get_scroll_x
lv_obj_get_scroll_y
lv_obj_refr_size
lv_layout_register
lv_style_register_prop
lv_style_set_prop
lv_obj_set_local_style_prop
lv_obj_set_style_layout
lv_obj_mark_layout_as_dirty
