ARM GAS  /tmp/cc8jBXxw.s 			page 1


   1              		.cpu cortex-m3
   2              		.eabi_attribute 20, 1
   3              		.eabi_attribute 21, 1
   4              		.eabi_attribute 23, 3
   5              		.eabi_attribute 24, 1
   6              		.eabi_attribute 25, 1
   7              		.eabi_attribute 26, 1
   8              		.eabi_attribute 30, 1
   9              		.eabi_attribute 34, 1
  10              		.eabi_attribute 18, 4
  11              		.file	"lv_hal_indev.c"
  12              		.text
  13              	.Ltext0:
  14              		.cfi_sections	.debug_frame
  15              		.section	.text.lv_indev_drv_init,"ax",%progbits
  16              		.align	1
  17              		.global	lv_indev_drv_init
  18              		.arch armv7-m
  19              		.syntax unified
  20              		.thumb
  21              		.thumb_func
  22              		.fpu softvfp
  24              	lv_indev_drv_init:
  25              	.LVL0:
  26              	.LFB147:
  27              		.file 1 "Middlewares/lvgl/src/hal/lv_hal_indev.c"
   1:Middlewares/lvgl/src/hal/lv_hal_indev.c **** /**
   2:Middlewares/lvgl/src/hal/lv_hal_indev.c ****  * @file lv_hal_indev.c
   3:Middlewares/lvgl/src/hal/lv_hal_indev.c ****  *
   4:Middlewares/lvgl/src/hal/lv_hal_indev.c ****  * @description Input device HAL interface
   5:Middlewares/lvgl/src/hal/lv_hal_indev.c ****  *
   6:Middlewares/lvgl/src/hal/lv_hal_indev.c ****  */
   7:Middlewares/lvgl/src/hal/lv_hal_indev.c **** 
   8:Middlewares/lvgl/src/hal/lv_hal_indev.c **** /*********************
   9:Middlewares/lvgl/src/hal/lv_hal_indev.c ****  *      INCLUDES
  10:Middlewares/lvgl/src/hal/lv_hal_indev.c ****  *********************/
  11:Middlewares/lvgl/src/hal/lv_hal_indev.c **** #include "../misc/lv_assert.h"
  12:Middlewares/lvgl/src/hal/lv_hal_indev.c **** #include "../hal/lv_hal_indev.h"
  13:Middlewares/lvgl/src/hal/lv_hal_indev.c **** #include "../core/lv_indev.h"
  14:Middlewares/lvgl/src/hal/lv_hal_indev.c **** #include "../misc/lv_mem.h"
  15:Middlewares/lvgl/src/hal/lv_hal_indev.c **** #include "../misc/lv_gc.h"
  16:Middlewares/lvgl/src/hal/lv_hal_indev.c **** #include "lv_hal_disp.h"
  17:Middlewares/lvgl/src/hal/lv_hal_indev.c **** 
  18:Middlewares/lvgl/src/hal/lv_hal_indev.c **** /*********************
  19:Middlewares/lvgl/src/hal/lv_hal_indev.c ****  *      DEFINES
  20:Middlewares/lvgl/src/hal/lv_hal_indev.c ****  *********************/
  21:Middlewares/lvgl/src/hal/lv_hal_indev.c **** 
  22:Middlewares/lvgl/src/hal/lv_hal_indev.c **** /**********************
  23:Middlewares/lvgl/src/hal/lv_hal_indev.c ****  *      TYPEDEFS
  24:Middlewares/lvgl/src/hal/lv_hal_indev.c ****  **********************/
  25:Middlewares/lvgl/src/hal/lv_hal_indev.c **** 
  26:Middlewares/lvgl/src/hal/lv_hal_indev.c **** /**********************
  27:Middlewares/lvgl/src/hal/lv_hal_indev.c ****  *  GLOBAL PROTOTYPES
  28:Middlewares/lvgl/src/hal/lv_hal_indev.c ****  **********************/
  29:Middlewares/lvgl/src/hal/lv_hal_indev.c **** 
  30:Middlewares/lvgl/src/hal/lv_hal_indev.c **** /**********************
  31:Middlewares/lvgl/src/hal/lv_hal_indev.c ****  *  STATIC PROTOTYPES
ARM GAS  /tmp/cc8jBXxw.s 			page 2


  32:Middlewares/lvgl/src/hal/lv_hal_indev.c ****  **********************/
  33:Middlewares/lvgl/src/hal/lv_hal_indev.c **** 
  34:Middlewares/lvgl/src/hal/lv_hal_indev.c **** /**********************
  35:Middlewares/lvgl/src/hal/lv_hal_indev.c ****  *  STATIC VARIABLES
  36:Middlewares/lvgl/src/hal/lv_hal_indev.c ****  **********************/
  37:Middlewares/lvgl/src/hal/lv_hal_indev.c **** 
  38:Middlewares/lvgl/src/hal/lv_hal_indev.c **** /**********************
  39:Middlewares/lvgl/src/hal/lv_hal_indev.c ****  *      MACROS
  40:Middlewares/lvgl/src/hal/lv_hal_indev.c ****  **********************/
  41:Middlewares/lvgl/src/hal/lv_hal_indev.c **** #if LV_LOG_TRACE_INDEV
  42:Middlewares/lvgl/src/hal/lv_hal_indev.c **** #  define INDEV_TRACE(...) LV_LOG_TRACE( __VA_ARGS__)
  43:Middlewares/lvgl/src/hal/lv_hal_indev.c **** #else
  44:Middlewares/lvgl/src/hal/lv_hal_indev.c **** #  define INDEV_TRACE(...)
  45:Middlewares/lvgl/src/hal/lv_hal_indev.c **** #endif
  46:Middlewares/lvgl/src/hal/lv_hal_indev.c **** 
  47:Middlewares/lvgl/src/hal/lv_hal_indev.c **** /**********************
  48:Middlewares/lvgl/src/hal/lv_hal_indev.c ****  *   GLOBAL FUNCTIONS
  49:Middlewares/lvgl/src/hal/lv_hal_indev.c ****  **********************/
  50:Middlewares/lvgl/src/hal/lv_hal_indev.c **** 
  51:Middlewares/lvgl/src/hal/lv_hal_indev.c **** /**
  52:Middlewares/lvgl/src/hal/lv_hal_indev.c ****  * Initialize an input device driver with default values.
  53:Middlewares/lvgl/src/hal/lv_hal_indev.c ****  * It is used to surly have known values in the fields ant not memory junk.
  54:Middlewares/lvgl/src/hal/lv_hal_indev.c ****  * After it you can set the fields.
  55:Middlewares/lvgl/src/hal/lv_hal_indev.c ****  * @param driver pointer to driver variable to initialize
  56:Middlewares/lvgl/src/hal/lv_hal_indev.c ****  */
  57:Middlewares/lvgl/src/hal/lv_hal_indev.c **** void lv_indev_drv_init(lv_indev_drv_t * driver)
  58:Middlewares/lvgl/src/hal/lv_hal_indev.c **** {
  28              		.loc 1 58 1 view -0
  29              		.cfi_startproc
  30              		@ args = 0, pretend = 0, frame = 0
  31              		@ frame_needed = 0, uses_anonymous_args = 0
  32              		.loc 1 58 1 is_stmt 0 view .LVU1
  33 0000 10B5     		push	{r4, lr}
  34              	.LCFI0:
  35              		.cfi_def_cfa_offset 8
  36              		.cfi_offset 4, -8
  37              		.cfi_offset 14, -4
  38 0002 0446     		mov	r4, r0
  59:Middlewares/lvgl/src/hal/lv_hal_indev.c ****     lv_memset_00(driver, sizeof(lv_indev_drv_t));
  39              		.loc 1 59 5 is_stmt 1 view .LVU2
  40 0004 2021     		movs	r1, #32
  41 0006 FFF7FEFF 		bl	lv_memset_00
  42              	.LVL1:
  60:Middlewares/lvgl/src/hal/lv_hal_indev.c **** 
  61:Middlewares/lvgl/src/hal/lv_hal_indev.c ****     driver->type                 = LV_INDEV_TYPE_NONE;
  43              		.loc 1 61 5 view .LVU3
  44              		.loc 1 61 34 is_stmt 0 view .LVU4
  45 000a 0023     		movs	r3, #0
  46 000c 2370     		strb	r3, [r4]
  62:Middlewares/lvgl/src/hal/lv_hal_indev.c ****     driver->scroll_limit         = LV_INDEV_DEF_SCROLL_LIMIT;
  47              		.loc 1 62 5 is_stmt 1 view .LVU5
  48              		.loc 1 62 34 is_stmt 0 view .LVU6
  49 000e 0A23     		movs	r3, #10
  50 0010 2376     		strb	r3, [r4, #24]
  63:Middlewares/lvgl/src/hal/lv_hal_indev.c ****     driver->scroll_throw         = LV_INDEV_DEF_SCROLL_THROW;
  51              		.loc 1 63 5 is_stmt 1 view .LVU7
  52              		.loc 1 63 34 is_stmt 0 view .LVU8
ARM GAS  /tmp/cc8jBXxw.s 			page 3


  53 0012 6376     		strb	r3, [r4, #25]
  64:Middlewares/lvgl/src/hal/lv_hal_indev.c ****     driver->long_press_time      = LV_INDEV_DEF_LONG_PRESS_TIME;
  54              		.loc 1 64 5 is_stmt 1 view .LVU9
  55              		.loc 1 64 34 is_stmt 0 view .LVU10
  56 0014 4FF4C873 		mov	r3, #400
  57 0018 A383     		strh	r3, [r4, #28]	@ movhi
  65:Middlewares/lvgl/src/hal/lv_hal_indev.c ****     driver->long_press_repeat_time  = LV_INDEV_DEF_LONG_PRESS_REP_TIME;
  58              		.loc 1 65 5 is_stmt 1 view .LVU11
  59              		.loc 1 65 37 is_stmt 0 view .LVU12
  60 001a 6423     		movs	r3, #100
  61 001c E383     		strh	r3, [r4, #30]	@ movhi
  66:Middlewares/lvgl/src/hal/lv_hal_indev.c ****     driver->gesture_limit        = LV_INDEV_DEF_GESTURE_LIMIT;
  62              		.loc 1 66 5 is_stmt 1 view .LVU13
  63              		.loc 1 66 34 is_stmt 0 view .LVU14
  64 001e 3223     		movs	r3, #50
  65 0020 E376     		strb	r3, [r4, #27]
  67:Middlewares/lvgl/src/hal/lv_hal_indev.c ****     driver->gesture_min_velocity = LV_INDEV_DEF_GESTURE_MIN_VELOCITY;
  66              		.loc 1 67 5 is_stmt 1 view .LVU15
  67              		.loc 1 67 34 is_stmt 0 view .LVU16
  68 0022 0323     		movs	r3, #3
  69 0024 A376     		strb	r3, [r4, #26]
  68:Middlewares/lvgl/src/hal/lv_hal_indev.c **** }
  70              		.loc 1 68 1 view .LVU17
  71 0026 10BD     		pop	{r4, pc}
  72              		.loc 1 68 1 view .LVU18
  73              		.cfi_endproc
  74              	.LFE147:
  76              		.section	.text.lv_indev_drv_register,"ax",%progbits
  77              		.align	1
  78              		.global	lv_indev_drv_register
  79              		.syntax unified
  80              		.thumb
  81              		.thumb_func
  82              		.fpu softvfp
  84              	lv_indev_drv_register:
  85              	.LVL2:
  86              	.LFB148:
  69:Middlewares/lvgl/src/hal/lv_hal_indev.c **** 
  70:Middlewares/lvgl/src/hal/lv_hal_indev.c **** /**
  71:Middlewares/lvgl/src/hal/lv_hal_indev.c ****  * Register an initialized input device driver.
  72:Middlewares/lvgl/src/hal/lv_hal_indev.c ****  * @param driver pointer to an initialized 'lv_indev_drv_t' variable.
  73:Middlewares/lvgl/src/hal/lv_hal_indev.c ****  * Only pointer is saved, so the driver should be static or dynamically allocated.
  74:Middlewares/lvgl/src/hal/lv_hal_indev.c ****  * @return pointer to the new input device or NULL on error
  75:Middlewares/lvgl/src/hal/lv_hal_indev.c ****  */
  76:Middlewares/lvgl/src/hal/lv_hal_indev.c **** lv_indev_t * lv_indev_drv_register(lv_indev_drv_t * driver)
  77:Middlewares/lvgl/src/hal/lv_hal_indev.c **** {
  87              		.loc 1 77 1 is_stmt 1 view -0
  88              		.cfi_startproc
  89              		@ args = 0, pretend = 0, frame = 0
  90              		@ frame_needed = 0, uses_anonymous_args = 0
  91              		.loc 1 77 1 is_stmt 0 view .LVU20
  92 0000 38B5     		push	{r3, r4, r5, lr}
  93              	.LCFI1:
  94              		.cfi_def_cfa_offset 16
  95              		.cfi_offset 3, -16
  96              		.cfi_offset 4, -12
  97              		.cfi_offset 5, -8
ARM GAS  /tmp/cc8jBXxw.s 			page 4


  98              		.cfi_offset 14, -4
  99 0002 0446     		mov	r4, r0
  78:Middlewares/lvgl/src/hal/lv_hal_indev.c **** 
  79:Middlewares/lvgl/src/hal/lv_hal_indev.c ****     if(driver->disp == NULL) driver->disp = lv_disp_get_default();
 100              		.loc 1 79 5 is_stmt 1 view .LVU21
 101              		.loc 1 79 14 is_stmt 0 view .LVU22
 102 0004 0369     		ldr	r3, [r0, #16]
 103              		.loc 1 79 7 view .LVU23
 104 0006 B3B1     		cbz	r3, .L9
 105              	.LVL3:
 106              	.L4:
  80:Middlewares/lvgl/src/hal/lv_hal_indev.c **** 
  81:Middlewares/lvgl/src/hal/lv_hal_indev.c ****     if(driver->disp == NULL) {
 107              		.loc 1 81 5 is_stmt 1 view .LVU24
 108              		.loc 1 81 14 is_stmt 0 view .LVU25
 109 0008 2569     		ldr	r5, [r4, #16]
 110              		.loc 1 81 7 view .LVU26
 111 000a 95B1     		cbz	r5, .L3
  82:Middlewares/lvgl/src/hal/lv_hal_indev.c ****         LV_LOG_WARN("lv_indev_drv_register: no display registered hence can't attach the indev to "
  83:Middlewares/lvgl/src/hal/lv_hal_indev.c ****                     "a display");
  84:Middlewares/lvgl/src/hal/lv_hal_indev.c ****         return NULL;
  85:Middlewares/lvgl/src/hal/lv_hal_indev.c ****     }
  86:Middlewares/lvgl/src/hal/lv_hal_indev.c **** 
  87:Middlewares/lvgl/src/hal/lv_hal_indev.c ****     lv_indev_t * indev = _lv_ll_ins_head(&LV_GC_ROOT(_lv_indev_ll));
 112              		.loc 1 87 5 is_stmt 1 view .LVU27
 113              		.loc 1 87 26 is_stmt 0 view .LVU28
 114 000c 0C48     		ldr	r0, .L10
 115 000e FFF7FEFF 		bl	_lv_ll_ins_head
 116              	.LVL4:
  88:Middlewares/lvgl/src/hal/lv_hal_indev.c ****     if(!indev) {
 117              		.loc 1 88 5 is_stmt 1 view .LVU29
 118              		.loc 1 88 7 is_stmt 0 view .LVU30
 119 0012 0546     		mov	r5, r0
 120 0014 98B1     		cbz	r0, .L7
  89:Middlewares/lvgl/src/hal/lv_hal_indev.c ****         LV_ASSERT_MALLOC(indev);
  90:Middlewares/lvgl/src/hal/lv_hal_indev.c ****         return NULL;
  91:Middlewares/lvgl/src/hal/lv_hal_indev.c ****     }
  92:Middlewares/lvgl/src/hal/lv_hal_indev.c **** 
  93:Middlewares/lvgl/src/hal/lv_hal_indev.c ****     lv_memset_00(indev, sizeof(lv_indev_t));
 121              		.loc 1 93 5 is_stmt 1 view .LVU31
 122 0016 5821     		movs	r1, #88
 123 0018 FFF7FEFF 		bl	lv_memset_00
 124              	.LVL5:
  94:Middlewares/lvgl/src/hal/lv_hal_indev.c ****     indev->driver = driver;
 125              		.loc 1 94 5 view .LVU32
 126              		.loc 1 94 19 is_stmt 0 view .LVU33
 127 001c 2C60     		str	r4, [r5]
  95:Middlewares/lvgl/src/hal/lv_hal_indev.c **** 
  96:Middlewares/lvgl/src/hal/lv_hal_indev.c ****     indev->proc.reset_query  = 1;
 128              		.loc 1 96 5 is_stmt 1 view .LVU34
 129              		.loc 1 96 30 is_stmt 0 view .LVU35
 130 001e 6B79     		ldrb	r3, [r5, #5]	@ zero_extendqisi2
 131 0020 43F00203 		orr	r3, r3, #2
 132 0024 6B71     		strb	r3, [r5, #5]
  97:Middlewares/lvgl/src/hal/lv_hal_indev.c ****     indev->driver->read_timer = lv_timer_create(lv_indev_read_timer_cb, LV_INDEV_DEF_READ_PERIOD, i
 133              		.loc 1 97 5 is_stmt 1 view .LVU36
 134              		.loc 1 97 33 is_stmt 0 view .LVU37
ARM GAS  /tmp/cc8jBXxw.s 			page 5


 135 0026 2A46     		mov	r2, r5
 136 0028 1E21     		movs	r1, #30
 137 002a 0648     		ldr	r0, .L10+4
 138 002c FFF7FEFF 		bl	lv_timer_create
 139              	.LVL6:
 140              		.loc 1 97 31 view .LVU38
 141 0030 6061     		str	r0, [r4, #20]
  98:Middlewares/lvgl/src/hal/lv_hal_indev.c **** 
  99:Middlewares/lvgl/src/hal/lv_hal_indev.c ****     return indev;
 142              		.loc 1 99 5 is_stmt 1 view .LVU39
 143              	.LVL7:
 144              	.L3:
 100:Middlewares/lvgl/src/hal/lv_hal_indev.c **** }
 145              		.loc 1 100 1 is_stmt 0 view .LVU40
 146 0032 2846     		mov	r0, r5
 147 0034 38BD     		pop	{r3, r4, r5, pc}
 148              	.LVL8:
 149              	.L9:
  79:Middlewares/lvgl/src/hal/lv_hal_indev.c **** 
 150              		.loc 1 79 30 is_stmt 1 discriminator 1 view .LVU41
  79:Middlewares/lvgl/src/hal/lv_hal_indev.c **** 
 151              		.loc 1 79 45 is_stmt 0 discriminator 1 view .LVU42
 152 0036 FFF7FEFF 		bl	lv_disp_get_default
 153              	.LVL9:
  79:Middlewares/lvgl/src/hal/lv_hal_indev.c **** 
 154              		.loc 1 79 43 discriminator 1 view .LVU43
 155 003a 2061     		str	r0, [r4, #16]
 156 003c E4E7     		b	.L4
 157              	.LVL10:
 158              	.L7:
  89:Middlewares/lvgl/src/hal/lv_hal_indev.c ****         return NULL;
 159              		.loc 1 89 9 is_stmt 1 discriminator 1 view .LVU44
  89:Middlewares/lvgl/src/hal/lv_hal_indev.c ****         return NULL;
 160              		.loc 1 89 9 discriminator 1 view .LVU45
  89:Middlewares/lvgl/src/hal/lv_hal_indev.c ****         return NULL;
 161              		.loc 1 89 9 discriminator 1 view .LVU46
  89:Middlewares/lvgl/src/hal/lv_hal_indev.c ****         return NULL;
 162              		.loc 1 89 9 discriminator 1 view .LVU47
 163 003e FEE7     		b	.L7
 164              	.L11:
 165              		.align	2
 166              	.L10:
 167 0040 00000000 		.word	_lv_indev_ll
 168 0044 00000000 		.word	lv_indev_read_timer_cb
 169              		.cfi_endproc
 170              	.LFE148:
 172              		.section	.text.lv_indev_drv_update,"ax",%progbits
 173              		.align	1
 174              		.global	lv_indev_drv_update
 175              		.syntax unified
 176              		.thumb
 177              		.thumb_func
 178              		.fpu softvfp
 180              	lv_indev_drv_update:
 181              	.LVL11:
 182              	.LFB149:
 101:Middlewares/lvgl/src/hal/lv_hal_indev.c **** 
ARM GAS  /tmp/cc8jBXxw.s 			page 6


 102:Middlewares/lvgl/src/hal/lv_hal_indev.c **** /**
 103:Middlewares/lvgl/src/hal/lv_hal_indev.c ****  * Update the driver in run time.
 104:Middlewares/lvgl/src/hal/lv_hal_indev.c ****  * @param indev pointer to a input device. (return value of `lv_indev_drv_register`)
 105:Middlewares/lvgl/src/hal/lv_hal_indev.c ****  * @param new_drv pointer to the new driver
 106:Middlewares/lvgl/src/hal/lv_hal_indev.c ****  */
 107:Middlewares/lvgl/src/hal/lv_hal_indev.c **** void lv_indev_drv_update(lv_indev_t * indev, lv_indev_drv_t * new_drv)
 108:Middlewares/lvgl/src/hal/lv_hal_indev.c **** {
 183              		.loc 1 108 1 view -0
 184              		.cfi_startproc
 185              		@ args = 0, pretend = 0, frame = 0
 186              		@ frame_needed = 0, uses_anonymous_args = 0
 187              		@ link register save eliminated.
 109:Middlewares/lvgl/src/hal/lv_hal_indev.c ****     indev->driver = new_drv;
 188              		.loc 1 109 5 view .LVU49
 189              		.loc 1 109 19 is_stmt 0 view .LVU50
 190 0000 0160     		str	r1, [r0]
 110:Middlewares/lvgl/src/hal/lv_hal_indev.c **** }
 191              		.loc 1 110 1 view .LVU51
 192 0002 7047     		bx	lr
 193              		.cfi_endproc
 194              	.LFE149:
 196              		.section	.text.lv_indev_get_next,"ax",%progbits
 197              		.align	1
 198              		.global	lv_indev_get_next
 199              		.syntax unified
 200              		.thumb
 201              		.thumb_func
 202              		.fpu softvfp
 204              	lv_indev_get_next:
 205              	.LVL12:
 206              	.LFB150:
 111:Middlewares/lvgl/src/hal/lv_hal_indev.c **** 
 112:Middlewares/lvgl/src/hal/lv_hal_indev.c **** /**
 113:Middlewares/lvgl/src/hal/lv_hal_indev.c ****  * Get the next input device.
 114:Middlewares/lvgl/src/hal/lv_hal_indev.c ****  * @param indev pointer to the current input device. NULL to initialize.
 115:Middlewares/lvgl/src/hal/lv_hal_indev.c ****  * @return the next input devise or NULL if no more. Give the first input device when the parameter
 116:Middlewares/lvgl/src/hal/lv_hal_indev.c ****  * is NULL
 117:Middlewares/lvgl/src/hal/lv_hal_indev.c ****  */
 118:Middlewares/lvgl/src/hal/lv_hal_indev.c **** lv_indev_t * lv_indev_get_next(lv_indev_t * indev)
 119:Middlewares/lvgl/src/hal/lv_hal_indev.c **** {
 207              		.loc 1 119 1 is_stmt 1 view -0
 208              		.cfi_startproc
 209              		@ args = 0, pretend = 0, frame = 0
 210              		@ frame_needed = 0, uses_anonymous_args = 0
 211              		.loc 1 119 1 is_stmt 0 view .LVU53
 212 0000 08B5     		push	{r3, lr}
 213              	.LCFI2:
 214              		.cfi_def_cfa_offset 8
 215              		.cfi_offset 3, -8
 216              		.cfi_offset 14, -4
 120:Middlewares/lvgl/src/hal/lv_hal_indev.c ****     if(indev == NULL)
 217              		.loc 1 120 5 is_stmt 1 view .LVU54
 218              		.loc 1 120 7 is_stmt 0 view .LVU55
 219 0002 20B1     		cbz	r0, .L17
 220 0004 0146     		mov	r1, r0
 121:Middlewares/lvgl/src/hal/lv_hal_indev.c ****         return _lv_ll_get_head(&LV_GC_ROOT(_lv_indev_ll));
 122:Middlewares/lvgl/src/hal/lv_hal_indev.c ****     else
ARM GAS  /tmp/cc8jBXxw.s 			page 7


 123:Middlewares/lvgl/src/hal/lv_hal_indev.c ****         return _lv_ll_get_next(&LV_GC_ROOT(_lv_indev_ll), indev);
 221              		.loc 1 123 9 is_stmt 1 view .LVU56
 222              		.loc 1 123 16 is_stmt 0 view .LVU57
 223 0006 0448     		ldr	r0, .L18
 224              	.LVL13:
 225              		.loc 1 123 16 view .LVU58
 226 0008 FFF7FEFF 		bl	_lv_ll_get_next
 227              	.LVL14:
 228              	.L13:
 124:Middlewares/lvgl/src/hal/lv_hal_indev.c **** }
 229              		.loc 1 124 1 view .LVU59
 230 000c 08BD     		pop	{r3, pc}
 231              	.LVL15:
 232              	.L17:
 121:Middlewares/lvgl/src/hal/lv_hal_indev.c ****         return _lv_ll_get_head(&LV_GC_ROOT(_lv_indev_ll));
 233              		.loc 1 121 9 is_stmt 1 view .LVU60
 121:Middlewares/lvgl/src/hal/lv_hal_indev.c ****         return _lv_ll_get_head(&LV_GC_ROOT(_lv_indev_ll));
 234              		.loc 1 121 16 is_stmt 0 view .LVU61
 235 000e 0248     		ldr	r0, .L18
 236              	.LVL16:
 121:Middlewares/lvgl/src/hal/lv_hal_indev.c ****         return _lv_ll_get_head(&LV_GC_ROOT(_lv_indev_ll));
 237              		.loc 1 121 16 view .LVU62
 238 0010 FFF7FEFF 		bl	_lv_ll_get_head
 239              	.LVL17:
 240 0014 FAE7     		b	.L13
 241              	.L19:
 242 0016 00BF     		.align	2
 243              	.L18:
 244 0018 00000000 		.word	_lv_indev_ll
 245              		.cfi_endproc
 246              	.LFE150:
 248              		.section	.text._lv_indev_read,"ax",%progbits
 249              		.align	1
 250              		.global	_lv_indev_read
 251              		.syntax unified
 252              		.thumb
 253              		.thumb_func
 254              		.fpu softvfp
 256              	_lv_indev_read:
 257              	.LVL18:
 258              	.LFB151:
 125:Middlewares/lvgl/src/hal/lv_hal_indev.c **** 
 126:Middlewares/lvgl/src/hal/lv_hal_indev.c **** /**
 127:Middlewares/lvgl/src/hal/lv_hal_indev.c ****  * Read data from an input device.
 128:Middlewares/lvgl/src/hal/lv_hal_indev.c ****  * @param indev pointer to an input device
 129:Middlewares/lvgl/src/hal/lv_hal_indev.c ****  * @param data input device will write its data here
 130:Middlewares/lvgl/src/hal/lv_hal_indev.c ****  */
 131:Middlewares/lvgl/src/hal/lv_hal_indev.c **** void _lv_indev_read(lv_indev_t * indev, lv_indev_data_t * data)
 132:Middlewares/lvgl/src/hal/lv_hal_indev.c **** {
 259              		.loc 1 132 1 is_stmt 1 view -0
 260              		.cfi_startproc
 261              		@ args = 0, pretend = 0, frame = 0
 262              		@ frame_needed = 0, uses_anonymous_args = 0
 263              		.loc 1 132 1 is_stmt 0 view .LVU64
 264 0000 38B5     		push	{r3, r4, r5, lr}
 265              	.LCFI3:
 266              		.cfi_def_cfa_offset 16
ARM GAS  /tmp/cc8jBXxw.s 			page 8


 267              		.cfi_offset 3, -16
 268              		.cfi_offset 4, -12
 269              		.cfi_offset 5, -8
 270              		.cfi_offset 14, -4
 271 0002 0446     		mov	r4, r0
 272 0004 0D46     		mov	r5, r1
 133:Middlewares/lvgl/src/hal/lv_hal_indev.c ****     lv_memset_00(data, sizeof(lv_indev_data_t));
 273              		.loc 1 133 5 is_stmt 1 view .LVU65
 274 0006 1021     		movs	r1, #16
 275              	.LVL19:
 276              		.loc 1 133 5 is_stmt 0 view .LVU66
 277 0008 2846     		mov	r0, r5
 278              	.LVL20:
 279              		.loc 1 133 5 view .LVU67
 280 000a FFF7FEFF 		bl	lv_memset_00
 281              	.LVL21:
 134:Middlewares/lvgl/src/hal/lv_hal_indev.c **** 
 135:Middlewares/lvgl/src/hal/lv_hal_indev.c ****     /* For touchpad sometimes users don't set the last pressed coordinate on release.
 136:Middlewares/lvgl/src/hal/lv_hal_indev.c ****      * So be sure a coordinates are initialized to the last point */
 137:Middlewares/lvgl/src/hal/lv_hal_indev.c ****     if(indev->driver->type == LV_INDEV_TYPE_POINTER) {
 282              		.loc 1 137 5 is_stmt 1 view .LVU68
 283              		.loc 1 137 13 is_stmt 0 view .LVU69
 284 000e 2368     		ldr	r3, [r4]
 285              		.loc 1 137 21 view .LVU70
 286 0010 1B78     		ldrb	r3, [r3]	@ zero_extendqisi2
 287              		.loc 1 137 7 view .LVU71
 288 0012 012B     		cmp	r3, #1
 289 0014 06D0     		beq	.L26
 138:Middlewares/lvgl/src/hal/lv_hal_indev.c ****         data->point.x = indev->proc.types.pointer.last_raw_point.x;
 139:Middlewares/lvgl/src/hal/lv_hal_indev.c ****         data->point.y = indev->proc.types.pointer.last_raw_point.y;
 140:Middlewares/lvgl/src/hal/lv_hal_indev.c ****     }
 141:Middlewares/lvgl/src/hal/lv_hal_indev.c ****     /*Similarly set at least the last key in case of the user doesn't set it on release*/
 142:Middlewares/lvgl/src/hal/lv_hal_indev.c ****     else if(indev->driver->type == LV_INDEV_TYPE_KEYPAD) {
 290              		.loc 1 142 10 is_stmt 1 view .LVU72
 291              		.loc 1 142 12 is_stmt 0 view .LVU73
 292 0016 022B     		cmp	r3, #2
 293 0018 10D0     		beq	.L27
 143:Middlewares/lvgl/src/hal/lv_hal_indev.c ****         data->key = indev->proc.types.keypad.last_key;
 144:Middlewares/lvgl/src/hal/lv_hal_indev.c ****     }
 145:Middlewares/lvgl/src/hal/lv_hal_indev.c ****     /*For compatibility assume that used button was enter (encoder push)*/
 146:Middlewares/lvgl/src/hal/lv_hal_indev.c ****     else if(indev->driver->type == LV_INDEV_TYPE_ENCODER) {
 294              		.loc 1 146 10 is_stmt 1 view .LVU74
 295              		.loc 1 146 12 is_stmt 0 view .LVU75
 296 001a 042B     		cmp	r3, #4
 297 001c 08D1     		bne	.L22
 147:Middlewares/lvgl/src/hal/lv_hal_indev.c ****         data->key = LV_KEY_ENTER;
 298              		.loc 1 147 9 is_stmt 1 view .LVU76
 299              		.loc 1 147 19 is_stmt 0 view .LVU77
 300 001e 0A23     		movs	r3, #10
 301 0020 6B60     		str	r3, [r5, #4]
 302 0022 05E0     		b	.L22
 303              	.L26:
 138:Middlewares/lvgl/src/hal/lv_hal_indev.c ****         data->point.x = indev->proc.types.pointer.last_raw_point.x;
 304              		.loc 1 138 9 is_stmt 1 view .LVU78
 138:Middlewares/lvgl/src/hal/lv_hal_indev.c ****         data->point.x = indev->proc.types.pointer.last_raw_point.x;
 305              		.loc 1 138 65 is_stmt 0 view .LVU79
 306 0024 B4F91030 		ldrsh	r3, [r4, #16]
ARM GAS  /tmp/cc8jBXxw.s 			page 9


 138:Middlewares/lvgl/src/hal/lv_hal_indev.c ****         data->point.x = indev->proc.types.pointer.last_raw_point.x;
 307              		.loc 1 138 23 view .LVU80
 308 0028 2B80     		strh	r3, [r5]	@ movhi
 139:Middlewares/lvgl/src/hal/lv_hal_indev.c ****     }
 309              		.loc 1 139 9 is_stmt 1 view .LVU81
 139:Middlewares/lvgl/src/hal/lv_hal_indev.c ****     }
 310              		.loc 1 139 65 is_stmt 0 view .LVU82
 311 002a B4F91230 		ldrsh	r3, [r4, #18]
 139:Middlewares/lvgl/src/hal/lv_hal_indev.c ****     }
 312              		.loc 1 139 23 view .LVU83
 313 002e 6B80     		strh	r3, [r5, #2]	@ movhi
 314              	.L22:
 148:Middlewares/lvgl/src/hal/lv_hal_indev.c ****     }
 149:Middlewares/lvgl/src/hal/lv_hal_indev.c **** 
 150:Middlewares/lvgl/src/hal/lv_hal_indev.c ****     if(indev->driver->read_cb) {
 315              		.loc 1 150 5 is_stmt 1 view .LVU84
 316              		.loc 1 150 13 is_stmt 0 view .LVU85
 317 0030 2068     		ldr	r0, [r4]
 318              		.loc 1 150 21 view .LVU86
 319 0032 4368     		ldr	r3, [r0, #4]
 320              		.loc 1 150 7 view .LVU87
 321 0034 0BB1     		cbz	r3, .L20
 151:Middlewares/lvgl/src/hal/lv_hal_indev.c ****         INDEV_TRACE("calling indev_read_cb");
 322              		.loc 1 151 45 is_stmt 1 view .LVU88
 152:Middlewares/lvgl/src/hal/lv_hal_indev.c ****         indev->driver->read_cb(indev->driver, data);
 323              		.loc 1 152 9 view .LVU89
 324 0036 2946     		mov	r1, r5
 325 0038 9847     		blx	r3
 326              	.LVL22:
 153:Middlewares/lvgl/src/hal/lv_hal_indev.c ****     }
 154:Middlewares/lvgl/src/hal/lv_hal_indev.c ****     else {
 155:Middlewares/lvgl/src/hal/lv_hal_indev.c ****         LV_LOG_WARN("indev_read_cb is not registered");
 327              		.loc 1 155 55 view .LVU90
 328              	.L20:
 156:Middlewares/lvgl/src/hal/lv_hal_indev.c ****     }
 157:Middlewares/lvgl/src/hal/lv_hal_indev.c **** }
 329              		.loc 1 157 1 is_stmt 0 view .LVU91
 330 003a 38BD     		pop	{r3, r4, r5, pc}
 331              	.LVL23:
 332              	.L27:
 143:Middlewares/lvgl/src/hal/lv_hal_indev.c ****     }
 333              		.loc 1 143 9 is_stmt 1 view .LVU92
 143:Middlewares/lvgl/src/hal/lv_hal_indev.c ****     }
 334              		.loc 1 143 45 is_stmt 0 view .LVU93
 335 003c E368     		ldr	r3, [r4, #12]
 143:Middlewares/lvgl/src/hal/lv_hal_indev.c ****     }
 336              		.loc 1 143 19 view .LVU94
 337 003e 6B60     		str	r3, [r5, #4]
 338 0040 F6E7     		b	.L22
 339              		.cfi_endproc
 340              	.LFE151:
 342              		.text
 343              	.Letext0:
 344              		.file 2 "/home/akinya/gcc-arm-none-eabi/arm-none-eabi/include/machine/_default_types.h"
 345              		.file 3 "/home/akinya/gcc-arm-none-eabi/arm-none-eabi/include/sys/_stdint.h"
 346              		.file 4 "Middlewares/lvgl/src/hal/../hal/../misc/lv_area.h"
 347              		.file 5 "Middlewares/lvgl/src/hal/../hal/../misc/lv_ll.h"
ARM GAS  /tmp/cc8jBXxw.s 			page 10


 348              		.file 6 "Middlewares/lvgl/src/hal/../hal/../misc/lv_timer.h"
 349              		.file 7 "Middlewares/lvgl/src/hal/../hal/lv_hal_indev.h"
 350              		.file 8 "Middlewares/lvgl/src/hal/../core/../hal/lv_hal_disp.h"
 351              		.file 9 "Middlewares/lvgl/src/hal/../core/lv_obj.h"
 352              		.file 10 "Middlewares/lvgl/src/hal/../core/lv_group.h"
 353              		.file 11 "Middlewares/lvgl/src/hal/../core/../misc/lv_color.h"
 354              		.file 12 "Middlewares/lvgl/src/hal/../core/../misc/lv_style.h"
 355              		.file 13 "Middlewares/lvgl/src/hal/../core/lv_obj_scroll.h"
 356              		.file 14 "Middlewares/lvgl/src/hal/../core/lv_obj_style.h"
 357              		.file 15 "Middlewares/lvgl/src/hal/../core/lv_obj_class.h"
 358              		.file 16 "Middlewares/lvgl/src/hal/../core/lv_event.h"
 359              		.file 17 "Middlewares/lvgl/src/hal/../misc/lv_gc.h"
 360              		.file 18 "Middlewares/lvgl/src/hal/../hal/../misc/lv_mem.h"
ARM GAS  /tmp/cc8jBXxw.s 			page 11

