ARM GAS  /tmp/cc4kiO2x.s 			page 1


   1              		.cpu cortex-m3
   2              		.eabi_attribute 20, 1
   3              		.eabi_attribute 21, 1
   4              		.eabi_attribute 23, 3
   5              		.eabi_attribute 24, 1
   6              		.eabi_attribute 25, 1
   7              		.eabi_attribute 26, 1
   8              		.eabi_attribute 30, 1
   9              		.eabi_attribute 34, 1
  10              		.eabi_attribute 18, 4
  11              		.file	"lv_indev.c"
  12              		.text
  13              	.Ltext0:
  14              		.cfi_sections	.debug_frame
  15              		.section	.text.indev_proc_reset_query_handler,"ax",%progbits
  16              		.align	1
  17              		.arch armv7-m
  18              		.syntax unified
  19              		.thumb
  20              		.thumb_func
  21              		.fpu softvfp
  23              	indev_proc_reset_query_handler:
  24              	.LVL0:
  25              	.LFB178:
  26              		.file 1 "Middlewares/lvgl/src/core/lv_indev.c"
   1:Middlewares/lvgl/src/core/lv_indev.c **** /**
   2:Middlewares/lvgl/src/core/lv_indev.c ****  * @file lv_indev.c
   3:Middlewares/lvgl/src/core/lv_indev.c ****  *
   4:Middlewares/lvgl/src/core/lv_indev.c ****  */
   5:Middlewares/lvgl/src/core/lv_indev.c **** 
   6:Middlewares/lvgl/src/core/lv_indev.c **** /*********************
   7:Middlewares/lvgl/src/core/lv_indev.c ****  *      INCLUDES
   8:Middlewares/lvgl/src/core/lv_indev.c ****  ********************/
   9:Middlewares/lvgl/src/core/lv_indev.c **** #include "lv_indev.h"
  10:Middlewares/lvgl/src/core/lv_indev.c **** #include "lv_disp.h"
  11:Middlewares/lvgl/src/core/lv_indev.c **** #include "lv_obj.h"
  12:Middlewares/lvgl/src/core/lv_indev.c **** #include "lv_indev_scroll.h"
  13:Middlewares/lvgl/src/core/lv_indev.c **** #include "lv_group.h"
  14:Middlewares/lvgl/src/core/lv_indev.c **** #include "lv_refr.h"
  15:Middlewares/lvgl/src/core/lv_indev.c **** 
  16:Middlewares/lvgl/src/core/lv_indev.c **** #include "../hal/lv_hal_tick.h"
  17:Middlewares/lvgl/src/core/lv_indev.c **** #include "../misc/lv_timer.h"
  18:Middlewares/lvgl/src/core/lv_indev.c **** #include "../misc/lv_math.h"
  19:Middlewares/lvgl/src/core/lv_indev.c **** 
  20:Middlewares/lvgl/src/core/lv_indev.c **** /*********************
  21:Middlewares/lvgl/src/core/lv_indev.c ****  *      DEFINES
  22:Middlewares/lvgl/src/core/lv_indev.c ****  *********************/
  23:Middlewares/lvgl/src/core/lv_indev.c **** #if LV_INDEV_DEF_SCROLL_THROW <= 0
  24:Middlewares/lvgl/src/core/lv_indev.c ****     #warning "LV_INDEV_DRAG_THROW must be greater than 0"
  25:Middlewares/lvgl/src/core/lv_indev.c **** #endif
  26:Middlewares/lvgl/src/core/lv_indev.c **** 
  27:Middlewares/lvgl/src/core/lv_indev.c **** /**********************
  28:Middlewares/lvgl/src/core/lv_indev.c ****  *      TYPEDEFS
  29:Middlewares/lvgl/src/core/lv_indev.c ****  **********************/
  30:Middlewares/lvgl/src/core/lv_indev.c **** 
  31:Middlewares/lvgl/src/core/lv_indev.c **** /**********************
  32:Middlewares/lvgl/src/core/lv_indev.c ****  *  STATIC PROTOTYPES
ARM GAS  /tmp/cc4kiO2x.s 			page 2


  33:Middlewares/lvgl/src/core/lv_indev.c ****  **********************/
  34:Middlewares/lvgl/src/core/lv_indev.c **** static void indev_pointer_proc(lv_indev_t * i, lv_indev_data_t * data);
  35:Middlewares/lvgl/src/core/lv_indev.c **** static void indev_keypad_proc(lv_indev_t * i, lv_indev_data_t * data);
  36:Middlewares/lvgl/src/core/lv_indev.c **** static void indev_encoder_proc(lv_indev_t * i, lv_indev_data_t * data);
  37:Middlewares/lvgl/src/core/lv_indev.c **** static void indev_button_proc(lv_indev_t * i, lv_indev_data_t * data);
  38:Middlewares/lvgl/src/core/lv_indev.c **** static void indev_proc_press(_lv_indev_proc_t * proc);
  39:Middlewares/lvgl/src/core/lv_indev.c **** static void indev_proc_release(_lv_indev_proc_t * proc);
  40:Middlewares/lvgl/src/core/lv_indev.c **** static void indev_proc_reset_query_handler(lv_indev_t * indev);
  41:Middlewares/lvgl/src/core/lv_indev.c **** static void indev_click_focus(_lv_indev_proc_t * proc);
  42:Middlewares/lvgl/src/core/lv_indev.c **** static void indev_gesture(_lv_indev_proc_t * proc);
  43:Middlewares/lvgl/src/core/lv_indev.c **** static bool indev_reset_check(_lv_indev_proc_t * proc);
  44:Middlewares/lvgl/src/core/lv_indev.c **** 
  45:Middlewares/lvgl/src/core/lv_indev.c **** /**********************
  46:Middlewares/lvgl/src/core/lv_indev.c ****  *  STATIC VARIABLES
  47:Middlewares/lvgl/src/core/lv_indev.c ****  **********************/
  48:Middlewares/lvgl/src/core/lv_indev.c **** static lv_indev_t * indev_act;
  49:Middlewares/lvgl/src/core/lv_indev.c **** static lv_obj_t * indev_obj_act = NULL;
  50:Middlewares/lvgl/src/core/lv_indev.c **** 
  51:Middlewares/lvgl/src/core/lv_indev.c **** /**********************
  52:Middlewares/lvgl/src/core/lv_indev.c ****  *      MACROS
  53:Middlewares/lvgl/src/core/lv_indev.c ****  **********************/
  54:Middlewares/lvgl/src/core/lv_indev.c **** #if LV_LOG_TRACE_INDEV
  55:Middlewares/lvgl/src/core/lv_indev.c **** #  define INDEV_TRACE(...) LV_LOG_TRACE( __VA_ARGS__)
  56:Middlewares/lvgl/src/core/lv_indev.c **** #else
  57:Middlewares/lvgl/src/core/lv_indev.c **** #  define INDEV_TRACE(...)
  58:Middlewares/lvgl/src/core/lv_indev.c **** #endif
  59:Middlewares/lvgl/src/core/lv_indev.c **** 
  60:Middlewares/lvgl/src/core/lv_indev.c **** /**********************
  61:Middlewares/lvgl/src/core/lv_indev.c ****  *   GLOBAL FUNCTIONS
  62:Middlewares/lvgl/src/core/lv_indev.c ****  **********************/
  63:Middlewares/lvgl/src/core/lv_indev.c **** 
  64:Middlewares/lvgl/src/core/lv_indev.c **** void lv_indev_read_timer_cb(lv_timer_t * timer)
  65:Middlewares/lvgl/src/core/lv_indev.c **** {
  66:Middlewares/lvgl/src/core/lv_indev.c ****     INDEV_TRACE("begin");
  67:Middlewares/lvgl/src/core/lv_indev.c **** 
  68:Middlewares/lvgl/src/core/lv_indev.c ****     lv_indev_data_t data;
  69:Middlewares/lvgl/src/core/lv_indev.c **** 
  70:Middlewares/lvgl/src/core/lv_indev.c ****     indev_act = timer->user_data;
  71:Middlewares/lvgl/src/core/lv_indev.c **** 
  72:Middlewares/lvgl/src/core/lv_indev.c ****     /*Read and process all indevs*/
  73:Middlewares/lvgl/src/core/lv_indev.c ****     if(indev_act->driver->disp == NULL) return; /*Not assigned to any displays*/
  74:Middlewares/lvgl/src/core/lv_indev.c **** 
  75:Middlewares/lvgl/src/core/lv_indev.c ****     /*Handle reset query before processing the point*/
  76:Middlewares/lvgl/src/core/lv_indev.c ****     indev_proc_reset_query_handler(indev_act);
  77:Middlewares/lvgl/src/core/lv_indev.c **** 
  78:Middlewares/lvgl/src/core/lv_indev.c ****     if(indev_act->proc.disabled) return;
  79:Middlewares/lvgl/src/core/lv_indev.c ****     bool continue_reading;
  80:Middlewares/lvgl/src/core/lv_indev.c ****     do {
  81:Middlewares/lvgl/src/core/lv_indev.c ****         /*Read the data*/
  82:Middlewares/lvgl/src/core/lv_indev.c ****         _lv_indev_read(indev_act, &data);
  83:Middlewares/lvgl/src/core/lv_indev.c ****         continue_reading = data.continue_reading;
  84:Middlewares/lvgl/src/core/lv_indev.c **** 
  85:Middlewares/lvgl/src/core/lv_indev.c ****         /*The active object might deleted even in the read function*/
  86:Middlewares/lvgl/src/core/lv_indev.c ****         indev_proc_reset_query_handler(indev_act);
  87:Middlewares/lvgl/src/core/lv_indev.c ****         indev_obj_act = NULL;
  88:Middlewares/lvgl/src/core/lv_indev.c **** 
  89:Middlewares/lvgl/src/core/lv_indev.c ****         indev_act->proc.state = data.state;
ARM GAS  /tmp/cc4kiO2x.s 			page 3


  90:Middlewares/lvgl/src/core/lv_indev.c **** 
  91:Middlewares/lvgl/src/core/lv_indev.c ****         /*Save the last activity time*/
  92:Middlewares/lvgl/src/core/lv_indev.c ****         if(indev_act->proc.state == LV_INDEV_STATE_PRESSED) {
  93:Middlewares/lvgl/src/core/lv_indev.c ****             indev_act->driver->disp->last_activity_time = lv_tick_get();
  94:Middlewares/lvgl/src/core/lv_indev.c ****         }
  95:Middlewares/lvgl/src/core/lv_indev.c ****         else if(indev_act->driver->type == LV_INDEV_TYPE_ENCODER && data.enc_diff) {
  96:Middlewares/lvgl/src/core/lv_indev.c ****             indev_act->driver->disp->last_activity_time = lv_tick_get();
  97:Middlewares/lvgl/src/core/lv_indev.c ****         }
  98:Middlewares/lvgl/src/core/lv_indev.c **** 
  99:Middlewares/lvgl/src/core/lv_indev.c ****         if(indev_act->driver->type == LV_INDEV_TYPE_POINTER) {
 100:Middlewares/lvgl/src/core/lv_indev.c ****             indev_pointer_proc(indev_act, &data);
 101:Middlewares/lvgl/src/core/lv_indev.c ****         }
 102:Middlewares/lvgl/src/core/lv_indev.c ****         else if(indev_act->driver->type == LV_INDEV_TYPE_KEYPAD) {
 103:Middlewares/lvgl/src/core/lv_indev.c ****             indev_keypad_proc(indev_act, &data);
 104:Middlewares/lvgl/src/core/lv_indev.c ****         }
 105:Middlewares/lvgl/src/core/lv_indev.c ****         else if(indev_act->driver->type == LV_INDEV_TYPE_ENCODER) {
 106:Middlewares/lvgl/src/core/lv_indev.c ****             indev_encoder_proc(indev_act, &data);
 107:Middlewares/lvgl/src/core/lv_indev.c ****         }
 108:Middlewares/lvgl/src/core/lv_indev.c ****         else if(indev_act->driver->type == LV_INDEV_TYPE_BUTTON) {
 109:Middlewares/lvgl/src/core/lv_indev.c ****             indev_button_proc(indev_act, &data);
 110:Middlewares/lvgl/src/core/lv_indev.c ****         }
 111:Middlewares/lvgl/src/core/lv_indev.c ****         /*Handle reset query if it happened in during processing*/
 112:Middlewares/lvgl/src/core/lv_indev.c ****         indev_proc_reset_query_handler(indev_act);
 113:Middlewares/lvgl/src/core/lv_indev.c ****     } while(continue_reading);
 114:Middlewares/lvgl/src/core/lv_indev.c **** 
 115:Middlewares/lvgl/src/core/lv_indev.c ****     /*End of indev processing, so no act indev*/
 116:Middlewares/lvgl/src/core/lv_indev.c ****     indev_act     = NULL;
 117:Middlewares/lvgl/src/core/lv_indev.c ****     indev_obj_act = NULL;
 118:Middlewares/lvgl/src/core/lv_indev.c **** 
 119:Middlewares/lvgl/src/core/lv_indev.c ****     INDEV_TRACE("finished");
 120:Middlewares/lvgl/src/core/lv_indev.c **** }
 121:Middlewares/lvgl/src/core/lv_indev.c **** 
 122:Middlewares/lvgl/src/core/lv_indev.c **** void lv_indev_enable(lv_indev_t * indev, bool en)
 123:Middlewares/lvgl/src/core/lv_indev.c **** {
 124:Middlewares/lvgl/src/core/lv_indev.c ****     if(!indev) return;
 125:Middlewares/lvgl/src/core/lv_indev.c **** 
 126:Middlewares/lvgl/src/core/lv_indev.c ****     indev->proc.disabled = en ? 0 : 1;
 127:Middlewares/lvgl/src/core/lv_indev.c **** }
 128:Middlewares/lvgl/src/core/lv_indev.c **** 
 129:Middlewares/lvgl/src/core/lv_indev.c **** lv_indev_t * lv_indev_get_act(void)
 130:Middlewares/lvgl/src/core/lv_indev.c **** {
 131:Middlewares/lvgl/src/core/lv_indev.c ****     return indev_act;
 132:Middlewares/lvgl/src/core/lv_indev.c **** }
 133:Middlewares/lvgl/src/core/lv_indev.c **** 
 134:Middlewares/lvgl/src/core/lv_indev.c **** lv_indev_type_t lv_indev_get_type(const lv_indev_t * indev)
 135:Middlewares/lvgl/src/core/lv_indev.c **** {
 136:Middlewares/lvgl/src/core/lv_indev.c ****     if(indev == NULL) return LV_INDEV_TYPE_NONE;
 137:Middlewares/lvgl/src/core/lv_indev.c **** 
 138:Middlewares/lvgl/src/core/lv_indev.c ****     return indev->driver->type;
 139:Middlewares/lvgl/src/core/lv_indev.c **** }
 140:Middlewares/lvgl/src/core/lv_indev.c **** 
 141:Middlewares/lvgl/src/core/lv_indev.c **** void lv_indev_reset(lv_indev_t * indev, lv_obj_t * obj)
 142:Middlewares/lvgl/src/core/lv_indev.c **** {
 143:Middlewares/lvgl/src/core/lv_indev.c ****     if(indev) {
 144:Middlewares/lvgl/src/core/lv_indev.c ****         indev->proc.reset_query = 1;
 145:Middlewares/lvgl/src/core/lv_indev.c ****         if(indev_act == indev) indev_obj_act = NULL;
 146:Middlewares/lvgl/src/core/lv_indev.c ****         if(obj == NULL || indev->proc.types.pointer.last_pressed == obj) {
ARM GAS  /tmp/cc4kiO2x.s 			page 4


 147:Middlewares/lvgl/src/core/lv_indev.c ****             indev->proc.types.pointer.last_pressed = NULL;
 148:Middlewares/lvgl/src/core/lv_indev.c ****         }
 149:Middlewares/lvgl/src/core/lv_indev.c ****         if(obj == NULL || indev->proc.types.pointer.act_obj == obj) {
 150:Middlewares/lvgl/src/core/lv_indev.c ****             indev->proc.types.pointer.act_obj = NULL;
 151:Middlewares/lvgl/src/core/lv_indev.c ****         }
 152:Middlewares/lvgl/src/core/lv_indev.c ****         if(obj == NULL || indev->proc.types.pointer.last_obj == obj) {
 153:Middlewares/lvgl/src/core/lv_indev.c ****             indev->proc.types.pointer.last_obj = NULL;
 154:Middlewares/lvgl/src/core/lv_indev.c ****         }
 155:Middlewares/lvgl/src/core/lv_indev.c ****     }
 156:Middlewares/lvgl/src/core/lv_indev.c ****     else {
 157:Middlewares/lvgl/src/core/lv_indev.c ****         lv_indev_t * i = lv_indev_get_next(NULL);
 158:Middlewares/lvgl/src/core/lv_indev.c ****         while(i) {
 159:Middlewares/lvgl/src/core/lv_indev.c ****             i->proc.reset_query = 1;
 160:Middlewares/lvgl/src/core/lv_indev.c ****             if((i->driver->type == LV_INDEV_TYPE_POINTER || i->driver->type == LV_INDEV_TYPE_KEYPAD
 161:Middlewares/lvgl/src/core/lv_indev.c ****                (obj == NULL || i->proc.types.pointer.last_pressed == obj)) {
 162:Middlewares/lvgl/src/core/lv_indev.c ****                 i->proc.types.pointer.last_pressed = NULL;
 163:Middlewares/lvgl/src/core/lv_indev.c ****             }
 164:Middlewares/lvgl/src/core/lv_indev.c ****             if(obj == NULL || i->proc.types.pointer.act_obj == obj) {
 165:Middlewares/lvgl/src/core/lv_indev.c ****                 i->proc.types.pointer.act_obj = NULL;
 166:Middlewares/lvgl/src/core/lv_indev.c ****             }
 167:Middlewares/lvgl/src/core/lv_indev.c ****             if(obj == NULL || i->proc.types.pointer.last_obj == obj) {
 168:Middlewares/lvgl/src/core/lv_indev.c ****                 i->proc.types.pointer.last_obj = NULL;
 169:Middlewares/lvgl/src/core/lv_indev.c ****             }
 170:Middlewares/lvgl/src/core/lv_indev.c ****             i = lv_indev_get_next(i);
 171:Middlewares/lvgl/src/core/lv_indev.c ****         }
 172:Middlewares/lvgl/src/core/lv_indev.c ****         indev_obj_act = NULL;
 173:Middlewares/lvgl/src/core/lv_indev.c ****     }
 174:Middlewares/lvgl/src/core/lv_indev.c **** }
 175:Middlewares/lvgl/src/core/lv_indev.c **** 
 176:Middlewares/lvgl/src/core/lv_indev.c **** void lv_indev_reset_long_press(lv_indev_t * indev)
 177:Middlewares/lvgl/src/core/lv_indev.c **** {
 178:Middlewares/lvgl/src/core/lv_indev.c ****     indev->proc.long_pr_sent         = 0;
 179:Middlewares/lvgl/src/core/lv_indev.c ****     indev->proc.longpr_rep_timestamp = lv_tick_get();
 180:Middlewares/lvgl/src/core/lv_indev.c ****     indev->proc.pr_timestamp         = lv_tick_get();
 181:Middlewares/lvgl/src/core/lv_indev.c **** }
 182:Middlewares/lvgl/src/core/lv_indev.c **** 
 183:Middlewares/lvgl/src/core/lv_indev.c **** void lv_indev_set_cursor(lv_indev_t * indev, lv_obj_t * cur_obj)
 184:Middlewares/lvgl/src/core/lv_indev.c **** {
 185:Middlewares/lvgl/src/core/lv_indev.c ****     if(indev->driver->type != LV_INDEV_TYPE_POINTER) return;
 186:Middlewares/lvgl/src/core/lv_indev.c **** 
 187:Middlewares/lvgl/src/core/lv_indev.c ****     indev->cursor = cur_obj;
 188:Middlewares/lvgl/src/core/lv_indev.c ****     lv_obj_set_parent(indev->cursor, lv_disp_get_layer_sys(indev->driver->disp));
 189:Middlewares/lvgl/src/core/lv_indev.c ****     lv_obj_set_pos(indev->cursor, indev->proc.types.pointer.act_point.x, indev->proc.types.pointer.
 190:Middlewares/lvgl/src/core/lv_indev.c ****     lv_obj_clear_flag(indev->cursor, LV_OBJ_FLAG_CLICKABLE);
 191:Middlewares/lvgl/src/core/lv_indev.c ****     lv_obj_add_flag(indev->cursor, LV_OBJ_FLAG_IGNORE_LAYOUT | LV_OBJ_FLAG_FLOATING);
 192:Middlewares/lvgl/src/core/lv_indev.c **** }
 193:Middlewares/lvgl/src/core/lv_indev.c **** 
 194:Middlewares/lvgl/src/core/lv_indev.c **** void lv_indev_set_group(lv_indev_t * indev, lv_group_t * group)
 195:Middlewares/lvgl/src/core/lv_indev.c **** {
 196:Middlewares/lvgl/src/core/lv_indev.c ****     if(indev->driver->type == LV_INDEV_TYPE_KEYPAD || indev->driver->type == LV_INDEV_TYPE_ENCODER)
 197:Middlewares/lvgl/src/core/lv_indev.c ****         indev->group = group;
 198:Middlewares/lvgl/src/core/lv_indev.c ****     }
 199:Middlewares/lvgl/src/core/lv_indev.c **** }
 200:Middlewares/lvgl/src/core/lv_indev.c **** 
 201:Middlewares/lvgl/src/core/lv_indev.c **** void lv_indev_set_button_points(lv_indev_t * indev, const lv_point_t points[])
 202:Middlewares/lvgl/src/core/lv_indev.c **** {
 203:Middlewares/lvgl/src/core/lv_indev.c ****     if(indev->driver->type == LV_INDEV_TYPE_BUTTON) {
ARM GAS  /tmp/cc4kiO2x.s 			page 5


 204:Middlewares/lvgl/src/core/lv_indev.c ****         indev->btn_points = points;
 205:Middlewares/lvgl/src/core/lv_indev.c ****     }
 206:Middlewares/lvgl/src/core/lv_indev.c **** }
 207:Middlewares/lvgl/src/core/lv_indev.c **** 
 208:Middlewares/lvgl/src/core/lv_indev.c **** void lv_indev_get_point(const lv_indev_t * indev, lv_point_t * point)
 209:Middlewares/lvgl/src/core/lv_indev.c **** {
 210:Middlewares/lvgl/src/core/lv_indev.c ****     if(indev == NULL) {
 211:Middlewares/lvgl/src/core/lv_indev.c ****         point->x = 0;
 212:Middlewares/lvgl/src/core/lv_indev.c ****         point->y = 0;
 213:Middlewares/lvgl/src/core/lv_indev.c ****         return;
 214:Middlewares/lvgl/src/core/lv_indev.c ****     }
 215:Middlewares/lvgl/src/core/lv_indev.c ****     if(indev->driver->type != LV_INDEV_TYPE_POINTER && indev->driver->type != LV_INDEV_TYPE_BUTTON)
 216:Middlewares/lvgl/src/core/lv_indev.c ****         point->x = -1;
 217:Middlewares/lvgl/src/core/lv_indev.c ****         point->y = -1;
 218:Middlewares/lvgl/src/core/lv_indev.c ****     }
 219:Middlewares/lvgl/src/core/lv_indev.c ****     else {
 220:Middlewares/lvgl/src/core/lv_indev.c ****         point->x = indev->proc.types.pointer.act_point.x;
 221:Middlewares/lvgl/src/core/lv_indev.c ****         point->y = indev->proc.types.pointer.act_point.y;
 222:Middlewares/lvgl/src/core/lv_indev.c ****     }
 223:Middlewares/lvgl/src/core/lv_indev.c **** }
 224:Middlewares/lvgl/src/core/lv_indev.c **** 
 225:Middlewares/lvgl/src/core/lv_indev.c **** lv_dir_t lv_indev_get_gesture_dir(const lv_indev_t * indev)
 226:Middlewares/lvgl/src/core/lv_indev.c **** {
 227:Middlewares/lvgl/src/core/lv_indev.c ****     return indev->proc.types.pointer.gesture_dir;
 228:Middlewares/lvgl/src/core/lv_indev.c **** }
 229:Middlewares/lvgl/src/core/lv_indev.c **** 
 230:Middlewares/lvgl/src/core/lv_indev.c **** uint32_t lv_indev_get_key(const lv_indev_t * indev)
 231:Middlewares/lvgl/src/core/lv_indev.c **** {
 232:Middlewares/lvgl/src/core/lv_indev.c ****     if(indev->driver->type != LV_INDEV_TYPE_KEYPAD)
 233:Middlewares/lvgl/src/core/lv_indev.c ****         return 0;
 234:Middlewares/lvgl/src/core/lv_indev.c ****     else
 235:Middlewares/lvgl/src/core/lv_indev.c ****         return indev->proc.types.keypad.last_key;
 236:Middlewares/lvgl/src/core/lv_indev.c **** }
 237:Middlewares/lvgl/src/core/lv_indev.c **** 
 238:Middlewares/lvgl/src/core/lv_indev.c **** lv_dir_t lv_indev_get_scroll_dir(const lv_indev_t * indev)
 239:Middlewares/lvgl/src/core/lv_indev.c **** {
 240:Middlewares/lvgl/src/core/lv_indev.c ****     if(indev == NULL) return false;
 241:Middlewares/lvgl/src/core/lv_indev.c ****     if(indev->driver->type != LV_INDEV_TYPE_POINTER && indev->driver->type != LV_INDEV_TYPE_BUTTON)
 242:Middlewares/lvgl/src/core/lv_indev.c ****     return indev->proc.types.pointer.scroll_dir;
 243:Middlewares/lvgl/src/core/lv_indev.c **** }
 244:Middlewares/lvgl/src/core/lv_indev.c **** 
 245:Middlewares/lvgl/src/core/lv_indev.c **** lv_obj_t * lv_indev_get_scroll_obj(const lv_indev_t * indev)
 246:Middlewares/lvgl/src/core/lv_indev.c **** {
 247:Middlewares/lvgl/src/core/lv_indev.c ****     if(indev == NULL) return NULL;
 248:Middlewares/lvgl/src/core/lv_indev.c ****     if(indev->driver->type != LV_INDEV_TYPE_POINTER && indev->driver->type != LV_INDEV_TYPE_BUTTON)
 249:Middlewares/lvgl/src/core/lv_indev.c ****     return indev->proc.types.pointer.scroll_obj;
 250:Middlewares/lvgl/src/core/lv_indev.c **** }
 251:Middlewares/lvgl/src/core/lv_indev.c **** 
 252:Middlewares/lvgl/src/core/lv_indev.c **** void lv_indev_get_vect(const lv_indev_t * indev, lv_point_t * point)
 253:Middlewares/lvgl/src/core/lv_indev.c **** {
 254:Middlewares/lvgl/src/core/lv_indev.c ****     point->x = 0;
 255:Middlewares/lvgl/src/core/lv_indev.c ****     point->y = 0;
 256:Middlewares/lvgl/src/core/lv_indev.c **** 
 257:Middlewares/lvgl/src/core/lv_indev.c ****     if(indev == NULL) return;
 258:Middlewares/lvgl/src/core/lv_indev.c **** 
 259:Middlewares/lvgl/src/core/lv_indev.c ****     if(indev->driver->type == LV_INDEV_TYPE_POINTER || indev->driver->type == LV_INDEV_TYPE_BUTTON)
 260:Middlewares/lvgl/src/core/lv_indev.c ****         point->x = indev->proc.types.pointer.vect.x;
ARM GAS  /tmp/cc4kiO2x.s 			page 6


 261:Middlewares/lvgl/src/core/lv_indev.c ****         point->y = indev->proc.types.pointer.vect.y;
 262:Middlewares/lvgl/src/core/lv_indev.c ****     }
 263:Middlewares/lvgl/src/core/lv_indev.c **** }
 264:Middlewares/lvgl/src/core/lv_indev.c **** 
 265:Middlewares/lvgl/src/core/lv_indev.c **** void lv_indev_wait_release(lv_indev_t * indev)
 266:Middlewares/lvgl/src/core/lv_indev.c **** {
 267:Middlewares/lvgl/src/core/lv_indev.c ****     if(indev == NULL)return;
 268:Middlewares/lvgl/src/core/lv_indev.c ****     indev->proc.wait_until_release = 1;
 269:Middlewares/lvgl/src/core/lv_indev.c **** }
 270:Middlewares/lvgl/src/core/lv_indev.c **** 
 271:Middlewares/lvgl/src/core/lv_indev.c **** lv_obj_t * lv_indev_get_obj_act(void)
 272:Middlewares/lvgl/src/core/lv_indev.c **** {
 273:Middlewares/lvgl/src/core/lv_indev.c ****     return indev_obj_act;
 274:Middlewares/lvgl/src/core/lv_indev.c **** }
 275:Middlewares/lvgl/src/core/lv_indev.c **** 
 276:Middlewares/lvgl/src/core/lv_indev.c **** lv_timer_t * lv_indev_get_read_timer(lv_disp_t * indev)
 277:Middlewares/lvgl/src/core/lv_indev.c **** {
 278:Middlewares/lvgl/src/core/lv_indev.c ****     if(!indev) {
 279:Middlewares/lvgl/src/core/lv_indev.c ****         LV_LOG_WARN("lv_indev_get_read_timer: indev was NULL");
 280:Middlewares/lvgl/src/core/lv_indev.c ****         return NULL;
 281:Middlewares/lvgl/src/core/lv_indev.c ****     }
 282:Middlewares/lvgl/src/core/lv_indev.c **** 
 283:Middlewares/lvgl/src/core/lv_indev.c ****     return indev->refr_timer;
 284:Middlewares/lvgl/src/core/lv_indev.c **** }
 285:Middlewares/lvgl/src/core/lv_indev.c **** 
 286:Middlewares/lvgl/src/core/lv_indev.c **** lv_obj_t * lv_indev_search_obj(lv_obj_t * obj, lv_point_t * point)
 287:Middlewares/lvgl/src/core/lv_indev.c **** {
 288:Middlewares/lvgl/src/core/lv_indev.c ****     lv_obj_t * found_p = NULL;
 289:Middlewares/lvgl/src/core/lv_indev.c **** 
 290:Middlewares/lvgl/src/core/lv_indev.c ****     /*If the point is on this object check its children too*/
 291:Middlewares/lvgl/src/core/lv_indev.c ****     if(lv_obj_hit_test(obj, point)) {
 292:Middlewares/lvgl/src/core/lv_indev.c ****         int32_t i;
 293:Middlewares/lvgl/src/core/lv_indev.c ****         for(i = lv_obj_get_child_cnt(obj) - 1; i >= 0; i--) {
 294:Middlewares/lvgl/src/core/lv_indev.c ****             lv_obj_t * child = lv_obj_get_child(obj, i);
 295:Middlewares/lvgl/src/core/lv_indev.c ****             found_p = lv_indev_search_obj(child, point);
 296:Middlewares/lvgl/src/core/lv_indev.c **** 
 297:Middlewares/lvgl/src/core/lv_indev.c ****             /*If a child was found then break*/
 298:Middlewares/lvgl/src/core/lv_indev.c ****             if(found_p != NULL) break;
 299:Middlewares/lvgl/src/core/lv_indev.c ****         }
 300:Middlewares/lvgl/src/core/lv_indev.c **** 
 301:Middlewares/lvgl/src/core/lv_indev.c ****         /*If then the children was not ok, and this obj is clickable
 302:Middlewares/lvgl/src/core/lv_indev.c ****          * and it or its parent is not hidden then save this object*/
 303:Middlewares/lvgl/src/core/lv_indev.c ****         if(found_p == NULL && lv_obj_has_flag(obj, LV_OBJ_FLAG_CLICKABLE)) {
 304:Middlewares/lvgl/src/core/lv_indev.c ****             lv_obj_t * hidden_i = obj;
 305:Middlewares/lvgl/src/core/lv_indev.c ****             while(hidden_i != NULL) {
 306:Middlewares/lvgl/src/core/lv_indev.c ****                 if(lv_obj_has_flag(hidden_i, LV_OBJ_FLAG_HIDDEN) == true) break;
 307:Middlewares/lvgl/src/core/lv_indev.c ****                 hidden_i = lv_obj_get_parent(hidden_i);
 308:Middlewares/lvgl/src/core/lv_indev.c ****             }
 309:Middlewares/lvgl/src/core/lv_indev.c ****             /*No parent found with hidden == true*/
 310:Middlewares/lvgl/src/core/lv_indev.c ****             if(hidden_i == NULL && (lv_obj_get_state(obj) & LV_STATE_DISABLED) == false) found_p = 
 311:Middlewares/lvgl/src/core/lv_indev.c ****         }
 312:Middlewares/lvgl/src/core/lv_indev.c ****     }
 313:Middlewares/lvgl/src/core/lv_indev.c **** 
 314:Middlewares/lvgl/src/core/lv_indev.c ****     return found_p;
 315:Middlewares/lvgl/src/core/lv_indev.c **** }
 316:Middlewares/lvgl/src/core/lv_indev.c **** 
 317:Middlewares/lvgl/src/core/lv_indev.c **** /**********************
ARM GAS  /tmp/cc4kiO2x.s 			page 7


 318:Middlewares/lvgl/src/core/lv_indev.c ****  *   STATIC FUNCTIONS
 319:Middlewares/lvgl/src/core/lv_indev.c ****  **********************/
 320:Middlewares/lvgl/src/core/lv_indev.c **** 
 321:Middlewares/lvgl/src/core/lv_indev.c **** /**
 322:Middlewares/lvgl/src/core/lv_indev.c ****  * Process a new point from LV_INDEV_TYPE_POINTER input device
 323:Middlewares/lvgl/src/core/lv_indev.c ****  * @param i pointer to an input device
 324:Middlewares/lvgl/src/core/lv_indev.c ****  * @param data pointer to the data read from the input device
 325:Middlewares/lvgl/src/core/lv_indev.c ****  */
 326:Middlewares/lvgl/src/core/lv_indev.c **** static void indev_pointer_proc(lv_indev_t * i, lv_indev_data_t * data)
 327:Middlewares/lvgl/src/core/lv_indev.c **** {
 328:Middlewares/lvgl/src/core/lv_indev.c ****     lv_disp_t *disp = i->driver->disp;
 329:Middlewares/lvgl/src/core/lv_indev.c ****     /*Save the raw points so they can be used again in _lv_indev_read*/
 330:Middlewares/lvgl/src/core/lv_indev.c ****     i->proc.types.pointer.last_raw_point.x = data->point.x;
 331:Middlewares/lvgl/src/core/lv_indev.c ****     i->proc.types.pointer.last_raw_point.y = data->point.y;
 332:Middlewares/lvgl/src/core/lv_indev.c **** 
 333:Middlewares/lvgl/src/core/lv_indev.c ****     if(disp->driver->rotated == LV_DISP_ROT_180 || disp->driver->rotated == LV_DISP_ROT_270) {
 334:Middlewares/lvgl/src/core/lv_indev.c ****         data->point.x = disp->driver->hor_res - data->point.x - 1;
 335:Middlewares/lvgl/src/core/lv_indev.c ****         data->point.y = disp->driver->ver_res - data->point.y - 1;
 336:Middlewares/lvgl/src/core/lv_indev.c ****     }
 337:Middlewares/lvgl/src/core/lv_indev.c ****     if(disp->driver->rotated == LV_DISP_ROT_90 || disp->driver->rotated == LV_DISP_ROT_270) {
 338:Middlewares/lvgl/src/core/lv_indev.c ****         lv_coord_t tmp = data->point.y;
 339:Middlewares/lvgl/src/core/lv_indev.c ****         data->point.y = data->point.x;
 340:Middlewares/lvgl/src/core/lv_indev.c ****         data->point.x = disp->driver->ver_res - tmp - 1;
 341:Middlewares/lvgl/src/core/lv_indev.c ****     }
 342:Middlewares/lvgl/src/core/lv_indev.c **** 
 343:Middlewares/lvgl/src/core/lv_indev.c ****     /*Simple sanity check*/
 344:Middlewares/lvgl/src/core/lv_indev.c ****     if(data->point.x < 0) LV_LOG_WARN("X is %d which is smaller than zero", data->point.x);
 345:Middlewares/lvgl/src/core/lv_indev.c ****     if(data->point.x >= lv_disp_get_hor_res(i->driver->disp)) LV_LOG_WARN("X is %d which is greater
 346:Middlewares/lvgl/src/core/lv_indev.c ****     if(data->point.y < 0) LV_LOG_WARN("Y is %d which is smaller than zero", data->point.y);
 347:Middlewares/lvgl/src/core/lv_indev.c ****     if(data->point.y >= lv_disp_get_ver_res(i->driver->disp)) LV_LOG_WARN("Y is %d which is greater
 348:Middlewares/lvgl/src/core/lv_indev.c **** 
 349:Middlewares/lvgl/src/core/lv_indev.c ****     /*Move the cursor if set and moved*/
 350:Middlewares/lvgl/src/core/lv_indev.c ****     if(i->cursor != NULL &&
 351:Middlewares/lvgl/src/core/lv_indev.c ****        (i->proc.types.pointer.last_point.x != data->point.x || i->proc.types.pointer.last_point.y !
 352:Middlewares/lvgl/src/core/lv_indev.c ****         lv_obj_set_pos(i->cursor, data->point.x, data->point.y);
 353:Middlewares/lvgl/src/core/lv_indev.c ****     }
 354:Middlewares/lvgl/src/core/lv_indev.c **** 
 355:Middlewares/lvgl/src/core/lv_indev.c ****     i->proc.types.pointer.act_point.x = data->point.x;
 356:Middlewares/lvgl/src/core/lv_indev.c ****     i->proc.types.pointer.act_point.y = data->point.y;
 357:Middlewares/lvgl/src/core/lv_indev.c **** 
 358:Middlewares/lvgl/src/core/lv_indev.c ****     if(i->proc.state == LV_INDEV_STATE_PRESSED) {
 359:Middlewares/lvgl/src/core/lv_indev.c ****         indev_proc_press(&i->proc);
 360:Middlewares/lvgl/src/core/lv_indev.c ****     }
 361:Middlewares/lvgl/src/core/lv_indev.c ****     else {
 362:Middlewares/lvgl/src/core/lv_indev.c ****         indev_proc_release(&i->proc);
 363:Middlewares/lvgl/src/core/lv_indev.c ****     }
 364:Middlewares/lvgl/src/core/lv_indev.c **** 
 365:Middlewares/lvgl/src/core/lv_indev.c ****     i->proc.types.pointer.last_point.x = i->proc.types.pointer.act_point.x;
 366:Middlewares/lvgl/src/core/lv_indev.c ****     i->proc.types.pointer.last_point.y = i->proc.types.pointer.act_point.y;
 367:Middlewares/lvgl/src/core/lv_indev.c **** }
 368:Middlewares/lvgl/src/core/lv_indev.c **** 
 369:Middlewares/lvgl/src/core/lv_indev.c **** /**
 370:Middlewares/lvgl/src/core/lv_indev.c ****  * Process a new point from LV_INDEV_TYPE_KEYPAD input device
 371:Middlewares/lvgl/src/core/lv_indev.c ****  * @param i pointer to an input device
 372:Middlewares/lvgl/src/core/lv_indev.c ****  * @param data pointer to the data read from the input device
 373:Middlewares/lvgl/src/core/lv_indev.c ****  */
 374:Middlewares/lvgl/src/core/lv_indev.c **** static void indev_keypad_proc(lv_indev_t * i, lv_indev_data_t * data)
ARM GAS  /tmp/cc4kiO2x.s 			page 8


 375:Middlewares/lvgl/src/core/lv_indev.c **** {
 376:Middlewares/lvgl/src/core/lv_indev.c ****     if(data->state == LV_INDEV_STATE_PRESSED && i->proc.wait_until_release) return;
 377:Middlewares/lvgl/src/core/lv_indev.c **** 
 378:Middlewares/lvgl/src/core/lv_indev.c ****     if(i->proc.wait_until_release) {
 379:Middlewares/lvgl/src/core/lv_indev.c ****         i->proc.wait_until_release      = 0;
 380:Middlewares/lvgl/src/core/lv_indev.c ****         i->proc.pr_timestamp            = 0;
 381:Middlewares/lvgl/src/core/lv_indev.c ****         i->proc.long_pr_sent            = 0;
 382:Middlewares/lvgl/src/core/lv_indev.c ****         i->proc.types.keypad.last_state = LV_INDEV_STATE_RELEASED; /*To skip the processing of rele
 383:Middlewares/lvgl/src/core/lv_indev.c ****     }
 384:Middlewares/lvgl/src/core/lv_indev.c **** 
 385:Middlewares/lvgl/src/core/lv_indev.c ****     lv_group_t * g = i->group;
 386:Middlewares/lvgl/src/core/lv_indev.c ****     if(g == NULL) return;
 387:Middlewares/lvgl/src/core/lv_indev.c **** 
 388:Middlewares/lvgl/src/core/lv_indev.c ****     indev_obj_act = lv_group_get_focused(g);
 389:Middlewares/lvgl/src/core/lv_indev.c ****     if(indev_obj_act == NULL) return;
 390:Middlewares/lvgl/src/core/lv_indev.c **** 
 391:Middlewares/lvgl/src/core/lv_indev.c ****     /*Save the last key to compare it with the current latter on RELEASE*/
 392:Middlewares/lvgl/src/core/lv_indev.c ****     uint32_t prev_key = i->proc.types.keypad.last_key;
 393:Middlewares/lvgl/src/core/lv_indev.c **** 
 394:Middlewares/lvgl/src/core/lv_indev.c ****     /*Save the last key.
 395:Middlewares/lvgl/src/core/lv_indev.c ****      *It must be done here else `lv_indev_get_key` will return the last key in events*/
 396:Middlewares/lvgl/src/core/lv_indev.c ****     i->proc.types.keypad.last_key = data->key;
 397:Middlewares/lvgl/src/core/lv_indev.c **** 
 398:Middlewares/lvgl/src/core/lv_indev.c ****     /*Save the previous state so we can detect state changes below and also set the last state now
 399:Middlewares/lvgl/src/core/lv_indev.c ****      *so if any event handler on the way returns `LV_RES_INV` the last state is remembered
 400:Middlewares/lvgl/src/core/lv_indev.c ****      *for the next time*/
 401:Middlewares/lvgl/src/core/lv_indev.c ****     uint32_t prev_state             = i->proc.types.keypad.last_state;
 402:Middlewares/lvgl/src/core/lv_indev.c ****     i->proc.types.keypad.last_state = data->state;
 403:Middlewares/lvgl/src/core/lv_indev.c **** 
 404:Middlewares/lvgl/src/core/lv_indev.c ****     /*Key press happened*/
 405:Middlewares/lvgl/src/core/lv_indev.c ****     if(data->state == LV_INDEV_STATE_PRESSED && prev_state == LV_INDEV_STATE_RELEASED) {
 406:Middlewares/lvgl/src/core/lv_indev.c ****         LV_LOG_INFO("%d key is pressed", data->key);
 407:Middlewares/lvgl/src/core/lv_indev.c ****         i->proc.pr_timestamp = lv_tick_get();
 408:Middlewares/lvgl/src/core/lv_indev.c **** 
 409:Middlewares/lvgl/src/core/lv_indev.c ****         /*Simulate a press on the object if ENTER was pressed*/
 410:Middlewares/lvgl/src/core/lv_indev.c ****         if(data->key == LV_KEY_ENTER) {
 411:Middlewares/lvgl/src/core/lv_indev.c ****             /*Send the ENTER as a normal KEY*/
 412:Middlewares/lvgl/src/core/lv_indev.c ****             lv_group_send_data(g, LV_KEY_ENTER);
 413:Middlewares/lvgl/src/core/lv_indev.c **** 
 414:Middlewares/lvgl/src/core/lv_indev.c ****             lv_event_send(indev_obj_act, LV_EVENT_PRESSED, indev_act);
 415:Middlewares/lvgl/src/core/lv_indev.c ****             if(indev_reset_check(&i->proc)) return;
 416:Middlewares/lvgl/src/core/lv_indev.c ****         }
 417:Middlewares/lvgl/src/core/lv_indev.c ****         else if(data->key == LV_KEY_ESC) {
 418:Middlewares/lvgl/src/core/lv_indev.c ****             /*Send the ESC as a normal KEY*/
 419:Middlewares/lvgl/src/core/lv_indev.c ****             lv_group_send_data(g, LV_KEY_ESC);
 420:Middlewares/lvgl/src/core/lv_indev.c **** 
 421:Middlewares/lvgl/src/core/lv_indev.c ****             lv_event_send(indev_obj_act, LV_EVENT_CANCEL, indev_act);
 422:Middlewares/lvgl/src/core/lv_indev.c ****             if(indev_reset_check(&i->proc)) return;
 423:Middlewares/lvgl/src/core/lv_indev.c ****         }
 424:Middlewares/lvgl/src/core/lv_indev.c ****         /*Move the focus on NEXT*/
 425:Middlewares/lvgl/src/core/lv_indev.c ****         else if(data->key == LV_KEY_NEXT) {
 426:Middlewares/lvgl/src/core/lv_indev.c ****             lv_group_set_editing(g, false); /*Editing is not used by KEYPAD is be sure it is disabl
 427:Middlewares/lvgl/src/core/lv_indev.c ****             lv_group_focus_next(g);
 428:Middlewares/lvgl/src/core/lv_indev.c ****             if(indev_reset_check(&i->proc)) return;
 429:Middlewares/lvgl/src/core/lv_indev.c ****         }
 430:Middlewares/lvgl/src/core/lv_indev.c ****         /*Move the focus on PREV*/
 431:Middlewares/lvgl/src/core/lv_indev.c ****         else if(data->key == LV_KEY_PREV) {
ARM GAS  /tmp/cc4kiO2x.s 			page 9


 432:Middlewares/lvgl/src/core/lv_indev.c ****             lv_group_set_editing(g, false); /*Editing is not used by KEYPAD is be sure it is disabl
 433:Middlewares/lvgl/src/core/lv_indev.c ****             lv_group_focus_prev(g);
 434:Middlewares/lvgl/src/core/lv_indev.c ****             if(indev_reset_check(&i->proc)) return;
 435:Middlewares/lvgl/src/core/lv_indev.c ****         }
 436:Middlewares/lvgl/src/core/lv_indev.c ****         /*Just send other keys to the object (e.g. 'A' or `LV_GROUP_KEY_RIGHT`)*/
 437:Middlewares/lvgl/src/core/lv_indev.c ****         else {
 438:Middlewares/lvgl/src/core/lv_indev.c ****             lv_group_send_data(g, data->key);
 439:Middlewares/lvgl/src/core/lv_indev.c ****         }
 440:Middlewares/lvgl/src/core/lv_indev.c ****     }
 441:Middlewares/lvgl/src/core/lv_indev.c ****     /*Pressing*/
 442:Middlewares/lvgl/src/core/lv_indev.c ****     else if(data->state == LV_INDEV_STATE_PRESSED && prev_state == LV_INDEV_STATE_PRESSED) {
 443:Middlewares/lvgl/src/core/lv_indev.c **** 
 444:Middlewares/lvgl/src/core/lv_indev.c ****         if(data->key == LV_KEY_ENTER) {
 445:Middlewares/lvgl/src/core/lv_indev.c ****             lv_event_send(indev_obj_act, LV_EVENT_PRESSING, indev_act);
 446:Middlewares/lvgl/src/core/lv_indev.c ****             if(indev_reset_check(&i->proc)) return;
 447:Middlewares/lvgl/src/core/lv_indev.c ****         }
 448:Middlewares/lvgl/src/core/lv_indev.c **** 
 449:Middlewares/lvgl/src/core/lv_indev.c ****         /*Long press time has elapsed?*/
 450:Middlewares/lvgl/src/core/lv_indev.c ****         if(i->proc.long_pr_sent == 0 && lv_tick_elaps(i->proc.pr_timestamp) > i->driver->long_press
 451:Middlewares/lvgl/src/core/lv_indev.c ****             i->proc.long_pr_sent = 1;
 452:Middlewares/lvgl/src/core/lv_indev.c ****             if(data->key == LV_KEY_ENTER) {
 453:Middlewares/lvgl/src/core/lv_indev.c ****                 i->proc.longpr_rep_timestamp = lv_tick_get();
 454:Middlewares/lvgl/src/core/lv_indev.c ****                 lv_event_send(indev_obj_act, LV_EVENT_LONG_PRESSED, indev_act);
 455:Middlewares/lvgl/src/core/lv_indev.c ****                 if(indev_reset_check(&i->proc)) return;
 456:Middlewares/lvgl/src/core/lv_indev.c ****             }
 457:Middlewares/lvgl/src/core/lv_indev.c ****         }
 458:Middlewares/lvgl/src/core/lv_indev.c ****         /*Long press repeated time has elapsed?*/
 459:Middlewares/lvgl/src/core/lv_indev.c ****         else if(i->proc.long_pr_sent != 0 &&
 460:Middlewares/lvgl/src/core/lv_indev.c ****                 lv_tick_elaps(i->proc.longpr_rep_timestamp) > i->driver->long_press_repeat_time) {
 461:Middlewares/lvgl/src/core/lv_indev.c **** 
 462:Middlewares/lvgl/src/core/lv_indev.c ****             i->proc.longpr_rep_timestamp = lv_tick_get();
 463:Middlewares/lvgl/src/core/lv_indev.c **** 
 464:Middlewares/lvgl/src/core/lv_indev.c ****             /*Send LONG_PRESS_REP on ENTER*/
 465:Middlewares/lvgl/src/core/lv_indev.c ****             if(data->key == LV_KEY_ENTER) {
 466:Middlewares/lvgl/src/core/lv_indev.c ****                 lv_event_send(indev_obj_act, LV_EVENT_LONG_PRESSED_REPEAT, indev_act);
 467:Middlewares/lvgl/src/core/lv_indev.c ****                 if(indev_reset_check(&i->proc)) return;
 468:Middlewares/lvgl/src/core/lv_indev.c ****             }
 469:Middlewares/lvgl/src/core/lv_indev.c ****             /*Move the focus on NEXT again*/
 470:Middlewares/lvgl/src/core/lv_indev.c ****             else if(data->key == LV_KEY_NEXT) {
 471:Middlewares/lvgl/src/core/lv_indev.c ****                 lv_group_set_editing(g, false); /*Editing is not used by KEYPAD is be sure it is di
 472:Middlewares/lvgl/src/core/lv_indev.c ****                 lv_group_focus_next(g);
 473:Middlewares/lvgl/src/core/lv_indev.c ****                 if(indev_reset_check(&i->proc)) return;
 474:Middlewares/lvgl/src/core/lv_indev.c ****             }
 475:Middlewares/lvgl/src/core/lv_indev.c ****             /*Move the focus on PREV again*/
 476:Middlewares/lvgl/src/core/lv_indev.c ****             else if(data->key == LV_KEY_PREV) {
 477:Middlewares/lvgl/src/core/lv_indev.c ****                 lv_group_set_editing(g, false); /*Editing is not used by KEYPAD is be sure it is di
 478:Middlewares/lvgl/src/core/lv_indev.c ****                 lv_group_focus_prev(g);
 479:Middlewares/lvgl/src/core/lv_indev.c ****                 if(indev_reset_check(&i->proc)) return;
 480:Middlewares/lvgl/src/core/lv_indev.c ****             }
 481:Middlewares/lvgl/src/core/lv_indev.c ****             /*Just send other keys again to the object (e.g. 'A' or `LV_GROUP_KEY_RIGHT)*/
 482:Middlewares/lvgl/src/core/lv_indev.c ****             else {
 483:Middlewares/lvgl/src/core/lv_indev.c ****                 lv_group_send_data(g, data->key);
 484:Middlewares/lvgl/src/core/lv_indev.c ****                 if(indev_reset_check(&i->proc)) return;
 485:Middlewares/lvgl/src/core/lv_indev.c ****             }
 486:Middlewares/lvgl/src/core/lv_indev.c ****         }
 487:Middlewares/lvgl/src/core/lv_indev.c ****     }
 488:Middlewares/lvgl/src/core/lv_indev.c ****     /*Release happened*/
ARM GAS  /tmp/cc4kiO2x.s 			page 10


 489:Middlewares/lvgl/src/core/lv_indev.c ****     else if(data->state == LV_INDEV_STATE_RELEASED && prev_state == LV_INDEV_STATE_PRESSED) {
 490:Middlewares/lvgl/src/core/lv_indev.c ****         LV_LOG_INFO("%d key is released", data->key);
 491:Middlewares/lvgl/src/core/lv_indev.c ****         /*The user might clear the key when it was released. Always release the pressed key*/
 492:Middlewares/lvgl/src/core/lv_indev.c ****         data->key = prev_key;
 493:Middlewares/lvgl/src/core/lv_indev.c ****         if(data->key == LV_KEY_ENTER) {
 494:Middlewares/lvgl/src/core/lv_indev.c **** 
 495:Middlewares/lvgl/src/core/lv_indev.c ****             lv_event_send(indev_obj_act, LV_EVENT_RELEASED, indev_act);
 496:Middlewares/lvgl/src/core/lv_indev.c ****             if(indev_reset_check(&i->proc)) return;
 497:Middlewares/lvgl/src/core/lv_indev.c **** 
 498:Middlewares/lvgl/src/core/lv_indev.c ****             if(i->proc.long_pr_sent == 0) {
 499:Middlewares/lvgl/src/core/lv_indev.c ****                 lv_event_send(indev_obj_act, LV_EVENT_SHORT_CLICKED, indev_act);
 500:Middlewares/lvgl/src/core/lv_indev.c ****                 if(indev_reset_check(&i->proc)) return;
 501:Middlewares/lvgl/src/core/lv_indev.c ****             }
 502:Middlewares/lvgl/src/core/lv_indev.c **** 
 503:Middlewares/lvgl/src/core/lv_indev.c ****             lv_event_send(indev_obj_act, LV_EVENT_CLICKED, indev_act);
 504:Middlewares/lvgl/src/core/lv_indev.c ****             if(indev_reset_check(&i->proc)) return;
 505:Middlewares/lvgl/src/core/lv_indev.c **** 
 506:Middlewares/lvgl/src/core/lv_indev.c ****         }
 507:Middlewares/lvgl/src/core/lv_indev.c ****         i->proc.pr_timestamp = 0;
 508:Middlewares/lvgl/src/core/lv_indev.c ****         i->proc.long_pr_sent = 0;
 509:Middlewares/lvgl/src/core/lv_indev.c ****     }
 510:Middlewares/lvgl/src/core/lv_indev.c ****     indev_obj_act = NULL;
 511:Middlewares/lvgl/src/core/lv_indev.c **** }
 512:Middlewares/lvgl/src/core/lv_indev.c **** 
 513:Middlewares/lvgl/src/core/lv_indev.c **** /**
 514:Middlewares/lvgl/src/core/lv_indev.c ****  * Process a new point from LV_INDEV_TYPE_ENCODER input device
 515:Middlewares/lvgl/src/core/lv_indev.c ****  * @param i pointer to an input device
 516:Middlewares/lvgl/src/core/lv_indev.c ****  * @param data pointer to the data read from the input device
 517:Middlewares/lvgl/src/core/lv_indev.c ****  */
 518:Middlewares/lvgl/src/core/lv_indev.c **** static void indev_encoder_proc(lv_indev_t * i, lv_indev_data_t * data)
 519:Middlewares/lvgl/src/core/lv_indev.c **** {
 520:Middlewares/lvgl/src/core/lv_indev.c ****     if(data->state == LV_INDEV_STATE_PRESSED && i->proc.wait_until_release) return;
 521:Middlewares/lvgl/src/core/lv_indev.c **** 
 522:Middlewares/lvgl/src/core/lv_indev.c ****     if(i->proc.wait_until_release) {
 523:Middlewares/lvgl/src/core/lv_indev.c ****         i->proc.wait_until_release      = 0;
 524:Middlewares/lvgl/src/core/lv_indev.c ****         i->proc.pr_timestamp            = 0;
 525:Middlewares/lvgl/src/core/lv_indev.c ****         i->proc.long_pr_sent            = 0;
 526:Middlewares/lvgl/src/core/lv_indev.c ****         i->proc.types.keypad.last_state = LV_INDEV_STATE_RELEASED; /*To skip the processing of rele
 527:Middlewares/lvgl/src/core/lv_indev.c ****     }
 528:Middlewares/lvgl/src/core/lv_indev.c **** 
 529:Middlewares/lvgl/src/core/lv_indev.c ****     /*Save the last keys before anything else.
 530:Middlewares/lvgl/src/core/lv_indev.c ****      *They need to be already saved if the function returns for any reason*/
 531:Middlewares/lvgl/src/core/lv_indev.c ****     lv_indev_state_t last_state     = i->proc.types.keypad.last_state;
 532:Middlewares/lvgl/src/core/lv_indev.c ****     i->proc.types.keypad.last_state = data->state;
 533:Middlewares/lvgl/src/core/lv_indev.c ****     i->proc.types.keypad.last_key   = data->key;
 534:Middlewares/lvgl/src/core/lv_indev.c **** 
 535:Middlewares/lvgl/src/core/lv_indev.c ****     lv_group_t * g = i->group;
 536:Middlewares/lvgl/src/core/lv_indev.c ****     if(g == NULL) return;
 537:Middlewares/lvgl/src/core/lv_indev.c **** 
 538:Middlewares/lvgl/src/core/lv_indev.c ****     indev_obj_act = lv_group_get_focused(g);
 539:Middlewares/lvgl/src/core/lv_indev.c ****     if(indev_obj_act == NULL) return;
 540:Middlewares/lvgl/src/core/lv_indev.c **** 
 541:Middlewares/lvgl/src/core/lv_indev.c ****     /*Process the steps they are valid only with released button*/
 542:Middlewares/lvgl/src/core/lv_indev.c ****     if(data->state != LV_INDEV_STATE_RELEASED) {
 543:Middlewares/lvgl/src/core/lv_indev.c ****         data->enc_diff = 0;
 544:Middlewares/lvgl/src/core/lv_indev.c ****     }
 545:Middlewares/lvgl/src/core/lv_indev.c **** 
ARM GAS  /tmp/cc4kiO2x.s 			page 11


 546:Middlewares/lvgl/src/core/lv_indev.c ****     /*Refresh the focused object. It might change due to lv_group_focus_prev/next*/
 547:Middlewares/lvgl/src/core/lv_indev.c ****     indev_obj_act = lv_group_get_focused(g);
 548:Middlewares/lvgl/src/core/lv_indev.c ****     if(indev_obj_act == NULL) return;
 549:Middlewares/lvgl/src/core/lv_indev.c **** 
 550:Middlewares/lvgl/src/core/lv_indev.c ****     /*Button press happened*/
 551:Middlewares/lvgl/src/core/lv_indev.c ****     if(data->state == LV_INDEV_STATE_PRESSED && last_state == LV_INDEV_STATE_RELEASED) {
 552:Middlewares/lvgl/src/core/lv_indev.c ****         LV_LOG_INFO("pressed");
 553:Middlewares/lvgl/src/core/lv_indev.c **** 
 554:Middlewares/lvgl/src/core/lv_indev.c ****         i->proc.pr_timestamp = lv_tick_get();
 555:Middlewares/lvgl/src/core/lv_indev.c **** 
 556:Middlewares/lvgl/src/core/lv_indev.c ****         if(data->key == LV_KEY_ENTER) {
 557:Middlewares/lvgl/src/core/lv_indev.c ****             bool editable = lv_obj_is_editable(indev_obj_act);
 558:Middlewares/lvgl/src/core/lv_indev.c **** 
 559:Middlewares/lvgl/src/core/lv_indev.c ****             if(lv_group_get_editing(g) == true || editable == false) {
 560:Middlewares/lvgl/src/core/lv_indev.c ****                 lv_event_send(indev_obj_act, LV_EVENT_PRESSED, indev_act);
 561:Middlewares/lvgl/src/core/lv_indev.c ****                 if(indev_reset_check(&i->proc)) return;
 562:Middlewares/lvgl/src/core/lv_indev.c ****             }
 563:Middlewares/lvgl/src/core/lv_indev.c ****         }
 564:Middlewares/lvgl/src/core/lv_indev.c ****         else if(data->key == LV_KEY_LEFT) {
 565:Middlewares/lvgl/src/core/lv_indev.c ****             /*emulate encoder left*/
 566:Middlewares/lvgl/src/core/lv_indev.c ****             data->enc_diff--;
 567:Middlewares/lvgl/src/core/lv_indev.c ****         }
 568:Middlewares/lvgl/src/core/lv_indev.c ****         else if(data->key == LV_KEY_RIGHT) {
 569:Middlewares/lvgl/src/core/lv_indev.c ****             /*emulate encoder right*/
 570:Middlewares/lvgl/src/core/lv_indev.c ****             data->enc_diff++;
 571:Middlewares/lvgl/src/core/lv_indev.c ****         }
 572:Middlewares/lvgl/src/core/lv_indev.c ****         else if(data->key == LV_KEY_ESC) {
 573:Middlewares/lvgl/src/core/lv_indev.c ****             /*Send the ESC as a normal KEY*/
 574:Middlewares/lvgl/src/core/lv_indev.c ****             lv_group_send_data(g, LV_KEY_ESC);
 575:Middlewares/lvgl/src/core/lv_indev.c **** 
 576:Middlewares/lvgl/src/core/lv_indev.c ****             lv_event_send(indev_obj_act, LV_EVENT_CANCEL, indev_act);
 577:Middlewares/lvgl/src/core/lv_indev.c ****             if(indev_reset_check(&i->proc)) return;
 578:Middlewares/lvgl/src/core/lv_indev.c ****         }
 579:Middlewares/lvgl/src/core/lv_indev.c ****         /*Just send other keys to the object (e.g. 'A' or `LV_GROUP_KEY_RIGHT`)*/
 580:Middlewares/lvgl/src/core/lv_indev.c ****         else {
 581:Middlewares/lvgl/src/core/lv_indev.c ****             lv_group_send_data(g, data->key);
 582:Middlewares/lvgl/src/core/lv_indev.c ****         }
 583:Middlewares/lvgl/src/core/lv_indev.c ****     }
 584:Middlewares/lvgl/src/core/lv_indev.c ****     /*Pressing*/
 585:Middlewares/lvgl/src/core/lv_indev.c ****     else if(data->state == LV_INDEV_STATE_PRESSED && last_state == LV_INDEV_STATE_PRESSED) {
 586:Middlewares/lvgl/src/core/lv_indev.c ****         /*Long press*/
 587:Middlewares/lvgl/src/core/lv_indev.c ****         if(i->proc.long_pr_sent == 0 && lv_tick_elaps(i->proc.pr_timestamp) > i->driver->long_press
 588:Middlewares/lvgl/src/core/lv_indev.c **** 
 589:Middlewares/lvgl/src/core/lv_indev.c ****             i->proc.long_pr_sent = 1;
 590:Middlewares/lvgl/src/core/lv_indev.c ****             i->proc.longpr_rep_timestamp = lv_tick_get();
 591:Middlewares/lvgl/src/core/lv_indev.c **** 
 592:Middlewares/lvgl/src/core/lv_indev.c ****             if(data->key == LV_KEY_ENTER) {
 593:Middlewares/lvgl/src/core/lv_indev.c ****                 bool editable = lv_obj_is_editable(indev_obj_act);
 594:Middlewares/lvgl/src/core/lv_indev.c **** 
 595:Middlewares/lvgl/src/core/lv_indev.c ****                 /*On enter long press toggle edit mode.*/
 596:Middlewares/lvgl/src/core/lv_indev.c ****                 if(editable) {
 597:Middlewares/lvgl/src/core/lv_indev.c ****                     /*Don't leave edit mode if there is only one object (nowhere to navigate)*/
 598:Middlewares/lvgl/src/core/lv_indev.c ****                     if(lv_group_get_obj_count(g) > 1) {
 599:Middlewares/lvgl/src/core/lv_indev.c ****                         lv_group_set_editing(g, lv_group_get_editing(g) ? false : true); /*Toggle e
 600:Middlewares/lvgl/src/core/lv_indev.c ****                         lv_obj_clear_state(indev_obj_act, LV_STATE_PRESSED);    /*Remove the presse
 601:Middlewares/lvgl/src/core/lv_indev.c ****                     }
 602:Middlewares/lvgl/src/core/lv_indev.c ****                 }
ARM GAS  /tmp/cc4kiO2x.s 			page 12


 603:Middlewares/lvgl/src/core/lv_indev.c ****                 /*If not editable then just send a long press Call the ancestor's event handler*/
 604:Middlewares/lvgl/src/core/lv_indev.c ****                 else {
 605:Middlewares/lvgl/src/core/lv_indev.c ****                     lv_event_send(indev_obj_act, LV_EVENT_LONG_PRESSED, indev_act);
 606:Middlewares/lvgl/src/core/lv_indev.c ****                     if(indev_reset_check(&i->proc)) return;
 607:Middlewares/lvgl/src/core/lv_indev.c ****                 }
 608:Middlewares/lvgl/src/core/lv_indev.c ****             }
 609:Middlewares/lvgl/src/core/lv_indev.c **** 
 610:Middlewares/lvgl/src/core/lv_indev.c ****             i->proc.long_pr_sent = 1;
 611:Middlewares/lvgl/src/core/lv_indev.c ****         }
 612:Middlewares/lvgl/src/core/lv_indev.c ****         /*Long press repeated time has elapsed?*/
 613:Middlewares/lvgl/src/core/lv_indev.c ****         else if(i->proc.long_pr_sent != 0 && lv_tick_elaps(i->proc.longpr_rep_timestamp) > i->drive
 614:Middlewares/lvgl/src/core/lv_indev.c **** 
 615:Middlewares/lvgl/src/core/lv_indev.c ****             i->proc.longpr_rep_timestamp = lv_tick_get();
 616:Middlewares/lvgl/src/core/lv_indev.c **** 
 617:Middlewares/lvgl/src/core/lv_indev.c ****             if(data->key == LV_KEY_ENTER) {
 618:Middlewares/lvgl/src/core/lv_indev.c ****                 lv_event_send(indev_obj_act, LV_EVENT_LONG_PRESSED_REPEAT, indev_act);
 619:Middlewares/lvgl/src/core/lv_indev.c ****                 if(indev_reset_check(&i->proc)) return;
 620:Middlewares/lvgl/src/core/lv_indev.c ****             }
 621:Middlewares/lvgl/src/core/lv_indev.c ****             else if(data->key == LV_KEY_LEFT) {
 622:Middlewares/lvgl/src/core/lv_indev.c ****                 /*emulate encoder left*/
 623:Middlewares/lvgl/src/core/lv_indev.c ****                 data->enc_diff--;
 624:Middlewares/lvgl/src/core/lv_indev.c ****             }
 625:Middlewares/lvgl/src/core/lv_indev.c ****             else if(data->key == LV_KEY_RIGHT) {
 626:Middlewares/lvgl/src/core/lv_indev.c ****                 /*emulate encoder right*/
 627:Middlewares/lvgl/src/core/lv_indev.c ****                 data->enc_diff++;
 628:Middlewares/lvgl/src/core/lv_indev.c ****             }
 629:Middlewares/lvgl/src/core/lv_indev.c ****             else {
 630:Middlewares/lvgl/src/core/lv_indev.c ****                 lv_group_send_data(g, data->key);
 631:Middlewares/lvgl/src/core/lv_indev.c ****                 if(indev_reset_check(&i->proc)) return;
 632:Middlewares/lvgl/src/core/lv_indev.c ****             }
 633:Middlewares/lvgl/src/core/lv_indev.c **** 
 634:Middlewares/lvgl/src/core/lv_indev.c ****         }
 635:Middlewares/lvgl/src/core/lv_indev.c **** 
 636:Middlewares/lvgl/src/core/lv_indev.c ****     }
 637:Middlewares/lvgl/src/core/lv_indev.c ****     /*Release happened*/
 638:Middlewares/lvgl/src/core/lv_indev.c ****     else if(data->state == LV_INDEV_STATE_RELEASED && last_state == LV_INDEV_STATE_PRESSED) {
 639:Middlewares/lvgl/src/core/lv_indev.c ****         LV_LOG_INFO("released");
 640:Middlewares/lvgl/src/core/lv_indev.c **** 
 641:Middlewares/lvgl/src/core/lv_indev.c ****         if(data->key == LV_KEY_ENTER) {
 642:Middlewares/lvgl/src/core/lv_indev.c ****             bool editable = lv_obj_is_editable(indev_obj_act);
 643:Middlewares/lvgl/src/core/lv_indev.c **** 
 644:Middlewares/lvgl/src/core/lv_indev.c ****             /*The button was released on a non-editable object. Just send enter*/
 645:Middlewares/lvgl/src/core/lv_indev.c ****             if(editable == false) {
 646:Middlewares/lvgl/src/core/lv_indev.c ****                 lv_event_send(indev_obj_act, LV_EVENT_RELEASED, indev_act);
 647:Middlewares/lvgl/src/core/lv_indev.c ****                 if(indev_reset_check(&i->proc)) return;
 648:Middlewares/lvgl/src/core/lv_indev.c **** 
 649:Middlewares/lvgl/src/core/lv_indev.c ****                 if(i->proc.long_pr_sent == 0) lv_event_send(indev_obj_act, LV_EVENT_SHORT_CLICKED, 
 650:Middlewares/lvgl/src/core/lv_indev.c ****                 if(indev_reset_check(&i->proc)) return;
 651:Middlewares/lvgl/src/core/lv_indev.c **** 
 652:Middlewares/lvgl/src/core/lv_indev.c ****                 lv_event_send(indev_obj_act, LV_EVENT_CLICKED, indev_act);
 653:Middlewares/lvgl/src/core/lv_indev.c ****                 if(indev_reset_check(&i->proc)) return;
 654:Middlewares/lvgl/src/core/lv_indev.c **** 
 655:Middlewares/lvgl/src/core/lv_indev.c ****             }
 656:Middlewares/lvgl/src/core/lv_indev.c ****             /*An object is being edited and the button is released.*/
 657:Middlewares/lvgl/src/core/lv_indev.c ****             else if(lv_group_get_editing(g)) {
 658:Middlewares/lvgl/src/core/lv_indev.c ****                 /*Ignore long pressed enter release because it comes from mode switch*/
 659:Middlewares/lvgl/src/core/lv_indev.c ****                 if(!i->proc.long_pr_sent || lv_group_get_obj_count(g) <= 1) {
ARM GAS  /tmp/cc4kiO2x.s 			page 13


 660:Middlewares/lvgl/src/core/lv_indev.c ****                     lv_event_send(indev_obj_act, LV_EVENT_RELEASED, indev_act);
 661:Middlewares/lvgl/src/core/lv_indev.c ****                     if(indev_reset_check(&i->proc)) return;
 662:Middlewares/lvgl/src/core/lv_indev.c **** 
 663:Middlewares/lvgl/src/core/lv_indev.c ****                     lv_event_send(indev_obj_act, LV_EVENT_SHORT_CLICKED, indev_act);
 664:Middlewares/lvgl/src/core/lv_indev.c ****                     if(indev_reset_check(&i->proc)) return;
 665:Middlewares/lvgl/src/core/lv_indev.c **** 
 666:Middlewares/lvgl/src/core/lv_indev.c ****                     lv_event_send(indev_obj_act, LV_EVENT_CLICKED, indev_act);
 667:Middlewares/lvgl/src/core/lv_indev.c ****                     if(indev_reset_check(&i->proc)) return;
 668:Middlewares/lvgl/src/core/lv_indev.c **** 
 669:Middlewares/lvgl/src/core/lv_indev.c **** 
 670:Middlewares/lvgl/src/core/lv_indev.c ****                     lv_group_send_data(g, LV_KEY_ENTER);
 671:Middlewares/lvgl/src/core/lv_indev.c ****                 } else {
 672:Middlewares/lvgl/src/core/lv_indev.c ****                     lv_obj_clear_state(indev_obj_act, LV_STATE_PRESSED);    /*Remove the pressed st
 673:Middlewares/lvgl/src/core/lv_indev.c ****                 }
 674:Middlewares/lvgl/src/core/lv_indev.c ****             }
 675:Middlewares/lvgl/src/core/lv_indev.c ****             /*If the focused object is editable and now in navigate mode then on enter switch edit
 676:Middlewares/lvgl/src/core/lv_indev.c ****                mode*/
 677:Middlewares/lvgl/src/core/lv_indev.c ****             else if(editable && !lv_group_get_editing(g) && !i->proc.long_pr_sent) {
 678:Middlewares/lvgl/src/core/lv_indev.c ****                 lv_group_set_editing(g, true); /*Set edit mode*/
 679:Middlewares/lvgl/src/core/lv_indev.c ****             }
 680:Middlewares/lvgl/src/core/lv_indev.c ****         }
 681:Middlewares/lvgl/src/core/lv_indev.c **** 
 682:Middlewares/lvgl/src/core/lv_indev.c ****         i->proc.pr_timestamp = 0;
 683:Middlewares/lvgl/src/core/lv_indev.c ****         i->proc.long_pr_sent = 0;
 684:Middlewares/lvgl/src/core/lv_indev.c ****     }
 685:Middlewares/lvgl/src/core/lv_indev.c ****     indev_obj_act = NULL;
 686:Middlewares/lvgl/src/core/lv_indev.c **** 
 687:Middlewares/lvgl/src/core/lv_indev.c ****     /*if encoder steps or simulated steps via left/right keys*/
 688:Middlewares/lvgl/src/core/lv_indev.c ****     if(data->enc_diff != 0) {
 689:Middlewares/lvgl/src/core/lv_indev.c ****         LV_LOG_INFO("rotated by %d", data->enc_diff);
 690:Middlewares/lvgl/src/core/lv_indev.c ****         /*In edit mode send LEFT/RIGHT keys*/
 691:Middlewares/lvgl/src/core/lv_indev.c ****         if(lv_group_get_editing(g)) {
 692:Middlewares/lvgl/src/core/lv_indev.c ****             int32_t s;
 693:Middlewares/lvgl/src/core/lv_indev.c ****             if(data->enc_diff < 0) {
 694:Middlewares/lvgl/src/core/lv_indev.c ****                 for(s = 0; s < -data->enc_diff; s++) lv_group_send_data(g, LV_KEY_LEFT);
 695:Middlewares/lvgl/src/core/lv_indev.c ****             }
 696:Middlewares/lvgl/src/core/lv_indev.c ****             else if(data->enc_diff > 0) {
 697:Middlewares/lvgl/src/core/lv_indev.c ****                 for(s = 0; s < data->enc_diff; s++) lv_group_send_data(g, LV_KEY_RIGHT);
 698:Middlewares/lvgl/src/core/lv_indev.c ****             }
 699:Middlewares/lvgl/src/core/lv_indev.c ****         }
 700:Middlewares/lvgl/src/core/lv_indev.c ****         /*In navigate mode focus on the next/prev objects*/
 701:Middlewares/lvgl/src/core/lv_indev.c ****         else {
 702:Middlewares/lvgl/src/core/lv_indev.c ****             int32_t s;
 703:Middlewares/lvgl/src/core/lv_indev.c ****             if(data->enc_diff < 0) {
 704:Middlewares/lvgl/src/core/lv_indev.c ****                 for(s = 0; s < -data->enc_diff; s++) lv_group_focus_prev(g);
 705:Middlewares/lvgl/src/core/lv_indev.c ****             }
 706:Middlewares/lvgl/src/core/lv_indev.c ****             else if(data->enc_diff > 0) {
 707:Middlewares/lvgl/src/core/lv_indev.c ****                 for(s = 0; s < data->enc_diff; s++) lv_group_focus_next(g);
 708:Middlewares/lvgl/src/core/lv_indev.c ****             }
 709:Middlewares/lvgl/src/core/lv_indev.c ****         }
 710:Middlewares/lvgl/src/core/lv_indev.c ****     }
 711:Middlewares/lvgl/src/core/lv_indev.c **** }
 712:Middlewares/lvgl/src/core/lv_indev.c **** 
 713:Middlewares/lvgl/src/core/lv_indev.c **** /**
 714:Middlewares/lvgl/src/core/lv_indev.c ****  * Process new points from a input device. indev->state.pressed has to be set
 715:Middlewares/lvgl/src/core/lv_indev.c ****  * @param indev pointer to an input device state
 716:Middlewares/lvgl/src/core/lv_indev.c ****  * @param x x coordinate of the next point
ARM GAS  /tmp/cc4kiO2x.s 			page 14


 717:Middlewares/lvgl/src/core/lv_indev.c ****  * @param y y coordinate of the next point
 718:Middlewares/lvgl/src/core/lv_indev.c ****  */
 719:Middlewares/lvgl/src/core/lv_indev.c **** static void indev_button_proc(lv_indev_t * i, lv_indev_data_t * data)
 720:Middlewares/lvgl/src/core/lv_indev.c **** {
 721:Middlewares/lvgl/src/core/lv_indev.c ****     /*Die gracefully if i->btn_points is NULL*/
 722:Middlewares/lvgl/src/core/lv_indev.c ****     if(i->btn_points == NULL) {
 723:Middlewares/lvgl/src/core/lv_indev.c ****         LV_LOG_WARN("btn_points is NULL");
 724:Middlewares/lvgl/src/core/lv_indev.c ****         return;
 725:Middlewares/lvgl/src/core/lv_indev.c ****     }
 726:Middlewares/lvgl/src/core/lv_indev.c **** 
 727:Middlewares/lvgl/src/core/lv_indev.c ****     lv_coord_t x = i->btn_points[data->btn_id].x;
 728:Middlewares/lvgl/src/core/lv_indev.c ****     lv_coord_t y = i->btn_points[data->btn_id].y;
 729:Middlewares/lvgl/src/core/lv_indev.c **** 
 730:Middlewares/lvgl/src/core/lv_indev.c ****     static lv_indev_state_t prev_state = LV_INDEV_STATE_RELEASED;
 731:Middlewares/lvgl/src/core/lv_indev.c ****     if(prev_state != data->state) {
 732:Middlewares/lvgl/src/core/lv_indev.c ****         if(data->state == LV_INDEV_STATE_PRESSED) {
 733:Middlewares/lvgl/src/core/lv_indev.c ****             LV_LOG_INFO("button %d is pressed (x:%d y:%d)", data->btn_id, x, y);
 734:Middlewares/lvgl/src/core/lv_indev.c ****         }
 735:Middlewares/lvgl/src/core/lv_indev.c ****         else {
 736:Middlewares/lvgl/src/core/lv_indev.c ****             LV_LOG_INFO("button %d is released (x:%d y:%d)", data->btn_id, x, y);
 737:Middlewares/lvgl/src/core/lv_indev.c ****         }
 738:Middlewares/lvgl/src/core/lv_indev.c ****     }
 739:Middlewares/lvgl/src/core/lv_indev.c **** 
 740:Middlewares/lvgl/src/core/lv_indev.c ****     /*If a new point comes always make a release*/
 741:Middlewares/lvgl/src/core/lv_indev.c ****     if(data->state == LV_INDEV_STATE_PRESSED) {
 742:Middlewares/lvgl/src/core/lv_indev.c ****         if(i->proc.types.pointer.last_point.x != x ||
 743:Middlewares/lvgl/src/core/lv_indev.c ****            i->proc.types.pointer.last_point.y != y) {
 744:Middlewares/lvgl/src/core/lv_indev.c ****             indev_proc_release(&i->proc);
 745:Middlewares/lvgl/src/core/lv_indev.c ****         }
 746:Middlewares/lvgl/src/core/lv_indev.c ****     }
 747:Middlewares/lvgl/src/core/lv_indev.c **** 
 748:Middlewares/lvgl/src/core/lv_indev.c ****     if(indev_reset_check(&i->proc)) return;
 749:Middlewares/lvgl/src/core/lv_indev.c **** 
 750:Middlewares/lvgl/src/core/lv_indev.c ****     /*Save the new points*/
 751:Middlewares/lvgl/src/core/lv_indev.c ****     i->proc.types.pointer.act_point.x = x;
 752:Middlewares/lvgl/src/core/lv_indev.c ****     i->proc.types.pointer.act_point.y = y;
 753:Middlewares/lvgl/src/core/lv_indev.c **** 
 754:Middlewares/lvgl/src/core/lv_indev.c ****     if(data->state == LV_INDEV_STATE_PRESSED) indev_proc_press(&i->proc);
 755:Middlewares/lvgl/src/core/lv_indev.c ****     else indev_proc_release(&i->proc);
 756:Middlewares/lvgl/src/core/lv_indev.c **** 
 757:Middlewares/lvgl/src/core/lv_indev.c ****     if(indev_reset_check(&i->proc)) return;
 758:Middlewares/lvgl/src/core/lv_indev.c **** 
 759:Middlewares/lvgl/src/core/lv_indev.c ****     i->proc.types.pointer.last_point.x = i->proc.types.pointer.act_point.x;
 760:Middlewares/lvgl/src/core/lv_indev.c ****     i->proc.types.pointer.last_point.y = i->proc.types.pointer.act_point.y;
 761:Middlewares/lvgl/src/core/lv_indev.c **** }
 762:Middlewares/lvgl/src/core/lv_indev.c **** 
 763:Middlewares/lvgl/src/core/lv_indev.c **** /**
 764:Middlewares/lvgl/src/core/lv_indev.c ****  * Process the pressed state of LV_INDEV_TYPE_POINTER input devices
 765:Middlewares/lvgl/src/core/lv_indev.c ****  * @param indev pointer to an input device 'proc'
 766:Middlewares/lvgl/src/core/lv_indev.c ****  * @return LV_RES_OK: no indev reset required; LV_RES_INV: indev reset is required
 767:Middlewares/lvgl/src/core/lv_indev.c ****  */
 768:Middlewares/lvgl/src/core/lv_indev.c **** static void indev_proc_press(_lv_indev_proc_t * proc)
 769:Middlewares/lvgl/src/core/lv_indev.c **** {
 770:Middlewares/lvgl/src/core/lv_indev.c ****     LV_LOG_INFO("pressed at x:%d y:%d", proc->types.pointer.act_point.x, proc->types.pointer.act_po
 771:Middlewares/lvgl/src/core/lv_indev.c ****     indev_obj_act = proc->types.pointer.act_obj;
 772:Middlewares/lvgl/src/core/lv_indev.c **** 
 773:Middlewares/lvgl/src/core/lv_indev.c ****     if(proc->wait_until_release != 0) return;
ARM GAS  /tmp/cc4kiO2x.s 			page 15


 774:Middlewares/lvgl/src/core/lv_indev.c **** 
 775:Middlewares/lvgl/src/core/lv_indev.c ****     lv_disp_t * disp = indev_act->driver->disp;
 776:Middlewares/lvgl/src/core/lv_indev.c ****     bool new_obj_searched = false;
 777:Middlewares/lvgl/src/core/lv_indev.c **** 
 778:Middlewares/lvgl/src/core/lv_indev.c ****     /*If there is no last object then search*/
 779:Middlewares/lvgl/src/core/lv_indev.c ****     if(indev_obj_act == NULL) {
 780:Middlewares/lvgl/src/core/lv_indev.c ****         indev_obj_act = lv_indev_search_obj(lv_disp_get_layer_sys(disp), &proc->types.pointer.act_p
 781:Middlewares/lvgl/src/core/lv_indev.c ****         if(indev_obj_act == NULL) indev_obj_act = lv_indev_search_obj(lv_disp_get_layer_top(disp),
 782:Middlewares/lvgl/src/core/lv_indev.c ****                                                                           &proc->types.pointer.act_
 783:Middlewares/lvgl/src/core/lv_indev.c ****         if(indev_obj_act == NULL) indev_obj_act = lv_indev_search_obj(lv_disp_get_scr_act(disp),
 784:Middlewares/lvgl/src/core/lv_indev.c ****                                                                           &proc->types.pointer.act_
 785:Middlewares/lvgl/src/core/lv_indev.c ****         new_obj_searched = true;
 786:Middlewares/lvgl/src/core/lv_indev.c ****     }
 787:Middlewares/lvgl/src/core/lv_indev.c ****     /*If there is last object but it is not scrolled and not protected also search*/
 788:Middlewares/lvgl/src/core/lv_indev.c ****     else if(proc->types.pointer.scroll_obj == NULL &&
 789:Middlewares/lvgl/src/core/lv_indev.c ****             lv_obj_has_flag(indev_obj_act, LV_OBJ_FLAG_PRESS_LOCK) == false) {
 790:Middlewares/lvgl/src/core/lv_indev.c ****         indev_obj_act = lv_indev_search_obj(lv_disp_get_layer_sys(disp), &proc->types.pointer.act_p
 791:Middlewares/lvgl/src/core/lv_indev.c ****         if(indev_obj_act == NULL) indev_obj_act = lv_indev_search_obj(lv_disp_get_layer_top(disp),
 792:Middlewares/lvgl/src/core/lv_indev.c ****                                                                           &proc->types.pointer.act_
 793:Middlewares/lvgl/src/core/lv_indev.c ****         if(indev_obj_act == NULL) indev_obj_act = lv_indev_search_obj(lv_disp_get_scr_act(disp),
 794:Middlewares/lvgl/src/core/lv_indev.c ****                                                                           &proc->types.pointer.act_
 795:Middlewares/lvgl/src/core/lv_indev.c ****         new_obj_searched = true;
 796:Middlewares/lvgl/src/core/lv_indev.c ****     }
 797:Middlewares/lvgl/src/core/lv_indev.c **** 
 798:Middlewares/lvgl/src/core/lv_indev.c ****     /*The last object might have scroll throw. Stop it manually*/
 799:Middlewares/lvgl/src/core/lv_indev.c ****     if(new_obj_searched && proc->types.pointer.last_obj) {
 800:Middlewares/lvgl/src/core/lv_indev.c ****         proc->types.pointer.scroll_throw_vect.x = 0;
 801:Middlewares/lvgl/src/core/lv_indev.c ****         proc->types.pointer.scroll_throw_vect.y = 0;
 802:Middlewares/lvgl/src/core/lv_indev.c ****         _lv_indev_scroll_throw_handler(proc);
 803:Middlewares/lvgl/src/core/lv_indev.c ****         if(indev_reset_check(proc)) return;
 804:Middlewares/lvgl/src/core/lv_indev.c ****     }
 805:Middlewares/lvgl/src/core/lv_indev.c **** 
 806:Middlewares/lvgl/src/core/lv_indev.c ****     /*If a new object was found reset some variables and send a pressed Call the ancestor's event h
 807:Middlewares/lvgl/src/core/lv_indev.c ****     if(indev_obj_act != proc->types.pointer.act_obj) {
 808:Middlewares/lvgl/src/core/lv_indev.c ****         proc->types.pointer.last_point.x = proc->types.pointer.act_point.x;
 809:Middlewares/lvgl/src/core/lv_indev.c ****         proc->types.pointer.last_point.y = proc->types.pointer.act_point.y;
 810:Middlewares/lvgl/src/core/lv_indev.c **** 
 811:Middlewares/lvgl/src/core/lv_indev.c ****         /*If a new object found the previous was lost, so send a Call the ancestor's event handler*
 812:Middlewares/lvgl/src/core/lv_indev.c ****         if(proc->types.pointer.act_obj != NULL) {
 813:Middlewares/lvgl/src/core/lv_indev.c ****             /*Save the obj because in special cases `act_obj` can change in the Call the ancestor's
 814:Middlewares/lvgl/src/core/lv_indev.c ****             lv_obj_t * last_obj = proc->types.pointer.act_obj;
 815:Middlewares/lvgl/src/core/lv_indev.c **** 
 816:Middlewares/lvgl/src/core/lv_indev.c ****             lv_event_send(last_obj, LV_EVENT_PRESS_LOST, indev_act);
 817:Middlewares/lvgl/src/core/lv_indev.c ****             if(indev_reset_check(proc)) return;
 818:Middlewares/lvgl/src/core/lv_indev.c ****         }
 819:Middlewares/lvgl/src/core/lv_indev.c **** 
 820:Middlewares/lvgl/src/core/lv_indev.c ****         proc->types.pointer.act_obj  = indev_obj_act; /*Save the pressed object*/
 821:Middlewares/lvgl/src/core/lv_indev.c ****         proc->types.pointer.last_obj = indev_obj_act;
 822:Middlewares/lvgl/src/core/lv_indev.c **** 
 823:Middlewares/lvgl/src/core/lv_indev.c ****         if(indev_obj_act != NULL) {
 824:Middlewares/lvgl/src/core/lv_indev.c ****             /*Save the time when the obj pressed to count long press time.*/
 825:Middlewares/lvgl/src/core/lv_indev.c ****             proc->pr_timestamp                 = lv_tick_get();
 826:Middlewares/lvgl/src/core/lv_indev.c ****             proc->long_pr_sent                 = 0;
 827:Middlewares/lvgl/src/core/lv_indev.c ****             proc->types.pointer.scroll_sum.x     = 0;
 828:Middlewares/lvgl/src/core/lv_indev.c ****             proc->types.pointer.scroll_sum.y     = 0;
 829:Middlewares/lvgl/src/core/lv_indev.c ****             proc->types.pointer.scroll_dir = LV_DIR_NONE;
 830:Middlewares/lvgl/src/core/lv_indev.c ****             proc->types.pointer.gesture_dir = LV_DIR_NONE;
ARM GAS  /tmp/cc4kiO2x.s 			page 16


 831:Middlewares/lvgl/src/core/lv_indev.c ****             proc->types.pointer.gesture_sent   = 0;
 832:Middlewares/lvgl/src/core/lv_indev.c ****             proc->types.pointer.gesture_sum.x  = 0;
 833:Middlewares/lvgl/src/core/lv_indev.c ****             proc->types.pointer.gesture_sum.y  = 0;
 834:Middlewares/lvgl/src/core/lv_indev.c ****             proc->types.pointer.vect.x         = 0;
 835:Middlewares/lvgl/src/core/lv_indev.c ****             proc->types.pointer.vect.y         = 0;
 836:Middlewares/lvgl/src/core/lv_indev.c **** 
 837:Middlewares/lvgl/src/core/lv_indev.c ****             /*Call the ancestor's event handler about the press*/
 838:Middlewares/lvgl/src/core/lv_indev.c ****             lv_event_send(indev_obj_act, LV_EVENT_PRESSED, indev_act);
 839:Middlewares/lvgl/src/core/lv_indev.c ****             if(indev_reset_check(proc)) return;
 840:Middlewares/lvgl/src/core/lv_indev.c **** 
 841:Middlewares/lvgl/src/core/lv_indev.c ****             if(indev_act->proc.wait_until_release) return;
 842:Middlewares/lvgl/src/core/lv_indev.c **** 
 843:Middlewares/lvgl/src/core/lv_indev.c ****             /*Handle focus*/
 844:Middlewares/lvgl/src/core/lv_indev.c ****             indev_click_focus(&indev_act->proc);
 845:Middlewares/lvgl/src/core/lv_indev.c ****             if(indev_reset_check(proc)) return;
 846:Middlewares/lvgl/src/core/lv_indev.c **** 
 847:Middlewares/lvgl/src/core/lv_indev.c ****         }
 848:Middlewares/lvgl/src/core/lv_indev.c ****     }
 849:Middlewares/lvgl/src/core/lv_indev.c **** 
 850:Middlewares/lvgl/src/core/lv_indev.c ****     /*Calculate the vector and apply a low pass filter: new value = 0.5 * old_value + 0.5 * new_val
 851:Middlewares/lvgl/src/core/lv_indev.c ****     proc->types.pointer.vect.x = proc->types.pointer.act_point.x - proc->types.pointer.last_point.x
 852:Middlewares/lvgl/src/core/lv_indev.c ****     proc->types.pointer.vect.y = proc->types.pointer.act_point.y - proc->types.pointer.last_point.y
 853:Middlewares/lvgl/src/core/lv_indev.c **** 
 854:Middlewares/lvgl/src/core/lv_indev.c ****     proc->types.pointer.scroll_throw_vect.x = (proc->types.pointer.scroll_throw_vect.x * 4) >> 3;
 855:Middlewares/lvgl/src/core/lv_indev.c ****     proc->types.pointer.scroll_throw_vect.y = (proc->types.pointer.scroll_throw_vect.y * 4) >> 3;
 856:Middlewares/lvgl/src/core/lv_indev.c **** 
 857:Middlewares/lvgl/src/core/lv_indev.c ****     proc->types.pointer.scroll_throw_vect.x += (proc->types.pointer.vect.x * 4) >> 3;
 858:Middlewares/lvgl/src/core/lv_indev.c ****     proc->types.pointer.scroll_throw_vect.y += (proc->types.pointer.vect.y * 4) >> 3;
 859:Middlewares/lvgl/src/core/lv_indev.c **** 
 860:Middlewares/lvgl/src/core/lv_indev.c ****     proc->types.pointer.scroll_throw_vect_ori = proc->types.pointer.scroll_throw_vect;
 861:Middlewares/lvgl/src/core/lv_indev.c **** 
 862:Middlewares/lvgl/src/core/lv_indev.c ****     if(indev_obj_act) {
 863:Middlewares/lvgl/src/core/lv_indev.c ****         lv_event_send(indev_obj_act, LV_EVENT_PRESSING, indev_act);
 864:Middlewares/lvgl/src/core/lv_indev.c ****         if(indev_reset_check(proc)) return;
 865:Middlewares/lvgl/src/core/lv_indev.c **** 
 866:Middlewares/lvgl/src/core/lv_indev.c ****         if(indev_act->proc.wait_until_release) return;
 867:Middlewares/lvgl/src/core/lv_indev.c **** 
 868:Middlewares/lvgl/src/core/lv_indev.c ****         _lv_indev_scroll_handler(proc);
 869:Middlewares/lvgl/src/core/lv_indev.c ****         if(indev_reset_check(proc)) return;
 870:Middlewares/lvgl/src/core/lv_indev.c ****         indev_gesture(proc);
 871:Middlewares/lvgl/src/core/lv_indev.c ****         if(indev_reset_check(proc)) return;
 872:Middlewares/lvgl/src/core/lv_indev.c **** 
 873:Middlewares/lvgl/src/core/lv_indev.c ****         /*If there is no scrolling then check for long press time*/
 874:Middlewares/lvgl/src/core/lv_indev.c ****         if(proc->types.pointer.scroll_obj == NULL && proc->long_pr_sent == 0) {
 875:Middlewares/lvgl/src/core/lv_indev.c ****             /*Call the ancestor's event handler about the long press if enough time elapsed*/
 876:Middlewares/lvgl/src/core/lv_indev.c ****             if(lv_tick_elaps(proc->pr_timestamp) > indev_act->driver->long_press_time) {
 877:Middlewares/lvgl/src/core/lv_indev.c ****                 lv_event_send(indev_obj_act, LV_EVENT_LONG_PRESSED, indev_act);
 878:Middlewares/lvgl/src/core/lv_indev.c ****                 if(indev_reset_check(proc)) return;
 879:Middlewares/lvgl/src/core/lv_indev.c **** 
 880:Middlewares/lvgl/src/core/lv_indev.c ****                 /*Mark the Call the ancestor's event handler sending to do not send it again*/
 881:Middlewares/lvgl/src/core/lv_indev.c ****                 proc->long_pr_sent = 1;
 882:Middlewares/lvgl/src/core/lv_indev.c **** 
 883:Middlewares/lvgl/src/core/lv_indev.c ****                 /*Save the long press time stamp for the long press repeat handler*/
 884:Middlewares/lvgl/src/core/lv_indev.c ****                 proc->longpr_rep_timestamp = lv_tick_get();
 885:Middlewares/lvgl/src/core/lv_indev.c ****             }
 886:Middlewares/lvgl/src/core/lv_indev.c ****         }
 887:Middlewares/lvgl/src/core/lv_indev.c **** 
ARM GAS  /tmp/cc4kiO2x.s 			page 17


 888:Middlewares/lvgl/src/core/lv_indev.c ****         /*Send long press repeated Call the ancestor's event handler*/
 889:Middlewares/lvgl/src/core/lv_indev.c ****         if(proc->types.pointer.scroll_obj == NULL && proc->long_pr_sent == 1) {
 890:Middlewares/lvgl/src/core/lv_indev.c ****             /*Call the ancestor's event handler about the long press repeat if enough time elapsed*
 891:Middlewares/lvgl/src/core/lv_indev.c ****             if(lv_tick_elaps(proc->longpr_rep_timestamp) > indev_act->driver->long_press_repeat_tim
 892:Middlewares/lvgl/src/core/lv_indev.c ****                 lv_event_send(indev_obj_act, LV_EVENT_LONG_PRESSED_REPEAT, indev_act);
 893:Middlewares/lvgl/src/core/lv_indev.c ****                 if(indev_reset_check(proc)) return;
 894:Middlewares/lvgl/src/core/lv_indev.c ****                 proc->longpr_rep_timestamp = lv_tick_get();
 895:Middlewares/lvgl/src/core/lv_indev.c ****             }
 896:Middlewares/lvgl/src/core/lv_indev.c ****         }
 897:Middlewares/lvgl/src/core/lv_indev.c ****     }
 898:Middlewares/lvgl/src/core/lv_indev.c **** }
 899:Middlewares/lvgl/src/core/lv_indev.c **** 
 900:Middlewares/lvgl/src/core/lv_indev.c **** /**
 901:Middlewares/lvgl/src/core/lv_indev.c ****  * Process the released state of LV_INDEV_TYPE_POINTER input devices
 902:Middlewares/lvgl/src/core/lv_indev.c ****  * @param proc pointer to an input device 'proc'
 903:Middlewares/lvgl/src/core/lv_indev.c ****  */
 904:Middlewares/lvgl/src/core/lv_indev.c **** static void indev_proc_release(_lv_indev_proc_t * proc)
 905:Middlewares/lvgl/src/core/lv_indev.c **** {
 906:Middlewares/lvgl/src/core/lv_indev.c ****     if(proc->wait_until_release != 0) {
 907:Middlewares/lvgl/src/core/lv_indev.c ****         proc->types.pointer.act_obj  = NULL;
 908:Middlewares/lvgl/src/core/lv_indev.c ****         proc->types.pointer.last_obj = NULL;
 909:Middlewares/lvgl/src/core/lv_indev.c ****         proc->pr_timestamp           = 0;
 910:Middlewares/lvgl/src/core/lv_indev.c ****         proc->longpr_rep_timestamp   = 0;
 911:Middlewares/lvgl/src/core/lv_indev.c ****         proc->wait_until_release     = 0;
 912:Middlewares/lvgl/src/core/lv_indev.c ****     }
 913:Middlewares/lvgl/src/core/lv_indev.c ****     indev_obj_act = proc->types.pointer.act_obj;
 914:Middlewares/lvgl/src/core/lv_indev.c ****     lv_obj_t * scroll_obj = proc->types.pointer.scroll_obj;
 915:Middlewares/lvgl/src/core/lv_indev.c **** 
 916:Middlewares/lvgl/src/core/lv_indev.c ****     /*Forget the act obj and send a released Call the ancestor's event handler*/
 917:Middlewares/lvgl/src/core/lv_indev.c ****     if(indev_obj_act) {
 918:Middlewares/lvgl/src/core/lv_indev.c ****         LV_LOG_INFO("released");
 919:Middlewares/lvgl/src/core/lv_indev.c **** 
 920:Middlewares/lvgl/src/core/lv_indev.c ****         /*Send RELEASE Call the ancestor's event handler and event*/
 921:Middlewares/lvgl/src/core/lv_indev.c ****         lv_event_send(indev_obj_act, LV_EVENT_RELEASED, indev_act);
 922:Middlewares/lvgl/src/core/lv_indev.c ****         if(indev_reset_check(proc)) return;
 923:Middlewares/lvgl/src/core/lv_indev.c **** 
 924:Middlewares/lvgl/src/core/lv_indev.c ****         /*Send CLICK if no scrolling*/
 925:Middlewares/lvgl/src/core/lv_indev.c ****         if(scroll_obj == NULL) {
 926:Middlewares/lvgl/src/core/lv_indev.c ****             if(proc->long_pr_sent == 0) {
 927:Middlewares/lvgl/src/core/lv_indev.c ****                 lv_event_send(indev_obj_act, LV_EVENT_SHORT_CLICKED, indev_act);
 928:Middlewares/lvgl/src/core/lv_indev.c ****                 if(indev_reset_check(proc)) return;
 929:Middlewares/lvgl/src/core/lv_indev.c ****             }
 930:Middlewares/lvgl/src/core/lv_indev.c **** 
 931:Middlewares/lvgl/src/core/lv_indev.c ****             lv_event_send(indev_obj_act, LV_EVENT_CLICKED, indev_act);
 932:Middlewares/lvgl/src/core/lv_indev.c ****             if(indev_reset_check(proc)) return;
 933:Middlewares/lvgl/src/core/lv_indev.c ****         }
 934:Middlewares/lvgl/src/core/lv_indev.c **** 
 935:Middlewares/lvgl/src/core/lv_indev.c ****         proc->types.pointer.act_obj = NULL;
 936:Middlewares/lvgl/src/core/lv_indev.c ****         proc->pr_timestamp          = 0;
 937:Middlewares/lvgl/src/core/lv_indev.c ****         proc->longpr_rep_timestamp  = 0;
 938:Middlewares/lvgl/src/core/lv_indev.c **** 
 939:Middlewares/lvgl/src/core/lv_indev.c ****     }
 940:Middlewares/lvgl/src/core/lv_indev.c **** 
 941:Middlewares/lvgl/src/core/lv_indev.c ****     /*The reset can be set in the Call the ancestor's event handler function.
 942:Middlewares/lvgl/src/core/lv_indev.c ****      * In case of reset query ignore the remaining parts.*/
 943:Middlewares/lvgl/src/core/lv_indev.c ****     if(scroll_obj) {
 944:Middlewares/lvgl/src/core/lv_indev.c ****         _lv_indev_scroll_throw_handler(proc);
ARM GAS  /tmp/cc4kiO2x.s 			page 18


 945:Middlewares/lvgl/src/core/lv_indev.c ****         if(indev_reset_check(proc)) return;
 946:Middlewares/lvgl/src/core/lv_indev.c ****     }
 947:Middlewares/lvgl/src/core/lv_indev.c **** }
 948:Middlewares/lvgl/src/core/lv_indev.c **** 
 949:Middlewares/lvgl/src/core/lv_indev.c **** /**
 950:Middlewares/lvgl/src/core/lv_indev.c ****  * Process a new point from LV_INDEV_TYPE_BUTTON input device
 951:Middlewares/lvgl/src/core/lv_indev.c ****  * @param i pointer to an input device
 952:Middlewares/lvgl/src/core/lv_indev.c ****  * @param data pointer to the data read from the input device
 953:Middlewares/lvgl/src/core/lv_indev.c ****  * Reset input device if a reset query has been sent to it
 954:Middlewares/lvgl/src/core/lv_indev.c ****  * @param indev pointer to an input device
 955:Middlewares/lvgl/src/core/lv_indev.c ****  */
 956:Middlewares/lvgl/src/core/lv_indev.c **** static void indev_proc_reset_query_handler(lv_indev_t * indev)
 957:Middlewares/lvgl/src/core/lv_indev.c **** {
  27              		.loc 1 957 1 view -0
  28              		.cfi_startproc
  29              		@ args = 0, pretend = 0, frame = 0
  30              		@ frame_needed = 0, uses_anonymous_args = 0
  31              		@ link register save eliminated.
 958:Middlewares/lvgl/src/core/lv_indev.c ****     if(indev->proc.reset_query) {
  32              		.loc 1 958 5 view .LVU1
  33              		.loc 1 958 8 is_stmt 0 view .LVU2
  34 0000 4379     		ldrb	r3, [r0, #5]	@ zero_extendqisi2
  35              		.loc 1 958 7 view .LVU3
  36 0002 13F0020F 		tst	r3, #2
  37 0006 1BD0     		beq	.L1
 959:Middlewares/lvgl/src/core/lv_indev.c ****         indev->proc.types.pointer.act_obj           = NULL;
  38              		.loc 1 959 9 is_stmt 1 view .LVU4
  39              		.loc 1 959 53 is_stmt 0 view .LVU5
  40 0008 0023     		movs	r3, #0
  41 000a 4362     		str	r3, [r0, #36]
 960:Middlewares/lvgl/src/core/lv_indev.c ****         indev->proc.types.pointer.last_obj          = NULL;
  42              		.loc 1 960 9 is_stmt 1 view .LVU6
  43              		.loc 1 960 53 is_stmt 0 view .LVU7
  44 000c 8362     		str	r3, [r0, #40]
 961:Middlewares/lvgl/src/core/lv_indev.c ****         indev->proc.types.pointer.scroll_obj          = NULL;
  45              		.loc 1 961 9 is_stmt 1 view .LVU8
  46              		.loc 1 961 55 is_stmt 0 view .LVU9
  47 000e C362     		str	r3, [r0, #44]
 962:Middlewares/lvgl/src/core/lv_indev.c ****         indev->proc.long_pr_sent                    = 0;
  48              		.loc 1 962 9 is_stmt 1 view .LVU10
  49              		.loc 1 962 53 is_stmt 0 view .LVU11
  50 0010 4279     		ldrb	r2, [r0, #5]	@ zero_extendqisi2
  51 0012 63F30002 		bfi	r2, r3, #0, #1
  52 0016 4271     		strb	r2, [r0, #5]
 963:Middlewares/lvgl/src/core/lv_indev.c ****         indev->proc.pr_timestamp                    = 0;
  53              		.loc 1 963 9 is_stmt 1 view .LVU12
  54              		.loc 1 963 53 is_stmt 0 view .LVU13
  55 0018 4364     		str	r3, [r0, #68]
 964:Middlewares/lvgl/src/core/lv_indev.c ****         indev->proc.longpr_rep_timestamp            = 0;
  56              		.loc 1 964 9 is_stmt 1 view .LVU14
  57              		.loc 1 964 53 is_stmt 0 view .LVU15
  58 001a 8364     		str	r3, [r0, #72]
 965:Middlewares/lvgl/src/core/lv_indev.c ****         indev->proc.types.pointer.scroll_sum.x        = 0;
  59              		.loc 1 965 9 is_stmt 1 view .LVU16
  60              		.loc 1 965 55 is_stmt 0 view .LVU17
  61 001c 0383     		strh	r3, [r0, #24]	@ movhi
 966:Middlewares/lvgl/src/core/lv_indev.c ****         indev->proc.types.pointer.scroll_sum.y        = 0;
ARM GAS  /tmp/cc4kiO2x.s 			page 19


  62              		.loc 1 966 9 is_stmt 1 view .LVU18
  63              		.loc 1 966 55 is_stmt 0 view .LVU19
  64 001e 4383     		strh	r3, [r0, #26]	@ movhi
 967:Middlewares/lvgl/src/core/lv_indev.c ****         indev->proc.types.pointer.scroll_dir = LV_DIR_NONE;
  65              		.loc 1 967 9 is_stmt 1 view .LVU20
  66              		.loc 1 967 46 is_stmt 0 view .LVU21
  67 0020 90F84020 		ldrb	r2, [r0, #64]	@ zero_extendqisi2
  68 0024 63F30302 		bfi	r2, r3, #0, #4
  69 0028 80F84020 		strb	r2, [r0, #64]
 968:Middlewares/lvgl/src/core/lv_indev.c ****         indev->proc.types.pointer.scroll_throw_vect.x = 0;
  70              		.loc 1 968 9 is_stmt 1 view .LVU22
  71              		.loc 1 968 55 is_stmt 0 view .LVU23
  72 002c 8383     		strh	r3, [r0, #28]	@ movhi
 969:Middlewares/lvgl/src/core/lv_indev.c ****         indev->proc.types.pointer.scroll_throw_vect.y = 0;
  73              		.loc 1 969 9 is_stmt 1 view .LVU24
  74              		.loc 1 969 55 is_stmt 0 view .LVU25
  75 002e C383     		strh	r3, [r0, #30]	@ movhi
 970:Middlewares/lvgl/src/core/lv_indev.c ****         indev->proc.types.pointer.gesture_sum.x     = 0;
  76              		.loc 1 970 9 is_stmt 1 view .LVU26
  77              		.loc 1 970 53 is_stmt 0 view .LVU27
  78 0030 8387     		strh	r3, [r0, #60]	@ movhi
 971:Middlewares/lvgl/src/core/lv_indev.c ****         indev->proc.types.pointer.gesture_sum.y     = 0;
  79              		.loc 1 971 9 is_stmt 1 view .LVU28
  80              		.loc 1 971 53 is_stmt 0 view .LVU29
  81 0032 C387     		strh	r3, [r0, #62]	@ movhi
 972:Middlewares/lvgl/src/core/lv_indev.c ****         indev->proc.reset_query                     = 0;
  82              		.loc 1 972 9 is_stmt 1 view .LVU30
  83              		.loc 1 972 53 is_stmt 0 view .LVU31
  84 0034 4279     		ldrb	r2, [r0, #5]	@ zero_extendqisi2
  85 0036 63F34102 		bfi	r2, r3, #1, #1
  86 003a 4271     		strb	r2, [r0, #5]
 973:Middlewares/lvgl/src/core/lv_indev.c ****         indev_obj_act                               = NULL;
  87              		.loc 1 973 9 is_stmt 1 view .LVU32
  88              		.loc 1 973 53 is_stmt 0 view .LVU33
  89 003c 014A     		ldr	r2, .L3
  90 003e 1360     		str	r3, [r2]
  91              	.L1:
 974:Middlewares/lvgl/src/core/lv_indev.c ****     }
 975:Middlewares/lvgl/src/core/lv_indev.c **** }
  92              		.loc 1 975 1 view .LVU34
  93 0040 7047     		bx	lr
  94              	.L4:
  95 0042 00BF     		.align	2
  96              	.L3:
  97 0044 00000000 		.word	.LANCHOR0
  98              		.cfi_endproc
  99              	.LFE178:
 101              		.section	.text.indev_reset_check,"ax",%progbits
 102              		.align	1
 103              		.syntax unified
 104              		.thumb
 105              		.thumb_func
 106              		.fpu softvfp
 108              	indev_reset_check:
 109              	.LVL1:
 110              	.LFB181:
 976:Middlewares/lvgl/src/core/lv_indev.c **** 
ARM GAS  /tmp/cc4kiO2x.s 			page 20


 977:Middlewares/lvgl/src/core/lv_indev.c **** /**
 978:Middlewares/lvgl/src/core/lv_indev.c ****  * Handle focus/defocus on click for POINTER input devices
 979:Middlewares/lvgl/src/core/lv_indev.c ****  * @param proc pointer to the state of the indev
 980:Middlewares/lvgl/src/core/lv_indev.c ****  */
 981:Middlewares/lvgl/src/core/lv_indev.c **** static void indev_click_focus(_lv_indev_proc_t * proc)
 982:Middlewares/lvgl/src/core/lv_indev.c **** {
 983:Middlewares/lvgl/src/core/lv_indev.c ****     /*Handle click focus*/
 984:Middlewares/lvgl/src/core/lv_indev.c ****     lv_obj_t * obj_to_focus = indev_obj_act;
 985:Middlewares/lvgl/src/core/lv_indev.c ****     if(lv_obj_has_flag(obj_to_focus, LV_OBJ_FLAG_CLICK_FOCUSABLE) &&
 986:Middlewares/lvgl/src/core/lv_indev.c ****        proc->types.pointer.last_pressed != obj_to_focus) {
 987:Middlewares/lvgl/src/core/lv_indev.c ****         lv_group_t * g_act = lv_obj_get_group(obj_to_focus);
 988:Middlewares/lvgl/src/core/lv_indev.c ****         lv_group_t * g_prev = proc->types.pointer.last_pressed ? lv_obj_get_group(proc->types.point
 989:Middlewares/lvgl/src/core/lv_indev.c **** 
 990:Middlewares/lvgl/src/core/lv_indev.c ****         /*If both the last and act. obj. are in the same group (or no group but it's also the same)
 991:Middlewares/lvgl/src/core/lv_indev.c ****         if(g_act == g_prev) {
 992:Middlewares/lvgl/src/core/lv_indev.c ****             /*The objects are in a group*/
 993:Middlewares/lvgl/src/core/lv_indev.c ****             if(g_act) {
 994:Middlewares/lvgl/src/core/lv_indev.c ****                 lv_group_focus_obj(obj_to_focus);
 995:Middlewares/lvgl/src/core/lv_indev.c ****                 if(indev_reset_check(proc)) return;
 996:Middlewares/lvgl/src/core/lv_indev.c ****             }
 997:Middlewares/lvgl/src/core/lv_indev.c ****             /*The object are not in group*/
 998:Middlewares/lvgl/src/core/lv_indev.c ****             else {
 999:Middlewares/lvgl/src/core/lv_indev.c ****                 if(proc->types.pointer.last_pressed) {
1000:Middlewares/lvgl/src/core/lv_indev.c ****                     lv_event_send(proc->types.pointer.last_pressed, LV_EVENT_DEFOCUSED, indev_act);
1001:Middlewares/lvgl/src/core/lv_indev.c ****                     if(indev_reset_check(proc)) return;
1002:Middlewares/lvgl/src/core/lv_indev.c ****                 }
1003:Middlewares/lvgl/src/core/lv_indev.c **** 
1004:Middlewares/lvgl/src/core/lv_indev.c ****                 lv_event_send(obj_to_focus, LV_EVENT_FOCUSED, indev_act);
1005:Middlewares/lvgl/src/core/lv_indev.c ****                 if(indev_reset_check(proc)) return;
1006:Middlewares/lvgl/src/core/lv_indev.c ****             }
1007:Middlewares/lvgl/src/core/lv_indev.c ****         }
1008:Middlewares/lvgl/src/core/lv_indev.c ****         /*The object are not in the same group (in different group or one in not a group)*/
1009:Middlewares/lvgl/src/core/lv_indev.c ****         else {
1010:Middlewares/lvgl/src/core/lv_indev.c ****             /*If the prev. obj. is not in a group then defocus it.*/
1011:Middlewares/lvgl/src/core/lv_indev.c ****             if(g_prev == NULL && proc->types.pointer.last_pressed) {
1012:Middlewares/lvgl/src/core/lv_indev.c ****                 lv_event_send(proc->types.pointer.last_pressed, LV_EVENT_DEFOCUSED, indev_act);
1013:Middlewares/lvgl/src/core/lv_indev.c ****                 if(indev_reset_check(proc)) return;
1014:Middlewares/lvgl/src/core/lv_indev.c ****             }
1015:Middlewares/lvgl/src/core/lv_indev.c ****             /*Focus on a non-group object*/
1016:Middlewares/lvgl/src/core/lv_indev.c ****             else {
1017:Middlewares/lvgl/src/core/lv_indev.c ****                 if(proc->types.pointer.last_pressed) {
1018:Middlewares/lvgl/src/core/lv_indev.c ****                     /*If the prev. object also wasn't in a group defocus it*/
1019:Middlewares/lvgl/src/core/lv_indev.c ****                     if(g_prev == NULL) {
1020:Middlewares/lvgl/src/core/lv_indev.c ****                         lv_event_send(proc->types.pointer.last_pressed, LV_EVENT_DEFOCUSED, indev_a
1021:Middlewares/lvgl/src/core/lv_indev.c ****                         if(indev_reset_check(proc)) return;
1022:Middlewares/lvgl/src/core/lv_indev.c ****                     }
1023:Middlewares/lvgl/src/core/lv_indev.c ****                     /*If the prev. object also was in a group at least "LEAVE" it instead of defocu
1024:Middlewares/lvgl/src/core/lv_indev.c ****                     else {
1025:Middlewares/lvgl/src/core/lv_indev.c ****                         lv_event_send(proc->types.pointer.last_pressed, LV_EVENT_LEAVE, indev_act);
1026:Middlewares/lvgl/src/core/lv_indev.c ****                         if(indev_reset_check(proc)) return;
1027:Middlewares/lvgl/src/core/lv_indev.c ****                     }
1028:Middlewares/lvgl/src/core/lv_indev.c ****                 }
1029:Middlewares/lvgl/src/core/lv_indev.c ****             }
1030:Middlewares/lvgl/src/core/lv_indev.c **** 
1031:Middlewares/lvgl/src/core/lv_indev.c ****             /*Focus to the act. in its group*/
1032:Middlewares/lvgl/src/core/lv_indev.c ****             if(g_act) {
1033:Middlewares/lvgl/src/core/lv_indev.c ****                 lv_group_focus_obj(obj_to_focus);
ARM GAS  /tmp/cc4kiO2x.s 			page 21


1034:Middlewares/lvgl/src/core/lv_indev.c ****                 if(indev_reset_check(proc)) return;
1035:Middlewares/lvgl/src/core/lv_indev.c ****             }
1036:Middlewares/lvgl/src/core/lv_indev.c ****             else {
1037:Middlewares/lvgl/src/core/lv_indev.c ****                 lv_event_send(obj_to_focus, LV_EVENT_FOCUSED, indev_act);
1038:Middlewares/lvgl/src/core/lv_indev.c ****                 if(indev_reset_check(proc)) return;
1039:Middlewares/lvgl/src/core/lv_indev.c ****             }
1040:Middlewares/lvgl/src/core/lv_indev.c ****         }
1041:Middlewares/lvgl/src/core/lv_indev.c ****         proc->types.pointer.last_pressed = obj_to_focus;
1042:Middlewares/lvgl/src/core/lv_indev.c ****     }
1043:Middlewares/lvgl/src/core/lv_indev.c **** 
1044:Middlewares/lvgl/src/core/lv_indev.c **** }
1045:Middlewares/lvgl/src/core/lv_indev.c **** 
1046:Middlewares/lvgl/src/core/lv_indev.c **** /**
1047:Middlewares/lvgl/src/core/lv_indev.c **** * Handle the gesture of indev_proc_p->types.pointer.act_obj
1048:Middlewares/lvgl/src/core/lv_indev.c **** * @param indev pointer to a input device state
1049:Middlewares/lvgl/src/core/lv_indev.c **** */
1050:Middlewares/lvgl/src/core/lv_indev.c **** void indev_gesture(_lv_indev_proc_t * proc)
1051:Middlewares/lvgl/src/core/lv_indev.c **** {
1052:Middlewares/lvgl/src/core/lv_indev.c **** 
1053:Middlewares/lvgl/src/core/lv_indev.c ****     if(proc->types.pointer.scroll_obj) return;
1054:Middlewares/lvgl/src/core/lv_indev.c ****     if(proc->types.pointer.gesture_sent) return;
1055:Middlewares/lvgl/src/core/lv_indev.c **** 
1056:Middlewares/lvgl/src/core/lv_indev.c ****     lv_obj_t * gesture_obj = proc->types.pointer.act_obj;
1057:Middlewares/lvgl/src/core/lv_indev.c **** 
1058:Middlewares/lvgl/src/core/lv_indev.c ****     /*If gesture parent is active check recursively the gesture attribute*/
1059:Middlewares/lvgl/src/core/lv_indev.c ****     while(gesture_obj && lv_obj_has_flag(gesture_obj, LV_OBJ_FLAG_GESTURE_BUBBLE)) {
1060:Middlewares/lvgl/src/core/lv_indev.c ****         gesture_obj = lv_obj_get_parent(gesture_obj);
1061:Middlewares/lvgl/src/core/lv_indev.c ****     }
1062:Middlewares/lvgl/src/core/lv_indev.c **** 
1063:Middlewares/lvgl/src/core/lv_indev.c ****     if(gesture_obj == NULL) return;
1064:Middlewares/lvgl/src/core/lv_indev.c **** 
1065:Middlewares/lvgl/src/core/lv_indev.c ****     if((LV_ABS(proc->types.pointer.vect.x) < indev_act->driver->gesture_min_velocity) &&
1066:Middlewares/lvgl/src/core/lv_indev.c ****        (LV_ABS(proc->types.pointer.vect.y) < indev_act->driver->gesture_min_velocity)) {
1067:Middlewares/lvgl/src/core/lv_indev.c ****         proc->types.pointer.gesture_sum.x = 0;
1068:Middlewares/lvgl/src/core/lv_indev.c ****         proc->types.pointer.gesture_sum.y = 0;
1069:Middlewares/lvgl/src/core/lv_indev.c ****     }
1070:Middlewares/lvgl/src/core/lv_indev.c **** 
1071:Middlewares/lvgl/src/core/lv_indev.c ****     /*Count the movement by gesture*/
1072:Middlewares/lvgl/src/core/lv_indev.c ****     proc->types.pointer.gesture_sum.x += proc->types.pointer.vect.x;
1073:Middlewares/lvgl/src/core/lv_indev.c ****     proc->types.pointer.gesture_sum.y += proc->types.pointer.vect.y;
1074:Middlewares/lvgl/src/core/lv_indev.c **** 
1075:Middlewares/lvgl/src/core/lv_indev.c ****     if((LV_ABS(proc->types.pointer.gesture_sum.x) > indev_act->driver->gesture_limit) ||
1076:Middlewares/lvgl/src/core/lv_indev.c ****        (LV_ABS(proc->types.pointer.gesture_sum.y) > indev_act->driver->gesture_limit)) {
1077:Middlewares/lvgl/src/core/lv_indev.c **** 
1078:Middlewares/lvgl/src/core/lv_indev.c ****         proc->types.pointer.gesture_sent = 1;
1079:Middlewares/lvgl/src/core/lv_indev.c **** 
1080:Middlewares/lvgl/src/core/lv_indev.c ****         if(LV_ABS(proc->types.pointer.gesture_sum.x) > LV_ABS(proc->types.pointer.gesture_sum.y)) {
1081:Middlewares/lvgl/src/core/lv_indev.c ****             if(proc->types.pointer.gesture_sum.x > 0)
1082:Middlewares/lvgl/src/core/lv_indev.c ****                 proc->types.pointer.gesture_dir = LV_DIR_RIGHT;
1083:Middlewares/lvgl/src/core/lv_indev.c ****             else
1084:Middlewares/lvgl/src/core/lv_indev.c ****                 proc->types.pointer.gesture_dir = LV_DIR_LEFT;
1085:Middlewares/lvgl/src/core/lv_indev.c ****         }
1086:Middlewares/lvgl/src/core/lv_indev.c ****         else {
1087:Middlewares/lvgl/src/core/lv_indev.c ****             if(proc->types.pointer.gesture_sum.y > 0)
1088:Middlewares/lvgl/src/core/lv_indev.c ****                 proc->types.pointer.gesture_dir = LV_DIR_BOTTOM;
1089:Middlewares/lvgl/src/core/lv_indev.c ****             else
1090:Middlewares/lvgl/src/core/lv_indev.c ****                 proc->types.pointer.gesture_dir = LV_DIR_TOP;
ARM GAS  /tmp/cc4kiO2x.s 			page 22


1091:Middlewares/lvgl/src/core/lv_indev.c ****         }
1092:Middlewares/lvgl/src/core/lv_indev.c **** 
1093:Middlewares/lvgl/src/core/lv_indev.c ****         lv_event_send(gesture_obj, LV_EVENT_GESTURE, indev_act);
1094:Middlewares/lvgl/src/core/lv_indev.c ****         if(indev_reset_check(proc)) return;
1095:Middlewares/lvgl/src/core/lv_indev.c ****     }
1096:Middlewares/lvgl/src/core/lv_indev.c **** }
1097:Middlewares/lvgl/src/core/lv_indev.c **** 
1098:Middlewares/lvgl/src/core/lv_indev.c **** /**
1099:Middlewares/lvgl/src/core/lv_indev.c ****  * Checks if the reset_query flag has been set. If so, perform necessary global indev cleanup actio
1100:Middlewares/lvgl/src/core/lv_indev.c ****  * @param proc pointer to an input device 'proc'
1101:Middlewares/lvgl/src/core/lv_indev.c ****  * @return true if indev query should be immediately truncated.
1102:Middlewares/lvgl/src/core/lv_indev.c ****  */
1103:Middlewares/lvgl/src/core/lv_indev.c **** static bool indev_reset_check(_lv_indev_proc_t * proc)
1104:Middlewares/lvgl/src/core/lv_indev.c **** {
 111              		.loc 1 1104 1 is_stmt 1 view -0
 112              		.cfi_startproc
 113              		@ args = 0, pretend = 0, frame = 0
 114              		@ frame_needed = 0, uses_anonymous_args = 0
 115              		@ link register save eliminated.
1105:Middlewares/lvgl/src/core/lv_indev.c ****     if(proc->reset_query) {
 116              		.loc 1 1105 5 view .LVU36
 117              		.loc 1 1105 8 is_stmt 0 view .LVU37
 118 0000 4078     		ldrb	r0, [r0, #1]	@ zero_extendqisi2
 119              	.LVL2:
 120              		.loc 1 1105 7 view .LVU38
 121 0002 10F0020F 		tst	r0, #2
 122 0006 02D0     		beq	.L6
1106:Middlewares/lvgl/src/core/lv_indev.c ****         indev_obj_act = NULL;
 123              		.loc 1 1106 9 is_stmt 1 view .LVU39
 124              		.loc 1 1106 23 is_stmt 0 view .LVU40
 125 0008 024B     		ldr	r3, .L7
 126 000a 0022     		movs	r2, #0
 127 000c 1A60     		str	r2, [r3]
 128              	.L6:
1107:Middlewares/lvgl/src/core/lv_indev.c ****     }
1108:Middlewares/lvgl/src/core/lv_indev.c **** 
1109:Middlewares/lvgl/src/core/lv_indev.c ****     return proc->reset_query ? true : false;
 129              		.loc 1 1109 5 is_stmt 1 view .LVU41
1110:Middlewares/lvgl/src/core/lv_indev.c **** }
 130              		.loc 1 1110 1 is_stmt 0 view .LVU42
 131 000e C0F34000 		ubfx	r0, r0, #1, #1
 132 0012 7047     		bx	lr
 133              	.L8:
 134              		.align	2
 135              	.L7:
 136 0014 00000000 		.word	.LANCHOR0
 137              		.cfi_endproc
 138              	.LFE181:
 140              		.section	.text.indev_proc_release,"ax",%progbits
 141              		.align	1
 142              		.syntax unified
 143              		.thumb
 144              		.thumb_func
 145              		.fpu softvfp
 147              	indev_proc_release:
 148              	.LVL3:
 149              	.LFB177:
ARM GAS  /tmp/cc4kiO2x.s 			page 23


 905:Middlewares/lvgl/src/core/lv_indev.c ****     if(proc->wait_until_release != 0) {
 150              		.loc 1 905 1 is_stmt 1 view -0
 151              		.cfi_startproc
 152              		@ args = 0, pretend = 0, frame = 0
 153              		@ frame_needed = 0, uses_anonymous_args = 0
 905:Middlewares/lvgl/src/core/lv_indev.c ****     if(proc->wait_until_release != 0) {
 154              		.loc 1 905 1 is_stmt 0 view .LVU44
 155 0000 38B5     		push	{r3, r4, r5, lr}
 156              	.LCFI0:
 157              		.cfi_def_cfa_offset 16
 158              		.cfi_offset 3, -16
 159              		.cfi_offset 4, -12
 160              		.cfi_offset 5, -8
 161              		.cfi_offset 14, -4
 162 0002 0446     		mov	r4, r0
 906:Middlewares/lvgl/src/core/lv_indev.c ****         proc->types.pointer.act_obj  = NULL;
 163              		.loc 1 906 5 is_stmt 1 view .LVU45
 906:Middlewares/lvgl/src/core/lv_indev.c ****         proc->types.pointer.act_obj  = NULL;
 164              		.loc 1 906 33 is_stmt 0 view .LVU46
 165 0004 4378     		ldrb	r3, [r0, #1]	@ zero_extendqisi2
 906:Middlewares/lvgl/src/core/lv_indev.c ****         proc->types.pointer.act_obj  = NULL;
 166              		.loc 1 906 7 view .LVU47
 167 0006 13F0080F 		tst	r3, #8
 168 000a 08D0     		beq	.L10
 907:Middlewares/lvgl/src/core/lv_indev.c ****         proc->types.pointer.last_obj = NULL;
 169              		.loc 1 907 9 is_stmt 1 view .LVU48
 907:Middlewares/lvgl/src/core/lv_indev.c ****         proc->types.pointer.last_obj = NULL;
 170              		.loc 1 907 38 is_stmt 0 view .LVU49
 171 000c 0023     		movs	r3, #0
 172 000e 0362     		str	r3, [r0, #32]
 908:Middlewares/lvgl/src/core/lv_indev.c ****         proc->pr_timestamp           = 0;
 173              		.loc 1 908 9 is_stmt 1 view .LVU50
 908:Middlewares/lvgl/src/core/lv_indev.c ****         proc->pr_timestamp           = 0;
 174              		.loc 1 908 38 is_stmt 0 view .LVU51
 175 0010 4362     		str	r3, [r0, #36]
 909:Middlewares/lvgl/src/core/lv_indev.c ****         proc->longpr_rep_timestamp   = 0;
 176              		.loc 1 909 9 is_stmt 1 view .LVU52
 909:Middlewares/lvgl/src/core/lv_indev.c ****         proc->longpr_rep_timestamp   = 0;
 177              		.loc 1 909 38 is_stmt 0 view .LVU53
 178 0012 0364     		str	r3, [r0, #64]
 910:Middlewares/lvgl/src/core/lv_indev.c ****         proc->wait_until_release     = 0;
 179              		.loc 1 910 9 is_stmt 1 view .LVU54
 910:Middlewares/lvgl/src/core/lv_indev.c ****         proc->wait_until_release     = 0;
 180              		.loc 1 910 38 is_stmt 0 view .LVU55
 181 0014 4364     		str	r3, [r0, #68]
 911:Middlewares/lvgl/src/core/lv_indev.c ****     }
 182              		.loc 1 911 9 is_stmt 1 view .LVU56
 911:Middlewares/lvgl/src/core/lv_indev.c ****     }
 183              		.loc 1 911 38 is_stmt 0 view .LVU57
 184 0016 4278     		ldrb	r2, [r0, #1]	@ zero_extendqisi2
 185 0018 63F3C302 		bfi	r2, r3, #3, #1
 186 001c 4270     		strb	r2, [r0, #1]
 187              	.L10:
 913:Middlewares/lvgl/src/core/lv_indev.c ****     lv_obj_t * scroll_obj = proc->types.pointer.scroll_obj;
 188              		.loc 1 913 5 is_stmt 1 view .LVU58
 913:Middlewares/lvgl/src/core/lv_indev.c ****     lv_obj_t * scroll_obj = proc->types.pointer.scroll_obj;
 189              		.loc 1 913 40 is_stmt 0 view .LVU59
ARM GAS  /tmp/cc4kiO2x.s 			page 24


 190 001e 206A     		ldr	r0, [r4, #32]
 191              	.LVL4:
 913:Middlewares/lvgl/src/core/lv_indev.c ****     lv_obj_t * scroll_obj = proc->types.pointer.scroll_obj;
 192              		.loc 1 913 19 view .LVU60
 193 0020 1B4B     		ldr	r3, .L17
 194 0022 1860     		str	r0, [r3]
 914:Middlewares/lvgl/src/core/lv_indev.c **** 
 195              		.loc 1 914 5 is_stmt 1 view .LVU61
 914:Middlewares/lvgl/src/core/lv_indev.c **** 
 196              		.loc 1 914 16 is_stmt 0 view .LVU62
 197 0024 A56A     		ldr	r5, [r4, #40]
 198              	.LVL5:
 917:Middlewares/lvgl/src/core/lv_indev.c ****         LV_LOG_INFO("released");
 199              		.loc 1 917 5 is_stmt 1 view .LVU63
 917:Middlewares/lvgl/src/core/lv_indev.c ****         LV_LOG_INFO("released");
 200              		.loc 1 917 7 is_stmt 0 view .LVU64
 201 0026 68B1     		cbz	r0, .L11
 918:Middlewares/lvgl/src/core/lv_indev.c **** 
 202              		.loc 1 918 32 is_stmt 1 view .LVU65
 921:Middlewares/lvgl/src/core/lv_indev.c ****         if(indev_reset_check(proc)) return;
 203              		.loc 1 921 9 view .LVU66
 204 0028 1A4B     		ldr	r3, .L17+4
 205 002a 1A68     		ldr	r2, [r3]
 206 002c 0821     		movs	r1, #8
 207 002e FFF7FEFF 		bl	lv_event_send
 208              	.LVL6:
 922:Middlewares/lvgl/src/core/lv_indev.c **** 
 209              		.loc 1 922 9 view .LVU67
 922:Middlewares/lvgl/src/core/lv_indev.c **** 
 210              		.loc 1 922 12 is_stmt 0 view .LVU68
 211 0032 2046     		mov	r0, r4
 212 0034 FFF7FEFF 		bl	indev_reset_check
 213              	.LVL7:
 922:Middlewares/lvgl/src/core/lv_indev.c **** 
 214              		.loc 1 922 11 view .LVU69
 215 0038 58B9     		cbnz	r0, .L9
 925:Middlewares/lvgl/src/core/lv_indev.c ****             if(proc->long_pr_sent == 0) {
 216              		.loc 1 925 9 is_stmt 1 view .LVU70
 925:Middlewares/lvgl/src/core/lv_indev.c ****             if(proc->long_pr_sent == 0) {
 217              		.loc 1 925 11 is_stmt 0 view .LVU71
 218 003a 5DB1     		cbz	r5, .L16
 219              	.L13:
 935:Middlewares/lvgl/src/core/lv_indev.c ****         proc->pr_timestamp          = 0;
 220              		.loc 1 935 9 is_stmt 1 view .LVU72
 935:Middlewares/lvgl/src/core/lv_indev.c ****         proc->pr_timestamp          = 0;
 221              		.loc 1 935 37 is_stmt 0 view .LVU73
 222 003c 0023     		movs	r3, #0
 223 003e 2362     		str	r3, [r4, #32]
 936:Middlewares/lvgl/src/core/lv_indev.c ****         proc->longpr_rep_timestamp  = 0;
 224              		.loc 1 936 9 is_stmt 1 view .LVU74
 936:Middlewares/lvgl/src/core/lv_indev.c ****         proc->longpr_rep_timestamp  = 0;
 225              		.loc 1 936 37 is_stmt 0 view .LVU75
 226 0040 2364     		str	r3, [r4, #64]
 937:Middlewares/lvgl/src/core/lv_indev.c **** 
 227              		.loc 1 937 9 is_stmt 1 view .LVU76
 937:Middlewares/lvgl/src/core/lv_indev.c **** 
 228              		.loc 1 937 37 is_stmt 0 view .LVU77
ARM GAS  /tmp/cc4kiO2x.s 			page 25


 229 0042 6364     		str	r3, [r4, #68]
 230              	.L11:
 943:Middlewares/lvgl/src/core/lv_indev.c ****         _lv_indev_scroll_throw_handler(proc);
 231              		.loc 1 943 5 is_stmt 1 view .LVU78
 943:Middlewares/lvgl/src/core/lv_indev.c ****         _lv_indev_scroll_throw_handler(proc);
 232              		.loc 1 943 7 is_stmt 0 view .LVU79
 233 0044 2DB1     		cbz	r5, .L9
 944:Middlewares/lvgl/src/core/lv_indev.c ****         if(indev_reset_check(proc)) return;
 234              		.loc 1 944 9 is_stmt 1 view .LVU80
 235 0046 2046     		mov	r0, r4
 236 0048 FFF7FEFF 		bl	_lv_indev_scroll_throw_handler
 237              	.LVL8:
 945:Middlewares/lvgl/src/core/lv_indev.c ****     }
 238              		.loc 1 945 9 view .LVU81
 945:Middlewares/lvgl/src/core/lv_indev.c ****     }
 239              		.loc 1 945 12 is_stmt 0 view .LVU82
 240 004c 2046     		mov	r0, r4
 241 004e FFF7FEFF 		bl	indev_reset_check
 242              	.LVL9:
 243              	.L9:
 947:Middlewares/lvgl/src/core/lv_indev.c **** 
 244              		.loc 1 947 1 view .LVU83
 245 0052 38BD     		pop	{r3, r4, r5, pc}
 246              	.LVL10:
 247              	.L16:
 926:Middlewares/lvgl/src/core/lv_indev.c ****                 lv_event_send(indev_obj_act, LV_EVENT_SHORT_CLICKED, indev_act);
 248              		.loc 1 926 13 is_stmt 1 view .LVU84
 926:Middlewares/lvgl/src/core/lv_indev.c ****                 lv_event_send(indev_obj_act, LV_EVENT_SHORT_CLICKED, indev_act);
 249              		.loc 1 926 35 is_stmt 0 view .LVU85
 250 0054 6378     		ldrb	r3, [r4, #1]	@ zero_extendqisi2
 926:Middlewares/lvgl/src/core/lv_indev.c ****                 lv_event_send(indev_obj_act, LV_EVENT_SHORT_CLICKED, indev_act);
 251              		.loc 1 926 15 view .LVU86
 252 0056 13F0010F 		tst	r3, #1
 253 005a 0BD1     		bne	.L14
 927:Middlewares/lvgl/src/core/lv_indev.c ****                 if(indev_reset_check(proc)) return;
 254              		.loc 1 927 17 is_stmt 1 view .LVU87
 255 005c 0D4B     		ldr	r3, .L17+4
 256 005e 1A68     		ldr	r2, [r3]
 257 0060 0421     		movs	r1, #4
 258 0062 0B4B     		ldr	r3, .L17
 259 0064 1868     		ldr	r0, [r3]
 260 0066 FFF7FEFF 		bl	lv_event_send
 261              	.LVL11:
 928:Middlewares/lvgl/src/core/lv_indev.c ****             }
 262              		.loc 1 928 17 view .LVU88
 928:Middlewares/lvgl/src/core/lv_indev.c ****             }
 263              		.loc 1 928 20 is_stmt 0 view .LVU89
 264 006a 2046     		mov	r0, r4
 265 006c FFF7FEFF 		bl	indev_reset_check
 266              	.LVL12:
 928:Middlewares/lvgl/src/core/lv_indev.c ****             }
 267              		.loc 1 928 19 view .LVU90
 268 0070 0028     		cmp	r0, #0
 269 0072 EED1     		bne	.L9
 270              	.L14:
 931:Middlewares/lvgl/src/core/lv_indev.c ****             if(indev_reset_check(proc)) return;
 271              		.loc 1 931 13 is_stmt 1 view .LVU91
ARM GAS  /tmp/cc4kiO2x.s 			page 26


 272 0074 074B     		ldr	r3, .L17+4
 273 0076 1A68     		ldr	r2, [r3]
 274 0078 0721     		movs	r1, #7
 275 007a 054B     		ldr	r3, .L17
 276 007c 1868     		ldr	r0, [r3]
 277 007e FFF7FEFF 		bl	lv_event_send
 278              	.LVL13:
 932:Middlewares/lvgl/src/core/lv_indev.c ****         }
 279              		.loc 1 932 13 view .LVU92
 932:Middlewares/lvgl/src/core/lv_indev.c ****         }
 280              		.loc 1 932 16 is_stmt 0 view .LVU93
 281 0082 2046     		mov	r0, r4
 282 0084 FFF7FEFF 		bl	indev_reset_check
 283              	.LVL14:
 932:Middlewares/lvgl/src/core/lv_indev.c ****         }
 284              		.loc 1 932 15 view .LVU94
 285 0088 0028     		cmp	r0, #0
 286 008a D7D0     		beq	.L13
 287 008c E1E7     		b	.L9
 288              	.L18:
 289 008e 00BF     		.align	2
 290              	.L17:
 291 0090 00000000 		.word	.LANCHOR0
 292 0094 00000000 		.word	.LANCHOR1
 293              		.cfi_endproc
 294              	.LFE177:
 296              		.section	.text.indev_click_focus,"ax",%progbits
 297              		.align	1
 298              		.syntax unified
 299              		.thumb
 300              		.thumb_func
 301              		.fpu softvfp
 303              	indev_click_focus:
 304              	.LVL15:
 305              	.LFB179:
 982:Middlewares/lvgl/src/core/lv_indev.c ****     /*Handle click focus*/
 306              		.loc 1 982 1 is_stmt 1 view -0
 307              		.cfi_startproc
 308              		@ args = 0, pretend = 0, frame = 0
 309              		@ frame_needed = 0, uses_anonymous_args = 0
 982:Middlewares/lvgl/src/core/lv_indev.c ****     /*Handle click focus*/
 310              		.loc 1 982 1 is_stmt 0 view .LVU96
 311 0000 70B5     		push	{r4, r5, r6, lr}
 312              	.LCFI1:
 313              		.cfi_def_cfa_offset 16
 314              		.cfi_offset 4, -16
 315              		.cfi_offset 5, -12
 316              		.cfi_offset 6, -8
 317              		.cfi_offset 14, -4
 318 0002 0446     		mov	r4, r0
 984:Middlewares/lvgl/src/core/lv_indev.c ****     if(lv_obj_has_flag(obj_to_focus, LV_OBJ_FLAG_CLICK_FOCUSABLE) &&
 319              		.loc 1 984 5 is_stmt 1 view .LVU97
 984:Middlewares/lvgl/src/core/lv_indev.c ****     if(lv_obj_has_flag(obj_to_focus, LV_OBJ_FLAG_CLICK_FOCUSABLE) &&
 320              		.loc 1 984 16 is_stmt 0 view .LVU98
 321 0004 3B4B     		ldr	r3, .L34
 322 0006 1D68     		ldr	r5, [r3]
 323              	.LVL16:
ARM GAS  /tmp/cc4kiO2x.s 			page 27


 985:Middlewares/lvgl/src/core/lv_indev.c ****        proc->types.pointer.last_pressed != obj_to_focus) {
 324              		.loc 1 985 5 is_stmt 1 view .LVU99
 985:Middlewares/lvgl/src/core/lv_indev.c ****        proc->types.pointer.last_pressed != obj_to_focus) {
 325              		.loc 1 985 8 is_stmt 0 view .LVU100
 326 0008 0421     		movs	r1, #4
 327 000a 2846     		mov	r0, r5
 328              	.LVL17:
 985:Middlewares/lvgl/src/core/lv_indev.c ****        proc->types.pointer.last_pressed != obj_to_focus) {
 329              		.loc 1 985 8 view .LVU101
 330 000c FFF7FEFF 		bl	lv_obj_has_flag
 331              	.LVL18:
 985:Middlewares/lvgl/src/core/lv_indev.c ****        proc->types.pointer.last_pressed != obj_to_focus) {
 332              		.loc 1 985 7 view .LVU102
 333 0010 30B3     		cbz	r0, .L19
 986:Middlewares/lvgl/src/core/lv_indev.c ****         lv_group_t * g_act = lv_obj_get_group(obj_to_focus);
 334              		.loc 1 986 27 discriminator 1 view .LVU103
 335 0012 E36A     		ldr	r3, [r4, #44]
 985:Middlewares/lvgl/src/core/lv_indev.c ****        proc->types.pointer.last_pressed != obj_to_focus) {
 336              		.loc 1 985 67 discriminator 1 view .LVU104
 337 0014 AB42     		cmp	r3, r5
 338 0016 23D0     		beq	.L19
 339              	.LBB2:
 987:Middlewares/lvgl/src/core/lv_indev.c ****         lv_group_t * g_prev = proc->types.pointer.last_pressed ? lv_obj_get_group(proc->types.point
 340              		.loc 1 987 9 is_stmt 1 view .LVU105
 987:Middlewares/lvgl/src/core/lv_indev.c ****         lv_group_t * g_prev = proc->types.pointer.last_pressed ? lv_obj_get_group(proc->types.point
 341              		.loc 1 987 30 is_stmt 0 view .LVU106
 342 0018 2846     		mov	r0, r5
 343 001a FFF7FEFF 		bl	lv_obj_get_group
 344              	.LVL19:
 345 001e 0646     		mov	r6, r0
 346              	.LVL20:
 988:Middlewares/lvgl/src/core/lv_indev.c **** 
 347              		.loc 1 988 9 is_stmt 1 view .LVU107
 988:Middlewares/lvgl/src/core/lv_indev.c **** 
 348              		.loc 1 988 50 is_stmt 0 view .LVU108
 349 0020 E06A     		ldr	r0, [r4, #44]
 350              	.LVL21:
 988:Middlewares/lvgl/src/core/lv_indev.c **** 
 351              		.loc 1 988 117 view .LVU109
 352 0022 08B1     		cbz	r0, .L21
 988:Middlewares/lvgl/src/core/lv_indev.c **** 
 353              		.loc 1 988 66 discriminator 1 view .LVU110
 354 0024 FFF7FEFF 		bl	lv_obj_get_group
 355              	.LVL22:
 356              	.L21:
 991:Middlewares/lvgl/src/core/lv_indev.c ****             /*The objects are in a group*/
 357              		.loc 1 991 9 is_stmt 1 discriminator 4 view .LVU111
 991:Middlewares/lvgl/src/core/lv_indev.c ****             /*The objects are in a group*/
 358              		.loc 1 991 11 is_stmt 0 discriminator 4 view .LVU112
 359 0028 B042     		cmp	r0, r6
 360 002a 1AD0     		beq	.L31
1011:Middlewares/lvgl/src/core/lv_indev.c ****                 lv_event_send(proc->types.pointer.last_pressed, LV_EVENT_DEFOCUSED, indev_act);
 361              		.loc 1 1011 13 is_stmt 1 view .LVU113
1011:Middlewares/lvgl/src/core/lv_indev.c ****                 lv_event_send(proc->types.pointer.last_pressed, LV_EVENT_DEFOCUSED, indev_act);
 362              		.loc 1 1011 15 is_stmt 0 view .LVU114
 363 002c 0028     		cmp	r0, #0
 364 002e 3AD0     		beq	.L32
ARM GAS  /tmp/cc4kiO2x.s 			page 28


 365              	.L26:
1017:Middlewares/lvgl/src/core/lv_indev.c ****                     /*If the prev. object also wasn't in a group defocus it*/
 366              		.loc 1 1017 17 is_stmt 1 view .LVU115
1017:Middlewares/lvgl/src/core/lv_indev.c ****                     /*If the prev. object also wasn't in a group defocus it*/
 367              		.loc 1 1017 39 is_stmt 0 view .LVU116
 368 0030 E36A     		ldr	r3, [r4, #44]
1017:Middlewares/lvgl/src/core/lv_indev.c ****                     /*If the prev. object also wasn't in a group defocus it*/
 369              		.loc 1 1017 19 view .LVU117
 370 0032 5BB1     		cbz	r3, .L27
1019:Middlewares/lvgl/src/core/lv_indev.c ****                         lv_event_send(proc->types.pointer.last_pressed, LV_EVENT_DEFOCUSED, indev_a
 371              		.loc 1 1019 21 is_stmt 1 view .LVU118
1019:Middlewares/lvgl/src/core/lv_indev.c ****                         lv_event_send(proc->types.pointer.last_pressed, LV_EVENT_DEFOCUSED, indev_a
 372              		.loc 1 1019 23 is_stmt 0 view .LVU119
 373 0034 0028     		cmp	r0, #0
 374 0036 45D0     		beq	.L33
1025:Middlewares/lvgl/src/core/lv_indev.c ****                         if(indev_reset_check(proc)) return;
 375              		.loc 1 1025 25 is_stmt 1 view .LVU120
 376 0038 2F4A     		ldr	r2, .L34+4
 377 003a 1268     		ldr	r2, [r2]
 378 003c 1021     		movs	r1, #16
 379 003e 1846     		mov	r0, r3
 380              	.LVL23:
1025:Middlewares/lvgl/src/core/lv_indev.c ****                         if(indev_reset_check(proc)) return;
 381              		.loc 1 1025 25 is_stmt 0 view .LVU121
 382 0040 FFF7FEFF 		bl	lv_event_send
 383              	.LVL24:
1026:Middlewares/lvgl/src/core/lv_indev.c ****                     }
 384              		.loc 1 1026 25 is_stmt 1 view .LVU122
1026:Middlewares/lvgl/src/core/lv_indev.c ****                     }
 385              		.loc 1 1026 28 is_stmt 0 view .LVU123
 386 0044 2046     		mov	r0, r4
 387 0046 FFF7FEFF 		bl	indev_reset_check
 388              	.LVL25:
1026:Middlewares/lvgl/src/core/lv_indev.c ****                     }
 389              		.loc 1 1026 27 view .LVU124
 390 004a 48B9     		cbnz	r0, .L19
 391              	.L27:
1032:Middlewares/lvgl/src/core/lv_indev.c ****                 lv_group_focus_obj(obj_to_focus);
 392              		.loc 1 1032 13 is_stmt 1 view .LVU125
1032:Middlewares/lvgl/src/core/lv_indev.c ****                 lv_group_focus_obj(obj_to_focus);
 393              		.loc 1 1032 15 is_stmt 0 view .LVU126
 394 004c 002E     		cmp	r6, #0
 395 004e 45D0     		beq	.L29
1033:Middlewares/lvgl/src/core/lv_indev.c ****                 if(indev_reset_check(proc)) return;
 396              		.loc 1 1033 17 is_stmt 1 view .LVU127
 397 0050 2846     		mov	r0, r5
 398 0052 FFF7FEFF 		bl	lv_group_focus_obj
 399              	.LVL26:
1034:Middlewares/lvgl/src/core/lv_indev.c ****             }
 400              		.loc 1 1034 17 view .LVU128
1034:Middlewares/lvgl/src/core/lv_indev.c ****             }
 401              		.loc 1 1034 20 is_stmt 0 view .LVU129
 402 0056 2046     		mov	r0, r4
 403 0058 FFF7FEFF 		bl	indev_reset_check
 404              	.LVL27:
1034:Middlewares/lvgl/src/core/lv_indev.c ****             }
 405              		.loc 1 1034 19 view .LVU130
ARM GAS  /tmp/cc4kiO2x.s 			page 29


 406 005c 00B9     		cbnz	r0, .L19
 407              	.L24:
1041:Middlewares/lvgl/src/core/lv_indev.c ****     }
 408              		.loc 1 1041 9 is_stmt 1 view .LVU131
1041:Middlewares/lvgl/src/core/lv_indev.c ****     }
 409              		.loc 1 1041 42 is_stmt 0 view .LVU132
 410 005e E562     		str	r5, [r4, #44]
 411              	.LVL28:
 412              	.L19:
1041:Middlewares/lvgl/src/core/lv_indev.c ****     }
 413              		.loc 1 1041 42 view .LVU133
 414              	.LBE2:
1044:Middlewares/lvgl/src/core/lv_indev.c **** 
 415              		.loc 1 1044 1 view .LVU134
 416 0060 70BD     		pop	{r4, r5, r6, pc}
 417              	.LVL29:
 418              	.L31:
 419              	.LBB3:
 993:Middlewares/lvgl/src/core/lv_indev.c ****                 lv_group_focus_obj(obj_to_focus);
 420              		.loc 1 993 13 is_stmt 1 view .LVU135
 993:Middlewares/lvgl/src/core/lv_indev.c ****                 lv_group_focus_obj(obj_to_focus);
 421              		.loc 1 993 15 is_stmt 0 view .LVU136
 422 0062 46B1     		cbz	r6, .L23
 994:Middlewares/lvgl/src/core/lv_indev.c ****                 if(indev_reset_check(proc)) return;
 423              		.loc 1 994 17 is_stmt 1 view .LVU137
 424 0064 2846     		mov	r0, r5
 425              	.LVL30:
 994:Middlewares/lvgl/src/core/lv_indev.c ****                 if(indev_reset_check(proc)) return;
 426              		.loc 1 994 17 is_stmt 0 view .LVU138
 427 0066 FFF7FEFF 		bl	lv_group_focus_obj
 428              	.LVL31:
 995:Middlewares/lvgl/src/core/lv_indev.c ****             }
 429              		.loc 1 995 17 is_stmt 1 view .LVU139
 995:Middlewares/lvgl/src/core/lv_indev.c ****             }
 430              		.loc 1 995 20 is_stmt 0 view .LVU140
 431 006a 2046     		mov	r0, r4
 432 006c FFF7FEFF 		bl	indev_reset_check
 433              	.LVL32:
 995:Middlewares/lvgl/src/core/lv_indev.c ****             }
 434              		.loc 1 995 19 view .LVU141
 435 0070 0028     		cmp	r0, #0
 436 0072 F4D0     		beq	.L24
 437 0074 F4E7     		b	.L19
 438              	.LVL33:
 439              	.L23:
 999:Middlewares/lvgl/src/core/lv_indev.c ****                     lv_event_send(proc->types.pointer.last_pressed, LV_EVENT_DEFOCUSED, indev_act);
 440              		.loc 1 999 17 is_stmt 1 view .LVU142
 999:Middlewares/lvgl/src/core/lv_indev.c ****                     lv_event_send(proc->types.pointer.last_pressed, LV_EVENT_DEFOCUSED, indev_act);
 441              		.loc 1 999 39 is_stmt 0 view .LVU143
 442 0076 E06A     		ldr	r0, [r4, #44]
 443              	.LVL34:
 999:Middlewares/lvgl/src/core/lv_indev.c ****                     lv_event_send(proc->types.pointer.last_pressed, LV_EVENT_DEFOCUSED, indev_act);
 444              		.loc 1 999 19 view .LVU144
 445 0078 48B1     		cbz	r0, .L25
1000:Middlewares/lvgl/src/core/lv_indev.c ****                     if(indev_reset_check(proc)) return;
 446              		.loc 1 1000 21 is_stmt 1 view .LVU145
 447 007a 1F4B     		ldr	r3, .L34+4
ARM GAS  /tmp/cc4kiO2x.s 			page 30


 448 007c 1A68     		ldr	r2, [r3]
 449 007e 0F21     		movs	r1, #15
 450 0080 FFF7FEFF 		bl	lv_event_send
 451              	.LVL35:
1001:Middlewares/lvgl/src/core/lv_indev.c ****                 }
 452              		.loc 1 1001 21 view .LVU146
1001:Middlewares/lvgl/src/core/lv_indev.c ****                 }
 453              		.loc 1 1001 24 is_stmt 0 view .LVU147
 454 0084 2046     		mov	r0, r4
 455 0086 FFF7FEFF 		bl	indev_reset_check
 456              	.LVL36:
1001:Middlewares/lvgl/src/core/lv_indev.c ****                 }
 457              		.loc 1 1001 23 view .LVU148
 458 008a 0028     		cmp	r0, #0
 459 008c E8D1     		bne	.L19
 460              	.L25:
1004:Middlewares/lvgl/src/core/lv_indev.c ****                 if(indev_reset_check(proc)) return;
 461              		.loc 1 1004 17 is_stmt 1 view .LVU149
 462 008e 1A4B     		ldr	r3, .L34+4
 463 0090 1A68     		ldr	r2, [r3]
 464 0092 0E21     		movs	r1, #14
 465 0094 2846     		mov	r0, r5
 466 0096 FFF7FEFF 		bl	lv_event_send
 467              	.LVL37:
1005:Middlewares/lvgl/src/core/lv_indev.c ****             }
 468              		.loc 1 1005 17 view .LVU150
1005:Middlewares/lvgl/src/core/lv_indev.c ****             }
 469              		.loc 1 1005 20 is_stmt 0 view .LVU151
 470 009a 2046     		mov	r0, r4
 471 009c FFF7FEFF 		bl	indev_reset_check
 472              	.LVL38:
1005:Middlewares/lvgl/src/core/lv_indev.c ****             }
 473              		.loc 1 1005 19 view .LVU152
 474 00a0 0028     		cmp	r0, #0
 475 00a2 DCD0     		beq	.L24
 476 00a4 DCE7     		b	.L19
 477              	.LVL39:
 478              	.L32:
1011:Middlewares/lvgl/src/core/lv_indev.c ****                 lv_event_send(proc->types.pointer.last_pressed, LV_EVENT_DEFOCUSED, indev_act);
 479              		.loc 1 1011 53 discriminator 1 view .LVU153
 480 00a6 E36A     		ldr	r3, [r4, #44]
1011:Middlewares/lvgl/src/core/lv_indev.c ****                 lv_event_send(proc->types.pointer.last_pressed, LV_EVENT_DEFOCUSED, indev_act);
 481              		.loc 1 1011 31 discriminator 1 view .LVU154
 482 00a8 002B     		cmp	r3, #0
 483 00aa C1D0     		beq	.L26
1012:Middlewares/lvgl/src/core/lv_indev.c ****                 if(indev_reset_check(proc)) return;
 484              		.loc 1 1012 17 is_stmt 1 view .LVU155
 485 00ac 124A     		ldr	r2, .L34+4
 486 00ae 1268     		ldr	r2, [r2]
 487 00b0 0F21     		movs	r1, #15
 488 00b2 1846     		mov	r0, r3
 489              	.LVL40:
1012:Middlewares/lvgl/src/core/lv_indev.c ****                 if(indev_reset_check(proc)) return;
 490              		.loc 1 1012 17 is_stmt 0 view .LVU156
 491 00b4 FFF7FEFF 		bl	lv_event_send
 492              	.LVL41:
1013:Middlewares/lvgl/src/core/lv_indev.c ****             }
ARM GAS  /tmp/cc4kiO2x.s 			page 31


 493              		.loc 1 1013 17 is_stmt 1 view .LVU157
1013:Middlewares/lvgl/src/core/lv_indev.c ****             }
 494              		.loc 1 1013 20 is_stmt 0 view .LVU158
 495 00b8 2046     		mov	r0, r4
 496 00ba FFF7FEFF 		bl	indev_reset_check
 497              	.LVL42:
1013:Middlewares/lvgl/src/core/lv_indev.c ****             }
 498              		.loc 1 1013 19 view .LVU159
 499 00be 0028     		cmp	r0, #0
 500 00c0 C4D0     		beq	.L27
 501 00c2 CDE7     		b	.L19
 502              	.LVL43:
 503              	.L33:
1020:Middlewares/lvgl/src/core/lv_indev.c ****                         if(indev_reset_check(proc)) return;
 504              		.loc 1 1020 25 is_stmt 1 view .LVU160
 505 00c4 0C4A     		ldr	r2, .L34+4
 506 00c6 1268     		ldr	r2, [r2]
 507 00c8 0F21     		movs	r1, #15
 508 00ca 1846     		mov	r0, r3
 509              	.LVL44:
1020:Middlewares/lvgl/src/core/lv_indev.c ****                         if(indev_reset_check(proc)) return;
 510              		.loc 1 1020 25 is_stmt 0 view .LVU161
 511 00cc FFF7FEFF 		bl	lv_event_send
 512              	.LVL45:
1021:Middlewares/lvgl/src/core/lv_indev.c ****                     }
 513              		.loc 1 1021 25 is_stmt 1 view .LVU162
1021:Middlewares/lvgl/src/core/lv_indev.c ****                     }
 514              		.loc 1 1021 28 is_stmt 0 view .LVU163
 515 00d0 2046     		mov	r0, r4
 516 00d2 FFF7FEFF 		bl	indev_reset_check
 517              	.LVL46:
1021:Middlewares/lvgl/src/core/lv_indev.c ****                     }
 518              		.loc 1 1021 27 view .LVU164
 519 00d6 0028     		cmp	r0, #0
 520 00d8 B8D0     		beq	.L27
 521 00da C1E7     		b	.L19
 522              	.L29:
1037:Middlewares/lvgl/src/core/lv_indev.c ****                 if(indev_reset_check(proc)) return;
 523              		.loc 1 1037 17 is_stmt 1 view .LVU165
 524 00dc 064B     		ldr	r3, .L34+4
 525 00de 1A68     		ldr	r2, [r3]
 526 00e0 0E21     		movs	r1, #14
 527 00e2 2846     		mov	r0, r5
 528 00e4 FFF7FEFF 		bl	lv_event_send
 529              	.LVL47:
1038:Middlewares/lvgl/src/core/lv_indev.c ****             }
 530              		.loc 1 1038 17 view .LVU166
1038:Middlewares/lvgl/src/core/lv_indev.c ****             }
 531              		.loc 1 1038 20 is_stmt 0 view .LVU167
 532 00e8 2046     		mov	r0, r4
 533 00ea FFF7FEFF 		bl	indev_reset_check
 534              	.LVL48:
1038:Middlewares/lvgl/src/core/lv_indev.c ****             }
 535              		.loc 1 1038 19 view .LVU168
 536 00ee 0028     		cmp	r0, #0
 537 00f0 B5D0     		beq	.L24
 538 00f2 B5E7     		b	.L19
ARM GAS  /tmp/cc4kiO2x.s 			page 32


 539              	.L35:
 540              		.align	2
 541              	.L34:
 542 00f4 00000000 		.word	.LANCHOR0
 543 00f8 00000000 		.word	.LANCHOR1
 544              	.LBE3:
 545              		.cfi_endproc
 546              	.LFE179:
 548              		.section	.text.indev_gesture,"ax",%progbits
 549              		.align	1
 550              		.syntax unified
 551              		.thumb
 552              		.thumb_func
 553              		.fpu softvfp
 555              	indev_gesture:
 556              	.LVL49:
 557              	.LFB180:
1051:Middlewares/lvgl/src/core/lv_indev.c **** 
 558              		.loc 1 1051 1 is_stmt 1 view -0
 559              		.cfi_startproc
 560              		@ args = 0, pretend = 0, frame = 0
 561              		@ frame_needed = 0, uses_anonymous_args = 0
1051:Middlewares/lvgl/src/core/lv_indev.c **** 
 562              		.loc 1 1051 1 is_stmt 0 view .LVU170
 563 0000 38B5     		push	{r3, r4, r5, lr}
 564              	.LCFI2:
 565              		.cfi_def_cfa_offset 16
 566              		.cfi_offset 3, -16
 567              		.cfi_offset 4, -12
 568              		.cfi_offset 5, -8
 569              		.cfi_offset 14, -4
1053:Middlewares/lvgl/src/core/lv_indev.c ****     if(proc->types.pointer.gesture_sent) return;
 570              		.loc 1 1053 5 is_stmt 1 view .LVU171
1053:Middlewares/lvgl/src/core/lv_indev.c ****     if(proc->types.pointer.gesture_sent) return;
 571              		.loc 1 1053 27 is_stmt 0 view .LVU172
 572 0002 836A     		ldr	r3, [r0, #40]
1053:Middlewares/lvgl/src/core/lv_indev.c ****     if(proc->types.pointer.gesture_sent) return;
 573              		.loc 1 1053 7 view .LVU173
 574 0004 03B1     		cbz	r3, .L48
 575              	.LVL50:
 576              	.L36:
1096:Middlewares/lvgl/src/core/lv_indev.c **** 
 577              		.loc 1 1096 1 view .LVU174
 578 0006 38BD     		pop	{r3, r4, r5, pc}
 579              	.LVL51:
 580              	.L48:
1096:Middlewares/lvgl/src/core/lv_indev.c **** 
 581              		.loc 1 1096 1 view .LVU175
 582 0008 0546     		mov	r5, r0
1054:Middlewares/lvgl/src/core/lv_indev.c **** 
 583              		.loc 1 1054 5 is_stmt 1 view .LVU176
1054:Middlewares/lvgl/src/core/lv_indev.c **** 
 584              		.loc 1 1054 8 is_stmt 0 view .LVU177
 585 000a 90F83D30 		ldrb	r3, [r0, #61]	@ zero_extendqisi2
1054:Middlewares/lvgl/src/core/lv_indev.c **** 
 586              		.loc 1 1054 7 view .LVU178
 587 000e 13F0010F 		tst	r3, #1
ARM GAS  /tmp/cc4kiO2x.s 			page 33


 588 0012 F8D1     		bne	.L36
1056:Middlewares/lvgl/src/core/lv_indev.c **** 
 589              		.loc 1 1056 5 is_stmt 1 view .LVU179
1056:Middlewares/lvgl/src/core/lv_indev.c **** 
 590              		.loc 1 1056 16 is_stmt 0 view .LVU180
 591 0014 046A     		ldr	r4, [r0, #32]
 592              	.LVL52:
1059:Middlewares/lvgl/src/core/lv_indev.c ****         gesture_obj = lv_obj_get_parent(gesture_obj);
 593              		.loc 1 1059 5 is_stmt 1 view .LVU181
1059:Middlewares/lvgl/src/core/lv_indev.c ****         gesture_obj = lv_obj_get_parent(gesture_obj);
 594              		.loc 1 1059 10 is_stmt 0 view .LVU182
 595 0016 03E0     		b	.L38
 596              	.LVL53:
 597              	.L40:
1060:Middlewares/lvgl/src/core/lv_indev.c ****     }
 598              		.loc 1 1060 9 is_stmt 1 view .LVU183
1060:Middlewares/lvgl/src/core/lv_indev.c ****     }
 599              		.loc 1 1060 23 is_stmt 0 view .LVU184
 600 0018 2046     		mov	r0, r4
 601 001a FFF7FEFF 		bl	lv_obj_get_parent
 602              	.LVL54:
 603 001e 0446     		mov	r4, r0
 604              	.LVL55:
 605              	.L38:
1059:Middlewares/lvgl/src/core/lv_indev.c ****         gesture_obj = lv_obj_get_parent(gesture_obj);
 606              		.loc 1 1059 10 is_stmt 1 view .LVU185
 607 0020 34B1     		cbz	r4, .L39
1059:Middlewares/lvgl/src/core/lv_indev.c ****         gesture_obj = lv_obj_get_parent(gesture_obj);
 608              		.loc 1 1059 26 is_stmt 0 discriminator 1 view .LVU186
 609 0022 4FF40051 		mov	r1, #8192
 610 0026 2046     		mov	r0, r4
 611 0028 FFF7FEFF 		bl	lv_obj_has_flag
 612              	.LVL56:
1059:Middlewares/lvgl/src/core/lv_indev.c ****         gesture_obj = lv_obj_get_parent(gesture_obj);
 613              		.loc 1 1059 23 discriminator 1 view .LVU187
 614 002c 0028     		cmp	r0, #0
 615 002e F3D1     		bne	.L40
 616              	.L39:
1063:Middlewares/lvgl/src/core/lv_indev.c **** 
 617              		.loc 1 1063 5 is_stmt 1 view .LVU188
1063:Middlewares/lvgl/src/core/lv_indev.c **** 
 618              		.loc 1 1063 7 is_stmt 0 view .LVU189
 619 0030 002C     		cmp	r4, #0
 620 0032 E8D0     		beq	.L36
1065:Middlewares/lvgl/src/core/lv_indev.c ****        (LV_ABS(proc->types.pointer.vect.y) < indev_act->driver->gesture_min_velocity)) {
 621              		.loc 1 1065 5 is_stmt 1 view .LVU190
1065:Middlewares/lvgl/src/core/lv_indev.c ****        (LV_ABS(proc->types.pointer.vect.y) < indev_act->driver->gesture_min_velocity)) {
 622              		.loc 1 1065 9 is_stmt 0 view .LVU191
 623 0034 B5F91030 		ldrsh	r3, [r5, #16]
 624 0038 83EAE371 		eor	r1, r3, r3, asr #31
 625 003c A1EBE371 		sub	r1, r1, r3, asr #31
 626 0040 89B2     		uxth	r1, r1
1065:Middlewares/lvgl/src/core/lv_indev.c ****        (LV_ABS(proc->types.pointer.vect.y) < indev_act->driver->gesture_min_velocity)) {
 627              		.loc 1 1065 55 view .LVU192
 628 0042 334A     		ldr	r2, .L49
 629 0044 1268     		ldr	r2, [r2]
 630 0046 1068     		ldr	r0, [r2]
ARM GAS  /tmp/cc4kiO2x.s 			page 34


1065:Middlewares/lvgl/src/core/lv_indev.c ****        (LV_ABS(proc->types.pointer.vect.y) < indev_act->driver->gesture_min_velocity)) {
 631              		.loc 1 1065 44 view .LVU193
 632 0048 807E     		ldrb	r0, [r0, #26]	@ zero_extendqisi2
1065:Middlewares/lvgl/src/core/lv_indev.c ****        (LV_ABS(proc->types.pointer.vect.y) < indev_act->driver->gesture_min_velocity)) {
 633              		.loc 1 1065 7 view .LVU194
 634 004a 8142     		cmp	r1, r0
 635 004c 0AD2     		bcs	.L41
1066:Middlewares/lvgl/src/core/lv_indev.c ****         proc->types.pointer.gesture_sum.x = 0;
 636              		.loc 1 1066 9 discriminator 1 view .LVU195
 637 004e B5F91210 		ldrsh	r1, [r5, #18]
 638 0052 0029     		cmp	r1, #0
 639 0054 B8BF     		it	lt
 640 0056 4942     		rsblt	r1, r1, #0
 641 0058 89B2     		uxth	r1, r1
1065:Middlewares/lvgl/src/core/lv_indev.c ****        (LV_ABS(proc->types.pointer.vect.y) < indev_act->driver->gesture_min_velocity)) {
 642              		.loc 1 1065 87 discriminator 1 view .LVU196
 643 005a 8842     		cmp	r0, r1
 644 005c 02D9     		bls	.L41
1067:Middlewares/lvgl/src/core/lv_indev.c ****         proc->types.pointer.gesture_sum.y = 0;
 645              		.loc 1 1067 9 is_stmt 1 view .LVU197
1067:Middlewares/lvgl/src/core/lv_indev.c ****         proc->types.pointer.gesture_sum.y = 0;
 646              		.loc 1 1067 43 is_stmt 0 view .LVU198
 647 005e 0021     		movs	r1, #0
 648 0060 2987     		strh	r1, [r5, #56]	@ movhi
1068:Middlewares/lvgl/src/core/lv_indev.c ****     }
 649              		.loc 1 1068 9 is_stmt 1 view .LVU199
1068:Middlewares/lvgl/src/core/lv_indev.c ****     }
 650              		.loc 1 1068 43 is_stmt 0 view .LVU200
 651 0062 6987     		strh	r1, [r5, #58]	@ movhi
 652              	.L41:
1072:Middlewares/lvgl/src/core/lv_indev.c ****     proc->types.pointer.gesture_sum.y += proc->types.pointer.vect.y;
 653              		.loc 1 1072 5 is_stmt 1 view .LVU201
1072:Middlewares/lvgl/src/core/lv_indev.c ****     proc->types.pointer.gesture_sum.y += proc->types.pointer.vect.y;
 654              		.loc 1 1072 66 is_stmt 0 view .LVU202
 655 0064 9BB2     		uxth	r3, r3
1072:Middlewares/lvgl/src/core/lv_indev.c ****     proc->types.pointer.gesture_sum.y += proc->types.pointer.vect.y;
 656              		.loc 1 1072 39 view .LVU203
 657 0066 298F     		ldrh	r1, [r5, #56]
 658 0068 0B44     		add	r3, r3, r1
 659 006a 1BB2     		sxth	r3, r3
 660 006c 2B87     		strh	r3, [r5, #56]	@ movhi
1073:Middlewares/lvgl/src/core/lv_indev.c **** 
 661              		.loc 1 1073 5 is_stmt 1 view .LVU204
1073:Middlewares/lvgl/src/core/lv_indev.c **** 
 662              		.loc 1 1073 66 is_stmt 0 view .LVU205
 663 006e 698A     		ldrh	r1, [r5, #18]
1073:Middlewares/lvgl/src/core/lv_indev.c **** 
 664              		.loc 1 1073 39 view .LVU206
 665 0070 688F     		ldrh	r0, [r5, #58]
 666 0072 0144     		add	r1, r1, r0
 667 0074 09B2     		sxth	r1, r1
 668 0076 6987     		strh	r1, [r5, #58]	@ movhi
1075:Middlewares/lvgl/src/core/lv_indev.c ****        (LV_ABS(proc->types.pointer.gesture_sum.y) > indev_act->driver->gesture_limit)) {
 669              		.loc 1 1075 5 is_stmt 1 view .LVU207
1075:Middlewares/lvgl/src/core/lv_indev.c ****        (LV_ABS(proc->types.pointer.gesture_sum.y) > indev_act->driver->gesture_limit)) {
 670              		.loc 1 1075 9 is_stmt 0 view .LVU208
 671 0078 83EAE370 		eor	r0, r3, r3, asr #31
ARM GAS  /tmp/cc4kiO2x.s 			page 35


 672 007c A0EBE370 		sub	r0, r0, r3, asr #31
 673 0080 80B2     		uxth	r0, r0
1075:Middlewares/lvgl/src/core/lv_indev.c ****        (LV_ABS(proc->types.pointer.gesture_sum.y) > indev_act->driver->gesture_limit)) {
 674              		.loc 1 1075 51 view .LVU209
 675 0082 D2F800C0 		ldr	ip, [r2]
 676 0086 9CF81BC0 		ldrb	ip, [ip, #27]	@ zero_extendqisi2
1075:Middlewares/lvgl/src/core/lv_indev.c ****        (LV_ABS(proc->types.pointer.gesture_sum.y) > indev_act->driver->gesture_limit)) {
 677              		.loc 1 1075 7 view .LVU210
 678 008a 6045     		cmp	r0, ip
 679 008c 07D8     		bhi	.L42
1076:Middlewares/lvgl/src/core/lv_indev.c **** 
 680              		.loc 1 1076 9 discriminator 1 view .LVU211
 681 008e 81EAE17E 		eor	lr, r1, r1, asr #31
 682 0092 AEEBE17E 		sub	lr, lr, r1, asr #31
 683 0096 1FFA8EFE 		uxth	lr, lr
1075:Middlewares/lvgl/src/core/lv_indev.c ****        (LV_ABS(proc->types.pointer.gesture_sum.y) > indev_act->driver->gesture_limit)) {
 684              		.loc 1 1075 87 discriminator 1 view .LVU212
 685 009a F445     		cmp	ip, lr
 686 009c B3D2     		bcs	.L36
 687              	.L42:
1078:Middlewares/lvgl/src/core/lv_indev.c **** 
 688              		.loc 1 1078 9 is_stmt 1 view .LVU213
1078:Middlewares/lvgl/src/core/lv_indev.c **** 
 689              		.loc 1 1078 42 is_stmt 0 view .LVU214
 690 009e 95F83DC0 		ldrb	ip, [r5, #61]	@ zero_extendqisi2
 691 00a2 4CF0010C 		orr	ip, ip, #1
 692 00a6 85F83DC0 		strb	ip, [r5, #61]
1080:Middlewares/lvgl/src/core/lv_indev.c ****             if(proc->types.pointer.gesture_sum.x > 0)
 693              		.loc 1 1080 9 is_stmt 1 view .LVU215
1080:Middlewares/lvgl/src/core/lv_indev.c ****             if(proc->types.pointer.gesture_sum.x > 0)
 694              		.loc 1 1080 56 is_stmt 0 view .LVU216
 695 00aa 81EAE17C 		eor	ip, r1, r1, asr #31
 696 00ae ACEBE17C 		sub	ip, ip, r1, asr #31
 697 00b2 1FFA8CFC 		uxth	ip, ip
1080:Middlewares/lvgl/src/core/lv_indev.c ****             if(proc->types.pointer.gesture_sum.x > 0)
 698              		.loc 1 1080 11 view .LVU217
 699 00b6 6045     		cmp	r0, ip
 700 00b8 18D9     		bls	.L43
1081:Middlewares/lvgl/src/core/lv_indev.c ****                 proc->types.pointer.gesture_dir = LV_DIR_RIGHT;
 701              		.loc 1 1081 13 is_stmt 1 view .LVU218
1081:Middlewares/lvgl/src/core/lv_indev.c ****                 proc->types.pointer.gesture_dir = LV_DIR_RIGHT;
 702              		.loc 1 1081 15 is_stmt 0 view .LVU219
 703 00ba 002B     		cmp	r3, #0
 704 00bc 0EDD     		ble	.L44
1082:Middlewares/lvgl/src/core/lv_indev.c ****             else
 705              		.loc 1 1082 17 is_stmt 1 view .LVU220
1082:Middlewares/lvgl/src/core/lv_indev.c ****             else
 706              		.loc 1 1082 49 is_stmt 0 view .LVU221
 707 00be 95F83C30 		ldrb	r3, [r5, #60]	@ zero_extendqisi2
 708 00c2 0221     		movs	r1, #2
 709 00c4 61F30713 		bfi	r3, r1, #4, #4
 710 00c8 85F83C30 		strb	r3, [r5, #60]
 711              	.L45:
1093:Middlewares/lvgl/src/core/lv_indev.c ****         if(indev_reset_check(proc)) return;
 712              		.loc 1 1093 9 is_stmt 1 view .LVU222
 713 00cc 0C21     		movs	r1, #12
 714 00ce 2046     		mov	r0, r4
ARM GAS  /tmp/cc4kiO2x.s 			page 36


 715 00d0 FFF7FEFF 		bl	lv_event_send
 716              	.LVL57:
1094:Middlewares/lvgl/src/core/lv_indev.c ****     }
 717              		.loc 1 1094 9 view .LVU223
1094:Middlewares/lvgl/src/core/lv_indev.c ****     }
 718              		.loc 1 1094 12 is_stmt 0 view .LVU224
 719 00d4 2846     		mov	r0, r5
 720 00d6 FFF7FEFF 		bl	indev_reset_check
 721              	.LVL58:
 722 00da 94E7     		b	.L36
 723              	.L44:
1084:Middlewares/lvgl/src/core/lv_indev.c ****         }
 724              		.loc 1 1084 17 is_stmt 1 view .LVU225
1084:Middlewares/lvgl/src/core/lv_indev.c ****         }
 725              		.loc 1 1084 49 is_stmt 0 view .LVU226
 726 00dc 95F83C30 		ldrb	r3, [r5, #60]	@ zero_extendqisi2
 727 00e0 0121     		movs	r1, #1
 728 00e2 61F30713 		bfi	r3, r1, #4, #4
 729 00e6 85F83C30 		strb	r3, [r5, #60]
 730 00ea EFE7     		b	.L45
 731              	.L43:
1087:Middlewares/lvgl/src/core/lv_indev.c ****                 proc->types.pointer.gesture_dir = LV_DIR_BOTTOM;
 732              		.loc 1 1087 13 is_stmt 1 view .LVU227
1087:Middlewares/lvgl/src/core/lv_indev.c ****                 proc->types.pointer.gesture_dir = LV_DIR_BOTTOM;
 733              		.loc 1 1087 15 is_stmt 0 view .LVU228
 734 00ec 0029     		cmp	r1, #0
 735 00ee 07DD     		ble	.L46
1088:Middlewares/lvgl/src/core/lv_indev.c ****             else
 736              		.loc 1 1088 17 is_stmt 1 view .LVU229
1088:Middlewares/lvgl/src/core/lv_indev.c ****             else
 737              		.loc 1 1088 49 is_stmt 0 view .LVU230
 738 00f0 95F83C30 		ldrb	r3, [r5, #60]	@ zero_extendqisi2
 739 00f4 0821     		movs	r1, #8
 740 00f6 61F30713 		bfi	r3, r1, #4, #4
 741 00fa 85F83C30 		strb	r3, [r5, #60]
 742 00fe E5E7     		b	.L45
 743              	.L46:
1090:Middlewares/lvgl/src/core/lv_indev.c ****         }
 744              		.loc 1 1090 17 is_stmt 1 view .LVU231
1090:Middlewares/lvgl/src/core/lv_indev.c ****         }
 745              		.loc 1 1090 49 is_stmt 0 view .LVU232
 746 0100 95F83C30 		ldrb	r3, [r5, #60]	@ zero_extendqisi2
 747 0104 0421     		movs	r1, #4
 748 0106 61F30713 		bfi	r3, r1, #4, #4
 749 010a 85F83C30 		strb	r3, [r5, #60]
 750 010e DDE7     		b	.L45
 751              	.L50:
 752              		.align	2
 753              	.L49:
 754 0110 00000000 		.word	.LANCHOR1
 755              		.cfi_endproc
 756              	.LFE180:
 758              		.section	.text.indev_keypad_proc,"ax",%progbits
 759              		.align	1
 760              		.syntax unified
 761              		.thumb
 762              		.thumb_func
ARM GAS  /tmp/cc4kiO2x.s 			page 37


 763              		.fpu softvfp
 765              	indev_keypad_proc:
 766              	.LVL59:
 767              	.LFB173:
 375:Middlewares/lvgl/src/core/lv_indev.c ****     if(data->state == LV_INDEV_STATE_PRESSED && i->proc.wait_until_release) return;
 768              		.loc 1 375 1 is_stmt 1 view -0
 769              		.cfi_startproc
 770              		@ args = 0, pretend = 0, frame = 0
 771              		@ frame_needed = 0, uses_anonymous_args = 0
 375:Middlewares/lvgl/src/core/lv_indev.c ****     if(data->state == LV_INDEV_STATE_PRESSED && i->proc.wait_until_release) return;
 772              		.loc 1 375 1 is_stmt 0 view .LVU234
 773 0000 70B5     		push	{r4, r5, r6, lr}
 774              	.LCFI3:
 775              		.cfi_def_cfa_offset 16
 776              		.cfi_offset 4, -16
 777              		.cfi_offset 5, -12
 778              		.cfi_offset 6, -8
 779              		.cfi_offset 14, -4
 780 0002 0446     		mov	r4, r0
 781 0004 0D46     		mov	r5, r1
 376:Middlewares/lvgl/src/core/lv_indev.c **** 
 782              		.loc 1 376 5 is_stmt 1 view .LVU235
 376:Middlewares/lvgl/src/core/lv_indev.c **** 
 783              		.loc 1 376 12 is_stmt 0 view .LVU236
 784 0006 8B7B     		ldrb	r3, [r1, #14]	@ zero_extendqisi2
 376:Middlewares/lvgl/src/core/lv_indev.c **** 
 785              		.loc 1 376 7 view .LVU237
 786 0008 012B     		cmp	r3, #1
 787 000a 28D0     		beq	.L70
 788              	.L52:
 378:Middlewares/lvgl/src/core/lv_indev.c ****         i->proc.wait_until_release      = 0;
 789              		.loc 1 378 5 is_stmt 1 view .LVU238
 378:Middlewares/lvgl/src/core/lv_indev.c ****         i->proc.wait_until_release      = 0;
 790              		.loc 1 378 8 is_stmt 0 view .LVU239
 791 000c 6379     		ldrb	r3, [r4, #5]	@ zero_extendqisi2
 378:Middlewares/lvgl/src/core/lv_indev.c ****         i->proc.wait_until_release      = 0;
 792              		.loc 1 378 7 view .LVU240
 793 000e 13F0080F 		tst	r3, #8
 794 0012 0AD0     		beq	.L54
 379:Middlewares/lvgl/src/core/lv_indev.c ****         i->proc.pr_timestamp            = 0;
 795              		.loc 1 379 9 is_stmt 1 view .LVU241
 379:Middlewares/lvgl/src/core/lv_indev.c ****         i->proc.pr_timestamp            = 0;
 796              		.loc 1 379 41 is_stmt 0 view .LVU242
 797 0014 6379     		ldrb	r3, [r4, #5]	@ zero_extendqisi2
 798 0016 6FF3C303 		bfc	r3, #3, #1
 799 001a 6371     		strb	r3, [r4, #5]
 380:Middlewares/lvgl/src/core/lv_indev.c ****         i->proc.long_pr_sent            = 0;
 800              		.loc 1 380 9 is_stmt 1 view .LVU243
 380:Middlewares/lvgl/src/core/lv_indev.c ****         i->proc.long_pr_sent            = 0;
 801              		.loc 1 380 41 is_stmt 0 view .LVU244
 802 001c 0023     		movs	r3, #0
 803 001e 6364     		str	r3, [r4, #68]
 381:Middlewares/lvgl/src/core/lv_indev.c ****         i->proc.types.keypad.last_state = LV_INDEV_STATE_RELEASED; /*To skip the processing of rele
 804              		.loc 1 381 9 is_stmt 1 view .LVU245
 381:Middlewares/lvgl/src/core/lv_indev.c ****         i->proc.types.keypad.last_state = LV_INDEV_STATE_RELEASED; /*To skip the processing of rele
 805              		.loc 1 381 41 is_stmt 0 view .LVU246
 806 0020 6279     		ldrb	r2, [r4, #5]	@ zero_extendqisi2
ARM GAS  /tmp/cc4kiO2x.s 			page 38


 807 0022 63F30002 		bfi	r2, r3, #0, #1
 808 0026 6271     		strb	r2, [r4, #5]
 382:Middlewares/lvgl/src/core/lv_indev.c ****     }
 809              		.loc 1 382 9 is_stmt 1 view .LVU247
 382:Middlewares/lvgl/src/core/lv_indev.c ****     }
 810              		.loc 1 382 41 is_stmt 0 view .LVU248
 811 0028 2372     		strb	r3, [r4, #8]
 812              	.L54:
 385:Middlewares/lvgl/src/core/lv_indev.c ****     if(g == NULL) return;
 813              		.loc 1 385 5 is_stmt 1 view .LVU249
 385:Middlewares/lvgl/src/core/lv_indev.c ****     if(g == NULL) return;
 814              		.loc 1 385 18 is_stmt 0 view .LVU250
 815 002a 266D     		ldr	r6, [r4, #80]
 816              	.LVL60:
 386:Middlewares/lvgl/src/core/lv_indev.c **** 
 817              		.loc 1 386 5 is_stmt 1 view .LVU251
 386:Middlewares/lvgl/src/core/lv_indev.c **** 
 818              		.loc 1 386 7 is_stmt 0 view .LVU252
 819 002c B6B1     		cbz	r6, .L51
 388:Middlewares/lvgl/src/core/lv_indev.c ****     if(indev_obj_act == NULL) return;
 820              		.loc 1 388 5 is_stmt 1 view .LVU253
 388:Middlewares/lvgl/src/core/lv_indev.c ****     if(indev_obj_act == NULL) return;
 821              		.loc 1 388 21 is_stmt 0 view .LVU254
 822 002e 3046     		mov	r0, r6
 823              	.LVL61:
 388:Middlewares/lvgl/src/core/lv_indev.c ****     if(indev_obj_act == NULL) return;
 824              		.loc 1 388 21 view .LVU255
 825 0030 FFF7FEFF 		bl	lv_group_get_focused
 826              	.LVL62:
 388:Middlewares/lvgl/src/core/lv_indev.c ****     if(indev_obj_act == NULL) return;
 827              		.loc 1 388 19 view .LVU256
 828 0034 8A4B     		ldr	r3, .L84
 829 0036 1860     		str	r0, [r3]
 389:Middlewares/lvgl/src/core/lv_indev.c **** 
 830              		.loc 1 389 5 is_stmt 1 view .LVU257
 389:Middlewares/lvgl/src/core/lv_indev.c **** 
 831              		.loc 1 389 7 is_stmt 0 view .LVU258
 832 0038 80B1     		cbz	r0, .L51
 392:Middlewares/lvgl/src/core/lv_indev.c **** 
 833              		.loc 1 392 5 is_stmt 1 view .LVU259
 392:Middlewares/lvgl/src/core/lv_indev.c **** 
 834              		.loc 1 392 14 is_stmt 0 view .LVU260
 835 003a E168     		ldr	r1, [r4, #12]
 836              	.LVL63:
 396:Middlewares/lvgl/src/core/lv_indev.c **** 
 837              		.loc 1 396 5 is_stmt 1 view .LVU261
 396:Middlewares/lvgl/src/core/lv_indev.c **** 
 838              		.loc 1 396 41 is_stmt 0 view .LVU262
 839 003c 6B68     		ldr	r3, [r5, #4]
 396:Middlewares/lvgl/src/core/lv_indev.c **** 
 840              		.loc 1 396 35 view .LVU263
 841 003e E360     		str	r3, [r4, #12]
 401:Middlewares/lvgl/src/core/lv_indev.c ****     i->proc.types.keypad.last_state = data->state;
 842              		.loc 1 401 5 is_stmt 1 view .LVU264
 401:Middlewares/lvgl/src/core/lv_indev.c ****     i->proc.types.keypad.last_state = data->state;
 843              		.loc 1 401 59 is_stmt 0 view .LVU265
 844 0040 227A     		ldrb	r2, [r4, #8]	@ zero_extendqisi2
ARM GAS  /tmp/cc4kiO2x.s 			page 39


 845              	.LVL64:
 402:Middlewares/lvgl/src/core/lv_indev.c **** 
 846              		.loc 1 402 5 is_stmt 1 view .LVU266
 402:Middlewares/lvgl/src/core/lv_indev.c **** 
 847              		.loc 1 402 43 is_stmt 0 view .LVU267
 848 0042 AB7B     		ldrb	r3, [r5, #14]	@ zero_extendqisi2
 402:Middlewares/lvgl/src/core/lv_indev.c **** 
 849              		.loc 1 402 37 view .LVU268
 850 0044 2372     		strb	r3, [r4, #8]
 405:Middlewares/lvgl/src/core/lv_indev.c ****         LV_LOG_INFO("%d key is pressed", data->key);
 851              		.loc 1 405 5 is_stmt 1 view .LVU269
 405:Middlewares/lvgl/src/core/lv_indev.c ****         LV_LOG_INFO("%d key is pressed", data->key);
 852              		.loc 1 405 7 is_stmt 0 view .LVU270
 853 0046 012B     		cmp	r3, #1
 854 0048 0ED0     		beq	.L71
 855              	.L55:
 442:Middlewares/lvgl/src/core/lv_indev.c **** 
 856              		.loc 1 442 10 is_stmt 1 view .LVU271
 442:Middlewares/lvgl/src/core/lv_indev.c **** 
 857              		.loc 1 442 12 is_stmt 0 view .LVU272
 858 004a 012B     		cmp	r3, #1
 859 004c 58D0     		beq	.L72
 860              	.L61:
 489:Middlewares/lvgl/src/core/lv_indev.c ****         LV_LOG_INFO("%d key is released", data->key);
 861              		.loc 1 489 10 is_stmt 1 view .LVU273
 489:Middlewares/lvgl/src/core/lv_indev.c ****         LV_LOG_INFO("%d key is released", data->key);
 862              		.loc 1 489 12 is_stmt 0 view .LVU274
 863 004e 13B9     		cbnz	r3, .L57
 489:Middlewares/lvgl/src/core/lv_indev.c ****         LV_LOG_INFO("%d key is released", data->key);
 864              		.loc 1 489 52 discriminator 1 view .LVU275
 865 0050 012A     		cmp	r2, #1
 866 0052 00F0D180 		beq	.L73
 867              	.LVL65:
 868              	.L57:
 510:Middlewares/lvgl/src/core/lv_indev.c **** }
 869              		.loc 1 510 5 is_stmt 1 view .LVU276
 510:Middlewares/lvgl/src/core/lv_indev.c **** }
 870              		.loc 1 510 19 is_stmt 0 view .LVU277
 871 0056 824B     		ldr	r3, .L84
 872 0058 0022     		movs	r2, #0
 873 005a 1A60     		str	r2, [r3]
 874              	.LVL66:
 875              	.L51:
 511:Middlewares/lvgl/src/core/lv_indev.c **** 
 876              		.loc 1 511 1 view .LVU278
 877 005c 70BD     		pop	{r4, r5, r6, pc}
 878              	.LVL67:
 879              	.L70:
 376:Middlewares/lvgl/src/core/lv_indev.c **** 
 880              		.loc 1 376 46 discriminator 1 view .LVU279
 881 005e 4379     		ldrb	r3, [r0, #5]	@ zero_extendqisi2
 882 0060 13F0080F 		tst	r3, #8
 883 0064 D2D0     		beq	.L52
 884 0066 F9E7     		b	.L51
 885              	.LVL68:
 886              	.L71:
 405:Middlewares/lvgl/src/core/lv_indev.c ****         LV_LOG_INFO("%d key is pressed", data->key);
ARM GAS  /tmp/cc4kiO2x.s 			page 40


 887              		.loc 1 405 46 discriminator 1 view .LVU280
 888 0068 002A     		cmp	r2, #0
 889 006a EED1     		bne	.L55
 406:Middlewares/lvgl/src/core/lv_indev.c ****         i->proc.pr_timestamp = lv_tick_get();
 890              		.loc 1 406 52 is_stmt 1 view .LVU281
 407:Middlewares/lvgl/src/core/lv_indev.c **** 
 891              		.loc 1 407 9 view .LVU282
 407:Middlewares/lvgl/src/core/lv_indev.c **** 
 892              		.loc 1 407 32 is_stmt 0 view .LVU283
 893 006c FFF7FEFF 		bl	lv_tick_get
 894              	.LVL69:
 407:Middlewares/lvgl/src/core/lv_indev.c **** 
 895              		.loc 1 407 30 view .LVU284
 896 0070 6064     		str	r0, [r4, #68]
 410:Middlewares/lvgl/src/core/lv_indev.c ****             /*Send the ENTER as a normal KEY*/
 897              		.loc 1 410 9 is_stmt 1 view .LVU285
 410:Middlewares/lvgl/src/core/lv_indev.c ****             /*Send the ENTER as a normal KEY*/
 898              		.loc 1 410 16 is_stmt 0 view .LVU286
 899 0072 6968     		ldr	r1, [r5, #4]
 410:Middlewares/lvgl/src/core/lv_indev.c ****             /*Send the ENTER as a normal KEY*/
 900              		.loc 1 410 11 view .LVU287
 901 0074 0A29     		cmp	r1, #10
 902 0076 09D0     		beq	.L74
 417:Middlewares/lvgl/src/core/lv_indev.c ****             /*Send the ESC as a normal KEY*/
 903              		.loc 1 417 14 is_stmt 1 view .LVU288
 417:Middlewares/lvgl/src/core/lv_indev.c ****             /*Send the ESC as a normal KEY*/
 904              		.loc 1 417 16 is_stmt 0 view .LVU289
 905 0078 1B29     		cmp	r1, #27
 906 007a 17D0     		beq	.L75
 425:Middlewares/lvgl/src/core/lv_indev.c ****             lv_group_set_editing(g, false); /*Editing is not used by KEYPAD is be sure it is disabl
 907              		.loc 1 425 14 is_stmt 1 view .LVU290
 425:Middlewares/lvgl/src/core/lv_indev.c ****             lv_group_set_editing(g, false); /*Editing is not used by KEYPAD is be sure it is disabl
 908              		.loc 1 425 16 is_stmt 0 view .LVU291
 909 007c 0929     		cmp	r1, #9
 910 007e 25D0     		beq	.L76
 431:Middlewares/lvgl/src/core/lv_indev.c ****             lv_group_set_editing(g, false); /*Editing is not used by KEYPAD is be sure it is disabl
 911              		.loc 1 431 14 is_stmt 1 view .LVU292
 431:Middlewares/lvgl/src/core/lv_indev.c ****             lv_group_set_editing(g, false); /*Editing is not used by KEYPAD is be sure it is disabl
 912              		.loc 1 431 16 is_stmt 0 view .LVU293
 913 0080 0B29     		cmp	r1, #11
 914 0082 30D0     		beq	.L77
 438:Middlewares/lvgl/src/core/lv_indev.c ****         }
 915              		.loc 1 438 13 is_stmt 1 view .LVU294
 916 0084 3046     		mov	r0, r6
 917 0086 FFF7FEFF 		bl	lv_group_send_data
 918              	.LVL70:
 919 008a E4E7     		b	.L57
 920              	.L74:
 412:Middlewares/lvgl/src/core/lv_indev.c **** 
 921              		.loc 1 412 13 view .LVU295
 922 008c 3046     		mov	r0, r6
 923 008e FFF7FEFF 		bl	lv_group_send_data
 924              	.LVL71:
 414:Middlewares/lvgl/src/core/lv_indev.c ****             if(indev_reset_check(&i->proc)) return;
 925              		.loc 1 414 13 view .LVU296
 926 0092 744B     		ldr	r3, .L84+4
 927 0094 1A68     		ldr	r2, [r3]
ARM GAS  /tmp/cc4kiO2x.s 			page 41


 928 0096 0121     		movs	r1, #1
 929 0098 714B     		ldr	r3, .L84
 930 009a 1868     		ldr	r0, [r3]
 931 009c FFF7FEFF 		bl	lv_event_send
 932              	.LVL72:
 415:Middlewares/lvgl/src/core/lv_indev.c ****         }
 933              		.loc 1 415 13 view .LVU297
 415:Middlewares/lvgl/src/core/lv_indev.c ****         }
 934              		.loc 1 415 16 is_stmt 0 view .LVU298
 935 00a0 201D     		adds	r0, r4, #4
 936 00a2 FFF7FEFF 		bl	indev_reset_check
 937              	.LVL73:
 415:Middlewares/lvgl/src/core/lv_indev.c ****         }
 938              		.loc 1 415 15 view .LVU299
 939 00a6 0028     		cmp	r0, #0
 940 00a8 D5D0     		beq	.L57
 941 00aa D7E7     		b	.L51
 942              	.L75:
 419:Middlewares/lvgl/src/core/lv_indev.c **** 
 943              		.loc 1 419 13 is_stmt 1 view .LVU300
 944 00ac 3046     		mov	r0, r6
 945 00ae FFF7FEFF 		bl	lv_group_send_data
 946              	.LVL74:
 421:Middlewares/lvgl/src/core/lv_indev.c ****             if(indev_reset_check(&i->proc)) return;
 947              		.loc 1 421 13 view .LVU301
 948 00b2 6C4B     		ldr	r3, .L84+4
 949 00b4 1A68     		ldr	r2, [r3]
 950 00b6 2021     		movs	r1, #32
 951 00b8 694B     		ldr	r3, .L84
 952 00ba 1868     		ldr	r0, [r3]
 953 00bc FFF7FEFF 		bl	lv_event_send
 954              	.LVL75:
 422:Middlewares/lvgl/src/core/lv_indev.c ****         }
 955              		.loc 1 422 13 view .LVU302
 422:Middlewares/lvgl/src/core/lv_indev.c ****         }
 956              		.loc 1 422 16 is_stmt 0 view .LVU303
 957 00c0 201D     		adds	r0, r4, #4
 958 00c2 FFF7FEFF 		bl	indev_reset_check
 959              	.LVL76:
 422:Middlewares/lvgl/src/core/lv_indev.c ****         }
 960              		.loc 1 422 15 view .LVU304
 961 00c6 0028     		cmp	r0, #0
 962 00c8 C5D0     		beq	.L57
 963 00ca C7E7     		b	.L51
 964              	.L76:
 426:Middlewares/lvgl/src/core/lv_indev.c ****             lv_group_focus_next(g);
 965              		.loc 1 426 13 is_stmt 1 view .LVU305
 966 00cc 0021     		movs	r1, #0
 967 00ce 3046     		mov	r0, r6
 968 00d0 FFF7FEFF 		bl	lv_group_set_editing
 969              	.LVL77:
 427:Middlewares/lvgl/src/core/lv_indev.c ****             if(indev_reset_check(&i->proc)) return;
 970              		.loc 1 427 13 view .LVU306
 971 00d4 3046     		mov	r0, r6
 972 00d6 FFF7FEFF 		bl	lv_group_focus_next
 973              	.LVL78:
 428:Middlewares/lvgl/src/core/lv_indev.c ****         }
ARM GAS  /tmp/cc4kiO2x.s 			page 42


 974              		.loc 1 428 13 view .LVU307
 428:Middlewares/lvgl/src/core/lv_indev.c ****         }
 975              		.loc 1 428 16 is_stmt 0 view .LVU308
 976 00da 201D     		adds	r0, r4, #4
 977 00dc FFF7FEFF 		bl	indev_reset_check
 978              	.LVL79:
 428:Middlewares/lvgl/src/core/lv_indev.c ****         }
 979              		.loc 1 428 15 view .LVU309
 980 00e0 0028     		cmp	r0, #0
 981 00e2 B8D0     		beq	.L57
 982 00e4 BAE7     		b	.L51
 983              	.L77:
 432:Middlewares/lvgl/src/core/lv_indev.c ****             lv_group_focus_prev(g);
 984              		.loc 1 432 13 is_stmt 1 view .LVU310
 985 00e6 0021     		movs	r1, #0
 986 00e8 3046     		mov	r0, r6
 987 00ea FFF7FEFF 		bl	lv_group_set_editing
 988              	.LVL80:
 433:Middlewares/lvgl/src/core/lv_indev.c ****             if(indev_reset_check(&i->proc)) return;
 989              		.loc 1 433 13 view .LVU311
 990 00ee 3046     		mov	r0, r6
 991 00f0 FFF7FEFF 		bl	lv_group_focus_prev
 992              	.LVL81:
 434:Middlewares/lvgl/src/core/lv_indev.c ****         }
 993              		.loc 1 434 13 view .LVU312
 434:Middlewares/lvgl/src/core/lv_indev.c ****         }
 994              		.loc 1 434 16 is_stmt 0 view .LVU313
 995 00f4 201D     		adds	r0, r4, #4
 996 00f6 FFF7FEFF 		bl	indev_reset_check
 997              	.LVL82:
 434:Middlewares/lvgl/src/core/lv_indev.c ****         }
 998              		.loc 1 434 15 view .LVU314
 999 00fa 0028     		cmp	r0, #0
 1000 00fc ABD0     		beq	.L57
 1001 00fe ADE7     		b	.L51
 1002              	.LVL83:
 1003              	.L72:
 442:Middlewares/lvgl/src/core/lv_indev.c **** 
 1004              		.loc 1 442 51 discriminator 1 view .LVU315
 1005 0100 012A     		cmp	r2, #1
 1006 0102 A4D1     		bne	.L61
 444:Middlewares/lvgl/src/core/lv_indev.c ****             lv_event_send(indev_obj_act, LV_EVENT_PRESSING, indev_act);
 1007              		.loc 1 444 9 is_stmt 1 view .LVU316
 444:Middlewares/lvgl/src/core/lv_indev.c ****             lv_event_send(indev_obj_act, LV_EVENT_PRESSING, indev_act);
 1008              		.loc 1 444 16 is_stmt 0 view .LVU317
 1009 0104 6B68     		ldr	r3, [r5, #4]
 444:Middlewares/lvgl/src/core/lv_indev.c ****             lv_event_send(indev_obj_act, LV_EVENT_PRESSING, indev_act);
 1010              		.loc 1 444 11 view .LVU318
 1011 0106 0A2B     		cmp	r3, #10
 1012 0108 21D0     		beq	.L78
 1013              	.LVL84:
 1014              	.L62:
 450:Middlewares/lvgl/src/core/lv_indev.c ****             i->proc.long_pr_sent = 1;
 1015              		.loc 1 450 9 is_stmt 1 view .LVU319
 450:Middlewares/lvgl/src/core/lv_indev.c ****             i->proc.long_pr_sent = 1;
 1016              		.loc 1 450 33 is_stmt 0 view .LVU320
 1017 010a 6379     		ldrb	r3, [r4, #5]	@ zero_extendqisi2
ARM GAS  /tmp/cc4kiO2x.s 			page 43


 450:Middlewares/lvgl/src/core/lv_indev.c ****             i->proc.long_pr_sent = 1;
 1018              		.loc 1 450 11 view .LVU321
 1019 010c 13F0010F 		tst	r3, #1
 1020 0110 28D0     		beq	.L79
 1021              	.L63:
 459:Middlewares/lvgl/src/core/lv_indev.c ****                 lv_tick_elaps(i->proc.longpr_rep_timestamp) > i->driver->long_press_repeat_time) {
 1022              		.loc 1 459 14 is_stmt 1 view .LVU322
 459:Middlewares/lvgl/src/core/lv_indev.c ****                 lv_tick_elaps(i->proc.longpr_rep_timestamp) > i->driver->long_press_repeat_time) {
 1023              		.loc 1 459 38 is_stmt 0 view .LVU323
 1024 0112 6379     		ldrb	r3, [r4, #5]	@ zero_extendqisi2
 459:Middlewares/lvgl/src/core/lv_indev.c ****                 lv_tick_elaps(i->proc.longpr_rep_timestamp) > i->driver->long_press_repeat_time) {
 1025              		.loc 1 459 16 view .LVU324
 1026 0114 13F0010F 		tst	r3, #1
 1027 0118 9DD0     		beq	.L57
 460:Middlewares/lvgl/src/core/lv_indev.c **** 
 1028              		.loc 1 460 17 discriminator 1 view .LVU325
 1029 011a A06C     		ldr	r0, [r4, #72]
 1030 011c FFF7FEFF 		bl	lv_tick_elaps
 1031              	.LVL85:
 460:Middlewares/lvgl/src/core/lv_indev.c **** 
 1032              		.loc 1 460 64 discriminator 1 view .LVU326
 1033 0120 2368     		ldr	r3, [r4]
 460:Middlewares/lvgl/src/core/lv_indev.c **** 
 1034              		.loc 1 460 72 discriminator 1 view .LVU327
 1035 0122 DB8B     		ldrh	r3, [r3, #30]
 459:Middlewares/lvgl/src/core/lv_indev.c ****                 lv_tick_elaps(i->proc.longpr_rep_timestamp) > i->driver->long_press_repeat_time) {
 1036              		.loc 1 459 43 discriminator 1 view .LVU328
 1037 0124 9842     		cmp	r0, r3
 1038 0126 96D9     		bls	.L57
 462:Middlewares/lvgl/src/core/lv_indev.c **** 
 1039              		.loc 1 462 13 is_stmt 1 view .LVU329
 462:Middlewares/lvgl/src/core/lv_indev.c **** 
 1040              		.loc 1 462 44 is_stmt 0 view .LVU330
 1041 0128 FFF7FEFF 		bl	lv_tick_get
 1042              	.LVL86:
 462:Middlewares/lvgl/src/core/lv_indev.c **** 
 1043              		.loc 1 462 42 view .LVU331
 1044 012c A064     		str	r0, [r4, #72]
 465:Middlewares/lvgl/src/core/lv_indev.c ****                 lv_event_send(indev_obj_act, LV_EVENT_LONG_PRESSED_REPEAT, indev_act);
 1045              		.loc 1 465 13 is_stmt 1 view .LVU332
 465:Middlewares/lvgl/src/core/lv_indev.c ****                 lv_event_send(indev_obj_act, LV_EVENT_LONG_PRESSED_REPEAT, indev_act);
 1046              		.loc 1 465 20 is_stmt 0 view .LVU333
 1047 012e 6968     		ldr	r1, [r5, #4]
 465:Middlewares/lvgl/src/core/lv_indev.c ****                 lv_event_send(indev_obj_act, LV_EVENT_LONG_PRESSED_REPEAT, indev_act);
 1048              		.loc 1 465 15 view .LVU334
 1049 0130 0A29     		cmp	r1, #10
 1050 0132 37D0     		beq	.L80
 470:Middlewares/lvgl/src/core/lv_indev.c ****                 lv_group_set_editing(g, false); /*Editing is not used by KEYPAD is be sure it is di
 1051              		.loc 1 470 18 is_stmt 1 view .LVU335
 470:Middlewares/lvgl/src/core/lv_indev.c ****                 lv_group_set_editing(g, false); /*Editing is not used by KEYPAD is be sure it is di
 1052              		.loc 1 470 20 is_stmt 0 view .LVU336
 1053 0134 0929     		cmp	r1, #9
 1054 0136 43D0     		beq	.L81
 476:Middlewares/lvgl/src/core/lv_indev.c ****                 lv_group_set_editing(g, false); /*Editing is not used by KEYPAD is be sure it is di
 1055              		.loc 1 476 18 is_stmt 1 view .LVU337
 476:Middlewares/lvgl/src/core/lv_indev.c ****                 lv_group_set_editing(g, false); /*Editing is not used by KEYPAD is be sure it is di
 1056              		.loc 1 476 20 is_stmt 0 view .LVU338
ARM GAS  /tmp/cc4kiO2x.s 			page 44


 1057 0138 0B29     		cmp	r1, #11
 1058 013a 4FD0     		beq	.L82
 483:Middlewares/lvgl/src/core/lv_indev.c ****                 if(indev_reset_check(&i->proc)) return;
 1059              		.loc 1 483 17 is_stmt 1 view .LVU339
 1060 013c 3046     		mov	r0, r6
 1061 013e FFF7FEFF 		bl	lv_group_send_data
 1062              	.LVL87:
 484:Middlewares/lvgl/src/core/lv_indev.c ****             }
 1063              		.loc 1 484 17 view .LVU340
 484:Middlewares/lvgl/src/core/lv_indev.c ****             }
 1064              		.loc 1 484 20 is_stmt 0 view .LVU341
 1065 0142 201D     		adds	r0, r4, #4
 1066 0144 FFF7FEFF 		bl	indev_reset_check
 1067              	.LVL88:
 484:Middlewares/lvgl/src/core/lv_indev.c ****             }
 1068              		.loc 1 484 19 view .LVU342
 1069 0148 0028     		cmp	r0, #0
 1070 014a 84D0     		beq	.L57
 1071 014c 86E7     		b	.L51
 1072              	.LVL89:
 1073              	.L78:
 445:Middlewares/lvgl/src/core/lv_indev.c ****             if(indev_reset_check(&i->proc)) return;
 1074              		.loc 1 445 13 is_stmt 1 view .LVU343
 1075 014e 454B     		ldr	r3, .L84+4
 1076 0150 1A68     		ldr	r2, [r3]
 1077              	.LVL90:
 445:Middlewares/lvgl/src/core/lv_indev.c ****             if(indev_reset_check(&i->proc)) return;
 1078              		.loc 1 445 13 is_stmt 0 view .LVU344
 1079 0152 0221     		movs	r1, #2
 1080              	.LVL91:
 445:Middlewares/lvgl/src/core/lv_indev.c ****             if(indev_reset_check(&i->proc)) return;
 1081              		.loc 1 445 13 view .LVU345
 1082 0154 FFF7FEFF 		bl	lv_event_send
 1083              	.LVL92:
 446:Middlewares/lvgl/src/core/lv_indev.c ****         }
 1084              		.loc 1 446 13 is_stmt 1 view .LVU346
 446:Middlewares/lvgl/src/core/lv_indev.c ****         }
 1085              		.loc 1 446 16 is_stmt 0 view .LVU347
 1086 0158 201D     		adds	r0, r4, #4
 1087 015a FFF7FEFF 		bl	indev_reset_check
 1088              	.LVL93:
 446:Middlewares/lvgl/src/core/lv_indev.c ****         }
 1089              		.loc 1 446 15 view .LVU348
 1090 015e 0028     		cmp	r0, #0
 1091 0160 D3D0     		beq	.L62
 1092 0162 7BE7     		b	.L51
 1093              	.L79:
 450:Middlewares/lvgl/src/core/lv_indev.c ****             i->proc.long_pr_sent = 1;
 1094              		.loc 1 450 41 discriminator 1 view .LVU349
 1095 0164 606C     		ldr	r0, [r4, #68]
 1096 0166 FFF7FEFF 		bl	lv_tick_elaps
 1097              	.LVL94:
 450:Middlewares/lvgl/src/core/lv_indev.c ****             i->proc.long_pr_sent = 1;
 1098              		.loc 1 450 80 discriminator 1 view .LVU350
 1099 016a 2368     		ldr	r3, [r4]
 450:Middlewares/lvgl/src/core/lv_indev.c ****             i->proc.long_pr_sent = 1;
 1100              		.loc 1 450 88 discriminator 1 view .LVU351
ARM GAS  /tmp/cc4kiO2x.s 			page 45


 1101 016c 9B8B     		ldrh	r3, [r3, #28]
 450:Middlewares/lvgl/src/core/lv_indev.c ****             i->proc.long_pr_sent = 1;
 1102              		.loc 1 450 38 discriminator 1 view .LVU352
 1103 016e 9842     		cmp	r0, r3
 1104 0170 CFD9     		bls	.L63
 451:Middlewares/lvgl/src/core/lv_indev.c ****             if(data->key == LV_KEY_ENTER) {
 1105              		.loc 1 451 13 is_stmt 1 view .LVU353
 451:Middlewares/lvgl/src/core/lv_indev.c ****             if(data->key == LV_KEY_ENTER) {
 1106              		.loc 1 451 34 is_stmt 0 view .LVU354
 1107 0172 6379     		ldrb	r3, [r4, #5]	@ zero_extendqisi2
 1108 0174 43F00103 		orr	r3, r3, #1
 1109 0178 6371     		strb	r3, [r4, #5]
 452:Middlewares/lvgl/src/core/lv_indev.c ****                 i->proc.longpr_rep_timestamp = lv_tick_get();
 1110              		.loc 1 452 13 is_stmt 1 view .LVU355
 452:Middlewares/lvgl/src/core/lv_indev.c ****                 i->proc.longpr_rep_timestamp = lv_tick_get();
 1111              		.loc 1 452 20 is_stmt 0 view .LVU356
 1112 017a 6B68     		ldr	r3, [r5, #4]
 452:Middlewares/lvgl/src/core/lv_indev.c ****                 i->proc.longpr_rep_timestamp = lv_tick_get();
 1113              		.loc 1 452 15 view .LVU357
 1114 017c 0A2B     		cmp	r3, #10
 1115 017e 7FF46AAF 		bne	.L57
 453:Middlewares/lvgl/src/core/lv_indev.c ****                 lv_event_send(indev_obj_act, LV_EVENT_LONG_PRESSED, indev_act);
 1116              		.loc 1 453 17 is_stmt 1 view .LVU358
 453:Middlewares/lvgl/src/core/lv_indev.c ****                 lv_event_send(indev_obj_act, LV_EVENT_LONG_PRESSED, indev_act);
 1117              		.loc 1 453 48 is_stmt 0 view .LVU359
 1118 0182 FFF7FEFF 		bl	lv_tick_get
 1119              	.LVL95:
 453:Middlewares/lvgl/src/core/lv_indev.c ****                 lv_event_send(indev_obj_act, LV_EVENT_LONG_PRESSED, indev_act);
 1120              		.loc 1 453 46 view .LVU360
 1121 0186 A064     		str	r0, [r4, #72]
 454:Middlewares/lvgl/src/core/lv_indev.c ****                 if(indev_reset_check(&i->proc)) return;
 1122              		.loc 1 454 17 is_stmt 1 view .LVU361
 1123 0188 364B     		ldr	r3, .L84+4
 1124 018a 1A68     		ldr	r2, [r3]
 1125 018c 0521     		movs	r1, #5
 1126 018e 344B     		ldr	r3, .L84
 1127 0190 1868     		ldr	r0, [r3]
 1128 0192 FFF7FEFF 		bl	lv_event_send
 1129              	.LVL96:
 455:Middlewares/lvgl/src/core/lv_indev.c ****             }
 1130              		.loc 1 455 17 view .LVU362
 455:Middlewares/lvgl/src/core/lv_indev.c ****             }
 1131              		.loc 1 455 20 is_stmt 0 view .LVU363
 1132 0196 201D     		adds	r0, r4, #4
 1133 0198 FFF7FEFF 		bl	indev_reset_check
 1134              	.LVL97:
 455:Middlewares/lvgl/src/core/lv_indev.c ****             }
 1135              		.loc 1 455 19 view .LVU364
 1136 019c 0028     		cmp	r0, #0
 1137 019e 3FF45AAF 		beq	.L57
 1138 01a2 5BE7     		b	.L51
 1139              	.L80:
 466:Middlewares/lvgl/src/core/lv_indev.c ****                 if(indev_reset_check(&i->proc)) return;
 1140              		.loc 1 466 17 is_stmt 1 view .LVU365
 1141 01a4 2F4B     		ldr	r3, .L84+4
 1142 01a6 1A68     		ldr	r2, [r3]
 1143 01a8 0621     		movs	r1, #6
ARM GAS  /tmp/cc4kiO2x.s 			page 46


 1144 01aa 2D4B     		ldr	r3, .L84
 1145 01ac 1868     		ldr	r0, [r3]
 1146 01ae FFF7FEFF 		bl	lv_event_send
 1147              	.LVL98:
 467:Middlewares/lvgl/src/core/lv_indev.c ****             }
 1148              		.loc 1 467 17 view .LVU366
 467:Middlewares/lvgl/src/core/lv_indev.c ****             }
 1149              		.loc 1 467 20 is_stmt 0 view .LVU367
 1150 01b2 201D     		adds	r0, r4, #4
 1151 01b4 FFF7FEFF 		bl	indev_reset_check
 1152              	.LVL99:
 467:Middlewares/lvgl/src/core/lv_indev.c ****             }
 1153              		.loc 1 467 19 view .LVU368
 1154 01b8 0028     		cmp	r0, #0
 1155 01ba 3FF44CAF 		beq	.L57
 1156 01be 4DE7     		b	.L51
 1157              	.L81:
 471:Middlewares/lvgl/src/core/lv_indev.c ****                 lv_group_focus_next(g);
 1158              		.loc 1 471 17 is_stmt 1 view .LVU369
 1159 01c0 0021     		movs	r1, #0
 1160 01c2 3046     		mov	r0, r6
 1161 01c4 FFF7FEFF 		bl	lv_group_set_editing
 1162              	.LVL100:
 472:Middlewares/lvgl/src/core/lv_indev.c ****                 if(indev_reset_check(&i->proc)) return;
 1163              		.loc 1 472 17 view .LVU370
 1164 01c8 3046     		mov	r0, r6
 1165 01ca FFF7FEFF 		bl	lv_group_focus_next
 1166              	.LVL101:
 473:Middlewares/lvgl/src/core/lv_indev.c ****             }
 1167              		.loc 1 473 17 view .LVU371
 473:Middlewares/lvgl/src/core/lv_indev.c ****             }
 1168              		.loc 1 473 20 is_stmt 0 view .LVU372
 1169 01ce 201D     		adds	r0, r4, #4
 1170 01d0 FFF7FEFF 		bl	indev_reset_check
 1171              	.LVL102:
 473:Middlewares/lvgl/src/core/lv_indev.c ****             }
 1172              		.loc 1 473 19 view .LVU373
 1173 01d4 0028     		cmp	r0, #0
 1174 01d6 3FF43EAF 		beq	.L57
 1175 01da 3FE7     		b	.L51
 1176              	.L82:
 477:Middlewares/lvgl/src/core/lv_indev.c ****                 lv_group_focus_prev(g);
 1177              		.loc 1 477 17 is_stmt 1 view .LVU374
 1178 01dc 0021     		movs	r1, #0
 1179 01de 3046     		mov	r0, r6
 1180 01e0 FFF7FEFF 		bl	lv_group_set_editing
 1181              	.LVL103:
 478:Middlewares/lvgl/src/core/lv_indev.c ****                 if(indev_reset_check(&i->proc)) return;
 1182              		.loc 1 478 17 view .LVU375
 1183 01e4 3046     		mov	r0, r6
 1184 01e6 FFF7FEFF 		bl	lv_group_focus_prev
 1185              	.LVL104:
 479:Middlewares/lvgl/src/core/lv_indev.c ****             }
 1186              		.loc 1 479 17 view .LVU376
 479:Middlewares/lvgl/src/core/lv_indev.c ****             }
 1187              		.loc 1 479 20 is_stmt 0 view .LVU377
 1188 01ea 201D     		adds	r0, r4, #4
ARM GAS  /tmp/cc4kiO2x.s 			page 47


 1189 01ec FFF7FEFF 		bl	indev_reset_check
 1190              	.LVL105:
 479:Middlewares/lvgl/src/core/lv_indev.c ****             }
 1191              		.loc 1 479 19 view .LVU378
 1192 01f0 0028     		cmp	r0, #0
 1193 01f2 3FF430AF 		beq	.L57
 1194 01f6 31E7     		b	.L51
 1195              	.LVL106:
 1196              	.L73:
 490:Middlewares/lvgl/src/core/lv_indev.c ****         /*The user might clear the key when it was released. Always release the pressed key*/
 1197              		.loc 1 490 53 is_stmt 1 view .LVU379
 492:Middlewares/lvgl/src/core/lv_indev.c ****         if(data->key == LV_KEY_ENTER) {
 1198              		.loc 1 492 9 view .LVU380
 492:Middlewares/lvgl/src/core/lv_indev.c ****         if(data->key == LV_KEY_ENTER) {
 1199              		.loc 1 492 19 is_stmt 0 view .LVU381
 1200 01f8 6960     		str	r1, [r5, #4]
 493:Middlewares/lvgl/src/core/lv_indev.c **** 
 1201              		.loc 1 493 9 is_stmt 1 view .LVU382
 493:Middlewares/lvgl/src/core/lv_indev.c **** 
 1202              		.loc 1 493 11 is_stmt 0 view .LVU383
 1203 01fa 0A29     		cmp	r1, #10
 1204 01fc 06D0     		beq	.L83
 1205              	.LVL107:
 1206              	.L67:
 507:Middlewares/lvgl/src/core/lv_indev.c ****         i->proc.long_pr_sent = 0;
 1207              		.loc 1 507 9 is_stmt 1 view .LVU384
 507:Middlewares/lvgl/src/core/lv_indev.c ****         i->proc.long_pr_sent = 0;
 1208              		.loc 1 507 30 is_stmt 0 view .LVU385
 1209 01fe 0022     		movs	r2, #0
 1210 0200 6264     		str	r2, [r4, #68]
 508:Middlewares/lvgl/src/core/lv_indev.c ****     }
 1211              		.loc 1 508 9 is_stmt 1 view .LVU386
 508:Middlewares/lvgl/src/core/lv_indev.c ****     }
 1212              		.loc 1 508 30 is_stmt 0 view .LVU387
 1213 0202 6379     		ldrb	r3, [r4, #5]	@ zero_extendqisi2
 1214 0204 62F30003 		bfi	r3, r2, #0, #1
 1215 0208 6371     		strb	r3, [r4, #5]
 1216 020a 24E7     		b	.L57
 1217              	.LVL108:
 1218              	.L83:
 495:Middlewares/lvgl/src/core/lv_indev.c ****             if(indev_reset_check(&i->proc)) return;
 1219              		.loc 1 495 13 is_stmt 1 view .LVU388
 1220 020c 154B     		ldr	r3, .L84+4
 1221 020e 1A68     		ldr	r2, [r3]
 1222              	.LVL109:
 495:Middlewares/lvgl/src/core/lv_indev.c ****             if(indev_reset_check(&i->proc)) return;
 1223              		.loc 1 495 13 is_stmt 0 view .LVU389
 1224 0210 0821     		movs	r1, #8
 1225              	.LVL110:
 495:Middlewares/lvgl/src/core/lv_indev.c ****             if(indev_reset_check(&i->proc)) return;
 1226              		.loc 1 495 13 view .LVU390
 1227 0212 FFF7FEFF 		bl	lv_event_send
 1228              	.LVL111:
 496:Middlewares/lvgl/src/core/lv_indev.c **** 
 1229              		.loc 1 496 13 is_stmt 1 view .LVU391
 496:Middlewares/lvgl/src/core/lv_indev.c **** 
 1230              		.loc 1 496 16 is_stmt 0 view .LVU392
ARM GAS  /tmp/cc4kiO2x.s 			page 48


 1231 0216 251D     		adds	r5, r4, #4
 1232              	.LVL112:
 496:Middlewares/lvgl/src/core/lv_indev.c **** 
 1233              		.loc 1 496 16 view .LVU393
 1234 0218 2846     		mov	r0, r5
 1235 021a FFF7FEFF 		bl	indev_reset_check
 1236              	.LVL113:
 496:Middlewares/lvgl/src/core/lv_indev.c **** 
 1237              		.loc 1 496 15 view .LVU394
 1238 021e 0028     		cmp	r0, #0
 1239 0220 7FF41CAF 		bne	.L51
 498:Middlewares/lvgl/src/core/lv_indev.c ****                 lv_event_send(indev_obj_act, LV_EVENT_SHORT_CLICKED, indev_act);
 1240              		.loc 1 498 13 is_stmt 1 view .LVU395
 498:Middlewares/lvgl/src/core/lv_indev.c ****                 lv_event_send(indev_obj_act, LV_EVENT_SHORT_CLICKED, indev_act);
 1241              		.loc 1 498 37 is_stmt 0 view .LVU396
 1242 0224 6379     		ldrb	r3, [r4, #5]	@ zero_extendqisi2
 498:Middlewares/lvgl/src/core/lv_indev.c ****                 lv_event_send(indev_obj_act, LV_EVENT_SHORT_CLICKED, indev_act);
 1243              		.loc 1 498 15 view .LVU397
 1244 0226 13F0010F 		tst	r3, #1
 1245 022a 0CD1     		bne	.L68
 499:Middlewares/lvgl/src/core/lv_indev.c ****                 if(indev_reset_check(&i->proc)) return;
 1246              		.loc 1 499 17 is_stmt 1 view .LVU398
 1247 022c 0D4B     		ldr	r3, .L84+4
 1248 022e 1A68     		ldr	r2, [r3]
 1249 0230 0421     		movs	r1, #4
 1250 0232 0B4B     		ldr	r3, .L84
 1251 0234 1868     		ldr	r0, [r3]
 1252 0236 FFF7FEFF 		bl	lv_event_send
 1253              	.LVL114:
 500:Middlewares/lvgl/src/core/lv_indev.c ****             }
 1254              		.loc 1 500 17 view .LVU399
 500:Middlewares/lvgl/src/core/lv_indev.c ****             }
 1255              		.loc 1 500 20 is_stmt 0 view .LVU400
 1256 023a 2846     		mov	r0, r5
 1257 023c FFF7FEFF 		bl	indev_reset_check
 1258              	.LVL115:
 500:Middlewares/lvgl/src/core/lv_indev.c ****             }
 1259              		.loc 1 500 19 view .LVU401
 1260 0240 0028     		cmp	r0, #0
 1261 0242 7FF40BAF 		bne	.L51
 1262              	.L68:
 503:Middlewares/lvgl/src/core/lv_indev.c ****             if(indev_reset_check(&i->proc)) return;
 1263              		.loc 1 503 13 is_stmt 1 view .LVU402
 1264 0246 074B     		ldr	r3, .L84+4
 1265 0248 1A68     		ldr	r2, [r3]
 1266 024a 0721     		movs	r1, #7
 1267 024c 044B     		ldr	r3, .L84
 1268 024e 1868     		ldr	r0, [r3]
 1269 0250 FFF7FEFF 		bl	lv_event_send
 1270              	.LVL116:
 504:Middlewares/lvgl/src/core/lv_indev.c **** 
 1271              		.loc 1 504 13 view .LVU403
 504:Middlewares/lvgl/src/core/lv_indev.c **** 
 1272              		.loc 1 504 16 is_stmt 0 view .LVU404
 1273 0254 2846     		mov	r0, r5
 1274 0256 FFF7FEFF 		bl	indev_reset_check
 1275              	.LVL117:
ARM GAS  /tmp/cc4kiO2x.s 			page 49


 504:Middlewares/lvgl/src/core/lv_indev.c **** 
 1276              		.loc 1 504 15 view .LVU405
 1277 025a 0028     		cmp	r0, #0
 1278 025c CFD0     		beq	.L67
 1279 025e FDE6     		b	.L51
 1280              	.L85:
 1281              		.align	2
 1282              	.L84:
 1283 0260 00000000 		.word	.LANCHOR0
 1284 0264 00000000 		.word	.LANCHOR1
 1285              		.cfi_endproc
 1286              	.LFE173:
 1288              		.section	.text.indev_encoder_proc,"ax",%progbits
 1289              		.align	1
 1290              		.syntax unified
 1291              		.thumb
 1292              		.thumb_func
 1293              		.fpu softvfp
 1295              	indev_encoder_proc:
 1296              	.LVL118:
 1297              	.LFB174:
 519:Middlewares/lvgl/src/core/lv_indev.c ****     if(data->state == LV_INDEV_STATE_PRESSED && i->proc.wait_until_release) return;
 1298              		.loc 1 519 1 is_stmt 1 view -0
 1299              		.cfi_startproc
 1300              		@ args = 0, pretend = 0, frame = 0
 1301              		@ frame_needed = 0, uses_anonymous_args = 0
 519:Middlewares/lvgl/src/core/lv_indev.c ****     if(data->state == LV_INDEV_STATE_PRESSED && i->proc.wait_until_release) return;
 1302              		.loc 1 519 1 is_stmt 0 view .LVU407
 1303 0000 F8B5     		push	{r3, r4, r5, r6, r7, lr}
 1304              	.LCFI4:
 1305              		.cfi_def_cfa_offset 24
 1306              		.cfi_offset 3, -24
 1307              		.cfi_offset 4, -20
 1308              		.cfi_offset 5, -16
 1309              		.cfi_offset 6, -12
 1310              		.cfi_offset 7, -8
 1311              		.cfi_offset 14, -4
 1312 0002 0446     		mov	r4, r0
 1313 0004 0D46     		mov	r5, r1
 520:Middlewares/lvgl/src/core/lv_indev.c **** 
 1314              		.loc 1 520 5 is_stmt 1 view .LVU408
 520:Middlewares/lvgl/src/core/lv_indev.c **** 
 1315              		.loc 1 520 12 is_stmt 0 view .LVU409
 1316 0006 8B7B     		ldrb	r3, [r1, #14]	@ zero_extendqisi2
 520:Middlewares/lvgl/src/core/lv_indev.c **** 
 1317              		.loc 1 520 7 view .LVU410
 1318 0008 012B     		cmp	r3, #1
 1319 000a 37D0     		beq	.L129
 1320              	.L87:
 522:Middlewares/lvgl/src/core/lv_indev.c ****         i->proc.wait_until_release      = 0;
 1321              		.loc 1 522 5 is_stmt 1 view .LVU411
 522:Middlewares/lvgl/src/core/lv_indev.c ****         i->proc.wait_until_release      = 0;
 1322              		.loc 1 522 8 is_stmt 0 view .LVU412
 1323 000c 6379     		ldrb	r3, [r4, #5]	@ zero_extendqisi2
 522:Middlewares/lvgl/src/core/lv_indev.c ****         i->proc.wait_until_release      = 0;
 1324              		.loc 1 522 7 view .LVU413
 1325 000e 13F0080F 		tst	r3, #8
ARM GAS  /tmp/cc4kiO2x.s 			page 50


 1326 0012 0AD0     		beq	.L89
 523:Middlewares/lvgl/src/core/lv_indev.c ****         i->proc.pr_timestamp            = 0;
 1327              		.loc 1 523 9 is_stmt 1 view .LVU414
 523:Middlewares/lvgl/src/core/lv_indev.c ****         i->proc.pr_timestamp            = 0;
 1328              		.loc 1 523 41 is_stmt 0 view .LVU415
 1329 0014 6379     		ldrb	r3, [r4, #5]	@ zero_extendqisi2
 1330 0016 6FF3C303 		bfc	r3, #3, #1
 1331 001a 6371     		strb	r3, [r4, #5]
 524:Middlewares/lvgl/src/core/lv_indev.c ****         i->proc.long_pr_sent            = 0;
 1332              		.loc 1 524 9 is_stmt 1 view .LVU416
 524:Middlewares/lvgl/src/core/lv_indev.c ****         i->proc.long_pr_sent            = 0;
 1333              		.loc 1 524 41 is_stmt 0 view .LVU417
 1334 001c 0023     		movs	r3, #0
 1335 001e 6364     		str	r3, [r4, #68]
 525:Middlewares/lvgl/src/core/lv_indev.c ****         i->proc.types.keypad.last_state = LV_INDEV_STATE_RELEASED; /*To skip the processing of rele
 1336              		.loc 1 525 9 is_stmt 1 view .LVU418
 525:Middlewares/lvgl/src/core/lv_indev.c ****         i->proc.types.keypad.last_state = LV_INDEV_STATE_RELEASED; /*To skip the processing of rele
 1337              		.loc 1 525 41 is_stmt 0 view .LVU419
 1338 0020 6279     		ldrb	r2, [r4, #5]	@ zero_extendqisi2
 1339 0022 63F30002 		bfi	r2, r3, #0, #1
 1340 0026 6271     		strb	r2, [r4, #5]
 526:Middlewares/lvgl/src/core/lv_indev.c ****     }
 1341              		.loc 1 526 9 is_stmt 1 view .LVU420
 526:Middlewares/lvgl/src/core/lv_indev.c ****     }
 1342              		.loc 1 526 41 is_stmt 0 view .LVU421
 1343 0028 2372     		strb	r3, [r4, #8]
 1344              	.L89:
 531:Middlewares/lvgl/src/core/lv_indev.c ****     i->proc.types.keypad.last_state = data->state;
 1345              		.loc 1 531 5 is_stmt 1 view .LVU422
 531:Middlewares/lvgl/src/core/lv_indev.c ****     i->proc.types.keypad.last_state = data->state;
 1346              		.loc 1 531 22 is_stmt 0 view .LVU423
 1347 002a 277A     		ldrb	r7, [r4, #8]	@ zero_extendqisi2
 1348              	.LVL119:
 532:Middlewares/lvgl/src/core/lv_indev.c ****     i->proc.types.keypad.last_key   = data->key;
 1349              		.loc 1 532 5 is_stmt 1 view .LVU424
 532:Middlewares/lvgl/src/core/lv_indev.c ****     i->proc.types.keypad.last_key   = data->key;
 1350              		.loc 1 532 43 is_stmt 0 view .LVU425
 1351 002c AB7B     		ldrb	r3, [r5, #14]	@ zero_extendqisi2
 532:Middlewares/lvgl/src/core/lv_indev.c ****     i->proc.types.keypad.last_key   = data->key;
 1352              		.loc 1 532 37 view .LVU426
 1353 002e 2372     		strb	r3, [r4, #8]
 533:Middlewares/lvgl/src/core/lv_indev.c **** 
 1354              		.loc 1 533 5 is_stmt 1 view .LVU427
 533:Middlewares/lvgl/src/core/lv_indev.c **** 
 1355              		.loc 1 533 43 is_stmt 0 view .LVU428
 1356 0030 6B68     		ldr	r3, [r5, #4]
 533:Middlewares/lvgl/src/core/lv_indev.c **** 
 1357              		.loc 1 533 37 view .LVU429
 1358 0032 E360     		str	r3, [r4, #12]
 535:Middlewares/lvgl/src/core/lv_indev.c ****     if(g == NULL) return;
 1359              		.loc 1 535 5 is_stmt 1 view .LVU430
 535:Middlewares/lvgl/src/core/lv_indev.c ****     if(g == NULL) return;
 1360              		.loc 1 535 18 is_stmt 0 view .LVU431
 1361 0034 266D     		ldr	r6, [r4, #80]
 1362              	.LVL120:
 536:Middlewares/lvgl/src/core/lv_indev.c **** 
 1363              		.loc 1 536 5 is_stmt 1 view .LVU432
ARM GAS  /tmp/cc4kiO2x.s 			page 51


 536:Middlewares/lvgl/src/core/lv_indev.c **** 
 1364              		.loc 1 536 7 is_stmt 0 view .LVU433
 1365 0036 06B3     		cbz	r6, .L86
 538:Middlewares/lvgl/src/core/lv_indev.c ****     if(indev_obj_act == NULL) return;
 1366              		.loc 1 538 5 is_stmt 1 view .LVU434
 538:Middlewares/lvgl/src/core/lv_indev.c ****     if(indev_obj_act == NULL) return;
 1367              		.loc 1 538 21 is_stmt 0 view .LVU435
 1368 0038 3046     		mov	r0, r6
 1369              	.LVL121:
 538:Middlewares/lvgl/src/core/lv_indev.c ****     if(indev_obj_act == NULL) return;
 1370              		.loc 1 538 21 view .LVU436
 1371 003a FFF7FEFF 		bl	lv_group_get_focused
 1372              	.LVL122:
 538:Middlewares/lvgl/src/core/lv_indev.c ****     if(indev_obj_act == NULL) return;
 1373              		.loc 1 538 19 view .LVU437
 1374 003e 8E4B     		ldr	r3, .L146
 1375 0040 1860     		str	r0, [r3]
 539:Middlewares/lvgl/src/core/lv_indev.c **** 
 1376              		.loc 1 539 5 is_stmt 1 view .LVU438
 539:Middlewares/lvgl/src/core/lv_indev.c **** 
 1377              		.loc 1 539 7 is_stmt 0 view .LVU439
 1378 0042 D0B1     		cbz	r0, .L86
 542:Middlewares/lvgl/src/core/lv_indev.c ****         data->enc_diff = 0;
 1379              		.loc 1 542 5 is_stmt 1 view .LVU440
 542:Middlewares/lvgl/src/core/lv_indev.c ****         data->enc_diff = 0;
 1380              		.loc 1 542 12 is_stmt 0 view .LVU441
 1381 0044 AB7B     		ldrb	r3, [r5, #14]	@ zero_extendqisi2
 542:Middlewares/lvgl/src/core/lv_indev.c ****         data->enc_diff = 0;
 1382              		.loc 1 542 7 view .LVU442
 1383 0046 0BB1     		cbz	r3, .L90
 543:Middlewares/lvgl/src/core/lv_indev.c ****     }
 1384              		.loc 1 543 9 is_stmt 1 view .LVU443
 543:Middlewares/lvgl/src/core/lv_indev.c ****     }
 1385              		.loc 1 543 24 is_stmt 0 view .LVU444
 1386 0048 0023     		movs	r3, #0
 1387 004a AB81     		strh	r3, [r5, #12]	@ movhi
 1388              	.L90:
 547:Middlewares/lvgl/src/core/lv_indev.c ****     if(indev_obj_act == NULL) return;
 1389              		.loc 1 547 5 is_stmt 1 view .LVU445
 547:Middlewares/lvgl/src/core/lv_indev.c ****     if(indev_obj_act == NULL) return;
 1390              		.loc 1 547 21 is_stmt 0 view .LVU446
 1391 004c 3046     		mov	r0, r6
 1392 004e FFF7FEFF 		bl	lv_group_get_focused
 1393              	.LVL123:
 547:Middlewares/lvgl/src/core/lv_indev.c ****     if(indev_obj_act == NULL) return;
 1394              		.loc 1 547 19 view .LVU447
 1395 0052 894B     		ldr	r3, .L146
 1396 0054 1860     		str	r0, [r3]
 548:Middlewares/lvgl/src/core/lv_indev.c **** 
 1397              		.loc 1 548 5 is_stmt 1 view .LVU448
 548:Middlewares/lvgl/src/core/lv_indev.c **** 
 1398              		.loc 1 548 7 is_stmt 0 view .LVU449
 1399 0056 80B1     		cbz	r0, .L86
 551:Middlewares/lvgl/src/core/lv_indev.c ****         LV_LOG_INFO("pressed");
 1400              		.loc 1 551 5 is_stmt 1 view .LVU450
 551:Middlewares/lvgl/src/core/lv_indev.c ****         LV_LOG_INFO("pressed");
 1401              		.loc 1 551 12 is_stmt 0 view .LVU451
ARM GAS  /tmp/cc4kiO2x.s 			page 52


 1402 0058 AB7B     		ldrb	r3, [r5, #14]	@ zero_extendqisi2
 551:Middlewares/lvgl/src/core/lv_indev.c ****         LV_LOG_INFO("pressed");
 1403              		.loc 1 551 7 view .LVU452
 1404 005a 012B     		cmp	r3, #1
 1405 005c 13D0     		beq	.L130
 1406              	.L91:
 585:Middlewares/lvgl/src/core/lv_indev.c ****         /*Long press*/
 1407              		.loc 1 585 10 is_stmt 1 view .LVU453
 585:Middlewares/lvgl/src/core/lv_indev.c ****         /*Long press*/
 1408              		.loc 1 585 12 is_stmt 0 view .LVU454
 1409 005e 012B     		cmp	r3, #1
 1410 0060 55D0     		beq	.L131
 1411              	.L98:
 638:Middlewares/lvgl/src/core/lv_indev.c ****         LV_LOG_INFO("released");
 1412              		.loc 1 638 10 is_stmt 1 view .LVU455
 638:Middlewares/lvgl/src/core/lv_indev.c ****         LV_LOG_INFO("released");
 1413              		.loc 1 638 12 is_stmt 0 view .LVU456
 1414 0062 13B9     		cbnz	r3, .L94
 638:Middlewares/lvgl/src/core/lv_indev.c ****         LV_LOG_INFO("released");
 1415              		.loc 1 638 52 discriminator 1 view .LVU457
 1416 0064 012F     		cmp	r7, #1
 1417 0066 00F0CB80 		beq	.L132
 1418              	.LVL124:
 1419              	.L94:
 685:Middlewares/lvgl/src/core/lv_indev.c **** 
 1420              		.loc 1 685 5 is_stmt 1 view .LVU458
 685:Middlewares/lvgl/src/core/lv_indev.c **** 
 1421              		.loc 1 685 19 is_stmt 0 view .LVU459
 1422 006a 834B     		ldr	r3, .L146
 1423 006c 0022     		movs	r2, #0
 1424 006e 1A60     		str	r2, [r3]
 688:Middlewares/lvgl/src/core/lv_indev.c ****         LV_LOG_INFO("rotated by %d", data->enc_diff);
 1425              		.loc 1 688 5 is_stmt 1 view .LVU460
 688:Middlewares/lvgl/src/core/lv_indev.c ****         LV_LOG_INFO("rotated by %d", data->enc_diff);
 1426              		.loc 1 688 12 is_stmt 0 view .LVU461
 1427 0070 B5F90C30 		ldrsh	r3, [r5, #12]
 688:Middlewares/lvgl/src/core/lv_indev.c ****         LV_LOG_INFO("rotated by %d", data->enc_diff);
 1428              		.loc 1 688 7 view .LVU462
 1429 0074 002B     		cmp	r3, #0
 1430 0076 40F05481 		bne	.L133
 1431              	.LVL125:
 1432              	.L86:
 711:Middlewares/lvgl/src/core/lv_indev.c **** 
 1433              		.loc 1 711 1 view .LVU463
 1434 007a F8BD     		pop	{r3, r4, r5, r6, r7, pc}
 1435              	.LVL126:
 1436              	.L129:
 520:Middlewares/lvgl/src/core/lv_indev.c **** 
 1437              		.loc 1 520 46 discriminator 1 view .LVU464
 1438 007c 4379     		ldrb	r3, [r0, #5]	@ zero_extendqisi2
 1439 007e 13F0080F 		tst	r3, #8
 1440 0082 C3D0     		beq	.L87
 1441 0084 F9E7     		b	.L86
 1442              	.LVL127:
 1443              	.L130:
 551:Middlewares/lvgl/src/core/lv_indev.c ****         LV_LOG_INFO("pressed");
 1444              		.loc 1 551 46 discriminator 1 view .LVU465
ARM GAS  /tmp/cc4kiO2x.s 			page 53


 1445 0086 002F     		cmp	r7, #0
 1446 0088 E9D1     		bne	.L91
 552:Middlewares/lvgl/src/core/lv_indev.c **** 
 1447              		.loc 1 552 31 is_stmt 1 view .LVU466
 554:Middlewares/lvgl/src/core/lv_indev.c **** 
 1448              		.loc 1 554 9 view .LVU467
 554:Middlewares/lvgl/src/core/lv_indev.c **** 
 1449              		.loc 1 554 32 is_stmt 0 view .LVU468
 1450 008a FFF7FEFF 		bl	lv_tick_get
 1451              	.LVL128:
 554:Middlewares/lvgl/src/core/lv_indev.c **** 
 1452              		.loc 1 554 30 view .LVU469
 1453 008e 6064     		str	r0, [r4, #68]
 556:Middlewares/lvgl/src/core/lv_indev.c ****             bool editable = lv_obj_is_editable(indev_obj_act);
 1454              		.loc 1 556 9 is_stmt 1 view .LVU470
 556:Middlewares/lvgl/src/core/lv_indev.c ****             bool editable = lv_obj_is_editable(indev_obj_act);
 1455              		.loc 1 556 16 is_stmt 0 view .LVU471
 1456 0090 6968     		ldr	r1, [r5, #4]
 556:Middlewares/lvgl/src/core/lv_indev.c ****             bool editable = lv_obj_is_editable(indev_obj_act);
 1457              		.loc 1 556 11 view .LVU472
 1458 0092 0A29     		cmp	r1, #10
 1459 0094 09D0     		beq	.L134
 564:Middlewares/lvgl/src/core/lv_indev.c ****             /*emulate encoder left*/
 1460              		.loc 1 564 14 is_stmt 1 view .LVU473
 564:Middlewares/lvgl/src/core/lv_indev.c ****             /*emulate encoder left*/
 1461              		.loc 1 564 16 is_stmt 0 view .LVU474
 1462 0096 1429     		cmp	r1, #20
 1463 0098 1FD0     		beq	.L135
 568:Middlewares/lvgl/src/core/lv_indev.c ****             /*emulate encoder right*/
 1464              		.loc 1 568 14 is_stmt 1 view .LVU475
 568:Middlewares/lvgl/src/core/lv_indev.c ****             /*emulate encoder right*/
 1465              		.loc 1 568 16 is_stmt 0 view .LVU476
 1466 009a 1329     		cmp	r1, #19
 1467 009c 22D0     		beq	.L136
 572:Middlewares/lvgl/src/core/lv_indev.c ****             /*Send the ESC as a normal KEY*/
 1468              		.loc 1 572 14 is_stmt 1 view .LVU477
 572:Middlewares/lvgl/src/core/lv_indev.c ****             /*Send the ESC as a normal KEY*/
 1469              		.loc 1 572 16 is_stmt 0 view .LVU478
 1470 009e 1B29     		cmp	r1, #27
 1471 00a0 25D0     		beq	.L137
 581:Middlewares/lvgl/src/core/lv_indev.c ****         }
 1472              		.loc 1 581 13 is_stmt 1 view .LVU479
 1473 00a2 3046     		mov	r0, r6
 1474 00a4 FFF7FEFF 		bl	lv_group_send_data
 1475              	.LVL129:
 1476 00a8 DFE7     		b	.L94
 1477              	.L134:
 1478              	.LBB4:
 557:Middlewares/lvgl/src/core/lv_indev.c **** 
 1479              		.loc 1 557 13 view .LVU480
 557:Middlewares/lvgl/src/core/lv_indev.c **** 
 1480              		.loc 1 557 29 is_stmt 0 view .LVU481
 1481 00aa 734B     		ldr	r3, .L146
 1482 00ac 1868     		ldr	r0, [r3]
 1483 00ae FFF7FEFF 		bl	lv_obj_is_editable
 1484              	.LVL130:
 1485 00b2 0746     		mov	r7, r0
ARM GAS  /tmp/cc4kiO2x.s 			page 54


 1486              	.LVL131:
 559:Middlewares/lvgl/src/core/lv_indev.c ****                 lv_event_send(indev_obj_act, LV_EVENT_PRESSED, indev_act);
 1487              		.loc 1 559 13 is_stmt 1 view .LVU482
 559:Middlewares/lvgl/src/core/lv_indev.c ****                 lv_event_send(indev_obj_act, LV_EVENT_PRESSED, indev_act);
 1488              		.loc 1 559 16 is_stmt 0 view .LVU483
 1489 00b4 3046     		mov	r0, r6
 1490 00b6 FFF7FEFF 		bl	lv_group_get_editing
 1491              	.LVL132:
 559:Middlewares/lvgl/src/core/lv_indev.c ****                 lv_event_send(indev_obj_act, LV_EVENT_PRESSED, indev_act);
 1492              		.loc 1 559 15 view .LVU484
 1493 00ba 08B9     		cbnz	r0, .L93
 559:Middlewares/lvgl/src/core/lv_indev.c ****                 lv_event_send(indev_obj_act, LV_EVENT_PRESSED, indev_act);
 1494              		.loc 1 559 48 discriminator 1 view .LVU485
 1495 00bc 002F     		cmp	r7, #0
 1496 00be D4D1     		bne	.L94
 1497              	.L93:
 560:Middlewares/lvgl/src/core/lv_indev.c ****                 if(indev_reset_check(&i->proc)) return;
 1498              		.loc 1 560 17 is_stmt 1 view .LVU486
 1499 00c0 6E4B     		ldr	r3, .L146+4
 1500 00c2 1A68     		ldr	r2, [r3]
 1501 00c4 0121     		movs	r1, #1
 1502 00c6 6C4B     		ldr	r3, .L146
 1503 00c8 1868     		ldr	r0, [r3]
 1504 00ca FFF7FEFF 		bl	lv_event_send
 1505              	.LVL133:
 561:Middlewares/lvgl/src/core/lv_indev.c ****             }
 1506              		.loc 1 561 17 view .LVU487
 561:Middlewares/lvgl/src/core/lv_indev.c ****             }
 1507              		.loc 1 561 20 is_stmt 0 view .LVU488
 1508 00ce 201D     		adds	r0, r4, #4
 1509 00d0 FFF7FEFF 		bl	indev_reset_check
 1510              	.LVL134:
 561:Middlewares/lvgl/src/core/lv_indev.c ****             }
 1511              		.loc 1 561 19 view .LVU489
 1512 00d4 0028     		cmp	r0, #0
 1513 00d6 C8D0     		beq	.L94
 1514 00d8 CFE7     		b	.L86
 1515              	.LVL135:
 1516              	.L135:
 561:Middlewares/lvgl/src/core/lv_indev.c ****             }
 1517              		.loc 1 561 19 view .LVU490
 1518              	.LBE4:
 566:Middlewares/lvgl/src/core/lv_indev.c ****         }
 1519              		.loc 1 566 13 is_stmt 1 view .LVU491
 566:Middlewares/lvgl/src/core/lv_indev.c ****         }
 1520              		.loc 1 566 17 is_stmt 0 view .LVU492
 1521 00da B5F90C30 		ldrsh	r3, [r5, #12]
 566:Middlewares/lvgl/src/core/lv_indev.c ****         }
 1522              		.loc 1 566 27 view .LVU493
 1523 00de 013B     		subs	r3, r3, #1
 1524 00e0 AB81     		strh	r3, [r5, #12]	@ movhi
 1525 00e2 C2E7     		b	.L94
 1526              	.L136:
 570:Middlewares/lvgl/src/core/lv_indev.c ****         }
 1527              		.loc 1 570 13 is_stmt 1 view .LVU494
 570:Middlewares/lvgl/src/core/lv_indev.c ****         }
 1528              		.loc 1 570 17 is_stmt 0 view .LVU495
ARM GAS  /tmp/cc4kiO2x.s 			page 55


 1529 00e4 B5F90C30 		ldrsh	r3, [r5, #12]
 570:Middlewares/lvgl/src/core/lv_indev.c ****         }
 1530              		.loc 1 570 27 view .LVU496
 1531 00e8 0133     		adds	r3, r3, #1
 1532 00ea AB81     		strh	r3, [r5, #12]	@ movhi
 1533 00ec BDE7     		b	.L94
 1534              	.L137:
 574:Middlewares/lvgl/src/core/lv_indev.c **** 
 1535              		.loc 1 574 13 is_stmt 1 view .LVU497
 1536 00ee 3046     		mov	r0, r6
 1537 00f0 FFF7FEFF 		bl	lv_group_send_data
 1538              	.LVL136:
 576:Middlewares/lvgl/src/core/lv_indev.c ****             if(indev_reset_check(&i->proc)) return;
 1539              		.loc 1 576 13 view .LVU498
 1540 00f4 614B     		ldr	r3, .L146+4
 1541 00f6 1A68     		ldr	r2, [r3]
 1542 00f8 2021     		movs	r1, #32
 1543 00fa 5F4B     		ldr	r3, .L146
 1544 00fc 1868     		ldr	r0, [r3]
 1545 00fe FFF7FEFF 		bl	lv_event_send
 1546              	.LVL137:
 577:Middlewares/lvgl/src/core/lv_indev.c ****         }
 1547              		.loc 1 577 13 view .LVU499
 577:Middlewares/lvgl/src/core/lv_indev.c ****         }
 1548              		.loc 1 577 16 is_stmt 0 view .LVU500
 1549 0102 201D     		adds	r0, r4, #4
 1550 0104 FFF7FEFF 		bl	indev_reset_check
 1551              	.LVL138:
 577:Middlewares/lvgl/src/core/lv_indev.c ****         }
 1552              		.loc 1 577 15 view .LVU501
 1553 0108 0028     		cmp	r0, #0
 1554 010a AED0     		beq	.L94
 1555 010c B5E7     		b	.L86
 1556              	.L131:
 585:Middlewares/lvgl/src/core/lv_indev.c ****         /*Long press*/
 1557              		.loc 1 585 51 discriminator 1 view .LVU502
 1558 010e 012F     		cmp	r7, #1
 1559 0110 A7D1     		bne	.L98
 587:Middlewares/lvgl/src/core/lv_indev.c **** 
 1560              		.loc 1 587 9 is_stmt 1 view .LVU503
 587:Middlewares/lvgl/src/core/lv_indev.c **** 
 1561              		.loc 1 587 33 is_stmt 0 view .LVU504
 1562 0112 6379     		ldrb	r3, [r4, #5]	@ zero_extendqisi2
 587:Middlewares/lvgl/src/core/lv_indev.c **** 
 1563              		.loc 1 587 11 view .LVU505
 1564 0114 13F0010F 		tst	r3, #1
 1565 0118 19D0     		beq	.L138
 1566              	.L99:
 613:Middlewares/lvgl/src/core/lv_indev.c **** 
 1567              		.loc 1 613 14 is_stmt 1 view .LVU506
 613:Middlewares/lvgl/src/core/lv_indev.c **** 
 1568              		.loc 1 613 38 is_stmt 0 view .LVU507
 1569 011a 6379     		ldrb	r3, [r4, #5]	@ zero_extendqisi2
 613:Middlewares/lvgl/src/core/lv_indev.c **** 
 1570              		.loc 1 613 16 view .LVU508
 1571 011c 13F0010F 		tst	r3, #1
 1572 0120 A3D0     		beq	.L94
ARM GAS  /tmp/cc4kiO2x.s 			page 56


 613:Middlewares/lvgl/src/core/lv_indev.c **** 
 1573              		.loc 1 613 46 discriminator 1 view .LVU509
 1574 0122 A06C     		ldr	r0, [r4, #72]
 1575 0124 FFF7FEFF 		bl	lv_tick_elaps
 1576              	.LVL139:
 613:Middlewares/lvgl/src/core/lv_indev.c **** 
 1577              		.loc 1 613 93 discriminator 1 view .LVU510
 1578 0128 2368     		ldr	r3, [r4]
 613:Middlewares/lvgl/src/core/lv_indev.c **** 
 1579              		.loc 1 613 101 discriminator 1 view .LVU511
 1580 012a DB8B     		ldrh	r3, [r3, #30]
 613:Middlewares/lvgl/src/core/lv_indev.c **** 
 1581              		.loc 1 613 43 discriminator 1 view .LVU512
 1582 012c 9842     		cmp	r0, r3
 1583 012e 9CD9     		bls	.L94
 615:Middlewares/lvgl/src/core/lv_indev.c **** 
 1584              		.loc 1 615 13 is_stmt 1 view .LVU513
 615:Middlewares/lvgl/src/core/lv_indev.c **** 
 1585              		.loc 1 615 44 is_stmt 0 view .LVU514
 1586 0130 FFF7FEFF 		bl	lv_tick_get
 1587              	.LVL140:
 615:Middlewares/lvgl/src/core/lv_indev.c **** 
 1588              		.loc 1 615 42 view .LVU515
 1589 0134 A064     		str	r0, [r4, #72]
 617:Middlewares/lvgl/src/core/lv_indev.c ****                 lv_event_send(indev_obj_act, LV_EVENT_LONG_PRESSED_REPEAT, indev_act);
 1590              		.loc 1 617 13 is_stmt 1 view .LVU516
 617:Middlewares/lvgl/src/core/lv_indev.c ****                 lv_event_send(indev_obj_act, LV_EVENT_LONG_PRESSED_REPEAT, indev_act);
 1591              		.loc 1 617 20 is_stmt 0 view .LVU517
 1592 0136 6968     		ldr	r1, [r5, #4]
 617:Middlewares/lvgl/src/core/lv_indev.c ****                 lv_event_send(indev_obj_act, LV_EVENT_LONG_PRESSED_REPEAT, indev_act);
 1593              		.loc 1 617 15 view .LVU518
 1594 0138 0A29     		cmp	r1, #10
 1595 013a 44D0     		beq	.L139
 621:Middlewares/lvgl/src/core/lv_indev.c ****                 /*emulate encoder left*/
 1596              		.loc 1 621 18 is_stmt 1 view .LVU519
 621:Middlewares/lvgl/src/core/lv_indev.c ****                 /*emulate encoder left*/
 1597              		.loc 1 621 20 is_stmt 0 view .LVU520
 1598 013c 1429     		cmp	r1, #20
 1599 013e 50D0     		beq	.L140
 625:Middlewares/lvgl/src/core/lv_indev.c ****                 /*emulate encoder right*/
 1600              		.loc 1 625 18 is_stmt 1 view .LVU521
 625:Middlewares/lvgl/src/core/lv_indev.c ****                 /*emulate encoder right*/
 1601              		.loc 1 625 20 is_stmt 0 view .LVU522
 1602 0140 1329     		cmp	r1, #19
 1603 0142 53D1     		bne	.L104
 627:Middlewares/lvgl/src/core/lv_indev.c ****             }
 1604              		.loc 1 627 17 is_stmt 1 view .LVU523
 627:Middlewares/lvgl/src/core/lv_indev.c ****             }
 1605              		.loc 1 627 21 is_stmt 0 view .LVU524
 1606 0144 B5F90C30 		ldrsh	r3, [r5, #12]
 627:Middlewares/lvgl/src/core/lv_indev.c ****             }
 1607              		.loc 1 627 31 view .LVU525
 1608 0148 0133     		adds	r3, r3, #1
 1609 014a AB81     		strh	r3, [r5, #12]	@ movhi
 1610 014c 8DE7     		b	.L94
 1611              	.L138:
 587:Middlewares/lvgl/src/core/lv_indev.c **** 
ARM GAS  /tmp/cc4kiO2x.s 			page 57


 1612              		.loc 1 587 41 discriminator 1 view .LVU526
 1613 014e 606C     		ldr	r0, [r4, #68]
 1614 0150 FFF7FEFF 		bl	lv_tick_elaps
 1615              	.LVL141:
 587:Middlewares/lvgl/src/core/lv_indev.c **** 
 1616              		.loc 1 587 80 discriminator 1 view .LVU527
 1617 0154 2368     		ldr	r3, [r4]
 587:Middlewares/lvgl/src/core/lv_indev.c **** 
 1618              		.loc 1 587 88 discriminator 1 view .LVU528
 1619 0156 9B8B     		ldrh	r3, [r3, #28]
 587:Middlewares/lvgl/src/core/lv_indev.c **** 
 1620              		.loc 1 587 38 discriminator 1 view .LVU529
 1621 0158 9842     		cmp	r0, r3
 1622 015a DED9     		bls	.L99
 589:Middlewares/lvgl/src/core/lv_indev.c ****             i->proc.longpr_rep_timestamp = lv_tick_get();
 1623              		.loc 1 589 13 is_stmt 1 view .LVU530
 589:Middlewares/lvgl/src/core/lv_indev.c ****             i->proc.longpr_rep_timestamp = lv_tick_get();
 1624              		.loc 1 589 34 is_stmt 0 view .LVU531
 1625 015c 6379     		ldrb	r3, [r4, #5]	@ zero_extendqisi2
 1626 015e 43F00103 		orr	r3, r3, #1
 1627 0162 6371     		strb	r3, [r4, #5]
 590:Middlewares/lvgl/src/core/lv_indev.c **** 
 1628              		.loc 1 590 13 is_stmt 1 view .LVU532
 590:Middlewares/lvgl/src/core/lv_indev.c **** 
 1629              		.loc 1 590 44 is_stmt 0 view .LVU533
 1630 0164 FFF7FEFF 		bl	lv_tick_get
 1631              	.LVL142:
 590:Middlewares/lvgl/src/core/lv_indev.c **** 
 1632              		.loc 1 590 42 view .LVU534
 1633 0168 A064     		str	r0, [r4, #72]
 592:Middlewares/lvgl/src/core/lv_indev.c ****                 bool editable = lv_obj_is_editable(indev_obj_act);
 1634              		.loc 1 592 13 is_stmt 1 view .LVU535
 592:Middlewares/lvgl/src/core/lv_indev.c ****                 bool editable = lv_obj_is_editable(indev_obj_act);
 1635              		.loc 1 592 20 is_stmt 0 view .LVU536
 1636 016a 6B68     		ldr	r3, [r5, #4]
 592:Middlewares/lvgl/src/core/lv_indev.c ****                 bool editable = lv_obj_is_editable(indev_obj_act);
 1637              		.loc 1 592 15 view .LVU537
 1638 016c 0A2B     		cmp	r3, #10
 1639 016e 04D0     		beq	.L141
 1640              	.L100:
 610:Middlewares/lvgl/src/core/lv_indev.c ****         }
 1641              		.loc 1 610 13 is_stmt 1 view .LVU538
 610:Middlewares/lvgl/src/core/lv_indev.c ****         }
 1642              		.loc 1 610 34 is_stmt 0 view .LVU539
 1643 0170 6379     		ldrb	r3, [r4, #5]	@ zero_extendqisi2
 1644 0172 43F00103 		orr	r3, r3, #1
 1645 0176 6371     		strb	r3, [r4, #5]
 1646 0178 77E7     		b	.L94
 1647              	.L141:
 1648              	.LBB5:
 593:Middlewares/lvgl/src/core/lv_indev.c **** 
 1649              		.loc 1 593 17 is_stmt 1 view .LVU540
 593:Middlewares/lvgl/src/core/lv_indev.c **** 
 1650              		.loc 1 593 33 is_stmt 0 view .LVU541
 1651 017a 3F4B     		ldr	r3, .L146
 1652 017c 1868     		ldr	r0, [r3]
 1653 017e FFF7FEFF 		bl	lv_obj_is_editable
ARM GAS  /tmp/cc4kiO2x.s 			page 58


 1654              	.LVL143:
 596:Middlewares/lvgl/src/core/lv_indev.c ****                     /*Don't leave edit mode if there is only one object (nowhere to navigate)*/
 1655              		.loc 1 596 17 is_stmt 1 view .LVU542
 596:Middlewares/lvgl/src/core/lv_indev.c ****                     /*Don't leave edit mode if there is only one object (nowhere to navigate)*/
 1656              		.loc 1 596 19 is_stmt 0 view .LVU543
 1657 0182 98B1     		cbz	r0, .L101
 598:Middlewares/lvgl/src/core/lv_indev.c ****                         lv_group_set_editing(g, lv_group_get_editing(g) ? false : true); /*Toggle e
 1658              		.loc 1 598 21 is_stmt 1 view .LVU544
 598:Middlewares/lvgl/src/core/lv_indev.c ****                         lv_group_set_editing(g, lv_group_get_editing(g) ? false : true); /*Toggle e
 1659              		.loc 1 598 24 is_stmt 0 view .LVU545
 1660 0184 3046     		mov	r0, r6
 1661              	.LVL144:
 598:Middlewares/lvgl/src/core/lv_indev.c ****                         lv_group_set_editing(g, lv_group_get_editing(g) ? false : true); /*Toggle e
 1662              		.loc 1 598 24 view .LVU546
 1663 0186 FFF7FEFF 		bl	lv_group_get_obj_count
 1664              	.LVL145:
 598:Middlewares/lvgl/src/core/lv_indev.c ****                         lv_group_set_editing(g, lv_group_get_editing(g) ? false : true); /*Toggle e
 1665              		.loc 1 598 23 view .LVU547
 1666 018a 0128     		cmp	r0, #1
 1667 018c F0D9     		bls	.L100
 599:Middlewares/lvgl/src/core/lv_indev.c ****                         lv_obj_clear_state(indev_obj_act, LV_STATE_PRESSED);    /*Remove the presse
 1668              		.loc 1 599 25 is_stmt 1 view .LVU548
 599:Middlewares/lvgl/src/core/lv_indev.c ****                         lv_obj_clear_state(indev_obj_act, LV_STATE_PRESSED);    /*Remove the presse
 1669              		.loc 1 599 49 is_stmt 0 view .LVU549
 1670 018e 3046     		mov	r0, r6
 1671 0190 FFF7FEFF 		bl	lv_group_get_editing
 1672              	.LVL146:
 599:Middlewares/lvgl/src/core/lv_indev.c ****                         lv_obj_clear_state(indev_obj_act, LV_STATE_PRESSED);    /*Remove the presse
 1673              		.loc 1 599 25 view .LVU550
 1674 0194 80F00101 		eor	r1, r0, #1
 1675 0198 C9B2     		uxtb	r1, r1
 1676 019a 3046     		mov	r0, r6
 1677 019c FFF7FEFF 		bl	lv_group_set_editing
 1678              	.LVL147:
 600:Middlewares/lvgl/src/core/lv_indev.c ****                     }
 1679              		.loc 1 600 25 is_stmt 1 view .LVU551
 1680 01a0 2021     		movs	r1, #32
 1681 01a2 354B     		ldr	r3, .L146
 1682 01a4 1868     		ldr	r0, [r3]
 1683 01a6 FFF7FEFF 		bl	lv_obj_clear_state
 1684              	.LVL148:
 1685 01aa E1E7     		b	.L100
 1686              	.LVL149:
 1687              	.L101:
 605:Middlewares/lvgl/src/core/lv_indev.c ****                     if(indev_reset_check(&i->proc)) return;
 1688              		.loc 1 605 21 view .LVU552
 1689 01ac 334B     		ldr	r3, .L146+4
 1690 01ae 1A68     		ldr	r2, [r3]
 1691 01b0 0521     		movs	r1, #5
 1692 01b2 314B     		ldr	r3, .L146
 1693 01b4 1868     		ldr	r0, [r3]
 1694              	.LVL150:
 605:Middlewares/lvgl/src/core/lv_indev.c ****                     if(indev_reset_check(&i->proc)) return;
 1695              		.loc 1 605 21 is_stmt 0 view .LVU553
 1696 01b6 FFF7FEFF 		bl	lv_event_send
 1697              	.LVL151:
 606:Middlewares/lvgl/src/core/lv_indev.c ****                 }
ARM GAS  /tmp/cc4kiO2x.s 			page 59


 1698              		.loc 1 606 21 is_stmt 1 view .LVU554
 606:Middlewares/lvgl/src/core/lv_indev.c ****                 }
 1699              		.loc 1 606 24 is_stmt 0 view .LVU555
 1700 01ba 201D     		adds	r0, r4, #4
 1701 01bc FFF7FEFF 		bl	indev_reset_check
 1702              	.LVL152:
 606:Middlewares/lvgl/src/core/lv_indev.c ****                 }
 1703              		.loc 1 606 23 view .LVU556
 1704 01c0 0028     		cmp	r0, #0
 1705 01c2 D5D0     		beq	.L100
 1706 01c4 59E7     		b	.L86
 1707              	.L139:
 606:Middlewares/lvgl/src/core/lv_indev.c ****                 }
 1708              		.loc 1 606 23 view .LVU557
 1709              	.LBE5:
 618:Middlewares/lvgl/src/core/lv_indev.c ****                 if(indev_reset_check(&i->proc)) return;
 1710              		.loc 1 618 17 is_stmt 1 view .LVU558
 1711 01c6 2D4B     		ldr	r3, .L146+4
 1712 01c8 1A68     		ldr	r2, [r3]
 1713 01ca 0621     		movs	r1, #6
 1714 01cc 2A4B     		ldr	r3, .L146
 1715 01ce 1868     		ldr	r0, [r3]
 1716 01d0 FFF7FEFF 		bl	lv_event_send
 1717              	.LVL153:
 619:Middlewares/lvgl/src/core/lv_indev.c ****             }
 1718              		.loc 1 619 17 view .LVU559
 619:Middlewares/lvgl/src/core/lv_indev.c ****             }
 1719              		.loc 1 619 20 is_stmt 0 view .LVU560
 1720 01d4 201D     		adds	r0, r4, #4
 1721 01d6 FFF7FEFF 		bl	indev_reset_check
 1722              	.LVL154:
 619:Middlewares/lvgl/src/core/lv_indev.c ****             }
 1723              		.loc 1 619 19 view .LVU561
 1724 01da 0028     		cmp	r0, #0
 1725 01dc 3FF445AF 		beq	.L94
 1726 01e0 4BE7     		b	.L86
 1727              	.L140:
 623:Middlewares/lvgl/src/core/lv_indev.c ****             }
 1728              		.loc 1 623 17 is_stmt 1 view .LVU562
 623:Middlewares/lvgl/src/core/lv_indev.c ****             }
 1729              		.loc 1 623 21 is_stmt 0 view .LVU563
 1730 01e2 B5F90C30 		ldrsh	r3, [r5, #12]
 623:Middlewares/lvgl/src/core/lv_indev.c ****             }
 1731              		.loc 1 623 31 view .LVU564
 1732 01e6 013B     		subs	r3, r3, #1
 1733 01e8 AB81     		strh	r3, [r5, #12]	@ movhi
 1734 01ea 3EE7     		b	.L94
 1735              	.L104:
 630:Middlewares/lvgl/src/core/lv_indev.c ****                 if(indev_reset_check(&i->proc)) return;
 1736              		.loc 1 630 17 is_stmt 1 view .LVU565
 1737 01ec 3046     		mov	r0, r6
 1738 01ee FFF7FEFF 		bl	lv_group_send_data
 1739              	.LVL155:
 631:Middlewares/lvgl/src/core/lv_indev.c ****             }
 1740              		.loc 1 631 17 view .LVU566
 631:Middlewares/lvgl/src/core/lv_indev.c ****             }
 1741              		.loc 1 631 20 is_stmt 0 view .LVU567
ARM GAS  /tmp/cc4kiO2x.s 			page 60


 1742 01f2 201D     		adds	r0, r4, #4
 1743 01f4 FFF7FEFF 		bl	indev_reset_check
 1744              	.LVL156:
 631:Middlewares/lvgl/src/core/lv_indev.c ****             }
 1745              		.loc 1 631 19 view .LVU568
 1746 01f8 0028     		cmp	r0, #0
 1747 01fa 3FF436AF 		beq	.L94
 1748 01fe 3CE7     		b	.L86
 1749              	.L132:
 639:Middlewares/lvgl/src/core/lv_indev.c **** 
 1750              		.loc 1 639 32 is_stmt 1 view .LVU569
 641:Middlewares/lvgl/src/core/lv_indev.c ****             bool editable = lv_obj_is_editable(indev_obj_act);
 1751              		.loc 1 641 9 view .LVU570
 641:Middlewares/lvgl/src/core/lv_indev.c ****             bool editable = lv_obj_is_editable(indev_obj_act);
 1752              		.loc 1 641 16 is_stmt 0 view .LVU571
 1753 0200 6B68     		ldr	r3, [r5, #4]
 641:Middlewares/lvgl/src/core/lv_indev.c ****             bool editable = lv_obj_is_editable(indev_obj_act);
 1754              		.loc 1 641 11 view .LVU572
 1755 0202 0A2B     		cmp	r3, #10
 1756 0204 06D0     		beq	.L142
 1757              	.LVL157:
 1758              	.L105:
 682:Middlewares/lvgl/src/core/lv_indev.c ****         i->proc.long_pr_sent = 0;
 1759              		.loc 1 682 9 is_stmt 1 view .LVU573
 682:Middlewares/lvgl/src/core/lv_indev.c ****         i->proc.long_pr_sent = 0;
 1760              		.loc 1 682 30 is_stmt 0 view .LVU574
 1761 0206 0022     		movs	r2, #0
 1762 0208 6264     		str	r2, [r4, #68]
 683:Middlewares/lvgl/src/core/lv_indev.c ****     }
 1763              		.loc 1 683 9 is_stmt 1 view .LVU575
 683:Middlewares/lvgl/src/core/lv_indev.c ****     }
 1764              		.loc 1 683 30 is_stmt 0 view .LVU576
 1765 020a 6379     		ldrb	r3, [r4, #5]	@ zero_extendqisi2
 1766 020c 62F30003 		bfi	r3, r2, #0, #1
 1767 0210 6371     		strb	r3, [r4, #5]
 1768 0212 2AE7     		b	.L94
 1769              	.LVL158:
 1770              	.L142:
 1771              	.LBB6:
 642:Middlewares/lvgl/src/core/lv_indev.c **** 
 1772              		.loc 1 642 13 is_stmt 1 view .LVU577
 642:Middlewares/lvgl/src/core/lv_indev.c **** 
 1773              		.loc 1 642 29 is_stmt 0 view .LVU578
 1774 0214 FFF7FEFF 		bl	lv_obj_is_editable
 1775              	.LVL159:
 645:Middlewares/lvgl/src/core/lv_indev.c ****                 lv_event_send(indev_obj_act, LV_EVENT_RELEASED, indev_act);
 1776              		.loc 1 645 13 is_stmt 1 view .LVU579
 645:Middlewares/lvgl/src/core/lv_indev.c ****                 lv_event_send(indev_obj_act, LV_EVENT_RELEASED, indev_act);
 1777              		.loc 1 645 15 is_stmt 0 view .LVU580
 1778 0218 0028     		cmp	r0, #0
 1779 021a 31D1     		bne	.L106
 646:Middlewares/lvgl/src/core/lv_indev.c ****                 if(indev_reset_check(&i->proc)) return;
 1780              		.loc 1 646 17 is_stmt 1 view .LVU581
 1781 021c 174B     		ldr	r3, .L146+4
 1782 021e 1A68     		ldr	r2, [r3]
 1783 0220 0821     		movs	r1, #8
 1784 0222 154B     		ldr	r3, .L146
ARM GAS  /tmp/cc4kiO2x.s 			page 61


 1785 0224 1868     		ldr	r0, [r3]
 1786              	.LVL160:
 646:Middlewares/lvgl/src/core/lv_indev.c ****                 if(indev_reset_check(&i->proc)) return;
 1787              		.loc 1 646 17 is_stmt 0 view .LVU582
 1788 0226 FFF7FEFF 		bl	lv_event_send
 1789              	.LVL161:
 647:Middlewares/lvgl/src/core/lv_indev.c **** 
 1790              		.loc 1 647 17 is_stmt 1 view .LVU583
 647:Middlewares/lvgl/src/core/lv_indev.c **** 
 1791              		.loc 1 647 20 is_stmt 0 view .LVU584
 1792 022a 271D     		adds	r7, r4, #4
 1793              	.LVL162:
 647:Middlewares/lvgl/src/core/lv_indev.c **** 
 1794              		.loc 1 647 20 view .LVU585
 1795 022c 3846     		mov	r0, r7
 1796 022e FFF7FEFF 		bl	indev_reset_check
 1797              	.LVL163:
 647:Middlewares/lvgl/src/core/lv_indev.c **** 
 1798              		.loc 1 647 19 view .LVU586
 1799 0232 0028     		cmp	r0, #0
 1800 0234 7FF421AF 		bne	.L86
 649:Middlewares/lvgl/src/core/lv_indev.c ****                 if(indev_reset_check(&i->proc)) return;
 1801              		.loc 1 649 17 is_stmt 1 view .LVU587
 649:Middlewares/lvgl/src/core/lv_indev.c ****                 if(indev_reset_check(&i->proc)) return;
 1802              		.loc 1 649 41 is_stmt 0 view .LVU588
 1803 0238 6379     		ldrb	r3, [r4, #5]	@ zero_extendqisi2
 649:Middlewares/lvgl/src/core/lv_indev.c ****                 if(indev_reset_check(&i->proc)) return;
 1804              		.loc 1 649 19 view .LVU589
 1805 023a 13F0010F 		tst	r3, #1
 1806 023e 12D0     		beq	.L143
 1807              	.L107:
 650:Middlewares/lvgl/src/core/lv_indev.c **** 
 1808              		.loc 1 650 17 is_stmt 1 view .LVU590
 650:Middlewares/lvgl/src/core/lv_indev.c **** 
 1809              		.loc 1 650 20 is_stmt 0 view .LVU591
 1810 0240 3846     		mov	r0, r7
 1811 0242 FFF7FEFF 		bl	indev_reset_check
 1812              	.LVL164:
 650:Middlewares/lvgl/src/core/lv_indev.c **** 
 1813              		.loc 1 650 19 view .LVU592
 1814 0246 0028     		cmp	r0, #0
 1815 0248 7FF417AF 		bne	.L86
 652:Middlewares/lvgl/src/core/lv_indev.c ****                 if(indev_reset_check(&i->proc)) return;
 1816              		.loc 1 652 17 is_stmt 1 view .LVU593
 1817 024c 0B4B     		ldr	r3, .L146+4
 1818 024e 1A68     		ldr	r2, [r3]
 1819 0250 0721     		movs	r1, #7
 1820 0252 094B     		ldr	r3, .L146
 1821 0254 1868     		ldr	r0, [r3]
 1822 0256 FFF7FEFF 		bl	lv_event_send
 1823              	.LVL165:
 653:Middlewares/lvgl/src/core/lv_indev.c **** 
 1824              		.loc 1 653 17 view .LVU594
 653:Middlewares/lvgl/src/core/lv_indev.c **** 
 1825              		.loc 1 653 20 is_stmt 0 view .LVU595
 1826 025a 3846     		mov	r0, r7
 1827 025c FFF7FEFF 		bl	indev_reset_check
ARM GAS  /tmp/cc4kiO2x.s 			page 62


 1828              	.LVL166:
 653:Middlewares/lvgl/src/core/lv_indev.c **** 
 1829              		.loc 1 653 19 view .LVU596
 1830 0260 0028     		cmp	r0, #0
 1831 0262 D0D0     		beq	.L105
 1832 0264 09E7     		b	.L86
 1833              	.L143:
 649:Middlewares/lvgl/src/core/lv_indev.c ****                 if(indev_reset_check(&i->proc)) return;
 1834              		.loc 1 649 47 is_stmt 1 discriminator 1 view .LVU597
 1835 0266 054B     		ldr	r3, .L146+4
 1836 0268 1A68     		ldr	r2, [r3]
 1837 026a 0421     		movs	r1, #4
 1838 026c 024B     		ldr	r3, .L146
 1839 026e 1868     		ldr	r0, [r3]
 1840 0270 FFF7FEFF 		bl	lv_event_send
 1841              	.LVL167:
 1842 0274 E4E7     		b	.L107
 1843              	.L147:
 1844 0276 00BF     		.align	2
 1845              	.L146:
 1846 0278 00000000 		.word	.LANCHOR0
 1847 027c 00000000 		.word	.LANCHOR1
 1848              	.LVL168:
 1849              	.L106:
 657:Middlewares/lvgl/src/core/lv_indev.c ****                 /*Ignore long pressed enter release because it comes from mode switch*/
 1850              		.loc 1 657 18 view .LVU598
 657:Middlewares/lvgl/src/core/lv_indev.c ****                 /*Ignore long pressed enter release because it comes from mode switch*/
 1851              		.loc 1 657 21 is_stmt 0 view .LVU599
 1852 0280 3046     		mov	r0, r6
 1853              	.LVL169:
 657:Middlewares/lvgl/src/core/lv_indev.c ****                 /*Ignore long pressed enter release because it comes from mode switch*/
 1854              		.loc 1 657 21 view .LVU600
 1855 0282 FFF7FEFF 		bl	lv_group_get_editing
 1856              	.LVL170:
 657:Middlewares/lvgl/src/core/lv_indev.c ****                 /*Ignore long pressed enter release because it comes from mode switch*/
 1857              		.loc 1 657 20 view .LVU601
 1858 0286 0028     		cmp	r0, #0
 1859 0288 3BD0     		beq	.L108
 659:Middlewares/lvgl/src/core/lv_indev.c ****                     lv_event_send(indev_obj_act, LV_EVENT_RELEASED, indev_act);
 1860              		.loc 1 659 17 is_stmt 1 view .LVU602
 659:Middlewares/lvgl/src/core/lv_indev.c ****                     lv_event_send(indev_obj_act, LV_EVENT_RELEASED, indev_act);
 1861              		.loc 1 659 20 is_stmt 0 view .LVU603
 1862 028a 6379     		ldrb	r3, [r4, #5]	@ zero_extendqisi2
 659:Middlewares/lvgl/src/core/lv_indev.c ****                     lv_event_send(indev_obj_act, LV_EVENT_RELEASED, indev_act);
 1863              		.loc 1 659 19 view .LVU604
 1864 028c 13F0010F 		tst	r3, #1
 1865 0290 04D0     		beq	.L109
 659:Middlewares/lvgl/src/core/lv_indev.c ****                     lv_event_send(indev_obj_act, LV_EVENT_RELEASED, indev_act);
 1866              		.loc 1 659 45 discriminator 1 view .LVU605
 1867 0292 3046     		mov	r0, r6
 1868 0294 FFF7FEFF 		bl	lv_group_get_obj_count
 1869              	.LVL171:
 659:Middlewares/lvgl/src/core/lv_indev.c ****                     lv_event_send(indev_obj_act, LV_EVENT_RELEASED, indev_act);
 1870              		.loc 1 659 42 discriminator 1 view .LVU606
 1871 0298 0128     		cmp	r0, #1
 1872 029a 2CD8     		bhi	.L110
 1873              	.L109:
ARM GAS  /tmp/cc4kiO2x.s 			page 63


 660:Middlewares/lvgl/src/core/lv_indev.c ****                     if(indev_reset_check(&i->proc)) return;
 1874              		.loc 1 660 21 is_stmt 1 view .LVU607
 1875 029c 424B     		ldr	r3, .L148
 1876 029e 1A68     		ldr	r2, [r3]
 1877 02a0 0821     		movs	r1, #8
 1878 02a2 424B     		ldr	r3, .L148+4
 1879 02a4 1868     		ldr	r0, [r3]
 1880 02a6 FFF7FEFF 		bl	lv_event_send
 1881              	.LVL172:
 661:Middlewares/lvgl/src/core/lv_indev.c **** 
 1882              		.loc 1 661 21 view .LVU608
 661:Middlewares/lvgl/src/core/lv_indev.c **** 
 1883              		.loc 1 661 24 is_stmt 0 view .LVU609
 1884 02aa 271D     		adds	r7, r4, #4
 1885              	.LVL173:
 661:Middlewares/lvgl/src/core/lv_indev.c **** 
 1886              		.loc 1 661 24 view .LVU610
 1887 02ac 3846     		mov	r0, r7
 1888 02ae FFF7FEFF 		bl	indev_reset_check
 1889              	.LVL174:
 661:Middlewares/lvgl/src/core/lv_indev.c **** 
 1890              		.loc 1 661 23 view .LVU611
 1891 02b2 0028     		cmp	r0, #0
 1892 02b4 7FF4E1AE 		bne	.L86
 663:Middlewares/lvgl/src/core/lv_indev.c ****                     if(indev_reset_check(&i->proc)) return;
 1893              		.loc 1 663 21 is_stmt 1 view .LVU612
 1894 02b8 3B4B     		ldr	r3, .L148
 1895 02ba 1A68     		ldr	r2, [r3]
 1896 02bc 0421     		movs	r1, #4
 1897 02be 3B4B     		ldr	r3, .L148+4
 1898 02c0 1868     		ldr	r0, [r3]
 1899 02c2 FFF7FEFF 		bl	lv_event_send
 1900              	.LVL175:
 664:Middlewares/lvgl/src/core/lv_indev.c **** 
 1901              		.loc 1 664 21 view .LVU613
 664:Middlewares/lvgl/src/core/lv_indev.c **** 
 1902              		.loc 1 664 24 is_stmt 0 view .LVU614
 1903 02c6 3846     		mov	r0, r7
 1904 02c8 FFF7FEFF 		bl	indev_reset_check
 1905              	.LVL176:
 664:Middlewares/lvgl/src/core/lv_indev.c **** 
 1906              		.loc 1 664 23 view .LVU615
 1907 02cc 0028     		cmp	r0, #0
 1908 02ce 7FF4D4AE 		bne	.L86
 666:Middlewares/lvgl/src/core/lv_indev.c ****                     if(indev_reset_check(&i->proc)) return;
 1909              		.loc 1 666 21 is_stmt 1 view .LVU616
 1910 02d2 354B     		ldr	r3, .L148
 1911 02d4 1A68     		ldr	r2, [r3]
 1912 02d6 0721     		movs	r1, #7
 1913 02d8 344B     		ldr	r3, .L148+4
 1914 02da 1868     		ldr	r0, [r3]
 1915 02dc FFF7FEFF 		bl	lv_event_send
 1916              	.LVL177:
 667:Middlewares/lvgl/src/core/lv_indev.c **** 
 1917              		.loc 1 667 21 view .LVU617
 667:Middlewares/lvgl/src/core/lv_indev.c **** 
 1918              		.loc 1 667 24 is_stmt 0 view .LVU618
ARM GAS  /tmp/cc4kiO2x.s 			page 64


 1919 02e0 3846     		mov	r0, r7
 1920 02e2 FFF7FEFF 		bl	indev_reset_check
 1921              	.LVL178:
 667:Middlewares/lvgl/src/core/lv_indev.c **** 
 1922              		.loc 1 667 23 view .LVU619
 1923 02e6 0028     		cmp	r0, #0
 1924 02e8 7FF4C7AE 		bne	.L86
 670:Middlewares/lvgl/src/core/lv_indev.c ****                 } else {
 1925              		.loc 1 670 21 is_stmt 1 view .LVU620
 1926 02ec 0A21     		movs	r1, #10
 1927 02ee 3046     		mov	r0, r6
 1928 02f0 FFF7FEFF 		bl	lv_group_send_data
 1929              	.LVL179:
 1930 02f4 87E7     		b	.L105
 1931              	.LVL180:
 1932              	.L110:
 672:Middlewares/lvgl/src/core/lv_indev.c ****                 }
 1933              		.loc 1 672 21 view .LVU621
 1934 02f6 2021     		movs	r1, #32
 1935 02f8 2C4B     		ldr	r3, .L148+4
 1936 02fa 1868     		ldr	r0, [r3]
 1937 02fc FFF7FEFF 		bl	lv_obj_clear_state
 1938              	.LVL181:
 1939 0300 81E7     		b	.L105
 1940              	.L108:
 677:Middlewares/lvgl/src/core/lv_indev.c ****                 lv_group_set_editing(g, true); /*Set edit mode*/
 1941              		.loc 1 677 18 discriminator 1 view .LVU622
 677:Middlewares/lvgl/src/core/lv_indev.c ****                 lv_group_set_editing(g, true); /*Set edit mode*/
 1942              		.loc 1 677 34 is_stmt 0 discriminator 1 view .LVU623
 1943 0302 3046     		mov	r0, r6
 1944 0304 FFF7FEFF 		bl	lv_group_get_editing
 1945              	.LVL182:
 677:Middlewares/lvgl/src/core/lv_indev.c ****                 lv_group_set_editing(g, true); /*Set edit mode*/
 1946              		.loc 1 677 30 discriminator 1 view .LVU624
 1947 0308 0028     		cmp	r0, #0
 1948 030a 7FF47CAF 		bne	.L105
 677:Middlewares/lvgl/src/core/lv_indev.c ****                 lv_group_set_editing(g, true); /*Set edit mode*/
 1949              		.loc 1 677 61 discriminator 2 view .LVU625
 1950 030e 6379     		ldrb	r3, [r4, #5]	@ zero_extendqisi2
 677:Middlewares/lvgl/src/core/lv_indev.c ****                 lv_group_set_editing(g, true); /*Set edit mode*/
 1951              		.loc 1 677 58 discriminator 2 view .LVU626
 1952 0310 13F0010F 		tst	r3, #1
 1953 0314 7FF477AF 		bne	.L105
 678:Middlewares/lvgl/src/core/lv_indev.c ****             }
 1954              		.loc 1 678 17 is_stmt 1 view .LVU627
 1955 0318 0121     		movs	r1, #1
 1956 031a 3046     		mov	r0, r6
 1957 031c FFF7FEFF 		bl	lv_group_set_editing
 1958              	.LVL183:
 1959 0320 71E7     		b	.L105
 1960              	.LVL184:
 1961              	.L133:
 678:Middlewares/lvgl/src/core/lv_indev.c ****             }
 1962              		.loc 1 678 17 is_stmt 0 view .LVU628
 1963              	.LBE6:
 689:Middlewares/lvgl/src/core/lv_indev.c ****         /*In edit mode send LEFT/RIGHT keys*/
 1964              		.loc 1 689 53 is_stmt 1 view .LVU629
ARM GAS  /tmp/cc4kiO2x.s 			page 65


 691:Middlewares/lvgl/src/core/lv_indev.c ****             int32_t s;
 1965              		.loc 1 691 9 view .LVU630
 691:Middlewares/lvgl/src/core/lv_indev.c ****             int32_t s;
 1966              		.loc 1 691 12 is_stmt 0 view .LVU631
 1967 0322 3046     		mov	r0, r6
 1968 0324 FFF7FEFF 		bl	lv_group_get_editing
 1969              	.LVL185:
 691:Middlewares/lvgl/src/core/lv_indev.c ****             int32_t s;
 1970              		.loc 1 691 11 view .LVU632
 1971 0328 F8B1     		cbz	r0, .L111
 1972              	.LBB7:
 692:Middlewares/lvgl/src/core/lv_indev.c ****             if(data->enc_diff < 0) {
 1973              		.loc 1 692 13 is_stmt 1 view .LVU633
 693:Middlewares/lvgl/src/core/lv_indev.c ****                 for(s = 0; s < -data->enc_diff; s++) lv_group_send_data(g, LV_KEY_LEFT);
 1974              		.loc 1 693 13 view .LVU634
 693:Middlewares/lvgl/src/core/lv_indev.c ****                 for(s = 0; s < -data->enc_diff; s++) lv_group_send_data(g, LV_KEY_LEFT);
 1975              		.loc 1 693 20 is_stmt 0 view .LVU635
 1976 032a B5F90C30 		ldrsh	r3, [r5, #12]
 693:Middlewares/lvgl/src/core/lv_indev.c ****                 for(s = 0; s < -data->enc_diff; s++) lv_group_send_data(g, LV_KEY_LEFT);
 1977              		.loc 1 693 15 view .LVU636
 1978 032e 002B     		cmp	r3, #0
 1979 0330 0FDB     		blt	.L144
 696:Middlewares/lvgl/src/core/lv_indev.c ****                 for(s = 0; s < data->enc_diff; s++) lv_group_send_data(g, LV_KEY_RIGHT);
 1980              		.loc 1 696 18 is_stmt 1 view .LVU637
 696:Middlewares/lvgl/src/core/lv_indev.c ****                 for(s = 0; s < data->enc_diff; s++) lv_group_send_data(g, LV_KEY_RIGHT);
 1981              		.loc 1 696 20 is_stmt 0 view .LVU638
 1982 0332 002B     		cmp	r3, #0
 1983 0334 7FF7A1AE 		ble	.L86
 697:Middlewares/lvgl/src/core/lv_indev.c ****             }
 1984              		.loc 1 697 23 view .LVU639
 1985 0338 0024     		movs	r4, #0
 1986              	.LVL186:
 697:Middlewares/lvgl/src/core/lv_indev.c ****             }
 1987              		.loc 1 697 23 view .LVU640
 1988 033a 11E0     		b	.L115
 1989              	.LVL187:
 1990              	.L114:
 694:Middlewares/lvgl/src/core/lv_indev.c ****             }
 1991              		.loc 1 694 54 is_stmt 1 discriminator 3 view .LVU641
 1992 033c 1421     		movs	r1, #20
 1993 033e 3046     		mov	r0, r6
 1994 0340 FFF7FEFF 		bl	lv_group_send_data
 1995              	.LVL188:
 694:Middlewares/lvgl/src/core/lv_indev.c ****             }
 1996              		.loc 1 694 49 discriminator 3 view .LVU642
 694:Middlewares/lvgl/src/core/lv_indev.c ****             }
 1997              		.loc 1 694 50 is_stmt 0 discriminator 3 view .LVU643
 1998 0344 0134     		adds	r4, r4, #1
 1999              	.LVL189:
 2000              	.L112:
 694:Middlewares/lvgl/src/core/lv_indev.c ****             }
 2001              		.loc 1 694 28 is_stmt 1 discriminator 1 view .LVU644
 694:Middlewares/lvgl/src/core/lv_indev.c ****             }
 2002              		.loc 1 694 37 is_stmt 0 discriminator 1 view .LVU645
 2003 0346 B5F90C30 		ldrsh	r3, [r5, #12]
 694:Middlewares/lvgl/src/core/lv_indev.c ****             }
 2004              		.loc 1 694 32 discriminator 1 view .LVU646
ARM GAS  /tmp/cc4kiO2x.s 			page 66


 2005 034a 5B42     		rsbs	r3, r3, #0
 694:Middlewares/lvgl/src/core/lv_indev.c ****             }
 2006              		.loc 1 694 17 discriminator 1 view .LVU647
 2007 034c A342     		cmp	r3, r4
 2008 034e F5DC     		bgt	.L114
 2009 0350 93E6     		b	.L86
 2010              	.LVL190:
 2011              	.L144:
 694:Middlewares/lvgl/src/core/lv_indev.c ****             }
 2012              		.loc 1 694 23 view .LVU648
 2013 0352 0024     		movs	r4, #0
 2014              	.LVL191:
 694:Middlewares/lvgl/src/core/lv_indev.c ****             }
 2015              		.loc 1 694 23 view .LVU649
 2016 0354 F7E7     		b	.L112
 2017              	.LVL192:
 2018              	.L116:
 697:Middlewares/lvgl/src/core/lv_indev.c ****             }
 2019              		.loc 1 697 53 is_stmt 1 discriminator 3 view .LVU650
 2020 0356 1321     		movs	r1, #19
 2021 0358 3046     		mov	r0, r6
 2022 035a FFF7FEFF 		bl	lv_group_send_data
 2023              	.LVL193:
 697:Middlewares/lvgl/src/core/lv_indev.c ****             }
 2024              		.loc 1 697 48 discriminator 3 view .LVU651
 697:Middlewares/lvgl/src/core/lv_indev.c ****             }
 2025              		.loc 1 697 49 is_stmt 0 discriminator 3 view .LVU652
 2026 035e 0134     		adds	r4, r4, #1
 2027              	.LVL194:
 2028              	.L115:
 697:Middlewares/lvgl/src/core/lv_indev.c ****             }
 2029              		.loc 1 697 28 is_stmt 1 discriminator 1 view .LVU653
 697:Middlewares/lvgl/src/core/lv_indev.c ****             }
 2030              		.loc 1 697 36 is_stmt 0 discriminator 1 view .LVU654
 2031 0360 B5F90C30 		ldrsh	r3, [r5, #12]
 697:Middlewares/lvgl/src/core/lv_indev.c ****             }
 2032              		.loc 1 697 17 discriminator 1 view .LVU655
 2033 0364 A342     		cmp	r3, r4
 2034 0366 F6DC     		bgt	.L116
 2035 0368 87E6     		b	.L86
 2036              	.LVL195:
 2037              	.L111:
 697:Middlewares/lvgl/src/core/lv_indev.c ****             }
 2038              		.loc 1 697 17 discriminator 1 view .LVU656
 2039              	.LBE7:
 2040              	.LBB8:
 702:Middlewares/lvgl/src/core/lv_indev.c ****             if(data->enc_diff < 0) {
 2041              		.loc 1 702 13 is_stmt 1 view .LVU657
 703:Middlewares/lvgl/src/core/lv_indev.c ****                 for(s = 0; s < -data->enc_diff; s++) lv_group_focus_prev(g);
 2042              		.loc 1 703 13 view .LVU658
 703:Middlewares/lvgl/src/core/lv_indev.c ****                 for(s = 0; s < -data->enc_diff; s++) lv_group_focus_prev(g);
 2043              		.loc 1 703 20 is_stmt 0 view .LVU659
 2044 036a B5F90C30 		ldrsh	r3, [r5, #12]
 703:Middlewares/lvgl/src/core/lv_indev.c ****                 for(s = 0; s < -data->enc_diff; s++) lv_group_focus_prev(g);
 2045              		.loc 1 703 15 view .LVU660
 2046 036e 002B     		cmp	r3, #0
 2047 0370 0EDB     		blt	.L145
ARM GAS  /tmp/cc4kiO2x.s 			page 67


 706:Middlewares/lvgl/src/core/lv_indev.c ****                 for(s = 0; s < data->enc_diff; s++) lv_group_focus_next(g);
 2048              		.loc 1 706 18 is_stmt 1 view .LVU661
 706:Middlewares/lvgl/src/core/lv_indev.c ****                 for(s = 0; s < data->enc_diff; s++) lv_group_focus_next(g);
 2049              		.loc 1 706 20 is_stmt 0 view .LVU662
 2050 0372 002B     		cmp	r3, #0
 2051 0374 7FF781AE 		ble	.L86
 707:Middlewares/lvgl/src/core/lv_indev.c ****             }
 2052              		.loc 1 707 23 view .LVU663
 2053 0378 0024     		movs	r4, #0
 2054              	.LVL196:
 707:Middlewares/lvgl/src/core/lv_indev.c ****             }
 2055              		.loc 1 707 23 view .LVU664
 2056 037a 0FE0     		b	.L120
 2057              	.LVL197:
 2058              	.L119:
 704:Middlewares/lvgl/src/core/lv_indev.c ****             }
 2059              		.loc 1 704 54 is_stmt 1 discriminator 3 view .LVU665
 2060 037c 3046     		mov	r0, r6
 2061 037e FFF7FEFF 		bl	lv_group_focus_prev
 2062              	.LVL198:
 704:Middlewares/lvgl/src/core/lv_indev.c ****             }
 2063              		.loc 1 704 49 discriminator 3 view .LVU666
 704:Middlewares/lvgl/src/core/lv_indev.c ****             }
 2064              		.loc 1 704 50 is_stmt 0 discriminator 3 view .LVU667
 2065 0382 0134     		adds	r4, r4, #1
 2066              	.LVL199:
 2067              	.L117:
 704:Middlewares/lvgl/src/core/lv_indev.c ****             }
 2068              		.loc 1 704 28 is_stmt 1 discriminator 1 view .LVU668
 704:Middlewares/lvgl/src/core/lv_indev.c ****             }
 2069              		.loc 1 704 37 is_stmt 0 discriminator 1 view .LVU669
 2070 0384 B5F90C30 		ldrsh	r3, [r5, #12]
 704:Middlewares/lvgl/src/core/lv_indev.c ****             }
 2071              		.loc 1 704 32 discriminator 1 view .LVU670
 2072 0388 5B42     		rsbs	r3, r3, #0
 704:Middlewares/lvgl/src/core/lv_indev.c ****             }
 2073              		.loc 1 704 17 discriminator 1 view .LVU671
 2074 038a A342     		cmp	r3, r4
 2075 038c F6DC     		bgt	.L119
 2076 038e 74E6     		b	.L86
 2077              	.LVL200:
 2078              	.L145:
 704:Middlewares/lvgl/src/core/lv_indev.c ****             }
 2079              		.loc 1 704 23 view .LVU672
 2080 0390 0024     		movs	r4, #0
 2081              	.LVL201:
 704:Middlewares/lvgl/src/core/lv_indev.c ****             }
 2082              		.loc 1 704 23 view .LVU673
 2083 0392 F7E7     		b	.L117
 2084              	.LVL202:
 2085              	.L121:
 707:Middlewares/lvgl/src/core/lv_indev.c ****             }
 2086              		.loc 1 707 53 is_stmt 1 discriminator 3 view .LVU674
 2087 0394 3046     		mov	r0, r6
 2088 0396 FFF7FEFF 		bl	lv_group_focus_next
 2089              	.LVL203:
 707:Middlewares/lvgl/src/core/lv_indev.c ****             }
ARM GAS  /tmp/cc4kiO2x.s 			page 68


 2090              		.loc 1 707 48 discriminator 3 view .LVU675
 707:Middlewares/lvgl/src/core/lv_indev.c ****             }
 2091              		.loc 1 707 49 is_stmt 0 discriminator 3 view .LVU676
 2092 039a 0134     		adds	r4, r4, #1
 2093              	.LVL204:
 2094              	.L120:
 707:Middlewares/lvgl/src/core/lv_indev.c ****             }
 2095              		.loc 1 707 28 is_stmt 1 discriminator 1 view .LVU677
 707:Middlewares/lvgl/src/core/lv_indev.c ****             }
 2096              		.loc 1 707 36 is_stmt 0 discriminator 1 view .LVU678
 2097 039c B5F90C30 		ldrsh	r3, [r5, #12]
 707:Middlewares/lvgl/src/core/lv_indev.c ****             }
 2098              		.loc 1 707 17 discriminator 1 view .LVU679
 2099 03a0 A342     		cmp	r3, r4
 2100 03a2 F7DC     		bgt	.L121
 2101 03a4 69E6     		b	.L86
 2102              	.L149:
 2103 03a6 00BF     		.align	2
 2104              	.L148:
 2105 03a8 00000000 		.word	.LANCHOR1
 2106 03ac 00000000 		.word	.LANCHOR0
 2107              	.LBE8:
 2108              		.cfi_endproc
 2109              	.LFE174:
 2111              		.section	.text.lv_indev_enable,"ax",%progbits
 2112              		.align	1
 2113              		.global	lv_indev_enable
 2114              		.syntax unified
 2115              		.thumb
 2116              		.thumb_func
 2117              		.fpu softvfp
 2119              	lv_indev_enable:
 2120              	.LVL205:
 2121              	.LFB154:
 123:Middlewares/lvgl/src/core/lv_indev.c ****     if(!indev) return;
 2122              		.loc 1 123 1 is_stmt 1 view -0
 2123              		.cfi_startproc
 2124              		@ args = 0, pretend = 0, frame = 0
 2125              		@ frame_needed = 0, uses_anonymous_args = 0
 2126              		@ link register save eliminated.
 124:Middlewares/lvgl/src/core/lv_indev.c **** 
 2127              		.loc 1 124 5 view .LVU681
 124:Middlewares/lvgl/src/core/lv_indev.c **** 
 2128              		.loc 1 124 7 is_stmt 0 view .LVU682
 2129 0000 28B1     		cbz	r0, .L150
 126:Middlewares/lvgl/src/core/lv_indev.c **** }
 2130              		.loc 1 126 5 is_stmt 1 view .LVU683
 126:Middlewares/lvgl/src/core/lv_indev.c **** }
 2131              		.loc 1 126 35 is_stmt 0 view .LVU684
 2132 0002 81F00101 		eor	r1, r1, #1
 2133              	.LVL206:
 126:Middlewares/lvgl/src/core/lv_indev.c **** }
 2134              		.loc 1 126 26 view .LVU685
 2135 0006 4279     		ldrb	r2, [r0, #5]	@ zero_extendqisi2
 2136 0008 61F38202 		bfi	r2, r1, #2, #1
 2137 000c 4271     		strb	r2, [r0, #5]
 2138              	.L150:
ARM GAS  /tmp/cc4kiO2x.s 			page 69


 127:Middlewares/lvgl/src/core/lv_indev.c **** 
 2139              		.loc 1 127 1 view .LVU686
 2140 000e 7047     		bx	lr
 2141              		.cfi_endproc
 2142              	.LFE154:
 2144              		.section	.text.lv_indev_get_act,"ax",%progbits
 2145              		.align	1
 2146              		.global	lv_indev_get_act
 2147              		.syntax unified
 2148              		.thumb
 2149              		.thumb_func
 2150              		.fpu softvfp
 2152              	lv_indev_get_act:
 2153              	.LFB155:
 130:Middlewares/lvgl/src/core/lv_indev.c ****     return indev_act;
 2154              		.loc 1 130 1 is_stmt 1 view -0
 2155              		.cfi_startproc
 2156              		@ args = 0, pretend = 0, frame = 0
 2157              		@ frame_needed = 0, uses_anonymous_args = 0
 2158              		@ link register save eliminated.
 131:Middlewares/lvgl/src/core/lv_indev.c **** }
 2159              		.loc 1 131 5 view .LVU688
 132:Middlewares/lvgl/src/core/lv_indev.c **** 
 2160              		.loc 1 132 1 is_stmt 0 view .LVU689
 2161 0000 014B     		ldr	r3, .L153
 2162 0002 1868     		ldr	r0, [r3]
 2163 0004 7047     		bx	lr
 2164              	.L154:
 2165 0006 00BF     		.align	2
 2166              	.L153:
 2167 0008 00000000 		.word	.LANCHOR1
 2168              		.cfi_endproc
 2169              	.LFE155:
 2171              		.section	.text.lv_indev_get_type,"ax",%progbits
 2172              		.align	1
 2173              		.global	lv_indev_get_type
 2174              		.syntax unified
 2175              		.thumb
 2176              		.thumb_func
 2177              		.fpu softvfp
 2179              	lv_indev_get_type:
 2180              	.LVL207:
 2181              	.LFB156:
 135:Middlewares/lvgl/src/core/lv_indev.c ****     if(indev == NULL) return LV_INDEV_TYPE_NONE;
 2182              		.loc 1 135 1 is_stmt 1 view -0
 2183              		.cfi_startproc
 2184              		@ args = 0, pretend = 0, frame = 0
 2185              		@ frame_needed = 0, uses_anonymous_args = 0
 2186              		@ link register save eliminated.
 136:Middlewares/lvgl/src/core/lv_indev.c **** 
 2187              		.loc 1 136 5 view .LVU691
 136:Middlewares/lvgl/src/core/lv_indev.c **** 
 2188              		.loc 1 136 7 is_stmt 0 view .LVU692
 2189 0000 10B1     		cbz	r0, .L157
 138:Middlewares/lvgl/src/core/lv_indev.c **** }
 2190              		.loc 1 138 5 is_stmt 1 view .LVU693
 138:Middlewares/lvgl/src/core/lv_indev.c **** }
ARM GAS  /tmp/cc4kiO2x.s 			page 70


 2191              		.loc 1 138 17 is_stmt 0 view .LVU694
 2192 0002 0368     		ldr	r3, [r0]
 138:Middlewares/lvgl/src/core/lv_indev.c **** }
 2193              		.loc 1 138 25 view .LVU695
 2194 0004 1878     		ldrb	r0, [r3]	@ zero_extendqisi2
 2195              	.LVL208:
 138:Middlewares/lvgl/src/core/lv_indev.c **** }
 2196              		.loc 1 138 25 view .LVU696
 2197 0006 7047     		bx	lr
 2198              	.LVL209:
 2199              	.L157:
 136:Middlewares/lvgl/src/core/lv_indev.c **** 
 2200              		.loc 1 136 30 view .LVU697
 2201 0008 0020     		movs	r0, #0
 2202              	.LVL210:
 139:Middlewares/lvgl/src/core/lv_indev.c **** 
 2203              		.loc 1 139 1 view .LVU698
 2204 000a 7047     		bx	lr
 2205              		.cfi_endproc
 2206              	.LFE156:
 2208              		.section	.text.lv_indev_reset,"ax",%progbits
 2209              		.align	1
 2210              		.global	lv_indev_reset
 2211              		.syntax unified
 2212              		.thumb
 2213              		.thumb_func
 2214              		.fpu softvfp
 2216              	lv_indev_reset:
 2217              	.LVL211:
 2218              	.LFB157:
 142:Middlewares/lvgl/src/core/lv_indev.c ****     if(indev) {
 2219              		.loc 1 142 1 is_stmt 1 view -0
 2220              		.cfi_startproc
 2221              		@ args = 0, pretend = 0, frame = 0
 2222              		@ frame_needed = 0, uses_anonymous_args = 0
 142:Middlewares/lvgl/src/core/lv_indev.c ****     if(indev) {
 2223              		.loc 1 142 1 is_stmt 0 view .LVU700
 2224 0000 10B5     		push	{r4, lr}
 2225              	.LCFI5:
 2226              		.cfi_def_cfa_offset 8
 2227              		.cfi_offset 4, -8
 2228              		.cfi_offset 14, -4
 2229 0002 0C46     		mov	r4, r1
 143:Middlewares/lvgl/src/core/lv_indev.c ****         indev->proc.reset_query = 1;
 2230              		.loc 1 143 5 is_stmt 1 view .LVU701
 143:Middlewares/lvgl/src/core/lv_indev.c ****         indev->proc.reset_query = 1;
 2231              		.loc 1 143 7 is_stmt 0 view .LVU702
 2232 0004 F8B1     		cbz	r0, .L159
 2233 0006 0346     		mov	r3, r0
 144:Middlewares/lvgl/src/core/lv_indev.c ****         if(indev_act == indev) indev_obj_act = NULL;
 2234              		.loc 1 144 9 is_stmt 1 view .LVU703
 144:Middlewares/lvgl/src/core/lv_indev.c ****         if(indev_act == indev) indev_obj_act = NULL;
 2235              		.loc 1 144 33 is_stmt 0 view .LVU704
 2236 0008 4279     		ldrb	r2, [r0, #5]	@ zero_extendqisi2
 2237 000a 42F00202 		orr	r2, r2, #2
 2238 000e 4271     		strb	r2, [r0, #5]
 145:Middlewares/lvgl/src/core/lv_indev.c ****         if(obj == NULL || indev->proc.types.pointer.last_pressed == obj) {
ARM GAS  /tmp/cc4kiO2x.s 			page 71


 2239              		.loc 1 145 9 is_stmt 1 view .LVU705
 145:Middlewares/lvgl/src/core/lv_indev.c ****         if(obj == NULL || indev->proc.types.pointer.last_pressed == obj) {
 2240              		.loc 1 145 22 is_stmt 0 view .LVU706
 2241 0010 224A     		ldr	r2, .L179
 2242 0012 1268     		ldr	r2, [r2]
 145:Middlewares/lvgl/src/core/lv_indev.c ****         if(obj == NULL || indev->proc.types.pointer.last_pressed == obj) {
 2243              		.loc 1 145 11 view .LVU707
 2244 0014 8242     		cmp	r2, r0
 2245 0016 12D0     		beq	.L176
 2246              	.LVL212:
 2247              	.L160:
 146:Middlewares/lvgl/src/core/lv_indev.c ****             indev->proc.types.pointer.last_pressed = NULL;
 2248              		.loc 1 146 9 is_stmt 1 view .LVU708
 146:Middlewares/lvgl/src/core/lv_indev.c ****             indev->proc.types.pointer.last_pressed = NULL;
 2249              		.loc 1 146 11 is_stmt 0 view .LVU709
 2250 0018 14B1     		cbz	r4, .L161
 146:Middlewares/lvgl/src/core/lv_indev.c ****             indev->proc.types.pointer.last_pressed = NULL;
 2251              		.loc 1 146 52 discriminator 1 view .LVU710
 2252 001a 1A6B     		ldr	r2, [r3, #48]
 146:Middlewares/lvgl/src/core/lv_indev.c ****             indev->proc.types.pointer.last_pressed = NULL;
 2253              		.loc 1 146 24 discriminator 1 view .LVU711
 2254 001c A242     		cmp	r2, r4
 2255 001e 01D1     		bne	.L162
 2256              	.L161:
 147:Middlewares/lvgl/src/core/lv_indev.c ****         }
 2257              		.loc 1 147 13 is_stmt 1 view .LVU712
 147:Middlewares/lvgl/src/core/lv_indev.c ****         }
 2258              		.loc 1 147 52 is_stmt 0 view .LVU713
 2259 0020 0022     		movs	r2, #0
 2260 0022 1A63     		str	r2, [r3, #48]
 2261              	.L162:
 149:Middlewares/lvgl/src/core/lv_indev.c ****             indev->proc.types.pointer.act_obj = NULL;
 2262              		.loc 1 149 9 is_stmt 1 view .LVU714
 149:Middlewares/lvgl/src/core/lv_indev.c ****             indev->proc.types.pointer.act_obj = NULL;
 2263              		.loc 1 149 11 is_stmt 0 view .LVU715
 2264 0024 14B1     		cbz	r4, .L163
 149:Middlewares/lvgl/src/core/lv_indev.c ****             indev->proc.types.pointer.act_obj = NULL;
 2265              		.loc 1 149 52 discriminator 1 view .LVU716
 2266 0026 5A6A     		ldr	r2, [r3, #36]
 149:Middlewares/lvgl/src/core/lv_indev.c ****             indev->proc.types.pointer.act_obj = NULL;
 2267              		.loc 1 149 24 discriminator 1 view .LVU717
 2268 0028 A242     		cmp	r2, r4
 2269 002a 01D1     		bne	.L164
 2270              	.L163:
 150:Middlewares/lvgl/src/core/lv_indev.c ****         }
 2271              		.loc 1 150 13 is_stmt 1 view .LVU718
 150:Middlewares/lvgl/src/core/lv_indev.c ****         }
 2272              		.loc 1 150 47 is_stmt 0 view .LVU719
 2273 002c 0022     		movs	r2, #0
 2274 002e 5A62     		str	r2, [r3, #36]
 2275              	.L164:
 152:Middlewares/lvgl/src/core/lv_indev.c ****             indev->proc.types.pointer.last_obj = NULL;
 2276              		.loc 1 152 9 is_stmt 1 view .LVU720
 152:Middlewares/lvgl/src/core/lv_indev.c ****             indev->proc.types.pointer.last_obj = NULL;
 2277              		.loc 1 152 11 is_stmt 0 view .LVU721
 2278 0030 14B1     		cbz	r4, .L165
 152:Middlewares/lvgl/src/core/lv_indev.c ****             indev->proc.types.pointer.last_obj = NULL;
ARM GAS  /tmp/cc4kiO2x.s 			page 72


 2279              		.loc 1 152 52 discriminator 1 view .LVU722
 2280 0032 9A6A     		ldr	r2, [r3, #40]
 152:Middlewares/lvgl/src/core/lv_indev.c ****             indev->proc.types.pointer.last_obj = NULL;
 2281              		.loc 1 152 24 discriminator 1 view .LVU723
 2282 0034 A242     		cmp	r2, r4
 2283 0036 01D1     		bne	.L158
 2284              	.L165:
 153:Middlewares/lvgl/src/core/lv_indev.c ****         }
 2285              		.loc 1 153 13 is_stmt 1 view .LVU724
 153:Middlewares/lvgl/src/core/lv_indev.c ****         }
 2286              		.loc 1 153 48 is_stmt 0 view .LVU725
 2287 0038 0022     		movs	r2, #0
 2288 003a 9A62     		str	r2, [r3, #40]
 2289              	.LVL213:
 2290              	.L158:
 174:Middlewares/lvgl/src/core/lv_indev.c **** 
 2291              		.loc 1 174 1 view .LVU726
 2292 003c 10BD     		pop	{r4, pc}
 2293              	.LVL214:
 2294              	.L176:
 145:Middlewares/lvgl/src/core/lv_indev.c ****         if(obj == NULL || indev->proc.types.pointer.last_pressed == obj) {
 2295              		.loc 1 145 32 is_stmt 1 discriminator 1 view .LVU727
 145:Middlewares/lvgl/src/core/lv_indev.c ****         if(obj == NULL || indev->proc.types.pointer.last_pressed == obj) {
 2296              		.loc 1 145 46 is_stmt 0 discriminator 1 view .LVU728
 2297 003e 184A     		ldr	r2, .L179+4
 2298 0040 0021     		movs	r1, #0
 2299              	.LVL215:
 145:Middlewares/lvgl/src/core/lv_indev.c ****         if(obj == NULL || indev->proc.types.pointer.last_pressed == obj) {
 2300              		.loc 1 145 46 discriminator 1 view .LVU729
 2301 0042 1160     		str	r1, [r2]
 2302 0044 E8E7     		b	.L160
 2303              	.LVL216:
 2304              	.L159:
 2305              	.LBB9:
 157:Middlewares/lvgl/src/core/lv_indev.c ****         while(i) {
 2306              		.loc 1 157 9 is_stmt 1 view .LVU730
 157:Middlewares/lvgl/src/core/lv_indev.c ****         while(i) {
 2307              		.loc 1 157 26 is_stmt 0 view .LVU731
 2308 0046 0020     		movs	r0, #0
 2309              	.LVL217:
 157:Middlewares/lvgl/src/core/lv_indev.c ****         while(i) {
 2310              		.loc 1 157 26 view .LVU732
 2311 0048 FFF7FEFF 		bl	lv_indev_get_next
 2312              	.LVL218:
 158:Middlewares/lvgl/src/core/lv_indev.c ****             i->proc.reset_query = 1;
 2313              		.loc 1 158 9 is_stmt 1 view .LVU733
 158:Middlewares/lvgl/src/core/lv_indev.c ****             i->proc.reset_query = 1;
 2314              		.loc 1 158 14 is_stmt 0 view .LVU734
 2315 004c 0AE0     		b	.L167
 2316              	.L178:
 160:Middlewares/lvgl/src/core/lv_indev.c ****                (obj == NULL || i->proc.types.pointer.last_pressed == obj)) {
 2317              		.loc 1 160 102 discriminator 1 view .LVU735
 2318 004e 14B1     		cbz	r4, .L169
 161:Middlewares/lvgl/src/core/lv_indev.c ****                 i->proc.types.pointer.last_pressed = NULL;
 2319              		.loc 1 161 53 view .LVU736
 2320 0050 036B     		ldr	r3, [r0, #48]
 161:Middlewares/lvgl/src/core/lv_indev.c ****                 i->proc.types.pointer.last_pressed = NULL;
ARM GAS  /tmp/cc4kiO2x.s 			page 73


 2321              		.loc 1 161 29 view .LVU737
 2322 0052 A342     		cmp	r3, r4
 2323 0054 11D1     		bne	.L168
 2324              	.L169:
 162:Middlewares/lvgl/src/core/lv_indev.c ****             }
 2325              		.loc 1 162 17 is_stmt 1 view .LVU738
 162:Middlewares/lvgl/src/core/lv_indev.c ****             }
 2326              		.loc 1 162 52 is_stmt 0 view .LVU739
 2327 0056 0023     		movs	r3, #0
 2328 0058 0363     		str	r3, [r0, #48]
 2329 005a 0EE0     		b	.L168
 2330              	.L172:
 168:Middlewares/lvgl/src/core/lv_indev.c ****             }
 2331              		.loc 1 168 17 is_stmt 1 view .LVU740
 168:Middlewares/lvgl/src/core/lv_indev.c ****             }
 2332              		.loc 1 168 48 is_stmt 0 view .LVU741
 2333 005c 0023     		movs	r3, #0
 2334 005e 8362     		str	r3, [r0, #40]
 2335              	.L173:
 170:Middlewares/lvgl/src/core/lv_indev.c ****         }
 2336              		.loc 1 170 13 is_stmt 1 view .LVU742
 170:Middlewares/lvgl/src/core/lv_indev.c ****         }
 2337              		.loc 1 170 17 is_stmt 0 view .LVU743
 2338 0060 FFF7FEFF 		bl	lv_indev_get_next
 2339              	.LVL219:
 2340              	.L167:
 158:Middlewares/lvgl/src/core/lv_indev.c ****             i->proc.reset_query = 1;
 2341              		.loc 1 158 14 is_stmt 1 view .LVU744
 2342 0064 A8B1     		cbz	r0, .L177
 159:Middlewares/lvgl/src/core/lv_indev.c ****             if((i->driver->type == LV_INDEV_TYPE_POINTER || i->driver->type == LV_INDEV_TYPE_KEYPAD
 2343              		.loc 1 159 13 view .LVU745
 159:Middlewares/lvgl/src/core/lv_indev.c ****             if((i->driver->type == LV_INDEV_TYPE_POINTER || i->driver->type == LV_INDEV_TYPE_KEYPAD
 2344              		.loc 1 159 33 is_stmt 0 view .LVU746
 2345 0066 4379     		ldrb	r3, [r0, #5]	@ zero_extendqisi2
 2346 0068 43F00203 		orr	r3, r3, #2
 2347 006c 4371     		strb	r3, [r0, #5]
 160:Middlewares/lvgl/src/core/lv_indev.c ****                (obj == NULL || i->proc.types.pointer.last_pressed == obj)) {
 2348              		.loc 1 160 13 is_stmt 1 view .LVU747
 160:Middlewares/lvgl/src/core/lv_indev.c ****                (obj == NULL || i->proc.types.pointer.last_pressed == obj)) {
 2349              		.loc 1 160 18 is_stmt 0 view .LVU748
 2350 006e 0368     		ldr	r3, [r0]
 160:Middlewares/lvgl/src/core/lv_indev.c ****                (obj == NULL || i->proc.types.pointer.last_pressed == obj)) {
 2351              		.loc 1 160 26 view .LVU749
 2352 0070 1B78     		ldrb	r3, [r3]	@ zero_extendqisi2
 160:Middlewares/lvgl/src/core/lv_indev.c ****                (obj == NULL || i->proc.types.pointer.last_pressed == obj)) {
 2353              		.loc 1 160 58 view .LVU750
 2354 0072 013B     		subs	r3, r3, #1
 2355 0074 DBB2     		uxtb	r3, r3
 160:Middlewares/lvgl/src/core/lv_indev.c ****                (obj == NULL || i->proc.types.pointer.last_pressed == obj)) {
 2356              		.loc 1 160 15 view .LVU751
 2357 0076 012B     		cmp	r3, #1
 2358 0078 E9D9     		bls	.L178
 2359              	.L168:
 164:Middlewares/lvgl/src/core/lv_indev.c ****                 i->proc.types.pointer.act_obj = NULL;
 2360              		.loc 1 164 13 is_stmt 1 view .LVU752
 164:Middlewares/lvgl/src/core/lv_indev.c ****                 i->proc.types.pointer.act_obj = NULL;
 2361              		.loc 1 164 15 is_stmt 0 view .LVU753
ARM GAS  /tmp/cc4kiO2x.s 			page 74


 2362 007a 14B1     		cbz	r4, .L170
 164:Middlewares/lvgl/src/core/lv_indev.c ****                 i->proc.types.pointer.act_obj = NULL;
 2363              		.loc 1 164 52 discriminator 1 view .LVU754
 2364 007c 436A     		ldr	r3, [r0, #36]
 164:Middlewares/lvgl/src/core/lv_indev.c ****                 i->proc.types.pointer.act_obj = NULL;
 2365              		.loc 1 164 28 discriminator 1 view .LVU755
 2366 007e A342     		cmp	r3, r4
 2367 0080 01D1     		bne	.L171
 2368              	.L170:
 165:Middlewares/lvgl/src/core/lv_indev.c ****             }
 2369              		.loc 1 165 17 is_stmt 1 view .LVU756
 165:Middlewares/lvgl/src/core/lv_indev.c ****             }
 2370              		.loc 1 165 47 is_stmt 0 view .LVU757
 2371 0082 0023     		movs	r3, #0
 2372 0084 4362     		str	r3, [r0, #36]
 2373              	.L171:
 167:Middlewares/lvgl/src/core/lv_indev.c ****                 i->proc.types.pointer.last_obj = NULL;
 2374              		.loc 1 167 13 is_stmt 1 view .LVU758
 167:Middlewares/lvgl/src/core/lv_indev.c ****                 i->proc.types.pointer.last_obj = NULL;
 2375              		.loc 1 167 15 is_stmt 0 view .LVU759
 2376 0086 002C     		cmp	r4, #0
 2377 0088 E8D0     		beq	.L172
 167:Middlewares/lvgl/src/core/lv_indev.c ****                 i->proc.types.pointer.last_obj = NULL;
 2378              		.loc 1 167 52 discriminator 1 view .LVU760
 2379 008a 836A     		ldr	r3, [r0, #40]
 167:Middlewares/lvgl/src/core/lv_indev.c ****                 i->proc.types.pointer.last_obj = NULL;
 2380              		.loc 1 167 28 discriminator 1 view .LVU761
 2381 008c A342     		cmp	r3, r4
 2382 008e E7D1     		bne	.L173
 2383 0090 E4E7     		b	.L172
 2384              	.L177:
 172:Middlewares/lvgl/src/core/lv_indev.c ****     }
 2385              		.loc 1 172 9 is_stmt 1 view .LVU762
 172:Middlewares/lvgl/src/core/lv_indev.c ****     }
 2386              		.loc 1 172 23 is_stmt 0 view .LVU763
 2387 0092 034B     		ldr	r3, .L179+4
 2388 0094 0022     		movs	r2, #0
 2389 0096 1A60     		str	r2, [r3]
 2390              	.LBE9:
 174:Middlewares/lvgl/src/core/lv_indev.c **** 
 2391              		.loc 1 174 1 view .LVU764
 2392 0098 D0E7     		b	.L158
 2393              	.L180:
 2394 009a 00BF     		.align	2
 2395              	.L179:
 2396 009c 00000000 		.word	.LANCHOR1
 2397 00a0 00000000 		.word	.LANCHOR0
 2398              		.cfi_endproc
 2399              	.LFE157:
 2401              		.section	.text.lv_indev_reset_long_press,"ax",%progbits
 2402              		.align	1
 2403              		.global	lv_indev_reset_long_press
 2404              		.syntax unified
 2405              		.thumb
 2406              		.thumb_func
 2407              		.fpu softvfp
 2409              	lv_indev_reset_long_press:
ARM GAS  /tmp/cc4kiO2x.s 			page 75


 2410              	.LVL220:
 2411              	.LFB158:
 177:Middlewares/lvgl/src/core/lv_indev.c ****     indev->proc.long_pr_sent         = 0;
 2412              		.loc 1 177 1 is_stmt 1 view -0
 2413              		.cfi_startproc
 2414              		@ args = 0, pretend = 0, frame = 0
 2415              		@ frame_needed = 0, uses_anonymous_args = 0
 177:Middlewares/lvgl/src/core/lv_indev.c ****     indev->proc.long_pr_sent         = 0;
 2416              		.loc 1 177 1 is_stmt 0 view .LVU766
 2417 0000 10B5     		push	{r4, lr}
 2418              	.LCFI6:
 2419              		.cfi_def_cfa_offset 8
 2420              		.cfi_offset 4, -8
 2421              		.cfi_offset 14, -4
 2422 0002 0446     		mov	r4, r0
 178:Middlewares/lvgl/src/core/lv_indev.c ****     indev->proc.longpr_rep_timestamp = lv_tick_get();
 2423              		.loc 1 178 5 is_stmt 1 view .LVU767
 178:Middlewares/lvgl/src/core/lv_indev.c ****     indev->proc.longpr_rep_timestamp = lv_tick_get();
 2424              		.loc 1 178 38 is_stmt 0 view .LVU768
 2425 0004 4379     		ldrb	r3, [r0, #5]	@ zero_extendqisi2
 2426 0006 6FF30003 		bfc	r3, #0, #1
 2427 000a 4371     		strb	r3, [r0, #5]
 179:Middlewares/lvgl/src/core/lv_indev.c ****     indev->proc.pr_timestamp         = lv_tick_get();
 2428              		.loc 1 179 5 is_stmt 1 view .LVU769
 179:Middlewares/lvgl/src/core/lv_indev.c ****     indev->proc.pr_timestamp         = lv_tick_get();
 2429              		.loc 1 179 40 is_stmt 0 view .LVU770
 2430 000c FFF7FEFF 		bl	lv_tick_get
 2431              	.LVL221:
 179:Middlewares/lvgl/src/core/lv_indev.c ****     indev->proc.pr_timestamp         = lv_tick_get();
 2432              		.loc 1 179 38 view .LVU771
 2433 0010 A064     		str	r0, [r4, #72]
 180:Middlewares/lvgl/src/core/lv_indev.c **** }
 2434              		.loc 1 180 5 is_stmt 1 view .LVU772
 180:Middlewares/lvgl/src/core/lv_indev.c **** }
 2435              		.loc 1 180 40 is_stmt 0 view .LVU773
 2436 0012 FFF7FEFF 		bl	lv_tick_get
 2437              	.LVL222:
 180:Middlewares/lvgl/src/core/lv_indev.c **** }
 2438              		.loc 1 180 38 view .LVU774
 2439 0016 6064     		str	r0, [r4, #68]
 181:Middlewares/lvgl/src/core/lv_indev.c **** 
 2440              		.loc 1 181 1 view .LVU775
 2441 0018 10BD     		pop	{r4, pc}
 181:Middlewares/lvgl/src/core/lv_indev.c **** 
 2442              		.loc 1 181 1 view .LVU776
 2443              		.cfi_endproc
 2444              	.LFE158:
 2446              		.section	.text.lv_indev_set_cursor,"ax",%progbits
 2447              		.align	1
 2448              		.global	lv_indev_set_cursor
 2449              		.syntax unified
 2450              		.thumb
 2451              		.thumb_func
 2452              		.fpu softvfp
 2454              	lv_indev_set_cursor:
 2455              	.LVL223:
 2456              	.LFB159:
ARM GAS  /tmp/cc4kiO2x.s 			page 76


 184:Middlewares/lvgl/src/core/lv_indev.c ****     if(indev->driver->type != LV_INDEV_TYPE_POINTER) return;
 2457              		.loc 1 184 1 is_stmt 1 view -0
 2458              		.cfi_startproc
 2459              		@ args = 0, pretend = 0, frame = 0
 2460              		@ frame_needed = 0, uses_anonymous_args = 0
 184:Middlewares/lvgl/src/core/lv_indev.c ****     if(indev->driver->type != LV_INDEV_TYPE_POINTER) return;
 2461              		.loc 1 184 1 is_stmt 0 view .LVU778
 2462 0000 38B5     		push	{r3, r4, r5, lr}
 2463              	.LCFI7:
 2464              		.cfi_def_cfa_offset 16
 2465              		.cfi_offset 3, -16
 2466              		.cfi_offset 4, -12
 2467              		.cfi_offset 5, -8
 2468              		.cfi_offset 14, -4
 185:Middlewares/lvgl/src/core/lv_indev.c **** 
 2469              		.loc 1 185 5 is_stmt 1 view .LVU779
 185:Middlewares/lvgl/src/core/lv_indev.c **** 
 2470              		.loc 1 185 13 is_stmt 0 view .LVU780
 2471 0002 0368     		ldr	r3, [r0]
 185:Middlewares/lvgl/src/core/lv_indev.c **** 
 2472              		.loc 1 185 21 view .LVU781
 2473 0004 1A78     		ldrb	r2, [r3]	@ zero_extendqisi2
 185:Middlewares/lvgl/src/core/lv_indev.c **** 
 2474              		.loc 1 185 7 view .LVU782
 2475 0006 012A     		cmp	r2, #1
 2476 0008 00D0     		beq	.L186
 2477              	.LVL224:
 2478              	.L183:
 192:Middlewares/lvgl/src/core/lv_indev.c **** 
 2479              		.loc 1 192 1 view .LVU783
 2480 000a 38BD     		pop	{r3, r4, r5, pc}
 2481              	.LVL225:
 2482              	.L186:
 192:Middlewares/lvgl/src/core/lv_indev.c **** 
 2483              		.loc 1 192 1 view .LVU784
 2484 000c 0446     		mov	r4, r0
 2485 000e 0D46     		mov	r5, r1
 187:Middlewares/lvgl/src/core/lv_indev.c ****     lv_obj_set_parent(indev->cursor, lv_disp_get_layer_sys(indev->driver->disp));
 2486              		.loc 1 187 5 is_stmt 1 view .LVU785
 187:Middlewares/lvgl/src/core/lv_indev.c ****     lv_obj_set_parent(indev->cursor, lv_disp_get_layer_sys(indev->driver->disp));
 2487              		.loc 1 187 19 is_stmt 0 view .LVU786
 2488 0010 C164     		str	r1, [r0, #76]
 188:Middlewares/lvgl/src/core/lv_indev.c ****     lv_obj_set_pos(indev->cursor, indev->proc.types.pointer.act_point.x, indev->proc.types.pointer.
 2489              		.loc 1 188 5 is_stmt 1 view .LVU787
 188:Middlewares/lvgl/src/core/lv_indev.c ****     lv_obj_set_pos(indev->cursor, indev->proc.types.pointer.act_point.x, indev->proc.types.pointer.
 2490              		.loc 1 188 38 is_stmt 0 view .LVU788
 2491 0012 1869     		ldr	r0, [r3, #16]
 2492              	.LVL226:
 188:Middlewares/lvgl/src/core/lv_indev.c ****     lv_obj_set_pos(indev->cursor, indev->proc.types.pointer.act_point.x, indev->proc.types.pointer.
 2493              		.loc 1 188 38 view .LVU789
 2494 0014 FFF7FEFF 		bl	lv_disp_get_layer_sys
 2495              	.LVL227:
 188:Middlewares/lvgl/src/core/lv_indev.c ****     lv_obj_set_pos(indev->cursor, indev->proc.types.pointer.act_point.x, indev->proc.types.pointer.
 2496              		.loc 1 188 38 view .LVU790
 2497 0018 0146     		mov	r1, r0
 188:Middlewares/lvgl/src/core/lv_indev.c ****     lv_obj_set_pos(indev->cursor, indev->proc.types.pointer.act_point.x, indev->proc.types.pointer.
 2498              		.loc 1 188 5 view .LVU791
ARM GAS  /tmp/cc4kiO2x.s 			page 77


 2499 001a 2846     		mov	r0, r5
 2500 001c FFF7FEFF 		bl	lv_obj_set_parent
 2501              	.LVL228:
 189:Middlewares/lvgl/src/core/lv_indev.c ****     lv_obj_clear_flag(indev->cursor, LV_OBJ_FLAG_CLICKABLE);
 2502              		.loc 1 189 5 is_stmt 1 view .LVU792
 2503 0020 B4F90A20 		ldrsh	r2, [r4, #10]
 2504 0024 B4F90810 		ldrsh	r1, [r4, #8]
 2505 0028 E06C     		ldr	r0, [r4, #76]
 2506 002a FFF7FEFF 		bl	lv_obj_set_pos
 2507              	.LVL229:
 190:Middlewares/lvgl/src/core/lv_indev.c ****     lv_obj_add_flag(indev->cursor, LV_OBJ_FLAG_IGNORE_LAYOUT | LV_OBJ_FLAG_FLOATING);
 2508              		.loc 1 190 5 view .LVU793
 2509 002e 0221     		movs	r1, #2
 2510 0030 E06C     		ldr	r0, [r4, #76]
 2511 0032 FFF7FEFF 		bl	lv_obj_clear_flag
 2512              	.LVL230:
 191:Middlewares/lvgl/src/core/lv_indev.c **** }
 2513              		.loc 1 191 5 view .LVU794
 2514 0036 4FF4C031 		mov	r1, #98304
 2515 003a E06C     		ldr	r0, [r4, #76]
 2516 003c FFF7FEFF 		bl	lv_obj_add_flag
 2517              	.LVL231:
 2518 0040 E3E7     		b	.L183
 2519              		.cfi_endproc
 2520              	.LFE159:
 2522              		.section	.text.lv_indev_set_group,"ax",%progbits
 2523              		.align	1
 2524              		.global	lv_indev_set_group
 2525              		.syntax unified
 2526              		.thumb
 2527              		.thumb_func
 2528              		.fpu softvfp
 2530              	lv_indev_set_group:
 2531              	.LVL232:
 2532              	.LFB160:
 195:Middlewares/lvgl/src/core/lv_indev.c ****     if(indev->driver->type == LV_INDEV_TYPE_KEYPAD || indev->driver->type == LV_INDEV_TYPE_ENCODER)
 2533              		.loc 1 195 1 view -0
 2534              		.cfi_startproc
 2535              		@ args = 0, pretend = 0, frame = 0
 2536              		@ frame_needed = 0, uses_anonymous_args = 0
 2537              		@ link register save eliminated.
 196:Middlewares/lvgl/src/core/lv_indev.c ****         indev->group = group;
 2538              		.loc 1 196 5 view .LVU796
 196:Middlewares/lvgl/src/core/lv_indev.c ****         indev->group = group;
 2539              		.loc 1 196 13 is_stmt 0 view .LVU797
 2540 0000 0368     		ldr	r3, [r0]
 196:Middlewares/lvgl/src/core/lv_indev.c ****         indev->group = group;
 2541              		.loc 1 196 21 view .LVU798
 2542 0002 1B78     		ldrb	r3, [r3]	@ zero_extendqisi2
 196:Middlewares/lvgl/src/core/lv_indev.c ****         indev->group = group;
 2543              		.loc 1 196 7 view .LVU799
 2544 0004 022B     		cmp	r3, #2
 2545 0006 01D0     		beq	.L188
 196:Middlewares/lvgl/src/core/lv_indev.c ****         indev->group = group;
 2546              		.loc 1 196 52 discriminator 1 view .LVU800
 2547 0008 042B     		cmp	r3, #4
 2548 000a 00D1     		bne	.L187
ARM GAS  /tmp/cc4kiO2x.s 			page 78


 2549              	.L188:
 197:Middlewares/lvgl/src/core/lv_indev.c ****     }
 2550              		.loc 1 197 9 is_stmt 1 view .LVU801
 197:Middlewares/lvgl/src/core/lv_indev.c ****     }
 2551              		.loc 1 197 22 is_stmt 0 view .LVU802
 2552 000c 0165     		str	r1, [r0, #80]
 2553              	.L187:
 199:Middlewares/lvgl/src/core/lv_indev.c **** 
 2554              		.loc 1 199 1 view .LVU803
 2555 000e 7047     		bx	lr
 2556              		.cfi_endproc
 2557              	.LFE160:
 2559              		.section	.text.lv_indev_set_button_points,"ax",%progbits
 2560              		.align	1
 2561              		.global	lv_indev_set_button_points
 2562              		.syntax unified
 2563              		.thumb
 2564              		.thumb_func
 2565              		.fpu softvfp
 2567              	lv_indev_set_button_points:
 2568              	.LVL233:
 2569              	.LFB161:
 202:Middlewares/lvgl/src/core/lv_indev.c ****     if(indev->driver->type == LV_INDEV_TYPE_BUTTON) {
 2570              		.loc 1 202 1 is_stmt 1 view -0
 2571              		.cfi_startproc
 2572              		@ args = 0, pretend = 0, frame = 0
 2573              		@ frame_needed = 0, uses_anonymous_args = 0
 2574              		@ link register save eliminated.
 203:Middlewares/lvgl/src/core/lv_indev.c ****         indev->btn_points = points;
 2575              		.loc 1 203 5 view .LVU805
 203:Middlewares/lvgl/src/core/lv_indev.c ****         indev->btn_points = points;
 2576              		.loc 1 203 13 is_stmt 0 view .LVU806
 2577 0000 0368     		ldr	r3, [r0]
 203:Middlewares/lvgl/src/core/lv_indev.c ****         indev->btn_points = points;
 2578              		.loc 1 203 21 view .LVU807
 2579 0002 1B78     		ldrb	r3, [r3]	@ zero_extendqisi2
 203:Middlewares/lvgl/src/core/lv_indev.c ****         indev->btn_points = points;
 2580              		.loc 1 203 7 view .LVU808
 2581 0004 032B     		cmp	r3, #3
 2582 0006 00D0     		beq	.L192
 2583              	.L190:
 206:Middlewares/lvgl/src/core/lv_indev.c **** 
 2584              		.loc 1 206 1 view .LVU809
 2585 0008 7047     		bx	lr
 2586              	.L192:
 204:Middlewares/lvgl/src/core/lv_indev.c ****     }
 2587              		.loc 1 204 9 is_stmt 1 view .LVU810
 204:Middlewares/lvgl/src/core/lv_indev.c ****     }
 2588              		.loc 1 204 27 is_stmt 0 view .LVU811
 2589 000a 4165     		str	r1, [r0, #84]
 206:Middlewares/lvgl/src/core/lv_indev.c **** 
 2590              		.loc 1 206 1 view .LVU812
 2591 000c FCE7     		b	.L190
 2592              		.cfi_endproc
 2593              	.LFE161:
 2595              		.section	.text.lv_indev_get_point,"ax",%progbits
 2596              		.align	1
ARM GAS  /tmp/cc4kiO2x.s 			page 79


 2597              		.global	lv_indev_get_point
 2598              		.syntax unified
 2599              		.thumb
 2600              		.thumb_func
 2601              		.fpu softvfp
 2603              	lv_indev_get_point:
 2604              	.LVL234:
 2605              	.LFB162:
 209:Middlewares/lvgl/src/core/lv_indev.c ****     if(indev == NULL) {
 2606              		.loc 1 209 1 is_stmt 1 view -0
 2607              		.cfi_startproc
 2608              		@ args = 0, pretend = 0, frame = 0
 2609              		@ frame_needed = 0, uses_anonymous_args = 0
 2610              		@ link register save eliminated.
 210:Middlewares/lvgl/src/core/lv_indev.c ****         point->x = 0;
 2611              		.loc 1 210 5 view .LVU814
 210:Middlewares/lvgl/src/core/lv_indev.c ****         point->x = 0;
 2612              		.loc 1 210 7 is_stmt 0 view .LVU815
 2613 0000 0346     		mov	r3, r0
 2614 0002 50B1     		cbz	r0, .L197
 215:Middlewares/lvgl/src/core/lv_indev.c ****         point->x = -1;
 2615              		.loc 1 215 5 is_stmt 1 view .LVU816
 215:Middlewares/lvgl/src/core/lv_indev.c ****         point->x = -1;
 2616              		.loc 1 215 13 is_stmt 0 view .LVU817
 2617 0004 0268     		ldr	r2, [r0]
 215:Middlewares/lvgl/src/core/lv_indev.c ****         point->x = -1;
 2618              		.loc 1 215 21 view .LVU818
 2619 0006 1278     		ldrb	r2, [r2]	@ zero_extendqisi2
 215:Middlewares/lvgl/src/core/lv_indev.c ****         point->x = -1;
 2620              		.loc 1 215 7 view .LVU819
 2621 0008 012A     		cmp	r2, #1
 2622 000a 0AD0     		beq	.L196
 215:Middlewares/lvgl/src/core/lv_indev.c ****         point->x = -1;
 2623              		.loc 1 215 53 discriminator 1 view .LVU820
 2624 000c 032A     		cmp	r2, #3
 2625 000e 08D0     		beq	.L196
 216:Middlewares/lvgl/src/core/lv_indev.c ****         point->y = -1;
 2626              		.loc 1 216 9 is_stmt 1 view .LVU821
 216:Middlewares/lvgl/src/core/lv_indev.c ****         point->y = -1;
 2627              		.loc 1 216 18 is_stmt 0 view .LVU822
 2628 0010 4FF6FF73 		movw	r3, #65535
 2629 0014 0B80     		strh	r3, [r1]	@ movhi
 217:Middlewares/lvgl/src/core/lv_indev.c ****     }
 2630              		.loc 1 217 9 is_stmt 1 view .LVU823
 217:Middlewares/lvgl/src/core/lv_indev.c ****     }
 2631              		.loc 1 217 18 is_stmt 0 view .LVU824
 2632 0016 4B80     		strh	r3, [r1, #2]	@ movhi
 2633 0018 7047     		bx	lr
 2634              	.L197:
 211:Middlewares/lvgl/src/core/lv_indev.c ****         point->y = 0;
 2635              		.loc 1 211 9 is_stmt 1 view .LVU825
 211:Middlewares/lvgl/src/core/lv_indev.c ****         point->y = 0;
 2636              		.loc 1 211 18 is_stmt 0 view .LVU826
 2637 001a 0023     		movs	r3, #0
 2638 001c 0B80     		strh	r3, [r1]	@ movhi
 212:Middlewares/lvgl/src/core/lv_indev.c ****         return;
 2639              		.loc 1 212 9 is_stmt 1 view .LVU827
ARM GAS  /tmp/cc4kiO2x.s 			page 80


 212:Middlewares/lvgl/src/core/lv_indev.c ****         return;
 2640              		.loc 1 212 18 is_stmt 0 view .LVU828
 2641 001e 4B80     		strh	r3, [r1, #2]	@ movhi
 213:Middlewares/lvgl/src/core/lv_indev.c ****     }
 2642              		.loc 1 213 9 is_stmt 1 view .LVU829
 2643 0020 7047     		bx	lr
 2644              	.L196:
 220:Middlewares/lvgl/src/core/lv_indev.c ****         point->y = indev->proc.types.pointer.act_point.y;
 2645              		.loc 1 220 9 view .LVU830
 220:Middlewares/lvgl/src/core/lv_indev.c ****         point->y = indev->proc.types.pointer.act_point.y;
 2646              		.loc 1 220 55 is_stmt 0 view .LVU831
 2647 0022 B3F90820 		ldrsh	r2, [r3, #8]
 220:Middlewares/lvgl/src/core/lv_indev.c ****         point->y = indev->proc.types.pointer.act_point.y;
 2648              		.loc 1 220 18 view .LVU832
 2649 0026 0A80     		strh	r2, [r1]	@ movhi
 221:Middlewares/lvgl/src/core/lv_indev.c ****     }
 2650              		.loc 1 221 9 is_stmt 1 view .LVU833
 221:Middlewares/lvgl/src/core/lv_indev.c ****     }
 2651              		.loc 1 221 55 is_stmt 0 view .LVU834
 2652 0028 B3F90A30 		ldrsh	r3, [r3, #10]
 221:Middlewares/lvgl/src/core/lv_indev.c ****     }
 2653              		.loc 1 221 18 view .LVU835
 2654 002c 4B80     		strh	r3, [r1, #2]	@ movhi
 223:Middlewares/lvgl/src/core/lv_indev.c **** 
 2655              		.loc 1 223 1 view .LVU836
 2656 002e 7047     		bx	lr
 2657              		.cfi_endproc
 2658              	.LFE162:
 2660              		.section	.text.lv_indev_get_gesture_dir,"ax",%progbits
 2661              		.align	1
 2662              		.global	lv_indev_get_gesture_dir
 2663              		.syntax unified
 2664              		.thumb
 2665              		.thumb_func
 2666              		.fpu softvfp
 2668              	lv_indev_get_gesture_dir:
 2669              	.LVL235:
 2670              	.LFB163:
 226:Middlewares/lvgl/src/core/lv_indev.c ****     return indev->proc.types.pointer.gesture_dir;
 2671              		.loc 1 226 1 is_stmt 1 view -0
 2672              		.cfi_startproc
 2673              		@ args = 0, pretend = 0, frame = 0
 2674              		@ frame_needed = 0, uses_anonymous_args = 0
 2675              		@ link register save eliminated.
 227:Middlewares/lvgl/src/core/lv_indev.c **** }
 2676              		.loc 1 227 5 view .LVU838
 227:Middlewares/lvgl/src/core/lv_indev.c **** }
 2677              		.loc 1 227 37 is_stmt 0 view .LVU839
 2678 0000 90F84000 		ldrb	r0, [r0, #64]	@ zero_extendqisi2
 2679              	.LVL236:
 228:Middlewares/lvgl/src/core/lv_indev.c **** 
 2680              		.loc 1 228 1 view .LVU840
 2681 0004 0009     		lsrs	r0, r0, #4
 2682 0006 7047     		bx	lr
 2683              		.cfi_endproc
 2684              	.LFE163:
 2686              		.section	.text.lv_indev_get_key,"ax",%progbits
ARM GAS  /tmp/cc4kiO2x.s 			page 81


 2687              		.align	1
 2688              		.global	lv_indev_get_key
 2689              		.syntax unified
 2690              		.thumb
 2691              		.thumb_func
 2692              		.fpu softvfp
 2694              	lv_indev_get_key:
 2695              	.LVL237:
 2696              	.LFB164:
 231:Middlewares/lvgl/src/core/lv_indev.c ****     if(indev->driver->type != LV_INDEV_TYPE_KEYPAD)
 2697              		.loc 1 231 1 is_stmt 1 view -0
 2698              		.cfi_startproc
 2699              		@ args = 0, pretend = 0, frame = 0
 2700              		@ frame_needed = 0, uses_anonymous_args = 0
 2701              		@ link register save eliminated.
 232:Middlewares/lvgl/src/core/lv_indev.c ****         return 0;
 2702              		.loc 1 232 5 view .LVU842
 232:Middlewares/lvgl/src/core/lv_indev.c ****         return 0;
 2703              		.loc 1 232 13 is_stmt 0 view .LVU843
 2704 0000 0368     		ldr	r3, [r0]
 232:Middlewares/lvgl/src/core/lv_indev.c ****         return 0;
 2705              		.loc 1 232 21 view .LVU844
 2706 0002 1B78     		ldrb	r3, [r3]	@ zero_extendqisi2
 232:Middlewares/lvgl/src/core/lv_indev.c ****         return 0;
 2707              		.loc 1 232 7 view .LVU845
 2708 0004 022B     		cmp	r3, #2
 2709 0006 01D0     		beq	.L202
 233:Middlewares/lvgl/src/core/lv_indev.c ****     else
 2710              		.loc 1 233 16 view .LVU846
 2711 0008 0020     		movs	r0, #0
 2712              	.LVL238:
 236:Middlewares/lvgl/src/core/lv_indev.c **** 
 2713              		.loc 1 236 1 view .LVU847
 2714 000a 7047     		bx	lr
 2715              	.LVL239:
 2716              	.L202:
 235:Middlewares/lvgl/src/core/lv_indev.c **** }
 2717              		.loc 1 235 9 is_stmt 1 view .LVU848
 235:Middlewares/lvgl/src/core/lv_indev.c **** }
 2718              		.loc 1 235 40 is_stmt 0 view .LVU849
 2719 000c C068     		ldr	r0, [r0, #12]
 2720              	.LVL240:
 235:Middlewares/lvgl/src/core/lv_indev.c **** }
 2721              		.loc 1 235 40 view .LVU850
 2722 000e 7047     		bx	lr
 2723              		.cfi_endproc
 2724              	.LFE164:
 2726              		.section	.text.lv_indev_get_scroll_dir,"ax",%progbits
 2727              		.align	1
 2728              		.global	lv_indev_get_scroll_dir
 2729              		.syntax unified
 2730              		.thumb
 2731              		.thumb_func
 2732              		.fpu softvfp
 2734              	lv_indev_get_scroll_dir:
 2735              	.LVL241:
 2736              	.LFB165:
ARM GAS  /tmp/cc4kiO2x.s 			page 82


 239:Middlewares/lvgl/src/core/lv_indev.c ****     if(indev == NULL) return false;
 2737              		.loc 1 239 1 is_stmt 1 view -0
 2738              		.cfi_startproc
 2739              		@ args = 0, pretend = 0, frame = 0
 2740              		@ frame_needed = 0, uses_anonymous_args = 0
 2741              		@ link register save eliminated.
 240:Middlewares/lvgl/src/core/lv_indev.c ****     if(indev->driver->type != LV_INDEV_TYPE_POINTER && indev->driver->type != LV_INDEV_TYPE_BUTTON)
 2742              		.loc 1 240 5 view .LVU852
 240:Middlewares/lvgl/src/core/lv_indev.c ****     if(indev->driver->type != LV_INDEV_TYPE_POINTER && indev->driver->type != LV_INDEV_TYPE_BUTTON)
 2743              		.loc 1 240 7 is_stmt 0 view .LVU853
 2744 0000 0346     		mov	r3, r0
 2745 0002 50B1     		cbz	r0, .L206
 241:Middlewares/lvgl/src/core/lv_indev.c ****     return indev->proc.types.pointer.scroll_dir;
 2746              		.loc 1 241 5 is_stmt 1 view .LVU854
 241:Middlewares/lvgl/src/core/lv_indev.c ****     return indev->proc.types.pointer.scroll_dir;
 2747              		.loc 1 241 13 is_stmt 0 view .LVU855
 2748 0004 0268     		ldr	r2, [r0]
 241:Middlewares/lvgl/src/core/lv_indev.c ****     return indev->proc.types.pointer.scroll_dir;
 2749              		.loc 1 241 21 view .LVU856
 2750 0006 1278     		ldrb	r2, [r2]	@ zero_extendqisi2
 241:Middlewares/lvgl/src/core/lv_indev.c ****     return indev->proc.types.pointer.scroll_dir;
 2751              		.loc 1 241 7 view .LVU857
 2752 0008 012A     		cmp	r2, #1
 2753 000a 01D0     		beq	.L205
 241:Middlewares/lvgl/src/core/lv_indev.c ****     return indev->proc.types.pointer.scroll_dir;
 2754              		.loc 1 241 53 discriminator 1 view .LVU858
 2755 000c 032A     		cmp	r2, #3
 2756 000e 06D1     		bne	.L207
 2757              	.L205:
 242:Middlewares/lvgl/src/core/lv_indev.c **** }
 2758              		.loc 1 242 5 is_stmt 1 view .LVU859
 242:Middlewares/lvgl/src/core/lv_indev.c **** }
 2759              		.loc 1 242 37 is_stmt 0 view .LVU860
 2760 0010 93F84000 		ldrb	r0, [r3, #64]	@ zero_extendqisi2
 2761              	.LVL242:
 242:Middlewares/lvgl/src/core/lv_indev.c **** }
 2762              		.loc 1 242 37 view .LVU861
 2763 0014 00F00F00 		and	r0, r0, #15
 2764 0018 7047     		bx	lr
 2765              	.LVL243:
 2766              	.L206:
 240:Middlewares/lvgl/src/core/lv_indev.c ****     if(indev->driver->type != LV_INDEV_TYPE_POINTER && indev->driver->type != LV_INDEV_TYPE_BUTTON)
 2767              		.loc 1 240 30 view .LVU862
 2768 001a 0020     		movs	r0, #0
 2769              	.LVL244:
 240:Middlewares/lvgl/src/core/lv_indev.c ****     if(indev->driver->type != LV_INDEV_TYPE_POINTER && indev->driver->type != LV_INDEV_TYPE_BUTTON)
 2770              		.loc 1 240 30 view .LVU863
 2771 001c 7047     		bx	lr
 2772              	.LVL245:
 2773              	.L207:
 241:Middlewares/lvgl/src/core/lv_indev.c ****     return indev->proc.types.pointer.scroll_dir;
 2774              		.loc 1 241 108 view .LVU864
 2775 001e 0020     		movs	r0, #0
 2776              	.LVL246:
 243:Middlewares/lvgl/src/core/lv_indev.c **** 
 2777              		.loc 1 243 1 view .LVU865
 2778 0020 7047     		bx	lr
ARM GAS  /tmp/cc4kiO2x.s 			page 83


 2779              		.cfi_endproc
 2780              	.LFE165:
 2782              		.section	.text.lv_indev_get_scroll_obj,"ax",%progbits
 2783              		.align	1
 2784              		.global	lv_indev_get_scroll_obj
 2785              		.syntax unified
 2786              		.thumb
 2787              		.thumb_func
 2788              		.fpu softvfp
 2790              	lv_indev_get_scroll_obj:
 2791              	.LVL247:
 2792              	.LFB166:
 246:Middlewares/lvgl/src/core/lv_indev.c ****     if(indev == NULL) return NULL;
 2793              		.loc 1 246 1 is_stmt 1 view -0
 2794              		.cfi_startproc
 2795              		@ args = 0, pretend = 0, frame = 0
 2796              		@ frame_needed = 0, uses_anonymous_args = 0
 2797              		@ link register save eliminated.
 247:Middlewares/lvgl/src/core/lv_indev.c ****     if(indev->driver->type != LV_INDEV_TYPE_POINTER && indev->driver->type != LV_INDEV_TYPE_BUTTON)
 2798              		.loc 1 247 5 view .LVU867
 247:Middlewares/lvgl/src/core/lv_indev.c ****     if(indev->driver->type != LV_INDEV_TYPE_POINTER && indev->driver->type != LV_INDEV_TYPE_BUTTON)
 2799              		.loc 1 247 7 is_stmt 0 view .LVU868
 2800 0000 0346     		mov	r3, r0
 2801 0002 38B1     		cbz	r0, .L211
 248:Middlewares/lvgl/src/core/lv_indev.c ****     return indev->proc.types.pointer.scroll_obj;
 2802              		.loc 1 248 5 is_stmt 1 view .LVU869
 248:Middlewares/lvgl/src/core/lv_indev.c ****     return indev->proc.types.pointer.scroll_obj;
 2803              		.loc 1 248 13 is_stmt 0 view .LVU870
 2804 0004 0268     		ldr	r2, [r0]
 248:Middlewares/lvgl/src/core/lv_indev.c ****     return indev->proc.types.pointer.scroll_obj;
 2805              		.loc 1 248 21 view .LVU871
 2806 0006 1278     		ldrb	r2, [r2]	@ zero_extendqisi2
 248:Middlewares/lvgl/src/core/lv_indev.c ****     return indev->proc.types.pointer.scroll_obj;
 2807              		.loc 1 248 7 view .LVU872
 2808 0008 012A     		cmp	r2, #1
 2809 000a 01D0     		beq	.L210
 248:Middlewares/lvgl/src/core/lv_indev.c ****     return indev->proc.types.pointer.scroll_obj;
 2810              		.loc 1 248 53 discriminator 1 view .LVU873
 2811 000c 032A     		cmp	r2, #3
 2812 000e 02D1     		bne	.L212
 2813              	.L210:
 249:Middlewares/lvgl/src/core/lv_indev.c **** }
 2814              		.loc 1 249 5 is_stmt 1 view .LVU874
 249:Middlewares/lvgl/src/core/lv_indev.c **** }
 2815              		.loc 1 249 37 is_stmt 0 view .LVU875
 2816 0010 D86A     		ldr	r0, [r3, #44]
 2817              	.LVL248:
 249:Middlewares/lvgl/src/core/lv_indev.c **** }
 2818              		.loc 1 249 37 view .LVU876
 2819 0012 7047     		bx	lr
 2820              	.LVL249:
 2821              	.L211:
 249:Middlewares/lvgl/src/core/lv_indev.c **** }
 2822              		.loc 1 249 37 view .LVU877
 2823 0014 7047     		bx	lr
 2824              	.L212:
 248:Middlewares/lvgl/src/core/lv_indev.c ****     return indev->proc.types.pointer.scroll_obj;
ARM GAS  /tmp/cc4kiO2x.s 			page 84


 2825              		.loc 1 248 108 view .LVU878
 2826 0016 0020     		movs	r0, #0
 2827              	.LVL250:
 250:Middlewares/lvgl/src/core/lv_indev.c **** 
 2828              		.loc 1 250 1 view .LVU879
 2829 0018 7047     		bx	lr
 2830              		.cfi_endproc
 2831              	.LFE166:
 2833              		.section	.text.lv_indev_get_vect,"ax",%progbits
 2834              		.align	1
 2835              		.global	lv_indev_get_vect
 2836              		.syntax unified
 2837              		.thumb
 2838              		.thumb_func
 2839              		.fpu softvfp
 2841              	lv_indev_get_vect:
 2842              	.LVL251:
 2843              	.LFB167:
 253:Middlewares/lvgl/src/core/lv_indev.c ****     point->x = 0;
 2844              		.loc 1 253 1 is_stmt 1 view -0
 2845              		.cfi_startproc
 2846              		@ args = 0, pretend = 0, frame = 0
 2847              		@ frame_needed = 0, uses_anonymous_args = 0
 2848              		@ link register save eliminated.
 254:Middlewares/lvgl/src/core/lv_indev.c ****     point->y = 0;
 2849              		.loc 1 254 5 view .LVU881
 254:Middlewares/lvgl/src/core/lv_indev.c ****     point->y = 0;
 2850              		.loc 1 254 14 is_stmt 0 view .LVU882
 2851 0000 0023     		movs	r3, #0
 2852 0002 0B80     		strh	r3, [r1]	@ movhi
 255:Middlewares/lvgl/src/core/lv_indev.c **** 
 2853              		.loc 1 255 5 is_stmt 1 view .LVU883
 255:Middlewares/lvgl/src/core/lv_indev.c **** 
 2854              		.loc 1 255 14 is_stmt 0 view .LVU884
 2855 0004 4B80     		strh	r3, [r1, #2]	@ movhi
 257:Middlewares/lvgl/src/core/lv_indev.c **** 
 2856              		.loc 1 257 5 is_stmt 1 view .LVU885
 257:Middlewares/lvgl/src/core/lv_indev.c **** 
 2857              		.loc 1 257 7 is_stmt 0 view .LVU886
 2858 0006 0346     		mov	r3, r0
 2859 0008 58B1     		cbz	r0, .L213
 259:Middlewares/lvgl/src/core/lv_indev.c ****         point->x = indev->proc.types.pointer.vect.x;
 2860              		.loc 1 259 5 is_stmt 1 view .LVU887
 259:Middlewares/lvgl/src/core/lv_indev.c ****         point->x = indev->proc.types.pointer.vect.x;
 2861              		.loc 1 259 13 is_stmt 0 view .LVU888
 2862 000a 0268     		ldr	r2, [r0]
 259:Middlewares/lvgl/src/core/lv_indev.c ****         point->x = indev->proc.types.pointer.vect.x;
 2863              		.loc 1 259 21 view .LVU889
 2864 000c 1278     		ldrb	r2, [r2]	@ zero_extendqisi2
 259:Middlewares/lvgl/src/core/lv_indev.c ****         point->x = indev->proc.types.pointer.vect.x;
 2865              		.loc 1 259 7 view .LVU890
 2866 000e 012A     		cmp	r2, #1
 2867 0010 01D0     		beq	.L215
 259:Middlewares/lvgl/src/core/lv_indev.c ****         point->x = indev->proc.types.pointer.vect.x;
 2868              		.loc 1 259 53 discriminator 1 view .LVU891
 2869 0012 032A     		cmp	r2, #3
 2870 0014 05D1     		bne	.L213
ARM GAS  /tmp/cc4kiO2x.s 			page 85


 2871              	.L215:
 260:Middlewares/lvgl/src/core/lv_indev.c ****         point->y = indev->proc.types.pointer.vect.y;
 2872              		.loc 1 260 9 is_stmt 1 view .LVU892
 260:Middlewares/lvgl/src/core/lv_indev.c ****         point->y = indev->proc.types.pointer.vect.y;
 2873              		.loc 1 260 50 is_stmt 0 view .LVU893
 2874 0016 B3F91420 		ldrsh	r2, [r3, #20]
 260:Middlewares/lvgl/src/core/lv_indev.c ****         point->y = indev->proc.types.pointer.vect.y;
 2875              		.loc 1 260 18 view .LVU894
 2876 001a 0A80     		strh	r2, [r1]	@ movhi
 261:Middlewares/lvgl/src/core/lv_indev.c ****     }
 2877              		.loc 1 261 9 is_stmt 1 view .LVU895
 261:Middlewares/lvgl/src/core/lv_indev.c ****     }
 2878              		.loc 1 261 50 is_stmt 0 view .LVU896
 2879 001c B3F91630 		ldrsh	r3, [r3, #22]
 261:Middlewares/lvgl/src/core/lv_indev.c ****     }
 2880              		.loc 1 261 18 view .LVU897
 2881 0020 4B80     		strh	r3, [r1, #2]	@ movhi
 2882              	.L213:
 263:Middlewares/lvgl/src/core/lv_indev.c **** 
 2883              		.loc 1 263 1 view .LVU898
 2884 0022 7047     		bx	lr
 2885              		.cfi_endproc
 2886              	.LFE167:
 2888              		.section	.text.lv_indev_wait_release,"ax",%progbits
 2889              		.align	1
 2890              		.global	lv_indev_wait_release
 2891              		.syntax unified
 2892              		.thumb
 2893              		.thumb_func
 2894              		.fpu softvfp
 2896              	lv_indev_wait_release:
 2897              	.LVL252:
 2898              	.LFB168:
 266:Middlewares/lvgl/src/core/lv_indev.c ****     if(indev == NULL)return;
 2899              		.loc 1 266 1 is_stmt 1 view -0
 2900              		.cfi_startproc
 2901              		@ args = 0, pretend = 0, frame = 0
 2902              		@ frame_needed = 0, uses_anonymous_args = 0
 2903              		@ link register save eliminated.
 267:Middlewares/lvgl/src/core/lv_indev.c ****     indev->proc.wait_until_release = 1;
 2904              		.loc 1 267 5 view .LVU900
 267:Middlewares/lvgl/src/core/lv_indev.c ****     indev->proc.wait_until_release = 1;
 2905              		.loc 1 267 7 is_stmt 0 view .LVU901
 2906 0000 18B1     		cbz	r0, .L216
 268:Middlewares/lvgl/src/core/lv_indev.c **** }
 2907              		.loc 1 268 5 is_stmt 1 view .LVU902
 268:Middlewares/lvgl/src/core/lv_indev.c **** }
 2908              		.loc 1 268 36 is_stmt 0 view .LVU903
 2909 0002 4379     		ldrb	r3, [r0, #5]	@ zero_extendqisi2
 2910 0004 43F00803 		orr	r3, r3, #8
 2911 0008 4371     		strb	r3, [r0, #5]
 2912              	.L216:
 269:Middlewares/lvgl/src/core/lv_indev.c **** 
 2913              		.loc 1 269 1 view .LVU904
 2914 000a 7047     		bx	lr
 2915              		.cfi_endproc
 2916              	.LFE168:
ARM GAS  /tmp/cc4kiO2x.s 			page 86


 2918              		.section	.text.lv_indev_get_obj_act,"ax",%progbits
 2919              		.align	1
 2920              		.global	lv_indev_get_obj_act
 2921              		.syntax unified
 2922              		.thumb
 2923              		.thumb_func
 2924              		.fpu softvfp
 2926              	lv_indev_get_obj_act:
 2927              	.LFB169:
 272:Middlewares/lvgl/src/core/lv_indev.c ****     return indev_obj_act;
 2928              		.loc 1 272 1 is_stmt 1 view -0
 2929              		.cfi_startproc
 2930              		@ args = 0, pretend = 0, frame = 0
 2931              		@ frame_needed = 0, uses_anonymous_args = 0
 2932              		@ link register save eliminated.
 273:Middlewares/lvgl/src/core/lv_indev.c **** }
 2933              		.loc 1 273 5 view .LVU906
 274:Middlewares/lvgl/src/core/lv_indev.c **** 
 2934              		.loc 1 274 1 is_stmt 0 view .LVU907
 2935 0000 014B     		ldr	r3, .L219
 2936 0002 1868     		ldr	r0, [r3]
 2937 0004 7047     		bx	lr
 2938              	.L220:
 2939 0006 00BF     		.align	2
 2940              	.L219:
 2941 0008 00000000 		.word	.LANCHOR0
 2942              		.cfi_endproc
 2943              	.LFE169:
 2945              		.section	.text.lv_indev_get_read_timer,"ax",%progbits
 2946              		.align	1
 2947              		.global	lv_indev_get_read_timer
 2948              		.syntax unified
 2949              		.thumb
 2950              		.thumb_func
 2951              		.fpu softvfp
 2953              	lv_indev_get_read_timer:
 2954              	.LVL253:
 2955              	.LFB170:
 277:Middlewares/lvgl/src/core/lv_indev.c ****     if(!indev) {
 2956              		.loc 1 277 1 is_stmt 1 view -0
 2957              		.cfi_startproc
 2958              		@ args = 0, pretend = 0, frame = 0
 2959              		@ frame_needed = 0, uses_anonymous_args = 0
 2960              		@ link register save eliminated.
 278:Middlewares/lvgl/src/core/lv_indev.c ****         LV_LOG_WARN("lv_indev_get_read_timer: indev was NULL");
 2961              		.loc 1 278 5 view .LVU909
 278:Middlewares/lvgl/src/core/lv_indev.c ****         LV_LOG_WARN("lv_indev_get_read_timer: indev was NULL");
 2962              		.loc 1 278 7 is_stmt 0 view .LVU910
 2963 0000 08B1     		cbz	r0, .L223
 283:Middlewares/lvgl/src/core/lv_indev.c **** }
 2964              		.loc 1 283 5 is_stmt 1 view .LVU911
 283:Middlewares/lvgl/src/core/lv_indev.c **** }
 2965              		.loc 1 283 17 is_stmt 0 view .LVU912
 2966 0002 4068     		ldr	r0, [r0, #4]
 2967              	.LVL254:
 283:Middlewares/lvgl/src/core/lv_indev.c **** }
 2968              		.loc 1 283 17 view .LVU913
ARM GAS  /tmp/cc4kiO2x.s 			page 87


 2969 0004 7047     		bx	lr
 2970              	.LVL255:
 2971              	.L223:
 284:Middlewares/lvgl/src/core/lv_indev.c **** 
 2972              		.loc 1 284 1 view .LVU914
 2973 0006 7047     		bx	lr
 2974              		.cfi_endproc
 2975              	.LFE170:
 2977              		.section	.text.lv_indev_search_obj,"ax",%progbits
 2978              		.align	1
 2979              		.global	lv_indev_search_obj
 2980              		.syntax unified
 2981              		.thumb
 2982              		.thumb_func
 2983              		.fpu softvfp
 2985              	lv_indev_search_obj:
 2986              	.LVL256:
 2987              	.LFB171:
 287:Middlewares/lvgl/src/core/lv_indev.c ****     lv_obj_t * found_p = NULL;
 2988              		.loc 1 287 1 is_stmt 1 view -0
 2989              		.cfi_startproc
 2990              		@ args = 0, pretend = 0, frame = 0
 2991              		@ frame_needed = 0, uses_anonymous_args = 0
 287:Middlewares/lvgl/src/core/lv_indev.c ****     lv_obj_t * found_p = NULL;
 2992              		.loc 1 287 1 is_stmt 0 view .LVU916
 2993 0000 F8B5     		push	{r3, r4, r5, r6, r7, lr}
 2994              	.LCFI8:
 2995              		.cfi_def_cfa_offset 24
 2996              		.cfi_offset 3, -24
 2997              		.cfi_offset 4, -20
 2998              		.cfi_offset 5, -16
 2999              		.cfi_offset 6, -12
 3000              		.cfi_offset 7, -8
 3001              		.cfi_offset 14, -4
 3002 0002 0546     		mov	r5, r0
 3003 0004 0E46     		mov	r6, r1
 288:Middlewares/lvgl/src/core/lv_indev.c **** 
 3004              		.loc 1 288 5 is_stmt 1 view .LVU917
 3005              	.LVL257:
 291:Middlewares/lvgl/src/core/lv_indev.c ****         int32_t i;
 3006              		.loc 1 291 5 view .LVU918
 291:Middlewares/lvgl/src/core/lv_indev.c ****         int32_t i;
 3007              		.loc 1 291 8 is_stmt 0 view .LVU919
 3008 0006 FFF7FEFF 		bl	lv_obj_hit_test
 3009              	.LVL258:
 291:Middlewares/lvgl/src/core/lv_indev.c ****         int32_t i;
 3010              		.loc 1 291 7 view .LVU920
 3011 000a 60B3     		cbz	r0, .L232
 3012              	.LBB10:
 292:Middlewares/lvgl/src/core/lv_indev.c ****         for(i = lv_obj_get_child_cnt(obj) - 1; i >= 0; i--) {
 3013              		.loc 1 292 9 is_stmt 1 view .LVU921
 293:Middlewares/lvgl/src/core/lv_indev.c ****             lv_obj_t * child = lv_obj_get_child(obj, i);
 3014              		.loc 1 293 9 view .LVU922
 293:Middlewares/lvgl/src/core/lv_indev.c ****             lv_obj_t * child = lv_obj_get_child(obj, i);
 3015              		.loc 1 293 17 is_stmt 0 view .LVU923
 3016 000c 2846     		mov	r0, r5
 3017 000e FFF7FEFF 		bl	lv_obj_get_child_cnt
ARM GAS  /tmp/cc4kiO2x.s 			page 88


 3018              	.LVL259:
 293:Middlewares/lvgl/src/core/lv_indev.c ****             lv_obj_t * child = lv_obj_get_child(obj, i);
 3019              		.loc 1 293 43 view .LVU924
 3020 0012 441E     		subs	r4, r0, #1
 3021              	.LVL260:
 293:Middlewares/lvgl/src/core/lv_indev.c ****             lv_obj_t * child = lv_obj_get_child(obj, i);
 3022              		.loc 1 293 43 view .LVU925
 3023              	.LBE10:
 288:Middlewares/lvgl/src/core/lv_indev.c **** 
 3024              		.loc 1 288 16 view .LVU926
 3025 0014 0027     		movs	r7, #0
 3026              	.LVL261:
 3027              	.L226:
 3028              	.LBB13:
 293:Middlewares/lvgl/src/core/lv_indev.c ****             lv_obj_t * child = lv_obj_get_child(obj, i);
 3029              		.loc 1 293 48 is_stmt 1 discriminator 1 view .LVU927
 293:Middlewares/lvgl/src/core/lv_indev.c ****             lv_obj_t * child = lv_obj_get_child(obj, i);
 3030              		.loc 1 293 9 is_stmt 0 discriminator 1 view .LVU928
 3031 0016 002C     		cmp	r4, #0
 3032 0018 0ADB     		blt	.L227
 3033              	.LBB11:
 294:Middlewares/lvgl/src/core/lv_indev.c ****             found_p = lv_indev_search_obj(child, point);
 3034              		.loc 1 294 13 is_stmt 1 view .LVU929
 294:Middlewares/lvgl/src/core/lv_indev.c ****             found_p = lv_indev_search_obj(child, point);
 3035              		.loc 1 294 32 is_stmt 0 view .LVU930
 3036 001a 2146     		mov	r1, r4
 3037 001c 2846     		mov	r0, r5
 3038 001e FFF7FEFF 		bl	lv_obj_get_child
 3039              	.LVL262:
 295:Middlewares/lvgl/src/core/lv_indev.c **** 
 3040              		.loc 1 295 13 is_stmt 1 view .LVU931
 295:Middlewares/lvgl/src/core/lv_indev.c **** 
 3041              		.loc 1 295 23 is_stmt 0 view .LVU932
 3042 0022 3146     		mov	r1, r6
 3043 0024 FFF7FEFF 		bl	lv_indev_search_obj
 3044              	.LVL263:
 298:Middlewares/lvgl/src/core/lv_indev.c ****         }
 3045              		.loc 1 298 13 is_stmt 1 view .LVU933
 298:Middlewares/lvgl/src/core/lv_indev.c ****         }
 3046              		.loc 1 298 15 is_stmt 0 view .LVU934
 3047 0028 0746     		mov	r7, r0
 3048 002a 08B9     		cbnz	r0, .L227
 3049              	.LBE11:
 293:Middlewares/lvgl/src/core/lv_indev.c ****             lv_obj_t * child = lv_obj_get_child(obj, i);
 3050              		.loc 1 293 56 is_stmt 1 discriminator 2 view .LVU935
 293:Middlewares/lvgl/src/core/lv_indev.c ****             lv_obj_t * child = lv_obj_get_child(obj, i);
 3051              		.loc 1 293 57 is_stmt 0 discriminator 2 view .LVU936
 3052 002c 013C     		subs	r4, r4, #1
 3053              	.LVL264:
 293:Middlewares/lvgl/src/core/lv_indev.c ****             lv_obj_t * child = lv_obj_get_child(obj, i);
 3054              		.loc 1 293 57 discriminator 2 view .LVU937
 3055 002e F2E7     		b	.L226
 3056              	.LVL265:
 3057              	.L227:
 303:Middlewares/lvgl/src/core/lv_indev.c ****             lv_obj_t * hidden_i = obj;
 3058              		.loc 1 303 9 is_stmt 1 view .LVU938
 303:Middlewares/lvgl/src/core/lv_indev.c ****             lv_obj_t * hidden_i = obj;
ARM GAS  /tmp/cc4kiO2x.s 			page 89


 3059              		.loc 1 303 11 is_stmt 0 view .LVU939
 3060 0030 D7B9     		cbnz	r7, .L224
 303:Middlewares/lvgl/src/core/lv_indev.c ****             lv_obj_t * hidden_i = obj;
 3061              		.loc 1 303 31 discriminator 1 view .LVU940
 3062 0032 0221     		movs	r1, #2
 3063 0034 2846     		mov	r0, r5
 3064 0036 FFF7FEFF 		bl	lv_obj_has_flag
 3065              	.LVL266:
 303:Middlewares/lvgl/src/core/lv_indev.c ****             lv_obj_t * hidden_i = obj;
 3066              		.loc 1 303 28 discriminator 1 view .LVU941
 3067 003a A8B1     		cbz	r0, .L224
 3068              	.LBB12:
 304:Middlewares/lvgl/src/core/lv_indev.c ****             while(hidden_i != NULL) {
 3069              		.loc 1 304 24 view .LVU942
 3070 003c 2C46     		mov	r4, r5
 3071              	.LVL267:
 3072              	.L229:
 305:Middlewares/lvgl/src/core/lv_indev.c ****                 if(lv_obj_has_flag(hidden_i, LV_OBJ_FLAG_HIDDEN) == true) break;
 3073              		.loc 1 305 18 is_stmt 1 view .LVU943
 3074 003e 4CB1     		cbz	r4, .L230
 306:Middlewares/lvgl/src/core/lv_indev.c ****                 hidden_i = lv_obj_get_parent(hidden_i);
 3075              		.loc 1 306 17 view .LVU944
 306:Middlewares/lvgl/src/core/lv_indev.c ****                 hidden_i = lv_obj_get_parent(hidden_i);
 3076              		.loc 1 306 20 is_stmt 0 view .LVU945
 3077 0040 0121     		movs	r1, #1
 3078 0042 2046     		mov	r0, r4
 3079 0044 FFF7FEFF 		bl	lv_obj_has_flag
 3080              	.LVL268:
 306:Middlewares/lvgl/src/core/lv_indev.c ****                 hidden_i = lv_obj_get_parent(hidden_i);
 3081              		.loc 1 306 19 view .LVU946
 3082 0048 20B9     		cbnz	r0, .L230
 307:Middlewares/lvgl/src/core/lv_indev.c ****             }
 3083              		.loc 1 307 17 is_stmt 1 view .LVU947
 307:Middlewares/lvgl/src/core/lv_indev.c ****             }
 3084              		.loc 1 307 28 is_stmt 0 view .LVU948
 3085 004a 2046     		mov	r0, r4
 3086 004c FFF7FEFF 		bl	lv_obj_get_parent
 3087              	.LVL269:
 3088 0050 0446     		mov	r4, r0
 3089              	.LVL270:
 307:Middlewares/lvgl/src/core/lv_indev.c ****             }
 3090              		.loc 1 307 28 view .LVU949
 3091 0052 F4E7     		b	.L229
 3092              	.LVL271:
 3093              	.L230:
 310:Middlewares/lvgl/src/core/lv_indev.c ****         }
 3094              		.loc 1 310 13 is_stmt 1 view .LVU950
 310:Middlewares/lvgl/src/core/lv_indev.c ****         }
 3095              		.loc 1 310 15 is_stmt 0 view .LVU951
 3096 0054 44B9     		cbnz	r4, .L224
 310:Middlewares/lvgl/src/core/lv_indev.c ****         }
 3097              		.loc 1 310 37 discriminator 1 view .LVU952
 3098 0056 2846     		mov	r0, r5
 3099 0058 FFF7FEFF 		bl	lv_obj_get_state
 3100              	.LVL272:
 310:Middlewares/lvgl/src/core/lv_indev.c ****         }
 3101              		.loc 1 310 33 discriminator 1 view .LVU953
ARM GAS  /tmp/cc4kiO2x.s 			page 90


 3102 005c 10F0800F 		tst	r0, #128
 3103 0060 02D1     		bne	.L224
 310:Middlewares/lvgl/src/core/lv_indev.c ****         }
 3104              		.loc 1 310 98 view .LVU954
 3105 0062 2F46     		mov	r7, r5
 3106              	.LVL273:
 310:Middlewares/lvgl/src/core/lv_indev.c ****         }
 3107              		.loc 1 310 98 view .LVU955
 3108              	.LBE12:
 3109              	.LBE13:
 314:Middlewares/lvgl/src/core/lv_indev.c **** }
 3110              		.loc 1 314 5 is_stmt 1 view .LVU956
 314:Middlewares/lvgl/src/core/lv_indev.c **** }
 3111              		.loc 1 314 12 is_stmt 0 view .LVU957
 3112 0064 00E0     		b	.L224
 3113              	.LVL274:
 3114              	.L232:
 288:Middlewares/lvgl/src/core/lv_indev.c **** 
 3115              		.loc 1 288 16 view .LVU958
 3116 0066 0027     		movs	r7, #0
 3117              	.LVL275:
 3118              	.L224:
 315:Middlewares/lvgl/src/core/lv_indev.c **** 
 3119              		.loc 1 315 1 view .LVU959
 3120 0068 3846     		mov	r0, r7
 3121 006a F8BD     		pop	{r3, r4, r5, r6, r7, pc}
 315:Middlewares/lvgl/src/core/lv_indev.c **** 
 3122              		.loc 1 315 1 view .LVU960
 3123              		.cfi_endproc
 3124              	.LFE171:
 3126              		.section	.text.indev_proc_press,"ax",%progbits
 3127              		.align	1
 3128              		.syntax unified
 3129              		.thumb
 3130              		.thumb_func
 3131              		.fpu softvfp
 3133              	indev_proc_press:
 3134              	.LVL276:
 3135              	.LFB176:
 769:Middlewares/lvgl/src/core/lv_indev.c ****     LV_LOG_INFO("pressed at x:%d y:%d", proc->types.pointer.act_point.x, proc->types.pointer.act_po
 3136              		.loc 1 769 1 is_stmt 1 view -0
 3137              		.cfi_startproc
 3138              		@ args = 0, pretend = 0, frame = 0
 3139              		@ frame_needed = 0, uses_anonymous_args = 0
 769:Middlewares/lvgl/src/core/lv_indev.c ****     LV_LOG_INFO("pressed at x:%d y:%d", proc->types.pointer.act_point.x, proc->types.pointer.act_po
 3140              		.loc 1 769 1 is_stmt 0 view .LVU962
 3141 0000 70B5     		push	{r4, r5, r6, lr}
 3142              	.LCFI9:
 3143              		.cfi_def_cfa_offset 16
 3144              		.cfi_offset 4, -16
 3145              		.cfi_offset 5, -12
 3146              		.cfi_offset 6, -8
 3147              		.cfi_offset 14, -4
 3148 0002 0446     		mov	r4, r0
 770:Middlewares/lvgl/src/core/lv_indev.c ****     indev_obj_act = proc->types.pointer.act_obj;
 3149              		.loc 1 770 106 is_stmt 1 view .LVU963
 771:Middlewares/lvgl/src/core/lv_indev.c **** 
ARM GAS  /tmp/cc4kiO2x.s 			page 91


 3150              		.loc 1 771 5 view .LVU964
 771:Middlewares/lvgl/src/core/lv_indev.c **** 
 3151              		.loc 1 771 40 is_stmt 0 view .LVU965
 3152 0004 006A     		ldr	r0, [r0, #32]
 3153              	.LVL277:
 771:Middlewares/lvgl/src/core/lv_indev.c **** 
 3154              		.loc 1 771 19 view .LVU966
 3155 0006 9E4B     		ldr	r3, .L254
 3156 0008 1860     		str	r0, [r3]
 773:Middlewares/lvgl/src/core/lv_indev.c **** 
 3157              		.loc 1 773 5 is_stmt 1 view .LVU967
 773:Middlewares/lvgl/src/core/lv_indev.c **** 
 3158              		.loc 1 773 33 is_stmt 0 view .LVU968
 3159 000a 6378     		ldrb	r3, [r4, #1]	@ zero_extendqisi2
 773:Middlewares/lvgl/src/core/lv_indev.c **** 
 3160              		.loc 1 773 7 view .LVU969
 3161 000c 13F0080F 		tst	r3, #8
 3162 0010 40F08C80 		bne	.L236
 775:Middlewares/lvgl/src/core/lv_indev.c ****     bool new_obj_searched = false;
 3163              		.loc 1 775 5 is_stmt 1 view .LVU970
 775:Middlewares/lvgl/src/core/lv_indev.c ****     bool new_obj_searched = false;
 3164              		.loc 1 775 33 is_stmt 0 view .LVU971
 3165 0014 9B4B     		ldr	r3, .L254+4
 3166 0016 1B68     		ldr	r3, [r3]
 3167 0018 1B68     		ldr	r3, [r3]
 775:Middlewares/lvgl/src/core/lv_indev.c ****     bool new_obj_searched = false;
 3168              		.loc 1 775 17 view .LVU972
 3169 001a 1D69     		ldr	r5, [r3, #16]
 3170              	.LVL278:
 776:Middlewares/lvgl/src/core/lv_indev.c **** 
 3171              		.loc 1 776 5 is_stmt 1 view .LVU973
 779:Middlewares/lvgl/src/core/lv_indev.c ****         indev_obj_act = lv_indev_search_obj(lv_disp_get_layer_sys(disp), &proc->types.pointer.act_p
 3172              		.loc 1 779 5 view .LVU974
 779:Middlewares/lvgl/src/core/lv_indev.c ****         indev_obj_act = lv_indev_search_obj(lv_disp_get_layer_sys(disp), &proc->types.pointer.act_p
 3173              		.loc 1 779 7 is_stmt 0 view .LVU975
 3174 001c 0028     		cmp	r0, #0
 3175 001e 00F08680 		beq	.L247
 788:Middlewares/lvgl/src/core/lv_indev.c ****             lv_obj_has_flag(indev_obj_act, LV_OBJ_FLAG_PRESS_LOCK) == false) {
 3176              		.loc 1 788 10 is_stmt 1 view .LVU976
 788:Middlewares/lvgl/src/core/lv_indev.c ****             lv_obj_has_flag(indev_obj_act, LV_OBJ_FLAG_PRESS_LOCK) == false) {
 3177              		.loc 1 788 32 is_stmt 0 view .LVU977
 3178 0022 A36A     		ldr	r3, [r4, #40]
 788:Middlewares/lvgl/src/core/lv_indev.c ****             lv_obj_has_flag(indev_obj_act, LV_OBJ_FLAG_PRESS_LOCK) == false) {
 3179              		.loc 1 788 12 view .LVU978
 3180 0024 002B     		cmp	r3, #0
 3181 0026 00F0B280 		beq	.L248
 3182              	.LVL279:
 3183              	.L241:
 807:Middlewares/lvgl/src/core/lv_indev.c ****         proc->types.pointer.last_point.x = proc->types.pointer.act_point.x;
 3184              		.loc 1 807 5 is_stmt 1 view .LVU979
 807:Middlewares/lvgl/src/core/lv_indev.c ****         proc->types.pointer.last_point.x = proc->types.pointer.act_point.x;
 3185              		.loc 1 807 44 is_stmt 0 view .LVU980
 3186 002a 206A     		ldr	r0, [r4, #32]
 807:Middlewares/lvgl/src/core/lv_indev.c ****         proc->types.pointer.last_point.x = proc->types.pointer.act_point.x;
 3187              		.loc 1 807 22 view .LVU981
 3188 002c 944B     		ldr	r3, .L254
 3189 002e 1B68     		ldr	r3, [r3]
ARM GAS  /tmp/cc4kiO2x.s 			page 92


 807:Middlewares/lvgl/src/core/lv_indev.c ****         proc->types.pointer.last_point.x = proc->types.pointer.act_point.x;
 3190              		.loc 1 807 7 view .LVU982
 3191 0030 9842     		cmp	r0, r3
 3192 0032 4FD0     		beq	.L243
 808:Middlewares/lvgl/src/core/lv_indev.c ****         proc->types.pointer.last_point.y = proc->types.pointer.act_point.y;
 3193              		.loc 1 808 9 is_stmt 1 view .LVU983
 808:Middlewares/lvgl/src/core/lv_indev.c ****         proc->types.pointer.last_point.y = proc->types.pointer.act_point.y;
 3194              		.loc 1 808 73 is_stmt 0 view .LVU984
 3195 0034 B4F90430 		ldrsh	r3, [r4, #4]
 808:Middlewares/lvgl/src/core/lv_indev.c ****         proc->types.pointer.last_point.y = proc->types.pointer.act_point.y;
 3196              		.loc 1 808 42 view .LVU985
 3197 0038 2381     		strh	r3, [r4, #8]	@ movhi
 809:Middlewares/lvgl/src/core/lv_indev.c **** 
 3198              		.loc 1 809 9 is_stmt 1 view .LVU986
 809:Middlewares/lvgl/src/core/lv_indev.c **** 
 3199              		.loc 1 809 73 is_stmt 0 view .LVU987
 3200 003a B4F90630 		ldrsh	r3, [r4, #6]
 809:Middlewares/lvgl/src/core/lv_indev.c **** 
 3201              		.loc 1 809 42 view .LVU988
 3202 003e 6381     		strh	r3, [r4, #10]	@ movhi
 812:Middlewares/lvgl/src/core/lv_indev.c ****             /*Save the obj because in special cases `act_obj` can change in the Call the ancestor's
 3203              		.loc 1 812 9 is_stmt 1 view .LVU989
 812:Middlewares/lvgl/src/core/lv_indev.c ****             /*Save the obj because in special cases `act_obj` can change in the Call the ancestor's
 3204              		.loc 1 812 11 is_stmt 0 view .LVU990
 3205 0040 48B1     		cbz	r0, .L244
 3206              	.LBB14:
 814:Middlewares/lvgl/src/core/lv_indev.c **** 
 3207              		.loc 1 814 13 is_stmt 1 view .LVU991
 3208              	.LVL280:
 816:Middlewares/lvgl/src/core/lv_indev.c ****             if(indev_reset_check(proc)) return;
 3209              		.loc 1 816 13 view .LVU992
 3210 0042 904B     		ldr	r3, .L254+4
 3211 0044 1A68     		ldr	r2, [r3]
 3212 0046 0321     		movs	r1, #3
 3213 0048 FFF7FEFF 		bl	lv_event_send
 3214              	.LVL281:
 817:Middlewares/lvgl/src/core/lv_indev.c ****         }
 3215              		.loc 1 817 13 view .LVU993
 817:Middlewares/lvgl/src/core/lv_indev.c ****         }
 3216              		.loc 1 817 16 is_stmt 0 view .LVU994
 3217 004c 2046     		mov	r0, r4
 3218 004e FFF7FEFF 		bl	indev_reset_check
 3219              	.LVL282:
 817:Middlewares/lvgl/src/core/lv_indev.c ****         }
 3220              		.loc 1 817 15 view .LVU995
 3221 0052 0028     		cmp	r0, #0
 3222 0054 6AD1     		bne	.L236
 3223              	.L244:
 817:Middlewares/lvgl/src/core/lv_indev.c ****         }
 3224              		.loc 1 817 15 view .LVU996
 3225              	.LBE14:
 820:Middlewares/lvgl/src/core/lv_indev.c ****         proc->types.pointer.last_obj = indev_obj_act;
 3226              		.loc 1 820 9 is_stmt 1 view .LVU997
 820:Middlewares/lvgl/src/core/lv_indev.c ****         proc->types.pointer.last_obj = indev_obj_act;
 3227              		.loc 1 820 38 is_stmt 0 view .LVU998
 3228 0056 8A4B     		ldr	r3, .L254
 3229 0058 1B68     		ldr	r3, [r3]
ARM GAS  /tmp/cc4kiO2x.s 			page 93


 3230 005a 2362     		str	r3, [r4, #32]
 821:Middlewares/lvgl/src/core/lv_indev.c **** 
 3231              		.loc 1 821 9 is_stmt 1 view .LVU999
 821:Middlewares/lvgl/src/core/lv_indev.c **** 
 3232              		.loc 1 821 38 is_stmt 0 view .LVU1000
 3233 005c 6362     		str	r3, [r4, #36]
 823:Middlewares/lvgl/src/core/lv_indev.c ****             /*Save the time when the obj pressed to count long press time.*/
 3234              		.loc 1 823 9 is_stmt 1 view .LVU1001
 823:Middlewares/lvgl/src/core/lv_indev.c ****             /*Save the time when the obj pressed to count long press time.*/
 3235              		.loc 1 823 11 is_stmt 0 view .LVU1002
 3236 005e 002B     		cmp	r3, #0
 3237 0060 38D0     		beq	.L243
 825:Middlewares/lvgl/src/core/lv_indev.c ****             proc->long_pr_sent                 = 0;
 3238              		.loc 1 825 13 is_stmt 1 view .LVU1003
 825:Middlewares/lvgl/src/core/lv_indev.c ****             proc->long_pr_sent                 = 0;
 3239              		.loc 1 825 50 is_stmt 0 view .LVU1004
 3240 0062 FFF7FEFF 		bl	lv_tick_get
 3241              	.LVL283:
 825:Middlewares/lvgl/src/core/lv_indev.c ****             proc->long_pr_sent                 = 0;
 3242              		.loc 1 825 48 view .LVU1005
 3243 0066 2064     		str	r0, [r4, #64]
 826:Middlewares/lvgl/src/core/lv_indev.c ****             proc->types.pointer.scroll_sum.x     = 0;
 3244              		.loc 1 826 13 is_stmt 1 view .LVU1006
 826:Middlewares/lvgl/src/core/lv_indev.c ****             proc->types.pointer.scroll_sum.x     = 0;
 3245              		.loc 1 826 48 is_stmt 0 view .LVU1007
 3246 0068 6378     		ldrb	r3, [r4, #1]	@ zero_extendqisi2
 3247 006a 6FF30003 		bfc	r3, #0, #1
 3248 006e 6370     		strb	r3, [r4, #1]
 827:Middlewares/lvgl/src/core/lv_indev.c ****             proc->types.pointer.scroll_sum.y     = 0;
 3249              		.loc 1 827 13 is_stmt 1 view .LVU1008
 827:Middlewares/lvgl/src/core/lv_indev.c ****             proc->types.pointer.scroll_sum.y     = 0;
 3250              		.loc 1 827 50 is_stmt 0 view .LVU1009
 3251 0070 0023     		movs	r3, #0
 3252 0072 A382     		strh	r3, [r4, #20]	@ movhi
 828:Middlewares/lvgl/src/core/lv_indev.c ****             proc->types.pointer.scroll_dir = LV_DIR_NONE;
 3253              		.loc 1 828 13 is_stmt 1 view .LVU1010
 828:Middlewares/lvgl/src/core/lv_indev.c ****             proc->types.pointer.scroll_dir = LV_DIR_NONE;
 3254              		.loc 1 828 50 is_stmt 0 view .LVU1011
 3255 0074 E382     		strh	r3, [r4, #22]	@ movhi
 829:Middlewares/lvgl/src/core/lv_indev.c ****             proc->types.pointer.gesture_dir = LV_DIR_NONE;
 3256              		.loc 1 829 13 is_stmt 1 view .LVU1012
 829:Middlewares/lvgl/src/core/lv_indev.c ****             proc->types.pointer.gesture_dir = LV_DIR_NONE;
 3257              		.loc 1 829 44 is_stmt 0 view .LVU1013
 3258 0076 94F83C20 		ldrb	r2, [r4, #60]	@ zero_extendqisi2
 3259 007a 63F30302 		bfi	r2, r3, #0, #4
 3260 007e 84F83C20 		strb	r2, [r4, #60]
 830:Middlewares/lvgl/src/core/lv_indev.c ****             proc->types.pointer.gesture_sent   = 0;
 3261              		.loc 1 830 13 is_stmt 1 view .LVU1014
 830:Middlewares/lvgl/src/core/lv_indev.c ****             proc->types.pointer.gesture_sent   = 0;
 3262              		.loc 1 830 45 is_stmt 0 view .LVU1015
 3263 0082 D2B2     		uxtb	r2, r2
 3264 0084 63F30712 		bfi	r2, r3, #4, #4
 3265 0088 84F83C20 		strb	r2, [r4, #60]
 831:Middlewares/lvgl/src/core/lv_indev.c ****             proc->types.pointer.gesture_sum.x  = 0;
 3266              		.loc 1 831 13 is_stmt 1 view .LVU1016
 831:Middlewares/lvgl/src/core/lv_indev.c ****             proc->types.pointer.gesture_sum.x  = 0;
 3267              		.loc 1 831 48 is_stmt 0 view .LVU1017
ARM GAS  /tmp/cc4kiO2x.s 			page 94


 3268 008c 94F83D20 		ldrb	r2, [r4, #61]	@ zero_extendqisi2
 3269 0090 63F30002 		bfi	r2, r3, #0, #1
 3270 0094 84F83D20 		strb	r2, [r4, #61]
 832:Middlewares/lvgl/src/core/lv_indev.c ****             proc->types.pointer.gesture_sum.y  = 0;
 3271              		.loc 1 832 13 is_stmt 1 view .LVU1018
 832:Middlewares/lvgl/src/core/lv_indev.c ****             proc->types.pointer.gesture_sum.y  = 0;
 3272              		.loc 1 832 48 is_stmt 0 view .LVU1019
 3273 0098 2387     		strh	r3, [r4, #56]	@ movhi
 833:Middlewares/lvgl/src/core/lv_indev.c ****             proc->types.pointer.vect.x         = 0;
 3274              		.loc 1 833 13 is_stmt 1 view .LVU1020
 833:Middlewares/lvgl/src/core/lv_indev.c ****             proc->types.pointer.vect.x         = 0;
 3275              		.loc 1 833 48 is_stmt 0 view .LVU1021
 3276 009a 6387     		strh	r3, [r4, #58]	@ movhi
 834:Middlewares/lvgl/src/core/lv_indev.c ****             proc->types.pointer.vect.y         = 0;
 3277              		.loc 1 834 13 is_stmt 1 view .LVU1022
 834:Middlewares/lvgl/src/core/lv_indev.c ****             proc->types.pointer.vect.y         = 0;
 3278              		.loc 1 834 48 is_stmt 0 view .LVU1023
 3279 009c 2382     		strh	r3, [r4, #16]	@ movhi
 835:Middlewares/lvgl/src/core/lv_indev.c **** 
 3280              		.loc 1 835 13 is_stmt 1 view .LVU1024
 835:Middlewares/lvgl/src/core/lv_indev.c **** 
 3281              		.loc 1 835 48 is_stmt 0 view .LVU1025
 3282 009e 6382     		strh	r3, [r4, #18]	@ movhi
 838:Middlewares/lvgl/src/core/lv_indev.c ****             if(indev_reset_check(proc)) return;
 3283              		.loc 1 838 13 is_stmt 1 view .LVU1026
 3284 00a0 784B     		ldr	r3, .L254+4
 3285 00a2 1A68     		ldr	r2, [r3]
 3286 00a4 0121     		movs	r1, #1
 3287 00a6 764B     		ldr	r3, .L254
 3288 00a8 1868     		ldr	r0, [r3]
 3289 00aa FFF7FEFF 		bl	lv_event_send
 3290              	.LVL284:
 839:Middlewares/lvgl/src/core/lv_indev.c **** 
 3291              		.loc 1 839 13 view .LVU1027
 839:Middlewares/lvgl/src/core/lv_indev.c **** 
 3292              		.loc 1 839 16 is_stmt 0 view .LVU1028
 3293 00ae 2046     		mov	r0, r4
 3294 00b0 FFF7FEFF 		bl	indev_reset_check
 3295              	.LVL285:
 839:Middlewares/lvgl/src/core/lv_indev.c **** 
 3296              		.loc 1 839 15 view .LVU1029
 3297 00b4 0028     		cmp	r0, #0
 3298 00b6 39D1     		bne	.L236
 841:Middlewares/lvgl/src/core/lv_indev.c **** 
 3299              		.loc 1 841 13 is_stmt 1 view .LVU1030
 841:Middlewares/lvgl/src/core/lv_indev.c **** 
 3300              		.loc 1 841 25 is_stmt 0 view .LVU1031
 3301 00b8 724B     		ldr	r3, .L254+4
 3302 00ba 1868     		ldr	r0, [r3]
 841:Middlewares/lvgl/src/core/lv_indev.c **** 
 3303              		.loc 1 841 16 view .LVU1032
 3304 00bc 4379     		ldrb	r3, [r0, #5]	@ zero_extendqisi2
 841:Middlewares/lvgl/src/core/lv_indev.c **** 
 3305              		.loc 1 841 15 view .LVU1033
 3306 00be 13F0080F 		tst	r3, #8
 3307 00c2 33D1     		bne	.L236
 844:Middlewares/lvgl/src/core/lv_indev.c ****             if(indev_reset_check(proc)) return;
ARM GAS  /tmp/cc4kiO2x.s 			page 95


 3308              		.loc 1 844 13 is_stmt 1 view .LVU1034
 3309 00c4 0430     		adds	r0, r0, #4
 3310 00c6 FFF7FEFF 		bl	indev_click_focus
 3311              	.LVL286:
 845:Middlewares/lvgl/src/core/lv_indev.c **** 
 3312              		.loc 1 845 13 view .LVU1035
 845:Middlewares/lvgl/src/core/lv_indev.c **** 
 3313              		.loc 1 845 16 is_stmt 0 view .LVU1036
 3314 00ca 2046     		mov	r0, r4
 3315 00cc FFF7FEFF 		bl	indev_reset_check
 3316              	.LVL287:
 845:Middlewares/lvgl/src/core/lv_indev.c **** 
 3317              		.loc 1 845 15 view .LVU1037
 3318 00d0 0028     		cmp	r0, #0
 3319 00d2 2BD1     		bne	.L236
 3320              	.L243:
 851:Middlewares/lvgl/src/core/lv_indev.c ****     proc->types.pointer.vect.y = proc->types.pointer.act_point.y - proc->types.pointer.last_point.y
 3321              		.loc 1 851 5 is_stmt 1 view .LVU1038
 851:Middlewares/lvgl/src/core/lv_indev.c ****     proc->types.pointer.vect.y = proc->types.pointer.act_point.y - proc->types.pointer.last_point.y
 3322              		.loc 1 851 63 is_stmt 0 view .LVU1039
 3323 00d4 A188     		ldrh	r1, [r4, #4]
 851:Middlewares/lvgl/src/core/lv_indev.c ****     proc->types.pointer.vect.y = proc->types.pointer.act_point.y - proc->types.pointer.last_point.y
 3324              		.loc 1 851 98 view .LVU1040
 3325 00d6 2089     		ldrh	r0, [r4, #8]
 851:Middlewares/lvgl/src/core/lv_indev.c ****     proc->types.pointer.vect.y = proc->types.pointer.act_point.y - proc->types.pointer.last_point.y
 3326              		.loc 1 851 66 view .LVU1041
 3327 00d8 091A     		subs	r1, r1, r0
 3328 00da 08B2     		sxth	r0, r1
 851:Middlewares/lvgl/src/core/lv_indev.c ****     proc->types.pointer.vect.y = proc->types.pointer.act_point.y - proc->types.pointer.last_point.y
 3329              		.loc 1 851 32 view .LVU1042
 3330 00dc 2082     		strh	r0, [r4, #16]	@ movhi
 852:Middlewares/lvgl/src/core/lv_indev.c **** 
 3331              		.loc 1 852 5 is_stmt 1 view .LVU1043
 852:Middlewares/lvgl/src/core/lv_indev.c **** 
 3332              		.loc 1 852 63 is_stmt 0 view .LVU1044
 3333 00de E388     		ldrh	r3, [r4, #6]
 852:Middlewares/lvgl/src/core/lv_indev.c **** 
 3334              		.loc 1 852 98 view .LVU1045
 3335 00e0 6289     		ldrh	r2, [r4, #10]
 852:Middlewares/lvgl/src/core/lv_indev.c **** 
 3336              		.loc 1 852 66 view .LVU1046
 3337 00e2 9B1A     		subs	r3, r3, r2
 3338 00e4 1AB2     		sxth	r2, r3
 852:Middlewares/lvgl/src/core/lv_indev.c **** 
 3339              		.loc 1 852 32 view .LVU1047
 3340 00e6 6282     		strh	r2, [r4, #18]	@ movhi
 854:Middlewares/lvgl/src/core/lv_indev.c ****     proc->types.pointer.scroll_throw_vect.y = (proc->types.pointer.scroll_throw_vect.y * 4) >> 3;
 3341              		.loc 1 854 5 is_stmt 1 view .LVU1048
 854:Middlewares/lvgl/src/core/lv_indev.c ****     proc->types.pointer.scroll_throw_vect.y = (proc->types.pointer.scroll_throw_vect.y * 4) >> 3;
 3342              		.loc 1 854 85 is_stmt 0 view .LVU1049
 3343 00e8 B4F91810 		ldrsh	r1, [r4, #24]
 854:Middlewares/lvgl/src/core/lv_indev.c ****     proc->types.pointer.scroll_throw_vect.y = (proc->types.pointer.scroll_throw_vect.y * 4) >> 3;
 3344              		.loc 1 854 45 view .LVU1050
 3345 00ec 4910     		asrs	r1, r1, #1
 3346 00ee 2183     		strh	r1, [r4, #24]	@ movhi
 855:Middlewares/lvgl/src/core/lv_indev.c **** 
 3347              		.loc 1 855 5 is_stmt 1 view .LVU1051
ARM GAS  /tmp/cc4kiO2x.s 			page 96


 855:Middlewares/lvgl/src/core/lv_indev.c **** 
 3348              		.loc 1 855 85 is_stmt 0 view .LVU1052
 3349 00f0 B4F91A30 		ldrsh	r3, [r4, #26]
 855:Middlewares/lvgl/src/core/lv_indev.c **** 
 3350              		.loc 1 855 45 view .LVU1053
 3351 00f4 5B10     		asrs	r3, r3, #1
 3352 00f6 6383     		strh	r3, [r4, #26]	@ movhi
 857:Middlewares/lvgl/src/core/lv_indev.c ****     proc->types.pointer.scroll_throw_vect.y += (proc->types.pointer.vect.y * 4) >> 3;
 3353              		.loc 1 857 5 is_stmt 1 view .LVU1054
 857:Middlewares/lvgl/src/core/lv_indev.c ****     proc->types.pointer.scroll_throw_vect.y += (proc->types.pointer.vect.y * 4) >> 3;
 3354              		.loc 1 857 45 is_stmt 0 view .LVU1055
 3355 00f8 01EB6001 		add	r1, r1, r0, asr #1
 3356 00fc 2183     		strh	r1, [r4, #24]	@ movhi
 858:Middlewares/lvgl/src/core/lv_indev.c **** 
 3357              		.loc 1 858 5 is_stmt 1 view .LVU1056
 858:Middlewares/lvgl/src/core/lv_indev.c **** 
 3358              		.loc 1 858 45 is_stmt 0 view .LVU1057
 3359 00fe 03EB6203 		add	r3, r3, r2, asr #1
 3360 0102 6383     		strh	r3, [r4, #26]	@ movhi
 860:Middlewares/lvgl/src/core/lv_indev.c **** 
 3361              		.loc 1 860 5 is_stmt 1 view .LVU1058
 860:Middlewares/lvgl/src/core/lv_indev.c **** 
 3362              		.loc 1 860 47 is_stmt 0 view .LVU1059
 3363 0104 A369     		ldr	r3, [r4, #24]
 3364 0106 E361     		str	r3, [r4, #28]
 862:Middlewares/lvgl/src/core/lv_indev.c ****         lv_event_send(indev_obj_act, LV_EVENT_PRESSING, indev_act);
 3365              		.loc 1 862 5 is_stmt 1 view .LVU1060
 862:Middlewares/lvgl/src/core/lv_indev.c ****         lv_event_send(indev_obj_act, LV_EVENT_PRESSING, indev_act);
 3366              		.loc 1 862 8 is_stmt 0 view .LVU1061
 3367 0108 5D4B     		ldr	r3, .L254
 3368 010a 1868     		ldr	r0, [r3]
 862:Middlewares/lvgl/src/core/lv_indev.c ****         lv_event_send(indev_obj_act, LV_EVENT_PRESSING, indev_act);
 3369              		.loc 1 862 7 view .LVU1062
 3370 010c 70B1     		cbz	r0, .L236
 863:Middlewares/lvgl/src/core/lv_indev.c ****         if(indev_reset_check(proc)) return;
 3371              		.loc 1 863 9 is_stmt 1 view .LVU1063
 3372 010e 5D4B     		ldr	r3, .L254+4
 3373 0110 1A68     		ldr	r2, [r3]
 3374 0112 0221     		movs	r1, #2
 3375 0114 FFF7FEFF 		bl	lv_event_send
 3376              	.LVL288:
 864:Middlewares/lvgl/src/core/lv_indev.c **** 
 3377              		.loc 1 864 9 view .LVU1064
 864:Middlewares/lvgl/src/core/lv_indev.c **** 
 3378              		.loc 1 864 12 is_stmt 0 view .LVU1065
 3379 0118 2046     		mov	r0, r4
 3380 011a FFF7FEFF 		bl	indev_reset_check
 3381              	.LVL289:
 864:Middlewares/lvgl/src/core/lv_indev.c **** 
 3382              		.loc 1 864 11 view .LVU1066
 3383 011e 28B9     		cbnz	r0, .L236
 866:Middlewares/lvgl/src/core/lv_indev.c **** 
 3384              		.loc 1 866 9 is_stmt 1 view .LVU1067
 866:Middlewares/lvgl/src/core/lv_indev.c **** 
 3385              		.loc 1 866 21 is_stmt 0 view .LVU1068
 3386 0120 584B     		ldr	r3, .L254+4
 3387 0122 1B68     		ldr	r3, [r3]
ARM GAS  /tmp/cc4kiO2x.s 			page 97


 866:Middlewares/lvgl/src/core/lv_indev.c **** 
 3388              		.loc 1 866 12 view .LVU1069
 3389 0124 5B79     		ldrb	r3, [r3, #5]	@ zero_extendqisi2
 866:Middlewares/lvgl/src/core/lv_indev.c **** 
 3390              		.loc 1 866 11 view .LVU1070
 3391 0126 13F0080F 		tst	r3, #8
 3392 012a 57D0     		beq	.L249
 3393              	.LVL290:
 3394              	.L236:
 898:Middlewares/lvgl/src/core/lv_indev.c **** 
 3395              		.loc 1 898 1 view .LVU1071
 3396 012c 70BD     		pop	{r4, r5, r6, pc}
 3397              	.LVL291:
 3398              	.L247:
 780:Middlewares/lvgl/src/core/lv_indev.c ****         if(indev_obj_act == NULL) indev_obj_act = lv_indev_search_obj(lv_disp_get_layer_top(disp),
 3399              		.loc 1 780 9 is_stmt 1 view .LVU1072
 780:Middlewares/lvgl/src/core/lv_indev.c ****         if(indev_obj_act == NULL) indev_obj_act = lv_indev_search_obj(lv_disp_get_layer_top(disp),
 3400              		.loc 1 780 25 is_stmt 0 view .LVU1073
 3401 012e 2846     		mov	r0, r5
 3402 0130 FFF7FEFF 		bl	lv_disp_get_layer_sys
 3403              	.LVL292:
 3404 0134 261D     		adds	r6, r4, #4
 3405 0136 3146     		mov	r1, r6
 3406 0138 FFF7FEFF 		bl	lv_indev_search_obj
 3407              	.LVL293:
 780:Middlewares/lvgl/src/core/lv_indev.c ****         if(indev_obj_act == NULL) indev_obj_act = lv_indev_search_obj(lv_disp_get_layer_top(disp),
 3408              		.loc 1 780 23 view .LVU1074
 3409 013c 504B     		ldr	r3, .L254
 3410 013e 1860     		str	r0, [r3]
 781:Middlewares/lvgl/src/core/lv_indev.c ****                                                                           &proc->types.pointer.act_
 3411              		.loc 1 781 9 is_stmt 1 view .LVU1075
 781:Middlewares/lvgl/src/core/lv_indev.c ****                                                                           &proc->types.pointer.act_
 3412              		.loc 1 781 11 is_stmt 0 view .LVU1076
 3413 0140 98B1     		cbz	r0, .L250
 3414              	.L239:
 783:Middlewares/lvgl/src/core/lv_indev.c ****                                                                           &proc->types.pointer.act_
 3415              		.loc 1 783 9 is_stmt 1 view .LVU1077
 783:Middlewares/lvgl/src/core/lv_indev.c ****                                                                           &proc->types.pointer.act_
 3416              		.loc 1 783 26 is_stmt 0 view .LVU1078
 3417 0142 4F4B     		ldr	r3, .L254
 3418 0144 1B68     		ldr	r3, [r3]
 783:Middlewares/lvgl/src/core/lv_indev.c ****                                                                           &proc->types.pointer.act_
 3419              		.loc 1 783 11 view .LVU1079
 3420 0146 CBB1     		cbz	r3, .L251
 3421              	.L240:
 3422              	.LVL294:
 799:Middlewares/lvgl/src/core/lv_indev.c ****         proc->types.pointer.scroll_throw_vect.x = 0;
 3423              		.loc 1 799 47 discriminator 1 view .LVU1080
 3424 0148 636A     		ldr	r3, [r4, #36]
 799:Middlewares/lvgl/src/core/lv_indev.c ****         proc->types.pointer.scroll_throw_vect.x = 0;
 3425              		.loc 1 799 25 discriminator 1 view .LVU1081
 3426 014a 002B     		cmp	r3, #0
 3427 014c 3FF46DAF 		beq	.L241
 800:Middlewares/lvgl/src/core/lv_indev.c ****         proc->types.pointer.scroll_throw_vect.y = 0;
 3428              		.loc 1 800 9 is_stmt 1 view .LVU1082
 800:Middlewares/lvgl/src/core/lv_indev.c ****         proc->types.pointer.scroll_throw_vect.y = 0;
 3429              		.loc 1 800 49 is_stmt 0 view .LVU1083
ARM GAS  /tmp/cc4kiO2x.s 			page 98


 3430 0150 0023     		movs	r3, #0
 3431 0152 2383     		strh	r3, [r4, #24]	@ movhi
 801:Middlewares/lvgl/src/core/lv_indev.c ****         _lv_indev_scroll_throw_handler(proc);
 3432              		.loc 1 801 9 is_stmt 1 view .LVU1084
 801:Middlewares/lvgl/src/core/lv_indev.c ****         _lv_indev_scroll_throw_handler(proc);
 3433              		.loc 1 801 49 is_stmt 0 view .LVU1085
 3434 0154 6383     		strh	r3, [r4, #26]	@ movhi
 802:Middlewares/lvgl/src/core/lv_indev.c ****         if(indev_reset_check(proc)) return;
 3435              		.loc 1 802 9 is_stmt 1 view .LVU1086
 3436 0156 2046     		mov	r0, r4
 3437 0158 FFF7FEFF 		bl	_lv_indev_scroll_throw_handler
 3438              	.LVL295:
 803:Middlewares/lvgl/src/core/lv_indev.c ****     }
 3439              		.loc 1 803 9 view .LVU1087
 803:Middlewares/lvgl/src/core/lv_indev.c ****     }
 3440              		.loc 1 803 12 is_stmt 0 view .LVU1088
 3441 015c 2046     		mov	r0, r4
 3442 015e FFF7FEFF 		bl	indev_reset_check
 3443              	.LVL296:
 803:Middlewares/lvgl/src/core/lv_indev.c ****     }
 3444              		.loc 1 803 11 view .LVU1089
 3445 0162 0028     		cmp	r0, #0
 3446 0164 3FF461AF 		beq	.L241
 3447 0168 E0E7     		b	.L236
 3448              	.LVL297:
 3449              	.L250:
 781:Middlewares/lvgl/src/core/lv_indev.c ****                                                                           &proc->types.pointer.act_
 3450              		.loc 1 781 35 is_stmt 1 discriminator 1 view .LVU1090
 781:Middlewares/lvgl/src/core/lv_indev.c ****                                                                           &proc->types.pointer.act_
 3451              		.loc 1 781 51 is_stmt 0 discriminator 1 view .LVU1091
 3452 016a 2846     		mov	r0, r5
 3453 016c FFF7FEFF 		bl	lv_disp_get_layer_top
 3454              	.LVL298:
 3455 0170 3146     		mov	r1, r6
 3456 0172 FFF7FEFF 		bl	lv_indev_search_obj
 3457              	.LVL299:
 781:Middlewares/lvgl/src/core/lv_indev.c ****                                                                           &proc->types.pointer.act_
 3458              		.loc 1 781 49 discriminator 1 view .LVU1092
 3459 0176 424B     		ldr	r3, .L254
 3460 0178 1860     		str	r0, [r3]
 3461 017a E2E7     		b	.L239
 3462              	.L251:
 783:Middlewares/lvgl/src/core/lv_indev.c ****                                                                           &proc->types.pointer.act_
 3463              		.loc 1 783 35 is_stmt 1 discriminator 1 view .LVU1093
 783:Middlewares/lvgl/src/core/lv_indev.c ****                                                                           &proc->types.pointer.act_
 3464              		.loc 1 783 51 is_stmt 0 discriminator 1 view .LVU1094
 3465 017c 2846     		mov	r0, r5
 3466 017e FFF7FEFF 		bl	lv_disp_get_scr_act
 3467              	.LVL300:
 3468 0182 3146     		mov	r1, r6
 3469 0184 FFF7FEFF 		bl	lv_indev_search_obj
 3470              	.LVL301:
 783:Middlewares/lvgl/src/core/lv_indev.c ****                                                                           &proc->types.pointer.act_
 3471              		.loc 1 783 49 discriminator 1 view .LVU1095
 3472 0188 3D4B     		ldr	r3, .L254
 3473 018a 1860     		str	r0, [r3]
 3474 018c DCE7     		b	.L240
ARM GAS  /tmp/cc4kiO2x.s 			page 99


 3475              	.L248:
 789:Middlewares/lvgl/src/core/lv_indev.c ****         indev_obj_act = lv_indev_search_obj(lv_disp_get_layer_sys(disp), &proc->types.pointer.act_p
 3476              		.loc 1 789 13 discriminator 1 view .LVU1096
 3477 018e 4FF40061 		mov	r1, #2048
 3478 0192 FFF7FEFF 		bl	lv_obj_has_flag
 3479              	.LVL302:
 788:Middlewares/lvgl/src/core/lv_indev.c ****             lv_obj_has_flag(indev_obj_act, LV_OBJ_FLAG_PRESS_LOCK) == false) {
 3480              		.loc 1 788 52 discriminator 1 view .LVU1097
 3481 0196 0028     		cmp	r0, #0
 3482 0198 7FF447AF 		bne	.L241
 790:Middlewares/lvgl/src/core/lv_indev.c ****         if(indev_obj_act == NULL) indev_obj_act = lv_indev_search_obj(lv_disp_get_layer_top(disp),
 3483              		.loc 1 790 9 is_stmt 1 view .LVU1098
 790:Middlewares/lvgl/src/core/lv_indev.c ****         if(indev_obj_act == NULL) indev_obj_act = lv_indev_search_obj(lv_disp_get_layer_top(disp),
 3484              		.loc 1 790 25 is_stmt 0 view .LVU1099
 3485 019c 2846     		mov	r0, r5
 3486 019e FFF7FEFF 		bl	lv_disp_get_layer_sys
 3487              	.LVL303:
 3488 01a2 261D     		adds	r6, r4, #4
 3489 01a4 3146     		mov	r1, r6
 3490 01a6 FFF7FEFF 		bl	lv_indev_search_obj
 3491              	.LVL304:
 790:Middlewares/lvgl/src/core/lv_indev.c ****         if(indev_obj_act == NULL) indev_obj_act = lv_indev_search_obj(lv_disp_get_layer_top(disp),
 3492              		.loc 1 790 23 view .LVU1100
 3493 01aa 354B     		ldr	r3, .L254
 3494 01ac 1860     		str	r0, [r3]
 791:Middlewares/lvgl/src/core/lv_indev.c ****                                                                           &proc->types.pointer.act_
 3495              		.loc 1 791 9 is_stmt 1 view .LVU1101
 791:Middlewares/lvgl/src/core/lv_indev.c ****                                                                           &proc->types.pointer.act_
 3496              		.loc 1 791 11 is_stmt 0 view .LVU1102
 3497 01ae 60B1     		cbz	r0, .L252
 3498              	.L242:
 793:Middlewares/lvgl/src/core/lv_indev.c ****                                                                           &proc->types.pointer.act_
 3499              		.loc 1 793 9 is_stmt 1 view .LVU1103
 793:Middlewares/lvgl/src/core/lv_indev.c ****                                                                           &proc->types.pointer.act_
 3500              		.loc 1 793 26 is_stmt 0 view .LVU1104
 3501 01b0 334B     		ldr	r3, .L254
 3502 01b2 1B68     		ldr	r3, [r3]
 793:Middlewares/lvgl/src/core/lv_indev.c ****                                                                           &proc->types.pointer.act_
 3503              		.loc 1 793 11 view .LVU1105
 3504 01b4 002B     		cmp	r3, #0
 3505 01b6 C7D1     		bne	.L240
 793:Middlewares/lvgl/src/core/lv_indev.c ****                                                                           &proc->types.pointer.act_
 3506              		.loc 1 793 35 is_stmt 1 discriminator 1 view .LVU1106
 793:Middlewares/lvgl/src/core/lv_indev.c ****                                                                           &proc->types.pointer.act_
 3507              		.loc 1 793 51 is_stmt 0 discriminator 1 view .LVU1107
 3508 01b8 2846     		mov	r0, r5
 3509 01ba FFF7FEFF 		bl	lv_disp_get_scr_act
 3510              	.LVL305:
 3511 01be 3146     		mov	r1, r6
 3512 01c0 FFF7FEFF 		bl	lv_indev_search_obj
 3513              	.LVL306:
 793:Middlewares/lvgl/src/core/lv_indev.c ****                                                                           &proc->types.pointer.act_
 3514              		.loc 1 793 49 discriminator 1 view .LVU1108
 3515 01c4 2E4B     		ldr	r3, .L254
 3516 01c6 1860     		str	r0, [r3]
 3517 01c8 BEE7     		b	.L240
 3518              	.L252:
ARM GAS  /tmp/cc4kiO2x.s 			page 100


 791:Middlewares/lvgl/src/core/lv_indev.c ****                                                                           &proc->types.pointer.act_
 3519              		.loc 1 791 35 is_stmt 1 discriminator 1 view .LVU1109
 791:Middlewares/lvgl/src/core/lv_indev.c ****                                                                           &proc->types.pointer.act_
 3520              		.loc 1 791 51 is_stmt 0 discriminator 1 view .LVU1110
 3521 01ca 2846     		mov	r0, r5
 3522 01cc FFF7FEFF 		bl	lv_disp_get_layer_top
 3523              	.LVL307:
 3524 01d0 3146     		mov	r1, r6
 3525 01d2 FFF7FEFF 		bl	lv_indev_search_obj
 3526              	.LVL308:
 791:Middlewares/lvgl/src/core/lv_indev.c ****                                                                           &proc->types.pointer.act_
 3527              		.loc 1 791 49 discriminator 1 view .LVU1111
 3528 01d6 2A4B     		ldr	r3, .L254
 3529 01d8 1860     		str	r0, [r3]
 3530 01da E9E7     		b	.L242
 3531              	.LVL309:
 3532              	.L249:
 868:Middlewares/lvgl/src/core/lv_indev.c ****         if(indev_reset_check(proc)) return;
 3533              		.loc 1 868 9 is_stmt 1 view .LVU1112
 3534 01dc 2046     		mov	r0, r4
 3535 01de FFF7FEFF 		bl	_lv_indev_scroll_handler
 3536              	.LVL310:
 869:Middlewares/lvgl/src/core/lv_indev.c ****         indev_gesture(proc);
 3537              		.loc 1 869 9 view .LVU1113
 869:Middlewares/lvgl/src/core/lv_indev.c ****         indev_gesture(proc);
 3538              		.loc 1 869 12 is_stmt 0 view .LVU1114
 3539 01e2 2046     		mov	r0, r4
 3540 01e4 FFF7FEFF 		bl	indev_reset_check
 3541              	.LVL311:
 869:Middlewares/lvgl/src/core/lv_indev.c ****         indev_gesture(proc);
 3542              		.loc 1 869 11 view .LVU1115
 3543 01e8 0028     		cmp	r0, #0
 3544 01ea 9FD1     		bne	.L236
 870:Middlewares/lvgl/src/core/lv_indev.c ****         if(indev_reset_check(proc)) return;
 3545              		.loc 1 870 9 is_stmt 1 view .LVU1116
 3546 01ec 2046     		mov	r0, r4
 3547 01ee FFF7FEFF 		bl	indev_gesture
 3548              	.LVL312:
 871:Middlewares/lvgl/src/core/lv_indev.c **** 
 3549              		.loc 1 871 9 view .LVU1117
 871:Middlewares/lvgl/src/core/lv_indev.c **** 
 3550              		.loc 1 871 12 is_stmt 0 view .LVU1118
 3551 01f2 2046     		mov	r0, r4
 3552 01f4 FFF7FEFF 		bl	indev_reset_check
 3553              	.LVL313:
 871:Middlewares/lvgl/src/core/lv_indev.c **** 
 3554              		.loc 1 871 11 view .LVU1119
 3555 01f8 0028     		cmp	r0, #0
 3556 01fa 97D1     		bne	.L236
 874:Middlewares/lvgl/src/core/lv_indev.c ****             /*Call the ancestor's event handler about the long press if enough time elapsed*/
 3557              		.loc 1 874 9 is_stmt 1 view .LVU1120
 874:Middlewares/lvgl/src/core/lv_indev.c ****             /*Call the ancestor's event handler about the long press if enough time elapsed*/
 3558              		.loc 1 874 31 is_stmt 0 view .LVU1121
 3559 01fc A36A     		ldr	r3, [r4, #40]
 874:Middlewares/lvgl/src/core/lv_indev.c ****             /*Call the ancestor's event handler about the long press if enough time elapsed*/
 3560              		.loc 1 874 11 view .LVU1122
 3561 01fe F3B1     		cbz	r3, .L253
ARM GAS  /tmp/cc4kiO2x.s 			page 101


 3562              	.L245:
 889:Middlewares/lvgl/src/core/lv_indev.c ****             /*Call the ancestor's event handler about the long press repeat if enough time elapsed*
 3563              		.loc 1 889 9 is_stmt 1 view .LVU1123
 889:Middlewares/lvgl/src/core/lv_indev.c ****             /*Call the ancestor's event handler about the long press repeat if enough time elapsed*
 3564              		.loc 1 889 31 is_stmt 0 view .LVU1124
 3565 0200 A36A     		ldr	r3, [r4, #40]
 889:Middlewares/lvgl/src/core/lv_indev.c ****             /*Call the ancestor's event handler about the long press repeat if enough time elapsed*
 3566              		.loc 1 889 11 view .LVU1125
 3567 0202 002B     		cmp	r3, #0
 3568 0204 92D1     		bne	.L236
 889:Middlewares/lvgl/src/core/lv_indev.c ****             /*Call the ancestor's event handler about the long press repeat if enough time elapsed*
 3569              		.loc 1 889 73 discriminator 1 view .LVU1126
 3570 0206 6378     		ldrb	r3, [r4, #1]	@ zero_extendqisi2
 889:Middlewares/lvgl/src/core/lv_indev.c ****             /*Call the ancestor's event handler about the long press repeat if enough time elapsed*
 3571              		.loc 1 889 51 discriminator 1 view .LVU1127
 3572 0208 13F0010F 		tst	r3, #1
 3573 020c 8ED0     		beq	.L236
 891:Middlewares/lvgl/src/core/lv_indev.c ****                 lv_event_send(indev_obj_act, LV_EVENT_LONG_PRESSED_REPEAT, indev_act);
 3574              		.loc 1 891 13 is_stmt 1 view .LVU1128
 891:Middlewares/lvgl/src/core/lv_indev.c ****                 lv_event_send(indev_obj_act, LV_EVENT_LONG_PRESSED_REPEAT, indev_act);
 3575              		.loc 1 891 16 is_stmt 0 view .LVU1129
 3576 020e 606C     		ldr	r0, [r4, #68]
 3577 0210 FFF7FEFF 		bl	lv_tick_elaps
 3578              	.LVL314:
 891:Middlewares/lvgl/src/core/lv_indev.c ****                 lv_event_send(indev_obj_act, LV_EVENT_LONG_PRESSED_REPEAT, indev_act);
 3579              		.loc 1 891 69 view .LVU1130
 3580 0214 1B4B     		ldr	r3, .L254+4
 3581 0216 1A68     		ldr	r2, [r3]
 3582 0218 1368     		ldr	r3, [r2]
 891:Middlewares/lvgl/src/core/lv_indev.c ****                 lv_event_send(indev_obj_act, LV_EVENT_LONG_PRESSED_REPEAT, indev_act);
 3583              		.loc 1 891 77 view .LVU1131
 3584 021a DB8B     		ldrh	r3, [r3, #30]
 891:Middlewares/lvgl/src/core/lv_indev.c ****                 lv_event_send(indev_obj_act, LV_EVENT_LONG_PRESSED_REPEAT, indev_act);
 3585              		.loc 1 891 15 view .LVU1132
 3586 021c 9842     		cmp	r0, r3
 3587 021e 85D9     		bls	.L236
 892:Middlewares/lvgl/src/core/lv_indev.c ****                 if(indev_reset_check(proc)) return;
 3588              		.loc 1 892 17 is_stmt 1 view .LVU1133
 3589 0220 0621     		movs	r1, #6
 3590 0222 174B     		ldr	r3, .L254
 3591 0224 1868     		ldr	r0, [r3]
 3592 0226 FFF7FEFF 		bl	lv_event_send
 3593              	.LVL315:
 893:Middlewares/lvgl/src/core/lv_indev.c ****                 proc->longpr_rep_timestamp = lv_tick_get();
 3594              		.loc 1 893 17 view .LVU1134
 893:Middlewares/lvgl/src/core/lv_indev.c ****                 proc->longpr_rep_timestamp = lv_tick_get();
 3595              		.loc 1 893 20 is_stmt 0 view .LVU1135
 3596 022a 2046     		mov	r0, r4
 3597 022c FFF7FEFF 		bl	indev_reset_check
 3598              	.LVL316:
 893:Middlewares/lvgl/src/core/lv_indev.c ****                 proc->longpr_rep_timestamp = lv_tick_get();
 3599              		.loc 1 893 19 view .LVU1136
 3600 0230 0028     		cmp	r0, #0
 3601 0232 7FF47BAF 		bne	.L236
 894:Middlewares/lvgl/src/core/lv_indev.c ****             }
 3602              		.loc 1 894 17 is_stmt 1 view .LVU1137
 894:Middlewares/lvgl/src/core/lv_indev.c ****             }
ARM GAS  /tmp/cc4kiO2x.s 			page 102


 3603              		.loc 1 894 46 is_stmt 0 view .LVU1138
 3604 0236 FFF7FEFF 		bl	lv_tick_get
 3605              	.LVL317:
 894:Middlewares/lvgl/src/core/lv_indev.c ****             }
 3606              		.loc 1 894 44 view .LVU1139
 3607 023a 6064     		str	r0, [r4, #68]
 3608 023c 76E7     		b	.L236
 3609              	.L253:
 874:Middlewares/lvgl/src/core/lv_indev.c ****             /*Call the ancestor's event handler about the long press if enough time elapsed*/
 3610              		.loc 1 874 73 discriminator 1 view .LVU1140
 3611 023e 6378     		ldrb	r3, [r4, #1]	@ zero_extendqisi2
 874:Middlewares/lvgl/src/core/lv_indev.c ****             /*Call the ancestor's event handler about the long press if enough time elapsed*/
 3612              		.loc 1 874 51 discriminator 1 view .LVU1141
 3613 0240 13F0010F 		tst	r3, #1
 3614 0244 DCD1     		bne	.L245
 876:Middlewares/lvgl/src/core/lv_indev.c ****                 lv_event_send(indev_obj_act, LV_EVENT_LONG_PRESSED, indev_act);
 3615              		.loc 1 876 13 is_stmt 1 view .LVU1142
 876:Middlewares/lvgl/src/core/lv_indev.c ****                 lv_event_send(indev_obj_act, LV_EVENT_LONG_PRESSED, indev_act);
 3616              		.loc 1 876 16 is_stmt 0 view .LVU1143
 3617 0246 206C     		ldr	r0, [r4, #64]
 3618 0248 FFF7FEFF 		bl	lv_tick_elaps
 3619              	.LVL318:
 876:Middlewares/lvgl/src/core/lv_indev.c ****                 lv_event_send(indev_obj_act, LV_EVENT_LONG_PRESSED, indev_act);
 3620              		.loc 1 876 61 view .LVU1144
 3621 024c 0D4B     		ldr	r3, .L254+4
 3622 024e 1A68     		ldr	r2, [r3]
 3623 0250 1368     		ldr	r3, [r2]
 876:Middlewares/lvgl/src/core/lv_indev.c ****                 lv_event_send(indev_obj_act, LV_EVENT_LONG_PRESSED, indev_act);
 3624              		.loc 1 876 69 view .LVU1145
 3625 0252 9B8B     		ldrh	r3, [r3, #28]
 876:Middlewares/lvgl/src/core/lv_indev.c ****                 lv_event_send(indev_obj_act, LV_EVENT_LONG_PRESSED, indev_act);
 3626              		.loc 1 876 15 view .LVU1146
 3627 0254 9842     		cmp	r0, r3
 3628 0256 D3D9     		bls	.L245
 877:Middlewares/lvgl/src/core/lv_indev.c ****                 if(indev_reset_check(proc)) return;
 3629              		.loc 1 877 17 is_stmt 1 view .LVU1147
 3630 0258 0521     		movs	r1, #5
 3631 025a 094B     		ldr	r3, .L254
 3632 025c 1868     		ldr	r0, [r3]
 3633 025e FFF7FEFF 		bl	lv_event_send
 3634              	.LVL319:
 878:Middlewares/lvgl/src/core/lv_indev.c **** 
 3635              		.loc 1 878 17 view .LVU1148
 878:Middlewares/lvgl/src/core/lv_indev.c **** 
 3636              		.loc 1 878 20 is_stmt 0 view .LVU1149
 3637 0262 2046     		mov	r0, r4
 3638 0264 FFF7FEFF 		bl	indev_reset_check
 3639              	.LVL320:
 878:Middlewares/lvgl/src/core/lv_indev.c **** 
 3640              		.loc 1 878 19 view .LVU1150
 3641 0268 0028     		cmp	r0, #0
 3642 026a 7FF45FAF 		bne	.L236
 881:Middlewares/lvgl/src/core/lv_indev.c **** 
 3643              		.loc 1 881 17 is_stmt 1 view .LVU1151
 881:Middlewares/lvgl/src/core/lv_indev.c **** 
 3644              		.loc 1 881 36 is_stmt 0 view .LVU1152
 3645 026e 6378     		ldrb	r3, [r4, #1]	@ zero_extendqisi2
ARM GAS  /tmp/cc4kiO2x.s 			page 103


 3646 0270 43F00103 		orr	r3, r3, #1
 3647 0274 6370     		strb	r3, [r4, #1]
 884:Middlewares/lvgl/src/core/lv_indev.c ****             }
 3648              		.loc 1 884 17 is_stmt 1 view .LVU1153
 884:Middlewares/lvgl/src/core/lv_indev.c ****             }
 3649              		.loc 1 884 46 is_stmt 0 view .LVU1154
 3650 0276 FFF7FEFF 		bl	lv_tick_get
 3651              	.LVL321:
 884:Middlewares/lvgl/src/core/lv_indev.c ****             }
 3652              		.loc 1 884 44 view .LVU1155
 3653 027a 6064     		str	r0, [r4, #68]
 3654 027c C0E7     		b	.L245
 3655              	.L255:
 3656 027e 00BF     		.align	2
 3657              	.L254:
 3658 0280 00000000 		.word	.LANCHOR0
 3659 0284 00000000 		.word	.LANCHOR1
 3660              		.cfi_endproc
 3661              	.LFE176:
 3663              		.section	.text.indev_pointer_proc,"ax",%progbits
 3664              		.align	1
 3665              		.syntax unified
 3666              		.thumb
 3667              		.thumb_func
 3668              		.fpu softvfp
 3670              	indev_pointer_proc:
 3671              	.LVL322:
 3672              	.LFB172:
 327:Middlewares/lvgl/src/core/lv_indev.c ****     lv_disp_t *disp = i->driver->disp;
 3673              		.loc 1 327 1 is_stmt 1 view -0
 3674              		.cfi_startproc
 3675              		@ args = 0, pretend = 0, frame = 0
 3676              		@ frame_needed = 0, uses_anonymous_args = 0
 327:Middlewares/lvgl/src/core/lv_indev.c ****     lv_disp_t *disp = i->driver->disp;
 3677              		.loc 1 327 1 is_stmt 0 view .LVU1157
 3678 0000 38B5     		push	{r3, r4, r5, lr}
 3679              	.LCFI10:
 3680              		.cfi_def_cfa_offset 16
 3681              		.cfi_offset 3, -16
 3682              		.cfi_offset 4, -12
 3683              		.cfi_offset 5, -8
 3684              		.cfi_offset 14, -4
 3685 0002 0446     		mov	r4, r0
 3686 0004 0D46     		mov	r5, r1
 328:Middlewares/lvgl/src/core/lv_indev.c ****     /*Save the raw points so they can be used again in _lv_indev_read*/
 3687              		.loc 1 328 5 is_stmt 1 view .LVU1158
 328:Middlewares/lvgl/src/core/lv_indev.c ****     /*Save the raw points so they can be used again in _lv_indev_read*/
 3688              		.loc 1 328 24 is_stmt 0 view .LVU1159
 3689 0006 0368     		ldr	r3, [r0]
 328:Middlewares/lvgl/src/core/lv_indev.c ****     /*Save the raw points so they can be used again in _lv_indev_read*/
 3690              		.loc 1 328 16 view .LVU1160
 3691 0008 1969     		ldr	r1, [r3, #16]
 3692              	.LVL323:
 330:Middlewares/lvgl/src/core/lv_indev.c ****     i->proc.types.pointer.last_raw_point.y = data->point.y;
 3693              		.loc 1 330 5 is_stmt 1 view .LVU1161
 330:Middlewares/lvgl/src/core/lv_indev.c ****     i->proc.types.pointer.last_raw_point.y = data->point.y;
 3694              		.loc 1 330 57 is_stmt 0 view .LVU1162
ARM GAS  /tmp/cc4kiO2x.s 			page 104


 3695 000a B5F90030 		ldrsh	r3, [r5]
 330:Middlewares/lvgl/src/core/lv_indev.c ****     i->proc.types.pointer.last_raw_point.y = data->point.y;
 3696              		.loc 1 330 44 view .LVU1163
 3697 000e 0382     		strh	r3, [r0, #16]	@ movhi
 331:Middlewares/lvgl/src/core/lv_indev.c **** 
 3698              		.loc 1 331 5 is_stmt 1 view .LVU1164
 331:Middlewares/lvgl/src/core/lv_indev.c **** 
 3699              		.loc 1 331 57 is_stmt 0 view .LVU1165
 3700 0010 B5F90200 		ldrsh	r0, [r5, #2]
 3701              	.LVL324:
 331:Middlewares/lvgl/src/core/lv_indev.c **** 
 3702              		.loc 1 331 44 view .LVU1166
 3703 0014 6082     		strh	r0, [r4, #18]	@ movhi
 333:Middlewares/lvgl/src/core/lv_indev.c ****         data->point.x = disp->driver->hor_res - data->point.x - 1;
 3704              		.loc 1 333 5 is_stmt 1 view .LVU1167
 333:Middlewares/lvgl/src/core/lv_indev.c ****         data->point.x = disp->driver->hor_res - data->point.x - 1;
 3705              		.loc 1 333 12 is_stmt 0 view .LVU1168
 3706 0016 0A68     		ldr	r2, [r1]
 333:Middlewares/lvgl/src/core/lv_indev.c ****         data->point.x = disp->driver->hor_res - data->point.x - 1;
 3707              		.loc 1 333 30 view .LVU1169
 3708 0018 137A     		ldrb	r3, [r2, #8]	@ zero_extendqisi2
 3709 001a 03F01803 		and	r3, r3, #24
 333:Middlewares/lvgl/src/core/lv_indev.c ****         data->point.x = disp->driver->hor_res - data->point.x - 1;
 3710              		.loc 1 333 7 view .LVU1170
 3711 001e 102B     		cmp	r3, #16
 3712 0020 01D0     		beq	.L257
 333:Middlewares/lvgl/src/core/lv_indev.c ****         data->point.x = disp->driver->hor_res - data->point.x - 1;
 3713              		.loc 1 333 49 discriminator 1 view .LVU1171
 3714 0022 182B     		cmp	r3, #24
 3715 0024 0CD1     		bne	.L258
 3716              	.L257:
 334:Middlewares/lvgl/src/core/lv_indev.c ****         data->point.y = disp->driver->ver_res - data->point.y - 1;
 3717              		.loc 1 334 9 is_stmt 1 view .LVU1172
 334:Middlewares/lvgl/src/core/lv_indev.c ****         data->point.y = disp->driver->ver_res - data->point.y - 1;
 3718              		.loc 1 334 37 is_stmt 0 view .LVU1173
 3719 0026 1288     		ldrh	r2, [r2]
 334:Middlewares/lvgl/src/core/lv_indev.c ****         data->point.y = disp->driver->ver_res - data->point.y - 1;
 3720              		.loc 1 334 60 view .LVU1174
 3721 0028 2B88     		ldrh	r3, [r5]
 334:Middlewares/lvgl/src/core/lv_indev.c ****         data->point.y = disp->driver->ver_res - data->point.y - 1;
 3722              		.loc 1 334 47 view .LVU1175
 3723 002a D21A     		subs	r2, r2, r3
 3724 002c 92B2     		uxth	r2, r2
 334:Middlewares/lvgl/src/core/lv_indev.c ****         data->point.y = disp->driver->ver_res - data->point.y - 1;
 3725              		.loc 1 334 63 view .LVU1176
 3726 002e 013A     		subs	r2, r2, #1
 334:Middlewares/lvgl/src/core/lv_indev.c ****         data->point.y = disp->driver->ver_res - data->point.y - 1;
 3727              		.loc 1 334 23 view .LVU1177
 3728 0030 2A80     		strh	r2, [r5]	@ movhi
 335:Middlewares/lvgl/src/core/lv_indev.c ****     }
 3729              		.loc 1 335 9 is_stmt 1 view .LVU1178
 335:Middlewares/lvgl/src/core/lv_indev.c ****     }
 3730              		.loc 1 335 29 is_stmt 0 view .LVU1179
 3731 0032 0B68     		ldr	r3, [r1]
 335:Middlewares/lvgl/src/core/lv_indev.c ****     }
 3732              		.loc 1 335 37 view .LVU1180
 3733 0034 5B88     		ldrh	r3, [r3, #2]
ARM GAS  /tmp/cc4kiO2x.s 			page 105


 335:Middlewares/lvgl/src/core/lv_indev.c ****     }
 3734              		.loc 1 335 60 view .LVU1181
 3735 0036 80B2     		uxth	r0, r0
 335:Middlewares/lvgl/src/core/lv_indev.c ****     }
 3736              		.loc 1 335 47 view .LVU1182
 3737 0038 1B1A     		subs	r3, r3, r0
 3738 003a 9BB2     		uxth	r3, r3
 335:Middlewares/lvgl/src/core/lv_indev.c ****     }
 3739              		.loc 1 335 63 view .LVU1183
 3740 003c 013B     		subs	r3, r3, #1
 335:Middlewares/lvgl/src/core/lv_indev.c ****     }
 3741              		.loc 1 335 23 view .LVU1184
 3742 003e 6B80     		strh	r3, [r5, #2]	@ movhi
 3743              	.L258:
 337:Middlewares/lvgl/src/core/lv_indev.c ****         lv_coord_t tmp = data->point.y;
 3744              		.loc 1 337 5 is_stmt 1 view .LVU1185
 337:Middlewares/lvgl/src/core/lv_indev.c ****         lv_coord_t tmp = data->point.y;
 3745              		.loc 1 337 12 is_stmt 0 view .LVU1186
 3746 0040 0B68     		ldr	r3, [r1]
 337:Middlewares/lvgl/src/core/lv_indev.c ****         lv_coord_t tmp = data->point.y;
 3747              		.loc 1 337 30 view .LVU1187
 3748 0042 1B7A     		ldrb	r3, [r3, #8]	@ zero_extendqisi2
 3749 0044 03F01803 		and	r3, r3, #24
 337:Middlewares/lvgl/src/core/lv_indev.c ****         lv_coord_t tmp = data->point.y;
 3750              		.loc 1 337 7 view .LVU1188
 3751 0048 082B     		cmp	r3, #8
 3752 004a 01D0     		beq	.L259
 337:Middlewares/lvgl/src/core/lv_indev.c ****         lv_coord_t tmp = data->point.y;
 3753              		.loc 1 337 48 discriminator 1 view .LVU1189
 3754 004c 182B     		cmp	r3, #24
 3755 004e 0AD1     		bne	.L260
 3756              	.L259:
 3757              	.LBB15:
 338:Middlewares/lvgl/src/core/lv_indev.c ****         data->point.y = data->point.x;
 3758              		.loc 1 338 9 is_stmt 1 view .LVU1190
 338:Middlewares/lvgl/src/core/lv_indev.c ****         data->point.y = data->point.x;
 3759              		.loc 1 338 20 is_stmt 0 view .LVU1191
 3760 0050 B5F90220 		ldrsh	r2, [r5, #2]
 3761              	.LVL325:
 339:Middlewares/lvgl/src/core/lv_indev.c ****         data->point.x = disp->driver->ver_res - tmp - 1;
 3762              		.loc 1 339 9 is_stmt 1 view .LVU1192
 339:Middlewares/lvgl/src/core/lv_indev.c ****         data->point.x = disp->driver->ver_res - tmp - 1;
 3763              		.loc 1 339 36 is_stmt 0 view .LVU1193
 3764 0054 B5F90030 		ldrsh	r3, [r5]
 339:Middlewares/lvgl/src/core/lv_indev.c ****         data->point.x = disp->driver->ver_res - tmp - 1;
 3765              		.loc 1 339 23 view .LVU1194
 3766 0058 6B80     		strh	r3, [r5, #2]	@ movhi
 340:Middlewares/lvgl/src/core/lv_indev.c ****     }
 3767              		.loc 1 340 9 is_stmt 1 view .LVU1195
 340:Middlewares/lvgl/src/core/lv_indev.c ****     }
 3768              		.loc 1 340 29 is_stmt 0 view .LVU1196
 3769 005a 0B68     		ldr	r3, [r1]
 340:Middlewares/lvgl/src/core/lv_indev.c ****     }
 3770              		.loc 1 340 37 view .LVU1197
 3771 005c 5B88     		ldrh	r3, [r3, #2]
 340:Middlewares/lvgl/src/core/lv_indev.c ****     }
 3772              		.loc 1 340 47 view .LVU1198
ARM GAS  /tmp/cc4kiO2x.s 			page 106


 3773 005e 9B1A     		subs	r3, r3, r2
 3774 0060 9BB2     		uxth	r3, r3
 340:Middlewares/lvgl/src/core/lv_indev.c ****     }
 3775              		.loc 1 340 53 view .LVU1199
 3776 0062 013B     		subs	r3, r3, #1
 340:Middlewares/lvgl/src/core/lv_indev.c ****     }
 3777              		.loc 1 340 23 view .LVU1200
 3778 0064 2B80     		strh	r3, [r5]	@ movhi
 3779              	.LVL326:
 3780              	.L260:
 340:Middlewares/lvgl/src/core/lv_indev.c ****     }
 3781              		.loc 1 340 23 view .LVU1201
 3782              	.LBE15:
 344:Middlewares/lvgl/src/core/lv_indev.c ****     if(data->point.x >= lv_disp_get_hor_res(i->driver->disp)) LV_LOG_WARN("X is %d which is greater
 3783              		.loc 1 344 5 is_stmt 1 view .LVU1202
 345:Middlewares/lvgl/src/core/lv_indev.c ****     if(data->point.y < 0) LV_LOG_WARN("Y is %d which is smaller than zero", data->point.y);
 3784              		.loc 1 345 5 view .LVU1203
 345:Middlewares/lvgl/src/core/lv_indev.c ****     if(data->point.y < 0) LV_LOG_WARN("Y is %d which is smaller than zero", data->point.y);
 3785              		.loc 1 345 46 is_stmt 0 view .LVU1204
 3786 0066 2368     		ldr	r3, [r4]
 345:Middlewares/lvgl/src/core/lv_indev.c ****     if(data->point.y < 0) LV_LOG_WARN("Y is %d which is smaller than zero", data->point.y);
 3787              		.loc 1 345 25 view .LVU1205
 3788 0068 1869     		ldr	r0, [r3, #16]
 3789 006a FFF7FEFF 		bl	lv_disp_get_hor_res
 3790              	.LVL327:
 346:Middlewares/lvgl/src/core/lv_indev.c ****     if(data->point.y >= lv_disp_get_ver_res(i->driver->disp)) LV_LOG_WARN("Y is %d which is greater
 3791              		.loc 1 346 5 is_stmt 1 view .LVU1206
 347:Middlewares/lvgl/src/core/lv_indev.c **** 
 3792              		.loc 1 347 5 view .LVU1207
 347:Middlewares/lvgl/src/core/lv_indev.c **** 
 3793              		.loc 1 347 46 is_stmt 0 view .LVU1208
 3794 006e 2368     		ldr	r3, [r4]
 347:Middlewares/lvgl/src/core/lv_indev.c **** 
 3795              		.loc 1 347 25 view .LVU1209
 3796 0070 1869     		ldr	r0, [r3, #16]
 3797 0072 FFF7FEFF 		bl	lv_disp_get_ver_res
 3798              	.LVL328:
 350:Middlewares/lvgl/src/core/lv_indev.c ****        (i->proc.types.pointer.last_point.x != data->point.x || i->proc.types.pointer.last_point.y !
 3799              		.loc 1 350 5 is_stmt 1 view .LVU1210
 350:Middlewares/lvgl/src/core/lv_indev.c ****        (i->proc.types.pointer.last_point.x != data->point.x || i->proc.types.pointer.last_point.y !
 3800              		.loc 1 350 9 is_stmt 0 view .LVU1211
 3801 0076 E06C     		ldr	r0, [r4, #76]
 350:Middlewares/lvgl/src/core/lv_indev.c ****        (i->proc.types.pointer.last_point.x != data->point.x || i->proc.types.pointer.last_point.y !
 3802              		.loc 1 350 7 view .LVU1212
 3803 0078 18B1     		cbz	r0, .L261
 351:Middlewares/lvgl/src/core/lv_indev.c ****         lv_obj_set_pos(i->cursor, data->point.x, data->point.y);
 3804              		.loc 1 351 61 discriminator 1 view .LVU1213
 3805 007a E268     		ldr	r2, [r4, #12]
 3806 007c 2B68     		ldr	r3, [r5]
 350:Middlewares/lvgl/src/core/lv_indev.c ****        (i->proc.types.pointer.last_point.x != data->point.x || i->proc.types.pointer.last_point.y !
 3807              		.loc 1 350 26 discriminator 1 view .LVU1214
 3808 007e 9A42     		cmp	r2, r3
 3809 0080 12D1     		bne	.L265
 3810              	.L261:
 355:Middlewares/lvgl/src/core/lv_indev.c ****     i->proc.types.pointer.act_point.y = data->point.y;
 3811              		.loc 1 355 5 is_stmt 1 view .LVU1215
 355:Middlewares/lvgl/src/core/lv_indev.c ****     i->proc.types.pointer.act_point.y = data->point.y;
ARM GAS  /tmp/cc4kiO2x.s 			page 107


 3812              		.loc 1 355 52 is_stmt 0 view .LVU1216
 3813 0082 B5F90030 		ldrsh	r3, [r5]
 355:Middlewares/lvgl/src/core/lv_indev.c ****     i->proc.types.pointer.act_point.y = data->point.y;
 3814              		.loc 1 355 39 view .LVU1217
 3815 0086 2381     		strh	r3, [r4, #8]	@ movhi
 356:Middlewares/lvgl/src/core/lv_indev.c **** 
 3816              		.loc 1 356 5 is_stmt 1 view .LVU1218
 356:Middlewares/lvgl/src/core/lv_indev.c **** 
 3817              		.loc 1 356 52 is_stmt 0 view .LVU1219
 3818 0088 B5F90230 		ldrsh	r3, [r5, #2]
 356:Middlewares/lvgl/src/core/lv_indev.c **** 
 3819              		.loc 1 356 39 view .LVU1220
 3820 008c 6381     		strh	r3, [r4, #10]	@ movhi
 358:Middlewares/lvgl/src/core/lv_indev.c ****         indev_proc_press(&i->proc);
 3821              		.loc 1 358 5 is_stmt 1 view .LVU1221
 358:Middlewares/lvgl/src/core/lv_indev.c ****         indev_proc_press(&i->proc);
 3822              		.loc 1 358 15 is_stmt 0 view .LVU1222
 3823 008e 2379     		ldrb	r3, [r4, #4]	@ zero_extendqisi2
 358:Middlewares/lvgl/src/core/lv_indev.c ****         indev_proc_press(&i->proc);
 3824              		.loc 1 358 7 view .LVU1223
 3825 0090 012B     		cmp	r3, #1
 3826 0092 10D0     		beq	.L266
 362:Middlewares/lvgl/src/core/lv_indev.c ****     }
 3827              		.loc 1 362 9 is_stmt 1 view .LVU1224
 3828 0094 201D     		adds	r0, r4, #4
 3829 0096 FFF7FEFF 		bl	indev_proc_release
 3830              	.LVL329:
 3831              	.L263:
 365:Middlewares/lvgl/src/core/lv_indev.c ****     i->proc.types.pointer.last_point.y = i->proc.types.pointer.act_point.y;
 3832              		.loc 1 365 5 view .LVU1225
 365:Middlewares/lvgl/src/core/lv_indev.c ****     i->proc.types.pointer.last_point.y = i->proc.types.pointer.act_point.y;
 3833              		.loc 1 365 73 is_stmt 0 view .LVU1226
 3834 009a B4F90830 		ldrsh	r3, [r4, #8]
 365:Middlewares/lvgl/src/core/lv_indev.c ****     i->proc.types.pointer.last_point.y = i->proc.types.pointer.act_point.y;
 3835              		.loc 1 365 40 view .LVU1227
 3836 009e A381     		strh	r3, [r4, #12]	@ movhi
 366:Middlewares/lvgl/src/core/lv_indev.c **** }
 3837              		.loc 1 366 5 is_stmt 1 view .LVU1228
 366:Middlewares/lvgl/src/core/lv_indev.c **** }
 3838              		.loc 1 366 73 is_stmt 0 view .LVU1229
 3839 00a0 B4F90A30 		ldrsh	r3, [r4, #10]
 366:Middlewares/lvgl/src/core/lv_indev.c **** }
 3840              		.loc 1 366 40 view .LVU1230
 3841 00a4 E381     		strh	r3, [r4, #14]	@ movhi
 367:Middlewares/lvgl/src/core/lv_indev.c **** 
 3842              		.loc 1 367 1 view .LVU1231
 3843 00a6 38BD     		pop	{r3, r4, r5, pc}
 3844              	.LVL330:
 3845              	.L265:
 352:Middlewares/lvgl/src/core/lv_indev.c ****     }
 3846              		.loc 1 352 9 is_stmt 1 view .LVU1232
 3847 00a8 B5F90220 		ldrsh	r2, [r5, #2]
 3848 00ac B5F90010 		ldrsh	r1, [r5]
 3849 00b0 FFF7FEFF 		bl	lv_obj_set_pos
 3850              	.LVL331:
 3851 00b4 E5E7     		b	.L261
 3852              	.L266:
ARM GAS  /tmp/cc4kiO2x.s 			page 108


 359:Middlewares/lvgl/src/core/lv_indev.c ****     }
 3853              		.loc 1 359 9 view .LVU1233
 3854 00b6 201D     		adds	r0, r4, #4
 3855 00b8 FFF7FEFF 		bl	indev_proc_press
 3856              	.LVL332:
 3857 00bc EDE7     		b	.L263
 3858              		.cfi_endproc
 3859              	.LFE172:
 3861              		.section	.text.indev_button_proc,"ax",%progbits
 3862              		.align	1
 3863              		.syntax unified
 3864              		.thumb
 3865              		.thumb_func
 3866              		.fpu softvfp
 3868              	indev_button_proc:
 3869              	.LVL333:
 3870              	.LFB175:
 720:Middlewares/lvgl/src/core/lv_indev.c ****     /*Die gracefully if i->btn_points is NULL*/
 3871              		.loc 1 720 1 view -0
 3872              		.cfi_startproc
 3873              		@ args = 0, pretend = 0, frame = 0
 3874              		@ frame_needed = 0, uses_anonymous_args = 0
 722:Middlewares/lvgl/src/core/lv_indev.c ****         LV_LOG_WARN("btn_points is NULL");
 3875              		.loc 1 722 5 view .LVU1235
 722:Middlewares/lvgl/src/core/lv_indev.c ****         LV_LOG_WARN("btn_points is NULL");
 3876              		.loc 1 722 9 is_stmt 0 view .LVU1236
 3877 0000 436D     		ldr	r3, [r0, #84]
 722:Middlewares/lvgl/src/core/lv_indev.c ****         LV_LOG_WARN("btn_points is NULL");
 3878              		.loc 1 722 7 view .LVU1237
 3879 0002 BBB3     		cbz	r3, .L274
 720:Middlewares/lvgl/src/core/lv_indev.c ****     /*Die gracefully if i->btn_points is NULL*/
 3880              		.loc 1 720 1 view .LVU1238
 3881 0004 2DE9F041 		push	{r4, r5, r6, r7, r8, lr}
 3882              	.LCFI11:
 3883              		.cfi_def_cfa_offset 24
 3884              		.cfi_offset 4, -24
 3885              		.cfi_offset 5, -20
 3886              		.cfi_offset 6, -16
 3887              		.cfi_offset 7, -12
 3888              		.cfi_offset 8, -8
 3889              		.cfi_offset 14, -4
 3890 0008 0446     		mov	r4, r0
 3891 000a 0D46     		mov	r5, r1
 727:Middlewares/lvgl/src/core/lv_indev.c ****     lv_coord_t y = i->btn_points[data->btn_id].y;
 3892              		.loc 1 727 5 is_stmt 1 view .LVU1239
 727:Middlewares/lvgl/src/core/lv_indev.c ****     lv_coord_t y = i->btn_points[data->btn_id].y;
 3893              		.loc 1 727 38 is_stmt 0 view .LVU1240
 3894 000c 8A68     		ldr	r2, [r1, #8]
 727:Middlewares/lvgl/src/core/lv_indev.c ****     lv_coord_t y = i->btn_points[data->btn_id].y;
 3895              		.loc 1 727 33 view .LVU1241
 3896 000e 03EB8201 		add	r1, r3, r2, lsl #2
 3897              	.LVL334:
 727:Middlewares/lvgl/src/core/lv_indev.c ****     lv_coord_t y = i->btn_points[data->btn_id].y;
 3898              		.loc 1 727 16 view .LVU1242
 3899 0012 33F92270 		ldrsh	r7, [r3, r2, lsl #2]
 3900              	.LVL335:
 728:Middlewares/lvgl/src/core/lv_indev.c **** 
ARM GAS  /tmp/cc4kiO2x.s 			page 109


 3901              		.loc 1 728 5 is_stmt 1 view .LVU1243
 728:Middlewares/lvgl/src/core/lv_indev.c **** 
 3902              		.loc 1 728 16 is_stmt 0 view .LVU1244
 3903 0016 B1F90280 		ldrsh	r8, [r1, #2]
 3904              	.LVL336:
 730:Middlewares/lvgl/src/core/lv_indev.c ****     if(prev_state != data->state) {
 3905              		.loc 1 730 5 is_stmt 1 view .LVU1245
 731:Middlewares/lvgl/src/core/lv_indev.c ****         if(data->state == LV_INDEV_STATE_PRESSED) {
 3906              		.loc 1 731 5 view .LVU1246
 731:Middlewares/lvgl/src/core/lv_indev.c ****         if(data->state == LV_INDEV_STATE_PRESSED) {
 3907              		.loc 1 731 26 is_stmt 0 view .LVU1247
 3908 001a AB7B     		ldrb	r3, [r5, #14]	@ zero_extendqisi2
 736:Middlewares/lvgl/src/core/lv_indev.c ****         }
 3909              		.loc 1 736 81 is_stmt 1 view .LVU1248
 741:Middlewares/lvgl/src/core/lv_indev.c ****         if(i->proc.types.pointer.last_point.x != x ||
 3910              		.loc 1 741 5 view .LVU1249
 741:Middlewares/lvgl/src/core/lv_indev.c ****         if(i->proc.types.pointer.last_point.x != x ||
 3911              		.loc 1 741 7 is_stmt 0 view .LVU1250
 3912 001c 012B     		cmp	r3, #1
 3913 001e 19D0     		beq	.L277
 3914              	.LVL337:
 3915              	.L269:
 748:Middlewares/lvgl/src/core/lv_indev.c **** 
 3916              		.loc 1 748 5 is_stmt 1 view .LVU1251
 748:Middlewares/lvgl/src/core/lv_indev.c **** 
 3917              		.loc 1 748 8 is_stmt 0 view .LVU1252
 3918 0020 261D     		adds	r6, r4, #4
 3919 0022 3046     		mov	r0, r6
 3920 0024 FFF7FEFF 		bl	indev_reset_check
 3921              	.LVL338:
 748:Middlewares/lvgl/src/core/lv_indev.c **** 
 3922              		.loc 1 748 7 view .LVU1253
 3923 0028 90B9     		cbnz	r0, .L267
 751:Middlewares/lvgl/src/core/lv_indev.c ****     i->proc.types.pointer.act_point.y = y;
 3924              		.loc 1 751 5 is_stmt 1 view .LVU1254
 751:Middlewares/lvgl/src/core/lv_indev.c ****     i->proc.types.pointer.act_point.y = y;
 3925              		.loc 1 751 39 is_stmt 0 view .LVU1255
 3926 002a 2781     		strh	r7, [r4, #8]	@ movhi
 752:Middlewares/lvgl/src/core/lv_indev.c **** 
 3927              		.loc 1 752 5 is_stmt 1 view .LVU1256
 752:Middlewares/lvgl/src/core/lv_indev.c **** 
 3928              		.loc 1 752 39 is_stmt 0 view .LVU1257
 3929 002c A4F80A80 		strh	r8, [r4, #10]	@ movhi
 754:Middlewares/lvgl/src/core/lv_indev.c ****     else indev_proc_release(&i->proc);
 3930              		.loc 1 754 5 is_stmt 1 view .LVU1258
 754:Middlewares/lvgl/src/core/lv_indev.c ****     else indev_proc_release(&i->proc);
 3931              		.loc 1 754 12 is_stmt 0 view .LVU1259
 3932 0030 AB7B     		ldrb	r3, [r5, #14]	@ zero_extendqisi2
 754:Middlewares/lvgl/src/core/lv_indev.c ****     else indev_proc_release(&i->proc);
 3933              		.loc 1 754 7 view .LVU1260
 3934 0032 012B     		cmp	r3, #1
 3935 0034 1AD0     		beq	.L278
 755:Middlewares/lvgl/src/core/lv_indev.c **** 
 3936              		.loc 1 755 10 is_stmt 1 view .LVU1261
 3937 0036 3046     		mov	r0, r6
 3938 0038 FFF7FEFF 		bl	indev_proc_release
 3939              	.LVL339:
ARM GAS  /tmp/cc4kiO2x.s 			page 110


 3940              	.L272:
 757:Middlewares/lvgl/src/core/lv_indev.c **** 
 3941              		.loc 1 757 5 view .LVU1262
 757:Middlewares/lvgl/src/core/lv_indev.c **** 
 3942              		.loc 1 757 8 is_stmt 0 view .LVU1263
 3943 003c 3046     		mov	r0, r6
 3944 003e FFF7FEFF 		bl	indev_reset_check
 3945              	.LVL340:
 757:Middlewares/lvgl/src/core/lv_indev.c **** 
 3946              		.loc 1 757 7 view .LVU1264
 3947 0042 28B9     		cbnz	r0, .L267
 759:Middlewares/lvgl/src/core/lv_indev.c ****     i->proc.types.pointer.last_point.y = i->proc.types.pointer.act_point.y;
 3948              		.loc 1 759 5 is_stmt 1 view .LVU1265
 759:Middlewares/lvgl/src/core/lv_indev.c ****     i->proc.types.pointer.last_point.y = i->proc.types.pointer.act_point.y;
 3949              		.loc 1 759 73 is_stmt 0 view .LVU1266
 3950 0044 B4F90830 		ldrsh	r3, [r4, #8]
 759:Middlewares/lvgl/src/core/lv_indev.c ****     i->proc.types.pointer.last_point.y = i->proc.types.pointer.act_point.y;
 3951              		.loc 1 759 40 view .LVU1267
 3952 0048 A381     		strh	r3, [r4, #12]	@ movhi
 760:Middlewares/lvgl/src/core/lv_indev.c **** }
 3953              		.loc 1 760 5 is_stmt 1 view .LVU1268
 760:Middlewares/lvgl/src/core/lv_indev.c **** }
 3954              		.loc 1 760 73 is_stmt 0 view .LVU1269
 3955 004a B4F90A30 		ldrsh	r3, [r4, #10]
 760:Middlewares/lvgl/src/core/lv_indev.c **** }
 3956              		.loc 1 760 40 view .LVU1270
 3957 004e E381     		strh	r3, [r4, #14]	@ movhi
 3958              	.L267:
 761:Middlewares/lvgl/src/core/lv_indev.c **** 
 3959              		.loc 1 761 1 view .LVU1271
 3960 0050 BDE8F081 		pop	{r4, r5, r6, r7, r8, pc}
 3961              	.LVL341:
 3962              	.L277:
 742:Middlewares/lvgl/src/core/lv_indev.c ****            i->proc.types.pointer.last_point.y != y) {
 3963              		.loc 1 742 9 is_stmt 1 view .LVU1272
 742:Middlewares/lvgl/src/core/lv_indev.c ****            i->proc.types.pointer.last_point.y != y) {
 3964              		.loc 1 742 44 is_stmt 0 view .LVU1273
 3965 0054 B0F90C30 		ldrsh	r3, [r0, #12]
 742:Middlewares/lvgl/src/core/lv_indev.c ****            i->proc.types.pointer.last_point.y != y) {
 3966              		.loc 1 742 11 view .LVU1274
 3967 0058 BB42     		cmp	r3, r7
 3968 005a 03D1     		bne	.L270
 743:Middlewares/lvgl/src/core/lv_indev.c ****             indev_proc_release(&i->proc);
 3969              		.loc 1 743 44 discriminator 1 view .LVU1275
 3970 005c B0F90E30 		ldrsh	r3, [r0, #14]
 742:Middlewares/lvgl/src/core/lv_indev.c ****            i->proc.types.pointer.last_point.y != y) {
 3971              		.loc 1 742 52 discriminator 1 view .LVU1276
 3972 0060 4345     		cmp	r3, r8
 3973 0062 DDD0     		beq	.L269
 3974              	.L270:
 744:Middlewares/lvgl/src/core/lv_indev.c ****         }
 3975              		.loc 1 744 13 is_stmt 1 view .LVU1277
 3976 0064 201D     		adds	r0, r4, #4
 3977              	.LVL342:
 744:Middlewares/lvgl/src/core/lv_indev.c ****         }
 3978              		.loc 1 744 13 is_stmt 0 view .LVU1278
 3979 0066 FFF7FEFF 		bl	indev_proc_release
ARM GAS  /tmp/cc4kiO2x.s 			page 111


 3980              	.LVL343:
 3981 006a D9E7     		b	.L269
 3982              	.L278:
 754:Middlewares/lvgl/src/core/lv_indev.c ****     else indev_proc_release(&i->proc);
 3983              		.loc 1 754 47 is_stmt 1 discriminator 1 view .LVU1279
 3984 006c 3046     		mov	r0, r6
 3985 006e FFF7FEFF 		bl	indev_proc_press
 3986              	.LVL344:
 3987 0072 E3E7     		b	.L272
 3988              	.LVL345:
 3989              	.L274:
 3990              	.LCFI12:
 3991              		.cfi_def_cfa_offset 0
 3992              		.cfi_restore 4
 3993              		.cfi_restore 5
 3994              		.cfi_restore 6
 3995              		.cfi_restore 7
 3996              		.cfi_restore 8
 3997              		.cfi_restore 14
 754:Middlewares/lvgl/src/core/lv_indev.c ****     else indev_proc_release(&i->proc);
 3998              		.loc 1 754 47 is_stmt 0 discriminator 1 view .LVU1280
 3999 0074 7047     		bx	lr
 4000              		.cfi_endproc
 4001              	.LFE175:
 4003              		.section	.text.lv_indev_read_timer_cb,"ax",%progbits
 4004              		.align	1
 4005              		.global	lv_indev_read_timer_cb
 4006              		.syntax unified
 4007              		.thumb
 4008              		.thumb_func
 4009              		.fpu softvfp
 4011              	lv_indev_read_timer_cb:
 4012              	.LVL346:
 4013              	.LFB153:
  65:Middlewares/lvgl/src/core/lv_indev.c ****     INDEV_TRACE("begin");
 4014              		.loc 1 65 1 is_stmt 1 view -0
 4015              		.cfi_startproc
 4016              		@ args = 0, pretend = 0, frame = 16
 4017              		@ frame_needed = 0, uses_anonymous_args = 0
  66:Middlewares/lvgl/src/core/lv_indev.c **** 
 4018              		.loc 1 66 25 view .LVU1282
  68:Middlewares/lvgl/src/core/lv_indev.c **** 
 4019              		.loc 1 68 5 view .LVU1283
  70:Middlewares/lvgl/src/core/lv_indev.c **** 
 4020              		.loc 1 70 5 view .LVU1284
  70:Middlewares/lvgl/src/core/lv_indev.c **** 
 4021              		.loc 1 70 22 is_stmt 0 view .LVU1285
 4022 0000 C068     		ldr	r0, [r0, #12]
 4023              	.LVL347:
  70:Middlewares/lvgl/src/core/lv_indev.c **** 
 4024              		.loc 1 70 15 view .LVU1286
 4025 0002 304B     		ldr	r3, .L299
 4026 0004 1860     		str	r0, [r3]
  73:Middlewares/lvgl/src/core/lv_indev.c **** 
 4027              		.loc 1 73 5 is_stmt 1 view .LVU1287
  73:Middlewares/lvgl/src/core/lv_indev.c **** 
 4028              		.loc 1 73 17 is_stmt 0 view .LVU1288
ARM GAS  /tmp/cc4kiO2x.s 			page 112


 4029 0006 0368     		ldr	r3, [r0]
  73:Middlewares/lvgl/src/core/lv_indev.c **** 
 4030              		.loc 1 73 25 view .LVU1289
 4031 0008 1B69     		ldr	r3, [r3, #16]
  73:Middlewares/lvgl/src/core/lv_indev.c **** 
 4032              		.loc 1 73 7 view .LVU1290
 4033 000a 002B     		cmp	r3, #0
 4034 000c 58D0     		beq	.L290
  65:Middlewares/lvgl/src/core/lv_indev.c ****     INDEV_TRACE("begin");
 4035              		.loc 1 65 1 view .LVU1291
 4036 000e 30B5     		push	{r4, r5, lr}
 4037              	.LCFI13:
 4038              		.cfi_def_cfa_offset 12
 4039              		.cfi_offset 4, -12
 4040              		.cfi_offset 5, -8
 4041              		.cfi_offset 14, -4
 4042 0010 85B0     		sub	sp, sp, #20
 4043              	.LCFI14:
 4044              		.cfi_def_cfa_offset 32
  76:Middlewares/lvgl/src/core/lv_indev.c **** 
 4045              		.loc 1 76 5 is_stmt 1 view .LVU1292
 4046 0012 FFF7FEFF 		bl	indev_proc_reset_query_handler
 4047              	.LVL348:
  78:Middlewares/lvgl/src/core/lv_indev.c ****     bool continue_reading;
 4048              		.loc 1 78 5 view .LVU1293
  78:Middlewares/lvgl/src/core/lv_indev.c ****     bool continue_reading;
 4049              		.loc 1 78 17 is_stmt 0 view .LVU1294
 4050 0016 2B4B     		ldr	r3, .L299
 4051 0018 1B68     		ldr	r3, [r3]
  78:Middlewares/lvgl/src/core/lv_indev.c ****     bool continue_reading;
 4052              		.loc 1 78 8 view .LVU1295
 4053 001a 5B79     		ldrb	r3, [r3, #5]	@ zero_extendqisi2
  78:Middlewares/lvgl/src/core/lv_indev.c ****     bool continue_reading;
 4054              		.loc 1 78 7 view .LVU1296
 4055 001c 13F0040F 		tst	r3, #4
 4056 0020 18D0     		beq	.L287
 4057 0022 4BE0     		b	.L279
 4058              	.LVL349:
 4059              	.L294:
  93:Middlewares/lvgl/src/core/lv_indev.c ****         }
 4060              		.loc 1 93 13 is_stmt 1 view .LVU1297
  93:Middlewares/lvgl/src/core/lv_indev.c ****         }
 4061              		.loc 1 93 22 is_stmt 0 view .LVU1298
 4062 0024 1368     		ldr	r3, [r2]
  93:Middlewares/lvgl/src/core/lv_indev.c ****         }
 4063              		.loc 1 93 30 view .LVU1299
 4064 0026 1C69     		ldr	r4, [r3, #16]
  93:Middlewares/lvgl/src/core/lv_indev.c ****         }
 4065              		.loc 1 93 59 view .LVU1300
 4066 0028 FFF7FEFF 		bl	lv_tick_get
 4067              	.LVL350:
  93:Middlewares/lvgl/src/core/lv_indev.c ****         }
 4068              		.loc 1 93 57 view .LVU1301
 4069 002c C4F85401 		str	r0, [r4, #340]
 4070 0030 27E0     		b	.L282
 4071              	.L295:
  95:Middlewares/lvgl/src/core/lv_indev.c ****             indev_act->driver->disp->last_activity_time = lv_tick_get();
ARM GAS  /tmp/cc4kiO2x.s 			page 113


 4072              		.loc 1 95 73 discriminator 1 view .LVU1302
 4073 0032 BDF90C20 		ldrsh	r2, [sp, #12]
  95:Middlewares/lvgl/src/core/lv_indev.c ****             indev_act->driver->disp->last_activity_time = lv_tick_get();
 4074              		.loc 1 95 66 discriminator 1 view .LVU1303
 4075 0036 22B3     		cbz	r2, .L282
  96:Middlewares/lvgl/src/core/lv_indev.c ****         }
 4076              		.loc 1 96 13 is_stmt 1 view .LVU1304
  96:Middlewares/lvgl/src/core/lv_indev.c ****         }
 4077              		.loc 1 96 30 is_stmt 0 view .LVU1305
 4078 0038 1C69     		ldr	r4, [r3, #16]
  96:Middlewares/lvgl/src/core/lv_indev.c ****         }
 4079              		.loc 1 96 59 view .LVU1306
 4080 003a FFF7FEFF 		bl	lv_tick_get
 4081              	.LVL351:
  96:Middlewares/lvgl/src/core/lv_indev.c ****         }
 4082              		.loc 1 96 57 view .LVU1307
 4083 003e C4F85401 		str	r0, [r4, #340]
 4084 0042 1EE0     		b	.L282
 4085              	.L296:
 100:Middlewares/lvgl/src/core/lv_indev.c ****         }
 4086              		.loc 1 100 13 is_stmt 1 view .LVU1308
 4087 0044 6946     		mov	r1, sp
 4088 0046 FFF7FEFF 		bl	indev_pointer_proc
 4089              	.LVL352:
 4090              	.L284:
 112:Middlewares/lvgl/src/core/lv_indev.c ****     } while(continue_reading);
 4091              		.loc 1 112 9 view .LVU1309
 4092 004a 1E4B     		ldr	r3, .L299
 4093 004c 1868     		ldr	r0, [r3]
 4094 004e FFF7FEFF 		bl	indev_proc_reset_query_handler
 4095              	.LVL353:
 113:Middlewares/lvgl/src/core/lv_indev.c **** 
 4096              		.loc 1 113 12 view .LVU1310
 113:Middlewares/lvgl/src/core/lv_indev.c **** 
 4097              		.loc 1 113 5 is_stmt 0 view .LVU1311
 4098 0052 75B3     		cbz	r5, .L293
 4099              	.LVL354:
 4100              	.L287:
  79:Middlewares/lvgl/src/core/lv_indev.c ****     do {
 4101              		.loc 1 79 5 is_stmt 1 view .LVU1312
  80:Middlewares/lvgl/src/core/lv_indev.c ****         /*Read the data*/
 4102              		.loc 1 80 5 view .LVU1313
  82:Middlewares/lvgl/src/core/lv_indev.c ****         continue_reading = data.continue_reading;
 4103              		.loc 1 82 9 view .LVU1314
 4104 0054 1B4C     		ldr	r4, .L299
 4105 0056 6946     		mov	r1, sp
 4106 0058 2068     		ldr	r0, [r4]
 4107 005a FFF7FEFF 		bl	_lv_indev_read
 4108              	.LVL355:
  83:Middlewares/lvgl/src/core/lv_indev.c **** 
 4109              		.loc 1 83 9 view .LVU1315
  83:Middlewares/lvgl/src/core/lv_indev.c **** 
 4110              		.loc 1 83 26 is_stmt 0 view .LVU1316
 4111 005e 9DF80F50 		ldrb	r5, [sp, #15]	@ zero_extendqisi2
 4112              	.LVL356:
  86:Middlewares/lvgl/src/core/lv_indev.c ****         indev_obj_act = NULL;
 4113              		.loc 1 86 9 is_stmt 1 view .LVU1317
ARM GAS  /tmp/cc4kiO2x.s 			page 114


 4114 0062 2068     		ldr	r0, [r4]
 4115 0064 FFF7FEFF 		bl	indev_proc_reset_query_handler
 4116              	.LVL357:
  87:Middlewares/lvgl/src/core/lv_indev.c **** 
 4117              		.loc 1 87 9 view .LVU1318
  87:Middlewares/lvgl/src/core/lv_indev.c **** 
 4118              		.loc 1 87 23 is_stmt 0 view .LVU1319
 4119 0068 174B     		ldr	r3, .L299+4
 4120 006a 0022     		movs	r2, #0
 4121 006c 1A60     		str	r2, [r3]
  89:Middlewares/lvgl/src/core/lv_indev.c **** 
 4122              		.loc 1 89 9 is_stmt 1 view .LVU1320
  89:Middlewares/lvgl/src/core/lv_indev.c **** 
 4123              		.loc 1 89 18 is_stmt 0 view .LVU1321
 4124 006e 2268     		ldr	r2, [r4]
  89:Middlewares/lvgl/src/core/lv_indev.c **** 
 4125              		.loc 1 89 37 view .LVU1322
 4126 0070 9DF80E30 		ldrb	r3, [sp, #14]	@ zero_extendqisi2
  89:Middlewares/lvgl/src/core/lv_indev.c **** 
 4127              		.loc 1 89 31 view .LVU1323
 4128 0074 1371     		strb	r3, [r2, #4]
  92:Middlewares/lvgl/src/core/lv_indev.c ****             indev_act->driver->disp->last_activity_time = lv_tick_get();
 4129              		.loc 1 92 9 is_stmt 1 view .LVU1324
  92:Middlewares/lvgl/src/core/lv_indev.c ****             indev_act->driver->disp->last_activity_time = lv_tick_get();
 4130              		.loc 1 92 11 is_stmt 0 view .LVU1325
 4131 0076 012B     		cmp	r3, #1
 4132 0078 D4D0     		beq	.L294
  95:Middlewares/lvgl/src/core/lv_indev.c ****             indev_act->driver->disp->last_activity_time = lv_tick_get();
 4133              		.loc 1 95 14 is_stmt 1 view .LVU1326
  95:Middlewares/lvgl/src/core/lv_indev.c ****             indev_act->driver->disp->last_activity_time = lv_tick_get();
 4134              		.loc 1 95 26 is_stmt 0 view .LVU1327
 4135 007a 1368     		ldr	r3, [r2]
  95:Middlewares/lvgl/src/core/lv_indev.c ****             indev_act->driver->disp->last_activity_time = lv_tick_get();
 4136              		.loc 1 95 34 view .LVU1328
 4137 007c 1A78     		ldrb	r2, [r3]	@ zero_extendqisi2
  95:Middlewares/lvgl/src/core/lv_indev.c ****             indev_act->driver->disp->last_activity_time = lv_tick_get();
 4138              		.loc 1 95 16 view .LVU1329
 4139 007e 042A     		cmp	r2, #4
 4140 0080 D7D0     		beq	.L295
 4141              	.L282:
  99:Middlewares/lvgl/src/core/lv_indev.c ****             indev_pointer_proc(indev_act, &data);
 4142              		.loc 1 99 9 is_stmt 1 view .LVU1330
  99:Middlewares/lvgl/src/core/lv_indev.c ****             indev_pointer_proc(indev_act, &data);
 4143              		.loc 1 99 21 is_stmt 0 view .LVU1331
 4144 0082 104B     		ldr	r3, .L299
 4145 0084 1868     		ldr	r0, [r3]
 4146 0086 0368     		ldr	r3, [r0]
  99:Middlewares/lvgl/src/core/lv_indev.c ****             indev_pointer_proc(indev_act, &data);
 4147              		.loc 1 99 29 view .LVU1332
 4148 0088 1B78     		ldrb	r3, [r3]	@ zero_extendqisi2
  99:Middlewares/lvgl/src/core/lv_indev.c ****             indev_pointer_proc(indev_act, &data);
 4149              		.loc 1 99 11 view .LVU1333
 4150 008a 012B     		cmp	r3, #1
 4151 008c DAD0     		beq	.L296
 102:Middlewares/lvgl/src/core/lv_indev.c ****             indev_keypad_proc(indev_act, &data);
 4152              		.loc 1 102 14 is_stmt 1 view .LVU1334
 102:Middlewares/lvgl/src/core/lv_indev.c ****             indev_keypad_proc(indev_act, &data);
ARM GAS  /tmp/cc4kiO2x.s 			page 115


 4153              		.loc 1 102 16 is_stmt 0 view .LVU1335
 4154 008e 022B     		cmp	r3, #2
 4155 0090 07D0     		beq	.L297
 105:Middlewares/lvgl/src/core/lv_indev.c ****             indev_encoder_proc(indev_act, &data);
 4156              		.loc 1 105 14 is_stmt 1 view .LVU1336
 105:Middlewares/lvgl/src/core/lv_indev.c ****             indev_encoder_proc(indev_act, &data);
 4157              		.loc 1 105 16 is_stmt 0 view .LVU1337
 4158 0092 042B     		cmp	r3, #4
 4159 0094 09D0     		beq	.L298
 108:Middlewares/lvgl/src/core/lv_indev.c ****             indev_button_proc(indev_act, &data);
 4160              		.loc 1 108 14 is_stmt 1 view .LVU1338
 108:Middlewares/lvgl/src/core/lv_indev.c ****             indev_button_proc(indev_act, &data);
 4161              		.loc 1 108 16 is_stmt 0 view .LVU1339
 4162 0096 032B     		cmp	r3, #3
 4163 0098 D7D1     		bne	.L284
 109:Middlewares/lvgl/src/core/lv_indev.c ****         }
 4164              		.loc 1 109 13 is_stmt 1 view .LVU1340
 4165 009a 6946     		mov	r1, sp
 4166 009c FFF7FEFF 		bl	indev_button_proc
 4167              	.LVL358:
 4168 00a0 D3E7     		b	.L284
 4169              	.L297:
 103:Middlewares/lvgl/src/core/lv_indev.c ****         }
 4170              		.loc 1 103 13 view .LVU1341
 4171 00a2 6946     		mov	r1, sp
 4172 00a4 FFF7FEFF 		bl	indev_keypad_proc
 4173              	.LVL359:
 4174 00a8 CFE7     		b	.L284
 4175              	.L298:
 106:Middlewares/lvgl/src/core/lv_indev.c ****         }
 4176              		.loc 1 106 13 view .LVU1342
 4177 00aa 6946     		mov	r1, sp
 4178 00ac FFF7FEFF 		bl	indev_encoder_proc
 4179              	.LVL360:
 4180 00b0 CBE7     		b	.L284
 4181              	.L293:
 116:Middlewares/lvgl/src/core/lv_indev.c ****     indev_obj_act = NULL;
 4182              		.loc 1 116 5 view .LVU1343
 116:Middlewares/lvgl/src/core/lv_indev.c ****     indev_obj_act = NULL;
 4183              		.loc 1 116 19 is_stmt 0 view .LVU1344
 4184 00b2 0023     		movs	r3, #0
 4185 00b4 034A     		ldr	r2, .L299
 4186 00b6 1360     		str	r3, [r2]
 117:Middlewares/lvgl/src/core/lv_indev.c **** 
 4187              		.loc 1 117 5 is_stmt 1 view .LVU1345
 117:Middlewares/lvgl/src/core/lv_indev.c **** 
 4188              		.loc 1 117 19 is_stmt 0 view .LVU1346
 4189 00b8 034A     		ldr	r2, .L299+4
 4190 00ba 1360     		str	r3, [r2]
 119:Middlewares/lvgl/src/core/lv_indev.c **** }
 4191              		.loc 1 119 28 is_stmt 1 view .LVU1347
 4192              	.LVL361:
 4193              	.L279:
 120:Middlewares/lvgl/src/core/lv_indev.c **** 
 4194              		.loc 1 120 1 is_stmt 0 view .LVU1348
 4195 00bc 05B0     		add	sp, sp, #20
 4196              	.LCFI15:
ARM GAS  /tmp/cc4kiO2x.s 			page 116


 4197              		.cfi_def_cfa_offset 12
 4198              		@ sp needed
 4199 00be 30BD     		pop	{r4, r5, pc}
 4200              	.L290:
 4201              	.LCFI16:
 4202              		.cfi_def_cfa_offset 0
 4203              		.cfi_restore 4
 4204              		.cfi_restore 5
 4205              		.cfi_restore 14
 4206 00c0 7047     		bx	lr
 4207              	.L300:
 4208 00c2 00BF     		.align	2
 4209              	.L299:
 4210 00c4 00000000 		.word	.LANCHOR1
 4211 00c8 00000000 		.word	.LANCHOR0
 4212              		.cfi_endproc
 4213              	.LFE153:
 4215              		.section	.bss.indev_act,"aw",%nobits
 4216              		.align	2
 4217              		.set	.LANCHOR1,. + 0
 4220              	indev_act:
 4221 0000 00000000 		.space	4
 4222              		.section	.bss.indev_obj_act,"aw",%nobits
 4223              		.align	2
 4224              		.set	.LANCHOR0,. + 0
 4227              	indev_obj_act:
 4228 0000 00000000 		.space	4
 4229              		.text
 4230              	.Letext0:
 4231              		.file 2 "/home/akinya/gcc-arm-none-eabi/arm-none-eabi/include/machine/_default_types.h"
 4232              		.file 3 "/home/akinya/gcc-arm-none-eabi/arm-none-eabi/include/sys/_stdint.h"
 4233              		.file 4 "Middlewares/lvgl/src/core/../misc/../font/../misc/lv_area.h"
 4234              		.file 5 "Middlewares/lvgl/src/core/../misc/../font/lv_font.h"
 4235              		.file 6 "Middlewares/lvgl/src/core/../misc/lv_color.h"
 4236              		.file 7 "Middlewares/lvgl/src/core/../misc/lv_style.h"
 4237              		.file 8 "Middlewares/lvgl/src/core/../hal/../misc/lv_ll.h"
 4238              		.file 9 "Middlewares/lvgl/src/core/../hal/../misc/lv_timer.h"
 4239              		.file 10 "Middlewares/lvgl/src/core/../hal/lv_hal_disp.h"
 4240              		.file 11 "Middlewares/lvgl/src/core/lv_theme.h"
 4241              		.file 12 "Middlewares/lvgl/src/core/lv_obj.h"
 4242              		.file 13 "Middlewares/lvgl/src/core/../hal/lv_hal_indev.h"
 4243              		.file 14 "Middlewares/lvgl/src/core/lv_group.h"
 4244              		.file 15 "Middlewares/lvgl/src/core/lv_obj_scroll.h"
 4245              		.file 16 "Middlewares/lvgl/src/core/lv_obj_style.h"
 4246              		.file 17 "Middlewares/lvgl/src/core/lv_obj_class.h"
 4247              		.file 18 "Middlewares/lvgl/src/core/lv_event.h"
 4248              		.file 19 "Middlewares/lvgl/src/core/lv_obj_tree.h"
 4249              		.file 20 "Middlewares/lvgl/src/core/lv_indev_scroll.h"
 4250              		.file 21 "Middlewares/lvgl/src/core/../hal/lv_hal_tick.h"
 4251              		.file 22 "Middlewares/lvgl/src/core/lv_disp.h"
 4252              		.file 23 "Middlewares/lvgl/src/core/lv_obj_pos.h"
ARM GAS  /tmp/cc4kiO2x.s 			page 117


DEFINED SYMBOLS
                            *ABS*:0000000000000000 lv_indev.c
     /tmp/cc4kiO2x.s:16     .text.indev_proc_reset_query_handler:0000000000000000 $t
     /tmp/cc4kiO2x.s:23     .text.indev_proc_reset_query_handler:0000000000000000 indev_proc_reset_query_handler
     /tmp/cc4kiO2x.s:97     .text.indev_proc_reset_query_handler:0000000000000044 $d
     /tmp/cc4kiO2x.s:102    .text.indev_reset_check:0000000000000000 $t
     /tmp/cc4kiO2x.s:108    .text.indev_reset_check:0000000000000000 indev_reset_check
     /tmp/cc4kiO2x.s:136    .text.indev_reset_check:0000000000000014 $d
     /tmp/cc4kiO2x.s:141    .text.indev_proc_release:0000000000000000 $t
     /tmp/cc4kiO2x.s:147    .text.indev_proc_release:0000000000000000 indev_proc_release
     /tmp/cc4kiO2x.s:291    .text.indev_proc_release:0000000000000090 $d
     /tmp/cc4kiO2x.s:297    .text.indev_click_focus:0000000000000000 $t
     /tmp/cc4kiO2x.s:303    .text.indev_click_focus:0000000000000000 indev_click_focus
     /tmp/cc4kiO2x.s:542    .text.indev_click_focus:00000000000000f4 $d
     /tmp/cc4kiO2x.s:549    .text.indev_gesture:0000000000000000 $t
     /tmp/cc4kiO2x.s:555    .text.indev_gesture:0000000000000000 indev_gesture
     /tmp/cc4kiO2x.s:754    .text.indev_gesture:0000000000000110 $d
     /tmp/cc4kiO2x.s:759    .text.indev_keypad_proc:0000000000000000 $t
     /tmp/cc4kiO2x.s:765    .text.indev_keypad_proc:0000000000000000 indev_keypad_proc
     /tmp/cc4kiO2x.s:1283   .text.indev_keypad_proc:0000000000000260 $d
     /tmp/cc4kiO2x.s:1289   .text.indev_encoder_proc:0000000000000000 $t
     /tmp/cc4kiO2x.s:1295   .text.indev_encoder_proc:0000000000000000 indev_encoder_proc
     /tmp/cc4kiO2x.s:1846   .text.indev_encoder_proc:0000000000000278 $d
     /tmp/cc4kiO2x.s:1852   .text.indev_encoder_proc:0000000000000280 $t
     /tmp/cc4kiO2x.s:2105   .text.indev_encoder_proc:00000000000003a8 $d
     /tmp/cc4kiO2x.s:2112   .text.lv_indev_enable:0000000000000000 $t
     /tmp/cc4kiO2x.s:2119   .text.lv_indev_enable:0000000000000000 lv_indev_enable
     /tmp/cc4kiO2x.s:2145   .text.lv_indev_get_act:0000000000000000 $t
     /tmp/cc4kiO2x.s:2152   .text.lv_indev_get_act:0000000000000000 lv_indev_get_act
     /tmp/cc4kiO2x.s:2167   .text.lv_indev_get_act:0000000000000008 $d
     /tmp/cc4kiO2x.s:2172   .text.lv_indev_get_type:0000000000000000 $t
     /tmp/cc4kiO2x.s:2179   .text.lv_indev_get_type:0000000000000000 lv_indev_get_type
     /tmp/cc4kiO2x.s:2209   .text.lv_indev_reset:0000000000000000 $t
     /tmp/cc4kiO2x.s:2216   .text.lv_indev_reset:0000000000000000 lv_indev_reset
     /tmp/cc4kiO2x.s:2396   .text.lv_indev_reset:000000000000009c $d
     /tmp/cc4kiO2x.s:2402   .text.lv_indev_reset_long_press:0000000000000000 $t
     /tmp/cc4kiO2x.s:2409   .text.lv_indev_reset_long_press:0000000000000000 lv_indev_reset_long_press
     /tmp/cc4kiO2x.s:2447   .text.lv_indev_set_cursor:0000000000000000 $t
     /tmp/cc4kiO2x.s:2454   .text.lv_indev_set_cursor:0000000000000000 lv_indev_set_cursor
     /tmp/cc4kiO2x.s:2523   .text.lv_indev_set_group:0000000000000000 $t
     /tmp/cc4kiO2x.s:2530   .text.lv_indev_set_group:0000000000000000 lv_indev_set_group
     /tmp/cc4kiO2x.s:2560   .text.lv_indev_set_button_points:0000000000000000 $t
     /tmp/cc4kiO2x.s:2567   .text.lv_indev_set_button_points:0000000000000000 lv_indev_set_button_points
     /tmp/cc4kiO2x.s:2596   .text.lv_indev_get_point:0000000000000000 $t
     /tmp/cc4kiO2x.s:2603   .text.lv_indev_get_point:0000000000000000 lv_indev_get_point
     /tmp/cc4kiO2x.s:2661   .text.lv_indev_get_gesture_dir:0000000000000000 $t
     /tmp/cc4kiO2x.s:2668   .text.lv_indev_get_gesture_dir:0000000000000000 lv_indev_get_gesture_dir
     /tmp/cc4kiO2x.s:2687   .text.lv_indev_get_key:0000000000000000 $t
     /tmp/cc4kiO2x.s:2694   .text.lv_indev_get_key:0000000000000000 lv_indev_get_key
     /tmp/cc4kiO2x.s:2727   .text.lv_indev_get_scroll_dir:0000000000000000 $t
     /tmp/cc4kiO2x.s:2734   .text.lv_indev_get_scroll_dir:0000000000000000 lv_indev_get_scroll_dir
     /tmp/cc4kiO2x.s:2783   .text.lv_indev_get_scroll_obj:0000000000000000 $t
     /tmp/cc4kiO2x.s:2790   .text.lv_indev_get_scroll_obj:0000000000000000 lv_indev_get_scroll_obj
     /tmp/cc4kiO2x.s:2834   .text.lv_indev_get_vect:0000000000000000 $t
     /tmp/cc4kiO2x.s:2841   .text.lv_indev_get_vect:0000000000000000 lv_indev_get_vect
     /tmp/cc4kiO2x.s:2889   .text.lv_indev_wait_release:0000000000000000 $t
     /tmp/cc4kiO2x.s:2896   .text.lv_indev_wait_release:0000000000000000 lv_indev_wait_release
ARM GAS  /tmp/cc4kiO2x.s 			page 118


     /tmp/cc4kiO2x.s:2919   .text.lv_indev_get_obj_act:0000000000000000 $t
     /tmp/cc4kiO2x.s:2926   .text.lv_indev_get_obj_act:0000000000000000 lv_indev_get_obj_act
     /tmp/cc4kiO2x.s:2941   .text.lv_indev_get_obj_act:0000000000000008 $d
     /tmp/cc4kiO2x.s:2946   .text.lv_indev_get_read_timer:0000000000000000 $t
     /tmp/cc4kiO2x.s:2953   .text.lv_indev_get_read_timer:0000000000000000 lv_indev_get_read_timer
     /tmp/cc4kiO2x.s:2978   .text.lv_indev_search_obj:0000000000000000 $t
     /tmp/cc4kiO2x.s:2985   .text.lv_indev_search_obj:0000000000000000 lv_indev_search_obj
     /tmp/cc4kiO2x.s:3127   .text.indev_proc_press:0000000000000000 $t
     /tmp/cc4kiO2x.s:3133   .text.indev_proc_press:0000000000000000 indev_proc_press
     /tmp/cc4kiO2x.s:3658   .text.indev_proc_press:0000000000000280 $d
     /tmp/cc4kiO2x.s:3664   .text.indev_pointer_proc:0000000000000000 $t
     /tmp/cc4kiO2x.s:3670   .text.indev_pointer_proc:0000000000000000 indev_pointer_proc
     /tmp/cc4kiO2x.s:3862   .text.indev_button_proc:0000000000000000 $t
     /tmp/cc4kiO2x.s:3868   .text.indev_button_proc:0000000000000000 indev_button_proc
     /tmp/cc4kiO2x.s:4004   .text.lv_indev_read_timer_cb:0000000000000000 $t
     /tmp/cc4kiO2x.s:4011   .text.lv_indev_read_timer_cb:0000000000000000 lv_indev_read_timer_cb
     /tmp/cc4kiO2x.s:4210   .text.lv_indev_read_timer_cb:00000000000000c4 $d
     /tmp/cc4kiO2x.s:4216   .bss.indev_act:0000000000000000 $d
     /tmp/cc4kiO2x.s:4220   .bss.indev_act:0000000000000000 indev_act
     /tmp/cc4kiO2x.s:4223   .bss.indev_obj_act:0000000000000000 $d
     /tmp/cc4kiO2x.s:4227   .bss.indev_obj_act:0000000000000000 indev_obj_act

UNDEFINED SYMBOLS
lv_event_send
_lv_indev_scroll_throw_handler
lv_obj_has_flag
lv_obj_get_group
lv_group_focus_obj
lv_obj_get_parent
lv_group_get_focused
lv_tick_get
lv_group_send_data
lv_group_set_editing
lv_group_focus_next
lv_group_focus_prev
lv_tick_elaps
lv_obj_is_editable
lv_group_get_editing
lv_group_get_obj_count
lv_obj_clear_state
lv_indev_get_next
lv_disp_get_layer_sys
lv_obj_set_parent
lv_obj_set_pos
lv_obj_clear_flag
lv_obj_add_flag
lv_obj_hit_test
lv_obj_get_child_cnt
lv_obj_get_child
lv_obj_get_state
lv_disp_get_layer_top
lv_disp_get_scr_act
_lv_indev_scroll_handler
lv_disp_get_hor_res
lv_disp_get_ver_res
_lv_indev_read
